; ModuleID = 'gen/third_party/blink/renderer/platform/runtime_enabled_features.cc'
source_filename = "gen/third_party/blink/renderer/platform/runtime_enabled_features.cc"
target datalayout = "e-m:e-i64:64-f80:128-n8:16:32:64-S128"
target triple = "x86_64-unknown-linux-gnu"

module asm ".symver exp, exp@GLIBC_2.2.5"
module asm ".symver exp2, exp2@GLIBC_2.2.5"
module asm ".symver exp2f, exp2f@GLIBC_2.2.5"
module asm ".symver expf, expf@GLIBC_2.2.5"
module asm ".symver lgamma, lgamma@GLIBC_2.2.5"
module asm ".symver lgammaf, lgammaf@GLIBC_2.2.5"
module asm ".symver lgammal, lgammal@GLIBC_2.2.5"
module asm ".symver log, log@GLIBC_2.2.5"
module asm ".symver log2, log2@GLIBC_2.2.5"
module asm ".symver log2f, log2f@GLIBC_2.2.5"
module asm ".symver logf, logf@GLIBC_2.2.5"
module asm ".symver pow, pow@GLIBC_2.2.5"
module asm ".symver powf, powf@GLIBC_2.2.5"

%struct.anon.1 = type { i8*, i8* }
%"class.blink::RuntimeEnabledFeaturesBase::Backup" = type { i8, i8, i8, i8, i8, i8, i8, i8, i8, i8, i8, i8, i8, i8, i8, i8, i8, i8, i8, i8, i8, i8, i8, i8, i8, i8, i8, i8, i8, i8, i8, i8, i8, i8, i8, i8, i8, i8, i8, i8, i8, i8, i8, i8, i8, i8, i8, i8, i8, i8, i8, i8, i8, i8, i8, i8, i8, i8, i8, i8, i8, i8, i8, i8, i8, i8, i8, i8, i8, i8, i8, i8, i8, i8, i8, i8, i8, i8, i8, i8, i8, i8, i8, i8, i8, i8, i8, i8, i8, i8, i8, i8, i8, i8, i8, i8, i8, i8, i8, i8, i8, i8, i8, i8, i8, i8, i8, i8, i8, i8, i8, i8, i8, i8, i8, i8, i8, i8, i8, i8, i8, i8, i8, i8, i8, i8, i8, i8, i8, i8, i8, i8, i8, i8, i8, i8, i8, i8, i8, i8, i8, i8, i8, i8, i8, i8, i8, i8, i8, i8, i8, i8, i8, i8, i8, i8, i8, i8, i8, i8, i8, i8, i8, i8, i8, i8, i8, i8, i8, i8, i8, i8, i8, i8, i8, i8, i8, i8, i8, i8, i8, i8, i8, i8, i8, i8, i8, i8, i8, i8, i8, i8, i8, i8, i8, i8, i8, i8, i8, i8, i8, i8, i8, i8, i8, i8, i8, i8, i8, i8, i8, i8, i8, i8, i8, i8, i8, i8, i8, i8, i8, i8, i8, i8, i8, i8, i8, i8, i8, i8, i8, i8, i8, i8, i8, i8, i8, i8, i8, i8, i8, i8, i8, i8, i8, i8, i8, i8, i8, i8, i8, i8, i8, i8, i8, i8, i8, i8, i8, i8, i8, i8, i8, i8, i8, i8, i8, i8, i8, i8, i8, i8, i8, i8, i8, i8, i8, i8, i8, i8, i8, i8, i8, i8, i8, i8, i8, i8, i8, i8, i8, i8, i8, i8, i8, i8, i8, i8, i8, i8, i8, i8, i8, i8, i8, i8, i8, i8, i8, i8, i8, i8, i8, i8, i8, i8, i8, i8, i8, i8, i8, i8, i8, i8, i8, i8, i8, i8, i8, i8, i8, i8, i8, i8, i8, i8, i8, i8, i8, i8, i8, i8, i8, i8, i8, i8, i8, i8, i8, i8, i8, i8, i8, i8, i8, i8, i8, i8, i8, i8, i8, i8, i8, i8, i8, i8, i8, i8, i8, i8, i8, i8, i8, i8, i8, i8, i8, i8, i8, i8, i8, i8, i8, i8, i8, i8, i8, i8, i8, i8, i8, i8, i8, i8, i8, i8, i8, i8, i8, i8, i8, i8, i8, i8, i8, i8, i8, i8, i8, i8, i8, i8, i8, i8, i8, i8, i8, i8, i8, i8, i8, i8, i8, i8, i8, i8, i8, i8, i8, i8, i8, i8, i8, i8, i8, i8, i8, i8, i8, i8, i8, i8, i8, i8, i8, i8, i8, i8, i8, i8, i8, i8, i8, i8, i8, i8, i8, i8, i8, i8, i8, i8, i8, i8, i8, i8, i8, i8, i8, i8, i8, i8, i8, i8, i8, i8, i8, i8, i8, i8, i8, i8, i8, i8, i8, i8, i8, i8, i8, i8, i8, i8, i8, i8, i8 }
%"class.std::__1::basic_string" = type { %"class.std::__1::__compressed_pair" }
%"class.std::__1::__compressed_pair" = type { %"struct.std::__1::__compressed_pair_elem" }
%"struct.std::__1::__compressed_pair_elem" = type { %"struct.std::__1::basic_string<char, std::__1::char_traits<char>, std::__1::allocator<char> >::__rep" }
%"struct.std::__1::basic_string<char, std::__1::char_traits<char>, std::__1::allocator<char> >::__rep" = type { %union.anon }
%union.anon = type { %"struct.std::__1::basic_string<char, std::__1::char_traits<char>, std::__1::allocator<char> >::__long" }
%"struct.std::__1::basic_string<char, std::__1::char_traits<char>, std::__1::allocator<char> >::__long" = type { i8*, i64, i64 }
%"struct.std::__1::basic_string<char, std::__1::char_traits<char>, std::__1::allocator<char> >::__short" = type { [23 x i8], %struct.anon }
%struct.anon = type { i8 }
%"class.blink::FeatureContext" = type { i32 (...)** }

@_ZN5blink26RuntimeEnabledFeaturesBase33is_accelerated_2d_canvas_enabled_E = hidden global i8 1, align 1
@_ZN5blink26RuntimeEnabledFeaturesBase38is_accelerated_small_canvases_enabled_E = hidden global i8 1, align 1
@_ZN5blink26RuntimeEnabledFeaturesBase48is_accessibility_aria_touch_passthrough_enabled_E = hidden global i8 0, align 1
@_ZN5blink26RuntimeEnabledFeaturesBase46is_accessibility_aria_virtual_content_enabled_E = hidden global i8 0, align 1
@_ZN5blink26RuntimeEnabledFeaturesBase45is_accessibility_expose_display_none_enabled_E = hidden global i8 0, align 1
@_ZN5blink26RuntimeEnabledFeaturesBase45is_accessibility_expose_html_element_enabled_E = hidden global i8 0, align 1
@_ZN5blink26RuntimeEnabledFeaturesBase46is_accessibility_expose_ignored_nodes_enabled_E = hidden global i8 0, align 1
@_ZN5blink26RuntimeEnabledFeaturesBase38is_accessibility_object_model_enabled_E = hidden global i8 0, align 1
@_ZN5blink26RuntimeEnabledFeaturesBase62is_accessibility_use_ax_position_for_document_markers_enabled_E = hidden global i8 0, align 1
@_ZN5blink26RuntimeEnabledFeaturesBase43is_add_event_listener_abort_signal_enabled_E = hidden global i8 1, align 1
@_ZN5blink26RuntimeEnabledFeaturesBase25is_address_space_enabled_E = hidden global i8 0, align 1
@_ZN5blink26RuntimeEnabledFeaturesBase22is_ad_tagging_enabled_E = hidden global i8 0, align 1
@_ZN5blink26RuntimeEnabledFeaturesBase44is_allow_activation_delegation_attr_enabled_E = hidden global i8 0, align 1
@_ZN5blink26RuntimeEnabledFeaturesBase56is_allow_content_initiated_data_url_navigations_enabled_E = hidden global i8 0, align 1
@_ZN5blink26RuntimeEnabledFeaturesBase44is_allow_sync_xhr_in_page_dismissal_enabled_E = hidden global i8 0, align 1
@_ZN5blink26RuntimeEnabledFeaturesBase47is_android_downloadable_fonts_matching_enabled_E = hidden global i8 0, align 1
@_ZN5blink26RuntimeEnabledFeaturesBase29is_animation_worklet_enabled_E = hidden global i8 0, align 1
@_ZN5blink26RuntimeEnabledFeaturesBase31is_aom_aria_properties_enabled_E = hidden global i8 1, align 1
@_ZN5blink26RuntimeEnabledFeaturesBase44is_aom_aria_relationship_properties_enabled_E = hidden global i8 0, align 1
@_ZN5blink26RuntimeEnabledFeaturesBase21is_app_cache_enabled_E = hidden global i8 1, align 1
@_ZN5blink26RuntimeEnabledFeaturesBase23is_app_history_enabled_E = hidden global i8 0, align 1
@_ZN5blink26RuntimeEnabledFeaturesBase34is_aria_touch_passthrough_enabled_E = hidden global i8 0, align 1
@_ZN5blink26RuntimeEnabledFeaturesBase32is_audio_output_devices_enabled_E = hidden global i8 1, align 1
@_ZN5blink26RuntimeEnabledFeaturesBase30is_audio_video_tracks_enabled_E = hidden global i8 0, align 1
@_ZN5blink26RuntimeEnabledFeaturesBase37is_auto_lazy_load_on_reloads_enabled_E = hidden global i8 0, align 1
@_ZN5blink26RuntimeEnabledFeaturesBase40is_automatic_lazy_frame_loading_enabled_E = hidden global i8 1, align 1
@_ZN5blink26RuntimeEnabledFeaturesBase40is_automatic_lazy_image_loading_enabled_E = hidden global i8 1, align 1
@_ZN5blink26RuntimeEnabledFeaturesBase33is_automation_controlled_enabled_E = hidden global i8 0, align 1
@_ZN5blink26RuntimeEnabledFeaturesBase35is_auto_picture_in_picture_enabled_E = hidden global i8 0, align 1
@_ZN5blink26RuntimeEnabledFeaturesBase38is_autoplay_ignores_web_audio_enabled_E = hidden global i8 0, align 1
@_ZN5blink26RuntimeEnabledFeaturesBase30is_back_forward_cache_enabled_E = hidden global i8 0, align 1
@_ZN5blink26RuntimeEnabledFeaturesBase53is_back_forward_cache_experiment_http_header_enabled_E = hidden global i8 0, align 1
@_ZN5blink26RuntimeEnabledFeaturesBase28is_background_fetch_enabled_E = hidden global i8 1, align 1
@_ZN5blink26RuntimeEnabledFeaturesBase47is_background_video_track_optimization_enabled_E = hidden global i8 1, align 1
@_ZN5blink26RuntimeEnabledFeaturesBase19is_badging_enabled_E = hidden global i8 1, align 1
@_ZN5blink26RuntimeEnabledFeaturesBase28is_barcode_detector_enabled_E = hidden global i8 0, align 1
@_ZN5blink26RuntimeEnabledFeaturesBase32is_battery_savings_meta_enabled_E = hidden global i8 0, align 1
@_ZN5blink26RuntimeEnabledFeaturesBase30is_before_match_event_enabled_E = hidden global i8 0, align 1
@_ZN5blink26RuntimeEnabledFeaturesBase31is_bidi_caret_affinity_enabled_E = hidden global i8 0, align 1
@_ZN5blink26RuntimeEnabledFeaturesBase36is_blink_runtime_call_stats_enabled_E = hidden global i8 0, align 1
@_ZN5blink26RuntimeEnabledFeaturesBase43is_block_credentialed_subresources_enabled_E = hidden global i8 1, align 1
@_ZN5blink26RuntimeEnabledFeaturesBase41is_blocking_downloads_in_sandbox_enabled_E = hidden global i8 1, align 1
@_ZN5blink26RuntimeEnabledFeaturesBase50is_blocking_focus_without_user_activation_enabled_E = hidden global i8 0, align 1
@_ZN5blink26RuntimeEnabledFeaturesBase53is_browser_verified_user_activation_keyboard_enabled_E = hidden global i8 0, align 1
@_ZN5blink26RuntimeEnabledFeaturesBase50is_browser_verified_user_activation_mouse_enabled_E = hidden global i8 0, align 1
@_ZN5blink26RuntimeEnabledFeaturesBase36is_cache_inline_script_code_enabled_E = hidden global i8 0, align 1
@_ZN5blink26RuntimeEnabledFeaturesBase41is_cache_storage_code_cache_hint_enabled_E = hidden global i8 0, align 1
@_ZN5blink26RuntimeEnabledFeaturesBase36is_canvas_2d_image_chromium_enabled_E = hidden global i8 0, align 1
@_ZN5blink26RuntimeEnabledFeaturesBase43is_canvas_2d_scroll_path_into_view_enabled_E = hidden global i8 0, align 1
@_ZN5blink26RuntimeEnabledFeaturesBase35is_canvas_color_management_enabled_E = hidden global i8 0, align 1
@_ZN5blink26RuntimeEnabledFeaturesBase33is_canvas_formatted_text_enabled_E = hidden global i8 0, align 1
@_ZN5blink26RuntimeEnabledFeaturesBase29is_canvas_hit_region_enabled_E = hidden global i8 0, align 1
@_ZN5blink26RuntimeEnabledFeaturesBase34is_canvas_image_smoothing_enabled_E = hidden global i8 0, align 1
@_ZN5blink26RuntimeEnabledFeaturesBase33is_capability_delegation_enabled_E = hidden global i8 0, align 1
@_ZN5blink26RuntimeEnabledFeaturesBase49is_capability_delegation_payment_request_enabled_E = hidden global i8 0, align 1
@_ZN5blink26RuntimeEnabledFeaturesBase26is_capture_handle_enabled_E = hidden global i8 0, align 1
@_ZN5blink26RuntimeEnabledFeaturesBase32is_capture_time_in_csrc_enabled_E = hidden global i8 1, align 1
@_ZN5blink26RuntimeEnabledFeaturesBase31is_click_pointer_event_enabled_E = hidden global i8 1, align 1
@_ZN5blink26RuntimeEnabledFeaturesBase30is_click_retargetting_enabled_E = hidden global i8 0, align 1
@_ZN5blink26RuntimeEnabledFeaturesBase25is_clipboard_svg_enabled_E = hidden global i8 0, align 1
@_ZN5blink26RuntimeEnabledFeaturesBase25is_colrv_1_fonts_enabled_E = hidden global i8 0, align 1
@_ZN5blink26RuntimeEnabledFeaturesBase33is_composite_after_paint_enabled_E = hidden global i8 0, align 1
@_ZN5blink26RuntimeEnabledFeaturesBase40is_composite_bg_color_animation_enabled_E = hidden global i8 0, align 1
@_ZN5blink26RuntimeEnabledFeaturesBase41is_composite_clip_path_animation_enabled_E = hidden global i8 0, align 1
@_ZN5blink26RuntimeEnabledFeaturesBase39is_composited_selection_update_enabled_E = hidden global i8 0, align 1
@_ZN5blink26RuntimeEnabledFeaturesBase40is_composite_relative_keyframes_enabled_E = hidden global i8 1, align 1
@_ZN5blink26RuntimeEnabledFeaturesBase25is_composite_svg_enabled_E = hidden global i8 1, align 1
@_ZN5blink26RuntimeEnabledFeaturesBase39is_computed_accessibility_info_enabled_E = hidden global i8 0, align 1
@_ZN5blink26RuntimeEnabledFeaturesBase28is_compute_pressure_enabled_E = hidden global i8 0, align 1
@_ZN5blink26RuntimeEnabledFeaturesBase36is_consolidated_movement_xy_enabled_E = hidden global i8 0, align 1
@_ZN5blink26RuntimeEnabledFeaturesBase28is_contacts_manager_enabled_E = hidden global i8 0, align 1
@_ZN5blink26RuntimeEnabledFeaturesBase45is_contacts_manager_extra_properties_enabled_E = hidden global i8 0, align 1
@_ZN5blink26RuntimeEnabledFeaturesBase25is_content_index_enabled_E = hidden global i8 0, align 1
@_ZN5blink26RuntimeEnabledFeaturesBase24is_context_menu_enabled_E = hidden global i8 0, align 1
@_ZN5blink26RuntimeEnabledFeaturesBase34is_conversion_measurement_enabled_E = hidden global i8 0, align 1
@_ZN5blink26RuntimeEnabledFeaturesBase48is_conversion_measurement_infra_support_enabled_E = hidden global i8 0, align 1
@_ZN5blink26RuntimeEnabledFeaturesBase52is_cookies_without_same_site_must_be_secure_enabled_E = hidden global i8 0, align 1
@_ZN5blink26RuntimeEnabledFeaturesBase34is_cooperative_scheduling_enabled_E = hidden global i8 0, align 1
@_ZN5blink26RuntimeEnabledFeaturesBase25is_cors_rfc_1918_enabled_E = hidden global i8 0, align 1
@_ZN5blink26RuntimeEnabledFeaturesBase34is_cross_origin_isolation_enabled_E = hidden global i8 1, align 1
@_ZN5blink26RuntimeEnabledFeaturesBase48is_cross_origin_opener_policy_reporting_enabled_E = hidden global i8 0, align 1
@_ZN5blink26RuntimeEnabledFeaturesBase22is_css_3_text_enabled_E = hidden global i8 0, align 1
@_ZN5blink26RuntimeEnabledFeaturesBase28is_css_accent_color_enabled_E = hidden global i8 0, align 1
@_ZN5blink26RuntimeEnabledFeaturesBase51is_css_at_rule_counter_style_image_symbols_enabled_E = hidden global i8 0, align 1
@_ZN5blink26RuntimeEnabledFeaturesBase51is_css_at_rule_counter_style_in_shadow_dom_enabled_E = hidden global i8 0, align 1
@_ZN5blink26RuntimeEnabledFeaturesBase27is_css_calc_as_int_enabled_E = hidden global i8 0, align 1
@_ZN5blink26RuntimeEnabledFeaturesBase38is_css_calc_infinity_and_na_n_enabled_E = hidden global i8 0, align 1
@_ZN5blink26RuntimeEnabledFeaturesBase39is_css_case_sensitive_selector_enabled_E = hidden global i8 0, align 1
@_ZN5blink26RuntimeEnabledFeaturesBase30is_css_color_typed_om_enabled_E = hidden global i8 0, align 1
@_ZN5blink26RuntimeEnabledFeaturesBase33is_css_container_queries_enabled_E = hidden global i8 0, align 1
@_ZN5blink26RuntimeEnabledFeaturesBase31is_css_contain_size_1d_enabled_E = hidden global i8 0, align 1
@_ZN5blink26RuntimeEnabledFeaturesBase34is_css_content_visibility_enabled_E = hidden global i8 1, align 1
@_ZN5blink26RuntimeEnabledFeaturesBase51is_css_content_visibility_hidden_matchable_enabled_E = hidden global i8 0, align 1
@_ZN5blink26RuntimeEnabledFeaturesBase29is_css_focus_visible_enabled_E = hidden global i8 1, align 1
@_ZN5blink26RuntimeEnabledFeaturesBase25is_css_foldables_enabled_E = hidden global i8 0, align 1
@_ZN5blink26RuntimeEnabledFeaturesBase37is_css_font_face_size_adjust_enabled_E = hidden global i8 1, align 1
@_ZN5blink26RuntimeEnabledFeaturesBase32is_css_font_size_adjust_enabled_E = hidden global i8 0, align 1
@_ZN5blink26RuntimeEnabledFeaturesBase31is_css_hex_alpha_color_enabled_E = hidden global i8 1, align 1
@_ZN5blink26RuntimeEnabledFeaturesBase48is_css_independent_transform_properties_enabled_E = hidden global i8 0, align 1
@_ZN5blink26RuntimeEnabledFeaturesBase26is_css_layout_api_enabled_E = hidden global i8 0, align 1
@_ZN5blink26RuntimeEnabledFeaturesBase23is_css_logical_enabled_E = hidden global i8 0, align 1
@_ZN5blink26RuntimeEnabledFeaturesBase32is_css_logical_overflow_enabled_E = hidden global i8 0, align 1
@_ZN5blink26RuntimeEnabledFeaturesBase44is_css_marker_nested_pseudo_element_enabled_E = hidden global i8 0, align 1
@_ZN5blink26RuntimeEnabledFeaturesBase26is_css_math_depth_enabled_E = hidden global i8 0, align 1
@_ZN5blink26RuntimeEnabledFeaturesBase26is_css_math_shift_enabled_E = hidden global i8 0, align 1
@_ZN5blink26RuntimeEnabledFeaturesBase26is_css_math_style_enabled_E = hidden global i8 0, align 1
@_ZN5blink26RuntimeEnabledFeaturesBase28is_css_math_variant_enabled_E = hidden global i8 0, align 1
@_ZN5blink26RuntimeEnabledFeaturesBase23is_css_modules_enabled_E = hidden global i8 0, align 1
@_ZN5blink26RuntimeEnabledFeaturesBase31is_css_offset_path_ray_enabled_E = hidden global i8 0, align 1
@_ZN5blink26RuntimeEnabledFeaturesBase39is_css_offset_path_ray_contain_enabled_E = hidden global i8 0, align 1
@_ZN5blink26RuntimeEnabledFeaturesBase38is_css_offset_position_anchor_enabled_E = hidden global i8 0, align 1
@_ZN5blink26RuntimeEnabledFeaturesBase35is_css_paint_api_arguments_enabled_E = hidden global i8 0, align 1
@_ZN5blink26RuntimeEnabledFeaturesBase34is_css_picture_in_picture_enabled_E = hidden global i8 0, align 1
@_ZN5blink26RuntimeEnabledFeaturesBase54is_css_position_sticky_static_scroll_position_enabled_E = hidden global i8 0, align 1
@_ZN5blink26RuntimeEnabledFeaturesBase26is_css_pseudo_dir_enabled_E = hidden global i8 0, align 1
@_ZN5blink26RuntimeEnabledFeaturesBase37is_css_pseudo_playing_paused_enabled_E = hidden global i8 0, align 1
@_ZN5blink26RuntimeEnabledFeaturesBase26is_css_scrollbars_enabled_E = hidden global i8 0, align 1
@_ZN5blink26RuntimeEnabledFeaturesBase31is_css_scroll_timeline_enabled_E = hidden global i8 0, align 1
@_ZN5blink26RuntimeEnabledFeaturesBase25is_css_snap_size_enabled_E = hidden global i8 0, align 1
@_ZN5blink26RuntimeEnabledFeaturesBase39is_css_spelling_grammar_errors_enabled_E = hidden global i8 0, align 1
@_ZN5blink26RuntimeEnabledFeaturesBase44is_css_system_color_compute_to_self_enabled_E = hidden global i8 0, align 1
@_ZN5blink26RuntimeEnabledFeaturesBase42is_css_target_text_pseudo_element_enabled_E = hidden global i8 1, align 1
@_ZN5blink26RuntimeEnabledFeaturesBase40is_css_variables_2_image_values_enabled_E = hidden global i8 0, align 1
@_ZN5blink26RuntimeEnabledFeaturesBase44is_css_variables_2_transform_values_enabled_E = hidden global i8 0, align 1
@_ZN5blink26RuntimeEnabledFeaturesBase28is_cull_rect_update_enabled_E = hidden global i8 0, align 1
@_ZN5blink26RuntimeEnabledFeaturesBase40is_custom_element_default_style_enabled_E = hidden global i8 0, align 1
@_ZN5blink26RuntimeEnabledFeaturesBase37is_custom_state_pseudo_class_enabled_E = hidden global i8 1, align 1
@_ZN5blink26RuntimeEnabledFeaturesBase20is_database_enabled_E = hidden global i8 1, align 1
@_ZN5blink26RuntimeEnabledFeaturesBase34is_declarative_shadow_dom_enabled_E = hidden global i8 1, align 1
@_ZN5blink26RuntimeEnabledFeaturesBase41is_decode_jpeg_420_images_to_yuv_enabled_E = hidden global i8 1, align 1
@_ZN5blink26RuntimeEnabledFeaturesBase44is_decode_lossy_web_p_images_to_yuv_enabled_E = hidden global i8 1, align 1
@_ZN5blink26RuntimeEnabledFeaturesBase63is_delay_async_script_execution_until_finished_parsing_enabled_E = hidden global i8 0, align 1
@_ZN5blink26RuntimeEnabledFeaturesBase78is_delay_async_script_execution_until_first_paint_or_finished_parsing_enabled_E = hidden global i8 0, align 1
@_ZN5blink26RuntimeEnabledFeaturesBase32is_delegated_ink_trails_enabled_E = hidden global i8 0, align 1
@_ZN5blink26RuntimeEnabledFeaturesBase54is_desktop_capture_disable_local_echo_control_enabled_E = hidden global i8 0, align 1
@_ZN5blink26RuntimeEnabledFeaturesBase29is_device_attributes_enabled_E = hidden global i8 0, align 1
@_ZN5blink26RuntimeEnabledFeaturesBase26is_device_posture_enabled_E = hidden global i8 0, align 1
@_ZN5blink26RuntimeEnabledFeaturesBase42is_dialog_focus_new_spec_behavior_enabled_E = hidden global i8 1, align 1
@_ZN5blink26RuntimeEnabledFeaturesBase25is_digital_goods_enabled_E = hidden global i8 0, align 1
@_ZN5blink26RuntimeEnabledFeaturesBase26is_direct_sockets_enabled_E = hidden global i8 0, align 1
@_ZN5blink26RuntimeEnabledFeaturesBase64is_disable_different_origin_subframe_dialog_suppression_enabled_E = hidden global i8 0, align 1
@_ZN5blink26RuntimeEnabledFeaturesBase46is_disable_hardware_noise_suppression_enabled_E = hidden global i8 0, align 1
@_ZN5blink26RuntimeEnabledFeaturesBase35is_disable_layer_squashing_enabled_E = hidden global i8 0, align 1
@_ZN5blink26RuntimeEnabledFeaturesBase36is_disallow_document_access_enabled_E = hidden global i8 0, align 1
@_ZN5blink26RuntimeEnabledFeaturesBase45is_display_capture_permission_policy_enabled_E = hidden global i8 0, align 1
@_ZN5blink26RuntimeEnabledFeaturesBase30is_display_cutout_api_enabled_E = hidden global i8 0, align 1
@_ZN5blink26RuntimeEnabledFeaturesBase27is_document_cookie_enabled_E = hidden global i8 0, align 1
@_ZN5blink26RuntimeEnabledFeaturesBase27is_document_domain_enabled_E = hidden global i8 0, align 1
@_ZN5blink26RuntimeEnabledFeaturesBase27is_document_policy_enabled_E = hidden global i8 1, align 1
@_ZN5blink26RuntimeEnabledFeaturesBase43is_document_policy_document_domain_enabled_E = hidden global i8 0, align 1
@_ZN5blink26RuntimeEnabledFeaturesBase39is_document_policy_negotiation_enabled_E = hidden global i8 0, align 1
@_ZN5blink26RuntimeEnabledFeaturesBase36is_document_policy_sync_xhr_enabled_E = hidden global i8 0, align 1
@_ZN5blink26RuntimeEnabledFeaturesBase31is_document_transition_enabled_E = hidden global i8 0, align 1
@_ZN5blink26RuntimeEnabledFeaturesBase26is_document_write_enabled_E = hidden global i8 0, align 1
@_ZN5blink26RuntimeEnabledFeaturesBase24is_edit_context_enabled_E = hidden global i8 0, align 1
@_ZN5blink26RuntimeEnabledFeaturesBase22is_editing_ng_enabled_E = hidden global i8 1, align 1
@_ZN5blink26RuntimeEnabledFeaturesBase51is_encrypted_media_encryption_scheme_query_enabled_E = hidden global i8 1, align 1
@_ZN5blink26RuntimeEnabledFeaturesBase45is_encrypted_media_hdcp_policy_check_enabled_E = hidden global i8 1, align 1
@_ZN5blink26RuntimeEnabledFeaturesBase36is_enter_key_hint_attribute_enabled_E = hidden global i8 1, align 1
@_ZN5blink26RuntimeEnabledFeaturesBase24is_event_timing_enabled_E = hidden global i8 1, align 1
@_ZN5blink26RuntimeEnabledFeaturesBase39is_exec_command_in_java_script_enabled_E = hidden global i8 0, align 1
@_ZN5blink26RuntimeEnabledFeaturesBase49is_expensive_background_timer_throttling_enabled_E = hidden global i8 1, align 1
@_ZN5blink26RuntimeEnabledFeaturesBase57is_experimental_content_security_policy_features_enabled_E = hidden global i8 0, align 1
@_ZN5blink26RuntimeEnabledFeaturesBase41is_experimental_is_frame_pending_enabled_E = hidden global i8 0, align 1
@_ZN5blink26RuntimeEnabledFeaturesBase41is_experimental_is_input_pending_enabled_E = hidden global i8 1, align 1
@_ZN5blink26RuntimeEnabledFeaturesBase36is_experimental_js_profiler_enabled_E = hidden global i8 0, align 1
@_ZN5blink26RuntimeEnabledFeaturesBase33is_experimental_policies_enabled_E = hidden global i8 0, align 1
@_ZN5blink26RuntimeEnabledFeaturesBase33is_extended_text_metrics_enabled_E = hidden global i8 0, align 1
@_ZN5blink26RuntimeEnabledFeaturesBase46is_extra_webgl_video_texture_metadata_enabled_E = hidden global i8 0, align 1
@_ZN5blink26RuntimeEnabledFeaturesBase27is_eye_dropper_api_enabled_E = hidden global i8 0, align 1
@_ZN5blink26RuntimeEnabledFeaturesBase25is_face_detector_enabled_E = hidden global i8 0, align 1
@_ZN5blink26RuntimeEnabledFeaturesBase49is_fake_no_alloc_direct_call_for_testing_enabled_E = hidden global i8 0, align 1
@_ZN5blink26RuntimeEnabledFeaturesBase43is_feature_policy_for_client_hints_enabled_E = hidden global i8 1, align 1
@_ZN5blink26RuntimeEnabledFeaturesBase36is_feature_policy_reporting_enabled_E = hidden global i8 0, align 1
@_ZN5blink26RuntimeEnabledFeaturesBase25is_fenced_frames_enabled_E = hidden global i8 0, align 1
@_ZN5blink26RuntimeEnabledFeaturesBase34is_fetch_upload_streaming_enabled_E = hidden global i8 0, align 1
@_ZN5blink26RuntimeEnabledFeaturesBase25is_file_handling_enabled_E = hidden global i8 0, align 1
@_ZN5blink26RuntimeEnabledFeaturesBase23is_file_system_enabled_E = hidden global i8 1, align 1
@_ZN5blink26RuntimeEnabledFeaturesBase30is_file_system_access_enabled_E = hidden global i8 1, align 1
@_ZN5blink26RuntimeEnabledFeaturesBase47is_file_system_access_api_experimental_enabled_E = hidden global i8 0, align 1
@_ZN5blink26RuntimeEnabledFeaturesBase37is_fledge_interest_group_api_enabled_E = hidden global i8 0, align 1
@_ZN5blink26RuntimeEnabledFeaturesBase40is_focusless_spatial_navigation_enabled_E = hidden global i8 0, align 1
@_ZN5blink26RuntimeEnabledFeaturesBase23is_font_access_enabled_E = hidden global i8 0, align 1
@_ZN5blink26RuntimeEnabledFeaturesBase34is_font_access_persistent_enabled_E = hidden global i8 0, align 1
@_ZN5blink26RuntimeEnabledFeaturesBase35is_font_src_local_matching_enabled_E = hidden global i8 0, align 1
@_ZN5blink26RuntimeEnabledFeaturesBase25is_forced_colors_enabled_E = hidden global i8 1, align 1
@_ZN5blink26RuntimeEnabledFeaturesBase38is_force_eager_measure_memory_enabled_E = hidden global i8 0, align 1
@_ZN5blink26RuntimeEnabledFeaturesBase42is_force_overlay_fullscreen_video_enabled_E = hidden global i8 0, align 1
@_ZN5blink26RuntimeEnabledFeaturesBase42is_force_synchronous_html_parsing_enabled_E = hidden global i8 0, align 1
@_ZN5blink26RuntimeEnabledFeaturesBase37is_force_taller_select_popup_enabled_E = hidden global i8 0, align 1
@_ZN5blink26RuntimeEnabledFeaturesBase37is_fractional_scroll_offsets_enabled_E = hidden global i8 0, align 1
@_ZN5blink26RuntimeEnabledFeaturesBase39is_freeze_frames_on_visibility_enabled_E = hidden global i8 0, align 1
@_ZN5blink26RuntimeEnabledFeaturesBase38is_gamepad_button_axis_events_enabled_E = hidden global i8 0, align 1
@_ZN5blink26RuntimeEnabledFeaturesBase46is_get_current_browsing_context_media_enabled_E = hidden global i8 0, align 1
@_ZN5blink26RuntimeEnabledFeaturesBase29is_get_display_media_enabled_E = hidden global i8 1, align 1
@_ZN5blink26RuntimeEnabledFeaturesBase26is_gravity_sensor_enabled_E = hidden global i8 1, align 1
@_ZN5blink26RuntimeEnabledFeaturesBase24is_group_effect_enabled_E = hidden global i8 0, align 1
@_ZN5blink26RuntimeEnabledFeaturesBase35is_handwriting_recognition_enabled_E = hidden global i8 0, align 1
@_ZN5blink26RuntimeEnabledFeaturesBase25is_highlight_api_enabled_E = hidden global i8 0, align 1
@_ZN5blink26RuntimeEnabledFeaturesBase26is_href_translate_enabled_E = hidden global i8 1, align 1
@_ZN5blink26RuntimeEnabledFeaturesBase30is_html_popup_element_enabled_E = hidden global i8 0, align 1
@_ZN5blink26RuntimeEnabledFeaturesBase36is_html_select_menu_element_enabled_E = hidden global i8 0, align 1
@_ZN5blink26RuntimeEnabledFeaturesBase23is_idb_put_all_enabled_E = hidden global i8 0, align 1
@_ZN5blink26RuntimeEnabledFeaturesBase34is_idb_relaxed_durability_enabled_E = hidden global i8 1, align 1
@_ZN5blink26RuntimeEnabledFeaturesBase26is_idle_detection_enabled_E = hidden global i8 0, align 1
@_ZN5blink26RuntimeEnabledFeaturesBase66is_ignore_cross_origin_window_when_named_access_on_window_enabled_E = hidden global i8 1, align 1
@_ZN5blink26RuntimeEnabledFeaturesBase34is_implicit_root_scroller_enabled_E = hidden global i8 0, align 1
@_ZN5blink26RuntimeEnabledFeaturesBase27is_inert_attribute_enabled_E = hidden global i8 0, align 1
@_ZN5blink26RuntimeEnabledFeaturesBase36is_input_multiple_fields_ui_enabled_E = hidden global i8 1, align 1
@_ZN5blink26RuntimeEnabledFeaturesBase25is_installed_app_enabled_E = hidden global i8 1, align 1
@_ZN5blink26RuntimeEnabledFeaturesBase31is_interest_cohort_api_enabled_E = hidden global i8 0, align 1
@_ZN5blink26RuntimeEnabledFeaturesBase42is_interest_cohort_feature_policy_enabled_E = hidden global i8 0, align 1
@_ZN5blink26RuntimeEnabledFeaturesBase65is_intersection_observer_document_scrolling_element_root_enabled_E = hidden global i8 1, align 1
@_ZN5blink26RuntimeEnabledFeaturesBase31is_isolated_code_cache_enabled_E = hidden global i8 1, align 1
@_ZN5blink26RuntimeEnabledFeaturesBase39is_keyboard_accessible_tooltip_enabled_E = hidden global i8 0, align 1
@_ZN5blink26RuntimeEnabledFeaturesBase40is_keyboard_focusable_scrollers_enabled_E = hidden global i8 0, align 1
@_ZN5blink26RuntimeEnabledFeaturesBase48is_lang_attribute_aware_form_control_ui_enabled_E = hidden global i8 0, align 1
@_ZN5blink26RuntimeEnabledFeaturesBase35is_lang_client_hint_header_enabled_E = hidden global i8 0, align 1
@_ZN5blink26RuntimeEnabledFeaturesBase21is_layout_ng_enabled_E = hidden global i8 1, align 1
@_ZN5blink26RuntimeEnabledFeaturesBase41is_layout_ng_block_fragmentation_enabled_E = hidden global i8 0, align 1
@_ZN5blink26RuntimeEnabledFeaturesBase40is_layout_ng_fragment_traversal_enabled_E = hidden global i8 0, align 1
@_ZN5blink26RuntimeEnabledFeaturesBase45is_layout_ng_full_position_for_point_enabled_E = hidden global i8 1, align 1
@_ZN5blink26RuntimeEnabledFeaturesBase26is_layout_ng_grid_enabled_E = hidden global i8 0, align 1
@_ZN5blink26RuntimeEnabledFeaturesBase44is_layout_ng_layout_overflow_recalc_enabled_E = hidden global i8 1, align 1
@_ZN5blink26RuntimeEnabledFeaturesBase30is_layout_ng_printing_enabled_E = hidden global i8 0, align 1
@_ZN5blink26RuntimeEnabledFeaturesBase30is_layout_ng_replaced_enabled_E = hidden global i8 1, align 1
@_ZN5blink26RuntimeEnabledFeaturesBase27is_layout_ng_table_enabled_E = hidden global i8 1, align 1
@_ZN5blink26RuntimeEnabledFeaturesBase34is_layout_ng_text_combine_enabled_E = hidden global i8 0, align 1
@_ZN5blink26RuntimeEnabledFeaturesBase34is_layout_ng_text_control_enabled_E = hidden global i8 1, align 1
@_ZN5blink26RuntimeEnabledFeaturesBase30is_lazy_frame_loading_enabled_E = hidden global i8 1, align 1
@_ZN5blink26RuntimeEnabledFeaturesBase48is_lazy_frame_visible_load_time_metrics_enabled_E = hidden global i8 0, align 1
@_ZN5blink26RuntimeEnabledFeaturesBase30is_lazy_image_loading_enabled_E = hidden global i8 1, align 1
@_ZN5blink26RuntimeEnabledFeaturesBase48is_lazy_image_visible_load_time_metrics_enabled_E = hidden global i8 0, align 1
@_ZN5blink26RuntimeEnabledFeaturesBase42is_lazy_initialize_media_controls_enabled_E = hidden global i8 0, align 1
@_ZN5blink26RuntimeEnabledFeaturesBase48is_legacy_windows_d_write_font_fallback_enabled_E = hidden global i8 0, align 1
@_ZN5blink26RuntimeEnabledFeaturesBase33is_managed_configuration_enabled_E = hidden global i8 1, align 1
@_ZN5blink26RuntimeEnabledFeaturesBase29is_managed_interface_enabled_E = hidden global i8 0, align 1
@_ZN5blink26RuntimeEnabledFeaturesBase23is_mathml_core_enabled_E = hidden global i8 0, align 1
@_ZN5blink26RuntimeEnabledFeaturesBase26is_measure_memory_enabled_E = hidden global i8 1, align 1
@_ZN5blink26RuntimeEnabledFeaturesBase44is_media_capabilities_dynamic_range_enabled_E = hidden global i8 0, align 1
@_ZN5blink26RuntimeEnabledFeaturesBase44is_media_capabilities_encoding_info_enabled_E = hidden global i8 0, align 1
@_ZN5blink26RuntimeEnabledFeaturesBase46is_media_capabilities_encrypted_media_enabled_E = hidden global i8 1, align 1
@_ZN5blink26RuntimeEnabledFeaturesBase44is_media_capabilities_spatial_audio_enabled_E = hidden global i8 0, align 1
@_ZN5blink26RuntimeEnabledFeaturesBase38is_media_capabilities_web_rtc_enabled_E = hidden global i8 0, align 1
@_ZN5blink26RuntimeEnabledFeaturesBase25is_media_capture_enabled_E = hidden global i8 0, align 1
@_ZN5blink26RuntimeEnabledFeaturesBase42is_media_capture_depth_video_kind_enabled_E = hidden global i8 0, align 1
@_ZN5blink26RuntimeEnabledFeaturesBase37is_media_cast_overlay_button_enabled_E = hidden global i8 0, align 1
@_ZN5blink26RuntimeEnabledFeaturesBase41is_media_controls_expand_gesture_enabled_E = hidden global i8 0, align 1
@_ZN5blink26RuntimeEnabledFeaturesBase46is_media_controls_overlay_play_button_enabled_E = hidden global i8 0, align 1
@_ZN5blink26RuntimeEnabledFeaturesBase49is_media_controls_use_cut_out_by_default_enabled_E = hidden global i8 1, align 1
@_ZN5blink26RuntimeEnabledFeaturesBase42is_media_document_download_button_enabled_E = hidden global i8 0, align 1
@_ZN5blink26RuntimeEnabledFeaturesBase49is_media_element_volume_greater_than_one_enabled_E = hidden global i8 0, align 1
@_ZN5blink26RuntimeEnabledFeaturesBase53is_media_engagement_bypass_autoplay_policies_enabled_E = hidden global i8 0, align 1
@_ZN5blink26RuntimeEnabledFeaturesBase30is_media_latency_hint_enabled_E = hidden global i8 0, align 1
@_ZN5blink26RuntimeEnabledFeaturesBase33is_media_preserves_pitch_enabled_E = hidden global i8 1, align 1
@_ZN5blink26RuntimeEnabledFeaturesBase43is_media_query_navigation_controls_enabled_E = hidden global i8 0, align 1
@_ZN5blink26RuntimeEnabledFeaturesBase25is_media_session_enabled_E = hidden global i8 1, align 1
@_ZN5blink26RuntimeEnabledFeaturesBase34is_media_session_position_enabled_E = hidden global i8 1, align 1
@_ZN5blink26RuntimeEnabledFeaturesBase33is_media_session_web_rtc_enabled_E = hidden global i8 0, align 1
@_ZN5blink26RuntimeEnabledFeaturesBase37is_media_source_experimental_enabled_E = hidden global i8 0, align 1
@_ZN5blink26RuntimeEnabledFeaturesBase49is_media_source_extensions_for_webcodecs_enabled_E = hidden global i8 0, align 1
@_ZN5blink26RuntimeEnabledFeaturesBase35is_media_source_in_workers_enabled_E = hidden global i8 0, align 1
@_ZN5blink26RuntimeEnabledFeaturesBase47is_media_source_new_abort_and_duration_enabled_E = hidden global i8 0, align 1
@_ZN5blink26RuntimeEnabledFeaturesBase31is_media_source_stable_enabled_E = hidden global i8 1, align 1
@_ZN5blink26RuntimeEnabledFeaturesBase43is_media_stream_insertable_streams_enabled_E = hidden global i8 0, align 1
@_ZN5blink26RuntimeEnabledFeaturesBase35is_middle_click_autoscroll_enabled_E = hidden global i8 0, align 1
@_ZN5blink26RuntimeEnabledFeaturesBase31is_mobile_layout_theme_enabled_E = hidden global i8 0, align 1
@_ZN5blink26RuntimeEnabledFeaturesBase31is_modal_close_watcher_enabled_E = hidden global i8 0, align 1
@_ZN5blink26RuntimeEnabledFeaturesBase33is_module_service_worker_enabled_E = hidden global i8 1, align 1
@_ZN5blink26RuntimeEnabledFeaturesBase19is_mojo_js_enabled_E = hidden global i8 0, align 1
@_ZN5blink26RuntimeEnabledFeaturesBase24is_mojo_js_test_enabled_E = hidden global i8 0, align 1
@_ZN5blink26RuntimeEnabledFeaturesBase46is_mouse_subframe_no_implicit_capture_enabled_E = hidden global i8 0, align 1
@_ZN5blink26RuntimeEnabledFeaturesBase23is_named_pages_enabled_E = hidden global i8 1, align 1
@_ZN5blink26RuntimeEnabledFeaturesBase35is_navigator_content_utils_enabled_E = hidden global i8 1, align 1
@_ZN5blink26RuntimeEnabledFeaturesBase50is_navigator_language_in_insecure_context_enabled_E = hidden global i8 1, align 1
@_ZN5blink26RuntimeEnabledFeaturesBase33is_net_info_downlink_max_enabled_E = hidden global i8 0, align 1
@_ZN5blink26RuntimeEnabledFeaturesBase27is_never_slow_mode_enabled_E = hidden global i8 0, align 1
@_ZN5blink26RuntimeEnabledFeaturesBase29is_new_canvas_2d_api_enabled_E = hidden global i8 0, align 1
@_ZN5blink26RuntimeEnabledFeaturesBase40is_new_remote_playback_pipeline_enabled_E = hidden global i8 0, align 1
@_ZN5blink26RuntimeEnabledFeaturesBase42is_no_idle_encoding_for_web_tests_enabled_E = hidden global i8 0, align 1
@_ZN5blink26RuntimeEnabledFeaturesBase36is_notification_constructor_enabled_E = hidden global i8 1, align 1
@_ZN5blink26RuntimeEnabledFeaturesBase38is_notification_content_image_enabled_E = hidden global i8 1, align 1
@_ZN5blink26RuntimeEnabledFeaturesBase25is_notifications_enabled_E = hidden global i8 1, align 1
@_ZN5blink26RuntimeEnabledFeaturesBase33is_notification_triggers_enabled_E = hidden global i8 0, align 1
@_ZN5blink26RuntimeEnabledFeaturesBase37is_off_main_thread_css_paint_enabled_E = hidden global i8 1, align 1
@_ZN5blink26RuntimeEnabledFeaturesBase35is_offscreen_canvas_commit_enabled_E = hidden global i8 0, align 1
@_ZN5blink26RuntimeEnabledFeaturesBase43is_offset_parent_new_spec_behavior_enabled_E = hidden global i8 0, align 1
@_ZN5blink26RuntimeEnabledFeaturesBase28is_on_device_change_enabled_E = hidden global i8 1, align 1
@_ZN5blink26RuntimeEnabledFeaturesBase29is_orientation_event_enabled_E = hidden global i8 0, align 1
@_ZN5blink26RuntimeEnabledFeaturesBase35is_origin_isolation_header_enabled_E = hidden global i8 1, align 1
@_ZN5blink26RuntimeEnabledFeaturesBase25is_origin_policy_enabled_E = hidden global i8 0, align 1
@_ZN5blink26RuntimeEnabledFeaturesBase36is_origin_trials_sample_api_enabled_E = hidden global i8 0, align 1
@_ZN5blink26RuntimeEnabledFeaturesBase46is_origin_trials_sample_api_dependent_enabled_E = hidden global i8 0, align 1
@_ZN5blink26RuntimeEnabledFeaturesBase48is_origin_trials_sample_api_deprecation_enabled_E = hidden global i8 0, align 1
@_ZN5blink26RuntimeEnabledFeaturesBase44is_origin_trials_sample_api_implied_enabled_E = hidden global i8 0, align 1
@_ZN5blink26RuntimeEnabledFeaturesBase47is_origin_trials_sample_api_invalid_os_enabled_E = hidden global i8 0, align 1
@_ZN5blink26RuntimeEnabledFeaturesBase47is_origin_trials_sample_api_navigation_enabled_E = hidden global i8 0, align 1
@_ZN5blink26RuntimeEnabledFeaturesBase48is_origin_trials_sample_api_third_party_enabled_E = hidden global i8 0, align 1
@_ZN5blink26RuntimeEnabledFeaturesBase25is_overflow_clip_enabled_E = hidden global i8 1, align 1
@_ZN5blink26RuntimeEnabledFeaturesBase36is_overscroll_customization_enabled_E = hidden global i8 0, align 1
@_ZN5blink26RuntimeEnabledFeaturesBase30is_page_freeze_opt_in_enabled_E = hidden global i8 0, align 1
@_ZN5blink26RuntimeEnabledFeaturesBase31is_page_freeze_opt_out_enabled_E = hidden global i8 0, align 1
@_ZN5blink26RuntimeEnabledFeaturesBase22is_page_popup_enabled_E = hidden global i8 1, align 1
@_ZN5blink26RuntimeEnabledFeaturesBase45is_paint_under_invalidation_checking_enabled_E = hidden global i8 0, align 1
@_ZN5blink26RuntimeEnabledFeaturesBase38is_parse_url_protocol_handler_enabled_E = hidden global i8 0, align 1
@_ZN5blink26RuntimeEnabledFeaturesBase48is_pass_paint_visual_rect_to_compositor_enabled_E = hidden global i8 0, align 1
@_ZN5blink26RuntimeEnabledFeaturesBase27is_password_reveal_enabled_E = hidden global i8 0, align 1
@_ZN5blink26RuntimeEnabledFeaturesBase23is_payment_app_enabled_E = hidden global i8 0, align 1
@_ZN5blink26RuntimeEnabledFeaturesBase49is_payment_handler_change_payment_method_enabled_E = hidden global i8 1, align 1
@_ZN5blink26RuntimeEnabledFeaturesBase56is_payment_handler_handles_shipping_and_contact_enabled_E = hidden global i8 1, align 1
@_ZN5blink26RuntimeEnabledFeaturesBase38is_payment_handler_minimal_ui_enabled_E = hidden global i8 0, align 1
@_ZN5blink26RuntimeEnabledFeaturesBase39is_payment_method_change_event_enabled_E = hidden global i8 1, align 1
@_ZN5blink26RuntimeEnabledFeaturesBase27is_payment_request_enabled_E = hidden global i8 0, align 1
@_ZN5blink26RuntimeEnabledFeaturesBase53is_payment_request_merchant_validation_event_enabled_E = hidden global i8 0, align 1
@_ZN5blink26RuntimeEnabledFeaturesBase25is_payment_retry_enabled_E = hidden global i8 1, align 1
@_ZN5blink26RuntimeEnabledFeaturesBase35is_percent_based_scrolling_enabled_E = hidden global i8 0, align 1
@_ZN5blink26RuntimeEnabledFeaturesBase47is_performance_manager_instrumentation_enabled_E = hidden global i8 0, align 1
@_ZN5blink26RuntimeEnabledFeaturesBase36is_periodic_background_sync_enabled_E = hidden global i8 1, align 1
@_ZN5blink26RuntimeEnabledFeaturesBase45is_per_method_can_make_payment_quota_enabled_E = hidden global i8 0, align 1
@_ZN5blink26RuntimeEnabledFeaturesBase33is_permission_delegation_enabled_E = hidden global i8 0, align 1
@_ZN5blink26RuntimeEnabledFeaturesBase23is_permissions_enabled_E = hidden global i8 1, align 1
@_ZN5blink26RuntimeEnabledFeaturesBase37is_permissions_policy_header_enabled_E = hidden global i8 1, align 1
@_ZN5blink26RuntimeEnabledFeaturesBase38is_permissions_request_revoke_enabled_E = hidden global i8 0, align 1
@_ZN5blink26RuntimeEnabledFeaturesBase30is_picture_in_picture_enabled_E = hidden global i8 0, align 1
@_ZN5blink26RuntimeEnabledFeaturesBase34is_picture_in_picture_api_enabled_E = hidden global i8 1, align 1
@_ZN5blink26RuntimeEnabledFeaturesBase34is_picture_in_picture_v_2_enabled_E = hidden global i8 0, align 1
@_ZN5blink26RuntimeEnabledFeaturesBase19is_p_na_cl_enabled_E = hidden global i8 0, align 1
@_ZN5blink26RuntimeEnabledFeaturesBase32is_pointer_lock_options_enabled_E = hidden global i8 0, align 1
@_ZN5blink26RuntimeEnabledFeaturesBase30is_pointer_raw_update_enabled_E = hidden global i8 1, align 1
@_ZN5blink26RuntimeEnabledFeaturesBase19is_portals_enabled_E = hidden global i8 0, align 1
@_ZN5blink26RuntimeEnabledFeaturesBase31is_precise_memory_info_enabled_E = hidden global i8 0, align 1
@_ZN5blink26RuntimeEnabledFeaturesBase43is_prefer_non_composited_scrolling_enabled_E = hidden global i8 0, align 1
@_ZN5blink26RuntimeEnabledFeaturesBase51is_prefers_color_scheme_client_hint_header_enabled_E = hidden global i8 0, align 1
@_ZN5blink26RuntimeEnabledFeaturesBase28is_prefers_contrast_enabled_E = hidden global i8 0, align 1
@_ZN5blink26RuntimeEnabledFeaturesBase32is_prefers_reduced_data_enabled_E = hidden global i8 0, align 1
@_ZN5blink26RuntimeEnabledFeaturesBase37is_prefixed_video_fullscreen_enabled_E = hidden global i8 1, align 1
@_ZN5blink26RuntimeEnabledFeaturesBase23is_prerender_2_enabled_E = hidden global i8 0, align 1
@_ZN5blink26RuntimeEnabledFeaturesBase24is_presentation_enabled_E = hidden global i8 1, align 1
@_ZN5blink26RuntimeEnabledFeaturesBase26is_priority_hints_enabled_E = hidden global i8 0, align 1
@_ZN5blink26RuntimeEnabledFeaturesBase26is_push_messaging_enabled_E = hidden global i8 1, align 1
@_ZN5blink26RuntimeEnabledFeaturesBase46is_push_messaging_subscription_change_enabled_E = hidden global i8 0, align 1
@_ZN5blink26RuntimeEnabledFeaturesBase24is_quota_change_enabled_E = hidden global i8 0, align 1
@_ZN5blink26RuntimeEnabledFeaturesBase25is_raw_clipboard_enabled_E = hidden global i8 0, align 1
@_ZN5blink26RuntimeEnabledFeaturesBase27is_remote_playback_enabled_E = hidden global i8 1, align 1
@_ZN5blink26RuntimeEnabledFeaturesBase35is_remote_playback_backend_enabled_E = hidden global i8 0, align 1
@_ZN5blink26RuntimeEnabledFeaturesBase45is_remove_mobile_viewport_double_tap_enabled_E = hidden global i8 1, align 1
@_ZN5blink26RuntimeEnabledFeaturesBase40is_request_video_frame_callback_enabled_E = hidden global i8 1, align 1
@_ZN5blink26RuntimeEnabledFeaturesBase63is_restrict_automatic_lazy_frame_loading_to_data_saver_enabled_E = hidden global i8 1, align 1
@_ZN5blink26RuntimeEnabledFeaturesBase63is_restrict_automatic_lazy_image_loading_to_data_saver_enabled_E = hidden global i8 1, align 1
@_ZN5blink26RuntimeEnabledFeaturesBase35is_restrict_gamepad_access_enabled_E = hidden global i8 0, align 1
@_ZN5blink26RuntimeEnabledFeaturesBase47is_rtc_audio_jitter_buffer_max_packets_enabled_E = hidden global i8 0, align 1
@_ZN5blink26RuntimeEnabledFeaturesBase48is_rtc_audio_jitter_buffer_rtx_handling_enabled_E = hidden global i8 0, align 1
@_ZN5blink26RuntimeEnabledFeaturesBase50is_rtc_extend_deadline_for_plan_b_removal_enabled_E = hidden global i8 0, align 1
@_ZN5blink26RuntimeEnabledFeaturesBase39is_rtc_ice_transport_extension_enabled_E = hidden global i8 0, align 1
@_ZN5blink26RuntimeEnabledFeaturesBase34is_rtc_insertable_streams_enabled_E = hidden global i8 0, align 1
@_ZN5blink26RuntimeEnabledFeaturesBase30is_rtc_quic_transport_enabled_E = hidden global i8 0, align 1
@_ZN5blink26RuntimeEnabledFeaturesBase44is_rtc_rtp_header_extension_control_enabled_E = hidden global i8 0, align 1
@_ZN5blink26RuntimeEnabledFeaturesBase36is_rtc_rtp_transceiver_stop_enabled_E = hidden global i8 1, align 1
@_ZN5blink26RuntimeEnabledFeaturesBase51is_rtc_stats_relative_packet_arrival_delay_enabled_E = hidden global i8 0, align 1
@_ZN5blink26RuntimeEnabledFeaturesBase36is_rtc_svc_scalability_mode_enabled_E = hidden global i8 0, align 1
@_ZN5blink26RuntimeEnabledFeaturesBase28is_rtc_unified_plan_enabled_E = hidden global i8 1, align 1
@_ZN5blink26RuntimeEnabledFeaturesBase39is_rtc_unified_plan_by_default_enabled_E = hidden global i8 0, align 1
@_ZN5blink26RuntimeEnabledFeaturesBase40is_same_site_by_default_cookies_enabled_E = hidden global i8 0, align 1
@_ZN5blink26RuntimeEnabledFeaturesBase25is_sanitizer_api_enabled_E = hidden global i8 0, align 1
@_ZN5blink26RuntimeEnabledFeaturesBase39is_scripted_speech_recognition_enabled_E = hidden global i8 1, align 1
@_ZN5blink26RuntimeEnabledFeaturesBase37is_scripted_speech_synthesis_enabled_E = hidden global i8 1, align 1
@_ZN5blink26RuntimeEnabledFeaturesBase28is_scrollbar_gutter_enabled_E = hidden global i8 0, align 1
@_ZN5blink26RuntimeEnabledFeaturesBase27is_scrollbar_width_enabled_E = hidden global i8 0, align 1
@_ZN5blink26RuntimeEnabledFeaturesBase32is_scroll_customization_enabled_E = hidden global i8 0, align 1
@_ZN5blink26RuntimeEnabledFeaturesBase36is_scroll_snap_after_layout_enabled_E = hidden global i8 1, align 1
@_ZN5blink26RuntimeEnabledFeaturesBase27is_scroll_timeline_enabled_E = hidden global i8 0, align 1
@_ZN5blink26RuntimeEnabledFeaturesBase35is_scroll_top_left_interop_enabled_E = hidden global i8 1, align 1
@_ZN5blink26RuntimeEnabledFeaturesBase30is_scroll_unification_enabled_E = hidden global i8 0, align 1
@_ZN5blink26RuntimeEnabledFeaturesBase39is_secure_payment_confirmation_enabled_E = hidden global i8 0, align 1
@_ZN5blink26RuntimeEnabledFeaturesBase45is_secure_payment_confirmation_debug_enabled_E = hidden global i8 0, align 1
@_ZN5blink26RuntimeEnabledFeaturesBase59is_send_beacon_throw_for_blob_with_non_simple_type_enabled_E = hidden global i8 1, align 1
@_ZN5blink26RuntimeEnabledFeaturesBase52is_send_mouse_events_disabled_form_controls_enabled_E = hidden global i8 0, align 1
@_ZN5blink26RuntimeEnabledFeaturesBase32is_sensor_extra_classes_enabled_E = hidden global i8 0, align 1
@_ZN5blink26RuntimeEnabledFeaturesBase18is_serial_enabled_E = hidden global i8 1, align 1
@_ZN5blink26RuntimeEnabledFeaturesBase49is_service_worker_client_lifecycle_state_enabled_E = hidden global i8 0, align 1
@_ZN5blink26RuntimeEnabledFeaturesBase52is_service_worker_fetch_event_worker_timing_enabled_E = hidden global i8 0, align 1
@_ZN5blink26RuntimeEnabledFeaturesBase31is_shared_array_buffer_enabled_E = hidden global i8 0, align 1
@_ZN5blink26RuntimeEnabledFeaturesBase42is_shared_array_buffer_on_desktop_enabled_E = hidden global i8 0, align 1
@_ZN5blink26RuntimeEnabledFeaturesBase59is_shared_array_buffer_unrestricted_access_allowed_enabled_E = hidden global i8 0, align 1
@_ZN5blink26RuntimeEnabledFeaturesBase27is_shared_autofill_enabled_E = hidden global i8 0, align 1
@_ZN5blink26RuntimeEnabledFeaturesBase25is_shared_worker_enabled_E = hidden global i8 1, align 1
@_ZN5blink26RuntimeEnabledFeaturesBase37is_signature_based_integrity_enabled_E = hidden global i8 0, align 1
@_ZN5blink26RuntimeEnabledFeaturesBase58is_signed_exchange_prefetch_cache_for_navigations_enabled_E = hidden global i8 0, align 1
@_ZN5blink26RuntimeEnabledFeaturesBase48is_signed_exchange_subresource_prefetch_enabled_E = hidden global i8 0, align 1
@_ZN5blink26RuntimeEnabledFeaturesBase19is_skip_ad_enabled_E = hidden global i8 0, align 1
@_ZN5blink26RuntimeEnabledFeaturesBase35is_skip_touch_event_filter_enabled_E = hidden global i8 0, align 1
@_ZN5blink26RuntimeEnabledFeaturesBase29is_speculation_rules_enabled_E = hidden global i8 0, align 1
@_ZN5blink26RuntimeEnabledFeaturesBase44is_speculation_rules_prefetch_proxy_enabled_E = hidden global i8 0, align 1
@_ZN5blink26RuntimeEnabledFeaturesBase30is_srcset_max_density_enabled_E = hidden global i8 0, align 1
@_ZN5blink26RuntimeEnabledFeaturesBase33is_stable_blink_features_enabled_E = hidden global i8 1, align 1
@_ZN5blink26RuntimeEnabledFeaturesBase30is_storage_access_api_enabled_E = hidden global i8 0, align 1
@_ZN5blink26RuntimeEnabledFeaturesBase27is_storage_buckets_enabled_E = hidden global i8 0, align 1
@_ZN5blink26RuntimeEnabledFeaturesBase34is_storage_foundation_api_enabled_E = hidden global i8 0, align 1
@_ZN5blink26RuntimeEnabledFeaturesBase41is_strict_mime_types_for_workers_enabled_E = hidden global i8 0, align 1
@_ZN5blink26RuntimeEnabledFeaturesBase35is_subresource_web_bundles_enabled_E = hidden global i8 0, align 1
@_ZN5blink26RuntimeEnabledFeaturesBase23is_svg_text_ng_enabled_E = hidden global i8 0, align 1
@_ZN5blink26RuntimeEnabledFeaturesBase28is_system_wake_lock_enabled_E = hidden global i8 0, align 1
@_ZN5blink26RuntimeEnabledFeaturesBase42is_target_blank_implies_no_opener_enabled_E = hidden global i8 1, align 1
@_ZN5blink26RuntimeEnabledFeaturesBase24is_test_feature_enabled_E = hidden global i8 0, align 1
@_ZN5blink26RuntimeEnabledFeaturesBase34is_test_feature_dependent_enabled_E = hidden global i8 0, align 1
@_ZN5blink26RuntimeEnabledFeaturesBase32is_test_feature_implied_enabled_E = hidden global i8 0, align 1
@_ZN5blink26RuntimeEnabledFeaturesBase25is_text_detector_enabled_E = hidden global i8 0, align 1
@_ZN5blink26RuntimeEnabledFeaturesBase38is_text_fragment_color_change_enabled_E = hidden global i8 0, align 1
@_ZN5blink26RuntimeEnabledFeaturesBase37is_text_fragment_identifiers_enabled_E = hidden global i8 1, align 1
@_ZN5blink26RuntimeEnabledFeaturesBase48is_text_fragment_tap_opens_context_menu_enabled_E = hidden global i8 0, align 1
@_ZN5blink26RuntimeEnabledFeaturesBase37is_third_party_origin_trials_enabled_E = hidden global i8 1, align 1
@_ZN5blink26RuntimeEnabledFeaturesBase76is_throttle_display_none_and_visibility_hidden_cross_origin_iframes_enabled_E = hidden global i8 0, align 1
@_ZN5blink26RuntimeEnabledFeaturesBase48is_timer_throttling_for_background_tabs_enabled_E = hidden global i8 1, align 1
@_ZN5blink26RuntimeEnabledFeaturesBase46is_timer_throttling_for_hidden_frames_enabled_E = hidden global i8 1, align 1
@_ZN5blink26RuntimeEnabledFeaturesBase34is_time_zone_change_event_enabled_E = hidden global i8 0, align 1
@_ZN5blink26RuntimeEnabledFeaturesBase41is_touch_event_feature_detection_enabled_E = hidden global i8 1, align 1
@_ZN5blink26RuntimeEnabledFeaturesBase32is_transferable_streams_enabled_E = hidden global i8 1, align 1
@_ZN5blink26RuntimeEnabledFeaturesBase29is_transform_interop_enabled_E = hidden global i8 0, align 1
@_ZN5blink26RuntimeEnabledFeaturesBase29is_translate_service_enabled_E = hidden global i8 0, align 1
@_ZN5blink26RuntimeEnabledFeaturesBase29is_trusted_dom_types_enabled_E = hidden global i8 1, align 1
@_ZN5blink26RuntimeEnabledFeaturesBase53is_trusted_type_before_policy_creation_event_enabled_E = hidden global i8 0, align 1
@_ZN5blink26RuntimeEnabledFeaturesBase39is_trusted_types_use_code_like_enabled_E = hidden global i8 0, align 1
@_ZN5blink26RuntimeEnabledFeaturesBase24is_trust_tokens_enabled_E = hidden global i8 0, align 1
@_ZN5blink26RuntimeEnabledFeaturesBase46is_trust_tokens_always_allow_issuance_enabled_E = hidden global i8 0, align 1
@_ZN5blink26RuntimeEnabledFeaturesBase44is_unclosed_form_control_is_invalid_enabled_E = hidden global i8 0, align 1
@_ZN5blink26RuntimeEnabledFeaturesBase38is_underline_offset_thickness_enabled_E = hidden global i8 1, align 1
@_ZN5blink26RuntimeEnabledFeaturesBase44is_unrestricted_shared_array_buffer_enabled_E = hidden global i8 0, align 1
@_ZN5blink26RuntimeEnabledFeaturesBase23is_url_pattern_enabled_E = hidden global i8 0, align 1
@_ZN5blink26RuntimeEnabledFeaturesBase50is_user_activation_same_origin_visibility_enabled_E = hidden global i8 0, align 1
@_ZN5blink26RuntimeEnabledFeaturesBase34is_user_agent_client_hint_enabled_E = hidden global i8 1, align 1
@_ZN5blink26RuntimeEnabledFeaturesBase16is_uuid_enabled_E = hidden global i8 1, align 1
@_ZN5blink26RuntimeEnabledFeaturesBase25is_v8_idle_tasks_enabled_E = hidden global i8 0, align 1
@_ZN5blink26RuntimeEnabledFeaturesBase33is_video_auto_fullscreen_enabled_E = hidden global i8 0, align 1
@_ZN5blink26RuntimeEnabledFeaturesBase45is_video_fullscreen_orientation_lock_enabled_E = hidden global i8 0, align 1
@_ZN5blink26RuntimeEnabledFeaturesBase34is_video_playback_quality_enabled_E = hidden global i8 1, align 1
@_ZN5blink26RuntimeEnabledFeaturesBase38is_video_rotate_to_fullscreen_enabled_E = hidden global i8 0, align 1
@_ZN5blink26RuntimeEnabledFeaturesBase53is_video_wake_lock_optimisation_hidden_muted_enabled_E = hidden global i8 1, align 1
@_ZN5blink26RuntimeEnabledFeaturesBase28is_virtual_keyboard_enabled_E = hidden global i8 0, align 1
@_ZN5blink26RuntimeEnabledFeaturesBase38is_visibility_collapse_column_enabled_E = hidden global i8 0, align 1
@_ZN5blink26RuntimeEnabledFeaturesBase34is_visibility_state_entry_enabled_E = hidden global i8 0, align 1
@_ZN5blink26RuntimeEnabledFeaturesBase21is_wake_lock_enabled_E = hidden global i8 1, align 1
@_ZN5blink26RuntimeEnabledFeaturesBase30is_web_animations_api_enabled_E = hidden global i8 1, align 1
@_ZN5blink26RuntimeEnabledFeaturesBase30is_web_animations_svg_enabled_E = hidden global i8 0, align 1
@_ZN5blink26RuntimeEnabledFeaturesBase34is_web_app_link_capturing_enabled_E = hidden global i8 0, align 1
@_ZN5blink26RuntimeEnabledFeaturesBase32is_web_apps_lock_screen_enabled_E = hidden global i8 0, align 1
@_ZN5blink26RuntimeEnabledFeaturesBase32is_web_app_url_handling_enabled_E = hidden global i8 0, align 1
@_ZN5blink26RuntimeEnabledFeaturesBase43is_web_app_window_controls_overlay_enabled_E = hidden global i8 0, align 1
@_ZN5blink26RuntimeEnabledFeaturesBase28is_web_assembly_csp_enabled_E = hidden global i8 0, align 1
@_ZN5blink26RuntimeEnabledFeaturesBase35is_web_assembly_exceptions_enabled_E = hidden global i8 0, align 1
@_ZN5blink26RuntimeEnabledFeaturesBase29is_web_assembly_simd_enabled_E = hidden global i8 0, align 1
@_ZN5blink26RuntimeEnabledFeaturesBase20is_web_auth_enabled_E = hidden global i8 1, align 1
@_ZN5blink26RuntimeEnabledFeaturesBase45is_web_authentication_conditional_ui_enabled_E = hidden global i8 0, align 1
@_ZN5blink26RuntimeEnabledFeaturesBase51is_web_authentication_large_blob_extension_enabled_E = hidden global i8 0, align 1
@_ZN5blink26RuntimeEnabledFeaturesBase55is_web_authentication_resident_key_requirement_enabled_E = hidden global i8 1, align 1
@_ZN5blink26RuntimeEnabledFeaturesBase25is_web_bluetooth_enabled_E = hidden global i8 0, align 1
@_ZN5blink26RuntimeEnabledFeaturesBase37is_web_bluetooth_get_devices_enabled_E = hidden global i8 0, align 1
@_ZN5blink26RuntimeEnabledFeaturesBase50is_web_bluetooth_manufacturer_data_filter_enabled_E = hidden global i8 0, align 1
@_ZN5blink26RuntimeEnabledFeaturesBase63is_web_bluetooth_remote_characteristic_new_write_value_enabled_E = hidden global i8 0, align 1
@_ZN5blink26RuntimeEnabledFeaturesBase34is_web_bluetooth_scanning_enabled_E = hidden global i8 0, align 1
@_ZN5blink26RuntimeEnabledFeaturesBase46is_web_bluetooth_watch_advertisements_enabled_E = hidden global i8 0, align 1
@_ZN5blink26RuntimeEnabledFeaturesBase21is_webcodecs_enabled_E = hidden global i8 0, align 1
@_ZN5blink26RuntimeEnabledFeaturesBase34is_web_crypto_curve_25519_enabled_E = hidden global i8 0, align 1
@_ZN5blink26RuntimeEnabledFeaturesBase34is_webgl_draft_extensions_enabled_E = hidden global i8 0, align 1
@_ZN5blink26RuntimeEnabledFeaturesBase32is_webgl_image_chromium_enabled_E = hidden global i8 0, align 1
@_ZN5blink26RuntimeEnabledFeaturesBase18is_webgpu_enabled_E = hidden global i8 0, align 1
@_ZN5blink26RuntimeEnabledFeaturesBase33is_webgpu_import_texture_enabled_E = hidden global i8 0, align 1
@_ZN5blink26RuntimeEnabledFeaturesBase19is_web_hid_enabled_E = hidden global i8 1, align 1
@_ZN5blink26RuntimeEnabledFeaturesBase18is_web_id_enabled_E = hidden global i8 0, align 1
@_ZN5blink26RuntimeEnabledFeaturesBase19is_web_nfc_enabled_E = hidden global i8 0, align 1
@_ZN5blink26RuntimeEnabledFeaturesBase19is_web_otp_enabled_E = hidden global i8 0, align 1
@_ZN5blink26RuntimeEnabledFeaturesBase44is_web_otp_assertion_feature_policy_enabled_E = hidden global i8 0, align 1
@_ZN5blink26RuntimeEnabledFeaturesBase25is_web_scheduler_enabled_E = hidden global i8 0, align 1
@_ZN5blink26RuntimeEnabledFeaturesBase21is_web_share_enabled_E = hidden global i8 0, align 1
@_ZN5blink26RuntimeEnabledFeaturesBase28is_websocket_stream_enabled_E = hidden global i8 0, align 1
@_ZN5blink26RuntimeEnabledFeaturesBase25is_web_transport_enabled_E = hidden global i8 0, align 1
@_ZN5blink26RuntimeEnabledFeaturesBase45is_web_transport_custom_certificates_enabled_E = hidden global i8 0, align 1
@_ZN5blink26RuntimeEnabledFeaturesBase19is_web_usb_enabled_E = hidden global i8 1, align 1
@_ZN5blink26RuntimeEnabledFeaturesBase40is_web_usb_on_dedicated_workers_enabled_E = hidden global i8 1, align 1
@_ZN5blink26RuntimeEnabledFeaturesBase27is_web_vtt_regions_enabled_E = hidden global i8 0, align 1
@_ZN5blink26RuntimeEnabledFeaturesBase18is_web_xr_enabled_E = hidden global i8 1, align 1
@_ZN5blink26RuntimeEnabledFeaturesBase26is_web_xr_anchors_enabled_E = hidden global i8 1, align 1
@_ZN5blink26RuntimeEnabledFeaturesBase28is_web_xr_ar_module_enabled_E = hidden global i8 1, align 1
@_ZN5blink26RuntimeEnabledFeaturesBase32is_web_xr_camera_access_enabled_E = hidden global i8 0, align 1
@_ZN5blink26RuntimeEnabledFeaturesBase24is_web_xr_depth_enabled_E = hidden global i8 1, align 1
@_ZN5blink26RuntimeEnabledFeaturesBase29is_web_xr_hand_input_enabled_E = hidden global i8 0, align 1
@_ZN5blink26RuntimeEnabledFeaturesBase27is_web_xr_hit_test_enabled_E = hidden global i8 1, align 1
@_ZN5blink26RuntimeEnabledFeaturesBase40is_web_xr_hit_test_entity_types_enabled_E = hidden global i8 0, align 1
@_ZN5blink26RuntimeEnabledFeaturesBase33is_web_xr_image_tracking_enabled_E = hidden global i8 0, align 1
@_ZN5blink26RuntimeEnabledFeaturesBase35is_web_xr_light_estimation_enabled_E = hidden global i8 1, align 1
@_ZN5blink26RuntimeEnabledFeaturesBase34is_web_xr_plane_detection_enabled_E = hidden global i8 0, align 1
@_ZN5blink26RuntimeEnabledFeaturesBase33is_web_xr_viewport_scale_enabled_E = hidden global i8 1, align 1
@_ZN5blink26RuntimeEnabledFeaturesBase31is_wheel_event_regions_enabled_E = hidden global i8 0, align 1
@_ZN5blink26RuntimeEnabledFeaturesBase28is_window_placement_enabled_E = hidden global i8 0, align 1
@_ZN5blink26RuntimeEnabledFeaturesBase27is_window_segments_enabled_E = hidden global i8 0, align 1
@_ZN5blink26RuntimeEnabledFeaturesBase16is_xslt_enabled_E = hidden global i8 1, align 1
@_ZZN5blink26RuntimeEnabledFeaturesBase27SetFeatureEnabledFromStringERKNSt3__112basic_stringIcNS1_11char_traitsIcEENS1_9allocatorIcEEEEbE9kFeatures = internal constant [495 x %struct.anon.1] [%struct.anon.1 { i8* getelementptr inbounds ([20 x i8], [20 x i8]* @.str, i32 0, i32 0), i8* @_ZN5blink26RuntimeEnabledFeaturesBase33is_accelerated_2d_canvas_enabled_E }, %struct.anon.1 { i8* getelementptr inbounds ([25 x i8], [25 x i8]* @.str.1, i32 0, i32 0), i8* @_ZN5blink26RuntimeEnabledFeaturesBase38is_accelerated_small_canvases_enabled_E }, %struct.anon.1 { i8* getelementptr inbounds ([34 x i8], [34 x i8]* @.str.2, i32 0, i32 0), i8* @_ZN5blink26RuntimeEnabledFeaturesBase48is_accessibility_aria_touch_passthrough_enabled_E }, %struct.anon.1 { i8* getelementptr inbounds ([32 x i8], [32 x i8]* @.str.3, i32 0, i32 0), i8* @_ZN5blink26RuntimeEnabledFeaturesBase46is_accessibility_aria_virtual_content_enabled_E }, %struct.anon.1 { i8* getelementptr inbounds ([31 x i8], [31 x i8]* @.str.4, i32 0, i32 0), i8* @_ZN5blink26RuntimeEnabledFeaturesBase45is_accessibility_expose_display_none_enabled_E }, %struct.anon.1 { i8* getelementptr inbounds ([31 x i8], [31 x i8]* @.str.5, i32 0, i32 0), i8* @_ZN5blink26RuntimeEnabledFeaturesBase45is_accessibility_expose_html_element_enabled_E }, %struct.anon.1 { i8* getelementptr inbounds ([32 x i8], [32 x i8]* @.str.6, i32 0, i32 0), i8* @_ZN5blink26RuntimeEnabledFeaturesBase46is_accessibility_expose_ignored_nodes_enabled_E }, %struct.anon.1 { i8* getelementptr inbounds ([25 x i8], [25 x i8]* @.str.7, i32 0, i32 0), i8* @_ZN5blink26RuntimeEnabledFeaturesBase38is_accessibility_object_model_enabled_E }, %struct.anon.1 { i8* getelementptr inbounds ([45 x i8], [45 x i8]* @.str.8, i32 0, i32 0), i8* @_ZN5blink26RuntimeEnabledFeaturesBase62is_accessibility_use_ax_position_for_document_markers_enabled_E }, %struct.anon.1 { i8* getelementptr inbounds ([28 x i8], [28 x i8]* @.str.9, i32 0, i32 0), i8* @_ZN5blink26RuntimeEnabledFeaturesBase43is_add_event_listener_abort_signal_enabled_E }, %struct.anon.1 { i8* getelementptr inbounds ([13 x i8], [13 x i8]* @.str.10, i32 0, i32 0), i8* @_ZN5blink26RuntimeEnabledFeaturesBase25is_address_space_enabled_E }, %struct.anon.1 { i8* getelementptr inbounds ([10 x i8], [10 x i8]* @.str.11, i32 0, i32 0), i8* @_ZN5blink26RuntimeEnabledFeaturesBase22is_ad_tagging_enabled_E }, %struct.anon.1 { i8* getelementptr inbounds ([30 x i8], [30 x i8]* @.str.12, i32 0, i32 0), i8* @_ZN5blink26RuntimeEnabledFeaturesBase44is_allow_activation_delegation_attr_enabled_E }, %struct.anon.1 { i8* getelementptr inbounds ([40 x i8], [40 x i8]* @.str.13, i32 0, i32 0), i8* @_ZN5blink26RuntimeEnabledFeaturesBase56is_allow_content_initiated_data_url_navigations_enabled_E }, %struct.anon.1 { i8* getelementptr inbounds ([28 x i8], [28 x i8]* @.str.14, i32 0, i32 0), i8* @_ZN5blink26RuntimeEnabledFeaturesBase44is_allow_sync_xhr_in_page_dismissal_enabled_E }, %struct.anon.1 { i8* getelementptr inbounds ([33 x i8], [33 x i8]* @.str.15, i32 0, i32 0), i8* @_ZN5blink26RuntimeEnabledFeaturesBase47is_android_downloadable_fonts_matching_enabled_E }, %struct.anon.1 { i8* getelementptr inbounds ([17 x i8], [17 x i8]* @.str.16, i32 0, i32 0), i8* @_ZN5blink26RuntimeEnabledFeaturesBase29is_animation_worklet_enabled_E }, %struct.anon.1 { i8* getelementptr inbounds ([18 x i8], [18 x i8]* @.str.17, i32 0, i32 0), i8* @_ZN5blink26RuntimeEnabledFeaturesBase31is_aom_aria_properties_enabled_E }, %struct.anon.1 { i8* getelementptr inbounds ([30 x i8], [30 x i8]* @.str.18, i32 0, i32 0), i8* @_ZN5blink26RuntimeEnabledFeaturesBase44is_aom_aria_relationship_properties_enabled_E }, %struct.anon.1 { i8* getelementptr inbounds ([9 x i8], [9 x i8]* @.str.19, i32 0, i32 0), i8* @_ZN5blink26RuntimeEnabledFeaturesBase21is_app_cache_enabled_E }, %struct.anon.1 { i8* getelementptr inbounds ([11 x i8], [11 x i8]* @.str.20, i32 0, i32 0), i8* @_ZN5blink26RuntimeEnabledFeaturesBase23is_app_history_enabled_E }, %struct.anon.1 { i8* getelementptr inbounds ([21 x i8], [21 x i8]* @.str.21, i32 0, i32 0), i8* @_ZN5blink26RuntimeEnabledFeaturesBase34is_aria_touch_passthrough_enabled_E }, %struct.anon.1 { i8* getelementptr inbounds ([19 x i8], [19 x i8]* @.str.22, i32 0, i32 0), i8* @_ZN5blink26RuntimeEnabledFeaturesBase32is_audio_output_devices_enabled_E }, %struct.anon.1 { i8* getelementptr inbounds ([17 x i8], [17 x i8]* @.str.23, i32 0, i32 0), i8* @_ZN5blink26RuntimeEnabledFeaturesBase30is_audio_video_tracks_enabled_E }, %struct.anon.1 { i8* getelementptr inbounds ([22 x i8], [22 x i8]* @.str.24, i32 0, i32 0), i8* @_ZN5blink26RuntimeEnabledFeaturesBase37is_auto_lazy_load_on_reloads_enabled_E }, %struct.anon.1 { i8* getelementptr inbounds ([26 x i8], [26 x i8]* @.str.25, i32 0, i32 0), i8* @_ZN5blink26RuntimeEnabledFeaturesBase40is_automatic_lazy_frame_loading_enabled_E }, %struct.anon.1 { i8* getelementptr inbounds ([26 x i8], [26 x i8]* @.str.26, i32 0, i32 0), i8* @_ZN5blink26RuntimeEnabledFeaturesBase40is_automatic_lazy_image_loading_enabled_E }, %struct.anon.1 { i8* getelementptr inbounds ([21 x i8], [21 x i8]* @.str.27, i32 0, i32 0), i8* @_ZN5blink26RuntimeEnabledFeaturesBase33is_automation_controlled_enabled_E }, %struct.anon.1 { i8* getelementptr inbounds ([21 x i8], [21 x i8]* @.str.28, i32 0, i32 0), i8* @_ZN5blink26RuntimeEnabledFeaturesBase35is_auto_picture_in_picture_enabled_E }, %struct.anon.1 { i8* getelementptr inbounds ([24 x i8], [24 x i8]* @.str.29, i32 0, i32 0), i8* @_ZN5blink26RuntimeEnabledFeaturesBase38is_autoplay_ignores_web_audio_enabled_E }, %struct.anon.1 { i8* getelementptr inbounds ([17 x i8], [17 x i8]* @.str.30, i32 0, i32 0), i8* @_ZN5blink26RuntimeEnabledFeaturesBase30is_back_forward_cache_enabled_E }, %struct.anon.1 { i8* getelementptr inbounds ([37 x i8], [37 x i8]* @.str.31, i32 0, i32 0), i8* @_ZN5blink26RuntimeEnabledFeaturesBase53is_back_forward_cache_experiment_http_header_enabled_E }, %struct.anon.1 { i8* getelementptr inbounds ([16 x i8], [16 x i8]* @.str.32, i32 0, i32 0), i8* @_ZN5blink26RuntimeEnabledFeaturesBase28is_background_fetch_enabled_E }, %struct.anon.1 { i8* getelementptr inbounds ([33 x i8], [33 x i8]* @.str.33, i32 0, i32 0), i8* @_ZN5blink26RuntimeEnabledFeaturesBase47is_background_video_track_optimization_enabled_E }, %struct.anon.1 { i8* getelementptr inbounds ([8 x i8], [8 x i8]* @.str.34, i32 0, i32 0), i8* @_ZN5blink26RuntimeEnabledFeaturesBase19is_badging_enabled_E }, %struct.anon.1 { i8* getelementptr inbounds ([16 x i8], [16 x i8]* @.str.35, i32 0, i32 0), i8* @_ZN5blink26RuntimeEnabledFeaturesBase28is_barcode_detector_enabled_E }, %struct.anon.1 { i8* getelementptr inbounds ([19 x i8], [19 x i8]* @.str.36, i32 0, i32 0), i8* @_ZN5blink26RuntimeEnabledFeaturesBase32is_battery_savings_meta_enabled_E }, %struct.anon.1 { i8* getelementptr inbounds ([17 x i8], [17 x i8]* @.str.37, i32 0, i32 0), i8* @_ZN5blink26RuntimeEnabledFeaturesBase30is_before_match_event_enabled_E }, %struct.anon.1 { i8* getelementptr inbounds ([18 x i8], [18 x i8]* @.str.38, i32 0, i32 0), i8* @_ZN5blink26RuntimeEnabledFeaturesBase31is_bidi_caret_affinity_enabled_E }, %struct.anon.1 { i8* getelementptr inbounds ([22 x i8], [22 x i8]* @.str.39, i32 0, i32 0), i8* @_ZN5blink26RuntimeEnabledFeaturesBase36is_blink_runtime_call_stats_enabled_E }, %struct.anon.1 { i8* getelementptr inbounds ([30 x i8], [30 x i8]* @.str.40, i32 0, i32 0), i8* @_ZN5blink26RuntimeEnabledFeaturesBase43is_block_credentialed_subresources_enabled_E }, %struct.anon.1 { i8* getelementptr inbounds ([27 x i8], [27 x i8]* @.str.41, i32 0, i32 0), i8* @_ZN5blink26RuntimeEnabledFeaturesBase41is_blocking_downloads_in_sandbox_enabled_E }, %struct.anon.1 { i8* getelementptr inbounds ([35 x i8], [35 x i8]* @.str.42, i32 0, i32 0), i8* @_ZN5blink26RuntimeEnabledFeaturesBase50is_blocking_focus_without_user_activation_enabled_E }, %struct.anon.1 { i8* getelementptr inbounds ([38 x i8], [38 x i8]* @.str.43, i32 0, i32 0), i8* @_ZN5blink26RuntimeEnabledFeaturesBase53is_browser_verified_user_activation_keyboard_enabled_E }, %struct.anon.1 { i8* getelementptr inbounds ([35 x i8], [35 x i8]* @.str.44, i32 0, i32 0), i8* @_ZN5blink26RuntimeEnabledFeaturesBase50is_browser_verified_user_activation_mouse_enabled_E }, %struct.anon.1 { i8* getelementptr inbounds ([22 x i8], [22 x i8]* @.str.45, i32 0, i32 0), i8* @_ZN5blink26RuntimeEnabledFeaturesBase36is_cache_inline_script_code_enabled_E }, %struct.anon.1 { i8* getelementptr inbounds ([26 x i8], [26 x i8]* @.str.46, i32 0, i32 0), i8* @_ZN5blink26RuntimeEnabledFeaturesBase41is_cache_storage_code_cache_hint_enabled_E }, %struct.anon.1 { i8* getelementptr inbounds ([22 x i8], [22 x i8]* @.str.47, i32 0, i32 0), i8* @_ZN5blink26RuntimeEnabledFeaturesBase36is_canvas_2d_image_chromium_enabled_E }, %struct.anon.1 { i8* getelementptr inbounds ([27 x i8], [27 x i8]* @.str.48, i32 0, i32 0), i8* @_ZN5blink26RuntimeEnabledFeaturesBase43is_canvas_2d_scroll_path_into_view_enabled_E }, %struct.anon.1 { i8* getelementptr inbounds ([22 x i8], [22 x i8]* @.str.49, i32 0, i32 0), i8* @_ZN5blink26RuntimeEnabledFeaturesBase35is_canvas_color_management_enabled_E }, %struct.anon.1 { i8* getelementptr inbounds ([20 x i8], [20 x i8]* @.str.50, i32 0, i32 0), i8* @_ZN5blink26RuntimeEnabledFeaturesBase33is_canvas_formatted_text_enabled_E }, %struct.anon.1 { i8* getelementptr inbounds ([16 x i8], [16 x i8]* @.str.51, i32 0, i32 0), i8* @_ZN5blink26RuntimeEnabledFeaturesBase29is_canvas_hit_region_enabled_E }, %struct.anon.1 { i8* getelementptr inbounds ([21 x i8], [21 x i8]* @.str.52, i32 0, i32 0), i8* @_ZN5blink26RuntimeEnabledFeaturesBase34is_canvas_image_smoothing_enabled_E }, %struct.anon.1 { i8* getelementptr inbounds ([21 x i8], [21 x i8]* @.str.53, i32 0, i32 0), i8* @_ZN5blink26RuntimeEnabledFeaturesBase33is_capability_delegation_enabled_E }, %struct.anon.1 { i8* getelementptr inbounds ([35 x i8], [35 x i8]* @.str.54, i32 0, i32 0), i8* @_ZN5blink26RuntimeEnabledFeaturesBase49is_capability_delegation_payment_request_enabled_E }, %struct.anon.1 { i8* getelementptr inbounds ([14 x i8], [14 x i8]* @.str.55, i32 0, i32 0), i8* @_ZN5blink26RuntimeEnabledFeaturesBase26is_capture_handle_enabled_E }, %struct.anon.1 { i8* getelementptr inbounds ([18 x i8], [18 x i8]* @.str.56, i32 0, i32 0), i8* @_ZN5blink26RuntimeEnabledFeaturesBase32is_capture_time_in_csrc_enabled_E }, %struct.anon.1 { i8* getelementptr inbounds ([18 x i8], [18 x i8]* @.str.57, i32 0, i32 0), i8* @_ZN5blink26RuntimeEnabledFeaturesBase31is_click_pointer_event_enabled_E }, %struct.anon.1 { i8* getelementptr inbounds ([18 x i8], [18 x i8]* @.str.58, i32 0, i32 0), i8* @_ZN5blink26RuntimeEnabledFeaturesBase30is_click_retargetting_enabled_E }, %struct.anon.1 { i8* getelementptr inbounds ([13 x i8], [13 x i8]* @.str.59, i32 0, i32 0), i8* @_ZN5blink26RuntimeEnabledFeaturesBase25is_clipboard_svg_enabled_E }, %struct.anon.1 { i8* getelementptr inbounds ([12 x i8], [12 x i8]* @.str.60, i32 0, i32 0), i8* @_ZN5blink26RuntimeEnabledFeaturesBase25is_colrv_1_fonts_enabled_E }, %struct.anon.1 { i8* getelementptr inbounds ([20 x i8], [20 x i8]* @.str.61, i32 0, i32 0), i8* @_ZN5blink26RuntimeEnabledFeaturesBase33is_composite_after_paint_enabled_E }, %struct.anon.1 { i8* getelementptr inbounds ([26 x i8], [26 x i8]* @.str.62, i32 0, i32 0), i8* @_ZN5blink26RuntimeEnabledFeaturesBase40is_composite_bg_color_animation_enabled_E }, %struct.anon.1 { i8* getelementptr inbounds ([27 x i8], [27 x i8]* @.str.63, i32 0, i32 0), i8* @_ZN5blink26RuntimeEnabledFeaturesBase41is_composite_clip_path_animation_enabled_E }, %struct.anon.1 { i8* getelementptr inbounds ([26 x i8], [26 x i8]* @.str.64, i32 0, i32 0), i8* @_ZN5blink26RuntimeEnabledFeaturesBase39is_composited_selection_update_enabled_E }, %struct.anon.1 { i8* getelementptr inbounds ([27 x i8], [27 x i8]* @.str.65, i32 0, i32 0), i8* @_ZN5blink26RuntimeEnabledFeaturesBase40is_composite_relative_keyframes_enabled_E }, %struct.anon.1 { i8* getelementptr inbounds ([13 x i8], [13 x i8]* @.str.66, i32 0, i32 0), i8* @_ZN5blink26RuntimeEnabledFeaturesBase25is_composite_svg_enabled_E }, %struct.anon.1 { i8* getelementptr inbounds ([26 x i8], [26 x i8]* @.str.67, i32 0, i32 0), i8* @_ZN5blink26RuntimeEnabledFeaturesBase39is_computed_accessibility_info_enabled_E }, %struct.anon.1 { i8* getelementptr inbounds ([16 x i8], [16 x i8]* @.str.68, i32 0, i32 0), i8* @_ZN5blink26RuntimeEnabledFeaturesBase28is_compute_pressure_enabled_E }, %struct.anon.1 { i8* getelementptr inbounds ([23 x i8], [23 x i8]* @.str.69, i32 0, i32 0), i8* @_ZN5blink26RuntimeEnabledFeaturesBase36is_consolidated_movement_xy_enabled_E }, %struct.anon.1 { i8* getelementptr inbounds ([16 x i8], [16 x i8]* @.str.70, i32 0, i32 0), i8* @_ZN5blink26RuntimeEnabledFeaturesBase28is_contacts_manager_enabled_E }, %struct.anon.1 { i8* getelementptr inbounds ([31 x i8], [31 x i8]* @.str.71, i32 0, i32 0), i8* @_ZN5blink26RuntimeEnabledFeaturesBase45is_contacts_manager_extra_properties_enabled_E }, %struct.anon.1 { i8* getelementptr inbounds ([13 x i8], [13 x i8]* @.str.72, i32 0, i32 0), i8* @_ZN5blink26RuntimeEnabledFeaturesBase25is_content_index_enabled_E }, %struct.anon.1 { i8* getelementptr inbounds ([12 x i8], [12 x i8]* @.str.73, i32 0, i32 0), i8* @_ZN5blink26RuntimeEnabledFeaturesBase24is_context_menu_enabled_E }, %struct.anon.1 { i8* getelementptr inbounds ([22 x i8], [22 x i8]* @.str.74, i32 0, i32 0), i8* @_ZN5blink26RuntimeEnabledFeaturesBase34is_conversion_measurement_enabled_E }, %struct.anon.1 { i8* getelementptr inbounds ([34 x i8], [34 x i8]* @.str.75, i32 0, i32 0), i8* @_ZN5blink26RuntimeEnabledFeaturesBase48is_conversion_measurement_infra_support_enabled_E }, %struct.anon.1 { i8* getelementptr inbounds ([35 x i8], [35 x i8]* @.str.76, i32 0, i32 0), i8* @_ZN5blink26RuntimeEnabledFeaturesBase52is_cookies_without_same_site_must_be_secure_enabled_E }, %struct.anon.1 { i8* getelementptr inbounds ([22 x i8], [22 x i8]* @.str.77, i32 0, i32 0), i8* @_ZN5blink26RuntimeEnabledFeaturesBase34is_cooperative_scheduling_enabled_E }, %struct.anon.1 { i8* getelementptr inbounds ([12 x i8], [12 x i8]* @.str.78, i32 0, i32 0), i8* @_ZN5blink26RuntimeEnabledFeaturesBase25is_cors_rfc_1918_enabled_E }, %struct.anon.1 { i8* getelementptr inbounds ([21 x i8], [21 x i8]* @.str.79, i32 0, i32 0), i8* @_ZN5blink26RuntimeEnabledFeaturesBase34is_cross_origin_isolation_enabled_E }, %struct.anon.1 { i8* getelementptr inbounds ([33 x i8], [33 x i8]* @.str.80, i32 0, i32 0), i8* @_ZN5blink26RuntimeEnabledFeaturesBase48is_cross_origin_opener_policy_reporting_enabled_E }, %struct.anon.1 { i8* getelementptr inbounds ([9 x i8], [9 x i8]* @.str.81, i32 0, i32 0), i8* @_ZN5blink26RuntimeEnabledFeaturesBase22is_css_3_text_enabled_E }, %struct.anon.1 { i8* getelementptr inbounds ([15 x i8], [15 x i8]* @.str.82, i32 0, i32 0), i8* @_ZN5blink26RuntimeEnabledFeaturesBase28is_css_accent_color_enabled_E }, %struct.anon.1 { i8* getelementptr inbounds ([34 x i8], [34 x i8]* @.str.83, i32 0, i32 0), i8* @_ZN5blink26RuntimeEnabledFeaturesBase51is_css_at_rule_counter_style_image_symbols_enabled_E }, %struct.anon.1 { i8* getelementptr inbounds ([33 x i8], [33 x i8]* @.str.84, i32 0, i32 0), i8* @_ZN5blink26RuntimeEnabledFeaturesBase51is_css_at_rule_counter_style_in_shadow_dom_enabled_E }, %struct.anon.1 { i8* getelementptr inbounds ([13 x i8], [13 x i8]* @.str.85, i32 0, i32 0), i8* @_ZN5blink26RuntimeEnabledFeaturesBase27is_css_calc_as_int_enabled_E }, %struct.anon.1 { i8* getelementptr inbounds ([22 x i8], [22 x i8]* @.str.86, i32 0, i32 0), i8* @_ZN5blink26RuntimeEnabledFeaturesBase38is_css_calc_infinity_and_na_n_enabled_E }, %struct.anon.1 { i8* getelementptr inbounds ([25 x i8], [25 x i8]* @.str.87, i32 0, i32 0), i8* @_ZN5blink26RuntimeEnabledFeaturesBase39is_css_case_sensitive_selector_enabled_E }, %struct.anon.1 { i8* getelementptr inbounds ([16 x i8], [16 x i8]* @.str.88, i32 0, i32 0), i8* @_ZN5blink26RuntimeEnabledFeaturesBase30is_css_color_typed_om_enabled_E }, %struct.anon.1 { i8* getelementptr inbounds ([20 x i8], [20 x i8]* @.str.89, i32 0, i32 0), i8* @_ZN5blink26RuntimeEnabledFeaturesBase33is_css_container_queries_enabled_E }, %struct.anon.1 { i8* getelementptr inbounds ([17 x i8], [17 x i8]* @.str.90, i32 0, i32 0), i8* @_ZN5blink26RuntimeEnabledFeaturesBase31is_css_contain_size_1d_enabled_E }, %struct.anon.1 { i8* getelementptr inbounds ([21 x i8], [21 x i8]* @.str.91, i32 0, i32 0), i8* @_ZN5blink26RuntimeEnabledFeaturesBase34is_css_content_visibility_enabled_E }, %struct.anon.1 { i8* getelementptr inbounds ([36 x i8], [36 x i8]* @.str.92, i32 0, i32 0), i8* @_ZN5blink26RuntimeEnabledFeaturesBase51is_css_content_visibility_hidden_matchable_enabled_E }, %struct.anon.1 { i8* getelementptr inbounds ([16 x i8], [16 x i8]* @.str.93, i32 0, i32 0), i8* @_ZN5blink26RuntimeEnabledFeaturesBase29is_css_focus_visible_enabled_E }, %struct.anon.1 { i8* getelementptr inbounds ([13 x i8], [13 x i8]* @.str.94, i32 0, i32 0), i8* @_ZN5blink26RuntimeEnabledFeaturesBase25is_css_foldables_enabled_E }, %struct.anon.1 { i8* getelementptr inbounds ([22 x i8], [22 x i8]* @.str.95, i32 0, i32 0), i8* @_ZN5blink26RuntimeEnabledFeaturesBase37is_css_font_face_size_adjust_enabled_E }, %struct.anon.1 { i8* getelementptr inbounds ([18 x i8], [18 x i8]* @.str.96, i32 0, i32 0), i8* @_ZN5blink26RuntimeEnabledFeaturesBase32is_css_font_size_adjust_enabled_E }, %struct.anon.1 { i8* getelementptr inbounds ([17 x i8], [17 x i8]* @.str.97, i32 0, i32 0), i8* @_ZN5blink26RuntimeEnabledFeaturesBase31is_css_hex_alpha_color_enabled_E }, %struct.anon.1 { i8* getelementptr inbounds ([34 x i8], [34 x i8]* @.str.98, i32 0, i32 0), i8* @_ZN5blink26RuntimeEnabledFeaturesBase48is_css_independent_transform_properties_enabled_E }, %struct.anon.1 { i8* getelementptr inbounds ([13 x i8], [13 x i8]* @.str.99, i32 0, i32 0), i8* @_ZN5blink26RuntimeEnabledFeaturesBase26is_css_layout_api_enabled_E }, %struct.anon.1 { i8* getelementptr inbounds ([11 x i8], [11 x i8]* @.str.100, i32 0, i32 0), i8* @_ZN5blink26RuntimeEnabledFeaturesBase23is_css_logical_enabled_E }, %struct.anon.1 { i8* getelementptr inbounds ([19 x i8], [19 x i8]* @.str.101, i32 0, i32 0), i8* @_ZN5blink26RuntimeEnabledFeaturesBase32is_css_logical_overflow_enabled_E }, %struct.anon.1 { i8* getelementptr inbounds ([29 x i8], [29 x i8]* @.str.102, i32 0, i32 0), i8* @_ZN5blink26RuntimeEnabledFeaturesBase44is_css_marker_nested_pseudo_element_enabled_E }, %struct.anon.1 { i8* getelementptr inbounds ([13 x i8], [13 x i8]* @.str.103, i32 0, i32 0), i8* @_ZN5blink26RuntimeEnabledFeaturesBase26is_css_math_depth_enabled_E }, %struct.anon.1 { i8* getelementptr inbounds ([13 x i8], [13 x i8]* @.str.104, i32 0, i32 0), i8* @_ZN5blink26RuntimeEnabledFeaturesBase26is_css_math_shift_enabled_E }, %struct.anon.1 { i8* getelementptr inbounds ([13 x i8], [13 x i8]* @.str.105, i32 0, i32 0), i8* @_ZN5blink26RuntimeEnabledFeaturesBase26is_css_math_style_enabled_E }, %struct.anon.1 { i8* getelementptr inbounds ([15 x i8], [15 x i8]* @.str.106, i32 0, i32 0), i8* @_ZN5blink26RuntimeEnabledFeaturesBase28is_css_math_variant_enabled_E }, %struct.anon.1 { i8* getelementptr inbounds ([11 x i8], [11 x i8]* @.str.107, i32 0, i32 0), i8* @_ZN5blink26RuntimeEnabledFeaturesBase23is_css_modules_enabled_E }, %struct.anon.1 { i8* getelementptr inbounds ([17 x i8], [17 x i8]* @.str.108, i32 0, i32 0), i8* @_ZN5blink26RuntimeEnabledFeaturesBase31is_css_offset_path_ray_enabled_E }, %struct.anon.1 { i8* getelementptr inbounds ([24 x i8], [24 x i8]* @.str.109, i32 0, i32 0), i8* @_ZN5blink26RuntimeEnabledFeaturesBase39is_css_offset_path_ray_contain_enabled_E }, %struct.anon.1 { i8* getelementptr inbounds ([24 x i8], [24 x i8]* @.str.110, i32 0, i32 0), i8* @_ZN5blink26RuntimeEnabledFeaturesBase38is_css_offset_position_anchor_enabled_E }, %struct.anon.1 { i8* getelementptr inbounds ([21 x i8], [21 x i8]* @.str.111, i32 0, i32 0), i8* @_ZN5blink26RuntimeEnabledFeaturesBase35is_css_paint_api_arguments_enabled_E }, %struct.anon.1 { i8* getelementptr inbounds ([20 x i8], [20 x i8]* @.str.112, i32 0, i32 0), i8* @_ZN5blink26RuntimeEnabledFeaturesBase34is_css_picture_in_picture_enabled_E }, %struct.anon.1 { i8* getelementptr inbounds ([38 x i8], [38 x i8]* @.str.113, i32 0, i32 0), i8* @_ZN5blink26RuntimeEnabledFeaturesBase54is_css_position_sticky_static_scroll_position_enabled_E }, %struct.anon.1 { i8* getelementptr inbounds ([13 x i8], [13 x i8]* @.str.114, i32 0, i32 0), i8* @_ZN5blink26RuntimeEnabledFeaturesBase26is_css_pseudo_dir_enabled_E }, %struct.anon.1 { i8* getelementptr inbounds ([23 x i8], [23 x i8]* @.str.115, i32 0, i32 0), i8* @_ZN5blink26RuntimeEnabledFeaturesBase37is_css_pseudo_playing_paused_enabled_E }, %struct.anon.1 { i8* getelementptr inbounds ([14 x i8], [14 x i8]* @.str.116, i32 0, i32 0), i8* @_ZN5blink26RuntimeEnabledFeaturesBase26is_css_scrollbars_enabled_E }, %struct.anon.1 { i8* getelementptr inbounds ([18 x i8], [18 x i8]* @.str.117, i32 0, i32 0), i8* @_ZN5blink26RuntimeEnabledFeaturesBase31is_css_scroll_timeline_enabled_E }, %struct.anon.1 { i8* getelementptr inbounds ([12 x i8], [12 x i8]* @.str.118, i32 0, i32 0), i8* @_ZN5blink26RuntimeEnabledFeaturesBase25is_css_snap_size_enabled_E }, %struct.anon.1 { i8* getelementptr inbounds ([25 x i8], [25 x i8]* @.str.119, i32 0, i32 0), i8* @_ZN5blink26RuntimeEnabledFeaturesBase39is_css_spelling_grammar_errors_enabled_E }, %struct.anon.1 { i8* getelementptr inbounds ([28 x i8], [28 x i8]* @.str.120, i32 0, i32 0), i8* @_ZN5blink26RuntimeEnabledFeaturesBase44is_css_system_color_compute_to_self_enabled_E }, %struct.anon.1 { i8* getelementptr inbounds ([27 x i8], [27 x i8]* @.str.121, i32 0, i32 0), i8* @_ZN5blink26RuntimeEnabledFeaturesBase42is_css_target_text_pseudo_element_enabled_E }, %struct.anon.1 { i8* getelementptr inbounds ([25 x i8], [25 x i8]* @.str.122, i32 0, i32 0), i8* @_ZN5blink26RuntimeEnabledFeaturesBase40is_css_variables_2_image_values_enabled_E }, %struct.anon.1 { i8* getelementptr inbounds ([29 x i8], [29 x i8]* @.str.123, i32 0, i32 0), i8* @_ZN5blink26RuntimeEnabledFeaturesBase44is_css_variables_2_transform_values_enabled_E }, %struct.anon.1 { i8* getelementptr inbounds ([15 x i8], [15 x i8]* @.str.124, i32 0, i32 0), i8* @_ZN5blink26RuntimeEnabledFeaturesBase28is_cull_rect_update_enabled_E }, %struct.anon.1 { i8* getelementptr inbounds ([26 x i8], [26 x i8]* @.str.125, i32 0, i32 0), i8* @_ZN5blink26RuntimeEnabledFeaturesBase40is_custom_element_default_style_enabled_E }, %struct.anon.1 { i8* getelementptr inbounds ([23 x i8], [23 x i8]* @.str.126, i32 0, i32 0), i8* @_ZN5blink26RuntimeEnabledFeaturesBase37is_custom_state_pseudo_class_enabled_E }, %struct.anon.1 { i8* getelementptr inbounds ([9 x i8], [9 x i8]* @.str.127, i32 0, i32 0), i8* @_ZN5blink26RuntimeEnabledFeaturesBase20is_database_enabled_E }, %struct.anon.1 { i8* getelementptr inbounds ([21 x i8], [21 x i8]* @.str.128, i32 0, i32 0), i8* @_ZN5blink26RuntimeEnabledFeaturesBase34is_declarative_shadow_dom_enabled_E }, %struct.anon.1 { i8* getelementptr inbounds ([25 x i8], [25 x i8]* @.str.129, i32 0, i32 0), i8* @_ZN5blink26RuntimeEnabledFeaturesBase41is_decode_jpeg_420_images_to_yuv_enabled_E }, %struct.anon.1 { i8* getelementptr inbounds ([27 x i8], [27 x i8]* @.str.130, i32 0, i32 0), i8* @_ZN5blink26RuntimeEnabledFeaturesBase44is_decode_lossy_web_p_images_to_yuv_enabled_E }, %struct.anon.1 { i8* getelementptr inbounds ([46 x i8], [46 x i8]* @.str.131, i32 0, i32 0), i8* @_ZN5blink26RuntimeEnabledFeaturesBase63is_delay_async_script_execution_until_finished_parsing_enabled_E }, %struct.anon.1 { i8* getelementptr inbounds ([58 x i8], [58 x i8]* @.str.132, i32 0, i32 0), i8* @_ZN5blink26RuntimeEnabledFeaturesBase78is_delay_async_script_execution_until_first_paint_or_finished_parsing_enabled_E }, %struct.anon.1 { i8* getelementptr inbounds ([19 x i8], [19 x i8]* @.str.133, i32 0, i32 0), i8* @_ZN5blink26RuntimeEnabledFeaturesBase32is_delegated_ink_trails_enabled_E }, %struct.anon.1 { i8* getelementptr inbounds ([38 x i8], [38 x i8]* @.str.134, i32 0, i32 0), i8* @_ZN5blink26RuntimeEnabledFeaturesBase54is_desktop_capture_disable_local_echo_control_enabled_E }, %struct.anon.1 { i8* getelementptr inbounds ([17 x i8], [17 x i8]* @.str.135, i32 0, i32 0), i8* @_ZN5blink26RuntimeEnabledFeaturesBase29is_device_attributes_enabled_E }, %struct.anon.1 { i8* getelementptr inbounds ([14 x i8], [14 x i8]* @.str.136, i32 0, i32 0), i8* @_ZN5blink26RuntimeEnabledFeaturesBase26is_device_posture_enabled_E }, %struct.anon.1 { i8* getelementptr inbounds ([27 x i8], [27 x i8]* @.str.137, i32 0, i32 0), i8* @_ZN5blink26RuntimeEnabledFeaturesBase42is_dialog_focus_new_spec_behavior_enabled_E }, %struct.anon.1 { i8* getelementptr inbounds ([13 x i8], [13 x i8]* @.str.138, i32 0, i32 0), i8* @_ZN5blink26RuntimeEnabledFeaturesBase25is_digital_goods_enabled_E }, %struct.anon.1 { i8* getelementptr inbounds ([14 x i8], [14 x i8]* @.str.139, i32 0, i32 0), i8* @_ZN5blink26RuntimeEnabledFeaturesBase26is_direct_sockets_enabled_E }, %struct.anon.1 { i8* getelementptr inbounds ([48 x i8], [48 x i8]* @.str.140, i32 0, i32 0), i8* @_ZN5blink26RuntimeEnabledFeaturesBase64is_disable_different_origin_subframe_dialog_suppression_enabled_E }, %struct.anon.1 { i8* getelementptr inbounds ([32 x i8], [32 x i8]* @.str.141, i32 0, i32 0), i8* @_ZN5blink26RuntimeEnabledFeaturesBase46is_disable_hardware_noise_suppression_enabled_E }, %struct.anon.1 { i8* getelementptr inbounds ([22 x i8], [22 x i8]* @.str.142, i32 0, i32 0), i8* @_ZN5blink26RuntimeEnabledFeaturesBase35is_disable_layer_squashing_enabled_E }, %struct.anon.1 { i8* getelementptr inbounds ([23 x i8], [23 x i8]* @.str.143, i32 0, i32 0), i8* @_ZN5blink26RuntimeEnabledFeaturesBase36is_disallow_document_access_enabled_E }, %struct.anon.1 { i8* getelementptr inbounds ([31 x i8], [31 x i8]* @.str.144, i32 0, i32 0), i8* @_ZN5blink26RuntimeEnabledFeaturesBase45is_display_capture_permission_policy_enabled_E }, %struct.anon.1 { i8* getelementptr inbounds ([17 x i8], [17 x i8]* @.str.145, i32 0, i32 0), i8* @_ZN5blink26RuntimeEnabledFeaturesBase30is_display_cutout_api_enabled_E }, %struct.anon.1 { i8* getelementptr inbounds ([15 x i8], [15 x i8]* @.str.146, i32 0, i32 0), i8* @_ZN5blink26RuntimeEnabledFeaturesBase27is_document_cookie_enabled_E }, %struct.anon.1 { i8* getelementptr inbounds ([15 x i8], [15 x i8]* @.str.147, i32 0, i32 0), i8* @_ZN5blink26RuntimeEnabledFeaturesBase27is_document_domain_enabled_E }, %struct.anon.1 { i8* getelementptr inbounds ([15 x i8], [15 x i8]* @.str.148, i32 0, i32 0), i8* @_ZN5blink26RuntimeEnabledFeaturesBase27is_document_policy_enabled_E }, %struct.anon.1 { i8* getelementptr inbounds ([29 x i8], [29 x i8]* @.str.149, i32 0, i32 0), i8* @_ZN5blink26RuntimeEnabledFeaturesBase43is_document_policy_document_domain_enabled_E }, %struct.anon.1 { i8* getelementptr inbounds ([26 x i8], [26 x i8]* @.str.150, i32 0, i32 0), i8* @_ZN5blink26RuntimeEnabledFeaturesBase39is_document_policy_negotiation_enabled_E }, %struct.anon.1 { i8* getelementptr inbounds ([22 x i8], [22 x i8]* @.str.151, i32 0, i32 0), i8* @_ZN5blink26RuntimeEnabledFeaturesBase36is_document_policy_sync_xhr_enabled_E }, %struct.anon.1 { i8* getelementptr inbounds ([19 x i8], [19 x i8]* @.str.152, i32 0, i32 0), i8* @_ZN5blink26RuntimeEnabledFeaturesBase31is_document_transition_enabled_E }, %struct.anon.1 { i8* getelementptr inbounds ([14 x i8], [14 x i8]* @.str.153, i32 0, i32 0), i8* @_ZN5blink26RuntimeEnabledFeaturesBase26is_document_write_enabled_E }, %struct.anon.1 { i8* getelementptr inbounds ([12 x i8], [12 x i8]* @.str.154, i32 0, i32 0), i8* @_ZN5blink26RuntimeEnabledFeaturesBase24is_edit_context_enabled_E }, %struct.anon.1 { i8* getelementptr inbounds ([10 x i8], [10 x i8]* @.str.155, i32 0, i32 0), i8* @_ZN5blink26RuntimeEnabledFeaturesBase22is_editing_ng_enabled_E }, %struct.anon.1 { i8* getelementptr inbounds ([36 x i8], [36 x i8]* @.str.156, i32 0, i32 0), i8* @_ZN5blink26RuntimeEnabledFeaturesBase51is_encrypted_media_encryption_scheme_query_enabled_E }, %struct.anon.1 { i8* getelementptr inbounds ([30 x i8], [30 x i8]* @.str.157, i32 0, i32 0), i8* @_ZN5blink26RuntimeEnabledFeaturesBase45is_encrypted_media_hdcp_policy_check_enabled_E }, %struct.anon.1 { i8* getelementptr inbounds ([22 x i8], [22 x i8]* @.str.158, i32 0, i32 0), i8* @_ZN5blink26RuntimeEnabledFeaturesBase36is_enter_key_hint_attribute_enabled_E }, %struct.anon.1 { i8* getelementptr inbounds ([12 x i8], [12 x i8]* @.str.159, i32 0, i32 0), i8* @_ZN5blink26RuntimeEnabledFeaturesBase24is_event_timing_enabled_E }, %struct.anon.1 { i8* getelementptr inbounds ([24 x i8], [24 x i8]* @.str.160, i32 0, i32 0), i8* @_ZN5blink26RuntimeEnabledFeaturesBase39is_exec_command_in_java_script_enabled_E }, %struct.anon.1 { i8* getelementptr inbounds ([35 x i8], [35 x i8]* @.str.161, i32 0, i32 0), i8* @_ZN5blink26RuntimeEnabledFeaturesBase49is_expensive_background_timer_throttling_enabled_E }, %struct.anon.1 { i8* getelementptr inbounds ([42 x i8], [42 x i8]* @.str.162, i32 0, i32 0), i8* @_ZN5blink26RuntimeEnabledFeaturesBase57is_experimental_content_security_policy_features_enabled_E }, %struct.anon.1 { i8* getelementptr inbounds ([27 x i8], [27 x i8]* @.str.163, i32 0, i32 0), i8* @_ZN5blink26RuntimeEnabledFeaturesBase41is_experimental_is_frame_pending_enabled_E }, %struct.anon.1 { i8* getelementptr inbounds ([27 x i8], [27 x i8]* @.str.164, i32 0, i32 0), i8* @_ZN5blink26RuntimeEnabledFeaturesBase41is_experimental_is_input_pending_enabled_E }, %struct.anon.1 { i8* getelementptr inbounds ([23 x i8], [23 x i8]* @.str.165, i32 0, i32 0), i8* @_ZN5blink26RuntimeEnabledFeaturesBase36is_experimental_js_profiler_enabled_E }, %struct.anon.1 { i8* getelementptr inbounds ([21 x i8], [21 x i8]* @.str.166, i32 0, i32 0), i8* @_ZN5blink26RuntimeEnabledFeaturesBase33is_experimental_policies_enabled_E }, %struct.anon.1 { i8* getelementptr inbounds ([20 x i8], [20 x i8]* @.str.167, i32 0, i32 0), i8* @_ZN5blink26RuntimeEnabledFeaturesBase33is_extended_text_metrics_enabled_E }, %struct.anon.1 { i8* getelementptr inbounds ([31 x i8], [31 x i8]* @.str.168, i32 0, i32 0), i8* @_ZN5blink26RuntimeEnabledFeaturesBase46is_extra_webgl_video_texture_metadata_enabled_E }, %struct.anon.1 { i8* getelementptr inbounds ([14 x i8], [14 x i8]* @.str.169, i32 0, i32 0), i8* @_ZN5blink26RuntimeEnabledFeaturesBase27is_eye_dropper_api_enabled_E }, %struct.anon.1 { i8* getelementptr inbounds ([13 x i8], [13 x i8]* @.str.170, i32 0, i32 0), i8* @_ZN5blink26RuntimeEnabledFeaturesBase25is_face_detector_enabled_E }, %struct.anon.1 { i8* getelementptr inbounds ([32 x i8], [32 x i8]* @.str.171, i32 0, i32 0), i8* @_ZN5blink26RuntimeEnabledFeaturesBase49is_fake_no_alloc_direct_call_for_testing_enabled_E }, %struct.anon.1 { i8* getelementptr inbounds ([28 x i8], [28 x i8]* @.str.172, i32 0, i32 0), i8* @_ZN5blink26RuntimeEnabledFeaturesBase43is_feature_policy_for_client_hints_enabled_E }, %struct.anon.1 { i8* getelementptr inbounds ([23 x i8], [23 x i8]* @.str.173, i32 0, i32 0), i8* @_ZN5blink26RuntimeEnabledFeaturesBase36is_feature_policy_reporting_enabled_E }, %struct.anon.1 { i8* getelementptr inbounds ([13 x i8], [13 x i8]* @.str.174, i32 0, i32 0), i8* @_ZN5blink26RuntimeEnabledFeaturesBase25is_fenced_frames_enabled_E }, %struct.anon.1 { i8* getelementptr inbounds ([21 x i8], [21 x i8]* @.str.175, i32 0, i32 0), i8* @_ZN5blink26RuntimeEnabledFeaturesBase34is_fetch_upload_streaming_enabled_E }, %struct.anon.1 { i8* getelementptr inbounds ([13 x i8], [13 x i8]* @.str.176, i32 0, i32 0), i8* @_ZN5blink26RuntimeEnabledFeaturesBase25is_file_handling_enabled_E }, %struct.anon.1 { i8* getelementptr inbounds ([11 x i8], [11 x i8]* @.str.177, i32 0, i32 0), i8* @_ZN5blink26RuntimeEnabledFeaturesBase23is_file_system_enabled_E }, %struct.anon.1 { i8* getelementptr inbounds ([17 x i8], [17 x i8]* @.str.178, i32 0, i32 0), i8* @_ZN5blink26RuntimeEnabledFeaturesBase30is_file_system_access_enabled_E }, %struct.anon.1 { i8* getelementptr inbounds ([32 x i8], [32 x i8]* @.str.179, i32 0, i32 0), i8* @_ZN5blink26RuntimeEnabledFeaturesBase47is_file_system_access_api_experimental_enabled_E }, %struct.anon.1 { i8* getelementptr inbounds ([23 x i8], [23 x i8]* @.str.180, i32 0, i32 0), i8* @_ZN5blink26RuntimeEnabledFeaturesBase37is_fledge_interest_group_api_enabled_E }, %struct.anon.1 { i8* getelementptr inbounds ([27 x i8], [27 x i8]* @.str.181, i32 0, i32 0), i8* @_ZN5blink26RuntimeEnabledFeaturesBase40is_focusless_spatial_navigation_enabled_E }, %struct.anon.1 { i8* getelementptr inbounds ([11 x i8], [11 x i8]* @.str.182, i32 0, i32 0), i8* @_ZN5blink26RuntimeEnabledFeaturesBase23is_font_access_enabled_E }, %struct.anon.1 { i8* getelementptr inbounds ([21 x i8], [21 x i8]* @.str.183, i32 0, i32 0), i8* @_ZN5blink26RuntimeEnabledFeaturesBase34is_font_access_persistent_enabled_E }, %struct.anon.1 { i8* getelementptr inbounds ([21 x i8], [21 x i8]* @.str.184, i32 0, i32 0), i8* @_ZN5blink26RuntimeEnabledFeaturesBase35is_font_src_local_matching_enabled_E }, %struct.anon.1 { i8* getelementptr inbounds ([13 x i8], [13 x i8]* @.str.185, i32 0, i32 0), i8* @_ZN5blink26RuntimeEnabledFeaturesBase25is_forced_colors_enabled_E }, %struct.anon.1 { i8* getelementptr inbounds ([24 x i8], [24 x i8]* @.str.186, i32 0, i32 0), i8* @_ZN5blink26RuntimeEnabledFeaturesBase38is_force_eager_measure_memory_enabled_E }, %struct.anon.1 { i8* getelementptr inbounds ([28 x i8], [28 x i8]* @.str.187, i32 0, i32 0), i8* @_ZN5blink26RuntimeEnabledFeaturesBase42is_force_overlay_fullscreen_video_enabled_E }, %struct.anon.1 { i8* getelementptr inbounds ([28 x i8], [28 x i8]* @.str.188, i32 0, i32 0), i8* @_ZN5blink26RuntimeEnabledFeaturesBase42is_force_synchronous_html_parsing_enabled_E }, %struct.anon.1 { i8* getelementptr inbounds ([23 x i8], [23 x i8]* @.str.189, i32 0, i32 0), i8* @_ZN5blink26RuntimeEnabledFeaturesBase37is_force_taller_select_popup_enabled_E }, %struct.anon.1 { i8* getelementptr inbounds ([24 x i8], [24 x i8]* @.str.190, i32 0, i32 0), i8* @_ZN5blink26RuntimeEnabledFeaturesBase37is_fractional_scroll_offsets_enabled_E }, %struct.anon.1 { i8* getelementptr inbounds ([25 x i8], [25 x i8]* @.str.191, i32 0, i32 0), i8* @_ZN5blink26RuntimeEnabledFeaturesBase39is_freeze_frames_on_visibility_enabled_E }, %struct.anon.1 { i8* getelementptr inbounds ([24 x i8], [24 x i8]* @.str.192, i32 0, i32 0), i8* @_ZN5blink26RuntimeEnabledFeaturesBase38is_gamepad_button_axis_events_enabled_E }, %struct.anon.1 { i8* getelementptr inbounds ([31 x i8], [31 x i8]* @.str.193, i32 0, i32 0), i8* @_ZN5blink26RuntimeEnabledFeaturesBase46is_get_current_browsing_context_media_enabled_E }, %struct.anon.1 { i8* getelementptr inbounds ([16 x i8], [16 x i8]* @.str.194, i32 0, i32 0), i8* @_ZN5blink26RuntimeEnabledFeaturesBase29is_get_display_media_enabled_E }, %struct.anon.1 { i8* getelementptr inbounds ([14 x i8], [14 x i8]* @.str.195, i32 0, i32 0), i8* @_ZN5blink26RuntimeEnabledFeaturesBase26is_gravity_sensor_enabled_E }, %struct.anon.1 { i8* getelementptr inbounds ([12 x i8], [12 x i8]* @.str.196, i32 0, i32 0), i8* @_ZN5blink26RuntimeEnabledFeaturesBase24is_group_effect_enabled_E }, %struct.anon.1 { i8* getelementptr inbounds ([23 x i8], [23 x i8]* @.str.197, i32 0, i32 0), i8* @_ZN5blink26RuntimeEnabledFeaturesBase35is_handwriting_recognition_enabled_E }, %struct.anon.1 { i8* getelementptr inbounds ([13 x i8], [13 x i8]* @.str.198, i32 0, i32 0), i8* @_ZN5blink26RuntimeEnabledFeaturesBase25is_highlight_api_enabled_E }, %struct.anon.1 { i8* getelementptr inbounds ([14 x i8], [14 x i8]* @.str.199, i32 0, i32 0), i8* @_ZN5blink26RuntimeEnabledFeaturesBase26is_href_translate_enabled_E }, %struct.anon.1 { i8* getelementptr inbounds ([17 x i8], [17 x i8]* @.str.200, i32 0, i32 0), i8* @_ZN5blink26RuntimeEnabledFeaturesBase30is_html_popup_element_enabled_E }, %struct.anon.1 { i8* getelementptr inbounds ([22 x i8], [22 x i8]* @.str.201, i32 0, i32 0), i8* @_ZN5blink26RuntimeEnabledFeaturesBase36is_html_select_menu_element_enabled_E }, %struct.anon.1 { i8* getelementptr inbounds ([10 x i8], [10 x i8]* @.str.202, i32 0, i32 0), i8* @_ZN5blink26RuntimeEnabledFeaturesBase23is_idb_put_all_enabled_E }, %struct.anon.1 { i8* getelementptr inbounds ([21 x i8], [21 x i8]* @.str.203, i32 0, i32 0), i8* @_ZN5blink26RuntimeEnabledFeaturesBase34is_idb_relaxed_durability_enabled_E }, %struct.anon.1 { i8* getelementptr inbounds ([14 x i8], [14 x i8]* @.str.204, i32 0, i32 0), i8* @_ZN5blink26RuntimeEnabledFeaturesBase26is_idle_detection_enabled_E }, %struct.anon.1 { i8* getelementptr inbounds ([47 x i8], [47 x i8]* @.str.205, i32 0, i32 0), i8* @_ZN5blink26RuntimeEnabledFeaturesBase66is_ignore_cross_origin_window_when_named_access_on_window_enabled_E }, %struct.anon.1 { i8* getelementptr inbounds ([21 x i8], [21 x i8]* @.str.206, i32 0, i32 0), i8* @_ZN5blink26RuntimeEnabledFeaturesBase34is_implicit_root_scroller_enabled_E }, %struct.anon.1 { i8* getelementptr inbounds ([15 x i8], [15 x i8]* @.str.207, i32 0, i32 0), i8* @_ZN5blink26RuntimeEnabledFeaturesBase27is_inert_attribute_enabled_E }, %struct.anon.1 { i8* getelementptr inbounds ([22 x i8], [22 x i8]* @.str.208, i32 0, i32 0), i8* @_ZN5blink26RuntimeEnabledFeaturesBase36is_input_multiple_fields_ui_enabled_E }, %struct.anon.1 { i8* getelementptr inbounds ([13 x i8], [13 x i8]* @.str.209, i32 0, i32 0), i8* @_ZN5blink26RuntimeEnabledFeaturesBase25is_installed_app_enabled_E }, %struct.anon.1 { i8* getelementptr inbounds ([18 x i8], [18 x i8]* @.str.210, i32 0, i32 0), i8* @_ZN5blink26RuntimeEnabledFeaturesBase31is_interest_cohort_api_enabled_E }, %struct.anon.1 { i8* getelementptr inbounds ([28 x i8], [28 x i8]* @.str.211, i32 0, i32 0), i8* @_ZN5blink26RuntimeEnabledFeaturesBase42is_interest_cohort_feature_policy_enabled_E }, %struct.anon.1 { i8* getelementptr inbounds ([49 x i8], [49 x i8]* @.str.212, i32 0, i32 0), i8* @_ZN5blink26RuntimeEnabledFeaturesBase65is_intersection_observer_document_scrolling_element_root_enabled_E }, %struct.anon.1 { i8* getelementptr inbounds ([18 x i8], [18 x i8]* @.str.213, i32 0, i32 0), i8* @_ZN5blink26RuntimeEnabledFeaturesBase31is_isolated_code_cache_enabled_E }, %struct.anon.1 { i8* getelementptr inbounds ([26 x i8], [26 x i8]* @.str.214, i32 0, i32 0), i8* @_ZN5blink26RuntimeEnabledFeaturesBase39is_keyboard_accessible_tooltip_enabled_E }, %struct.anon.1 { i8* getelementptr inbounds ([27 x i8], [27 x i8]* @.str.215, i32 0, i32 0), i8* @_ZN5blink26RuntimeEnabledFeaturesBase40is_keyboard_focusable_scrollers_enabled_E }, %struct.anon.1 { i8* getelementptr inbounds ([32 x i8], [32 x i8]* @.str.216, i32 0, i32 0), i8* @_ZN5blink26RuntimeEnabledFeaturesBase48is_lang_attribute_aware_form_control_ui_enabled_E }, %struct.anon.1 { i8* getelementptr inbounds ([21 x i8], [21 x i8]* @.str.217, i32 0, i32 0), i8* @_ZN5blink26RuntimeEnabledFeaturesBase35is_lang_client_hint_header_enabled_E }, %struct.anon.1 { i8* getelementptr inbounds ([9 x i8], [9 x i8]* @.str.218, i32 0, i32 0), i8* @_ZN5blink26RuntimeEnabledFeaturesBase21is_layout_ng_enabled_E }, %struct.anon.1 { i8* getelementptr inbounds ([27 x i8], [27 x i8]* @.str.219, i32 0, i32 0), i8* @_ZN5blink26RuntimeEnabledFeaturesBase41is_layout_ng_block_fragmentation_enabled_E }, %struct.anon.1 { i8* getelementptr inbounds ([26 x i8], [26 x i8]* @.str.220, i32 0, i32 0), i8* @_ZN5blink26RuntimeEnabledFeaturesBase40is_layout_ng_fragment_traversal_enabled_E }, %struct.anon.1 { i8* getelementptr inbounds ([29 x i8], [29 x i8]* @.str.221, i32 0, i32 0), i8* @_ZN5blink26RuntimeEnabledFeaturesBase45is_layout_ng_full_position_for_point_enabled_E }, %struct.anon.1 { i8* getelementptr inbounds ([13 x i8], [13 x i8]* @.str.222, i32 0, i32 0), i8* @_ZN5blink26RuntimeEnabledFeaturesBase26is_layout_ng_grid_enabled_E }, %struct.anon.1 { i8* getelementptr inbounds ([29 x i8], [29 x i8]* @.str.223, i32 0, i32 0), i8* @_ZN5blink26RuntimeEnabledFeaturesBase44is_layout_ng_layout_overflow_recalc_enabled_E }, %struct.anon.1 { i8* getelementptr inbounds ([17 x i8], [17 x i8]* @.str.224, i32 0, i32 0), i8* @_ZN5blink26RuntimeEnabledFeaturesBase30is_layout_ng_printing_enabled_E }, %struct.anon.1 { i8* getelementptr inbounds ([17 x i8], [17 x i8]* @.str.225, i32 0, i32 0), i8* @_ZN5blink26RuntimeEnabledFeaturesBase30is_layout_ng_replaced_enabled_E }, %struct.anon.1 { i8* getelementptr inbounds ([14 x i8], [14 x i8]* @.str.226, i32 0, i32 0), i8* @_ZN5blink26RuntimeEnabledFeaturesBase27is_layout_ng_table_enabled_E }, %struct.anon.1 { i8* getelementptr inbounds ([20 x i8], [20 x i8]* @.str.227, i32 0, i32 0), i8* @_ZN5blink26RuntimeEnabledFeaturesBase34is_layout_ng_text_combine_enabled_E }, %struct.anon.1 { i8* getelementptr inbounds ([20 x i8], [20 x i8]* @.str.228, i32 0, i32 0), i8* @_ZN5blink26RuntimeEnabledFeaturesBase34is_layout_ng_text_control_enabled_E }, %struct.anon.1 { i8* getelementptr inbounds ([17 x i8], [17 x i8]* @.str.229, i32 0, i32 0), i8* @_ZN5blink26RuntimeEnabledFeaturesBase30is_lazy_frame_loading_enabled_E }, %struct.anon.1 { i8* getelementptr inbounds ([32 x i8], [32 x i8]* @.str.230, i32 0, i32 0), i8* @_ZN5blink26RuntimeEnabledFeaturesBase48is_lazy_frame_visible_load_time_metrics_enabled_E }, %struct.anon.1 { i8* getelementptr inbounds ([17 x i8], [17 x i8]* @.str.231, i32 0, i32 0), i8* @_ZN5blink26RuntimeEnabledFeaturesBase30is_lazy_image_loading_enabled_E }, %struct.anon.1 { i8* getelementptr inbounds ([32 x i8], [32 x i8]* @.str.232, i32 0, i32 0), i8* @_ZN5blink26RuntimeEnabledFeaturesBase48is_lazy_image_visible_load_time_metrics_enabled_E }, %struct.anon.1 { i8* getelementptr inbounds ([28 x i8], [28 x i8]* @.str.233, i32 0, i32 0), i8* @_ZN5blink26RuntimeEnabledFeaturesBase42is_lazy_initialize_media_controls_enabled_E }, %struct.anon.1 { i8* getelementptr inbounds ([32 x i8], [32 x i8]* @.str.234, i32 0, i32 0), i8* @_ZN5blink26RuntimeEnabledFeaturesBase48is_legacy_windows_d_write_font_fallback_enabled_E }, %struct.anon.1 { i8* getelementptr inbounds ([21 x i8], [21 x i8]* @.str.235, i32 0, i32 0), i8* @_ZN5blink26RuntimeEnabledFeaturesBase33is_managed_configuration_enabled_E }, %struct.anon.1 { i8* getelementptr inbounds ([17 x i8], [17 x i8]* @.str.236, i32 0, i32 0), i8* @_ZN5blink26RuntimeEnabledFeaturesBase29is_managed_interface_enabled_E }, %struct.anon.1 { i8* getelementptr inbounds ([11 x i8], [11 x i8]* @.str.237, i32 0, i32 0), i8* @_ZN5blink26RuntimeEnabledFeaturesBase23is_mathml_core_enabled_E }, %struct.anon.1 { i8* getelementptr inbounds ([14 x i8], [14 x i8]* @.str.238, i32 0, i32 0), i8* @_ZN5blink26RuntimeEnabledFeaturesBase26is_measure_memory_enabled_E }, %struct.anon.1 { i8* getelementptr inbounds ([30 x i8], [30 x i8]* @.str.239, i32 0, i32 0), i8* @_ZN5blink26RuntimeEnabledFeaturesBase44is_media_capabilities_dynamic_range_enabled_E }, %struct.anon.1 { i8* getelementptr inbounds ([30 x i8], [30 x i8]* @.str.240, i32 0, i32 0), i8* @_ZN5blink26RuntimeEnabledFeaturesBase44is_media_capabilities_encoding_info_enabled_E }, %struct.anon.1 { i8* getelementptr inbounds ([32 x i8], [32 x i8]* @.str.241, i32 0, i32 0), i8* @_ZN5blink26RuntimeEnabledFeaturesBase46is_media_capabilities_encrypted_media_enabled_E }, %struct.anon.1 { i8* getelementptr inbounds ([30 x i8], [30 x i8]* @.str.242, i32 0, i32 0), i8* @_ZN5blink26RuntimeEnabledFeaturesBase44is_media_capabilities_spatial_audio_enabled_E }, %struct.anon.1 { i8* getelementptr inbounds ([24 x i8], [24 x i8]* @.str.243, i32 0, i32 0), i8* @_ZN5blink26RuntimeEnabledFeaturesBase38is_media_capabilities_web_rtc_enabled_E }, %struct.anon.1 { i8* getelementptr inbounds ([13 x i8], [13 x i8]* @.str.244, i32 0, i32 0), i8* @_ZN5blink26RuntimeEnabledFeaturesBase25is_media_capture_enabled_E }, %struct.anon.1 { i8* getelementptr inbounds ([27 x i8], [27 x i8]* @.str.245, i32 0, i32 0), i8* @_ZN5blink26RuntimeEnabledFeaturesBase42is_media_capture_depth_video_kind_enabled_E }, %struct.anon.1 { i8* getelementptr inbounds ([23 x i8], [23 x i8]* @.str.246, i32 0, i32 0), i8* @_ZN5blink26RuntimeEnabledFeaturesBase37is_media_cast_overlay_button_enabled_E }, %struct.anon.1 { i8* getelementptr inbounds ([27 x i8], [27 x i8]* @.str.247, i32 0, i32 0), i8* @_ZN5blink26RuntimeEnabledFeaturesBase41is_media_controls_expand_gesture_enabled_E }, %struct.anon.1 { i8* getelementptr inbounds ([31 x i8], [31 x i8]* @.str.248, i32 0, i32 0), i8* @_ZN5blink26RuntimeEnabledFeaturesBase46is_media_controls_overlay_play_button_enabled_E }, %struct.anon.1 { i8* getelementptr inbounds ([32 x i8], [32 x i8]* @.str.249, i32 0, i32 0), i8* @_ZN5blink26RuntimeEnabledFeaturesBase49is_media_controls_use_cut_out_by_default_enabled_E }, %struct.anon.1 { i8* getelementptr inbounds ([28 x i8], [28 x i8]* @.str.250, i32 0, i32 0), i8* @_ZN5blink26RuntimeEnabledFeaturesBase42is_media_document_download_button_enabled_E }, %struct.anon.1 { i8* getelementptr inbounds ([33 x i8], [33 x i8]* @.str.251, i32 0, i32 0), i8* @_ZN5blink26RuntimeEnabledFeaturesBase49is_media_element_volume_greater_than_one_enabled_E }, %struct.anon.1 { i8* getelementptr inbounds ([38 x i8], [38 x i8]* @.str.252, i32 0, i32 0), i8* @_ZN5blink26RuntimeEnabledFeaturesBase53is_media_engagement_bypass_autoplay_policies_enabled_E }, %struct.anon.1 { i8* getelementptr inbounds ([17 x i8], [17 x i8]* @.str.253, i32 0, i32 0), i8* @_ZN5blink26RuntimeEnabledFeaturesBase30is_media_latency_hint_enabled_E }, %struct.anon.1 { i8* getelementptr inbounds ([20 x i8], [20 x i8]* @.str.254, i32 0, i32 0), i8* @_ZN5blink26RuntimeEnabledFeaturesBase33is_media_preserves_pitch_enabled_E }, %struct.anon.1 { i8* getelementptr inbounds ([29 x i8], [29 x i8]* @.str.255, i32 0, i32 0), i8* @_ZN5blink26RuntimeEnabledFeaturesBase43is_media_query_navigation_controls_enabled_E }, %struct.anon.1 { i8* getelementptr inbounds ([13 x i8], [13 x i8]* @.str.256, i32 0, i32 0), i8* @_ZN5blink26RuntimeEnabledFeaturesBase25is_media_session_enabled_E }, %struct.anon.1 { i8* getelementptr inbounds ([21 x i8], [21 x i8]* @.str.257, i32 0, i32 0), i8* @_ZN5blink26RuntimeEnabledFeaturesBase34is_media_session_position_enabled_E }, %struct.anon.1 { i8* getelementptr inbounds ([19 x i8], [19 x i8]* @.str.258, i32 0, i32 0), i8* @_ZN5blink26RuntimeEnabledFeaturesBase33is_media_session_web_rtc_enabled_E }, %struct.anon.1 { i8* getelementptr inbounds ([24 x i8], [24 x i8]* @.str.259, i32 0, i32 0), i8* @_ZN5blink26RuntimeEnabledFeaturesBase37is_media_source_experimental_enabled_E }, %struct.anon.1 { i8* getelementptr inbounds ([34 x i8], [34 x i8]* @.str.260, i32 0, i32 0), i8* @_ZN5blink26RuntimeEnabledFeaturesBase49is_media_source_extensions_for_webcodecs_enabled_E }, %struct.anon.1 { i8* getelementptr inbounds ([21 x i8], [21 x i8]* @.str.261, i32 0, i32 0), i8* @_ZN5blink26RuntimeEnabledFeaturesBase35is_media_source_in_workers_enabled_E }, %struct.anon.1 { i8* getelementptr inbounds ([31 x i8], [31 x i8]* @.str.262, i32 0, i32 0), i8* @_ZN5blink26RuntimeEnabledFeaturesBase47is_media_source_new_abort_and_duration_enabled_E }, %struct.anon.1 { i8* getelementptr inbounds ([18 x i8], [18 x i8]* @.str.263, i32 0, i32 0), i8* @_ZN5blink26RuntimeEnabledFeaturesBase31is_media_source_stable_enabled_E }, %struct.anon.1 { i8* getelementptr inbounds ([29 x i8], [29 x i8]* @.str.264, i32 0, i32 0), i8* @_ZN5blink26RuntimeEnabledFeaturesBase43is_media_stream_insertable_streams_enabled_E }, %struct.anon.1 { i8* getelementptr inbounds ([22 x i8], [22 x i8]* @.str.265, i32 0, i32 0), i8* @_ZN5blink26RuntimeEnabledFeaturesBase35is_middle_click_autoscroll_enabled_E }, %struct.anon.1 { i8* getelementptr inbounds ([18 x i8], [18 x i8]* @.str.266, i32 0, i32 0), i8* @_ZN5blink26RuntimeEnabledFeaturesBase31is_mobile_layout_theme_enabled_E }, %struct.anon.1 { i8* getelementptr inbounds ([18 x i8], [18 x i8]* @.str.267, i32 0, i32 0), i8* @_ZN5blink26RuntimeEnabledFeaturesBase31is_modal_close_watcher_enabled_E }, %struct.anon.1 { i8* getelementptr inbounds ([20 x i8], [20 x i8]* @.str.268, i32 0, i32 0), i8* @_ZN5blink26RuntimeEnabledFeaturesBase33is_module_service_worker_enabled_E }, %struct.anon.1 { i8* getelementptr inbounds ([7 x i8], [7 x i8]* @.str.269, i32 0, i32 0), i8* @_ZN5blink26RuntimeEnabledFeaturesBase19is_mojo_js_enabled_E }, %struct.anon.1 { i8* getelementptr inbounds ([11 x i8], [11 x i8]* @.str.270, i32 0, i32 0), i8* @_ZN5blink26RuntimeEnabledFeaturesBase24is_mojo_js_test_enabled_E }, %struct.anon.1 { i8* getelementptr inbounds ([31 x i8], [31 x i8]* @.str.271, i32 0, i32 0), i8* @_ZN5blink26RuntimeEnabledFeaturesBase46is_mouse_subframe_no_implicit_capture_enabled_E }, %struct.anon.1 { i8* getelementptr inbounds ([11 x i8], [11 x i8]* @.str.272, i32 0, i32 0), i8* @_ZN5blink26RuntimeEnabledFeaturesBase23is_named_pages_enabled_E }, %struct.anon.1 { i8* getelementptr inbounds ([22 x i8], [22 x i8]* @.str.273, i32 0, i32 0), i8* @_ZN5blink26RuntimeEnabledFeaturesBase35is_navigator_content_utils_enabled_E }, %struct.anon.1 { i8* getelementptr inbounds ([35 x i8], [35 x i8]* @.str.274, i32 0, i32 0), i8* @_ZN5blink26RuntimeEnabledFeaturesBase50is_navigator_language_in_insecure_context_enabled_E }, %struct.anon.1 { i8* getelementptr inbounds ([19 x i8], [19 x i8]* @.str.275, i32 0, i32 0), i8* @_ZN5blink26RuntimeEnabledFeaturesBase33is_net_info_downlink_max_enabled_E }, %struct.anon.1 { i8* getelementptr inbounds ([14 x i8], [14 x i8]* @.str.276, i32 0, i32 0), i8* @_ZN5blink26RuntimeEnabledFeaturesBase27is_never_slow_mode_enabled_E }, %struct.anon.1 { i8* getelementptr inbounds ([15 x i8], [15 x i8]* @.str.277, i32 0, i32 0), i8* @_ZN5blink26RuntimeEnabledFeaturesBase29is_new_canvas_2d_api_enabled_E }, %struct.anon.1 { i8* getelementptr inbounds ([26 x i8], [26 x i8]* @.str.278, i32 0, i32 0), i8* @_ZN5blink26RuntimeEnabledFeaturesBase40is_new_remote_playback_pipeline_enabled_E }, %struct.anon.1 { i8* getelementptr inbounds ([26 x i8], [26 x i8]* @.str.279, i32 0, i32 0), i8* @_ZN5blink26RuntimeEnabledFeaturesBase42is_no_idle_encoding_for_web_tests_enabled_E }, %struct.anon.1 { i8* getelementptr inbounds ([24 x i8], [24 x i8]* @.str.280, i32 0, i32 0), i8* @_ZN5blink26RuntimeEnabledFeaturesBase36is_notification_constructor_enabled_E }, %struct.anon.1 { i8* getelementptr inbounds ([25 x i8], [25 x i8]* @.str.281, i32 0, i32 0), i8* @_ZN5blink26RuntimeEnabledFeaturesBase38is_notification_content_image_enabled_E }, %struct.anon.1 { i8* getelementptr inbounds ([14 x i8], [14 x i8]* @.str.282, i32 0, i32 0), i8* @_ZN5blink26RuntimeEnabledFeaturesBase25is_notifications_enabled_E }, %struct.anon.1 { i8* getelementptr inbounds ([21 x i8], [21 x i8]* @.str.283, i32 0, i32 0), i8* @_ZN5blink26RuntimeEnabledFeaturesBase33is_notification_triggers_enabled_E }, %struct.anon.1 { i8* getelementptr inbounds ([22 x i8], [22 x i8]* @.str.284, i32 0, i32 0), i8* @_ZN5blink26RuntimeEnabledFeaturesBase37is_off_main_thread_css_paint_enabled_E }, %struct.anon.1 { i8* getelementptr inbounds ([22 x i8], [22 x i8]* @.str.285, i32 0, i32 0), i8* @_ZN5blink26RuntimeEnabledFeaturesBase35is_offscreen_canvas_commit_enabled_E }, %struct.anon.1 { i8* getelementptr inbounds ([28 x i8], [28 x i8]* @.str.286, i32 0, i32 0), i8* @_ZN5blink26RuntimeEnabledFeaturesBase43is_offset_parent_new_spec_behavior_enabled_E }, %struct.anon.1 { i8* getelementptr inbounds ([15 x i8], [15 x i8]* @.str.287, i32 0, i32 0), i8* @_ZN5blink26RuntimeEnabledFeaturesBase28is_on_device_change_enabled_E }, %struct.anon.1 { i8* getelementptr inbounds ([17 x i8], [17 x i8]* @.str.288, i32 0, i32 0), i8* @_ZN5blink26RuntimeEnabledFeaturesBase29is_orientation_event_enabled_E }, %struct.anon.1 { i8* getelementptr inbounds ([22 x i8], [22 x i8]* @.str.289, i32 0, i32 0), i8* @_ZN5blink26RuntimeEnabledFeaturesBase35is_origin_isolation_header_enabled_E }, %struct.anon.1 { i8* getelementptr inbounds ([13 x i8], [13 x i8]* @.str.290, i32 0, i32 0), i8* @_ZN5blink26RuntimeEnabledFeaturesBase25is_origin_policy_enabled_E }, %struct.anon.1 { i8* getelementptr inbounds ([22 x i8], [22 x i8]* @.str.291, i32 0, i32 0), i8* @_ZN5blink26RuntimeEnabledFeaturesBase36is_origin_trials_sample_api_enabled_E }, %struct.anon.1 { i8* getelementptr inbounds ([31 x i8], [31 x i8]* @.str.292, i32 0, i32 0), i8* @_ZN5blink26RuntimeEnabledFeaturesBase46is_origin_trials_sample_api_dependent_enabled_E }, %struct.anon.1 { i8* getelementptr inbounds ([33 x i8], [33 x i8]* @.str.293, i32 0, i32 0), i8* @_ZN5blink26RuntimeEnabledFeaturesBase48is_origin_trials_sample_api_deprecation_enabled_E }, %struct.anon.1 { i8* getelementptr inbounds ([29 x i8], [29 x i8]* @.str.294, i32 0, i32 0), i8* @_ZN5blink26RuntimeEnabledFeaturesBase44is_origin_trials_sample_api_implied_enabled_E }, %struct.anon.1 { i8* getelementptr inbounds ([31 x i8], [31 x i8]* @.str.295, i32 0, i32 0), i8* @_ZN5blink26RuntimeEnabledFeaturesBase47is_origin_trials_sample_api_invalid_os_enabled_E }, %struct.anon.1 { i8* getelementptr inbounds ([32 x i8], [32 x i8]* @.str.296, i32 0, i32 0), i8* @_ZN5blink26RuntimeEnabledFeaturesBase47is_origin_trials_sample_api_navigation_enabled_E }, %struct.anon.1 { i8* getelementptr inbounds ([32 x i8], [32 x i8]* @.str.297, i32 0, i32 0), i8* @_ZN5blink26RuntimeEnabledFeaturesBase48is_origin_trials_sample_api_third_party_enabled_E }, %struct.anon.1 { i8* getelementptr inbounds ([13 x i8], [13 x i8]* @.str.298, i32 0, i32 0), i8* @_ZN5blink26RuntimeEnabledFeaturesBase25is_overflow_clip_enabled_E }, %struct.anon.1 { i8* getelementptr inbounds ([24 x i8], [24 x i8]* @.str.299, i32 0, i32 0), i8* @_ZN5blink26RuntimeEnabledFeaturesBase36is_overscroll_customization_enabled_E }, %struct.anon.1 { i8* getelementptr inbounds ([16 x i8], [16 x i8]* @.str.300, i32 0, i32 0), i8* @_ZN5blink26RuntimeEnabledFeaturesBase30is_page_freeze_opt_in_enabled_E }, %struct.anon.1 { i8* getelementptr inbounds ([17 x i8], [17 x i8]* @.str.301, i32 0, i32 0), i8* @_ZN5blink26RuntimeEnabledFeaturesBase31is_page_freeze_opt_out_enabled_E }, %struct.anon.1 { i8* getelementptr inbounds ([10 x i8], [10 x i8]* @.str.302, i32 0, i32 0), i8* @_ZN5blink26RuntimeEnabledFeaturesBase22is_page_popup_enabled_E }, %struct.anon.1 { i8* getelementptr inbounds ([31 x i8], [31 x i8]* @.str.303, i32 0, i32 0), i8* @_ZN5blink26RuntimeEnabledFeaturesBase45is_paint_under_invalidation_checking_enabled_E }, %struct.anon.1 { i8* getelementptr inbounds ([24 x i8], [24 x i8]* @.str.304, i32 0, i32 0), i8* @_ZN5blink26RuntimeEnabledFeaturesBase38is_parse_url_protocol_handler_enabled_E }, %struct.anon.1 { i8* getelementptr inbounds ([32 x i8], [32 x i8]* @.str.305, i32 0, i32 0), i8* @_ZN5blink26RuntimeEnabledFeaturesBase48is_pass_paint_visual_rect_to_compositor_enabled_E }, %struct.anon.1 { i8* getelementptr inbounds ([15 x i8], [15 x i8]* @.str.306, i32 0, i32 0), i8* @_ZN5blink26RuntimeEnabledFeaturesBase27is_password_reveal_enabled_E }, %struct.anon.1 { i8* getelementptr inbounds ([11 x i8], [11 x i8]* @.str.307, i32 0, i32 0), i8* @_ZN5blink26RuntimeEnabledFeaturesBase23is_payment_app_enabled_E }, %struct.anon.1 { i8* getelementptr inbounds ([34 x i8], [34 x i8]* @.str.308, i32 0, i32 0), i8* @_ZN5blink26RuntimeEnabledFeaturesBase49is_payment_handler_change_payment_method_enabled_E }, %struct.anon.1 { i8* getelementptr inbounds ([40 x i8], [40 x i8]* @.str.309, i32 0, i32 0), i8* @_ZN5blink26RuntimeEnabledFeaturesBase56is_payment_handler_handles_shipping_and_contact_enabled_E }, %struct.anon.1 { i8* getelementptr inbounds ([24 x i8], [24 x i8]* @.str.310, i32 0, i32 0), i8* @_ZN5blink26RuntimeEnabledFeaturesBase38is_payment_handler_minimal_ui_enabled_E }, %struct.anon.1 { i8* getelementptr inbounds ([25 x i8], [25 x i8]* @.str.311, i32 0, i32 0), i8* @_ZN5blink26RuntimeEnabledFeaturesBase39is_payment_method_change_event_enabled_E }, %struct.anon.1 { i8* getelementptr inbounds ([15 x i8], [15 x i8]* @.str.312, i32 0, i32 0), i8* @_ZN5blink26RuntimeEnabledFeaturesBase27is_payment_request_enabled_E }, %struct.anon.1 { i8* getelementptr inbounds ([38 x i8], [38 x i8]* @.str.313, i32 0, i32 0), i8* @_ZN5blink26RuntimeEnabledFeaturesBase53is_payment_request_merchant_validation_event_enabled_E }, %struct.anon.1 { i8* getelementptr inbounds ([13 x i8], [13 x i8]* @.str.314, i32 0, i32 0), i8* @_ZN5blink26RuntimeEnabledFeaturesBase25is_payment_retry_enabled_E }, %struct.anon.1 { i8* getelementptr inbounds ([22 x i8], [22 x i8]* @.str.315, i32 0, i32 0), i8* @_ZN5blink26RuntimeEnabledFeaturesBase35is_percent_based_scrolling_enabled_E }, %struct.anon.1 { i8* getelementptr inbounds ([34 x i8], [34 x i8]* @.str.316, i32 0, i32 0), i8* @_ZN5blink26RuntimeEnabledFeaturesBase47is_performance_manager_instrumentation_enabled_E }, %struct.anon.1 { i8* getelementptr inbounds ([23 x i8], [23 x i8]* @.str.317, i32 0, i32 0), i8* @_ZN5blink26RuntimeEnabledFeaturesBase36is_periodic_background_sync_enabled_E }, %struct.anon.1 { i8* getelementptr inbounds ([29 x i8], [29 x i8]* @.str.318, i32 0, i32 0), i8* @_ZN5blink26RuntimeEnabledFeaturesBase45is_per_method_can_make_payment_quota_enabled_E }, %struct.anon.1 { i8* getelementptr inbounds ([21 x i8], [21 x i8]* @.str.319, i32 0, i32 0), i8* @_ZN5blink26RuntimeEnabledFeaturesBase33is_permission_delegation_enabled_E }, %struct.anon.1 { i8* getelementptr inbounds ([12 x i8], [12 x i8]* @.str.320, i32 0, i32 0), i8* @_ZN5blink26RuntimeEnabledFeaturesBase23is_permissions_enabled_E }, %struct.anon.1 { i8* getelementptr inbounds ([24 x i8], [24 x i8]* @.str.321, i32 0, i32 0), i8* @_ZN5blink26RuntimeEnabledFeaturesBase37is_permissions_policy_header_enabled_E }, %struct.anon.1 { i8* getelementptr inbounds ([25 x i8], [25 x i8]* @.str.322, i32 0, i32 0), i8* @_ZN5blink26RuntimeEnabledFeaturesBase38is_permissions_request_revoke_enabled_E }, %struct.anon.1 { i8* getelementptr inbounds ([17 x i8], [17 x i8]* @.str.323, i32 0, i32 0), i8* @_ZN5blink26RuntimeEnabledFeaturesBase30is_picture_in_picture_enabled_E }, %struct.anon.1 { i8* getelementptr inbounds ([20 x i8], [20 x i8]* @.str.324, i32 0, i32 0), i8* @_ZN5blink26RuntimeEnabledFeaturesBase34is_picture_in_picture_api_enabled_E }, %struct.anon.1 { i8* getelementptr inbounds ([19 x i8], [19 x i8]* @.str.325, i32 0, i32 0), i8* @_ZN5blink26RuntimeEnabledFeaturesBase34is_picture_in_picture_v_2_enabled_E }, %struct.anon.1 { i8* getelementptr inbounds ([6 x i8], [6 x i8]* @.str.326, i32 0, i32 0), i8* @_ZN5blink26RuntimeEnabledFeaturesBase19is_p_na_cl_enabled_E }, %struct.anon.1 { i8* getelementptr inbounds ([19 x i8], [19 x i8]* @.str.327, i32 0, i32 0), i8* @_ZN5blink26RuntimeEnabledFeaturesBase32is_pointer_lock_options_enabled_E }, %struct.anon.1 { i8* getelementptr inbounds ([17 x i8], [17 x i8]* @.str.328, i32 0, i32 0), i8* @_ZN5blink26RuntimeEnabledFeaturesBase30is_pointer_raw_update_enabled_E }, %struct.anon.1 { i8* getelementptr inbounds ([8 x i8], [8 x i8]* @.str.329, i32 0, i32 0), i8* @_ZN5blink26RuntimeEnabledFeaturesBase19is_portals_enabled_E }, %struct.anon.1 { i8* getelementptr inbounds ([18 x i8], [18 x i8]* @.str.330, i32 0, i32 0), i8* @_ZN5blink26RuntimeEnabledFeaturesBase31is_precise_memory_info_enabled_E }, %struct.anon.1 { i8* getelementptr inbounds ([29 x i8], [29 x i8]* @.str.331, i32 0, i32 0), i8* @_ZN5blink26RuntimeEnabledFeaturesBase43is_prefer_non_composited_scrolling_enabled_E }, %struct.anon.1 { i8* getelementptr inbounds ([35 x i8], [35 x i8]* @.str.332, i32 0, i32 0), i8* @_ZN5blink26RuntimeEnabledFeaturesBase51is_prefers_color_scheme_client_hint_header_enabled_E }, %struct.anon.1 { i8* getelementptr inbounds ([16 x i8], [16 x i8]* @.str.333, i32 0, i32 0), i8* @_ZN5blink26RuntimeEnabledFeaturesBase28is_prefers_contrast_enabled_E }, %struct.anon.1 { i8* getelementptr inbounds ([19 x i8], [19 x i8]* @.str.334, i32 0, i32 0), i8* @_ZN5blink26RuntimeEnabledFeaturesBase32is_prefers_reduced_data_enabled_E }, %struct.anon.1 { i8* getelementptr inbounds ([24 x i8], [24 x i8]* @.str.335, i32 0, i32 0), i8* @_ZN5blink26RuntimeEnabledFeaturesBase37is_prefixed_video_fullscreen_enabled_E }, %struct.anon.1 { i8* getelementptr inbounds ([11 x i8], [11 x i8]* @.str.336, i32 0, i32 0), i8* @_ZN5blink26RuntimeEnabledFeaturesBase23is_prerender_2_enabled_E }, %struct.anon.1 { i8* getelementptr inbounds ([13 x i8], [13 x i8]* @.str.337, i32 0, i32 0), i8* @_ZN5blink26RuntimeEnabledFeaturesBase24is_presentation_enabled_E }, %struct.anon.1 { i8* getelementptr inbounds ([14 x i8], [14 x i8]* @.str.338, i32 0, i32 0), i8* @_ZN5blink26RuntimeEnabledFeaturesBase26is_priority_hints_enabled_E }, %struct.anon.1 { i8* getelementptr inbounds ([14 x i8], [14 x i8]* @.str.339, i32 0, i32 0), i8* @_ZN5blink26RuntimeEnabledFeaturesBase26is_push_messaging_enabled_E }, %struct.anon.1 { i8* getelementptr inbounds ([32 x i8], [32 x i8]* @.str.340, i32 0, i32 0), i8* @_ZN5blink26RuntimeEnabledFeaturesBase46is_push_messaging_subscription_change_enabled_E }, %struct.anon.1 { i8* getelementptr inbounds ([12 x i8], [12 x i8]* @.str.341, i32 0, i32 0), i8* @_ZN5blink26RuntimeEnabledFeaturesBase24is_quota_change_enabled_E }, %struct.anon.1 { i8* getelementptr inbounds ([13 x i8], [13 x i8]* @.str.342, i32 0, i32 0), i8* @_ZN5blink26RuntimeEnabledFeaturesBase25is_raw_clipboard_enabled_E }, %struct.anon.1 { i8* getelementptr inbounds ([15 x i8], [15 x i8]* @.str.343, i32 0, i32 0), i8* @_ZN5blink26RuntimeEnabledFeaturesBase27is_remote_playback_enabled_E }, %struct.anon.1 { i8* getelementptr inbounds ([22 x i8], [22 x i8]* @.str.344, i32 0, i32 0), i8* @_ZN5blink26RuntimeEnabledFeaturesBase35is_remote_playback_backend_enabled_E }, %struct.anon.1 { i8* getelementptr inbounds ([30 x i8], [30 x i8]* @.str.345, i32 0, i32 0), i8* @_ZN5blink26RuntimeEnabledFeaturesBase45is_remove_mobile_viewport_double_tap_enabled_E }, %struct.anon.1 { i8* getelementptr inbounds ([26 x i8], [26 x i8]* @.str.346, i32 0, i32 0), i8* @_ZN5blink26RuntimeEnabledFeaturesBase40is_request_video_frame_callback_enabled_E }, %struct.anon.1 { i8* getelementptr inbounds ([45 x i8], [45 x i8]* @.str.347, i32 0, i32 0), i8* @_ZN5blink26RuntimeEnabledFeaturesBase63is_restrict_automatic_lazy_frame_loading_to_data_saver_enabled_E }, %struct.anon.1 { i8* getelementptr inbounds ([45 x i8], [45 x i8]* @.str.348, i32 0, i32 0), i8* @_ZN5blink26RuntimeEnabledFeaturesBase63is_restrict_automatic_lazy_image_loading_to_data_saver_enabled_E }, %struct.anon.1 { i8* getelementptr inbounds ([22 x i8], [22 x i8]* @.str.349, i32 0, i32 0), i8* @_ZN5blink26RuntimeEnabledFeaturesBase35is_restrict_gamepad_access_enabled_E }, %struct.anon.1 { i8* getelementptr inbounds ([31 x i8], [31 x i8]* @.str.350, i32 0, i32 0), i8* @_ZN5blink26RuntimeEnabledFeaturesBase47is_rtc_audio_jitter_buffer_max_packets_enabled_E }, %struct.anon.1 { i8* getelementptr inbounds ([32 x i8], [32 x i8]* @.str.351, i32 0, i32 0), i8* @_ZN5blink26RuntimeEnabledFeaturesBase48is_rtc_audio_jitter_buffer_rtx_handling_enabled_E }, %struct.anon.1 { i8* getelementptr inbounds ([33 x i8], [33 x i8]* @.str.352, i32 0, i32 0), i8* @_ZN5blink26RuntimeEnabledFeaturesBase50is_rtc_extend_deadline_for_plan_b_removal_enabled_E }, %struct.anon.1 { i8* getelementptr inbounds ([25 x i8], [25 x i8]* @.str.353, i32 0, i32 0), i8* @_ZN5blink26RuntimeEnabledFeaturesBase39is_rtc_ice_transport_extension_enabled_E }, %struct.anon.1 { i8* getelementptr inbounds ([21 x i8], [21 x i8]* @.str.354, i32 0, i32 0), i8* @_ZN5blink26RuntimeEnabledFeaturesBase34is_rtc_insertable_streams_enabled_E }, %struct.anon.1 { i8* getelementptr inbounds ([17 x i8], [17 x i8]* @.str.355, i32 0, i32 0), i8* @_ZN5blink26RuntimeEnabledFeaturesBase30is_rtc_quic_transport_enabled_E }, %struct.anon.1 { i8* getelementptr inbounds ([29 x i8], [29 x i8]* @.str.356, i32 0, i32 0), i8* @_ZN5blink26RuntimeEnabledFeaturesBase44is_rtc_rtp_header_extension_control_enabled_E }, %struct.anon.1 { i8* getelementptr inbounds ([22 x i8], [22 x i8]* @.str.357, i32 0, i32 0), i8* @_ZN5blink26RuntimeEnabledFeaturesBase36is_rtc_rtp_transceiver_stop_enabled_E }, %struct.anon.1 { i8* getelementptr inbounds ([35 x i8], [35 x i8]* @.str.358, i32 0, i32 0), i8* @_ZN5blink26RuntimeEnabledFeaturesBase51is_rtc_stats_relative_packet_arrival_delay_enabled_E }, %struct.anon.1 { i8* getelementptr inbounds ([22 x i8], [22 x i8]* @.str.359, i32 0, i32 0), i8* @_ZN5blink26RuntimeEnabledFeaturesBase36is_rtc_svc_scalability_mode_enabled_E }, %struct.anon.1 { i8* getelementptr inbounds ([15 x i8], [15 x i8]* @.str.360, i32 0, i32 0), i8* @_ZN5blink26RuntimeEnabledFeaturesBase28is_rtc_unified_plan_enabled_E }, %struct.anon.1 { i8* getelementptr inbounds ([24 x i8], [24 x i8]* @.str.361, i32 0, i32 0), i8* @_ZN5blink26RuntimeEnabledFeaturesBase39is_rtc_unified_plan_by_default_enabled_E }, %struct.anon.1 { i8* getelementptr inbounds ([25 x i8], [25 x i8]* @.str.362, i32 0, i32 0), i8* @_ZN5blink26RuntimeEnabledFeaturesBase40is_same_site_by_default_cookies_enabled_E }, %struct.anon.1 { i8* getelementptr inbounds ([13 x i8], [13 x i8]* @.str.363, i32 0, i32 0), i8* @_ZN5blink26RuntimeEnabledFeaturesBase25is_sanitizer_api_enabled_E }, %struct.anon.1 { i8* getelementptr inbounds ([26 x i8], [26 x i8]* @.str.364, i32 0, i32 0), i8* @_ZN5blink26RuntimeEnabledFeaturesBase39is_scripted_speech_recognition_enabled_E }, %struct.anon.1 { i8* getelementptr inbounds ([24 x i8], [24 x i8]* @.str.365, i32 0, i32 0), i8* @_ZN5blink26RuntimeEnabledFeaturesBase37is_scripted_speech_synthesis_enabled_E }, %struct.anon.1 { i8* getelementptr inbounds ([16 x i8], [16 x i8]* @.str.366, i32 0, i32 0), i8* @_ZN5blink26RuntimeEnabledFeaturesBase28is_scrollbar_gutter_enabled_E }, %struct.anon.1 { i8* getelementptr inbounds ([15 x i8], [15 x i8]* @.str.367, i32 0, i32 0), i8* @_ZN5blink26RuntimeEnabledFeaturesBase27is_scrollbar_width_enabled_E }, %struct.anon.1 { i8* getelementptr inbounds ([20 x i8], [20 x i8]* @.str.368, i32 0, i32 0), i8* @_ZN5blink26RuntimeEnabledFeaturesBase32is_scroll_customization_enabled_E }, %struct.anon.1 { i8* getelementptr inbounds ([22 x i8], [22 x i8]* @.str.369, i32 0, i32 0), i8* @_ZN5blink26RuntimeEnabledFeaturesBase36is_scroll_snap_after_layout_enabled_E }, %struct.anon.1 { i8* getelementptr inbounds ([15 x i8], [15 x i8]* @.str.370, i32 0, i32 0), i8* @_ZN5blink26RuntimeEnabledFeaturesBase27is_scroll_timeline_enabled_E }, %struct.anon.1 { i8* getelementptr inbounds ([21 x i8], [21 x i8]* @.str.371, i32 0, i32 0), i8* @_ZN5blink26RuntimeEnabledFeaturesBase35is_scroll_top_left_interop_enabled_E }, %struct.anon.1 { i8* getelementptr inbounds ([18 x i8], [18 x i8]* @.str.372, i32 0, i32 0), i8* @_ZN5blink26RuntimeEnabledFeaturesBase30is_scroll_unification_enabled_E }, %struct.anon.1 { i8* getelementptr inbounds ([26 x i8], [26 x i8]* @.str.373, i32 0, i32 0), i8* @_ZN5blink26RuntimeEnabledFeaturesBase39is_secure_payment_confirmation_enabled_E }, %struct.anon.1 { i8* getelementptr inbounds ([31 x i8], [31 x i8]* @.str.374, i32 0, i32 0), i8* @_ZN5blink26RuntimeEnabledFeaturesBase45is_secure_payment_confirmation_debug_enabled_E }, %struct.anon.1 { i8* getelementptr inbounds ([40 x i8], [40 x i8]* @.str.375, i32 0, i32 0), i8* @_ZN5blink26RuntimeEnabledFeaturesBase59is_send_beacon_throw_for_blob_with_non_simple_type_enabled_E }, %struct.anon.1 { i8* getelementptr inbounds ([36 x i8], [36 x i8]* @.str.376, i32 0, i32 0), i8* @_ZN5blink26RuntimeEnabledFeaturesBase52is_send_mouse_events_disabled_form_controls_enabled_E }, %struct.anon.1 { i8* getelementptr inbounds ([19 x i8], [19 x i8]* @.str.377, i32 0, i32 0), i8* @_ZN5blink26RuntimeEnabledFeaturesBase32is_sensor_extra_classes_enabled_E }, %struct.anon.1 { i8* getelementptr inbounds ([7 x i8], [7 x i8]* @.str.378, i32 0, i32 0), i8* @_ZN5blink26RuntimeEnabledFeaturesBase18is_serial_enabled_E }, %struct.anon.1 { i8* getelementptr inbounds ([34 x i8], [34 x i8]* @.str.379, i32 0, i32 0), i8* @_ZN5blink26RuntimeEnabledFeaturesBase49is_service_worker_client_lifecycle_state_enabled_E }, %struct.anon.1 { i8* getelementptr inbounds ([36 x i8], [36 x i8]* @.str.380, i32 0, i32 0), i8* @_ZN5blink26RuntimeEnabledFeaturesBase52is_service_worker_fetch_event_worker_timing_enabled_E }, %struct.anon.1 { i8* getelementptr inbounds ([18 x i8], [18 x i8]* @.str.381, i32 0, i32 0), i8* @_ZN5blink26RuntimeEnabledFeaturesBase31is_shared_array_buffer_enabled_E }, %struct.anon.1 { i8* getelementptr inbounds ([27 x i8], [27 x i8]* @.str.382, i32 0, i32 0), i8* @_ZN5blink26RuntimeEnabledFeaturesBase42is_shared_array_buffer_on_desktop_enabled_E }, %struct.anon.1 { i8* getelementptr inbounds ([43 x i8], [43 x i8]* @.str.383, i32 0, i32 0), i8* @_ZN5blink26RuntimeEnabledFeaturesBase59is_shared_array_buffer_unrestricted_access_allowed_enabled_E }, %struct.anon.1 { i8* getelementptr inbounds ([15 x i8], [15 x i8]* @.str.384, i32 0, i32 0), i8* @_ZN5blink26RuntimeEnabledFeaturesBase27is_shared_autofill_enabled_E }, %struct.anon.1 { i8* getelementptr inbounds ([13 x i8], [13 x i8]* @.str.385, i32 0, i32 0), i8* @_ZN5blink26RuntimeEnabledFeaturesBase25is_shared_worker_enabled_E }, %struct.anon.1 { i8* getelementptr inbounds ([24 x i8], [24 x i8]* @.str.386, i32 0, i32 0), i8* @_ZN5blink26RuntimeEnabledFeaturesBase37is_signature_based_integrity_enabled_E }, %struct.anon.1 { i8* getelementptr inbounds ([42 x i8], [42 x i8]* @.str.387, i32 0, i32 0), i8* @_ZN5blink26RuntimeEnabledFeaturesBase58is_signed_exchange_prefetch_cache_for_navigations_enabled_E }, %struct.anon.1 { i8* getelementptr inbounds ([34 x i8], [34 x i8]* @.str.388, i32 0, i32 0), i8* @_ZN5blink26RuntimeEnabledFeaturesBase48is_signed_exchange_subresource_prefetch_enabled_E }, %struct.anon.1 { i8* getelementptr inbounds ([7 x i8], [7 x i8]* @.str.389, i32 0, i32 0), i8* @_ZN5blink26RuntimeEnabledFeaturesBase19is_skip_ad_enabled_E }, %struct.anon.1 { i8* getelementptr inbounds ([21 x i8], [21 x i8]* @.str.390, i32 0, i32 0), i8* @_ZN5blink26RuntimeEnabledFeaturesBase35is_skip_touch_event_filter_enabled_E }, %struct.anon.1 { i8* getelementptr inbounds ([17 x i8], [17 x i8]* @.str.391, i32 0, i32 0), i8* @_ZN5blink26RuntimeEnabledFeaturesBase29is_speculation_rules_enabled_E }, %struct.anon.1 { i8* getelementptr inbounds ([30 x i8], [30 x i8]* @.str.392, i32 0, i32 0), i8* @_ZN5blink26RuntimeEnabledFeaturesBase44is_speculation_rules_prefetch_proxy_enabled_E }, %struct.anon.1 { i8* getelementptr inbounds ([17 x i8], [17 x i8]* @.str.393, i32 0, i32 0), i8* @_ZN5blink26RuntimeEnabledFeaturesBase30is_srcset_max_density_enabled_E }, %struct.anon.1 { i8* getelementptr inbounds ([20 x i8], [20 x i8]* @.str.394, i32 0, i32 0), i8* @_ZN5blink26RuntimeEnabledFeaturesBase33is_stable_blink_features_enabled_E }, %struct.anon.1 { i8* getelementptr inbounds ([17 x i8], [17 x i8]* @.str.395, i32 0, i32 0), i8* @_ZN5blink26RuntimeEnabledFeaturesBase30is_storage_access_api_enabled_E }, %struct.anon.1 { i8* getelementptr inbounds ([15 x i8], [15 x i8]* @.str.396, i32 0, i32 0), i8* @_ZN5blink26RuntimeEnabledFeaturesBase27is_storage_buckets_enabled_E }, %struct.anon.1 { i8* getelementptr inbounds ([21 x i8], [21 x i8]* @.str.397, i32 0, i32 0), i8* @_ZN5blink26RuntimeEnabledFeaturesBase34is_storage_foundation_api_enabled_E }, %struct.anon.1 { i8* getelementptr inbounds ([26 x i8], [26 x i8]* @.str.398, i32 0, i32 0), i8* @_ZN5blink26RuntimeEnabledFeaturesBase41is_strict_mime_types_for_workers_enabled_E }, %struct.anon.1 { i8* getelementptr inbounds ([22 x i8], [22 x i8]* @.str.399, i32 0, i32 0), i8* @_ZN5blink26RuntimeEnabledFeaturesBase35is_subresource_web_bundles_enabled_E }, %struct.anon.1 { i8* getelementptr inbounds ([10 x i8], [10 x i8]* @.str.400, i32 0, i32 0), i8* @_ZN5blink26RuntimeEnabledFeaturesBase23is_svg_text_ng_enabled_E }, %struct.anon.1 { i8* getelementptr inbounds ([15 x i8], [15 x i8]* @.str.401, i32 0, i32 0), i8* @_ZN5blink26RuntimeEnabledFeaturesBase28is_system_wake_lock_enabled_E }, %struct.anon.1 { i8* getelementptr inbounds ([27 x i8], [27 x i8]* @.str.402, i32 0, i32 0), i8* @_ZN5blink26RuntimeEnabledFeaturesBase42is_target_blank_implies_no_opener_enabled_E }, %struct.anon.1 { i8* getelementptr inbounds ([12 x i8], [12 x i8]* @.str.403, i32 0, i32 0), i8* @_ZN5blink26RuntimeEnabledFeaturesBase24is_test_feature_enabled_E }, %struct.anon.1 { i8* getelementptr inbounds ([21 x i8], [21 x i8]* @.str.404, i32 0, i32 0), i8* @_ZN5blink26RuntimeEnabledFeaturesBase34is_test_feature_dependent_enabled_E }, %struct.anon.1 { i8* getelementptr inbounds ([19 x i8], [19 x i8]* @.str.405, i32 0, i32 0), i8* @_ZN5blink26RuntimeEnabledFeaturesBase32is_test_feature_implied_enabled_E }, %struct.anon.1 { i8* getelementptr inbounds ([13 x i8], [13 x i8]* @.str.406, i32 0, i32 0), i8* @_ZN5blink26RuntimeEnabledFeaturesBase25is_text_detector_enabled_E }, %struct.anon.1 { i8* getelementptr inbounds ([24 x i8], [24 x i8]* @.str.407, i32 0, i32 0), i8* @_ZN5blink26RuntimeEnabledFeaturesBase38is_text_fragment_color_change_enabled_E }, %struct.anon.1 { i8* getelementptr inbounds ([24 x i8], [24 x i8]* @.str.408, i32 0, i32 0), i8* @_ZN5blink26RuntimeEnabledFeaturesBase37is_text_fragment_identifiers_enabled_E }, %struct.anon.1 { i8* getelementptr inbounds ([32 x i8], [32 x i8]* @.str.409, i32 0, i32 0), i8* @_ZN5blink26RuntimeEnabledFeaturesBase48is_text_fragment_tap_opens_context_menu_enabled_E }, %struct.anon.1 { i8* getelementptr inbounds ([23 x i8], [23 x i8]* @.str.410, i32 0, i32 0), i8* @_ZN5blink26RuntimeEnabledFeaturesBase37is_third_party_origin_trials_enabled_E }, %struct.anon.1 { i8* getelementptr inbounds ([57 x i8], [57 x i8]* @.str.411, i32 0, i32 0), i8* @_ZN5blink26RuntimeEnabledFeaturesBase76is_throttle_display_none_and_visibility_hidden_cross_origin_iframes_enabled_E }, %struct.anon.1 { i8* getelementptr inbounds ([33 x i8], [33 x i8]* @.str.412, i32 0, i32 0), i8* @_ZN5blink26RuntimeEnabledFeaturesBase48is_timer_throttling_for_background_tabs_enabled_E }, %struct.anon.1 { i8* getelementptr inbounds ([31 x i8], [31 x i8]* @.str.413, i32 0, i32 0), i8* @_ZN5blink26RuntimeEnabledFeaturesBase46is_timer_throttling_for_hidden_frames_enabled_E }, %struct.anon.1 { i8* getelementptr inbounds ([20 x i8], [20 x i8]* @.str.414, i32 0, i32 0), i8* @_ZN5blink26RuntimeEnabledFeaturesBase34is_time_zone_change_event_enabled_E }, %struct.anon.1 { i8* getelementptr inbounds ([27 x i8], [27 x i8]* @.str.415, i32 0, i32 0), i8* @_ZN5blink26RuntimeEnabledFeaturesBase41is_touch_event_feature_detection_enabled_E }, %struct.anon.1 { i8* getelementptr inbounds ([20 x i8], [20 x i8]* @.str.416, i32 0, i32 0), i8* @_ZN5blink26RuntimeEnabledFeaturesBase32is_transferable_streams_enabled_E }, %struct.anon.1 { i8* getelementptr inbounds ([17 x i8], [17 x i8]* @.str.417, i32 0, i32 0), i8* @_ZN5blink26RuntimeEnabledFeaturesBase29is_transform_interop_enabled_E }, %struct.anon.1 { i8* getelementptr inbounds ([17 x i8], [17 x i8]* @.str.418, i32 0, i32 0), i8* @_ZN5blink26RuntimeEnabledFeaturesBase29is_translate_service_enabled_E }, %struct.anon.1 { i8* getelementptr inbounds ([16 x i8], [16 x i8]* @.str.419, i32 0, i32 0), i8* @_ZN5blink26RuntimeEnabledFeaturesBase29is_trusted_dom_types_enabled_E }, %struct.anon.1 { i8* getelementptr inbounds ([37 x i8], [37 x i8]* @.str.420, i32 0, i32 0), i8* @_ZN5blink26RuntimeEnabledFeaturesBase53is_trusted_type_before_policy_creation_event_enabled_E }, %struct.anon.1 { i8* getelementptr inbounds ([24 x i8], [24 x i8]* @.str.421, i32 0, i32 0), i8* @_ZN5blink26RuntimeEnabledFeaturesBase39is_trusted_types_use_code_like_enabled_E }, %struct.anon.1 { i8* getelementptr inbounds ([12 x i8], [12 x i8]* @.str.422, i32 0, i32 0), i8* @_ZN5blink26RuntimeEnabledFeaturesBase24is_trust_tokens_enabled_E }, %struct.anon.1 { i8* getelementptr inbounds ([31 x i8], [31 x i8]* @.str.423, i32 0, i32 0), i8* @_ZN5blink26RuntimeEnabledFeaturesBase46is_trust_tokens_always_allow_issuance_enabled_E }, %struct.anon.1 { i8* getelementptr inbounds ([29 x i8], [29 x i8]* @.str.424, i32 0, i32 0), i8* @_ZN5blink26RuntimeEnabledFeaturesBase44is_unclosed_form_control_is_invalid_enabled_E }, %struct.anon.1 { i8* getelementptr inbounds ([25 x i8], [25 x i8]* @.str.425, i32 0, i32 0), i8* @_ZN5blink26RuntimeEnabledFeaturesBase38is_underline_offset_thickness_enabled_E }, %struct.anon.1 { i8* getelementptr inbounds ([30 x i8], [30 x i8]* @.str.426, i32 0, i32 0), i8* @_ZN5blink26RuntimeEnabledFeaturesBase44is_unrestricted_shared_array_buffer_enabled_E }, %struct.anon.1 { i8* getelementptr inbounds ([11 x i8], [11 x i8]* @.str.427, i32 0, i32 0), i8* @_ZN5blink26RuntimeEnabledFeaturesBase23is_url_pattern_enabled_E }, %struct.anon.1 { i8* getelementptr inbounds ([35 x i8], [35 x i8]* @.str.428, i32 0, i32 0), i8* @_ZN5blink26RuntimeEnabledFeaturesBase50is_user_activation_same_origin_visibility_enabled_E }, %struct.anon.1 { i8* getelementptr inbounds ([20 x i8], [20 x i8]* @.str.429, i32 0, i32 0), i8* @_ZN5blink26RuntimeEnabledFeaturesBase34is_user_agent_client_hint_enabled_E }, %struct.anon.1 { i8* getelementptr inbounds ([5 x i8], [5 x i8]* @.str.430, i32 0, i32 0), i8* @_ZN5blink26RuntimeEnabledFeaturesBase16is_uuid_enabled_E }, %struct.anon.1 { i8* getelementptr inbounds ([12 x i8], [12 x i8]* @.str.431, i32 0, i32 0), i8* @_ZN5blink26RuntimeEnabledFeaturesBase25is_v8_idle_tasks_enabled_E }, %struct.anon.1 { i8* getelementptr inbounds ([20 x i8], [20 x i8]* @.str.432, i32 0, i32 0), i8* @_ZN5blink26RuntimeEnabledFeaturesBase33is_video_auto_fullscreen_enabled_E }, %struct.anon.1 { i8* getelementptr inbounds ([31 x i8], [31 x i8]* @.str.433, i32 0, i32 0), i8* @_ZN5blink26RuntimeEnabledFeaturesBase45is_video_fullscreen_orientation_lock_enabled_E }, %struct.anon.1 { i8* getelementptr inbounds ([21 x i8], [21 x i8]* @.str.434, i32 0, i32 0), i8* @_ZN5blink26RuntimeEnabledFeaturesBase34is_video_playback_quality_enabled_E }, %struct.anon.1 { i8* getelementptr inbounds ([24 x i8], [24 x i8]* @.str.435, i32 0, i32 0), i8* @_ZN5blink26RuntimeEnabledFeaturesBase38is_video_rotate_to_fullscreen_enabled_E }, %struct.anon.1 { i8* getelementptr inbounds ([37 x i8], [37 x i8]* @.str.436, i32 0, i32 0), i8* @_ZN5blink26RuntimeEnabledFeaturesBase53is_video_wake_lock_optimisation_hidden_muted_enabled_E }, %struct.anon.1 { i8* getelementptr inbounds ([16 x i8], [16 x i8]* @.str.437, i32 0, i32 0), i8* @_ZN5blink26RuntimeEnabledFeaturesBase28is_virtual_keyboard_enabled_E }, %struct.anon.1 { i8* getelementptr inbounds ([25 x i8], [25 x i8]* @.str.438, i32 0, i32 0), i8* @_ZN5blink26RuntimeEnabledFeaturesBase38is_visibility_collapse_column_enabled_E }, %struct.anon.1 { i8* getelementptr inbounds ([21 x i8], [21 x i8]* @.str.439, i32 0, i32 0), i8* @_ZN5blink26RuntimeEnabledFeaturesBase34is_visibility_state_entry_enabled_E }, %struct.anon.1 { i8* getelementptr inbounds ([9 x i8], [9 x i8]* @.str.440, i32 0, i32 0), i8* @_ZN5blink26RuntimeEnabledFeaturesBase21is_wake_lock_enabled_E }, %struct.anon.1 { i8* getelementptr inbounds ([17 x i8], [17 x i8]* @.str.441, i32 0, i32 0), i8* @_ZN5blink26RuntimeEnabledFeaturesBase30is_web_animations_api_enabled_E }, %struct.anon.1 { i8* getelementptr inbounds ([17 x i8], [17 x i8]* @.str.442, i32 0, i32 0), i8* @_ZN5blink26RuntimeEnabledFeaturesBase30is_web_animations_svg_enabled_E }, %struct.anon.1 { i8* getelementptr inbounds ([20 x i8], [20 x i8]* @.str.443, i32 0, i32 0), i8* @_ZN5blink26RuntimeEnabledFeaturesBase34is_web_app_link_capturing_enabled_E }, %struct.anon.1 { i8* getelementptr inbounds ([18 x i8], [18 x i8]* @.str.444, i32 0, i32 0), i8* @_ZN5blink26RuntimeEnabledFeaturesBase32is_web_apps_lock_screen_enabled_E }, %struct.anon.1 { i8* getelementptr inbounds ([18 x i8], [18 x i8]* @.str.445, i32 0, i32 0), i8* @_ZN5blink26RuntimeEnabledFeaturesBase32is_web_app_url_handling_enabled_E }, %struct.anon.1 { i8* getelementptr inbounds ([28 x i8], [28 x i8]* @.str.446, i32 0, i32 0), i8* @_ZN5blink26RuntimeEnabledFeaturesBase43is_web_app_window_controls_overlay_enabled_E }, %struct.anon.1 { i8* getelementptr inbounds ([15 x i8], [15 x i8]* @.str.447, i32 0, i32 0), i8* @_ZN5blink26RuntimeEnabledFeaturesBase28is_web_assembly_csp_enabled_E }, %struct.anon.1 { i8* getelementptr inbounds ([22 x i8], [22 x i8]* @.str.448, i32 0, i32 0), i8* @_ZN5blink26RuntimeEnabledFeaturesBase35is_web_assembly_exceptions_enabled_E }, %struct.anon.1 { i8* getelementptr inbounds ([16 x i8], [16 x i8]* @.str.449, i32 0, i32 0), i8* @_ZN5blink26RuntimeEnabledFeaturesBase29is_web_assembly_simd_enabled_E }, %struct.anon.1 { i8* getelementptr inbounds ([8 x i8], [8 x i8]* @.str.450, i32 0, i32 0), i8* @_ZN5blink26RuntimeEnabledFeaturesBase20is_web_auth_enabled_E }, %struct.anon.1 { i8* getelementptr inbounds ([31 x i8], [31 x i8]* @.str.451, i32 0, i32 0), i8* @_ZN5blink26RuntimeEnabledFeaturesBase45is_web_authentication_conditional_ui_enabled_E }, %struct.anon.1 { i8* getelementptr inbounds ([36 x i8], [36 x i8]* @.str.452, i32 0, i32 0), i8* @_ZN5blink26RuntimeEnabledFeaturesBase51is_web_authentication_large_blob_extension_enabled_E }, %struct.anon.1 { i8* getelementptr inbounds ([40 x i8], [40 x i8]* @.str.453, i32 0, i32 0), i8* @_ZN5blink26RuntimeEnabledFeaturesBase55is_web_authentication_resident_key_requirement_enabled_E }, %struct.anon.1 { i8* getelementptr inbounds ([13 x i8], [13 x i8]* @.str.454, i32 0, i32 0), i8* @_ZN5blink26RuntimeEnabledFeaturesBase25is_web_bluetooth_enabled_E }, %struct.anon.1 { i8* getelementptr inbounds ([23 x i8], [23 x i8]* @.str.455, i32 0, i32 0), i8* @_ZN5blink26RuntimeEnabledFeaturesBase37is_web_bluetooth_get_devices_enabled_E }, %struct.anon.1 { i8* getelementptr inbounds ([35 x i8], [35 x i8]* @.str.456, i32 0, i32 0), i8* @_ZN5blink26RuntimeEnabledFeaturesBase50is_web_bluetooth_manufacturer_data_filter_enabled_E }, %struct.anon.1 { i8* getelementptr inbounds ([46 x i8], [46 x i8]* @.str.457, i32 0, i32 0), i8* @_ZN5blink26RuntimeEnabledFeaturesBase63is_web_bluetooth_remote_characteristic_new_write_value_enabled_E }, %struct.anon.1 { i8* getelementptr inbounds ([21 x i8], [21 x i8]* @.str.458, i32 0, i32 0), i8* @_ZN5blink26RuntimeEnabledFeaturesBase34is_web_bluetooth_scanning_enabled_E }, %struct.anon.1 { i8* getelementptr inbounds ([32 x i8], [32 x i8]* @.str.459, i32 0, i32 0), i8* @_ZN5blink26RuntimeEnabledFeaturesBase46is_web_bluetooth_watch_advertisements_enabled_E }, %struct.anon.1 { i8* getelementptr inbounds ([10 x i8], [10 x i8]* @.str.460, i32 0, i32 0), i8* @_ZN5blink26RuntimeEnabledFeaturesBase21is_webcodecs_enabled_E }, %struct.anon.1 { i8* getelementptr inbounds ([20 x i8], [20 x i8]* @.str.461, i32 0, i32 0), i8* @_ZN5blink26RuntimeEnabledFeaturesBase34is_web_crypto_curve_25519_enabled_E }, %struct.anon.1 { i8* getelementptr inbounds ([21 x i8], [21 x i8]* @.str.462, i32 0, i32 0), i8* @_ZN5blink26RuntimeEnabledFeaturesBase34is_webgl_draft_extensions_enabled_E }, %struct.anon.1 { i8* getelementptr inbounds ([19 x i8], [19 x i8]* @.str.463, i32 0, i32 0), i8* @_ZN5blink26RuntimeEnabledFeaturesBase32is_webgl_image_chromium_enabled_E }, %struct.anon.1 { i8* getelementptr inbounds ([7 x i8], [7 x i8]* @.str.464, i32 0, i32 0), i8* @_ZN5blink26RuntimeEnabledFeaturesBase18is_webgpu_enabled_E }, %struct.anon.1 { i8* getelementptr inbounds ([20 x i8], [20 x i8]* @.str.465, i32 0, i32 0), i8* @_ZN5blink26RuntimeEnabledFeaturesBase33is_webgpu_import_texture_enabled_E }, %struct.anon.1 { i8* getelementptr inbounds ([7 x i8], [7 x i8]* @.str.466, i32 0, i32 0), i8* @_ZN5blink26RuntimeEnabledFeaturesBase19is_web_hid_enabled_E }, %struct.anon.1 { i8* getelementptr inbounds ([6 x i8], [6 x i8]* @.str.467, i32 0, i32 0), i8* @_ZN5blink26RuntimeEnabledFeaturesBase18is_web_id_enabled_E }, %struct.anon.1 { i8* getelementptr inbounds ([7 x i8], [7 x i8]* @.str.468, i32 0, i32 0), i8* @_ZN5blink26RuntimeEnabledFeaturesBase19is_web_nfc_enabled_E }, %struct.anon.1 { i8* getelementptr inbounds ([7 x i8], [7 x i8]* @.str.469, i32 0, i32 0), i8* @_ZN5blink26RuntimeEnabledFeaturesBase19is_web_otp_enabled_E }, %struct.anon.1 { i8* getelementptr inbounds ([29 x i8], [29 x i8]* @.str.470, i32 0, i32 0), i8* @_ZN5blink26RuntimeEnabledFeaturesBase44is_web_otp_assertion_feature_policy_enabled_E }, %struct.anon.1 { i8* getelementptr inbounds ([13 x i8], [13 x i8]* @.str.471, i32 0, i32 0), i8* @_ZN5blink26RuntimeEnabledFeaturesBase25is_web_scheduler_enabled_E }, %struct.anon.1 { i8* getelementptr inbounds ([9 x i8], [9 x i8]* @.str.472, i32 0, i32 0), i8* @_ZN5blink26RuntimeEnabledFeaturesBase21is_web_share_enabled_E }, %struct.anon.1 { i8* getelementptr inbounds ([16 x i8], [16 x i8]* @.str.473, i32 0, i32 0), i8* @_ZN5blink26RuntimeEnabledFeaturesBase28is_websocket_stream_enabled_E }, %struct.anon.1 { i8* getelementptr inbounds ([13 x i8], [13 x i8]* @.str.474, i32 0, i32 0), i8* @_ZN5blink26RuntimeEnabledFeaturesBase25is_web_transport_enabled_E }, %struct.anon.1 { i8* getelementptr inbounds ([31 x i8], [31 x i8]* @.str.475, i32 0, i32 0), i8* @_ZN5blink26RuntimeEnabledFeaturesBase45is_web_transport_custom_certificates_enabled_E }, %struct.anon.1 { i8* getelementptr inbounds ([7 x i8], [7 x i8]* @.str.476, i32 0, i32 0), i8* @_ZN5blink26RuntimeEnabledFeaturesBase19is_web_usb_enabled_E }, %struct.anon.1 { i8* getelementptr inbounds ([25 x i8], [25 x i8]* @.str.477, i32 0, i32 0), i8* @_ZN5blink26RuntimeEnabledFeaturesBase40is_web_usb_on_dedicated_workers_enabled_E }, %struct.anon.1 { i8* getelementptr inbounds ([14 x i8], [14 x i8]* @.str.478, i32 0, i32 0), i8* @_ZN5blink26RuntimeEnabledFeaturesBase27is_web_vtt_regions_enabled_E }, %struct.anon.1 { i8* getelementptr inbounds ([6 x i8], [6 x i8]* @.str.479, i32 0, i32 0), i8* @_ZN5blink26RuntimeEnabledFeaturesBase18is_web_xr_enabled_E }, %struct.anon.1 { i8* getelementptr inbounds ([13 x i8], [13 x i8]* @.str.480, i32 0, i32 0), i8* @_ZN5blink26RuntimeEnabledFeaturesBase26is_web_xr_anchors_enabled_E }, %struct.anon.1 { i8* getelementptr inbounds ([14 x i8], [14 x i8]* @.str.481, i32 0, i32 0), i8* @_ZN5blink26RuntimeEnabledFeaturesBase28is_web_xr_ar_module_enabled_E }, %struct.anon.1 { i8* getelementptr inbounds ([18 x i8], [18 x i8]* @.str.482, i32 0, i32 0), i8* @_ZN5blink26RuntimeEnabledFeaturesBase32is_web_xr_camera_access_enabled_E }, %struct.anon.1 { i8* getelementptr inbounds ([11 x i8], [11 x i8]* @.str.483, i32 0, i32 0), i8* @_ZN5blink26RuntimeEnabledFeaturesBase24is_web_xr_depth_enabled_E }, %struct.anon.1 { i8* getelementptr inbounds ([15 x i8], [15 x i8]* @.str.484, i32 0, i32 0), i8* @_ZN5blink26RuntimeEnabledFeaturesBase29is_web_xr_hand_input_enabled_E }, %struct.anon.1 { i8* getelementptr inbounds ([13 x i8], [13 x i8]* @.str.485, i32 0, i32 0), i8* @_ZN5blink26RuntimeEnabledFeaturesBase27is_web_xr_hit_test_enabled_E }, %struct.anon.1 { i8* getelementptr inbounds ([24 x i8], [24 x i8]* @.str.486, i32 0, i32 0), i8* @_ZN5blink26RuntimeEnabledFeaturesBase40is_web_xr_hit_test_entity_types_enabled_E }, %struct.anon.1 { i8* getelementptr inbounds ([19 x i8], [19 x i8]* @.str.487, i32 0, i32 0), i8* @_ZN5blink26RuntimeEnabledFeaturesBase33is_web_xr_image_tracking_enabled_E }, %struct.anon.1 { i8* getelementptr inbounds ([21 x i8], [21 x i8]* @.str.488, i32 0, i32 0), i8* @_ZN5blink26RuntimeEnabledFeaturesBase35is_web_xr_light_estimation_enabled_E }, %struct.anon.1 { i8* getelementptr inbounds ([20 x i8], [20 x i8]* @.str.489, i32 0, i32 0), i8* @_ZN5blink26RuntimeEnabledFeaturesBase34is_web_xr_plane_detection_enabled_E }, %struct.anon.1 { i8* getelementptr inbounds ([19 x i8], [19 x i8]* @.str.490, i32 0, i32 0), i8* @_ZN5blink26RuntimeEnabledFeaturesBase33is_web_xr_viewport_scale_enabled_E }, %struct.anon.1 { i8* getelementptr inbounds ([18 x i8], [18 x i8]* @.str.491, i32 0, i32 0), i8* @_ZN5blink26RuntimeEnabledFeaturesBase31is_wheel_event_regions_enabled_E }, %struct.anon.1 { i8* getelementptr inbounds ([16 x i8], [16 x i8]* @.str.492, i32 0, i32 0), i8* @_ZN5blink26RuntimeEnabledFeaturesBase28is_window_placement_enabled_E }, %struct.anon.1 { i8* getelementptr inbounds ([15 x i8], [15 x i8]* @.str.493, i32 0, i32 0), i8* @_ZN5blink26RuntimeEnabledFeaturesBase27is_window_segments_enabled_E }, %struct.anon.1 { i8* getelementptr inbounds ([5 x i8], [5 x i8]* @.str.494, i32 0, i32 0), i8* @_ZN5blink26RuntimeEnabledFeaturesBase16is_xslt_enabled_E }], align 16
@.str = private unnamed_addr constant [20 x i8] c"Accelerated2dCanvas\00", align 1
@.str.1 = private unnamed_addr constant [25 x i8] c"AcceleratedSmallCanvases\00", align 1
@.str.2 = private unnamed_addr constant [34 x i8] c"AccessibilityAriaTouchPassthrough\00", align 1
@.str.3 = private unnamed_addr constant [32 x i8] c"AccessibilityAriaVirtualContent\00", align 1
@.str.4 = private unnamed_addr constant [31 x i8] c"AccessibilityExposeDisplayNone\00", align 1
@.str.5 = private unnamed_addr constant [31 x i8] c"AccessibilityExposeHTMLElement\00", align 1
@.str.6 = private unnamed_addr constant [32 x i8] c"AccessibilityExposeIgnoredNodes\00", align 1
@.str.7 = private unnamed_addr constant [25 x i8] c"AccessibilityObjectModel\00", align 1
@.str.8 = private unnamed_addr constant [45 x i8] c"AccessibilityUseAXPositionForDocumentMarkers\00", align 1
@.str.9 = private unnamed_addr constant [28 x i8] c"AddEventListenerAbortSignal\00", align 1
@.str.10 = private unnamed_addr constant [13 x i8] c"AddressSpace\00", align 1
@.str.11 = private unnamed_addr constant [10 x i8] c"AdTagging\00", align 1
@.str.12 = private unnamed_addr constant [30 x i8] c"AllowActivationDelegationAttr\00", align 1
@.str.13 = private unnamed_addr constant [40 x i8] c"AllowContentInitiatedDataUrlNavigations\00", align 1
@.str.14 = private unnamed_addr constant [28 x i8] c"AllowSyncXHRInPageDismissal\00", align 1
@.str.15 = private unnamed_addr constant [33 x i8] c"AndroidDownloadableFontsMatching\00", align 1
@.str.16 = private unnamed_addr constant [17 x i8] c"AnimationWorklet\00", align 1
@.str.17 = private unnamed_addr constant [18 x i8] c"AOMAriaProperties\00", align 1
@.str.18 = private unnamed_addr constant [30 x i8] c"AOMAriaRelationshipProperties\00", align 1
@.str.19 = private unnamed_addr constant [9 x i8] c"AppCache\00", align 1
@.str.20 = private unnamed_addr constant [11 x i8] c"AppHistory\00", align 1
@.str.21 = private unnamed_addr constant [21 x i8] c"AriaTouchPassthrough\00", align 1
@.str.22 = private unnamed_addr constant [19 x i8] c"AudioOutputDevices\00", align 1
@.str.23 = private unnamed_addr constant [17 x i8] c"AudioVideoTracks\00", align 1
@.str.24 = private unnamed_addr constant [22 x i8] c"AutoLazyLoadOnReloads\00", align 1
@.str.25 = private unnamed_addr constant [26 x i8] c"AutomaticLazyFrameLoading\00", align 1
@.str.26 = private unnamed_addr constant [26 x i8] c"AutomaticLazyImageLoading\00", align 1
@.str.27 = private unnamed_addr constant [21 x i8] c"AutomationControlled\00", align 1
@.str.28 = private unnamed_addr constant [21 x i8] c"AutoPictureInPicture\00", align 1
@.str.29 = private unnamed_addr constant [24 x i8] c"AutoplayIgnoresWebAudio\00", align 1
@.str.30 = private unnamed_addr constant [17 x i8] c"BackForwardCache\00", align 1
@.str.31 = private unnamed_addr constant [37 x i8] c"BackForwardCacheExperimentHTTPHeader\00", align 1
@.str.32 = private unnamed_addr constant [16 x i8] c"BackgroundFetch\00", align 1
@.str.33 = private unnamed_addr constant [33 x i8] c"BackgroundVideoTrackOptimization\00", align 1
@.str.34 = private unnamed_addr constant [8 x i8] c"Badging\00", align 1
@.str.35 = private unnamed_addr constant [16 x i8] c"BarcodeDetector\00", align 1
@.str.36 = private unnamed_addr constant [19 x i8] c"BatterySavingsMeta\00", align 1
@.str.37 = private unnamed_addr constant [17 x i8] c"BeforeMatchEvent\00", align 1
@.str.38 = private unnamed_addr constant [18 x i8] c"BidiCaretAffinity\00", align 1
@.str.39 = private unnamed_addr constant [22 x i8] c"BlinkRuntimeCallStats\00", align 1
@.str.40 = private unnamed_addr constant [30 x i8] c"BlockCredentialedSubresources\00", align 1
@.str.41 = private unnamed_addr constant [27 x i8] c"BlockingDownloadsInSandbox\00", align 1
@.str.42 = private unnamed_addr constant [35 x i8] c"BlockingFocusWithoutUserActivation\00", align 1
@.str.43 = private unnamed_addr constant [38 x i8] c"BrowserVerifiedUserActivationKeyboard\00", align 1
@.str.44 = private unnamed_addr constant [35 x i8] c"BrowserVerifiedUserActivationMouse\00", align 1
@.str.45 = private unnamed_addr constant [22 x i8] c"CacheInlineScriptCode\00", align 1
@.str.46 = private unnamed_addr constant [26 x i8] c"CacheStorageCodeCacheHint\00", align 1
@.str.47 = private unnamed_addr constant [22 x i8] c"Canvas2dImageChromium\00", align 1
@.str.48 = private unnamed_addr constant [27 x i8] c"Canvas2dScrollPathIntoView\00", align 1
@.str.49 = private unnamed_addr constant [22 x i8] c"CanvasColorManagement\00", align 1
@.str.50 = private unnamed_addr constant [20 x i8] c"CanvasFormattedText\00", align 1
@.str.51 = private unnamed_addr constant [16 x i8] c"CanvasHitRegion\00", align 1
@.str.52 = private unnamed_addr constant [21 x i8] c"CanvasImageSmoothing\00", align 1
@.str.53 = private unnamed_addr constant [21 x i8] c"CapabilityDelegation\00", align 1
@.str.54 = private unnamed_addr constant [35 x i8] c"CapabilityDelegationPaymentRequest\00", align 1
@.str.55 = private unnamed_addr constant [14 x i8] c"CaptureHandle\00", align 1
@.str.56 = private unnamed_addr constant [18 x i8] c"CaptureTimeInCsrc\00", align 1
@.str.57 = private unnamed_addr constant [18 x i8] c"ClickPointerEvent\00", align 1
@.str.58 = private unnamed_addr constant [18 x i8] c"ClickRetargetting\00", align 1
@.str.59 = private unnamed_addr constant [13 x i8] c"ClipboardSvg\00", align 1
@.str.60 = private unnamed_addr constant [12 x i8] c"COLRV1Fonts\00", align 1
@.str.61 = private unnamed_addr constant [20 x i8] c"CompositeAfterPaint\00", align 1
@.str.62 = private unnamed_addr constant [26 x i8] c"CompositeBGColorAnimation\00", align 1
@.str.63 = private unnamed_addr constant [27 x i8] c"CompositeClipPathAnimation\00", align 1
@.str.64 = private unnamed_addr constant [26 x i8] c"CompositedSelectionUpdate\00", align 1
@.str.65 = private unnamed_addr constant [27 x i8] c"CompositeRelativeKeyframes\00", align 1
@.str.66 = private unnamed_addr constant [13 x i8] c"CompositeSVG\00", align 1
@.str.67 = private unnamed_addr constant [26 x i8] c"ComputedAccessibilityInfo\00", align 1
@.str.68 = private unnamed_addr constant [16 x i8] c"ComputePressure\00", align 1
@.str.69 = private unnamed_addr constant [23 x i8] c"ConsolidatedMovementXY\00", align 1
@.str.70 = private unnamed_addr constant [16 x i8] c"ContactsManager\00", align 1
@.str.71 = private unnamed_addr constant [31 x i8] c"ContactsManagerExtraProperties\00", align 1
@.str.72 = private unnamed_addr constant [13 x i8] c"ContentIndex\00", align 1
@.str.73 = private unnamed_addr constant [12 x i8] c"ContextMenu\00", align 1
@.str.74 = private unnamed_addr constant [22 x i8] c"ConversionMeasurement\00", align 1
@.str.75 = private unnamed_addr constant [34 x i8] c"ConversionMeasurementInfraSupport\00", align 1
@.str.76 = private unnamed_addr constant [35 x i8] c"CookiesWithoutSameSiteMustBeSecure\00", align 1
@.str.77 = private unnamed_addr constant [22 x i8] c"CooperativeScheduling\00", align 1
@.str.78 = private unnamed_addr constant [12 x i8] c"CorsRFC1918\00", align 1
@.str.79 = private unnamed_addr constant [21 x i8] c"CrossOriginIsolation\00", align 1
@.str.80 = private unnamed_addr constant [33 x i8] c"CrossOriginOpenerPolicyReporting\00", align 1
@.str.81 = private unnamed_addr constant [9 x i8] c"CSS3Text\00", align 1
@.str.82 = private unnamed_addr constant [15 x i8] c"CSSAccentColor\00", align 1
@.str.83 = private unnamed_addr constant [34 x i8] c"CSSAtRuleCounterStyleImageSymbols\00", align 1
@.str.84 = private unnamed_addr constant [33 x i8] c"CSSAtRuleCounterStyleInShadowDOM\00", align 1
@.str.85 = private unnamed_addr constant [13 x i8] c"CSSCalcAsInt\00", align 1
@.str.86 = private unnamed_addr constant [22 x i8] c"CSSCalcInfinityAndNaN\00", align 1
@.str.87 = private unnamed_addr constant [25 x i8] c"CSSCaseSensitiveSelector\00", align 1
@.str.88 = private unnamed_addr constant [16 x i8] c"CSSColorTypedOM\00", align 1
@.str.89 = private unnamed_addr constant [20 x i8] c"CSSContainerQueries\00", align 1
@.str.90 = private unnamed_addr constant [17 x i8] c"CSSContainSize1D\00", align 1
@.str.91 = private unnamed_addr constant [21 x i8] c"CSSContentVisibility\00", align 1
@.str.92 = private unnamed_addr constant [36 x i8] c"CSSContentVisibilityHiddenMatchable\00", align 1
@.str.93 = private unnamed_addr constant [16 x i8] c"CSSFocusVisible\00", align 1
@.str.94 = private unnamed_addr constant [13 x i8] c"CSSFoldables\00", align 1
@.str.95 = private unnamed_addr constant [22 x i8] c"CSSFontFaceSizeAdjust\00", align 1
@.str.96 = private unnamed_addr constant [18 x i8] c"CSSFontSizeAdjust\00", align 1
@.str.97 = private unnamed_addr constant [17 x i8] c"CSSHexAlphaColor\00", align 1
@.str.98 = private unnamed_addr constant [34 x i8] c"CSSIndependentTransformProperties\00", align 1
@.str.99 = private unnamed_addr constant [13 x i8] c"CSSLayoutAPI\00", align 1
@.str.100 = private unnamed_addr constant [11 x i8] c"CSSLogical\00", align 1
@.str.101 = private unnamed_addr constant [19 x i8] c"CSSLogicalOverflow\00", align 1
@.str.102 = private unnamed_addr constant [29 x i8] c"CSSMarkerNestedPseudoElement\00", align 1
@.str.103 = private unnamed_addr constant [13 x i8] c"CSSMathDepth\00", align 1
@.str.104 = private unnamed_addr constant [13 x i8] c"CSSMathShift\00", align 1
@.str.105 = private unnamed_addr constant [13 x i8] c"CSSMathStyle\00", align 1
@.str.106 = private unnamed_addr constant [15 x i8] c"CSSMathVariant\00", align 1
@.str.107 = private unnamed_addr constant [11 x i8] c"CSSModules\00", align 1
@.str.108 = private unnamed_addr constant [17 x i8] c"CSSOffsetPathRay\00", align 1
@.str.109 = private unnamed_addr constant [24 x i8] c"CSSOffsetPathRayContain\00", align 1
@.str.110 = private unnamed_addr constant [24 x i8] c"CSSOffsetPositionAnchor\00", align 1
@.str.111 = private unnamed_addr constant [21 x i8] c"CSSPaintAPIArguments\00", align 1
@.str.112 = private unnamed_addr constant [20 x i8] c"CSSPictureInPicture\00", align 1
@.str.113 = private unnamed_addr constant [38 x i8] c"CSSPositionStickyStaticScrollPosition\00", align 1
@.str.114 = private unnamed_addr constant [13 x i8] c"CSSPseudoDir\00", align 1
@.str.115 = private unnamed_addr constant [23 x i8] c"CSSPseudoPlayingPaused\00", align 1
@.str.116 = private unnamed_addr constant [14 x i8] c"CSSScrollbars\00", align 1
@.str.117 = private unnamed_addr constant [18 x i8] c"CSSScrollTimeline\00", align 1
@.str.118 = private unnamed_addr constant [12 x i8] c"CSSSnapSize\00", align 1
@.str.119 = private unnamed_addr constant [25 x i8] c"CSSSpellingGrammarErrors\00", align 1
@.str.120 = private unnamed_addr constant [28 x i8] c"CSSSystemColorComputeToSelf\00", align 1
@.str.121 = private unnamed_addr constant [27 x i8] c"CSSTargetTextPseudoElement\00", align 1
@.str.122 = private unnamed_addr constant [25 x i8] c"CSSVariables2ImageValues\00", align 1
@.str.123 = private unnamed_addr constant [29 x i8] c"CSSVariables2TransformValues\00", align 1
@.str.124 = private unnamed_addr constant [15 x i8] c"CullRectUpdate\00", align 1
@.str.125 = private unnamed_addr constant [26 x i8] c"CustomElementDefaultStyle\00", align 1
@.str.126 = private unnamed_addr constant [23 x i8] c"CustomStatePseudoClass\00", align 1
@.str.127 = private unnamed_addr constant [9 x i8] c"Database\00", align 1
@.str.128 = private unnamed_addr constant [21 x i8] c"DeclarativeShadowDOM\00", align 1
@.str.129 = private unnamed_addr constant [25 x i8] c"DecodeJpeg420ImagesToYUV\00", align 1
@.str.130 = private unnamed_addr constant [27 x i8] c"DecodeLossyWebPImagesToYUV\00", align 1
@.str.131 = private unnamed_addr constant [46 x i8] c"DelayAsyncScriptExecutionUntilFinishedParsing\00", align 1
@.str.132 = private unnamed_addr constant [58 x i8] c"DelayAsyncScriptExecutionUntilFirstPaintOrFinishedParsing\00", align 1
@.str.133 = private unnamed_addr constant [19 x i8] c"DelegatedInkTrails\00", align 1
@.str.134 = private unnamed_addr constant [38 x i8] c"DesktopCaptureDisableLocalEchoControl\00", align 1
@.str.135 = private unnamed_addr constant [17 x i8] c"DeviceAttributes\00", align 1
@.str.136 = private unnamed_addr constant [14 x i8] c"DevicePosture\00", align 1
@.str.137 = private unnamed_addr constant [27 x i8] c"DialogFocusNewSpecBehavior\00", align 1
@.str.138 = private unnamed_addr constant [13 x i8] c"DigitalGoods\00", align 1
@.str.139 = private unnamed_addr constant [14 x i8] c"DirectSockets\00", align 1
@.str.140 = private unnamed_addr constant [48 x i8] c"DisableDifferentOriginSubframeDialogSuppression\00", align 1
@.str.141 = private unnamed_addr constant [32 x i8] c"DisableHardwareNoiseSuppression\00", align 1
@.str.142 = private unnamed_addr constant [22 x i8] c"DisableLayerSquashing\00", align 1
@.str.143 = private unnamed_addr constant [23 x i8] c"DisallowDocumentAccess\00", align 1
@.str.144 = private unnamed_addr constant [31 x i8] c"DisplayCapturePermissionPolicy\00", align 1
@.str.145 = private unnamed_addr constant [17 x i8] c"DisplayCutoutAPI\00", align 1
@.str.146 = private unnamed_addr constant [15 x i8] c"DocumentCookie\00", align 1
@.str.147 = private unnamed_addr constant [15 x i8] c"DocumentDomain\00", align 1
@.str.148 = private unnamed_addr constant [15 x i8] c"DocumentPolicy\00", align 1
@.str.149 = private unnamed_addr constant [29 x i8] c"DocumentPolicyDocumentDomain\00", align 1
@.str.150 = private unnamed_addr constant [26 x i8] c"DocumentPolicyNegotiation\00", align 1
@.str.151 = private unnamed_addr constant [22 x i8] c"DocumentPolicySyncXHR\00", align 1
@.str.152 = private unnamed_addr constant [19 x i8] c"DocumentTransition\00", align 1
@.str.153 = private unnamed_addr constant [14 x i8] c"DocumentWrite\00", align 1
@.str.154 = private unnamed_addr constant [12 x i8] c"EditContext\00", align 1
@.str.155 = private unnamed_addr constant [10 x i8] c"EditingNG\00", align 1
@.str.156 = private unnamed_addr constant [36 x i8] c"EncryptedMediaEncryptionSchemeQuery\00", align 1
@.str.157 = private unnamed_addr constant [30 x i8] c"EncryptedMediaHdcpPolicyCheck\00", align 1
@.str.158 = private unnamed_addr constant [22 x i8] c"EnterKeyHintAttribute\00", align 1
@.str.159 = private unnamed_addr constant [12 x i8] c"EventTiming\00", align 1
@.str.160 = private unnamed_addr constant [24 x i8] c"ExecCommandInJavaScript\00", align 1
@.str.161 = private unnamed_addr constant [35 x i8] c"ExpensiveBackgroundTimerThrottling\00", align 1
@.str.162 = private unnamed_addr constant [42 x i8] c"ExperimentalContentSecurityPolicyFeatures\00", align 1
@.str.163 = private unnamed_addr constant [27 x i8] c"ExperimentalIsFramePending\00", align 1
@.str.164 = private unnamed_addr constant [27 x i8] c"ExperimentalIsInputPending\00", align 1
@.str.165 = private unnamed_addr constant [23 x i8] c"ExperimentalJSProfiler\00", align 1
@.str.166 = private unnamed_addr constant [21 x i8] c"ExperimentalPolicies\00", align 1
@.str.167 = private unnamed_addr constant [20 x i8] c"ExtendedTextMetrics\00", align 1
@.str.168 = private unnamed_addr constant [31 x i8] c"ExtraWebGLVideoTextureMetadata\00", align 1
@.str.169 = private unnamed_addr constant [14 x i8] c"EyeDropperAPI\00", align 1
@.str.170 = private unnamed_addr constant [13 x i8] c"FaceDetector\00", align 1
@.str.171 = private unnamed_addr constant [32 x i8] c"FakeNoAllocDirectCallForTesting\00", align 1
@.str.172 = private unnamed_addr constant [28 x i8] c"FeaturePolicyForClientHints\00", align 1
@.str.173 = private unnamed_addr constant [23 x i8] c"FeaturePolicyReporting\00", align 1
@.str.174 = private unnamed_addr constant [13 x i8] c"FencedFrames\00", align 1
@.str.175 = private unnamed_addr constant [21 x i8] c"FetchUploadStreaming\00", align 1
@.str.176 = private unnamed_addr constant [13 x i8] c"FileHandling\00", align 1
@.str.177 = private unnamed_addr constant [11 x i8] c"FileSystem\00", align 1
@.str.178 = private unnamed_addr constant [17 x i8] c"FileSystemAccess\00", align 1
@.str.179 = private unnamed_addr constant [32 x i8] c"FileSystemAccessAPIExperimental\00", align 1
@.str.180 = private unnamed_addr constant [23 x i8] c"FledgeInterestGroupAPI\00", align 1
@.str.181 = private unnamed_addr constant [27 x i8] c"FocuslessSpatialNavigation\00", align 1
@.str.182 = private unnamed_addr constant [11 x i8] c"FontAccess\00", align 1
@.str.183 = private unnamed_addr constant [21 x i8] c"FontAccessPersistent\00", align 1
@.str.184 = private unnamed_addr constant [21 x i8] c"FontSrcLocalMatching\00", align 1
@.str.185 = private unnamed_addr constant [13 x i8] c"ForcedColors\00", align 1
@.str.186 = private unnamed_addr constant [24 x i8] c"ForceEagerMeasureMemory\00", align 1
@.str.187 = private unnamed_addr constant [28 x i8] c"ForceOverlayFullscreenVideo\00", align 1
@.str.188 = private unnamed_addr constant [28 x i8] c"ForceSynchronousHTMLParsing\00", align 1
@.str.189 = private unnamed_addr constant [23 x i8] c"ForceTallerSelectPopup\00", align 1
@.str.190 = private unnamed_addr constant [24 x i8] c"FractionalScrollOffsets\00", align 1
@.str.191 = private unnamed_addr constant [25 x i8] c"FreezeFramesOnVisibility\00", align 1
@.str.192 = private unnamed_addr constant [24 x i8] c"GamepadButtonAxisEvents\00", align 1
@.str.193 = private unnamed_addr constant [31 x i8] c"GetCurrentBrowsingContextMedia\00", align 1
@.str.194 = private unnamed_addr constant [16 x i8] c"GetDisplayMedia\00", align 1
@.str.195 = private unnamed_addr constant [14 x i8] c"GravitySensor\00", align 1
@.str.196 = private unnamed_addr constant [12 x i8] c"GroupEffect\00", align 1
@.str.197 = private unnamed_addr constant [23 x i8] c"HandwritingRecognition\00", align 1
@.str.198 = private unnamed_addr constant [13 x i8] c"HighlightAPI\00", align 1
@.str.199 = private unnamed_addr constant [14 x i8] c"HrefTranslate\00", align 1
@.str.200 = private unnamed_addr constant [17 x i8] c"HTMLPopupElement\00", align 1
@.str.201 = private unnamed_addr constant [22 x i8] c"HTMLSelectMenuElement\00", align 1
@.str.202 = private unnamed_addr constant [10 x i8] c"IDBPutAll\00", align 1
@.str.203 = private unnamed_addr constant [21 x i8] c"IDBRelaxedDurability\00", align 1
@.str.204 = private unnamed_addr constant [14 x i8] c"IdleDetection\00", align 1
@.str.205 = private unnamed_addr constant [47 x i8] c"IgnoreCrossOriginWindowWhenNamedAccessOnWindow\00", align 1
@.str.206 = private unnamed_addr constant [21 x i8] c"ImplicitRootScroller\00", align 1
@.str.207 = private unnamed_addr constant [15 x i8] c"InertAttribute\00", align 1
@.str.208 = private unnamed_addr constant [22 x i8] c"InputMultipleFieldsUI\00", align 1
@.str.209 = private unnamed_addr constant [13 x i8] c"InstalledApp\00", align 1
@.str.210 = private unnamed_addr constant [18 x i8] c"InterestCohortAPI\00", align 1
@.str.211 = private unnamed_addr constant [28 x i8] c"InterestCohortFeaturePolicy\00", align 1
@.str.212 = private unnamed_addr constant [49 x i8] c"IntersectionObserverDocumentScrollingElementRoot\00", align 1
@.str.213 = private unnamed_addr constant [18 x i8] c"IsolatedCodeCache\00", align 1
@.str.214 = private unnamed_addr constant [26 x i8] c"KeyboardAccessibleTooltip\00", align 1
@.str.215 = private unnamed_addr constant [27 x i8] c"KeyboardFocusableScrollers\00", align 1
@.str.216 = private unnamed_addr constant [32 x i8] c"LangAttributeAwareFormControlUI\00", align 1
@.str.217 = private unnamed_addr constant [21 x i8] c"LangClientHintHeader\00", align 1
@.str.218 = private unnamed_addr constant [9 x i8] c"LayoutNG\00", align 1
@.str.219 = private unnamed_addr constant [27 x i8] c"LayoutNGBlockFragmentation\00", align 1
@.str.220 = private unnamed_addr constant [26 x i8] c"LayoutNGFragmentTraversal\00", align 1
@.str.221 = private unnamed_addr constant [29 x i8] c"LayoutNGFullPositionForPoint\00", align 1
@.str.222 = private unnamed_addr constant [13 x i8] c"LayoutNGGrid\00", align 1
@.str.223 = private unnamed_addr constant [29 x i8] c"LayoutNGLayoutOverflowRecalc\00", align 1
@.str.224 = private unnamed_addr constant [17 x i8] c"LayoutNGPrinting\00", align 1
@.str.225 = private unnamed_addr constant [17 x i8] c"LayoutNGReplaced\00", align 1
@.str.226 = private unnamed_addr constant [14 x i8] c"LayoutNGTable\00", align 1
@.str.227 = private unnamed_addr constant [20 x i8] c"LayoutNGTextCombine\00", align 1
@.str.228 = private unnamed_addr constant [20 x i8] c"LayoutNGTextControl\00", align 1
@.str.229 = private unnamed_addr constant [17 x i8] c"LazyFrameLoading\00", align 1
@.str.230 = private unnamed_addr constant [32 x i8] c"LazyFrameVisibleLoadTimeMetrics\00", align 1
@.str.231 = private unnamed_addr constant [17 x i8] c"LazyImageLoading\00", align 1
@.str.232 = private unnamed_addr constant [32 x i8] c"LazyImageVisibleLoadTimeMetrics\00", align 1
@.str.233 = private unnamed_addr constant [28 x i8] c"LazyInitializeMediaControls\00", align 1
@.str.234 = private unnamed_addr constant [32 x i8] c"LegacyWindowsDWriteFontFallback\00", align 1
@.str.235 = private unnamed_addr constant [21 x i8] c"ManagedConfiguration\00", align 1
@.str.236 = private unnamed_addr constant [17 x i8] c"ManagedInterface\00", align 1
@.str.237 = private unnamed_addr constant [11 x i8] c"MathMLCore\00", align 1
@.str.238 = private unnamed_addr constant [14 x i8] c"MeasureMemory\00", align 1
@.str.239 = private unnamed_addr constant [30 x i8] c"MediaCapabilitiesDynamicRange\00", align 1
@.str.240 = private unnamed_addr constant [30 x i8] c"MediaCapabilitiesEncodingInfo\00", align 1
@.str.241 = private unnamed_addr constant [32 x i8] c"MediaCapabilitiesEncryptedMedia\00", align 1
@.str.242 = private unnamed_addr constant [30 x i8] c"MediaCapabilitiesSpatialAudio\00", align 1
@.str.243 = private unnamed_addr constant [24 x i8] c"MediaCapabilitiesWebRtc\00", align 1
@.str.244 = private unnamed_addr constant [13 x i8] c"MediaCapture\00", align 1
@.str.245 = private unnamed_addr constant [27 x i8] c"MediaCaptureDepthVideoKind\00", align 1
@.str.246 = private unnamed_addr constant [23 x i8] c"MediaCastOverlayButton\00", align 1
@.str.247 = private unnamed_addr constant [27 x i8] c"MediaControlsExpandGesture\00", align 1
@.str.248 = private unnamed_addr constant [31 x i8] c"MediaControlsOverlayPlayButton\00", align 1
@.str.249 = private unnamed_addr constant [32 x i8] c"MediaControlsUseCutOutByDefault\00", align 1
@.str.250 = private unnamed_addr constant [28 x i8] c"MediaDocumentDownloadButton\00", align 1
@.str.251 = private unnamed_addr constant [33 x i8] c"MediaElementVolumeGreaterThanOne\00", align 1
@.str.252 = private unnamed_addr constant [38 x i8] c"MediaEngagementBypassAutoplayPolicies\00", align 1
@.str.253 = private unnamed_addr constant [17 x i8] c"MediaLatencyHint\00", align 1
@.str.254 = private unnamed_addr constant [20 x i8] c"MediaPreservesPitch\00", align 1
@.str.255 = private unnamed_addr constant [29 x i8] c"MediaQueryNavigationControls\00", align 1
@.str.256 = private unnamed_addr constant [13 x i8] c"MediaSession\00", align 1
@.str.257 = private unnamed_addr constant [21 x i8] c"MediaSessionPosition\00", align 1
@.str.258 = private unnamed_addr constant [19 x i8] c"MediaSessionWebRTC\00", align 1
@.str.259 = private unnamed_addr constant [24 x i8] c"MediaSourceExperimental\00", align 1
@.str.260 = private unnamed_addr constant [34 x i8] c"MediaSourceExtensionsForWebCodecs\00", align 1
@.str.261 = private unnamed_addr constant [21 x i8] c"MediaSourceInWorkers\00", align 1
@.str.262 = private unnamed_addr constant [31 x i8] c"MediaSourceNewAbortAndDuration\00", align 1
@.str.263 = private unnamed_addr constant [18 x i8] c"MediaSourceStable\00", align 1
@.str.264 = private unnamed_addr constant [29 x i8] c"MediaStreamInsertableStreams\00", align 1
@.str.265 = private unnamed_addr constant [22 x i8] c"MiddleClickAutoscroll\00", align 1
@.str.266 = private unnamed_addr constant [18 x i8] c"MobileLayoutTheme\00", align 1
@.str.267 = private unnamed_addr constant [18 x i8] c"ModalCloseWatcher\00", align 1
@.str.268 = private unnamed_addr constant [20 x i8] c"ModuleServiceWorker\00", align 1
@.str.269 = private unnamed_addr constant [7 x i8] c"MojoJS\00", align 1
@.str.270 = private unnamed_addr constant [11 x i8] c"MojoJSTest\00", align 1
@.str.271 = private unnamed_addr constant [31 x i8] c"MouseSubframeNoImplicitCapture\00", align 1
@.str.272 = private unnamed_addr constant [11 x i8] c"NamedPages\00", align 1
@.str.273 = private unnamed_addr constant [22 x i8] c"NavigatorContentUtils\00", align 1
@.str.274 = private unnamed_addr constant [35 x i8] c"NavigatorLanguageInInsecureContext\00", align 1
@.str.275 = private unnamed_addr constant [19 x i8] c"NetInfoDownlinkMax\00", align 1
@.str.276 = private unnamed_addr constant [14 x i8] c"NeverSlowMode\00", align 1
@.str.277 = private unnamed_addr constant [15 x i8] c"NewCanvas2DAPI\00", align 1
@.str.278 = private unnamed_addr constant [26 x i8] c"NewRemotePlaybackPipeline\00", align 1
@.str.279 = private unnamed_addr constant [26 x i8] c"NoIdleEncodingForWebTests\00", align 1
@.str.280 = private unnamed_addr constant [24 x i8] c"NotificationConstructor\00", align 1
@.str.281 = private unnamed_addr constant [25 x i8] c"NotificationContentImage\00", align 1
@.str.282 = private unnamed_addr constant [14 x i8] c"Notifications\00", align 1
@.str.283 = private unnamed_addr constant [21 x i8] c"NotificationTriggers\00", align 1
@.str.284 = private unnamed_addr constant [22 x i8] c"OffMainThreadCSSPaint\00", align 1
@.str.285 = private unnamed_addr constant [22 x i8] c"OffscreenCanvasCommit\00", align 1
@.str.286 = private unnamed_addr constant [28 x i8] c"OffsetParentNewSpecBehavior\00", align 1
@.str.287 = private unnamed_addr constant [15 x i8] c"OnDeviceChange\00", align 1
@.str.288 = private unnamed_addr constant [17 x i8] c"OrientationEvent\00", align 1
@.str.289 = private unnamed_addr constant [22 x i8] c"OriginIsolationHeader\00", align 1
@.str.290 = private unnamed_addr constant [13 x i8] c"OriginPolicy\00", align 1
@.str.291 = private unnamed_addr constant [22 x i8] c"OriginTrialsSampleAPI\00", align 1
@.str.292 = private unnamed_addr constant [31 x i8] c"OriginTrialsSampleAPIDependent\00", align 1
@.str.293 = private unnamed_addr constant [33 x i8] c"OriginTrialsSampleAPIDeprecation\00", align 1
@.str.294 = private unnamed_addr constant [29 x i8] c"OriginTrialsSampleAPIImplied\00", align 1
@.str.295 = private unnamed_addr constant [31 x i8] c"OriginTrialsSampleAPIInvalidOS\00", align 1
@.str.296 = private unnamed_addr constant [32 x i8] c"OriginTrialsSampleAPINavigation\00", align 1
@.str.297 = private unnamed_addr constant [32 x i8] c"OriginTrialsSampleAPIThirdParty\00", align 1
@.str.298 = private unnamed_addr constant [13 x i8] c"OverflowClip\00", align 1
@.str.299 = private unnamed_addr constant [24 x i8] c"OverscrollCustomization\00", align 1
@.str.300 = private unnamed_addr constant [16 x i8] c"PageFreezeOptIn\00", align 1
@.str.301 = private unnamed_addr constant [17 x i8] c"PageFreezeOptOut\00", align 1
@.str.302 = private unnamed_addr constant [10 x i8] c"PagePopup\00", align 1
@.str.303 = private unnamed_addr constant [31 x i8] c"PaintUnderInvalidationChecking\00", align 1
@.str.304 = private unnamed_addr constant [24 x i8] c"ParseUrlProtocolHandler\00", align 1
@.str.305 = private unnamed_addr constant [32 x i8] c"PassPaintVisualRectToCompositor\00", align 1
@.str.306 = private unnamed_addr constant [15 x i8] c"PasswordReveal\00", align 1
@.str.307 = private unnamed_addr constant [11 x i8] c"PaymentApp\00", align 1
@.str.308 = private unnamed_addr constant [34 x i8] c"PaymentHandlerChangePaymentMethod\00", align 1
@.str.309 = private unnamed_addr constant [40 x i8] c"PaymentHandlerHandlesShippingAndContact\00", align 1
@.str.310 = private unnamed_addr constant [24 x i8] c"PaymentHandlerMinimalUI\00", align 1
@.str.311 = private unnamed_addr constant [25 x i8] c"PaymentMethodChangeEvent\00", align 1
@.str.312 = private unnamed_addr constant [15 x i8] c"PaymentRequest\00", align 1
@.str.313 = private unnamed_addr constant [38 x i8] c"PaymentRequestMerchantValidationEvent\00", align 1
@.str.314 = private unnamed_addr constant [13 x i8] c"PaymentRetry\00", align 1
@.str.315 = private unnamed_addr constant [22 x i8] c"PercentBasedScrolling\00", align 1
@.str.316 = private unnamed_addr constant [34 x i8] c"PerformanceManagerInstrumentation\00", align 1
@.str.317 = private unnamed_addr constant [23 x i8] c"PeriodicBackgroundSync\00", align 1
@.str.318 = private unnamed_addr constant [29 x i8] c"PerMethodCanMakePaymentQuota\00", align 1
@.str.319 = private unnamed_addr constant [21 x i8] c"PermissionDelegation\00", align 1
@.str.320 = private unnamed_addr constant [12 x i8] c"Permissions\00", align 1
@.str.321 = private unnamed_addr constant [24 x i8] c"PermissionsPolicyHeader\00", align 1
@.str.322 = private unnamed_addr constant [25 x i8] c"PermissionsRequestRevoke\00", align 1
@.str.323 = private unnamed_addr constant [17 x i8] c"PictureInPicture\00", align 1
@.str.324 = private unnamed_addr constant [20 x i8] c"PictureInPictureAPI\00", align 1
@.str.325 = private unnamed_addr constant [19 x i8] c"PictureInPictureV2\00", align 1
@.str.326 = private unnamed_addr constant [6 x i8] c"PNaCl\00", align 1
@.str.327 = private unnamed_addr constant [19 x i8] c"PointerLockOptions\00", align 1
@.str.328 = private unnamed_addr constant [17 x i8] c"PointerRawUpdate\00", align 1
@.str.329 = private unnamed_addr constant [8 x i8] c"Portals\00", align 1
@.str.330 = private unnamed_addr constant [18 x i8] c"PreciseMemoryInfo\00", align 1
@.str.331 = private unnamed_addr constant [29 x i8] c"PreferNonCompositedScrolling\00", align 1
@.str.332 = private unnamed_addr constant [35 x i8] c"PrefersColorSchemeClientHintHeader\00", align 1
@.str.333 = private unnamed_addr constant [16 x i8] c"PrefersContrast\00", align 1
@.str.334 = private unnamed_addr constant [19 x i8] c"PrefersReducedData\00", align 1
@.str.335 = private unnamed_addr constant [24 x i8] c"PrefixedVideoFullscreen\00", align 1
@.str.336 = private unnamed_addr constant [11 x i8] c"Prerender2\00", align 1
@.str.337 = private unnamed_addr constant [13 x i8] c"Presentation\00", align 1
@.str.338 = private unnamed_addr constant [14 x i8] c"PriorityHints\00", align 1
@.str.339 = private unnamed_addr constant [14 x i8] c"PushMessaging\00", align 1
@.str.340 = private unnamed_addr constant [32 x i8] c"PushMessagingSubscriptionChange\00", align 1
@.str.341 = private unnamed_addr constant [12 x i8] c"QuotaChange\00", align 1
@.str.342 = private unnamed_addr constant [13 x i8] c"RawClipboard\00", align 1
@.str.343 = private unnamed_addr constant [15 x i8] c"RemotePlayback\00", align 1
@.str.344 = private unnamed_addr constant [22 x i8] c"RemotePlaybackBackend\00", align 1
@.str.345 = private unnamed_addr constant [30 x i8] c"RemoveMobileViewportDoubleTap\00", align 1
@.str.346 = private unnamed_addr constant [26 x i8] c"RequestVideoFrameCallback\00", align 1
@.str.347 = private unnamed_addr constant [45 x i8] c"RestrictAutomaticLazyFrameLoadingToDataSaver\00", align 1
@.str.348 = private unnamed_addr constant [45 x i8] c"RestrictAutomaticLazyImageLoadingToDataSaver\00", align 1
@.str.349 = private unnamed_addr constant [22 x i8] c"RestrictGamepadAccess\00", align 1
@.str.350 = private unnamed_addr constant [31 x i8] c"RtcAudioJitterBufferMaxPackets\00", align 1
@.str.351 = private unnamed_addr constant [32 x i8] c"RtcAudioJitterBufferRtxHandling\00", align 1
@.str.352 = private unnamed_addr constant [33 x i8] c"RTCExtendDeadlineForPlanBRemoval\00", align 1
@.str.353 = private unnamed_addr constant [25 x i8] c"RTCIceTransportExtension\00", align 1
@.str.354 = private unnamed_addr constant [21 x i8] c"RTCInsertableStreams\00", align 1
@.str.355 = private unnamed_addr constant [17 x i8] c"RTCQuicTransport\00", align 1
@.str.356 = private unnamed_addr constant [29 x i8] c"RTCRtpHeaderExtensionControl\00", align 1
@.str.357 = private unnamed_addr constant [22 x i8] c"RTCRtpTransceiverStop\00", align 1
@.str.358 = private unnamed_addr constant [35 x i8] c"RTCStatsRelativePacketArrivalDelay\00", align 1
@.str.359 = private unnamed_addr constant [22 x i8] c"RTCSvcScalabilityMode\00", align 1
@.str.360 = private unnamed_addr constant [15 x i8] c"RTCUnifiedPlan\00", align 1
@.str.361 = private unnamed_addr constant [24 x i8] c"RTCUnifiedPlanByDefault\00", align 1
@.str.362 = private unnamed_addr constant [25 x i8] c"SameSiteByDefaultCookies\00", align 1
@.str.363 = private unnamed_addr constant [13 x i8] c"SanitizerAPI\00", align 1
@.str.364 = private unnamed_addr constant [26 x i8] c"ScriptedSpeechRecognition\00", align 1
@.str.365 = private unnamed_addr constant [24 x i8] c"ScriptedSpeechSynthesis\00", align 1
@.str.366 = private unnamed_addr constant [16 x i8] c"ScrollbarGutter\00", align 1
@.str.367 = private unnamed_addr constant [15 x i8] c"ScrollbarWidth\00", align 1
@.str.368 = private unnamed_addr constant [20 x i8] c"ScrollCustomization\00", align 1
@.str.369 = private unnamed_addr constant [22 x i8] c"ScrollSnapAfterLayout\00", align 1
@.str.370 = private unnamed_addr constant [15 x i8] c"ScrollTimeline\00", align 1
@.str.371 = private unnamed_addr constant [21 x i8] c"ScrollTopLeftInterop\00", align 1
@.str.372 = private unnamed_addr constant [18 x i8] c"ScrollUnification\00", align 1
@.str.373 = private unnamed_addr constant [26 x i8] c"SecurePaymentConfirmation\00", align 1
@.str.374 = private unnamed_addr constant [31 x i8] c"SecurePaymentConfirmationDebug\00", align 1
@.str.375 = private unnamed_addr constant [40 x i8] c"SendBeaconThrowForBlobWithNonSimpleType\00", align 1
@.str.376 = private unnamed_addr constant [36 x i8] c"SendMouseEventsDisabledFormControls\00", align 1
@.str.377 = private unnamed_addr constant [19 x i8] c"SensorExtraClasses\00", align 1
@.str.378 = private unnamed_addr constant [7 x i8] c"Serial\00", align 1
@.str.379 = private unnamed_addr constant [34 x i8] c"ServiceWorkerClientLifecycleState\00", align 1
@.str.380 = private unnamed_addr constant [36 x i8] c"ServiceWorkerFetchEventWorkerTiming\00", align 1
@.str.381 = private unnamed_addr constant [18 x i8] c"SharedArrayBuffer\00", align 1
@.str.382 = private unnamed_addr constant [27 x i8] c"SharedArrayBufferOnDesktop\00", align 1
@.str.383 = private unnamed_addr constant [43 x i8] c"SharedArrayBufferUnrestrictedAccessAllowed\00", align 1
@.str.384 = private unnamed_addr constant [15 x i8] c"SharedAutofill\00", align 1
@.str.385 = private unnamed_addr constant [13 x i8] c"SharedWorker\00", align 1
@.str.386 = private unnamed_addr constant [24 x i8] c"SignatureBasedIntegrity\00", align 1
@.str.387 = private unnamed_addr constant [42 x i8] c"SignedExchangePrefetchCacheForNavigations\00", align 1
@.str.388 = private unnamed_addr constant [34 x i8] c"SignedExchangeSubresourcePrefetch\00", align 1
@.str.389 = private unnamed_addr constant [7 x i8] c"SkipAd\00", align 1
@.str.390 = private unnamed_addr constant [21 x i8] c"SkipTouchEventFilter\00", align 1
@.str.391 = private unnamed_addr constant [17 x i8] c"SpeculationRules\00", align 1
@.str.392 = private unnamed_addr constant [30 x i8] c"SpeculationRulesPrefetchProxy\00", align 1
@.str.393 = private unnamed_addr constant [17 x i8] c"SrcsetMaxDensity\00", align 1
@.str.394 = private unnamed_addr constant [20 x i8] c"StableBlinkFeatures\00", align 1
@.str.395 = private unnamed_addr constant [17 x i8] c"StorageAccessAPI\00", align 1
@.str.396 = private unnamed_addr constant [15 x i8] c"StorageBuckets\00", align 1
@.str.397 = private unnamed_addr constant [21 x i8] c"StorageFoundationAPI\00", align 1
@.str.398 = private unnamed_addr constant [26 x i8] c"StrictMimeTypesForWorkers\00", align 1
@.str.399 = private unnamed_addr constant [22 x i8] c"SubresourceWebBundles\00", align 1
@.str.400 = private unnamed_addr constant [10 x i8] c"SVGTextNG\00", align 1
@.str.401 = private unnamed_addr constant [15 x i8] c"SystemWakeLock\00", align 1
@.str.402 = private unnamed_addr constant [27 x i8] c"TargetBlankImpliesNoOpener\00", align 1
@.str.403 = private unnamed_addr constant [12 x i8] c"TestFeature\00", align 1
@.str.404 = private unnamed_addr constant [21 x i8] c"TestFeatureDependent\00", align 1
@.str.405 = private unnamed_addr constant [19 x i8] c"TestFeatureImplied\00", align 1
@.str.406 = private unnamed_addr constant [13 x i8] c"TextDetector\00", align 1
@.str.407 = private unnamed_addr constant [24 x i8] c"TextFragmentColorChange\00", align 1
@.str.408 = private unnamed_addr constant [24 x i8] c"TextFragmentIdentifiers\00", align 1
@.str.409 = private unnamed_addr constant [32 x i8] c"TextFragmentTapOpensContextMenu\00", align 1
@.str.410 = private unnamed_addr constant [23 x i8] c"ThirdPartyOriginTrials\00", align 1
@.str.411 = private unnamed_addr constant [57 x i8] c"ThrottleDisplayNoneAndVisibilityHiddenCrossOriginIframes\00", align 1
@.str.412 = private unnamed_addr constant [33 x i8] c"TimerThrottlingForBackgroundTabs\00", align 1
@.str.413 = private unnamed_addr constant [31 x i8] c"TimerThrottlingForHiddenFrames\00", align 1
@.str.414 = private unnamed_addr constant [20 x i8] c"TimeZoneChangeEvent\00", align 1
@.str.415 = private unnamed_addr constant [27 x i8] c"TouchEventFeatureDetection\00", align 1
@.str.416 = private unnamed_addr constant [20 x i8] c"TransferableStreams\00", align 1
@.str.417 = private unnamed_addr constant [17 x i8] c"TransformInterop\00", align 1
@.str.418 = private unnamed_addr constant [17 x i8] c"TranslateService\00", align 1
@.str.419 = private unnamed_addr constant [16 x i8] c"TrustedDOMTypes\00", align 1
@.str.420 = private unnamed_addr constant [37 x i8] c"TrustedTypeBeforePolicyCreationEvent\00", align 1
@.str.421 = private unnamed_addr constant [24 x i8] c"TrustedTypesUseCodeLike\00", align 1
@.str.422 = private unnamed_addr constant [12 x i8] c"TrustTokens\00", align 1
@.str.423 = private unnamed_addr constant [31 x i8] c"TrustTokensAlwaysAllowIssuance\00", align 1
@.str.424 = private unnamed_addr constant [29 x i8] c"UnclosedFormControlIsInvalid\00", align 1
@.str.425 = private unnamed_addr constant [25 x i8] c"UnderlineOffsetThickness\00", align 1
@.str.426 = private unnamed_addr constant [30 x i8] c"UnrestrictedSharedArrayBuffer\00", align 1
@.str.427 = private unnamed_addr constant [11 x i8] c"URLPattern\00", align 1
@.str.428 = private unnamed_addr constant [35 x i8] c"UserActivationSameOriginVisibility\00", align 1
@.str.429 = private unnamed_addr constant [20 x i8] c"UserAgentClientHint\00", align 1
@.str.430 = private unnamed_addr constant [5 x i8] c"UUID\00", align 1
@.str.431 = private unnamed_addr constant [12 x i8] c"V8IdleTasks\00", align 1
@.str.432 = private unnamed_addr constant [20 x i8] c"VideoAutoFullscreen\00", align 1
@.str.433 = private unnamed_addr constant [31 x i8] c"VideoFullscreenOrientationLock\00", align 1
@.str.434 = private unnamed_addr constant [21 x i8] c"VideoPlaybackQuality\00", align 1
@.str.435 = private unnamed_addr constant [24 x i8] c"VideoRotateToFullscreen\00", align 1
@.str.436 = private unnamed_addr constant [37 x i8] c"VideoWakeLockOptimisationHiddenMuted\00", align 1
@.str.437 = private unnamed_addr constant [16 x i8] c"VirtualKeyboard\00", align 1
@.str.438 = private unnamed_addr constant [25 x i8] c"VisibilityCollapseColumn\00", align 1
@.str.439 = private unnamed_addr constant [21 x i8] c"VisibilityStateEntry\00", align 1
@.str.440 = private unnamed_addr constant [9 x i8] c"WakeLock\00", align 1
@.str.441 = private unnamed_addr constant [17 x i8] c"WebAnimationsAPI\00", align 1
@.str.442 = private unnamed_addr constant [17 x i8] c"WebAnimationsSVG\00", align 1
@.str.443 = private unnamed_addr constant [20 x i8] c"WebAppLinkCapturing\00", align 1
@.str.444 = private unnamed_addr constant [18 x i8] c"WebAppsLockScreen\00", align 1
@.str.445 = private unnamed_addr constant [18 x i8] c"WebAppUrlHandling\00", align 1
@.str.446 = private unnamed_addr constant [28 x i8] c"WebAppWindowControlsOverlay\00", align 1
@.str.447 = private unnamed_addr constant [15 x i8] c"WebAssemblyCSP\00", align 1
@.str.448 = private unnamed_addr constant [22 x i8] c"WebAssemblyExceptions\00", align 1
@.str.449 = private unnamed_addr constant [16 x i8] c"WebAssemblySimd\00", align 1
@.str.450 = private unnamed_addr constant [8 x i8] c"WebAuth\00", align 1
@.str.451 = private unnamed_addr constant [31 x i8] c"WebAuthenticationConditionalUI\00", align 1
@.str.452 = private unnamed_addr constant [36 x i8] c"WebAuthenticationLargeBlobExtension\00", align 1
@.str.453 = private unnamed_addr constant [40 x i8] c"WebAuthenticationResidentKeyRequirement\00", align 1
@.str.454 = private unnamed_addr constant [13 x i8] c"WebBluetooth\00", align 1
@.str.455 = private unnamed_addr constant [23 x i8] c"WebBluetoothGetDevices\00", align 1
@.str.456 = private unnamed_addr constant [35 x i8] c"WebBluetoothManufacturerDataFilter\00", align 1
@.str.457 = private unnamed_addr constant [46 x i8] c"WebBluetoothRemoteCharacteristicNewWriteValue\00", align 1
@.str.458 = private unnamed_addr constant [21 x i8] c"WebBluetoothScanning\00", align 1
@.str.459 = private unnamed_addr constant [32 x i8] c"WebBluetoothWatchAdvertisements\00", align 1
@.str.460 = private unnamed_addr constant [10 x i8] c"WebCodecs\00", align 1
@.str.461 = private unnamed_addr constant [20 x i8] c"WebCryptoCurve25519\00", align 1
@.str.462 = private unnamed_addr constant [21 x i8] c"WebGLDraftExtensions\00", align 1
@.str.463 = private unnamed_addr constant [19 x i8] c"WebGLImageChromium\00", align 1
@.str.464 = private unnamed_addr constant [7 x i8] c"WebGPU\00", align 1
@.str.465 = private unnamed_addr constant [20 x i8] c"WebGPUImportTexture\00", align 1
@.str.466 = private unnamed_addr constant [7 x i8] c"WebHID\00", align 1
@.str.467 = private unnamed_addr constant [6 x i8] c"WebID\00", align 1
@.str.468 = private unnamed_addr constant [7 x i8] c"WebNFC\00", align 1
@.str.469 = private unnamed_addr constant [7 x i8] c"WebOTP\00", align 1
@.str.470 = private unnamed_addr constant [29 x i8] c"WebOTPAssertionFeaturePolicy\00", align 1
@.str.471 = private unnamed_addr constant [13 x i8] c"WebScheduler\00", align 1
@.str.472 = private unnamed_addr constant [9 x i8] c"WebShare\00", align 1
@.str.473 = private unnamed_addr constant [16 x i8] c"WebSocketStream\00", align 1
@.str.474 = private unnamed_addr constant [13 x i8] c"WebTransport\00", align 1
@.str.475 = private unnamed_addr constant [31 x i8] c"WebTransportCustomCertificates\00", align 1
@.str.476 = private unnamed_addr constant [7 x i8] c"WebUSB\00", align 1
@.str.477 = private unnamed_addr constant [25 x i8] c"WebUSBOnDedicatedWorkers\00", align 1
@.str.478 = private unnamed_addr constant [14 x i8] c"WebVTTRegions\00", align 1
@.str.479 = private unnamed_addr constant [6 x i8] c"WebXR\00", align 1
@.str.480 = private unnamed_addr constant [13 x i8] c"WebXRAnchors\00", align 1
@.str.481 = private unnamed_addr constant [14 x i8] c"WebXRARModule\00", align 1
@.str.482 = private unnamed_addr constant [18 x i8] c"WebXRCameraAccess\00", align 1
@.str.483 = private unnamed_addr constant [11 x i8] c"WebXRDepth\00", align 1
@.str.484 = private unnamed_addr constant [15 x i8] c"WebXRHandInput\00", align 1
@.str.485 = private unnamed_addr constant [13 x i8] c"WebXRHitTest\00", align 1
@.str.486 = private unnamed_addr constant [24 x i8] c"WebXRHitTestEntityTypes\00", align 1
@.str.487 = private unnamed_addr constant [19 x i8] c"WebXRImageTracking\00", align 1
@.str.488 = private unnamed_addr constant [21 x i8] c"WebXRLightEstimation\00", align 1
@.str.489 = private unnamed_addr constant [20 x i8] c"WebXRPlaneDetection\00", align 1
@.str.490 = private unnamed_addr constant [19 x i8] c"WebXRViewportScale\00", align 1
@.str.491 = private unnamed_addr constant [18 x i8] c"WheelEventRegions\00", align 1
@.str.492 = private unnamed_addr constant [16 x i8] c"WindowPlacement\00", align 1
@.str.493 = private unnamed_addr constant [15 x i8] c"WindowSegments\00", align 1
@.str.494 = private unnamed_addr constant [5 x i8] c"XSLT\00", align 1

@_ZN5blink26RuntimeEnabledFeaturesBase6BackupC1Ev = hidden unnamed_addr alias void (%"class.blink::RuntimeEnabledFeaturesBase::Backup"*), void (%"class.blink::RuntimeEnabledFeaturesBase::Backup"*)* @_ZN5blink26RuntimeEnabledFeaturesBase6BackupC2Ev

; Function Attrs: nofree norecurse nounwind ssp uwtable
define hidden void @_ZN5blink26RuntimeEnabledFeaturesBase6BackupC2Ev(%"class.blink::RuntimeEnabledFeaturesBase::Backup"*) unnamed_addr #0 align 2 {
  %2 = getelementptr inbounds %"class.blink::RuntimeEnabledFeaturesBase::Backup", %"class.blink::RuntimeEnabledFeaturesBase::Backup"* %0, i64 0, i32 0
  %3 = load i8, i8* @_ZN5blink26RuntimeEnabledFeaturesBase33is_accelerated_2d_canvas_enabled_E, align 1, !range !2
  store i8 %3, i8* %2, align 1
  %4 = getelementptr inbounds %"class.blink::RuntimeEnabledFeaturesBase::Backup", %"class.blink::RuntimeEnabledFeaturesBase::Backup"* %0, i64 0, i32 1
  %5 = load i8, i8* @_ZN5blink26RuntimeEnabledFeaturesBase38is_accelerated_small_canvases_enabled_E, align 1, !range !2
  store i8 %5, i8* %4, align 1
  %6 = getelementptr inbounds %"class.blink::RuntimeEnabledFeaturesBase::Backup", %"class.blink::RuntimeEnabledFeaturesBase::Backup"* %0, i64 0, i32 2
  %7 = load i8, i8* @_ZN5blink26RuntimeEnabledFeaturesBase48is_accessibility_aria_touch_passthrough_enabled_E, align 1, !range !2
  store i8 %7, i8* %6, align 1
  %8 = getelementptr inbounds %"class.blink::RuntimeEnabledFeaturesBase::Backup", %"class.blink::RuntimeEnabledFeaturesBase::Backup"* %0, i64 0, i32 3
  %9 = load i8, i8* @_ZN5blink26RuntimeEnabledFeaturesBase46is_accessibility_aria_virtual_content_enabled_E, align 1, !range !2
  store i8 %9, i8* %8, align 1
  %10 = getelementptr inbounds %"class.blink::RuntimeEnabledFeaturesBase::Backup", %"class.blink::RuntimeEnabledFeaturesBase::Backup"* %0, i64 0, i32 4
  %11 = load i8, i8* @_ZN5blink26RuntimeEnabledFeaturesBase45is_accessibility_expose_display_none_enabled_E, align 1, !range !2
  store i8 %11, i8* %10, align 1
  %12 = getelementptr inbounds %"class.blink::RuntimeEnabledFeaturesBase::Backup", %"class.blink::RuntimeEnabledFeaturesBase::Backup"* %0, i64 0, i32 5
  %13 = load i8, i8* @_ZN5blink26RuntimeEnabledFeaturesBase45is_accessibility_expose_html_element_enabled_E, align 1, !range !2
  store i8 %13, i8* %12, align 1
  %14 = getelementptr inbounds %"class.blink::RuntimeEnabledFeaturesBase::Backup", %"class.blink::RuntimeEnabledFeaturesBase::Backup"* %0, i64 0, i32 6
  %15 = load i8, i8* @_ZN5blink26RuntimeEnabledFeaturesBase46is_accessibility_expose_ignored_nodes_enabled_E, align 1, !range !2
  store i8 %15, i8* %14, align 1
  %16 = getelementptr inbounds %"class.blink::RuntimeEnabledFeaturesBase::Backup", %"class.blink::RuntimeEnabledFeaturesBase::Backup"* %0, i64 0, i32 7
  %17 = load i8, i8* @_ZN5blink26RuntimeEnabledFeaturesBase38is_accessibility_object_model_enabled_E, align 1, !range !2
  store i8 %17, i8* %16, align 1
  %18 = getelementptr inbounds %"class.blink::RuntimeEnabledFeaturesBase::Backup", %"class.blink::RuntimeEnabledFeaturesBase::Backup"* %0, i64 0, i32 8
  %19 = load i8, i8* @_ZN5blink26RuntimeEnabledFeaturesBase62is_accessibility_use_ax_position_for_document_markers_enabled_E, align 1, !range !2
  store i8 %19, i8* %18, align 1
  %20 = getelementptr inbounds %"class.blink::RuntimeEnabledFeaturesBase::Backup", %"class.blink::RuntimeEnabledFeaturesBase::Backup"* %0, i64 0, i32 9
  %21 = load i8, i8* @_ZN5blink26RuntimeEnabledFeaturesBase43is_add_event_listener_abort_signal_enabled_E, align 1, !range !2
  store i8 %21, i8* %20, align 1
  %22 = getelementptr inbounds %"class.blink::RuntimeEnabledFeaturesBase::Backup", %"class.blink::RuntimeEnabledFeaturesBase::Backup"* %0, i64 0, i32 10
  %23 = load i8, i8* @_ZN5blink26RuntimeEnabledFeaturesBase25is_address_space_enabled_E, align 1, !range !2
  store i8 %23, i8* %22, align 1
  %24 = getelementptr inbounds %"class.blink::RuntimeEnabledFeaturesBase::Backup", %"class.blink::RuntimeEnabledFeaturesBase::Backup"* %0, i64 0, i32 11
  %25 = load i8, i8* @_ZN5blink26RuntimeEnabledFeaturesBase22is_ad_tagging_enabled_E, align 1, !range !2
  store i8 %25, i8* %24, align 1
  %26 = getelementptr inbounds %"class.blink::RuntimeEnabledFeaturesBase::Backup", %"class.blink::RuntimeEnabledFeaturesBase::Backup"* %0, i64 0, i32 12
  %27 = load i8, i8* @_ZN5blink26RuntimeEnabledFeaturesBase44is_allow_activation_delegation_attr_enabled_E, align 1, !range !2
  store i8 %27, i8* %26, align 1
  %28 = getelementptr inbounds %"class.blink::RuntimeEnabledFeaturesBase::Backup", %"class.blink::RuntimeEnabledFeaturesBase::Backup"* %0, i64 0, i32 13
  %29 = load i8, i8* @_ZN5blink26RuntimeEnabledFeaturesBase56is_allow_content_initiated_data_url_navigations_enabled_E, align 1, !range !2
  store i8 %29, i8* %28, align 1
  %30 = getelementptr inbounds %"class.blink::RuntimeEnabledFeaturesBase::Backup", %"class.blink::RuntimeEnabledFeaturesBase::Backup"* %0, i64 0, i32 14
  %31 = load i8, i8* @_ZN5blink26RuntimeEnabledFeaturesBase44is_allow_sync_xhr_in_page_dismissal_enabled_E, align 1, !range !2
  store i8 %31, i8* %30, align 1
  %32 = getelementptr inbounds %"class.blink::RuntimeEnabledFeaturesBase::Backup", %"class.blink::RuntimeEnabledFeaturesBase::Backup"* %0, i64 0, i32 15
  %33 = load i8, i8* @_ZN5blink26RuntimeEnabledFeaturesBase47is_android_downloadable_fonts_matching_enabled_E, align 1, !range !2
  store i8 %33, i8* %32, align 1
  %34 = getelementptr inbounds %"class.blink::RuntimeEnabledFeaturesBase::Backup", %"class.blink::RuntimeEnabledFeaturesBase::Backup"* %0, i64 0, i32 16
  %35 = load i8, i8* @_ZN5blink26RuntimeEnabledFeaturesBase29is_animation_worklet_enabled_E, align 1, !range !2
  store i8 %35, i8* %34, align 1
  %36 = getelementptr inbounds %"class.blink::RuntimeEnabledFeaturesBase::Backup", %"class.blink::RuntimeEnabledFeaturesBase::Backup"* %0, i64 0, i32 17
  %37 = load i8, i8* @_ZN5blink26RuntimeEnabledFeaturesBase31is_aom_aria_properties_enabled_E, align 1, !range !2
  store i8 %37, i8* %36, align 1
  %38 = getelementptr inbounds %"class.blink::RuntimeEnabledFeaturesBase::Backup", %"class.blink::RuntimeEnabledFeaturesBase::Backup"* %0, i64 0, i32 18
  %39 = load i8, i8* @_ZN5blink26RuntimeEnabledFeaturesBase44is_aom_aria_relationship_properties_enabled_E, align 1, !range !2
  store i8 %39, i8* %38, align 1
  %40 = getelementptr inbounds %"class.blink::RuntimeEnabledFeaturesBase::Backup", %"class.blink::RuntimeEnabledFeaturesBase::Backup"* %0, i64 0, i32 19
  %41 = load i8, i8* @_ZN5blink26RuntimeEnabledFeaturesBase21is_app_cache_enabled_E, align 1, !range !2
  store i8 %41, i8* %40, align 1
  %42 = getelementptr inbounds %"class.blink::RuntimeEnabledFeaturesBase::Backup", %"class.blink::RuntimeEnabledFeaturesBase::Backup"* %0, i64 0, i32 20
  %43 = load i8, i8* @_ZN5blink26RuntimeEnabledFeaturesBase23is_app_history_enabled_E, align 1, !range !2
  store i8 %43, i8* %42, align 1
  %44 = getelementptr inbounds %"class.blink::RuntimeEnabledFeaturesBase::Backup", %"class.blink::RuntimeEnabledFeaturesBase::Backup"* %0, i64 0, i32 21
  %45 = load i8, i8* @_ZN5blink26RuntimeEnabledFeaturesBase34is_aria_touch_passthrough_enabled_E, align 1, !range !2
  store i8 %45, i8* %44, align 1
  %46 = getelementptr inbounds %"class.blink::RuntimeEnabledFeaturesBase::Backup", %"class.blink::RuntimeEnabledFeaturesBase::Backup"* %0, i64 0, i32 22
  %47 = load i8, i8* @_ZN5blink26RuntimeEnabledFeaturesBase32is_audio_output_devices_enabled_E, align 1, !range !2
  store i8 %47, i8* %46, align 1
  %48 = getelementptr inbounds %"class.blink::RuntimeEnabledFeaturesBase::Backup", %"class.blink::RuntimeEnabledFeaturesBase::Backup"* %0, i64 0, i32 23
  %49 = load i8, i8* @_ZN5blink26RuntimeEnabledFeaturesBase30is_audio_video_tracks_enabled_E, align 1, !range !2
  store i8 %49, i8* %48, align 1
  %50 = getelementptr inbounds %"class.blink::RuntimeEnabledFeaturesBase::Backup", %"class.blink::RuntimeEnabledFeaturesBase::Backup"* %0, i64 0, i32 24
  %51 = load i8, i8* @_ZN5blink26RuntimeEnabledFeaturesBase37is_auto_lazy_load_on_reloads_enabled_E, align 1, !range !2
  store i8 %51, i8* %50, align 1
  %52 = getelementptr inbounds %"class.blink::RuntimeEnabledFeaturesBase::Backup", %"class.blink::RuntimeEnabledFeaturesBase::Backup"* %0, i64 0, i32 25
  %53 = load i8, i8* @_ZN5blink26RuntimeEnabledFeaturesBase40is_automatic_lazy_frame_loading_enabled_E, align 1, !range !2
  store i8 %53, i8* %52, align 1
  %54 = getelementptr inbounds %"class.blink::RuntimeEnabledFeaturesBase::Backup", %"class.blink::RuntimeEnabledFeaturesBase::Backup"* %0, i64 0, i32 26
  %55 = load i8, i8* @_ZN5blink26RuntimeEnabledFeaturesBase40is_automatic_lazy_image_loading_enabled_E, align 1, !range !2
  store i8 %55, i8* %54, align 1
  %56 = getelementptr inbounds %"class.blink::RuntimeEnabledFeaturesBase::Backup", %"class.blink::RuntimeEnabledFeaturesBase::Backup"* %0, i64 0, i32 27
  %57 = load i8, i8* @_ZN5blink26RuntimeEnabledFeaturesBase33is_automation_controlled_enabled_E, align 1, !range !2
  store i8 %57, i8* %56, align 1
  %58 = getelementptr inbounds %"class.blink::RuntimeEnabledFeaturesBase::Backup", %"class.blink::RuntimeEnabledFeaturesBase::Backup"* %0, i64 0, i32 28
  %59 = load i8, i8* @_ZN5blink26RuntimeEnabledFeaturesBase35is_auto_picture_in_picture_enabled_E, align 1, !range !2
  store i8 %59, i8* %58, align 1
  %60 = getelementptr inbounds %"class.blink::RuntimeEnabledFeaturesBase::Backup", %"class.blink::RuntimeEnabledFeaturesBase::Backup"* %0, i64 0, i32 29
  %61 = load i8, i8* @_ZN5blink26RuntimeEnabledFeaturesBase38is_autoplay_ignores_web_audio_enabled_E, align 1, !range !2
  store i8 %61, i8* %60, align 1
  %62 = getelementptr inbounds %"class.blink::RuntimeEnabledFeaturesBase::Backup", %"class.blink::RuntimeEnabledFeaturesBase::Backup"* %0, i64 0, i32 30
  %63 = load i8, i8* @_ZN5blink26RuntimeEnabledFeaturesBase30is_back_forward_cache_enabled_E, align 1, !range !2
  store i8 %63, i8* %62, align 1
  %64 = getelementptr inbounds %"class.blink::RuntimeEnabledFeaturesBase::Backup", %"class.blink::RuntimeEnabledFeaturesBase::Backup"* %0, i64 0, i32 31
  %65 = load i8, i8* @_ZN5blink26RuntimeEnabledFeaturesBase53is_back_forward_cache_experiment_http_header_enabled_E, align 1, !range !2
  store i8 %65, i8* %64, align 1
  %66 = getelementptr inbounds %"class.blink::RuntimeEnabledFeaturesBase::Backup", %"class.blink::RuntimeEnabledFeaturesBase::Backup"* %0, i64 0, i32 32
  %67 = load i8, i8* @_ZN5blink26RuntimeEnabledFeaturesBase28is_background_fetch_enabled_E, align 1, !range !2
  store i8 %67, i8* %66, align 1
  %68 = getelementptr inbounds %"class.blink::RuntimeEnabledFeaturesBase::Backup", %"class.blink::RuntimeEnabledFeaturesBase::Backup"* %0, i64 0, i32 33
  %69 = load i8, i8* @_ZN5blink26RuntimeEnabledFeaturesBase47is_background_video_track_optimization_enabled_E, align 1, !range !2
  store i8 %69, i8* %68, align 1
  %70 = getelementptr inbounds %"class.blink::RuntimeEnabledFeaturesBase::Backup", %"class.blink::RuntimeEnabledFeaturesBase::Backup"* %0, i64 0, i32 34
  %71 = load i8, i8* @_ZN5blink26RuntimeEnabledFeaturesBase19is_badging_enabled_E, align 1, !range !2
  store i8 %71, i8* %70, align 1
  %72 = getelementptr inbounds %"class.blink::RuntimeEnabledFeaturesBase::Backup", %"class.blink::RuntimeEnabledFeaturesBase::Backup"* %0, i64 0, i32 35
  %73 = load i8, i8* @_ZN5blink26RuntimeEnabledFeaturesBase28is_barcode_detector_enabled_E, align 1, !range !2
  store i8 %73, i8* %72, align 1
  %74 = getelementptr inbounds %"class.blink::RuntimeEnabledFeaturesBase::Backup", %"class.blink::RuntimeEnabledFeaturesBase::Backup"* %0, i64 0, i32 36
  %75 = load i8, i8* @_ZN5blink26RuntimeEnabledFeaturesBase32is_battery_savings_meta_enabled_E, align 1, !range !2
  store i8 %75, i8* %74, align 1
  %76 = getelementptr inbounds %"class.blink::RuntimeEnabledFeaturesBase::Backup", %"class.blink::RuntimeEnabledFeaturesBase::Backup"* %0, i64 0, i32 37
  %77 = load i8, i8* @_ZN5blink26RuntimeEnabledFeaturesBase30is_before_match_event_enabled_E, align 1, !range !2
  store i8 %77, i8* %76, align 1
  %78 = getelementptr inbounds %"class.blink::RuntimeEnabledFeaturesBase::Backup", %"class.blink::RuntimeEnabledFeaturesBase::Backup"* %0, i64 0, i32 38
  %79 = load i8, i8* @_ZN5blink26RuntimeEnabledFeaturesBase31is_bidi_caret_affinity_enabled_E, align 1, !range !2
  store i8 %79, i8* %78, align 1
  %80 = getelementptr inbounds %"class.blink::RuntimeEnabledFeaturesBase::Backup", %"class.blink::RuntimeEnabledFeaturesBase::Backup"* %0, i64 0, i32 39
  %81 = load i8, i8* @_ZN5blink26RuntimeEnabledFeaturesBase36is_blink_runtime_call_stats_enabled_E, align 1, !range !2
  store i8 %81, i8* %80, align 1
  %82 = getelementptr inbounds %"class.blink::RuntimeEnabledFeaturesBase::Backup", %"class.blink::RuntimeEnabledFeaturesBase::Backup"* %0, i64 0, i32 40
  %83 = load i8, i8* @_ZN5blink26RuntimeEnabledFeaturesBase43is_block_credentialed_subresources_enabled_E, align 1, !range !2
  store i8 %83, i8* %82, align 1
  %84 = getelementptr inbounds %"class.blink::RuntimeEnabledFeaturesBase::Backup", %"class.blink::RuntimeEnabledFeaturesBase::Backup"* %0, i64 0, i32 41
  %85 = load i8, i8* @_ZN5blink26RuntimeEnabledFeaturesBase41is_blocking_downloads_in_sandbox_enabled_E, align 1, !range !2
  store i8 %85, i8* %84, align 1
  %86 = getelementptr inbounds %"class.blink::RuntimeEnabledFeaturesBase::Backup", %"class.blink::RuntimeEnabledFeaturesBase::Backup"* %0, i64 0, i32 42
  %87 = load i8, i8* @_ZN5blink26RuntimeEnabledFeaturesBase50is_blocking_focus_without_user_activation_enabled_E, align 1, !range !2
  store i8 %87, i8* %86, align 1
  %88 = getelementptr inbounds %"class.blink::RuntimeEnabledFeaturesBase::Backup", %"class.blink::RuntimeEnabledFeaturesBase::Backup"* %0, i64 0, i32 43
  %89 = load i8, i8* @_ZN5blink26RuntimeEnabledFeaturesBase53is_browser_verified_user_activation_keyboard_enabled_E, align 1, !range !2
  store i8 %89, i8* %88, align 1
  %90 = getelementptr inbounds %"class.blink::RuntimeEnabledFeaturesBase::Backup", %"class.blink::RuntimeEnabledFeaturesBase::Backup"* %0, i64 0, i32 44
  %91 = load i8, i8* @_ZN5blink26RuntimeEnabledFeaturesBase50is_browser_verified_user_activation_mouse_enabled_E, align 1, !range !2
  store i8 %91, i8* %90, align 1
  %92 = getelementptr inbounds %"class.blink::RuntimeEnabledFeaturesBase::Backup", %"class.blink::RuntimeEnabledFeaturesBase::Backup"* %0, i64 0, i32 45
  %93 = load i8, i8* @_ZN5blink26RuntimeEnabledFeaturesBase36is_cache_inline_script_code_enabled_E, align 1, !range !2
  store i8 %93, i8* %92, align 1
  %94 = getelementptr inbounds %"class.blink::RuntimeEnabledFeaturesBase::Backup", %"class.blink::RuntimeEnabledFeaturesBase::Backup"* %0, i64 0, i32 46
  %95 = load i8, i8* @_ZN5blink26RuntimeEnabledFeaturesBase41is_cache_storage_code_cache_hint_enabled_E, align 1, !range !2
  store i8 %95, i8* %94, align 1
  %96 = getelementptr inbounds %"class.blink::RuntimeEnabledFeaturesBase::Backup", %"class.blink::RuntimeEnabledFeaturesBase::Backup"* %0, i64 0, i32 47
  %97 = load i8, i8* @_ZN5blink26RuntimeEnabledFeaturesBase36is_canvas_2d_image_chromium_enabled_E, align 1, !range !2
  store i8 %97, i8* %96, align 1
  %98 = getelementptr inbounds %"class.blink::RuntimeEnabledFeaturesBase::Backup", %"class.blink::RuntimeEnabledFeaturesBase::Backup"* %0, i64 0, i32 48
  %99 = load i8, i8* @_ZN5blink26RuntimeEnabledFeaturesBase43is_canvas_2d_scroll_path_into_view_enabled_E, align 1, !range !2
  store i8 %99, i8* %98, align 1
  %100 = getelementptr inbounds %"class.blink::RuntimeEnabledFeaturesBase::Backup", %"class.blink::RuntimeEnabledFeaturesBase::Backup"* %0, i64 0, i32 49
  %101 = load i8, i8* @_ZN5blink26RuntimeEnabledFeaturesBase35is_canvas_color_management_enabled_E, align 1, !range !2
  store i8 %101, i8* %100, align 1
  %102 = getelementptr inbounds %"class.blink::RuntimeEnabledFeaturesBase::Backup", %"class.blink::RuntimeEnabledFeaturesBase::Backup"* %0, i64 0, i32 50
  %103 = load i8, i8* @_ZN5blink26RuntimeEnabledFeaturesBase33is_canvas_formatted_text_enabled_E, align 1, !range !2
  store i8 %103, i8* %102, align 1
  %104 = getelementptr inbounds %"class.blink::RuntimeEnabledFeaturesBase::Backup", %"class.blink::RuntimeEnabledFeaturesBase::Backup"* %0, i64 0, i32 51
  %105 = load i8, i8* @_ZN5blink26RuntimeEnabledFeaturesBase29is_canvas_hit_region_enabled_E, align 1, !range !2
  store i8 %105, i8* %104, align 1
  %106 = getelementptr inbounds %"class.blink::RuntimeEnabledFeaturesBase::Backup", %"class.blink::RuntimeEnabledFeaturesBase::Backup"* %0, i64 0, i32 52
  %107 = load i8, i8* @_ZN5blink26RuntimeEnabledFeaturesBase34is_canvas_image_smoothing_enabled_E, align 1, !range !2
  store i8 %107, i8* %106, align 1
  %108 = getelementptr inbounds %"class.blink::RuntimeEnabledFeaturesBase::Backup", %"class.blink::RuntimeEnabledFeaturesBase::Backup"* %0, i64 0, i32 53
  %109 = load i8, i8* @_ZN5blink26RuntimeEnabledFeaturesBase33is_capability_delegation_enabled_E, align 1, !range !2
  store i8 %109, i8* %108, align 1
  %110 = getelementptr inbounds %"class.blink::RuntimeEnabledFeaturesBase::Backup", %"class.blink::RuntimeEnabledFeaturesBase::Backup"* %0, i64 0, i32 54
  %111 = load i8, i8* @_ZN5blink26RuntimeEnabledFeaturesBase49is_capability_delegation_payment_request_enabled_E, align 1, !range !2
  store i8 %111, i8* %110, align 1
  %112 = getelementptr inbounds %"class.blink::RuntimeEnabledFeaturesBase::Backup", %"class.blink::RuntimeEnabledFeaturesBase::Backup"* %0, i64 0, i32 55
  %113 = load i8, i8* @_ZN5blink26RuntimeEnabledFeaturesBase26is_capture_handle_enabled_E, align 1, !range !2
  store i8 %113, i8* %112, align 1
  %114 = getelementptr inbounds %"class.blink::RuntimeEnabledFeaturesBase::Backup", %"class.blink::RuntimeEnabledFeaturesBase::Backup"* %0, i64 0, i32 56
  %115 = load i8, i8* @_ZN5blink26RuntimeEnabledFeaturesBase32is_capture_time_in_csrc_enabled_E, align 1, !range !2
  store i8 %115, i8* %114, align 1
  %116 = getelementptr inbounds %"class.blink::RuntimeEnabledFeaturesBase::Backup", %"class.blink::RuntimeEnabledFeaturesBase::Backup"* %0, i64 0, i32 57
  %117 = load i8, i8* @_ZN5blink26RuntimeEnabledFeaturesBase31is_click_pointer_event_enabled_E, align 1, !range !2
  store i8 %117, i8* %116, align 1
  %118 = getelementptr inbounds %"class.blink::RuntimeEnabledFeaturesBase::Backup", %"class.blink::RuntimeEnabledFeaturesBase::Backup"* %0, i64 0, i32 58
  %119 = load i8, i8* @_ZN5blink26RuntimeEnabledFeaturesBase30is_click_retargetting_enabled_E, align 1, !range !2
  store i8 %119, i8* %118, align 1
  %120 = getelementptr inbounds %"class.blink::RuntimeEnabledFeaturesBase::Backup", %"class.blink::RuntimeEnabledFeaturesBase::Backup"* %0, i64 0, i32 59
  %121 = load i8, i8* @_ZN5blink26RuntimeEnabledFeaturesBase25is_clipboard_svg_enabled_E, align 1, !range !2
  store i8 %121, i8* %120, align 1
  %122 = getelementptr inbounds %"class.blink::RuntimeEnabledFeaturesBase::Backup", %"class.blink::RuntimeEnabledFeaturesBase::Backup"* %0, i64 0, i32 60
  %123 = load i8, i8* @_ZN5blink26RuntimeEnabledFeaturesBase25is_colrv_1_fonts_enabled_E, align 1, !range !2
  store i8 %123, i8* %122, align 1
  %124 = getelementptr inbounds %"class.blink::RuntimeEnabledFeaturesBase::Backup", %"class.blink::RuntimeEnabledFeaturesBase::Backup"* %0, i64 0, i32 61
  %125 = load i8, i8* @_ZN5blink26RuntimeEnabledFeaturesBase33is_composite_after_paint_enabled_E, align 1, !range !2
  store i8 %125, i8* %124, align 1
  %126 = getelementptr inbounds %"class.blink::RuntimeEnabledFeaturesBase::Backup", %"class.blink::RuntimeEnabledFeaturesBase::Backup"* %0, i64 0, i32 62
  %127 = load i8, i8* @_ZN5blink26RuntimeEnabledFeaturesBase40is_composite_bg_color_animation_enabled_E, align 1, !range !2
  store i8 %127, i8* %126, align 1
  %128 = getelementptr inbounds %"class.blink::RuntimeEnabledFeaturesBase::Backup", %"class.blink::RuntimeEnabledFeaturesBase::Backup"* %0, i64 0, i32 63
  %129 = load i8, i8* @_ZN5blink26RuntimeEnabledFeaturesBase41is_composite_clip_path_animation_enabled_E, align 1, !range !2
  store i8 %129, i8* %128, align 1
  %130 = getelementptr inbounds %"class.blink::RuntimeEnabledFeaturesBase::Backup", %"class.blink::RuntimeEnabledFeaturesBase::Backup"* %0, i64 0, i32 64
  %131 = load i8, i8* @_ZN5blink26RuntimeEnabledFeaturesBase39is_composited_selection_update_enabled_E, align 1, !range !2
  store i8 %131, i8* %130, align 1
  %132 = getelementptr inbounds %"class.blink::RuntimeEnabledFeaturesBase::Backup", %"class.blink::RuntimeEnabledFeaturesBase::Backup"* %0, i64 0, i32 65
  %133 = load i8, i8* @_ZN5blink26RuntimeEnabledFeaturesBase40is_composite_relative_keyframes_enabled_E, align 1, !range !2
  store i8 %133, i8* %132, align 1
  %134 = getelementptr inbounds %"class.blink::RuntimeEnabledFeaturesBase::Backup", %"class.blink::RuntimeEnabledFeaturesBase::Backup"* %0, i64 0, i32 66
  %135 = load i8, i8* @_ZN5blink26RuntimeEnabledFeaturesBase25is_composite_svg_enabled_E, align 1, !range !2
  store i8 %135, i8* %134, align 1
  %136 = getelementptr inbounds %"class.blink::RuntimeEnabledFeaturesBase::Backup", %"class.blink::RuntimeEnabledFeaturesBase::Backup"* %0, i64 0, i32 67
  %137 = load i8, i8* @_ZN5blink26RuntimeEnabledFeaturesBase39is_computed_accessibility_info_enabled_E, align 1, !range !2
  store i8 %137, i8* %136, align 1
  %138 = getelementptr inbounds %"class.blink::RuntimeEnabledFeaturesBase::Backup", %"class.blink::RuntimeEnabledFeaturesBase::Backup"* %0, i64 0, i32 68
  %139 = load i8, i8* @_ZN5blink26RuntimeEnabledFeaturesBase28is_compute_pressure_enabled_E, align 1, !range !2
  store i8 %139, i8* %138, align 1
  %140 = getelementptr inbounds %"class.blink::RuntimeEnabledFeaturesBase::Backup", %"class.blink::RuntimeEnabledFeaturesBase::Backup"* %0, i64 0, i32 69
  %141 = load i8, i8* @_ZN5blink26RuntimeEnabledFeaturesBase36is_consolidated_movement_xy_enabled_E, align 1, !range !2
  store i8 %141, i8* %140, align 1
  %142 = getelementptr inbounds %"class.blink::RuntimeEnabledFeaturesBase::Backup", %"class.blink::RuntimeEnabledFeaturesBase::Backup"* %0, i64 0, i32 70
  %143 = load i8, i8* @_ZN5blink26RuntimeEnabledFeaturesBase28is_contacts_manager_enabled_E, align 1, !range !2
  store i8 %143, i8* %142, align 1
  %144 = getelementptr inbounds %"class.blink::RuntimeEnabledFeaturesBase::Backup", %"class.blink::RuntimeEnabledFeaturesBase::Backup"* %0, i64 0, i32 71
  %145 = load i8, i8* @_ZN5blink26RuntimeEnabledFeaturesBase45is_contacts_manager_extra_properties_enabled_E, align 1, !range !2
  store i8 %145, i8* %144, align 1
  %146 = getelementptr inbounds %"class.blink::RuntimeEnabledFeaturesBase::Backup", %"class.blink::RuntimeEnabledFeaturesBase::Backup"* %0, i64 0, i32 72
  %147 = load i8, i8* @_ZN5blink26RuntimeEnabledFeaturesBase25is_content_index_enabled_E, align 1, !range !2
  store i8 %147, i8* %146, align 1
  %148 = getelementptr inbounds %"class.blink::RuntimeEnabledFeaturesBase::Backup", %"class.blink::RuntimeEnabledFeaturesBase::Backup"* %0, i64 0, i32 73
  %149 = load i8, i8* @_ZN5blink26RuntimeEnabledFeaturesBase24is_context_menu_enabled_E, align 1, !range !2
  store i8 %149, i8* %148, align 1
  %150 = getelementptr inbounds %"class.blink::RuntimeEnabledFeaturesBase::Backup", %"class.blink::RuntimeEnabledFeaturesBase::Backup"* %0, i64 0, i32 74
  %151 = load i8, i8* @_ZN5blink26RuntimeEnabledFeaturesBase34is_conversion_measurement_enabled_E, align 1, !range !2
  store i8 %151, i8* %150, align 1
  %152 = getelementptr inbounds %"class.blink::RuntimeEnabledFeaturesBase::Backup", %"class.blink::RuntimeEnabledFeaturesBase::Backup"* %0, i64 0, i32 75
  %153 = load i8, i8* @_ZN5blink26RuntimeEnabledFeaturesBase48is_conversion_measurement_infra_support_enabled_E, align 1, !range !2
  store i8 %153, i8* %152, align 1
  %154 = getelementptr inbounds %"class.blink::RuntimeEnabledFeaturesBase::Backup", %"class.blink::RuntimeEnabledFeaturesBase::Backup"* %0, i64 0, i32 76
  %155 = load i8, i8* @_ZN5blink26RuntimeEnabledFeaturesBase52is_cookies_without_same_site_must_be_secure_enabled_E, align 1, !range !2
  store i8 %155, i8* %154, align 1
  %156 = getelementptr inbounds %"class.blink::RuntimeEnabledFeaturesBase::Backup", %"class.blink::RuntimeEnabledFeaturesBase::Backup"* %0, i64 0, i32 77
  %157 = load i8, i8* @_ZN5blink26RuntimeEnabledFeaturesBase34is_cooperative_scheduling_enabled_E, align 1, !range !2
  store i8 %157, i8* %156, align 1
  %158 = getelementptr inbounds %"class.blink::RuntimeEnabledFeaturesBase::Backup", %"class.blink::RuntimeEnabledFeaturesBase::Backup"* %0, i64 0, i32 78
  %159 = load i8, i8* @_ZN5blink26RuntimeEnabledFeaturesBase25is_cors_rfc_1918_enabled_E, align 1, !range !2
  store i8 %159, i8* %158, align 1
  %160 = getelementptr inbounds %"class.blink::RuntimeEnabledFeaturesBase::Backup", %"class.blink::RuntimeEnabledFeaturesBase::Backup"* %0, i64 0, i32 79
  %161 = load i8, i8* @_ZN5blink26RuntimeEnabledFeaturesBase34is_cross_origin_isolation_enabled_E, align 1, !range !2
  store i8 %161, i8* %160, align 1
  %162 = getelementptr inbounds %"class.blink::RuntimeEnabledFeaturesBase::Backup", %"class.blink::RuntimeEnabledFeaturesBase::Backup"* %0, i64 0, i32 80
  %163 = load i8, i8* @_ZN5blink26RuntimeEnabledFeaturesBase48is_cross_origin_opener_policy_reporting_enabled_E, align 1, !range !2
  store i8 %163, i8* %162, align 1
  %164 = getelementptr inbounds %"class.blink::RuntimeEnabledFeaturesBase::Backup", %"class.blink::RuntimeEnabledFeaturesBase::Backup"* %0, i64 0, i32 81
  %165 = load i8, i8* @_ZN5blink26RuntimeEnabledFeaturesBase22is_css_3_text_enabled_E, align 1, !range !2
  store i8 %165, i8* %164, align 1
  %166 = getelementptr inbounds %"class.blink::RuntimeEnabledFeaturesBase::Backup", %"class.blink::RuntimeEnabledFeaturesBase::Backup"* %0, i64 0, i32 82
  %167 = load i8, i8* @_ZN5blink26RuntimeEnabledFeaturesBase28is_css_accent_color_enabled_E, align 1, !range !2
  store i8 %167, i8* %166, align 1
  %168 = getelementptr inbounds %"class.blink::RuntimeEnabledFeaturesBase::Backup", %"class.blink::RuntimeEnabledFeaturesBase::Backup"* %0, i64 0, i32 83
  %169 = load i8, i8* @_ZN5blink26RuntimeEnabledFeaturesBase51is_css_at_rule_counter_style_image_symbols_enabled_E, align 1, !range !2
  store i8 %169, i8* %168, align 1
  %170 = getelementptr inbounds %"class.blink::RuntimeEnabledFeaturesBase::Backup", %"class.blink::RuntimeEnabledFeaturesBase::Backup"* %0, i64 0, i32 84
  %171 = load i8, i8* @_ZN5blink26RuntimeEnabledFeaturesBase51is_css_at_rule_counter_style_in_shadow_dom_enabled_E, align 1, !range !2
  store i8 %171, i8* %170, align 1
  %172 = getelementptr inbounds %"class.blink::RuntimeEnabledFeaturesBase::Backup", %"class.blink::RuntimeEnabledFeaturesBase::Backup"* %0, i64 0, i32 85
  %173 = load i8, i8* @_ZN5blink26RuntimeEnabledFeaturesBase27is_css_calc_as_int_enabled_E, align 1, !range !2
  store i8 %173, i8* %172, align 1
  %174 = getelementptr inbounds %"class.blink::RuntimeEnabledFeaturesBase::Backup", %"class.blink::RuntimeEnabledFeaturesBase::Backup"* %0, i64 0, i32 86
  %175 = load i8, i8* @_ZN5blink26RuntimeEnabledFeaturesBase38is_css_calc_infinity_and_na_n_enabled_E, align 1, !range !2
  store i8 %175, i8* %174, align 1
  %176 = getelementptr inbounds %"class.blink::RuntimeEnabledFeaturesBase::Backup", %"class.blink::RuntimeEnabledFeaturesBase::Backup"* %0, i64 0, i32 87
  %177 = load i8, i8* @_ZN5blink26RuntimeEnabledFeaturesBase39is_css_case_sensitive_selector_enabled_E, align 1, !range !2
  store i8 %177, i8* %176, align 1
  %178 = getelementptr inbounds %"class.blink::RuntimeEnabledFeaturesBase::Backup", %"class.blink::RuntimeEnabledFeaturesBase::Backup"* %0, i64 0, i32 88
  %179 = load i8, i8* @_ZN5blink26RuntimeEnabledFeaturesBase30is_css_color_typed_om_enabled_E, align 1, !range !2
  store i8 %179, i8* %178, align 1
  %180 = getelementptr inbounds %"class.blink::RuntimeEnabledFeaturesBase::Backup", %"class.blink::RuntimeEnabledFeaturesBase::Backup"* %0, i64 0, i32 89
  %181 = load i8, i8* @_ZN5blink26RuntimeEnabledFeaturesBase33is_css_container_queries_enabled_E, align 1, !range !2
  store i8 %181, i8* %180, align 1
  %182 = getelementptr inbounds %"class.blink::RuntimeEnabledFeaturesBase::Backup", %"class.blink::RuntimeEnabledFeaturesBase::Backup"* %0, i64 0, i32 90
  %183 = load i8, i8* @_ZN5blink26RuntimeEnabledFeaturesBase31is_css_contain_size_1d_enabled_E, align 1, !range !2
  store i8 %183, i8* %182, align 1
  %184 = getelementptr inbounds %"class.blink::RuntimeEnabledFeaturesBase::Backup", %"class.blink::RuntimeEnabledFeaturesBase::Backup"* %0, i64 0, i32 91
  %185 = load i8, i8* @_ZN5blink26RuntimeEnabledFeaturesBase34is_css_content_visibility_enabled_E, align 1, !range !2
  store i8 %185, i8* %184, align 1
  %186 = getelementptr inbounds %"class.blink::RuntimeEnabledFeaturesBase::Backup", %"class.blink::RuntimeEnabledFeaturesBase::Backup"* %0, i64 0, i32 92
  %187 = load i8, i8* @_ZN5blink26RuntimeEnabledFeaturesBase51is_css_content_visibility_hidden_matchable_enabled_E, align 1, !range !2
  store i8 %187, i8* %186, align 1
  %188 = getelementptr inbounds %"class.blink::RuntimeEnabledFeaturesBase::Backup", %"class.blink::RuntimeEnabledFeaturesBase::Backup"* %0, i64 0, i32 93
  %189 = load i8, i8* @_ZN5blink26RuntimeEnabledFeaturesBase29is_css_focus_visible_enabled_E, align 1, !range !2
  store i8 %189, i8* %188, align 1
  %190 = getelementptr inbounds %"class.blink::RuntimeEnabledFeaturesBase::Backup", %"class.blink::RuntimeEnabledFeaturesBase::Backup"* %0, i64 0, i32 94
  %191 = load i8, i8* @_ZN5blink26RuntimeEnabledFeaturesBase25is_css_foldables_enabled_E, align 1, !range !2
  store i8 %191, i8* %190, align 1
  %192 = getelementptr inbounds %"class.blink::RuntimeEnabledFeaturesBase::Backup", %"class.blink::RuntimeEnabledFeaturesBase::Backup"* %0, i64 0, i32 95
  %193 = load i8, i8* @_ZN5blink26RuntimeEnabledFeaturesBase37is_css_font_face_size_adjust_enabled_E, align 1, !range !2
  store i8 %193, i8* %192, align 1
  %194 = getelementptr inbounds %"class.blink::RuntimeEnabledFeaturesBase::Backup", %"class.blink::RuntimeEnabledFeaturesBase::Backup"* %0, i64 0, i32 96
  %195 = load i8, i8* @_ZN5blink26RuntimeEnabledFeaturesBase32is_css_font_size_adjust_enabled_E, align 1, !range !2
  store i8 %195, i8* %194, align 1
  %196 = getelementptr inbounds %"class.blink::RuntimeEnabledFeaturesBase::Backup", %"class.blink::RuntimeEnabledFeaturesBase::Backup"* %0, i64 0, i32 97
  %197 = load i8, i8* @_ZN5blink26RuntimeEnabledFeaturesBase31is_css_hex_alpha_color_enabled_E, align 1, !range !2
  store i8 %197, i8* %196, align 1
  %198 = getelementptr inbounds %"class.blink::RuntimeEnabledFeaturesBase::Backup", %"class.blink::RuntimeEnabledFeaturesBase::Backup"* %0, i64 0, i32 98
  %199 = load i8, i8* @_ZN5blink26RuntimeEnabledFeaturesBase48is_css_independent_transform_properties_enabled_E, align 1, !range !2
  store i8 %199, i8* %198, align 1
  %200 = getelementptr inbounds %"class.blink::RuntimeEnabledFeaturesBase::Backup", %"class.blink::RuntimeEnabledFeaturesBase::Backup"* %0, i64 0, i32 99
  %201 = load i8, i8* @_ZN5blink26RuntimeEnabledFeaturesBase26is_css_layout_api_enabled_E, align 1, !range !2
  store i8 %201, i8* %200, align 1
  %202 = getelementptr inbounds %"class.blink::RuntimeEnabledFeaturesBase::Backup", %"class.blink::RuntimeEnabledFeaturesBase::Backup"* %0, i64 0, i32 100
  %203 = load i8, i8* @_ZN5blink26RuntimeEnabledFeaturesBase23is_css_logical_enabled_E, align 1, !range !2
  store i8 %203, i8* %202, align 1
  %204 = getelementptr inbounds %"class.blink::RuntimeEnabledFeaturesBase::Backup", %"class.blink::RuntimeEnabledFeaturesBase::Backup"* %0, i64 0, i32 101
  %205 = load i8, i8* @_ZN5blink26RuntimeEnabledFeaturesBase32is_css_logical_overflow_enabled_E, align 1, !range !2
  store i8 %205, i8* %204, align 1
  %206 = getelementptr inbounds %"class.blink::RuntimeEnabledFeaturesBase::Backup", %"class.blink::RuntimeEnabledFeaturesBase::Backup"* %0, i64 0, i32 102
  %207 = load i8, i8* @_ZN5blink26RuntimeEnabledFeaturesBase44is_css_marker_nested_pseudo_element_enabled_E, align 1, !range !2
  store i8 %207, i8* %206, align 1
  %208 = getelementptr inbounds %"class.blink::RuntimeEnabledFeaturesBase::Backup", %"class.blink::RuntimeEnabledFeaturesBase::Backup"* %0, i64 0, i32 103
  %209 = load i8, i8* @_ZN5blink26RuntimeEnabledFeaturesBase26is_css_math_depth_enabled_E, align 1, !range !2
  store i8 %209, i8* %208, align 1
  %210 = getelementptr inbounds %"class.blink::RuntimeEnabledFeaturesBase::Backup", %"class.blink::RuntimeEnabledFeaturesBase::Backup"* %0, i64 0, i32 104
  %211 = load i8, i8* @_ZN5blink26RuntimeEnabledFeaturesBase26is_css_math_shift_enabled_E, align 1, !range !2
  store i8 %211, i8* %210, align 1
  %212 = getelementptr inbounds %"class.blink::RuntimeEnabledFeaturesBase::Backup", %"class.blink::RuntimeEnabledFeaturesBase::Backup"* %0, i64 0, i32 105
  %213 = load i8, i8* @_ZN5blink26RuntimeEnabledFeaturesBase26is_css_math_style_enabled_E, align 1, !range !2
  store i8 %213, i8* %212, align 1
  %214 = getelementptr inbounds %"class.blink::RuntimeEnabledFeaturesBase::Backup", %"class.blink::RuntimeEnabledFeaturesBase::Backup"* %0, i64 0, i32 106
  %215 = load i8, i8* @_ZN5blink26RuntimeEnabledFeaturesBase28is_css_math_variant_enabled_E, align 1, !range !2
  store i8 %215, i8* %214, align 1
  %216 = getelementptr inbounds %"class.blink::RuntimeEnabledFeaturesBase::Backup", %"class.blink::RuntimeEnabledFeaturesBase::Backup"* %0, i64 0, i32 107
  %217 = load i8, i8* @_ZN5blink26RuntimeEnabledFeaturesBase23is_css_modules_enabled_E, align 1, !range !2
  store i8 %217, i8* %216, align 1
  %218 = getelementptr inbounds %"class.blink::RuntimeEnabledFeaturesBase::Backup", %"class.blink::RuntimeEnabledFeaturesBase::Backup"* %0, i64 0, i32 108
  %219 = load i8, i8* @_ZN5blink26RuntimeEnabledFeaturesBase31is_css_offset_path_ray_enabled_E, align 1, !range !2
  store i8 %219, i8* %218, align 1
  %220 = getelementptr inbounds %"class.blink::RuntimeEnabledFeaturesBase::Backup", %"class.blink::RuntimeEnabledFeaturesBase::Backup"* %0, i64 0, i32 109
  %221 = load i8, i8* @_ZN5blink26RuntimeEnabledFeaturesBase39is_css_offset_path_ray_contain_enabled_E, align 1, !range !2
  store i8 %221, i8* %220, align 1
  %222 = getelementptr inbounds %"class.blink::RuntimeEnabledFeaturesBase::Backup", %"class.blink::RuntimeEnabledFeaturesBase::Backup"* %0, i64 0, i32 110
  %223 = load i8, i8* @_ZN5blink26RuntimeEnabledFeaturesBase38is_css_offset_position_anchor_enabled_E, align 1, !range !2
  store i8 %223, i8* %222, align 1
  %224 = getelementptr inbounds %"class.blink::RuntimeEnabledFeaturesBase::Backup", %"class.blink::RuntimeEnabledFeaturesBase::Backup"* %0, i64 0, i32 111
  %225 = load i8, i8* @_ZN5blink26RuntimeEnabledFeaturesBase35is_css_paint_api_arguments_enabled_E, align 1, !range !2
  store i8 %225, i8* %224, align 1
  %226 = getelementptr inbounds %"class.blink::RuntimeEnabledFeaturesBase::Backup", %"class.blink::RuntimeEnabledFeaturesBase::Backup"* %0, i64 0, i32 112
  %227 = load i8, i8* @_ZN5blink26RuntimeEnabledFeaturesBase34is_css_picture_in_picture_enabled_E, align 1, !range !2
  store i8 %227, i8* %226, align 1
  %228 = getelementptr inbounds %"class.blink::RuntimeEnabledFeaturesBase::Backup", %"class.blink::RuntimeEnabledFeaturesBase::Backup"* %0, i64 0, i32 113
  %229 = load i8, i8* @_ZN5blink26RuntimeEnabledFeaturesBase54is_css_position_sticky_static_scroll_position_enabled_E, align 1, !range !2
  store i8 %229, i8* %228, align 1
  %230 = getelementptr inbounds %"class.blink::RuntimeEnabledFeaturesBase::Backup", %"class.blink::RuntimeEnabledFeaturesBase::Backup"* %0, i64 0, i32 114
  %231 = load i8, i8* @_ZN5blink26RuntimeEnabledFeaturesBase26is_css_pseudo_dir_enabled_E, align 1, !range !2
  store i8 %231, i8* %230, align 1
  %232 = getelementptr inbounds %"class.blink::RuntimeEnabledFeaturesBase::Backup", %"class.blink::RuntimeEnabledFeaturesBase::Backup"* %0, i64 0, i32 115
  %233 = load i8, i8* @_ZN5blink26RuntimeEnabledFeaturesBase37is_css_pseudo_playing_paused_enabled_E, align 1, !range !2
  store i8 %233, i8* %232, align 1
  %234 = getelementptr inbounds %"class.blink::RuntimeEnabledFeaturesBase::Backup", %"class.blink::RuntimeEnabledFeaturesBase::Backup"* %0, i64 0, i32 116
  %235 = load i8, i8* @_ZN5blink26RuntimeEnabledFeaturesBase26is_css_scrollbars_enabled_E, align 1, !range !2
  store i8 %235, i8* %234, align 1
  %236 = getelementptr inbounds %"class.blink::RuntimeEnabledFeaturesBase::Backup", %"class.blink::RuntimeEnabledFeaturesBase::Backup"* %0, i64 0, i32 117
  %237 = load i8, i8* @_ZN5blink26RuntimeEnabledFeaturesBase31is_css_scroll_timeline_enabled_E, align 1, !range !2
  store i8 %237, i8* %236, align 1
  %238 = getelementptr inbounds %"class.blink::RuntimeEnabledFeaturesBase::Backup", %"class.blink::RuntimeEnabledFeaturesBase::Backup"* %0, i64 0, i32 118
  %239 = load i8, i8* @_ZN5blink26RuntimeEnabledFeaturesBase25is_css_snap_size_enabled_E, align 1, !range !2
  store i8 %239, i8* %238, align 1
  %240 = getelementptr inbounds %"class.blink::RuntimeEnabledFeaturesBase::Backup", %"class.blink::RuntimeEnabledFeaturesBase::Backup"* %0, i64 0, i32 119
  %241 = load i8, i8* @_ZN5blink26RuntimeEnabledFeaturesBase39is_css_spelling_grammar_errors_enabled_E, align 1, !range !2
  store i8 %241, i8* %240, align 1
  %242 = getelementptr inbounds %"class.blink::RuntimeEnabledFeaturesBase::Backup", %"class.blink::RuntimeEnabledFeaturesBase::Backup"* %0, i64 0, i32 120
  %243 = load i8, i8* @_ZN5blink26RuntimeEnabledFeaturesBase44is_css_system_color_compute_to_self_enabled_E, align 1, !range !2
  store i8 %243, i8* %242, align 1
  %244 = getelementptr inbounds %"class.blink::RuntimeEnabledFeaturesBase::Backup", %"class.blink::RuntimeEnabledFeaturesBase::Backup"* %0, i64 0, i32 121
  %245 = load i8, i8* @_ZN5blink26RuntimeEnabledFeaturesBase42is_css_target_text_pseudo_element_enabled_E, align 1, !range !2
  store i8 %245, i8* %244, align 1
  %246 = getelementptr inbounds %"class.blink::RuntimeEnabledFeaturesBase::Backup", %"class.blink::RuntimeEnabledFeaturesBase::Backup"* %0, i64 0, i32 122
  %247 = load i8, i8* @_ZN5blink26RuntimeEnabledFeaturesBase40is_css_variables_2_image_values_enabled_E, align 1, !range !2
  store i8 %247, i8* %246, align 1
  %248 = getelementptr inbounds %"class.blink::RuntimeEnabledFeaturesBase::Backup", %"class.blink::RuntimeEnabledFeaturesBase::Backup"* %0, i64 0, i32 123
  %249 = load i8, i8* @_ZN5blink26RuntimeEnabledFeaturesBase44is_css_variables_2_transform_values_enabled_E, align 1, !range !2
  store i8 %249, i8* %248, align 1
  %250 = getelementptr inbounds %"class.blink::RuntimeEnabledFeaturesBase::Backup", %"class.blink::RuntimeEnabledFeaturesBase::Backup"* %0, i64 0, i32 124
  %251 = load i8, i8* @_ZN5blink26RuntimeEnabledFeaturesBase28is_cull_rect_update_enabled_E, align 1, !range !2
  store i8 %251, i8* %250, align 1
  %252 = getelementptr inbounds %"class.blink::RuntimeEnabledFeaturesBase::Backup", %"class.blink::RuntimeEnabledFeaturesBase::Backup"* %0, i64 0, i32 125
  %253 = load i8, i8* @_ZN5blink26RuntimeEnabledFeaturesBase40is_custom_element_default_style_enabled_E, align 1, !range !2
  store i8 %253, i8* %252, align 1
  %254 = getelementptr inbounds %"class.blink::RuntimeEnabledFeaturesBase::Backup", %"class.blink::RuntimeEnabledFeaturesBase::Backup"* %0, i64 0, i32 126
  %255 = load i8, i8* @_ZN5blink26RuntimeEnabledFeaturesBase37is_custom_state_pseudo_class_enabled_E, align 1, !range !2
  store i8 %255, i8* %254, align 1
  %256 = getelementptr inbounds %"class.blink::RuntimeEnabledFeaturesBase::Backup", %"class.blink::RuntimeEnabledFeaturesBase::Backup"* %0, i64 0, i32 127
  %257 = load i8, i8* @_ZN5blink26RuntimeEnabledFeaturesBase20is_database_enabled_E, align 1, !range !2
  store i8 %257, i8* %256, align 1
  %258 = getelementptr inbounds %"class.blink::RuntimeEnabledFeaturesBase::Backup", %"class.blink::RuntimeEnabledFeaturesBase::Backup"* %0, i64 0, i32 128
  %259 = load i8, i8* @_ZN5blink26RuntimeEnabledFeaturesBase34is_declarative_shadow_dom_enabled_E, align 1, !range !2
  store i8 %259, i8* %258, align 1
  %260 = getelementptr inbounds %"class.blink::RuntimeEnabledFeaturesBase::Backup", %"class.blink::RuntimeEnabledFeaturesBase::Backup"* %0, i64 0, i32 129
  %261 = load i8, i8* @_ZN5blink26RuntimeEnabledFeaturesBase41is_decode_jpeg_420_images_to_yuv_enabled_E, align 1, !range !2
  store i8 %261, i8* %260, align 1
  %262 = getelementptr inbounds %"class.blink::RuntimeEnabledFeaturesBase::Backup", %"class.blink::RuntimeEnabledFeaturesBase::Backup"* %0, i64 0, i32 130
  %263 = load i8, i8* @_ZN5blink26RuntimeEnabledFeaturesBase44is_decode_lossy_web_p_images_to_yuv_enabled_E, align 1, !range !2
  store i8 %263, i8* %262, align 1
  %264 = getelementptr inbounds %"class.blink::RuntimeEnabledFeaturesBase::Backup", %"class.blink::RuntimeEnabledFeaturesBase::Backup"* %0, i64 0, i32 131
  %265 = load i8, i8* @_ZN5blink26RuntimeEnabledFeaturesBase63is_delay_async_script_execution_until_finished_parsing_enabled_E, align 1, !range !2
  store i8 %265, i8* %264, align 1
  %266 = getelementptr inbounds %"class.blink::RuntimeEnabledFeaturesBase::Backup", %"class.blink::RuntimeEnabledFeaturesBase::Backup"* %0, i64 0, i32 132
  %267 = load i8, i8* @_ZN5blink26RuntimeEnabledFeaturesBase78is_delay_async_script_execution_until_first_paint_or_finished_parsing_enabled_E, align 1, !range !2
  store i8 %267, i8* %266, align 1
  %268 = getelementptr inbounds %"class.blink::RuntimeEnabledFeaturesBase::Backup", %"class.blink::RuntimeEnabledFeaturesBase::Backup"* %0, i64 0, i32 133
  %269 = load i8, i8* @_ZN5blink26RuntimeEnabledFeaturesBase32is_delegated_ink_trails_enabled_E, align 1, !range !2
  store i8 %269, i8* %268, align 1
  %270 = getelementptr inbounds %"class.blink::RuntimeEnabledFeaturesBase::Backup", %"class.blink::RuntimeEnabledFeaturesBase::Backup"* %0, i64 0, i32 134
  %271 = load i8, i8* @_ZN5blink26RuntimeEnabledFeaturesBase54is_desktop_capture_disable_local_echo_control_enabled_E, align 1, !range !2
  store i8 %271, i8* %270, align 1
  %272 = getelementptr inbounds %"class.blink::RuntimeEnabledFeaturesBase::Backup", %"class.blink::RuntimeEnabledFeaturesBase::Backup"* %0, i64 0, i32 135
  %273 = load i8, i8* @_ZN5blink26RuntimeEnabledFeaturesBase29is_device_attributes_enabled_E, align 1, !range !2
  store i8 %273, i8* %272, align 1
  %274 = getelementptr inbounds %"class.blink::RuntimeEnabledFeaturesBase::Backup", %"class.blink::RuntimeEnabledFeaturesBase::Backup"* %0, i64 0, i32 136
  %275 = load i8, i8* @_ZN5blink26RuntimeEnabledFeaturesBase26is_device_posture_enabled_E, align 1, !range !2
  store i8 %275, i8* %274, align 1
  %276 = getelementptr inbounds %"class.blink::RuntimeEnabledFeaturesBase::Backup", %"class.blink::RuntimeEnabledFeaturesBase::Backup"* %0, i64 0, i32 137
  %277 = load i8, i8* @_ZN5blink26RuntimeEnabledFeaturesBase42is_dialog_focus_new_spec_behavior_enabled_E, align 1, !range !2
  store i8 %277, i8* %276, align 1
  %278 = getelementptr inbounds %"class.blink::RuntimeEnabledFeaturesBase::Backup", %"class.blink::RuntimeEnabledFeaturesBase::Backup"* %0, i64 0, i32 138
  %279 = load i8, i8* @_ZN5blink26RuntimeEnabledFeaturesBase25is_digital_goods_enabled_E, align 1, !range !2
  store i8 %279, i8* %278, align 1
  %280 = getelementptr inbounds %"class.blink::RuntimeEnabledFeaturesBase::Backup", %"class.blink::RuntimeEnabledFeaturesBase::Backup"* %0, i64 0, i32 139
  %281 = load i8, i8* @_ZN5blink26RuntimeEnabledFeaturesBase26is_direct_sockets_enabled_E, align 1, !range !2
  store i8 %281, i8* %280, align 1
  %282 = getelementptr inbounds %"class.blink::RuntimeEnabledFeaturesBase::Backup", %"class.blink::RuntimeEnabledFeaturesBase::Backup"* %0, i64 0, i32 140
  %283 = load i8, i8* @_ZN5blink26RuntimeEnabledFeaturesBase64is_disable_different_origin_subframe_dialog_suppression_enabled_E, align 1, !range !2
  store i8 %283, i8* %282, align 1
  %284 = getelementptr inbounds %"class.blink::RuntimeEnabledFeaturesBase::Backup", %"class.blink::RuntimeEnabledFeaturesBase::Backup"* %0, i64 0, i32 141
  %285 = load i8, i8* @_ZN5blink26RuntimeEnabledFeaturesBase46is_disable_hardware_noise_suppression_enabled_E, align 1, !range !2
  store i8 %285, i8* %284, align 1
  %286 = getelementptr inbounds %"class.blink::RuntimeEnabledFeaturesBase::Backup", %"class.blink::RuntimeEnabledFeaturesBase::Backup"* %0, i64 0, i32 142
  %287 = load i8, i8* @_ZN5blink26RuntimeEnabledFeaturesBase35is_disable_layer_squashing_enabled_E, align 1, !range !2
  store i8 %287, i8* %286, align 1
  %288 = getelementptr inbounds %"class.blink::RuntimeEnabledFeaturesBase::Backup", %"class.blink::RuntimeEnabledFeaturesBase::Backup"* %0, i64 0, i32 143
  %289 = load i8, i8* @_ZN5blink26RuntimeEnabledFeaturesBase36is_disallow_document_access_enabled_E, align 1, !range !2
  store i8 %289, i8* %288, align 1
  %290 = getelementptr inbounds %"class.blink::RuntimeEnabledFeaturesBase::Backup", %"class.blink::RuntimeEnabledFeaturesBase::Backup"* %0, i64 0, i32 144
  %291 = load i8, i8* @_ZN5blink26RuntimeEnabledFeaturesBase45is_display_capture_permission_policy_enabled_E, align 1, !range !2
  store i8 %291, i8* %290, align 1
  %292 = getelementptr inbounds %"class.blink::RuntimeEnabledFeaturesBase::Backup", %"class.blink::RuntimeEnabledFeaturesBase::Backup"* %0, i64 0, i32 145
  %293 = load i8, i8* @_ZN5blink26RuntimeEnabledFeaturesBase30is_display_cutout_api_enabled_E, align 1, !range !2
  store i8 %293, i8* %292, align 1
  %294 = getelementptr inbounds %"class.blink::RuntimeEnabledFeaturesBase::Backup", %"class.blink::RuntimeEnabledFeaturesBase::Backup"* %0, i64 0, i32 146
  %295 = load i8, i8* @_ZN5blink26RuntimeEnabledFeaturesBase27is_document_cookie_enabled_E, align 1, !range !2
  store i8 %295, i8* %294, align 1
  %296 = getelementptr inbounds %"class.blink::RuntimeEnabledFeaturesBase::Backup", %"class.blink::RuntimeEnabledFeaturesBase::Backup"* %0, i64 0, i32 147
  %297 = load i8, i8* @_ZN5blink26RuntimeEnabledFeaturesBase27is_document_domain_enabled_E, align 1, !range !2
  store i8 %297, i8* %296, align 1
  %298 = getelementptr inbounds %"class.blink::RuntimeEnabledFeaturesBase::Backup", %"class.blink::RuntimeEnabledFeaturesBase::Backup"* %0, i64 0, i32 148
  %299 = load i8, i8* @_ZN5blink26RuntimeEnabledFeaturesBase27is_document_policy_enabled_E, align 1, !range !2
  store i8 %299, i8* %298, align 1
  %300 = getelementptr inbounds %"class.blink::RuntimeEnabledFeaturesBase::Backup", %"class.blink::RuntimeEnabledFeaturesBase::Backup"* %0, i64 0, i32 149
  %301 = load i8, i8* @_ZN5blink26RuntimeEnabledFeaturesBase43is_document_policy_document_domain_enabled_E, align 1, !range !2
  store i8 %301, i8* %300, align 1
  %302 = getelementptr inbounds %"class.blink::RuntimeEnabledFeaturesBase::Backup", %"class.blink::RuntimeEnabledFeaturesBase::Backup"* %0, i64 0, i32 150
  %303 = load i8, i8* @_ZN5blink26RuntimeEnabledFeaturesBase39is_document_policy_negotiation_enabled_E, align 1, !range !2
  store i8 %303, i8* %302, align 1
  %304 = getelementptr inbounds %"class.blink::RuntimeEnabledFeaturesBase::Backup", %"class.blink::RuntimeEnabledFeaturesBase::Backup"* %0, i64 0, i32 151
  %305 = load i8, i8* @_ZN5blink26RuntimeEnabledFeaturesBase36is_document_policy_sync_xhr_enabled_E, align 1, !range !2
  store i8 %305, i8* %304, align 1
  %306 = getelementptr inbounds %"class.blink::RuntimeEnabledFeaturesBase::Backup", %"class.blink::RuntimeEnabledFeaturesBase::Backup"* %0, i64 0, i32 152
  %307 = load i8, i8* @_ZN5blink26RuntimeEnabledFeaturesBase31is_document_transition_enabled_E, align 1, !range !2
  store i8 %307, i8* %306, align 1
  %308 = getelementptr inbounds %"class.blink::RuntimeEnabledFeaturesBase::Backup", %"class.blink::RuntimeEnabledFeaturesBase::Backup"* %0, i64 0, i32 153
  %309 = load i8, i8* @_ZN5blink26RuntimeEnabledFeaturesBase26is_document_write_enabled_E, align 1, !range !2
  store i8 %309, i8* %308, align 1
  %310 = getelementptr inbounds %"class.blink::RuntimeEnabledFeaturesBase::Backup", %"class.blink::RuntimeEnabledFeaturesBase::Backup"* %0, i64 0, i32 154
  %311 = load i8, i8* @_ZN5blink26RuntimeEnabledFeaturesBase24is_edit_context_enabled_E, align 1, !range !2
  store i8 %311, i8* %310, align 1
  %312 = getelementptr inbounds %"class.blink::RuntimeEnabledFeaturesBase::Backup", %"class.blink::RuntimeEnabledFeaturesBase::Backup"* %0, i64 0, i32 155
  %313 = load i8, i8* @_ZN5blink26RuntimeEnabledFeaturesBase22is_editing_ng_enabled_E, align 1, !range !2
  store i8 %313, i8* %312, align 1
  %314 = getelementptr inbounds %"class.blink::RuntimeEnabledFeaturesBase::Backup", %"class.blink::RuntimeEnabledFeaturesBase::Backup"* %0, i64 0, i32 156
  %315 = load i8, i8* @_ZN5blink26RuntimeEnabledFeaturesBase51is_encrypted_media_encryption_scheme_query_enabled_E, align 1, !range !2
  store i8 %315, i8* %314, align 1
  %316 = getelementptr inbounds %"class.blink::RuntimeEnabledFeaturesBase::Backup", %"class.blink::RuntimeEnabledFeaturesBase::Backup"* %0, i64 0, i32 157
  %317 = load i8, i8* @_ZN5blink26RuntimeEnabledFeaturesBase45is_encrypted_media_hdcp_policy_check_enabled_E, align 1, !range !2
  store i8 %317, i8* %316, align 1
  %318 = getelementptr inbounds %"class.blink::RuntimeEnabledFeaturesBase::Backup", %"class.blink::RuntimeEnabledFeaturesBase::Backup"* %0, i64 0, i32 158
  %319 = load i8, i8* @_ZN5blink26RuntimeEnabledFeaturesBase36is_enter_key_hint_attribute_enabled_E, align 1, !range !2
  store i8 %319, i8* %318, align 1
  %320 = getelementptr inbounds %"class.blink::RuntimeEnabledFeaturesBase::Backup", %"class.blink::RuntimeEnabledFeaturesBase::Backup"* %0, i64 0, i32 159
  %321 = load i8, i8* @_ZN5blink26RuntimeEnabledFeaturesBase24is_event_timing_enabled_E, align 1, !range !2
  store i8 %321, i8* %320, align 1
  %322 = getelementptr inbounds %"class.blink::RuntimeEnabledFeaturesBase::Backup", %"class.blink::RuntimeEnabledFeaturesBase::Backup"* %0, i64 0, i32 160
  %323 = load i8, i8* @_ZN5blink26RuntimeEnabledFeaturesBase39is_exec_command_in_java_script_enabled_E, align 1, !range !2
  store i8 %323, i8* %322, align 1
  %324 = getelementptr inbounds %"class.blink::RuntimeEnabledFeaturesBase::Backup", %"class.blink::RuntimeEnabledFeaturesBase::Backup"* %0, i64 0, i32 161
  %325 = load i8, i8* @_ZN5blink26RuntimeEnabledFeaturesBase49is_expensive_background_timer_throttling_enabled_E, align 1, !range !2
  store i8 %325, i8* %324, align 1
  %326 = getelementptr inbounds %"class.blink::RuntimeEnabledFeaturesBase::Backup", %"class.blink::RuntimeEnabledFeaturesBase::Backup"* %0, i64 0, i32 162
  %327 = load i8, i8* @_ZN5blink26RuntimeEnabledFeaturesBase57is_experimental_content_security_policy_features_enabled_E, align 1, !range !2
  store i8 %327, i8* %326, align 1
  %328 = getelementptr inbounds %"class.blink::RuntimeEnabledFeaturesBase::Backup", %"class.blink::RuntimeEnabledFeaturesBase::Backup"* %0, i64 0, i32 163
  %329 = load i8, i8* @_ZN5blink26RuntimeEnabledFeaturesBase41is_experimental_is_frame_pending_enabled_E, align 1, !range !2
  store i8 %329, i8* %328, align 1
  %330 = getelementptr inbounds %"class.blink::RuntimeEnabledFeaturesBase::Backup", %"class.blink::RuntimeEnabledFeaturesBase::Backup"* %0, i64 0, i32 164
  %331 = load i8, i8* @_ZN5blink26RuntimeEnabledFeaturesBase41is_experimental_is_input_pending_enabled_E, align 1, !range !2
  store i8 %331, i8* %330, align 1
  %332 = getelementptr inbounds %"class.blink::RuntimeEnabledFeaturesBase::Backup", %"class.blink::RuntimeEnabledFeaturesBase::Backup"* %0, i64 0, i32 165
  %333 = load i8, i8* @_ZN5blink26RuntimeEnabledFeaturesBase36is_experimental_js_profiler_enabled_E, align 1, !range !2
  store i8 %333, i8* %332, align 1
  %334 = getelementptr inbounds %"class.blink::RuntimeEnabledFeaturesBase::Backup", %"class.blink::RuntimeEnabledFeaturesBase::Backup"* %0, i64 0, i32 166
  %335 = load i8, i8* @_ZN5blink26RuntimeEnabledFeaturesBase33is_experimental_policies_enabled_E, align 1, !range !2
  store i8 %335, i8* %334, align 1
  %336 = getelementptr inbounds %"class.blink::RuntimeEnabledFeaturesBase::Backup", %"class.blink::RuntimeEnabledFeaturesBase::Backup"* %0, i64 0, i32 167
  %337 = load i8, i8* @_ZN5blink26RuntimeEnabledFeaturesBase33is_extended_text_metrics_enabled_E, align 1, !range !2
  store i8 %337, i8* %336, align 1
  %338 = getelementptr inbounds %"class.blink::RuntimeEnabledFeaturesBase::Backup", %"class.blink::RuntimeEnabledFeaturesBase::Backup"* %0, i64 0, i32 168
  %339 = load i8, i8* @_ZN5blink26RuntimeEnabledFeaturesBase46is_extra_webgl_video_texture_metadata_enabled_E, align 1, !range !2
  store i8 %339, i8* %338, align 1
  %340 = getelementptr inbounds %"class.blink::RuntimeEnabledFeaturesBase::Backup", %"class.blink::RuntimeEnabledFeaturesBase::Backup"* %0, i64 0, i32 169
  %341 = load i8, i8* @_ZN5blink26RuntimeEnabledFeaturesBase27is_eye_dropper_api_enabled_E, align 1, !range !2
  store i8 %341, i8* %340, align 1
  %342 = getelementptr inbounds %"class.blink::RuntimeEnabledFeaturesBase::Backup", %"class.blink::RuntimeEnabledFeaturesBase::Backup"* %0, i64 0, i32 170
  %343 = load i8, i8* @_ZN5blink26RuntimeEnabledFeaturesBase25is_face_detector_enabled_E, align 1, !range !2
  store i8 %343, i8* %342, align 1
  %344 = getelementptr inbounds %"class.blink::RuntimeEnabledFeaturesBase::Backup", %"class.blink::RuntimeEnabledFeaturesBase::Backup"* %0, i64 0, i32 171
  %345 = load i8, i8* @_ZN5blink26RuntimeEnabledFeaturesBase49is_fake_no_alloc_direct_call_for_testing_enabled_E, align 1, !range !2
  store i8 %345, i8* %344, align 1
  %346 = getelementptr inbounds %"class.blink::RuntimeEnabledFeaturesBase::Backup", %"class.blink::RuntimeEnabledFeaturesBase::Backup"* %0, i64 0, i32 172
  %347 = load i8, i8* @_ZN5blink26RuntimeEnabledFeaturesBase43is_feature_policy_for_client_hints_enabled_E, align 1, !range !2
  store i8 %347, i8* %346, align 1
  %348 = getelementptr inbounds %"class.blink::RuntimeEnabledFeaturesBase::Backup", %"class.blink::RuntimeEnabledFeaturesBase::Backup"* %0, i64 0, i32 173
  %349 = load i8, i8* @_ZN5blink26RuntimeEnabledFeaturesBase36is_feature_policy_reporting_enabled_E, align 1, !range !2
  store i8 %349, i8* %348, align 1
  %350 = getelementptr inbounds %"class.blink::RuntimeEnabledFeaturesBase::Backup", %"class.blink::RuntimeEnabledFeaturesBase::Backup"* %0, i64 0, i32 174
  %351 = load i8, i8* @_ZN5blink26RuntimeEnabledFeaturesBase25is_fenced_frames_enabled_E, align 1, !range !2
  store i8 %351, i8* %350, align 1
  %352 = getelementptr inbounds %"class.blink::RuntimeEnabledFeaturesBase::Backup", %"class.blink::RuntimeEnabledFeaturesBase::Backup"* %0, i64 0, i32 175
  %353 = load i8, i8* @_ZN5blink26RuntimeEnabledFeaturesBase34is_fetch_upload_streaming_enabled_E, align 1, !range !2
  store i8 %353, i8* %352, align 1
  %354 = getelementptr inbounds %"class.blink::RuntimeEnabledFeaturesBase::Backup", %"class.blink::RuntimeEnabledFeaturesBase::Backup"* %0, i64 0, i32 176
  %355 = load i8, i8* @_ZN5blink26RuntimeEnabledFeaturesBase25is_file_handling_enabled_E, align 1, !range !2
  store i8 %355, i8* %354, align 1
  %356 = getelementptr inbounds %"class.blink::RuntimeEnabledFeaturesBase::Backup", %"class.blink::RuntimeEnabledFeaturesBase::Backup"* %0, i64 0, i32 177
  %357 = load i8, i8* @_ZN5blink26RuntimeEnabledFeaturesBase23is_file_system_enabled_E, align 1, !range !2
  store i8 %357, i8* %356, align 1
  %358 = getelementptr inbounds %"class.blink::RuntimeEnabledFeaturesBase::Backup", %"class.blink::RuntimeEnabledFeaturesBase::Backup"* %0, i64 0, i32 178
  %359 = load i8, i8* @_ZN5blink26RuntimeEnabledFeaturesBase30is_file_system_access_enabled_E, align 1, !range !2
  store i8 %359, i8* %358, align 1
  %360 = getelementptr inbounds %"class.blink::RuntimeEnabledFeaturesBase::Backup", %"class.blink::RuntimeEnabledFeaturesBase::Backup"* %0, i64 0, i32 179
  %361 = load i8, i8* @_ZN5blink26RuntimeEnabledFeaturesBase47is_file_system_access_api_experimental_enabled_E, align 1, !range !2
  store i8 %361, i8* %360, align 1
  %362 = getelementptr inbounds %"class.blink::RuntimeEnabledFeaturesBase::Backup", %"class.blink::RuntimeEnabledFeaturesBase::Backup"* %0, i64 0, i32 180
  %363 = load i8, i8* @_ZN5blink26RuntimeEnabledFeaturesBase37is_fledge_interest_group_api_enabled_E, align 1, !range !2
  store i8 %363, i8* %362, align 1
  %364 = getelementptr inbounds %"class.blink::RuntimeEnabledFeaturesBase::Backup", %"class.blink::RuntimeEnabledFeaturesBase::Backup"* %0, i64 0, i32 181
  %365 = load i8, i8* @_ZN5blink26RuntimeEnabledFeaturesBase40is_focusless_spatial_navigation_enabled_E, align 1, !range !2
  store i8 %365, i8* %364, align 1
  %366 = getelementptr inbounds %"class.blink::RuntimeEnabledFeaturesBase::Backup", %"class.blink::RuntimeEnabledFeaturesBase::Backup"* %0, i64 0, i32 182
  %367 = load i8, i8* @_ZN5blink26RuntimeEnabledFeaturesBase23is_font_access_enabled_E, align 1, !range !2
  store i8 %367, i8* %366, align 1
  %368 = getelementptr inbounds %"class.blink::RuntimeEnabledFeaturesBase::Backup", %"class.blink::RuntimeEnabledFeaturesBase::Backup"* %0, i64 0, i32 183
  %369 = load i8, i8* @_ZN5blink26RuntimeEnabledFeaturesBase34is_font_access_persistent_enabled_E, align 1, !range !2
  store i8 %369, i8* %368, align 1
  %370 = getelementptr inbounds %"class.blink::RuntimeEnabledFeaturesBase::Backup", %"class.blink::RuntimeEnabledFeaturesBase::Backup"* %0, i64 0, i32 184
  %371 = load i8, i8* @_ZN5blink26RuntimeEnabledFeaturesBase35is_font_src_local_matching_enabled_E, align 1, !range !2
  store i8 %371, i8* %370, align 1
  %372 = getelementptr inbounds %"class.blink::RuntimeEnabledFeaturesBase::Backup", %"class.blink::RuntimeEnabledFeaturesBase::Backup"* %0, i64 0, i32 185
  %373 = load i8, i8* @_ZN5blink26RuntimeEnabledFeaturesBase25is_forced_colors_enabled_E, align 1, !range !2
  store i8 %373, i8* %372, align 1
  %374 = getelementptr inbounds %"class.blink::RuntimeEnabledFeaturesBase::Backup", %"class.blink::RuntimeEnabledFeaturesBase::Backup"* %0, i64 0, i32 186
  %375 = load i8, i8* @_ZN5blink26RuntimeEnabledFeaturesBase38is_force_eager_measure_memory_enabled_E, align 1, !range !2
  store i8 %375, i8* %374, align 1
  %376 = getelementptr inbounds %"class.blink::RuntimeEnabledFeaturesBase::Backup", %"class.blink::RuntimeEnabledFeaturesBase::Backup"* %0, i64 0, i32 187
  %377 = load i8, i8* @_ZN5blink26RuntimeEnabledFeaturesBase42is_force_overlay_fullscreen_video_enabled_E, align 1, !range !2
  store i8 %377, i8* %376, align 1
  %378 = getelementptr inbounds %"class.blink::RuntimeEnabledFeaturesBase::Backup", %"class.blink::RuntimeEnabledFeaturesBase::Backup"* %0, i64 0, i32 188
  %379 = load i8, i8* @_ZN5blink26RuntimeEnabledFeaturesBase42is_force_synchronous_html_parsing_enabled_E, align 1, !range !2
  store i8 %379, i8* %378, align 1
  %380 = getelementptr inbounds %"class.blink::RuntimeEnabledFeaturesBase::Backup", %"class.blink::RuntimeEnabledFeaturesBase::Backup"* %0, i64 0, i32 189
  %381 = load i8, i8* @_ZN5blink26RuntimeEnabledFeaturesBase37is_force_taller_select_popup_enabled_E, align 1, !range !2
  store i8 %381, i8* %380, align 1
  %382 = getelementptr inbounds %"class.blink::RuntimeEnabledFeaturesBase::Backup", %"class.blink::RuntimeEnabledFeaturesBase::Backup"* %0, i64 0, i32 190
  %383 = load i8, i8* @_ZN5blink26RuntimeEnabledFeaturesBase37is_fractional_scroll_offsets_enabled_E, align 1, !range !2
  store i8 %383, i8* %382, align 1
  %384 = getelementptr inbounds %"class.blink::RuntimeEnabledFeaturesBase::Backup", %"class.blink::RuntimeEnabledFeaturesBase::Backup"* %0, i64 0, i32 191
  %385 = load i8, i8* @_ZN5blink26RuntimeEnabledFeaturesBase39is_freeze_frames_on_visibility_enabled_E, align 1, !range !2
  store i8 %385, i8* %384, align 1
  %386 = getelementptr inbounds %"class.blink::RuntimeEnabledFeaturesBase::Backup", %"class.blink::RuntimeEnabledFeaturesBase::Backup"* %0, i64 0, i32 192
  %387 = load i8, i8* @_ZN5blink26RuntimeEnabledFeaturesBase38is_gamepad_button_axis_events_enabled_E, align 1, !range !2
  store i8 %387, i8* %386, align 1
  %388 = getelementptr inbounds %"class.blink::RuntimeEnabledFeaturesBase::Backup", %"class.blink::RuntimeEnabledFeaturesBase::Backup"* %0, i64 0, i32 193
  %389 = load i8, i8* @_ZN5blink26RuntimeEnabledFeaturesBase46is_get_current_browsing_context_media_enabled_E, align 1, !range !2
  store i8 %389, i8* %388, align 1
  %390 = getelementptr inbounds %"class.blink::RuntimeEnabledFeaturesBase::Backup", %"class.blink::RuntimeEnabledFeaturesBase::Backup"* %0, i64 0, i32 194
  %391 = load i8, i8* @_ZN5blink26RuntimeEnabledFeaturesBase29is_get_display_media_enabled_E, align 1, !range !2
  store i8 %391, i8* %390, align 1
  %392 = getelementptr inbounds %"class.blink::RuntimeEnabledFeaturesBase::Backup", %"class.blink::RuntimeEnabledFeaturesBase::Backup"* %0, i64 0, i32 195
  %393 = load i8, i8* @_ZN5blink26RuntimeEnabledFeaturesBase26is_gravity_sensor_enabled_E, align 1, !range !2
  store i8 %393, i8* %392, align 1
  %394 = getelementptr inbounds %"class.blink::RuntimeEnabledFeaturesBase::Backup", %"class.blink::RuntimeEnabledFeaturesBase::Backup"* %0, i64 0, i32 196
  %395 = load i8, i8* @_ZN5blink26RuntimeEnabledFeaturesBase24is_group_effect_enabled_E, align 1, !range !2
  store i8 %395, i8* %394, align 1
  %396 = getelementptr inbounds %"class.blink::RuntimeEnabledFeaturesBase::Backup", %"class.blink::RuntimeEnabledFeaturesBase::Backup"* %0, i64 0, i32 197
  %397 = load i8, i8* @_ZN5blink26RuntimeEnabledFeaturesBase35is_handwriting_recognition_enabled_E, align 1, !range !2
  store i8 %397, i8* %396, align 1
  %398 = getelementptr inbounds %"class.blink::RuntimeEnabledFeaturesBase::Backup", %"class.blink::RuntimeEnabledFeaturesBase::Backup"* %0, i64 0, i32 198
  %399 = load i8, i8* @_ZN5blink26RuntimeEnabledFeaturesBase25is_highlight_api_enabled_E, align 1, !range !2
  store i8 %399, i8* %398, align 1
  %400 = getelementptr inbounds %"class.blink::RuntimeEnabledFeaturesBase::Backup", %"class.blink::RuntimeEnabledFeaturesBase::Backup"* %0, i64 0, i32 199
  %401 = load i8, i8* @_ZN5blink26RuntimeEnabledFeaturesBase26is_href_translate_enabled_E, align 1, !range !2
  store i8 %401, i8* %400, align 1
  %402 = getelementptr inbounds %"class.blink::RuntimeEnabledFeaturesBase::Backup", %"class.blink::RuntimeEnabledFeaturesBase::Backup"* %0, i64 0, i32 200
  %403 = load i8, i8* @_ZN5blink26RuntimeEnabledFeaturesBase30is_html_popup_element_enabled_E, align 1, !range !2
  store i8 %403, i8* %402, align 1
  %404 = getelementptr inbounds %"class.blink::RuntimeEnabledFeaturesBase::Backup", %"class.blink::RuntimeEnabledFeaturesBase::Backup"* %0, i64 0, i32 201
  %405 = load i8, i8* @_ZN5blink26RuntimeEnabledFeaturesBase36is_html_select_menu_element_enabled_E, align 1, !range !2
  store i8 %405, i8* %404, align 1
  %406 = getelementptr inbounds %"class.blink::RuntimeEnabledFeaturesBase::Backup", %"class.blink::RuntimeEnabledFeaturesBase::Backup"* %0, i64 0, i32 202
  %407 = load i8, i8* @_ZN5blink26RuntimeEnabledFeaturesBase23is_idb_put_all_enabled_E, align 1, !range !2
  store i8 %407, i8* %406, align 1
  %408 = getelementptr inbounds %"class.blink::RuntimeEnabledFeaturesBase::Backup", %"class.blink::RuntimeEnabledFeaturesBase::Backup"* %0, i64 0, i32 203
  %409 = load i8, i8* @_ZN5blink26RuntimeEnabledFeaturesBase34is_idb_relaxed_durability_enabled_E, align 1, !range !2
  store i8 %409, i8* %408, align 1
  %410 = getelementptr inbounds %"class.blink::RuntimeEnabledFeaturesBase::Backup", %"class.blink::RuntimeEnabledFeaturesBase::Backup"* %0, i64 0, i32 204
  %411 = load i8, i8* @_ZN5blink26RuntimeEnabledFeaturesBase26is_idle_detection_enabled_E, align 1, !range !2
  store i8 %411, i8* %410, align 1
  %412 = getelementptr inbounds %"class.blink::RuntimeEnabledFeaturesBase::Backup", %"class.blink::RuntimeEnabledFeaturesBase::Backup"* %0, i64 0, i32 205
  %413 = load i8, i8* @_ZN5blink26RuntimeEnabledFeaturesBase66is_ignore_cross_origin_window_when_named_access_on_window_enabled_E, align 1, !range !2
  store i8 %413, i8* %412, align 1
  %414 = getelementptr inbounds %"class.blink::RuntimeEnabledFeaturesBase::Backup", %"class.blink::RuntimeEnabledFeaturesBase::Backup"* %0, i64 0, i32 206
  %415 = load i8, i8* @_ZN5blink26RuntimeEnabledFeaturesBase34is_implicit_root_scroller_enabled_E, align 1, !range !2
  store i8 %415, i8* %414, align 1
  %416 = getelementptr inbounds %"class.blink::RuntimeEnabledFeaturesBase::Backup", %"class.blink::RuntimeEnabledFeaturesBase::Backup"* %0, i64 0, i32 207
  %417 = load i8, i8* @_ZN5blink26RuntimeEnabledFeaturesBase27is_inert_attribute_enabled_E, align 1, !range !2
  store i8 %417, i8* %416, align 1
  %418 = getelementptr inbounds %"class.blink::RuntimeEnabledFeaturesBase::Backup", %"class.blink::RuntimeEnabledFeaturesBase::Backup"* %0, i64 0, i32 208
  %419 = load i8, i8* @_ZN5blink26RuntimeEnabledFeaturesBase36is_input_multiple_fields_ui_enabled_E, align 1, !range !2
  store i8 %419, i8* %418, align 1
  %420 = getelementptr inbounds %"class.blink::RuntimeEnabledFeaturesBase::Backup", %"class.blink::RuntimeEnabledFeaturesBase::Backup"* %0, i64 0, i32 209
  %421 = load i8, i8* @_ZN5blink26RuntimeEnabledFeaturesBase25is_installed_app_enabled_E, align 1, !range !2
  store i8 %421, i8* %420, align 1
  %422 = getelementptr inbounds %"class.blink::RuntimeEnabledFeaturesBase::Backup", %"class.blink::RuntimeEnabledFeaturesBase::Backup"* %0, i64 0, i32 210
  %423 = load i8, i8* @_ZN5blink26RuntimeEnabledFeaturesBase31is_interest_cohort_api_enabled_E, align 1, !range !2
  store i8 %423, i8* %422, align 1
  %424 = getelementptr inbounds %"class.blink::RuntimeEnabledFeaturesBase::Backup", %"class.blink::RuntimeEnabledFeaturesBase::Backup"* %0, i64 0, i32 211
  %425 = load i8, i8* @_ZN5blink26RuntimeEnabledFeaturesBase42is_interest_cohort_feature_policy_enabled_E, align 1, !range !2
  store i8 %425, i8* %424, align 1
  %426 = getelementptr inbounds %"class.blink::RuntimeEnabledFeaturesBase::Backup", %"class.blink::RuntimeEnabledFeaturesBase::Backup"* %0, i64 0, i32 212
  %427 = load i8, i8* @_ZN5blink26RuntimeEnabledFeaturesBase65is_intersection_observer_document_scrolling_element_root_enabled_E, align 1, !range !2
  store i8 %427, i8* %426, align 1
  %428 = getelementptr inbounds %"class.blink::RuntimeEnabledFeaturesBase::Backup", %"class.blink::RuntimeEnabledFeaturesBase::Backup"* %0, i64 0, i32 213
  %429 = load i8, i8* @_ZN5blink26RuntimeEnabledFeaturesBase31is_isolated_code_cache_enabled_E, align 1, !range !2
  store i8 %429, i8* %428, align 1
  %430 = getelementptr inbounds %"class.blink::RuntimeEnabledFeaturesBase::Backup", %"class.blink::RuntimeEnabledFeaturesBase::Backup"* %0, i64 0, i32 214
  %431 = load i8, i8* @_ZN5blink26RuntimeEnabledFeaturesBase39is_keyboard_accessible_tooltip_enabled_E, align 1, !range !2
  store i8 %431, i8* %430, align 1
  %432 = getelementptr inbounds %"class.blink::RuntimeEnabledFeaturesBase::Backup", %"class.blink::RuntimeEnabledFeaturesBase::Backup"* %0, i64 0, i32 215
  %433 = load i8, i8* @_ZN5blink26RuntimeEnabledFeaturesBase40is_keyboard_focusable_scrollers_enabled_E, align 1, !range !2
  store i8 %433, i8* %432, align 1
  %434 = getelementptr inbounds %"class.blink::RuntimeEnabledFeaturesBase::Backup", %"class.blink::RuntimeEnabledFeaturesBase::Backup"* %0, i64 0, i32 216
  %435 = load i8, i8* @_ZN5blink26RuntimeEnabledFeaturesBase48is_lang_attribute_aware_form_control_ui_enabled_E, align 1, !range !2
  store i8 %435, i8* %434, align 1
  %436 = getelementptr inbounds %"class.blink::RuntimeEnabledFeaturesBase::Backup", %"class.blink::RuntimeEnabledFeaturesBase::Backup"* %0, i64 0, i32 217
  %437 = load i8, i8* @_ZN5blink26RuntimeEnabledFeaturesBase35is_lang_client_hint_header_enabled_E, align 1, !range !2
  store i8 %437, i8* %436, align 1
  %438 = getelementptr inbounds %"class.blink::RuntimeEnabledFeaturesBase::Backup", %"class.blink::RuntimeEnabledFeaturesBase::Backup"* %0, i64 0, i32 218
  %439 = load i8, i8* @_ZN5blink26RuntimeEnabledFeaturesBase21is_layout_ng_enabled_E, align 1, !range !2
  store i8 %439, i8* %438, align 1
  %440 = getelementptr inbounds %"class.blink::RuntimeEnabledFeaturesBase::Backup", %"class.blink::RuntimeEnabledFeaturesBase::Backup"* %0, i64 0, i32 219
  %441 = load i8, i8* @_ZN5blink26RuntimeEnabledFeaturesBase41is_layout_ng_block_fragmentation_enabled_E, align 1, !range !2
  store i8 %441, i8* %440, align 1
  %442 = getelementptr inbounds %"class.blink::RuntimeEnabledFeaturesBase::Backup", %"class.blink::RuntimeEnabledFeaturesBase::Backup"* %0, i64 0, i32 220
  %443 = load i8, i8* @_ZN5blink26RuntimeEnabledFeaturesBase40is_layout_ng_fragment_traversal_enabled_E, align 1, !range !2
  store i8 %443, i8* %442, align 1
  %444 = getelementptr inbounds %"class.blink::RuntimeEnabledFeaturesBase::Backup", %"class.blink::RuntimeEnabledFeaturesBase::Backup"* %0, i64 0, i32 221
  %445 = load i8, i8* @_ZN5blink26RuntimeEnabledFeaturesBase45is_layout_ng_full_position_for_point_enabled_E, align 1, !range !2
  store i8 %445, i8* %444, align 1
  %446 = getelementptr inbounds %"class.blink::RuntimeEnabledFeaturesBase::Backup", %"class.blink::RuntimeEnabledFeaturesBase::Backup"* %0, i64 0, i32 222
  %447 = load i8, i8* @_ZN5blink26RuntimeEnabledFeaturesBase26is_layout_ng_grid_enabled_E, align 1, !range !2
  store i8 %447, i8* %446, align 1
  %448 = getelementptr inbounds %"class.blink::RuntimeEnabledFeaturesBase::Backup", %"class.blink::RuntimeEnabledFeaturesBase::Backup"* %0, i64 0, i32 223
  %449 = load i8, i8* @_ZN5blink26RuntimeEnabledFeaturesBase44is_layout_ng_layout_overflow_recalc_enabled_E, align 1, !range !2
  store i8 %449, i8* %448, align 1
  %450 = getelementptr inbounds %"class.blink::RuntimeEnabledFeaturesBase::Backup", %"class.blink::RuntimeEnabledFeaturesBase::Backup"* %0, i64 0, i32 224
  %451 = load i8, i8* @_ZN5blink26RuntimeEnabledFeaturesBase30is_layout_ng_printing_enabled_E, align 1, !range !2
  store i8 %451, i8* %450, align 1
  %452 = getelementptr inbounds %"class.blink::RuntimeEnabledFeaturesBase::Backup", %"class.blink::RuntimeEnabledFeaturesBase::Backup"* %0, i64 0, i32 225
  %453 = load i8, i8* @_ZN5blink26RuntimeEnabledFeaturesBase30is_layout_ng_replaced_enabled_E, align 1, !range !2
  store i8 %453, i8* %452, align 1
  %454 = getelementptr inbounds %"class.blink::RuntimeEnabledFeaturesBase::Backup", %"class.blink::RuntimeEnabledFeaturesBase::Backup"* %0, i64 0, i32 226
  %455 = load i8, i8* @_ZN5blink26RuntimeEnabledFeaturesBase27is_layout_ng_table_enabled_E, align 1, !range !2
  store i8 %455, i8* %454, align 1
  %456 = getelementptr inbounds %"class.blink::RuntimeEnabledFeaturesBase::Backup", %"class.blink::RuntimeEnabledFeaturesBase::Backup"* %0, i64 0, i32 227
  %457 = load i8, i8* @_ZN5blink26RuntimeEnabledFeaturesBase34is_layout_ng_text_combine_enabled_E, align 1, !range !2
  store i8 %457, i8* %456, align 1
  %458 = getelementptr inbounds %"class.blink::RuntimeEnabledFeaturesBase::Backup", %"class.blink::RuntimeEnabledFeaturesBase::Backup"* %0, i64 0, i32 228
  %459 = load i8, i8* @_ZN5blink26RuntimeEnabledFeaturesBase34is_layout_ng_text_control_enabled_E, align 1, !range !2
  store i8 %459, i8* %458, align 1
  %460 = getelementptr inbounds %"class.blink::RuntimeEnabledFeaturesBase::Backup", %"class.blink::RuntimeEnabledFeaturesBase::Backup"* %0, i64 0, i32 229
  %461 = load i8, i8* @_ZN5blink26RuntimeEnabledFeaturesBase30is_lazy_frame_loading_enabled_E, align 1, !range !2
  store i8 %461, i8* %460, align 1
  %462 = getelementptr inbounds %"class.blink::RuntimeEnabledFeaturesBase::Backup", %"class.blink::RuntimeEnabledFeaturesBase::Backup"* %0, i64 0, i32 230
  %463 = load i8, i8* @_ZN5blink26RuntimeEnabledFeaturesBase48is_lazy_frame_visible_load_time_metrics_enabled_E, align 1, !range !2
  store i8 %463, i8* %462, align 1
  %464 = getelementptr inbounds %"class.blink::RuntimeEnabledFeaturesBase::Backup", %"class.blink::RuntimeEnabledFeaturesBase::Backup"* %0, i64 0, i32 231
  %465 = load i8, i8* @_ZN5blink26RuntimeEnabledFeaturesBase30is_lazy_image_loading_enabled_E, align 1, !range !2
  store i8 %465, i8* %464, align 1
  %466 = getelementptr inbounds %"class.blink::RuntimeEnabledFeaturesBase::Backup", %"class.blink::RuntimeEnabledFeaturesBase::Backup"* %0, i64 0, i32 232
  %467 = load i8, i8* @_ZN5blink26RuntimeEnabledFeaturesBase48is_lazy_image_visible_load_time_metrics_enabled_E, align 1, !range !2
  store i8 %467, i8* %466, align 1
  %468 = getelementptr inbounds %"class.blink::RuntimeEnabledFeaturesBase::Backup", %"class.blink::RuntimeEnabledFeaturesBase::Backup"* %0, i64 0, i32 233
  %469 = load i8, i8* @_ZN5blink26RuntimeEnabledFeaturesBase42is_lazy_initialize_media_controls_enabled_E, align 1, !range !2
  store i8 %469, i8* %468, align 1
  %470 = getelementptr inbounds %"class.blink::RuntimeEnabledFeaturesBase::Backup", %"class.blink::RuntimeEnabledFeaturesBase::Backup"* %0, i64 0, i32 234
  %471 = load i8, i8* @_ZN5blink26RuntimeEnabledFeaturesBase48is_legacy_windows_d_write_font_fallback_enabled_E, align 1, !range !2
  store i8 %471, i8* %470, align 1
  %472 = getelementptr inbounds %"class.blink::RuntimeEnabledFeaturesBase::Backup", %"class.blink::RuntimeEnabledFeaturesBase::Backup"* %0, i64 0, i32 235
  %473 = load i8, i8* @_ZN5blink26RuntimeEnabledFeaturesBase33is_managed_configuration_enabled_E, align 1, !range !2
  store i8 %473, i8* %472, align 1
  %474 = getelementptr inbounds %"class.blink::RuntimeEnabledFeaturesBase::Backup", %"class.blink::RuntimeEnabledFeaturesBase::Backup"* %0, i64 0, i32 236
  %475 = load i8, i8* @_ZN5blink26RuntimeEnabledFeaturesBase29is_managed_interface_enabled_E, align 1, !range !2
  store i8 %475, i8* %474, align 1
  %476 = getelementptr inbounds %"class.blink::RuntimeEnabledFeaturesBase::Backup", %"class.blink::RuntimeEnabledFeaturesBase::Backup"* %0, i64 0, i32 237
  %477 = load i8, i8* @_ZN5blink26RuntimeEnabledFeaturesBase23is_mathml_core_enabled_E, align 1, !range !2
  store i8 %477, i8* %476, align 1
  %478 = getelementptr inbounds %"class.blink::RuntimeEnabledFeaturesBase::Backup", %"class.blink::RuntimeEnabledFeaturesBase::Backup"* %0, i64 0, i32 238
  %479 = load i8, i8* @_ZN5blink26RuntimeEnabledFeaturesBase26is_measure_memory_enabled_E, align 1, !range !2
  store i8 %479, i8* %478, align 1
  %480 = getelementptr inbounds %"class.blink::RuntimeEnabledFeaturesBase::Backup", %"class.blink::RuntimeEnabledFeaturesBase::Backup"* %0, i64 0, i32 239
  %481 = load i8, i8* @_ZN5blink26RuntimeEnabledFeaturesBase44is_media_capabilities_dynamic_range_enabled_E, align 1, !range !2
  store i8 %481, i8* %480, align 1
  %482 = getelementptr inbounds %"class.blink::RuntimeEnabledFeaturesBase::Backup", %"class.blink::RuntimeEnabledFeaturesBase::Backup"* %0, i64 0, i32 240
  %483 = load i8, i8* @_ZN5blink26RuntimeEnabledFeaturesBase44is_media_capabilities_encoding_info_enabled_E, align 1, !range !2
  store i8 %483, i8* %482, align 1
  %484 = getelementptr inbounds %"class.blink::RuntimeEnabledFeaturesBase::Backup", %"class.blink::RuntimeEnabledFeaturesBase::Backup"* %0, i64 0, i32 241
  %485 = load i8, i8* @_ZN5blink26RuntimeEnabledFeaturesBase46is_media_capabilities_encrypted_media_enabled_E, align 1, !range !2
  store i8 %485, i8* %484, align 1
  %486 = getelementptr inbounds %"class.blink::RuntimeEnabledFeaturesBase::Backup", %"class.blink::RuntimeEnabledFeaturesBase::Backup"* %0, i64 0, i32 242
  %487 = load i8, i8* @_ZN5blink26RuntimeEnabledFeaturesBase44is_media_capabilities_spatial_audio_enabled_E, align 1, !range !2
  store i8 %487, i8* %486, align 1
  %488 = getelementptr inbounds %"class.blink::RuntimeEnabledFeaturesBase::Backup", %"class.blink::RuntimeEnabledFeaturesBase::Backup"* %0, i64 0, i32 243
  %489 = load i8, i8* @_ZN5blink26RuntimeEnabledFeaturesBase38is_media_capabilities_web_rtc_enabled_E, align 1, !range !2
  store i8 %489, i8* %488, align 1
  %490 = getelementptr inbounds %"class.blink::RuntimeEnabledFeaturesBase::Backup", %"class.blink::RuntimeEnabledFeaturesBase::Backup"* %0, i64 0, i32 244
  %491 = load i8, i8* @_ZN5blink26RuntimeEnabledFeaturesBase25is_media_capture_enabled_E, align 1, !range !2
  store i8 %491, i8* %490, align 1
  %492 = getelementptr inbounds %"class.blink::RuntimeEnabledFeaturesBase::Backup", %"class.blink::RuntimeEnabledFeaturesBase::Backup"* %0, i64 0, i32 245
  %493 = load i8, i8* @_ZN5blink26RuntimeEnabledFeaturesBase42is_media_capture_depth_video_kind_enabled_E, align 1, !range !2
  store i8 %493, i8* %492, align 1
  %494 = getelementptr inbounds %"class.blink::RuntimeEnabledFeaturesBase::Backup", %"class.blink::RuntimeEnabledFeaturesBase::Backup"* %0, i64 0, i32 246
  %495 = load i8, i8* @_ZN5blink26RuntimeEnabledFeaturesBase37is_media_cast_overlay_button_enabled_E, align 1, !range !2
  store i8 %495, i8* %494, align 1
  %496 = getelementptr inbounds %"class.blink::RuntimeEnabledFeaturesBase::Backup", %"class.blink::RuntimeEnabledFeaturesBase::Backup"* %0, i64 0, i32 247
  %497 = load i8, i8* @_ZN5blink26RuntimeEnabledFeaturesBase41is_media_controls_expand_gesture_enabled_E, align 1, !range !2
  store i8 %497, i8* %496, align 1
  %498 = getelementptr inbounds %"class.blink::RuntimeEnabledFeaturesBase::Backup", %"class.blink::RuntimeEnabledFeaturesBase::Backup"* %0, i64 0, i32 248
  %499 = load i8, i8* @_ZN5blink26RuntimeEnabledFeaturesBase46is_media_controls_overlay_play_button_enabled_E, align 1, !range !2
  store i8 %499, i8* %498, align 1
  %500 = getelementptr inbounds %"class.blink::RuntimeEnabledFeaturesBase::Backup", %"class.blink::RuntimeEnabledFeaturesBase::Backup"* %0, i64 0, i32 249
  %501 = load i8, i8* @_ZN5blink26RuntimeEnabledFeaturesBase49is_media_controls_use_cut_out_by_default_enabled_E, align 1, !range !2
  store i8 %501, i8* %500, align 1
  %502 = getelementptr inbounds %"class.blink::RuntimeEnabledFeaturesBase::Backup", %"class.blink::RuntimeEnabledFeaturesBase::Backup"* %0, i64 0, i32 250
  %503 = load i8, i8* @_ZN5blink26RuntimeEnabledFeaturesBase42is_media_document_download_button_enabled_E, align 1, !range !2
  store i8 %503, i8* %502, align 1
  %504 = getelementptr inbounds %"class.blink::RuntimeEnabledFeaturesBase::Backup", %"class.blink::RuntimeEnabledFeaturesBase::Backup"* %0, i64 0, i32 251
  %505 = load i8, i8* @_ZN5blink26RuntimeEnabledFeaturesBase49is_media_element_volume_greater_than_one_enabled_E, align 1, !range !2
  store i8 %505, i8* %504, align 1
  %506 = getelementptr inbounds %"class.blink::RuntimeEnabledFeaturesBase::Backup", %"class.blink::RuntimeEnabledFeaturesBase::Backup"* %0, i64 0, i32 252
  %507 = load i8, i8* @_ZN5blink26RuntimeEnabledFeaturesBase53is_media_engagement_bypass_autoplay_policies_enabled_E, align 1, !range !2
  store i8 %507, i8* %506, align 1
  %508 = getelementptr inbounds %"class.blink::RuntimeEnabledFeaturesBase::Backup", %"class.blink::RuntimeEnabledFeaturesBase::Backup"* %0, i64 0, i32 253
  %509 = load i8, i8* @_ZN5blink26RuntimeEnabledFeaturesBase30is_media_latency_hint_enabled_E, align 1, !range !2
  store i8 %509, i8* %508, align 1
  %510 = getelementptr inbounds %"class.blink::RuntimeEnabledFeaturesBase::Backup", %"class.blink::RuntimeEnabledFeaturesBase::Backup"* %0, i64 0, i32 254
  %511 = load i8, i8* @_ZN5blink26RuntimeEnabledFeaturesBase33is_media_preserves_pitch_enabled_E, align 1, !range !2
  store i8 %511, i8* %510, align 1
  %512 = getelementptr inbounds %"class.blink::RuntimeEnabledFeaturesBase::Backup", %"class.blink::RuntimeEnabledFeaturesBase::Backup"* %0, i64 0, i32 255
  %513 = load i8, i8* @_ZN5blink26RuntimeEnabledFeaturesBase43is_media_query_navigation_controls_enabled_E, align 1, !range !2
  store i8 %513, i8* %512, align 1
  %514 = getelementptr inbounds %"class.blink::RuntimeEnabledFeaturesBase::Backup", %"class.blink::RuntimeEnabledFeaturesBase::Backup"* %0, i64 0, i32 256
  %515 = load i8, i8* @_ZN5blink26RuntimeEnabledFeaturesBase25is_media_session_enabled_E, align 1, !range !2
  store i8 %515, i8* %514, align 1
  %516 = getelementptr inbounds %"class.blink::RuntimeEnabledFeaturesBase::Backup", %"class.blink::RuntimeEnabledFeaturesBase::Backup"* %0, i64 0, i32 257
  %517 = load i8, i8* @_ZN5blink26RuntimeEnabledFeaturesBase34is_media_session_position_enabled_E, align 1, !range !2
  store i8 %517, i8* %516, align 1
  %518 = getelementptr inbounds %"class.blink::RuntimeEnabledFeaturesBase::Backup", %"class.blink::RuntimeEnabledFeaturesBase::Backup"* %0, i64 0, i32 258
  %519 = load i8, i8* @_ZN5blink26RuntimeEnabledFeaturesBase33is_media_session_web_rtc_enabled_E, align 1, !range !2
  store i8 %519, i8* %518, align 1
  %520 = getelementptr inbounds %"class.blink::RuntimeEnabledFeaturesBase::Backup", %"class.blink::RuntimeEnabledFeaturesBase::Backup"* %0, i64 0, i32 259
  %521 = load i8, i8* @_ZN5blink26RuntimeEnabledFeaturesBase37is_media_source_experimental_enabled_E, align 1, !range !2
  store i8 %521, i8* %520, align 1
  %522 = getelementptr inbounds %"class.blink::RuntimeEnabledFeaturesBase::Backup", %"class.blink::RuntimeEnabledFeaturesBase::Backup"* %0, i64 0, i32 260
  %523 = load i8, i8* @_ZN5blink26RuntimeEnabledFeaturesBase49is_media_source_extensions_for_webcodecs_enabled_E, align 1, !range !2
  store i8 %523, i8* %522, align 1
  %524 = getelementptr inbounds %"class.blink::RuntimeEnabledFeaturesBase::Backup", %"class.blink::RuntimeEnabledFeaturesBase::Backup"* %0, i64 0, i32 261
  %525 = load i8, i8* @_ZN5blink26RuntimeEnabledFeaturesBase35is_media_source_in_workers_enabled_E, align 1, !range !2
  store i8 %525, i8* %524, align 1
  %526 = getelementptr inbounds %"class.blink::RuntimeEnabledFeaturesBase::Backup", %"class.blink::RuntimeEnabledFeaturesBase::Backup"* %0, i64 0, i32 262
  %527 = load i8, i8* @_ZN5blink26RuntimeEnabledFeaturesBase47is_media_source_new_abort_and_duration_enabled_E, align 1, !range !2
  store i8 %527, i8* %526, align 1
  %528 = getelementptr inbounds %"class.blink::RuntimeEnabledFeaturesBase::Backup", %"class.blink::RuntimeEnabledFeaturesBase::Backup"* %0, i64 0, i32 263
  %529 = load i8, i8* @_ZN5blink26RuntimeEnabledFeaturesBase31is_media_source_stable_enabled_E, align 1, !range !2
  store i8 %529, i8* %528, align 1
  %530 = getelementptr inbounds %"class.blink::RuntimeEnabledFeaturesBase::Backup", %"class.blink::RuntimeEnabledFeaturesBase::Backup"* %0, i64 0, i32 264
  %531 = load i8, i8* @_ZN5blink26RuntimeEnabledFeaturesBase43is_media_stream_insertable_streams_enabled_E, align 1, !range !2
  store i8 %531, i8* %530, align 1
  %532 = getelementptr inbounds %"class.blink::RuntimeEnabledFeaturesBase::Backup", %"class.blink::RuntimeEnabledFeaturesBase::Backup"* %0, i64 0, i32 265
  %533 = load i8, i8* @_ZN5blink26RuntimeEnabledFeaturesBase35is_middle_click_autoscroll_enabled_E, align 1, !range !2
  store i8 %533, i8* %532, align 1
  %534 = getelementptr inbounds %"class.blink::RuntimeEnabledFeaturesBase::Backup", %"class.blink::RuntimeEnabledFeaturesBase::Backup"* %0, i64 0, i32 266
  %535 = load i8, i8* @_ZN5blink26RuntimeEnabledFeaturesBase31is_mobile_layout_theme_enabled_E, align 1, !range !2
  store i8 %535, i8* %534, align 1
  %536 = getelementptr inbounds %"class.blink::RuntimeEnabledFeaturesBase::Backup", %"class.blink::RuntimeEnabledFeaturesBase::Backup"* %0, i64 0, i32 267
  %537 = load i8, i8* @_ZN5blink26RuntimeEnabledFeaturesBase31is_modal_close_watcher_enabled_E, align 1, !range !2
  store i8 %537, i8* %536, align 1
  %538 = getelementptr inbounds %"class.blink::RuntimeEnabledFeaturesBase::Backup", %"class.blink::RuntimeEnabledFeaturesBase::Backup"* %0, i64 0, i32 268
  %539 = load i8, i8* @_ZN5blink26RuntimeEnabledFeaturesBase33is_module_service_worker_enabled_E, align 1, !range !2
  store i8 %539, i8* %538, align 1
  %540 = getelementptr inbounds %"class.blink::RuntimeEnabledFeaturesBase::Backup", %"class.blink::RuntimeEnabledFeaturesBase::Backup"* %0, i64 0, i32 269
  %541 = load i8, i8* @_ZN5blink26RuntimeEnabledFeaturesBase19is_mojo_js_enabled_E, align 1, !range !2
  store i8 %541, i8* %540, align 1
  %542 = getelementptr inbounds %"class.blink::RuntimeEnabledFeaturesBase::Backup", %"class.blink::RuntimeEnabledFeaturesBase::Backup"* %0, i64 0, i32 270
  %543 = load i8, i8* @_ZN5blink26RuntimeEnabledFeaturesBase24is_mojo_js_test_enabled_E, align 1, !range !2
  store i8 %543, i8* %542, align 1
  %544 = getelementptr inbounds %"class.blink::RuntimeEnabledFeaturesBase::Backup", %"class.blink::RuntimeEnabledFeaturesBase::Backup"* %0, i64 0, i32 271
  %545 = load i8, i8* @_ZN5blink26RuntimeEnabledFeaturesBase46is_mouse_subframe_no_implicit_capture_enabled_E, align 1, !range !2
  store i8 %545, i8* %544, align 1
  %546 = getelementptr inbounds %"class.blink::RuntimeEnabledFeaturesBase::Backup", %"class.blink::RuntimeEnabledFeaturesBase::Backup"* %0, i64 0, i32 272
  %547 = load i8, i8* @_ZN5blink26RuntimeEnabledFeaturesBase23is_named_pages_enabled_E, align 1, !range !2
  store i8 %547, i8* %546, align 1
  %548 = getelementptr inbounds %"class.blink::RuntimeEnabledFeaturesBase::Backup", %"class.blink::RuntimeEnabledFeaturesBase::Backup"* %0, i64 0, i32 273
  %549 = load i8, i8* @_ZN5blink26RuntimeEnabledFeaturesBase35is_navigator_content_utils_enabled_E, align 1, !range !2
  store i8 %549, i8* %548, align 1
  %550 = getelementptr inbounds %"class.blink::RuntimeEnabledFeaturesBase::Backup", %"class.blink::RuntimeEnabledFeaturesBase::Backup"* %0, i64 0, i32 274
  %551 = load i8, i8* @_ZN5blink26RuntimeEnabledFeaturesBase50is_navigator_language_in_insecure_context_enabled_E, align 1, !range !2
  store i8 %551, i8* %550, align 1
  %552 = getelementptr inbounds %"class.blink::RuntimeEnabledFeaturesBase::Backup", %"class.blink::RuntimeEnabledFeaturesBase::Backup"* %0, i64 0, i32 275
  %553 = load i8, i8* @_ZN5blink26RuntimeEnabledFeaturesBase33is_net_info_downlink_max_enabled_E, align 1, !range !2
  store i8 %553, i8* %552, align 1
  %554 = getelementptr inbounds %"class.blink::RuntimeEnabledFeaturesBase::Backup", %"class.blink::RuntimeEnabledFeaturesBase::Backup"* %0, i64 0, i32 276
  %555 = load i8, i8* @_ZN5blink26RuntimeEnabledFeaturesBase27is_never_slow_mode_enabled_E, align 1, !range !2
  store i8 %555, i8* %554, align 1
  %556 = getelementptr inbounds %"class.blink::RuntimeEnabledFeaturesBase::Backup", %"class.blink::RuntimeEnabledFeaturesBase::Backup"* %0, i64 0, i32 277
  %557 = load i8, i8* @_ZN5blink26RuntimeEnabledFeaturesBase29is_new_canvas_2d_api_enabled_E, align 1, !range !2
  store i8 %557, i8* %556, align 1
  %558 = getelementptr inbounds %"class.blink::RuntimeEnabledFeaturesBase::Backup", %"class.blink::RuntimeEnabledFeaturesBase::Backup"* %0, i64 0, i32 278
  %559 = load i8, i8* @_ZN5blink26RuntimeEnabledFeaturesBase40is_new_remote_playback_pipeline_enabled_E, align 1, !range !2
  store i8 %559, i8* %558, align 1
  %560 = getelementptr inbounds %"class.blink::RuntimeEnabledFeaturesBase::Backup", %"class.blink::RuntimeEnabledFeaturesBase::Backup"* %0, i64 0, i32 279
  %561 = load i8, i8* @_ZN5blink26RuntimeEnabledFeaturesBase42is_no_idle_encoding_for_web_tests_enabled_E, align 1, !range !2
  store i8 %561, i8* %560, align 1
  %562 = getelementptr inbounds %"class.blink::RuntimeEnabledFeaturesBase::Backup", %"class.blink::RuntimeEnabledFeaturesBase::Backup"* %0, i64 0, i32 280
  %563 = load i8, i8* @_ZN5blink26RuntimeEnabledFeaturesBase36is_notification_constructor_enabled_E, align 1, !range !2
  store i8 %563, i8* %562, align 1
  %564 = getelementptr inbounds %"class.blink::RuntimeEnabledFeaturesBase::Backup", %"class.blink::RuntimeEnabledFeaturesBase::Backup"* %0, i64 0, i32 281
  %565 = load i8, i8* @_ZN5blink26RuntimeEnabledFeaturesBase38is_notification_content_image_enabled_E, align 1, !range !2
  store i8 %565, i8* %564, align 1
  %566 = getelementptr inbounds %"class.blink::RuntimeEnabledFeaturesBase::Backup", %"class.blink::RuntimeEnabledFeaturesBase::Backup"* %0, i64 0, i32 282
  %567 = load i8, i8* @_ZN5blink26RuntimeEnabledFeaturesBase25is_notifications_enabled_E, align 1, !range !2
  store i8 %567, i8* %566, align 1
  %568 = getelementptr inbounds %"class.blink::RuntimeEnabledFeaturesBase::Backup", %"class.blink::RuntimeEnabledFeaturesBase::Backup"* %0, i64 0, i32 283
  %569 = load i8, i8* @_ZN5blink26RuntimeEnabledFeaturesBase33is_notification_triggers_enabled_E, align 1, !range !2
  store i8 %569, i8* %568, align 1
  %570 = getelementptr inbounds %"class.blink::RuntimeEnabledFeaturesBase::Backup", %"class.blink::RuntimeEnabledFeaturesBase::Backup"* %0, i64 0, i32 284
  %571 = load i8, i8* @_ZN5blink26RuntimeEnabledFeaturesBase37is_off_main_thread_css_paint_enabled_E, align 1, !range !2
  store i8 %571, i8* %570, align 1
  %572 = getelementptr inbounds %"class.blink::RuntimeEnabledFeaturesBase::Backup", %"class.blink::RuntimeEnabledFeaturesBase::Backup"* %0, i64 0, i32 285
  %573 = load i8, i8* @_ZN5blink26RuntimeEnabledFeaturesBase35is_offscreen_canvas_commit_enabled_E, align 1, !range !2
  store i8 %573, i8* %572, align 1
  %574 = getelementptr inbounds %"class.blink::RuntimeEnabledFeaturesBase::Backup", %"class.blink::RuntimeEnabledFeaturesBase::Backup"* %0, i64 0, i32 286
  %575 = load i8, i8* @_ZN5blink26RuntimeEnabledFeaturesBase43is_offset_parent_new_spec_behavior_enabled_E, align 1, !range !2
  store i8 %575, i8* %574, align 1
  %576 = getelementptr inbounds %"class.blink::RuntimeEnabledFeaturesBase::Backup", %"class.blink::RuntimeEnabledFeaturesBase::Backup"* %0, i64 0, i32 287
  %577 = load i8, i8* @_ZN5blink26RuntimeEnabledFeaturesBase28is_on_device_change_enabled_E, align 1, !range !2
  store i8 %577, i8* %576, align 1
  %578 = getelementptr inbounds %"class.blink::RuntimeEnabledFeaturesBase::Backup", %"class.blink::RuntimeEnabledFeaturesBase::Backup"* %0, i64 0, i32 288
  %579 = load i8, i8* @_ZN5blink26RuntimeEnabledFeaturesBase29is_orientation_event_enabled_E, align 1, !range !2
  store i8 %579, i8* %578, align 1
  %580 = getelementptr inbounds %"class.blink::RuntimeEnabledFeaturesBase::Backup", %"class.blink::RuntimeEnabledFeaturesBase::Backup"* %0, i64 0, i32 289
  %581 = load i8, i8* @_ZN5blink26RuntimeEnabledFeaturesBase35is_origin_isolation_header_enabled_E, align 1, !range !2
  store i8 %581, i8* %580, align 1
  %582 = getelementptr inbounds %"class.blink::RuntimeEnabledFeaturesBase::Backup", %"class.blink::RuntimeEnabledFeaturesBase::Backup"* %0, i64 0, i32 290
  %583 = load i8, i8* @_ZN5blink26RuntimeEnabledFeaturesBase25is_origin_policy_enabled_E, align 1, !range !2
  store i8 %583, i8* %582, align 1
  %584 = getelementptr inbounds %"class.blink::RuntimeEnabledFeaturesBase::Backup", %"class.blink::RuntimeEnabledFeaturesBase::Backup"* %0, i64 0, i32 291
  %585 = load i8, i8* @_ZN5blink26RuntimeEnabledFeaturesBase36is_origin_trials_sample_api_enabled_E, align 1, !range !2
  store i8 %585, i8* %584, align 1
  %586 = getelementptr inbounds %"class.blink::RuntimeEnabledFeaturesBase::Backup", %"class.blink::RuntimeEnabledFeaturesBase::Backup"* %0, i64 0, i32 292
  %587 = load i8, i8* @_ZN5blink26RuntimeEnabledFeaturesBase46is_origin_trials_sample_api_dependent_enabled_E, align 1, !range !2
  store i8 %587, i8* %586, align 1
  %588 = getelementptr inbounds %"class.blink::RuntimeEnabledFeaturesBase::Backup", %"class.blink::RuntimeEnabledFeaturesBase::Backup"* %0, i64 0, i32 293
  %589 = load i8, i8* @_ZN5blink26RuntimeEnabledFeaturesBase48is_origin_trials_sample_api_deprecation_enabled_E, align 1, !range !2
  store i8 %589, i8* %588, align 1
  %590 = getelementptr inbounds %"class.blink::RuntimeEnabledFeaturesBase::Backup", %"class.blink::RuntimeEnabledFeaturesBase::Backup"* %0, i64 0, i32 294
  %591 = load i8, i8* @_ZN5blink26RuntimeEnabledFeaturesBase44is_origin_trials_sample_api_implied_enabled_E, align 1, !range !2
  store i8 %591, i8* %590, align 1
  %592 = getelementptr inbounds %"class.blink::RuntimeEnabledFeaturesBase::Backup", %"class.blink::RuntimeEnabledFeaturesBase::Backup"* %0, i64 0, i32 295
  %593 = load i8, i8* @_ZN5blink26RuntimeEnabledFeaturesBase47is_origin_trials_sample_api_invalid_os_enabled_E, align 1, !range !2
  store i8 %593, i8* %592, align 1
  %594 = getelementptr inbounds %"class.blink::RuntimeEnabledFeaturesBase::Backup", %"class.blink::RuntimeEnabledFeaturesBase::Backup"* %0, i64 0, i32 296
  %595 = load i8, i8* @_ZN5blink26RuntimeEnabledFeaturesBase47is_origin_trials_sample_api_navigation_enabled_E, align 1, !range !2
  store i8 %595, i8* %594, align 1
  %596 = getelementptr inbounds %"class.blink::RuntimeEnabledFeaturesBase::Backup", %"class.blink::RuntimeEnabledFeaturesBase::Backup"* %0, i64 0, i32 297
  %597 = load i8, i8* @_ZN5blink26RuntimeEnabledFeaturesBase48is_origin_trials_sample_api_third_party_enabled_E, align 1, !range !2
  store i8 %597, i8* %596, align 1
  %598 = getelementptr inbounds %"class.blink::RuntimeEnabledFeaturesBase::Backup", %"class.blink::RuntimeEnabledFeaturesBase::Backup"* %0, i64 0, i32 298
  %599 = load i8, i8* @_ZN5blink26RuntimeEnabledFeaturesBase25is_overflow_clip_enabled_E, align 1, !range !2
  store i8 %599, i8* %598, align 1
  %600 = getelementptr inbounds %"class.blink::RuntimeEnabledFeaturesBase::Backup", %"class.blink::RuntimeEnabledFeaturesBase::Backup"* %0, i64 0, i32 299
  %601 = load i8, i8* @_ZN5blink26RuntimeEnabledFeaturesBase36is_overscroll_customization_enabled_E, align 1, !range !2
  store i8 %601, i8* %600, align 1
  %602 = getelementptr inbounds %"class.blink::RuntimeEnabledFeaturesBase::Backup", %"class.blink::RuntimeEnabledFeaturesBase::Backup"* %0, i64 0, i32 300
  %603 = load i8, i8* @_ZN5blink26RuntimeEnabledFeaturesBase30is_page_freeze_opt_in_enabled_E, align 1, !range !2
  store i8 %603, i8* %602, align 1
  %604 = getelementptr inbounds %"class.blink::RuntimeEnabledFeaturesBase::Backup", %"class.blink::RuntimeEnabledFeaturesBase::Backup"* %0, i64 0, i32 301
  %605 = load i8, i8* @_ZN5blink26RuntimeEnabledFeaturesBase31is_page_freeze_opt_out_enabled_E, align 1, !range !2
  store i8 %605, i8* %604, align 1
  %606 = getelementptr inbounds %"class.blink::RuntimeEnabledFeaturesBase::Backup", %"class.blink::RuntimeEnabledFeaturesBase::Backup"* %0, i64 0, i32 302
  %607 = load i8, i8* @_ZN5blink26RuntimeEnabledFeaturesBase22is_page_popup_enabled_E, align 1, !range !2
  store i8 %607, i8* %606, align 1
  %608 = getelementptr inbounds %"class.blink::RuntimeEnabledFeaturesBase::Backup", %"class.blink::RuntimeEnabledFeaturesBase::Backup"* %0, i64 0, i32 303
  %609 = load i8, i8* @_ZN5blink26RuntimeEnabledFeaturesBase45is_paint_under_invalidation_checking_enabled_E, align 1, !range !2
  store i8 %609, i8* %608, align 1
  %610 = getelementptr inbounds %"class.blink::RuntimeEnabledFeaturesBase::Backup", %"class.blink::RuntimeEnabledFeaturesBase::Backup"* %0, i64 0, i32 304
  %611 = load i8, i8* @_ZN5blink26RuntimeEnabledFeaturesBase38is_parse_url_protocol_handler_enabled_E, align 1, !range !2
  store i8 %611, i8* %610, align 1
  %612 = getelementptr inbounds %"class.blink::RuntimeEnabledFeaturesBase::Backup", %"class.blink::RuntimeEnabledFeaturesBase::Backup"* %0, i64 0, i32 305
  %613 = load i8, i8* @_ZN5blink26RuntimeEnabledFeaturesBase48is_pass_paint_visual_rect_to_compositor_enabled_E, align 1, !range !2
  store i8 %613, i8* %612, align 1
  %614 = getelementptr inbounds %"class.blink::RuntimeEnabledFeaturesBase::Backup", %"class.blink::RuntimeEnabledFeaturesBase::Backup"* %0, i64 0, i32 306
  %615 = load i8, i8* @_ZN5blink26RuntimeEnabledFeaturesBase27is_password_reveal_enabled_E, align 1, !range !2
  store i8 %615, i8* %614, align 1
  %616 = getelementptr inbounds %"class.blink::RuntimeEnabledFeaturesBase::Backup", %"class.blink::RuntimeEnabledFeaturesBase::Backup"* %0, i64 0, i32 307
  %617 = load i8, i8* @_ZN5blink26RuntimeEnabledFeaturesBase23is_payment_app_enabled_E, align 1, !range !2
  store i8 %617, i8* %616, align 1
  %618 = getelementptr inbounds %"class.blink::RuntimeEnabledFeaturesBase::Backup", %"class.blink::RuntimeEnabledFeaturesBase::Backup"* %0, i64 0, i32 308
  %619 = load i8, i8* @_ZN5blink26RuntimeEnabledFeaturesBase49is_payment_handler_change_payment_method_enabled_E, align 1, !range !2
  store i8 %619, i8* %618, align 1
  %620 = getelementptr inbounds %"class.blink::RuntimeEnabledFeaturesBase::Backup", %"class.blink::RuntimeEnabledFeaturesBase::Backup"* %0, i64 0, i32 309
  %621 = load i8, i8* @_ZN5blink26RuntimeEnabledFeaturesBase56is_payment_handler_handles_shipping_and_contact_enabled_E, align 1, !range !2
  store i8 %621, i8* %620, align 1
  %622 = getelementptr inbounds %"class.blink::RuntimeEnabledFeaturesBase::Backup", %"class.blink::RuntimeEnabledFeaturesBase::Backup"* %0, i64 0, i32 310
  %623 = load i8, i8* @_ZN5blink26RuntimeEnabledFeaturesBase38is_payment_handler_minimal_ui_enabled_E, align 1, !range !2
  store i8 %623, i8* %622, align 1
  %624 = getelementptr inbounds %"class.blink::RuntimeEnabledFeaturesBase::Backup", %"class.blink::RuntimeEnabledFeaturesBase::Backup"* %0, i64 0, i32 311
  %625 = load i8, i8* @_ZN5blink26RuntimeEnabledFeaturesBase39is_payment_method_change_event_enabled_E, align 1, !range !2
  store i8 %625, i8* %624, align 1
  %626 = getelementptr inbounds %"class.blink::RuntimeEnabledFeaturesBase::Backup", %"class.blink::RuntimeEnabledFeaturesBase::Backup"* %0, i64 0, i32 312
  %627 = load i8, i8* @_ZN5blink26RuntimeEnabledFeaturesBase27is_payment_request_enabled_E, align 1, !range !2
  store i8 %627, i8* %626, align 1
  %628 = getelementptr inbounds %"class.blink::RuntimeEnabledFeaturesBase::Backup", %"class.blink::RuntimeEnabledFeaturesBase::Backup"* %0, i64 0, i32 313
  %629 = load i8, i8* @_ZN5blink26RuntimeEnabledFeaturesBase53is_payment_request_merchant_validation_event_enabled_E, align 1, !range !2
  store i8 %629, i8* %628, align 1
  %630 = getelementptr inbounds %"class.blink::RuntimeEnabledFeaturesBase::Backup", %"class.blink::RuntimeEnabledFeaturesBase::Backup"* %0, i64 0, i32 314
  %631 = load i8, i8* @_ZN5blink26RuntimeEnabledFeaturesBase25is_payment_retry_enabled_E, align 1, !range !2
  store i8 %631, i8* %630, align 1
  %632 = getelementptr inbounds %"class.blink::RuntimeEnabledFeaturesBase::Backup", %"class.blink::RuntimeEnabledFeaturesBase::Backup"* %0, i64 0, i32 315
  %633 = load i8, i8* @_ZN5blink26RuntimeEnabledFeaturesBase35is_percent_based_scrolling_enabled_E, align 1, !range !2
  store i8 %633, i8* %632, align 1
  %634 = getelementptr inbounds %"class.blink::RuntimeEnabledFeaturesBase::Backup", %"class.blink::RuntimeEnabledFeaturesBase::Backup"* %0, i64 0, i32 316
  %635 = load i8, i8* @_ZN5blink26RuntimeEnabledFeaturesBase47is_performance_manager_instrumentation_enabled_E, align 1, !range !2
  store i8 %635, i8* %634, align 1
  %636 = getelementptr inbounds %"class.blink::RuntimeEnabledFeaturesBase::Backup", %"class.blink::RuntimeEnabledFeaturesBase::Backup"* %0, i64 0, i32 317
  %637 = load i8, i8* @_ZN5blink26RuntimeEnabledFeaturesBase36is_periodic_background_sync_enabled_E, align 1, !range !2
  store i8 %637, i8* %636, align 1
  %638 = getelementptr inbounds %"class.blink::RuntimeEnabledFeaturesBase::Backup", %"class.blink::RuntimeEnabledFeaturesBase::Backup"* %0, i64 0, i32 318
  %639 = load i8, i8* @_ZN5blink26RuntimeEnabledFeaturesBase45is_per_method_can_make_payment_quota_enabled_E, align 1, !range !2
  store i8 %639, i8* %638, align 1
  %640 = getelementptr inbounds %"class.blink::RuntimeEnabledFeaturesBase::Backup", %"class.blink::RuntimeEnabledFeaturesBase::Backup"* %0, i64 0, i32 319
  %641 = load i8, i8* @_ZN5blink26RuntimeEnabledFeaturesBase33is_permission_delegation_enabled_E, align 1, !range !2
  store i8 %641, i8* %640, align 1
  %642 = getelementptr inbounds %"class.blink::RuntimeEnabledFeaturesBase::Backup", %"class.blink::RuntimeEnabledFeaturesBase::Backup"* %0, i64 0, i32 320
  %643 = load i8, i8* @_ZN5blink26RuntimeEnabledFeaturesBase23is_permissions_enabled_E, align 1, !range !2
  store i8 %643, i8* %642, align 1
  %644 = getelementptr inbounds %"class.blink::RuntimeEnabledFeaturesBase::Backup", %"class.blink::RuntimeEnabledFeaturesBase::Backup"* %0, i64 0, i32 321
  %645 = load i8, i8* @_ZN5blink26RuntimeEnabledFeaturesBase37is_permissions_policy_header_enabled_E, align 1, !range !2
  store i8 %645, i8* %644, align 1
  %646 = getelementptr inbounds %"class.blink::RuntimeEnabledFeaturesBase::Backup", %"class.blink::RuntimeEnabledFeaturesBase::Backup"* %0, i64 0, i32 322
  %647 = load i8, i8* @_ZN5blink26RuntimeEnabledFeaturesBase38is_permissions_request_revoke_enabled_E, align 1, !range !2
  store i8 %647, i8* %646, align 1
  %648 = getelementptr inbounds %"class.blink::RuntimeEnabledFeaturesBase::Backup", %"class.blink::RuntimeEnabledFeaturesBase::Backup"* %0, i64 0, i32 323
  %649 = load i8, i8* @_ZN5blink26RuntimeEnabledFeaturesBase30is_picture_in_picture_enabled_E, align 1, !range !2
  store i8 %649, i8* %648, align 1
  %650 = getelementptr inbounds %"class.blink::RuntimeEnabledFeaturesBase::Backup", %"class.blink::RuntimeEnabledFeaturesBase::Backup"* %0, i64 0, i32 324
  %651 = load i8, i8* @_ZN5blink26RuntimeEnabledFeaturesBase34is_picture_in_picture_api_enabled_E, align 1, !range !2
  store i8 %651, i8* %650, align 1
  %652 = getelementptr inbounds %"class.blink::RuntimeEnabledFeaturesBase::Backup", %"class.blink::RuntimeEnabledFeaturesBase::Backup"* %0, i64 0, i32 325
  %653 = load i8, i8* @_ZN5blink26RuntimeEnabledFeaturesBase34is_picture_in_picture_v_2_enabled_E, align 1, !range !2
  store i8 %653, i8* %652, align 1
  %654 = getelementptr inbounds %"class.blink::RuntimeEnabledFeaturesBase::Backup", %"class.blink::RuntimeEnabledFeaturesBase::Backup"* %0, i64 0, i32 326
  %655 = load i8, i8* @_ZN5blink26RuntimeEnabledFeaturesBase19is_p_na_cl_enabled_E, align 1, !range !2
  store i8 %655, i8* %654, align 1
  %656 = getelementptr inbounds %"class.blink::RuntimeEnabledFeaturesBase::Backup", %"class.blink::RuntimeEnabledFeaturesBase::Backup"* %0, i64 0, i32 327
  %657 = load i8, i8* @_ZN5blink26RuntimeEnabledFeaturesBase32is_pointer_lock_options_enabled_E, align 1, !range !2
  store i8 %657, i8* %656, align 1
  %658 = getelementptr inbounds %"class.blink::RuntimeEnabledFeaturesBase::Backup", %"class.blink::RuntimeEnabledFeaturesBase::Backup"* %0, i64 0, i32 328
  %659 = load i8, i8* @_ZN5blink26RuntimeEnabledFeaturesBase30is_pointer_raw_update_enabled_E, align 1, !range !2
  store i8 %659, i8* %658, align 1
  %660 = getelementptr inbounds %"class.blink::RuntimeEnabledFeaturesBase::Backup", %"class.blink::RuntimeEnabledFeaturesBase::Backup"* %0, i64 0, i32 329
  %661 = load i8, i8* @_ZN5blink26RuntimeEnabledFeaturesBase19is_portals_enabled_E, align 1, !range !2
  store i8 %661, i8* %660, align 1
  %662 = getelementptr inbounds %"class.blink::RuntimeEnabledFeaturesBase::Backup", %"class.blink::RuntimeEnabledFeaturesBase::Backup"* %0, i64 0, i32 330
  %663 = load i8, i8* @_ZN5blink26RuntimeEnabledFeaturesBase31is_precise_memory_info_enabled_E, align 1, !range !2
  store i8 %663, i8* %662, align 1
  %664 = getelementptr inbounds %"class.blink::RuntimeEnabledFeaturesBase::Backup", %"class.blink::RuntimeEnabledFeaturesBase::Backup"* %0, i64 0, i32 331
  %665 = load i8, i8* @_ZN5blink26RuntimeEnabledFeaturesBase43is_prefer_non_composited_scrolling_enabled_E, align 1, !range !2
  store i8 %665, i8* %664, align 1
  %666 = getelementptr inbounds %"class.blink::RuntimeEnabledFeaturesBase::Backup", %"class.blink::RuntimeEnabledFeaturesBase::Backup"* %0, i64 0, i32 332
  %667 = load i8, i8* @_ZN5blink26RuntimeEnabledFeaturesBase51is_prefers_color_scheme_client_hint_header_enabled_E, align 1, !range !2
  store i8 %667, i8* %666, align 1
  %668 = getelementptr inbounds %"class.blink::RuntimeEnabledFeaturesBase::Backup", %"class.blink::RuntimeEnabledFeaturesBase::Backup"* %0, i64 0, i32 333
  %669 = load i8, i8* @_ZN5blink26RuntimeEnabledFeaturesBase28is_prefers_contrast_enabled_E, align 1, !range !2
  store i8 %669, i8* %668, align 1
  %670 = getelementptr inbounds %"class.blink::RuntimeEnabledFeaturesBase::Backup", %"class.blink::RuntimeEnabledFeaturesBase::Backup"* %0, i64 0, i32 334
  %671 = load i8, i8* @_ZN5blink26RuntimeEnabledFeaturesBase32is_prefers_reduced_data_enabled_E, align 1, !range !2
  store i8 %671, i8* %670, align 1
  %672 = getelementptr inbounds %"class.blink::RuntimeEnabledFeaturesBase::Backup", %"class.blink::RuntimeEnabledFeaturesBase::Backup"* %0, i64 0, i32 335
  %673 = load i8, i8* @_ZN5blink26RuntimeEnabledFeaturesBase37is_prefixed_video_fullscreen_enabled_E, align 1, !range !2
  store i8 %673, i8* %672, align 1
  %674 = getelementptr inbounds %"class.blink::RuntimeEnabledFeaturesBase::Backup", %"class.blink::RuntimeEnabledFeaturesBase::Backup"* %0, i64 0, i32 336
  %675 = load i8, i8* @_ZN5blink26RuntimeEnabledFeaturesBase23is_prerender_2_enabled_E, align 1, !range !2
  store i8 %675, i8* %674, align 1
  %676 = getelementptr inbounds %"class.blink::RuntimeEnabledFeaturesBase::Backup", %"class.blink::RuntimeEnabledFeaturesBase::Backup"* %0, i64 0, i32 337
  %677 = load i8, i8* @_ZN5blink26RuntimeEnabledFeaturesBase24is_presentation_enabled_E, align 1, !range !2
  store i8 %677, i8* %676, align 1
  %678 = getelementptr inbounds %"class.blink::RuntimeEnabledFeaturesBase::Backup", %"class.blink::RuntimeEnabledFeaturesBase::Backup"* %0, i64 0, i32 338
  %679 = load i8, i8* @_ZN5blink26RuntimeEnabledFeaturesBase26is_priority_hints_enabled_E, align 1, !range !2
  store i8 %679, i8* %678, align 1
  %680 = getelementptr inbounds %"class.blink::RuntimeEnabledFeaturesBase::Backup", %"class.blink::RuntimeEnabledFeaturesBase::Backup"* %0, i64 0, i32 339
  %681 = load i8, i8* @_ZN5blink26RuntimeEnabledFeaturesBase26is_push_messaging_enabled_E, align 1, !range !2
  store i8 %681, i8* %680, align 1
  %682 = getelementptr inbounds %"class.blink::RuntimeEnabledFeaturesBase::Backup", %"class.blink::RuntimeEnabledFeaturesBase::Backup"* %0, i64 0, i32 340
  %683 = load i8, i8* @_ZN5blink26RuntimeEnabledFeaturesBase46is_push_messaging_subscription_change_enabled_E, align 1, !range !2
  store i8 %683, i8* %682, align 1
  %684 = getelementptr inbounds %"class.blink::RuntimeEnabledFeaturesBase::Backup", %"class.blink::RuntimeEnabledFeaturesBase::Backup"* %0, i64 0, i32 341
  %685 = load i8, i8* @_ZN5blink26RuntimeEnabledFeaturesBase24is_quota_change_enabled_E, align 1, !range !2
  store i8 %685, i8* %684, align 1
  %686 = getelementptr inbounds %"class.blink::RuntimeEnabledFeaturesBase::Backup", %"class.blink::RuntimeEnabledFeaturesBase::Backup"* %0, i64 0, i32 342
  %687 = load i8, i8* @_ZN5blink26RuntimeEnabledFeaturesBase25is_raw_clipboard_enabled_E, align 1, !range !2
  store i8 %687, i8* %686, align 1
  %688 = getelementptr inbounds %"class.blink::RuntimeEnabledFeaturesBase::Backup", %"class.blink::RuntimeEnabledFeaturesBase::Backup"* %0, i64 0, i32 343
  %689 = load i8, i8* @_ZN5blink26RuntimeEnabledFeaturesBase27is_remote_playback_enabled_E, align 1, !range !2
  store i8 %689, i8* %688, align 1
  %690 = getelementptr inbounds %"class.blink::RuntimeEnabledFeaturesBase::Backup", %"class.blink::RuntimeEnabledFeaturesBase::Backup"* %0, i64 0, i32 344
  %691 = load i8, i8* @_ZN5blink26RuntimeEnabledFeaturesBase35is_remote_playback_backend_enabled_E, align 1, !range !2
  store i8 %691, i8* %690, align 1
  %692 = getelementptr inbounds %"class.blink::RuntimeEnabledFeaturesBase::Backup", %"class.blink::RuntimeEnabledFeaturesBase::Backup"* %0, i64 0, i32 345
  %693 = load i8, i8* @_ZN5blink26RuntimeEnabledFeaturesBase45is_remove_mobile_viewport_double_tap_enabled_E, align 1, !range !2
  store i8 %693, i8* %692, align 1
  %694 = getelementptr inbounds %"class.blink::RuntimeEnabledFeaturesBase::Backup", %"class.blink::RuntimeEnabledFeaturesBase::Backup"* %0, i64 0, i32 346
  %695 = load i8, i8* @_ZN5blink26RuntimeEnabledFeaturesBase40is_request_video_frame_callback_enabled_E, align 1, !range !2
  store i8 %695, i8* %694, align 1
  %696 = getelementptr inbounds %"class.blink::RuntimeEnabledFeaturesBase::Backup", %"class.blink::RuntimeEnabledFeaturesBase::Backup"* %0, i64 0, i32 347
  %697 = load i8, i8* @_ZN5blink26RuntimeEnabledFeaturesBase63is_restrict_automatic_lazy_frame_loading_to_data_saver_enabled_E, align 1, !range !2
  store i8 %697, i8* %696, align 1
  %698 = getelementptr inbounds %"class.blink::RuntimeEnabledFeaturesBase::Backup", %"class.blink::RuntimeEnabledFeaturesBase::Backup"* %0, i64 0, i32 348
  %699 = load i8, i8* @_ZN5blink26RuntimeEnabledFeaturesBase63is_restrict_automatic_lazy_image_loading_to_data_saver_enabled_E, align 1, !range !2
  store i8 %699, i8* %698, align 1
  %700 = getelementptr inbounds %"class.blink::RuntimeEnabledFeaturesBase::Backup", %"class.blink::RuntimeEnabledFeaturesBase::Backup"* %0, i64 0, i32 349
  %701 = load i8, i8* @_ZN5blink26RuntimeEnabledFeaturesBase35is_restrict_gamepad_access_enabled_E, align 1, !range !2
  store i8 %701, i8* %700, align 1
  %702 = getelementptr inbounds %"class.blink::RuntimeEnabledFeaturesBase::Backup", %"class.blink::RuntimeEnabledFeaturesBase::Backup"* %0, i64 0, i32 350
  %703 = load i8, i8* @_ZN5blink26RuntimeEnabledFeaturesBase47is_rtc_audio_jitter_buffer_max_packets_enabled_E, align 1, !range !2
  store i8 %703, i8* %702, align 1
  %704 = getelementptr inbounds %"class.blink::RuntimeEnabledFeaturesBase::Backup", %"class.blink::RuntimeEnabledFeaturesBase::Backup"* %0, i64 0, i32 351
  %705 = load i8, i8* @_ZN5blink26RuntimeEnabledFeaturesBase48is_rtc_audio_jitter_buffer_rtx_handling_enabled_E, align 1, !range !2
  store i8 %705, i8* %704, align 1
  %706 = getelementptr inbounds %"class.blink::RuntimeEnabledFeaturesBase::Backup", %"class.blink::RuntimeEnabledFeaturesBase::Backup"* %0, i64 0, i32 352
  %707 = load i8, i8* @_ZN5blink26RuntimeEnabledFeaturesBase50is_rtc_extend_deadline_for_plan_b_removal_enabled_E, align 1, !range !2
  store i8 %707, i8* %706, align 1
  %708 = getelementptr inbounds %"class.blink::RuntimeEnabledFeaturesBase::Backup", %"class.blink::RuntimeEnabledFeaturesBase::Backup"* %0, i64 0, i32 353
  %709 = load i8, i8* @_ZN5blink26RuntimeEnabledFeaturesBase39is_rtc_ice_transport_extension_enabled_E, align 1, !range !2
  store i8 %709, i8* %708, align 1
  %710 = getelementptr inbounds %"class.blink::RuntimeEnabledFeaturesBase::Backup", %"class.blink::RuntimeEnabledFeaturesBase::Backup"* %0, i64 0, i32 354
  %711 = load i8, i8* @_ZN5blink26RuntimeEnabledFeaturesBase34is_rtc_insertable_streams_enabled_E, align 1, !range !2
  store i8 %711, i8* %710, align 1
  %712 = getelementptr inbounds %"class.blink::RuntimeEnabledFeaturesBase::Backup", %"class.blink::RuntimeEnabledFeaturesBase::Backup"* %0, i64 0, i32 355
  %713 = load i8, i8* @_ZN5blink26RuntimeEnabledFeaturesBase30is_rtc_quic_transport_enabled_E, align 1, !range !2
  store i8 %713, i8* %712, align 1
  %714 = getelementptr inbounds %"class.blink::RuntimeEnabledFeaturesBase::Backup", %"class.blink::RuntimeEnabledFeaturesBase::Backup"* %0, i64 0, i32 356
  %715 = load i8, i8* @_ZN5blink26RuntimeEnabledFeaturesBase44is_rtc_rtp_header_extension_control_enabled_E, align 1, !range !2
  store i8 %715, i8* %714, align 1
  %716 = getelementptr inbounds %"class.blink::RuntimeEnabledFeaturesBase::Backup", %"class.blink::RuntimeEnabledFeaturesBase::Backup"* %0, i64 0, i32 357
  %717 = load i8, i8* @_ZN5blink26RuntimeEnabledFeaturesBase36is_rtc_rtp_transceiver_stop_enabled_E, align 1, !range !2
  store i8 %717, i8* %716, align 1
  %718 = getelementptr inbounds %"class.blink::RuntimeEnabledFeaturesBase::Backup", %"class.blink::RuntimeEnabledFeaturesBase::Backup"* %0, i64 0, i32 358
  %719 = load i8, i8* @_ZN5blink26RuntimeEnabledFeaturesBase51is_rtc_stats_relative_packet_arrival_delay_enabled_E, align 1, !range !2
  store i8 %719, i8* %718, align 1
  %720 = getelementptr inbounds %"class.blink::RuntimeEnabledFeaturesBase::Backup", %"class.blink::RuntimeEnabledFeaturesBase::Backup"* %0, i64 0, i32 359
  %721 = load i8, i8* @_ZN5blink26RuntimeEnabledFeaturesBase36is_rtc_svc_scalability_mode_enabled_E, align 1, !range !2
  store i8 %721, i8* %720, align 1
  %722 = getelementptr inbounds %"class.blink::RuntimeEnabledFeaturesBase::Backup", %"class.blink::RuntimeEnabledFeaturesBase::Backup"* %0, i64 0, i32 360
  %723 = load i8, i8* @_ZN5blink26RuntimeEnabledFeaturesBase28is_rtc_unified_plan_enabled_E, align 1, !range !2
  store i8 %723, i8* %722, align 1
  %724 = getelementptr inbounds %"class.blink::RuntimeEnabledFeaturesBase::Backup", %"class.blink::RuntimeEnabledFeaturesBase::Backup"* %0, i64 0, i32 361
  %725 = load i8, i8* @_ZN5blink26RuntimeEnabledFeaturesBase39is_rtc_unified_plan_by_default_enabled_E, align 1, !range !2
  store i8 %725, i8* %724, align 1
  %726 = getelementptr inbounds %"class.blink::RuntimeEnabledFeaturesBase::Backup", %"class.blink::RuntimeEnabledFeaturesBase::Backup"* %0, i64 0, i32 362
  %727 = load i8, i8* @_ZN5blink26RuntimeEnabledFeaturesBase40is_same_site_by_default_cookies_enabled_E, align 1, !range !2
  store i8 %727, i8* %726, align 1
  %728 = getelementptr inbounds %"class.blink::RuntimeEnabledFeaturesBase::Backup", %"class.blink::RuntimeEnabledFeaturesBase::Backup"* %0, i64 0, i32 363
  %729 = load i8, i8* @_ZN5blink26RuntimeEnabledFeaturesBase25is_sanitizer_api_enabled_E, align 1, !range !2
  store i8 %729, i8* %728, align 1
  %730 = getelementptr inbounds %"class.blink::RuntimeEnabledFeaturesBase::Backup", %"class.blink::RuntimeEnabledFeaturesBase::Backup"* %0, i64 0, i32 364
  %731 = load i8, i8* @_ZN5blink26RuntimeEnabledFeaturesBase39is_scripted_speech_recognition_enabled_E, align 1, !range !2
  store i8 %731, i8* %730, align 1
  %732 = getelementptr inbounds %"class.blink::RuntimeEnabledFeaturesBase::Backup", %"class.blink::RuntimeEnabledFeaturesBase::Backup"* %0, i64 0, i32 365
  %733 = load i8, i8* @_ZN5blink26RuntimeEnabledFeaturesBase37is_scripted_speech_synthesis_enabled_E, align 1, !range !2
  store i8 %733, i8* %732, align 1
  %734 = getelementptr inbounds %"class.blink::RuntimeEnabledFeaturesBase::Backup", %"class.blink::RuntimeEnabledFeaturesBase::Backup"* %0, i64 0, i32 366
  %735 = load i8, i8* @_ZN5blink26RuntimeEnabledFeaturesBase28is_scrollbar_gutter_enabled_E, align 1, !range !2
  store i8 %735, i8* %734, align 1
  %736 = getelementptr inbounds %"class.blink::RuntimeEnabledFeaturesBase::Backup", %"class.blink::RuntimeEnabledFeaturesBase::Backup"* %0, i64 0, i32 367
  %737 = load i8, i8* @_ZN5blink26RuntimeEnabledFeaturesBase27is_scrollbar_width_enabled_E, align 1, !range !2
  store i8 %737, i8* %736, align 1
  %738 = getelementptr inbounds %"class.blink::RuntimeEnabledFeaturesBase::Backup", %"class.blink::RuntimeEnabledFeaturesBase::Backup"* %0, i64 0, i32 368
  %739 = load i8, i8* @_ZN5blink26RuntimeEnabledFeaturesBase32is_scroll_customization_enabled_E, align 1, !range !2
  store i8 %739, i8* %738, align 1
  %740 = getelementptr inbounds %"class.blink::RuntimeEnabledFeaturesBase::Backup", %"class.blink::RuntimeEnabledFeaturesBase::Backup"* %0, i64 0, i32 369
  %741 = load i8, i8* @_ZN5blink26RuntimeEnabledFeaturesBase36is_scroll_snap_after_layout_enabled_E, align 1, !range !2
  store i8 %741, i8* %740, align 1
  %742 = getelementptr inbounds %"class.blink::RuntimeEnabledFeaturesBase::Backup", %"class.blink::RuntimeEnabledFeaturesBase::Backup"* %0, i64 0, i32 370
  %743 = load i8, i8* @_ZN5blink26RuntimeEnabledFeaturesBase27is_scroll_timeline_enabled_E, align 1, !range !2
  store i8 %743, i8* %742, align 1
  %744 = getelementptr inbounds %"class.blink::RuntimeEnabledFeaturesBase::Backup", %"class.blink::RuntimeEnabledFeaturesBase::Backup"* %0, i64 0, i32 371
  %745 = load i8, i8* @_ZN5blink26RuntimeEnabledFeaturesBase35is_scroll_top_left_interop_enabled_E, align 1, !range !2
  store i8 %745, i8* %744, align 1
  %746 = getelementptr inbounds %"class.blink::RuntimeEnabledFeaturesBase::Backup", %"class.blink::RuntimeEnabledFeaturesBase::Backup"* %0, i64 0, i32 372
  %747 = load i8, i8* @_ZN5blink26RuntimeEnabledFeaturesBase30is_scroll_unification_enabled_E, align 1, !range !2
  store i8 %747, i8* %746, align 1
  %748 = getelementptr inbounds %"class.blink::RuntimeEnabledFeaturesBase::Backup", %"class.blink::RuntimeEnabledFeaturesBase::Backup"* %0, i64 0, i32 373
  %749 = load i8, i8* @_ZN5blink26RuntimeEnabledFeaturesBase39is_secure_payment_confirmation_enabled_E, align 1, !range !2
  store i8 %749, i8* %748, align 1
  %750 = getelementptr inbounds %"class.blink::RuntimeEnabledFeaturesBase::Backup", %"class.blink::RuntimeEnabledFeaturesBase::Backup"* %0, i64 0, i32 374
  %751 = load i8, i8* @_ZN5blink26RuntimeEnabledFeaturesBase45is_secure_payment_confirmation_debug_enabled_E, align 1, !range !2
  store i8 %751, i8* %750, align 1
  %752 = getelementptr inbounds %"class.blink::RuntimeEnabledFeaturesBase::Backup", %"class.blink::RuntimeEnabledFeaturesBase::Backup"* %0, i64 0, i32 375
  %753 = load i8, i8* @_ZN5blink26RuntimeEnabledFeaturesBase59is_send_beacon_throw_for_blob_with_non_simple_type_enabled_E, align 1, !range !2
  store i8 %753, i8* %752, align 1
  %754 = getelementptr inbounds %"class.blink::RuntimeEnabledFeaturesBase::Backup", %"class.blink::RuntimeEnabledFeaturesBase::Backup"* %0, i64 0, i32 376
  %755 = load i8, i8* @_ZN5blink26RuntimeEnabledFeaturesBase52is_send_mouse_events_disabled_form_controls_enabled_E, align 1, !range !2
  store i8 %755, i8* %754, align 1
  %756 = getelementptr inbounds %"class.blink::RuntimeEnabledFeaturesBase::Backup", %"class.blink::RuntimeEnabledFeaturesBase::Backup"* %0, i64 0, i32 377
  %757 = load i8, i8* @_ZN5blink26RuntimeEnabledFeaturesBase32is_sensor_extra_classes_enabled_E, align 1, !range !2
  store i8 %757, i8* %756, align 1
  %758 = getelementptr inbounds %"class.blink::RuntimeEnabledFeaturesBase::Backup", %"class.blink::RuntimeEnabledFeaturesBase::Backup"* %0, i64 0, i32 378
  %759 = load i8, i8* @_ZN5blink26RuntimeEnabledFeaturesBase18is_serial_enabled_E, align 1, !range !2
  store i8 %759, i8* %758, align 1
  %760 = getelementptr inbounds %"class.blink::RuntimeEnabledFeaturesBase::Backup", %"class.blink::RuntimeEnabledFeaturesBase::Backup"* %0, i64 0, i32 379
  %761 = load i8, i8* @_ZN5blink26RuntimeEnabledFeaturesBase49is_service_worker_client_lifecycle_state_enabled_E, align 1, !range !2
  store i8 %761, i8* %760, align 1
  %762 = getelementptr inbounds %"class.blink::RuntimeEnabledFeaturesBase::Backup", %"class.blink::RuntimeEnabledFeaturesBase::Backup"* %0, i64 0, i32 380
  %763 = load i8, i8* @_ZN5blink26RuntimeEnabledFeaturesBase52is_service_worker_fetch_event_worker_timing_enabled_E, align 1, !range !2
  store i8 %763, i8* %762, align 1
  %764 = getelementptr inbounds %"class.blink::RuntimeEnabledFeaturesBase::Backup", %"class.blink::RuntimeEnabledFeaturesBase::Backup"* %0, i64 0, i32 381
  %765 = load i8, i8* @_ZN5blink26RuntimeEnabledFeaturesBase31is_shared_array_buffer_enabled_E, align 1, !range !2
  store i8 %765, i8* %764, align 1
  %766 = getelementptr inbounds %"class.blink::RuntimeEnabledFeaturesBase::Backup", %"class.blink::RuntimeEnabledFeaturesBase::Backup"* %0, i64 0, i32 382
  %767 = load i8, i8* @_ZN5blink26RuntimeEnabledFeaturesBase42is_shared_array_buffer_on_desktop_enabled_E, align 1, !range !2
  store i8 %767, i8* %766, align 1
  %768 = getelementptr inbounds %"class.blink::RuntimeEnabledFeaturesBase::Backup", %"class.blink::RuntimeEnabledFeaturesBase::Backup"* %0, i64 0, i32 383
  %769 = load i8, i8* @_ZN5blink26RuntimeEnabledFeaturesBase59is_shared_array_buffer_unrestricted_access_allowed_enabled_E, align 1, !range !2
  store i8 %769, i8* %768, align 1
  %770 = getelementptr inbounds %"class.blink::RuntimeEnabledFeaturesBase::Backup", %"class.blink::RuntimeEnabledFeaturesBase::Backup"* %0, i64 0, i32 384
  %771 = load i8, i8* @_ZN5blink26RuntimeEnabledFeaturesBase27is_shared_autofill_enabled_E, align 1, !range !2
  store i8 %771, i8* %770, align 1
  %772 = getelementptr inbounds %"class.blink::RuntimeEnabledFeaturesBase::Backup", %"class.blink::RuntimeEnabledFeaturesBase::Backup"* %0, i64 0, i32 385
  %773 = load i8, i8* @_ZN5blink26RuntimeEnabledFeaturesBase25is_shared_worker_enabled_E, align 1, !range !2
  store i8 %773, i8* %772, align 1
  %774 = getelementptr inbounds %"class.blink::RuntimeEnabledFeaturesBase::Backup", %"class.blink::RuntimeEnabledFeaturesBase::Backup"* %0, i64 0, i32 386
  %775 = load i8, i8* @_ZN5blink26RuntimeEnabledFeaturesBase37is_signature_based_integrity_enabled_E, align 1, !range !2
  store i8 %775, i8* %774, align 1
  %776 = getelementptr inbounds %"class.blink::RuntimeEnabledFeaturesBase::Backup", %"class.blink::RuntimeEnabledFeaturesBase::Backup"* %0, i64 0, i32 387
  %777 = load i8, i8* @_ZN5blink26RuntimeEnabledFeaturesBase58is_signed_exchange_prefetch_cache_for_navigations_enabled_E, align 1, !range !2
  store i8 %777, i8* %776, align 1
  %778 = getelementptr inbounds %"class.blink::RuntimeEnabledFeaturesBase::Backup", %"class.blink::RuntimeEnabledFeaturesBase::Backup"* %0, i64 0, i32 388
  %779 = load i8, i8* @_ZN5blink26RuntimeEnabledFeaturesBase48is_signed_exchange_subresource_prefetch_enabled_E, align 1, !range !2
  store i8 %779, i8* %778, align 1
  %780 = getelementptr inbounds %"class.blink::RuntimeEnabledFeaturesBase::Backup", %"class.blink::RuntimeEnabledFeaturesBase::Backup"* %0, i64 0, i32 389
  %781 = load i8, i8* @_ZN5blink26RuntimeEnabledFeaturesBase19is_skip_ad_enabled_E, align 1, !range !2
  store i8 %781, i8* %780, align 1
  %782 = getelementptr inbounds %"class.blink::RuntimeEnabledFeaturesBase::Backup", %"class.blink::RuntimeEnabledFeaturesBase::Backup"* %0, i64 0, i32 390
  %783 = load i8, i8* @_ZN5blink26RuntimeEnabledFeaturesBase35is_skip_touch_event_filter_enabled_E, align 1, !range !2
  store i8 %783, i8* %782, align 1
  %784 = getelementptr inbounds %"class.blink::RuntimeEnabledFeaturesBase::Backup", %"class.blink::RuntimeEnabledFeaturesBase::Backup"* %0, i64 0, i32 391
  %785 = load i8, i8* @_ZN5blink26RuntimeEnabledFeaturesBase29is_speculation_rules_enabled_E, align 1, !range !2
  store i8 %785, i8* %784, align 1
  %786 = getelementptr inbounds %"class.blink::RuntimeEnabledFeaturesBase::Backup", %"class.blink::RuntimeEnabledFeaturesBase::Backup"* %0, i64 0, i32 392
  %787 = load i8, i8* @_ZN5blink26RuntimeEnabledFeaturesBase44is_speculation_rules_prefetch_proxy_enabled_E, align 1, !range !2
  store i8 %787, i8* %786, align 1
  %788 = getelementptr inbounds %"class.blink::RuntimeEnabledFeaturesBase::Backup", %"class.blink::RuntimeEnabledFeaturesBase::Backup"* %0, i64 0, i32 393
  %789 = load i8, i8* @_ZN5blink26RuntimeEnabledFeaturesBase30is_srcset_max_density_enabled_E, align 1, !range !2
  store i8 %789, i8* %788, align 1
  %790 = getelementptr inbounds %"class.blink::RuntimeEnabledFeaturesBase::Backup", %"class.blink::RuntimeEnabledFeaturesBase::Backup"* %0, i64 0, i32 394
  %791 = load i8, i8* @_ZN5blink26RuntimeEnabledFeaturesBase33is_stable_blink_features_enabled_E, align 1, !range !2
  store i8 %791, i8* %790, align 1
  %792 = getelementptr inbounds %"class.blink::RuntimeEnabledFeaturesBase::Backup", %"class.blink::RuntimeEnabledFeaturesBase::Backup"* %0, i64 0, i32 395
  %793 = load i8, i8* @_ZN5blink26RuntimeEnabledFeaturesBase30is_storage_access_api_enabled_E, align 1, !range !2
  store i8 %793, i8* %792, align 1
  %794 = getelementptr inbounds %"class.blink::RuntimeEnabledFeaturesBase::Backup", %"class.blink::RuntimeEnabledFeaturesBase::Backup"* %0, i64 0, i32 396
  %795 = load i8, i8* @_ZN5blink26RuntimeEnabledFeaturesBase27is_storage_buckets_enabled_E, align 1, !range !2
  store i8 %795, i8* %794, align 1
  %796 = getelementptr inbounds %"class.blink::RuntimeEnabledFeaturesBase::Backup", %"class.blink::RuntimeEnabledFeaturesBase::Backup"* %0, i64 0, i32 397
  %797 = load i8, i8* @_ZN5blink26RuntimeEnabledFeaturesBase34is_storage_foundation_api_enabled_E, align 1, !range !2
  store i8 %797, i8* %796, align 1
  %798 = getelementptr inbounds %"class.blink::RuntimeEnabledFeaturesBase::Backup", %"class.blink::RuntimeEnabledFeaturesBase::Backup"* %0, i64 0, i32 398
  %799 = load i8, i8* @_ZN5blink26RuntimeEnabledFeaturesBase41is_strict_mime_types_for_workers_enabled_E, align 1, !range !2
  store i8 %799, i8* %798, align 1
  %800 = getelementptr inbounds %"class.blink::RuntimeEnabledFeaturesBase::Backup", %"class.blink::RuntimeEnabledFeaturesBase::Backup"* %0, i64 0, i32 399
  %801 = load i8, i8* @_ZN5blink26RuntimeEnabledFeaturesBase35is_subresource_web_bundles_enabled_E, align 1, !range !2
  store i8 %801, i8* %800, align 1
  %802 = getelementptr inbounds %"class.blink::RuntimeEnabledFeaturesBase::Backup", %"class.blink::RuntimeEnabledFeaturesBase::Backup"* %0, i64 0, i32 400
  %803 = load i8, i8* @_ZN5blink26RuntimeEnabledFeaturesBase23is_svg_text_ng_enabled_E, align 1, !range !2
  store i8 %803, i8* %802, align 1
  %804 = getelementptr inbounds %"class.blink::RuntimeEnabledFeaturesBase::Backup", %"class.blink::RuntimeEnabledFeaturesBase::Backup"* %0, i64 0, i32 401
  %805 = load i8, i8* @_ZN5blink26RuntimeEnabledFeaturesBase28is_system_wake_lock_enabled_E, align 1, !range !2
  store i8 %805, i8* %804, align 1
  %806 = getelementptr inbounds %"class.blink::RuntimeEnabledFeaturesBase::Backup", %"class.blink::RuntimeEnabledFeaturesBase::Backup"* %0, i64 0, i32 402
  %807 = load i8, i8* @_ZN5blink26RuntimeEnabledFeaturesBase42is_target_blank_implies_no_opener_enabled_E, align 1, !range !2
  store i8 %807, i8* %806, align 1
  %808 = getelementptr inbounds %"class.blink::RuntimeEnabledFeaturesBase::Backup", %"class.blink::RuntimeEnabledFeaturesBase::Backup"* %0, i64 0, i32 403
  %809 = load i8, i8* @_ZN5blink26RuntimeEnabledFeaturesBase24is_test_feature_enabled_E, align 1, !range !2
  store i8 %809, i8* %808, align 1
  %810 = getelementptr inbounds %"class.blink::RuntimeEnabledFeaturesBase::Backup", %"class.blink::RuntimeEnabledFeaturesBase::Backup"* %0, i64 0, i32 404
  %811 = load i8, i8* @_ZN5blink26RuntimeEnabledFeaturesBase34is_test_feature_dependent_enabled_E, align 1, !range !2
  store i8 %811, i8* %810, align 1
  %812 = getelementptr inbounds %"class.blink::RuntimeEnabledFeaturesBase::Backup", %"class.blink::RuntimeEnabledFeaturesBase::Backup"* %0, i64 0, i32 405
  %813 = load i8, i8* @_ZN5blink26RuntimeEnabledFeaturesBase32is_test_feature_implied_enabled_E, align 1, !range !2
  store i8 %813, i8* %812, align 1
  %814 = getelementptr inbounds %"class.blink::RuntimeEnabledFeaturesBase::Backup", %"class.blink::RuntimeEnabledFeaturesBase::Backup"* %0, i64 0, i32 406
  %815 = load i8, i8* @_ZN5blink26RuntimeEnabledFeaturesBase25is_text_detector_enabled_E, align 1, !range !2
  store i8 %815, i8* %814, align 1
  %816 = getelementptr inbounds %"class.blink::RuntimeEnabledFeaturesBase::Backup", %"class.blink::RuntimeEnabledFeaturesBase::Backup"* %0, i64 0, i32 407
  %817 = load i8, i8* @_ZN5blink26RuntimeEnabledFeaturesBase38is_text_fragment_color_change_enabled_E, align 1, !range !2
  store i8 %817, i8* %816, align 1
  %818 = getelementptr inbounds %"class.blink::RuntimeEnabledFeaturesBase::Backup", %"class.blink::RuntimeEnabledFeaturesBase::Backup"* %0, i64 0, i32 408
  %819 = load i8, i8* @_ZN5blink26RuntimeEnabledFeaturesBase37is_text_fragment_identifiers_enabled_E, align 1, !range !2
  store i8 %819, i8* %818, align 1
  %820 = getelementptr inbounds %"class.blink::RuntimeEnabledFeaturesBase::Backup", %"class.blink::RuntimeEnabledFeaturesBase::Backup"* %0, i64 0, i32 409
  %821 = load i8, i8* @_ZN5blink26RuntimeEnabledFeaturesBase48is_text_fragment_tap_opens_context_menu_enabled_E, align 1, !range !2
  store i8 %821, i8* %820, align 1
  %822 = getelementptr inbounds %"class.blink::RuntimeEnabledFeaturesBase::Backup", %"class.blink::RuntimeEnabledFeaturesBase::Backup"* %0, i64 0, i32 410
  %823 = load i8, i8* @_ZN5blink26RuntimeEnabledFeaturesBase37is_third_party_origin_trials_enabled_E, align 1, !range !2
  store i8 %823, i8* %822, align 1
  %824 = getelementptr inbounds %"class.blink::RuntimeEnabledFeaturesBase::Backup", %"class.blink::RuntimeEnabledFeaturesBase::Backup"* %0, i64 0, i32 411
  %825 = load i8, i8* @_ZN5blink26RuntimeEnabledFeaturesBase76is_throttle_display_none_and_visibility_hidden_cross_origin_iframes_enabled_E, align 1, !range !2
  store i8 %825, i8* %824, align 1
  %826 = getelementptr inbounds %"class.blink::RuntimeEnabledFeaturesBase::Backup", %"class.blink::RuntimeEnabledFeaturesBase::Backup"* %0, i64 0, i32 412
  %827 = load i8, i8* @_ZN5blink26RuntimeEnabledFeaturesBase48is_timer_throttling_for_background_tabs_enabled_E, align 1, !range !2
  store i8 %827, i8* %826, align 1
  %828 = getelementptr inbounds %"class.blink::RuntimeEnabledFeaturesBase::Backup", %"class.blink::RuntimeEnabledFeaturesBase::Backup"* %0, i64 0, i32 413
  %829 = load i8, i8* @_ZN5blink26RuntimeEnabledFeaturesBase46is_timer_throttling_for_hidden_frames_enabled_E, align 1, !range !2
  store i8 %829, i8* %828, align 1
  %830 = getelementptr inbounds %"class.blink::RuntimeEnabledFeaturesBase::Backup", %"class.blink::RuntimeEnabledFeaturesBase::Backup"* %0, i64 0, i32 414
  %831 = load i8, i8* @_ZN5blink26RuntimeEnabledFeaturesBase34is_time_zone_change_event_enabled_E, align 1, !range !2
  store i8 %831, i8* %830, align 1
  %832 = getelementptr inbounds %"class.blink::RuntimeEnabledFeaturesBase::Backup", %"class.blink::RuntimeEnabledFeaturesBase::Backup"* %0, i64 0, i32 415
  %833 = load i8, i8* @_ZN5blink26RuntimeEnabledFeaturesBase41is_touch_event_feature_detection_enabled_E, align 1, !range !2
  store i8 %833, i8* %832, align 1
  %834 = getelementptr inbounds %"class.blink::RuntimeEnabledFeaturesBase::Backup", %"class.blink::RuntimeEnabledFeaturesBase::Backup"* %0, i64 0, i32 416
  %835 = load i8, i8* @_ZN5blink26RuntimeEnabledFeaturesBase32is_transferable_streams_enabled_E, align 1, !range !2
  store i8 %835, i8* %834, align 1
  %836 = getelementptr inbounds %"class.blink::RuntimeEnabledFeaturesBase::Backup", %"class.blink::RuntimeEnabledFeaturesBase::Backup"* %0, i64 0, i32 417
  %837 = load i8, i8* @_ZN5blink26RuntimeEnabledFeaturesBase29is_transform_interop_enabled_E, align 1, !range !2
  store i8 %837, i8* %836, align 1
  %838 = getelementptr inbounds %"class.blink::RuntimeEnabledFeaturesBase::Backup", %"class.blink::RuntimeEnabledFeaturesBase::Backup"* %0, i64 0, i32 418
  %839 = load i8, i8* @_ZN5blink26RuntimeEnabledFeaturesBase29is_translate_service_enabled_E, align 1, !range !2
  store i8 %839, i8* %838, align 1
  %840 = getelementptr inbounds %"class.blink::RuntimeEnabledFeaturesBase::Backup", %"class.blink::RuntimeEnabledFeaturesBase::Backup"* %0, i64 0, i32 419
  %841 = load i8, i8* @_ZN5blink26RuntimeEnabledFeaturesBase29is_trusted_dom_types_enabled_E, align 1, !range !2
  store i8 %841, i8* %840, align 1
  %842 = getelementptr inbounds %"class.blink::RuntimeEnabledFeaturesBase::Backup", %"class.blink::RuntimeEnabledFeaturesBase::Backup"* %0, i64 0, i32 420
  %843 = load i8, i8* @_ZN5blink26RuntimeEnabledFeaturesBase53is_trusted_type_before_policy_creation_event_enabled_E, align 1, !range !2
  store i8 %843, i8* %842, align 1
  %844 = getelementptr inbounds %"class.blink::RuntimeEnabledFeaturesBase::Backup", %"class.blink::RuntimeEnabledFeaturesBase::Backup"* %0, i64 0, i32 421
  %845 = load i8, i8* @_ZN5blink26RuntimeEnabledFeaturesBase39is_trusted_types_use_code_like_enabled_E, align 1, !range !2
  store i8 %845, i8* %844, align 1
  %846 = getelementptr inbounds %"class.blink::RuntimeEnabledFeaturesBase::Backup", %"class.blink::RuntimeEnabledFeaturesBase::Backup"* %0, i64 0, i32 422
  %847 = load i8, i8* @_ZN5blink26RuntimeEnabledFeaturesBase24is_trust_tokens_enabled_E, align 1, !range !2
  store i8 %847, i8* %846, align 1
  %848 = getelementptr inbounds %"class.blink::RuntimeEnabledFeaturesBase::Backup", %"class.blink::RuntimeEnabledFeaturesBase::Backup"* %0, i64 0, i32 423
  %849 = load i8, i8* @_ZN5blink26RuntimeEnabledFeaturesBase46is_trust_tokens_always_allow_issuance_enabled_E, align 1, !range !2
  store i8 %849, i8* %848, align 1
  %850 = getelementptr inbounds %"class.blink::RuntimeEnabledFeaturesBase::Backup", %"class.blink::RuntimeEnabledFeaturesBase::Backup"* %0, i64 0, i32 424
  %851 = load i8, i8* @_ZN5blink26RuntimeEnabledFeaturesBase44is_unclosed_form_control_is_invalid_enabled_E, align 1, !range !2
  store i8 %851, i8* %850, align 1
  %852 = getelementptr inbounds %"class.blink::RuntimeEnabledFeaturesBase::Backup", %"class.blink::RuntimeEnabledFeaturesBase::Backup"* %0, i64 0, i32 425
  %853 = load i8, i8* @_ZN5blink26RuntimeEnabledFeaturesBase38is_underline_offset_thickness_enabled_E, align 1, !range !2
  store i8 %853, i8* %852, align 1
  %854 = getelementptr inbounds %"class.blink::RuntimeEnabledFeaturesBase::Backup", %"class.blink::RuntimeEnabledFeaturesBase::Backup"* %0, i64 0, i32 426
  %855 = load i8, i8* @_ZN5blink26RuntimeEnabledFeaturesBase44is_unrestricted_shared_array_buffer_enabled_E, align 1, !range !2
  store i8 %855, i8* %854, align 1
  %856 = getelementptr inbounds %"class.blink::RuntimeEnabledFeaturesBase::Backup", %"class.blink::RuntimeEnabledFeaturesBase::Backup"* %0, i64 0, i32 427
  %857 = load i8, i8* @_ZN5blink26RuntimeEnabledFeaturesBase23is_url_pattern_enabled_E, align 1, !range !2
  store i8 %857, i8* %856, align 1
  %858 = getelementptr inbounds %"class.blink::RuntimeEnabledFeaturesBase::Backup", %"class.blink::RuntimeEnabledFeaturesBase::Backup"* %0, i64 0, i32 428
  %859 = load i8, i8* @_ZN5blink26RuntimeEnabledFeaturesBase50is_user_activation_same_origin_visibility_enabled_E, align 1, !range !2
  store i8 %859, i8* %858, align 1
  %860 = getelementptr inbounds %"class.blink::RuntimeEnabledFeaturesBase::Backup", %"class.blink::RuntimeEnabledFeaturesBase::Backup"* %0, i64 0, i32 429
  %861 = load i8, i8* @_ZN5blink26RuntimeEnabledFeaturesBase34is_user_agent_client_hint_enabled_E, align 1, !range !2
  store i8 %861, i8* %860, align 1
  %862 = getelementptr inbounds %"class.blink::RuntimeEnabledFeaturesBase::Backup", %"class.blink::RuntimeEnabledFeaturesBase::Backup"* %0, i64 0, i32 430
  %863 = load i8, i8* @_ZN5blink26RuntimeEnabledFeaturesBase16is_uuid_enabled_E, align 1, !range !2
  store i8 %863, i8* %862, align 1
  %864 = getelementptr inbounds %"class.blink::RuntimeEnabledFeaturesBase::Backup", %"class.blink::RuntimeEnabledFeaturesBase::Backup"* %0, i64 0, i32 431
  %865 = load i8, i8* @_ZN5blink26RuntimeEnabledFeaturesBase25is_v8_idle_tasks_enabled_E, align 1, !range !2
  store i8 %865, i8* %864, align 1
  %866 = getelementptr inbounds %"class.blink::RuntimeEnabledFeaturesBase::Backup", %"class.blink::RuntimeEnabledFeaturesBase::Backup"* %0, i64 0, i32 432
  %867 = load i8, i8* @_ZN5blink26RuntimeEnabledFeaturesBase33is_video_auto_fullscreen_enabled_E, align 1, !range !2
  store i8 %867, i8* %866, align 1
  %868 = getelementptr inbounds %"class.blink::RuntimeEnabledFeaturesBase::Backup", %"class.blink::RuntimeEnabledFeaturesBase::Backup"* %0, i64 0, i32 433
  %869 = load i8, i8* @_ZN5blink26RuntimeEnabledFeaturesBase45is_video_fullscreen_orientation_lock_enabled_E, align 1, !range !2
  store i8 %869, i8* %868, align 1
  %870 = getelementptr inbounds %"class.blink::RuntimeEnabledFeaturesBase::Backup", %"class.blink::RuntimeEnabledFeaturesBase::Backup"* %0, i64 0, i32 434
  %871 = load i8, i8* @_ZN5blink26RuntimeEnabledFeaturesBase34is_video_playback_quality_enabled_E, align 1, !range !2
  store i8 %871, i8* %870, align 1
  %872 = getelementptr inbounds %"class.blink::RuntimeEnabledFeaturesBase::Backup", %"class.blink::RuntimeEnabledFeaturesBase::Backup"* %0, i64 0, i32 435
  %873 = load i8, i8* @_ZN5blink26RuntimeEnabledFeaturesBase38is_video_rotate_to_fullscreen_enabled_E, align 1, !range !2
  store i8 %873, i8* %872, align 1
  %874 = getelementptr inbounds %"class.blink::RuntimeEnabledFeaturesBase::Backup", %"class.blink::RuntimeEnabledFeaturesBase::Backup"* %0, i64 0, i32 436
  %875 = load i8, i8* @_ZN5blink26RuntimeEnabledFeaturesBase53is_video_wake_lock_optimisation_hidden_muted_enabled_E, align 1, !range !2
  store i8 %875, i8* %874, align 1
  %876 = getelementptr inbounds %"class.blink::RuntimeEnabledFeaturesBase::Backup", %"class.blink::RuntimeEnabledFeaturesBase::Backup"* %0, i64 0, i32 437
  %877 = load i8, i8* @_ZN5blink26RuntimeEnabledFeaturesBase28is_virtual_keyboard_enabled_E, align 1, !range !2
  store i8 %877, i8* %876, align 1
  %878 = getelementptr inbounds %"class.blink::RuntimeEnabledFeaturesBase::Backup", %"class.blink::RuntimeEnabledFeaturesBase::Backup"* %0, i64 0, i32 438
  %879 = load i8, i8* @_ZN5blink26RuntimeEnabledFeaturesBase38is_visibility_collapse_column_enabled_E, align 1, !range !2
  store i8 %879, i8* %878, align 1
  %880 = getelementptr inbounds %"class.blink::RuntimeEnabledFeaturesBase::Backup", %"class.blink::RuntimeEnabledFeaturesBase::Backup"* %0, i64 0, i32 439
  %881 = load i8, i8* @_ZN5blink26RuntimeEnabledFeaturesBase34is_visibility_state_entry_enabled_E, align 1, !range !2
  store i8 %881, i8* %880, align 1
  %882 = getelementptr inbounds %"class.blink::RuntimeEnabledFeaturesBase::Backup", %"class.blink::RuntimeEnabledFeaturesBase::Backup"* %0, i64 0, i32 440
  %883 = load i8, i8* @_ZN5blink26RuntimeEnabledFeaturesBase21is_wake_lock_enabled_E, align 1, !range !2
  store i8 %883, i8* %882, align 1
  %884 = getelementptr inbounds %"class.blink::RuntimeEnabledFeaturesBase::Backup", %"class.blink::RuntimeEnabledFeaturesBase::Backup"* %0, i64 0, i32 441
  %885 = load i8, i8* @_ZN5blink26RuntimeEnabledFeaturesBase30is_web_animations_api_enabled_E, align 1, !range !2
  store i8 %885, i8* %884, align 1
  %886 = getelementptr inbounds %"class.blink::RuntimeEnabledFeaturesBase::Backup", %"class.blink::RuntimeEnabledFeaturesBase::Backup"* %0, i64 0, i32 442
  %887 = load i8, i8* @_ZN5blink26RuntimeEnabledFeaturesBase30is_web_animations_svg_enabled_E, align 1, !range !2
  store i8 %887, i8* %886, align 1
  %888 = getelementptr inbounds %"class.blink::RuntimeEnabledFeaturesBase::Backup", %"class.blink::RuntimeEnabledFeaturesBase::Backup"* %0, i64 0, i32 443
  %889 = load i8, i8* @_ZN5blink26RuntimeEnabledFeaturesBase34is_web_app_link_capturing_enabled_E, align 1, !range !2
  store i8 %889, i8* %888, align 1
  %890 = getelementptr inbounds %"class.blink::RuntimeEnabledFeaturesBase::Backup", %"class.blink::RuntimeEnabledFeaturesBase::Backup"* %0, i64 0, i32 444
  %891 = load i8, i8* @_ZN5blink26RuntimeEnabledFeaturesBase32is_web_apps_lock_screen_enabled_E, align 1, !range !2
  store i8 %891, i8* %890, align 1
  %892 = getelementptr inbounds %"class.blink::RuntimeEnabledFeaturesBase::Backup", %"class.blink::RuntimeEnabledFeaturesBase::Backup"* %0, i64 0, i32 445
  %893 = load i8, i8* @_ZN5blink26RuntimeEnabledFeaturesBase32is_web_app_url_handling_enabled_E, align 1, !range !2
  store i8 %893, i8* %892, align 1
  %894 = getelementptr inbounds %"class.blink::RuntimeEnabledFeaturesBase::Backup", %"class.blink::RuntimeEnabledFeaturesBase::Backup"* %0, i64 0, i32 446
  %895 = load i8, i8* @_ZN5blink26RuntimeEnabledFeaturesBase43is_web_app_window_controls_overlay_enabled_E, align 1, !range !2
  store i8 %895, i8* %894, align 1
  %896 = getelementptr inbounds %"class.blink::RuntimeEnabledFeaturesBase::Backup", %"class.blink::RuntimeEnabledFeaturesBase::Backup"* %0, i64 0, i32 447
  %897 = load i8, i8* @_ZN5blink26RuntimeEnabledFeaturesBase28is_web_assembly_csp_enabled_E, align 1, !range !2
  store i8 %897, i8* %896, align 1
  %898 = getelementptr inbounds %"class.blink::RuntimeEnabledFeaturesBase::Backup", %"class.blink::RuntimeEnabledFeaturesBase::Backup"* %0, i64 0, i32 448
  %899 = load i8, i8* @_ZN5blink26RuntimeEnabledFeaturesBase35is_web_assembly_exceptions_enabled_E, align 1, !range !2
  store i8 %899, i8* %898, align 1
  %900 = getelementptr inbounds %"class.blink::RuntimeEnabledFeaturesBase::Backup", %"class.blink::RuntimeEnabledFeaturesBase::Backup"* %0, i64 0, i32 449
  %901 = load i8, i8* @_ZN5blink26RuntimeEnabledFeaturesBase29is_web_assembly_simd_enabled_E, align 1, !range !2
  store i8 %901, i8* %900, align 1
  %902 = getelementptr inbounds %"class.blink::RuntimeEnabledFeaturesBase::Backup", %"class.blink::RuntimeEnabledFeaturesBase::Backup"* %0, i64 0, i32 450
  %903 = load i8, i8* @_ZN5blink26RuntimeEnabledFeaturesBase20is_web_auth_enabled_E, align 1, !range !2
  store i8 %903, i8* %902, align 1
  %904 = getelementptr inbounds %"class.blink::RuntimeEnabledFeaturesBase::Backup", %"class.blink::RuntimeEnabledFeaturesBase::Backup"* %0, i64 0, i32 451
  %905 = load i8, i8* @_ZN5blink26RuntimeEnabledFeaturesBase45is_web_authentication_conditional_ui_enabled_E, align 1, !range !2
  store i8 %905, i8* %904, align 1
  %906 = getelementptr inbounds %"class.blink::RuntimeEnabledFeaturesBase::Backup", %"class.blink::RuntimeEnabledFeaturesBase::Backup"* %0, i64 0, i32 452
  %907 = load i8, i8* @_ZN5blink26RuntimeEnabledFeaturesBase51is_web_authentication_large_blob_extension_enabled_E, align 1, !range !2
  store i8 %907, i8* %906, align 1
  %908 = getelementptr inbounds %"class.blink::RuntimeEnabledFeaturesBase::Backup", %"class.blink::RuntimeEnabledFeaturesBase::Backup"* %0, i64 0, i32 453
  %909 = load i8, i8* @_ZN5blink26RuntimeEnabledFeaturesBase55is_web_authentication_resident_key_requirement_enabled_E, align 1, !range !2
  store i8 %909, i8* %908, align 1
  %910 = getelementptr inbounds %"class.blink::RuntimeEnabledFeaturesBase::Backup", %"class.blink::RuntimeEnabledFeaturesBase::Backup"* %0, i64 0, i32 454
  %911 = load i8, i8* @_ZN5blink26RuntimeEnabledFeaturesBase25is_web_bluetooth_enabled_E, align 1, !range !2
  store i8 %911, i8* %910, align 1
  %912 = getelementptr inbounds %"class.blink::RuntimeEnabledFeaturesBase::Backup", %"class.blink::RuntimeEnabledFeaturesBase::Backup"* %0, i64 0, i32 455
  %913 = load i8, i8* @_ZN5blink26RuntimeEnabledFeaturesBase37is_web_bluetooth_get_devices_enabled_E, align 1, !range !2
  store i8 %913, i8* %912, align 1
  %914 = getelementptr inbounds %"class.blink::RuntimeEnabledFeaturesBase::Backup", %"class.blink::RuntimeEnabledFeaturesBase::Backup"* %0, i64 0, i32 456
  %915 = load i8, i8* @_ZN5blink26RuntimeEnabledFeaturesBase50is_web_bluetooth_manufacturer_data_filter_enabled_E, align 1, !range !2
  store i8 %915, i8* %914, align 1
  %916 = getelementptr inbounds %"class.blink::RuntimeEnabledFeaturesBase::Backup", %"class.blink::RuntimeEnabledFeaturesBase::Backup"* %0, i64 0, i32 457
  %917 = load i8, i8* @_ZN5blink26RuntimeEnabledFeaturesBase63is_web_bluetooth_remote_characteristic_new_write_value_enabled_E, align 1, !range !2
  store i8 %917, i8* %916, align 1
  %918 = getelementptr inbounds %"class.blink::RuntimeEnabledFeaturesBase::Backup", %"class.blink::RuntimeEnabledFeaturesBase::Backup"* %0, i64 0, i32 458
  %919 = load i8, i8* @_ZN5blink26RuntimeEnabledFeaturesBase34is_web_bluetooth_scanning_enabled_E, align 1, !range !2
  store i8 %919, i8* %918, align 1
  %920 = getelementptr inbounds %"class.blink::RuntimeEnabledFeaturesBase::Backup", %"class.blink::RuntimeEnabledFeaturesBase::Backup"* %0, i64 0, i32 459
  %921 = load i8, i8* @_ZN5blink26RuntimeEnabledFeaturesBase46is_web_bluetooth_watch_advertisements_enabled_E, align 1, !range !2
  store i8 %921, i8* %920, align 1
  %922 = getelementptr inbounds %"class.blink::RuntimeEnabledFeaturesBase::Backup", %"class.blink::RuntimeEnabledFeaturesBase::Backup"* %0, i64 0, i32 460
  %923 = load i8, i8* @_ZN5blink26RuntimeEnabledFeaturesBase21is_webcodecs_enabled_E, align 1, !range !2
  store i8 %923, i8* %922, align 1
  %924 = getelementptr inbounds %"class.blink::RuntimeEnabledFeaturesBase::Backup", %"class.blink::RuntimeEnabledFeaturesBase::Backup"* %0, i64 0, i32 461
  %925 = load i8, i8* @_ZN5blink26RuntimeEnabledFeaturesBase34is_web_crypto_curve_25519_enabled_E, align 1, !range !2
  store i8 %925, i8* %924, align 1
  %926 = getelementptr inbounds %"class.blink::RuntimeEnabledFeaturesBase::Backup", %"class.blink::RuntimeEnabledFeaturesBase::Backup"* %0, i64 0, i32 462
  %927 = load i8, i8* @_ZN5blink26RuntimeEnabledFeaturesBase34is_webgl_draft_extensions_enabled_E, align 1, !range !2
  store i8 %927, i8* %926, align 1
  %928 = getelementptr inbounds %"class.blink::RuntimeEnabledFeaturesBase::Backup", %"class.blink::RuntimeEnabledFeaturesBase::Backup"* %0, i64 0, i32 463
  %929 = load i8, i8* @_ZN5blink26RuntimeEnabledFeaturesBase32is_webgl_image_chromium_enabled_E, align 1, !range !2
  store i8 %929, i8* %928, align 1
  %930 = getelementptr inbounds %"class.blink::RuntimeEnabledFeaturesBase::Backup", %"class.blink::RuntimeEnabledFeaturesBase::Backup"* %0, i64 0, i32 464
  %931 = load i8, i8* @_ZN5blink26RuntimeEnabledFeaturesBase18is_webgpu_enabled_E, align 1, !range !2
  store i8 %931, i8* %930, align 1
  %932 = getelementptr inbounds %"class.blink::RuntimeEnabledFeaturesBase::Backup", %"class.blink::RuntimeEnabledFeaturesBase::Backup"* %0, i64 0, i32 465
  %933 = load i8, i8* @_ZN5blink26RuntimeEnabledFeaturesBase33is_webgpu_import_texture_enabled_E, align 1, !range !2
  store i8 %933, i8* %932, align 1
  %934 = getelementptr inbounds %"class.blink::RuntimeEnabledFeaturesBase::Backup", %"class.blink::RuntimeEnabledFeaturesBase::Backup"* %0, i64 0, i32 466
  %935 = load i8, i8* @_ZN5blink26RuntimeEnabledFeaturesBase19is_web_hid_enabled_E, align 1, !range !2
  store i8 %935, i8* %934, align 1
  %936 = getelementptr inbounds %"class.blink::RuntimeEnabledFeaturesBase::Backup", %"class.blink::RuntimeEnabledFeaturesBase::Backup"* %0, i64 0, i32 467
  %937 = load i8, i8* @_ZN5blink26RuntimeEnabledFeaturesBase18is_web_id_enabled_E, align 1, !range !2
  store i8 %937, i8* %936, align 1
  %938 = getelementptr inbounds %"class.blink::RuntimeEnabledFeaturesBase::Backup", %"class.blink::RuntimeEnabledFeaturesBase::Backup"* %0, i64 0, i32 468
  %939 = load i8, i8* @_ZN5blink26RuntimeEnabledFeaturesBase19is_web_nfc_enabled_E, align 1, !range !2
  store i8 %939, i8* %938, align 1
  %940 = getelementptr inbounds %"class.blink::RuntimeEnabledFeaturesBase::Backup", %"class.blink::RuntimeEnabledFeaturesBase::Backup"* %0, i64 0, i32 469
  %941 = load i8, i8* @_ZN5blink26RuntimeEnabledFeaturesBase19is_web_otp_enabled_E, align 1, !range !2
  store i8 %941, i8* %940, align 1
  %942 = getelementptr inbounds %"class.blink::RuntimeEnabledFeaturesBase::Backup", %"class.blink::RuntimeEnabledFeaturesBase::Backup"* %0, i64 0, i32 470
  %943 = load i8, i8* @_ZN5blink26RuntimeEnabledFeaturesBase44is_web_otp_assertion_feature_policy_enabled_E, align 1, !range !2
  store i8 %943, i8* %942, align 1
  %944 = getelementptr inbounds %"class.blink::RuntimeEnabledFeaturesBase::Backup", %"class.blink::RuntimeEnabledFeaturesBase::Backup"* %0, i64 0, i32 471
  %945 = load i8, i8* @_ZN5blink26RuntimeEnabledFeaturesBase25is_web_scheduler_enabled_E, align 1, !range !2
  store i8 %945, i8* %944, align 1
  %946 = getelementptr inbounds %"class.blink::RuntimeEnabledFeaturesBase::Backup", %"class.blink::RuntimeEnabledFeaturesBase::Backup"* %0, i64 0, i32 472
  %947 = load i8, i8* @_ZN5blink26RuntimeEnabledFeaturesBase21is_web_share_enabled_E, align 1, !range !2
  store i8 %947, i8* %946, align 1
  %948 = getelementptr inbounds %"class.blink::RuntimeEnabledFeaturesBase::Backup", %"class.blink::RuntimeEnabledFeaturesBase::Backup"* %0, i64 0, i32 473
  %949 = load i8, i8* @_ZN5blink26RuntimeEnabledFeaturesBase28is_websocket_stream_enabled_E, align 1, !range !2
  store i8 %949, i8* %948, align 1
  %950 = getelementptr inbounds %"class.blink::RuntimeEnabledFeaturesBase::Backup", %"class.blink::RuntimeEnabledFeaturesBase::Backup"* %0, i64 0, i32 474
  %951 = load i8, i8* @_ZN5blink26RuntimeEnabledFeaturesBase25is_web_transport_enabled_E, align 1, !range !2
  store i8 %951, i8* %950, align 1
  %952 = getelementptr inbounds %"class.blink::RuntimeEnabledFeaturesBase::Backup", %"class.blink::RuntimeEnabledFeaturesBase::Backup"* %0, i64 0, i32 475
  %953 = load i8, i8* @_ZN5blink26RuntimeEnabledFeaturesBase45is_web_transport_custom_certificates_enabled_E, align 1, !range !2
  store i8 %953, i8* %952, align 1
  %954 = getelementptr inbounds %"class.blink::RuntimeEnabledFeaturesBase::Backup", %"class.blink::RuntimeEnabledFeaturesBase::Backup"* %0, i64 0, i32 476
  %955 = load i8, i8* @_ZN5blink26RuntimeEnabledFeaturesBase19is_web_usb_enabled_E, align 1, !range !2
  store i8 %955, i8* %954, align 1
  %956 = getelementptr inbounds %"class.blink::RuntimeEnabledFeaturesBase::Backup", %"class.blink::RuntimeEnabledFeaturesBase::Backup"* %0, i64 0, i32 477
  %957 = load i8, i8* @_ZN5blink26RuntimeEnabledFeaturesBase40is_web_usb_on_dedicated_workers_enabled_E, align 1, !range !2
  store i8 %957, i8* %956, align 1
  %958 = getelementptr inbounds %"class.blink::RuntimeEnabledFeaturesBase::Backup", %"class.blink::RuntimeEnabledFeaturesBase::Backup"* %0, i64 0, i32 478
  %959 = load i8, i8* @_ZN5blink26RuntimeEnabledFeaturesBase27is_web_vtt_regions_enabled_E, align 1, !range !2
  store i8 %959, i8* %958, align 1
  %960 = getelementptr inbounds %"class.blink::RuntimeEnabledFeaturesBase::Backup", %"class.blink::RuntimeEnabledFeaturesBase::Backup"* %0, i64 0, i32 479
  %961 = load i8, i8* @_ZN5blink26RuntimeEnabledFeaturesBase18is_web_xr_enabled_E, align 1, !range !2
  store i8 %961, i8* %960, align 1
  %962 = getelementptr inbounds %"class.blink::RuntimeEnabledFeaturesBase::Backup", %"class.blink::RuntimeEnabledFeaturesBase::Backup"* %0, i64 0, i32 480
  %963 = load i8, i8* @_ZN5blink26RuntimeEnabledFeaturesBase26is_web_xr_anchors_enabled_E, align 1, !range !2
  store i8 %963, i8* %962, align 1
  %964 = getelementptr inbounds %"class.blink::RuntimeEnabledFeaturesBase::Backup", %"class.blink::RuntimeEnabledFeaturesBase::Backup"* %0, i64 0, i32 481
  %965 = load i8, i8* @_ZN5blink26RuntimeEnabledFeaturesBase28is_web_xr_ar_module_enabled_E, align 1, !range !2
  store i8 %965, i8* %964, align 1
  %966 = getelementptr inbounds %"class.blink::RuntimeEnabledFeaturesBase::Backup", %"class.blink::RuntimeEnabledFeaturesBase::Backup"* %0, i64 0, i32 482
  %967 = load i8, i8* @_ZN5blink26RuntimeEnabledFeaturesBase32is_web_xr_camera_access_enabled_E, align 1, !range !2
  store i8 %967, i8* %966, align 1
  %968 = getelementptr inbounds %"class.blink::RuntimeEnabledFeaturesBase::Backup", %"class.blink::RuntimeEnabledFeaturesBase::Backup"* %0, i64 0, i32 483
  %969 = load i8, i8* @_ZN5blink26RuntimeEnabledFeaturesBase24is_web_xr_depth_enabled_E, align 1, !range !2
  store i8 %969, i8* %968, align 1
  %970 = getelementptr inbounds %"class.blink::RuntimeEnabledFeaturesBase::Backup", %"class.blink::RuntimeEnabledFeaturesBase::Backup"* %0, i64 0, i32 484
  %971 = load i8, i8* @_ZN5blink26RuntimeEnabledFeaturesBase29is_web_xr_hand_input_enabled_E, align 1, !range !2
  store i8 %971, i8* %970, align 1
  %972 = getelementptr inbounds %"class.blink::RuntimeEnabledFeaturesBase::Backup", %"class.blink::RuntimeEnabledFeaturesBase::Backup"* %0, i64 0, i32 485
  %973 = load i8, i8* @_ZN5blink26RuntimeEnabledFeaturesBase27is_web_xr_hit_test_enabled_E, align 1, !range !2
  store i8 %973, i8* %972, align 1
  %974 = getelementptr inbounds %"class.blink::RuntimeEnabledFeaturesBase::Backup", %"class.blink::RuntimeEnabledFeaturesBase::Backup"* %0, i64 0, i32 486
  %975 = load i8, i8* @_ZN5blink26RuntimeEnabledFeaturesBase40is_web_xr_hit_test_entity_types_enabled_E, align 1, !range !2
  store i8 %975, i8* %974, align 1
  %976 = getelementptr inbounds %"class.blink::RuntimeEnabledFeaturesBase::Backup", %"class.blink::RuntimeEnabledFeaturesBase::Backup"* %0, i64 0, i32 487
  %977 = load i8, i8* @_ZN5blink26RuntimeEnabledFeaturesBase33is_web_xr_image_tracking_enabled_E, align 1, !range !2
  store i8 %977, i8* %976, align 1
  %978 = getelementptr inbounds %"class.blink::RuntimeEnabledFeaturesBase::Backup", %"class.blink::RuntimeEnabledFeaturesBase::Backup"* %0, i64 0, i32 488
  %979 = load i8, i8* @_ZN5blink26RuntimeEnabledFeaturesBase35is_web_xr_light_estimation_enabled_E, align 1, !range !2
  store i8 %979, i8* %978, align 1
  %980 = getelementptr inbounds %"class.blink::RuntimeEnabledFeaturesBase::Backup", %"class.blink::RuntimeEnabledFeaturesBase::Backup"* %0, i64 0, i32 489
  %981 = load i8, i8* @_ZN5blink26RuntimeEnabledFeaturesBase34is_web_xr_plane_detection_enabled_E, align 1, !range !2
  store i8 %981, i8* %980, align 1
  %982 = getelementptr inbounds %"class.blink::RuntimeEnabledFeaturesBase::Backup", %"class.blink::RuntimeEnabledFeaturesBase::Backup"* %0, i64 0, i32 490
  %983 = load i8, i8* @_ZN5blink26RuntimeEnabledFeaturesBase33is_web_xr_viewport_scale_enabled_E, align 1, !range !2
  store i8 %983, i8* %982, align 1
  %984 = getelementptr inbounds %"class.blink::RuntimeEnabledFeaturesBase::Backup", %"class.blink::RuntimeEnabledFeaturesBase::Backup"* %0, i64 0, i32 491
  %985 = load i8, i8* @_ZN5blink26RuntimeEnabledFeaturesBase31is_wheel_event_regions_enabled_E, align 1, !range !2
  store i8 %985, i8* %984, align 1
  %986 = getelementptr inbounds %"class.blink::RuntimeEnabledFeaturesBase::Backup", %"class.blink::RuntimeEnabledFeaturesBase::Backup"* %0, i64 0, i32 492
  %987 = load i8, i8* @_ZN5blink26RuntimeEnabledFeaturesBase28is_window_placement_enabled_E, align 1, !range !2
  store i8 %987, i8* %986, align 1
  %988 = getelementptr inbounds %"class.blink::RuntimeEnabledFeaturesBase::Backup", %"class.blink::RuntimeEnabledFeaturesBase::Backup"* %0, i64 0, i32 493
  %989 = load i8, i8* @_ZN5blink26RuntimeEnabledFeaturesBase27is_window_segments_enabled_E, align 1, !range !2
  store i8 %989, i8* %988, align 1
  %990 = getelementptr inbounds %"class.blink::RuntimeEnabledFeaturesBase::Backup", %"class.blink::RuntimeEnabledFeaturesBase::Backup"* %0, i64 0, i32 494
  %991 = load i8, i8* @_ZN5blink26RuntimeEnabledFeaturesBase16is_xslt_enabled_E, align 1, !range !2
  store i8 %991, i8* %990, align 1
  ret void
}

; Function Attrs: nofree norecurse nounwind ssp uwtable
define hidden void @_ZN5blink26RuntimeEnabledFeaturesBase6Backup7RestoreEv(%"class.blink::RuntimeEnabledFeaturesBase::Backup"* readonly) local_unnamed_addr #0 align 2 {
  %2 = getelementptr inbounds %"class.blink::RuntimeEnabledFeaturesBase::Backup", %"class.blink::RuntimeEnabledFeaturesBase::Backup"* %0, i64 0, i32 0
  %3 = load i8, i8* %2, align 1, !range !2
  store i8 %3, i8* @_ZN5blink26RuntimeEnabledFeaturesBase33is_accelerated_2d_canvas_enabled_E, align 1
  %4 = getelementptr inbounds %"class.blink::RuntimeEnabledFeaturesBase::Backup", %"class.blink::RuntimeEnabledFeaturesBase::Backup"* %0, i64 0, i32 1
  %5 = load i8, i8* %4, align 1, !range !2
  store i8 %5, i8* @_ZN5blink26RuntimeEnabledFeaturesBase38is_accelerated_small_canvases_enabled_E, align 1
  %6 = getelementptr inbounds %"class.blink::RuntimeEnabledFeaturesBase::Backup", %"class.blink::RuntimeEnabledFeaturesBase::Backup"* %0, i64 0, i32 2
  %7 = load i8, i8* %6, align 1, !range !2
  store i8 %7, i8* @_ZN5blink26RuntimeEnabledFeaturesBase48is_accessibility_aria_touch_passthrough_enabled_E, align 1
  %8 = getelementptr inbounds %"class.blink::RuntimeEnabledFeaturesBase::Backup", %"class.blink::RuntimeEnabledFeaturesBase::Backup"* %0, i64 0, i32 3
  %9 = load i8, i8* %8, align 1, !range !2
  store i8 %9, i8* @_ZN5blink26RuntimeEnabledFeaturesBase46is_accessibility_aria_virtual_content_enabled_E, align 1
  %10 = getelementptr inbounds %"class.blink::RuntimeEnabledFeaturesBase::Backup", %"class.blink::RuntimeEnabledFeaturesBase::Backup"* %0, i64 0, i32 4
  %11 = load i8, i8* %10, align 1, !range !2
  store i8 %11, i8* @_ZN5blink26RuntimeEnabledFeaturesBase45is_accessibility_expose_display_none_enabled_E, align 1
  %12 = getelementptr inbounds %"class.blink::RuntimeEnabledFeaturesBase::Backup", %"class.blink::RuntimeEnabledFeaturesBase::Backup"* %0, i64 0, i32 5
  %13 = load i8, i8* %12, align 1, !range !2
  store i8 %13, i8* @_ZN5blink26RuntimeEnabledFeaturesBase45is_accessibility_expose_html_element_enabled_E, align 1
  %14 = getelementptr inbounds %"class.blink::RuntimeEnabledFeaturesBase::Backup", %"class.blink::RuntimeEnabledFeaturesBase::Backup"* %0, i64 0, i32 6
  %15 = load i8, i8* %14, align 1, !range !2
  store i8 %15, i8* @_ZN5blink26RuntimeEnabledFeaturesBase46is_accessibility_expose_ignored_nodes_enabled_E, align 1
  %16 = getelementptr inbounds %"class.blink::RuntimeEnabledFeaturesBase::Backup", %"class.blink::RuntimeEnabledFeaturesBase::Backup"* %0, i64 0, i32 7
  %17 = load i8, i8* %16, align 1, !range !2
  store i8 %17, i8* @_ZN5blink26RuntimeEnabledFeaturesBase38is_accessibility_object_model_enabled_E, align 1
  %18 = getelementptr inbounds %"class.blink::RuntimeEnabledFeaturesBase::Backup", %"class.blink::RuntimeEnabledFeaturesBase::Backup"* %0, i64 0, i32 8
  %19 = load i8, i8* %18, align 1, !range !2
  store i8 %19, i8* @_ZN5blink26RuntimeEnabledFeaturesBase62is_accessibility_use_ax_position_for_document_markers_enabled_E, align 1
  %20 = getelementptr inbounds %"class.blink::RuntimeEnabledFeaturesBase::Backup", %"class.blink::RuntimeEnabledFeaturesBase::Backup"* %0, i64 0, i32 9
  %21 = load i8, i8* %20, align 1, !range !2
  store i8 %21, i8* @_ZN5blink26RuntimeEnabledFeaturesBase43is_add_event_listener_abort_signal_enabled_E, align 1
  %22 = getelementptr inbounds %"class.blink::RuntimeEnabledFeaturesBase::Backup", %"class.blink::RuntimeEnabledFeaturesBase::Backup"* %0, i64 0, i32 10
  %23 = load i8, i8* %22, align 1, !range !2
  store i8 %23, i8* @_ZN5blink26RuntimeEnabledFeaturesBase25is_address_space_enabled_E, align 1
  %24 = getelementptr inbounds %"class.blink::RuntimeEnabledFeaturesBase::Backup", %"class.blink::RuntimeEnabledFeaturesBase::Backup"* %0, i64 0, i32 11
  %25 = load i8, i8* %24, align 1, !range !2
  store i8 %25, i8* @_ZN5blink26RuntimeEnabledFeaturesBase22is_ad_tagging_enabled_E, align 1
  %26 = getelementptr inbounds %"class.blink::RuntimeEnabledFeaturesBase::Backup", %"class.blink::RuntimeEnabledFeaturesBase::Backup"* %0, i64 0, i32 12
  %27 = load i8, i8* %26, align 1, !range !2
  store i8 %27, i8* @_ZN5blink26RuntimeEnabledFeaturesBase44is_allow_activation_delegation_attr_enabled_E, align 1
  %28 = getelementptr inbounds %"class.blink::RuntimeEnabledFeaturesBase::Backup", %"class.blink::RuntimeEnabledFeaturesBase::Backup"* %0, i64 0, i32 13
  %29 = load i8, i8* %28, align 1, !range !2
  store i8 %29, i8* @_ZN5blink26RuntimeEnabledFeaturesBase56is_allow_content_initiated_data_url_navigations_enabled_E, align 1
  %30 = getelementptr inbounds %"class.blink::RuntimeEnabledFeaturesBase::Backup", %"class.blink::RuntimeEnabledFeaturesBase::Backup"* %0, i64 0, i32 14
  %31 = load i8, i8* %30, align 1, !range !2
  store i8 %31, i8* @_ZN5blink26RuntimeEnabledFeaturesBase44is_allow_sync_xhr_in_page_dismissal_enabled_E, align 1
  %32 = getelementptr inbounds %"class.blink::RuntimeEnabledFeaturesBase::Backup", %"class.blink::RuntimeEnabledFeaturesBase::Backup"* %0, i64 0, i32 15
  %33 = load i8, i8* %32, align 1, !range !2
  store i8 %33, i8* @_ZN5blink26RuntimeEnabledFeaturesBase47is_android_downloadable_fonts_matching_enabled_E, align 1
  %34 = getelementptr inbounds %"class.blink::RuntimeEnabledFeaturesBase::Backup", %"class.blink::RuntimeEnabledFeaturesBase::Backup"* %0, i64 0, i32 16
  %35 = load i8, i8* %34, align 1, !range !2
  store i8 %35, i8* @_ZN5blink26RuntimeEnabledFeaturesBase29is_animation_worklet_enabled_E, align 1
  %36 = getelementptr inbounds %"class.blink::RuntimeEnabledFeaturesBase::Backup", %"class.blink::RuntimeEnabledFeaturesBase::Backup"* %0, i64 0, i32 17
  %37 = load i8, i8* %36, align 1, !range !2
  store i8 %37, i8* @_ZN5blink26RuntimeEnabledFeaturesBase31is_aom_aria_properties_enabled_E, align 1
  %38 = getelementptr inbounds %"class.blink::RuntimeEnabledFeaturesBase::Backup", %"class.blink::RuntimeEnabledFeaturesBase::Backup"* %0, i64 0, i32 18
  %39 = load i8, i8* %38, align 1, !range !2
  store i8 %39, i8* @_ZN5blink26RuntimeEnabledFeaturesBase44is_aom_aria_relationship_properties_enabled_E, align 1
  %40 = getelementptr inbounds %"class.blink::RuntimeEnabledFeaturesBase::Backup", %"class.blink::RuntimeEnabledFeaturesBase::Backup"* %0, i64 0, i32 19
  %41 = load i8, i8* %40, align 1, !range !2
  store i8 %41, i8* @_ZN5blink26RuntimeEnabledFeaturesBase21is_app_cache_enabled_E, align 1
  %42 = getelementptr inbounds %"class.blink::RuntimeEnabledFeaturesBase::Backup", %"class.blink::RuntimeEnabledFeaturesBase::Backup"* %0, i64 0, i32 20
  %43 = load i8, i8* %42, align 1, !range !2
  store i8 %43, i8* @_ZN5blink26RuntimeEnabledFeaturesBase23is_app_history_enabled_E, align 1
  %44 = getelementptr inbounds %"class.blink::RuntimeEnabledFeaturesBase::Backup", %"class.blink::RuntimeEnabledFeaturesBase::Backup"* %0, i64 0, i32 21
  %45 = load i8, i8* %44, align 1, !range !2
  store i8 %45, i8* @_ZN5blink26RuntimeEnabledFeaturesBase34is_aria_touch_passthrough_enabled_E, align 1
  %46 = getelementptr inbounds %"class.blink::RuntimeEnabledFeaturesBase::Backup", %"class.blink::RuntimeEnabledFeaturesBase::Backup"* %0, i64 0, i32 22
  %47 = load i8, i8* %46, align 1, !range !2
  store i8 %47, i8* @_ZN5blink26RuntimeEnabledFeaturesBase32is_audio_output_devices_enabled_E, align 1
  %48 = getelementptr inbounds %"class.blink::RuntimeEnabledFeaturesBase::Backup", %"class.blink::RuntimeEnabledFeaturesBase::Backup"* %0, i64 0, i32 23
  %49 = load i8, i8* %48, align 1, !range !2
  store i8 %49, i8* @_ZN5blink26RuntimeEnabledFeaturesBase30is_audio_video_tracks_enabled_E, align 1
  %50 = getelementptr inbounds %"class.blink::RuntimeEnabledFeaturesBase::Backup", %"class.blink::RuntimeEnabledFeaturesBase::Backup"* %0, i64 0, i32 24
  %51 = load i8, i8* %50, align 1, !range !2
  store i8 %51, i8* @_ZN5blink26RuntimeEnabledFeaturesBase37is_auto_lazy_load_on_reloads_enabled_E, align 1
  %52 = getelementptr inbounds %"class.blink::RuntimeEnabledFeaturesBase::Backup", %"class.blink::RuntimeEnabledFeaturesBase::Backup"* %0, i64 0, i32 25
  %53 = load i8, i8* %52, align 1, !range !2
  store i8 %53, i8* @_ZN5blink26RuntimeEnabledFeaturesBase40is_automatic_lazy_frame_loading_enabled_E, align 1
  %54 = getelementptr inbounds %"class.blink::RuntimeEnabledFeaturesBase::Backup", %"class.blink::RuntimeEnabledFeaturesBase::Backup"* %0, i64 0, i32 26
  %55 = load i8, i8* %54, align 1, !range !2
  store i8 %55, i8* @_ZN5blink26RuntimeEnabledFeaturesBase40is_automatic_lazy_image_loading_enabled_E, align 1
  %56 = getelementptr inbounds %"class.blink::RuntimeEnabledFeaturesBase::Backup", %"class.blink::RuntimeEnabledFeaturesBase::Backup"* %0, i64 0, i32 27
  %57 = load i8, i8* %56, align 1, !range !2
  store i8 %57, i8* @_ZN5blink26RuntimeEnabledFeaturesBase33is_automation_controlled_enabled_E, align 1
  %58 = getelementptr inbounds %"class.blink::RuntimeEnabledFeaturesBase::Backup", %"class.blink::RuntimeEnabledFeaturesBase::Backup"* %0, i64 0, i32 28
  %59 = load i8, i8* %58, align 1, !range !2
  store i8 %59, i8* @_ZN5blink26RuntimeEnabledFeaturesBase35is_auto_picture_in_picture_enabled_E, align 1
  %60 = getelementptr inbounds %"class.blink::RuntimeEnabledFeaturesBase::Backup", %"class.blink::RuntimeEnabledFeaturesBase::Backup"* %0, i64 0, i32 29
  %61 = load i8, i8* %60, align 1, !range !2
  store i8 %61, i8* @_ZN5blink26RuntimeEnabledFeaturesBase38is_autoplay_ignores_web_audio_enabled_E, align 1
  %62 = getelementptr inbounds %"class.blink::RuntimeEnabledFeaturesBase::Backup", %"class.blink::RuntimeEnabledFeaturesBase::Backup"* %0, i64 0, i32 30
  %63 = load i8, i8* %62, align 1, !range !2
  store i8 %63, i8* @_ZN5blink26RuntimeEnabledFeaturesBase30is_back_forward_cache_enabled_E, align 1
  %64 = getelementptr inbounds %"class.blink::RuntimeEnabledFeaturesBase::Backup", %"class.blink::RuntimeEnabledFeaturesBase::Backup"* %0, i64 0, i32 31
  %65 = load i8, i8* %64, align 1, !range !2
  store i8 %65, i8* @_ZN5blink26RuntimeEnabledFeaturesBase53is_back_forward_cache_experiment_http_header_enabled_E, align 1
  %66 = getelementptr inbounds %"class.blink::RuntimeEnabledFeaturesBase::Backup", %"class.blink::RuntimeEnabledFeaturesBase::Backup"* %0, i64 0, i32 32
  %67 = load i8, i8* %66, align 1, !range !2
  store i8 %67, i8* @_ZN5blink26RuntimeEnabledFeaturesBase28is_background_fetch_enabled_E, align 1
  %68 = getelementptr inbounds %"class.blink::RuntimeEnabledFeaturesBase::Backup", %"class.blink::RuntimeEnabledFeaturesBase::Backup"* %0, i64 0, i32 33
  %69 = load i8, i8* %68, align 1, !range !2
  store i8 %69, i8* @_ZN5blink26RuntimeEnabledFeaturesBase47is_background_video_track_optimization_enabled_E, align 1
  %70 = getelementptr inbounds %"class.blink::RuntimeEnabledFeaturesBase::Backup", %"class.blink::RuntimeEnabledFeaturesBase::Backup"* %0, i64 0, i32 34
  %71 = load i8, i8* %70, align 1, !range !2
  store i8 %71, i8* @_ZN5blink26RuntimeEnabledFeaturesBase19is_badging_enabled_E, align 1
  %72 = getelementptr inbounds %"class.blink::RuntimeEnabledFeaturesBase::Backup", %"class.blink::RuntimeEnabledFeaturesBase::Backup"* %0, i64 0, i32 35
  %73 = load i8, i8* %72, align 1, !range !2
  store i8 %73, i8* @_ZN5blink26RuntimeEnabledFeaturesBase28is_barcode_detector_enabled_E, align 1
  %74 = getelementptr inbounds %"class.blink::RuntimeEnabledFeaturesBase::Backup", %"class.blink::RuntimeEnabledFeaturesBase::Backup"* %0, i64 0, i32 36
  %75 = load i8, i8* %74, align 1, !range !2
  store i8 %75, i8* @_ZN5blink26RuntimeEnabledFeaturesBase32is_battery_savings_meta_enabled_E, align 1
  %76 = getelementptr inbounds %"class.blink::RuntimeEnabledFeaturesBase::Backup", %"class.blink::RuntimeEnabledFeaturesBase::Backup"* %0, i64 0, i32 37
  %77 = load i8, i8* %76, align 1, !range !2
  store i8 %77, i8* @_ZN5blink26RuntimeEnabledFeaturesBase30is_before_match_event_enabled_E, align 1
  %78 = getelementptr inbounds %"class.blink::RuntimeEnabledFeaturesBase::Backup", %"class.blink::RuntimeEnabledFeaturesBase::Backup"* %0, i64 0, i32 38
  %79 = load i8, i8* %78, align 1, !range !2
  store i8 %79, i8* @_ZN5blink26RuntimeEnabledFeaturesBase31is_bidi_caret_affinity_enabled_E, align 1
  %80 = getelementptr inbounds %"class.blink::RuntimeEnabledFeaturesBase::Backup", %"class.blink::RuntimeEnabledFeaturesBase::Backup"* %0, i64 0, i32 39
  %81 = load i8, i8* %80, align 1, !range !2
  store i8 %81, i8* @_ZN5blink26RuntimeEnabledFeaturesBase36is_blink_runtime_call_stats_enabled_E, align 1
  %82 = getelementptr inbounds %"class.blink::RuntimeEnabledFeaturesBase::Backup", %"class.blink::RuntimeEnabledFeaturesBase::Backup"* %0, i64 0, i32 40
  %83 = load i8, i8* %82, align 1, !range !2
  store i8 %83, i8* @_ZN5blink26RuntimeEnabledFeaturesBase43is_block_credentialed_subresources_enabled_E, align 1
  %84 = getelementptr inbounds %"class.blink::RuntimeEnabledFeaturesBase::Backup", %"class.blink::RuntimeEnabledFeaturesBase::Backup"* %0, i64 0, i32 41
  %85 = load i8, i8* %84, align 1, !range !2
  store i8 %85, i8* @_ZN5blink26RuntimeEnabledFeaturesBase41is_blocking_downloads_in_sandbox_enabled_E, align 1
  %86 = getelementptr inbounds %"class.blink::RuntimeEnabledFeaturesBase::Backup", %"class.blink::RuntimeEnabledFeaturesBase::Backup"* %0, i64 0, i32 42
  %87 = load i8, i8* %86, align 1, !range !2
  store i8 %87, i8* @_ZN5blink26RuntimeEnabledFeaturesBase50is_blocking_focus_without_user_activation_enabled_E, align 1
  %88 = getelementptr inbounds %"class.blink::RuntimeEnabledFeaturesBase::Backup", %"class.blink::RuntimeEnabledFeaturesBase::Backup"* %0, i64 0, i32 43
  %89 = load i8, i8* %88, align 1, !range !2
  store i8 %89, i8* @_ZN5blink26RuntimeEnabledFeaturesBase53is_browser_verified_user_activation_keyboard_enabled_E, align 1
  %90 = getelementptr inbounds %"class.blink::RuntimeEnabledFeaturesBase::Backup", %"class.blink::RuntimeEnabledFeaturesBase::Backup"* %0, i64 0, i32 44
  %91 = load i8, i8* %90, align 1, !range !2
  store i8 %91, i8* @_ZN5blink26RuntimeEnabledFeaturesBase50is_browser_verified_user_activation_mouse_enabled_E, align 1
  %92 = getelementptr inbounds %"class.blink::RuntimeEnabledFeaturesBase::Backup", %"class.blink::RuntimeEnabledFeaturesBase::Backup"* %0, i64 0, i32 45
  %93 = load i8, i8* %92, align 1, !range !2
  store i8 %93, i8* @_ZN5blink26RuntimeEnabledFeaturesBase36is_cache_inline_script_code_enabled_E, align 1
  %94 = getelementptr inbounds %"class.blink::RuntimeEnabledFeaturesBase::Backup", %"class.blink::RuntimeEnabledFeaturesBase::Backup"* %0, i64 0, i32 46
  %95 = load i8, i8* %94, align 1, !range !2
  store i8 %95, i8* @_ZN5blink26RuntimeEnabledFeaturesBase41is_cache_storage_code_cache_hint_enabled_E, align 1
  %96 = getelementptr inbounds %"class.blink::RuntimeEnabledFeaturesBase::Backup", %"class.blink::RuntimeEnabledFeaturesBase::Backup"* %0, i64 0, i32 47
  %97 = load i8, i8* %96, align 1, !range !2
  store i8 %97, i8* @_ZN5blink26RuntimeEnabledFeaturesBase36is_canvas_2d_image_chromium_enabled_E, align 1
  %98 = getelementptr inbounds %"class.blink::RuntimeEnabledFeaturesBase::Backup", %"class.blink::RuntimeEnabledFeaturesBase::Backup"* %0, i64 0, i32 48
  %99 = load i8, i8* %98, align 1, !range !2
  store i8 %99, i8* @_ZN5blink26RuntimeEnabledFeaturesBase43is_canvas_2d_scroll_path_into_view_enabled_E, align 1
  %100 = getelementptr inbounds %"class.blink::RuntimeEnabledFeaturesBase::Backup", %"class.blink::RuntimeEnabledFeaturesBase::Backup"* %0, i64 0, i32 49
  %101 = load i8, i8* %100, align 1, !range !2
  store i8 %101, i8* @_ZN5blink26RuntimeEnabledFeaturesBase35is_canvas_color_management_enabled_E, align 1
  %102 = getelementptr inbounds %"class.blink::RuntimeEnabledFeaturesBase::Backup", %"class.blink::RuntimeEnabledFeaturesBase::Backup"* %0, i64 0, i32 50
  %103 = load i8, i8* %102, align 1, !range !2
  store i8 %103, i8* @_ZN5blink26RuntimeEnabledFeaturesBase33is_canvas_formatted_text_enabled_E, align 1
  %104 = getelementptr inbounds %"class.blink::RuntimeEnabledFeaturesBase::Backup", %"class.blink::RuntimeEnabledFeaturesBase::Backup"* %0, i64 0, i32 51
  %105 = load i8, i8* %104, align 1, !range !2
  store i8 %105, i8* @_ZN5blink26RuntimeEnabledFeaturesBase29is_canvas_hit_region_enabled_E, align 1
  %106 = getelementptr inbounds %"class.blink::RuntimeEnabledFeaturesBase::Backup", %"class.blink::RuntimeEnabledFeaturesBase::Backup"* %0, i64 0, i32 52
  %107 = load i8, i8* %106, align 1, !range !2
  store i8 %107, i8* @_ZN5blink26RuntimeEnabledFeaturesBase34is_canvas_image_smoothing_enabled_E, align 1
  %108 = getelementptr inbounds %"class.blink::RuntimeEnabledFeaturesBase::Backup", %"class.blink::RuntimeEnabledFeaturesBase::Backup"* %0, i64 0, i32 53
  %109 = load i8, i8* %108, align 1, !range !2
  store i8 %109, i8* @_ZN5blink26RuntimeEnabledFeaturesBase33is_capability_delegation_enabled_E, align 1
  %110 = getelementptr inbounds %"class.blink::RuntimeEnabledFeaturesBase::Backup", %"class.blink::RuntimeEnabledFeaturesBase::Backup"* %0, i64 0, i32 54
  %111 = load i8, i8* %110, align 1, !range !2
  store i8 %111, i8* @_ZN5blink26RuntimeEnabledFeaturesBase49is_capability_delegation_payment_request_enabled_E, align 1
  %112 = getelementptr inbounds %"class.blink::RuntimeEnabledFeaturesBase::Backup", %"class.blink::RuntimeEnabledFeaturesBase::Backup"* %0, i64 0, i32 55
  %113 = load i8, i8* %112, align 1, !range !2
  store i8 %113, i8* @_ZN5blink26RuntimeEnabledFeaturesBase26is_capture_handle_enabled_E, align 1
  %114 = getelementptr inbounds %"class.blink::RuntimeEnabledFeaturesBase::Backup", %"class.blink::RuntimeEnabledFeaturesBase::Backup"* %0, i64 0, i32 56
  %115 = load i8, i8* %114, align 1, !range !2
  store i8 %115, i8* @_ZN5blink26RuntimeEnabledFeaturesBase32is_capture_time_in_csrc_enabled_E, align 1
  %116 = getelementptr inbounds %"class.blink::RuntimeEnabledFeaturesBase::Backup", %"class.blink::RuntimeEnabledFeaturesBase::Backup"* %0, i64 0, i32 57
  %117 = load i8, i8* %116, align 1, !range !2
  store i8 %117, i8* @_ZN5blink26RuntimeEnabledFeaturesBase31is_click_pointer_event_enabled_E, align 1
  %118 = getelementptr inbounds %"class.blink::RuntimeEnabledFeaturesBase::Backup", %"class.blink::RuntimeEnabledFeaturesBase::Backup"* %0, i64 0, i32 58
  %119 = load i8, i8* %118, align 1, !range !2
  store i8 %119, i8* @_ZN5blink26RuntimeEnabledFeaturesBase30is_click_retargetting_enabled_E, align 1
  %120 = getelementptr inbounds %"class.blink::RuntimeEnabledFeaturesBase::Backup", %"class.blink::RuntimeEnabledFeaturesBase::Backup"* %0, i64 0, i32 59
  %121 = load i8, i8* %120, align 1, !range !2
  store i8 %121, i8* @_ZN5blink26RuntimeEnabledFeaturesBase25is_clipboard_svg_enabled_E, align 1
  %122 = getelementptr inbounds %"class.blink::RuntimeEnabledFeaturesBase::Backup", %"class.blink::RuntimeEnabledFeaturesBase::Backup"* %0, i64 0, i32 60
  %123 = load i8, i8* %122, align 1, !range !2
  store i8 %123, i8* @_ZN5blink26RuntimeEnabledFeaturesBase25is_colrv_1_fonts_enabled_E, align 1
  %124 = getelementptr inbounds %"class.blink::RuntimeEnabledFeaturesBase::Backup", %"class.blink::RuntimeEnabledFeaturesBase::Backup"* %0, i64 0, i32 61
  %125 = load i8, i8* %124, align 1, !range !2
  store i8 %125, i8* @_ZN5blink26RuntimeEnabledFeaturesBase33is_composite_after_paint_enabled_E, align 1
  %126 = getelementptr inbounds %"class.blink::RuntimeEnabledFeaturesBase::Backup", %"class.blink::RuntimeEnabledFeaturesBase::Backup"* %0, i64 0, i32 62
  %127 = load i8, i8* %126, align 1, !range !2
  store i8 %127, i8* @_ZN5blink26RuntimeEnabledFeaturesBase40is_composite_bg_color_animation_enabled_E, align 1
  %128 = getelementptr inbounds %"class.blink::RuntimeEnabledFeaturesBase::Backup", %"class.blink::RuntimeEnabledFeaturesBase::Backup"* %0, i64 0, i32 63
  %129 = load i8, i8* %128, align 1, !range !2
  store i8 %129, i8* @_ZN5blink26RuntimeEnabledFeaturesBase41is_composite_clip_path_animation_enabled_E, align 1
  %130 = getelementptr inbounds %"class.blink::RuntimeEnabledFeaturesBase::Backup", %"class.blink::RuntimeEnabledFeaturesBase::Backup"* %0, i64 0, i32 64
  %131 = load i8, i8* %130, align 1, !range !2
  store i8 %131, i8* @_ZN5blink26RuntimeEnabledFeaturesBase39is_composited_selection_update_enabled_E, align 1
  %132 = getelementptr inbounds %"class.blink::RuntimeEnabledFeaturesBase::Backup", %"class.blink::RuntimeEnabledFeaturesBase::Backup"* %0, i64 0, i32 65
  %133 = load i8, i8* %132, align 1, !range !2
  store i8 %133, i8* @_ZN5blink26RuntimeEnabledFeaturesBase40is_composite_relative_keyframes_enabled_E, align 1
  %134 = getelementptr inbounds %"class.blink::RuntimeEnabledFeaturesBase::Backup", %"class.blink::RuntimeEnabledFeaturesBase::Backup"* %0, i64 0, i32 66
  %135 = load i8, i8* %134, align 1, !range !2
  store i8 %135, i8* @_ZN5blink26RuntimeEnabledFeaturesBase25is_composite_svg_enabled_E, align 1
  %136 = getelementptr inbounds %"class.blink::RuntimeEnabledFeaturesBase::Backup", %"class.blink::RuntimeEnabledFeaturesBase::Backup"* %0, i64 0, i32 67
  %137 = load i8, i8* %136, align 1, !range !2
  store i8 %137, i8* @_ZN5blink26RuntimeEnabledFeaturesBase39is_computed_accessibility_info_enabled_E, align 1
  %138 = getelementptr inbounds %"class.blink::RuntimeEnabledFeaturesBase::Backup", %"class.blink::RuntimeEnabledFeaturesBase::Backup"* %0, i64 0, i32 68
  %139 = load i8, i8* %138, align 1, !range !2
  store i8 %139, i8* @_ZN5blink26RuntimeEnabledFeaturesBase28is_compute_pressure_enabled_E, align 1
  %140 = getelementptr inbounds %"class.blink::RuntimeEnabledFeaturesBase::Backup", %"class.blink::RuntimeEnabledFeaturesBase::Backup"* %0, i64 0, i32 69
  %141 = load i8, i8* %140, align 1, !range !2
  store i8 %141, i8* @_ZN5blink26RuntimeEnabledFeaturesBase36is_consolidated_movement_xy_enabled_E, align 1
  %142 = getelementptr inbounds %"class.blink::RuntimeEnabledFeaturesBase::Backup", %"class.blink::RuntimeEnabledFeaturesBase::Backup"* %0, i64 0, i32 70
  %143 = load i8, i8* %142, align 1, !range !2
  store i8 %143, i8* @_ZN5blink26RuntimeEnabledFeaturesBase28is_contacts_manager_enabled_E, align 1
  %144 = getelementptr inbounds %"class.blink::RuntimeEnabledFeaturesBase::Backup", %"class.blink::RuntimeEnabledFeaturesBase::Backup"* %0, i64 0, i32 71
  %145 = load i8, i8* %144, align 1, !range !2
  store i8 %145, i8* @_ZN5blink26RuntimeEnabledFeaturesBase45is_contacts_manager_extra_properties_enabled_E, align 1
  %146 = getelementptr inbounds %"class.blink::RuntimeEnabledFeaturesBase::Backup", %"class.blink::RuntimeEnabledFeaturesBase::Backup"* %0, i64 0, i32 72
  %147 = load i8, i8* %146, align 1, !range !2
  store i8 %147, i8* @_ZN5blink26RuntimeEnabledFeaturesBase25is_content_index_enabled_E, align 1
  %148 = getelementptr inbounds %"class.blink::RuntimeEnabledFeaturesBase::Backup", %"class.blink::RuntimeEnabledFeaturesBase::Backup"* %0, i64 0, i32 73
  %149 = load i8, i8* %148, align 1, !range !2
  store i8 %149, i8* @_ZN5blink26RuntimeEnabledFeaturesBase24is_context_menu_enabled_E, align 1
  %150 = getelementptr inbounds %"class.blink::RuntimeEnabledFeaturesBase::Backup", %"class.blink::RuntimeEnabledFeaturesBase::Backup"* %0, i64 0, i32 74
  %151 = load i8, i8* %150, align 1, !range !2
  store i8 %151, i8* @_ZN5blink26RuntimeEnabledFeaturesBase34is_conversion_measurement_enabled_E, align 1
  %152 = getelementptr inbounds %"class.blink::RuntimeEnabledFeaturesBase::Backup", %"class.blink::RuntimeEnabledFeaturesBase::Backup"* %0, i64 0, i32 75
  %153 = load i8, i8* %152, align 1, !range !2
  store i8 %153, i8* @_ZN5blink26RuntimeEnabledFeaturesBase48is_conversion_measurement_infra_support_enabled_E, align 1
  %154 = getelementptr inbounds %"class.blink::RuntimeEnabledFeaturesBase::Backup", %"class.blink::RuntimeEnabledFeaturesBase::Backup"* %0, i64 0, i32 76
  %155 = load i8, i8* %154, align 1, !range !2
  store i8 %155, i8* @_ZN5blink26RuntimeEnabledFeaturesBase52is_cookies_without_same_site_must_be_secure_enabled_E, align 1
  %156 = getelementptr inbounds %"class.blink::RuntimeEnabledFeaturesBase::Backup", %"class.blink::RuntimeEnabledFeaturesBase::Backup"* %0, i64 0, i32 77
  %157 = load i8, i8* %156, align 1, !range !2
  store i8 %157, i8* @_ZN5blink26RuntimeEnabledFeaturesBase34is_cooperative_scheduling_enabled_E, align 1
  %158 = getelementptr inbounds %"class.blink::RuntimeEnabledFeaturesBase::Backup", %"class.blink::RuntimeEnabledFeaturesBase::Backup"* %0, i64 0, i32 78
  %159 = load i8, i8* %158, align 1, !range !2
  store i8 %159, i8* @_ZN5blink26RuntimeEnabledFeaturesBase25is_cors_rfc_1918_enabled_E, align 1
  %160 = getelementptr inbounds %"class.blink::RuntimeEnabledFeaturesBase::Backup", %"class.blink::RuntimeEnabledFeaturesBase::Backup"* %0, i64 0, i32 79
  %161 = load i8, i8* %160, align 1, !range !2
  store i8 %161, i8* @_ZN5blink26RuntimeEnabledFeaturesBase34is_cross_origin_isolation_enabled_E, align 1
  %162 = getelementptr inbounds %"class.blink::RuntimeEnabledFeaturesBase::Backup", %"class.blink::RuntimeEnabledFeaturesBase::Backup"* %0, i64 0, i32 80
  %163 = load i8, i8* %162, align 1, !range !2
  store i8 %163, i8* @_ZN5blink26RuntimeEnabledFeaturesBase48is_cross_origin_opener_policy_reporting_enabled_E, align 1
  %164 = getelementptr inbounds %"class.blink::RuntimeEnabledFeaturesBase::Backup", %"class.blink::RuntimeEnabledFeaturesBase::Backup"* %0, i64 0, i32 81
  %165 = load i8, i8* %164, align 1, !range !2
  store i8 %165, i8* @_ZN5blink26RuntimeEnabledFeaturesBase22is_css_3_text_enabled_E, align 1
  %166 = getelementptr inbounds %"class.blink::RuntimeEnabledFeaturesBase::Backup", %"class.blink::RuntimeEnabledFeaturesBase::Backup"* %0, i64 0, i32 82
  %167 = load i8, i8* %166, align 1, !range !2
  store i8 %167, i8* @_ZN5blink26RuntimeEnabledFeaturesBase28is_css_accent_color_enabled_E, align 1
  %168 = getelementptr inbounds %"class.blink::RuntimeEnabledFeaturesBase::Backup", %"class.blink::RuntimeEnabledFeaturesBase::Backup"* %0, i64 0, i32 83
  %169 = load i8, i8* %168, align 1, !range !2
  store i8 %169, i8* @_ZN5blink26RuntimeEnabledFeaturesBase51is_css_at_rule_counter_style_image_symbols_enabled_E, align 1
  %170 = getelementptr inbounds %"class.blink::RuntimeEnabledFeaturesBase::Backup", %"class.blink::RuntimeEnabledFeaturesBase::Backup"* %0, i64 0, i32 84
  %171 = load i8, i8* %170, align 1, !range !2
  store i8 %171, i8* @_ZN5blink26RuntimeEnabledFeaturesBase51is_css_at_rule_counter_style_in_shadow_dom_enabled_E, align 1
  %172 = getelementptr inbounds %"class.blink::RuntimeEnabledFeaturesBase::Backup", %"class.blink::RuntimeEnabledFeaturesBase::Backup"* %0, i64 0, i32 85
  %173 = load i8, i8* %172, align 1, !range !2
  store i8 %173, i8* @_ZN5blink26RuntimeEnabledFeaturesBase27is_css_calc_as_int_enabled_E, align 1
  %174 = getelementptr inbounds %"class.blink::RuntimeEnabledFeaturesBase::Backup", %"class.blink::RuntimeEnabledFeaturesBase::Backup"* %0, i64 0, i32 86
  %175 = load i8, i8* %174, align 1, !range !2
  store i8 %175, i8* @_ZN5blink26RuntimeEnabledFeaturesBase38is_css_calc_infinity_and_na_n_enabled_E, align 1
  %176 = getelementptr inbounds %"class.blink::RuntimeEnabledFeaturesBase::Backup", %"class.blink::RuntimeEnabledFeaturesBase::Backup"* %0, i64 0, i32 87
  %177 = load i8, i8* %176, align 1, !range !2
  store i8 %177, i8* @_ZN5blink26RuntimeEnabledFeaturesBase39is_css_case_sensitive_selector_enabled_E, align 1
  %178 = getelementptr inbounds %"class.blink::RuntimeEnabledFeaturesBase::Backup", %"class.blink::RuntimeEnabledFeaturesBase::Backup"* %0, i64 0, i32 88
  %179 = load i8, i8* %178, align 1, !range !2
  store i8 %179, i8* @_ZN5blink26RuntimeEnabledFeaturesBase30is_css_color_typed_om_enabled_E, align 1
  %180 = getelementptr inbounds %"class.blink::RuntimeEnabledFeaturesBase::Backup", %"class.blink::RuntimeEnabledFeaturesBase::Backup"* %0, i64 0, i32 89
  %181 = load i8, i8* %180, align 1, !range !2
  store i8 %181, i8* @_ZN5blink26RuntimeEnabledFeaturesBase33is_css_container_queries_enabled_E, align 1
  %182 = getelementptr inbounds %"class.blink::RuntimeEnabledFeaturesBase::Backup", %"class.blink::RuntimeEnabledFeaturesBase::Backup"* %0, i64 0, i32 90
  %183 = load i8, i8* %182, align 1, !range !2
  store i8 %183, i8* @_ZN5blink26RuntimeEnabledFeaturesBase31is_css_contain_size_1d_enabled_E, align 1
  %184 = getelementptr inbounds %"class.blink::RuntimeEnabledFeaturesBase::Backup", %"class.blink::RuntimeEnabledFeaturesBase::Backup"* %0, i64 0, i32 91
  %185 = load i8, i8* %184, align 1, !range !2
  store i8 %185, i8* @_ZN5blink26RuntimeEnabledFeaturesBase34is_css_content_visibility_enabled_E, align 1
  %186 = getelementptr inbounds %"class.blink::RuntimeEnabledFeaturesBase::Backup", %"class.blink::RuntimeEnabledFeaturesBase::Backup"* %0, i64 0, i32 92
  %187 = load i8, i8* %186, align 1, !range !2
  store i8 %187, i8* @_ZN5blink26RuntimeEnabledFeaturesBase51is_css_content_visibility_hidden_matchable_enabled_E, align 1
  %188 = getelementptr inbounds %"class.blink::RuntimeEnabledFeaturesBase::Backup", %"class.blink::RuntimeEnabledFeaturesBase::Backup"* %0, i64 0, i32 93
  %189 = load i8, i8* %188, align 1, !range !2
  store i8 %189, i8* @_ZN5blink26RuntimeEnabledFeaturesBase29is_css_focus_visible_enabled_E, align 1
  %190 = getelementptr inbounds %"class.blink::RuntimeEnabledFeaturesBase::Backup", %"class.blink::RuntimeEnabledFeaturesBase::Backup"* %0, i64 0, i32 94
  %191 = load i8, i8* %190, align 1, !range !2
  store i8 %191, i8* @_ZN5blink26RuntimeEnabledFeaturesBase25is_css_foldables_enabled_E, align 1
  %192 = getelementptr inbounds %"class.blink::RuntimeEnabledFeaturesBase::Backup", %"class.blink::RuntimeEnabledFeaturesBase::Backup"* %0, i64 0, i32 95
  %193 = load i8, i8* %192, align 1, !range !2
  store i8 %193, i8* @_ZN5blink26RuntimeEnabledFeaturesBase37is_css_font_face_size_adjust_enabled_E, align 1
  %194 = getelementptr inbounds %"class.blink::RuntimeEnabledFeaturesBase::Backup", %"class.blink::RuntimeEnabledFeaturesBase::Backup"* %0, i64 0, i32 96
  %195 = load i8, i8* %194, align 1, !range !2
  store i8 %195, i8* @_ZN5blink26RuntimeEnabledFeaturesBase32is_css_font_size_adjust_enabled_E, align 1
  %196 = getelementptr inbounds %"class.blink::RuntimeEnabledFeaturesBase::Backup", %"class.blink::RuntimeEnabledFeaturesBase::Backup"* %0, i64 0, i32 97
  %197 = load i8, i8* %196, align 1, !range !2
  store i8 %197, i8* @_ZN5blink26RuntimeEnabledFeaturesBase31is_css_hex_alpha_color_enabled_E, align 1
  %198 = getelementptr inbounds %"class.blink::RuntimeEnabledFeaturesBase::Backup", %"class.blink::RuntimeEnabledFeaturesBase::Backup"* %0, i64 0, i32 98
  %199 = load i8, i8* %198, align 1, !range !2
  store i8 %199, i8* @_ZN5blink26RuntimeEnabledFeaturesBase48is_css_independent_transform_properties_enabled_E, align 1
  %200 = getelementptr inbounds %"class.blink::RuntimeEnabledFeaturesBase::Backup", %"class.blink::RuntimeEnabledFeaturesBase::Backup"* %0, i64 0, i32 99
  %201 = load i8, i8* %200, align 1, !range !2
  store i8 %201, i8* @_ZN5blink26RuntimeEnabledFeaturesBase26is_css_layout_api_enabled_E, align 1
  %202 = getelementptr inbounds %"class.blink::RuntimeEnabledFeaturesBase::Backup", %"class.blink::RuntimeEnabledFeaturesBase::Backup"* %0, i64 0, i32 100
  %203 = load i8, i8* %202, align 1, !range !2
  store i8 %203, i8* @_ZN5blink26RuntimeEnabledFeaturesBase23is_css_logical_enabled_E, align 1
  %204 = getelementptr inbounds %"class.blink::RuntimeEnabledFeaturesBase::Backup", %"class.blink::RuntimeEnabledFeaturesBase::Backup"* %0, i64 0, i32 101
  %205 = load i8, i8* %204, align 1, !range !2
  store i8 %205, i8* @_ZN5blink26RuntimeEnabledFeaturesBase32is_css_logical_overflow_enabled_E, align 1
  %206 = getelementptr inbounds %"class.blink::RuntimeEnabledFeaturesBase::Backup", %"class.blink::RuntimeEnabledFeaturesBase::Backup"* %0, i64 0, i32 102
  %207 = load i8, i8* %206, align 1, !range !2
  store i8 %207, i8* @_ZN5blink26RuntimeEnabledFeaturesBase44is_css_marker_nested_pseudo_element_enabled_E, align 1
  %208 = getelementptr inbounds %"class.blink::RuntimeEnabledFeaturesBase::Backup", %"class.blink::RuntimeEnabledFeaturesBase::Backup"* %0, i64 0, i32 103
  %209 = load i8, i8* %208, align 1, !range !2
  store i8 %209, i8* @_ZN5blink26RuntimeEnabledFeaturesBase26is_css_math_depth_enabled_E, align 1
  %210 = getelementptr inbounds %"class.blink::RuntimeEnabledFeaturesBase::Backup", %"class.blink::RuntimeEnabledFeaturesBase::Backup"* %0, i64 0, i32 104
  %211 = load i8, i8* %210, align 1, !range !2
  store i8 %211, i8* @_ZN5blink26RuntimeEnabledFeaturesBase26is_css_math_shift_enabled_E, align 1
  %212 = getelementptr inbounds %"class.blink::RuntimeEnabledFeaturesBase::Backup", %"class.blink::RuntimeEnabledFeaturesBase::Backup"* %0, i64 0, i32 105
  %213 = load i8, i8* %212, align 1, !range !2
  store i8 %213, i8* @_ZN5blink26RuntimeEnabledFeaturesBase26is_css_math_style_enabled_E, align 1
  %214 = getelementptr inbounds %"class.blink::RuntimeEnabledFeaturesBase::Backup", %"class.blink::RuntimeEnabledFeaturesBase::Backup"* %0, i64 0, i32 106
  %215 = load i8, i8* %214, align 1, !range !2
  store i8 %215, i8* @_ZN5blink26RuntimeEnabledFeaturesBase28is_css_math_variant_enabled_E, align 1
  %216 = getelementptr inbounds %"class.blink::RuntimeEnabledFeaturesBase::Backup", %"class.blink::RuntimeEnabledFeaturesBase::Backup"* %0, i64 0, i32 107
  %217 = load i8, i8* %216, align 1, !range !2
  store i8 %217, i8* @_ZN5blink26RuntimeEnabledFeaturesBase23is_css_modules_enabled_E, align 1
  %218 = getelementptr inbounds %"class.blink::RuntimeEnabledFeaturesBase::Backup", %"class.blink::RuntimeEnabledFeaturesBase::Backup"* %0, i64 0, i32 108
  %219 = load i8, i8* %218, align 1, !range !2
  store i8 %219, i8* @_ZN5blink26RuntimeEnabledFeaturesBase31is_css_offset_path_ray_enabled_E, align 1
  %220 = getelementptr inbounds %"class.blink::RuntimeEnabledFeaturesBase::Backup", %"class.blink::RuntimeEnabledFeaturesBase::Backup"* %0, i64 0, i32 109
  %221 = load i8, i8* %220, align 1, !range !2
  store i8 %221, i8* @_ZN5blink26RuntimeEnabledFeaturesBase39is_css_offset_path_ray_contain_enabled_E, align 1
  %222 = getelementptr inbounds %"class.blink::RuntimeEnabledFeaturesBase::Backup", %"class.blink::RuntimeEnabledFeaturesBase::Backup"* %0, i64 0, i32 110
  %223 = load i8, i8* %222, align 1, !range !2
  store i8 %223, i8* @_ZN5blink26RuntimeEnabledFeaturesBase38is_css_offset_position_anchor_enabled_E, align 1
  %224 = getelementptr inbounds %"class.blink::RuntimeEnabledFeaturesBase::Backup", %"class.blink::RuntimeEnabledFeaturesBase::Backup"* %0, i64 0, i32 111
  %225 = load i8, i8* %224, align 1, !range !2
  store i8 %225, i8* @_ZN5blink26RuntimeEnabledFeaturesBase35is_css_paint_api_arguments_enabled_E, align 1
  %226 = getelementptr inbounds %"class.blink::RuntimeEnabledFeaturesBase::Backup", %"class.blink::RuntimeEnabledFeaturesBase::Backup"* %0, i64 0, i32 112
  %227 = load i8, i8* %226, align 1, !range !2
  store i8 %227, i8* @_ZN5blink26RuntimeEnabledFeaturesBase34is_css_picture_in_picture_enabled_E, align 1
  %228 = getelementptr inbounds %"class.blink::RuntimeEnabledFeaturesBase::Backup", %"class.blink::RuntimeEnabledFeaturesBase::Backup"* %0, i64 0, i32 113
  %229 = load i8, i8* %228, align 1, !range !2
  store i8 %229, i8* @_ZN5blink26RuntimeEnabledFeaturesBase54is_css_position_sticky_static_scroll_position_enabled_E, align 1
  %230 = getelementptr inbounds %"class.blink::RuntimeEnabledFeaturesBase::Backup", %"class.blink::RuntimeEnabledFeaturesBase::Backup"* %0, i64 0, i32 114
  %231 = load i8, i8* %230, align 1, !range !2
  store i8 %231, i8* @_ZN5blink26RuntimeEnabledFeaturesBase26is_css_pseudo_dir_enabled_E, align 1
  %232 = getelementptr inbounds %"class.blink::RuntimeEnabledFeaturesBase::Backup", %"class.blink::RuntimeEnabledFeaturesBase::Backup"* %0, i64 0, i32 115
  %233 = load i8, i8* %232, align 1, !range !2
  store i8 %233, i8* @_ZN5blink26RuntimeEnabledFeaturesBase37is_css_pseudo_playing_paused_enabled_E, align 1
  %234 = getelementptr inbounds %"class.blink::RuntimeEnabledFeaturesBase::Backup", %"class.blink::RuntimeEnabledFeaturesBase::Backup"* %0, i64 0, i32 116
  %235 = load i8, i8* %234, align 1, !range !2
  store i8 %235, i8* @_ZN5blink26RuntimeEnabledFeaturesBase26is_css_scrollbars_enabled_E, align 1
  %236 = getelementptr inbounds %"class.blink::RuntimeEnabledFeaturesBase::Backup", %"class.blink::RuntimeEnabledFeaturesBase::Backup"* %0, i64 0, i32 117
  %237 = load i8, i8* %236, align 1, !range !2
  store i8 %237, i8* @_ZN5blink26RuntimeEnabledFeaturesBase31is_css_scroll_timeline_enabled_E, align 1
  %238 = getelementptr inbounds %"class.blink::RuntimeEnabledFeaturesBase::Backup", %"class.blink::RuntimeEnabledFeaturesBase::Backup"* %0, i64 0, i32 118
  %239 = load i8, i8* %238, align 1, !range !2
  store i8 %239, i8* @_ZN5blink26RuntimeEnabledFeaturesBase25is_css_snap_size_enabled_E, align 1
  %240 = getelementptr inbounds %"class.blink::RuntimeEnabledFeaturesBase::Backup", %"class.blink::RuntimeEnabledFeaturesBase::Backup"* %0, i64 0, i32 119
  %241 = load i8, i8* %240, align 1, !range !2
  store i8 %241, i8* @_ZN5blink26RuntimeEnabledFeaturesBase39is_css_spelling_grammar_errors_enabled_E, align 1
  %242 = getelementptr inbounds %"class.blink::RuntimeEnabledFeaturesBase::Backup", %"class.blink::RuntimeEnabledFeaturesBase::Backup"* %0, i64 0, i32 120
  %243 = load i8, i8* %242, align 1, !range !2
  store i8 %243, i8* @_ZN5blink26RuntimeEnabledFeaturesBase44is_css_system_color_compute_to_self_enabled_E, align 1
  %244 = getelementptr inbounds %"class.blink::RuntimeEnabledFeaturesBase::Backup", %"class.blink::RuntimeEnabledFeaturesBase::Backup"* %0, i64 0, i32 121
  %245 = load i8, i8* %244, align 1, !range !2
  store i8 %245, i8* @_ZN5blink26RuntimeEnabledFeaturesBase42is_css_target_text_pseudo_element_enabled_E, align 1
  %246 = getelementptr inbounds %"class.blink::RuntimeEnabledFeaturesBase::Backup", %"class.blink::RuntimeEnabledFeaturesBase::Backup"* %0, i64 0, i32 122
  %247 = load i8, i8* %246, align 1, !range !2
  store i8 %247, i8* @_ZN5blink26RuntimeEnabledFeaturesBase40is_css_variables_2_image_values_enabled_E, align 1
  %248 = getelementptr inbounds %"class.blink::RuntimeEnabledFeaturesBase::Backup", %"class.blink::RuntimeEnabledFeaturesBase::Backup"* %0, i64 0, i32 123
  %249 = load i8, i8* %248, align 1, !range !2
  store i8 %249, i8* @_ZN5blink26RuntimeEnabledFeaturesBase44is_css_variables_2_transform_values_enabled_E, align 1
  %250 = getelementptr inbounds %"class.blink::RuntimeEnabledFeaturesBase::Backup", %"class.blink::RuntimeEnabledFeaturesBase::Backup"* %0, i64 0, i32 124
  %251 = load i8, i8* %250, align 1, !range !2
  store i8 %251, i8* @_ZN5blink26RuntimeEnabledFeaturesBase28is_cull_rect_update_enabled_E, align 1
  %252 = getelementptr inbounds %"class.blink::RuntimeEnabledFeaturesBase::Backup", %"class.blink::RuntimeEnabledFeaturesBase::Backup"* %0, i64 0, i32 125
  %253 = load i8, i8* %252, align 1, !range !2
  store i8 %253, i8* @_ZN5blink26RuntimeEnabledFeaturesBase40is_custom_element_default_style_enabled_E, align 1
  %254 = getelementptr inbounds %"class.blink::RuntimeEnabledFeaturesBase::Backup", %"class.blink::RuntimeEnabledFeaturesBase::Backup"* %0, i64 0, i32 126
  %255 = load i8, i8* %254, align 1, !range !2
  store i8 %255, i8* @_ZN5blink26RuntimeEnabledFeaturesBase37is_custom_state_pseudo_class_enabled_E, align 1
  %256 = getelementptr inbounds %"class.blink::RuntimeEnabledFeaturesBase::Backup", %"class.blink::RuntimeEnabledFeaturesBase::Backup"* %0, i64 0, i32 127
  %257 = load i8, i8* %256, align 1, !range !2
  store i8 %257, i8* @_ZN5blink26RuntimeEnabledFeaturesBase20is_database_enabled_E, align 1
  %258 = getelementptr inbounds %"class.blink::RuntimeEnabledFeaturesBase::Backup", %"class.blink::RuntimeEnabledFeaturesBase::Backup"* %0, i64 0, i32 128
  %259 = load i8, i8* %258, align 1, !range !2
  store i8 %259, i8* @_ZN5blink26RuntimeEnabledFeaturesBase34is_declarative_shadow_dom_enabled_E, align 1
  %260 = getelementptr inbounds %"class.blink::RuntimeEnabledFeaturesBase::Backup", %"class.blink::RuntimeEnabledFeaturesBase::Backup"* %0, i64 0, i32 129
  %261 = load i8, i8* %260, align 1, !range !2
  store i8 %261, i8* @_ZN5blink26RuntimeEnabledFeaturesBase41is_decode_jpeg_420_images_to_yuv_enabled_E, align 1
  %262 = getelementptr inbounds %"class.blink::RuntimeEnabledFeaturesBase::Backup", %"class.blink::RuntimeEnabledFeaturesBase::Backup"* %0, i64 0, i32 130
  %263 = load i8, i8* %262, align 1, !range !2
  store i8 %263, i8* @_ZN5blink26RuntimeEnabledFeaturesBase44is_decode_lossy_web_p_images_to_yuv_enabled_E, align 1
  %264 = getelementptr inbounds %"class.blink::RuntimeEnabledFeaturesBase::Backup", %"class.blink::RuntimeEnabledFeaturesBase::Backup"* %0, i64 0, i32 131
  %265 = load i8, i8* %264, align 1, !range !2
  store i8 %265, i8* @_ZN5blink26RuntimeEnabledFeaturesBase63is_delay_async_script_execution_until_finished_parsing_enabled_E, align 1
  %266 = getelementptr inbounds %"class.blink::RuntimeEnabledFeaturesBase::Backup", %"class.blink::RuntimeEnabledFeaturesBase::Backup"* %0, i64 0, i32 132
  %267 = load i8, i8* %266, align 1, !range !2
  store i8 %267, i8* @_ZN5blink26RuntimeEnabledFeaturesBase78is_delay_async_script_execution_until_first_paint_or_finished_parsing_enabled_E, align 1
  %268 = getelementptr inbounds %"class.blink::RuntimeEnabledFeaturesBase::Backup", %"class.blink::RuntimeEnabledFeaturesBase::Backup"* %0, i64 0, i32 133
  %269 = load i8, i8* %268, align 1, !range !2
  store i8 %269, i8* @_ZN5blink26RuntimeEnabledFeaturesBase32is_delegated_ink_trails_enabled_E, align 1
  %270 = getelementptr inbounds %"class.blink::RuntimeEnabledFeaturesBase::Backup", %"class.blink::RuntimeEnabledFeaturesBase::Backup"* %0, i64 0, i32 134
  %271 = load i8, i8* %270, align 1, !range !2
  store i8 %271, i8* @_ZN5blink26RuntimeEnabledFeaturesBase54is_desktop_capture_disable_local_echo_control_enabled_E, align 1
  %272 = getelementptr inbounds %"class.blink::RuntimeEnabledFeaturesBase::Backup", %"class.blink::RuntimeEnabledFeaturesBase::Backup"* %0, i64 0, i32 135
  %273 = load i8, i8* %272, align 1, !range !2
  store i8 %273, i8* @_ZN5blink26RuntimeEnabledFeaturesBase29is_device_attributes_enabled_E, align 1
  %274 = getelementptr inbounds %"class.blink::RuntimeEnabledFeaturesBase::Backup", %"class.blink::RuntimeEnabledFeaturesBase::Backup"* %0, i64 0, i32 136
  %275 = load i8, i8* %274, align 1, !range !2
  store i8 %275, i8* @_ZN5blink26RuntimeEnabledFeaturesBase26is_device_posture_enabled_E, align 1
  %276 = getelementptr inbounds %"class.blink::RuntimeEnabledFeaturesBase::Backup", %"class.blink::RuntimeEnabledFeaturesBase::Backup"* %0, i64 0, i32 137
  %277 = load i8, i8* %276, align 1, !range !2
  store i8 %277, i8* @_ZN5blink26RuntimeEnabledFeaturesBase42is_dialog_focus_new_spec_behavior_enabled_E, align 1
  %278 = getelementptr inbounds %"class.blink::RuntimeEnabledFeaturesBase::Backup", %"class.blink::RuntimeEnabledFeaturesBase::Backup"* %0, i64 0, i32 138
  %279 = load i8, i8* %278, align 1, !range !2
  store i8 %279, i8* @_ZN5blink26RuntimeEnabledFeaturesBase25is_digital_goods_enabled_E, align 1
  %280 = getelementptr inbounds %"class.blink::RuntimeEnabledFeaturesBase::Backup", %"class.blink::RuntimeEnabledFeaturesBase::Backup"* %0, i64 0, i32 139
  %281 = load i8, i8* %280, align 1, !range !2
  store i8 %281, i8* @_ZN5blink26RuntimeEnabledFeaturesBase26is_direct_sockets_enabled_E, align 1
  %282 = getelementptr inbounds %"class.blink::RuntimeEnabledFeaturesBase::Backup", %"class.blink::RuntimeEnabledFeaturesBase::Backup"* %0, i64 0, i32 140
  %283 = load i8, i8* %282, align 1, !range !2
  store i8 %283, i8* @_ZN5blink26RuntimeEnabledFeaturesBase64is_disable_different_origin_subframe_dialog_suppression_enabled_E, align 1
  %284 = getelementptr inbounds %"class.blink::RuntimeEnabledFeaturesBase::Backup", %"class.blink::RuntimeEnabledFeaturesBase::Backup"* %0, i64 0, i32 141
  %285 = load i8, i8* %284, align 1, !range !2
  store i8 %285, i8* @_ZN5blink26RuntimeEnabledFeaturesBase46is_disable_hardware_noise_suppression_enabled_E, align 1
  %286 = getelementptr inbounds %"class.blink::RuntimeEnabledFeaturesBase::Backup", %"class.blink::RuntimeEnabledFeaturesBase::Backup"* %0, i64 0, i32 142
  %287 = load i8, i8* %286, align 1, !range !2
  store i8 %287, i8* @_ZN5blink26RuntimeEnabledFeaturesBase35is_disable_layer_squashing_enabled_E, align 1
  %288 = getelementptr inbounds %"class.blink::RuntimeEnabledFeaturesBase::Backup", %"class.blink::RuntimeEnabledFeaturesBase::Backup"* %0, i64 0, i32 143
  %289 = load i8, i8* %288, align 1, !range !2
  store i8 %289, i8* @_ZN5blink26RuntimeEnabledFeaturesBase36is_disallow_document_access_enabled_E, align 1
  %290 = getelementptr inbounds %"class.blink::RuntimeEnabledFeaturesBase::Backup", %"class.blink::RuntimeEnabledFeaturesBase::Backup"* %0, i64 0, i32 144
  %291 = load i8, i8* %290, align 1, !range !2
  store i8 %291, i8* @_ZN5blink26RuntimeEnabledFeaturesBase45is_display_capture_permission_policy_enabled_E, align 1
  %292 = getelementptr inbounds %"class.blink::RuntimeEnabledFeaturesBase::Backup", %"class.blink::RuntimeEnabledFeaturesBase::Backup"* %0, i64 0, i32 145
  %293 = load i8, i8* %292, align 1, !range !2
  store i8 %293, i8* @_ZN5blink26RuntimeEnabledFeaturesBase30is_display_cutout_api_enabled_E, align 1
  %294 = getelementptr inbounds %"class.blink::RuntimeEnabledFeaturesBase::Backup", %"class.blink::RuntimeEnabledFeaturesBase::Backup"* %0, i64 0, i32 146
  %295 = load i8, i8* %294, align 1, !range !2
  store i8 %295, i8* @_ZN5blink26RuntimeEnabledFeaturesBase27is_document_cookie_enabled_E, align 1
  %296 = getelementptr inbounds %"class.blink::RuntimeEnabledFeaturesBase::Backup", %"class.blink::RuntimeEnabledFeaturesBase::Backup"* %0, i64 0, i32 147
  %297 = load i8, i8* %296, align 1, !range !2
  store i8 %297, i8* @_ZN5blink26RuntimeEnabledFeaturesBase27is_document_domain_enabled_E, align 1
  %298 = getelementptr inbounds %"class.blink::RuntimeEnabledFeaturesBase::Backup", %"class.blink::RuntimeEnabledFeaturesBase::Backup"* %0, i64 0, i32 148
  %299 = load i8, i8* %298, align 1, !range !2
  store i8 %299, i8* @_ZN5blink26RuntimeEnabledFeaturesBase27is_document_policy_enabled_E, align 1
  %300 = getelementptr inbounds %"class.blink::RuntimeEnabledFeaturesBase::Backup", %"class.blink::RuntimeEnabledFeaturesBase::Backup"* %0, i64 0, i32 149
  %301 = load i8, i8* %300, align 1, !range !2
  store i8 %301, i8* @_ZN5blink26RuntimeEnabledFeaturesBase43is_document_policy_document_domain_enabled_E, align 1
  %302 = getelementptr inbounds %"class.blink::RuntimeEnabledFeaturesBase::Backup", %"class.blink::RuntimeEnabledFeaturesBase::Backup"* %0, i64 0, i32 150
  %303 = load i8, i8* %302, align 1, !range !2
  store i8 %303, i8* @_ZN5blink26RuntimeEnabledFeaturesBase39is_document_policy_negotiation_enabled_E, align 1
  %304 = getelementptr inbounds %"class.blink::RuntimeEnabledFeaturesBase::Backup", %"class.blink::RuntimeEnabledFeaturesBase::Backup"* %0, i64 0, i32 151
  %305 = load i8, i8* %304, align 1, !range !2
  store i8 %305, i8* @_ZN5blink26RuntimeEnabledFeaturesBase36is_document_policy_sync_xhr_enabled_E, align 1
  %306 = getelementptr inbounds %"class.blink::RuntimeEnabledFeaturesBase::Backup", %"class.blink::RuntimeEnabledFeaturesBase::Backup"* %0, i64 0, i32 152
  %307 = load i8, i8* %306, align 1, !range !2
  store i8 %307, i8* @_ZN5blink26RuntimeEnabledFeaturesBase31is_document_transition_enabled_E, align 1
  %308 = getelementptr inbounds %"class.blink::RuntimeEnabledFeaturesBase::Backup", %"class.blink::RuntimeEnabledFeaturesBase::Backup"* %0, i64 0, i32 153
  %309 = load i8, i8* %308, align 1, !range !2
  store i8 %309, i8* @_ZN5blink26RuntimeEnabledFeaturesBase26is_document_write_enabled_E, align 1
  %310 = getelementptr inbounds %"class.blink::RuntimeEnabledFeaturesBase::Backup", %"class.blink::RuntimeEnabledFeaturesBase::Backup"* %0, i64 0, i32 154
  %311 = load i8, i8* %310, align 1, !range !2
  store i8 %311, i8* @_ZN5blink26RuntimeEnabledFeaturesBase24is_edit_context_enabled_E, align 1
  %312 = getelementptr inbounds %"class.blink::RuntimeEnabledFeaturesBase::Backup", %"class.blink::RuntimeEnabledFeaturesBase::Backup"* %0, i64 0, i32 155
  %313 = load i8, i8* %312, align 1, !range !2
  store i8 %313, i8* @_ZN5blink26RuntimeEnabledFeaturesBase22is_editing_ng_enabled_E, align 1
  %314 = getelementptr inbounds %"class.blink::RuntimeEnabledFeaturesBase::Backup", %"class.blink::RuntimeEnabledFeaturesBase::Backup"* %0, i64 0, i32 156
  %315 = load i8, i8* %314, align 1, !range !2
  store i8 %315, i8* @_ZN5blink26RuntimeEnabledFeaturesBase51is_encrypted_media_encryption_scheme_query_enabled_E, align 1
  %316 = getelementptr inbounds %"class.blink::RuntimeEnabledFeaturesBase::Backup", %"class.blink::RuntimeEnabledFeaturesBase::Backup"* %0, i64 0, i32 157
  %317 = load i8, i8* %316, align 1, !range !2
  store i8 %317, i8* @_ZN5blink26RuntimeEnabledFeaturesBase45is_encrypted_media_hdcp_policy_check_enabled_E, align 1
  %318 = getelementptr inbounds %"class.blink::RuntimeEnabledFeaturesBase::Backup", %"class.blink::RuntimeEnabledFeaturesBase::Backup"* %0, i64 0, i32 158
  %319 = load i8, i8* %318, align 1, !range !2
  store i8 %319, i8* @_ZN5blink26RuntimeEnabledFeaturesBase36is_enter_key_hint_attribute_enabled_E, align 1
  %320 = getelementptr inbounds %"class.blink::RuntimeEnabledFeaturesBase::Backup", %"class.blink::RuntimeEnabledFeaturesBase::Backup"* %0, i64 0, i32 159
  %321 = load i8, i8* %320, align 1, !range !2
  store i8 %321, i8* @_ZN5blink26RuntimeEnabledFeaturesBase24is_event_timing_enabled_E, align 1
  %322 = getelementptr inbounds %"class.blink::RuntimeEnabledFeaturesBase::Backup", %"class.blink::RuntimeEnabledFeaturesBase::Backup"* %0, i64 0, i32 160
  %323 = load i8, i8* %322, align 1, !range !2
  store i8 %323, i8* @_ZN5blink26RuntimeEnabledFeaturesBase39is_exec_command_in_java_script_enabled_E, align 1
  %324 = getelementptr inbounds %"class.blink::RuntimeEnabledFeaturesBase::Backup", %"class.blink::RuntimeEnabledFeaturesBase::Backup"* %0, i64 0, i32 161
  %325 = load i8, i8* %324, align 1, !range !2
  store i8 %325, i8* @_ZN5blink26RuntimeEnabledFeaturesBase49is_expensive_background_timer_throttling_enabled_E, align 1
  %326 = getelementptr inbounds %"class.blink::RuntimeEnabledFeaturesBase::Backup", %"class.blink::RuntimeEnabledFeaturesBase::Backup"* %0, i64 0, i32 162
  %327 = load i8, i8* %326, align 1, !range !2
  store i8 %327, i8* @_ZN5blink26RuntimeEnabledFeaturesBase57is_experimental_content_security_policy_features_enabled_E, align 1
  %328 = getelementptr inbounds %"class.blink::RuntimeEnabledFeaturesBase::Backup", %"class.blink::RuntimeEnabledFeaturesBase::Backup"* %0, i64 0, i32 163
  %329 = load i8, i8* %328, align 1, !range !2
  store i8 %329, i8* @_ZN5blink26RuntimeEnabledFeaturesBase41is_experimental_is_frame_pending_enabled_E, align 1
  %330 = getelementptr inbounds %"class.blink::RuntimeEnabledFeaturesBase::Backup", %"class.blink::RuntimeEnabledFeaturesBase::Backup"* %0, i64 0, i32 164
  %331 = load i8, i8* %330, align 1, !range !2
  store i8 %331, i8* @_ZN5blink26RuntimeEnabledFeaturesBase41is_experimental_is_input_pending_enabled_E, align 1
  %332 = getelementptr inbounds %"class.blink::RuntimeEnabledFeaturesBase::Backup", %"class.blink::RuntimeEnabledFeaturesBase::Backup"* %0, i64 0, i32 165
  %333 = load i8, i8* %332, align 1, !range !2
  store i8 %333, i8* @_ZN5blink26RuntimeEnabledFeaturesBase36is_experimental_js_profiler_enabled_E, align 1
  %334 = getelementptr inbounds %"class.blink::RuntimeEnabledFeaturesBase::Backup", %"class.blink::RuntimeEnabledFeaturesBase::Backup"* %0, i64 0, i32 166
  %335 = load i8, i8* %334, align 1, !range !2
  store i8 %335, i8* @_ZN5blink26RuntimeEnabledFeaturesBase33is_experimental_policies_enabled_E, align 1
  %336 = getelementptr inbounds %"class.blink::RuntimeEnabledFeaturesBase::Backup", %"class.blink::RuntimeEnabledFeaturesBase::Backup"* %0, i64 0, i32 167
  %337 = load i8, i8* %336, align 1, !range !2
  store i8 %337, i8* @_ZN5blink26RuntimeEnabledFeaturesBase33is_extended_text_metrics_enabled_E, align 1
  %338 = getelementptr inbounds %"class.blink::RuntimeEnabledFeaturesBase::Backup", %"class.blink::RuntimeEnabledFeaturesBase::Backup"* %0, i64 0, i32 168
  %339 = load i8, i8* %338, align 1, !range !2
  store i8 %339, i8* @_ZN5blink26RuntimeEnabledFeaturesBase46is_extra_webgl_video_texture_metadata_enabled_E, align 1
  %340 = getelementptr inbounds %"class.blink::RuntimeEnabledFeaturesBase::Backup", %"class.blink::RuntimeEnabledFeaturesBase::Backup"* %0, i64 0, i32 169
  %341 = load i8, i8* %340, align 1, !range !2
  store i8 %341, i8* @_ZN5blink26RuntimeEnabledFeaturesBase27is_eye_dropper_api_enabled_E, align 1
  %342 = getelementptr inbounds %"class.blink::RuntimeEnabledFeaturesBase::Backup", %"class.blink::RuntimeEnabledFeaturesBase::Backup"* %0, i64 0, i32 170
  %343 = load i8, i8* %342, align 1, !range !2
  store i8 %343, i8* @_ZN5blink26RuntimeEnabledFeaturesBase25is_face_detector_enabled_E, align 1
  %344 = getelementptr inbounds %"class.blink::RuntimeEnabledFeaturesBase::Backup", %"class.blink::RuntimeEnabledFeaturesBase::Backup"* %0, i64 0, i32 171
  %345 = load i8, i8* %344, align 1, !range !2
  store i8 %345, i8* @_ZN5blink26RuntimeEnabledFeaturesBase49is_fake_no_alloc_direct_call_for_testing_enabled_E, align 1
  %346 = getelementptr inbounds %"class.blink::RuntimeEnabledFeaturesBase::Backup", %"class.blink::RuntimeEnabledFeaturesBase::Backup"* %0, i64 0, i32 172
  %347 = load i8, i8* %346, align 1, !range !2
  store i8 %347, i8* @_ZN5blink26RuntimeEnabledFeaturesBase43is_feature_policy_for_client_hints_enabled_E, align 1
  %348 = getelementptr inbounds %"class.blink::RuntimeEnabledFeaturesBase::Backup", %"class.blink::RuntimeEnabledFeaturesBase::Backup"* %0, i64 0, i32 173
  %349 = load i8, i8* %348, align 1, !range !2
  store i8 %349, i8* @_ZN5blink26RuntimeEnabledFeaturesBase36is_feature_policy_reporting_enabled_E, align 1
  %350 = getelementptr inbounds %"class.blink::RuntimeEnabledFeaturesBase::Backup", %"class.blink::RuntimeEnabledFeaturesBase::Backup"* %0, i64 0, i32 174
  %351 = load i8, i8* %350, align 1, !range !2
  store i8 %351, i8* @_ZN5blink26RuntimeEnabledFeaturesBase25is_fenced_frames_enabled_E, align 1
  %352 = getelementptr inbounds %"class.blink::RuntimeEnabledFeaturesBase::Backup", %"class.blink::RuntimeEnabledFeaturesBase::Backup"* %0, i64 0, i32 175
  %353 = load i8, i8* %352, align 1, !range !2
  store i8 %353, i8* @_ZN5blink26RuntimeEnabledFeaturesBase34is_fetch_upload_streaming_enabled_E, align 1
  %354 = getelementptr inbounds %"class.blink::RuntimeEnabledFeaturesBase::Backup", %"class.blink::RuntimeEnabledFeaturesBase::Backup"* %0, i64 0, i32 176
  %355 = load i8, i8* %354, align 1, !range !2
  store i8 %355, i8* @_ZN5blink26RuntimeEnabledFeaturesBase25is_file_handling_enabled_E, align 1
  %356 = getelementptr inbounds %"class.blink::RuntimeEnabledFeaturesBase::Backup", %"class.blink::RuntimeEnabledFeaturesBase::Backup"* %0, i64 0, i32 177
  %357 = load i8, i8* %356, align 1, !range !2
  store i8 %357, i8* @_ZN5blink26RuntimeEnabledFeaturesBase23is_file_system_enabled_E, align 1
  %358 = getelementptr inbounds %"class.blink::RuntimeEnabledFeaturesBase::Backup", %"class.blink::RuntimeEnabledFeaturesBase::Backup"* %0, i64 0, i32 178
  %359 = load i8, i8* %358, align 1, !range !2
  store i8 %359, i8* @_ZN5blink26RuntimeEnabledFeaturesBase30is_file_system_access_enabled_E, align 1
  %360 = getelementptr inbounds %"class.blink::RuntimeEnabledFeaturesBase::Backup", %"class.blink::RuntimeEnabledFeaturesBase::Backup"* %0, i64 0, i32 179
  %361 = load i8, i8* %360, align 1, !range !2
  store i8 %361, i8* @_ZN5blink26RuntimeEnabledFeaturesBase47is_file_system_access_api_experimental_enabled_E, align 1
  %362 = getelementptr inbounds %"class.blink::RuntimeEnabledFeaturesBase::Backup", %"class.blink::RuntimeEnabledFeaturesBase::Backup"* %0, i64 0, i32 180
  %363 = load i8, i8* %362, align 1, !range !2
  store i8 %363, i8* @_ZN5blink26RuntimeEnabledFeaturesBase37is_fledge_interest_group_api_enabled_E, align 1
  %364 = getelementptr inbounds %"class.blink::RuntimeEnabledFeaturesBase::Backup", %"class.blink::RuntimeEnabledFeaturesBase::Backup"* %0, i64 0, i32 181
  %365 = load i8, i8* %364, align 1, !range !2
  store i8 %365, i8* @_ZN5blink26RuntimeEnabledFeaturesBase40is_focusless_spatial_navigation_enabled_E, align 1
  %366 = getelementptr inbounds %"class.blink::RuntimeEnabledFeaturesBase::Backup", %"class.blink::RuntimeEnabledFeaturesBase::Backup"* %0, i64 0, i32 182
  %367 = load i8, i8* %366, align 1, !range !2
  store i8 %367, i8* @_ZN5blink26RuntimeEnabledFeaturesBase23is_font_access_enabled_E, align 1
  %368 = getelementptr inbounds %"class.blink::RuntimeEnabledFeaturesBase::Backup", %"class.blink::RuntimeEnabledFeaturesBase::Backup"* %0, i64 0, i32 183
  %369 = load i8, i8* %368, align 1, !range !2
  store i8 %369, i8* @_ZN5blink26RuntimeEnabledFeaturesBase34is_font_access_persistent_enabled_E, align 1
  %370 = getelementptr inbounds %"class.blink::RuntimeEnabledFeaturesBase::Backup", %"class.blink::RuntimeEnabledFeaturesBase::Backup"* %0, i64 0, i32 184
  %371 = load i8, i8* %370, align 1, !range !2
  store i8 %371, i8* @_ZN5blink26RuntimeEnabledFeaturesBase35is_font_src_local_matching_enabled_E, align 1
  %372 = getelementptr inbounds %"class.blink::RuntimeEnabledFeaturesBase::Backup", %"class.blink::RuntimeEnabledFeaturesBase::Backup"* %0, i64 0, i32 185
  %373 = load i8, i8* %372, align 1, !range !2
  store i8 %373, i8* @_ZN5blink26RuntimeEnabledFeaturesBase25is_forced_colors_enabled_E, align 1
  %374 = getelementptr inbounds %"class.blink::RuntimeEnabledFeaturesBase::Backup", %"class.blink::RuntimeEnabledFeaturesBase::Backup"* %0, i64 0, i32 186
  %375 = load i8, i8* %374, align 1, !range !2
  store i8 %375, i8* @_ZN5blink26RuntimeEnabledFeaturesBase38is_force_eager_measure_memory_enabled_E, align 1
  %376 = getelementptr inbounds %"class.blink::RuntimeEnabledFeaturesBase::Backup", %"class.blink::RuntimeEnabledFeaturesBase::Backup"* %0, i64 0, i32 187
  %377 = load i8, i8* %376, align 1, !range !2
  store i8 %377, i8* @_ZN5blink26RuntimeEnabledFeaturesBase42is_force_overlay_fullscreen_video_enabled_E, align 1
  %378 = getelementptr inbounds %"class.blink::RuntimeEnabledFeaturesBase::Backup", %"class.blink::RuntimeEnabledFeaturesBase::Backup"* %0, i64 0, i32 188
  %379 = load i8, i8* %378, align 1, !range !2
  store i8 %379, i8* @_ZN5blink26RuntimeEnabledFeaturesBase42is_force_synchronous_html_parsing_enabled_E, align 1
  %380 = getelementptr inbounds %"class.blink::RuntimeEnabledFeaturesBase::Backup", %"class.blink::RuntimeEnabledFeaturesBase::Backup"* %0, i64 0, i32 189
  %381 = load i8, i8* %380, align 1, !range !2
  store i8 %381, i8* @_ZN5blink26RuntimeEnabledFeaturesBase37is_force_taller_select_popup_enabled_E, align 1
  %382 = getelementptr inbounds %"class.blink::RuntimeEnabledFeaturesBase::Backup", %"class.blink::RuntimeEnabledFeaturesBase::Backup"* %0, i64 0, i32 190
  %383 = load i8, i8* %382, align 1, !range !2
  store i8 %383, i8* @_ZN5blink26RuntimeEnabledFeaturesBase37is_fractional_scroll_offsets_enabled_E, align 1
  %384 = getelementptr inbounds %"class.blink::RuntimeEnabledFeaturesBase::Backup", %"class.blink::RuntimeEnabledFeaturesBase::Backup"* %0, i64 0, i32 191
  %385 = load i8, i8* %384, align 1, !range !2
  store i8 %385, i8* @_ZN5blink26RuntimeEnabledFeaturesBase39is_freeze_frames_on_visibility_enabled_E, align 1
  %386 = getelementptr inbounds %"class.blink::RuntimeEnabledFeaturesBase::Backup", %"class.blink::RuntimeEnabledFeaturesBase::Backup"* %0, i64 0, i32 192
  %387 = load i8, i8* %386, align 1, !range !2
  store i8 %387, i8* @_ZN5blink26RuntimeEnabledFeaturesBase38is_gamepad_button_axis_events_enabled_E, align 1
  %388 = getelementptr inbounds %"class.blink::RuntimeEnabledFeaturesBase::Backup", %"class.blink::RuntimeEnabledFeaturesBase::Backup"* %0, i64 0, i32 193
  %389 = load i8, i8* %388, align 1, !range !2
  store i8 %389, i8* @_ZN5blink26RuntimeEnabledFeaturesBase46is_get_current_browsing_context_media_enabled_E, align 1
  %390 = getelementptr inbounds %"class.blink::RuntimeEnabledFeaturesBase::Backup", %"class.blink::RuntimeEnabledFeaturesBase::Backup"* %0, i64 0, i32 194
  %391 = load i8, i8* %390, align 1, !range !2
  store i8 %391, i8* @_ZN5blink26RuntimeEnabledFeaturesBase29is_get_display_media_enabled_E, align 1
  %392 = getelementptr inbounds %"class.blink::RuntimeEnabledFeaturesBase::Backup", %"class.blink::RuntimeEnabledFeaturesBase::Backup"* %0, i64 0, i32 195
  %393 = load i8, i8* %392, align 1, !range !2
  store i8 %393, i8* @_ZN5blink26RuntimeEnabledFeaturesBase26is_gravity_sensor_enabled_E, align 1
  %394 = getelementptr inbounds %"class.blink::RuntimeEnabledFeaturesBase::Backup", %"class.blink::RuntimeEnabledFeaturesBase::Backup"* %0, i64 0, i32 196
  %395 = load i8, i8* %394, align 1, !range !2
  store i8 %395, i8* @_ZN5blink26RuntimeEnabledFeaturesBase24is_group_effect_enabled_E, align 1
  %396 = getelementptr inbounds %"class.blink::RuntimeEnabledFeaturesBase::Backup", %"class.blink::RuntimeEnabledFeaturesBase::Backup"* %0, i64 0, i32 197
  %397 = load i8, i8* %396, align 1, !range !2
  store i8 %397, i8* @_ZN5blink26RuntimeEnabledFeaturesBase35is_handwriting_recognition_enabled_E, align 1
  %398 = getelementptr inbounds %"class.blink::RuntimeEnabledFeaturesBase::Backup", %"class.blink::RuntimeEnabledFeaturesBase::Backup"* %0, i64 0, i32 198
  %399 = load i8, i8* %398, align 1, !range !2
  store i8 %399, i8* @_ZN5blink26RuntimeEnabledFeaturesBase25is_highlight_api_enabled_E, align 1
  %400 = getelementptr inbounds %"class.blink::RuntimeEnabledFeaturesBase::Backup", %"class.blink::RuntimeEnabledFeaturesBase::Backup"* %0, i64 0, i32 199
  %401 = load i8, i8* %400, align 1, !range !2
  store i8 %401, i8* @_ZN5blink26RuntimeEnabledFeaturesBase26is_href_translate_enabled_E, align 1
  %402 = getelementptr inbounds %"class.blink::RuntimeEnabledFeaturesBase::Backup", %"class.blink::RuntimeEnabledFeaturesBase::Backup"* %0, i64 0, i32 200
  %403 = load i8, i8* %402, align 1, !range !2
  store i8 %403, i8* @_ZN5blink26RuntimeEnabledFeaturesBase30is_html_popup_element_enabled_E, align 1
  %404 = getelementptr inbounds %"class.blink::RuntimeEnabledFeaturesBase::Backup", %"class.blink::RuntimeEnabledFeaturesBase::Backup"* %0, i64 0, i32 201
  %405 = load i8, i8* %404, align 1, !range !2
  store i8 %405, i8* @_ZN5blink26RuntimeEnabledFeaturesBase36is_html_select_menu_element_enabled_E, align 1
  %406 = getelementptr inbounds %"class.blink::RuntimeEnabledFeaturesBase::Backup", %"class.blink::RuntimeEnabledFeaturesBase::Backup"* %0, i64 0, i32 202
  %407 = load i8, i8* %406, align 1, !range !2
  store i8 %407, i8* @_ZN5blink26RuntimeEnabledFeaturesBase23is_idb_put_all_enabled_E, align 1
  %408 = getelementptr inbounds %"class.blink::RuntimeEnabledFeaturesBase::Backup", %"class.blink::RuntimeEnabledFeaturesBase::Backup"* %0, i64 0, i32 203
  %409 = load i8, i8* %408, align 1, !range !2
  store i8 %409, i8* @_ZN5blink26RuntimeEnabledFeaturesBase34is_idb_relaxed_durability_enabled_E, align 1
  %410 = getelementptr inbounds %"class.blink::RuntimeEnabledFeaturesBase::Backup", %"class.blink::RuntimeEnabledFeaturesBase::Backup"* %0, i64 0, i32 204
  %411 = load i8, i8* %410, align 1, !range !2
  store i8 %411, i8* @_ZN5blink26RuntimeEnabledFeaturesBase26is_idle_detection_enabled_E, align 1
  %412 = getelementptr inbounds %"class.blink::RuntimeEnabledFeaturesBase::Backup", %"class.blink::RuntimeEnabledFeaturesBase::Backup"* %0, i64 0, i32 205
  %413 = load i8, i8* %412, align 1, !range !2
  store i8 %413, i8* @_ZN5blink26RuntimeEnabledFeaturesBase66is_ignore_cross_origin_window_when_named_access_on_window_enabled_E, align 1
  %414 = getelementptr inbounds %"class.blink::RuntimeEnabledFeaturesBase::Backup", %"class.blink::RuntimeEnabledFeaturesBase::Backup"* %0, i64 0, i32 206
  %415 = load i8, i8* %414, align 1, !range !2
  store i8 %415, i8* @_ZN5blink26RuntimeEnabledFeaturesBase34is_implicit_root_scroller_enabled_E, align 1
  %416 = getelementptr inbounds %"class.blink::RuntimeEnabledFeaturesBase::Backup", %"class.blink::RuntimeEnabledFeaturesBase::Backup"* %0, i64 0, i32 207
  %417 = load i8, i8* %416, align 1, !range !2
  store i8 %417, i8* @_ZN5blink26RuntimeEnabledFeaturesBase27is_inert_attribute_enabled_E, align 1
  %418 = getelementptr inbounds %"class.blink::RuntimeEnabledFeaturesBase::Backup", %"class.blink::RuntimeEnabledFeaturesBase::Backup"* %0, i64 0, i32 208
  %419 = load i8, i8* %418, align 1, !range !2
  store i8 %419, i8* @_ZN5blink26RuntimeEnabledFeaturesBase36is_input_multiple_fields_ui_enabled_E, align 1
  %420 = getelementptr inbounds %"class.blink::RuntimeEnabledFeaturesBase::Backup", %"class.blink::RuntimeEnabledFeaturesBase::Backup"* %0, i64 0, i32 209
  %421 = load i8, i8* %420, align 1, !range !2
  store i8 %421, i8* @_ZN5blink26RuntimeEnabledFeaturesBase25is_installed_app_enabled_E, align 1
  %422 = getelementptr inbounds %"class.blink::RuntimeEnabledFeaturesBase::Backup", %"class.blink::RuntimeEnabledFeaturesBase::Backup"* %0, i64 0, i32 210
  %423 = load i8, i8* %422, align 1, !range !2
  store i8 %423, i8* @_ZN5blink26RuntimeEnabledFeaturesBase31is_interest_cohort_api_enabled_E, align 1
  %424 = getelementptr inbounds %"class.blink::RuntimeEnabledFeaturesBase::Backup", %"class.blink::RuntimeEnabledFeaturesBase::Backup"* %0, i64 0, i32 211
  %425 = load i8, i8* %424, align 1, !range !2
  store i8 %425, i8* @_ZN5blink26RuntimeEnabledFeaturesBase42is_interest_cohort_feature_policy_enabled_E, align 1
  %426 = getelementptr inbounds %"class.blink::RuntimeEnabledFeaturesBase::Backup", %"class.blink::RuntimeEnabledFeaturesBase::Backup"* %0, i64 0, i32 212
  %427 = load i8, i8* %426, align 1, !range !2
  store i8 %427, i8* @_ZN5blink26RuntimeEnabledFeaturesBase65is_intersection_observer_document_scrolling_element_root_enabled_E, align 1
  %428 = getelementptr inbounds %"class.blink::RuntimeEnabledFeaturesBase::Backup", %"class.blink::RuntimeEnabledFeaturesBase::Backup"* %0, i64 0, i32 213
  %429 = load i8, i8* %428, align 1, !range !2
  store i8 %429, i8* @_ZN5blink26RuntimeEnabledFeaturesBase31is_isolated_code_cache_enabled_E, align 1
  %430 = getelementptr inbounds %"class.blink::RuntimeEnabledFeaturesBase::Backup", %"class.blink::RuntimeEnabledFeaturesBase::Backup"* %0, i64 0, i32 214
  %431 = load i8, i8* %430, align 1, !range !2
  store i8 %431, i8* @_ZN5blink26RuntimeEnabledFeaturesBase39is_keyboard_accessible_tooltip_enabled_E, align 1
  %432 = getelementptr inbounds %"class.blink::RuntimeEnabledFeaturesBase::Backup", %"class.blink::RuntimeEnabledFeaturesBase::Backup"* %0, i64 0, i32 215
  %433 = load i8, i8* %432, align 1, !range !2
  store i8 %433, i8* @_ZN5blink26RuntimeEnabledFeaturesBase40is_keyboard_focusable_scrollers_enabled_E, align 1
  %434 = getelementptr inbounds %"class.blink::RuntimeEnabledFeaturesBase::Backup", %"class.blink::RuntimeEnabledFeaturesBase::Backup"* %0, i64 0, i32 216
  %435 = load i8, i8* %434, align 1, !range !2
  store i8 %435, i8* @_ZN5blink26RuntimeEnabledFeaturesBase48is_lang_attribute_aware_form_control_ui_enabled_E, align 1
  %436 = getelementptr inbounds %"class.blink::RuntimeEnabledFeaturesBase::Backup", %"class.blink::RuntimeEnabledFeaturesBase::Backup"* %0, i64 0, i32 217
  %437 = load i8, i8* %436, align 1, !range !2
  store i8 %437, i8* @_ZN5blink26RuntimeEnabledFeaturesBase35is_lang_client_hint_header_enabled_E, align 1
  %438 = getelementptr inbounds %"class.blink::RuntimeEnabledFeaturesBase::Backup", %"class.blink::RuntimeEnabledFeaturesBase::Backup"* %0, i64 0, i32 218
  %439 = load i8, i8* %438, align 1, !range !2
  store i8 %439, i8* @_ZN5blink26RuntimeEnabledFeaturesBase21is_layout_ng_enabled_E, align 1
  %440 = getelementptr inbounds %"class.blink::RuntimeEnabledFeaturesBase::Backup", %"class.blink::RuntimeEnabledFeaturesBase::Backup"* %0, i64 0, i32 219
  %441 = load i8, i8* %440, align 1, !range !2
  store i8 %441, i8* @_ZN5blink26RuntimeEnabledFeaturesBase41is_layout_ng_block_fragmentation_enabled_E, align 1
  %442 = getelementptr inbounds %"class.blink::RuntimeEnabledFeaturesBase::Backup", %"class.blink::RuntimeEnabledFeaturesBase::Backup"* %0, i64 0, i32 220
  %443 = load i8, i8* %442, align 1, !range !2
  store i8 %443, i8* @_ZN5blink26RuntimeEnabledFeaturesBase40is_layout_ng_fragment_traversal_enabled_E, align 1
  %444 = getelementptr inbounds %"class.blink::RuntimeEnabledFeaturesBase::Backup", %"class.blink::RuntimeEnabledFeaturesBase::Backup"* %0, i64 0, i32 221
  %445 = load i8, i8* %444, align 1, !range !2
  store i8 %445, i8* @_ZN5blink26RuntimeEnabledFeaturesBase45is_layout_ng_full_position_for_point_enabled_E, align 1
  %446 = getelementptr inbounds %"class.blink::RuntimeEnabledFeaturesBase::Backup", %"class.blink::RuntimeEnabledFeaturesBase::Backup"* %0, i64 0, i32 222
  %447 = load i8, i8* %446, align 1, !range !2
  store i8 %447, i8* @_ZN5blink26RuntimeEnabledFeaturesBase26is_layout_ng_grid_enabled_E, align 1
  %448 = getelementptr inbounds %"class.blink::RuntimeEnabledFeaturesBase::Backup", %"class.blink::RuntimeEnabledFeaturesBase::Backup"* %0, i64 0, i32 223
  %449 = load i8, i8* %448, align 1, !range !2
  store i8 %449, i8* @_ZN5blink26RuntimeEnabledFeaturesBase44is_layout_ng_layout_overflow_recalc_enabled_E, align 1
  %450 = getelementptr inbounds %"class.blink::RuntimeEnabledFeaturesBase::Backup", %"class.blink::RuntimeEnabledFeaturesBase::Backup"* %0, i64 0, i32 224
  %451 = load i8, i8* %450, align 1, !range !2
  store i8 %451, i8* @_ZN5blink26RuntimeEnabledFeaturesBase30is_layout_ng_printing_enabled_E, align 1
  %452 = getelementptr inbounds %"class.blink::RuntimeEnabledFeaturesBase::Backup", %"class.blink::RuntimeEnabledFeaturesBase::Backup"* %0, i64 0, i32 225
  %453 = load i8, i8* %452, align 1, !range !2
  store i8 %453, i8* @_ZN5blink26RuntimeEnabledFeaturesBase30is_layout_ng_replaced_enabled_E, align 1
  %454 = getelementptr inbounds %"class.blink::RuntimeEnabledFeaturesBase::Backup", %"class.blink::RuntimeEnabledFeaturesBase::Backup"* %0, i64 0, i32 226
  %455 = load i8, i8* %454, align 1, !range !2
  store i8 %455, i8* @_ZN5blink26RuntimeEnabledFeaturesBase27is_layout_ng_table_enabled_E, align 1
  %456 = getelementptr inbounds %"class.blink::RuntimeEnabledFeaturesBase::Backup", %"class.blink::RuntimeEnabledFeaturesBase::Backup"* %0, i64 0, i32 227
  %457 = load i8, i8* %456, align 1, !range !2
  store i8 %457, i8* @_ZN5blink26RuntimeEnabledFeaturesBase34is_layout_ng_text_combine_enabled_E, align 1
  %458 = getelementptr inbounds %"class.blink::RuntimeEnabledFeaturesBase::Backup", %"class.blink::RuntimeEnabledFeaturesBase::Backup"* %0, i64 0, i32 228
  %459 = load i8, i8* %458, align 1, !range !2
  store i8 %459, i8* @_ZN5blink26RuntimeEnabledFeaturesBase34is_layout_ng_text_control_enabled_E, align 1
  %460 = getelementptr inbounds %"class.blink::RuntimeEnabledFeaturesBase::Backup", %"class.blink::RuntimeEnabledFeaturesBase::Backup"* %0, i64 0, i32 229
  %461 = load i8, i8* %460, align 1, !range !2
  store i8 %461, i8* @_ZN5blink26RuntimeEnabledFeaturesBase30is_lazy_frame_loading_enabled_E, align 1
  %462 = getelementptr inbounds %"class.blink::RuntimeEnabledFeaturesBase::Backup", %"class.blink::RuntimeEnabledFeaturesBase::Backup"* %0, i64 0, i32 230
  %463 = load i8, i8* %462, align 1, !range !2
  store i8 %463, i8* @_ZN5blink26RuntimeEnabledFeaturesBase48is_lazy_frame_visible_load_time_metrics_enabled_E, align 1
  %464 = getelementptr inbounds %"class.blink::RuntimeEnabledFeaturesBase::Backup", %"class.blink::RuntimeEnabledFeaturesBase::Backup"* %0, i64 0, i32 231
  %465 = load i8, i8* %464, align 1, !range !2
  store i8 %465, i8* @_ZN5blink26RuntimeEnabledFeaturesBase30is_lazy_image_loading_enabled_E, align 1
  %466 = getelementptr inbounds %"class.blink::RuntimeEnabledFeaturesBase::Backup", %"class.blink::RuntimeEnabledFeaturesBase::Backup"* %0, i64 0, i32 232
  %467 = load i8, i8* %466, align 1, !range !2
  store i8 %467, i8* @_ZN5blink26RuntimeEnabledFeaturesBase48is_lazy_image_visible_load_time_metrics_enabled_E, align 1
  %468 = getelementptr inbounds %"class.blink::RuntimeEnabledFeaturesBase::Backup", %"class.blink::RuntimeEnabledFeaturesBase::Backup"* %0, i64 0, i32 233
  %469 = load i8, i8* %468, align 1, !range !2
  store i8 %469, i8* @_ZN5blink26RuntimeEnabledFeaturesBase42is_lazy_initialize_media_controls_enabled_E, align 1
  %470 = getelementptr inbounds %"class.blink::RuntimeEnabledFeaturesBase::Backup", %"class.blink::RuntimeEnabledFeaturesBase::Backup"* %0, i64 0, i32 234
  %471 = load i8, i8* %470, align 1, !range !2
  store i8 %471, i8* @_ZN5blink26RuntimeEnabledFeaturesBase48is_legacy_windows_d_write_font_fallback_enabled_E, align 1
  %472 = getelementptr inbounds %"class.blink::RuntimeEnabledFeaturesBase::Backup", %"class.blink::RuntimeEnabledFeaturesBase::Backup"* %0, i64 0, i32 235
  %473 = load i8, i8* %472, align 1, !range !2
  store i8 %473, i8* @_ZN5blink26RuntimeEnabledFeaturesBase33is_managed_configuration_enabled_E, align 1
  %474 = getelementptr inbounds %"class.blink::RuntimeEnabledFeaturesBase::Backup", %"class.blink::RuntimeEnabledFeaturesBase::Backup"* %0, i64 0, i32 236
  %475 = load i8, i8* %474, align 1, !range !2
  store i8 %475, i8* @_ZN5blink26RuntimeEnabledFeaturesBase29is_managed_interface_enabled_E, align 1
  %476 = getelementptr inbounds %"class.blink::RuntimeEnabledFeaturesBase::Backup", %"class.blink::RuntimeEnabledFeaturesBase::Backup"* %0, i64 0, i32 237
  %477 = load i8, i8* %476, align 1, !range !2
  store i8 %477, i8* @_ZN5blink26RuntimeEnabledFeaturesBase23is_mathml_core_enabled_E, align 1
  %478 = getelementptr inbounds %"class.blink::RuntimeEnabledFeaturesBase::Backup", %"class.blink::RuntimeEnabledFeaturesBase::Backup"* %0, i64 0, i32 238
  %479 = load i8, i8* %478, align 1, !range !2
  store i8 %479, i8* @_ZN5blink26RuntimeEnabledFeaturesBase26is_measure_memory_enabled_E, align 1
  %480 = getelementptr inbounds %"class.blink::RuntimeEnabledFeaturesBase::Backup", %"class.blink::RuntimeEnabledFeaturesBase::Backup"* %0, i64 0, i32 239
  %481 = load i8, i8* %480, align 1, !range !2
  store i8 %481, i8* @_ZN5blink26RuntimeEnabledFeaturesBase44is_media_capabilities_dynamic_range_enabled_E, align 1
  %482 = getelementptr inbounds %"class.blink::RuntimeEnabledFeaturesBase::Backup", %"class.blink::RuntimeEnabledFeaturesBase::Backup"* %0, i64 0, i32 240
  %483 = load i8, i8* %482, align 1, !range !2
  store i8 %483, i8* @_ZN5blink26RuntimeEnabledFeaturesBase44is_media_capabilities_encoding_info_enabled_E, align 1
  %484 = getelementptr inbounds %"class.blink::RuntimeEnabledFeaturesBase::Backup", %"class.blink::RuntimeEnabledFeaturesBase::Backup"* %0, i64 0, i32 241
  %485 = load i8, i8* %484, align 1, !range !2
  store i8 %485, i8* @_ZN5blink26RuntimeEnabledFeaturesBase46is_media_capabilities_encrypted_media_enabled_E, align 1
  %486 = getelementptr inbounds %"class.blink::RuntimeEnabledFeaturesBase::Backup", %"class.blink::RuntimeEnabledFeaturesBase::Backup"* %0, i64 0, i32 242
  %487 = load i8, i8* %486, align 1, !range !2
  store i8 %487, i8* @_ZN5blink26RuntimeEnabledFeaturesBase44is_media_capabilities_spatial_audio_enabled_E, align 1
  %488 = getelementptr inbounds %"class.blink::RuntimeEnabledFeaturesBase::Backup", %"class.blink::RuntimeEnabledFeaturesBase::Backup"* %0, i64 0, i32 243
  %489 = load i8, i8* %488, align 1, !range !2
  store i8 %489, i8* @_ZN5blink26RuntimeEnabledFeaturesBase38is_media_capabilities_web_rtc_enabled_E, align 1
  %490 = getelementptr inbounds %"class.blink::RuntimeEnabledFeaturesBase::Backup", %"class.blink::RuntimeEnabledFeaturesBase::Backup"* %0, i64 0, i32 244
  %491 = load i8, i8* %490, align 1, !range !2
  store i8 %491, i8* @_ZN5blink26RuntimeEnabledFeaturesBase25is_media_capture_enabled_E, align 1
  %492 = getelementptr inbounds %"class.blink::RuntimeEnabledFeaturesBase::Backup", %"class.blink::RuntimeEnabledFeaturesBase::Backup"* %0, i64 0, i32 245
  %493 = load i8, i8* %492, align 1, !range !2
  store i8 %493, i8* @_ZN5blink26RuntimeEnabledFeaturesBase42is_media_capture_depth_video_kind_enabled_E, align 1
  %494 = getelementptr inbounds %"class.blink::RuntimeEnabledFeaturesBase::Backup", %"class.blink::RuntimeEnabledFeaturesBase::Backup"* %0, i64 0, i32 246
  %495 = load i8, i8* %494, align 1, !range !2
  store i8 %495, i8* @_ZN5blink26RuntimeEnabledFeaturesBase37is_media_cast_overlay_button_enabled_E, align 1
  %496 = getelementptr inbounds %"class.blink::RuntimeEnabledFeaturesBase::Backup", %"class.blink::RuntimeEnabledFeaturesBase::Backup"* %0, i64 0, i32 247
  %497 = load i8, i8* %496, align 1, !range !2
  store i8 %497, i8* @_ZN5blink26RuntimeEnabledFeaturesBase41is_media_controls_expand_gesture_enabled_E, align 1
  %498 = getelementptr inbounds %"class.blink::RuntimeEnabledFeaturesBase::Backup", %"class.blink::RuntimeEnabledFeaturesBase::Backup"* %0, i64 0, i32 248
  %499 = load i8, i8* %498, align 1, !range !2
  store i8 %499, i8* @_ZN5blink26RuntimeEnabledFeaturesBase46is_media_controls_overlay_play_button_enabled_E, align 1
  %500 = getelementptr inbounds %"class.blink::RuntimeEnabledFeaturesBase::Backup", %"class.blink::RuntimeEnabledFeaturesBase::Backup"* %0, i64 0, i32 249
  %501 = load i8, i8* %500, align 1, !range !2
  store i8 %501, i8* @_ZN5blink26RuntimeEnabledFeaturesBase49is_media_controls_use_cut_out_by_default_enabled_E, align 1
  %502 = getelementptr inbounds %"class.blink::RuntimeEnabledFeaturesBase::Backup", %"class.blink::RuntimeEnabledFeaturesBase::Backup"* %0, i64 0, i32 250
  %503 = load i8, i8* %502, align 1, !range !2
  store i8 %503, i8* @_ZN5blink26RuntimeEnabledFeaturesBase42is_media_document_download_button_enabled_E, align 1
  %504 = getelementptr inbounds %"class.blink::RuntimeEnabledFeaturesBase::Backup", %"class.blink::RuntimeEnabledFeaturesBase::Backup"* %0, i64 0, i32 251
  %505 = load i8, i8* %504, align 1, !range !2
  store i8 %505, i8* @_ZN5blink26RuntimeEnabledFeaturesBase49is_media_element_volume_greater_than_one_enabled_E, align 1
  %506 = getelementptr inbounds %"class.blink::RuntimeEnabledFeaturesBase::Backup", %"class.blink::RuntimeEnabledFeaturesBase::Backup"* %0, i64 0, i32 252
  %507 = load i8, i8* %506, align 1, !range !2
  store i8 %507, i8* @_ZN5blink26RuntimeEnabledFeaturesBase53is_media_engagement_bypass_autoplay_policies_enabled_E, align 1
  %508 = getelementptr inbounds %"class.blink::RuntimeEnabledFeaturesBase::Backup", %"class.blink::RuntimeEnabledFeaturesBase::Backup"* %0, i64 0, i32 253
  %509 = load i8, i8* %508, align 1, !range !2
  store i8 %509, i8* @_ZN5blink26RuntimeEnabledFeaturesBase30is_media_latency_hint_enabled_E, align 1
  %510 = getelementptr inbounds %"class.blink::RuntimeEnabledFeaturesBase::Backup", %"class.blink::RuntimeEnabledFeaturesBase::Backup"* %0, i64 0, i32 254
  %511 = load i8, i8* %510, align 1, !range !2
  store i8 %511, i8* @_ZN5blink26RuntimeEnabledFeaturesBase33is_media_preserves_pitch_enabled_E, align 1
  %512 = getelementptr inbounds %"class.blink::RuntimeEnabledFeaturesBase::Backup", %"class.blink::RuntimeEnabledFeaturesBase::Backup"* %0, i64 0, i32 255
  %513 = load i8, i8* %512, align 1, !range !2
  store i8 %513, i8* @_ZN5blink26RuntimeEnabledFeaturesBase43is_media_query_navigation_controls_enabled_E, align 1
  %514 = getelementptr inbounds %"class.blink::RuntimeEnabledFeaturesBase::Backup", %"class.blink::RuntimeEnabledFeaturesBase::Backup"* %0, i64 0, i32 256
  %515 = load i8, i8* %514, align 1, !range !2
  store i8 %515, i8* @_ZN5blink26RuntimeEnabledFeaturesBase25is_media_session_enabled_E, align 1
  %516 = getelementptr inbounds %"class.blink::RuntimeEnabledFeaturesBase::Backup", %"class.blink::RuntimeEnabledFeaturesBase::Backup"* %0, i64 0, i32 257
  %517 = load i8, i8* %516, align 1, !range !2
  store i8 %517, i8* @_ZN5blink26RuntimeEnabledFeaturesBase34is_media_session_position_enabled_E, align 1
  %518 = getelementptr inbounds %"class.blink::RuntimeEnabledFeaturesBase::Backup", %"class.blink::RuntimeEnabledFeaturesBase::Backup"* %0, i64 0, i32 258
  %519 = load i8, i8* %518, align 1, !range !2
  store i8 %519, i8* @_ZN5blink26RuntimeEnabledFeaturesBase33is_media_session_web_rtc_enabled_E, align 1
  %520 = getelementptr inbounds %"class.blink::RuntimeEnabledFeaturesBase::Backup", %"class.blink::RuntimeEnabledFeaturesBase::Backup"* %0, i64 0, i32 259
  %521 = load i8, i8* %520, align 1, !range !2
  store i8 %521, i8* @_ZN5blink26RuntimeEnabledFeaturesBase37is_media_source_experimental_enabled_E, align 1
  %522 = getelementptr inbounds %"class.blink::RuntimeEnabledFeaturesBase::Backup", %"class.blink::RuntimeEnabledFeaturesBase::Backup"* %0, i64 0, i32 260
  %523 = load i8, i8* %522, align 1, !range !2
  store i8 %523, i8* @_ZN5blink26RuntimeEnabledFeaturesBase49is_media_source_extensions_for_webcodecs_enabled_E, align 1
  %524 = getelementptr inbounds %"class.blink::RuntimeEnabledFeaturesBase::Backup", %"class.blink::RuntimeEnabledFeaturesBase::Backup"* %0, i64 0, i32 261
  %525 = load i8, i8* %524, align 1, !range !2
  store i8 %525, i8* @_ZN5blink26RuntimeEnabledFeaturesBase35is_media_source_in_workers_enabled_E, align 1
  %526 = getelementptr inbounds %"class.blink::RuntimeEnabledFeaturesBase::Backup", %"class.blink::RuntimeEnabledFeaturesBase::Backup"* %0, i64 0, i32 262
  %527 = load i8, i8* %526, align 1, !range !2
  store i8 %527, i8* @_ZN5blink26RuntimeEnabledFeaturesBase47is_media_source_new_abort_and_duration_enabled_E, align 1
  %528 = getelementptr inbounds %"class.blink::RuntimeEnabledFeaturesBase::Backup", %"class.blink::RuntimeEnabledFeaturesBase::Backup"* %0, i64 0, i32 263
  %529 = load i8, i8* %528, align 1, !range !2
  store i8 %529, i8* @_ZN5blink26RuntimeEnabledFeaturesBase31is_media_source_stable_enabled_E, align 1
  %530 = getelementptr inbounds %"class.blink::RuntimeEnabledFeaturesBase::Backup", %"class.blink::RuntimeEnabledFeaturesBase::Backup"* %0, i64 0, i32 264
  %531 = load i8, i8* %530, align 1, !range !2
  store i8 %531, i8* @_ZN5blink26RuntimeEnabledFeaturesBase43is_media_stream_insertable_streams_enabled_E, align 1
  %532 = getelementptr inbounds %"class.blink::RuntimeEnabledFeaturesBase::Backup", %"class.blink::RuntimeEnabledFeaturesBase::Backup"* %0, i64 0, i32 265
  %533 = load i8, i8* %532, align 1, !range !2
  store i8 %533, i8* @_ZN5blink26RuntimeEnabledFeaturesBase35is_middle_click_autoscroll_enabled_E, align 1
  %534 = getelementptr inbounds %"class.blink::RuntimeEnabledFeaturesBase::Backup", %"class.blink::RuntimeEnabledFeaturesBase::Backup"* %0, i64 0, i32 266
  %535 = load i8, i8* %534, align 1, !range !2
  store i8 %535, i8* @_ZN5blink26RuntimeEnabledFeaturesBase31is_mobile_layout_theme_enabled_E, align 1
  %536 = getelementptr inbounds %"class.blink::RuntimeEnabledFeaturesBase::Backup", %"class.blink::RuntimeEnabledFeaturesBase::Backup"* %0, i64 0, i32 267
  %537 = load i8, i8* %536, align 1, !range !2
  store i8 %537, i8* @_ZN5blink26RuntimeEnabledFeaturesBase31is_modal_close_watcher_enabled_E, align 1
  %538 = getelementptr inbounds %"class.blink::RuntimeEnabledFeaturesBase::Backup", %"class.blink::RuntimeEnabledFeaturesBase::Backup"* %0, i64 0, i32 268
  %539 = load i8, i8* %538, align 1, !range !2
  store i8 %539, i8* @_ZN5blink26RuntimeEnabledFeaturesBase33is_module_service_worker_enabled_E, align 1
  %540 = getelementptr inbounds %"class.blink::RuntimeEnabledFeaturesBase::Backup", %"class.blink::RuntimeEnabledFeaturesBase::Backup"* %0, i64 0, i32 269
  %541 = load i8, i8* %540, align 1, !range !2
  store i8 %541, i8* @_ZN5blink26RuntimeEnabledFeaturesBase19is_mojo_js_enabled_E, align 1
  %542 = getelementptr inbounds %"class.blink::RuntimeEnabledFeaturesBase::Backup", %"class.blink::RuntimeEnabledFeaturesBase::Backup"* %0, i64 0, i32 270
  %543 = load i8, i8* %542, align 1, !range !2
  store i8 %543, i8* @_ZN5blink26RuntimeEnabledFeaturesBase24is_mojo_js_test_enabled_E, align 1
  %544 = getelementptr inbounds %"class.blink::RuntimeEnabledFeaturesBase::Backup", %"class.blink::RuntimeEnabledFeaturesBase::Backup"* %0, i64 0, i32 271
  %545 = load i8, i8* %544, align 1, !range !2
  store i8 %545, i8* @_ZN5blink26RuntimeEnabledFeaturesBase46is_mouse_subframe_no_implicit_capture_enabled_E, align 1
  %546 = getelementptr inbounds %"class.blink::RuntimeEnabledFeaturesBase::Backup", %"class.blink::RuntimeEnabledFeaturesBase::Backup"* %0, i64 0, i32 272
  %547 = load i8, i8* %546, align 1, !range !2
  store i8 %547, i8* @_ZN5blink26RuntimeEnabledFeaturesBase23is_named_pages_enabled_E, align 1
  %548 = getelementptr inbounds %"class.blink::RuntimeEnabledFeaturesBase::Backup", %"class.blink::RuntimeEnabledFeaturesBase::Backup"* %0, i64 0, i32 273
  %549 = load i8, i8* %548, align 1, !range !2
  store i8 %549, i8* @_ZN5blink26RuntimeEnabledFeaturesBase35is_navigator_content_utils_enabled_E, align 1
  %550 = getelementptr inbounds %"class.blink::RuntimeEnabledFeaturesBase::Backup", %"class.blink::RuntimeEnabledFeaturesBase::Backup"* %0, i64 0, i32 274
  %551 = load i8, i8* %550, align 1, !range !2
  store i8 %551, i8* @_ZN5blink26RuntimeEnabledFeaturesBase50is_navigator_language_in_insecure_context_enabled_E, align 1
  %552 = getelementptr inbounds %"class.blink::RuntimeEnabledFeaturesBase::Backup", %"class.blink::RuntimeEnabledFeaturesBase::Backup"* %0, i64 0, i32 275
  %553 = load i8, i8* %552, align 1, !range !2
  store i8 %553, i8* @_ZN5blink26RuntimeEnabledFeaturesBase33is_net_info_downlink_max_enabled_E, align 1
  %554 = getelementptr inbounds %"class.blink::RuntimeEnabledFeaturesBase::Backup", %"class.blink::RuntimeEnabledFeaturesBase::Backup"* %0, i64 0, i32 276
  %555 = load i8, i8* %554, align 1, !range !2
  store i8 %555, i8* @_ZN5blink26RuntimeEnabledFeaturesBase27is_never_slow_mode_enabled_E, align 1
  %556 = getelementptr inbounds %"class.blink::RuntimeEnabledFeaturesBase::Backup", %"class.blink::RuntimeEnabledFeaturesBase::Backup"* %0, i64 0, i32 277
  %557 = load i8, i8* %556, align 1, !range !2
  store i8 %557, i8* @_ZN5blink26RuntimeEnabledFeaturesBase29is_new_canvas_2d_api_enabled_E, align 1
  %558 = getelementptr inbounds %"class.blink::RuntimeEnabledFeaturesBase::Backup", %"class.blink::RuntimeEnabledFeaturesBase::Backup"* %0, i64 0, i32 278
  %559 = load i8, i8* %558, align 1, !range !2
  store i8 %559, i8* @_ZN5blink26RuntimeEnabledFeaturesBase40is_new_remote_playback_pipeline_enabled_E, align 1
  %560 = getelementptr inbounds %"class.blink::RuntimeEnabledFeaturesBase::Backup", %"class.blink::RuntimeEnabledFeaturesBase::Backup"* %0, i64 0, i32 279
  %561 = load i8, i8* %560, align 1, !range !2
  store i8 %561, i8* @_ZN5blink26RuntimeEnabledFeaturesBase42is_no_idle_encoding_for_web_tests_enabled_E, align 1
  %562 = getelementptr inbounds %"class.blink::RuntimeEnabledFeaturesBase::Backup", %"class.blink::RuntimeEnabledFeaturesBase::Backup"* %0, i64 0, i32 280
  %563 = load i8, i8* %562, align 1, !range !2
  store i8 %563, i8* @_ZN5blink26RuntimeEnabledFeaturesBase36is_notification_constructor_enabled_E, align 1
  %564 = getelementptr inbounds %"class.blink::RuntimeEnabledFeaturesBase::Backup", %"class.blink::RuntimeEnabledFeaturesBase::Backup"* %0, i64 0, i32 281
  %565 = load i8, i8* %564, align 1, !range !2
  store i8 %565, i8* @_ZN5blink26RuntimeEnabledFeaturesBase38is_notification_content_image_enabled_E, align 1
  %566 = getelementptr inbounds %"class.blink::RuntimeEnabledFeaturesBase::Backup", %"class.blink::RuntimeEnabledFeaturesBase::Backup"* %0, i64 0, i32 282
  %567 = load i8, i8* %566, align 1, !range !2
  store i8 %567, i8* @_ZN5blink26RuntimeEnabledFeaturesBase25is_notifications_enabled_E, align 1
  %568 = getelementptr inbounds %"class.blink::RuntimeEnabledFeaturesBase::Backup", %"class.blink::RuntimeEnabledFeaturesBase::Backup"* %0, i64 0, i32 283
  %569 = load i8, i8* %568, align 1, !range !2
  store i8 %569, i8* @_ZN5blink26RuntimeEnabledFeaturesBase33is_notification_triggers_enabled_E, align 1
  %570 = getelementptr inbounds %"class.blink::RuntimeEnabledFeaturesBase::Backup", %"class.blink::RuntimeEnabledFeaturesBase::Backup"* %0, i64 0, i32 284
  %571 = load i8, i8* %570, align 1, !range !2
  store i8 %571, i8* @_ZN5blink26RuntimeEnabledFeaturesBase37is_off_main_thread_css_paint_enabled_E, align 1
  %572 = getelementptr inbounds %"class.blink::RuntimeEnabledFeaturesBase::Backup", %"class.blink::RuntimeEnabledFeaturesBase::Backup"* %0, i64 0, i32 285
  %573 = load i8, i8* %572, align 1, !range !2
  store i8 %573, i8* @_ZN5blink26RuntimeEnabledFeaturesBase35is_offscreen_canvas_commit_enabled_E, align 1
  %574 = getelementptr inbounds %"class.blink::RuntimeEnabledFeaturesBase::Backup", %"class.blink::RuntimeEnabledFeaturesBase::Backup"* %0, i64 0, i32 286
  %575 = load i8, i8* %574, align 1, !range !2
  store i8 %575, i8* @_ZN5blink26RuntimeEnabledFeaturesBase43is_offset_parent_new_spec_behavior_enabled_E, align 1
  %576 = getelementptr inbounds %"class.blink::RuntimeEnabledFeaturesBase::Backup", %"class.blink::RuntimeEnabledFeaturesBase::Backup"* %0, i64 0, i32 287
  %577 = load i8, i8* %576, align 1, !range !2
  store i8 %577, i8* @_ZN5blink26RuntimeEnabledFeaturesBase28is_on_device_change_enabled_E, align 1
  %578 = getelementptr inbounds %"class.blink::RuntimeEnabledFeaturesBase::Backup", %"class.blink::RuntimeEnabledFeaturesBase::Backup"* %0, i64 0, i32 288
  %579 = load i8, i8* %578, align 1, !range !2
  store i8 %579, i8* @_ZN5blink26RuntimeEnabledFeaturesBase29is_orientation_event_enabled_E, align 1
  %580 = getelementptr inbounds %"class.blink::RuntimeEnabledFeaturesBase::Backup", %"class.blink::RuntimeEnabledFeaturesBase::Backup"* %0, i64 0, i32 289
  %581 = load i8, i8* %580, align 1, !range !2
  store i8 %581, i8* @_ZN5blink26RuntimeEnabledFeaturesBase35is_origin_isolation_header_enabled_E, align 1
  %582 = getelementptr inbounds %"class.blink::RuntimeEnabledFeaturesBase::Backup", %"class.blink::RuntimeEnabledFeaturesBase::Backup"* %0, i64 0, i32 290
  %583 = load i8, i8* %582, align 1, !range !2
  store i8 %583, i8* @_ZN5blink26RuntimeEnabledFeaturesBase25is_origin_policy_enabled_E, align 1
  %584 = getelementptr inbounds %"class.blink::RuntimeEnabledFeaturesBase::Backup", %"class.blink::RuntimeEnabledFeaturesBase::Backup"* %0, i64 0, i32 291
  %585 = load i8, i8* %584, align 1, !range !2
  store i8 %585, i8* @_ZN5blink26RuntimeEnabledFeaturesBase36is_origin_trials_sample_api_enabled_E, align 1
  %586 = getelementptr inbounds %"class.blink::RuntimeEnabledFeaturesBase::Backup", %"class.blink::RuntimeEnabledFeaturesBase::Backup"* %0, i64 0, i32 292
  %587 = load i8, i8* %586, align 1, !range !2
  store i8 %587, i8* @_ZN5blink26RuntimeEnabledFeaturesBase46is_origin_trials_sample_api_dependent_enabled_E, align 1
  %588 = getelementptr inbounds %"class.blink::RuntimeEnabledFeaturesBase::Backup", %"class.blink::RuntimeEnabledFeaturesBase::Backup"* %0, i64 0, i32 293
  %589 = load i8, i8* %588, align 1, !range !2
  store i8 %589, i8* @_ZN5blink26RuntimeEnabledFeaturesBase48is_origin_trials_sample_api_deprecation_enabled_E, align 1
  %590 = getelementptr inbounds %"class.blink::RuntimeEnabledFeaturesBase::Backup", %"class.blink::RuntimeEnabledFeaturesBase::Backup"* %0, i64 0, i32 294
  %591 = load i8, i8* %590, align 1, !range !2
  store i8 %591, i8* @_ZN5blink26RuntimeEnabledFeaturesBase44is_origin_trials_sample_api_implied_enabled_E, align 1
  %592 = getelementptr inbounds %"class.blink::RuntimeEnabledFeaturesBase::Backup", %"class.blink::RuntimeEnabledFeaturesBase::Backup"* %0, i64 0, i32 295
  %593 = load i8, i8* %592, align 1, !range !2
  store i8 %593, i8* @_ZN5blink26RuntimeEnabledFeaturesBase47is_origin_trials_sample_api_invalid_os_enabled_E, align 1
  %594 = getelementptr inbounds %"class.blink::RuntimeEnabledFeaturesBase::Backup", %"class.blink::RuntimeEnabledFeaturesBase::Backup"* %0, i64 0, i32 296
  %595 = load i8, i8* %594, align 1, !range !2
  store i8 %595, i8* @_ZN5blink26RuntimeEnabledFeaturesBase47is_origin_trials_sample_api_navigation_enabled_E, align 1
  %596 = getelementptr inbounds %"class.blink::RuntimeEnabledFeaturesBase::Backup", %"class.blink::RuntimeEnabledFeaturesBase::Backup"* %0, i64 0, i32 297
  %597 = load i8, i8* %596, align 1, !range !2
  store i8 %597, i8* @_ZN5blink26RuntimeEnabledFeaturesBase48is_origin_trials_sample_api_third_party_enabled_E, align 1
  %598 = getelementptr inbounds %"class.blink::RuntimeEnabledFeaturesBase::Backup", %"class.blink::RuntimeEnabledFeaturesBase::Backup"* %0, i64 0, i32 298
  %599 = load i8, i8* %598, align 1, !range !2
  store i8 %599, i8* @_ZN5blink26RuntimeEnabledFeaturesBase25is_overflow_clip_enabled_E, align 1
  %600 = getelementptr inbounds %"class.blink::RuntimeEnabledFeaturesBase::Backup", %"class.blink::RuntimeEnabledFeaturesBase::Backup"* %0, i64 0, i32 299
  %601 = load i8, i8* %600, align 1, !range !2
  store i8 %601, i8* @_ZN5blink26RuntimeEnabledFeaturesBase36is_overscroll_customization_enabled_E, align 1
  %602 = getelementptr inbounds %"class.blink::RuntimeEnabledFeaturesBase::Backup", %"class.blink::RuntimeEnabledFeaturesBase::Backup"* %0, i64 0, i32 300
  %603 = load i8, i8* %602, align 1, !range !2
  store i8 %603, i8* @_ZN5blink26RuntimeEnabledFeaturesBase30is_page_freeze_opt_in_enabled_E, align 1
  %604 = getelementptr inbounds %"class.blink::RuntimeEnabledFeaturesBase::Backup", %"class.blink::RuntimeEnabledFeaturesBase::Backup"* %0, i64 0, i32 301
  %605 = load i8, i8* %604, align 1, !range !2
  store i8 %605, i8* @_ZN5blink26RuntimeEnabledFeaturesBase31is_page_freeze_opt_out_enabled_E, align 1
  %606 = getelementptr inbounds %"class.blink::RuntimeEnabledFeaturesBase::Backup", %"class.blink::RuntimeEnabledFeaturesBase::Backup"* %0, i64 0, i32 302
  %607 = load i8, i8* %606, align 1, !range !2
  store i8 %607, i8* @_ZN5blink26RuntimeEnabledFeaturesBase22is_page_popup_enabled_E, align 1
  %608 = getelementptr inbounds %"class.blink::RuntimeEnabledFeaturesBase::Backup", %"class.blink::RuntimeEnabledFeaturesBase::Backup"* %0, i64 0, i32 303
  %609 = load i8, i8* %608, align 1, !range !2
  store i8 %609, i8* @_ZN5blink26RuntimeEnabledFeaturesBase45is_paint_under_invalidation_checking_enabled_E, align 1
  %610 = getelementptr inbounds %"class.blink::RuntimeEnabledFeaturesBase::Backup", %"class.blink::RuntimeEnabledFeaturesBase::Backup"* %0, i64 0, i32 304
  %611 = load i8, i8* %610, align 1, !range !2
  store i8 %611, i8* @_ZN5blink26RuntimeEnabledFeaturesBase38is_parse_url_protocol_handler_enabled_E, align 1
  %612 = getelementptr inbounds %"class.blink::RuntimeEnabledFeaturesBase::Backup", %"class.blink::RuntimeEnabledFeaturesBase::Backup"* %0, i64 0, i32 305
  %613 = load i8, i8* %612, align 1, !range !2
  store i8 %613, i8* @_ZN5blink26RuntimeEnabledFeaturesBase48is_pass_paint_visual_rect_to_compositor_enabled_E, align 1
  %614 = getelementptr inbounds %"class.blink::RuntimeEnabledFeaturesBase::Backup", %"class.blink::RuntimeEnabledFeaturesBase::Backup"* %0, i64 0, i32 306
  %615 = load i8, i8* %614, align 1, !range !2
  store i8 %615, i8* @_ZN5blink26RuntimeEnabledFeaturesBase27is_password_reveal_enabled_E, align 1
  %616 = getelementptr inbounds %"class.blink::RuntimeEnabledFeaturesBase::Backup", %"class.blink::RuntimeEnabledFeaturesBase::Backup"* %0, i64 0, i32 307
  %617 = load i8, i8* %616, align 1, !range !2
  store i8 %617, i8* @_ZN5blink26RuntimeEnabledFeaturesBase23is_payment_app_enabled_E, align 1
  %618 = getelementptr inbounds %"class.blink::RuntimeEnabledFeaturesBase::Backup", %"class.blink::RuntimeEnabledFeaturesBase::Backup"* %0, i64 0, i32 308
  %619 = load i8, i8* %618, align 1, !range !2
  store i8 %619, i8* @_ZN5blink26RuntimeEnabledFeaturesBase49is_payment_handler_change_payment_method_enabled_E, align 1
  %620 = getelementptr inbounds %"class.blink::RuntimeEnabledFeaturesBase::Backup", %"class.blink::RuntimeEnabledFeaturesBase::Backup"* %0, i64 0, i32 309
  %621 = load i8, i8* %620, align 1, !range !2
  store i8 %621, i8* @_ZN5blink26RuntimeEnabledFeaturesBase56is_payment_handler_handles_shipping_and_contact_enabled_E, align 1
  %622 = getelementptr inbounds %"class.blink::RuntimeEnabledFeaturesBase::Backup", %"class.blink::RuntimeEnabledFeaturesBase::Backup"* %0, i64 0, i32 310
  %623 = load i8, i8* %622, align 1, !range !2
  store i8 %623, i8* @_ZN5blink26RuntimeEnabledFeaturesBase38is_payment_handler_minimal_ui_enabled_E, align 1
  %624 = getelementptr inbounds %"class.blink::RuntimeEnabledFeaturesBase::Backup", %"class.blink::RuntimeEnabledFeaturesBase::Backup"* %0, i64 0, i32 311
  %625 = load i8, i8* %624, align 1, !range !2
  store i8 %625, i8* @_ZN5blink26RuntimeEnabledFeaturesBase39is_payment_method_change_event_enabled_E, align 1
  %626 = getelementptr inbounds %"class.blink::RuntimeEnabledFeaturesBase::Backup", %"class.blink::RuntimeEnabledFeaturesBase::Backup"* %0, i64 0, i32 312
  %627 = load i8, i8* %626, align 1, !range !2
  store i8 %627, i8* @_ZN5blink26RuntimeEnabledFeaturesBase27is_payment_request_enabled_E, align 1
  %628 = getelementptr inbounds %"class.blink::RuntimeEnabledFeaturesBase::Backup", %"class.blink::RuntimeEnabledFeaturesBase::Backup"* %0, i64 0, i32 313
  %629 = load i8, i8* %628, align 1, !range !2
  store i8 %629, i8* @_ZN5blink26RuntimeEnabledFeaturesBase53is_payment_request_merchant_validation_event_enabled_E, align 1
  %630 = getelementptr inbounds %"class.blink::RuntimeEnabledFeaturesBase::Backup", %"class.blink::RuntimeEnabledFeaturesBase::Backup"* %0, i64 0, i32 314
  %631 = load i8, i8* %630, align 1, !range !2
  store i8 %631, i8* @_ZN5blink26RuntimeEnabledFeaturesBase25is_payment_retry_enabled_E, align 1
  %632 = getelementptr inbounds %"class.blink::RuntimeEnabledFeaturesBase::Backup", %"class.blink::RuntimeEnabledFeaturesBase::Backup"* %0, i64 0, i32 315
  %633 = load i8, i8* %632, align 1, !range !2
  store i8 %633, i8* @_ZN5blink26RuntimeEnabledFeaturesBase35is_percent_based_scrolling_enabled_E, align 1
  %634 = getelementptr inbounds %"class.blink::RuntimeEnabledFeaturesBase::Backup", %"class.blink::RuntimeEnabledFeaturesBase::Backup"* %0, i64 0, i32 316
  %635 = load i8, i8* %634, align 1, !range !2
  store i8 %635, i8* @_ZN5blink26RuntimeEnabledFeaturesBase47is_performance_manager_instrumentation_enabled_E, align 1
  %636 = getelementptr inbounds %"class.blink::RuntimeEnabledFeaturesBase::Backup", %"class.blink::RuntimeEnabledFeaturesBase::Backup"* %0, i64 0, i32 317
  %637 = load i8, i8* %636, align 1, !range !2
  store i8 %637, i8* @_ZN5blink26RuntimeEnabledFeaturesBase36is_periodic_background_sync_enabled_E, align 1
  %638 = getelementptr inbounds %"class.blink::RuntimeEnabledFeaturesBase::Backup", %"class.blink::RuntimeEnabledFeaturesBase::Backup"* %0, i64 0, i32 318
  %639 = load i8, i8* %638, align 1, !range !2
  store i8 %639, i8* @_ZN5blink26RuntimeEnabledFeaturesBase45is_per_method_can_make_payment_quota_enabled_E, align 1
  %640 = getelementptr inbounds %"class.blink::RuntimeEnabledFeaturesBase::Backup", %"class.blink::RuntimeEnabledFeaturesBase::Backup"* %0, i64 0, i32 319
  %641 = load i8, i8* %640, align 1, !range !2
  store i8 %641, i8* @_ZN5blink26RuntimeEnabledFeaturesBase33is_permission_delegation_enabled_E, align 1
  %642 = getelementptr inbounds %"class.blink::RuntimeEnabledFeaturesBase::Backup", %"class.blink::RuntimeEnabledFeaturesBase::Backup"* %0, i64 0, i32 320
  %643 = load i8, i8* %642, align 1, !range !2
  store i8 %643, i8* @_ZN5blink26RuntimeEnabledFeaturesBase23is_permissions_enabled_E, align 1
  %644 = getelementptr inbounds %"class.blink::RuntimeEnabledFeaturesBase::Backup", %"class.blink::RuntimeEnabledFeaturesBase::Backup"* %0, i64 0, i32 321
  %645 = load i8, i8* %644, align 1, !range !2
  store i8 %645, i8* @_ZN5blink26RuntimeEnabledFeaturesBase37is_permissions_policy_header_enabled_E, align 1
  %646 = getelementptr inbounds %"class.blink::RuntimeEnabledFeaturesBase::Backup", %"class.blink::RuntimeEnabledFeaturesBase::Backup"* %0, i64 0, i32 322
  %647 = load i8, i8* %646, align 1, !range !2
  store i8 %647, i8* @_ZN5blink26RuntimeEnabledFeaturesBase38is_permissions_request_revoke_enabled_E, align 1
  %648 = getelementptr inbounds %"class.blink::RuntimeEnabledFeaturesBase::Backup", %"class.blink::RuntimeEnabledFeaturesBase::Backup"* %0, i64 0, i32 323
  %649 = load i8, i8* %648, align 1, !range !2
  store i8 %649, i8* @_ZN5blink26RuntimeEnabledFeaturesBase30is_picture_in_picture_enabled_E, align 1
  %650 = getelementptr inbounds %"class.blink::RuntimeEnabledFeaturesBase::Backup", %"class.blink::RuntimeEnabledFeaturesBase::Backup"* %0, i64 0, i32 324
  %651 = load i8, i8* %650, align 1, !range !2
  store i8 %651, i8* @_ZN5blink26RuntimeEnabledFeaturesBase34is_picture_in_picture_api_enabled_E, align 1
  %652 = getelementptr inbounds %"class.blink::RuntimeEnabledFeaturesBase::Backup", %"class.blink::RuntimeEnabledFeaturesBase::Backup"* %0, i64 0, i32 325
  %653 = load i8, i8* %652, align 1, !range !2
  store i8 %653, i8* @_ZN5blink26RuntimeEnabledFeaturesBase34is_picture_in_picture_v_2_enabled_E, align 1
  %654 = getelementptr inbounds %"class.blink::RuntimeEnabledFeaturesBase::Backup", %"class.blink::RuntimeEnabledFeaturesBase::Backup"* %0, i64 0, i32 326
  %655 = load i8, i8* %654, align 1, !range !2
  store i8 %655, i8* @_ZN5blink26RuntimeEnabledFeaturesBase19is_p_na_cl_enabled_E, align 1
  %656 = getelementptr inbounds %"class.blink::RuntimeEnabledFeaturesBase::Backup", %"class.blink::RuntimeEnabledFeaturesBase::Backup"* %0, i64 0, i32 327
  %657 = load i8, i8* %656, align 1, !range !2
  store i8 %657, i8* @_ZN5blink26RuntimeEnabledFeaturesBase32is_pointer_lock_options_enabled_E, align 1
  %658 = getelementptr inbounds %"class.blink::RuntimeEnabledFeaturesBase::Backup", %"class.blink::RuntimeEnabledFeaturesBase::Backup"* %0, i64 0, i32 328
  %659 = load i8, i8* %658, align 1, !range !2
  store i8 %659, i8* @_ZN5blink26RuntimeEnabledFeaturesBase30is_pointer_raw_update_enabled_E, align 1
  %660 = getelementptr inbounds %"class.blink::RuntimeEnabledFeaturesBase::Backup", %"class.blink::RuntimeEnabledFeaturesBase::Backup"* %0, i64 0, i32 329
  %661 = load i8, i8* %660, align 1, !range !2
  store i8 %661, i8* @_ZN5blink26RuntimeEnabledFeaturesBase19is_portals_enabled_E, align 1
  %662 = getelementptr inbounds %"class.blink::RuntimeEnabledFeaturesBase::Backup", %"class.blink::RuntimeEnabledFeaturesBase::Backup"* %0, i64 0, i32 330
  %663 = load i8, i8* %662, align 1, !range !2
  store i8 %663, i8* @_ZN5blink26RuntimeEnabledFeaturesBase31is_precise_memory_info_enabled_E, align 1
  %664 = getelementptr inbounds %"class.blink::RuntimeEnabledFeaturesBase::Backup", %"class.blink::RuntimeEnabledFeaturesBase::Backup"* %0, i64 0, i32 331
  %665 = load i8, i8* %664, align 1, !range !2
  store i8 %665, i8* @_ZN5blink26RuntimeEnabledFeaturesBase43is_prefer_non_composited_scrolling_enabled_E, align 1
  %666 = getelementptr inbounds %"class.blink::RuntimeEnabledFeaturesBase::Backup", %"class.blink::RuntimeEnabledFeaturesBase::Backup"* %0, i64 0, i32 332
  %667 = load i8, i8* %666, align 1, !range !2
  store i8 %667, i8* @_ZN5blink26RuntimeEnabledFeaturesBase51is_prefers_color_scheme_client_hint_header_enabled_E, align 1
  %668 = getelementptr inbounds %"class.blink::RuntimeEnabledFeaturesBase::Backup", %"class.blink::RuntimeEnabledFeaturesBase::Backup"* %0, i64 0, i32 333
  %669 = load i8, i8* %668, align 1, !range !2
  store i8 %669, i8* @_ZN5blink26RuntimeEnabledFeaturesBase28is_prefers_contrast_enabled_E, align 1
  %670 = getelementptr inbounds %"class.blink::RuntimeEnabledFeaturesBase::Backup", %"class.blink::RuntimeEnabledFeaturesBase::Backup"* %0, i64 0, i32 334
  %671 = load i8, i8* %670, align 1, !range !2
  store i8 %671, i8* @_ZN5blink26RuntimeEnabledFeaturesBase32is_prefers_reduced_data_enabled_E, align 1
  %672 = getelementptr inbounds %"class.blink::RuntimeEnabledFeaturesBase::Backup", %"class.blink::RuntimeEnabledFeaturesBase::Backup"* %0, i64 0, i32 335
  %673 = load i8, i8* %672, align 1, !range !2
  store i8 %673, i8* @_ZN5blink26RuntimeEnabledFeaturesBase37is_prefixed_video_fullscreen_enabled_E, align 1
  %674 = getelementptr inbounds %"class.blink::RuntimeEnabledFeaturesBase::Backup", %"class.blink::RuntimeEnabledFeaturesBase::Backup"* %0, i64 0, i32 336
  %675 = load i8, i8* %674, align 1, !range !2
  store i8 %675, i8* @_ZN5blink26RuntimeEnabledFeaturesBase23is_prerender_2_enabled_E, align 1
  %676 = getelementptr inbounds %"class.blink::RuntimeEnabledFeaturesBase::Backup", %"class.blink::RuntimeEnabledFeaturesBase::Backup"* %0, i64 0, i32 337
  %677 = load i8, i8* %676, align 1, !range !2
  store i8 %677, i8* @_ZN5blink26RuntimeEnabledFeaturesBase24is_presentation_enabled_E, align 1
  %678 = getelementptr inbounds %"class.blink::RuntimeEnabledFeaturesBase::Backup", %"class.blink::RuntimeEnabledFeaturesBase::Backup"* %0, i64 0, i32 338
  %679 = load i8, i8* %678, align 1, !range !2
  store i8 %679, i8* @_ZN5blink26RuntimeEnabledFeaturesBase26is_priority_hints_enabled_E, align 1
  %680 = getelementptr inbounds %"class.blink::RuntimeEnabledFeaturesBase::Backup", %"class.blink::RuntimeEnabledFeaturesBase::Backup"* %0, i64 0, i32 339
  %681 = load i8, i8* %680, align 1, !range !2
  store i8 %681, i8* @_ZN5blink26RuntimeEnabledFeaturesBase26is_push_messaging_enabled_E, align 1
  %682 = getelementptr inbounds %"class.blink::RuntimeEnabledFeaturesBase::Backup", %"class.blink::RuntimeEnabledFeaturesBase::Backup"* %0, i64 0, i32 340
  %683 = load i8, i8* %682, align 1, !range !2
  store i8 %683, i8* @_ZN5blink26RuntimeEnabledFeaturesBase46is_push_messaging_subscription_change_enabled_E, align 1
  %684 = getelementptr inbounds %"class.blink::RuntimeEnabledFeaturesBase::Backup", %"class.blink::RuntimeEnabledFeaturesBase::Backup"* %0, i64 0, i32 341
  %685 = load i8, i8* %684, align 1, !range !2
  store i8 %685, i8* @_ZN5blink26RuntimeEnabledFeaturesBase24is_quota_change_enabled_E, align 1
  %686 = getelementptr inbounds %"class.blink::RuntimeEnabledFeaturesBase::Backup", %"class.blink::RuntimeEnabledFeaturesBase::Backup"* %0, i64 0, i32 342
  %687 = load i8, i8* %686, align 1, !range !2
  store i8 %687, i8* @_ZN5blink26RuntimeEnabledFeaturesBase25is_raw_clipboard_enabled_E, align 1
  %688 = getelementptr inbounds %"class.blink::RuntimeEnabledFeaturesBase::Backup", %"class.blink::RuntimeEnabledFeaturesBase::Backup"* %0, i64 0, i32 343
  %689 = load i8, i8* %688, align 1, !range !2
  store i8 %689, i8* @_ZN5blink26RuntimeEnabledFeaturesBase27is_remote_playback_enabled_E, align 1
  %690 = getelementptr inbounds %"class.blink::RuntimeEnabledFeaturesBase::Backup", %"class.blink::RuntimeEnabledFeaturesBase::Backup"* %0, i64 0, i32 344
  %691 = load i8, i8* %690, align 1, !range !2
  store i8 %691, i8* @_ZN5blink26RuntimeEnabledFeaturesBase35is_remote_playback_backend_enabled_E, align 1
  %692 = getelementptr inbounds %"class.blink::RuntimeEnabledFeaturesBase::Backup", %"class.blink::RuntimeEnabledFeaturesBase::Backup"* %0, i64 0, i32 345
  %693 = load i8, i8* %692, align 1, !range !2
  store i8 %693, i8* @_ZN5blink26RuntimeEnabledFeaturesBase45is_remove_mobile_viewport_double_tap_enabled_E, align 1
  %694 = getelementptr inbounds %"class.blink::RuntimeEnabledFeaturesBase::Backup", %"class.blink::RuntimeEnabledFeaturesBase::Backup"* %0, i64 0, i32 346
  %695 = load i8, i8* %694, align 1, !range !2
  store i8 %695, i8* @_ZN5blink26RuntimeEnabledFeaturesBase40is_request_video_frame_callback_enabled_E, align 1
  %696 = getelementptr inbounds %"class.blink::RuntimeEnabledFeaturesBase::Backup", %"class.blink::RuntimeEnabledFeaturesBase::Backup"* %0, i64 0, i32 347
  %697 = load i8, i8* %696, align 1, !range !2
  store i8 %697, i8* @_ZN5blink26RuntimeEnabledFeaturesBase63is_restrict_automatic_lazy_frame_loading_to_data_saver_enabled_E, align 1
  %698 = getelementptr inbounds %"class.blink::RuntimeEnabledFeaturesBase::Backup", %"class.blink::RuntimeEnabledFeaturesBase::Backup"* %0, i64 0, i32 348
  %699 = load i8, i8* %698, align 1, !range !2
  store i8 %699, i8* @_ZN5blink26RuntimeEnabledFeaturesBase63is_restrict_automatic_lazy_image_loading_to_data_saver_enabled_E, align 1
  %700 = getelementptr inbounds %"class.blink::RuntimeEnabledFeaturesBase::Backup", %"class.blink::RuntimeEnabledFeaturesBase::Backup"* %0, i64 0, i32 349
  %701 = load i8, i8* %700, align 1, !range !2
  store i8 %701, i8* @_ZN5blink26RuntimeEnabledFeaturesBase35is_restrict_gamepad_access_enabled_E, align 1
  %702 = getelementptr inbounds %"class.blink::RuntimeEnabledFeaturesBase::Backup", %"class.blink::RuntimeEnabledFeaturesBase::Backup"* %0, i64 0, i32 350
  %703 = load i8, i8* %702, align 1, !range !2
  store i8 %703, i8* @_ZN5blink26RuntimeEnabledFeaturesBase47is_rtc_audio_jitter_buffer_max_packets_enabled_E, align 1
  %704 = getelementptr inbounds %"class.blink::RuntimeEnabledFeaturesBase::Backup", %"class.blink::RuntimeEnabledFeaturesBase::Backup"* %0, i64 0, i32 351
  %705 = load i8, i8* %704, align 1, !range !2
  store i8 %705, i8* @_ZN5blink26RuntimeEnabledFeaturesBase48is_rtc_audio_jitter_buffer_rtx_handling_enabled_E, align 1
  %706 = getelementptr inbounds %"class.blink::RuntimeEnabledFeaturesBase::Backup", %"class.blink::RuntimeEnabledFeaturesBase::Backup"* %0, i64 0, i32 352
  %707 = load i8, i8* %706, align 1, !range !2
  store i8 %707, i8* @_ZN5blink26RuntimeEnabledFeaturesBase50is_rtc_extend_deadline_for_plan_b_removal_enabled_E, align 1
  %708 = getelementptr inbounds %"class.blink::RuntimeEnabledFeaturesBase::Backup", %"class.blink::RuntimeEnabledFeaturesBase::Backup"* %0, i64 0, i32 353
  %709 = load i8, i8* %708, align 1, !range !2
  store i8 %709, i8* @_ZN5blink26RuntimeEnabledFeaturesBase39is_rtc_ice_transport_extension_enabled_E, align 1
  %710 = getelementptr inbounds %"class.blink::RuntimeEnabledFeaturesBase::Backup", %"class.blink::RuntimeEnabledFeaturesBase::Backup"* %0, i64 0, i32 354
  %711 = load i8, i8* %710, align 1, !range !2
  store i8 %711, i8* @_ZN5blink26RuntimeEnabledFeaturesBase34is_rtc_insertable_streams_enabled_E, align 1
  %712 = getelementptr inbounds %"class.blink::RuntimeEnabledFeaturesBase::Backup", %"class.blink::RuntimeEnabledFeaturesBase::Backup"* %0, i64 0, i32 355
  %713 = load i8, i8* %712, align 1, !range !2
  store i8 %713, i8* @_ZN5blink26RuntimeEnabledFeaturesBase30is_rtc_quic_transport_enabled_E, align 1
  %714 = getelementptr inbounds %"class.blink::RuntimeEnabledFeaturesBase::Backup", %"class.blink::RuntimeEnabledFeaturesBase::Backup"* %0, i64 0, i32 356
  %715 = load i8, i8* %714, align 1, !range !2
  store i8 %715, i8* @_ZN5blink26RuntimeEnabledFeaturesBase44is_rtc_rtp_header_extension_control_enabled_E, align 1
  %716 = getelementptr inbounds %"class.blink::RuntimeEnabledFeaturesBase::Backup", %"class.blink::RuntimeEnabledFeaturesBase::Backup"* %0, i64 0, i32 357
  %717 = load i8, i8* %716, align 1, !range !2
  store i8 %717, i8* @_ZN5blink26RuntimeEnabledFeaturesBase36is_rtc_rtp_transceiver_stop_enabled_E, align 1
  %718 = getelementptr inbounds %"class.blink::RuntimeEnabledFeaturesBase::Backup", %"class.blink::RuntimeEnabledFeaturesBase::Backup"* %0, i64 0, i32 358
  %719 = load i8, i8* %718, align 1, !range !2
  store i8 %719, i8* @_ZN5blink26RuntimeEnabledFeaturesBase51is_rtc_stats_relative_packet_arrival_delay_enabled_E, align 1
  %720 = getelementptr inbounds %"class.blink::RuntimeEnabledFeaturesBase::Backup", %"class.blink::RuntimeEnabledFeaturesBase::Backup"* %0, i64 0, i32 359
  %721 = load i8, i8* %720, align 1, !range !2
  store i8 %721, i8* @_ZN5blink26RuntimeEnabledFeaturesBase36is_rtc_svc_scalability_mode_enabled_E, align 1
  %722 = getelementptr inbounds %"class.blink::RuntimeEnabledFeaturesBase::Backup", %"class.blink::RuntimeEnabledFeaturesBase::Backup"* %0, i64 0, i32 360
  %723 = load i8, i8* %722, align 1, !range !2
  store i8 %723, i8* @_ZN5blink26RuntimeEnabledFeaturesBase28is_rtc_unified_plan_enabled_E, align 1
  %724 = getelementptr inbounds %"class.blink::RuntimeEnabledFeaturesBase::Backup", %"class.blink::RuntimeEnabledFeaturesBase::Backup"* %0, i64 0, i32 361
  %725 = load i8, i8* %724, align 1, !range !2
  store i8 %725, i8* @_ZN5blink26RuntimeEnabledFeaturesBase39is_rtc_unified_plan_by_default_enabled_E, align 1
  %726 = getelementptr inbounds %"class.blink::RuntimeEnabledFeaturesBase::Backup", %"class.blink::RuntimeEnabledFeaturesBase::Backup"* %0, i64 0, i32 362
  %727 = load i8, i8* %726, align 1, !range !2
  store i8 %727, i8* @_ZN5blink26RuntimeEnabledFeaturesBase40is_same_site_by_default_cookies_enabled_E, align 1
  %728 = getelementptr inbounds %"class.blink::RuntimeEnabledFeaturesBase::Backup", %"class.blink::RuntimeEnabledFeaturesBase::Backup"* %0, i64 0, i32 363
  %729 = load i8, i8* %728, align 1, !range !2
  store i8 %729, i8* @_ZN5blink26RuntimeEnabledFeaturesBase25is_sanitizer_api_enabled_E, align 1
  %730 = getelementptr inbounds %"class.blink::RuntimeEnabledFeaturesBase::Backup", %"class.blink::RuntimeEnabledFeaturesBase::Backup"* %0, i64 0, i32 364
  %731 = load i8, i8* %730, align 1, !range !2
  store i8 %731, i8* @_ZN5blink26RuntimeEnabledFeaturesBase39is_scripted_speech_recognition_enabled_E, align 1
  %732 = getelementptr inbounds %"class.blink::RuntimeEnabledFeaturesBase::Backup", %"class.blink::RuntimeEnabledFeaturesBase::Backup"* %0, i64 0, i32 365
  %733 = load i8, i8* %732, align 1, !range !2
  store i8 %733, i8* @_ZN5blink26RuntimeEnabledFeaturesBase37is_scripted_speech_synthesis_enabled_E, align 1
  %734 = getelementptr inbounds %"class.blink::RuntimeEnabledFeaturesBase::Backup", %"class.blink::RuntimeEnabledFeaturesBase::Backup"* %0, i64 0, i32 366
  %735 = load i8, i8* %734, align 1, !range !2
  store i8 %735, i8* @_ZN5blink26RuntimeEnabledFeaturesBase28is_scrollbar_gutter_enabled_E, align 1
  %736 = getelementptr inbounds %"class.blink::RuntimeEnabledFeaturesBase::Backup", %"class.blink::RuntimeEnabledFeaturesBase::Backup"* %0, i64 0, i32 367
  %737 = load i8, i8* %736, align 1, !range !2
  store i8 %737, i8* @_ZN5blink26RuntimeEnabledFeaturesBase27is_scrollbar_width_enabled_E, align 1
  %738 = getelementptr inbounds %"class.blink::RuntimeEnabledFeaturesBase::Backup", %"class.blink::RuntimeEnabledFeaturesBase::Backup"* %0, i64 0, i32 368
  %739 = load i8, i8* %738, align 1, !range !2
  store i8 %739, i8* @_ZN5blink26RuntimeEnabledFeaturesBase32is_scroll_customization_enabled_E, align 1
  %740 = getelementptr inbounds %"class.blink::RuntimeEnabledFeaturesBase::Backup", %"class.blink::RuntimeEnabledFeaturesBase::Backup"* %0, i64 0, i32 369
  %741 = load i8, i8* %740, align 1, !range !2
  store i8 %741, i8* @_ZN5blink26RuntimeEnabledFeaturesBase36is_scroll_snap_after_layout_enabled_E, align 1
  %742 = getelementptr inbounds %"class.blink::RuntimeEnabledFeaturesBase::Backup", %"class.blink::RuntimeEnabledFeaturesBase::Backup"* %0, i64 0, i32 370
  %743 = load i8, i8* %742, align 1, !range !2
  store i8 %743, i8* @_ZN5blink26RuntimeEnabledFeaturesBase27is_scroll_timeline_enabled_E, align 1
  %744 = getelementptr inbounds %"class.blink::RuntimeEnabledFeaturesBase::Backup", %"class.blink::RuntimeEnabledFeaturesBase::Backup"* %0, i64 0, i32 371
  %745 = load i8, i8* %744, align 1, !range !2
  store i8 %745, i8* @_ZN5blink26RuntimeEnabledFeaturesBase35is_scroll_top_left_interop_enabled_E, align 1
  %746 = getelementptr inbounds %"class.blink::RuntimeEnabledFeaturesBase::Backup", %"class.blink::RuntimeEnabledFeaturesBase::Backup"* %0, i64 0, i32 372
  %747 = load i8, i8* %746, align 1, !range !2
  store i8 %747, i8* @_ZN5blink26RuntimeEnabledFeaturesBase30is_scroll_unification_enabled_E, align 1
  %748 = getelementptr inbounds %"class.blink::RuntimeEnabledFeaturesBase::Backup", %"class.blink::RuntimeEnabledFeaturesBase::Backup"* %0, i64 0, i32 373
  %749 = load i8, i8* %748, align 1, !range !2
  store i8 %749, i8* @_ZN5blink26RuntimeEnabledFeaturesBase39is_secure_payment_confirmation_enabled_E, align 1
  %750 = getelementptr inbounds %"class.blink::RuntimeEnabledFeaturesBase::Backup", %"class.blink::RuntimeEnabledFeaturesBase::Backup"* %0, i64 0, i32 374
  %751 = load i8, i8* %750, align 1, !range !2
  store i8 %751, i8* @_ZN5blink26RuntimeEnabledFeaturesBase45is_secure_payment_confirmation_debug_enabled_E, align 1
  %752 = getelementptr inbounds %"class.blink::RuntimeEnabledFeaturesBase::Backup", %"class.blink::RuntimeEnabledFeaturesBase::Backup"* %0, i64 0, i32 375
  %753 = load i8, i8* %752, align 1, !range !2
  store i8 %753, i8* @_ZN5blink26RuntimeEnabledFeaturesBase59is_send_beacon_throw_for_blob_with_non_simple_type_enabled_E, align 1
  %754 = getelementptr inbounds %"class.blink::RuntimeEnabledFeaturesBase::Backup", %"class.blink::RuntimeEnabledFeaturesBase::Backup"* %0, i64 0, i32 376
  %755 = load i8, i8* %754, align 1, !range !2
  store i8 %755, i8* @_ZN5blink26RuntimeEnabledFeaturesBase52is_send_mouse_events_disabled_form_controls_enabled_E, align 1
  %756 = getelementptr inbounds %"class.blink::RuntimeEnabledFeaturesBase::Backup", %"class.blink::RuntimeEnabledFeaturesBase::Backup"* %0, i64 0, i32 377
  %757 = load i8, i8* %756, align 1, !range !2
  store i8 %757, i8* @_ZN5blink26RuntimeEnabledFeaturesBase32is_sensor_extra_classes_enabled_E, align 1
  %758 = getelementptr inbounds %"class.blink::RuntimeEnabledFeaturesBase::Backup", %"class.blink::RuntimeEnabledFeaturesBase::Backup"* %0, i64 0, i32 378
  %759 = load i8, i8* %758, align 1, !range !2
  store i8 %759, i8* @_ZN5blink26RuntimeEnabledFeaturesBase18is_serial_enabled_E, align 1
  %760 = getelementptr inbounds %"class.blink::RuntimeEnabledFeaturesBase::Backup", %"class.blink::RuntimeEnabledFeaturesBase::Backup"* %0, i64 0, i32 379
  %761 = load i8, i8* %760, align 1, !range !2
  store i8 %761, i8* @_ZN5blink26RuntimeEnabledFeaturesBase49is_service_worker_client_lifecycle_state_enabled_E, align 1
  %762 = getelementptr inbounds %"class.blink::RuntimeEnabledFeaturesBase::Backup", %"class.blink::RuntimeEnabledFeaturesBase::Backup"* %0, i64 0, i32 380
  %763 = load i8, i8* %762, align 1, !range !2
  store i8 %763, i8* @_ZN5blink26RuntimeEnabledFeaturesBase52is_service_worker_fetch_event_worker_timing_enabled_E, align 1
  %764 = getelementptr inbounds %"class.blink::RuntimeEnabledFeaturesBase::Backup", %"class.blink::RuntimeEnabledFeaturesBase::Backup"* %0, i64 0, i32 381
  %765 = load i8, i8* %764, align 1, !range !2
  store i8 %765, i8* @_ZN5blink26RuntimeEnabledFeaturesBase31is_shared_array_buffer_enabled_E, align 1
  %766 = getelementptr inbounds %"class.blink::RuntimeEnabledFeaturesBase::Backup", %"class.blink::RuntimeEnabledFeaturesBase::Backup"* %0, i64 0, i32 382
  %767 = load i8, i8* %766, align 1, !range !2
  store i8 %767, i8* @_ZN5blink26RuntimeEnabledFeaturesBase42is_shared_array_buffer_on_desktop_enabled_E, align 1
  %768 = getelementptr inbounds %"class.blink::RuntimeEnabledFeaturesBase::Backup", %"class.blink::RuntimeEnabledFeaturesBase::Backup"* %0, i64 0, i32 383
  %769 = load i8, i8* %768, align 1, !range !2
  store i8 %769, i8* @_ZN5blink26RuntimeEnabledFeaturesBase59is_shared_array_buffer_unrestricted_access_allowed_enabled_E, align 1
  %770 = getelementptr inbounds %"class.blink::RuntimeEnabledFeaturesBase::Backup", %"class.blink::RuntimeEnabledFeaturesBase::Backup"* %0, i64 0, i32 384
  %771 = load i8, i8* %770, align 1, !range !2
  store i8 %771, i8* @_ZN5blink26RuntimeEnabledFeaturesBase27is_shared_autofill_enabled_E, align 1
  %772 = getelementptr inbounds %"class.blink::RuntimeEnabledFeaturesBase::Backup", %"class.blink::RuntimeEnabledFeaturesBase::Backup"* %0, i64 0, i32 385
  %773 = load i8, i8* %772, align 1, !range !2
  store i8 %773, i8* @_ZN5blink26RuntimeEnabledFeaturesBase25is_shared_worker_enabled_E, align 1
  %774 = getelementptr inbounds %"class.blink::RuntimeEnabledFeaturesBase::Backup", %"class.blink::RuntimeEnabledFeaturesBase::Backup"* %0, i64 0, i32 386
  %775 = load i8, i8* %774, align 1, !range !2
  store i8 %775, i8* @_ZN5blink26RuntimeEnabledFeaturesBase37is_signature_based_integrity_enabled_E, align 1
  %776 = getelementptr inbounds %"class.blink::RuntimeEnabledFeaturesBase::Backup", %"class.blink::RuntimeEnabledFeaturesBase::Backup"* %0, i64 0, i32 387
  %777 = load i8, i8* %776, align 1, !range !2
  store i8 %777, i8* @_ZN5blink26RuntimeEnabledFeaturesBase58is_signed_exchange_prefetch_cache_for_navigations_enabled_E, align 1
  %778 = getelementptr inbounds %"class.blink::RuntimeEnabledFeaturesBase::Backup", %"class.blink::RuntimeEnabledFeaturesBase::Backup"* %0, i64 0, i32 388
  %779 = load i8, i8* %778, align 1, !range !2
  store i8 %779, i8* @_ZN5blink26RuntimeEnabledFeaturesBase48is_signed_exchange_subresource_prefetch_enabled_E, align 1
  %780 = getelementptr inbounds %"class.blink::RuntimeEnabledFeaturesBase::Backup", %"class.blink::RuntimeEnabledFeaturesBase::Backup"* %0, i64 0, i32 389
  %781 = load i8, i8* %780, align 1, !range !2
  store i8 %781, i8* @_ZN5blink26RuntimeEnabledFeaturesBase19is_skip_ad_enabled_E, align 1
  %782 = getelementptr inbounds %"class.blink::RuntimeEnabledFeaturesBase::Backup", %"class.blink::RuntimeEnabledFeaturesBase::Backup"* %0, i64 0, i32 390
  %783 = load i8, i8* %782, align 1, !range !2
  store i8 %783, i8* @_ZN5blink26RuntimeEnabledFeaturesBase35is_skip_touch_event_filter_enabled_E, align 1
  %784 = getelementptr inbounds %"class.blink::RuntimeEnabledFeaturesBase::Backup", %"class.blink::RuntimeEnabledFeaturesBase::Backup"* %0, i64 0, i32 391
  %785 = load i8, i8* %784, align 1, !range !2
  store i8 %785, i8* @_ZN5blink26RuntimeEnabledFeaturesBase29is_speculation_rules_enabled_E, align 1
  %786 = getelementptr inbounds %"class.blink::RuntimeEnabledFeaturesBase::Backup", %"class.blink::RuntimeEnabledFeaturesBase::Backup"* %0, i64 0, i32 392
  %787 = load i8, i8* %786, align 1, !range !2
  store i8 %787, i8* @_ZN5blink26RuntimeEnabledFeaturesBase44is_speculation_rules_prefetch_proxy_enabled_E, align 1
  %788 = getelementptr inbounds %"class.blink::RuntimeEnabledFeaturesBase::Backup", %"class.blink::RuntimeEnabledFeaturesBase::Backup"* %0, i64 0, i32 393
  %789 = load i8, i8* %788, align 1, !range !2
  store i8 %789, i8* @_ZN5blink26RuntimeEnabledFeaturesBase30is_srcset_max_density_enabled_E, align 1
  %790 = getelementptr inbounds %"class.blink::RuntimeEnabledFeaturesBase::Backup", %"class.blink::RuntimeEnabledFeaturesBase::Backup"* %0, i64 0, i32 394
  %791 = load i8, i8* %790, align 1, !range !2
  store i8 %791, i8* @_ZN5blink26RuntimeEnabledFeaturesBase33is_stable_blink_features_enabled_E, align 1
  %792 = getelementptr inbounds %"class.blink::RuntimeEnabledFeaturesBase::Backup", %"class.blink::RuntimeEnabledFeaturesBase::Backup"* %0, i64 0, i32 395
  %793 = load i8, i8* %792, align 1, !range !2
  store i8 %793, i8* @_ZN5blink26RuntimeEnabledFeaturesBase30is_storage_access_api_enabled_E, align 1
  %794 = getelementptr inbounds %"class.blink::RuntimeEnabledFeaturesBase::Backup", %"class.blink::RuntimeEnabledFeaturesBase::Backup"* %0, i64 0, i32 396
  %795 = load i8, i8* %794, align 1, !range !2
  store i8 %795, i8* @_ZN5blink26RuntimeEnabledFeaturesBase27is_storage_buckets_enabled_E, align 1
  %796 = getelementptr inbounds %"class.blink::RuntimeEnabledFeaturesBase::Backup", %"class.blink::RuntimeEnabledFeaturesBase::Backup"* %0, i64 0, i32 397
  %797 = load i8, i8* %796, align 1, !range !2
  store i8 %797, i8* @_ZN5blink26RuntimeEnabledFeaturesBase34is_storage_foundation_api_enabled_E, align 1
  %798 = getelementptr inbounds %"class.blink::RuntimeEnabledFeaturesBase::Backup", %"class.blink::RuntimeEnabledFeaturesBase::Backup"* %0, i64 0, i32 398
  %799 = load i8, i8* %798, align 1, !range !2
  store i8 %799, i8* @_ZN5blink26RuntimeEnabledFeaturesBase41is_strict_mime_types_for_workers_enabled_E, align 1
  %800 = getelementptr inbounds %"class.blink::RuntimeEnabledFeaturesBase::Backup", %"class.blink::RuntimeEnabledFeaturesBase::Backup"* %0, i64 0, i32 399
  %801 = load i8, i8* %800, align 1, !range !2
  store i8 %801, i8* @_ZN5blink26RuntimeEnabledFeaturesBase35is_subresource_web_bundles_enabled_E, align 1
  %802 = getelementptr inbounds %"class.blink::RuntimeEnabledFeaturesBase::Backup", %"class.blink::RuntimeEnabledFeaturesBase::Backup"* %0, i64 0, i32 400
  %803 = load i8, i8* %802, align 1, !range !2
  store i8 %803, i8* @_ZN5blink26RuntimeEnabledFeaturesBase23is_svg_text_ng_enabled_E, align 1
  %804 = getelementptr inbounds %"class.blink::RuntimeEnabledFeaturesBase::Backup", %"class.blink::RuntimeEnabledFeaturesBase::Backup"* %0, i64 0, i32 401
  %805 = load i8, i8* %804, align 1, !range !2
  store i8 %805, i8* @_ZN5blink26RuntimeEnabledFeaturesBase28is_system_wake_lock_enabled_E, align 1
  %806 = getelementptr inbounds %"class.blink::RuntimeEnabledFeaturesBase::Backup", %"class.blink::RuntimeEnabledFeaturesBase::Backup"* %0, i64 0, i32 402
  %807 = load i8, i8* %806, align 1, !range !2
  store i8 %807, i8* @_ZN5blink26RuntimeEnabledFeaturesBase42is_target_blank_implies_no_opener_enabled_E, align 1
  %808 = getelementptr inbounds %"class.blink::RuntimeEnabledFeaturesBase::Backup", %"class.blink::RuntimeEnabledFeaturesBase::Backup"* %0, i64 0, i32 403
  %809 = load i8, i8* %808, align 1, !range !2
  store i8 %809, i8* @_ZN5blink26RuntimeEnabledFeaturesBase24is_test_feature_enabled_E, align 1
  %810 = getelementptr inbounds %"class.blink::RuntimeEnabledFeaturesBase::Backup", %"class.blink::RuntimeEnabledFeaturesBase::Backup"* %0, i64 0, i32 404
  %811 = load i8, i8* %810, align 1, !range !2
  store i8 %811, i8* @_ZN5blink26RuntimeEnabledFeaturesBase34is_test_feature_dependent_enabled_E, align 1
  %812 = getelementptr inbounds %"class.blink::RuntimeEnabledFeaturesBase::Backup", %"class.blink::RuntimeEnabledFeaturesBase::Backup"* %0, i64 0, i32 405
  %813 = load i8, i8* %812, align 1, !range !2
  store i8 %813, i8* @_ZN5blink26RuntimeEnabledFeaturesBase32is_test_feature_implied_enabled_E, align 1
  %814 = getelementptr inbounds %"class.blink::RuntimeEnabledFeaturesBase::Backup", %"class.blink::RuntimeEnabledFeaturesBase::Backup"* %0, i64 0, i32 406
  %815 = load i8, i8* %814, align 1, !range !2
  store i8 %815, i8* @_ZN5blink26RuntimeEnabledFeaturesBase25is_text_detector_enabled_E, align 1
  %816 = getelementptr inbounds %"class.blink::RuntimeEnabledFeaturesBase::Backup", %"class.blink::RuntimeEnabledFeaturesBase::Backup"* %0, i64 0, i32 407
  %817 = load i8, i8* %816, align 1, !range !2
  store i8 %817, i8* @_ZN5blink26RuntimeEnabledFeaturesBase38is_text_fragment_color_change_enabled_E, align 1
  %818 = getelementptr inbounds %"class.blink::RuntimeEnabledFeaturesBase::Backup", %"class.blink::RuntimeEnabledFeaturesBase::Backup"* %0, i64 0, i32 408
  %819 = load i8, i8* %818, align 1, !range !2
  store i8 %819, i8* @_ZN5blink26RuntimeEnabledFeaturesBase37is_text_fragment_identifiers_enabled_E, align 1
  %820 = getelementptr inbounds %"class.blink::RuntimeEnabledFeaturesBase::Backup", %"class.blink::RuntimeEnabledFeaturesBase::Backup"* %0, i64 0, i32 409
  %821 = load i8, i8* %820, align 1, !range !2
  store i8 %821, i8* @_ZN5blink26RuntimeEnabledFeaturesBase48is_text_fragment_tap_opens_context_menu_enabled_E, align 1
  %822 = getelementptr inbounds %"class.blink::RuntimeEnabledFeaturesBase::Backup", %"class.blink::RuntimeEnabledFeaturesBase::Backup"* %0, i64 0, i32 410
  %823 = load i8, i8* %822, align 1, !range !2
  store i8 %823, i8* @_ZN5blink26RuntimeEnabledFeaturesBase37is_third_party_origin_trials_enabled_E, align 1
  %824 = getelementptr inbounds %"class.blink::RuntimeEnabledFeaturesBase::Backup", %"class.blink::RuntimeEnabledFeaturesBase::Backup"* %0, i64 0, i32 411
  %825 = load i8, i8* %824, align 1, !range !2
  store i8 %825, i8* @_ZN5blink26RuntimeEnabledFeaturesBase76is_throttle_display_none_and_visibility_hidden_cross_origin_iframes_enabled_E, align 1
  %826 = getelementptr inbounds %"class.blink::RuntimeEnabledFeaturesBase::Backup", %"class.blink::RuntimeEnabledFeaturesBase::Backup"* %0, i64 0, i32 412
  %827 = load i8, i8* %826, align 1, !range !2
  store i8 %827, i8* @_ZN5blink26RuntimeEnabledFeaturesBase48is_timer_throttling_for_background_tabs_enabled_E, align 1
  %828 = getelementptr inbounds %"class.blink::RuntimeEnabledFeaturesBase::Backup", %"class.blink::RuntimeEnabledFeaturesBase::Backup"* %0, i64 0, i32 413
  %829 = load i8, i8* %828, align 1, !range !2
  store i8 %829, i8* @_ZN5blink26RuntimeEnabledFeaturesBase46is_timer_throttling_for_hidden_frames_enabled_E, align 1
  %830 = getelementptr inbounds %"class.blink::RuntimeEnabledFeaturesBase::Backup", %"class.blink::RuntimeEnabledFeaturesBase::Backup"* %0, i64 0, i32 414
  %831 = load i8, i8* %830, align 1, !range !2
  store i8 %831, i8* @_ZN5blink26RuntimeEnabledFeaturesBase34is_time_zone_change_event_enabled_E, align 1
  %832 = getelementptr inbounds %"class.blink::RuntimeEnabledFeaturesBase::Backup", %"class.blink::RuntimeEnabledFeaturesBase::Backup"* %0, i64 0, i32 415
  %833 = load i8, i8* %832, align 1, !range !2
  store i8 %833, i8* @_ZN5blink26RuntimeEnabledFeaturesBase41is_touch_event_feature_detection_enabled_E, align 1
  %834 = getelementptr inbounds %"class.blink::RuntimeEnabledFeaturesBase::Backup", %"class.blink::RuntimeEnabledFeaturesBase::Backup"* %0, i64 0, i32 416
  %835 = load i8, i8* %834, align 1, !range !2
  store i8 %835, i8* @_ZN5blink26RuntimeEnabledFeaturesBase32is_transferable_streams_enabled_E, align 1
  %836 = getelementptr inbounds %"class.blink::RuntimeEnabledFeaturesBase::Backup", %"class.blink::RuntimeEnabledFeaturesBase::Backup"* %0, i64 0, i32 417
  %837 = load i8, i8* %836, align 1, !range !2
  store i8 %837, i8* @_ZN5blink26RuntimeEnabledFeaturesBase29is_transform_interop_enabled_E, align 1
  %838 = getelementptr inbounds %"class.blink::RuntimeEnabledFeaturesBase::Backup", %"class.blink::RuntimeEnabledFeaturesBase::Backup"* %0, i64 0, i32 418
  %839 = load i8, i8* %838, align 1, !range !2
  store i8 %839, i8* @_ZN5blink26RuntimeEnabledFeaturesBase29is_translate_service_enabled_E, align 1
  %840 = getelementptr inbounds %"class.blink::RuntimeEnabledFeaturesBase::Backup", %"class.blink::RuntimeEnabledFeaturesBase::Backup"* %0, i64 0, i32 419
  %841 = load i8, i8* %840, align 1, !range !2
  store i8 %841, i8* @_ZN5blink26RuntimeEnabledFeaturesBase29is_trusted_dom_types_enabled_E, align 1
  %842 = getelementptr inbounds %"class.blink::RuntimeEnabledFeaturesBase::Backup", %"class.blink::RuntimeEnabledFeaturesBase::Backup"* %0, i64 0, i32 420
  %843 = load i8, i8* %842, align 1, !range !2
  store i8 %843, i8* @_ZN5blink26RuntimeEnabledFeaturesBase53is_trusted_type_before_policy_creation_event_enabled_E, align 1
  %844 = getelementptr inbounds %"class.blink::RuntimeEnabledFeaturesBase::Backup", %"class.blink::RuntimeEnabledFeaturesBase::Backup"* %0, i64 0, i32 421
  %845 = load i8, i8* %844, align 1, !range !2
  store i8 %845, i8* @_ZN5blink26RuntimeEnabledFeaturesBase39is_trusted_types_use_code_like_enabled_E, align 1
  %846 = getelementptr inbounds %"class.blink::RuntimeEnabledFeaturesBase::Backup", %"class.blink::RuntimeEnabledFeaturesBase::Backup"* %0, i64 0, i32 422
  %847 = load i8, i8* %846, align 1, !range !2
  store i8 %847, i8* @_ZN5blink26RuntimeEnabledFeaturesBase24is_trust_tokens_enabled_E, align 1
  %848 = getelementptr inbounds %"class.blink::RuntimeEnabledFeaturesBase::Backup", %"class.blink::RuntimeEnabledFeaturesBase::Backup"* %0, i64 0, i32 423
  %849 = load i8, i8* %848, align 1, !range !2
  store i8 %849, i8* @_ZN5blink26RuntimeEnabledFeaturesBase46is_trust_tokens_always_allow_issuance_enabled_E, align 1
  %850 = getelementptr inbounds %"class.blink::RuntimeEnabledFeaturesBase::Backup", %"class.blink::RuntimeEnabledFeaturesBase::Backup"* %0, i64 0, i32 424
  %851 = load i8, i8* %850, align 1, !range !2
  store i8 %851, i8* @_ZN5blink26RuntimeEnabledFeaturesBase44is_unclosed_form_control_is_invalid_enabled_E, align 1
  %852 = getelementptr inbounds %"class.blink::RuntimeEnabledFeaturesBase::Backup", %"class.blink::RuntimeEnabledFeaturesBase::Backup"* %0, i64 0, i32 425
  %853 = load i8, i8* %852, align 1, !range !2
  store i8 %853, i8* @_ZN5blink26RuntimeEnabledFeaturesBase38is_underline_offset_thickness_enabled_E, align 1
  %854 = getelementptr inbounds %"class.blink::RuntimeEnabledFeaturesBase::Backup", %"class.blink::RuntimeEnabledFeaturesBase::Backup"* %0, i64 0, i32 426
  %855 = load i8, i8* %854, align 1, !range !2
  store i8 %855, i8* @_ZN5blink26RuntimeEnabledFeaturesBase44is_unrestricted_shared_array_buffer_enabled_E, align 1
  %856 = getelementptr inbounds %"class.blink::RuntimeEnabledFeaturesBase::Backup", %"class.blink::RuntimeEnabledFeaturesBase::Backup"* %0, i64 0, i32 427
  %857 = load i8, i8* %856, align 1, !range !2
  store i8 %857, i8* @_ZN5blink26RuntimeEnabledFeaturesBase23is_url_pattern_enabled_E, align 1
  %858 = getelementptr inbounds %"class.blink::RuntimeEnabledFeaturesBase::Backup", %"class.blink::RuntimeEnabledFeaturesBase::Backup"* %0, i64 0, i32 428
  %859 = load i8, i8* %858, align 1, !range !2
  store i8 %859, i8* @_ZN5blink26RuntimeEnabledFeaturesBase50is_user_activation_same_origin_visibility_enabled_E, align 1
  %860 = getelementptr inbounds %"class.blink::RuntimeEnabledFeaturesBase::Backup", %"class.blink::RuntimeEnabledFeaturesBase::Backup"* %0, i64 0, i32 429
  %861 = load i8, i8* %860, align 1, !range !2
  store i8 %861, i8* @_ZN5blink26RuntimeEnabledFeaturesBase34is_user_agent_client_hint_enabled_E, align 1
  %862 = getelementptr inbounds %"class.blink::RuntimeEnabledFeaturesBase::Backup", %"class.blink::RuntimeEnabledFeaturesBase::Backup"* %0, i64 0, i32 430
  %863 = load i8, i8* %862, align 1, !range !2
  store i8 %863, i8* @_ZN5blink26RuntimeEnabledFeaturesBase16is_uuid_enabled_E, align 1
  %864 = getelementptr inbounds %"class.blink::RuntimeEnabledFeaturesBase::Backup", %"class.blink::RuntimeEnabledFeaturesBase::Backup"* %0, i64 0, i32 431
  %865 = load i8, i8* %864, align 1, !range !2
  store i8 %865, i8* @_ZN5blink26RuntimeEnabledFeaturesBase25is_v8_idle_tasks_enabled_E, align 1
  %866 = getelementptr inbounds %"class.blink::RuntimeEnabledFeaturesBase::Backup", %"class.blink::RuntimeEnabledFeaturesBase::Backup"* %0, i64 0, i32 432
  %867 = load i8, i8* %866, align 1, !range !2
  store i8 %867, i8* @_ZN5blink26RuntimeEnabledFeaturesBase33is_video_auto_fullscreen_enabled_E, align 1
  %868 = getelementptr inbounds %"class.blink::RuntimeEnabledFeaturesBase::Backup", %"class.blink::RuntimeEnabledFeaturesBase::Backup"* %0, i64 0, i32 433
  %869 = load i8, i8* %868, align 1, !range !2
  store i8 %869, i8* @_ZN5blink26RuntimeEnabledFeaturesBase45is_video_fullscreen_orientation_lock_enabled_E, align 1
  %870 = getelementptr inbounds %"class.blink::RuntimeEnabledFeaturesBase::Backup", %"class.blink::RuntimeEnabledFeaturesBase::Backup"* %0, i64 0, i32 434
  %871 = load i8, i8* %870, align 1, !range !2
  store i8 %871, i8* @_ZN5blink26RuntimeEnabledFeaturesBase34is_video_playback_quality_enabled_E, align 1
  %872 = getelementptr inbounds %"class.blink::RuntimeEnabledFeaturesBase::Backup", %"class.blink::RuntimeEnabledFeaturesBase::Backup"* %0, i64 0, i32 435
  %873 = load i8, i8* %872, align 1, !range !2
  store i8 %873, i8* @_ZN5blink26RuntimeEnabledFeaturesBase38is_video_rotate_to_fullscreen_enabled_E, align 1
  %874 = getelementptr inbounds %"class.blink::RuntimeEnabledFeaturesBase::Backup", %"class.blink::RuntimeEnabledFeaturesBase::Backup"* %0, i64 0, i32 436
  %875 = load i8, i8* %874, align 1, !range !2
  store i8 %875, i8* @_ZN5blink26RuntimeEnabledFeaturesBase53is_video_wake_lock_optimisation_hidden_muted_enabled_E, align 1
  %876 = getelementptr inbounds %"class.blink::RuntimeEnabledFeaturesBase::Backup", %"class.blink::RuntimeEnabledFeaturesBase::Backup"* %0, i64 0, i32 437
  %877 = load i8, i8* %876, align 1, !range !2
  store i8 %877, i8* @_ZN5blink26RuntimeEnabledFeaturesBase28is_virtual_keyboard_enabled_E, align 1
  %878 = getelementptr inbounds %"class.blink::RuntimeEnabledFeaturesBase::Backup", %"class.blink::RuntimeEnabledFeaturesBase::Backup"* %0, i64 0, i32 438
  %879 = load i8, i8* %878, align 1, !range !2
  store i8 %879, i8* @_ZN5blink26RuntimeEnabledFeaturesBase38is_visibility_collapse_column_enabled_E, align 1
  %880 = getelementptr inbounds %"class.blink::RuntimeEnabledFeaturesBase::Backup", %"class.blink::RuntimeEnabledFeaturesBase::Backup"* %0, i64 0, i32 439
  %881 = load i8, i8* %880, align 1, !range !2
  store i8 %881, i8* @_ZN5blink26RuntimeEnabledFeaturesBase34is_visibility_state_entry_enabled_E, align 1
  %882 = getelementptr inbounds %"class.blink::RuntimeEnabledFeaturesBase::Backup", %"class.blink::RuntimeEnabledFeaturesBase::Backup"* %0, i64 0, i32 440
  %883 = load i8, i8* %882, align 1, !range !2
  store i8 %883, i8* @_ZN5blink26RuntimeEnabledFeaturesBase21is_wake_lock_enabled_E, align 1
  %884 = getelementptr inbounds %"class.blink::RuntimeEnabledFeaturesBase::Backup", %"class.blink::RuntimeEnabledFeaturesBase::Backup"* %0, i64 0, i32 441
  %885 = load i8, i8* %884, align 1, !range !2
  store i8 %885, i8* @_ZN5blink26RuntimeEnabledFeaturesBase30is_web_animations_api_enabled_E, align 1
  %886 = getelementptr inbounds %"class.blink::RuntimeEnabledFeaturesBase::Backup", %"class.blink::RuntimeEnabledFeaturesBase::Backup"* %0, i64 0, i32 442
  %887 = load i8, i8* %886, align 1, !range !2
  store i8 %887, i8* @_ZN5blink26RuntimeEnabledFeaturesBase30is_web_animations_svg_enabled_E, align 1
  %888 = getelementptr inbounds %"class.blink::RuntimeEnabledFeaturesBase::Backup", %"class.blink::RuntimeEnabledFeaturesBase::Backup"* %0, i64 0, i32 443
  %889 = load i8, i8* %888, align 1, !range !2
  store i8 %889, i8* @_ZN5blink26RuntimeEnabledFeaturesBase34is_web_app_link_capturing_enabled_E, align 1
  %890 = getelementptr inbounds %"class.blink::RuntimeEnabledFeaturesBase::Backup", %"class.blink::RuntimeEnabledFeaturesBase::Backup"* %0, i64 0, i32 444
  %891 = load i8, i8* %890, align 1, !range !2
  store i8 %891, i8* @_ZN5blink26RuntimeEnabledFeaturesBase32is_web_apps_lock_screen_enabled_E, align 1
  %892 = getelementptr inbounds %"class.blink::RuntimeEnabledFeaturesBase::Backup", %"class.blink::RuntimeEnabledFeaturesBase::Backup"* %0, i64 0, i32 445
  %893 = load i8, i8* %892, align 1, !range !2
  store i8 %893, i8* @_ZN5blink26RuntimeEnabledFeaturesBase32is_web_app_url_handling_enabled_E, align 1
  %894 = getelementptr inbounds %"class.blink::RuntimeEnabledFeaturesBase::Backup", %"class.blink::RuntimeEnabledFeaturesBase::Backup"* %0, i64 0, i32 446
  %895 = load i8, i8* %894, align 1, !range !2
  store i8 %895, i8* @_ZN5blink26RuntimeEnabledFeaturesBase43is_web_app_window_controls_overlay_enabled_E, align 1
  %896 = getelementptr inbounds %"class.blink::RuntimeEnabledFeaturesBase::Backup", %"class.blink::RuntimeEnabledFeaturesBase::Backup"* %0, i64 0, i32 447
  %897 = load i8, i8* %896, align 1, !range !2
  store i8 %897, i8* @_ZN5blink26RuntimeEnabledFeaturesBase28is_web_assembly_csp_enabled_E, align 1
  %898 = getelementptr inbounds %"class.blink::RuntimeEnabledFeaturesBase::Backup", %"class.blink::RuntimeEnabledFeaturesBase::Backup"* %0, i64 0, i32 448
  %899 = load i8, i8* %898, align 1, !range !2
  store i8 %899, i8* @_ZN5blink26RuntimeEnabledFeaturesBase35is_web_assembly_exceptions_enabled_E, align 1
  %900 = getelementptr inbounds %"class.blink::RuntimeEnabledFeaturesBase::Backup", %"class.blink::RuntimeEnabledFeaturesBase::Backup"* %0, i64 0, i32 449
  %901 = load i8, i8* %900, align 1, !range !2
  store i8 %901, i8* @_ZN5blink26RuntimeEnabledFeaturesBase29is_web_assembly_simd_enabled_E, align 1
  %902 = getelementptr inbounds %"class.blink::RuntimeEnabledFeaturesBase::Backup", %"class.blink::RuntimeEnabledFeaturesBase::Backup"* %0, i64 0, i32 450
  %903 = load i8, i8* %902, align 1, !range !2
  store i8 %903, i8* @_ZN5blink26RuntimeEnabledFeaturesBase20is_web_auth_enabled_E, align 1
  %904 = getelementptr inbounds %"class.blink::RuntimeEnabledFeaturesBase::Backup", %"class.blink::RuntimeEnabledFeaturesBase::Backup"* %0, i64 0, i32 451
  %905 = load i8, i8* %904, align 1, !range !2
  store i8 %905, i8* @_ZN5blink26RuntimeEnabledFeaturesBase45is_web_authentication_conditional_ui_enabled_E, align 1
  %906 = getelementptr inbounds %"class.blink::RuntimeEnabledFeaturesBase::Backup", %"class.blink::RuntimeEnabledFeaturesBase::Backup"* %0, i64 0, i32 452
  %907 = load i8, i8* %906, align 1, !range !2
  store i8 %907, i8* @_ZN5blink26RuntimeEnabledFeaturesBase51is_web_authentication_large_blob_extension_enabled_E, align 1
  %908 = getelementptr inbounds %"class.blink::RuntimeEnabledFeaturesBase::Backup", %"class.blink::RuntimeEnabledFeaturesBase::Backup"* %0, i64 0, i32 453
  %909 = load i8, i8* %908, align 1, !range !2
  store i8 %909, i8* @_ZN5blink26RuntimeEnabledFeaturesBase55is_web_authentication_resident_key_requirement_enabled_E, align 1
  %910 = getelementptr inbounds %"class.blink::RuntimeEnabledFeaturesBase::Backup", %"class.blink::RuntimeEnabledFeaturesBase::Backup"* %0, i64 0, i32 454
  %911 = load i8, i8* %910, align 1, !range !2
  store i8 %911, i8* @_ZN5blink26RuntimeEnabledFeaturesBase25is_web_bluetooth_enabled_E, align 1
  %912 = getelementptr inbounds %"class.blink::RuntimeEnabledFeaturesBase::Backup", %"class.blink::RuntimeEnabledFeaturesBase::Backup"* %0, i64 0, i32 455
  %913 = load i8, i8* %912, align 1, !range !2
  store i8 %913, i8* @_ZN5blink26RuntimeEnabledFeaturesBase37is_web_bluetooth_get_devices_enabled_E, align 1
  %914 = getelementptr inbounds %"class.blink::RuntimeEnabledFeaturesBase::Backup", %"class.blink::RuntimeEnabledFeaturesBase::Backup"* %0, i64 0, i32 456
  %915 = load i8, i8* %914, align 1, !range !2
  store i8 %915, i8* @_ZN5blink26RuntimeEnabledFeaturesBase50is_web_bluetooth_manufacturer_data_filter_enabled_E, align 1
  %916 = getelementptr inbounds %"class.blink::RuntimeEnabledFeaturesBase::Backup", %"class.blink::RuntimeEnabledFeaturesBase::Backup"* %0, i64 0, i32 457
  %917 = load i8, i8* %916, align 1, !range !2
  store i8 %917, i8* @_ZN5blink26RuntimeEnabledFeaturesBase63is_web_bluetooth_remote_characteristic_new_write_value_enabled_E, align 1
  %918 = getelementptr inbounds %"class.blink::RuntimeEnabledFeaturesBase::Backup", %"class.blink::RuntimeEnabledFeaturesBase::Backup"* %0, i64 0, i32 458
  %919 = load i8, i8* %918, align 1, !range !2
  store i8 %919, i8* @_ZN5blink26RuntimeEnabledFeaturesBase34is_web_bluetooth_scanning_enabled_E, align 1
  %920 = getelementptr inbounds %"class.blink::RuntimeEnabledFeaturesBase::Backup", %"class.blink::RuntimeEnabledFeaturesBase::Backup"* %0, i64 0, i32 459
  %921 = load i8, i8* %920, align 1, !range !2
  store i8 %921, i8* @_ZN5blink26RuntimeEnabledFeaturesBase46is_web_bluetooth_watch_advertisements_enabled_E, align 1
  %922 = getelementptr inbounds %"class.blink::RuntimeEnabledFeaturesBase::Backup", %"class.blink::RuntimeEnabledFeaturesBase::Backup"* %0, i64 0, i32 460
  %923 = load i8, i8* %922, align 1, !range !2
  store i8 %923, i8* @_ZN5blink26RuntimeEnabledFeaturesBase21is_webcodecs_enabled_E, align 1
  %924 = getelementptr inbounds %"class.blink::RuntimeEnabledFeaturesBase::Backup", %"class.blink::RuntimeEnabledFeaturesBase::Backup"* %0, i64 0, i32 461
  %925 = load i8, i8* %924, align 1, !range !2
  store i8 %925, i8* @_ZN5blink26RuntimeEnabledFeaturesBase34is_web_crypto_curve_25519_enabled_E, align 1
  %926 = getelementptr inbounds %"class.blink::RuntimeEnabledFeaturesBase::Backup", %"class.blink::RuntimeEnabledFeaturesBase::Backup"* %0, i64 0, i32 462
  %927 = load i8, i8* %926, align 1, !range !2
  store i8 %927, i8* @_ZN5blink26RuntimeEnabledFeaturesBase34is_webgl_draft_extensions_enabled_E, align 1
  %928 = getelementptr inbounds %"class.blink::RuntimeEnabledFeaturesBase::Backup", %"class.blink::RuntimeEnabledFeaturesBase::Backup"* %0, i64 0, i32 463
  %929 = load i8, i8* %928, align 1, !range !2
  store i8 %929, i8* @_ZN5blink26RuntimeEnabledFeaturesBase32is_webgl_image_chromium_enabled_E, align 1
  %930 = getelementptr inbounds %"class.blink::RuntimeEnabledFeaturesBase::Backup", %"class.blink::RuntimeEnabledFeaturesBase::Backup"* %0, i64 0, i32 464
  %931 = load i8, i8* %930, align 1, !range !2
  store i8 %931, i8* @_ZN5blink26RuntimeEnabledFeaturesBase18is_webgpu_enabled_E, align 1
  %932 = getelementptr inbounds %"class.blink::RuntimeEnabledFeaturesBase::Backup", %"class.blink::RuntimeEnabledFeaturesBase::Backup"* %0, i64 0, i32 465
  %933 = load i8, i8* %932, align 1, !range !2
  store i8 %933, i8* @_ZN5blink26RuntimeEnabledFeaturesBase33is_webgpu_import_texture_enabled_E, align 1
  %934 = getelementptr inbounds %"class.blink::RuntimeEnabledFeaturesBase::Backup", %"class.blink::RuntimeEnabledFeaturesBase::Backup"* %0, i64 0, i32 466
  %935 = load i8, i8* %934, align 1, !range !2
  store i8 %935, i8* @_ZN5blink26RuntimeEnabledFeaturesBase19is_web_hid_enabled_E, align 1
  %936 = getelementptr inbounds %"class.blink::RuntimeEnabledFeaturesBase::Backup", %"class.blink::RuntimeEnabledFeaturesBase::Backup"* %0, i64 0, i32 467
  %937 = load i8, i8* %936, align 1, !range !2
  store i8 %937, i8* @_ZN5blink26RuntimeEnabledFeaturesBase18is_web_id_enabled_E, align 1
  %938 = getelementptr inbounds %"class.blink::RuntimeEnabledFeaturesBase::Backup", %"class.blink::RuntimeEnabledFeaturesBase::Backup"* %0, i64 0, i32 468
  %939 = load i8, i8* %938, align 1, !range !2
  store i8 %939, i8* @_ZN5blink26RuntimeEnabledFeaturesBase19is_web_nfc_enabled_E, align 1
  %940 = getelementptr inbounds %"class.blink::RuntimeEnabledFeaturesBase::Backup", %"class.blink::RuntimeEnabledFeaturesBase::Backup"* %0, i64 0, i32 469
  %941 = load i8, i8* %940, align 1, !range !2
  store i8 %941, i8* @_ZN5blink26RuntimeEnabledFeaturesBase19is_web_otp_enabled_E, align 1
  %942 = getelementptr inbounds %"class.blink::RuntimeEnabledFeaturesBase::Backup", %"class.blink::RuntimeEnabledFeaturesBase::Backup"* %0, i64 0, i32 470
  %943 = load i8, i8* %942, align 1, !range !2
  store i8 %943, i8* @_ZN5blink26RuntimeEnabledFeaturesBase44is_web_otp_assertion_feature_policy_enabled_E, align 1
  %944 = getelementptr inbounds %"class.blink::RuntimeEnabledFeaturesBase::Backup", %"class.blink::RuntimeEnabledFeaturesBase::Backup"* %0, i64 0, i32 471
  %945 = load i8, i8* %944, align 1, !range !2
  store i8 %945, i8* @_ZN5blink26RuntimeEnabledFeaturesBase25is_web_scheduler_enabled_E, align 1
  %946 = getelementptr inbounds %"class.blink::RuntimeEnabledFeaturesBase::Backup", %"class.blink::RuntimeEnabledFeaturesBase::Backup"* %0, i64 0, i32 472
  %947 = load i8, i8* %946, align 1, !range !2
  store i8 %947, i8* @_ZN5blink26RuntimeEnabledFeaturesBase21is_web_share_enabled_E, align 1
  %948 = getelementptr inbounds %"class.blink::RuntimeEnabledFeaturesBase::Backup", %"class.blink::RuntimeEnabledFeaturesBase::Backup"* %0, i64 0, i32 473
  %949 = load i8, i8* %948, align 1, !range !2
  store i8 %949, i8* @_ZN5blink26RuntimeEnabledFeaturesBase28is_websocket_stream_enabled_E, align 1
  %950 = getelementptr inbounds %"class.blink::RuntimeEnabledFeaturesBase::Backup", %"class.blink::RuntimeEnabledFeaturesBase::Backup"* %0, i64 0, i32 474
  %951 = load i8, i8* %950, align 1, !range !2
  store i8 %951, i8* @_ZN5blink26RuntimeEnabledFeaturesBase25is_web_transport_enabled_E, align 1
  %952 = getelementptr inbounds %"class.blink::RuntimeEnabledFeaturesBase::Backup", %"class.blink::RuntimeEnabledFeaturesBase::Backup"* %0, i64 0, i32 475
  %953 = load i8, i8* %952, align 1, !range !2
  store i8 %953, i8* @_ZN5blink26RuntimeEnabledFeaturesBase45is_web_transport_custom_certificates_enabled_E, align 1
  %954 = getelementptr inbounds %"class.blink::RuntimeEnabledFeaturesBase::Backup", %"class.blink::RuntimeEnabledFeaturesBase::Backup"* %0, i64 0, i32 476
  %955 = load i8, i8* %954, align 1, !range !2
  store i8 %955, i8* @_ZN5blink26RuntimeEnabledFeaturesBase19is_web_usb_enabled_E, align 1
  %956 = getelementptr inbounds %"class.blink::RuntimeEnabledFeaturesBase::Backup", %"class.blink::RuntimeEnabledFeaturesBase::Backup"* %0, i64 0, i32 477
  %957 = load i8, i8* %956, align 1, !range !2
  store i8 %957, i8* @_ZN5blink26RuntimeEnabledFeaturesBase40is_web_usb_on_dedicated_workers_enabled_E, align 1
  %958 = getelementptr inbounds %"class.blink::RuntimeEnabledFeaturesBase::Backup", %"class.blink::RuntimeEnabledFeaturesBase::Backup"* %0, i64 0, i32 478
  %959 = load i8, i8* %958, align 1, !range !2
  store i8 %959, i8* @_ZN5blink26RuntimeEnabledFeaturesBase27is_web_vtt_regions_enabled_E, align 1
  %960 = getelementptr inbounds %"class.blink::RuntimeEnabledFeaturesBase::Backup", %"class.blink::RuntimeEnabledFeaturesBase::Backup"* %0, i64 0, i32 479
  %961 = load i8, i8* %960, align 1, !range !2
  store i8 %961, i8* @_ZN5blink26RuntimeEnabledFeaturesBase18is_web_xr_enabled_E, align 1
  %962 = getelementptr inbounds %"class.blink::RuntimeEnabledFeaturesBase::Backup", %"class.blink::RuntimeEnabledFeaturesBase::Backup"* %0, i64 0, i32 480
  %963 = load i8, i8* %962, align 1, !range !2
  store i8 %963, i8* @_ZN5blink26RuntimeEnabledFeaturesBase26is_web_xr_anchors_enabled_E, align 1
  %964 = getelementptr inbounds %"class.blink::RuntimeEnabledFeaturesBase::Backup", %"class.blink::RuntimeEnabledFeaturesBase::Backup"* %0, i64 0, i32 481
  %965 = load i8, i8* %964, align 1, !range !2
  store i8 %965, i8* @_ZN5blink26RuntimeEnabledFeaturesBase28is_web_xr_ar_module_enabled_E, align 1
  %966 = getelementptr inbounds %"class.blink::RuntimeEnabledFeaturesBase::Backup", %"class.blink::RuntimeEnabledFeaturesBase::Backup"* %0, i64 0, i32 482
  %967 = load i8, i8* %966, align 1, !range !2
  store i8 %967, i8* @_ZN5blink26RuntimeEnabledFeaturesBase32is_web_xr_camera_access_enabled_E, align 1
  %968 = getelementptr inbounds %"class.blink::RuntimeEnabledFeaturesBase::Backup", %"class.blink::RuntimeEnabledFeaturesBase::Backup"* %0, i64 0, i32 483
  %969 = load i8, i8* %968, align 1, !range !2
  store i8 %969, i8* @_ZN5blink26RuntimeEnabledFeaturesBase24is_web_xr_depth_enabled_E, align 1
  %970 = getelementptr inbounds %"class.blink::RuntimeEnabledFeaturesBase::Backup", %"class.blink::RuntimeEnabledFeaturesBase::Backup"* %0, i64 0, i32 484
  %971 = load i8, i8* %970, align 1, !range !2
  store i8 %971, i8* @_ZN5blink26RuntimeEnabledFeaturesBase29is_web_xr_hand_input_enabled_E, align 1
  %972 = getelementptr inbounds %"class.blink::RuntimeEnabledFeaturesBase::Backup", %"class.blink::RuntimeEnabledFeaturesBase::Backup"* %0, i64 0, i32 485
  %973 = load i8, i8* %972, align 1, !range !2
  store i8 %973, i8* @_ZN5blink26RuntimeEnabledFeaturesBase27is_web_xr_hit_test_enabled_E, align 1
  %974 = getelementptr inbounds %"class.blink::RuntimeEnabledFeaturesBase::Backup", %"class.blink::RuntimeEnabledFeaturesBase::Backup"* %0, i64 0, i32 486
  %975 = load i8, i8* %974, align 1, !range !2
  store i8 %975, i8* @_ZN5blink26RuntimeEnabledFeaturesBase40is_web_xr_hit_test_entity_types_enabled_E, align 1
  %976 = getelementptr inbounds %"class.blink::RuntimeEnabledFeaturesBase::Backup", %"class.blink::RuntimeEnabledFeaturesBase::Backup"* %0, i64 0, i32 487
  %977 = load i8, i8* %976, align 1, !range !2
  store i8 %977, i8* @_ZN5blink26RuntimeEnabledFeaturesBase33is_web_xr_image_tracking_enabled_E, align 1
  %978 = getelementptr inbounds %"class.blink::RuntimeEnabledFeaturesBase::Backup", %"class.blink::RuntimeEnabledFeaturesBase::Backup"* %0, i64 0, i32 488
  %979 = load i8, i8* %978, align 1, !range !2
  store i8 %979, i8* @_ZN5blink26RuntimeEnabledFeaturesBase35is_web_xr_light_estimation_enabled_E, align 1
  %980 = getelementptr inbounds %"class.blink::RuntimeEnabledFeaturesBase::Backup", %"class.blink::RuntimeEnabledFeaturesBase::Backup"* %0, i64 0, i32 489
  %981 = load i8, i8* %980, align 1, !range !2
  store i8 %981, i8* @_ZN5blink26RuntimeEnabledFeaturesBase34is_web_xr_plane_detection_enabled_E, align 1
  %982 = getelementptr inbounds %"class.blink::RuntimeEnabledFeaturesBase::Backup", %"class.blink::RuntimeEnabledFeaturesBase::Backup"* %0, i64 0, i32 490
  %983 = load i8, i8* %982, align 1, !range !2
  store i8 %983, i8* @_ZN5blink26RuntimeEnabledFeaturesBase33is_web_xr_viewport_scale_enabled_E, align 1
  %984 = getelementptr inbounds %"class.blink::RuntimeEnabledFeaturesBase::Backup", %"class.blink::RuntimeEnabledFeaturesBase::Backup"* %0, i64 0, i32 491
  %985 = load i8, i8* %984, align 1, !range !2
  store i8 %985, i8* @_ZN5blink26RuntimeEnabledFeaturesBase31is_wheel_event_regions_enabled_E, align 1
  %986 = getelementptr inbounds %"class.blink::RuntimeEnabledFeaturesBase::Backup", %"class.blink::RuntimeEnabledFeaturesBase::Backup"* %0, i64 0, i32 492
  %987 = load i8, i8* %986, align 1, !range !2
  store i8 %987, i8* @_ZN5blink26RuntimeEnabledFeaturesBase28is_window_placement_enabled_E, align 1
  %988 = getelementptr inbounds %"class.blink::RuntimeEnabledFeaturesBase::Backup", %"class.blink::RuntimeEnabledFeaturesBase::Backup"* %0, i64 0, i32 493
  %989 = load i8, i8* %988, align 1, !range !2
  store i8 %989, i8* @_ZN5blink26RuntimeEnabledFeaturesBase27is_window_segments_enabled_E, align 1
  %990 = getelementptr inbounds %"class.blink::RuntimeEnabledFeaturesBase::Backup", %"class.blink::RuntimeEnabledFeaturesBase::Backup"* %0, i64 0, i32 494
  %991 = load i8, i8* %990, align 1, !range !2
  store i8 %991, i8* @_ZN5blink26RuntimeEnabledFeaturesBase16is_xslt_enabled_E, align 1
  ret void
}

; Function Attrs: nofree norecurse nounwind ssp uwtable writeonly
define hidden void @_ZN5blink26RuntimeEnabledFeaturesBase24SetStableFeaturesEnabledEb(i1 zeroext) local_unnamed_addr #1 align 2 {
  %2 = zext i1 %0 to i8
  store i8 %2, i8* @_ZN5blink26RuntimeEnabledFeaturesBase33is_accelerated_2d_canvas_enabled_E, align 1
  store i8 %2, i8* @_ZN5blink26RuntimeEnabledFeaturesBase38is_accelerated_small_canvases_enabled_E, align 1
  store i8 %2, i8* @_ZN5blink26RuntimeEnabledFeaturesBase43is_add_event_listener_abort_signal_enabled_E, align 1
  store i8 %2, i8* @_ZN5blink26RuntimeEnabledFeaturesBase31is_aom_aria_properties_enabled_E, align 1
  store i8 %2, i8* @_ZN5blink26RuntimeEnabledFeaturesBase21is_app_cache_enabled_E, align 1
  store i8 %2, i8* @_ZN5blink26RuntimeEnabledFeaturesBase40is_automatic_lazy_frame_loading_enabled_E, align 1
  store i8 %2, i8* @_ZN5blink26RuntimeEnabledFeaturesBase40is_automatic_lazy_image_loading_enabled_E, align 1
  store i8 %2, i8* @_ZN5blink26RuntimeEnabledFeaturesBase28is_background_fetch_enabled_E, align 1
  store i8 %2, i8* @_ZN5blink26RuntimeEnabledFeaturesBase47is_background_video_track_optimization_enabled_E, align 1
  store i8 %2, i8* @_ZN5blink26RuntimeEnabledFeaturesBase19is_badging_enabled_E, align 1
  store i8 %2, i8* @_ZN5blink26RuntimeEnabledFeaturesBase43is_block_credentialed_subresources_enabled_E, align 1
  store i8 %2, i8* @_ZN5blink26RuntimeEnabledFeaturesBase41is_blocking_downloads_in_sandbox_enabled_E, align 1
  store i8 %2, i8* @_ZN5blink26RuntimeEnabledFeaturesBase32is_capture_time_in_csrc_enabled_E, align 1
  store i8 %2, i8* @_ZN5blink26RuntimeEnabledFeaturesBase31is_click_pointer_event_enabled_E, align 1
  store i8 %2, i8* @_ZN5blink26RuntimeEnabledFeaturesBase40is_composite_relative_keyframes_enabled_E, align 1
  store i8 %2, i8* @_ZN5blink26RuntimeEnabledFeaturesBase25is_composite_svg_enabled_E, align 1
  store i8 %2, i8* @_ZN5blink26RuntimeEnabledFeaturesBase34is_cross_origin_isolation_enabled_E, align 1
  store i8 %2, i8* @_ZN5blink26RuntimeEnabledFeaturesBase34is_css_content_visibility_enabled_E, align 1
  store i8 %2, i8* @_ZN5blink26RuntimeEnabledFeaturesBase29is_css_focus_visible_enabled_E, align 1
  store i8 %2, i8* @_ZN5blink26RuntimeEnabledFeaturesBase37is_css_font_face_size_adjust_enabled_E, align 1
  store i8 %2, i8* @_ZN5blink26RuntimeEnabledFeaturesBase31is_css_hex_alpha_color_enabled_E, align 1
  store i8 %2, i8* @_ZN5blink26RuntimeEnabledFeaturesBase42is_css_target_text_pseudo_element_enabled_E, align 1
  store i8 %2, i8* @_ZN5blink26RuntimeEnabledFeaturesBase37is_custom_state_pseudo_class_enabled_E, align 1
  store i8 %2, i8* @_ZN5blink26RuntimeEnabledFeaturesBase20is_database_enabled_E, align 1
  store i8 %2, i8* @_ZN5blink26RuntimeEnabledFeaturesBase34is_declarative_shadow_dom_enabled_E, align 1
  store i8 %2, i8* @_ZN5blink26RuntimeEnabledFeaturesBase41is_decode_jpeg_420_images_to_yuv_enabled_E, align 1
  store i8 %2, i8* @_ZN5blink26RuntimeEnabledFeaturesBase44is_decode_lossy_web_p_images_to_yuv_enabled_E, align 1
  store i8 %2, i8* @_ZN5blink26RuntimeEnabledFeaturesBase42is_dialog_focus_new_spec_behavior_enabled_E, align 1
  store i8 %2, i8* @_ZN5blink26RuntimeEnabledFeaturesBase27is_document_policy_enabled_E, align 1
  store i8 %2, i8* @_ZN5blink26RuntimeEnabledFeaturesBase22is_editing_ng_enabled_E, align 1
  store i8 %2, i8* @_ZN5blink26RuntimeEnabledFeaturesBase51is_encrypted_media_encryption_scheme_query_enabled_E, align 1
  store i8 %2, i8* @_ZN5blink26RuntimeEnabledFeaturesBase45is_encrypted_media_hdcp_policy_check_enabled_E, align 1
  store i8 %2, i8* @_ZN5blink26RuntimeEnabledFeaturesBase36is_enter_key_hint_attribute_enabled_E, align 1
  store i8 %2, i8* @_ZN5blink26RuntimeEnabledFeaturesBase24is_event_timing_enabled_E, align 1
  store i8 %2, i8* @_ZN5blink26RuntimeEnabledFeaturesBase49is_expensive_background_timer_throttling_enabled_E, align 1
