; ModuleID = '../../third_party/vulkan-deps/glslang/src/glslang/MachineIndependent/Scan.cpp'
source_filename = "../../third_party/vulkan-deps/glslang/src/glslang/MachineIndependent/Scan.cpp"
target datalayout = "e-m:e-i64:64-f80:128-n8:16:32:64-S128"
target triple = "x86_64-unknown-linux-gnu"

module asm ".symver exp, exp@GLIBC_2.2.5"
module asm ".symver exp2, exp2@GLIBC_2.2.5"
module asm ".symver exp2f, exp2f@GLIBC_2.2.5"
module asm ".symver expf, expf@GLIBC_2.2.5"
module asm ".symver lgamma, lgamma@GLIBC_2.2.5"
module asm ".symver lgammaf, lgammaf@GLIBC_2.2.5"
module asm ".symver lgammal, lgammal@GLIBC_2.2.5"
module asm ".symver log, log@GLIBC_2.2.5"
module asm ".symver log2, log2@GLIBC_2.2.5"
module asm ".symver log2f, log2f@GLIBC_2.2.5"
module asm ".symver logf, logf@GLIBC_2.2.5"
module asm ".symver pow, pow@GLIBC_2.2.5"
module asm ".symver powf, powf@GLIBC_2.2.5"

%"class.std::__1::unordered_map.387" = type { %"class.std::__1::__hash_table.388" }
%"class.std::__1::__hash_table.388" = type <{ %"class.std::__1::unique_ptr.389", %"class.std::__1::__compressed_pair.399", %"class.std::__1::__compressed_pair.404", %"class.std::__1::__compressed_pair.407", [4 x i8] }>
%"class.std::__1::unique_ptr.389" = type { %"class.std::__1::__compressed_pair.390" }
%"class.std::__1::__compressed_pair.390" = type { %"struct.std::__1::__compressed_pair_elem.391", %"struct.std::__1::__compressed_pair_elem.393" }
%"struct.std::__1::__compressed_pair_elem.391" = type { %"struct.std::__1::__hash_node_base.392"** }
%"struct.std::__1::__hash_node_base.392" = type { %"struct.std::__1::__hash_node_base.392"* }
%"struct.std::__1::__compressed_pair_elem.393" = type { %"class.std::__1::__bucket_list_deallocator.394" }
%"class.std::__1::__bucket_list_deallocator.394" = type { %"class.std::__1::__compressed_pair.395" }
%"class.std::__1::__compressed_pair.395" = type { %"struct.std::__1::__compressed_pair_elem.47" }
%"struct.std::__1::__compressed_pair_elem.47" = type { i64 }
%"class.std::__1::__compressed_pair.399" = type { %"struct.std::__1::__compressed_pair_elem.400" }
%"struct.std::__1::__compressed_pair_elem.400" = type { %"struct.std::__1::__hash_node_base.392" }
%"class.std::__1::__compressed_pair.404" = type { %"struct.std::__1::__compressed_pair_elem.47" }
%"class.std::__1::__compressed_pair.407" = type { %"struct.std::__1::__compressed_pair_elem.114" }
%"struct.std::__1::__compressed_pair_elem.114" = type { float }
%"class.std::__1::unordered_set.411" = type { %"class.std::__1::__hash_table.412" }
%"class.std::__1::__hash_table.412" = type <{ %"class.std::__1::unique_ptr.413", %"class.std::__1::__compressed_pair.423", %"class.std::__1::__compressed_pair.428", %"class.std::__1::__compressed_pair.430", [4 x i8] }>
%"class.std::__1::unique_ptr.413" = type { %"class.std::__1::__compressed_pair.414" }
%"class.std::__1::__compressed_pair.414" = type { %"struct.std::__1::__compressed_pair_elem.415", %"struct.std::__1::__compressed_pair_elem.417" }
%"struct.std::__1::__compressed_pair_elem.415" = type { %"struct.std::__1::__hash_node_base.416"** }
%"struct.std::__1::__hash_node_base.416" = type { %"struct.std::__1::__hash_node_base.416"* }
%"struct.std::__1::__compressed_pair_elem.417" = type { %"class.std::__1::__bucket_list_deallocator.418" }
%"class.std::__1::__bucket_list_deallocator.418" = type { %"class.std::__1::__compressed_pair.419" }
%"class.std::__1::__compressed_pair.419" = type { %"struct.std::__1::__compressed_pair_elem.47" }
%"class.std::__1::__compressed_pair.423" = type { %"struct.std::__1::__compressed_pair_elem.424" }
%"struct.std::__1::__compressed_pair_elem.424" = type { %"struct.std::__1::__hash_node_base.416" }
%"class.std::__1::__compressed_pair.428" = type { %"struct.std::__1::__compressed_pair_elem.47" }
%"class.std::__1::__compressed_pair.430" = type { %"struct.std::__1::__compressed_pair_elem.114" }
%"class.std::__1::basic_string" = type { %"class.std::__1::__compressed_pair" }
%"class.std::__1::__compressed_pair" = type { %"struct.std::__1::__compressed_pair_elem", %"struct.std::__1::__compressed_pair_elem.0" }
%"struct.std::__1::__compressed_pair_elem" = type { %"struct.std::__1::basic_string<char, std::__1::char_traits<char>, glslang::pool_allocator<char> >::__rep" }
%"struct.std::__1::basic_string<char, std::__1::char_traits<char>, glslang::pool_allocator<char> >::__rep" = type { %union.anon }
%union.anon = type { %"struct.std::__1::basic_string<char, std::__1::char_traits<char>, glslang::pool_allocator<char> >::__long" }
%"struct.std::__1::basic_string<char, std::__1::char_traits<char>, glslang::pool_allocator<char> >::__long" = type { i8*, i64, i64 }
%"struct.std::__1::__compressed_pair_elem.0" = type { %"class.glslang::pool_allocator" }
%"class.glslang::pool_allocator" = type { %"class.glslang::TPoolAllocator"* }
%"class.glslang::TPoolAllocator" = type { i64, i64, i64, i64, i64, %"struct.glslang::TPoolAllocator::tHeader"*, %"struct.glslang::TPoolAllocator::tHeader"*, %"class.std::__1::vector", i32, i64 }
%"struct.glslang::TPoolAllocator::tHeader" = type { %"struct.glslang::TPoolAllocator::tHeader"*, i64 }
%"class.std::__1::vector" = type { %"class.std::__1::__vector_base" }
%"class.std::__1::__vector_base" = type { %"struct.glslang::TPoolAllocator::tAllocState"*, %"struct.glslang::TPoolAllocator::tAllocState"*, %"class.std::__1::__compressed_pair.1" }
%"struct.glslang::TPoolAllocator::tAllocState" = type { i64, %"struct.glslang::TPoolAllocator::tHeader"* }
%"class.std::__1::__compressed_pair.1" = type { %"struct.std::__1::__compressed_pair_elem.2" }
%"struct.std::__1::__compressed_pair_elem.2" = type { %"struct.glslang::TPoolAllocator::tAllocState"* }
%union.anon.249 = type { double }
%"class.glslang::TInputScanner" = type <{ i32 (...)**, i32, [4 x i8], i8**, i64*, i32, [4 x i8], i64, %"struct.glslang::TSourceLoc"*, i32, i32, %"struct.glslang::TSourceLoc", i8, i8, [6 x i8] }>
%"struct.glslang::TSourceLoc" = type { %"class.std::__1::basic_string"*, i32, i32, i32 }
%union.YYSTYPE = type { %struct.anon.12 }
%struct.anon.12 = type { %"struct.glslang::TSourceLoc", i32, %union.anon.13, %union.anon.29, %"struct.glslang::TArraySizes"* }
%union.anon.13 = type { %"struct.glslang::TIntermNodePair" }
%"struct.glslang::TIntermNodePair" = type { %class.TIntermNode*, %class.TIntermNode* }
%class.TIntermNode = type { i32 (...)**, %"struct.glslang::TSourceLoc" }
%union.anon.29 = type { %"class.glslang::TPublicType" }
%"class.glslang::TPublicType" = type { i32, %"struct.glslang::TSampler", %"class.glslang::TQualifier", %"struct.glslang::TShaderQualifiers", i16, %"struct.glslang::TArraySizes"*, %"class.glslang::TType"*, %"struct.glslang::TSourceLoc", %"struct.glslang::TArraySizes"* }
%"struct.glslang::TSampler" = type { i32 }
%"class.glslang::TQualifier" = type <{ i8*, i64, i32, i32, i24, i64, i32, i8, i8, i8, i8, i8, [3 x i8], i32, i8, [3 x i8] }>
%"struct.glslang::TShaderQualifiers" = type { i32, i8, i8, i32, i32, i32, i32, i8, [3 x i32], [3 x i8], [3 x i32], i8, i8, i32, i8, i32, i32, i8, i8, i8, i32, i8 }
%"class.glslang::TType" = type { i32 (...)**, i24, [4 x i8], %"class.glslang::TQualifier", %"struct.glslang::TArraySizes"*, %union.anon.21, %"class.std::__1::basic_string"*, %"class.std::__1::basic_string"*, %"struct.glslang::TSampler", %"struct.glslang::TArraySizes"* }
%union.anon.21 = type { %"class.glslang::TVector.22"* }
%"class.glslang::TVector.22" = type { %"class.std::__1::vector.23" }
%"class.std::__1::vector.23" = type { %"class.std::__1::__vector_base.24" }
%"class.std::__1::__vector_base.24" = type { %"struct.glslang::TTypeLoc"*, %"struct.glslang::TTypeLoc"*, %"class.std::__1::__compressed_pair.25" }
%"struct.glslang::TTypeLoc" = type { %"class.glslang::TType"*, %"struct.glslang::TSourceLoc" }
%"class.std::__1::__compressed_pair.25" = type { %"struct.std::__1::__compressed_pair_elem.26", %"struct.std::__1::__compressed_pair_elem.27" }
%"struct.std::__1::__compressed_pair_elem.26" = type { %"struct.glslang::TTypeLoc"* }
%"struct.std::__1::__compressed_pair_elem.27" = type { %"class.glslang::pool_allocator.28" }
%"class.glslang::pool_allocator.28" = type { %"class.glslang::TPoolAllocator"* }
%"struct.glslang::TArraySizes" = type <{ %"struct.glslang::TSmallArrayVector", i32, i8, [3 x i8] }>
%"struct.glslang::TSmallArrayVector" = type { i32 (...)**, %"class.glslang::TVector.14"* }
%"class.glslang::TVector.14" = type { %"class.std::__1::vector.15" }
%"class.std::__1::vector.15" = type { %"class.std::__1::__vector_base.16" }
%"class.std::__1::__vector_base.16" = type { %"struct.glslang::TArraySize"*, %"struct.glslang::TArraySize"*, %"class.std::__1::__compressed_pair.17" }
%"struct.glslang::TArraySize" = type { i32, %"class.glslang::TIntermTyped"* }
%"class.glslang::TIntermTyped" = type { %class.TIntermNode, %"class.glslang::TType" }
%"class.std::__1::__compressed_pair.17" = type { %"struct.std::__1::__compressed_pair_elem.18", %"struct.std::__1::__compressed_pair_elem.19" }
%"struct.std::__1::__compressed_pair_elem.18" = type { %"struct.glslang::TArraySize"* }
%"struct.std::__1::__compressed_pair_elem.19" = type { %"class.glslang::pool_allocator.20" }
%"class.glslang::pool_allocator.20" = type { %"class.glslang::TPoolAllocator"* }
%"class.glslang::TParseContext" = type { %"class.glslang::TParseContextBase", i8, %"class.std::__1::basic_string"*, %"class.glslang::TQualifier", [21 x i32], %struct.TBuiltInResource, %struct.TLimits*, [5376 x i32], %"class.glslang::TPrecisionManager", %"class.glslang::TQualifier", %"class.glslang::TQualifier", %"class.glslang::TQualifier", %"class.glslang::TQualifier", %"class.glslang::TQualifier", %"class.std::__1::basic_string", i32*, i8, %"class.std::__1::set.359", %"class.glslang::TVector.369", %"class.std::__1::map.376", %"class.std::__1::map.376", %"class.glslang::TVector.242" }
%"class.glslang::TParseContextBase" = type { %"class.glslang::TParseVersions", i8*, %"class.glslang::TSymbolTable"*, i32, i32, i32, i32, i32, %"class.glslang::TType"*, i8, i8, %"class.glslang::TList.219", %"class.glslang::TList.226", %"struct.glslang::TPragma", i32, i32, i8, %"class.glslang::TVector.242", %"class.glslang::TScanContext"*, %"class.glslang::TPpContext"*, %struct.TBuiltInResource, %struct.TLimits*, %"class.std::__1::basic_string", %"class.std::__1::function", %"class.std::__1::function.306", %"class.std::__1::function.313", %"class.std::__1::function.318", %"class.std::__1::function.323", %"class.glslang::TVariable"*, i32, i32, i32, %"class.glslang::TMap.344", i32, %"class.glslang::TMap.353" }
%"class.glslang::TParseVersions" = type { i32 (...)**, i8, i32, %class.TInfoSink*, i32, i32, %"struct.glslang::SpvVersion", %"class.glslang::TIntermediate"*, %"class.glslang::TMap", %"class.glslang::TMap.195", i32, i32, %"class.glslang::TInputScanner"* }
%class.TInfoSink = type { %"class.glslang::TInfoSinkBase", %"class.glslang::TInfoSinkBase" }
%"class.glslang::TInfoSinkBase" = type <{ %"class.std::__1::basic_string.38", i32, [4 x i8] }>
%"class.std::__1::basic_string.38" = type { %"class.std::__1::__compressed_pair.39" }
%"class.std::__1::__compressed_pair.39" = type { %"struct.std::__1::__compressed_pair_elem.40" }
%"struct.std::__1::__compressed_pair_elem.40" = type { %"struct.std::__1::basic_string<char, std::__1::char_traits<char>, std::__1::allocator<char> >::__rep" }
%"struct.std::__1::basic_string<char, std::__1::char_traits<char>, std::__1::allocator<char> >::__rep" = type { %union.anon.41 }
%union.anon.41 = type { %"struct.std::__1::basic_string<char, std::__1::char_traits<char>, std::__1::allocator<char> >::__long" }
%"struct.std::__1::basic_string<char, std::__1::char_traits<char>, std::__1::allocator<char> >::__long" = type { i8*, i64, i64 }
%"struct.glslang::SpvVersion" = type <{ i32, i32, i32, i32, i8, [3 x i8] }>
%"class.glslang::TIntermediate" = type { i32, %"class.std::__1::basic_string.38", %"class.std::__1::basic_string.38", %"class.std::__1::list", i32, i32, %"struct.glslang::SpvVersion", %class.TIntermNode*, %"class.std::__1::set", %"class.glslang::MustBeAssigned", i32, i32, i32, i8, i8, i8, i8, i8, [3 x i32], [3 x i8], [3 x i32], i64, %"class.std::__1::basic_string.38", %"class.std::__1::basic_string.38", i32, i32, i32, i8*, i8*, i32, i8, i32, i32, i32, i32, i8, i8, i32, i32, i32, i8, i8, i8, i32, i8, i32, i8, %"class.std::__1::vector.58", i8, i8, i8, i32, i32, i32, i32, i8, %"struct.std::__1::array", %"struct.std::__1::array.72", %"class.std::__1::vector.82", i8, i8, i8, i8, i8, i8, i8, %"class.std::__1::set.89", i32, i8, i8, i8, i8, %"class.std::__1::unordered_map", i32, %"class.glslang::TNumericFeatures", %"class.std::__1::unordered_map.116", %"class.std::__1::unordered_set", %"class.std::__1::vector.164", [4 x %"class.std::__1::vector.171"], [2 x %"class.std::__1::vector.60"], %"class.std::__1::set.89", %"class.std::__1::basic_string.38", %"class.std::__1::basic_string.38", %"class.std::__1::map.178", %"class.glslang::TProcesses" }
%"class.std::__1::list" = type { %"class.std::__1::__list_imp" }
%"class.std::__1::__list_imp" = type { %"struct.std::__1::__list_node_base", %"class.std::__1::__compressed_pair.46" }
%"struct.std::__1::__list_node_base" = type { %"struct.std::__1::__list_node_base"*, %"struct.std::__1::__list_node_base"* }
%"class.std::__1::__compressed_pair.46" = type { %"struct.std::__1::__compressed_pair_elem.47" }
%"class.std::__1::set" = type { %"class.std::__1::__tree" }
%"class.std::__1::__tree" = type { %"class.std::__1::__tree_end_node"*, %"class.std::__1::__compressed_pair.51", %"class.std::__1::__compressed_pair.56" }
%"class.std::__1::__tree_end_node" = type { %"class.std::__1::__tree_node_base"* }
%"class.std::__1::__tree_node_base" = type <{ %"class.std::__1::__tree_end_node", %"class.std::__1::__tree_node_base"*, %"class.std::__1::__tree_end_node"*, i8, [7 x i8] }>
%"class.std::__1::__compressed_pair.51" = type { %"struct.std::__1::__compressed_pair_elem.52" }
%"struct.std::__1::__compressed_pair_elem.52" = type { %"class.std::__1::__tree_end_node" }
%"class.std::__1::__compressed_pair.56" = type { %"struct.std::__1::__compressed_pair_elem.47" }
%"class.glslang::MustBeAssigned" = type <{ %struct.TBuiltInResource, i8, [3 x i8] }>
%"class.std::__1::vector.58" = type { %"class.std::__1::__vector_base.59" }
%"class.std::__1::__vector_base.59" = type { %"struct.glslang::TXfbBuffer"*, %"struct.glslang::TXfbBuffer"*, %"class.std::__1::__compressed_pair.67" }
%"struct.glslang::TXfbBuffer" = type <{ %"class.std::__1::vector.60", i32, i32, i8, i8, i8, [5 x i8] }>
%"class.std::__1::vector.60" = type { %"class.std::__1::__vector_base.61" }
%"class.std::__1::__vector_base.61" = type { %"struct.glslang::TRange"*, %"struct.glslang::TRange"*, %"class.std::__1::__compressed_pair.62" }
%"struct.glslang::TRange" = type { i32, i32 }
%"class.std::__1::__compressed_pair.62" = type { %"struct.std::__1::__compressed_pair_elem.63" }
%"struct.std::__1::__compressed_pair_elem.63" = type { %"struct.glslang::TRange"* }
%"class.std::__1::__compressed_pair.67" = type { %"struct.std::__1::__compressed_pair_elem.68" }
%"struct.std::__1::__compressed_pair_elem.68" = type { %"struct.glslang::TXfbBuffer"* }
%"struct.std::__1::array" = type { [6 x i32] }
%"struct.std::__1::array.72" = type { [6 x %"class.std::__1::map"] }
%"class.std::__1::map" = type { %"class.std::__1::__tree.73" }
%"class.std::__1::__tree.73" = type { %"class.std::__1::__tree_end_node"*, %"class.std::__1::__compressed_pair.74", %"class.std::__1::__compressed_pair.78" }
%"class.std::__1::__compressed_pair.74" = type { %"struct.std::__1::__compressed_pair_elem.52" }
%"class.std::__1::__compressed_pair.78" = type { %"struct.std::__1::__compressed_pair_elem.47" }
%"class.std::__1::vector.82" = type { %"class.std::__1::__vector_base.83" }
%"class.std::__1::__vector_base.83" = type { %"class.std::__1::basic_string.38"*, %"class.std::__1::basic_string.38"*, %"class.std::__1::__compressed_pair.84" }
%"class.std::__1::__compressed_pair.84" = type { %"struct.std::__1::__compressed_pair_elem.85" }
%"struct.std::__1::__compressed_pair_elem.85" = type { %"class.std::__1::basic_string.38"* }
%"class.std::__1::unordered_map" = type { %"class.std::__1::__hash_table" }
%"class.std::__1::__hash_table" = type <{ %"class.std::__1::unique_ptr", %"class.std::__1::__compressed_pair.106", %"class.std::__1::__compressed_pair.111", %"class.std::__1::__compressed_pair.113", [4 x i8] }>
%"class.std::__1::unique_ptr" = type { %"class.std::__1::__compressed_pair.99" }
%"class.std::__1::__compressed_pair.99" = type { %"struct.std::__1::__compressed_pair_elem.100", %"struct.std::__1::__compressed_pair_elem.101" }
%"struct.std::__1::__compressed_pair_elem.100" = type { %"struct.std::__1::__hash_node_base"** }
%"struct.std::__1::__hash_node_base" = type { %"struct.std::__1::__hash_node_base"* }
%"struct.std::__1::__compressed_pair_elem.101" = type { %"class.std::__1::__bucket_list_deallocator" }
%"class.std::__1::__bucket_list_deallocator" = type { %"class.std::__1::__compressed_pair.102" }
%"class.std::__1::__compressed_pair.102" = type { %"struct.std::__1::__compressed_pair_elem.47" }
%"class.std::__1::__compressed_pair.106" = type { %"struct.std::__1::__compressed_pair_elem.107" }
%"struct.std::__1::__compressed_pair_elem.107" = type { %"struct.std::__1::__hash_node_base" }
%"class.std::__1::__compressed_pair.111" = type { %"struct.std::__1::__compressed_pair_elem.47" }
%"class.std::__1::__compressed_pair.113" = type { %"struct.std::__1::__compressed_pair_elem.114" }
%"class.glslang::TNumericFeatures" = type { i32 }
%"class.std::__1::unordered_map.116" = type { %"class.std::__1::__hash_table.117" }
%"class.std::__1::__hash_table.117" = type <{ %"class.std::__1::unique_ptr.118", %"class.std::__1::__compressed_pair.128", %"class.std::__1::__compressed_pair.133", %"class.std::__1::__compressed_pair.136", [4 x i8] }>
%"class.std::__1::unique_ptr.118" = type { %"class.std::__1::__compressed_pair.119" }
%"class.std::__1::__compressed_pair.119" = type { %"struct.std::__1::__compressed_pair_elem.120", %"struct.std::__1::__compressed_pair_elem.122" }
%"struct.std::__1::__compressed_pair_elem.120" = type { %"struct.std::__1::__hash_node_base.121"** }
%"struct.std::__1::__hash_node_base.121" = type { %"struct.std::__1::__hash_node_base.121"* }
%"struct.std::__1::__compressed_pair_elem.122" = type { %"class.std::__1::__bucket_list_deallocator.123" }
%"class.std::__1::__bucket_list_deallocator.123" = type { %"class.std::__1::__compressed_pair.124" }
%"class.std::__1::__compressed_pair.124" = type { %"struct.std::__1::__compressed_pair_elem.47" }
%"class.std::__1::__compressed_pair.128" = type { %"struct.std::__1::__compressed_pair_elem.129" }
%"struct.std::__1::__compressed_pair_elem.129" = type { %"struct.std::__1::__hash_node_base.121" }
%"class.std::__1::__compressed_pair.133" = type { %"struct.std::__1::__compressed_pair_elem.47" }
%"class.std::__1::__compressed_pair.136" = type { %"struct.std::__1::__compressed_pair_elem.114" }
%"class.std::__1::unordered_set" = type { %"class.std::__1::__hash_table.140" }
%"class.std::__1::__hash_table.140" = type <{ %"class.std::__1::unique_ptr.141", %"class.std::__1::__compressed_pair.151", %"class.std::__1::__compressed_pair.156", %"class.std::__1::__compressed_pair.160", [4 x i8] }>
%"class.std::__1::unique_ptr.141" = type { %"class.std::__1::__compressed_pair.142" }
%"class.std::__1::__compressed_pair.142" = type { %"struct.std::__1::__compressed_pair_elem.143", %"struct.std::__1::__compressed_pair_elem.145" }
%"struct.std::__1::__compressed_pair_elem.143" = type { %"struct.std::__1::__hash_node_base.144"** }
%"struct.std::__1::__hash_node_base.144" = type { %"struct.std::__1::__hash_node_base.144"* }
%"struct.std::__1::__compressed_pair_elem.145" = type { %"class.std::__1::__bucket_list_deallocator.146" }
%"class.std::__1::__bucket_list_deallocator.146" = type { %"class.std::__1::__compressed_pair.147" }
%"class.std::__1::__compressed_pair.147" = type { %"struct.std::__1::__compressed_pair_elem.47" }
%"class.std::__1::__compressed_pair.151" = type { %"struct.std::__1::__compressed_pair_elem.152" }
%"struct.std::__1::__compressed_pair_elem.152" = type { %"struct.std::__1::__hash_node_base.144" }
%"class.std::__1::__compressed_pair.156" = type { %"struct.std::__1::__compressed_pair_elem.47" }
%"class.std::__1::__compressed_pair.160" = type { %"struct.std::__1::__compressed_pair_elem.114" }
%"class.std::__1::vector.164" = type { %"class.std::__1::__vector_base.165" }
%"class.std::__1::__vector_base.165" = type { %"struct.glslang::TOffsetRange"*, %"struct.glslang::TOffsetRange"*, %"class.std::__1::__compressed_pair.166" }
%"struct.glslang::TOffsetRange" = type { %"struct.glslang::TRange", %"struct.glslang::TRange" }
%"class.std::__1::__compressed_pair.166" = type { %"struct.std::__1::__compressed_pair_elem.167" }
%"struct.std::__1::__compressed_pair_elem.167" = type { %"struct.glslang::TOffsetRange"* }
%"class.std::__1::vector.171" = type { %"class.std::__1::__vector_base.172" }
%"class.std::__1::__vector_base.172" = type { %"struct.glslang::TIoRange"*, %"struct.glslang::TIoRange"*, %"class.std::__1::__compressed_pair.173" }
%"struct.glslang::TIoRange" = type { %"struct.glslang::TRange", %"struct.glslang::TRange", i32, i32 }
%"class.std::__1::__compressed_pair.173" = type { %"struct.std::__1::__compressed_pair_elem.174" }
%"struct.std::__1::__compressed_pair_elem.174" = type { %"struct.glslang::TIoRange"* }
%"class.std::__1::set.89" = type { %"class.std::__1::__tree.90" }
%"class.std::__1::__tree.90" = type { %"class.std::__1::__tree_end_node"*, %"class.std::__1::__compressed_pair.91", %"class.std::__1::__compressed_pair.95" }
%"class.std::__1::__compressed_pair.91" = type { %"struct.std::__1::__compressed_pair_elem.52" }
%"class.std::__1::__compressed_pair.95" = type { %"struct.std::__1::__compressed_pair_elem.47" }
%"class.std::__1::map.178" = type { %"class.std::__1::__tree.179" }
%"class.std::__1::__tree.179" = type { %"class.std::__1::__tree_end_node"*, %"class.std::__1::__compressed_pair.180", %"class.std::__1::__compressed_pair.184" }
%"class.std::__1::__compressed_pair.180" = type { %"struct.std::__1::__compressed_pair_elem.52" }
%"class.std::__1::__compressed_pair.184" = type { %"struct.std::__1::__compressed_pair_elem.47" }
%"class.glslang::TProcesses" = type { %"class.std::__1::vector.82" }
%"class.glslang::TMap" = type { %"class.std::__1::map.187" }
%"class.std::__1::map.187" = type { %"class.std::__1::__tree.188" }
%"class.std::__1::__tree.188" = type { %"class.std::__1::__tree_end_node"*, %"class.std::__1::__compressed_pair.189", %"class.std::__1::__compressed_pair.192" }
%"class.std::__1::__compressed_pair.189" = type { %"struct.std::__1::__compressed_pair_elem.52", %"struct.std::__1::__compressed_pair_elem.190" }
%"struct.std::__1::__compressed_pair_elem.190" = type { %"class.glslang::pool_allocator.191" }
%"class.glslang::pool_allocator.191" = type { %"class.glslang::TPoolAllocator"* }
%"class.std::__1::__compressed_pair.192" = type { %"struct.std::__1::__compressed_pair_elem.47" }
%"class.glslang::TMap.195" = type { %"class.std::__1::map.196" }
%"class.std::__1::map.196" = type { %"class.std::__1::__tree.197" }
%"class.std::__1::__tree.197" = type { %"class.std::__1::__tree_end_node"*, %"class.std::__1::__compressed_pair.198", %"class.std::__1::__compressed_pair.201" }
%"class.std::__1::__compressed_pair.198" = type { %"struct.std::__1::__compressed_pair_elem.52", %"struct.std::__1::__compressed_pair_elem.199" }
%"struct.std::__1::__compressed_pair_elem.199" = type { %"class.glslang::pool_allocator.200" }
%"class.glslang::pool_allocator.200" = type { %"class.glslang::TPoolAllocator"* }
%"class.std::__1::__compressed_pair.201" = type { %"struct.std::__1::__compressed_pair_elem.47" }
%"class.glslang::TSymbolTable" = type { %"class.std::__1::vector.204", i64, i8, i8, i32 }
%"class.std::__1::vector.204" = type { %"class.std::__1::__vector_base.205" }
%"class.std::__1::__vector_base.205" = type { %"class.glslang::TSymbolTableLevel"**, %"class.glslang::TSymbolTableLevel"**, %"class.std::__1::__compressed_pair.214" }
%"class.glslang::TSymbolTableLevel" = type <{ %"class.std::__1::map.206", i32*, i32, i8, [3 x i8] }>
%"class.std::__1::map.206" = type { %"class.std::__1::__tree.207" }
%"class.std::__1::__tree.207" = type { %"class.std::__1::__tree_end_node"*, %"class.std::__1::__compressed_pair.208", %"class.std::__1::__compressed_pair.211" }
%"class.std::__1::__compressed_pair.208" = type { %"struct.std::__1::__compressed_pair_elem.52", %"struct.std::__1::__compressed_pair_elem.209" }
%"struct.std::__1::__compressed_pair_elem.209" = type { %"class.glslang::pool_allocator.210" }
%"class.glslang::pool_allocator.210" = type { %"class.glslang::TPoolAllocator"* }
%"class.std::__1::__compressed_pair.211" = type { %"struct.std::__1::__compressed_pair_elem.47" }
%"class.std::__1::__compressed_pair.214" = type { %"struct.std::__1::__compressed_pair_elem.215" }
%"struct.std::__1::__compressed_pair_elem.215" = type { %"class.glslang::TSymbolTableLevel"** }
%"class.glslang::TList.219" = type { %"class.std::__1::list.220" }
%"class.std::__1::list.220" = type { %"class.std::__1::__list_imp.221" }
%"class.std::__1::__list_imp.221" = type { %"struct.std::__1::__list_node_base.222", %"class.std::__1::__compressed_pair.223" }
%"struct.std::__1::__list_node_base.222" = type { %"struct.std::__1::__list_node_base.222"*, %"struct.std::__1::__list_node_base.222"* }
%"class.std::__1::__compressed_pair.223" = type { %"struct.std::__1::__compressed_pair_elem.47", %"struct.std::__1::__compressed_pair_elem.224" }
%"struct.std::__1::__compressed_pair_elem.224" = type { %"class.glslang::pool_allocator.225" }
%"class.glslang::pool_allocator.225" = type { %"class.glslang::TPoolAllocator"* }
%"class.glslang::TList.226" = type { %"class.std::__1::list.227" }
%"class.std::__1::list.227" = type { %"class.std::__1::__list_imp.228" }
%"class.std::__1::__list_imp.228" = type { %"struct.std::__1::__list_node_base.229", %"class.std::__1::__compressed_pair.230" }
%"struct.std::__1::__list_node_base.229" = type { %"struct.std::__1::__list_node_base.229"*, %"struct.std::__1::__list_node_base.229"* }
%"class.std::__1::__compressed_pair.230" = type { %"struct.std::__1::__compressed_pair_elem.47", %"struct.std::__1::__compressed_pair_elem.231" }
%"struct.std::__1::__compressed_pair_elem.231" = type { %"class.glslang::pool_allocator.232" }
%"class.glslang::pool_allocator.232" = type { %"class.glslang::TPoolAllocator"* }
%"struct.glslang::TPragma" = type { i8, i8, %"class.glslang::TPragmaTable" }
%"class.glslang::TPragmaTable" = type { %"class.glslang::TMap.233" }
%"class.glslang::TMap.233" = type { %"class.std::__1::map.234" }
%"class.std::__1::map.234" = type { %"class.std::__1::__tree.235" }
%"class.std::__1::__tree.235" = type { %"class.std::__1::__tree_end_node"*, %"class.std::__1::__compressed_pair.236", %"class.std::__1::__compressed_pair.239" }
%"class.std::__1::__compressed_pair.236" = type { %"struct.std::__1::__compressed_pair_elem.52", %"struct.std::__1::__compressed_pair_elem.237" }
%"struct.std::__1::__compressed_pair_elem.237" = type { %"class.glslang::pool_allocator.238" }
%"class.glslang::pool_allocator.238" = type { %"class.glslang::TPoolAllocator"* }
%"class.std::__1::__compressed_pair.239" = type { %"struct.std::__1::__compressed_pair_elem.47" }
%"class.glslang::TScanContext" = type <{ i32 (...)**, %"class.glslang::TParseContextBase"*, i8, i8, i8, i8, [4 x i8], %"struct.glslang::TSourceLoc", %"class.glslang::TParserToken"*, %"class.glslang::TPpToken"*, i8*, i32, [4 x i8] }>
%"class.glslang::TParserToken" = type { %union.YYSTYPE* }
%"class.glslang::TPpToken" = type <{ %"struct.glslang::TSourceLoc", i8, [7 x i8], %union.anon.249, [1025 x i8], [7 x i8] }>
%"class.glslang::TPpContext" = type <{ i32 (...)**, %"class.glslang::TMap.250", %"class.glslang::TStringAtomMap", i8*, i32, [4 x i8], i8**, i64*, i32, i32, i32, [4 x i8], %"class.glslang::TParseContextBase"*, i32, [65 x i8], [3 x i8], i32, [4 x i8], %"class.std::__1::vector.290", i8, i8, [6 x i8], %"class.glslang::TShader::Includer"*, i8, [7 x i8], %"class.std::__1::basic_string.38", %"class.std::__1::stack", %"class.std::__1::basic_string.38", %"class.std::__1::basic_istringstream", i8, [7 x i8] }>
%"class.glslang::TMap.250" = type { %"class.std::__1::map.251" }
%"class.std::__1::map.251" = type { %"class.std::__1::__tree.252" }
%"class.std::__1::__tree.252" = type { %"class.std::__1::__tree_end_node"*, %"class.std::__1::__compressed_pair.253", %"class.std::__1::__compressed_pair.256" }
%"class.std::__1::__compressed_pair.253" = type { %"struct.std::__1::__compressed_pair_elem.52", %"struct.std::__1::__compressed_pair_elem.254" }
%"struct.std::__1::__compressed_pair_elem.254" = type { %"class.glslang::pool_allocator.255" }
%"class.glslang::pool_allocator.255" = type { %"class.glslang::TPoolAllocator"* }
%"class.std::__1::__compressed_pair.256" = type { %"struct.std::__1::__compressed_pair_elem.47" }
%"class.glslang::TStringAtomMap" = type { %"class.glslang::TUnorderedMap", %"class.glslang::TVector.283", i32, %"class.std::__1::basic_string" }
%"class.glslang::TUnorderedMap" = type { %"class.std::__1::unordered_map.259" }
%"class.std::__1::unordered_map.259" = type { %"class.std::__1::__hash_table.260" }
%"class.std::__1::__hash_table.260" = type <{ %"class.std::__1::unique_ptr.261", %"class.std::__1::__compressed_pair.270", %"class.std::__1::__compressed_pair.274", %"class.std::__1::__compressed_pair.278", [4 x i8] }>
%"class.std::__1::unique_ptr.261" = type { %"class.std::__1::__compressed_pair.262" }
%"class.std::__1::__compressed_pair.262" = type { %"struct.std::__1::__compressed_pair_elem.263", %"struct.std::__1::__compressed_pair_elem.265" }
%"struct.std::__1::__compressed_pair_elem.263" = type { %"struct.std::__1::__hash_node_base.264"** }
%"struct.std::__1::__hash_node_base.264" = type { %"struct.std::__1::__hash_node_base.264"* }
%"struct.std::__1::__compressed_pair_elem.265" = type { %"class.std::__1::__bucket_list_deallocator.266" }
%"class.std::__1::__bucket_list_deallocator.266" = type { %"class.std::__1::__compressed_pair.267" }
%"class.std::__1::__compressed_pair.267" = type { %"struct.std::__1::__compressed_pair_elem.47", %"struct.std::__1::__compressed_pair_elem.268" }
%"struct.std::__1::__compressed_pair_elem.268" = type { %"class.glslang::pool_allocator.269" }
%"class.glslang::pool_allocator.269" = type { %"class.glslang::TPoolAllocator"* }
%"class.std::__1::__compressed_pair.270" = type { %"struct.std::__1::__compressed_pair_elem.271", %"struct.std::__1::__compressed_pair_elem.272" }
%"struct.std::__1::__compressed_pair_elem.271" = type { %"struct.std::__1::__hash_node_base.264" }
%"struct.std::__1::__compressed_pair_elem.272" = type { %"class.glslang::pool_allocator.273" }
%"class.glslang::pool_allocator.273" = type { %"class.glslang::TPoolAllocator"* }
%"class.std::__1::__compressed_pair.274" = type { %"struct.std::__1::__compressed_pair_elem.47" }
%"class.std::__1::__compressed_pair.278" = type { %"struct.std::__1::__compressed_pair_elem.114" }
%"class.glslang::TVector.283" = type { %"class.std::__1::vector.284" }
%"class.std::__1::vector.284" = type { %"class.std::__1::__vector_base.285" }
%"class.std::__1::__vector_base.285" = type { %"class.std::__1::basic_string"**, %"class.std::__1::basic_string"**, %"class.std::__1::__compressed_pair.286" }
%"class.std::__1::__compressed_pair.286" = type { %"struct.std::__1::__compressed_pair_elem.287", %"struct.std::__1::__compressed_pair_elem.288" }
%"struct.std::__1::__compressed_pair_elem.287" = type { %"class.std::__1::basic_string"** }
%"struct.std::__1::__compressed_pair_elem.288" = type { %"class.glslang::pool_allocator.289" }
%"class.glslang::pool_allocator.289" = type { %"class.glslang::TPoolAllocator"* }
%"class.std::__1::vector.290" = type { %"class.std::__1::__vector_base.291" }
%"class.std::__1::__vector_base.291" = type { %"class.glslang::TPpContext::tInput"**, %"class.glslang::TPpContext::tInput"**, %"class.std::__1::__compressed_pair.292" }
%"class.glslang::TPpContext::tInput" = type { i32 (...)**, i8, %"class.glslang::TPpContext"* }
%"class.std::__1::__compressed_pair.292" = type { %"struct.std::__1::__compressed_pair_elem.293" }
%"struct.std::__1::__compressed_pair_elem.293" = type { %"class.glslang::TPpContext::tInput"** }
%"class.glslang::TShader::Includer" = type { i32 (...)** }
%"class.std::__1::stack" = type { %"class.std::__1::deque" }
%"class.std::__1::deque" = type { %"class.std::__1::__deque_base" }
%"class.std::__1::__deque_base" = type { %"struct.std::__1::__split_buffer", i64, %"class.std::__1::__compressed_pair.302" }
%"struct.std::__1::__split_buffer" = type { %"struct.glslang::TShader::Includer::IncludeResult"***, %"struct.glslang::TShader::Includer::IncludeResult"***, %"struct.glslang::TShader::Includer::IncludeResult"***, %"class.std::__1::__compressed_pair.297" }
%"struct.glslang::TShader::Includer::IncludeResult" = type { %"class.std::__1::basic_string.38", i8*, i64, i8* }
%"class.std::__1::__compressed_pair.297" = type { %"struct.std::__1::__compressed_pair_elem.298" }
%"struct.std::__1::__compressed_pair_elem.298" = type { %"struct.glslang::TShader::Includer::IncludeResult"*** }
%"class.std::__1::__compressed_pair.302" = type { %"struct.std::__1::__compressed_pair_elem.47" }
%"class.std::__1::basic_istringstream" = type { %"class.std::__1::basic_istream.base", %"class.std::__1::basic_stringbuf", %"class.std::__1::basic_ios.base" }
%"class.std::__1::basic_istream.base" = type { i32 (...)**, i64 }
%"class.std::__1::basic_stringbuf" = type <{ %"class.std::__1::basic_streambuf", %"class.std::__1::basic_string.38", i8*, i32, [4 x i8] }>
%"class.std::__1::basic_streambuf" = type { i32 (...)**, %"class.std::__1::locale", i8*, i8*, i8*, i8*, i8*, i8* }
%"class.std::__1::locale" = type { %"class.std::__1::locale::__imp"* }
%"class.std::__1::locale::__imp" = type opaque
%"class.std::__1::basic_ios.base" = type <{ %"class.std::__1::ios_base", %"class.std::__1::basic_ostream"*, i32 }>
%"class.std::__1::ios_base" = type { i32 (...)**, i32, i64, i64, i32, i32, i8*, i8*, void (i32, %"class.std::__1::ios_base"*, i32)**, i32*, i64, i64, i64*, i64, i64, i8**, i64, i64 }
%"class.std::__1::basic_ostream" = type { i32 (...)**, %"class.std::__1::basic_ios.base" }
%"class.std::__1::function" = type { %"class.std::__1::__function::__policy_func" }
%"class.std::__1::__function::__policy_func" = type { %"union.std::__1::__function::__policy_storage", %"struct.std::__1::__function::__policy_invoker", %"struct.std::__1::__function::__policy"* }
%"union.std::__1::__function::__policy_storage" = type { i8*, [8 x i8] }
%"struct.std::__1::__function::__policy_invoker" = type { void (%"union.std::__1::__function::__policy_storage"*, i32, i32, i1, i32, i8*)* }
%"struct.std::__1::__function::__policy" = type { i8* (i8*)*, void (i8*)*, i8, %"class.std::type_info"* }
%"class.std::type_info" = type { i32 (...)**, i8* }
%"class.std::__1::function.306" = type { %"class.std::__1::__function::__policy_func.310" }
%"class.std::__1::__function::__policy_func.310" = type { %"union.std::__1::__function::__policy_storage", %"struct.std::__1::__function::__policy_invoker.311", %"struct.std::__1::__function::__policy"* }
%"struct.std::__1::__function::__policy_invoker.311" = type { void (%"union.std::__1::__function::__policy_storage"*, i32, %"class.glslang::TVector.312"*)* }
%"class.glslang::TVector.312" = type opaque
%"class.std::__1::function.313" = type { %"class.std::__1::__function::__policy_func.316" }
%"class.std::__1::__function::__policy_func.316" = type { %"union.std::__1::__function::__policy_storage", %"struct.std::__1::__function::__policy_invoker.317", %"struct.std::__1::__function::__policy"* }
%"struct.std::__1::__function::__policy_invoker.317" = type { void (%"union.std::__1::__function::__policy_storage"*, i32, i32, i8*)* }
%"class.std::__1::function.318" = type { %"class.std::__1::__function::__policy_func.321" }
%"class.std::__1::__function::__policy_func.321" = type { %"union.std::__1::__function::__policy_storage", %"struct.std::__1::__function::__policy_invoker.322", %"struct.std::__1::__function::__policy"* }
%"struct.std::__1::__function::__policy_invoker.322" = type { void (%"union.std::__1::__function::__policy_storage"*, i32, i8*, i8*)* }
%"class.std::__1::function.323" = type { %"class.std::__1::__function::__policy_func.327" }
%"class.std::__1::__function::__policy_func.327" = type { %"union.std::__1::__function::__policy_storage", %"struct.std::__1::__function::__policy_invoker.328", %"struct.std::__1::__function::__policy"* }
%"struct.std::__1::__function::__policy_invoker.328" = type { void (%"union.std::__1::__function::__policy_storage"*, i32, i8*)* }
%"class.glslang::TVariable" = type <{ %"class.glslang::TSymbol.base", [7 x i8], %"class.glslang::TType", i8, [7 x i8], %"class.glslang::TConstUnionArray", %"class.glslang::TIntermTyped"*, %"class.glslang::TVector.337"*, i32, [4 x i8] }>
%"class.glslang::TSymbol.base" = type <{ i32 (...)**, %"class.std::__1::basic_string"*, i64, %"class.glslang::TVector"*, i8 }>
%"class.glslang::TVector" = type { %"class.std::__1::vector.6" }
%"class.std::__1::vector.6" = type { %"class.std::__1::__vector_base.7" }
%"class.std::__1::__vector_base.7" = type { i8**, i8**, %"class.std::__1::__compressed_pair.8" }
%"class.std::__1::__compressed_pair.8" = type { %"struct.std::__1::__compressed_pair_elem.9", %"struct.std::__1::__compressed_pair_elem.10" }
%"struct.std::__1::__compressed_pair_elem.9" = type { i8** }
%"struct.std::__1::__compressed_pair_elem.10" = type { %"class.glslang::pool_allocator.11" }
%"class.glslang::pool_allocator.11" = type { %"class.glslang::TPoolAllocator"* }
%"class.glslang::TConstUnionArray" = type { i32 (...)**, %"class.glslang::TVector.329"* }
%"class.glslang::TVector.329" = type { %"class.std::__1::vector.330" }
%"class.std::__1::vector.330" = type { %"class.std::__1::__vector_base.331" }
%"class.std::__1::__vector_base.331" = type { %"class.glslang::TConstUnion"*, %"class.glslang::TConstUnion"*, %"class.std::__1::__compressed_pair.333" }
%"class.glslang::TConstUnion" = type <{ %union.anon.332, i32, [4 x i8] }>
%union.anon.332 = type { i64 }
%"class.std::__1::__compressed_pair.333" = type { %"struct.std::__1::__compressed_pair_elem.334", %"struct.std::__1::__compressed_pair_elem.335" }
%"struct.std::__1::__compressed_pair_elem.334" = type { %"class.glslang::TConstUnion"* }
%"struct.std::__1::__compressed_pair_elem.335" = type { %"class.glslang::pool_allocator.336" }
%"class.glslang::pool_allocator.336" = type { %"class.glslang::TPoolAllocator"* }
%"class.glslang::TVector.337" = type { %"class.std::__1::vector.338" }
%"class.std::__1::vector.338" = type { %"class.std::__1::__vector_base.339" }
%"class.std::__1::__vector_base.339" = type { %"class.glslang::TVector"*, %"class.glslang::TVector"*, %"class.std::__1::__compressed_pair.340" }
%"class.std::__1::__compressed_pair.340" = type { %"struct.std::__1::__compressed_pair_elem.341", %"struct.std::__1::__compressed_pair_elem.342" }
%"struct.std::__1::__compressed_pair_elem.341" = type { %"class.glslang::TVector"* }
%"struct.std::__1::__compressed_pair_elem.342" = type { %"class.glslang::pool_allocator.343" }
%"class.glslang::pool_allocator.343" = type { %"class.glslang::TPoolAllocator"* }
%"class.glslang::TMap.344" = type { %"class.std::__1::map.345" }
%"class.std::__1::map.345" = type { %"class.std::__1::__tree.346" }
%"class.std::__1::__tree.346" = type { %"class.std::__1::__tree_end_node"*, %"class.std::__1::__compressed_pair.347", %"class.std::__1::__compressed_pair.350" }
%"class.std::__1::__compressed_pair.347" = type { %"struct.std::__1::__compressed_pair_elem.52", %"struct.std::__1::__compressed_pair_elem.348" }
%"struct.std::__1::__compressed_pair_elem.348" = type { %"class.glslang::pool_allocator.349" }
%"class.glslang::pool_allocator.349" = type { %"class.glslang::TPoolAllocator"* }
%"class.std::__1::__compressed_pair.350" = type { %"struct.std::__1::__compressed_pair_elem.47" }
%"class.glslang::TMap.353" = type { %"class.std::__1::map.354" }
%"class.std::__1::map.354" = type { %"class.std::__1::__tree.355" }
%"class.std::__1::__tree.355" = type { %"class.std::__1::__tree_end_node"*, %"class.std::__1::__compressed_pair.356", %"class.std::__1::__compressed_pair.78" }
%"class.std::__1::__compressed_pair.356" = type { %"struct.std::__1::__compressed_pair_elem.52", %"struct.std::__1::__compressed_pair_elem.357" }
%"struct.std::__1::__compressed_pair_elem.357" = type { %"class.glslang::pool_allocator.358" }
%"class.glslang::pool_allocator.358" = type { %"class.glslang::TPoolAllocator"* }
%struct.TBuiltInResource = type { i32, i32, i32, i32, i32, i32, i32, i32, i32, i32, i32, i32, i32, i32, i32, i32, i32, i32, i32, i32, i32, i32, i32, i32, i32, i32, i32, i32, i32, i32, i32, i32, i32, i32, i32, i32, i32, i32, i32, i32, i32, i32, i32, i32, i32, i32, i32, i32, i32, i32, i32, i32, i32, i32, i32, i32, i32, i32, i32, i32, i32, i32, i32, i32, i32, i32, i32, i32, i32, i32, i32, i32, i32, i32, i32, i32, i32, i32, i32, i32, i32, i32, i32, i32, i32, i32, i32, i32, i32, i32, i32, i32, i32, %struct.TLimits }
%struct.TLimits = type { i8, i8, i8, i8, i8, i8, i8, i8, i8 }
%"class.glslang::TPrecisionManager" = type <{ i32 (...)**, i8, i8, i8, i8, [4 x i8] }>
%"class.std::__1::set.359" = type { %"class.std::__1::__tree.360" }
%"class.std::__1::__tree.360" = type { %"class.std::__1::__tree_end_node"*, %"class.std::__1::__compressed_pair.361", %"class.std::__1::__compressed_pair.365" }
%"class.std::__1::__compressed_pair.361" = type { %"struct.std::__1::__compressed_pair_elem.52" }
%"class.std::__1::__compressed_pair.365" = type { %"struct.std::__1::__compressed_pair_elem.47" }
%"class.glslang::TVector.369" = type { %"class.std::__1::vector.370" }
%"class.std::__1::vector.370" = type { %"class.std::__1::__vector_base.371" }
%"class.std::__1::__vector_base.371" = type { %"class.glslang::TIntermTyped"**, %"class.glslang::TIntermTyped"**, %"class.std::__1::__compressed_pair.372" }
%"class.std::__1::__compressed_pair.372" = type { %"struct.std::__1::__compressed_pair_elem.373", %"struct.std::__1::__compressed_pair_elem.374" }
%"struct.std::__1::__compressed_pair_elem.373" = type { %"class.glslang::TIntermTyped"** }
%"struct.std::__1::__compressed_pair_elem.374" = type { %"class.glslang::pool_allocator.375" }
%"class.glslang::pool_allocator.375" = type { %"class.glslang::TPoolAllocator"* }
%"class.std::__1::map.376" = type { %"class.std::__1::__tree.377" }
%"class.std::__1::__tree.377" = type { %"class.std::__1::__tree_end_node"*, %"class.std::__1::__compressed_pair.378", %"class.std::__1::__compressed_pair.382" }
%"class.std::__1::__compressed_pair.378" = type { %"struct.std::__1::__compressed_pair_elem.52" }
%"class.std::__1::__compressed_pair.382" = type { %"struct.std::__1::__compressed_pair_elem.47" }
%"class.glslang::TVector.242" = type { %"class.std::__1::vector.243" }
%"class.std::__1::vector.243" = type { %"class.std::__1::__vector_base.244" }
%"class.std::__1::__vector_base.244" = type { %"class.glslang::TSymbol"**, %"class.glslang::TSymbol"**, %"class.std::__1::__compressed_pair.245" }
%"class.glslang::TSymbol" = type <{ i32 (...)**, %"class.std::__1::basic_string"*, i64, %"class.glslang::TVector"*, i8, [7 x i8] }>
%"class.std::__1::__compressed_pair.245" = type { %"struct.std::__1::__compressed_pair_elem.246", %"struct.std::__1::__compressed_pair_elem.247" }
%"struct.std::__1::__compressed_pair_elem.246" = type { %"class.glslang::TSymbol"** }
%"struct.std::__1::__compressed_pair_elem.247" = type { %"class.glslang::pool_allocator.248" }
%"class.glslang::pool_allocator.248" = type { %"class.glslang::TPoolAllocator"* }
%"class.std::__1::__basic_string_common" = type { i8 }
%struct.anon.4 = type { %"struct.glslang::TSourceLoc", %union.anon.5, %"class.glslang::TSymbol"* }
%union.anon.5 = type { %"class.std::__1::basic_string"* }
%"struct.std::__1::basic_string<char, std::__1::char_traits<char>, std::__1::allocator<char> >::__short" = type { [23 x i8], %struct.anon.42 }
%struct.anon.42 = type { i8 }
%"struct.std::__1::basic_string<char, std::__1::char_traits<char>, glslang::pool_allocator<char> >::__short" = type { [23 x i8], %struct.anon }
%struct.anon = type { i8 }
%"class.std::__1::__tree_node" = type { %"class.std::__1::__tree_node_base.base", %"struct.std::__1::__value_type" }
%"class.std::__1::__tree_node_base.base" = type <{ %"class.std::__1::__tree_end_node", %"class.std::__1::__tree_node_base"*, %"class.std::__1::__tree_end_node"*, i8 }>
%"struct.std::__1::__value_type" = type { %"struct.std::__1::pair.435" }
%"struct.std::__1::pair.435" = type { %"class.std::__1::basic_string", %"class.glslang::TSymbol"* }

$_ZN7glslang13TInputScanner5ungetEv = comdat any

$_ZN7glslang13TInputScanner7advanceEv = comdat any

$_ZN7glslang13TInfoSinkBase8locationERKNS_10TSourceLocE = comdat any

$_ZNK7glslang10TSourceLoc18getStringNameOrNumEb = comdat any

$_ZNSt3__1plIcNS_11char_traitsIcEEN7glslang14pool_allocatorIcEEEENS_12basic_stringIT_T0_T1_EEPKS7_RKSA_ = comdat any

$_ZNSt3__112basic_stringIcNS_11char_traitsIcEEN7glslang14pool_allocatorIcEEE6appendEPKcm = comdat any

$_ZNKSt3__16__treeINS_12__value_typeINS_12basic_stringIcNS_11char_traitsIcEEN7glslang14pool_allocatorIcEEEEPNS5_7TSymbolEEENS_19__map_value_compareIS8_SB_NS_4lessIS8_EELb1EEENS6_ISB_EEE4findIS8_EENS_21__tree_const_iteratorISB_PNS_11__tree_nodeISB_PvEElEERKT_ = comdat any

@.str = private unnamed_addr constant [3 x i8] c"es\00", align 1
@.str.1 = private unnamed_addr constant [5 x i8] c"core\00", align 1
@.str.2 = private unnamed_addr constant [14 x i8] c"compatibility\00", align 1
@_ZN12_GLOBAL__N_110KeywordMapE = internal unnamed_addr global %"class.std::__1::unordered_map.387"* null, align 8
@.str.3 = private unnamed_addr constant [6 x i8] c"const\00", align 1
@.str.4 = private unnamed_addr constant [8 x i8] c"uniform\00", align 1
@.str.5 = private unnamed_addr constant [7 x i8] c"buffer\00", align 1
@.str.6 = private unnamed_addr constant [3 x i8] c"in\00", align 1
@.str.7 = private unnamed_addr constant [4 x i8] c"out\00", align 1
@.str.8 = private unnamed_addr constant [7 x i8] c"smooth\00", align 1
@.str.9 = private unnamed_addr constant [5 x i8] c"flat\00", align 1
@.str.10 = private unnamed_addr constant [9 x i8] c"centroid\00", align 1
@.str.11 = private unnamed_addr constant [10 x i8] c"invariant\00", align 1
@.str.12 = private unnamed_addr constant [7 x i8] c"packed\00", align 1
@.str.13 = private unnamed_addr constant [9 x i8] c"resource\00", align 1
@.str.14 = private unnamed_addr constant [6 x i8] c"inout\00", align 1
@.str.15 = private unnamed_addr constant [7 x i8] c"struct\00", align 1
@.str.16 = private unnamed_addr constant [6 x i8] c"break\00", align 1
@.str.17 = private unnamed_addr constant [9 x i8] c"continue\00", align 1
@.str.18 = private unnamed_addr constant [3 x i8] c"do\00", align 1
@.str.19 = private unnamed_addr constant [4 x i8] c"for\00", align 1
@.str.20 = private unnamed_addr constant [6 x i8] c"while\00", align 1
@.str.21 = private unnamed_addr constant [7 x i8] c"switch\00", align 1
@.str.22 = private unnamed_addr constant [5 x i8] c"case\00", align 1
@.str.23 = private unnamed_addr constant [8 x i8] c"default\00", align 1
@.str.24 = private unnamed_addr constant [3 x i8] c"if\00", align 1
@.str.25 = private unnamed_addr constant [5 x i8] c"else\00", align 1
@.str.26 = private unnamed_addr constant [8 x i8] c"discard\00", align 1
@.str.27 = private unnamed_addr constant [20 x i8] c"terminateInvocation\00", align 1
@.str.28 = private unnamed_addr constant [16 x i8] c"terminateRayEXT\00", align 1
@.str.29 = private unnamed_addr constant [22 x i8] c"ignoreIntersectionEXT\00", align 1
@.str.30 = private unnamed_addr constant [7 x i8] c"return\00", align 1
@.str.31 = private unnamed_addr constant [5 x i8] c"void\00", align 1
@.str.32 = private unnamed_addr constant [5 x i8] c"bool\00", align 1
@.str.33 = private unnamed_addr constant [6 x i8] c"float\00", align 1
@.str.34 = private unnamed_addr constant [4 x i8] c"int\00", align 1
@.str.35 = private unnamed_addr constant [6 x i8] c"bvec2\00", align 1
@.str.36 = private unnamed_addr constant [6 x i8] c"bvec3\00", align 1
@.str.37 = private unnamed_addr constant [6 x i8] c"bvec4\00", align 1
@.str.38 = private unnamed_addr constant [5 x i8] c"vec2\00", align 1
@.str.39 = private unnamed_addr constant [5 x i8] c"vec3\00", align 1
@.str.40 = private unnamed_addr constant [5 x i8] c"vec4\00", align 1
@.str.41 = private unnamed_addr constant [6 x i8] c"ivec2\00", align 1
@.str.42 = private unnamed_addr constant [6 x i8] c"ivec3\00", align 1
@.str.43 = private unnamed_addr constant [6 x i8] c"ivec4\00", align 1
@.str.44 = private unnamed_addr constant [5 x i8] c"mat2\00", align 1
@.str.45 = private unnamed_addr constant [5 x i8] c"mat3\00", align 1
@.str.46 = private unnamed_addr constant [5 x i8] c"mat4\00", align 1
@.str.47 = private unnamed_addr constant [5 x i8] c"true\00", align 1
@.str.48 = private unnamed_addr constant [6 x i8] c"false\00", align 1
@.str.49 = private unnamed_addr constant [7 x i8] c"layout\00", align 1
@.str.50 = private unnamed_addr constant [7 x i8] c"shared\00", align 1
@.str.51 = private unnamed_addr constant [6 x i8] c"highp\00", align 1
@.str.52 = private unnamed_addr constant [8 x i8] c"mediump\00", align 1
@.str.53 = private unnamed_addr constant [5 x i8] c"lowp\00", align 1
@.str.54 = private unnamed_addr constant [7 x i8] c"superp\00", align 1
@.str.55 = private unnamed_addr constant [10 x i8] c"precision\00", align 1
@.str.56 = private unnamed_addr constant [7 x i8] c"mat2x2\00", align 1
@.str.57 = private unnamed_addr constant [7 x i8] c"mat2x3\00", align 1
@.str.58 = private unnamed_addr constant [7 x i8] c"mat2x4\00", align 1
@.str.59 = private unnamed_addr constant [7 x i8] c"mat3x2\00", align 1
@.str.60 = private unnamed_addr constant [7 x i8] c"mat3x3\00", align 1
@.str.61 = private unnamed_addr constant [7 x i8] c"mat3x4\00", align 1
@.str.62 = private unnamed_addr constant [7 x i8] c"mat4x2\00", align 1
@.str.63 = private unnamed_addr constant [7 x i8] c"mat4x3\00", align 1
@.str.64 = private unnamed_addr constant [7 x i8] c"mat4x4\00", align 1
@.str.65 = private unnamed_addr constant [5 x i8] c"uint\00", align 1
@.str.66 = private unnamed_addr constant [6 x i8] c"uvec2\00", align 1
@.str.67 = private unnamed_addr constant [6 x i8] c"uvec3\00", align 1
@.str.68 = private unnamed_addr constant [6 x i8] c"uvec4\00", align 1
@.str.69 = private unnamed_addr constant [14 x i8] c"nonuniformEXT\00", align 1
@.str.70 = private unnamed_addr constant [7 x i8] c"demote\00", align 1
@.str.71 = private unnamed_addr constant [10 x i8] c"attribute\00", align 1
@.str.72 = private unnamed_addr constant [8 x i8] c"varying\00", align 1
@.str.73 = private unnamed_addr constant [14 x i8] c"noperspective\00", align 1
@.str.74 = private unnamed_addr constant [9 x i8] c"coherent\00", align 1
@.str.75 = private unnamed_addr constant [15 x i8] c"devicecoherent\00", align 1
@.str.76 = private unnamed_addr constant [20 x i8] c"queuefamilycoherent\00", align 1
@.str.77 = private unnamed_addr constant [18 x i8] c"workgroupcoherent\00", align 1
@.str.78 = private unnamed_addr constant [17 x i8] c"subgroupcoherent\00", align 1
@.str.79 = private unnamed_addr constant [19 x i8] c"shadercallcoherent\00", align 1
@.str.80 = private unnamed_addr constant [11 x i8] c"nonprivate\00", align 1
@.str.81 = private unnamed_addr constant [9 x i8] c"restrict\00", align 1
@.str.82 = private unnamed_addr constant [9 x i8] c"readonly\00", align 1
@.str.83 = private unnamed_addr constant [10 x i8] c"writeonly\00", align 1
@.str.84 = private unnamed_addr constant [12 x i8] c"atomic_uint\00", align 1
@.str.85 = private unnamed_addr constant [9 x i8] c"volatile\00", align 1
@.str.86 = private unnamed_addr constant [6 x i8] c"patch\00", align 1
@.str.87 = private unnamed_addr constant [7 x i8] c"sample\00", align 1
@.str.88 = private unnamed_addr constant [11 x i8] c"subroutine\00", align 1
@.str.89 = private unnamed_addr constant [6 x i8] c"dmat2\00", align 1
@.str.90 = private unnamed_addr constant [6 x i8] c"dmat3\00", align 1
@.str.91 = private unnamed_addr constant [6 x i8] c"dmat4\00", align 1
@.str.92 = private unnamed_addr constant [8 x i8] c"dmat2x2\00", align 1
@.str.93 = private unnamed_addr constant [8 x i8] c"dmat2x3\00", align 1
@.str.94 = private unnamed_addr constant [8 x i8] c"dmat2x4\00", align 1
@.str.95 = private unnamed_addr constant [8 x i8] c"dmat3x2\00", align 1
@.str.96 = private unnamed_addr constant [8 x i8] c"dmat3x3\00", align 1
@.str.97 = private unnamed_addr constant [8 x i8] c"dmat3x4\00", align 1
@.str.98 = private unnamed_addr constant [8 x i8] c"dmat4x2\00", align 1
@.str.99 = private unnamed_addr constant [8 x i8] c"dmat4x3\00", align 1
@.str.100 = private unnamed_addr constant [8 x i8] c"dmat4x4\00", align 1
@.str.101 = private unnamed_addr constant [8 x i8] c"image1D\00", align 1
@.str.102 = private unnamed_addr constant [9 x i8] c"iimage1D\00", align 1
@.str.103 = private unnamed_addr constant [9 x i8] c"uimage1D\00", align 1
@.str.104 = private unnamed_addr constant [8 x i8] c"image2D\00", align 1
@.str.105 = private unnamed_addr constant [9 x i8] c"iimage2D\00", align 1
@.str.106 = private unnamed_addr constant [9 x i8] c"uimage2D\00", align 1
@.str.107 = private unnamed_addr constant [8 x i8] c"image3D\00", align 1
@.str.108 = private unnamed_addr constant [9 x i8] c"iimage3D\00", align 1
@.str.109 = private unnamed_addr constant [9 x i8] c"uimage3D\00", align 1
@.str.110 = private unnamed_addr constant [12 x i8] c"image2DRect\00", align 1
@.str.111 = private unnamed_addr constant [13 x i8] c"iimage2DRect\00", align 1
@.str.112 = private unnamed_addr constant [13 x i8] c"uimage2DRect\00", align 1
@.str.113 = private unnamed_addr constant [10 x i8] c"imageCube\00", align 1
@.str.114 = private unnamed_addr constant [11 x i8] c"iimageCube\00", align 1
@.str.115 = private unnamed_addr constant [11 x i8] c"uimageCube\00", align 1
@.str.116 = private unnamed_addr constant [12 x i8] c"imageBuffer\00", align 1
@.str.117 = private unnamed_addr constant [13 x i8] c"iimageBuffer\00", align 1
@.str.118 = private unnamed_addr constant [13 x i8] c"uimageBuffer\00", align 1
@.str.119 = private unnamed_addr constant [13 x i8] c"image1DArray\00", align 1
@.str.120 = private unnamed_addr constant [14 x i8] c"iimage1DArray\00", align 1
@.str.121 = private unnamed_addr constant [14 x i8] c"uimage1DArray\00", align 1
@.str.122 = private unnamed_addr constant [13 x i8] c"image2DArray\00", align 1
@.str.123 = private unnamed_addr constant [14 x i8] c"iimage2DArray\00", align 1
@.str.124 = private unnamed_addr constant [14 x i8] c"uimage2DArray\00", align 1
@.str.125 = private unnamed_addr constant [15 x i8] c"imageCubeArray\00", align 1
@.str.126 = private unnamed_addr constant [16 x i8] c"iimageCubeArray\00", align 1
@.str.127 = private unnamed_addr constant [16 x i8] c"uimageCubeArray\00", align 1
@.str.128 = private unnamed_addr constant [10 x i8] c"image2DMS\00", align 1
@.str.129 = private unnamed_addr constant [11 x i8] c"iimage2DMS\00", align 1
@.str.130 = private unnamed_addr constant [11 x i8] c"uimage2DMS\00", align 1
@.str.131 = private unnamed_addr constant [15 x i8] c"image2DMSArray\00", align 1
@.str.132 = private unnamed_addr constant [16 x i8] c"iimage2DMSArray\00", align 1
@.str.133 = private unnamed_addr constant [16 x i8] c"uimage2DMSArray\00", align 1
@.str.134 = private unnamed_addr constant [11 x i8] c"i64image1D\00", align 1
@.str.135 = private unnamed_addr constant [11 x i8] c"u64image1D\00", align 1
@.str.136 = private unnamed_addr constant [11 x i8] c"i64image2D\00", align 1
@.str.137 = private unnamed_addr constant [11 x i8] c"u64image2D\00", align 1
@.str.138 = private unnamed_addr constant [11 x i8] c"i64image3D\00", align 1
@.str.139 = private unnamed_addr constant [11 x i8] c"u64image3D\00", align 1
@.str.140 = private unnamed_addr constant [15 x i8] c"i64image2DRect\00", align 1
@.str.141 = private unnamed_addr constant [15 x i8] c"u64image2DRect\00", align 1
@.str.142 = private unnamed_addr constant [13 x i8] c"i64imageCube\00", align 1
@.str.143 = private unnamed_addr constant [13 x i8] c"u64imageCube\00", align 1
@.str.144 = private unnamed_addr constant [15 x i8] c"i64imageBuffer\00", align 1
@.str.145 = private unnamed_addr constant [15 x i8] c"u64imageBuffer\00", align 1
@.str.146 = private unnamed_addr constant [16 x i8] c"i64image1DArray\00", align 1
@.str.147 = private unnamed_addr constant [16 x i8] c"u64image1DArray\00", align 1
@.str.148 = private unnamed_addr constant [16 x i8] c"i64image2DArray\00", align 1
@.str.149 = private unnamed_addr constant [16 x i8] c"u64image2DArray\00", align 1
@.str.150 = private unnamed_addr constant [18 x i8] c"i64imageCubeArray\00", align 1
@.str.151 = private unnamed_addr constant [18 x i8] c"u64imageCubeArray\00", align 1
@.str.152 = private unnamed_addr constant [13 x i8] c"i64image2DMS\00", align 1
@.str.153 = private unnamed_addr constant [13 x i8] c"u64image2DMS\00", align 1
@.str.154 = private unnamed_addr constant [18 x i8] c"i64image2DMSArray\00", align 1
@.str.155 = private unnamed_addr constant [18 x i8] c"u64image2DMSArray\00", align 1
@.str.156 = private unnamed_addr constant [7 x i8] c"double\00", align 1
@.str.157 = private unnamed_addr constant [6 x i8] c"dvec2\00", align 1
@.str.158 = private unnamed_addr constant [6 x i8] c"dvec3\00", align 1
@.str.159 = private unnamed_addr constant [6 x i8] c"dvec4\00", align 1
@.str.160 = private unnamed_addr constant [8 x i8] c"int64_t\00", align 1
@.str.161 = private unnamed_addr constant [9 x i8] c"uint64_t\00", align 1
@.str.162 = private unnamed_addr constant [8 x i8] c"i64vec2\00", align 1
@.str.163 = private unnamed_addr constant [8 x i8] c"i64vec3\00", align 1
@.str.164 = private unnamed_addr constant [8 x i8] c"i64vec4\00", align 1
@.str.165 = private unnamed_addr constant [8 x i8] c"u64vec2\00", align 1
@.str.166 = private unnamed_addr constant [8 x i8] c"u64vec3\00", align 1
@.str.167 = private unnamed_addr constant [8 x i8] c"u64vec4\00", align 1
@.str.168 = private unnamed_addr constant [7 x i8] c"int8_t\00", align 1
@.str.169 = private unnamed_addr constant [7 x i8] c"i8vec2\00", align 1
@.str.170 = private unnamed_addr constant [7 x i8] c"i8vec3\00", align 1
@.str.171 = private unnamed_addr constant [7 x i8] c"i8vec4\00", align 1
@.str.172 = private unnamed_addr constant [8 x i8] c"uint8_t\00", align 1
@.str.173 = private unnamed_addr constant [7 x i8] c"u8vec2\00", align 1
@.str.174 = private unnamed_addr constant [7 x i8] c"u8vec3\00", align 1
@.str.175 = private unnamed_addr constant [7 x i8] c"u8vec4\00", align 1
@.str.176 = private unnamed_addr constant [8 x i8] c"int16_t\00", align 1
@.str.177 = private unnamed_addr constant [8 x i8] c"i16vec2\00", align 1
@.str.178 = private unnamed_addr constant [8 x i8] c"i16vec3\00", align 1
@.str.179 = private unnamed_addr constant [8 x i8] c"i16vec4\00", align 1
@.str.180 = private unnamed_addr constant [9 x i8] c"uint16_t\00", align 1
@.str.181 = private unnamed_addr constant [8 x i8] c"u16vec2\00", align 1
@.str.182 = private unnamed_addr constant [8 x i8] c"u16vec3\00", align 1
@.str.183 = private unnamed_addr constant [8 x i8] c"u16vec4\00", align 1
@.str.184 = private unnamed_addr constant [8 x i8] c"int32_t\00", align 1
@.str.185 = private unnamed_addr constant [8 x i8] c"i32vec2\00", align 1
@.str.186 = private unnamed_addr constant [8 x i8] c"i32vec3\00", align 1
@.str.187 = private unnamed_addr constant [8 x i8] c"i32vec4\00", align 1
@.str.188 = private unnamed_addr constant [9 x i8] c"uint32_t\00", align 1
@.str.189 = private unnamed_addr constant [8 x i8] c"u32vec2\00", align 1
@.str.190 = private unnamed_addr constant [8 x i8] c"u32vec3\00", align 1
@.str.191 = private unnamed_addr constant [8 x i8] c"u32vec4\00", align 1
@.str.192 = private unnamed_addr constant [10 x i8] c"float16_t\00", align 1
@.str.193 = private unnamed_addr constant [8 x i8] c"f16vec2\00", align 1
@.str.194 = private unnamed_addr constant [8 x i8] c"f16vec3\00", align 1
@.str.195 = private unnamed_addr constant [8 x i8] c"f16vec4\00", align 1
@.str.196 = private unnamed_addr constant [8 x i8] c"f16mat2\00", align 1
@.str.197 = private unnamed_addr constant [8 x i8] c"f16mat3\00", align 1
@.str.198 = private unnamed_addr constant [8 x i8] c"f16mat4\00", align 1
@.str.199 = private unnamed_addr constant [10 x i8] c"f16mat2x2\00", align 1
@.str.200 = private unnamed_addr constant [10 x i8] c"f16mat2x3\00", align 1
@.str.201 = private unnamed_addr constant [10 x i8] c"f16mat2x4\00", align 1
@.str.202 = private unnamed_addr constant [10 x i8] c"f16mat3x2\00", align 1
@.str.203 = private unnamed_addr constant [10 x i8] c"f16mat3x3\00", align 1
@.str.204 = private unnamed_addr constant [10 x i8] c"f16mat3x4\00", align 1
@.str.205 = private unnamed_addr constant [10 x i8] c"f16mat4x2\00", align 1
@.str.206 = private unnamed_addr constant [10 x i8] c"f16mat4x3\00", align 1
@.str.207 = private unnamed_addr constant [10 x i8] c"f16mat4x4\00", align 1
@.str.208 = private unnamed_addr constant [10 x i8] c"float32_t\00", align 1
@.str.209 = private unnamed_addr constant [8 x i8] c"f32vec2\00", align 1
@.str.210 = private unnamed_addr constant [8 x i8] c"f32vec3\00", align 1
@.str.211 = private unnamed_addr constant [8 x i8] c"f32vec4\00", align 1
@.str.212 = private unnamed_addr constant [8 x i8] c"f32mat2\00", align 1
@.str.213 = private unnamed_addr constant [8 x i8] c"f32mat3\00", align 1
@.str.214 = private unnamed_addr constant [8 x i8] c"f32mat4\00", align 1
@.str.215 = private unnamed_addr constant [10 x i8] c"f32mat2x2\00", align 1
@.str.216 = private unnamed_addr constant [10 x i8] c"f32mat2x3\00", align 1
@.str.217 = private unnamed_addr constant [10 x i8] c"f32mat2x4\00", align 1
@.str.218 = private unnamed_addr constant [10 x i8] c"f32mat3x2\00", align 1
@.str.219 = private unnamed_addr constant [10 x i8] c"f32mat3x3\00", align 1
@.str.220 = private unnamed_addr constant [10 x i8] c"f32mat3x4\00", align 1
@.str.221 = private unnamed_addr constant [10 x i8] c"f32mat4x2\00", align 1
@.str.222 = private unnamed_addr constant [10 x i8] c"f32mat4x3\00", align 1
@.str.223 = private unnamed_addr constant [10 x i8] c"f32mat4x4\00", align 1
@.str.224 = private unnamed_addr constant [10 x i8] c"float64_t\00", align 1
@.str.225 = private unnamed_addr constant [8 x i8] c"f64vec2\00", align 1
@.str.226 = private unnamed_addr constant [8 x i8] c"f64vec3\00", align 1
@.str.227 = private unnamed_addr constant [8 x i8] c"f64vec4\00", align 1
@.str.228 = private unnamed_addr constant [8 x i8] c"f64mat2\00", align 1
@.str.229 = private unnamed_addr constant [8 x i8] c"f64mat3\00", align 1
@.str.230 = private unnamed_addr constant [8 x i8] c"f64mat4\00", align 1
@.str.231 = private unnamed_addr constant [10 x i8] c"f64mat2x2\00", align 1
@.str.232 = private unnamed_addr constant [10 x i8] c"f64mat2x3\00", align 1
@.str.233 = private unnamed_addr constant [10 x i8] c"f64mat2x4\00", align 1
@.str.234 = private unnamed_addr constant [10 x i8] c"f64mat3x2\00", align 1
@.str.235 = private unnamed_addr constant [10 x i8] c"f64mat3x3\00", align 1
@.str.236 = private unnamed_addr constant [10 x i8] c"f64mat3x4\00", align 1
@.str.237 = private unnamed_addr constant [10 x i8] c"f64mat4x2\00", align 1
@.str.238 = private unnamed_addr constant [10 x i8] c"f64mat4x3\00", align 1
@.str.239 = private unnamed_addr constant [10 x i8] c"f64mat4x4\00", align 1
@.str.240 = private unnamed_addr constant [10 x i8] c"sampler2D\00", align 1
@.str.241 = private unnamed_addr constant [12 x i8] c"samplerCube\00", align 1
@.str.242 = private unnamed_addr constant [18 x i8] c"samplerCubeShadow\00", align 1
@.str.243 = private unnamed_addr constant [15 x i8] c"sampler2DArray\00", align 1
@.str.244 = private unnamed_addr constant [21 x i8] c"sampler2DArrayShadow\00", align 1
@.str.245 = private unnamed_addr constant [11 x i8] c"isampler2D\00", align 1
@.str.246 = private unnamed_addr constant [11 x i8] c"isampler3D\00", align 1
@.str.247 = private unnamed_addr constant [13 x i8] c"isamplerCube\00", align 1
@.str.248 = private unnamed_addr constant [16 x i8] c"isampler2DArray\00", align 1
@.str.249 = private unnamed_addr constant [11 x i8] c"usampler2D\00", align 1
@.str.250 = private unnamed_addr constant [11 x i8] c"usampler3D\00", align 1
@.str.251 = private unnamed_addr constant [13 x i8] c"usamplerCube\00", align 1
@.str.252 = private unnamed_addr constant [16 x i8] c"usampler2DArray\00", align 1
@.str.253 = private unnamed_addr constant [10 x i8] c"sampler3D\00", align 1
@.str.254 = private unnamed_addr constant [16 x i8] c"sampler2DShadow\00", align 1
@.str.255 = private unnamed_addr constant [10 x i8] c"texture2D\00", align 1
@.str.256 = private unnamed_addr constant [12 x i8] c"textureCube\00", align 1
@.str.257 = private unnamed_addr constant [15 x i8] c"texture2DArray\00", align 1
@.str.258 = private unnamed_addr constant [11 x i8] c"itexture2D\00", align 1
@.str.259 = private unnamed_addr constant [11 x i8] c"itexture3D\00", align 1
@.str.260 = private unnamed_addr constant [13 x i8] c"itextureCube\00", align 1
@.str.261 = private unnamed_addr constant [16 x i8] c"itexture2DArray\00", align 1
@.str.262 = private unnamed_addr constant [11 x i8] c"utexture2D\00", align 1
@.str.263 = private unnamed_addr constant [11 x i8] c"utexture3D\00", align 1
@.str.264 = private unnamed_addr constant [13 x i8] c"utextureCube\00", align 1
@.str.265 = private unnamed_addr constant [16 x i8] c"utexture2DArray\00", align 1
@.str.266 = private unnamed_addr constant [10 x i8] c"texture3D\00", align 1
@.str.267 = private unnamed_addr constant [8 x i8] c"sampler\00", align 1
@.str.268 = private unnamed_addr constant [14 x i8] c"samplerShadow\00", align 1
@.str.269 = private unnamed_addr constant [17 x i8] c"textureCubeArray\00", align 1
@.str.270 = private unnamed_addr constant [18 x i8] c"itextureCubeArray\00", align 1
@.str.271 = private unnamed_addr constant [18 x i8] c"utextureCubeArray\00", align 1
@.str.272 = private unnamed_addr constant [17 x i8] c"samplerCubeArray\00", align 1
@.str.273 = private unnamed_addr constant [23 x i8] c"samplerCubeArrayShadow\00", align 1
@.str.274 = private unnamed_addr constant [18 x i8] c"isamplerCubeArray\00", align 1
@.str.275 = private unnamed_addr constant [18 x i8] c"usamplerCubeArray\00", align 1
@.str.276 = private unnamed_addr constant [21 x i8] c"sampler1DArrayShadow\00", align 1
@.str.277 = private unnamed_addr constant [16 x i8] c"isampler1DArray\00", align 1
@.str.278 = private unnamed_addr constant [11 x i8] c"usampler1D\00", align 1
@.str.279 = private unnamed_addr constant [11 x i8] c"isampler1D\00", align 1
@.str.280 = private unnamed_addr constant [16 x i8] c"usampler1DArray\00", align 1
@.str.281 = private unnamed_addr constant [14 x i8] c"samplerBuffer\00", align 1
@.str.282 = private unnamed_addr constant [15 x i8] c"isampler2DRect\00", align 1
@.str.283 = private unnamed_addr constant [15 x i8] c"usampler2DRect\00", align 1
@.str.284 = private unnamed_addr constant [15 x i8] c"isamplerBuffer\00", align 1
@.str.285 = private unnamed_addr constant [15 x i8] c"usamplerBuffer\00", align 1
@.str.286 = private unnamed_addr constant [12 x i8] c"sampler2DMS\00", align 1
@.str.287 = private unnamed_addr constant [13 x i8] c"isampler2DMS\00", align 1
@.str.288 = private unnamed_addr constant [13 x i8] c"usampler2DMS\00", align 1
@.str.289 = private unnamed_addr constant [17 x i8] c"sampler2DMSArray\00", align 1
@.str.290 = private unnamed_addr constant [18 x i8] c"isampler2DMSArray\00", align 1
@.str.291 = private unnamed_addr constant [18 x i8] c"usampler2DMSArray\00", align 1
@.str.292 = private unnamed_addr constant [10 x i8] c"sampler1D\00", align 1
@.str.293 = private unnamed_addr constant [16 x i8] c"sampler1DShadow\00", align 1
@.str.294 = private unnamed_addr constant [14 x i8] c"sampler2DRect\00", align 1
@.str.295 = private unnamed_addr constant [20 x i8] c"sampler2DRectShadow\00", align 1
@.str.296 = private unnamed_addr constant [15 x i8] c"sampler1DArray\00", align 1
@.str.297 = private unnamed_addr constant [19 x i8] c"samplerExternalOES\00", align 1
@.str.298 = private unnamed_addr constant [26 x i8] c"__samplerExternal2DY2YEXT\00", align 1
@.str.299 = private unnamed_addr constant [16 x i8] c"itexture1DArray\00", align 1
@.str.300 = private unnamed_addr constant [11 x i8] c"utexture1D\00", align 1
@.str.301 = private unnamed_addr constant [11 x i8] c"itexture1D\00", align 1
@.str.302 = private unnamed_addr constant [16 x i8] c"utexture1DArray\00", align 1
@.str.303 = private unnamed_addr constant [14 x i8] c"textureBuffer\00", align 1
@.str.304 = private unnamed_addr constant [15 x i8] c"itexture2DRect\00", align 1
@.str.305 = private unnamed_addr constant [15 x i8] c"utexture2DRect\00", align 1
@.str.306 = private unnamed_addr constant [15 x i8] c"itextureBuffer\00", align 1
@.str.307 = private unnamed_addr constant [15 x i8] c"utextureBuffer\00", align 1
@.str.308 = private unnamed_addr constant [12 x i8] c"texture2DMS\00", align 1
@.str.309 = private unnamed_addr constant [13 x i8] c"itexture2DMS\00", align 1
@.str.310 = private unnamed_addr constant [13 x i8] c"utexture2DMS\00", align 1
@.str.311 = private unnamed_addr constant [17 x i8] c"texture2DMSArray\00", align 1
@.str.312 = private unnamed_addr constant [18 x i8] c"itexture2DMSArray\00", align 1
@.str.313 = private unnamed_addr constant [18 x i8] c"utexture2DMSArray\00", align 1
@.str.314 = private unnamed_addr constant [10 x i8] c"texture1D\00", align 1
@.str.315 = private unnamed_addr constant [14 x i8] c"texture2DRect\00", align 1
@.str.316 = private unnamed_addr constant [15 x i8] c"texture1DArray\00", align 1
@.str.317 = private unnamed_addr constant [13 x i8] c"subpassInput\00", align 1
@.str.318 = private unnamed_addr constant [15 x i8] c"subpassInputMS\00", align 1
@.str.319 = private unnamed_addr constant [14 x i8] c"isubpassInput\00", align 1
@.str.320 = private unnamed_addr constant [16 x i8] c"isubpassInputMS\00", align 1
@.str.321 = private unnamed_addr constant [14 x i8] c"usubpassInput\00", align 1
@.str.322 = private unnamed_addr constant [16 x i8] c"usubpassInputMS\00", align 1
@.str.323 = private unnamed_addr constant [13 x i8] c"f16sampler1D\00", align 1
@.str.324 = private unnamed_addr constant [13 x i8] c"f16sampler2D\00", align 1
@.str.325 = private unnamed_addr constant [13 x i8] c"f16sampler3D\00", align 1
@.str.326 = private unnamed_addr constant [17 x i8] c"f16sampler2DRect\00", align 1
@.str.327 = private unnamed_addr constant [15 x i8] c"f16samplerCube\00", align 1
@.str.328 = private unnamed_addr constant [18 x i8] c"f16sampler1DArray\00", align 1
@.str.329 = private unnamed_addr constant [18 x i8] c"f16sampler2DArray\00", align 1
@.str.330 = private unnamed_addr constant [20 x i8] c"f16samplerCubeArray\00", align 1
@.str.331 = private unnamed_addr constant [17 x i8] c"f16samplerBuffer\00", align 1
@.str.332 = private unnamed_addr constant [15 x i8] c"f16sampler2DMS\00", align 1
@.str.333 = private unnamed_addr constant [20 x i8] c"f16sampler2DMSArray\00", align 1
@.str.334 = private unnamed_addr constant [19 x i8] c"f16sampler1DShadow\00", align 1
@.str.335 = private unnamed_addr constant [19 x i8] c"f16sampler2DShadow\00", align 1
@.str.336 = private unnamed_addr constant [23 x i8] c"f16sampler2DRectShadow\00", align 1
@.str.337 = private unnamed_addr constant [21 x i8] c"f16samplerCubeShadow\00", align 1
@.str.338 = private unnamed_addr constant [24 x i8] c"f16sampler1DArrayShadow\00", align 1
@.str.339 = private unnamed_addr constant [24 x i8] c"f16sampler2DArrayShadow\00", align 1
@.str.340 = private unnamed_addr constant [26 x i8] c"f16samplerCubeArrayShadow\00", align 1
@.str.341 = private unnamed_addr constant [11 x i8] c"f16image1D\00", align 1
@.str.342 = private unnamed_addr constant [11 x i8] c"f16image2D\00", align 1
@.str.343 = private unnamed_addr constant [11 x i8] c"f16image3D\00", align 1
@.str.344 = private unnamed_addr constant [15 x i8] c"f16image2DRect\00", align 1
@.str.345 = private unnamed_addr constant [13 x i8] c"f16imageCube\00", align 1
@.str.346 = private unnamed_addr constant [16 x i8] c"f16image1DArray\00", align 1
@.str.347 = private unnamed_addr constant [16 x i8] c"f16image2DArray\00", align 1
@.str.348 = private unnamed_addr constant [18 x i8] c"f16imageCubeArray\00", align 1
@.str.349 = private unnamed_addr constant [15 x i8] c"f16imageBuffer\00", align 1
@.str.350 = private unnamed_addr constant [13 x i8] c"f16image2DMS\00", align 1
@.str.351 = private unnamed_addr constant [18 x i8] c"f16image2DMSArray\00", align 1
@.str.352 = private unnamed_addr constant [13 x i8] c"f16texture1D\00", align 1
@.str.353 = private unnamed_addr constant [13 x i8] c"f16texture2D\00", align 1
@.str.354 = private unnamed_addr constant [13 x i8] c"f16texture3D\00", align 1
@.str.355 = private unnamed_addr constant [17 x i8] c"f16texture2DRect\00", align 1
@.str.356 = private unnamed_addr constant [15 x i8] c"f16textureCube\00", align 1
@.str.357 = private unnamed_addr constant [18 x i8] c"f16texture1DArray\00", align 1
@.str.358 = private unnamed_addr constant [18 x i8] c"f16texture2DArray\00", align 1
@.str.359 = private unnamed_addr constant [20 x i8] c"f16textureCubeArray\00", align 1
@.str.360 = private unnamed_addr constant [17 x i8] c"f16textureBuffer\00", align 1
@.str.361 = private unnamed_addr constant [15 x i8] c"f16texture2DMS\00", align 1
@.str.362 = private unnamed_addr constant [20 x i8] c"f16texture2DMSArray\00", align 1
@.str.363 = private unnamed_addr constant [16 x i8] c"f16subpassInput\00", align 1
@.str.364 = private unnamed_addr constant [18 x i8] c"f16subpassInputMS\00", align 1
@.str.365 = private unnamed_addr constant [20 x i8] c"__explicitInterpAMD\00", align 1
@.str.366 = private unnamed_addr constant [12 x i8] c"pervertexNV\00", align 1
@.str.367 = private unnamed_addr constant [8 x i8] c"precise\00", align 1
@.str.368 = private unnamed_addr constant [13 x i8] c"rayPayloadNV\00", align 1
@.str.369 = private unnamed_addr constant [14 x i8] c"rayPayloadEXT\00", align 1
@.str.370 = private unnamed_addr constant [15 x i8] c"rayPayloadInNV\00", align 1
@.str.371 = private unnamed_addr constant [16 x i8] c"rayPayloadInEXT\00", align 1
@.str.372 = private unnamed_addr constant [15 x i8] c"hitAttributeNV\00", align 1
@.str.373 = private unnamed_addr constant [16 x i8] c"hitAttributeEXT\00", align 1
@.str.374 = private unnamed_addr constant [15 x i8] c"callableDataNV\00", align 1
@.str.375 = private unnamed_addr constant [16 x i8] c"callableDataEXT\00", align 1
@.str.376 = private unnamed_addr constant [17 x i8] c"callableDataInNV\00", align 1
@.str.377 = private unnamed_addr constant [18 x i8] c"callableDataInEXT\00", align 1
@.str.378 = private unnamed_addr constant [24 x i8] c"accelerationStructureNV\00", align 1
@.str.379 = private unnamed_addr constant [25 x i8] c"accelerationStructureEXT\00", align 1
@.str.380 = private unnamed_addr constant [12 x i8] c"rayQueryEXT\00", align 1
@.str.381 = private unnamed_addr constant [15 x i8] c"perprimitiveNV\00", align 1
@.str.382 = private unnamed_addr constant [10 x i8] c"perviewNV\00", align 1
@.str.383 = private unnamed_addr constant [7 x i8] c"taskNV\00", align 1
@.str.384 = private unnamed_addr constant [11 x i8] c"fcoopmatNV\00", align 1
@.str.385 = private unnamed_addr constant [11 x i8] c"icoopmatNV\00", align 1
@.str.386 = private unnamed_addr constant [11 x i8] c"ucoopmatNV\00", align 1
@_ZN12_GLOBAL__N_111ReservedSetE = internal unnamed_addr global %"class.std::__1::unordered_set.411"* null, align 8
@.str.387 = private unnamed_addr constant [7 x i8] c"common\00", align 1
@.str.388 = private unnamed_addr constant [10 x i8] c"partition\00", align 1
@.str.389 = private unnamed_addr constant [7 x i8] c"active\00", align 1
@.str.390 = private unnamed_addr constant [4 x i8] c"asm\00", align 1
@.str.391 = private unnamed_addr constant [6 x i8] c"class\00", align 1
@.str.392 = private unnamed_addr constant [6 x i8] c"union\00", align 1
@.str.393 = private unnamed_addr constant [5 x i8] c"enum\00", align 1
@.str.394 = private unnamed_addr constant [8 x i8] c"typedef\00", align 1
@.str.395 = private unnamed_addr constant [9 x i8] c"template\00", align 1
@.str.396 = private unnamed_addr constant [5 x i8] c"this\00", align 1
@.str.397 = private unnamed_addr constant [5 x i8] c"goto\00", align 1
@.str.398 = private unnamed_addr constant [7 x i8] c"inline\00", align 1
@.str.399 = private unnamed_addr constant [9 x i8] c"noinline\00", align 1
@.str.400 = private unnamed_addr constant [7 x i8] c"public\00", align 1
@.str.401 = private unnamed_addr constant [7 x i8] c"static\00", align 1
@.str.402 = private unnamed_addr constant [7 x i8] c"extern\00", align 1
@.str.403 = private unnamed_addr constant [9 x i8] c"external\00", align 1
@.str.404 = private unnamed_addr constant [10 x i8] c"interface\00", align 1
@.str.405 = private unnamed_addr constant [5 x i8] c"long\00", align 1
@.str.406 = private unnamed_addr constant [6 x i8] c"short\00", align 1
@.str.407 = private unnamed_addr constant [5 x i8] c"half\00", align 1
@.str.408 = private unnamed_addr constant [6 x i8] c"fixed\00", align 1
@.str.409 = private unnamed_addr constant [9 x i8] c"unsigned\00", align 1
@.str.410 = private unnamed_addr constant [6 x i8] c"input\00", align 1
@.str.411 = private unnamed_addr constant [7 x i8] c"output\00", align 1
@.str.412 = private unnamed_addr constant [6 x i8] c"hvec2\00", align 1
@.str.413 = private unnamed_addr constant [6 x i8] c"hvec3\00", align 1
@.str.414 = private unnamed_addr constant [6 x i8] c"hvec4\00", align 1
@.str.415 = private unnamed_addr constant [6 x i8] c"fvec2\00", align 1
@.str.416 = private unnamed_addr constant [6 x i8] c"fvec3\00", align 1
@.str.417 = private unnamed_addr constant [6 x i8] c"fvec4\00", align 1
@.str.418 = private unnamed_addr constant [14 x i8] c"sampler3DRect\00", align 1
@.str.419 = private unnamed_addr constant [7 x i8] c"filter\00", align 1
@.str.420 = private unnamed_addr constant [7 x i8] c"sizeof\00", align 1
@.str.421 = private unnamed_addr constant [5 x i8] c"cast\00", align 1
@.str.422 = private unnamed_addr constant [10 x i8] c"namespace\00", align 1
@.str.423 = private unnamed_addr constant [6 x i8] c"using\00", align 1
@__const._ZN7glslang12TScanContext8tokenizeEPNS_10TPpContextERNS_12TParserTokenE.ppToken = private unnamed_addr constant <{ { %"class.std::__1::basic_string"*, i32, i32, i32, [4 x i8] }, i8, [7 x i8], %union.anon.249, [1025 x i8], [7 x i8] }> <{ { %"class.std::__1::basic_string"*, i32, i32, i32, [4 x i8] } { %"class.std::__1::basic_string"* inttoptr (i64 -6148914691236517206 to %"class.std::__1::basic_string"*), i32 -1431655766, i32 -1431655766, i32 -1431655766, [4 x i8] c"\AA\AA\AA\AA" }, i8 -86, [7 x i8] c"\AA\AA\AA\AA\AA\AA\AA", %union.anon.249 { double 0xFFFFFFFFFFFFFFFF }, [1025 x i8] c"\AA\AA\AA\AA\AA\AA\AA\AA\AA\AA\AA\AA\AA\AA\AA\AA\AA\AA\AA\AA\AA\AA\AA\AA\AA\AA\AA\AA\AA\AA\AA\AA\AA\AA\AA\AA\AA\AA\AA\AA\AA\AA\AA\AA\AA\AA\AA\AA\AA\AA\AA\AA\AA\AA\AA\AA\AA\AA\AA\AA\AA\AA\AA\AA\AA\AA\AA\AA\AA\AA\AA\AA\AA\AA\AA\AA\AA\AA\AA\AA\AA\AA\AA\AA\AA\AA\AA\AA\AA\AA\AA\AA\AA\AA\AA\AA\AA\AA\AA\AA\AA\AA\AA\AA\AA\AA\AA\AA\AA\AA\AA\AA\AA\AA\AA\AA\AA\AA\AA\AA\AA\AA\AA\AA\AA\AA\AA\AA\AA\AA\AA\AA\AA\AA\AA\AA\AA\AA\AA\AA\AA\AA\AA\AA\AA\AA\AA\AA\AA\AA\AA\AA\AA\AA\AA\AA\AA\AA\AA\AA\AA\AA\AA\AA\AA\AA\AA\AA\AA\AA\AA\AA\AA\AA\AA\AA\AA\AA\AA\AA\AA\AA\AA\AA\AA\AA\AA\AA\AA\AA\AA\AA\AA\AA\AA\AA\AA\AA\AA\AA\AA\AA\AA\AA\AA\AA\AA\AA\AA\AA\AA\AA\AA\AA\AA\AA\AA\AA\AA\AA\AA\AA\AA\AA\AA\AA\AA\AA\AA\AA\AA\AA\AA\AA\AA\AA\AA\AA\AA\AA\AA\AA\AA\AA\AA\AA\AA\AA\AA\AA\AA\AA\AA\AA\AA\AA\AA\AA\AA\AA\AA\AA\AA\AA\AA\AA\AA\AA\AA\AA\AA\AA\AA\AA\AA\AA\AA\AA\AA\AA\AA\AA\AA\AA\AA\AA\AA\AA\AA\AA\AA\AA\AA\AA\AA\AA\AA\AA\AA\AA\AA\AA\AA\AA\AA\AA\AA\AA\AA\AA\AA\AA\AA\AA\AA\AA\AA\AA\AA\AA\AA\AA\AA\AA\AA\AA\AA\AA\AA\AA\AA\AA\AA\AA\AA\AA\AA\AA\AA\AA\AA\AA\AA\AA\AA\AA\AA\AA\AA\AA\AA\AA\AA\AA\AA\AA\AA\AA\AA\AA\AA\AA\AA\AA\AA\AA\AA\AA\AA\AA\AA\AA\AA\AA\AA\AA\AA\AA\AA\AA\AA\AA\AA\AA\AA\AA\AA\AA\AA\AA\AA\AA\AA\AA\AA\AA\AA\AA\AA\AA\AA\AA\AA\AA\AA\AA\AA\AA\AA\AA\AA\AA\AA\AA\AA\AA\AA\AA\AA\AA\AA\AA\AA\AA\AA\AA\AA\AA\AA\AA\AA\AA\AA\AA\AA\AA\AA\AA\AA\AA\AA\AA\AA\AA\AA\AA\AA\AA\AA\AA\AA\AA\AA\AA\AA\AA\AA\AA\AA\AA\AA\AA\AA\AA\AA\AA\AA\AA\AA\AA\AA\AA\AA\AA\AA\AA\AA\AA\AA\AA\AA\AA\AA\AA\AA\AA\AA\AA\AA\AA\AA\AA\AA\AA\AA\AA\AA\AA\AA\AA\AA\AA\AA\AA\AA\AA\AA\AA\AA\AA\AA\AA\AA\AA\AA\AA\AA\AA\AA\AA\AA\AA\AA\AA\AA\AA\AA\AA\AA\AA\AA\AA\AA\AA\AA\AA\AA\AA\AA\AA\AA\AA\AA\AA\AA\AA\AA\AA\AA\AA\AA\AA\AA\AA\AA\AA\AA\AA\AA\AA\AA\AA\AA\AA\AA\AA\AA\AA\AA\AA\AA\AA\AA\AA\AA\AA\AA\AA\AA\AA\AA\AA\AA\AA\AA\AA\AA\AA\AA\AA\AA\AA\AA\AA\AA\AA\AA\AA\AA\AA\AA\AA\AA\AA\AA\AA\AA\AA\AA\AA\AA\AA\AA\AA\AA\AA\AA\AA\AA\AA\AA\AA\AA\AA\AA\AA\AA\AA\AA\AA\AA\AA\AA\AA\AA\AA\AA\AA\AA\AA\AA\AA\AA\AA\AA\AA\AA\AA\AA\AA\AA\AA\AA\AA\AA\AA\AA\AA\AA\AA\AA\AA\AA\AA\AA\AA\AA\AA\AA\AA\AA\AA\AA\AA\AA\AA\AA\AA\AA\AA\AA\AA\AA\AA\AA\AA\AA\AA\AA\AA\AA\AA\AA\AA\AA\AA\AA\AA\AA\AA\AA\AA\AA\AA\AA\AA\AA\AA\AA\AA\AA\AA\AA\AA\AA\AA\AA\AA\AA\AA\AA\AA\AA\AA\AA\AA\AA\AA\AA\AA\AA\AA\AA\AA\AA\AA\AA\AA\AA\AA\AA\AA\AA\AA\AA\AA\AA\AA\AA\AA\AA\AA\AA\AA\AA\AA\AA\AA\AA\AA\AA\AA\AA\AA\AA\AA\AA\AA\AA\AA\AA\AA\AA\AA\AA\AA\AA\AA\AA\AA\AA\AA\AA\AA\AA\AA\AA\AA\AA\AA\AA\AA\AA\AA\AA\AA\AA\AA\AA\AA\AA\AA\AA\AA\AA\AA\AA\AA\AA\AA\AA\AA\AA\AA\AA\AA\AA\AA\AA\AA\AA\AA\AA\AA\AA\AA\AA\AA\AA\AA\AA\AA\AA\AA\AA\AA\AA\AA\AA\AA\AA\AA\AA\AA\AA\AA\AA\AA\AA\AA\AA\AA\AA\AA\AA\AA\AA\AA\AA\AA\AA\AA\AA\AA\AA\AA\AA\AA\AA\AA\AA\AA\AA\AA\AA\AA\AA\AA\AA\AA\AA\AA\AA\AA\AA\AA\AA\AA\AA\AA\AA\AA\AA\AA\AA\AA\AA\AA\AA\AA\AA\AA\AA\AA\AA\AA\AA\AA\AA\AA\AA\AA\AA\AA\AA\AA\AA\AA\AA\AA\AA\AA\AA\AA\AA\AA\AA\AA\AA\AA\AA\AA\AA\AA\AA\AA\AA\AA\AA\AA\AA\AA\AA\AA\AA\AA\AA\AA\AA\AA\AA\AA\AA\AA\AA\AA\AA\AA\AA\AA\AA\AA\AA\AA\AA\AA\AA\AA\AA\AA\AA\AA\AA\AA\AA\AA\AA\AA\AA\AA\AA\AA\AA\AA\AA\AA\AA\AA\AA\AA\AA\AA\AA\AA\AA\AA\AA\AA\AA\AA\AA\AA\AA\AA\AA\AA\AA\AA\AA\AA\AA\AA\AA\AA\AA\AA\AA\AA\AA\AA\AA\AA\AA\AA\AA", [7 x i8] c"\AA\AA\AA\AA\AA\AA\AA" }>, align 8
@.str.424 = private unnamed_addr constant [32 x i8] c"illegal use of escape character\00", align 1
@.str.425 = private unnamed_addr constant [2 x i8] c"\5C\00", align 1
@.str.426 = private unnamed_addr constant [1 x i8] zeroinitializer, align 1
@.str.427 = private unnamed_addr constant [14 x i8] c"not supported\00", align 1
@.str.428 = private unnamed_addr constant [3 x i8] c"::\00", align 1
@.str.429 = private unnamed_addr constant [17 x i8] c"unexpected token\00", align 1
@.str.430 = private unnamed_addr constant [28 x i8] c"GL_EXT_terminate_invocation\00", align 1
@.str.431 = private unnamed_addr constant [19 x i8] c"GL_EXT_ray_tracing\00", align 1
@.str.432 = private unnamed_addr constant [36 x i8] c"GL_ARB_shader_storage_buffer_object\00", align 1
@.str.433 = private unnamed_addr constant [41 x i8] c"GL_NV_shader_noperspective_interpolation\00", align 1
@.str.434 = private unnamed_addr constant [28 x i8] c"GL_EXT_nonuniform_qualifier\00", align 1
@.str.435 = private unnamed_addr constant [18 x i8] c"GL_NV_ray_tracing\00", align 1
@.str.436 = private unnamed_addr constant [17 x i8] c"GL_EXT_ray_query\00", align 1
@.str.437 = private unnamed_addr constant [30 x i8] c"GL_ARB_shader_atomic_counters\00", align 1
@.str.438 = private unnamed_addr constant [31 x i8] c"GL_ARB_shader_image_load_store\00", align 1
@_ZN7glslangL23AEP_tessellation_shaderE = internal constant [2 x i8*] [i8* getelementptr inbounds ([27 x i8], [27 x i8]* @.str.481, i32 0, i32 0), i8* getelementptr inbounds ([27 x i8], [27 x i8]* @.str.482, i32 0, i32 0)], align 16
@.str.439 = private unnamed_addr constant [27 x i8] c"GL_ARB_tessellation_shader\00", align 1
@_ZN7glslangL41E_GL_OES_shader_multisample_interpolationE = internal constant i8* getelementptr inbounds ([40 x i8], [40 x i8]* @.str.483, i64 0, i64 0), align 8
@.str.440 = private unnamed_addr constant [32 x i8] c"GL_ARB_shading_language_420pack\00", align 1
@.str.441 = private unnamed_addr constant [32 x i8] c"GL_ARB_explicit_attrib_location\00", align 1
@__const._ZN7glslang12TScanContext18tokenizeIdentifierEv.layoutExts = private unnamed_addr constant [2 x i8*] [i8* getelementptr inbounds ([32 x i8], [32 x i8]* @.str.440, i32 0, i32 0), i8* getelementptr inbounds ([32 x i8], [32 x i8]* @.str.441, i32 0, i32 0)], align 16
@.str.442 = private unnamed_addr constant [26 x i8] c"GL_EXT_shader_image_int64\00", align 1
@_ZN7glslangL18AEP_texture_bufferE = internal constant [2 x i8*] [i8* getelementptr inbounds ([22 x i8], [22 x i8]* @.str.484, i32 0, i32 0), i8* getelementptr inbounds ([22 x i8], [22 x i8]* @.str.485, i32 0, i32 0)], align 16
@_ZN7glslangL26AEP_texture_cube_map_arrayE = internal constant [2 x i8*] [i8* getelementptr inbounds ([30 x i8], [30 x i8]* @.str.486, i32 0, i32 0), i8* getelementptr inbounds ([30 x i8], [30 x i8]* @.str.487, i32 0, i32 0)], align 16
@.str.443 = private unnamed_addr constant [23 x i8] c"GL_ARB_gpu_shader_fp64\00", align 1
@.str.444 = private unnamed_addr constant [27 x i8] c"GL_ARB_vertex_attrib_64bit\00", align 1
@.str.445 = private unnamed_addr constant [24 x i8] c"GL_ARB_gpu_shader_int64\00", align 1
@.str.446 = private unnamed_addr constant [40 x i8] c"GL_EXT_shader_explicit_arithmetic_types\00", align 1
@.str.447 = private unnamed_addr constant [46 x i8] c"GL_EXT_shader_explicit_arithmetic_types_int64\00", align 1
@.str.448 = private unnamed_addr constant [27 x i8] c"GL_EXT_shader_8bit_storage\00", align 1
@.str.449 = private unnamed_addr constant [45 x i8] c"GL_EXT_shader_explicit_arithmetic_types_int8\00", align 1
@.str.450 = private unnamed_addr constant [24 x i8] c"GL_AMD_gpu_shader_int16\00", align 1
@.str.451 = private unnamed_addr constant [28 x i8] c"GL_EXT_shader_16bit_storage\00", align 1
@.str.452 = private unnamed_addr constant [46 x i8] c"GL_EXT_shader_explicit_arithmetic_types_int16\00", align 1
@.str.453 = private unnamed_addr constant [46 x i8] c"GL_EXT_shader_explicit_arithmetic_types_int32\00", align 1
@.str.454 = private unnamed_addr constant [48 x i8] c"GL_EXT_shader_explicit_arithmetic_types_float32\00", align 1
@.str.455 = private unnamed_addr constant [48 x i8] c"GL_EXT_shader_explicit_arithmetic_types_float64\00", align 1
@.str.456 = private unnamed_addr constant [29 x i8] c"GL_AMD_gpu_shader_half_float\00", align 1
@.str.457 = private unnamed_addr constant [48 x i8] c"GL_EXT_shader_explicit_arithmetic_types_float16\00", align 1
@.str.458 = private unnamed_addr constant [30 x i8] c"GL_ARB_texture_cube_map_array\00", align 1
@.str.459 = private unnamed_addr constant [18 x i8] c"GL_OES_texture_3D\00", align 1
@.str.460 = private unnamed_addr constant [23 x i8] c"GL_EXT_shadow_samplers\00", align 1
@_ZN7glslangL28E_GL_ARB_texture_multisampleE = internal constant i8* getelementptr inbounds ([27 x i8], [27 x i8]* @.str.488, i64 0, i64 0), align 8
@_ZN7glslangL45E_GL_OES_texture_storage_multisample_2d_arrayE = internal constant i8* getelementptr inbounds ([44 x i8], [44 x i8]* @.str.489, i64 0, i64 0), align 8
@.str.461 = private unnamed_addr constant [25 x i8] c"GL_ARB_texture_rectangle\00", align 1
@_ZN7glslangL26E_GL_ARB_texture_rectangleE = internal constant i8* getelementptr inbounds ([25 x i8], [25 x i8]* @.str.461, i64 0, i64 0), align 8
@.str.462 = private unnamed_addr constant [34 x i8] c"texture-rectangle sampler keyword\00", align 1
@.str.463 = private unnamed_addr constant [26 x i8] c"GL_OES_EGL_image_external\00", align 1
@.str.464 = private unnamed_addr constant [32 x i8] c"GL_OES_EGL_image_external_essl3\00", align 1
@.str.465 = private unnamed_addr constant [18 x i8] c"GL_EXT_YUV_target\00", align 1
@.str.466 = private unnamed_addr constant [35 x i8] c"GL_AMD_gpu_shader_half_float_fetch\00", align 1
@.str.467 = private unnamed_addr constant [40 x i8] c"GL_AMD_shader_explicit_vertex_parameter\00", align 1
@.str.468 = private unnamed_addr constant [34 x i8] c"GL_NV_fragment_shader_barycentric\00", align 1
@_ZN7glslangL15AEP_gpu_shader5E = internal constant [2 x i8*] [i8* getelementptr inbounds ([19 x i8], [19 x i8]* @.str.490, i32 0, i32 0), i8* getelementptr inbounds ([19 x i8], [19 x i8]* @.str.491, i32 0, i32 0)], align 16
@.str.469 = private unnamed_addr constant [18 x i8] c"GL_NV_mesh_shader\00", align 1
@.str.470 = private unnamed_addr constant [25 x i8] c"GL_NV_cooperative_matrix\00", align 1
@.str.471 = private unnamed_addr constant [33 x i8] c"GL_NV_integer_cooperative_matrix\00", align 1
@.str.472 = private unnamed_addr constant [35 x i8] c"GL_EXT_demote_to_helper_invocation\00", align 1
@.str.473 = private unnamed_addr constant [24 x i8] c"Unknown glslang keyword\00", align 1
@.str.474 = private unnamed_addr constant [15 x i8] c"Reserved word.\00", align 1
@.str.475 = private unnamed_addr constant [30 x i8] c"using future reserved keyword\00", align 1
@.str.476 = private unnamed_addr constant [51 x i8] c"future reserved word in ES 300 and keyword in GLSL\00", align 1
@.str.477 = private unnamed_addr constant [21 x i8] c"using future keyword\00", align 1
@.str.478 = private unnamed_addr constant [37 x i8] c"using ES precision qualifier keyword\00", align 1
@.str.479 = private unnamed_addr constant [44 x i8] c"using future non-square matrix type keyword\00", align 1
@.str.480 = private unnamed_addr constant [26 x i8] c"using future type keyword\00", align 1
@.str.481 = private unnamed_addr constant [27 x i8] c"GL_EXT_tessellation_shader\00", align 1
@.str.482 = private unnamed_addr constant [27 x i8] c"GL_OES_tessellation_shader\00", align 1
@.str.483 = private unnamed_addr constant [40 x i8] c"GL_OES_shader_multisample_interpolation\00", align 1
@.str.484 = private unnamed_addr constant [22 x i8] c"GL_EXT_texture_buffer\00", align 1
@.str.485 = private unnamed_addr constant [22 x i8] c"GL_OES_texture_buffer\00", align 1
@.str.486 = private unnamed_addr constant [30 x i8] c"GL_EXT_texture_cube_map_array\00", align 1
@.str.487 = private unnamed_addr constant [30 x i8] c"GL_OES_texture_cube_map_array\00", align 1
@.str.488 = private unnamed_addr constant [27 x i8] c"GL_ARB_texture_multisample\00", align 1
@.str.489 = private unnamed_addr constant [44 x i8] c"GL_OES_texture_storage_multisample_2d_array\00", align 1
@.str.490 = private unnamed_addr constant [19 x i8] c"GL_EXT_gpu_shader5\00", align 1
@.str.491 = private unnamed_addr constant [19 x i8] c"GL_OES_gpu_shader5\00", align 1
@.str.492 = private unnamed_addr constant [2 x i8] c"\0A\00", align 1
@.str.495 = private unnamed_addr constant [17 x i8] c"INTERNAL ERROR: \00", align 1
@.str.499 = private unnamed_addr constant [4 x i8] c":%d\00", align 1
@.str.500 = private unnamed_addr constant [3 x i8] c": \00", align 1
@.str.501 = private unnamed_addr constant [2 x i8] c"\22\00", align 1

; Function Attrs: nounwind ssp uwtable
define hidden void @_ZN7glslang13TInputScanner17consumeWhiteSpaceERb(%"class.glslang::TInputScanner"*, i8* nocapture dereferenceable(1)) local_unnamed_addr #0 align 2 {
  %3 = getelementptr inbounds %"class.glslang::TInputScanner", %"class.glslang::TInputScanner"* %0, i64 0, i32 5
  %4 = load i32, i32* %3, align 8
  %5 = getelementptr inbounds %"class.glslang::TInputScanner", %"class.glslang::TInputScanner"* %0, i64 0, i32 1
  %6 = load i32, i32* %5, align 8
  %7 = icmp slt i32 %4, %6
  br i1 %7, label %10, label %8

8:                                                ; preds = %2
  %9 = getelementptr inbounds %"class.glslang::TInputScanner", %"class.glslang::TInputScanner"* %0, i64 0, i32 13
  store i8 1, i8* %9, align 1
  br label %34

10:                                               ; preds = %2
  %11 = getelementptr inbounds %"class.glslang::TInputScanner", %"class.glslang::TInputScanner"* %0, i64 0, i32 7
  %12 = load i64, i64* %11, align 8
  %13 = getelementptr inbounds %"class.glslang::TInputScanner", %"class.glslang::TInputScanner"* %0, i64 0, i32 4
  %14 = load i64*, i64** %13, align 8
  %15 = sext i32 %4 to i64
  br label %16

16:                                               ; preds = %22, %10
  %17 = phi i64 [ %23, %22 ], [ %15, %10 ]
  %18 = phi i64 [ 0, %22 ], [ %12, %10 ]
  %19 = getelementptr inbounds i64, i64* %14, i64 %17
  %20 = load i64, i64* %19, align 8
  %21 = icmp ult i64 %18, %20
  br i1 %21, label %26, label %22

22:                                               ; preds = %16
  %23 = add nsw i64 %17, 1
  %24 = trunc i64 %23 to i32
  %25 = icmp eq i32 %6, %24
  br i1 %25, label %34, label %16

26:                                               ; preds = %16
  %27 = getelementptr inbounds %"class.glslang::TInputScanner", %"class.glslang::TInputScanner"* %0, i64 0, i32 3
  %28 = load i8**, i8*** %27, align 8
  %29 = getelementptr inbounds i8*, i8** %28, i64 %17
  %30 = load i8*, i8** %29, align 8
  %31 = getelementptr inbounds i8, i8* %30, i64 %18
  %32 = load i8, i8* %31, align 1
  %33 = zext i8 %32 to i32
  br label %34

34:                                               ; preds = %22, %8, %26
  %35 = phi i32 [ -1, %8 ], [ %33, %26 ], [ -1, %22 ]
  %36 = getelementptr inbounds %"class.glslang::TInputScanner", %"class.glslang::TInputScanner"* %0, i64 0, i32 13
  %37 = getelementptr inbounds %"class.glslang::TInputScanner", %"class.glslang::TInputScanner"* %0, i64 0, i32 7
  %38 = getelementptr inbounds %"class.glslang::TInputScanner", %"class.glslang::TInputScanner"* %0, i64 0, i32 4
  %39 = getelementptr inbounds %"class.glslang::TInputScanner", %"class.glslang::TInputScanner"* %0, i64 0, i32 3
  %40 = getelementptr inbounds %"class.glslang::TInputScanner", %"class.glslang::TInputScanner"* %0, i64 0, i32 8
  %41 = getelementptr inbounds %"class.glslang::TInputScanner", %"class.glslang::TInputScanner"* %0, i64 0, i32 11, i32 3
  %42 = getelementptr inbounds %"class.glslang::TInputScanner", %"class.glslang::TInputScanner"* %0, i64 0, i32 11, i32 2
  br label %43

43:                                               ; preds = %103, %34
  %44 = phi i32 [ %6, %34 ], [ %99, %103 ]
  %45 = phi i32 [ %4, %34 ], [ %100, %103 ]
  %46 = phi i32 [ %35, %34 ], [ %104, %103 ]
  switch i32 %46, label %126 [
    i32 13, label %47
    i32 10, label %47
    i32 9, label %50
    i32 32, label %50
  ]

47:                                               ; preds = %43, %43
  store i8 1, i8* %1, align 1
  %48 = load i32, i32* %3, align 8
  %49 = load i32, i32* %5, align 8
  br label %50

50:                                               ; preds = %43, %43, %47
  %51 = phi i32 [ %44, %43 ], [ %44, %43 ], [ %49, %47 ]
  %52 = phi i32 [ %45, %43 ], [ %45, %43 ], [ %48, %47 ]
  %53 = icmp slt i32 %52, %51
  br i1 %53, label %55, label %54

54:                                               ; preds = %50
  store i8 1, i8* %36, align 1
  br label %98

55:                                               ; preds = %50
  %56 = load i64, i64* %37, align 8
  %57 = load i64*, i64** %38, align 8
  %58 = sext i32 %52 to i64
  br label %59

59:                                               ; preds = %65, %55
  %60 = phi i64 [ %66, %65 ], [ %58, %55 ]
  %61 = phi i64 [ 0, %65 ], [ %56, %55 ]
  %62 = getelementptr inbounds i64, i64* %57, i64 %60
  %63 = load i64, i64* %62, align 8
  %64 = icmp ult i64 %61, %63
  br i1 %64, label %69, label %65

65:                                               ; preds = %59
  %66 = add nsw i64 %60, 1
  %67 = trunc i64 %66 to i32
  %68 = icmp eq i32 %51, %67
  br i1 %68, label %98, label %59

69:                                               ; preds = %59
  %70 = load i8**, i8*** %39, align 8
  %71 = getelementptr inbounds i8*, i8** %70, i64 %60
  %72 = load i8*, i8** %71, align 8
  %73 = getelementptr inbounds i8, i8* %72, i64 %61
  %74 = load i8, i8* %73, align 1
  %75 = load %"struct.glslang::TSourceLoc"*, %"struct.glslang::TSourceLoc"** %40, align 8
  %76 = getelementptr inbounds %"struct.glslang::TSourceLoc", %"struct.glslang::TSourceLoc"* %75, i64 %58, i32 3
  %77 = load i32, i32* %76, align 8
  %78 = add nsw i32 %77, 1
  store i32 %78, i32* %76, align 8
  %79 = load i32, i32* %41, align 8
  %80 = add nsw i32 %79, 1
  store i32 %80, i32* %41, align 8
  %81 = icmp eq i8 %74, 10
  br i1 %81, label %82, label %95

82:                                               ; preds = %69
  %83 = load %"struct.glslang::TSourceLoc"*, %"struct.glslang::TSourceLoc"** %40, align 8
  %84 = load i32, i32* %3, align 8
  %85 = sext i32 %84 to i64
  %86 = getelementptr inbounds %"struct.glslang::TSourceLoc", %"struct.glslang::TSourceLoc"* %83, i64 %85, i32 2
  %87 = load i32, i32* %86, align 4
  %88 = add nsw i32 %87, 1
  store i32 %88, i32* %86, align 4
  %89 = load i32, i32* %42, align 4
  %90 = add nsw i32 %89, 1
  store i32 %90, i32* %42, align 4
  store i32 0, i32* %41, align 8
  %91 = load %"struct.glslang::TSourceLoc"*, %"struct.glslang::TSourceLoc"** %40, align 8
  %92 = load i32, i32* %3, align 8
  %93 = sext i32 %92 to i64
  %94 = getelementptr inbounds %"struct.glslang::TSourceLoc", %"struct.glslang::TSourceLoc"* %91, i64 %93, i32 3
  store i32 0, i32* %94, align 8
  br label %95

95:                                               ; preds = %82, %69
  tail call void @_ZN7glslang13TInputScanner7advanceEv(%"class.glslang::TInputScanner"* %0) #12
  %96 = load i32, i32* %3, align 8
  %97 = load i32, i32* %5, align 8
  br label %98

98:                                               ; preds = %65, %54, %95
  %99 = phi i32 [ %51, %54 ], [ %97, %95 ], [ %51, %65 ]
  %100 = phi i32 [ %52, %54 ], [ %96, %95 ], [ %52, %65 ]
  %101 = icmp slt i32 %100, %99
  br i1 %101, label %105, label %102

102:                                              ; preds = %98
  store i8 1, i8* %36, align 1
  br label %103

103:                                              ; preds = %115, %102, %119
  %104 = phi i32 [ -1, %102 ], [ %125, %119 ], [ -1, %115 ]
  br label %43

105:                                              ; preds = %98
  %106 = load i64, i64* %37, align 8
  %107 = load i64*, i64** %38, align 8
  %108 = sext i32 %100 to i64
  br label %109

109:                                              ; preds = %115, %105
  %110 = phi i64 [ %116, %115 ], [ %108, %105 ]
  %111 = phi i64 [ 0, %115 ], [ %106, %105 ]
  %112 = getelementptr inbounds i64, i64* %107, i64 %110
  %113 = load i64, i64* %112, align 8
  %114 = icmp ult i64 %111, %113
  br i1 %114, label %119, label %115

115:                                              ; preds = %109
  %116 = add nsw i64 %110, 1
  %117 = trunc i64 %116 to i32
  %118 = icmp eq i32 %99, %117
  br i1 %118, label %103, label %109

119:                                              ; preds = %109
  %120 = load i8**, i8*** %39, align 8
  %121 = getelementptr inbounds i8*, i8** %120, i64 %110
  %122 = load i8*, i8** %121, align 8
  %123 = getelementptr inbounds i8, i8* %122, i64 %111
  %124 = load i8, i8* %123, align 1
  %125 = zext i8 %124 to i32
  br label %103

126:                                              ; preds = %43
  ret void
}

; Function Attrs: argmemonly nounwind
declare void @llvm.lifetime.start.p0i8(i64 immarg, i8* nocapture) #1

; Function Attrs: argmemonly nounwind
declare void @llvm.lifetime.end.p0i8(i64 immarg, i8* nocapture) #1

; Function Attrs: nounwind ssp uwtable
define hidden zeroext i1 @_ZN7glslang13TInputScanner14consumeCommentEv(%"class.glslang::TInputScanner"*) local_unnamed_addr #0 align 2 {
  %2 = getelementptr inbounds %"class.glslang::TInputScanner", %"class.glslang::TInputScanner"* %0, i64 0, i32 5
  %3 = load i32, i32* %2, align 8
  %4 = getelementptr inbounds %"class.glslang::TInputScanner", %"class.glslang::TInputScanner"* %0, i64 0, i32 1
  %5 = load i32, i32* %4, align 8
  %6 = icmp slt i32 %3, %5
  br i1 %6, label %9, label %7

7:                                                ; preds = %1
  %8 = getelementptr inbounds %"class.glslang::TInputScanner", %"class.glslang::TInputScanner"* %0, i64 0, i32 13
  store i8 1, i8* %8, align 1
  br label %658

9:                                                ; preds = %1
  %10 = getelementptr inbounds %"class.glslang::TInputScanner", %"class.glslang::TInputScanner"* %0, i64 0, i32 7
  %11 = load i64, i64* %10, align 8
  %12 = getelementptr inbounds %"class.glslang::TInputScanner", %"class.glslang::TInputScanner"* %0, i64 0, i32 4
  %13 = load i64*, i64** %12, align 8
  %14 = sext i32 %3 to i64
  br label %15

15:                                               ; preds = %21, %9
  %16 = phi i64 [ %22, %21 ], [ %14, %9 ]
  %17 = phi i64 [ 0, %21 ], [ %11, %9 ]
  %18 = getelementptr inbounds i64, i64* %13, i64 %16
  %19 = load i64, i64* %18, align 8
  %20 = icmp ult i64 %17, %19
  br i1 %20, label %25, label %21

21:                                               ; preds = %15
  %22 = add nsw i64 %16, 1
  %23 = trunc i64 %22 to i32
  %24 = icmp eq i32 %5, %23
  br i1 %24, label %658, label %15

25:                                               ; preds = %15
  %26 = getelementptr inbounds %"class.glslang::TInputScanner", %"class.glslang::TInputScanner"* %0, i64 0, i32 3
  %27 = load i8**, i8*** %26, align 8
  %28 = getelementptr inbounds i8*, i8** %27, i64 %16
  %29 = load i8*, i8** %28, align 8
  %30 = getelementptr inbounds i8, i8* %29, i64 %17
  %31 = load i8, i8* %30, align 1
  %32 = icmp eq i8 %31, 47
  br i1 %32, label %33, label %658

33:                                               ; preds = %25, %39
  %34 = phi i64 [ %40, %39 ], [ %14, %25 ]
  %35 = phi i64 [ 0, %39 ], [ %11, %25 ]
  %36 = getelementptr inbounds i64, i64* %13, i64 %34
  %37 = load i64, i64* %36, align 8
  %38 = icmp ult i64 %35, %37
  br i1 %38, label %43, label %39

39:                                               ; preds = %33
  %40 = add nsw i64 %34, 1
  %41 = trunc i64 %40 to i32
  %42 = icmp eq i32 %5, %41
  br i1 %42, label %74, label %33

43:                                               ; preds = %33
  %44 = getelementptr inbounds i8*, i8** %27, i64 %34
  %45 = load i8*, i8** %44, align 8
  %46 = getelementptr inbounds i8, i8* %45, i64 %35
  %47 = load i8, i8* %46, align 1
  %48 = getelementptr inbounds %"class.glslang::TInputScanner", %"class.glslang::TInputScanner"* %0, i64 0, i32 8
  %49 = load %"struct.glslang::TSourceLoc"*, %"struct.glslang::TSourceLoc"** %48, align 8
  %50 = getelementptr inbounds %"struct.glslang::TSourceLoc", %"struct.glslang::TSourceLoc"* %49, i64 %14, i32 3
  %51 = load i32, i32* %50, align 8
  %52 = add nsw i32 %51, 1
  store i32 %52, i32* %50, align 8
  %53 = getelementptr inbounds %"class.glslang::TInputScanner", %"class.glslang::TInputScanner"* %0, i64 0, i32 11, i32 3
  %54 = load i32, i32* %53, align 8
  %55 = add nsw i32 %54, 1
  store i32 %55, i32* %53, align 8
  %56 = icmp eq i8 %47, 10
  br i1 %56, label %57, label %71

57:                                               ; preds = %43
  %58 = load %"struct.glslang::TSourceLoc"*, %"struct.glslang::TSourceLoc"** %48, align 8
  %59 = load i32, i32* %2, align 8
  %60 = sext i32 %59 to i64
  %61 = getelementptr inbounds %"struct.glslang::TSourceLoc", %"struct.glslang::TSourceLoc"* %58, i64 %60, i32 2
  %62 = load i32, i32* %61, align 4
  %63 = add nsw i32 %62, 1
  store i32 %63, i32* %61, align 4
  %64 = getelementptr inbounds %"class.glslang::TInputScanner", %"class.glslang::TInputScanner"* %0, i64 0, i32 11, i32 2
  %65 = load i32, i32* %64, align 4
  %66 = add nsw i32 %65, 1
  store i32 %66, i32* %64, align 4
  store i32 0, i32* %53, align 8
  %67 = load %"struct.glslang::TSourceLoc"*, %"struct.glslang::TSourceLoc"** %48, align 8
  %68 = load i32, i32* %2, align 8
  %69 = sext i32 %68 to i64
  %70 = getelementptr inbounds %"struct.glslang::TSourceLoc", %"struct.glslang::TSourceLoc"* %67, i64 %69, i32 3
  store i32 0, i32* %70, align 8
  br label %71

71:                                               ; preds = %57, %43
  tail call void @_ZN7glslang13TInputScanner7advanceEv(%"class.glslang::TInputScanner"* %0) #12
  %72 = load i32, i32* %2, align 8
  %73 = load i32, i32* %4, align 8
  br label %74

74:                                               ; preds = %39, %71
  %75 = phi i32 [ %73, %71 ], [ %5, %39 ]
  %76 = phi i32 [ %72, %71 ], [ %3, %39 ]
  %77 = icmp slt i32 %76, %75
  br i1 %77, label %80, label %78

78:                                               ; preds = %74
  %79 = getelementptr inbounds %"class.glslang::TInputScanner", %"class.glslang::TInputScanner"* %0, i64 0, i32 13
  store i8 1, i8* %79, align 1
  br label %657

80:                                               ; preds = %74
  %81 = load i64, i64* %10, align 8
  %82 = load i64*, i64** %12, align 8
  %83 = sext i32 %76 to i64
  br label %84

84:                                               ; preds = %90, %80
  %85 = phi i64 [ %91, %90 ], [ %83, %80 ]
  %86 = phi i64 [ 0, %90 ], [ %81, %80 ]
  %87 = getelementptr inbounds i64, i64* %82, i64 %85
  %88 = load i64, i64* %87, align 8
  %89 = icmp ult i64 %86, %88
  br i1 %89, label %94, label %90

90:                                               ; preds = %84
  %91 = add nsw i64 %85, 1
  %92 = trunc i64 %91 to i32
  %93 = icmp eq i32 %75, %92
  br i1 %93, label %657, label %84

94:                                               ; preds = %84
  %95 = load i8**, i8*** %26, align 8
  %96 = getelementptr inbounds i8*, i8** %95, i64 %85
  %97 = load i8*, i8** %96, align 8
  %98 = getelementptr inbounds i8, i8* %97, i64 %86
  %99 = load i8, i8* %98, align 1
  switch i8 %99, label %657 [
    i8 47, label %100
    i8 42, label %458
  ]

100:                                              ; preds = %94, %106
  %101 = phi i64 [ %107, %106 ], [ %83, %94 ]
  %102 = phi i64 [ 0, %106 ], [ %81, %94 ]
  %103 = getelementptr inbounds i64, i64* %82, i64 %101
  %104 = load i64, i64* %103, align 8
  %105 = icmp ult i64 %102, %104
  br i1 %105, label %110, label %106

106:                                              ; preds = %100
  %107 = add nsw i64 %101, 1
  %108 = trunc i64 %107 to i32
  %109 = icmp eq i32 %75, %108
  br i1 %109, label %141, label %100

110:                                              ; preds = %100
  %111 = getelementptr inbounds i8*, i8** %95, i64 %101
  %112 = load i8*, i8** %111, align 8
  %113 = getelementptr inbounds i8, i8* %112, i64 %102
  %114 = load i8, i8* %113, align 1
  %115 = getelementptr inbounds %"class.glslang::TInputScanner", %"class.glslang::TInputScanner"* %0, i64 0, i32 8
  %116 = load %"struct.glslang::TSourceLoc"*, %"struct.glslang::TSourceLoc"** %115, align 8
  %117 = getelementptr inbounds %"struct.glslang::TSourceLoc", %"struct.glslang::TSourceLoc"* %116, i64 %83, i32 3
  %118 = load i32, i32* %117, align 8
  %119 = add nsw i32 %118, 1
  store i32 %119, i32* %117, align 8
  %120 = getelementptr inbounds %"class.glslang::TInputScanner", %"class.glslang::TInputScanner"* %0, i64 0, i32 11, i32 3
  %121 = load i32, i32* %120, align 8
  %122 = add nsw i32 %121, 1
  store i32 %122, i32* %120, align 8
  %123 = icmp eq i8 %114, 10
  br i1 %123, label %124, label %138

124:                                              ; preds = %110
  %125 = load %"struct.glslang::TSourceLoc"*, %"struct.glslang::TSourceLoc"** %115, align 8
  %126 = load i32, i32* %2, align 8
  %127 = sext i32 %126 to i64
  %128 = getelementptr inbounds %"struct.glslang::TSourceLoc", %"struct.glslang::TSourceLoc"* %125, i64 %127, i32 2
  %129 = load i32, i32* %128, align 4
  %130 = add nsw i32 %129, 1
  store i32 %130, i32* %128, align 4
  %131 = getelementptr inbounds %"class.glslang::TInputScanner", %"class.glslang::TInputScanner"* %0, i64 0, i32 11, i32 2
  %132 = load i32, i32* %131, align 4
  %133 = add nsw i32 %132, 1
  store i32 %133, i32* %131, align 4
  store i32 0, i32* %120, align 8
  %134 = load %"struct.glslang::TSourceLoc"*, %"struct.glslang::TSourceLoc"** %115, align 8
  %135 = load i32, i32* %2, align 8
  %136 = sext i32 %135 to i64
  %137 = getelementptr inbounds %"struct.glslang::TSourceLoc", %"struct.glslang::TSourceLoc"* %134, i64 %136, i32 3
  store i32 0, i32* %137, align 8
  br label %138

138:                                              ; preds = %124, %110
  tail call void @_ZN7glslang13TInputScanner7advanceEv(%"class.glslang::TInputScanner"* %0) #12
  %139 = load i32, i32* %2, align 8
  %140 = load i32, i32* %4, align 8
  br label %141

141:                                              ; preds = %106, %138
  %142 = phi i32 [ %140, %138 ], [ %75, %106 ]
  %143 = phi i32 [ %139, %138 ], [ %76, %106 ]
  %144 = icmp slt i32 %143, %142
  br i1 %144, label %147, label %145

145:                                              ; preds = %141
  %146 = getelementptr inbounds %"class.glslang::TInputScanner", %"class.glslang::TInputScanner"* %0, i64 0, i32 13
  store i8 1, i8* %146, align 1
  br label %192

147:                                              ; preds = %141
  %148 = load i64, i64* %10, align 8
  %149 = load i64*, i64** %12, align 8
  %150 = sext i32 %143 to i64
  br label %151

151:                                              ; preds = %157, %147
  %152 = phi i64 [ %158, %157 ], [ %150, %147 ]
  %153 = phi i64 [ 0, %157 ], [ %148, %147 ]
  %154 = getelementptr inbounds i64, i64* %149, i64 %152
  %155 = load i64, i64* %154, align 8
  %156 = icmp ult i64 %153, %155
  br i1 %156, label %161, label %157

157:                                              ; preds = %151
  %158 = add nsw i64 %152, 1
  %159 = trunc i64 %158 to i32
  %160 = icmp eq i32 %142, %159
  br i1 %160, label %192, label %151

161:                                              ; preds = %151
  %162 = load i8**, i8*** %26, align 8
  %163 = getelementptr inbounds i8*, i8** %162, i64 %152
  %164 = load i8*, i8** %163, align 8
  %165 = getelementptr inbounds i8, i8* %164, i64 %153
  %166 = load i8, i8* %165, align 1
  %167 = zext i8 %166 to i32
  %168 = getelementptr inbounds %"class.glslang::TInputScanner", %"class.glslang::TInputScanner"* %0, i64 0, i32 8
  %169 = load %"struct.glslang::TSourceLoc"*, %"struct.glslang::TSourceLoc"** %168, align 8
  %170 = getelementptr inbounds %"struct.glslang::TSourceLoc", %"struct.glslang::TSourceLoc"* %169, i64 %150, i32 3
  %171 = load i32, i32* %170, align 8
  %172 = add nsw i32 %171, 1
  store i32 %172, i32* %170, align 8
  %173 = getelementptr inbounds %"class.glslang::TInputScanner", %"class.glslang::TInputScanner"* %0, i64 0, i32 11, i32 3
  %174 = load i32, i32* %173, align 8
  %175 = add nsw i32 %174, 1
  store i32 %175, i32* %173, align 8
  %176 = icmp eq i8 %166, 10
  br i1 %176, label %177, label %191

177:                                              ; preds = %161
  %178 = load %"struct.glslang::TSourceLoc"*, %"struct.glslang::TSourceLoc"** %168, align 8
  %179 = load i32, i32* %2, align 8
  %180 = sext i32 %179 to i64
  %181 = getelementptr inbounds %"struct.glslang::TSourceLoc", %"struct.glslang::TSourceLoc"* %178, i64 %180, i32 2
  %182 = load i32, i32* %181, align 4
  %183 = add nsw i32 %182, 1
  store i32 %183, i32* %181, align 4
  %184 = getelementptr inbounds %"class.glslang::TInputScanner", %"class.glslang::TInputScanner"* %0, i64 0, i32 11, i32 2
  %185 = load i32, i32* %184, align 4
  %186 = add nsw i32 %185, 1
  store i32 %186, i32* %184, align 4
  store i32 0, i32* %173, align 8
  %187 = load %"struct.glslang::TSourceLoc"*, %"struct.glslang::TSourceLoc"** %168, align 8
  %188 = load i32, i32* %2, align 8
  %189 = sext i32 %188 to i64
  %190 = getelementptr inbounds %"struct.glslang::TSourceLoc", %"struct.glslang::TSourceLoc"* %187, i64 %189, i32 3
  store i32 0, i32* %190, align 8
  br label %191

191:                                              ; preds = %177, %161
  tail call void @_ZN7glslang13TInputScanner7advanceEv(%"class.glslang::TInputScanner"* %0) #12
  br label %192

192:                                              ; preds = %157, %145, %191
  %193 = phi i32 [ %167, %191 ], [ -1, %145 ], [ -1, %157 ]
  %194 = getelementptr inbounds %"class.glslang::TInputScanner", %"class.glslang::TInputScanner"* %0, i64 0, i32 13
  %195 = getelementptr inbounds %"class.glslang::TInputScanner", %"class.glslang::TInputScanner"* %0, i64 0, i32 8
  %196 = getelementptr inbounds %"class.glslang::TInputScanner", %"class.glslang::TInputScanner"* %0, i64 0, i32 11, i32 3
  %197 = getelementptr inbounds %"class.glslang::TInputScanner", %"class.glslang::TInputScanner"* %0, i64 0, i32 11, i32 2
  br label %198

198:                                              ; preds = %206, %192
  %199 = phi i32 [ %193, %192 ], [ %207, %206 ]
  switch i32 %199, label %201 [
    i32 -1, label %200
    i32 13, label %200
    i32 10, label %200
    i32 92, label %301
  ]

200:                                              ; preds = %198, %198, %198
  br label %250

201:                                              ; preds = %198
  %202 = load i32, i32* %2, align 8
  %203 = load i32, i32* %4, align 8
  %204 = icmp slt i32 %202, %203
  br i1 %204, label %208, label %205

205:                                              ; preds = %201
  store i8 1, i8* %194, align 1
  br label %206

206:                                              ; preds = %425, %218, %205, %249, %414, %456
  %207 = phi i32 [ %228, %249 ], [ -1, %205 ], [ %435, %456 ], [ -1, %414 ], [ -1, %218 ], [ -1, %425 ]
  br label %198

208:                                              ; preds = %201
  %209 = load i64, i64* %10, align 8
  %210 = load i64*, i64** %12, align 8
  %211 = sext i32 %202 to i64
  br label %212

212:                                              ; preds = %218, %208
  %213 = phi i64 [ %219, %218 ], [ %211, %208 ]
  %214 = phi i64 [ 0, %218 ], [ %209, %208 ]
  %215 = getelementptr inbounds i64, i64* %210, i64 %213
  %216 = load i64, i64* %215, align 8
  %217 = icmp ult i64 %214, %216
  br i1 %217, label %222, label %218

218:                                              ; preds = %212
  %219 = add nsw i64 %213, 1
  %220 = trunc i64 %219 to i32
  %221 = icmp eq i32 %203, %220
  br i1 %221, label %206, label %212

222:                                              ; preds = %212
  %223 = load i8**, i8*** %26, align 8
  %224 = getelementptr inbounds i8*, i8** %223, i64 %213
  %225 = load i8*, i8** %224, align 8
  %226 = getelementptr inbounds i8, i8* %225, i64 %214
  %227 = load i8, i8* %226, align 1
  %228 = zext i8 %227 to i32
  %229 = load %"struct.glslang::TSourceLoc"*, %"struct.glslang::TSourceLoc"** %195, align 8
  %230 = getelementptr inbounds %"struct.glslang::TSourceLoc", %"struct.glslang::TSourceLoc"* %229, i64 %211, i32 3
  %231 = load i32, i32* %230, align 8
  %232 = add nsw i32 %231, 1
  store i32 %232, i32* %230, align 8
  %233 = load i32, i32* %196, align 8
  %234 = add nsw i32 %233, 1
  store i32 %234, i32* %196, align 8
  %235 = icmp eq i8 %227, 10
  br i1 %235, label %236, label %249

236:                                              ; preds = %222
  %237 = load %"struct.glslang::TSourceLoc"*, %"struct.glslang::TSourceLoc"** %195, align 8
  %238 = load i32, i32* %2, align 8
  %239 = sext i32 %238 to i64
  %240 = getelementptr inbounds %"struct.glslang::TSourceLoc", %"struct.glslang::TSourceLoc"* %237, i64 %239, i32 2
  %241 = load i32, i32* %240, align 4
  %242 = add nsw i32 %241, 1
  store i32 %242, i32* %240, align 4
  %243 = load i32, i32* %197, align 4
  %244 = add nsw i32 %243, 1
  store i32 %244, i32* %197, align 4
  store i32 0, i32* %196, align 8
  %245 = load %"struct.glslang::TSourceLoc"*, %"struct.glslang::TSourceLoc"** %195, align 8
  %246 = load i32, i32* %2, align 8
  %247 = sext i32 %246 to i64
  %248 = getelementptr inbounds %"struct.glslang::TSourceLoc", %"struct.glslang::TSourceLoc"* %245, i64 %247, i32 3
  store i32 0, i32* %248, align 8
  br label %249

249:                                              ; preds = %236, %222
  tail call void @_ZN7glslang13TInputScanner7advanceEv(%"class.glslang::TInputScanner"* %0) #12
  br label %206

250:                                              ; preds = %257, %200
  %251 = phi i32 [ %199, %200 ], [ %258, %257 ]
  switch i32 %251, label %457 [
    i32 13, label %252
    i32 10, label %252
    i32 -1, label %658
  ]

252:                                              ; preds = %250, %250
  %253 = load i32, i32* %2, align 8
  %254 = load i32, i32* %4, align 8
  %255 = icmp slt i32 %253, %254
  br i1 %255, label %259, label %256

256:                                              ; preds = %252
  store i8 1, i8* %194, align 1
  br label %257

257:                                              ; preds = %269, %256, %300
  %258 = phi i32 [ %279, %300 ], [ -1, %256 ], [ -1, %269 ]
  br label %250

259:                                              ; preds = %252
  %260 = load i64, i64* %10, align 8
  %261 = load i64*, i64** %12, align 8
  %262 = sext i32 %253 to i64
  br label %263

263:                                              ; preds = %269, %259
  %264 = phi i64 [ %270, %269 ], [ %262, %259 ]
  %265 = phi i64 [ 0, %269 ], [ %260, %259 ]
  %266 = getelementptr inbounds i64, i64* %261, i64 %264
  %267 = load i64, i64* %266, align 8
  %268 = icmp ult i64 %265, %267
  br i1 %268, label %273, label %269

269:                                              ; preds = %263
  %270 = add nsw i64 %264, 1
  %271 = trunc i64 %270 to i32
  %272 = icmp eq i32 %254, %271
  br i1 %272, label %257, label %263

273:                                              ; preds = %263
  %274 = load i8**, i8*** %26, align 8
  %275 = getelementptr inbounds i8*, i8** %274, i64 %264
  %276 = load i8*, i8** %275, align 8
  %277 = getelementptr inbounds i8, i8* %276, i64 %265
  %278 = load i8, i8* %277, align 1
  %279 = zext i8 %278 to i32
  %280 = load %"struct.glslang::TSourceLoc"*, %"struct.glslang::TSourceLoc"** %195, align 8
  %281 = getelementptr inbounds %"struct.glslang::TSourceLoc", %"struct.glslang::TSourceLoc"* %280, i64 %262, i32 3
  %282 = load i32, i32* %281, align 8
  %283 = add nsw i32 %282, 1
  store i32 %283, i32* %281, align 8
  %284 = load i32, i32* %196, align 8
  %285 = add nsw i32 %284, 1
  store i32 %285, i32* %196, align 8
  %286 = icmp eq i8 %278, 10
  br i1 %286, label %287, label %300

287:                                              ; preds = %273
  %288 = load %"struct.glslang::TSourceLoc"*, %"struct.glslang::TSourceLoc"** %195, align 8
  %289 = load i32, i32* %2, align 8
  %290 = sext i32 %289 to i64
  %291 = getelementptr inbounds %"struct.glslang::TSourceLoc", %"struct.glslang::TSourceLoc"* %288, i64 %290, i32 2
  %292 = load i32, i32* %291, align 4
  %293 = add nsw i32 %292, 1
  store i32 %293, i32* %291, align 4
  %294 = load i32, i32* %197, align 4
  %295 = add nsw i32 %294, 1
  store i32 %295, i32* %197, align 4
  store i32 0, i32* %196, align 8
  %296 = load %"struct.glslang::TSourceLoc"*, %"struct.glslang::TSourceLoc"** %195, align 8
  %297 = load i32, i32* %2, align 8
  %298 = sext i32 %297 to i64
  %299 = getelementptr inbounds %"struct.glslang::TSourceLoc", %"struct.glslang::TSourceLoc"* %296, i64 %298, i32 3
  store i32 0, i32* %299, align 8
  br label %300

300:                                              ; preds = %287, %273
  tail call void @_ZN7glslang13TInputScanner7advanceEv(%"class.glslang::TInputScanner"* %0) #12
  br label %257

301:                                              ; preds = %198
  %302 = load i32, i32* %2, align 8
  %303 = load i32, i32* %4, align 8
  %304 = icmp slt i32 %302, %303
  br i1 %304, label %306, label %305

305:                                              ; preds = %301
  store i8 1, i8* %194, align 1
  br label %410

306:                                              ; preds = %301
  %307 = load i64, i64* %10, align 8
  %308 = load i64*, i64** %12, align 8
  %309 = sext i32 %302 to i64
  br label %310

310:                                              ; preds = %316, %306
  %311 = phi i64 [ %317, %316 ], [ %309, %306 ]
  %312 = phi i64 [ 0, %316 ], [ %307, %306 ]
  %313 = getelementptr inbounds i64, i64* %308, i64 %311
  %314 = load i64, i64* %313, align 8
  %315 = icmp ult i64 %312, %314
  br i1 %315, label %320, label %316

316:                                              ; preds = %310
  %317 = add nsw i64 %311, 1
  %318 = trunc i64 %317 to i32
  %319 = icmp eq i32 %303, %318
  br i1 %319, label %410, label %310

320:                                              ; preds = %310
  %321 = load i8**, i8*** %26, align 8
  %322 = getelementptr inbounds i8*, i8** %321, i64 %311
  %323 = load i8*, i8** %322, align 8
  %324 = getelementptr inbounds i8, i8* %323, i64 %312
  %325 = load i8, i8* %324, align 1
  %326 = load %"struct.glslang::TSourceLoc"*, %"struct.glslang::TSourceLoc"** %195, align 8
  %327 = getelementptr inbounds %"struct.glslang::TSourceLoc", %"struct.glslang::TSourceLoc"* %326, i64 %309, i32 3
  %328 = load i32, i32* %327, align 8
  %329 = add nsw i32 %328, 1
  store i32 %329, i32* %327, align 8
  %330 = load i32, i32* %196, align 8
  %331 = add nsw i32 %330, 1
  store i32 %331, i32* %196, align 8
  %332 = icmp eq i8 %325, 10
  br i1 %332, label %333, label %346

333:                                              ; preds = %320
  %334 = load %"struct.glslang::TSourceLoc"*, %"struct.glslang::TSourceLoc"** %195, align 8
  %335 = load i32, i32* %2, align 8
  %336 = sext i32 %335 to i64
  %337 = getelementptr inbounds %"struct.glslang::TSourceLoc", %"struct.glslang::TSourceLoc"* %334, i64 %336, i32 2
  %338 = load i32, i32* %337, align 4
  %339 = add nsw i32 %338, 1
  store i32 %339, i32* %337, align 4
  %340 = load i32, i32* %197, align 4
  %341 = add nsw i32 %340, 1
  store i32 %341, i32* %197, align 4
  store i32 0, i32* %196, align 8
  %342 = load %"struct.glslang::TSourceLoc"*, %"struct.glslang::TSourceLoc"** %195, align 8
  %343 = load i32, i32* %2, align 8
  %344 = sext i32 %343 to i64
  %345 = getelementptr inbounds %"struct.glslang::TSourceLoc", %"struct.glslang::TSourceLoc"* %342, i64 %344, i32 3
  store i32 0, i32* %345, align 8
  tail call void @_ZN7glslang13TInputScanner7advanceEv(%"class.glslang::TInputScanner"* %0) #12
  br label %410

346:                                              ; preds = %320
  tail call void @_ZN7glslang13TInputScanner7advanceEv(%"class.glslang::TInputScanner"* %0) #12
  %347 = icmp eq i8 %325, 13
  br i1 %347, label %348, label %410

348:                                              ; preds = %346
  %349 = load i32, i32* %2, align 8
  %350 = load i32, i32* %4, align 8
  %351 = icmp slt i32 %349, %350
  br i1 %351, label %353, label %352

352:                                              ; preds = %348
  store i8 1, i8* %194, align 1
  br label %410

353:                                              ; preds = %348
  %354 = load i64, i64* %10, align 8
  %355 = load i64*, i64** %12, align 8
  %356 = sext i32 %349 to i64
  br label %357

357:                                              ; preds = %363, %353
  %358 = phi i64 [ %364, %363 ], [ %356, %353 ]
  %359 = phi i64 [ 0, %363 ], [ %354, %353 ]
  %360 = getelementptr inbounds i64, i64* %355, i64 %358
  %361 = load i64, i64* %360, align 8
  %362 = icmp ult i64 %359, %361
  br i1 %362, label %367, label %363

363:                                              ; preds = %357
  %364 = add nsw i64 %358, 1
  %365 = trunc i64 %364 to i32
  %366 = icmp eq i32 %350, %365
  br i1 %366, label %410, label %357

367:                                              ; preds = %357
  %368 = load i8**, i8*** %26, align 8
  %369 = getelementptr inbounds i8*, i8** %368, i64 %358
  %370 = load i8*, i8** %369, align 8
  %371 = getelementptr inbounds i8, i8* %370, i64 %359
  %372 = load i8, i8* %371, align 1
  %373 = icmp eq i8 %372, 10
  br i1 %373, label %374, label %410

374:                                              ; preds = %367, %380
  %375 = phi i64 [ %381, %380 ], [ %356, %367 ]
  %376 = phi i64 [ 0, %380 ], [ %354, %367 ]
  %377 = getelementptr inbounds i64, i64* %355, i64 %375
  %378 = load i64, i64* %377, align 8
  %379 = icmp ult i64 %376, %378
  br i1 %379, label %384, label %380

380:                                              ; preds = %374
  %381 = add nsw i64 %375, 1
  %382 = trunc i64 %381 to i32
  %383 = icmp eq i32 %350, %382
  br i1 %383, label %410, label %374

384:                                              ; preds = %374
  %385 = getelementptr inbounds i8*, i8** %368, i64 %375
  %386 = load i8*, i8** %385, align 8
  %387 = getelementptr inbounds i8, i8* %386, i64 %376
  %388 = load i8, i8* %387, align 1
  %389 = load %"struct.glslang::TSourceLoc"*, %"struct.glslang::TSourceLoc"** %195, align 8
  %390 = getelementptr inbounds %"struct.glslang::TSourceLoc", %"struct.glslang::TSourceLoc"* %389, i64 %356, i32 3
  %391 = load i32, i32* %390, align 8
  %392 = add nsw i32 %391, 1
  store i32 %392, i32* %390, align 8
  %393 = load i32, i32* %196, align 8
  %394 = add nsw i32 %393, 1
  store i32 %394, i32* %196, align 8
  %395 = icmp eq i8 %388, 10
  br i1 %395, label %396, label %409

396:                                              ; preds = %384
  %397 = load %"struct.glslang::TSourceLoc"*, %"struct.glslang::TSourceLoc"** %195, align 8
  %398 = load i32, i32* %2, align 8
  %399 = sext i32 %398 to i64
  %400 = getelementptr inbounds %"struct.glslang::TSourceLoc", %"struct.glslang::TSourceLoc"* %397, i64 %399, i32 2
  %401 = load i32, i32* %400, align 4
  %402 = add nsw i32 %401, 1
  store i32 %402, i32* %400, align 4
  %403 = load i32, i32* %197, align 4
  %404 = add nsw i32 %403, 1
  store i32 %404, i32* %197, align 4
  store i32 0, i32* %196, align 8
  %405 = load %"struct.glslang::TSourceLoc"*, %"struct.glslang::TSourceLoc"** %195, align 8
  %406 = load i32, i32* %2, align 8
  %407 = sext i32 %406 to i64
  %408 = getelementptr inbounds %"struct.glslang::TSourceLoc", %"struct.glslang::TSourceLoc"* %405, i64 %407, i32 3
  store i32 0, i32* %408, align 8
  br label %409

409:                                              ; preds = %396, %384
  tail call void @_ZN7glslang13TInputScanner7advanceEv(%"class.glslang::TInputScanner"* %0) #12
  br label %410

410:                                              ; preds = %316, %363, %380, %352, %305, %409, %333, %367, %346
  %411 = load i32, i32* %2, align 8
  %412 = load i32, i32* %4, align 8
  %413 = icmp slt i32 %411, %412
  br i1 %413, label %415, label %414

414:                                              ; preds = %410
  store i8 1, i8* %194, align 1
  br label %206

415:                                              ; preds = %410
  %416 = load i64, i64* %10, align 8
  %417 = load i64*, i64** %12, align 8
  %418 = sext i32 %411 to i64
  br label %419

419:                                              ; preds = %425, %415
  %420 = phi i64 [ %426, %425 ], [ %418, %415 ]
  %421 = phi i64 [ 0, %425 ], [ %416, %415 ]
  %422 = getelementptr inbounds i64, i64* %417, i64 %420
  %423 = load i64, i64* %422, align 8
  %424 = icmp ult i64 %421, %423
  br i1 %424, label %429, label %425

425:                                              ; preds = %419
  %426 = add nsw i64 %420, 1
  %427 = trunc i64 %426 to i32
  %428 = icmp eq i32 %412, %427
  br i1 %428, label %206, label %419

429:                                              ; preds = %419
  %430 = load i8**, i8*** %26, align 8
  %431 = getelementptr inbounds i8*, i8** %430, i64 %420
  %432 = load i8*, i8** %431, align 8
  %433 = getelementptr inbounds i8, i8* %432, i64 %421
  %434 = load i8, i8* %433, align 1
  %435 = zext i8 %434 to i32
  %436 = load %"struct.glslang::TSourceLoc"*, %"struct.glslang::TSourceLoc"** %195, align 8
  %437 = getelementptr inbounds %"struct.glslang::TSourceLoc", %"struct.glslang::TSourceLoc"* %436, i64 %418, i32 3
  %438 = load i32, i32* %437, align 8
  %439 = add nsw i32 %438, 1
  store i32 %439, i32* %437, align 8
  %440 = load i32, i32* %196, align 8
  %441 = add nsw i32 %440, 1
  store i32 %441, i32* %196, align 8
  %442 = icmp eq i8 %434, 10
  br i1 %442, label %443, label %456

443:                                              ; preds = %429
  %444 = load %"struct.glslang::TSourceLoc"*, %"struct.glslang::TSourceLoc"** %195, align 8
  %445 = load i32, i32* %2, align 8
  %446 = sext i32 %445 to i64
  %447 = getelementptr inbounds %"struct.glslang::TSourceLoc", %"struct.glslang::TSourceLoc"* %444, i64 %446, i32 2
  %448 = load i32, i32* %447, align 4
  %449 = add nsw i32 %448, 1
  store i32 %449, i32* %447, align 4
  %450 = load i32, i32* %197, align 4
  %451 = add nsw i32 %450, 1
  store i32 %451, i32* %197, align 4
  store i32 0, i32* %196, align 8
  %452 = load %"struct.glslang::TSourceLoc"*, %"struct.glslang::TSourceLoc"** %195, align 8
  %453 = load i32, i32* %2, align 8
  %454 = sext i32 %453 to i64
  %455 = getelementptr inbounds %"struct.glslang::TSourceLoc", %"struct.glslang::TSourceLoc"* %452, i64 %454, i32 3
  store i32 0, i32* %455, align 8
  br label %456

456:                                              ; preds = %443, %429
  tail call void @_ZN7glslang13TInputScanner7advanceEv(%"class.glslang::TInputScanner"* %0) #12
  br label %206

457:                                              ; preds = %250
  tail call void @_ZN7glslang13TInputScanner5ungetEv(%"class.glslang::TInputScanner"* %0)
  br label %658

458:                                              ; preds = %94, %464
  %459 = phi i64 [ %465, %464 ], [ %83, %94 ]
  %460 = phi i64 [ 0, %464 ], [ %81, %94 ]
  %461 = getelementptr inbounds i64, i64* %82, i64 %459
  %462 = load i64, i64* %461, align 8
  %463 = icmp ult i64 %460, %462
  br i1 %463, label %468, label %464

464:                                              ; preds = %458
  %465 = add nsw i64 %459, 1
  %466 = trunc i64 %465 to i32
  %467 = icmp eq i32 %75, %466
  br i1 %467, label %499, label %458

468:                                              ; preds = %458
  %469 = getelementptr inbounds i8*, i8** %95, i64 %459
  %470 = load i8*, i8** %469, align 8
  %471 = getelementptr inbounds i8, i8* %470, i64 %460
  %472 = load i8, i8* %471, align 1
  %473 = getelementptr inbounds %"class.glslang::TInputScanner", %"class.glslang::TInputScanner"* %0, i64 0, i32 8
  %474 = load %"struct.glslang::TSourceLoc"*, %"struct.glslang::TSourceLoc"** %473, align 8
  %475 = getelementptr inbounds %"struct.glslang::TSourceLoc", %"struct.glslang::TSourceLoc"* %474, i64 %83, i32 3
  %476 = load i32, i32* %475, align 8
  %477 = add nsw i32 %476, 1
  store i32 %477, i32* %475, align 8
  %478 = getelementptr inbounds %"class.glslang::TInputScanner", %"class.glslang::TInputScanner"* %0, i64 0, i32 11, i32 3
  %479 = load i32, i32* %478, align 8
  %480 = add nsw i32 %479, 1
  store i32 %480, i32* %478, align 8
  %481 = icmp eq i8 %472, 10
  br i1 %481, label %482, label %496

482:                                              ; preds = %468
  %483 = load %"struct.glslang::TSourceLoc"*, %"struct.glslang::TSourceLoc"** %473, align 8
  %484 = load i32, i32* %2, align 8
  %485 = sext i32 %484 to i64
  %486 = getelementptr inbounds %"struct.glslang::TSourceLoc", %"struct.glslang::TSourceLoc"* %483, i64 %485, i32 2
  %487 = load i32, i32* %486, align 4
  %488 = add nsw i32 %487, 1
  store i32 %488, i32* %486, align 4
  %489 = getelementptr inbounds %"class.glslang::TInputScanner", %"class.glslang::TInputScanner"* %0, i64 0, i32 11, i32 2
  %490 = load i32, i32* %489, align 4
  %491 = add nsw i32 %490, 1
  store i32 %491, i32* %489, align 4
  store i32 0, i32* %478, align 8
  %492 = load %"struct.glslang::TSourceLoc"*, %"struct.glslang::TSourceLoc"** %473, align 8
  %493 = load i32, i32* %2, align 8
  %494 = sext i32 %493 to i64
  %495 = getelementptr inbounds %"struct.glslang::TSourceLoc", %"struct.glslang::TSourceLoc"* %492, i64 %494, i32 3
  store i32 0, i32* %495, align 8
  br label %496

496:                                              ; preds = %482, %468
  tail call void @_ZN7glslang13TInputScanner7advanceEv(%"class.glslang::TInputScanner"* %0) #12
  %497 = load i32, i32* %2, align 8
  %498 = load i32, i32* %4, align 8
  br label %499

499:                                              ; preds = %464, %496
  %500 = phi i32 [ %498, %496 ], [ %75, %464 ]
  %501 = phi i32 [ %497, %496 ], [ %76, %464 ]
  %502 = icmp slt i32 %501, %500
  br i1 %502, label %505, label %503

503:                                              ; preds = %499
  %504 = getelementptr inbounds %"class.glslang::TInputScanner", %"class.glslang::TInputScanner"* %0, i64 0, i32 13
  store i8 1, i8* %504, align 1
  br label %550

505:                                              ; preds = %499
  %506 = load i64, i64* %10, align 8
  %507 = load i64*, i64** %12, align 8
  %508 = sext i32 %501 to i64
  br label %509

509:                                              ; preds = %515, %505
  %510 = phi i64 [ %516, %515 ], [ %508, %505 ]
  %511 = phi i64 [ 0, %515 ], [ %506, %505 ]
  %512 = getelementptr inbounds i64, i64* %507, i64 %510
  %513 = load i64, i64* %512, align 8
  %514 = icmp ult i64 %511, %513
  br i1 %514, label %519, label %515

515:                                              ; preds = %509
  %516 = add nsw i64 %510, 1
  %517 = trunc i64 %516 to i32
  %518 = icmp eq i32 %500, %517
  br i1 %518, label %550, label %509

519:                                              ; preds = %509
  %520 = load i8**, i8*** %26, align 8
  %521 = getelementptr inbounds i8*, i8** %520, i64 %510
  %522 = load i8*, i8** %521, align 8
  %523 = getelementptr inbounds i8, i8* %522, i64 %511
  %524 = load i8, i8* %523, align 1
  %525 = zext i8 %524 to i32
  %526 = getelementptr inbounds %"class.glslang::TInputScanner", %"class.glslang::TInputScanner"* %0, i64 0, i32 8
  %527 = load %"struct.glslang::TSourceLoc"*, %"struct.glslang::TSourceLoc"** %526, align 8
  %528 = getelementptr inbounds %"struct.glslang::TSourceLoc", %"struct.glslang::TSourceLoc"* %527, i64 %508, i32 3
  %529 = load i32, i32* %528, align 8
  %530 = add nsw i32 %529, 1
  store i32 %530, i32* %528, align 8
  %531 = getelementptr inbounds %"class.glslang::TInputScanner", %"class.glslang::TInputScanner"* %0, i64 0, i32 11, i32 3
  %532 = load i32, i32* %531, align 8
  %533 = add nsw i32 %532, 1
  store i32 %533, i32* %531, align 8
  %534 = icmp eq i8 %524, 10
  br i1 %534, label %535, label %549

535:                                              ; preds = %519
  %536 = load %"struct.glslang::TSourceLoc"*, %"struct.glslang::TSourceLoc"** %526, align 8
  %537 = load i32, i32* %2, align 8
  %538 = sext i32 %537 to i64
  %539 = getelementptr inbounds %"struct.glslang::TSourceLoc", %"struct.glslang::TSourceLoc"* %536, i64 %538, i32 2
  %540 = load i32, i32* %539, align 4
  %541 = add nsw i32 %540, 1
  store i32 %541, i32* %539, align 4
  %542 = getelementptr inbounds %"class.glslang::TInputScanner", %"class.glslang::TInputScanner"* %0, i64 0, i32 11, i32 2
  %543 = load i32, i32* %542, align 4
  %544 = add nsw i32 %543, 1
  store i32 %544, i32* %542, align 4
  store i32 0, i32* %531, align 8
  %545 = load %"struct.glslang::TSourceLoc"*, %"struct.glslang::TSourceLoc"** %526, align 8
  %546 = load i32, i32* %2, align 8
  %547 = sext i32 %546 to i64
  %548 = getelementptr inbounds %"struct.glslang::TSourceLoc", %"struct.glslang::TSourceLoc"* %545, i64 %547, i32 3
  store i32 0, i32* %548, align 8
  br label %549

549:                                              ; preds = %535, %519
  tail call void @_ZN7glslang13TInputScanner7advanceEv(%"class.glslang::TInputScanner"* %0) #12
  br label %550

550:                                              ; preds = %515, %503, %549
  %551 = phi i32 [ %525, %549 ], [ -1, %503 ], [ -1, %515 ]
  %552 = getelementptr inbounds %"class.glslang::TInputScanner", %"class.glslang::TInputScanner"* %0, i64 0, i32 13
  %553 = getelementptr inbounds %"class.glslang::TInputScanner", %"class.glslang::TInputScanner"* %0, i64 0, i32 8
  %554 = getelementptr inbounds %"class.glslang::TInputScanner", %"class.glslang::TInputScanner"* %0, i64 0, i32 11, i32 3
  %555 = getelementptr inbounds %"class.glslang::TInputScanner", %"class.glslang::TInputScanner"* %0, i64 0, i32 11, i32 2
  br label %556

556:                                              ; preds = %655, %550
  %557 = phi i32 [ %551, %550 ], [ %656, %655 ]
  switch i32 %557, label %558 [
    i32 42, label %605
    i32 -1, label %658
  ]

558:                                              ; preds = %556
  %559 = load i32, i32* %2, align 8
  %560 = load i32, i32* %4, align 8
  %561 = icmp slt i32 %559, %560
  br i1 %561, label %563, label %562

562:                                              ; preds = %558
  store i8 1, i8* %552, align 1
  br label %655

563:                                              ; preds = %558
  %564 = load i64, i64* %10, align 8
  %565 = load i64*, i64** %12, align 8
  %566 = sext i32 %559 to i64
  br label %567

567:                                              ; preds = %573, %563
  %568 = phi i64 [ %574, %573 ], [ %566, %563 ]
  %569 = phi i64 [ 0, %573 ], [ %564, %563 ]
  %570 = getelementptr inbounds i64, i64* %565, i64 %568
  %571 = load i64, i64* %570, align 8
  %572 = icmp ult i64 %569, %571
  br i1 %572, label %577, label %573

573:                                              ; preds = %567
  %574 = add nsw i64 %568, 1
  %575 = trunc i64 %574 to i32
  %576 = icmp eq i32 %560, %575
  br i1 %576, label %655, label %567

577:                                              ; preds = %567
  %578 = load i8**, i8*** %26, align 8
  %579 = getelementptr inbounds i8*, i8** %578, i64 %568
  %580 = load i8*, i8** %579, align 8
  %581 = getelementptr inbounds i8, i8* %580, i64 %569
  %582 = load i8, i8* %581, align 1
  %583 = zext i8 %582 to i32
  %584 = load %"struct.glslang::TSourceLoc"*, %"struct.glslang::TSourceLoc"** %553, align 8
  %585 = getelementptr inbounds %"struct.glslang::TSourceLoc", %"struct.glslang::TSourceLoc"* %584, i64 %566, i32 3
  %586 = load i32, i32* %585, align 8
  %587 = add nsw i32 %586, 1
  store i32 %587, i32* %585, align 8
  %588 = load i32, i32* %554, align 8
  %589 = add nsw i32 %588, 1
  store i32 %589, i32* %554, align 8
  %590 = icmp eq i8 %582, 10
  br i1 %590, label %591, label %604

591:                                              ; preds = %577
  %592 = load %"struct.glslang::TSourceLoc"*, %"struct.glslang::TSourceLoc"** %553, align 8
  %593 = load i32, i32* %2, align 8
  %594 = sext i32 %593 to i64
  %595 = getelementptr inbounds %"struct.glslang::TSourceLoc", %"struct.glslang::TSourceLoc"* %592, i64 %594, i32 2
  %596 = load i32, i32* %595, align 4
  %597 = add nsw i32 %596, 1
  store i32 %597, i32* %595, align 4
  %598 = load i32, i32* %555, align 4
  %599 = add nsw i32 %598, 1
  store i32 %599, i32* %555, align 4
  store i32 0, i32* %554, align 8
  %600 = load %"struct.glslang::TSourceLoc"*, %"struct.glslang::TSourceLoc"** %553, align 8
  %601 = load i32, i32* %2, align 8
  %602 = sext i32 %601 to i64
  %603 = getelementptr inbounds %"struct.glslang::TSourceLoc", %"struct.glslang::TSourceLoc"* %600, i64 %602, i32 3
  store i32 0, i32* %603, align 8
  br label %604

604:                                              ; preds = %591, %577
  tail call void @_ZN7glslang13TInputScanner7advanceEv(%"class.glslang::TInputScanner"* %0) #12
  br label %655

605:                                              ; preds = %556
  %606 = load i32, i32* %2, align 8
  %607 = load i32, i32* %4, align 8
  %608 = icmp slt i32 %606, %607
  br i1 %608, label %610, label %609

609:                                              ; preds = %605
  store i8 1, i8* %552, align 1
  br label %652

610:                                              ; preds = %605
  %611 = load i64, i64* %10, align 8
  %612 = load i64*, i64** %12, align 8
  %613 = sext i32 %606 to i64
  br label %614

614:                                              ; preds = %620, %610
  %615 = phi i64 [ %621, %620 ], [ %613, %610 ]
  %616 = phi i64 [ 0, %620 ], [ %611, %610 ]
  %617 = getelementptr inbounds i64, i64* %612, i64 %615
  %618 = load i64, i64* %617, align 8
  %619 = icmp ult i64 %616, %618
  br i1 %619, label %624, label %620

620:                                              ; preds = %614
  %621 = add nsw i64 %615, 1
  %622 = trunc i64 %621 to i32
  %623 = icmp eq i32 %607, %622
  br i1 %623, label %652, label %614

624:                                              ; preds = %614
  %625 = load i8**, i8*** %26, align 8
  %626 = getelementptr inbounds i8*, i8** %625, i64 %615
  %627 = load i8*, i8** %626, align 8
  %628 = getelementptr inbounds i8, i8* %627, i64 %616
  %629 = load i8, i8* %628, align 1
  %630 = zext i8 %629 to i32
  %631 = load %"struct.glslang::TSourceLoc"*, %"struct.glslang::TSourceLoc"** %553, align 8
  %632 = getelementptr inbounds %"struct.glslang::TSourceLoc", %"struct.glslang::TSourceLoc"* %631, i64 %613, i32 3
  %633 = load i32, i32* %632, align 8
  %634 = add nsw i32 %633, 1
  store i32 %634, i32* %632, align 8
  %635 = load i32, i32* %554, align 8
  %636 = add nsw i32 %635, 1
  store i32 %636, i32* %554, align 8
  %637 = icmp eq i8 %629, 10
  br i1 %637, label %638, label %651

638:                                              ; preds = %624
  %639 = load %"struct.glslang::TSourceLoc"*, %"struct.glslang::TSourceLoc"** %553, align 8
  %640 = load i32, i32* %2, align 8
  %641 = sext i32 %640 to i64
  %642 = getelementptr inbounds %"struct.glslang::TSourceLoc", %"struct.glslang::TSourceLoc"* %639, i64 %641, i32 2
  %643 = load i32, i32* %642, align 4
  %644 = add nsw i32 %643, 1
  store i32 %644, i32* %642, align 4
  %645 = load i32, i32* %555, align 4
  %646 = add nsw i32 %645, 1
  store i32 %646, i32* %555, align 4
  store i32 0, i32* %554, align 8
  %647 = load %"struct.glslang::TSourceLoc"*, %"struct.glslang::TSourceLoc"** %553, align 8
  %648 = load i32, i32* %2, align 8
  %649 = sext i32 %648 to i64
  %650 = getelementptr inbounds %"struct.glslang::TSourceLoc", %"struct.glslang::TSourceLoc"* %647, i64 %649, i32 3
  store i32 0, i32* %650, align 8
  br label %651

651:                                              ; preds = %638, %624
  tail call void @_ZN7glslang13TInputScanner7advanceEv(%"class.glslang::TInputScanner"* %0) #12
  br label %652

652:                                              ; preds = %620, %609, %651
  %653 = phi i32 [ %630, %651 ], [ -1, %609 ], [ -1, %620 ]
  %654 = icmp eq i32 %653, 47
  br i1 %654, label %658, label %655

655:                                              ; preds = %573, %652, %562, %604
  %656 = phi i32 [ %653, %652 ], [ %583, %604 ], [ -1, %562 ], [ -1, %573 ]
  br label %556

657:                                              ; preds = %90, %78, %94
  tail call void @_ZN7glslang13TInputScanner5ungetEv(%"class.glslang::TInputScanner"* %0)
  br label %658

658:                                              ; preds = %21, %652, %556, %250, %7, %657, %457, %25
  %659 = phi i1 [ false, %25 ], [ false, %657 ], [ true, %457 ], [ false, %7 ], [ true, %250 ], [ true, %556 ], [ true, %652 ], [ false, %21 ]
  ret i1 %659
}

; Function Attrs: nounwind ssp uwtable
define linkonce_odr hidden void @_ZN7glslang13TInputScanner5ungetEv(%"class.glslang::TInputScanner"*) local_unnamed_addr #0 comdat align 2 {
  %2 = getelementptr inbounds %"class.glslang::TInputScanner", %"class.glslang::TInputScanner"* %0, i64 0, i32 13
  %3 = load i8, i8* %2, align 1, !range !2
  %4 = icmp eq i8 %3, 0
  br i1 %4, label %5, label %105

5:                                                ; preds = %1
  %6 = getelementptr inbounds %"class.glslang::TInputScanner", %"class.glslang::TInputScanner"* %0, i64 0, i32 7
  %7 = load i64, i64* %6, align 8
  %8 = icmp eq i64 %7, 0
  br i1 %8, label %9, label %13

9:                                                ; preds = %5
  %10 = getelementptr inbounds %"class.glslang::TInputScanner", %"class.glslang::TInputScanner"* %0, i64 0, i32 4
  %11 = getelementptr inbounds %"class.glslang::TInputScanner", %"class.glslang::TInputScanner"* %0, i64 0, i32 5
  %12 = load i32, i32* %11, align 8
  br label %53

13:                                               ; preds = %5
  %14 = add i64 %7, -1
  store i64 %14, i64* %6, align 8
  %15 = getelementptr inbounds %"class.glslang::TInputScanner", %"class.glslang::TInputScanner"* %0, i64 0, i32 8
  %16 = load %"struct.glslang::TSourceLoc"*, %"struct.glslang::TSourceLoc"** %15, align 8
  %17 = getelementptr inbounds %"class.glslang::TInputScanner", %"class.glslang::TInputScanner"* %0, i64 0, i32 5
  %18 = load i32, i32* %17, align 8
  %19 = sext i32 %18 to i64
  %20 = getelementptr inbounds %"struct.glslang::TSourceLoc", %"struct.glslang::TSourceLoc"* %16, i64 %19, i32 3
  %21 = load i32, i32* %20, align 8
  %22 = add nsw i32 %21, -1
  store i32 %22, i32* %20, align 8
  %23 = getelementptr inbounds %"class.glslang::TInputScanner", %"class.glslang::TInputScanner"* %0, i64 0, i32 11, i32 3
  %24 = load i32, i32* %23, align 8
  %25 = add nsw i32 %24, -1
  store i32 %25, i32* %23, align 8
  %26 = load %"struct.glslang::TSourceLoc"*, %"struct.glslang::TSourceLoc"** %15, align 8
  %27 = load i32, i32* %17, align 8
  %28 = sext i32 %27 to i64
  %29 = getelementptr inbounds %"struct.glslang::TSourceLoc", %"struct.glslang::TSourceLoc"* %26, i64 %28, i32 3
  %30 = load i32, i32* %29, align 8
  %31 = icmp slt i32 %30, 0
  br i1 %31, label %32, label %67

32:                                               ; preds = %13
  %33 = load i64, i64* %6, align 8
  %34 = icmp eq i64 %33, 0
  br i1 %34, label %48, label %35

35:                                               ; preds = %32
  %36 = getelementptr inbounds %"class.glslang::TInputScanner", %"class.glslang::TInputScanner"* %0, i64 0, i32 3
  %37 = load i8**, i8*** %36, align 8
  %38 = getelementptr inbounds i8*, i8** %37, i64 %28
  %39 = load i8*, i8** %38, align 8
  br label %40

40:                                               ; preds = %35, %45
  %41 = phi i64 [ %33, %35 ], [ %46, %45 ]
  %42 = getelementptr inbounds i8, i8* %39, i64 %41
  %43 = load i8, i8* %42, align 1
  %44 = icmp eq i8 %43, 10
  br i1 %44, label %48, label %45

45:                                               ; preds = %40
  %46 = add i64 %41, -1
  %47 = icmp eq i64 %46, 0
  br i1 %47, label %48, label %40

48:                                               ; preds = %40, %45, %32
  %49 = phi i64 [ 0, %32 ], [ 0, %45 ], [ %41, %40 ]
  %50 = sub i64 %33, %49
  %51 = trunc i64 %50 to i32
  store i32 %51, i32* %23, align 8
  store i32 %51, i32* %29, align 8
  %52 = load i32, i32* %17, align 8
  br label %67

53:                                               ; preds = %9, %62
  %54 = phi i32 [ %12, %9 ], [ %55, %62 ]
  %55 = add nsw i32 %54, -1
  store i32 %55, i32* %11, align 8
  %56 = icmp sgt i32 %55, 0
  %57 = load i64*, i64** %10, align 8
  %58 = sext i32 %55 to i64
  %59 = getelementptr inbounds i64, i64* %57, i64 %58
  %60 = load i64, i64* %59, align 8
  %61 = icmp eq i64 %60, 0
  br i1 %56, label %62, label %63

62:                                               ; preds = %53
  br i1 %61, label %53, label %65

63:                                               ; preds = %53
  br i1 %61, label %64, label %65

64:                                               ; preds = %63
  store i64 0, i64* %6, align 8
  br label %67

65:                                               ; preds = %62, %63
  %66 = add i64 %60, -1
  store i64 %66, i64* %6, align 8
  br label %67

67:                                               ; preds = %64, %65, %13, %48
  %68 = phi i32 [ %55, %64 ], [ %55, %65 ], [ %27, %13 ], [ %52, %48 ]
  %69 = getelementptr inbounds %"class.glslang::TInputScanner", %"class.glslang::TInputScanner"* %0, i64 0, i32 1
  %70 = load i32, i32* %69, align 8
  %71 = icmp slt i32 %68, %70
  br i1 %71, label %73, label %72

72:                                               ; preds = %67
  store i8 1, i8* %2, align 1
  br label %105

73:                                               ; preds = %67
  %74 = load i64, i64* %6, align 8
  %75 = getelementptr inbounds %"class.glslang::TInputScanner", %"class.glslang::TInputScanner"* %0, i64 0, i32 4
  %76 = load i64*, i64** %75, align 8
  %77 = sext i32 %68 to i64
  br label %78

78:                                               ; preds = %84, %73
  %79 = phi i64 [ %85, %84 ], [ %77, %73 ]
  %80 = phi i64 [ 0, %84 ], [ %74, %73 ]
  %81 = getelementptr inbounds i64, i64* %76, i64 %79
  %82 = load i64, i64* %81, align 8
  %83 = icmp ult i64 %80, %82
  br i1 %83, label %88, label %84

84:                                               ; preds = %78
  %85 = add nsw i64 %79, 1
  %86 = trunc i64 %85 to i32
  %87 = icmp eq i32 %70, %86
  br i1 %87, label %105, label %78

88:                                               ; preds = %78
  %89 = getelementptr inbounds %"class.glslang::TInputScanner", %"class.glslang::TInputScanner"* %0, i64 0, i32 3
  %90 = load i8**, i8*** %89, align 8
  %91 = getelementptr inbounds i8*, i8** %90, i64 %79
  %92 = load i8*, i8** %91, align 8
  %93 = getelementptr inbounds i8, i8* %92, i64 %80
  %94 = load i8, i8* %93, align 1
  %95 = icmp eq i8 %94, 10
  br i1 %95, label %96, label %105

96:                                               ; preds = %88
  %97 = getelementptr inbounds %"class.glslang::TInputScanner", %"class.glslang::TInputScanner"* %0, i64 0, i32 8
  %98 = load %"struct.glslang::TSourceLoc"*, %"struct.glslang::TSourceLoc"** %97, align 8
  %99 = getelementptr inbounds %"struct.glslang::TSourceLoc", %"struct.glslang::TSourceLoc"* %98, i64 %77, i32 2
  %100 = load i32, i32* %99, align 4
  %101 = add nsw i32 %100, -1
  store i32 %101, i32* %99, align 4
  %102 = getelementptr inbounds %"class.glslang::TInputScanner", %"class.glslang::TInputScanner"* %0, i64 0, i32 11, i32 2
  %103 = load i32, i32* %102, align 4
  %104 = add nsw i32 %103, -1
  store i32 %104, i32* %102, align 4
  br label %105

105:                                              ; preds = %84, %72, %1, %96, %88
  ret void
}

; Function Attrs: nounwind ssp uwtable
define hidden void @_ZN7glslang13TInputScanner24consumeWhitespaceCommentERb(%"class.glslang::TInputScanner"*, i8* nocapture dereferenceable(1)) local_unnamed_addr #0 align 2 {
  %3 = getelementptr inbounds %"class.glslang::TInputScanner", %"class.glslang::TInputScanner"* %0, i64 0, i32 5
  %4 = getelementptr inbounds %"class.glslang::TInputScanner", %"class.glslang::TInputScanner"* %0, i64 0, i32 1
  %5 = getelementptr inbounds %"class.glslang::TInputScanner", %"class.glslang::TInputScanner"* %0, i64 0, i32 7
  %6 = getelementptr inbounds %"class.glslang::TInputScanner", %"class.glslang::TInputScanner"* %0, i64 0, i32 4
  %7 = getelementptr inbounds %"class.glslang::TInputScanner", %"class.glslang::TInputScanner"* %0, i64 0, i32 3
  br label %8

8:                                                ; preds = %35, %2
  tail call void @_ZN7glslang13TInputScanner17consumeWhiteSpaceERb(%"class.glslang::TInputScanner"* %0, i8* dereferenceable(1) %1)
  %9 = load i32, i32* %3, align 8
  %10 = load i32, i32* %4, align 8
  %11 = icmp slt i32 %9, %10
  br i1 %11, label %14, label %12

12:                                               ; preds = %8
  %13 = getelementptr inbounds %"class.glslang::TInputScanner", %"class.glslang::TInputScanner"* %0, i64 0, i32 13
  store i8 1, i8* %13, align 1
  br label %37

14:                                               ; preds = %8
  %15 = load i64, i64* %5, align 8
  %16 = load i64*, i64** %6, align 8
  %17 = sext i32 %9 to i64
  br label %18

18:                                               ; preds = %24, %14
  %19 = phi i64 [ %25, %24 ], [ %17, %14 ]
  %20 = phi i64 [ 0, %24 ], [ %15, %14 ]
  %21 = getelementptr inbounds i64, i64* %16, i64 %19
  %22 = load i64, i64* %21, align 8
  %23 = icmp ult i64 %20, %22
  br i1 %23, label %28, label %24

24:                                               ; preds = %18
  %25 = add nsw i64 %19, 1
  %26 = trunc i64 %25 to i32
  %27 = icmp eq i32 %10, %26
  br i1 %27, label %37, label %18

28:                                               ; preds = %18
  %29 = load i8**, i8*** %7, align 8
  %30 = getelementptr inbounds i8*, i8** %29, i64 %19
  %31 = load i8*, i8** %30, align 8
  %32 = getelementptr inbounds i8, i8* %31, i64 %20
  %33 = load i8, i8* %32, align 1
  %34 = icmp eq i8 %33, 47
  br i1 %34, label %35, label %37

35:                                               ; preds = %28
  store i8 1, i8* %1, align 1
  %36 = tail call zeroext i1 @_ZN7glslang13TInputScanner14consumeCommentEv(%"class.glslang::TInputScanner"* %0)
  br i1 %36, label %8, label %37

37:                                               ; preds = %28, %35, %24, %12
  ret void
}

; Function Attrs: nounwind ssp uwtable
define hidden zeroext i1 @_ZN7glslang13TInputScanner11scanVersionERiR8EProfileRb(%"class.glslang::TInputScanner"*, i32* nocapture dereferenceable(4), i32* nocapture dereferenceable(4), i8* nocapture dereferenceable(1)) local_unnamed_addr #0 align 2 {
  %5 = alloca i8, align 1
  %6 = alloca [13 x i8], align 1
  store i8 0, i8* %3, align 1
  store i32 0, i32* %1, align 4
  store i32 1, i32* %2, align 4
  call void @llvm.lifetime.start.p0i8(i64 1, i8* nonnull %5) #12
  store i8 0, i8* %5, align 1
  %7 = getelementptr inbounds %"class.glslang::TInputScanner", %"class.glslang::TInputScanner"* %0, i64 0, i32 5
  %8 = getelementptr inbounds %"class.glslang::TInputScanner", %"class.glslang::TInputScanner"* %0, i64 0, i32 1
  %9 = getelementptr inbounds %"class.glslang::TInputScanner", %"class.glslang::TInputScanner"* %0, i64 0, i32 13
  %10 = getelementptr inbounds %"class.glslang::TInputScanner", %"class.glslang::TInputScanner"* %0, i64 0, i32 7
  %11 = getelementptr inbounds %"class.glslang::TInputScanner", %"class.glslang::TInputScanner"* %0, i64 0, i32 4
  %12 = getelementptr inbounds %"class.glslang::TInputScanner", %"class.glslang::TInputScanner"* %0, i64 0, i32 3
  %13 = getelementptr inbounds %"class.glslang::TInputScanner", %"class.glslang::TInputScanner"* %0, i64 0, i32 8
  %14 = getelementptr inbounds %"class.glslang::TInputScanner", %"class.glslang::TInputScanner"* %0, i64 0, i32 11, i32 3
  %15 = getelementptr inbounds %"class.glslang::TInputScanner", %"class.glslang::TInputScanner"* %0, i64 0, i32 11, i32 2
  %16 = getelementptr inbounds [13 x i8], [13 x i8]* %6, i64 0, i64 0
  br label %17

17:                                               ; preds = %588, %4
  %18 = phi i8 [ 0, %4 ], [ 1, %588 ]
  %19 = phi i1 [ false, %4 ], [ true, %588 ]
  br i1 %19, label %21, label %20

20:                                               ; preds = %207, %17
  br label %217

21:                                               ; preds = %17
  store i8 1, i8* %3, align 1
  %22 = load i32, i32* %7, align 8
  %23 = load i32, i32* %8, align 8
  %24 = icmp slt i32 %22, %23
  br i1 %24, label %25, label %47

25:                                               ; preds = %21
  %26 = load i64, i64* %10, align 8
  %27 = load i64*, i64** %11, align 8
  %28 = sext i32 %22 to i64
  br label %29

29:                                               ; preds = %35, %25
  %30 = phi i64 [ %36, %35 ], [ %28, %25 ]
  %31 = phi i64 [ 0, %35 ], [ %26, %25 ]
  %32 = getelementptr inbounds i64, i64* %27, i64 %30
  %33 = load i64, i64* %32, align 8
  %34 = icmp ult i64 %31, %33
  br i1 %34, label %39, label %35

35:                                               ; preds = %29
  %36 = add nsw i64 %30, 1
  %37 = trunc i64 %36 to i32
  %38 = icmp eq i32 %23, %37
  br i1 %38, label %46, label %29

39:                                               ; preds = %29
  %40 = load i8**, i8*** %12, align 8
  %41 = getelementptr inbounds i8*, i8** %40, i64 %30
  %42 = load i8*, i8** %41, align 8
  %43 = getelementptr inbounds i8, i8* %42, i64 %31
  %44 = load i8, i8* %43, align 1
  %45 = icmp eq i8 %44, 10
  br i1 %45, label %116, label %46

46:                                               ; preds = %35, %39
  br label %48

47:                                               ; preds = %21
  store i8 1, i8* %9, align 1
  br label %65

48:                                               ; preds = %46, %54
  %49 = phi i64 [ %55, %54 ], [ %28, %46 ]
  %50 = phi i64 [ 0, %54 ], [ %26, %46 ]
  %51 = getelementptr inbounds i64, i64* %27, i64 %49
  %52 = load i64, i64* %51, align 8
  %53 = icmp ult i64 %50, %52
  br i1 %53, label %58, label %54

54:                                               ; preds = %48
  %55 = add nsw i64 %49, 1
  %56 = trunc i64 %55 to i32
  %57 = icmp eq i32 %23, %56
  br i1 %57, label %65, label %48

58:                                               ; preds = %48
  %59 = load i8**, i8*** %12, align 8
  %60 = getelementptr inbounds i8*, i8** %59, i64 %49
  %61 = load i8*, i8** %60, align 8
  %62 = getelementptr inbounds i8, i8* %61, i64 %50
  %63 = load i8, i8* %62, align 1
  %64 = icmp eq i8 %63, 13
  br i1 %64, label %116, label %65

65:                                               ; preds = %54, %47, %58
  %66 = icmp slt i32 %22, %23
  br i1 %66, label %68, label %67

67:                                               ; preds = %112, %65
  store i8 1, i8* %9, align 1
  br label %116

68:                                               ; preds = %65, %112
  %69 = phi i32 [ %113, %112 ], [ %22, %65 ]
  %70 = phi i32 [ %114, %112 ], [ %23, %65 ]
  %71 = load i64, i64* %10, align 8
  %72 = load i64*, i64** %11, align 8
  %73 = sext i32 %69 to i64
  br label %74

74:                                               ; preds = %80, %68
  %75 = phi i64 [ %81, %80 ], [ %73, %68 ]
  %76 = phi i64 [ 0, %80 ], [ %71, %68 ]
  %77 = getelementptr inbounds i64, i64* %72, i64 %75
  %78 = load i64, i64* %77, align 8
  %79 = icmp ult i64 %76, %78
  br i1 %79, label %84, label %80

80:                                               ; preds = %74
  %81 = add nsw i64 %75, 1
  %82 = trunc i64 %81 to i32
  %83 = icmp eq i32 %70, %82
  br i1 %83, label %116, label %74

84:                                               ; preds = %74
  %85 = load i8**, i8*** %12, align 8
  %86 = getelementptr inbounds i8*, i8** %85, i64 %75
  %87 = load i8*, i8** %86, align 8
  %88 = getelementptr inbounds i8, i8* %87, i64 %76
  %89 = load i8, i8* %88, align 1
  %90 = load %"struct.glslang::TSourceLoc"*, %"struct.glslang::TSourceLoc"** %13, align 8
  %91 = getelementptr inbounds %"struct.glslang::TSourceLoc", %"struct.glslang::TSourceLoc"* %90, i64 %73, i32 3
  %92 = load i32, i32* %91, align 8
  %93 = add nsw i32 %92, 1
  store i32 %93, i32* %91, align 8
  %94 = load i32, i32* %14, align 8
  %95 = add nsw i32 %94, 1
  store i32 %95, i32* %14, align 8
  %96 = icmp eq i8 %89, 10
  br i1 %96, label %97, label %110

97:                                               ; preds = %84
  %98 = load %"struct.glslang::TSourceLoc"*, %"struct.glslang::TSourceLoc"** %13, align 8
  %99 = load i32, i32* %7, align 8
  %100 = sext i32 %99 to i64
  %101 = getelementptr inbounds %"struct.glslang::TSourceLoc", %"struct.glslang::TSourceLoc"* %98, i64 %100, i32 2
  %102 = load i32, i32* %101, align 4
  %103 = add nsw i32 %102, 1
  store i32 %103, i32* %101, align 4
  %104 = load i32, i32* %15, align 4
  %105 = add nsw i32 %104, 1
  store i32 %105, i32* %15, align 4
  store i32 0, i32* %14, align 8
  %106 = load %"struct.glslang::TSourceLoc"*, %"struct.glslang::TSourceLoc"** %13, align 8
  %107 = load i32, i32* %7, align 8
  %108 = sext i32 %107 to i64
  %109 = getelementptr inbounds %"struct.glslang::TSourceLoc", %"struct.glslang::TSourceLoc"* %106, i64 %108, i32 3
  store i32 0, i32* %109, align 8
  tail call void @_ZN7glslang13TInputScanner7advanceEv(%"class.glslang::TInputScanner"* %0) #12
  br label %116

110:                                              ; preds = %84
  tail call void @_ZN7glslang13TInputScanner7advanceEv(%"class.glslang::TInputScanner"* %0) #12
  %111 = icmp eq i8 %89, 13
  br i1 %111, label %116, label %112

112:                                              ; preds = %110
  %113 = load i32, i32* %7, align 8
  %114 = load i32, i32* %8, align 8
  %115 = icmp slt i32 %113, %114
  br i1 %115, label %68, label %67

116:                                              ; preds = %110, %80, %67, %97, %58, %39
  %117 = load i32, i32* %7, align 8
  %118 = load i32, i32* %8, align 8
  %119 = icmp slt i32 %117, %118
  br i1 %119, label %120, label %205

120:                                              ; preds = %116, %201
  %121 = phi i32 [ %202, %201 ], [ %118, %116 ]
  %122 = phi i32 [ %203, %201 ], [ %117, %116 ]
  %123 = load i64, i64* %10, align 8
  %124 = load i64*, i64** %11, align 8
  %125 = sext i32 %122 to i64
  br label %126

126:                                              ; preds = %132, %120
  %127 = phi i64 [ %133, %132 ], [ %125, %120 ]
  %128 = phi i64 [ 0, %132 ], [ %123, %120 ]
  %129 = getelementptr inbounds i64, i64* %124, i64 %127
  %130 = load i64, i64* %129, align 8
  %131 = icmp ult i64 %128, %130
  br i1 %131, label %136, label %132

132:                                              ; preds = %126
  %133 = add nsw i64 %127, 1
  %134 = trunc i64 %133 to i32
  %135 = icmp eq i32 %121, %134
  br i1 %135, label %143, label %126

136:                                              ; preds = %126
  %137 = load i8**, i8*** %12, align 8
  %138 = getelementptr inbounds i8*, i8** %137, i64 %127
  %139 = load i8*, i8** %138, align 8
  %140 = getelementptr inbounds i8, i8* %139, i64 %128
  %141 = load i8, i8* %140, align 1
  %142 = icmp eq i8 %141, 10
  br i1 %142, label %161, label %143

143:                                              ; preds = %132, %136
  br label %144

144:                                              ; preds = %143, %150
  %145 = phi i64 [ %151, %150 ], [ %125, %143 ]
  %146 = phi i64 [ 0, %150 ], [ %123, %143 ]
  %147 = getelementptr inbounds i64, i64* %124, i64 %145
  %148 = load i64, i64* %147, align 8
  %149 = icmp ult i64 %146, %148
  br i1 %149, label %154, label %150

150:                                              ; preds = %144
  %151 = add nsw i64 %145, 1
  %152 = trunc i64 %151 to i32
  %153 = icmp eq i32 %121, %152
  br i1 %153, label %206, label %144

154:                                              ; preds = %144
  %155 = load i8**, i8*** %12, align 8
  %156 = getelementptr inbounds i8*, i8** %155, i64 %145
  %157 = load i8*, i8** %156, align 8
  %158 = getelementptr inbounds i8, i8* %157, i64 %146
  %159 = load i8, i8* %158, align 1
  %160 = icmp eq i8 %159, 13
  br i1 %160, label %161, label %206

161:                                              ; preds = %154, %136
  %162 = phi i8** [ %137, %136 ], [ %155, %154 ]
  br label %163

163:                                              ; preds = %169, %161
  %164 = phi i64 [ %170, %169 ], [ %125, %161 ]
  %165 = phi i64 [ 0, %169 ], [ %123, %161 ]
  %166 = getelementptr inbounds i64, i64* %124, i64 %164
  %167 = load i64, i64* %166, align 8
  %168 = icmp ult i64 %165, %167
  br i1 %168, label %173, label %169

169:                                              ; preds = %163
  %170 = add nsw i64 %164, 1
  %171 = trunc i64 %170 to i32
  %172 = icmp eq i32 %121, %171
  br i1 %172, label %201, label %163

173:                                              ; preds = %163
  %174 = getelementptr inbounds i8*, i8** %162, i64 %164
  %175 = load i8*, i8** %174, align 8
  %176 = getelementptr inbounds i8, i8* %175, i64 %165
  %177 = load i8, i8* %176, align 1
  %178 = load %"struct.glslang::TSourceLoc"*, %"struct.glslang::TSourceLoc"** %13, align 8
  %179 = getelementptr inbounds %"struct.glslang::TSourceLoc", %"struct.glslang::TSourceLoc"* %178, i64 %125, i32 3
  %180 = load i32, i32* %179, align 8
  %181 = add nsw i32 %180, 1
  store i32 %181, i32* %179, align 8
  %182 = load i32, i32* %14, align 8
  %183 = add nsw i32 %182, 1
  store i32 %183, i32* %14, align 8
  %184 = icmp eq i8 %177, 10
  br i1 %184, label %185, label %198

185:                                              ; preds = %173
  %186 = load %"struct.glslang::TSourceLoc"*, %"struct.glslang::TSourceLoc"** %13, align 8
  %187 = load i32, i32* %7, align 8
  %188 = sext i32 %187 to i64
  %189 = getelementptr inbounds %"struct.glslang::TSourceLoc", %"struct.glslang::TSourceLoc"* %186, i64 %188, i32 2
  %190 = load i32, i32* %189, align 4
  %191 = add nsw i32 %190, 1
  store i32 %191, i32* %189, align 4
  %192 = load i32, i32* %15, align 4
  %193 = add nsw i32 %192, 1
  store i32 %193, i32* %15, align 4
  store i32 0, i32* %14, align 8
  %194 = load %"struct.glslang::TSourceLoc"*, %"struct.glslang::TSourceLoc"** %13, align 8
  %195 = load i32, i32* %7, align 8
  %196 = sext i32 %195 to i64
  %197 = getelementptr inbounds %"struct.glslang::TSourceLoc", %"struct.glslang::TSourceLoc"* %194, i64 %196, i32 3
  store i32 0, i32* %197, align 8
  br label %198

198:                                              ; preds = %185, %173
  tail call void @_ZN7glslang13TInputScanner7advanceEv(%"class.glslang::TInputScanner"* %0) #12
  %199 = load i32, i32* %7, align 8
  %200 = load i32, i32* %8, align 8
  br label %201

201:                                              ; preds = %169, %198
  %202 = phi i32 [ %200, %198 ], [ %121, %169 ]
  %203 = phi i32 [ %199, %198 ], [ %122, %169 ]
  %204 = icmp slt i32 %203, %202
  br i1 %204, label %120, label %205

205:                                              ; preds = %116, %201
  store i8 1, i8* %9, align 1
  br label %880

206:                                              ; preds = %154, %150
  br label %207

207:                                              ; preds = %206, %213
  %208 = phi i64 [ %214, %213 ], [ %125, %206 ]
  %209 = phi i64 [ 0, %213 ], [ %123, %206 ]
  %210 = getelementptr inbounds i64, i64* %124, i64 %208
  %211 = load i64, i64* %210, align 8
  %212 = icmp ult i64 %209, %211
  br i1 %212, label %20, label %213

213:                                              ; preds = %207
  %214 = add nsw i64 %208, 1
  %215 = trunc i64 %214 to i32
  %216 = icmp eq i32 %121, %215
  br i1 %216, label %880, label %207

217:                                              ; preds = %20, %243
  call void @_ZN7glslang13TInputScanner17consumeWhiteSpaceERb(%"class.glslang::TInputScanner"* %0, i8* nonnull dereferenceable(1) %5) #12
  %218 = load i32, i32* %7, align 8
  %219 = load i32, i32* %8, align 8
  %220 = icmp slt i32 %218, %219
  br i1 %220, label %222, label %221

221:                                              ; preds = %217
  store i8 1, i8* %9, align 1
  br label %248

222:                                              ; preds = %217
  %223 = load i64, i64* %10, align 8
  %224 = load i64*, i64** %11, align 8
  %225 = sext i32 %218 to i64
  br label %226

226:                                              ; preds = %232, %222
  %227 = phi i64 [ %233, %232 ], [ %225, %222 ]
  %228 = phi i64 [ 0, %232 ], [ %223, %222 ]
  %229 = getelementptr inbounds i64, i64* %224, i64 %227
  %230 = load i64, i64* %229, align 8
  %231 = icmp ult i64 %228, %230
  br i1 %231, label %236, label %232

232:                                              ; preds = %226
  %233 = add nsw i64 %227, 1
  %234 = trunc i64 %233 to i32
  %235 = icmp eq i32 %219, %234
  br i1 %235, label %248, label %226

236:                                              ; preds = %226
  %237 = load i8**, i8*** %12, align 8
  %238 = getelementptr inbounds i8*, i8** %237, i64 %227
  %239 = load i8*, i8** %238, align 8
  %240 = getelementptr inbounds i8, i8* %239, i64 %228
  %241 = load i8, i8* %240, align 1
  %242 = icmp eq i8 %241, 47
  br i1 %242, label %243, label %248

243:                                              ; preds = %236
  store i8 1, i8* %5, align 1
  %244 = tail call zeroext i1 @_ZN7glslang13TInputScanner14consumeCommentEv(%"class.glslang::TInputScanner"* %0) #12
  br i1 %244, label %217, label %245

245:                                              ; preds = %243
  %246 = load i32, i32* %7, align 8
  %247 = load i32, i32* %8, align 8
  br label %248

248:                                              ; preds = %236, %232, %245, %221
  %249 = phi i32 [ %219, %221 ], [ %247, %245 ], [ %219, %232 ], [ %219, %236 ]
  %250 = phi i32 [ %218, %221 ], [ %246, %245 ], [ %218, %232 ], [ %218, %236 ]
  %251 = load i8, i8* %5, align 1, !range !2
  %252 = icmp slt i32 %250, %249
  br i1 %252, label %254, label %253

253:                                              ; preds = %248
  store i8 1, i8* %9, align 1
  br label %588

254:                                              ; preds = %248
  %255 = load i64, i64* %10, align 8
  %256 = load i64*, i64** %11, align 8
  %257 = sext i32 %250 to i64
  br label %258

258:                                              ; preds = %264, %254
  %259 = phi i64 [ %265, %264 ], [ %257, %254 ]
  %260 = phi i64 [ 0, %264 ], [ %255, %254 ]
  %261 = getelementptr inbounds i64, i64* %256, i64 %259
  %262 = load i64, i64* %261, align 8
  %263 = icmp ult i64 %260, %262
  br i1 %263, label %268, label %264

264:                                              ; preds = %258
  %265 = add nsw i64 %259, 1
  %266 = trunc i64 %265 to i32
  %267 = icmp eq i32 %249, %266
  br i1 %267, label %588, label %258

268:                                              ; preds = %258
  %269 = load i8**, i8*** %12, align 8
  %270 = getelementptr inbounds i8*, i8** %269, i64 %259
  %271 = load i8*, i8** %270, align 8
  %272 = getelementptr inbounds i8, i8* %271, i64 %260
  %273 = load i8, i8* %272, align 1
  %274 = load %"struct.glslang::TSourceLoc"*, %"struct.glslang::TSourceLoc"** %13, align 8
  %275 = getelementptr inbounds %"struct.glslang::TSourceLoc", %"struct.glslang::TSourceLoc"* %274, i64 %257, i32 3
  %276 = load i32, i32* %275, align 8
  %277 = add nsw i32 %276, 1
  store i32 %277, i32* %275, align 8
  %278 = load i32, i32* %14, align 8
  %279 = add nsw i32 %278, 1
  store i32 %279, i32* %14, align 8
  %280 = icmp eq i8 %273, 10
  br i1 %280, label %281, label %294

281:                                              ; preds = %268
  %282 = load %"struct.glslang::TSourceLoc"*, %"struct.glslang::TSourceLoc"** %13, align 8
  %283 = load i32, i32* %7, align 8
  %284 = sext i32 %283 to i64
  %285 = getelementptr inbounds %"struct.glslang::TSourceLoc", %"struct.glslang::TSourceLoc"* %282, i64 %284, i32 2
  %286 = load i32, i32* %285, align 4
  %287 = add nsw i32 %286, 1
  store i32 %287, i32* %285, align 4
  %288 = load i32, i32* %15, align 4
  %289 = add nsw i32 %288, 1
  store i32 %289, i32* %15, align 4
  store i32 0, i32* %14, align 8
  %290 = load %"struct.glslang::TSourceLoc"*, %"struct.glslang::TSourceLoc"** %13, align 8
  %291 = load i32, i32* %7, align 8
  %292 = sext i32 %291 to i64
  %293 = getelementptr inbounds %"struct.glslang::TSourceLoc", %"struct.glslang::TSourceLoc"* %290, i64 %292, i32 3
  store i32 0, i32* %293, align 8
  tail call void @_ZN7glslang13TInputScanner7advanceEv(%"class.glslang::TInputScanner"* %0) #12
  br label %588

294:                                              ; preds = %268
  tail call void @_ZN7glslang13TInputScanner7advanceEv(%"class.glslang::TInputScanner"* %0) #12
  %295 = icmp eq i8 %273, 35
  br i1 %295, label %296, label %588

296:                                              ; preds = %294
  %297 = load i32, i32* %7, align 8
  %298 = load i32, i32* %8, align 8
  %299 = icmp slt i32 %297, %298
  br i1 %299, label %301, label %300

300:                                              ; preds = %344, %296
  store i8 1, i8* %9, align 1
  br label %588

301:                                              ; preds = %296, %344
  %302 = phi i32 [ %346, %344 ], [ %298, %296 ]
  %303 = phi i32 [ %345, %344 ], [ %297, %296 ]
  %304 = load i64, i64* %10, align 8
  %305 = load i64*, i64** %11, align 8
  %306 = sext i32 %303 to i64
  br label %307

307:                                              ; preds = %313, %301
  %308 = phi i64 [ %314, %313 ], [ %306, %301 ]
  %309 = phi i64 [ 0, %313 ], [ %304, %301 ]
  %310 = getelementptr inbounds i64, i64* %305, i64 %308
  %311 = load i64, i64* %310, align 8
  %312 = icmp ult i64 %309, %311
  br i1 %312, label %317, label %313

313:                                              ; preds = %307
  %314 = add nsw i64 %308, 1
  %315 = trunc i64 %314 to i32
  %316 = icmp eq i32 %302, %315
  br i1 %316, label %588, label %307

317:                                              ; preds = %307
  %318 = load i8**, i8*** %12, align 8
  %319 = getelementptr inbounds i8*, i8** %318, i64 %308
  %320 = load i8*, i8** %319, align 8
  %321 = getelementptr inbounds i8, i8* %320, i64 %309
  %322 = load i8, i8* %321, align 1
  %323 = load %"struct.glslang::TSourceLoc"*, %"struct.glslang::TSourceLoc"** %13, align 8
  %324 = getelementptr inbounds %"struct.glslang::TSourceLoc", %"struct.glslang::TSourceLoc"* %323, i64 %306, i32 3
  %325 = load i32, i32* %324, align 8
  %326 = add nsw i32 %325, 1
  store i32 %326, i32* %324, align 8
  %327 = load i32, i32* %14, align 8
  %328 = add nsw i32 %327, 1
  store i32 %328, i32* %14, align 8
  %329 = icmp eq i8 %322, 10
  br i1 %329, label %330, label %343

330:                                              ; preds = %317
  %331 = load %"struct.glslang::TSourceLoc"*, %"struct.glslang::TSourceLoc"** %13, align 8
  %332 = load i32, i32* %7, align 8
  %333 = sext i32 %332 to i64
  %334 = getelementptr inbounds %"struct.glslang::TSourceLoc", %"struct.glslang::TSourceLoc"* %331, i64 %333, i32 2
  %335 = load i32, i32* %334, align 4
  %336 = add nsw i32 %335, 1
  store i32 %336, i32* %334, align 4
  %337 = load i32, i32* %15, align 4
  %338 = add nsw i32 %337, 1
  store i32 %338, i32* %15, align 4
  store i32 0, i32* %14, align 8
  %339 = load %"struct.glslang::TSourceLoc"*, %"struct.glslang::TSourceLoc"** %13, align 8
  %340 = load i32, i32* %7, align 8
  %341 = sext i32 %340 to i64
  %342 = getelementptr inbounds %"struct.glslang::TSourceLoc", %"struct.glslang::TSourceLoc"* %339, i64 %341, i32 3
  store i32 0, i32* %342, align 8
  tail call void @_ZN7glslang13TInputScanner7advanceEv(%"class.glslang::TInputScanner"* %0) #12
  br label %588

343:                                              ; preds = %317
  tail call void @_ZN7glslang13TInputScanner7advanceEv(%"class.glslang::TInputScanner"* %0) #12
  switch i8 %322, label %588 [
    i8 32, label %344
    i8 9, label %344
    i8 118, label %348
  ]

344:                                              ; preds = %343, %343
  %345 = load i32, i32* %7, align 8
  %346 = load i32, i32* %8, align 8
  %347 = icmp slt i32 %345, %346
  br i1 %347, label %301, label %300

348:                                              ; preds = %343
  %349 = load i32, i32* %7, align 8
  %350 = load i32, i32* %8, align 8
  %351 = icmp slt i32 %349, %350
  br i1 %351, label %353, label %352

352:                                              ; preds = %348
  store i8 1, i8* %9, align 1
  br label %588

353:                                              ; preds = %348
  %354 = load i64, i64* %10, align 8
  %355 = load i64*, i64** %11, align 8
  %356 = sext i32 %349 to i64
  br label %357

357:                                              ; preds = %363, %353
  %358 = phi i64 [ %364, %363 ], [ %356, %353 ]
  %359 = phi i64 [ 0, %363 ], [ %354, %353 ]
  %360 = getelementptr inbounds i64, i64* %355, i64 %358
  %361 = load i64, i64* %360, align 8
  %362 = icmp ult i64 %359, %361
  br i1 %362, label %367, label %363

363:                                              ; preds = %357
  %364 = add nsw i64 %358, 1
  %365 = trunc i64 %364 to i32
  %366 = icmp eq i32 %350, %365
  br i1 %366, label %588, label %357

367:                                              ; preds = %357
  %368 = load i8**, i8*** %12, align 8
  %369 = getelementptr inbounds i8*, i8** %368, i64 %358
  %370 = load i8*, i8** %369, align 8
  %371 = getelementptr inbounds i8, i8* %370, i64 %359
  %372 = load i8, i8* %371, align 1
  %373 = load %"struct.glslang::TSourceLoc"*, %"struct.glslang::TSourceLoc"** %13, align 8
  %374 = getelementptr inbounds %"struct.glslang::TSourceLoc", %"struct.glslang::TSourceLoc"* %373, i64 %356, i32 3
  %375 = load i32, i32* %374, align 8
  %376 = add nsw i32 %375, 1
  store i32 %376, i32* %374, align 8
  %377 = load i32, i32* %14, align 8
  %378 = add nsw i32 %377, 1
  store i32 %378, i32* %14, align 8
  %379 = icmp eq i8 %372, 10
  br i1 %379, label %380, label %393

380:                                              ; preds = %367
  %381 = load %"struct.glslang::TSourceLoc"*, %"struct.glslang::TSourceLoc"** %13, align 8
  %382 = load i32, i32* %7, align 8
  %383 = sext i32 %382 to i64
  %384 = getelementptr inbounds %"struct.glslang::TSourceLoc", %"struct.glslang::TSourceLoc"* %381, i64 %383, i32 2
  %385 = load i32, i32* %384, align 4
  %386 = add nsw i32 %385, 1
  store i32 %386, i32* %384, align 4
  %387 = load i32, i32* %15, align 4
  %388 = add nsw i32 %387, 1
  store i32 %388, i32* %15, align 4
  store i32 0, i32* %14, align 8
  %389 = load %"struct.glslang::TSourceLoc"*, %"struct.glslang::TSourceLoc"** %13, align 8
  %390 = load i32, i32* %7, align 8
  %391 = sext i32 %390 to i64
  %392 = getelementptr inbounds %"struct.glslang::TSourceLoc", %"struct.glslang::TSourceLoc"* %389, i64 %391, i32 3
  store i32 0, i32* %392, align 8
  tail call void @_ZN7glslang13TInputScanner7advanceEv(%"class.glslang::TInputScanner"* %0) #12
  br label %588

393:                                              ; preds = %367
  tail call void @_ZN7glslang13TInputScanner7advanceEv(%"class.glslang::TInputScanner"* %0) #12
  %394 = icmp eq i8 %372, 101
  br i1 %394, label %395, label %588

395:                                              ; preds = %393
  %396 = load i32, i32* %7, align 8
  %397 = load i32, i32* %8, align 8
  %398 = icmp slt i32 %396, %397
  br i1 %398, label %400, label %399

399:                                              ; preds = %395
  store i8 1, i8* %9, align 1
  br label %588

400:                                              ; preds = %395
  %401 = load i64, i64* %10, align 8
  %402 = load i64*, i64** %11, align 8
  %403 = sext i32 %396 to i64
  br label %404

404:                                              ; preds = %410, %400
  %405 = phi i64 [ %411, %410 ], [ %403, %400 ]
  %406 = phi i64 [ 0, %410 ], [ %401, %400 ]
  %407 = getelementptr inbounds i64, i64* %402, i64 %405
  %408 = load i64, i64* %407, align 8
  %409 = icmp ult i64 %406, %408
  br i1 %409, label %414, label %410

410:                                              ; preds = %404
  %411 = add nsw i64 %405, 1
  %412 = trunc i64 %411 to i32
  %413 = icmp eq i32 %397, %412
  br i1 %413, label %588, label %404

414:                                              ; preds = %404
  %415 = load i8**, i8*** %12, align 8
  %416 = getelementptr inbounds i8*, i8** %415, i64 %405
  %417 = load i8*, i8** %416, align 8
  %418 = getelementptr inbounds i8, i8* %417, i64 %406
  %419 = load i8, i8* %418, align 1
  %420 = load %"struct.glslang::TSourceLoc"*, %"struct.glslang::TSourceLoc"** %13, align 8
  %421 = getelementptr inbounds %"struct.glslang::TSourceLoc", %"struct.glslang::TSourceLoc"* %420, i64 %403, i32 3
  %422 = load i32, i32* %421, align 8
  %423 = add nsw i32 %422, 1
  store i32 %423, i32* %421, align 8
  %424 = load i32, i32* %14, align 8
  %425 = add nsw i32 %424, 1
  store i32 %425, i32* %14, align 8
  %426 = icmp eq i8 %419, 10
  br i1 %426, label %427, label %440

427:                                              ; preds = %414
  %428 = load %"struct.glslang::TSourceLoc"*, %"struct.glslang::TSourceLoc"** %13, align 8
  %429 = load i32, i32* %7, align 8
  %430 = sext i32 %429 to i64
  %431 = getelementptr inbounds %"struct.glslang::TSourceLoc", %"struct.glslang::TSourceLoc"* %428, i64 %430, i32 2
  %432 = load i32, i32* %431, align 4
  %433 = add nsw i32 %432, 1
  store i32 %433, i32* %431, align 4
  %434 = load i32, i32* %15, align 4
  %435 = add nsw i32 %434, 1
  store i32 %435, i32* %15, align 4
  store i32 0, i32* %14, align 8
  %436 = load %"struct.glslang::TSourceLoc"*, %"struct.glslang::TSourceLoc"** %13, align 8
  %437 = load i32, i32* %7, align 8
  %438 = sext i32 %437 to i64
  %439 = getelementptr inbounds %"struct.glslang::TSourceLoc", %"struct.glslang::TSourceLoc"* %436, i64 %438, i32 3
  store i32 0, i32* %439, align 8
  tail call void @_ZN7glslang13TInputScanner7advanceEv(%"class.glslang::TInputScanner"* %0) #12
  br label %588

440:                                              ; preds = %414
  tail call void @_ZN7glslang13TInputScanner7advanceEv(%"class.glslang::TInputScanner"* %0) #12
  %441 = icmp eq i8 %419, 114
  br i1 %441, label %442, label %588

442:                                              ; preds = %440
  %443 = load i32, i32* %7, align 8
  %444 = load i32, i32* %8, align 8
  %445 = icmp slt i32 %443, %444
  br i1 %445, label %447, label %446

446:                                              ; preds = %442
  store i8 1, i8* %9, align 1
  br label %588

447:                                              ; preds = %442
  %448 = load i64, i64* %10, align 8
  %449 = load i64*, i64** %11, align 8
  %450 = sext i32 %443 to i64
  br label %451

451:                                              ; preds = %457, %447
  %452 = phi i64 [ %458, %457 ], [ %450, %447 ]
  %453 = phi i64 [ 0, %457 ], [ %448, %447 ]
  %454 = getelementptr inbounds i64, i64* %449, i64 %452
  %455 = load i64, i64* %454, align 8
  %456 = icmp ult i64 %453, %455
  br i1 %456, label %461, label %457

457:                                              ; preds = %451
  %458 = add nsw i64 %452, 1
  %459 = trunc i64 %458 to i32
  %460 = icmp eq i32 %444, %459
  br i1 %460, label %588, label %451

461:                                              ; preds = %451
  %462 = load i8**, i8*** %12, align 8
  %463 = getelementptr inbounds i8*, i8** %462, i64 %452
  %464 = load i8*, i8** %463, align 8
  %465 = getelementptr inbounds i8, i8* %464, i64 %453
  %466 = load i8, i8* %465, align 1
  %467 = load %"struct.glslang::TSourceLoc"*, %"struct.glslang::TSourceLoc"** %13, align 8
  %468 = getelementptr inbounds %"struct.glslang::TSourceLoc", %"struct.glslang::TSourceLoc"* %467, i64 %450, i32 3
  %469 = load i32, i32* %468, align 8
  %470 = add nsw i32 %469, 1
  store i32 %470, i32* %468, align 8
  %471 = load i32, i32* %14, align 8
  %472 = add nsw i32 %471, 1
  store i32 %472, i32* %14, align 8
  %473 = icmp eq i8 %466, 10
  br i1 %473, label %474, label %487

474:                                              ; preds = %461
  %475 = load %"struct.glslang::TSourceLoc"*, %"struct.glslang::TSourceLoc"** %13, align 8
  %476 = load i32, i32* %7, align 8
  %477 = sext i32 %476 to i64
  %478 = getelementptr inbounds %"struct.glslang::TSourceLoc", %"struct.glslang::TSourceLoc"* %475, i64 %477, i32 2
  %479 = load i32, i32* %478, align 4
  %480 = add nsw i32 %479, 1
  store i32 %480, i32* %478, align 4
  %481 = load i32, i32* %15, align 4
  %482 = add nsw i32 %481, 1
  store i32 %482, i32* %15, align 4
  store i32 0, i32* %14, align 8
  %483 = load %"struct.glslang::TSourceLoc"*, %"struct.glslang::TSourceLoc"** %13, align 8
  %484 = load i32, i32* %7, align 8
  %485 = sext i32 %484 to i64
  %486 = getelementptr inbounds %"struct.glslang::TSourceLoc", %"struct.glslang::TSourceLoc"* %483, i64 %485, i32 3
  store i32 0, i32* %486, align 8
  tail call void @_ZN7glslang13TInputScanner7advanceEv(%"class.glslang::TInputScanner"* %0) #12
  br label %588

487:                                              ; preds = %461
  tail call void @_ZN7glslang13TInputScanner7advanceEv(%"class.glslang::TInputScanner"* %0) #12
  %488 = icmp eq i8 %466, 115
  br i1 %488, label %489, label %588

489:                                              ; preds = %487
  %490 = load i32, i32* %7, align 8
  %491 = load i32, i32* %8, align 8
  %492 = icmp slt i32 %490, %491
  br i1 %492, label %494, label %493

493:                                              ; preds = %489
  store i8 1, i8* %9, align 1
  br label %588

494:                                              ; preds = %489
  %495 = load i64, i64* %10, align 8
  %496 = load i64*, i64** %11, align 8
  %497 = sext i32 %490 to i64
  br label %498

498:                                              ; preds = %504, %494
  %499 = phi i64 [ %505, %504 ], [ %497, %494 ]
  %500 = phi i64 [ 0, %504 ], [ %495, %494 ]
  %501 = getelementptr inbounds i64, i64* %496, i64 %499
  %502 = load i64, i64* %501, align 8
  %503 = icmp ult i64 %500, %502
  br i1 %503, label %508, label %504

504:                                              ; preds = %498
  %505 = add nsw i64 %499, 1
  %506 = trunc i64 %505 to i32
  %507 = icmp eq i32 %491, %506
  br i1 %507, label %588, label %498

508:                                              ; preds = %498
  %509 = load i8**, i8*** %12, align 8
  %510 = getelementptr inbounds i8*, i8** %509, i64 %499
  %511 = load i8*, i8** %510, align 8
  %512 = getelementptr inbounds i8, i8* %511, i64 %500
  %513 = load i8, i8* %512, align 1
  %514 = load %"struct.glslang::TSourceLoc"*, %"struct.glslang::TSourceLoc"** %13, align 8
  %515 = getelementptr inbounds %"struct.glslang::TSourceLoc", %"struct.glslang::TSourceLoc"* %514, i64 %497, i32 3
  %516 = load i32, i32* %515, align 8
  %517 = add nsw i32 %516, 1
  store i32 %517, i32* %515, align 8
  %518 = load i32, i32* %14, align 8
  %519 = add nsw i32 %518, 1
  store i32 %519, i32* %14, align 8
  %520 = icmp eq i8 %513, 10
  br i1 %520, label %521, label %534

521:                                              ; preds = %508
  %522 = load %"struct.glslang::TSourceLoc"*, %"struct.glslang::TSourceLoc"** %13, align 8
  %523 = load i32, i32* %7, align 8
  %524 = sext i32 %523 to i64
  %525 = getelementptr inbounds %"struct.glslang::TSourceLoc", %"struct.glslang::TSourceLoc"* %522, i64 %524, i32 2
  %526 = load i32, i32* %525, align 4
  %527 = add nsw i32 %526, 1
  store i32 %527, i32* %525, align 4
  %528 = load i32, i32* %15, align 4
  %529 = add nsw i32 %528, 1
  store i32 %529, i32* %15, align 4
  store i32 0, i32* %14, align 8
  %530 = load %"struct.glslang::TSourceLoc"*, %"struct.glslang::TSourceLoc"** %13, align 8
  %531 = load i32, i32* %7, align 8
  %532 = sext i32 %531 to i64
  %533 = getelementptr inbounds %"struct.glslang::TSourceLoc", %"struct.glslang::TSourceLoc"* %530, i64 %532, i32 3
  store i32 0, i32* %533, align 8
  tail call void @_ZN7glslang13TInputScanner7advanceEv(%"class.glslang::TInputScanner"* %0) #12
  br label %588

534:                                              ; preds = %508
  tail call void @_ZN7glslang13TInputScanner7advanceEv(%"class.glslang::TInputScanner"* %0) #12
  %535 = icmp eq i8 %513, 105
  br i1 %535, label %536, label %588

536:                                              ; preds = %534
  %537 = load i32, i32* %7, align 8
  %538 = load i32, i32* %8, align 8
  %539 = icmp slt i32 %537, %538
  br i1 %539, label %541, label %540

540:                                              ; preds = %536
  store i8 1, i8* %9, align 1
  br label %588

541:                                              ; preds = %536
  %542 = load i64, i64* %10, align 8
  %543 = load i64*, i64** %11, align 8
  %544 = sext i32 %537 to i64
  br label %545

545:                                              ; preds = %551, %541
  %546 = phi i64 [ %552, %551 ], [ %544, %541 ]
  %547 = phi i64 [ 0, %551 ], [ %542, %541 ]
  %548 = getelementptr inbounds i64, i64* %543, i64 %546
  %549 = load i64, i64* %548, align 8
  %550 = icmp ult i64 %547, %549
  br i1 %550, label %555, label %551

551:                                              ; preds = %545
  %552 = add nsw i64 %546, 1
  %553 = trunc i64 %552 to i32
  %554 = icmp eq i32 %538, %553
  br i1 %554, label %588, label %545

555:                                              ; preds = %545
  %556 = load i8**, i8*** %12, align 8
  %557 = getelementptr inbounds i8*, i8** %556, i64 %546
  %558 = load i8*, i8** %557, align 8
  %559 = getelementptr inbounds i8, i8* %558, i64 %547
  %560 = load i8, i8* %559, align 1
  %561 = load %"struct.glslang::TSourceLoc"*, %"struct.glslang::TSourceLoc"** %13, align 8
  %562 = getelementptr inbounds %"struct.glslang::TSourceLoc", %"struct.glslang::TSourceLoc"* %561, i64 %544, i32 3
  %563 = load i32, i32* %562, align 8
  %564 = add nsw i32 %563, 1
  store i32 %564, i32* %562, align 8
  %565 = load i32, i32* %14, align 8
  %566 = add nsw i32 %565, 1
  store i32 %566, i32* %14, align 8
  %567 = icmp eq i8 %560, 10
  br i1 %567, label %568, label %581

568:                                              ; preds = %555
  %569 = load %"struct.glslang::TSourceLoc"*, %"struct.glslang::TSourceLoc"** %13, align 8
  %570 = load i32, i32* %7, align 8
  %571 = sext i32 %570 to i64
  %572 = getelementptr inbounds %"struct.glslang::TSourceLoc", %"struct.glslang::TSourceLoc"* %569, i64 %571, i32 2
  %573 = load i32, i32* %572, align 4
  %574 = add nsw i32 %573, 1
  store i32 %574, i32* %572, align 4
  %575 = load i32, i32* %15, align 4
  %576 = add nsw i32 %575, 1
  store i32 %576, i32* %15, align 4
  store i32 0, i32* %14, align 8
  %577 = load %"struct.glslang::TSourceLoc"*, %"struct.glslang::TSourceLoc"** %13, align 8
  %578 = load i32, i32* %7, align 8
  %579 = sext i32 %578 to i64
  %580 = getelementptr inbounds %"struct.glslang::TSourceLoc", %"struct.glslang::TSourceLoc"* %577, i64 %579, i32 3
  store i32 0, i32* %580, align 8
  tail call void @_ZN7glslang13TInputScanner7advanceEv(%"class.glslang::TInputScanner"* %0) #12
  br label %588

581:                                              ; preds = %555
  tail call void @_ZN7glslang13TInputScanner7advanceEv(%"class.glslang::TInputScanner"* %0) #12
  %582 = icmp eq i8 %560, 111
  br i1 %582, label %583, label %588

583:                                              ; preds = %581
  %584 = load i32, i32* %7, align 8
  %585 = load i32, i32* %8, align 8
  %586 = icmp slt i32 %584, %585
  br i1 %586, label %589, label %587

587:                                              ; preds = %583
  store i8 1, i8* %9, align 1
  br label %588

588:                                              ; preds = %264, %343, %363, %410, %457, %504, %551, %599, %313, %587, %540, %493, %446, %399, %352, %300, %253, %862, %616, %568, %521, %474, %427, %380, %330, %281, %749, %393, %440, %487, %534, %581, %629, %294
  br label %17

589:                                              ; preds = %583
  %590 = load i64, i64* %10, align 8
  %591 = load i64*, i64** %11, align 8
  %592 = sext i32 %584 to i64
  br label %593

593:                                              ; preds = %599, %589
  %594 = phi i64 [ %600, %599 ], [ %592, %589 ]
  %595 = phi i64 [ 0, %599 ], [ %590, %589 ]
  %596 = getelementptr inbounds i64, i64* %591, i64 %594
  %597 = load i64, i64* %596, align 8
  %598 = icmp ult i64 %595, %597
  br i1 %598, label %603, label %599

599:                                              ; preds = %593
  %600 = add nsw i64 %594, 1
  %601 = trunc i64 %600 to i32
  %602 = icmp eq i32 %585, %601
  br i1 %602, label %588, label %593

603:                                              ; preds = %593
  %604 = load i8**, i8*** %12, align 8
  %605 = getelementptr inbounds i8*, i8** %604, i64 %594
  %606 = load i8*, i8** %605, align 8
  %607 = getelementptr inbounds i8, i8* %606, i64 %595
  %608 = load i8, i8* %607, align 1
  %609 = load %"struct.glslang::TSourceLoc"*, %"struct.glslang::TSourceLoc"** %13, align 8
  %610 = getelementptr inbounds %"struct.glslang::TSourceLoc", %"struct.glslang::TSourceLoc"* %609, i64 %592, i32 3
  %611 = load i32, i32* %610, align 8
  %612 = add nsw i32 %611, 1
  store i32 %612, i32* %610, align 8
  %613 = load i32, i32* %14, align 8
  %614 = add nsw i32 %613, 1
  store i32 %614, i32* %14, align 8
  %615 = icmp eq i8 %608, 10
  br i1 %615, label %616, label %629

616:                                              ; preds = %603
  %617 = load %"struct.glslang::TSourceLoc"*, %"struct.glslang::TSourceLoc"** %13, align 8
  %618 = load i32, i32* %7, align 8
  %619 = sext i32 %618 to i64
  %620 = getelementptr inbounds %"struct.glslang::TSourceLoc", %"struct.glslang::TSourceLoc"* %617, i64 %619, i32 2
  %621 = load i32, i32* %620, align 4
  %622 = add nsw i32 %621, 1
  store i32 %622, i32* %620, align 4
  %623 = load i32, i32* %15, align 4
  %624 = add nsw i32 %623, 1
  store i32 %624, i32* %15, align 4
  store i32 0, i32* %14, align 8
  %625 = load %"struct.glslang::TSourceLoc"*, %"struct.glslang::TSourceLoc"** %13, align 8
  %626 = load i32, i32* %7, align 8
  %627 = sext i32 %626 to i64
  %628 = getelementptr inbounds %"struct.glslang::TSourceLoc", %"struct.glslang::TSourceLoc"* %625, i64 %627, i32 3
  store i32 0, i32* %628, align 8
  tail call void @_ZN7glslang13TInputScanner7advanceEv(%"class.glslang::TInputScanner"* %0) #12
  br label %588

629:                                              ; preds = %603
  tail call void @_ZN7glslang13TInputScanner7advanceEv(%"class.glslang::TInputScanner"* %0) #12
  %630 = icmp eq i8 %608, 110
  br i1 %630, label %631, label %588

631:                                              ; preds = %629
  %632 = load i32, i32* %7, align 8
  %633 = load i32, i32* %8, align 8
  %634 = icmp slt i32 %632, %633
  br i1 %634, label %636, label %635

635:                                              ; preds = %679, %631
  store i8 1, i8* %9, align 1
  br label %683

636:                                              ; preds = %631, %679
  %637 = phi i32 [ %681, %679 ], [ %633, %631 ]
  %638 = phi i32 [ %680, %679 ], [ %632, %631 ]
  %639 = load i64, i64* %10, align 8
  %640 = load i64*, i64** %11, align 8
  %641 = sext i32 %638 to i64
  br label %642

642:                                              ; preds = %648, %636
  %643 = phi i64 [ %649, %648 ], [ %641, %636 ]
  %644 = phi i64 [ 0, %648 ], [ %639, %636 ]
  %645 = getelementptr inbounds i64, i64* %640, i64 %643
  %646 = load i64, i64* %645, align 8
  %647 = icmp ult i64 %644, %646
  br i1 %647, label %652, label %648

648:                                              ; preds = %642
  %649 = add nsw i64 %643, 1
  %650 = trunc i64 %649 to i32
  %651 = icmp eq i32 %637, %650
  br i1 %651, label %683, label %642

652:                                              ; preds = %642
  %653 = load i8**, i8*** %12, align 8
  %654 = getelementptr inbounds i8*, i8** %653, i64 %643
  %655 = load i8*, i8** %654, align 8
  %656 = getelementptr inbounds i8, i8* %655, i64 %644
  %657 = load i8, i8* %656, align 1
  %658 = load %"struct.glslang::TSourceLoc"*, %"struct.glslang::TSourceLoc"** %13, align 8
  %659 = getelementptr inbounds %"struct.glslang::TSourceLoc", %"struct.glslang::TSourceLoc"* %658, i64 %641, i32 3
  %660 = load i32, i32* %659, align 8
  %661 = add nsw i32 %660, 1
  store i32 %661, i32* %659, align 8
  %662 = load i32, i32* %14, align 8
  %663 = add nsw i32 %662, 1
  store i32 %663, i32* %14, align 8
  %664 = icmp eq i8 %657, 10
  br i1 %664, label %665, label %678

665:                                              ; preds = %652
  %666 = load %"struct.glslang::TSourceLoc"*, %"struct.glslang::TSourceLoc"** %13, align 8
  %667 = load i32, i32* %7, align 8
  %668 = sext i32 %667 to i64
  %669 = getelementptr inbounds %"struct.glslang::TSourceLoc", %"struct.glslang::TSourceLoc"* %666, i64 %668, i32 2
  %670 = load i32, i32* %669, align 4
  %671 = add nsw i32 %670, 1
  store i32 %671, i32* %669, align 4
  %672 = load i32, i32* %15, align 4
  %673 = add nsw i32 %672, 1
  store i32 %673, i32* %15, align 4
  store i32 0, i32* %14, align 8
  %674 = load %"struct.glslang::TSourceLoc"*, %"struct.glslang::TSourceLoc"** %13, align 8
  %675 = load i32, i32* %7, align 8
  %676 = sext i32 %675 to i64
  %677 = getelementptr inbounds %"struct.glslang::TSourceLoc", %"struct.glslang::TSourceLoc"* %674, i64 %676, i32 3
  store i32 0, i32* %677, align 8
  tail call void @_ZN7glslang13TInputScanner7advanceEv(%"class.glslang::TInputScanner"* %0) #12
  br label %683

678:                                              ; preds = %652
  tail call void @_ZN7glslang13TInputScanner7advanceEv(%"class.glslang::TInputScanner"* %0) #12
  switch i8 %657, label %686 [
    i8 32, label %679
    i8 9, label %679
  ]

679:                                              ; preds = %678, %678
  %680 = load i32, i32* %7, align 8
  %681 = load i32, i32* %8, align 8
  %682 = icmp slt i32 %680, %681
  br i1 %682, label %636, label %635

683:                                              ; preds = %648, %665, %635
  %684 = phi i32 [ 10, %665 ], [ -1, %635 ], [ -1, %648 ]
  %685 = load i32, i32* %1, align 4
  br label %749

686:                                              ; preds = %678
  %687 = zext i8 %657 to i32
  %688 = add nsw i32 %687, -48
  %689 = icmp ult i32 %688, 10
  %690 = load i32, i32* %1, align 4
  br i1 %689, label %691, label %749

691:                                              ; preds = %686, %743
  %692 = phi i32 [ %746, %743 ], [ %690, %686 ]
  %693 = phi i32 [ %744, %743 ], [ %688, %686 ]
  %694 = mul nsw i32 %692, 10
  %695 = add nsw i32 %694, %693
  store i32 %695, i32* %1, align 4
  %696 = load i32, i32* %7, align 8
  %697 = load i32, i32* %8, align 8
  %698 = icmp slt i32 %696, %697
  br i1 %698, label %700, label %699

699:                                              ; preds = %691
  store i8 1, i8* %9, align 1
  br label %741

700:                                              ; preds = %691
  %701 = load i64, i64* %10, align 8
  %702 = load i64*, i64** %11, align 8
  %703 = sext i32 %696 to i64
  br label %704

704:                                              ; preds = %710, %700
  %705 = phi i64 [ %711, %710 ], [ %703, %700 ]
  %706 = phi i64 [ 0, %710 ], [ %701, %700 ]
  %707 = getelementptr inbounds i64, i64* %702, i64 %705
  %708 = load i64, i64* %707, align 8
  %709 = icmp ult i64 %706, %708
  br i1 %709, label %714, label %710

710:                                              ; preds = %704
  %711 = add nsw i64 %705, 1
  %712 = trunc i64 %711 to i32
  %713 = icmp eq i32 %697, %712
  br i1 %713, label %741, label %704

714:                                              ; preds = %704
  %715 = load i8**, i8*** %12, align 8
  %716 = getelementptr inbounds i8*, i8** %715, i64 %705
  %717 = load i8*, i8** %716, align 8
  %718 = getelementptr inbounds i8, i8* %717, i64 %706
  %719 = load i8, i8* %718, align 1
  %720 = zext i8 %719 to i32
  %721 = load %"struct.glslang::TSourceLoc"*, %"struct.glslang::TSourceLoc"** %13, align 8
  %722 = getelementptr inbounds %"struct.glslang::TSourceLoc", %"struct.glslang::TSourceLoc"* %721, i64 %703, i32 3
  %723 = load i32, i32* %722, align 8
  %724 = add nsw i32 %723, 1
  store i32 %724, i32* %722, align 8
  %725 = load i32, i32* %14, align 8
  %726 = add nsw i32 %725, 1
  store i32 %726, i32* %14, align 8
  %727 = icmp eq i8 %719, 10
  br i1 %727, label %728, label %743

728:                                              ; preds = %714
  %729 = load %"struct.glslang::TSourceLoc"*, %"struct.glslang::TSourceLoc"** %13, align 8
  %730 = load i32, i32* %7, align 8
  %731 = sext i32 %730 to i64
  %732 = getelementptr inbounds %"struct.glslang::TSourceLoc", %"struct.glslang::TSourceLoc"* %729, i64 %731, i32 2
  %733 = load i32, i32* %732, align 4
  %734 = add nsw i32 %733, 1
  store i32 %734, i32* %732, align 4
  %735 = load i32, i32* %15, align 4
  %736 = add nsw i32 %735, 1
  store i32 %736, i32* %15, align 4
  store i32 0, i32* %14, align 8
  %737 = load %"struct.glslang::TSourceLoc"*, %"struct.glslang::TSourceLoc"** %13, align 8
  %738 = load i32, i32* %7, align 8
  %739 = sext i32 %738 to i64
  %740 = getelementptr inbounds %"struct.glslang::TSourceLoc", %"struct.glslang::TSourceLoc"* %737, i64 %739, i32 3
  store i32 0, i32* %740, align 8
  br label %743

741:                                              ; preds = %710, %699
  %742 = load i32, i32* %1, align 4
  br label %749

743:                                              ; preds = %714, %728
  tail call void @_ZN7glslang13TInputScanner7advanceEv(%"class.glslang::TInputScanner"* %0) #12
  %744 = add nsw i32 %720, -48
  %745 = icmp ult i32 %744, 10
  %746 = load i32, i32* %1, align 4
  br i1 %745, label %691, label %747

747:                                              ; preds = %743
  %748 = zext i8 %719 to i32
  br label %749

749:                                              ; preds = %747, %741, %683, %686
  %750 = phi i32 [ %687, %686 ], [ %684, %683 ], [ -1, %741 ], [ %748, %747 ]
  %751 = phi i32 [ %690, %686 ], [ %685, %683 ], [ %742, %741 ], [ %746, %747 ]
  %752 = icmp eq i32 %751, 0
  br i1 %752, label %588, label %753

753:                                              ; preds = %749, %760
  %754 = phi i32 [ %761, %760 ], [ %750, %749 ]
  switch i32 %754, label %804 [
    i32 32, label %755
    i32 9, label %755
  ]

755:                                              ; preds = %753, %753
  %756 = load i32, i32* %7, align 8
  %757 = load i32, i32* %8, align 8
  %758 = icmp slt i32 %756, %757
  br i1 %758, label %762, label %759

759:                                              ; preds = %755
  store i8 1, i8* %9, align 1
  br label %760

760:                                              ; preds = %772, %759, %803
  %761 = phi i32 [ %782, %803 ], [ -1, %759 ], [ -1, %772 ]
  br label %753

762:                                              ; preds = %755
  %763 = load i64, i64* %10, align 8
  %764 = load i64*, i64** %11, align 8
  %765 = sext i32 %756 to i64
  br label %766

766:                                              ; preds = %772, %762
  %767 = phi i64 [ %773, %772 ], [ %765, %762 ]
  %768 = phi i64 [ 0, %772 ], [ %763, %762 ]
  %769 = getelementptr inbounds i64, i64* %764, i64 %767
  %770 = load i64, i64* %769, align 8
  %771 = icmp ult i64 %768, %770
  br i1 %771, label %776, label %772

772:                                              ; preds = %766
  %773 = add nsw i64 %767, 1
  %774 = trunc i64 %773 to i32
  %775 = icmp eq i32 %757, %774
  br i1 %775, label %760, label %766

776:                                              ; preds = %766
  %777 = load i8**, i8*** %12, align 8
  %778 = getelementptr inbounds i8*, i8** %777, i64 %767
  %779 = load i8*, i8** %778, align 8
  %780 = getelementptr inbounds i8, i8* %779, i64 %768
  %781 = load i8, i8* %780, align 1
  %782 = zext i8 %781 to i32
  %783 = load %"struct.glslang::TSourceLoc"*, %"struct.glslang::TSourceLoc"** %13, align 8
  %784 = getelementptr inbounds %"struct.glslang::TSourceLoc", %"struct.glslang::TSourceLoc"* %783, i64 %765, i32 3
  %785 = load i32, i32* %784, align 8
  %786 = add nsw i32 %785, 1
  store i32 %786, i32* %784, align 8
  %787 = load i32, i32* %14, align 8
  %788 = add nsw i32 %787, 1
  store i32 %788, i32* %14, align 8
  %789 = icmp eq i8 %781, 10
  br i1 %789, label %790, label %803

790:                                              ; preds = %776
  %791 = load %"struct.glslang::TSourceLoc"*, %"struct.glslang::TSourceLoc"** %13, align 8
  %792 = load i32, i32* %7, align 8
  %793 = sext i32 %792 to i64
  %794 = getelementptr inbounds %"struct.glslang::TSourceLoc", %"struct.glslang::TSourceLoc"* %791, i64 %793, i32 2
  %795 = load i32, i32* %794, align 4
  %796 = add nsw i32 %795, 1
  store i32 %796, i32* %794, align 4
  %797 = load i32, i32* %15, align 4
  %798 = add nsw i32 %797, 1
  store i32 %798, i32* %15, align 4
  store i32 0, i32* %14, align 8
  %799 = load %"struct.glslang::TSourceLoc"*, %"struct.glslang::TSourceLoc"** %13, align 8
  %800 = load i32, i32* %7, align 8
  %801 = sext i32 %800 to i64
  %802 = getelementptr inbounds %"struct.glslang::TSourceLoc", %"struct.glslang::TSourceLoc"* %799, i64 %801, i32 3
  store i32 0, i32* %802, align 8
  br label %803

803:                                              ; preds = %790, %776
  tail call void @_ZN7glslang13TInputScanner7advanceEv(%"class.glslang::TInputScanner"* %0) #12
  br label %760

804:                                              ; preds = %753
  call void @llvm.lifetime.start.p0i8(i64 13, i8* nonnull %16) #12
  call void @llvm.memset.p0i8.i64(i8* nonnull align 1 %16, i8 -86, i64 13, i1 false)
  br label %805

805:                                              ; preds = %857, %804
  %806 = phi i64 [ 0, %804 ], [ %859, %857 ]
  %807 = phi i32 [ %754, %804 ], [ %858, %857 ]
  switch i32 %807, label %808 [
    i32 -1, label %863
    i32 32, label %863
    i32 13, label %863
    i32 10, label %863
    i32 9, label %863
  ]

808:                                              ; preds = %805
  %809 = trunc i32 %807 to i8
  %810 = getelementptr inbounds [13 x i8], [13 x i8]* %6, i64 0, i64 %806
  store i8 %809, i8* %810, align 1
  %811 = load i32, i32* %7, align 8
  %812 = load i32, i32* %8, align 8
  %813 = icmp slt i32 %811, %812
  br i1 %813, label %815, label %814

814:                                              ; preds = %808
  store i8 1, i8* %9, align 1
  br label %857

815:                                              ; preds = %808
  %816 = load i64, i64* %10, align 8
  %817 = load i64*, i64** %11, align 8
  %818 = sext i32 %811 to i64
  br label %819

819:                                              ; preds = %825, %815
  %820 = phi i64 [ %826, %825 ], [ %818, %815 ]
  %821 = phi i64 [ 0, %825 ], [ %816, %815 ]
  %822 = getelementptr inbounds i64, i64* %817, i64 %820
  %823 = load i64, i64* %822, align 8
  %824 = icmp ult i64 %821, %823
  br i1 %824, label %829, label %825

825:                                              ; preds = %819
  %826 = add nsw i64 %820, 1
  %827 = trunc i64 %826 to i32
  %828 = icmp eq i32 %812, %827
  br i1 %828, label %857, label %819

829:                                              ; preds = %819
  %830 = load i8**, i8*** %12, align 8
  %831 = getelementptr inbounds i8*, i8** %830, i64 %820
  %832 = load i8*, i8** %831, align 8
  %833 = getelementptr inbounds i8, i8* %832, i64 %821
  %834 = load i8, i8* %833, align 1
  %835 = zext i8 %834 to i32
  %836 = load %"struct.glslang::TSourceLoc"*, %"struct.glslang::TSourceLoc"** %13, align 8
  %837 = getelementptr inbounds %"struct.glslang::TSourceLoc", %"struct.glslang::TSourceLoc"* %836, i64 %818, i32 3
  %838 = load i32, i32* %837, align 8
  %839 = add nsw i32 %838, 1
  store i32 %839, i32* %837, align 8
  %840 = load i32, i32* %14, align 8
  %841 = add nsw i32 %840, 1
  store i32 %841, i32* %14, align 8
  %842 = icmp eq i8 %834, 10
  br i1 %842, label %843, label %856

843:                                              ; preds = %829
  %844 = load %"struct.glslang::TSourceLoc"*, %"struct.glslang::TSourceLoc"** %13, align 8
  %845 = load i32, i32* %7, align 8
  %846 = sext i32 %845 to i64
  %847 = getelementptr inbounds %"struct.glslang::TSourceLoc", %"struct.glslang::TSourceLoc"* %844, i64 %846, i32 2
  %848 = load i32, i32* %847, align 4
  %849 = add nsw i32 %848, 1
  store i32 %849, i32* %847, align 4
  %850 = load i32, i32* %15, align 4
  %851 = add nsw i32 %850, 1
  store i32 %851, i32* %15, align 4
  store i32 0, i32* %14, align 8
  %852 = load %"struct.glslang::TSourceLoc"*, %"struct.glslang::TSourceLoc"** %13, align 8
  %853 = load i32, i32* %7, align 8
  %854 = sext i32 %853 to i64
  %855 = getelementptr inbounds %"struct.glslang::TSourceLoc", %"struct.glslang::TSourceLoc"* %852, i64 %854, i32 3
  store i32 0, i32* %855, align 8
  br label %856

856:                                              ; preds = %843, %829
  tail call void @_ZN7glslang13TInputScanner7advanceEv(%"class.glslang::TInputScanner"* %0) #12
  br label %857

857:                                              ; preds = %825, %814, %856
  %858 = phi i32 [ %835, %856 ], [ -1, %814 ], [ -1, %825 ]
  %859 = add nuw nsw i64 %806, 1
  %860 = icmp eq i64 %859, 13
  br i1 %860, label %861, label %805

861:                                              ; preds = %857
  switch i32 %858, label %862 [
    i32 -1, label %873
    i32 32, label %873
    i32 13, label %873
    i32 10, label %873
    i32 9, label %873
  ]

862:                                              ; preds = %861
  call void @llvm.lifetime.end.p0i8(i64 13, i8* nonnull %16) #12
  br label %588

863:                                              ; preds = %805, %805, %805, %805, %805
  %864 = trunc i64 %806 to i32
  switch i32 %864, label %877 [
    i32 2, label %865
    i32 4, label %869
    i32 13, label %873
  ]

865:                                              ; preds = %863
  %866 = call i32 @bcmp(i8* nonnull %16, i8* getelementptr inbounds ([3 x i8], [3 x i8]* @.str, i64 0, i64 0), i64 2)
  %867 = icmp eq i32 %866, 0
  br i1 %867, label %868, label %877

868:                                              ; preds = %865
  store i32 8, i32* %2, align 4
  br label %877

869:                                              ; preds = %863
  %870 = call i32 @bcmp(i8* nonnull %16, i8* getelementptr inbounds ([5 x i8], [5 x i8]* @.str.1, i64 0, i64 0), i64 4)
  %871 = icmp eq i32 %870, 0
  br i1 %871, label %872, label %877

872:                                              ; preds = %869
  store i32 2, i32* %2, align 4
  br label %877

873:                                              ; preds = %861, %861, %861, %861, %861, %863
  %874 = call i32 @bcmp(i8* nonnull %16, i8* getelementptr inbounds ([14 x i8], [14 x i8]* @.str.2, i64 0, i64 0), i64 13)
  %875 = icmp eq i32 %874, 0
  br i1 %875, label %876, label %877

876:                                              ; preds = %873
  store i32 4, i32* %2, align 4
  br label %877

877:                                              ; preds = %868, %873, %876, %872, %863, %865, %869
  %878 = or i8 %251, %18
  %879 = icmp ne i8 %878, 0
  call void @llvm.lifetime.end.p0i8(i64 13, i8* nonnull %16) #12
  br label %880

880:                                              ; preds = %213, %205, %877
  %881 = phi i1 [ %879, %877 ], [ true, %205 ], [ true, %213 ]
  call void @llvm.lifetime.end.p0i8(i64 1, i8* nonnull %5) #12
  ret i1 %881
}

; Function Attrs: nounwind ssp uwtable
define hidden i32 @_Z5yylexP7YYSTYPERN7glslang13TParseContextE(%union.YYSTYPE*, %"class.glslang::TParseContext"* nocapture readonly dereferenceable(23584)) local_unnamed_addr #0 {
  %3 = alloca %"class.glslang::TParserToken", align 8
  %4 = bitcast %"class.glslang::TParserToken"* %3 to i8*
  call void @llvm.lifetime.start.p0i8(i64 8, i8* nonnull %4) #12
  %5 = getelementptr inbounds %"class.glslang::TParserToken", %"class.glslang::TParserToken"* %3, i64 0, i32 0
  store %union.YYSTYPE* %0, %union.YYSTYPE** %5, align 8
  %6 = getelementptr inbounds %"class.glslang::TParseContext", %"class.glslang::TParseContext"* %1, i64 0, i32 0, i32 18
  %7 = load %"class.glslang::TScanContext"*, %"class.glslang::TScanContext"** %6, align 8
  %8 = getelementptr inbounds %"class.glslang::TParseContext", %"class.glslang::TParseContext"* %1, i64 0, i32 0, i32 19
  %9 = load %"class.glslang::TPpContext"*, %"class.glslang::TPpContext"** %8, align 8
  %10 = call i32 @_ZN7glslang12TScanContext8tokenizeEPNS_10TPpContextERNS_12TParserTokenE(%"class.glslang::TScanContext"* %7, %"class.glslang::TPpContext"* %9, %"class.glslang::TParserToken"* nonnull dereferenceable(8) %3)
  call void @llvm.lifetime.end.p0i8(i64 8, i8* nonnull %4) #12
  ret i32 %10
}

; Function Attrs: nounwind ssp uwtable
define hidden i32 @_ZN7glslang12TScanContext8tokenizeEPNS_10TPpContextERNS_12TParserTokenE(%"class.glslang::TScanContext"*, %"class.glslang::TPpContext"*, %"class.glslang::TParserToken"* dereferenceable(8)) local_unnamed_addr #0 align 2 {
  %4 = alloca %"class.glslang::TPpToken", align 8
  %5 = alloca [2 x i8], align 1
  %6 = getelementptr inbounds %"class.glslang::TScanContext", %"class.glslang::TScanContext"* %0, i64 0, i32 8
  store %"class.glslang::TParserToken"* %2, %"class.glslang::TParserToken"** %6, align 8
  %7 = bitcast %"class.glslang::TPpToken"* %4 to i8*
  call void @llvm.lifetime.start.p0i8(i64 1072, i8* nonnull %7) #12
  call void @llvm.memcpy.p0i8.p0i8.i64(i8* nonnull align 8 %7, i8* align 8 bitcast (<{ { %"class.std::__1::basic_string"*, i32, i32, i32, [4 x i8] }, i8, [7 x i8], %union.anon.249, [1025 x i8], [7 x i8] }>* @__const._ZN7glslang12TScanContext8tokenizeEPNS_10TPpContextERNS_12TParserTokenE.ppToken to i8*), i64 1072, i1 false)
  %8 = getelementptr inbounds %"class.glslang::TPpToken", %"class.glslang::TPpToken"* %4, i64 0, i32 1
  store i8 0, i8* %8, align 8
  %9 = getelementptr inbounds %"class.glslang::TPpToken", %"class.glslang::TPpToken"* %4, i64 0, i32 3
  %10 = bitcast %union.anon.249* %9 to i64*
  store i64 0, i64* %10, align 8
  call void @llvm.memset.p0i8.i64(i8* nonnull align 8 %7, i8 0, i64 20, i1 false) #12
  %11 = getelementptr inbounds %"class.glslang::TPpToken", %"class.glslang::TPpToken"* %4, i64 0, i32 4, i64 0
  store i8 0, i8* %11, align 8
  %12 = call i32 @_ZN7glslang10TPpContext8tokenizeERNS_8TPpTokenE(%"class.glslang::TPpContext"* %1, %"class.glslang::TPpToken"* nonnull dereferenceable(1072) %4) #12
  %13 = icmp eq i32 %12, -1
  br i1 %13, label %209, label %14

14:                                               ; preds = %3
  %15 = getelementptr inbounds %"class.glslang::TScanContext", %"class.glslang::TScanContext"* %0, i64 0, i32 10
  %16 = getelementptr inbounds %"class.glslang::TScanContext", %"class.glslang::TScanContext"* %0, i64 0, i32 7
  %17 = bitcast %"struct.glslang::TSourceLoc"* %16 to i8*
  %18 = bitcast %"class.glslang::TParserToken"** %6 to i8***
  %19 = getelementptr inbounds %"class.glslang::TScanContext", %"class.glslang::TScanContext"* %0, i64 0, i32 1
  %20 = getelementptr inbounds [2 x i8], [2 x i8]* %5, i64 0, i64 0
  %21 = getelementptr inbounds [2 x i8], [2 x i8]* %5, i64 0, i64 1
  br label %22

22:                                               ; preds = %14, %206
  %23 = phi i32 [ %12, %14 ], [ %207, %206 ]
  store i8* %11, i8** %15, align 8
  call void @llvm.memcpy.p0i8.p0i8.i64(i8* align 8 %17, i8* nonnull align 8 %7, i64 24, i1 false)
  %24 = load i8**, i8*** %18, align 8
  %25 = load i8*, i8** %24, align 8
  call void @llvm.memcpy.p0i8.p0i8.i64(i8* align 8 %25, i8* align 8 %17, i64 24, i1 false)
  switch i32 %23, label %199 [
    i32 59, label %26
    i32 44, label %29
    i32 58, label %209
    i32 61, label %31
    i32 40, label %33
    i32 41, label %35
    i32 46, label %37
    i32 33, label %211
    i32 45, label %212
    i32 126, label %213
    i32 43, label %214
    i32 42, label %215
    i32 47, label %39
    i32 37, label %40
    i32 60, label %41
    i32 62, label %42
    i32 124, label %43
    i32 94, label %44
    i32 38, label %45
    i32 63, label %46
    i32 91, label %47
    i32 93, label %48
    i32 123, label %49
    i32 125, label %52
    i32 92, label %53
    i32 129, label %59
    i32 130, label %60
    i32 131, label %61
    i32 132, label %62
    i32 133, label %63
    i32 134, label %64
    i32 135, label %65
    i32 136, label %66
    i32 137, label %67
    i32 138, label %68
    i32 139, label %69
    i32 140, label %70
    i32 141, label %71
    i32 142, label %72
    i32 143, label %73
    i32 144, label %74
    i32 146, label %75
    i32 145, label %76
    i32 147, label %77
    i32 148, label %78
    i32 149, label %79
    i32 150, label %80
    i32 161, label %86
    i32 152, label %123
    i32 153, label %131
    i32 158, label %139
    i32 156, label %148
    i32 157, label %156
    i32 154, label %164
    i32 155, label %171
    i32 159, label %178
    i32 160, label %187
    i32 162, label %196
  ]

26:                                               ; preds = %22
  %27 = getelementptr inbounds %"class.glslang::TScanContext", %"class.glslang::TScanContext"* %0, i64 0, i32 2
  store i8 0, i8* %27, align 8
  %28 = getelementptr inbounds %"class.glslang::TScanContext", %"class.glslang::TScanContext"* %0, i64 0, i32 5
  store i8 0, i8* %28, align 1
  br label %215

29:                                               ; preds = %22
  %30 = getelementptr inbounds %"class.glslang::TScanContext", %"class.glslang::TScanContext"* %0, i64 0, i32 2
  store i8 0, i8* %30, align 8
  br label %215

31:                                               ; preds = %22
  %32 = getelementptr inbounds %"class.glslang::TScanContext", %"class.glslang::TScanContext"* %0, i64 0, i32 2
  store i8 0, i8* %32, align 8
  br label %215

33:                                               ; preds = %22
  %34 = getelementptr inbounds %"class.glslang::TScanContext", %"class.glslang::TScanContext"* %0, i64 0, i32 2
  store i8 0, i8* %34, align 8
  br label %215

35:                                               ; preds = %22
  %36 = getelementptr inbounds %"class.glslang::TScanContext", %"class.glslang::TScanContext"* %0, i64 0, i32 2
  store i8 0, i8* %36, align 8
  br label %215

37:                                               ; preds = %22
  %38 = getelementptr inbounds %"class.glslang::TScanContext", %"class.glslang::TScanContext"* %0, i64 0, i32 4
  store i8 1, i8* %38, align 2
  br label %215

39:                                               ; preds = %22
  br label %215

40:                                               ; preds = %22
  br label %215

41:                                               ; preds = %22
  br label %215

42:                                               ; preds = %22
  br label %215

43:                                               ; preds = %22
  br label %215

44:                                               ; preds = %22
  br label %215

45:                                               ; preds = %22
  br label %215

46:                                               ; preds = %22
  br label %215

47:                                               ; preds = %22
  br label %215

48:                                               ; preds = %22
  br label %215

49:                                               ; preds = %22
  %50 = getelementptr inbounds %"class.glslang::TScanContext", %"class.glslang::TScanContext"* %0, i64 0, i32 3
  store i8 0, i8* %50, align 1
  %51 = getelementptr inbounds %"class.glslang::TScanContext", %"class.glslang::TScanContext"* %0, i64 0, i32 5
  store i8 0, i8* %51, align 1
  br label %215

52:                                               ; preds = %22
  br label %215

53:                                               ; preds = %22
  %54 = load %"class.glslang::TParseContextBase"*, %"class.glslang::TParseContextBase"** %19, align 8
  %55 = bitcast %"class.glslang::TParseContextBase"* %54 to void (%"class.glslang::TParseContextBase"*, %"struct.glslang::TSourceLoc"*, i8*, i8*, i8*, ...)***
  %56 = load void (%"class.glslang::TParseContextBase"*, %"struct.glslang::TSourceLoc"*, i8*, i8*, i8*, ...)**, void (%"class.glslang::TParseContextBase"*, %"struct.glslang::TSourceLoc"*, i8*, i8*, i8*, ...)*** %55, align 8
  %57 = getelementptr inbounds void (%"class.glslang::TParseContextBase"*, %"struct.glslang::TSourceLoc"*, i8*, i8*, i8*, ...)*, void (%"class.glslang::TParseContextBase"*, %"struct.glslang::TSourceLoc"*, i8*, i8*, i8*, ...)** %56, i64 42
  %58 = load void (%"class.glslang::TParseContextBase"*, %"struct.glslang::TSourceLoc"*, i8*, i8*, i8*, ...)*, void (%"class.glslang::TParseContextBase"*, %"struct.glslang::TSourceLoc"*, i8*, i8*, i8*, ...)** %57, align 8
  call void (%"class.glslang::TParseContextBase"*, %"struct.glslang::TSourceLoc"*, i8*, i8*, i8*, ...) %58(%"class.glslang::TParseContextBase"* %54, %"struct.glslang::TSourceLoc"* dereferenceable(24) %16, i8* getelementptr inbounds ([32 x i8], [32 x i8]* @.str.424, i64 0, i64 0), i8* getelementptr inbounds ([2 x i8], [2 x i8]* @.str.425, i64 0, i64 0), i8* getelementptr inbounds ([1 x i8], [1 x i8]* @.str.426, i64 0, i64 0)) #12
  br label %206

59:                                               ; preds = %22
  br label %215

60:                                               ; preds = %22
  br label %215

61:                                               ; preds = %22
  br label %215

62:                                               ; preds = %22
  br label %215

63:                                               ; preds = %22
  br label %215

64:                                               ; preds = %22
  br label %215

65:                                               ; preds = %22
  br label %215

66:                                               ; preds = %22
  br label %215

67:                                               ; preds = %22
  br label %215

68:                                               ; preds = %22
  br label %215

69:                                               ; preds = %22
  br label %215

70:                                               ; preds = %22
  br label %215

71:                                               ; preds = %22
  br label %215

72:                                               ; preds = %22
  br label %215

73:                                               ; preds = %22
  br label %215

74:                                               ; preds = %22
  br label %215

75:                                               ; preds = %22
  br label %215

76:                                               ; preds = %22
  br label %215

77:                                               ; preds = %22
  br label %215

78:                                               ; preds = %22
  br label %215

79:                                               ; preds = %22
  br label %215

80:                                               ; preds = %22
  %81 = load %"class.glslang::TParseContextBase"*, %"class.glslang::TParseContextBase"** %19, align 8
  %82 = bitcast %"class.glslang::TParseContextBase"* %81 to void (%"class.glslang::TParseContextBase"*, %"struct.glslang::TSourceLoc"*, i8*, i8*, i8*, ...)***
  %83 = load void (%"class.glslang::TParseContextBase"*, %"struct.glslang::TSourceLoc"*, i8*, i8*, i8*, ...)**, void (%"class.glslang::TParseContextBase"*, %"struct.glslang::TSourceLoc"*, i8*, i8*, i8*, ...)*** %82, align 8
  %84 = getelementptr inbounds void (%"class.glslang::TParseContextBase"*, %"struct.glslang::TSourceLoc"*, i8*, i8*, i8*, ...)*, void (%"class.glslang::TParseContextBase"*, %"struct.glslang::TSourceLoc"*, i8*, i8*, i8*, ...)** %83, i64 42
  %85 = load void (%"class.glslang::TParseContextBase"*, %"struct.glslang::TSourceLoc"*, i8*, i8*, i8*, ...)*, void (%"class.glslang::TParseContextBase"*, %"struct.glslang::TSourceLoc"*, i8*, i8*, i8*, ...)** %84, align 8
  call void (%"class.glslang::TParseContextBase"*, %"struct.glslang::TSourceLoc"*, i8*, i8*, i8*, ...) %85(%"class.glslang::TParseContextBase"* %81, %"struct.glslang::TSourceLoc"* dereferenceable(24) %16, i8* getelementptr inbounds ([14 x i8], [14 x i8]* @.str.427, i64 0, i64 0), i8* getelementptr inbounds ([3 x i8], [3 x i8]* @.str.428, i64 0, i64 0), i8* getelementptr inbounds ([1 x i8], [1 x i8]* @.str.426, i64 0, i64 0)) #12
  br label %206

86:                                               ; preds = %22
  %87 = load i8*, i8** %15, align 8
  %88 = call dereferenceable(96) %"class.glslang::TPoolAllocator"* @_ZN7glslang22GetThreadPoolAllocatorEv() #12
  %89 = call i8* @_ZN7glslang14TPoolAllocator8allocateEm(%"class.glslang::TPoolAllocator"* %88, i64 32) #12
  %90 = getelementptr inbounds i8, i8* %89, i64 24
  %91 = bitcast i8* %90 to %"class.glslang::TPoolAllocator"**
  %92 = call dereferenceable(96) %"class.glslang::TPoolAllocator"* @_ZN7glslang22GetThreadPoolAllocatorEv() #12
  store %"class.glslang::TPoolAllocator"* %92, %"class.glslang::TPoolAllocator"** %91, align 8
  %93 = call i64 @strlen(i8* %87) #12
  %94 = icmp ugt i64 %93, -17
  br i1 %94, label %95, label %97

95:                                               ; preds = %86
  %96 = bitcast i8* %89 to %"class.std::__1::__basic_string_common"*
  call void @_ZNKSt3__121__basic_string_commonILb1EE20__throw_length_errorEv(%"class.std::__1::__basic_string_common"* %96) #13
  unreachable

97:                                               ; preds = %86
  %98 = icmp ult i64 %93, 23
  br i1 %98, label %109, label %99

99:                                               ; preds = %97
  %100 = add nuw i64 %93, 16
  %101 = and i64 %100, -16
  %102 = call i8* @_ZN7glslang14TPoolAllocator8allocateEm(%"class.glslang::TPoolAllocator"* %92, i64 %101) #12
  %103 = bitcast i8* %89 to i8**
  store i8* %102, i8** %103, align 8
  %104 = or i64 %101, -9223372036854775808
  %105 = getelementptr inbounds i8, i8* %89, i64 16
  %106 = bitcast i8* %105 to i64*
  store i64 %104, i64* %106, align 8
  %107 = getelementptr inbounds i8, i8* %89, i64 8
  %108 = bitcast i8* %107 to i64*
  store i64 %93, i64* %108, align 8
  br label %113

109:                                              ; preds = %97
  %110 = trunc i64 %93 to i8
  %111 = getelementptr inbounds i8, i8* %89, i64 23
  store i8 %110, i8* %111, align 1
  %112 = icmp eq i64 %93, 0
  br i1 %112, label %115, label %113

113:                                              ; preds = %109, %99
  %114 = phi i8* [ %102, %99 ], [ %89, %109 ]
  call void @llvm.memcpy.p0i8.p0i8.i64(i8* align 1 %114, i8* align 1 %87, i64 %93, i1 false) #12
  br label %115

115:                                              ; preds = %109, %113
  %116 = phi i8* [ %89, %109 ], [ %114, %113 ]
  %117 = getelementptr inbounds i8, i8* %116, i64 %93
  store i8 0, i8* %117, align 1
  %118 = bitcast %"class.glslang::TParserToken"** %6 to %struct.anon.4***
  %119 = load %struct.anon.4**, %struct.anon.4*** %118, align 8
  %120 = load %struct.anon.4*, %struct.anon.4** %119, align 8
  %121 = getelementptr inbounds %struct.anon.4, %struct.anon.4* %120, i64 0, i32 1, i32 0
  %122 = bitcast %"class.std::__1::basic_string"** %121 to i8**
  store i8* %89, i8** %122, align 8
  br label %215

123:                                              ; preds = %22
  %124 = bitcast %union.anon.249* %9 to i32*
  %125 = load i32, i32* %124, align 8
  %126 = bitcast %"class.glslang::TParserToken"** %6 to %struct.anon.4***
  %127 = load %struct.anon.4**, %struct.anon.4*** %126, align 8
  %128 = load %struct.anon.4*, %struct.anon.4** %127, align 8
  %129 = getelementptr inbounds %struct.anon.4, %struct.anon.4* %128, i64 0, i32 1
  %130 = bitcast %union.anon.5* %129 to i32*
  store i32 %125, i32* %130, align 8
  br label %215

131:                                              ; preds = %22
  %132 = bitcast %union.anon.249* %9 to i32*
  %133 = load i32, i32* %132, align 8
  %134 = bitcast %"class.glslang::TParserToken"** %6 to %struct.anon.4***
  %135 = load %struct.anon.4**, %struct.anon.4*** %134, align 8
  %136 = load %struct.anon.4*, %struct.anon.4** %135, align 8
  %137 = getelementptr inbounds %struct.anon.4, %struct.anon.4* %136, i64 0, i32 1
  %138 = bitcast %union.anon.5* %137 to i32*
  store i32 %133, i32* %138, align 8
  br label %215

139:                                              ; preds = %22
  %140 = getelementptr inbounds %"class.glslang::TPpToken", %"class.glslang::TPpToken"* %4, i64 0, i32 3, i32 0
  %141 = bitcast double* %140 to i64*
  %142 = load i64, i64* %141, align 8
  %143 = bitcast %"class.glslang::TParserToken"** %6 to %struct.anon.4***
  %144 = load %struct.anon.4**, %struct.anon.4*** %143, align 8
  %145 = load %struct.anon.4*, %struct.anon.4** %144, align 8
  %146 = getelementptr inbounds %struct.anon.4, %struct.anon.4* %145, i64 0, i32 1
  %147 = bitcast %union.anon.5* %146 to i64*
  store i64 %142, i64* %147, align 8
  br label %215

148:                                              ; preds = %22
  %149 = bitcast %union.anon.249* %9 to i32*
  %150 = load i32, i32* %149, align 8
  %151 = bitcast %"class.glslang::TParserToken"** %6 to %struct.anon.4***
  %152 = load %struct.anon.4**, %struct.anon.4*** %151, align 8
  %153 = load %struct.anon.4*, %struct.anon.4** %152, align 8
  %154 = getelementptr inbounds %struct.anon.4, %struct.anon.4* %153, i64 0, i32 1
  %155 = bitcast %union.anon.5* %154 to i32*
  store i32 %150, i32* %155, align 8
  br label %215

156:                                              ; preds = %22
  %157 = bitcast %union.anon.249* %9 to i32*
  %158 = load i32, i32* %157, align 8
  %159 = bitcast %"class.glslang::TParserToken"** %6 to %struct.anon.4***
  %160 = load %struct.anon.4**, %struct.anon.4*** %159, align 8
  %161 = load %struct.anon.4*, %struct.anon.4** %160, align 8
  %162 = getelementptr inbounds %struct.anon.4, %struct.anon.4* %161, i64 0, i32 1
  %163 = bitcast %union.anon.5* %162 to i32*
  store i32 %158, i32* %163, align 8
  br label %215

164:                                              ; preds = %22
  %165 = load i64, i64* %10, align 8
  %166 = bitcast %"class.glslang::TParserToken"** %6 to %struct.anon.4***
  %167 = load %struct.anon.4**, %struct.anon.4*** %166, align 8
  %168 = load %struct.anon.4*, %struct.anon.4** %167, align 8
  %169 = getelementptr inbounds %struct.anon.4, %struct.anon.4* %168, i64 0, i32 1
  %170 = bitcast %union.anon.5* %169 to i64*
  store i64 %165, i64* %170, align 8
  br label %215

171:                                              ; preds = %22
  %172 = load i64, i64* %10, align 8
  %173 = bitcast %"class.glslang::TParserToken"** %6 to %struct.anon.4***
  %174 = load %struct.anon.4**, %struct.anon.4*** %173, align 8
  %175 = load %struct.anon.4*, %struct.anon.4** %174, align 8
  %176 = getelementptr inbounds %struct.anon.4, %struct.anon.4* %175, i64 0, i32 1
  %177 = bitcast %union.anon.5* %176 to i64*
  store i64 %172, i64* %177, align 8
  br label %215

178:                                              ; preds = %22
  %179 = getelementptr inbounds %"class.glslang::TPpToken", %"class.glslang::TPpToken"* %4, i64 0, i32 3, i32 0
  %180 = bitcast double* %179 to i64*
  %181 = load i64, i64* %180, align 8
  %182 = bitcast %"class.glslang::TParserToken"** %6 to %struct.anon.4***
  %183 = load %struct.anon.4**, %struct.anon.4*** %182, align 8
  %184 = load %struct.anon.4*, %struct.anon.4** %183, align 8
  %185 = getelementptr inbounds %struct.anon.4, %struct.anon.4* %184, i64 0, i32 1
  %186 = bitcast %union.anon.5* %185 to i64*
  store i64 %181, i64* %186, align 8
  br label %215

187:                                              ; preds = %22
  %188 = getelementptr inbounds %"class.glslang::TPpToken", %"class.glslang::TPpToken"* %4, i64 0, i32 3, i32 0
  %189 = bitcast double* %188 to i64*
  %190 = load i64, i64* %189, align 8
  %191 = bitcast %"class.glslang::TParserToken"** %6 to %struct.anon.4***
  %192 = load %struct.anon.4**, %struct.anon.4*** %191, align 8
  %193 = load %struct.anon.4*, %struct.anon.4** %192, align 8
  %194 = getelementptr inbounds %struct.anon.4, %struct.anon.4* %193, i64 0, i32 1
  %195 = bitcast %union.anon.5* %194 to i64*
  store i64 %190, i64* %195, align 8
  br label %215

196:                                              ; preds = %22
  %197 = call i32 @_ZN7glslang12TScanContext18tokenizeIdentifierEv(%"class.glslang::TScanContext"* %0)
  %198 = getelementptr inbounds %"class.glslang::TScanContext", %"class.glslang::TScanContext"* %0, i64 0, i32 4
  store i8 0, i8* %198, align 2
  br label %215

199:                                              ; preds = %22
  call void @llvm.lifetime.start.p0i8(i64 2, i8* nonnull %20) #12
  %200 = trunc i32 %23 to i8
  store i8 %200, i8* %20, align 1
  store i8 0, i8* %21, align 1
  %201 = load %"class.glslang::TParseContextBase"*, %"class.glslang::TParseContextBase"** %19, align 8
  %202 = bitcast %"class.glslang::TParseContextBase"* %201 to void (%"class.glslang::TParseContextBase"*, %"struct.glslang::TSourceLoc"*, i8*, i8*, i8*, ...)***
  %203 = load void (%"class.glslang::TParseContextBase"*, %"struct.glslang::TSourceLoc"*, i8*, i8*, i8*, ...)**, void (%"class.glslang::TParseContextBase"*, %"struct.glslang::TSourceLoc"*, i8*, i8*, i8*, ...)*** %202, align 8
  %204 = getelementptr inbounds void (%"class.glslang::TParseContextBase"*, %"struct.glslang::TSourceLoc"*, i8*, i8*, i8*, ...)*, void (%"class.glslang::TParseContextBase"*, %"struct.glslang::TSourceLoc"*, i8*, i8*, i8*, ...)** %203, i64 42
  %205 = load void (%"class.glslang::TParseContextBase"*, %"struct.glslang::TSourceLoc"*, i8*, i8*, i8*, ...)*, void (%"class.glslang::TParseContextBase"*, %"struct.glslang::TSourceLoc"*, i8*, i8*, i8*, ...)** %204, align 8
  call void (%"class.glslang::TParseContextBase"*, %"struct.glslang::TSourceLoc"*, i8*, i8*, i8*, ...) %205(%"class.glslang::TParseContextBase"* %201, %"struct.glslang::TSourceLoc"* dereferenceable(24) %16, i8* getelementptr inbounds ([17 x i8], [17 x i8]* @.str.429, i64 0, i64 0), i8* nonnull %20, i8* getelementptr inbounds ([1 x i8], [1 x i8]* @.str.426, i64 0, i64 0)) #12
  call void @llvm.lifetime.end.p0i8(i64 2, i8* nonnull %20) #12
  br label %206

206:                                              ; preds = %53, %80, %199
  call void @llvm.lifetime.end.p0i8(i64 1072, i8* nonnull %7) #12
  store %"class.glslang::TParserToken"* %2, %"class.glslang::TParserToken"** %6, align 8
  call void @llvm.lifetime.start.p0i8(i64 1072, i8* nonnull %7) #12
  call void @llvm.memcpy.p0i8.p0i8.i64(i8* nonnull align 8 %7, i8* align 8 bitcast (<{ { %"class.std::__1::basic_string"*, i32, i32, i32, [4 x i8] }, i8, [7 x i8], %union.anon.249, [1025 x i8], [7 x i8] }>* @__const._ZN7glslang12TScanContext8tokenizeEPNS_10TPpContextERNS_12TParserTokenE.ppToken to i8*), i64 1072, i1 false)
  store i8 0, i8* %8, align 8
  store i64 0, i64* %10, align 8
  call void @llvm.memset.p0i8.i64(i8* nonnull align 8 %7, i8 0, i64 20, i1 false) #12
  store i8 0, i8* %11, align 8
  %207 = call i32 @_ZN7glslang10TPpContext8tokenizeERNS_8TPpTokenE(%"class.glslang::TPpContext"* %1, %"class.glslang::TPpToken"* nonnull dereferenceable(1072) %4) #12
  %208 = icmp eq i32 %207, -1
  br i1 %208, label %209, label %22

209:                                              ; preds = %206, %22, %3
  %210 = phi i32 [ 0, %3 ], [ 602, %22 ], [ 0, %206 ]
  br label %215

211:                                              ; preds = %22
  br label %215

212:                                              ; preds = %22
  br label %215

213:                                              ; preds = %22
  br label %215

214:                                              ; preds = %22
  br label %215

215:                                              ; preds = %22, %214, %213, %212, %211, %209, %196, %187, %178, %171, %164, %156, %148, %139, %131, %123, %115, %79, %78, %77, %76, %75, %74, %73, %72, %71, %70, %69, %68, %67, %66, %65, %64, %63, %62, %61, %60, %59, %52, %49, %48, %47, %46, %45, %44, %43, %42, %41, %40, %39, %37, %35, %33, %31, %29, %26
  %216 = phi i32 [ 604, %26 ], [ 601, %29 ], [ 603, %31 ], [ 594, %33 ], [ 595, %35 ], [ 600, %37 ], [ 610, %39 ], [ 611, %40 ], [ 612, %41 ], [ 613, %42 ], [ 614, %43 ], [ 615, %44 ], [ 616, %45 ], [ 617, %46 ], [ 596, %47 ], [ 597, %48 ], [ 598, %49 ], [ 599, %52 ], [ 585, %59 ], [ 592, %60 ], [ 583, %61 ], [ 584, %62 ], [ 586, %63 ], [ 573, %64 ], [ 572, %65 ], [ 588, %66 ], [ 587, %67 ], [ 589, %68 ], [ 591, %69 ], [ 590, %70 ], [ 580, %71 ], [ 581, %72 ], [ 582, %73 ], [ 578, %74 ], [ 577, %75 ], [ 579, %76 ], [ 576, %77 ], [ 575, %78 ], [ 574, %79 ], [ 593, %115 ], [ 627, %123 ], [ 628, %131 ], [ 626, %139 ], [ 660, %148 ], [ 661, %156 ], [ 665, %164 ], [ 666, %171 ], [ 659, %178 ], [ 662, %187 ], [ %197, %196 ], [ %210, %209 ], [ 605, %211 ], [ 606, %212 ], [ 607, %213 ], [ 608, %214 ], [ 609, %22 ]
  call void @llvm.lifetime.end.p0i8(i64 1072, i8* nonnull %7) #12
  ret i32 %216
}

; Function Attrs: nounwind ssp uwtable
define hidden void @_ZN7glslang12TScanContext16fillInKeywordMapEv() local_unnamed_addr #0 align 2 {
  %1 = alloca i8*, align 8
  %2 = alloca i8*, align 8
  %3 = alloca i8*, align 8
  %4 = alloca i8*, align 8
  %5 = alloca i8*, align 8
  %6 = alloca i8*, align 8
  %7 = alloca i8*, align 8
  %8 = alloca i8*, align 8
  %9 = alloca i8*, align 8
  %10 = alloca i8*, align 8
  %11 = alloca i8*, align 8
  %12 = alloca i8*, align 8
  %13 = alloca i8*, align 8
  %14 = alloca i8*, align 8
  %15 = alloca i8*, align 8
  %16 = alloca i8*, align 8
  %17 = alloca i8*, align 8
  %18 = alloca i8*, align 8
  %19 = alloca i8*, align 8
  %20 = alloca i8*, align 8
  %21 = alloca i8*, align 8
  %22 = alloca i8*, align 8
  %23 = alloca i8*, align 8
  %24 = alloca i8*, align 8
  %25 = alloca i8*, align 8
  %26 = alloca i8*, align 8
  %27 = alloca i8*, align 8
  %28 = alloca i8*, align 8
  %29 = alloca i8*, align 8
  %30 = alloca i8*, align 8
  %31 = alloca i8*, align 8
  %32 = alloca i8*, align 8
  %33 = alloca i8*, align 8
  %34 = alloca i8*, align 8
  %35 = alloca i8*, align 8
  %36 = alloca i8*, align 8
  %37 = alloca i8*, align 8
  %38 = alloca i8*, align 8
  %39 = alloca i8*, align 8
  %40 = alloca i8*, align 8
  %41 = alloca i8*, align 8
  %42 = alloca i8*, align 8
  %43 = alloca i8*, align 8
  %44 = alloca i8*, align 8
  %45 = alloca i8*, align 8
  %46 = alloca i8*, align 8
  %47 = alloca i8*, align 8
  %48 = alloca i8*, align 8
  %49 = alloca i8*, align 8
  %50 = alloca i8*, align 8
  %51 = alloca i8*, align 8
  %52 = alloca i8*, align 8
  %53 = alloca i8*, align 8
  %54 = alloca i8*, align 8
  %55 = alloca i8*, align 8
  %56 = alloca i8*, align 8
  %57 = alloca i8*, align 8
  %58 = alloca i8*, align 8
  %59 = alloca i8*, align 8
  %60 = alloca i8*, align 8
  %61 = alloca i8*, align 8
  %62 = alloca i8*, align 8
  %63 = alloca i8*, align 8
  %64 = alloca i8*, align 8
  %65 = alloca i8*, align 8
  %66 = alloca i8*, align 8
  %67 = alloca i8*, align 8
  %68 = alloca i8*, align 8
  %69 = alloca i8*, align 8
  %70 = alloca i8*, align 8
  %71 = alloca i8*, align 8
  %72 = alloca i8*, align 8
  %73 = alloca i8*, align 8
  %74 = alloca i8*, align 8
  %75 = alloca i8*, align 8
  %76 = alloca i8*, align 8
  %77 = alloca i8*, align 8
  %78 = alloca i8*, align 8
  %79 = alloca i8*, align 8
  %80 = alloca i8*, align 8
  %81 = alloca i8*, align 8
  %82 = alloca i8*, align 8
  %83 = alloca i8*, align 8
  %84 = alloca i8*, align 8
  %85 = alloca i8*, align 8
  %86 = alloca i8*, align 8
  %87 = alloca i8*, align 8
  %88 = alloca i8*, align 8
  %89 = alloca i8*, align 8
  %90 = alloca i8*, align 8
  %91 = alloca i8*, align 8
  %92 = alloca i8*, align 8
  %93 = alloca i8*, align 8
  %94 = alloca i8*, align 8
  %95 = alloca i8*, align 8
  %96 = alloca i8*, align 8
  %97 = alloca i8*, align 8
  %98 = alloca i8*, align 8
  %99 = alloca i8*, align 8
  %100 = alloca i8*, align 8
  %101 = alloca i8*, align 8
  %102 = alloca i8*, align 8
  %103 = alloca i8*, align 8
  %104 = alloca i8*, align 8
  %105 = alloca i8*, align 8
  %106 = alloca i8*, align 8
  %107 = alloca i8*, align 8
  %108 = alloca i8*, align 8
  %109 = alloca i8*, align 8
  %110 = alloca i8*, align 8
  %111 = alloca i8*, align 8
  %112 = alloca i8*, align 8
  %113 = alloca i8*, align 8
  %114 = alloca i8*, align 8
  %115 = alloca i8*, align 8
  %116 = alloca i8*, align 8
  %117 = alloca i8*, align 8
  %118 = alloca i8*, align 8
  %119 = alloca i8*, align 8
  %120 = alloca i8*, align 8
  %121 = alloca i8*, align 8
  %122 = alloca i8*, align 8
  %123 = alloca i8*, align 8
  %124 = alloca i8*, align 8
  %125 = alloca i8*, align 8
  %126 = alloca i8*, align 8
  %127 = alloca i8*, align 8
  %128 = alloca i8*, align 8
  %129 = alloca i8*, align 8
  %130 = alloca i8*, align 8
  %131 = alloca i8*, align 8
  %132 = alloca i8*, align 8
  %133 = alloca i8*, align 8
  %134 = alloca i8*, align 8
  %135 = alloca i8*, align 8
  %136 = alloca i8*, align 8
  %137 = alloca i8*, align 8
  %138 = alloca i8*, align 8
  %139 = alloca i8*, align 8
  %140 = alloca i8*, align 8
  %141 = alloca i8*, align 8
  %142 = alloca i8*, align 8
  %143 = alloca i8*, align 8
  %144 = alloca i8*, align 8
  %145 = alloca i8*, align 8
  %146 = alloca i8*, align 8
  %147 = alloca i8*, align 8
  %148 = alloca i8*, align 8
  %149 = alloca i8*, align 8
  %150 = alloca i8*, align 8
  %151 = alloca i8*, align 8
  %152 = alloca i8*, align 8
  %153 = alloca i8*, align 8
  %154 = alloca i8*, align 8
  %155 = alloca i8*, align 8
  %156 = alloca i8*, align 8
  %157 = alloca i8*, align 8
  %158 = alloca i8*, align 8
  %159 = alloca i8*, align 8
  %160 = alloca i8*, align 8
  %161 = alloca i8*, align 8
  %162 = alloca i8*, align 8
  %163 = alloca i8*, align 8
  %164 = alloca i8*, align 8
  %165 = alloca i8*, align 8
  %166 = alloca i8*, align 8
  %167 = alloca i8*, align 8
  %168 = alloca i8*, align 8
  %169 = alloca i8*, align 8
  %170 = alloca i8*, align 8
  %171 = alloca i8*, align 8
  %172 = alloca i8*, align 8
  %173 = alloca i8*, align 8
  %174 = alloca i8*, align 8
  %175 = alloca i8*, align 8
  %176 = alloca i8*, align 8
  %177 = alloca i8*, align 8
  %178 = alloca i8*, align 8
  %179 = alloca i8*, align 8
  %180 = alloca i8*, align 8
  %181 = alloca i8*, align 8
  %182 = alloca i8*, align 8
  %183 = alloca i8*, align 8
  %184 = alloca i8*, align 8
  %185 = alloca i8*, align 8
  %186 = alloca i8*, align 8
  %187 = alloca i8*, align 8
  %188 = alloca i8*, align 8
  %189 = alloca i8*, align 8
  %190 = alloca i8*, align 8
  %191 = alloca i8*, align 8
  %192 = alloca i8*, align 8
  %193 = alloca i8*, align 8
  %194 = alloca i8*, align 8
  %195 = alloca i8*, align 8
  %196 = alloca i8*, align 8
  %197 = alloca i8*, align 8
  %198 = alloca i8*, align 8
  %199 = alloca i8*, align 8
  %200 = alloca i8*, align 8
  %201 = alloca i8*, align 8
  %202 = alloca i8*, align 8
  %203 = alloca i8*, align 8
  %204 = alloca i8*, align 8
  %205 = alloca i8*, align 8
  %206 = alloca i8*, align 8
  %207 = alloca i8*, align 8
  %208 = alloca i8*, align 8
  %209 = alloca i8*, align 8
  %210 = alloca i8*, align 8
  %211 = alloca i8*, align 8
  %212 = alloca i8*, align 8
  %213 = alloca i8*, align 8
  %214 = alloca i8*, align 8
  %215 = alloca i8*, align 8
  %216 = alloca i8*, align 8
  %217 = alloca i8*, align 8
  %218 = alloca i8*, align 8
  %219 = alloca i8*, align 8
  %220 = alloca i8*, align 8
  %221 = alloca i8*, align 8
  %222 = alloca i8*, align 8
  %223 = alloca i8*, align 8
  %224 = alloca i8*, align 8
  %225 = alloca i8*, align 8
  %226 = alloca i8*, align 8
  %227 = alloca i8*, align 8
  %228 = alloca i8*, align 8
  %229 = alloca i8*, align 8
  %230 = alloca i8*, align 8
  %231 = alloca i8*, align 8
  %232 = alloca i8*, align 8
  %233 = alloca i8*, align 8
  %234 = alloca i8*, align 8
  %235 = alloca i8*, align 8
  %236 = alloca i8*, align 8
  %237 = alloca i8*, align 8
  %238 = alloca i8*, align 8
  %239 = alloca i8*, align 8
  %240 = alloca i8*, align 8
  %241 = alloca i8*, align 8
  %242 = alloca i8*, align 8
  %243 = alloca i8*, align 8
  %244 = alloca i8*, align 8
  %245 = alloca i8*, align 8
  %246 = alloca i8*, align 8
  %247 = alloca i8*, align 8
  %248 = alloca i8*, align 8
  %249 = alloca i8*, align 8
  %250 = alloca i8*, align 8
  %251 = alloca i8*, align 8
  %252 = alloca i8*, align 8
  %253 = alloca i8*, align 8
  %254 = alloca i8*, align 8
  %255 = alloca i8*, align 8
  %256 = alloca i8*, align 8
  %257 = alloca i8*, align 8
  %258 = alloca i8*, align 8
  %259 = alloca i8*, align 8
  %260 = alloca i8*, align 8
  %261 = alloca i8*, align 8
  %262 = alloca i8*, align 8
  %263 = alloca i8*, align 8
  %264 = alloca i8*, align 8
  %265 = alloca i8*, align 8
  %266 = alloca i8*, align 8
  %267 = alloca i8*, align 8
  %268 = alloca i8*, align 8
  %269 = alloca i8*, align 8
  %270 = alloca i8*, align 8
  %271 = alloca i8*, align 8
  %272 = alloca i8*, align 8
  %273 = alloca i8*, align 8
  %274 = alloca i8*, align 8
  %275 = alloca i8*, align 8
  %276 = alloca i8*, align 8
  %277 = alloca i8*, align 8
  %278 = alloca i8*, align 8
  %279 = alloca i8*, align 8
  %280 = alloca i8*, align 8
  %281 = alloca i8*, align 8
  %282 = alloca i8*, align 8
  %283 = alloca i8*, align 8
  %284 = alloca i8*, align 8
  %285 = alloca i8*, align 8
  %286 = alloca i8*, align 8
  %287 = alloca i8*, align 8
  %288 = alloca i8*, align 8
  %289 = alloca i8*, align 8
  %290 = alloca i8*, align 8
  %291 = alloca i8*, align 8
  %292 = alloca i8*, align 8
  %293 = alloca i8*, align 8
  %294 = alloca i8*, align 8
  %295 = alloca i8*, align 8
  %296 = alloca i8*, align 8
  %297 = alloca i8*, align 8
  %298 = alloca i8*, align 8
  %299 = alloca i8*, align 8
  %300 = alloca i8*, align 8
  %301 = alloca i8*, align 8
  %302 = alloca i8*, align 8
  %303 = alloca i8*, align 8
  %304 = alloca i8*, align 8
  %305 = alloca i8*, align 8
  %306 = alloca i8*, align 8
  %307 = alloca i8*, align 8
  %308 = alloca i8*, align 8
  %309 = alloca i8*, align 8
  %310 = alloca i8*, align 8
  %311 = alloca i8*, align 8
  %312 = alloca i8*, align 8
  %313 = alloca i8*, align 8
  %314 = alloca i8*, align 8
  %315 = alloca i8*, align 8
  %316 = alloca i8*, align 8
  %317 = alloca i8*, align 8
  %318 = alloca i8*, align 8
  %319 = alloca i8*, align 8
  %320 = alloca i8*, align 8
  %321 = alloca i8*, align 8
  %322 = alloca i8*, align 8
  %323 = alloca i8*, align 8
  %324 = alloca i8*, align 8
  %325 = alloca i8*, align 8
  %326 = alloca i8*, align 8
  %327 = alloca i8*, align 8
  %328 = alloca i8*, align 8
  %329 = alloca i8*, align 8
  %330 = alloca i8*, align 8
  %331 = alloca i8*, align 8
  %332 = alloca i8*, align 8
  %333 = alloca i8*, align 8
  %334 = alloca i8*, align 8
  %335 = alloca i8*, align 8
  %336 = alloca i8*, align 8
  %337 = alloca i8*, align 8
  %338 = alloca i8*, align 8
  %339 = alloca i8*, align 8
  %340 = alloca i8*, align 8
  %341 = alloca i8*, align 8
  %342 = alloca i8*, align 8
  %343 = alloca i8*, align 8
  %344 = alloca i8*, align 8
  %345 = alloca i8*, align 8
  %346 = alloca i8*, align 8
  %347 = alloca i8*, align 8
  %348 = alloca i8*, align 8
  %349 = alloca i8*, align 8
  %350 = alloca i8*, align 8
  %351 = alloca i8*, align 8
  %352 = alloca i8*, align 8
  %353 = alloca i8*, align 8
  %354 = alloca i8*, align 8
  %355 = alloca i8*, align 8
  %356 = alloca i8*, align 8
  %357 = alloca i8*, align 8
  %358 = alloca i8*, align 8
  %359 = alloca i8*, align 8
  %360 = alloca i8*, align 8
  %361 = alloca i8*, align 8
  %362 = alloca i8*, align 8
  %363 = alloca i8*, align 8
  %364 = alloca i8*, align 8
  %365 = alloca i8*, align 8
  %366 = alloca i8*, align 8
  %367 = alloca i8*, align 8
  %368 = alloca i8*, align 8
  %369 = alloca i8*, align 8
  %370 = alloca i8*, align 8
  %371 = alloca i8*, align 8
  %372 = alloca i8*, align 8
  %373 = alloca i8*, align 8
  %374 = alloca i8*, align 8
  %375 = alloca i8*, align 8
  %376 = alloca i8*, align 8
  %377 = alloca i8*, align 8
  %378 = alloca i8*, align 8
  %379 = alloca i8*, align 8
  %380 = alloca i8*, align 8
  %381 = alloca i8*, align 8
  %382 = alloca i8*, align 8
  %383 = alloca i8*, align 8
  %384 = alloca i8*, align 8
  %385 = alloca i8*, align 8
  %386 = alloca i8*, align 8
  %387 = alloca i8*, align 8
  %388 = alloca i8*, align 8
  %389 = alloca i8*, align 8
  %390 = alloca i8*, align 8
  %391 = alloca i8*, align 8
  %392 = alloca i8*, align 8
  %393 = alloca i8*, align 8
  %394 = alloca i8*, align 8
  %395 = alloca i8*, align 8
  %396 = alloca i8*, align 8
  %397 = alloca i8*, align 8
  %398 = alloca i8*, align 8
  %399 = alloca i8*, align 8
  %400 = alloca i8*, align 8
  %401 = alloca i8*, align 8
  %402 = alloca i8*, align 8
  %403 = alloca i8*, align 8
  %404 = alloca i8*, align 8
  %405 = alloca i8*, align 8
  %406 = alloca i8*, align 8
  %407 = alloca i8*, align 8
  %408 = alloca i8*, align 8
  %409 = alloca i8*, align 8
  %410 = alloca i8*, align 8
  %411 = alloca i8*, align 8
  %412 = alloca i8*, align 8
  %413 = alloca i8*, align 8
  %414 = alloca i8*, align 8
  %415 = alloca i8*, align 8
  %416 = alloca i8*, align 8
  %417 = alloca i8*, align 8
  %418 = alloca i8*, align 8
  %419 = alloca i8*, align 8
  %420 = alloca i8*, align 8
  %421 = alloca i8*, align 8
  %422 = load %"class.std::__1::unordered_map.387"*, %"class.std::__1::unordered_map.387"** @_ZN12_GLOBAL__N_110KeywordMapE, align 8
  %423 = icmp eq %"class.std::__1::unordered_map.387"* %422, null
  br i1 %423, label %424, label %1657

424:                                              ; preds = %0
  %425 = tail call i8* @_Znwm(i64 40) #14
  %426 = bitcast i8* %425 to %"class.std::__1::unordered_map.387"*
  %427 = getelementptr inbounds i8, i8* %425, i64 32
  %428 = bitcast i8* %427 to i32*
  tail call void @llvm.memset.p0i8.i64(i8* nonnull align 8 %425, i8 0, i64 32, i1 false) #12
  store i32 1065353216, i32* %428, align 4
  store i8* %425, i8** bitcast (%"class.std::__1::unordered_map.387"** @_ZN12_GLOBAL__N_110KeywordMapE to i8**), align 8
  %429 = bitcast i8** %1 to i8*
  call void @llvm.lifetime.start.p0i8(i64 8, i8* nonnull %429) #12
  store i8* getelementptr inbounds ([6 x i8], [6 x i8]* @.str.3, i64 0, i64 0), i8** %1, align 8
  %430 = call fastcc dereferenceable(4) i32* @_ZNSt3__113unordered_mapIPKciN12_GLOBAL__N_18str_hashENS3_6str_eqENS_9allocatorINS_4pairIKS2_iEEEEEixEOS2_(%"class.std::__1::unordered_map.387"* nonnull %426, i8** nonnull dereferenceable(8) %1)
  store i32 258, i32* %430, align 4
  call void @llvm.lifetime.end.p0i8(i64 8, i8* nonnull %429) #12
  %431 = load %"class.std::__1::unordered_map.387"*, %"class.std::__1::unordered_map.387"** @_ZN12_GLOBAL__N_110KeywordMapE, align 8
  %432 = bitcast i8** %2 to i8*
  call void @llvm.lifetime.start.p0i8(i64 8, i8* nonnull %432) #12
  store i8* getelementptr inbounds ([8 x i8], [8 x i8]* @.str.4, i64 0, i64 0), i8** %2, align 8
  %433 = call fastcc dereferenceable(4) i32* @_ZNSt3__113unordered_mapIPKciN12_GLOBAL__N_18str_hashENS3_6str_eqENS_9allocatorINS_4pairIKS2_iEEEEEixEOS2_(%"class.std::__1::unordered_map.387"* %431, i8** nonnull dereferenceable(8) %2)
  store i32 653, i32* %433, align 4
  call void @llvm.lifetime.end.p0i8(i64 8, i8* nonnull %432) #12
  %434 = load %"class.std::__1::unordered_map.387"*, %"class.std::__1::unordered_map.387"** @_ZN12_GLOBAL__N_110KeywordMapE, align 8
  %435 = bitcast i8** %3 to i8*
  call void @llvm.lifetime.start.p0i8(i64 8, i8* nonnull %435) #12
  store i8* getelementptr inbounds ([7 x i8], [7 x i8]* @.str.5, i64 0, i64 0), i8** %3, align 8
  %436 = call fastcc dereferenceable(4) i32* @_ZNSt3__113unordered_mapIPKciN12_GLOBAL__N_18str_hashENS3_6str_eqENS_9allocatorINS_4pairIKS2_iEEEEEixEOS2_(%"class.std::__1::unordered_map.387"* %434, i8** nonnull dereferenceable(8) %3)
  store i32 655, i32* %436, align 4
  call void @llvm.lifetime.end.p0i8(i64 8, i8* nonnull %435) #12
