; ModuleID = '../../chrome/browser/notifications/scheduler/schedule_service_factory_helper.cc'
source_filename = "../../chrome/browser/notifications/scheduler/schedule_service_factory_helper.cc"
target datalayout = "e-m:e-i64:64-f80:128-n8:16:32:64-S128"
target triple = "x86_64-unknown-linux-gnu"

module asm ".symver exp, exp@GLIBC_2.2.5"
module asm ".symver exp2, exp2@GLIBC_2.2.5"
module asm ".symver exp2f, exp2f@GLIBC_2.2.5"
module asm ".symver expf, expf@GLIBC_2.2.5"
module asm ".symver lgamma, lgamma@GLIBC_2.2.5"
module asm ".symver lgammaf, lgammaf@GLIBC_2.2.5"
module asm ".symver lgammal, lgammal@GLIBC_2.2.5"
module asm ".symver log, log@GLIBC_2.2.5"
module asm ".symver log2, log2@GLIBC_2.2.5"
module asm ".symver log2f, log2f@GLIBC_2.2.5"
module asm ".symver logf, logf@GLIBC_2.2.5"
module asm ".symver pow, pow@GLIBC_2.2.5"
module asm ".symver powf, powf@GLIBC_2.2.5"

%"struct.base::Feature" = type { i8*, i32 }
%"class.base::TaskTraits" = type { %"struct.base::TaskTraitsExtensionStorage", i8, i8, i8, i8, i8, i8 }
%"struct.base::TaskTraitsExtensionStorage" = type { i8, %"struct.std::__1::array" }
%"struct.std::__1::array" = type { [8 x i8] }
%class.KeyedService = type { i32 (...)** }
%"class.notifications::NotificationSchedulerClientRegistrar" = type { %"class.std::__1::map" }
%"class.std::__1::map" = type { %"class.std::__1::__tree" }
%"class.std::__1::__tree" = type { %"class.std::__1::__tree_end_node"*, %"class.std::__1::__compressed_pair.4", %"class.std::__1::__compressed_pair.7" }
%"class.std::__1::__tree_end_node" = type { %"class.std::__1::__tree_node_base"* }
%"class.std::__1::__tree_node_base" = type <{ %"class.std::__1::__tree_end_node", %"class.std::__1::__tree_node_base"*, %"class.std::__1::__tree_end_node"*, i8, [7 x i8] }>
%"class.std::__1::__compressed_pair.4" = type { %"struct.std::__1::__compressed_pair_elem.5" }
%"struct.std::__1::__compressed_pair_elem.5" = type { %"class.std::__1::__tree_end_node" }
%"class.std::__1::__compressed_pair.7" = type { %"struct.std::__1::__compressed_pair_elem.8" }
%"struct.std::__1::__compressed_pair_elem.8" = type { i64 }
%"class.notifications::NotificationBackgroundTaskScheduler" = type { i32 (...)** }
%"class.notifications::DisplayAgent" = type { i32 (...)** }
%"class.leveldb_proto::ProtoDatabaseProvider" = type { i32 (...)**, %"class.base::FilePath", i8, %class.scoped_refptr, %"class.base::Lock", %class.scoped_refptr.31, %"class.base::WeakPtrFactory.80" }
%"class.base::FilePath" = type { %"class.std::__1::basic_string" }
%"class.std::__1::basic_string" = type { %"class.std::__1::__compressed_pair.25" }
%"class.std::__1::__compressed_pair.25" = type { %"struct.std::__1::__compressed_pair_elem.26" }
%"struct.std::__1::__compressed_pair_elem.26" = type { %"struct.std::__1::basic_string<char, std::__1::char_traits<char>, std::__1::allocator<char> >::__rep" }
%"struct.std::__1::basic_string<char, std::__1::char_traits<char>, std::__1::allocator<char> >::__rep" = type { %union.anon }
%union.anon = type { %"struct.std::__1::basic_string<char, std::__1::char_traits<char>, std::__1::allocator<char> >::__long" }
%"struct.std::__1::basic_string<char, std::__1::char_traits<char>, std::__1::allocator<char> >::__long" = type { i8*, i64, i64 }
%class.scoped_refptr = type { %"class.leveldb_proto::SharedProtoDatabase"* }
%"class.leveldb_proto::SharedProtoDatabase" = type { i32 (...)**, %"class.base::RefCountedThreadSafe", i32, %class.scoped_refptr.31, %"class.base::FilePath", %"class.std::__1::unique_ptr.33", %"class.std::__1::unique_ptr.53", %"class.std::__1::unique_ptr.66", %"class.std::__1::unique_ptr.72", i32, %"class.std::__1::queue", i8, %"class.base::TimeDelta", %"class.base::internal::CancelableCallbackImpl" }
%"class.base::RefCountedThreadSafe" = type { %"class.base::subtle::RefCountedThreadSafeBase" }
%"class.base::subtle::RefCountedThreadSafeBase" = type { %"class.base::AtomicRefCount" }
%"class.base::AtomicRefCount" = type { %"struct.std::__1::atomic" }
%"struct.std::__1::atomic" = type { %"struct.std::__1::__atomic_base" }
%"struct.std::__1::__atomic_base" = type { %"struct.std::__1::__atomic_base.30" }
%"struct.std::__1::__atomic_base.30" = type { %"struct.std::__1::__cxx_atomic_impl" }
%"struct.std::__1::__cxx_atomic_impl" = type { %"struct.std::__1::__cxx_atomic_base_impl" }
%"struct.std::__1::__cxx_atomic_base_impl" = type { i32 }
%"class.std::__1::unique_ptr.33" = type { %"class.std::__1::__compressed_pair.34" }
%"class.std::__1::__compressed_pair.34" = type { %"struct.std::__1::__compressed_pair_elem.35" }
%"struct.std::__1::__compressed_pair_elem.35" = type { %"class.leveldb_proto::LevelDB"* }
%"class.leveldb_proto::LevelDB" = type { i32 (...)**, %"class.std::__1::unique_ptr.36", %"class.std::__1::unique_ptr.42", %"class.base::FilePath", %"struct.leveldb_env::Options", %"class.base::HistogramBase"* }
%"class.std::__1::unique_ptr.36" = type { %"class.std::__1::__compressed_pair.37" }
%"class.std::__1::__compressed_pair.37" = type { %"struct.std::__1::__compressed_pair_elem.38" }
%"struct.std::__1::__compressed_pair_elem.38" = type { %"class.leveldb::Env"* }
%"class.leveldb::Env" = type { i32 (...)** }
%"class.std::__1::unique_ptr.42" = type { %"class.std::__1::__compressed_pair.43" }
%"class.std::__1::__compressed_pair.43" = type { %"struct.std::__1::__compressed_pair_elem.44" }
%"struct.std::__1::__compressed_pair_elem.44" = type { %"class.leveldb::DB"* }
%"class.leveldb::DB" = type { i32 (...)** }
%"struct.leveldb_env::Options" = type { %"struct.leveldb::Options", %"class.base::RepeatingCallback", %"class.base::RepeatingCallback" }
%"struct.leveldb::Options" = type { %"class.leveldb::Comparator"*, i8, i8, i8, %"class.leveldb::Env"*, %"class.leveldb::Logger"*, i64, i32, %"class.leveldb::Cache"*, i64, i32, i64, i32, i8, %"class.leveldb::FilterPolicy"* }
%"class.leveldb::Comparator" = type opaque
%"class.leveldb::Logger" = type { i32 (...)** }
%"class.leveldb::Cache" = type { i32 (...)**, %"struct.leveldb::Cache::Rep"* }
%"struct.leveldb::Cache::Rep" = type opaque
%"class.leveldb::FilterPolicy" = type opaque
%"class.base::RepeatingCallback" = type { %"class.base::internal::CallbackBaseCopyable" }
%"class.base::internal::CallbackBaseCopyable" = type { %"class.base::internal::CallbackBase" }
%"class.base::internal::CallbackBase" = type { %class.scoped_refptr.48 }
%class.scoped_refptr.48 = type { %"class.base::internal::BindStateBase"* }
%"class.base::internal::BindStateBase" = type { %"class.base::RefCountedThreadSafe.49", void ()*, void (%"class.base::internal::BindStateBase"*)*, i1 (%"class.base::internal::BindStateBase"*, i32)* }
%"class.base::RefCountedThreadSafe.49" = type { %"class.base::subtle::RefCountedThreadSafeBase" }
%"class.base::HistogramBase" = type opaque
%"class.std::__1::unique_ptr.53" = type { %"class.std::__1::__compressed_pair.54" }
%"class.std::__1::__compressed_pair.54" = type { %"struct.std::__1::__compressed_pair_elem.55" }
%"struct.std::__1::__compressed_pair_elem.55" = type { %"class.leveldb_proto::ProtoLevelDBWrapper"* }
%"class.leveldb_proto::ProtoLevelDBWrapper" = type { i32 (...)**, %class.scoped_refptr.31, %"class.leveldb_proto::LevelDB"*, %"class.std::__1::basic_string", %"class.base::WeakPtrFactory" }
%"class.base::WeakPtrFactory" = type { %"class.base::internal::WeakPtrFactoryBase" }
%"class.base::internal::WeakPtrFactoryBase" = type { %"class.base::internal::WeakReferenceOwner", i64 }
%"class.base::internal::WeakReferenceOwner" = type { %class.scoped_refptr.56 }
%class.scoped_refptr.56 = type { %"class.base::internal::WeakReference::Flag"* }
%"class.base::internal::WeakReference::Flag" = type <{ %"class.base::RefCountedThreadSafe.57", %"class.base::AtomicFlag", [3 x i8] }>
%"class.base::RefCountedThreadSafe.57" = type { %"class.base::subtle::RefCountedThreadSafeBase" }
%"class.base::AtomicFlag" = type { %"struct.std::__1::atomic.58" }
%"struct.std::__1::atomic.58" = type { %"struct.std::__1::__atomic_base.59" }
%"struct.std::__1::__atomic_base.59" = type { %"struct.std::__1::__atomic_base.60" }
%"struct.std::__1::__atomic_base.60" = type { %"struct.std::__1::__cxx_atomic_impl.61" }
%"struct.std::__1::__cxx_atomic_impl.61" = type { %"struct.std::__1::__cxx_atomic_base_impl.62" }
%"struct.std::__1::__cxx_atomic_base_impl.62" = type { i8 }
%"class.std::__1::unique_ptr.66" = type { %"class.std::__1::__compressed_pair.67" }
%"class.std::__1::__compressed_pair.67" = type { %"struct.std::__1::__compressed_pair_elem.68" }
%"struct.std::__1::__compressed_pair_elem.68" = type { %"class.leveldb_proto::ProtoDatabase"* }
%"class.leveldb_proto::ProtoDatabase" = type opaque
%"class.std::__1::unique_ptr.72" = type { %"class.std::__1::__compressed_pair.73" }
%"class.std::__1::__compressed_pair.73" = type { %"struct.std::__1::__compressed_pair_elem.74" }
%"struct.std::__1::__compressed_pair_elem.74" = type { %"class.leveldb_proto::SharedDBMetadataProto"* }
%"class.leveldb_proto::SharedDBMetadataProto" = type { %"class.google::protobuf::MessageLite", %"class.google::protobuf::internal::HasBits", %"class.google::protobuf::internal::CachedSize", i64, i32, i32 }
%"class.google::protobuf::MessageLite" = type { i32 (...)**, %"class.google::protobuf::internal::InternalMetadata" }
%"class.google::protobuf::internal::InternalMetadata" = type { i8* }
%"class.google::protobuf::internal::HasBits" = type { [1 x i32] }
%"class.google::protobuf::internal::CachedSize" = type { %"struct.std::__1::atomic" }
%"class.std::__1::queue" = type { %"class.base::circular_deque" }
%"class.base::circular_deque" = type { %"class.base::internal::VectorBuffer", i64, i64 }
%"class.base::internal::VectorBuffer" = type { %"class.std::__1::unique_ptr.78"*, i64 }
%"class.std::__1::unique_ptr.78" = type opaque
%"class.base::TimeDelta" = type { i64 }
%"class.base::internal::CancelableCallbackImpl" = type { %"class.base::OnceCallback", %"class.base::WeakPtrFactory.79" }
%"class.base::OnceCallback" = type { %"class.base::internal::CallbackBase" }
%"class.base::WeakPtrFactory.79" = type { %"class.base::internal::WeakPtrFactoryBase" }
%"class.base::Lock" = type { %"class.base::internal::LockImpl" }
%"class.base::internal::LockImpl" = type { %union.pthread_mutex_t }
%union.pthread_mutex_t = type { %struct.__pthread_mutex_s }
%struct.__pthread_mutex_s = type { i32, i32, i32, i32, i32, i16, i16, %struct.__pthread_internal_list }
%struct.__pthread_internal_list = type { %struct.__pthread_internal_list*, %struct.__pthread_internal_list* }
%class.scoped_refptr.31 = type { %"class.base::SequencedTaskRunner"* }
%"class.base::SequencedTaskRunner" = type { %"class.base::TaskRunner.base", [4 x i8] }
%"class.base::TaskRunner.base" = type <{ i32 (...)**, %"class.base::RefCountedThreadSafe.32" }>
%"class.base::RefCountedThreadSafe.32" = type { %"class.base::subtle::RefCountedThreadSafeBase" }
%"class.base::WeakPtrFactory.80" = type { %"class.base::internal::WeakPtrFactoryBase" }
%"class.std::__1::vector" = type { %"class.std::__1::__vector_base" }
%"class.std::__1::__vector_base" = type { i32*, i32*, %"class.std::__1::__compressed_pair.145" }
%"class.std::__1::__compressed_pair.145" = type { %"struct.std::__1::__compressed_pair_elem.146" }
%"struct.std::__1::__compressed_pair_elem.146" = type { i32* }
%"struct.notifications::SchedulerConfig" = type { i32, i32, i32, %"class.base::TimeDelta", %"class.base::TimeDelta", %"class.base::TimeDelta", i32, %"class.base::TimeDelta", %"class.base::TimeDelta" }
%"class.notifications::WebUIClient" = type { %"class.notifications::NotificationSchedulerClient" }
%"class.notifications::NotificationSchedulerClient" = type { i32 (...)** }
%"class.leveldb_proto::ProtoDatabase.108" = type { i32 (...)** }
%"class.notifications::PngIconConverterImpl" = type { %"class.notifications::IconConverter" }
%"class.notifications::IconConverter" = type { i32 (...)** }
%"class.notifications::IconProtoDbStore" = type { %"class.notifications::IconStore", %"class.std::__1::unique_ptr.105", %"class.std::__1::unique_ptr.115", %"class.base::WeakPtrFactory.121" }
%"class.notifications::IconStore" = type { i32 (...)** }
%"class.std::__1::unique_ptr.105" = type { %"class.std::__1::__compressed_pair.106" }
%"class.std::__1::__compressed_pair.106" = type { %"struct.std::__1::__compressed_pair_elem.107" }
%"struct.std::__1::__compressed_pair_elem.107" = type { %"class.leveldb_proto::ProtoDatabase.108"* }
%"class.std::__1::unique_ptr.115" = type { %"class.std::__1::__compressed_pair.116" }
%"class.std::__1::__compressed_pair.116" = type { %"struct.std::__1::__compressed_pair_elem.117" }
%"struct.std::__1::__compressed_pair_elem.117" = type { %"class.notifications::IconConverter"* }
%"class.base::WeakPtrFactory.121" = type { %"class.base::internal::WeakPtrFactoryBase" }
%"class.leveldb_proto::ProtoDatabase.134" = type { i32 (...)** }
%"class.notifications::ImpressionStore" = type { %"class.notifications::CollectionStore", %"class.std::__1::unique_ptr.131", %"class.base::WeakPtrFactory.141" }
%"class.notifications::CollectionStore" = type { i32 (...)** }
%"class.std::__1::unique_ptr.131" = type { %"class.std::__1::__compressed_pair.132" }
%"class.std::__1::__compressed_pair.132" = type { %"struct.std::__1::__compressed_pair_elem.133" }
%"struct.std::__1::__compressed_pair_elem.133" = type { %"class.leveldb_proto::ProtoDatabase.134"* }
%"class.base::WeakPtrFactory.141" = type { %"class.base::internal::WeakPtrFactoryBase" }
%"class.base::DefaultClock" = type { %"class.base::Clock" }
%"class.base::Clock" = type { i32 (...)** }
%"class.notifications::ImpressionHistoryTrackerImpl" = type { %"class.notifications::ImpressionHistoryTracker", %"class.std::__1::map.153", %"class.std::__1::unique_ptr.162", %"struct.notifications::SchedulerConfig"*, %"class.std::__1::vector", i8, %"class.std::__1::map.168", %"class.base::Clock"*, %"class.notifications::ImpressionHistoryTracker::Delegate"*, %"class.base::WeakPtrFactory.177" }
%"class.notifications::ImpressionHistoryTracker" = type { %"class.notifications::UserActionHandler" }
%"class.notifications::UserActionHandler" = type { i32 (...)** }
%"class.std::__1::map.153" = type { %"class.std::__1::__tree.154" }
%"class.std::__1::__tree.154" = type { %"class.std::__1::__tree_end_node"*, %"class.std::__1::__compressed_pair.155", %"class.std::__1::__compressed_pair.159" }
%"class.std::__1::__compressed_pair.155" = type { %"struct.std::__1::__compressed_pair_elem.5" }
%"class.std::__1::__compressed_pair.159" = type { %"struct.std::__1::__compressed_pair_elem.8" }
%"class.std::__1::unique_ptr.162" = type { %"class.std::__1::__compressed_pair.163" }
%"class.std::__1::__compressed_pair.163" = type { %"struct.std::__1::__compressed_pair_elem.164" }
%"struct.std::__1::__compressed_pair_elem.164" = type { %"class.notifications::CollectionStore"* }
%"class.std::__1::map.168" = type { %"class.std::__1::__tree.169" }
%"class.std::__1::__tree.169" = type { %"class.std::__1::__tree_end_node"*, %"class.std::__1::__compressed_pair.170", %"class.std::__1::__compressed_pair.174" }
%"class.std::__1::__compressed_pair.170" = type { %"struct.std::__1::__compressed_pair_elem.5" }
%"class.std::__1::__compressed_pair.174" = type { %"struct.std::__1::__compressed_pair_elem.8" }
%"class.notifications::ImpressionHistoryTracker::Delegate" = type { i32 (...)** }
%"class.base::WeakPtrFactory.177" = type { %"class.base::internal::WeakPtrFactoryBase" }
%"class.std::__1::__vector_base_common" = type { i8 }
%"class.leveldb_proto::ProtoDatabase.184" = type { i32 (...)** }
%"class.notifications::NotificationStore" = type { %"class.notifications::CollectionStore.191", %"class.std::__1::unique_ptr.181", %"class.base::WeakPtrFactory.192" }
%"class.notifications::CollectionStore.191" = type { i32 (...)** }
%"class.std::__1::unique_ptr.181" = type { %"class.std::__1::__compressed_pair.182" }
%"class.std::__1::__compressed_pair.182" = type { %"struct.std::__1::__compressed_pair_elem.183" }
%"struct.std::__1::__compressed_pair_elem.183" = type { %"class.leveldb_proto::ProtoDatabase.184"* }
%"class.base::WeakPtrFactory.192" = type { %"class.base::internal::WeakPtrFactoryBase" }
%"class.notifications::ScheduledNotificationManager" = type { i32 (...)** }
%"class.notifications::BackgroundTaskCoordinator" = type { i32 (...)** }
%"class.notifications::DisplayDecider" = type { i32 (...)** }
%"class.notifications::NotificationSchedulerContext" = type { %"class.std::__1::unique_ptr.1", %"class.std::__1::unique_ptr.229", %"class.std::__1::unique_ptr.196", %"class.std::__1::unique_ptr.19", %"class.std::__1::unique_ptr.220", %"class.std::__1::unique_ptr.87", %"class.std::__1::unique_ptr.214" }
%"class.std::__1::unique_ptr.1" = type { %"class.std::__1::__compressed_pair.2" }
%"class.std::__1::__compressed_pair.2" = type { %"struct.std::__1::__compressed_pair_elem.3" }
%"struct.std::__1::__compressed_pair_elem.3" = type { %"class.notifications::NotificationSchedulerClientRegistrar"* }
%"class.std::__1::unique_ptr.229" = type { %"class.std::__1::__compressed_pair.230" }
%"class.std::__1::__compressed_pair.230" = type { %"struct.std::__1::__compressed_pair_elem.231" }
%"struct.std::__1::__compressed_pair_elem.231" = type { %"class.notifications::ImpressionHistoryTracker"* }
%"class.std::__1::unique_ptr.196" = type { %"class.std::__1::__compressed_pair.197" }
%"class.std::__1::__compressed_pair.197" = type { %"struct.std::__1::__compressed_pair_elem.198" }
%"struct.std::__1::__compressed_pair_elem.198" = type { %"class.notifications::ScheduledNotificationManager"* }
%"class.std::__1::unique_ptr.19" = type { %"class.std::__1::__compressed_pair.20" }
%"class.std::__1::__compressed_pair.20" = type { %"struct.std::__1::__compressed_pair_elem.21" }
%"struct.std::__1::__compressed_pair_elem.21" = type { %"class.notifications::DisplayAgent"* }
%"class.std::__1::unique_ptr.220" = type { %"class.std::__1::__compressed_pair.221" }
%"class.std::__1::__compressed_pair.221" = type { %"struct.std::__1::__compressed_pair_elem.222" }
%"struct.std::__1::__compressed_pair_elem.222" = type { %"class.notifications::DisplayDecider"* }
%"class.std::__1::unique_ptr.87" = type { %"class.std::__1::__compressed_pair.88" }
%"class.std::__1::__compressed_pair.88" = type { %"struct.std::__1::__compressed_pair_elem.89" }
%"struct.std::__1::__compressed_pair_elem.89" = type { %"struct.notifications::SchedulerConfig"* }
%"class.std::__1::unique_ptr.214" = type { %"class.std::__1::__compressed_pair.215" }
%"class.std::__1::__compressed_pair.215" = type { %"struct.std::__1::__compressed_pair_elem.216" }
%"struct.std::__1::__compressed_pair_elem.216" = type { %"class.notifications::BackgroundTaskCoordinator"* }
%"class.notifications::NotificationScheduler" = type { %"class.notifications::NotificationBackgroundTaskScheduler::Handler", %"class.notifications::UserActionHandler" }
%"class.notifications::NotificationBackgroundTaskScheduler::Handler" = type { i32 (...)** }
%"class.notifications::InitAwareNotificationScheduler" = type { %"class.notifications::NotificationScheduler", %"class.absl::optional", %"class.std::__1::vector.248", %"class.std::__1::unique_ptr.238", %"class.base::WeakPtrFactory.255" }
%"class.absl::optional" = type { %"class.absl::optional_internal::optional_data" }
%"class.absl::optional_internal::optional_data" = type { %"class.absl::optional_internal::optional_data_base" }
%"class.absl::optional_internal::optional_data_base" = type { %"class.absl::optional_internal::optional_data_dtor_base" }
%"class.absl::optional_internal::optional_data_dtor_base" = type { i8, %union.anon.247 }
%union.anon.247 = type { i8 }
%"class.std::__1::vector.248" = type { %"class.std::__1::__vector_base.249" }
%"class.std::__1::__vector_base.249" = type { %"class.base::OnceCallback"*, %"class.base::OnceCallback"*, %"class.std::__1::__compressed_pair.250" }
%"class.std::__1::__compressed_pair.250" = type { %"struct.std::__1::__compressed_pair_elem.251" }
%"struct.std::__1::__compressed_pair_elem.251" = type { %"class.base::OnceCallback"* }
%"class.std::__1::unique_ptr.238" = type { %"class.std::__1::__compressed_pair.239" }
%"class.std::__1::__compressed_pair.239" = type { %"struct.std::__1::__compressed_pair_elem.240" }
%"struct.std::__1::__compressed_pair_elem.240" = type { %"class.notifications::NotificationScheduler"* }
%"class.base::WeakPtrFactory.255" = type { %"class.base::internal::WeakPtrFactoryBase" }
%"class.notifications::NotificationScheduleServiceImpl" = type { %"class.notifications::NotificationScheduleService", %"class.notifications::NotificationBackgroundTaskScheduler::Handler", %"class.notifications::UserActionHandler", %"class.std::__1::unique_ptr.238", %"class.base::WeakPtrFactory.262" }
%"class.notifications::NotificationScheduleService" = type { %class.KeyedService }
%"class.base::WeakPtrFactory.262" = type { %"class.base::internal::WeakPtrFactoryBase" }
%"class.base::TaskRunner" = type <{ i32 (...)**, %"class.base::RefCountedThreadSafe.32", [4 x i8] }>
%"class.notifications::NoopNotificationScheduleService" = type { %"class.notifications::NotificationScheduleService", %"class.notifications::NotificationBackgroundTaskScheduler::Handler", %"class.notifications::UserActionHandler" }
%"class.base::internal::WeakReference" = type { %class.scoped_refptr.274 }
%class.scoped_refptr.274 = type { %"class.base::internal::WeakReference::Flag"* }
%"class.base::WeakPtr" = type { %"class.base::internal::WeakPtrBase" }
%"class.base::internal::WeakPtrBase" = type { %"class.base::internal::WeakReference", i64 }
%"class.leveldb_proto::ProtoDatabaseSelector" = type { %"class.base::RefCountedThreadSafe.270", i32, %class.scoped_refptr.31, %"class.std::__1::unique_ptr.271", %"class.std::__1::unique_ptr.278", i32, %"class.std::__1::queue.284", %"class.std::__1::unique_ptr.287", %"class.base::FilePath", %"class.std::__1::basic_string" }
%"class.base::RefCountedThreadSafe.270" = type { %"class.base::subtle::RefCountedThreadSafeBase" }
%"class.std::__1::unique_ptr.271" = type { %"class.std::__1::__compressed_pair.272" }
%"class.std::__1::__compressed_pair.272" = type { %"struct.std::__1::__compressed_pair_elem.273" }
%"struct.std::__1::__compressed_pair_elem.273" = type { %"class.leveldb_proto::SharedProtoDatabaseProvider"* }
%"class.leveldb_proto::SharedProtoDatabaseProvider" = type { %class.scoped_refptr.31, %"class.base::WeakPtr" }
%"class.std::__1::unique_ptr.278" = type { %"class.std::__1::__compressed_pair.279" }
%"class.std::__1::__compressed_pair.279" = type { %"struct.std::__1::__compressed_pair_elem.280" }
%"struct.std::__1::__compressed_pair_elem.280" = type { %"class.leveldb_proto::MigrationDelegate"* }
%"class.leveldb_proto::MigrationDelegate" = type opaque
%"class.std::__1::queue.284" = type { %"class.base::circular_deque.285" }
%"class.base::circular_deque.285" = type { %"class.base::internal::VectorBuffer.286", i64, i64 }
%"class.base::internal::VectorBuffer.286" = type { %"class.base::OnceCallback"*, i64 }
%"class.std::__1::unique_ptr.287" = type { %"class.std::__1::__compressed_pair.288" }
%"class.std::__1::__compressed_pair.288" = type { %"struct.std::__1::__compressed_pair_elem.289" }
%"struct.std::__1::__compressed_pair_elem.289" = type { %"class.leveldb_proto::UniqueProtoDatabase"* }
%"class.leveldb_proto::UniqueProtoDatabase" = type { i32 (...)**, %"class.std::__1::unique_ptr.53", %"class.base::FilePath", %"struct.leveldb_env::Options", %"class.std::__1::unique_ptr.33" }
%"class.logging::CheckError" = type { %"class.logging::LogMessage"* }
%"class.logging::LogMessage" = type { i32 (...)**, i32, %"class.std::__1::basic_ostringstream", i64, i8*, i32, %"class.base::ScopedClearLastErrorBase" }
%"class.std::__1::basic_ostringstream" = type { %"class.std::__1::basic_ostream.base", %"class.std::__1::basic_stringbuf", %"class.std::__1::basic_ios.base" }
%"class.std::__1::basic_ostream.base" = type { i32 (...)** }
%"class.std::__1::basic_stringbuf" = type <{ %"class.std::__1::basic_streambuf", %"class.std::__1::basic_string", i8*, i32, [4 x i8] }>
%"class.std::__1::basic_streambuf" = type { i32 (...)**, %"class.std::__1::locale", i8*, i8*, i8*, i8*, i8*, i8* }
%"class.std::__1::locale" = type { %"class.std::__1::locale::__imp"* }
%"class.std::__1::locale::__imp" = type opaque
%"class.std::__1::basic_ios.base" = type <{ %"class.std::__1::ios_base", %"class.std::__1::basic_ostream"*, i32 }>
%"class.std::__1::ios_base" = type { i32 (...)**, i32, i64, i64, i32, i32, i8*, i8*, void (i32, %"class.std::__1::ios_base"*, i32)**, i32*, i64, i64, i64*, i64, i64, i8**, i64, i64 }
%"class.std::__1::basic_ostream" = type { i32 (...)**, %"class.std::__1::basic_ios.base" }
%"class.base::ScopedClearLastErrorBase" = type { i32 }
%"class.leveldb_proto::ProtoDatabaseImpl" = type { %"class.leveldb_proto::ProtoDatabase.108", i32, %class.scoped_refptr.269, i8, %class.scoped_refptr.31, %"class.base::FilePath" }
%class.scoped_refptr.269 = type { %"class.leveldb_proto::ProtoDatabaseSelector"* }
%"class.base::OnceCallback.296" = type { %"class.base::internal::CallbackBase" }
%"class.base::Location" = type { i8*, i8*, i32, i8* }
%"struct.std::__1::basic_string<char, std::__1::char_traits<char>, std::__1::allocator<char> >::__short" = type { [23 x i8], %struct.anon }
%struct.anon = type { i8 }
%"class.std::__1::vector.300" = type { %"class.std::__1::__vector_base.301" }
%"class.std::__1::__vector_base.301" = type { %"struct.std::__1::pair"*, %"struct.std::__1::pair"*, %"class.std::__1::__compressed_pair.302" }
%"struct.std::__1::pair" = type { %"class.std::__1::basic_string", %"struct.notifications::IconEntry" }
%"struct.notifications::IconEntry" = type { %"class.std::__1::basic_string" }
%"class.std::__1::__compressed_pair.302" = type { %"struct.std::__1::__compressed_pair_elem.303" }
%"struct.std::__1::__compressed_pair_elem.303" = type { %"struct.std::__1::pair"* }
%"class.std::__1::vector.313" = type { %"class.std::__1::__vector_base.314" }
%"class.std::__1::__vector_base.314" = type { %"class.std::__1::basic_string"*, %"class.std::__1::basic_string"*, %"class.std::__1::__compressed_pair.315" }
%"class.std::__1::__compressed_pair.315" = type { %"struct.std::__1::__compressed_pair_elem.316" }
%"struct.std::__1::__compressed_pair_elem.316" = type { %"class.std::__1::basic_string"* }
%"class.base::OnceCallback.323" = type { %"class.base::internal::CallbackBase" }
%"class.base::RepeatingCallback.324" = type { %"class.base::internal::CallbackBaseCopyable" }
%"class.base::OnceCallback.325" = type { %"class.base::internal::CallbackBase" }
%"struct.leveldb::ReadOptions" = type { i8, i8, %"class.leveldb::Snapshot"* }
%"class.leveldb::Snapshot" = type { i32 (...)** }
%"class.base::OnceCallback.327" = type { %"class.base::internal::CallbackBase" }
%"class.base::OnceCallback.326" = type { %"class.base::internal::CallbackBase" }
%"class.base::OnceCallback.428" = type { %"class.base::internal::CallbackBase" }
%"class.base::OnceCallback.328" = type { %"class.base::internal::CallbackBase" }
%"class.base::OnceCallback.504" = type { %"class.base::internal::CallbackBase" }
%"struct.std::__1::__tuple_impl" = type { %"class.std::__1::__tuple_leaf", %"class.std::__1::__tuple_leaf.329", %"class.std::__1::__tuple_leaf.330", %"class.std::__1::__tuple_leaf.331", %"class.std::__1::__tuple_leaf.332", %"class.std::__1::__tuple_leaf.333", %"class.std::__1::__tuple_leaf.334" }
%"class.std::__1::__tuple_leaf" = type { %class.scoped_refptr.269 }
%"class.std::__1::__tuple_leaf.329" = type { %"class.std::__1::basic_string" }
%"class.std::__1::__tuple_leaf.330" = type { %"class.base::FilePath" }
%"class.std::__1::__tuple_leaf.331" = type { %"struct.leveldb_env::Options" }
%"class.std::__1::__tuple_leaf.332" = type { i8 }
%"class.std::__1::__tuple_leaf.333" = type { %class.scoped_refptr.31 }
%"class.std::__1::__tuple_leaf.334" = type { %"class.base::OnceCallback.296" }
%"class.notifications::proto::Icon" = type { %"class.google::protobuf::MessageLite", %"class.google::protobuf::internal::HasBits", %"class.google::protobuf::internal::CachedSize", %"struct.google::protobuf::internal::ArenaStringPtr" }
%"struct.google::protobuf::internal::ArenaStringPtr" = type { %"class.std::__1::basic_string"* }
%"struct.std::__1::pair.353" = type { %"class.std::__1::basic_string", %"class.std::__1::basic_string" }
%"class.std::__1::vector.351" = type { %"class.std::__1::__vector_base.352" }
%"class.std::__1::__vector_base.352" = type { %"struct.std::__1::pair.353"*, %"struct.std::__1::pair.353"*, %"class.std::__1::__compressed_pair.354" }
%"class.std::__1::__compressed_pair.354" = type { %"struct.std::__1::__compressed_pair_elem.355" }
%"struct.std::__1::__compressed_pair_elem.355" = type { %"struct.std::__1::pair.353"* }
%"class.google::protobuf::Arena" = type { %"class.google::protobuf::internal::ArenaImpl", void (%"class.std::type_info"*, i64, i8*)*, void (%"class.google::protobuf::Arena"*, i8*, i64)*, void (%"class.google::protobuf::Arena"*, i8*, i64)*, i8* }
%"class.google::protobuf::internal::ArenaImpl" = type { %"struct.std::__1::atomic.362", %"struct.std::__1::atomic.362", %"struct.std::__1::atomic.366", %"class.google::protobuf::internal::ArenaImpl::Block"*, i64, %"struct.google::protobuf::internal::ArenaImpl::Options" }
%"struct.std::__1::atomic.362" = type { %"struct.std::__1::__atomic_base.363" }
%"struct.std::__1::__atomic_base.363" = type { %"struct.std::__1::__cxx_atomic_impl.364" }
%"struct.std::__1::__cxx_atomic_impl.364" = type { %"struct.std::__1::__cxx_atomic_base_impl.365" }
%"struct.std::__1::__cxx_atomic_base_impl.365" = type { %"class.google::protobuf::internal::ArenaImpl::SerialArena"* }
%"class.google::protobuf::internal::ArenaImpl::SerialArena" = type { %"class.google::protobuf::internal::ArenaImpl"*, i8*, %"class.google::protobuf::internal::ArenaImpl::Block"*, %"struct.google::protobuf::internal::ArenaImpl::CleanupChunk"*, %"class.google::protobuf::internal::ArenaImpl::SerialArena"*, i8*, i8*, %"struct.google::protobuf::internal::ArenaImpl::CleanupNode"*, %"struct.google::protobuf::internal::ArenaImpl::CleanupNode"* }
%"struct.google::protobuf::internal::ArenaImpl::CleanupChunk" = type { i64, %"struct.google::protobuf::internal::ArenaImpl::CleanupChunk"*, [1 x %"struct.google::protobuf::internal::ArenaImpl::CleanupNode"] }
%"struct.google::protobuf::internal::ArenaImpl::CleanupNode" = type { i8*, void (i8*)* }
%"struct.std::__1::atomic.366" = type { %"struct.std::__1::__atomic_base.367" }
%"struct.std::__1::__atomic_base.367" = type { %"struct.std::__1::__atomic_base.368" }
%"struct.std::__1::__atomic_base.368" = type { %"struct.std::__1::__cxx_atomic_impl.369" }
%"struct.std::__1::__cxx_atomic_impl.369" = type { %"struct.std::__1::__cxx_atomic_base_impl.370" }
%"struct.std::__1::__cxx_atomic_base_impl.370" = type { i64 }
%"class.google::protobuf::internal::ArenaImpl::Block" = type { %"class.google::protobuf::internal::ArenaImpl::Block"*, i64, i64 }
%"struct.google::protobuf::internal::ArenaImpl::Options" = type { i64, i64, i8*, i64, i8* (i64)*, void (i8*, i64)* }
%"class.std::type_info" = type { i32 (...)**, i8* }
%"struct.std::__1::__tuple_impl.340" = type { %"class.std::__1::__tuple_leaf.341", %"class.std::__1::__tuple_leaf.342", %"class.std::__1::__tuple_leaf.343", %"class.std::__1::__tuple_leaf.344" }
%"class.std::__1::__tuple_leaf.341" = type { %"class.std::__1::unique_ptr.297" }
%"class.std::__1::unique_ptr.297" = type { %"class.std::__1::__compressed_pair.298" }
%"class.std::__1::__compressed_pair.298" = type { %"struct.std::__1::__compressed_pair_elem.299" }
%"struct.std::__1::__compressed_pair_elem.299" = type { %"class.std::__1::vector.300"* }
%"class.std::__1::__tuple_leaf.342" = type { %"class.std::__1::unique_ptr.310" }
%"class.std::__1::unique_ptr.310" = type { %"class.std::__1::__compressed_pair.311" }
%"class.std::__1::__compressed_pair.311" = type { %"struct.std::__1::__compressed_pair_elem.312" }
%"struct.std::__1::__compressed_pair_elem.312" = type { %"class.std::__1::vector.313"* }
%"class.std::__1::__tuple_leaf.343" = type { %class.scoped_refptr.269 }
%"class.std::__1::__tuple_leaf.344" = type { %"class.base::OnceCallback.323" }
%"class.std::__1::vector.408" = type { %"class.std::__1::__vector_base.409" }
%"class.std::__1::__vector_base.409" = type { %"struct.notifications::IconEntry"*, %"struct.notifications::IconEntry"*, %"class.std::__1::__compressed_pair.410" }
%"class.std::__1::__compressed_pair.410" = type { %"struct.std::__1::__compressed_pair_elem.411" }
%"struct.std::__1::__compressed_pair_elem.411" = type { %"struct.notifications::IconEntry"* }
%"struct.google::protobuf::internal::InternalMetadata::ContainerBase" = type { %"class.google::protobuf::Arena"* }
%"class.std::__1::unique_ptr.405" = type { %"class.std::__1::__compressed_pair.406" }
%"class.std::__1::__compressed_pair.406" = type { %"struct.std::__1::__compressed_pair_elem.407" }
%"struct.std::__1::__compressed_pair_elem.407" = type { %"class.std::__1::vector.408"* }
%"class.std::__1::map.432" = type { %"class.std::__1::__tree.433" }
%"class.std::__1::__tree.433" = type { %"class.std::__1::__tree_end_node"*, %"class.std::__1::__compressed_pair.434", %"class.std::__1::__compressed_pair.438" }
%"class.std::__1::__compressed_pair.434" = type { %"struct.std::__1::__compressed_pair_elem.5" }
%"class.std::__1::__compressed_pair.438" = type { %"struct.std::__1::__compressed_pair_elem.8" }
%"class.std::__1::__tree.460" = type { %"class.std::__1::__tree_end_node"*, %"class.std::__1::__compressed_pair.461", %"class.std::__1::__compressed_pair.465" }
%"class.std::__1::__compressed_pair.461" = type { %"struct.std::__1::__compressed_pair_elem.5" }
%"class.std::__1::__compressed_pair.465" = type { %"struct.std::__1::__compressed_pair_elem.8" }
%"class.std::__1::__tree_node" = type { %"class.std::__1::__tree_node_base.base", %"struct.std::__1::__value_type" }
%"class.std::__1::__tree_node_base.base" = type <{ %"class.std::__1::__tree_end_node", %"class.std::__1::__tree_node_base"*, %"class.std::__1::__tree_end_node"*, i8 }>
%"struct.std::__1::__value_type" = type { %"struct.std::__1::pair.475" }
%"struct.std::__1::pair.475" = type { %"class.std::__1::basic_string", %"struct.notifications::IconEntry" }
%"class.std::__1::__tree_node.477" = type { %"class.std::__1::__tree_node_base.base", %"struct.std::__1::__value_type.476" }
%"struct.std::__1::__value_type.476" = type { %"struct.std::__1::pair.471" }
%"struct.std::__1::pair.471" = type { %"class.std::__1::basic_string", %"class.std::__1::basic_string" }
%"class.std::__1::unique_ptr.429" = type { %"class.std::__1::__compressed_pair.430" }
%"class.std::__1::__compressed_pair.430" = type { %"struct.std::__1::__compressed_pair_elem.431" }
%"struct.std::__1::__compressed_pair_elem.431" = type { %"class.std::__1::map.432"* }
%"class.std::__1::unique_ptr.456" = type { %"class.std::__1::__compressed_pair.457" }
%"class.std::__1::__compressed_pair.457" = type { %"struct.std::__1::__compressed_pair_elem.458" }
%"struct.std::__1::__compressed_pair_elem.458" = type { %"class.std::__1::map.459"* }
%"class.std::__1::map.459" = type { %"class.std::__1::__tree.460" }
%"class.std::__1::unique_ptr.505" = type { %"class.std::__1::__compressed_pair.506" }
%"class.std::__1::__compressed_pair.506" = type { %"struct.std::__1::__compressed_pair_elem.316" }
%"class.std::__1::unique_ptr.522" = type { %"class.std::__1::__compressed_pair.523" }
%"class.std::__1::__compressed_pair.523" = type { %"struct.std::__1::__compressed_pair_elem.411" }
%"class.leveldb_proto::ProtoDatabaseImpl.539" = type { %"class.leveldb_proto::ProtoDatabase.134", i32, %class.scoped_refptr.269, i8, %class.scoped_refptr.31, %"class.base::FilePath" }
%"class.std::__1::vector.546" = type { %"class.std::__1::__vector_base.547" }
%"class.std::__1::__vector_base.547" = type { %"struct.std::__1::pair.548"*, %"struct.std::__1::pair.548"*, %"class.std::__1::__compressed_pair.577" }
%"struct.std::__1::pair.548" = type { %"class.std::__1::basic_string", %"struct.notifications::ClientState" }
%"struct.notifications::ClientState" = type { i32, i32, %"class.base::circular_deque.549", %"class.absl::optional.567", i64, %"class.absl::optional.572", %"class.absl::optional.572" }
%"class.base::circular_deque.549" = type { %"class.base::internal::VectorBuffer.550", i64, i64 }
%"class.base::internal::VectorBuffer.550" = type { %"struct.notifications::Impression"*, i64 }
%"struct.notifications::Impression" = type { %"class.base::Time", i32, i32, i8, %"class.std::__1::basic_string", i32, %"class.std::__1::map.551", %"class.std::__1::map.432", %"class.absl::optional.562" }
%"class.base::Time" = type { %"class.base::time_internal::TimeBase" }
%"class.base::time_internal::TimeBase" = type { i64 }
%"class.std::__1::map.551" = type { %"class.std::__1::__tree.552" }
%"class.std::__1::__tree.552" = type { %"class.std::__1::__tree_end_node"*, %"class.std::__1::__compressed_pair.553", %"class.std::__1::__compressed_pair.557" }
%"class.std::__1::__compressed_pair.553" = type { %"struct.std::__1::__compressed_pair_elem.5" }
%"class.std::__1::__compressed_pair.557" = type { %"struct.std::__1::__compressed_pair_elem.8" }
%"class.absl::optional.562" = type { %"class.absl::optional_internal::optional_data.563" }
%"class.absl::optional_internal::optional_data.563" = type { %"class.absl::optional_internal::optional_data_base.564" }
%"class.absl::optional_internal::optional_data_base.564" = type { %"class.absl::optional_internal::optional_data_dtor_base.565" }
%"class.absl::optional_internal::optional_data_dtor_base.565" = type { i8, %union.anon.566 }
%union.anon.566 = type { %"class.base::TimeDelta" }
%"class.absl::optional.567" = type { %"class.absl::optional_internal::optional_data.568" }
%"class.absl::optional_internal::optional_data.568" = type { %"class.absl::optional_internal::optional_data_base.569" }
%"class.absl::optional_internal::optional_data_base.569" = type { %"class.absl::optional_internal::optional_data_dtor_base.570" }
%"class.absl::optional_internal::optional_data_dtor_base.570" = type { i8, [7 x i8], %union.anon.571 }
%union.anon.571 = type { %"struct.notifications::SuppressionInfo" }
%"struct.notifications::SuppressionInfo" = type <{ %"class.base::Time", %"class.base::TimeDelta", i32, [4 x i8] }>
%"class.absl::optional.572" = type { %"class.absl::optional_internal::optional_data.573" }
%"class.absl::optional_internal::optional_data.573" = type { %"class.absl::optional_internal::optional_data_base.574" }
%"class.absl::optional_internal::optional_data_base.574" = type { %"class.absl::optional_internal::optional_data_dtor_base.575" }
%"class.absl::optional_internal::optional_data_dtor_base.575" = type { i8, %union.anon.576 }
%union.anon.576 = type { %"class.base::Time" }
%"class.std::__1::__compressed_pair.577" = type { %"struct.std::__1::__compressed_pair_elem.578" }
%"struct.std::__1::__compressed_pair_elem.578" = type { %"struct.std::__1::pair.548"* }
%"class.base::OnceCallback.585" = type { %"class.base::internal::CallbackBase" }
%"class.base::OnceCallback.586" = type { %"class.base::internal::CallbackBase" }
%"class.base::OnceCallback.587" = type { %"class.base::internal::CallbackBase" }
%"class.notifications::proto::ClientState" = type <{ %"class.google::protobuf::MessageLite", %"class.google::protobuf::internal::HasBits", %"class.google::protobuf::internal::CachedSize", %"class.google::protobuf::RepeatedPtrField", %"class.notifications::proto::SuppressionInfo"*, i32, i32, i64, i64, i32, [4 x i8] }>
%"class.google::protobuf::RepeatedPtrField" = type { %"class.google::protobuf::internal::RepeatedPtrFieldBase" }
%"class.google::protobuf::internal::RepeatedPtrFieldBase" = type { %"class.google::protobuf::Arena"*, i32, i32, %"struct.google::protobuf::internal::RepeatedPtrFieldBase::Rep"* }
%"struct.google::protobuf::internal::RepeatedPtrFieldBase::Rep" = type { i32, [268435454 x i8*] }
%"class.notifications::proto::SuppressionInfo" = type <{ %"class.google::protobuf::MessageLite", %"class.google::protobuf::internal::HasBits", %"class.google::protobuf::internal::CachedSize", i64, i64, i32, [4 x i8] }>
%"struct.std::__1::__tuple_impl.590" = type { %"class.std::__1::__tuple_leaf.591", %"class.std::__1::__tuple_leaf.342", %"class.std::__1::__tuple_leaf.343", %"class.std::__1::__tuple_leaf.344" }
%"class.std::__1::__tuple_leaf.591" = type { %"class.std::__1::unique_ptr.543" }
%"class.std::__1::unique_ptr.543" = type { %"class.std::__1::__compressed_pair.544" }
%"class.std::__1::__compressed_pair.544" = type { %"struct.std::__1::__compressed_pair_elem.545" }
%"struct.std::__1::__compressed_pair_elem.545" = type { %"class.std::__1::vector.546"* }
%"class.std::__1::vector.606" = type { %"class.std::__1::__vector_base.607" }
%"class.std::__1::__vector_base.607" = type { %"struct.notifications::ClientState"*, %"struct.notifications::ClientState"*, %"class.std::__1::__compressed_pair.608" }
%"class.std::__1::__compressed_pair.608" = type { %"struct.std::__1::__compressed_pair_elem.609" }
%"struct.std::__1::__compressed_pair_elem.609" = type { %"struct.notifications::ClientState"* }
%"class.std::__1::unique_ptr.603" = type { %"class.std::__1::__compressed_pair.604" }
%"class.std::__1::__compressed_pair.604" = type { %"struct.std::__1::__compressed_pair_elem.605" }
%"struct.std::__1::__compressed_pair_elem.605" = type { %"class.std::__1::vector.606"* }
%"class.std::__1::__tree.633" = type { %"class.std::__1::__tree_end_node"*, %"class.std::__1::__compressed_pair.634", %"class.std::__1::__compressed_pair.638" }
%"class.std::__1::__compressed_pair.634" = type { %"struct.std::__1::__compressed_pair_elem.5" }
%"class.std::__1::__compressed_pair.638" = type { %"struct.std::__1::__compressed_pair_elem.8" }
%"class.std::__1::__tree_node.649" = type { %"class.std::__1::__tree_node_base.base", %"struct.std::__1::__value_type.650" }
%"struct.std::__1::__value_type.650" = type { %"struct.std::__1::pair.648" }
%"struct.std::__1::pair.648" = type { %"class.std::__1::basic_string", %"struct.notifications::ClientState" }
%"class.std::__1::unique_ptr.629" = type { %"class.std::__1::__compressed_pair.630" }
%"class.std::__1::__compressed_pair.630" = type { %"struct.std::__1::__compressed_pair_elem.631" }
%"struct.std::__1::__compressed_pair_elem.631" = type { %"class.std::__1::map.632"* }
%"class.std::__1::map.632" = type { %"class.std::__1::__tree.633" }
%"class.std::__1::unique_ptr.669" = type { %"class.std::__1::__compressed_pair.670" }
%"class.std::__1::__compressed_pair.670" = type { %"struct.std::__1::__compressed_pair_elem.609" }
%"class.leveldb_proto::ProtoDatabaseImpl.682" = type { %"class.leveldb_proto::ProtoDatabase.184", i32, %class.scoped_refptr.269, i8, %class.scoped_refptr.31, %"class.base::FilePath" }
%"class.std::__1::vector.689" = type { %"class.std::__1::__vector_base.690" }
%"class.std::__1::__vector_base.690" = type { %"struct.std::__1::pair.691"*, %"struct.std::__1::pair.691"*, %"class.std::__1::__compressed_pair.728" }
%"struct.std::__1::pair.691" = type { %"class.std::__1::basic_string", %"struct.notifications::NotificationEntry" }
%"struct.notifications::NotificationEntry" = type { i32, %"class.std::__1::basic_string", %"class.base::Time", %"struct.notifications::NotificationData", %"class.std::__1::map.719", %"struct.notifications::ScheduleParams" }
%"struct.notifications::NotificationData" = type { %"class.std::__1::basic_string.692", %"class.std::__1::basic_string.692", %"class.std::__1::map.701", %"class.std::__1::map.432", %"class.std::__1::vector.712" }
%"class.std::__1::basic_string.692" = type { %"class.std::__1::__compressed_pair.693" }
%"class.std::__1::__compressed_pair.693" = type { %"struct.std::__1::__compressed_pair_elem.694" }
%"struct.std::__1::__compressed_pair_elem.694" = type { %"struct.std::__1::basic_string<char16_t, std::__1::char_traits<char16_t>, std::__1::allocator<char16_t> >::__rep" }
%"struct.std::__1::basic_string<char16_t, std::__1::char_traits<char16_t>, std::__1::allocator<char16_t> >::__rep" = type { %union.anon.695 }
%union.anon.695 = type { %"struct.std::__1::basic_string<char16_t, std::__1::char_traits<char16_t>, std::__1::allocator<char16_t> >::__long" }
%"struct.std::__1::basic_string<char16_t, std::__1::char_traits<char16_t>, std::__1::allocator<char16_t> >::__long" = type { i16*, i64, i64 }
%"class.std::__1::map.701" = type { %"class.std::__1::__tree.702" }
%"class.std::__1::__tree.702" = type { %"class.std::__1::__tree_end_node"*, %"class.std::__1::__compressed_pair.703", %"class.std::__1::__compressed_pair.707" }
%"class.std::__1::__compressed_pair.703" = type { %"struct.std::__1::__compressed_pair_elem.5" }
%"class.std::__1::__compressed_pair.707" = type { %"struct.std::__1::__compressed_pair_elem.8" }
%"class.std::__1::vector.712" = type { %"class.std::__1::__vector_base.713" }
%"class.std::__1::__vector_base.713" = type { %"struct.notifications::NotificationData::Button"*, %"struct.notifications::NotificationData::Button"*, %"class.std::__1::__compressed_pair.714" }
%"struct.notifications::NotificationData::Button" = type { %"class.std::__1::basic_string.692", i32, %"class.std::__1::basic_string" }
%"class.std::__1::__compressed_pair.714" = type { %"struct.std::__1::__compressed_pair_elem.715" }
%"struct.std::__1::__compressed_pair_elem.715" = type { %"struct.notifications::NotificationData::Button"* }
%"class.std::__1::map.719" = type { %"class.std::__1::__tree.720" }
%"class.std::__1::__tree.720" = type { %"class.std::__1::__tree_end_node"*, %"class.std::__1::__compressed_pair.721", %"class.std::__1::__compressed_pair.725" }
%"class.std::__1::__compressed_pair.721" = type { %"struct.std::__1::__compressed_pair_elem.5" }
%"class.std::__1::__compressed_pair.725" = type { %"struct.std::__1::__compressed_pair_elem.8" }
%"struct.notifications::ScheduleParams" = type { i32, %"class.std::__1::map.551", %"class.absl::optional.572", %"class.absl::optional.572", %"class.absl::optional.562" }
%"class.std::__1::__compressed_pair.728" = type { %"struct.std::__1::__compressed_pair_elem.729" }
%"struct.std::__1::__compressed_pair_elem.729" = type { %"struct.std::__1::pair.691"* }
%"class.base::OnceCallback.736" = type { %"class.base::internal::CallbackBase" }
%"class.base::OnceCallback.737" = type { %"class.base::internal::CallbackBase" }
%"class.base::OnceCallback.738" = type { %"class.base::internal::CallbackBase" }
%"class.notifications::proto::NotificationEntry" = type <{ %"class.google::protobuf::MessageLite", %"class.google::protobuf::internal::HasBits", %"class.google::protobuf::internal::CachedSize", %"struct.google::protobuf::internal::ArenaStringPtr", %"class.notifications::proto::NotificationData"*, %"class.notifications::proto::ScheduleParams"*, i64, i32, [4 x i8] }>
%"class.notifications::proto::NotificationData" = type { %"class.google::protobuf::MessageLite", %"class.google::protobuf::internal::HasBits", %"class.google::protobuf::internal::CachedSize", %"class.google::protobuf::RepeatedPtrField.745", %"class.google::protobuf::RepeatedPtrField.746", %"class.google::protobuf::RepeatedPtrField.747", %"struct.google::protobuf::internal::ArenaStringPtr", %"struct.google::protobuf::internal::ArenaStringPtr" }
%"class.google::protobuf::RepeatedPtrField.745" = type { %"class.google::protobuf::internal::RepeatedPtrFieldBase" }
%"class.google::protobuf::RepeatedPtrField.746" = type { %"class.google::protobuf::internal::RepeatedPtrFieldBase" }
%"class.google::protobuf::RepeatedPtrField.747" = type { %"class.google::protobuf::internal::RepeatedPtrFieldBase" }
%"class.notifications::proto::ScheduleParams" = type <{ %"class.google::protobuf::MessageLite", %"class.google::protobuf::internal::HasBits", %"class.google::protobuf::internal::CachedSize", %"class.google::protobuf::RepeatedPtrField.748", i64, i64, i64, i32, [4 x i8] }>
%"class.google::protobuf::RepeatedPtrField.748" = type { %"class.google::protobuf::internal::RepeatedPtrFieldBase" }
%"struct.std::__1::__tuple_impl.741" = type { %"class.std::__1::__tuple_leaf.742", %"class.std::__1::__tuple_leaf.342", %"class.std::__1::__tuple_leaf.343", %"class.std::__1::__tuple_leaf.344" }
%"class.std::__1::__tuple_leaf.742" = type { %"class.std::__1::unique_ptr.686" }
%"class.std::__1::unique_ptr.686" = type { %"class.std::__1::__compressed_pair.687" }
%"class.std::__1::__compressed_pair.687" = type { %"struct.std::__1::__compressed_pair_elem.688" }
%"struct.std::__1::__compressed_pair_elem.688" = type { %"class.std::__1::vector.689"* }
%"class.std::__1::vector.761" = type { %"class.std::__1::__vector_base.762" }
%"class.std::__1::__vector_base.762" = type { %"struct.notifications::NotificationEntry"*, %"struct.notifications::NotificationEntry"*, %"class.std::__1::__compressed_pair.763" }
%"class.std::__1::__compressed_pair.763" = type { %"struct.std::__1::__compressed_pair_elem.764" }
%"struct.std::__1::__compressed_pair_elem.764" = type { %"struct.notifications::NotificationEntry"* }
%"class.std::__1::unique_ptr.758" = type { %"class.std::__1::__compressed_pair.759" }
%"class.std::__1::__compressed_pair.759" = type { %"struct.std::__1::__compressed_pair_elem.760" }
%"struct.std::__1::__compressed_pair_elem.760" = type { %"class.std::__1::vector.761"* }
%"class.std::__1::__tree.788" = type { %"class.std::__1::__tree_end_node"*, %"class.std::__1::__compressed_pair.789", %"class.std::__1::__compressed_pair.793" }
%"class.std::__1::__compressed_pair.789" = type { %"struct.std::__1::__compressed_pair_elem.5" }
%"class.std::__1::__compressed_pair.793" = type { %"struct.std::__1::__compressed_pair_elem.8" }
%"class.std::__1::__tree_node.804" = type { %"class.std::__1::__tree_node_base.base", %"struct.std::__1::__value_type.805" }
%"struct.std::__1::__value_type.805" = type { %"struct.std::__1::pair.803" }
%"struct.std::__1::pair.803" = type { %"class.std::__1::basic_string", %"struct.notifications::NotificationEntry" }
%"class.std::__1::unique_ptr.784" = type { %"class.std::__1::__compressed_pair.785" }
%"class.std::__1::__compressed_pair.785" = type { %"struct.std::__1::__compressed_pair_elem.786" }
%"struct.std::__1::__compressed_pair_elem.786" = type { %"class.std::__1::map.787"* }
%"class.std::__1::map.787" = type { %"class.std::__1::__tree.788" }
%"class.std::__1::unique_ptr.824" = type { %"class.std::__1::__compressed_pair.825" }
%"class.std::__1::__compressed_pair.825" = type { %"struct.std::__1::__compressed_pair_elem.764" }

$_ZN13leveldb_proto21ProtoDatabaseProvider5GetDBIN13notifications5proto4IconENS2_9IconEntryEEENSt3__110unique_ptrINS_13ProtoDatabaseIT_T0_EENS6_14default_deleteISB_EEEENS_11ProtoDbTypeERKN4base8FilePathERK13scoped_refptrINSG_19SequencedTaskRunnerEE = comdat any

$_ZN13leveldb_proto21ProtoDatabaseProvider5GetDBIN13notifications5proto11ClientStateENS2_11ClientStateEEENSt3__110unique_ptrINS_13ProtoDatabaseIT_T0_EENS6_14default_deleteISB_EEEENS_11ProtoDbTypeERKN4base8FilePathERK13scoped_refptrINSG_19SequencedTaskRunnerEE = comdat any

$_ZN13leveldb_proto21ProtoDatabaseProvider5GetDBIN13notifications5proto17NotificationEntryENS2_17NotificationEntryEEENSt3__110unique_ptrINS_13ProtoDatabaseIT_T0_EENS6_14default_deleteISB_EEEENS_11ProtoDbTypeERKN4base8FilePathERK13scoped_refptrINSG_19SequencedTaskRunnerEE = comdat any

$_ZN13leveldb_proto17ProtoDatabaseImplIN13notifications5proto4IconENS1_9IconEntryEED2Ev = comdat any

$_ZN13leveldb_proto17ProtoDatabaseImplIN13notifications5proto4IconENS1_9IconEntryEED0Ev = comdat any

$_ZN13leveldb_proto17ProtoDatabaseImplIN13notifications5proto4IconENS1_9IconEntryEE4InitEN4base12OnceCallbackIFvNS_5Enums10InitStatusEEEE = comdat any

$_ZN13leveldb_proto17ProtoDatabaseImplIN13notifications5proto4IconENS1_9IconEntryEE4InitERKN11leveldb_env7OptionsEN4base12OnceCallbackIFvNS_5Enums10InitStatusEEEE = comdat any

$_ZN13leveldb_proto17ProtoDatabaseImplIN13notifications5proto4IconENS1_9IconEntryEE13UpdateEntriesENSt3__110unique_ptrINS6_6vectorINS6_4pairINS6_12basic_stringIcNS6_11char_traitsIcEENS6_9allocatorIcEEEES4_EENSD_ISG_EEEENS6_14default_deleteISI_EEEENS7_INS8_ISF_NSD_ISF_EEEENSJ_ISN_EEEEN4base12OnceCallbackIFvbEEE = comdat any

$_ZN13leveldb_proto17ProtoDatabaseImplIN13notifications5proto4IconENS1_9IconEntryEE29UpdateEntriesWithRemoveFilterENSt3__110unique_ptrINS6_6vectorINS6_4pairINS6_12basic_stringIcNS6_11char_traitsIcEENS6_9allocatorIcEEEES4_EENSD_ISG_EEEENS6_14default_deleteISI_EEEERKN4base17RepeatingCallbackIFbRKSF_EEENSM_12OnceCallbackIFvbEEE = comdat any

$_ZN13leveldb_proto17ProtoDatabaseImplIN13notifications5proto4IconENS1_9IconEntryEE11LoadEntriesEN4base12OnceCallbackIFvbNSt3__110unique_ptrINS8_6vectorIS4_NS8_9allocatorIS4_EEEENS8_14default_deleteISD_EEEEEEE = comdat any

$_ZN13leveldb_proto17ProtoDatabaseImplIN13notifications5proto4IconENS1_9IconEntryEE21LoadEntriesWithFilterERKN4base17RepeatingCallbackIFbRKNSt3__112basic_stringIcNS8_11char_traitsIcEENS8_9allocatorIcEEEEEEENS6_12OnceCallbackIFvbNS8_10unique_ptrINS8_6vectorIS4_NSC_IS4_EEEENS8_14default_deleteISP_EEEEEEE = comdat any

$_ZN13leveldb_proto17ProtoDatabaseImplIN13notifications5proto4IconENS1_9IconEntryEE21LoadEntriesWithFilterERKN4base17RepeatingCallbackIFbRKNSt3__112basic_stringIcNS8_11char_traitsIcEENS8_9allocatorIcEEEEEEERKN7leveldb11ReadOptionsESG_NS6_12OnceCallbackIFvbNS8_10unique_ptrINS8_6vectorIS4_NSC_IS4_EEEENS8_14default_deleteIST_EEEEEEE = comdat any

$_ZN13leveldb_proto17ProtoDatabaseImplIN13notifications5proto4IconENS1_9IconEntryEE18LoadKeysAndEntriesEN4base12OnceCallbackIFvbNSt3__110unique_ptrINS8_3mapINS8_12basic_stringIcNS8_11char_traitsIcEENS8_9allocatorIcEEEES4_NS8_4lessISG_EENSE_INS8_4pairIKSG_S4_EEEEEENS8_14default_deleteISN_EEEEEEE = comdat any

$_ZN13leveldb_proto17ProtoDatabaseImplIN13notifications5proto4IconENS1_9IconEntryEE28LoadKeysAndEntriesWithFilterERKN4base17RepeatingCallbackIFbRKNSt3__112basic_stringIcNS8_11char_traitsIcEENS8_9allocatorIcEEEEEEENS6_12OnceCallbackIFvbNS8_10unique_ptrINS8_3mapISE_S4_NS8_4lessISE_EENSC_INS8_4pairISF_S4_EEEEEENS8_14default_deleteIST_EEEEEEE = comdat any

$_ZN13leveldb_proto17ProtoDatabaseImplIN13notifications5proto4IconENS1_9IconEntryEE28LoadKeysAndEntriesWithFilterERKN4base17RepeatingCallbackIFbRKNSt3__112basic_stringIcNS8_11char_traitsIcEENS8_9allocatorIcEEEEEEERKN7leveldb11ReadOptionsESG_NS6_12OnceCallbackIFvbNS8_10unique_ptrINS8_3mapISE_S4_NS8_4lessISE_EENSC_INS8_4pairISF_S4_EEEEEENS8_14default_deleteISX_EEEEEEE = comdat any

$_ZN13leveldb_proto17ProtoDatabaseImplIN13notifications5proto4IconENS1_9IconEntryEE25LoadKeysAndEntriesInRangeERKNSt3__112basic_stringIcNS6_11char_traitsIcEENS6_9allocatorIcEEEESE_N4base12OnceCallbackIFvbNS6_10unique_ptrINS6_3mapISC_S4_NS6_4lessISC_EENSA_INS6_4pairISD_S4_EEEEEENS6_14default_deleteISO_EEEEEEE = comdat any

$_ZN13leveldb_proto17ProtoDatabaseImplIN13notifications5proto4IconENS1_9IconEntryEE8LoadKeysEN4base12OnceCallbackIFvbNSt3__110unique_ptrINS8_6vectorINS8_12basic_stringIcNS8_11char_traitsIcEENS8_9allocatorIcEEEENSE_ISG_EEEENS8_14default_deleteISI_EEEEEEE = comdat any

$_ZN13leveldb_proto17ProtoDatabaseImplIN13notifications5proto4IconENS1_9IconEntryEE8GetEntryERKNSt3__112basic_stringIcNS6_11char_traitsIcEENS6_9allocatorIcEEEEN4base12OnceCallbackIFvbNS6_10unique_ptrIS4_NS6_14default_deleteIS4_EEEEEEE = comdat any

$_ZN13leveldb_proto17ProtoDatabaseImplIN13notifications5proto4IconENS1_9IconEntryEE7DestroyEN4base12OnceCallbackIFvbEEE = comdat any

$_ZN4base8internal7InvokerINS0_9BindStateIMN13leveldb_proto21ProtoDatabaseSelectorEFvRKNSt3__112basic_stringIcNS5_11char_traitsIcEENS5_9allocatorIcEEEENS_8FilePathERKN11leveldb_env7OptionsEb13scoped_refptrINS_19SequencedTaskRunnerEENS_12OnceCallbackIFvNS3_5Enums10InitStatusEEEEEJSJ_IS4_ESB_SE_SG_bSL_SQ_EEEFvvEE7RunOnceEPNS0_13BindStateBaseE = comdat any

$_ZN4base8internal9BindStateIMN13leveldb_proto21ProtoDatabaseSelectorEFvRKNSt3__112basic_stringIcNS4_11char_traitsIcEENS4_9allocatorIcEEEENS_8FilePathERKN11leveldb_env7OptionsEb13scoped_refptrINS_19SequencedTaskRunnerEENS_12OnceCallbackIFvNS2_5Enums10InitStatusEEEEEJSI_IS3_ESA_SD_SF_bSK_SP_EE7DestroyEPKNS0_13BindStateBaseE = comdat any

$_ZNSt3__112__tuple_implINS_15__tuple_indicesIJLm0ELm1ELm2ELm3ELm4ELm5ELm6EEEEJ13scoped_refptrIN13leveldb_proto21ProtoDatabaseSelectorEENS_12basic_stringIcNS_11char_traitsIcEENS_9allocatorIcEEEEN4base8FilePathEN11leveldb_env7OptionsEbS3_INSD_19SequencedTaskRunnerEENSD_12OnceCallbackIFvNS4_5Enums10InitStatusEEEEEED2Ev = comdat any

$_ZN13leveldb_proto17ProtoDatabaseImplIN13notifications5proto4IconENS1_9IconEntryEE15PostTransactionEN4base12OnceCallbackIFvvEEE = comdat any

$_ZN4base8internal7InvokerINS0_9BindStateIPFvNSt3__110unique_ptrINS3_6vectorINS3_4pairINS3_12basic_stringIcNS3_11char_traitsIcEENS3_9allocatorIcEEEEN13notifications9IconEntryEEENSA_ISF_EEEENS3_14default_deleteISH_EEEENS4_INS5_ISC_NSA_ISC_EEEENSI_ISM_EEEE13scoped_refptrIN13leveldb_proto21ProtoDatabaseSelectorEENS_12OnceCallbackIFvbEEEEJSK_SO_SS_SV_EEEFvvEE7RunOnceEPNS0_13BindStateBaseE = comdat any

$_ZN4base8internal9BindStateIPFvNSt3__110unique_ptrINS2_6vectorINS2_4pairINS2_12basic_stringIcNS2_11char_traitsIcEENS2_9allocatorIcEEEEN13notifications9IconEntryEEENS9_ISE_EEEENS2_14default_deleteISG_EEEENS3_INS4_ISB_NS9_ISB_EEEENSH_ISL_EEEE13scoped_refptrIN13leveldb_proto21ProtoDatabaseSelectorEENS_12OnceCallbackIFvbEEEEJSJ_SN_SR_SU_EE7DestroyEPKNS0_13BindStateBaseE = comdat any

$_ZNSt3__112__tuple_implINS_15__tuple_indicesIJLm0ELm1ELm2ELm3EEEEJNS_10unique_ptrINS_6vectorINS_4pairINS_12basic_stringIcNS_11char_traitsIcEENS_9allocatorIcEEEEN13notifications9IconEntryEEENS9_ISE_EEEENS_14default_deleteISG_EEEENS3_INS4_ISB_NS9_ISB_EEEENSH_ISL_EEEE13scoped_refptrIN13leveldb_proto21ProtoDatabaseSelectorEEN4base12OnceCallbackIFvbEEEEED2Ev = comdat any

$_ZNSt3__16vectorINS_4pairINS_12basic_stringIcNS_11char_traitsIcEENS_9allocatorIcEEEES7_EENS5_IS8_EEE21__push_back_slow_pathIS8_EEvOT_ = comdat any

$_ZN4base8internal7InvokerINS0_9BindStateIPFv13scoped_refptrINS_19SequencedTaskRunnerEENS_12OnceCallbackIFvbEEEbEJS5_S8_EEES7_E7RunOnceEPNS0_13BindStateBaseEb = comdat any

$_ZN4base8internal9BindStateIPFv13scoped_refptrINS_19SequencedTaskRunnerEENS_12OnceCallbackIFvbEEEbEJS4_S7_EE7DestroyEPKNS0_13BindStateBaseE = comdat any

$_ZN4base8internal7InvokerINS0_9BindStateIMN13leveldb_proto21ProtoDatabaseSelectorEFvNS_12OnceCallbackIFvvEEEEJ13scoped_refptrIS4_ES7_EEES6_E7RunOnceEPNS0_13BindStateBaseE = comdat any

$_ZN4base8internal9BindStateIMN13leveldb_proto21ProtoDatabaseSelectorEFvNS_12OnceCallbackIFvvEEEEJ13scoped_refptrIS3_ES6_EE7DestroyEPKNS0_13BindStateBaseE = comdat any

$_ZN4base8internal7InvokerINS0_9BindStateIPFvNSt3__110unique_ptrINS3_6vectorINS3_4pairINS3_12basic_stringIcNS3_11char_traitsIcEENS3_9allocatorIcEEEEN13notifications9IconEntryEEENSA_ISF_EEEENS3_14default_deleteISH_EEEERKNS_17RepeatingCallbackIFbRKSC_EEE13scoped_refptrIN13leveldb_proto21ProtoDatabaseSelectorEENS_12OnceCallbackIFvbEEEEJSK_SP_SV_SY_EEEFvvEE7RunOnceEPNS0_13BindStateBaseE = comdat any

$_ZN4base8internal9BindStateIPFvNSt3__110unique_ptrINS2_6vectorINS2_4pairINS2_12basic_stringIcNS2_11char_traitsIcEENS2_9allocatorIcEEEEN13notifications9IconEntryEEENS9_ISE_EEEENS2_14default_deleteISG_EEEERKNS_17RepeatingCallbackIFbRKSB_EEE13scoped_refptrIN13leveldb_proto21ProtoDatabaseSelectorEENS_12OnceCallbackIFvbEEEEJSJ_SO_SU_SX_EE7DestroyEPKNS0_13BindStateBaseE = comdat any

$_ZN4base8internal7InvokerINS0_9BindStateIMN13leveldb_proto21ProtoDatabaseSelectorEFvRKNS_17RepeatingCallbackIFbRKNSt3__112basic_stringIcNS6_11char_traitsIcEENS6_9allocatorIcEEEEEEERKN7leveldb11ReadOptionsESE_NS_12OnceCallbackIFvbNS6_10unique_ptrINS6_6vectorISC_NSA_ISC_EEEENS6_14default_deleteISR_EEEEEEEEJ13scoped_refptrIS4_ESG_SK_SC_SW_EEEFvvEE7RunOnceEPNS0_13BindStateBaseE = comdat any

$_ZN4base8internal9BindStateIMN13leveldb_proto21ProtoDatabaseSelectorEFvRKNS_17RepeatingCallbackIFbRKNSt3__112basic_stringIcNS5_11char_traitsIcEENS5_9allocatorIcEEEEEEERKN7leveldb11ReadOptionsESD_NS_12OnceCallbackIFvbNS5_10unique_ptrINS5_6vectorISB_NS9_ISB_EEEENS5_14default_deleteISQ_EEEEEEEEJ13scoped_refptrIS3_ESF_SJ_SB_SV_EE7DestroyEPKNS0_13BindStateBaseE = comdat any

$_ZN4base8internal7InvokerINS0_9BindStateIPFv13scoped_refptrINS_19SequencedTaskRunnerEENS_12OnceCallbackIFvbNSt3__110unique_ptrINS7_6vectorIN13notifications9IconEntryENS7_9allocatorISB_EEEENS7_14default_deleteISE_EEEEEEEbNS8_INS9_INS7_12basic_stringIcNS7_11char_traitsIcEENSC_IcEEEENSC_ISO_EEEENSF_ISQ_EEEEEJS5_SJ_EEEFvbSS_EE7RunOnceEPNS0_13BindStateBaseEbOSS_ = comdat any

$_ZN4base8internal9BindStateIPFv13scoped_refptrINS_19SequencedTaskRunnerEENS_12OnceCallbackIFvbNSt3__110unique_ptrINS6_6vectorIN13notifications9IconEntryENS6_9allocatorISA_EEEENS6_14default_deleteISD_EEEEEEEbNS7_INS8_INS6_12basic_stringIcNS6_11char_traitsIcEENSB_IcEEEENSB_ISN_EEEENSE_ISP_EEEEEJS4_SI_EE7DestroyEPKNS0_13BindStateBaseE = comdat any

$_ZNSt3__16vectorIN13notifications9IconEntryENS_9allocatorIS2_EEE24__emplace_back_slow_pathIJS2_EEEvDpOT_ = comdat any

$_ZN4base8internal7InvokerINS0_9BindStateINS_12OnceCallbackIFvbNSt3__110unique_ptrINS4_6vectorIN13notifications9IconEntryENS4_9allocatorIS8_EEEENS4_14default_deleteISB_EEEEEEEJbSE_EEEFvvEE7RunOnceEPNS0_13BindStateBaseE = comdat any

$_ZNO4base12OnceCallbackIFvbNSt3__110unique_ptrINS1_6vectorIN13notifications9IconEntryENS1_9allocatorIS5_EEEENS1_14default_deleteIS8_EEEEEE3RunEbSB_ = comdat any

$_ZN4base8internal9BindStateINS_12OnceCallbackIFvbNSt3__110unique_ptrINS3_6vectorIN13notifications9IconEntryENS3_9allocatorIS7_EEEENS3_14default_deleteISA_EEEEEEEJbSD_EE7DestroyEPKNS0_13BindStateBaseE = comdat any

$_ZN4base8internal23QueryCancellationTraitsINS0_9BindStateINS_12OnceCallbackIFvbNSt3__110unique_ptrINS4_6vectorIN13notifications9IconEntryENS4_9allocatorIS8_EEEENS4_14default_deleteISB_EEEEEEEJbSE_EEEEEbPKNS0_13BindStateBaseENSI_21CancellationQueryModeE = comdat any

$_ZN4base8internal7InvokerINS0_9BindStateIMN13leveldb_proto21ProtoDatabaseSelectorEFvRKNS_17RepeatingCallbackIFbRKNSt3__112basic_stringIcNS6_11char_traitsIcEENS6_9allocatorIcEEEEEEERKN7leveldb11ReadOptionsESE_NS_12OnceCallbackIFvbNS6_10unique_ptrINS6_3mapISC_SC_NS6_4lessISC_EENSA_INS6_4pairISD_SC_EEEEEENS6_14default_deleteISV_EEEEEEEEJ13scoped_refptrIS4_ESG_SK_SC_S10_EEEFvvEE7RunOnceEPNS0_13BindStateBaseE = comdat any

$_ZN4base8internal9BindStateIMN13leveldb_proto21ProtoDatabaseSelectorEFvRKNS_17RepeatingCallbackIFbRKNSt3__112basic_stringIcNS5_11char_traitsIcEENS5_9allocatorIcEEEEEEERKN7leveldb11ReadOptionsESD_NS_12OnceCallbackIFvbNS5_10unique_ptrINS5_3mapISB_SB_NS5_4lessISB_EENS9_INS5_4pairISC_SB_EEEEEENS5_14default_deleteISU_EEEEEEEEJ13scoped_refptrIS3_ESF_SJ_SB_SZ_EE7DestroyEPKNS0_13BindStateBaseE = comdat any

$_ZN4base8internal7InvokerINS0_9BindStateIPFv13scoped_refptrINS_19SequencedTaskRunnerEENS_12OnceCallbackIFvbNSt3__110unique_ptrINS7_3mapINS7_12basic_stringIcNS7_11char_traitsIcEENS7_9allocatorIcEEEEN13notifications9IconEntryENS7_4lessISF_EENSD_INS7_4pairIKSF_SH_EEEEEENS7_14default_deleteISO_EEEEEEEbNS8_INS9_ISF_SF_SJ_NSD_INSK_ISL_SF_EEEEEENSP_ISW_EEEEEJS5_ST_EEEFvbSY_EE7RunOnceEPNS0_13BindStateBaseEbOSY_ = comdat any

$_ZN4base8internal9BindStateIPFv13scoped_refptrINS_19SequencedTaskRunnerEENS_12OnceCallbackIFvbNSt3__110unique_ptrINS6_3mapINS6_12basic_stringIcNS6_11char_traitsIcEENS6_9allocatorIcEEEEN13notifications9IconEntryENS6_4lessISE_EENSC_INS6_4pairIKSE_SG_EEEEEENS6_14default_deleteISN_EEEEEEEbNS7_INS8_ISE_SE_SI_NSC_INSJ_ISK_SE_EEEEEENSO_ISV_EEEEEJS4_SS_EE7DestroyEPKNS0_13BindStateBaseE = comdat any

$_ZNSt3__16__treeINS_12__value_typeINS_12basic_stringIcNS_11char_traitsIcEENS_9allocatorIcEEEEN13notifications9IconEntryEEENS_19__map_value_compareIS7_SA_NS_4lessIS7_EELb1EEENS5_ISA_EEE7destroyEPNS_11__tree_nodeISA_PvEE = comdat any

$_ZNSt3__16__treeINS_12__value_typeINS_12basic_stringIcNS_11char_traitsIcEENS_9allocatorIcEEEEN13notifications9IconEntryEEENS_19__map_value_compareIS7_SA_NS_4lessIS7_EELb1EEENS5_ISA_EEE25__emplace_unique_key_argsIS7_JRKS7_S9_EEENS_4pairINS_15__tree_iteratorISA_PNS_11__tree_nodeISA_PvEElEEbEERKT_DpOT0_ = comdat any

$_ZNSt3__16__treeINS_12__value_typeINS_12basic_stringIcNS_11char_traitsIcEENS_9allocatorIcEEEEN13notifications9IconEntryEEENS_19__map_value_compareIS7_SA_NS_4lessIS7_EELb1EEENS5_ISA_EEE12__find_equalIS7_EERPNS_16__tree_node_baseIPvEERPNS_15__tree_end_nodeISL_EERKT_ = comdat any

$_ZNSt3__127__tree_balance_after_insertIPNS_16__tree_node_baseIPvEEEEvT_S5_ = comdat any

$_ZN4base8internal7InvokerINS0_9BindStateINS_12OnceCallbackIFvbNSt3__110unique_ptrINS4_3mapINS4_12basic_stringIcNS4_11char_traitsIcEENS4_9allocatorIcEEEEN13notifications9IconEntryENS4_4lessISC_EENSA_INS4_4pairIKSC_SE_EEEEEENS4_14default_deleteISL_EEEEEEEJbSO_EEEFvvEE7RunOnceEPNS0_13BindStateBaseE = comdat any

$_ZN4base8internal9BindStateINS_12OnceCallbackIFvbNSt3__110unique_ptrINS3_3mapINS3_12basic_stringIcNS3_11char_traitsIcEENS3_9allocatorIcEEEEN13notifications9IconEntryENS3_4lessISB_EENS9_INS3_4pairIKSB_SD_EEEEEENS3_14default_deleteISK_EEEEEEEJbSN_EE7DestroyEPKNS0_13BindStateBaseE = comdat any

$_ZN4base8internal23QueryCancellationTraitsINS0_9BindStateINS_12OnceCallbackIFvbNSt3__110unique_ptrINS4_3mapINS4_12basic_stringIcNS4_11char_traitsIcEENS4_9allocatorIcEEEEN13notifications9IconEntryENS4_4lessISC_EENSA_INS4_4pairIKSC_SE_EEEEEENS4_14default_deleteISL_EEEEEEEJbSO_EEEEEbPKNS0_13BindStateBaseENSS_21CancellationQueryModeE = comdat any

$_ZNSt3__16__treeINS_12__value_typeINS_12basic_stringIcNS_11char_traitsIcEENS_9allocatorIcEEEES7_EENS_19__map_value_compareIS7_S8_NS_4lessIS7_EELb1EEENS5_IS8_EEE7destroyEPNS_11__tree_nodeIS8_PvEE = comdat any

$_ZN4base8internal7InvokerINS0_9BindStateIMN13leveldb_proto21ProtoDatabaseSelectorEFvRKNSt3__112basic_stringIcNS5_11char_traitsIcEENS5_9allocatorIcEEEESD_NS_12OnceCallbackIFvbNS5_10unique_ptrINS5_3mapISB_SB_NS5_4lessISB_EENS9_INS5_4pairISC_SB_EEEEEENS5_14default_deleteISM_EEEEEEEEJ13scoped_refptrIS4_ESB_SB_SR_EEEFvvEE7RunOnceEPNS0_13BindStateBaseE = comdat any

$_ZN4base8internal9BindStateIMN13leveldb_proto21ProtoDatabaseSelectorEFvRKNSt3__112basic_stringIcNS4_11char_traitsIcEENS4_9allocatorIcEEEESC_NS_12OnceCallbackIFvbNS4_10unique_ptrINS4_3mapISA_SA_NS4_4lessISA_EENS8_INS4_4pairISB_SA_EEEEEENS4_14default_deleteISL_EEEEEEEEJ13scoped_refptrIS3_ESA_SA_SQ_EE7DestroyEPKNS0_13BindStateBaseE = comdat any

$_ZN4base8internal7InvokerINS0_9BindStateIMN13leveldb_proto21ProtoDatabaseSelectorEFvNS_12OnceCallbackIFvbNSt3__110unique_ptrINS6_6vectorINS6_12basic_stringIcNS6_11char_traitsIcEENS6_9allocatorIcEEEENSC_ISE_EEEENS6_14default_deleteISG_EEEEEEEEJ13scoped_refptrIS4_ESL_EEEFvvEE7RunOnceEPNS0_13BindStateBaseE = comdat any

$_ZN4base8internal9BindStateIMN13leveldb_proto21ProtoDatabaseSelectorEFvNS_12OnceCallbackIFvbNSt3__110unique_ptrINS5_6vectorINS5_12basic_stringIcNS5_11char_traitsIcEENS5_9allocatorIcEEEENSB_ISD_EEEENS5_14default_deleteISF_EEEEEEEEJ13scoped_refptrIS3_ESK_EE7DestroyEPKNS0_13BindStateBaseE = comdat any

$_ZN4base8internal7InvokerINS0_9BindStateIPFv13scoped_refptrINS_19SequencedTaskRunnerEENS_12OnceCallbackIFvbNSt3__110unique_ptrINS7_6vectorINS7_12basic_stringIcNS7_11char_traitsIcEENS7_9allocatorIcEEEENSD_ISF_EEEENS7_14default_deleteISH_EEEEEEEbSK_EJS5_SM_EEESL_E7RunOnceEPNS0_13BindStateBaseEbOSK_ = comdat any

$_ZN4base8internal9BindStateIPFv13scoped_refptrINS_19SequencedTaskRunnerEENS_12OnceCallbackIFvbNSt3__110unique_ptrINS6_6vectorINS6_12basic_stringIcNS6_11char_traitsIcEENS6_9allocatorIcEEEENSC_ISE_EEEENS6_14default_deleteISG_EEEEEEEbSJ_EJS4_SL_EE7DestroyEPKNS0_13BindStateBaseE = comdat any

$_ZN4base8internal7InvokerINS0_9BindStateIMN13leveldb_proto21ProtoDatabaseSelectorEFvRKNSt3__112basic_stringIcNS5_11char_traitsIcEENS5_9allocatorIcEEEENS_12OnceCallbackIFvbNS5_10unique_ptrISB_NS5_14default_deleteISB_EEEEEEEEJ13scoped_refptrIS4_ESB_SK_EEEFvvEE7RunOnceEPNS0_13BindStateBaseE = comdat any

$_ZN4base8internal9BindStateIMN13leveldb_proto21ProtoDatabaseSelectorEFvRKNSt3__112basic_stringIcNS4_11char_traitsIcEENS4_9allocatorIcEEEENS_12OnceCallbackIFvbNS4_10unique_ptrISA_NS4_14default_deleteISA_EEEEEEEEJ13scoped_refptrIS3_ESA_SJ_EE7DestroyEPKNS0_13BindStateBaseE = comdat any

$_ZN4base8internal7InvokerINS0_9BindStateIPFv13scoped_refptrINS_19SequencedTaskRunnerEENS_12OnceCallbackIFvbNSt3__110unique_ptrIN13notifications9IconEntryENS7_14default_deleteISA_EEEEEEEbNS8_INS7_12basic_stringIcNS7_11char_traitsIcEENS7_9allocatorIcEEEENSB_ISL_EEEEEJS5_SF_EEEFvbSN_EE7RunOnceEPNS0_13BindStateBaseEbOSN_ = comdat any

$_ZN4base8internal9BindStateIPFv13scoped_refptrINS_19SequencedTaskRunnerEENS_12OnceCallbackIFvbNSt3__110unique_ptrIN13notifications9IconEntryENS6_14default_deleteIS9_EEEEEEEbNS7_INS6_12basic_stringIcNS6_11char_traitsIcEENS6_9allocatorIcEEEENSA_ISK_EEEEEJS4_SE_EE7DestroyEPKNS0_13BindStateBaseE = comdat any

$_ZN4base8internal7InvokerINS0_9BindStateINS_12OnceCallbackIFvbNSt3__110unique_ptrIN13notifications9IconEntryENS4_14default_deleteIS7_EEEEEEEJbSA_EEEFvvEE7RunOnceEPNS0_13BindStateBaseE = comdat any

$_ZN4base8internal9BindStateINS_12OnceCallbackIFvbNSt3__110unique_ptrIN13notifications9IconEntryENS3_14default_deleteIS6_EEEEEEEJbS9_EE7DestroyEPKNS0_13BindStateBaseE = comdat any

$_ZN4base8internal23QueryCancellationTraitsINS0_9BindStateINS_12OnceCallbackIFvbNSt3__110unique_ptrIN13notifications9IconEntryENS4_14default_deleteIS7_EEEEEEEJbSA_EEEEEbPKNS0_13BindStateBaseENSE_21CancellationQueryModeE = comdat any

$_ZN4base8internal7InvokerINS0_9BindStateIMN13leveldb_proto21ProtoDatabaseSelectorEFvNS_12OnceCallbackIFvbEEEEJ13scoped_refptrIS4_ES7_EEEFvvEE7RunOnceEPNS0_13BindStateBaseE = comdat any

$_ZN4base8internal9BindStateIMN13leveldb_proto21ProtoDatabaseSelectorEFvNS_12OnceCallbackIFvbEEEEJ13scoped_refptrIS3_ES6_EE7DestroyEPKNS0_13BindStateBaseE = comdat any

$_ZN13leveldb_proto17ProtoDatabaseImplIN13notifications5proto11ClientStateENS1_11ClientStateEED2Ev = comdat any

$_ZN13leveldb_proto17ProtoDatabaseImplIN13notifications5proto11ClientStateENS1_11ClientStateEED0Ev = comdat any

$_ZN13leveldb_proto17ProtoDatabaseImplIN13notifications5proto11ClientStateENS1_11ClientStateEE4InitEN4base12OnceCallbackIFvNS_5Enums10InitStatusEEEE = comdat any

$_ZN13leveldb_proto17ProtoDatabaseImplIN13notifications5proto11ClientStateENS1_11ClientStateEE4InitERKN11leveldb_env7OptionsEN4base12OnceCallbackIFvNS_5Enums10InitStatusEEEE = comdat any

$_ZN13leveldb_proto17ProtoDatabaseImplIN13notifications5proto11ClientStateENS1_11ClientStateEE13UpdateEntriesENSt3__110unique_ptrINS6_6vectorINS6_4pairINS6_12basic_stringIcNS6_11char_traitsIcEENS6_9allocatorIcEEEES4_EENSD_ISG_EEEENS6_14default_deleteISI_EEEENS7_INS8_ISF_NSD_ISF_EEEENSJ_ISN_EEEEN4base12OnceCallbackIFvbEEE = comdat any

$_ZN13leveldb_proto17ProtoDatabaseImplIN13notifications5proto11ClientStateENS1_11ClientStateEE29UpdateEntriesWithRemoveFilterENSt3__110unique_ptrINS6_6vectorINS6_4pairINS6_12basic_stringIcNS6_11char_traitsIcEENS6_9allocatorIcEEEES4_EENSD_ISG_EEEENS6_14default_deleteISI_EEEERKN4base17RepeatingCallbackIFbRKSF_EEENSM_12OnceCallbackIFvbEEE = comdat any

$_ZN13leveldb_proto17ProtoDatabaseImplIN13notifications5proto11ClientStateENS1_11ClientStateEE11LoadEntriesEN4base12OnceCallbackIFvbNSt3__110unique_ptrINS8_6vectorIS4_NS8_9allocatorIS4_EEEENS8_14default_deleteISD_EEEEEEE = comdat any

$_ZN13leveldb_proto17ProtoDatabaseImplIN13notifications5proto11ClientStateENS1_11ClientStateEE21LoadEntriesWithFilterERKN4base17RepeatingCallbackIFbRKNSt3__112basic_stringIcNS8_11char_traitsIcEENS8_9allocatorIcEEEEEEENS6_12OnceCallbackIFvbNS8_10unique_ptrINS8_6vectorIS4_NSC_IS4_EEEENS8_14default_deleteISP_EEEEEEE = comdat any

$_ZN13leveldb_proto17ProtoDatabaseImplIN13notifications5proto11ClientStateENS1_11ClientStateEE21LoadEntriesWithFilterERKN4base17RepeatingCallbackIFbRKNSt3__112basic_stringIcNS8_11char_traitsIcEENS8_9allocatorIcEEEEEEERKN7leveldb11ReadOptionsESG_NS6_12OnceCallbackIFvbNS8_10unique_ptrINS8_6vectorIS4_NSC_IS4_EEEENS8_14default_deleteIST_EEEEEEE = comdat any

$_ZN13leveldb_proto17ProtoDatabaseImplIN13notifications5proto11ClientStateENS1_11ClientStateEE18LoadKeysAndEntriesEN4base12OnceCallbackIFvbNSt3__110unique_ptrINS8_3mapINS8_12basic_stringIcNS8_11char_traitsIcEENS8_9allocatorIcEEEES4_NS8_4lessISG_EENSE_INS8_4pairIKSG_S4_EEEEEENS8_14default_deleteISN_EEEEEEE = comdat any

$_ZN13leveldb_proto17ProtoDatabaseImplIN13notifications5proto11ClientStateENS1_11ClientStateEE28LoadKeysAndEntriesWithFilterERKN4base17RepeatingCallbackIFbRKNSt3__112basic_stringIcNS8_11char_traitsIcEENS8_9allocatorIcEEEEEEENS6_12OnceCallbackIFvbNS8_10unique_ptrINS8_3mapISE_S4_NS8_4lessISE_EENSC_INS8_4pairISF_S4_EEEEEENS8_14default_deleteIST_EEEEEEE = comdat any

$_ZN13leveldb_proto17ProtoDatabaseImplIN13notifications5proto11ClientStateENS1_11ClientStateEE28LoadKeysAndEntriesWithFilterERKN4base17RepeatingCallbackIFbRKNSt3__112basic_stringIcNS8_11char_traitsIcEENS8_9allocatorIcEEEEEEERKN7leveldb11ReadOptionsESG_NS6_12OnceCallbackIFvbNS8_10unique_ptrINS8_3mapISE_S4_NS8_4lessISE_EENSC_INS8_4pairISF_S4_EEEEEENS8_14default_deleteISX_EEEEEEE = comdat any

$_ZN13leveldb_proto17ProtoDatabaseImplIN13notifications5proto11ClientStateENS1_11ClientStateEE25LoadKeysAndEntriesInRangeERKNSt3__112basic_stringIcNS6_11char_traitsIcEENS6_9allocatorIcEEEESE_N4base12OnceCallbackIFvbNS6_10unique_ptrINS6_3mapISC_S4_NS6_4lessISC_EENSA_INS6_4pairISD_S4_EEEEEENS6_14default_deleteISO_EEEEEEE = comdat any

$_ZN13leveldb_proto17ProtoDatabaseImplIN13notifications5proto11ClientStateENS1_11ClientStateEE8LoadKeysEN4base12OnceCallbackIFvbNSt3__110unique_ptrINS8_6vectorINS8_12basic_stringIcNS8_11char_traitsIcEENS8_9allocatorIcEEEENSE_ISG_EEEENS8_14default_deleteISI_EEEEEEE = comdat any

$_ZN13leveldb_proto17ProtoDatabaseImplIN13notifications5proto11ClientStateENS1_11ClientStateEE8GetEntryERKNSt3__112basic_stringIcNS6_11char_traitsIcEENS6_9allocatorIcEEEEN4base12OnceCallbackIFvbNS6_10unique_ptrIS4_NS6_14default_deleteIS4_EEEEEEE = comdat any

$_ZN13leveldb_proto17ProtoDatabaseImplIN13notifications5proto11ClientStateENS1_11ClientStateEE7DestroyEN4base12OnceCallbackIFvbEEE = comdat any

$_ZN13leveldb_proto17ProtoDatabaseImplIN13notifications5proto11ClientStateENS1_11ClientStateEE15PostTransactionEN4base12OnceCallbackIFvvEEE = comdat any

$_ZN4base8internal7InvokerINS0_9BindStateIPFvNSt3__110unique_ptrINS3_6vectorINS3_4pairINS3_12basic_stringIcNS3_11char_traitsIcEENS3_9allocatorIcEEEEN13notifications11ClientStateEEENSA_ISF_EEEENS3_14default_deleteISH_EEEENS4_INS5_ISC_NSA_ISC_EEEENSI_ISM_EEEE13scoped_refptrIN13leveldb_proto21ProtoDatabaseSelectorEENS_12OnceCallbackIFvbEEEEJSK_SO_SS_SV_EEEFvvEE7RunOnceEPNS0_13BindStateBaseE = comdat any

$_ZN4base8internal9BindStateIPFvNSt3__110unique_ptrINS2_6vectorINS2_4pairINS2_12basic_stringIcNS2_11char_traitsIcEENS2_9allocatorIcEEEEN13notifications11ClientStateEEENS9_ISE_EEEENS2_14default_deleteISG_EEEENS3_INS4_ISB_NS9_ISB_EEEENSH_ISL_EEEE13scoped_refptrIN13leveldb_proto21ProtoDatabaseSelectorEENS_12OnceCallbackIFvbEEEEJSJ_SN_SR_SU_EE7DestroyEPKNS0_13BindStateBaseE = comdat any

$_ZNSt3__112__tuple_implINS_15__tuple_indicesIJLm0ELm1ELm2ELm3EEEEJNS_10unique_ptrINS_6vectorINS_4pairINS_12basic_stringIcNS_11char_traitsIcEENS_9allocatorIcEEEEN13notifications11ClientStateEEENS9_ISE_EEEENS_14default_deleteISG_EEEENS3_INS4_ISB_NS9_ISB_EEEENSH_ISL_EEEE13scoped_refptrIN13leveldb_proto21ProtoDatabaseSelectorEEN4base12OnceCallbackIFvbEEEEED2Ev = comdat any

$_ZN4base8internal7InvokerINS0_9BindStateIPFvNSt3__110unique_ptrINS3_6vectorINS3_4pairINS3_12basic_stringIcNS3_11char_traitsIcEENS3_9allocatorIcEEEEN13notifications11ClientStateEEENSA_ISF_EEEENS3_14default_deleteISH_EEEERKNS_17RepeatingCallbackIFbRKSC_EEE13scoped_refptrIN13leveldb_proto21ProtoDatabaseSelectorEENS_12OnceCallbackIFvbEEEEJSK_SP_SV_SY_EEEFvvEE7RunOnceEPNS0_13BindStateBaseE = comdat any

$_ZN4base8internal9BindStateIPFvNSt3__110unique_ptrINS2_6vectorINS2_4pairINS2_12basic_stringIcNS2_11char_traitsIcEENS2_9allocatorIcEEEEN13notifications11ClientStateEEENS9_ISE_EEEENS2_14default_deleteISG_EEEERKNS_17RepeatingCallbackIFbRKSB_EEE13scoped_refptrIN13leveldb_proto21ProtoDatabaseSelectorEENS_12OnceCallbackIFvbEEEEJSJ_SO_SU_SX_EE7DestroyEPKNS0_13BindStateBaseE = comdat any

$_ZN4base8internal7InvokerINS0_9BindStateIPFv13scoped_refptrINS_19SequencedTaskRunnerEENS_12OnceCallbackIFvbNSt3__110unique_ptrINS7_6vectorIN13notifications11ClientStateENS7_9allocatorISB_EEEENS7_14default_deleteISE_EEEEEEEbNS8_INS9_INS7_12basic_stringIcNS7_11char_traitsIcEENSC_IcEEEENSC_ISO_EEEENSF_ISQ_EEEEEJS5_SJ_EEEFvbSS_EE7RunOnceEPNS0_13BindStateBaseEbOSS_ = comdat any

$_ZN4base8internal9BindStateIPFv13scoped_refptrINS_19SequencedTaskRunnerEENS_12OnceCallbackIFvbNSt3__110unique_ptrINS6_6vectorIN13notifications11ClientStateENS6_9allocatorISA_EEEENS6_14default_deleteISD_EEEEEEEbNS7_INS8_INS6_12basic_stringIcNS6_11char_traitsIcEENSB_IcEEEENSB_ISN_EEEENSE_ISP_EEEEEJS4_SI_EE7DestroyEPKNS0_13BindStateBaseE = comdat any

$_ZNSt3__16vectorIN13notifications11ClientStateENS_9allocatorIS2_EEE24__emplace_back_slow_pathIJS2_EEEvDpOT_ = comdat any

$_ZN4base8internal7InvokerINS0_9BindStateINS_12OnceCallbackIFvbNSt3__110unique_ptrINS4_6vectorIN13notifications11ClientStateENS4_9allocatorIS8_EEEENS4_14default_deleteISB_EEEEEEEJbSE_EEEFvvEE7RunOnceEPNS0_13BindStateBaseE = comdat any

$_ZN4base8internal13FunctorTraitsINS_12OnceCallbackIFvbNSt3__110unique_ptrINS3_6vectorIN13notifications11ClientStateENS3_9allocatorIS7_EEEENS3_14default_deleteISA_EEEEEEEvE6InvokeISF_JbSD_EEEvOT_DpOT0_ = comdat any

$_ZN4base8internal9BindStateINS_12OnceCallbackIFvbNSt3__110unique_ptrINS3_6vectorIN13notifications11ClientStateENS3_9allocatorIS7_EEEENS3_14default_deleteISA_EEEEEEEJbSD_EE7DestroyEPKNS0_13BindStateBaseE = comdat any

$_ZN4base8internal23QueryCancellationTraitsINS0_9BindStateINS_12OnceCallbackIFvbNSt3__110unique_ptrINS4_6vectorIN13notifications11ClientStateENS4_9allocatorIS8_EEEENS4_14default_deleteISB_EEEEEEEJbSE_EEEEEbPKNS0_13BindStateBaseENSI_21CancellationQueryModeE = comdat any

$_ZN4base8internal7InvokerINS0_9BindStateIPFv13scoped_refptrINS_19SequencedTaskRunnerEENS_12OnceCallbackIFvbNSt3__110unique_ptrINS7_3mapINS7_12basic_stringIcNS7_11char_traitsIcEENS7_9allocatorIcEEEEN13notifications11ClientStateENS7_4lessISF_EENSD_INS7_4pairIKSF_SH_EEEEEENS7_14default_deleteISO_EEEEEEEbNS8_INS9_ISF_SF_SJ_NSD_INSK_ISL_SF_EEEEEENSP_ISW_EEEEEJS5_ST_EEEFvbSY_EE7RunOnceEPNS0_13BindStateBaseEbOSY_ = comdat any

$_ZN4base8internal9BindStateIPFv13scoped_refptrINS_19SequencedTaskRunnerEENS_12OnceCallbackIFvbNSt3__110unique_ptrINS6_3mapINS6_12basic_stringIcNS6_11char_traitsIcEENS6_9allocatorIcEEEEN13notifications11ClientStateENS6_4lessISE_EENSC_INS6_4pairIKSE_SG_EEEEEENS6_14default_deleteISN_EEEEEEEbNS7_INS8_ISE_SE_SI_NSC_INSJ_ISK_SE_EEEEEENSO_ISV_EEEEEJS4_SS_EE7DestroyEPKNS0_13BindStateBaseE = comdat any

$_ZNSt3__16__treeINS_12__value_typeINS_12basic_stringIcNS_11char_traitsIcEENS_9allocatorIcEEEEN13notifications11ClientStateEEENS_19__map_value_compareIS7_SA_NS_4lessIS7_EELb1EEENS5_ISA_EEE7destroyEPNS_11__tree_nodeISA_PvEE = comdat any

$_ZNSt3__16__treeINS_12__value_typeINS_12basic_stringIcNS_11char_traitsIcEENS_9allocatorIcEEEEN13notifications11ClientStateEEENS_19__map_value_compareIS7_SA_NS_4lessIS7_EELb1EEENS5_ISA_EEE25__emplace_unique_key_argsIS7_JRKS7_S9_EEENS_4pairINS_15__tree_iteratorISA_PNS_11__tree_nodeISA_PvEElEEbEERKT_DpOT0_ = comdat any

$_ZNSt3__16__treeINS_12__value_typeINS_12basic_stringIcNS_11char_traitsIcEENS_9allocatorIcEEEEN13notifications11ClientStateEEENS_19__map_value_compareIS7_SA_NS_4lessIS7_EELb1EEENS5_ISA_EEE12__find_equalIS7_EERPNS_16__tree_node_baseIPvEERPNS_15__tree_end_nodeISL_EERKT_ = comdat any

$_ZN4base8internal7InvokerINS0_9BindStateINS_12OnceCallbackIFvbNSt3__110unique_ptrINS4_3mapINS4_12basic_stringIcNS4_11char_traitsIcEENS4_9allocatorIcEEEEN13notifications11ClientStateENS4_4lessISC_EENSA_INS4_4pairIKSC_SE_EEEEEENS4_14default_deleteISL_EEEEEEEJbSO_EEEFvvEE7RunOnceEPNS0_13BindStateBaseE = comdat any

$_ZN4base8internal9BindStateINS_12OnceCallbackIFvbNSt3__110unique_ptrINS3_3mapINS3_12basic_stringIcNS3_11char_traitsIcEENS3_9allocatorIcEEEEN13notifications11ClientStateENS3_4lessISB_EENS9_INS3_4pairIKSB_SD_EEEEEENS3_14default_deleteISK_EEEEEEEJbSN_EE7DestroyEPKNS0_13BindStateBaseE = comdat any

$_ZN4base8internal23QueryCancellationTraitsINS0_9BindStateINS_12OnceCallbackIFvbNSt3__110unique_ptrINS4_3mapINS4_12basic_stringIcNS4_11char_traitsIcEENS4_9allocatorIcEEEEN13notifications11ClientStateENS4_4lessISC_EENSA_INS4_4pairIKSC_SE_EEEEEENS4_14default_deleteISL_EEEEEEEJbSO_EEEEEbPKNS0_13BindStateBaseENSS_21CancellationQueryModeE = comdat any

$_ZN4base8internal7InvokerINS0_9BindStateIPFv13scoped_refptrINS_19SequencedTaskRunnerEENS_12OnceCallbackIFvbNSt3__110unique_ptrIN13notifications11ClientStateENS7_14default_deleteISA_EEEEEEEbNS8_INS7_12basic_stringIcNS7_11char_traitsIcEENS7_9allocatorIcEEEENSB_ISL_EEEEEJS5_SF_EEEFvbSN_EE7RunOnceEPNS0_13BindStateBaseEbOSN_ = comdat any

$_ZN4base8internal9BindStateIPFv13scoped_refptrINS_19SequencedTaskRunnerEENS_12OnceCallbackIFvbNSt3__110unique_ptrIN13notifications11ClientStateENS6_14default_deleteIS9_EEEEEEEbNS7_INS6_12basic_stringIcNS6_11char_traitsIcEENS6_9allocatorIcEEEENSA_ISK_EEEEEJS4_SE_EE7DestroyEPKNS0_13BindStateBaseE = comdat any

$_ZN4base8internal7InvokerINS0_9BindStateINS_12OnceCallbackIFvbNSt3__110unique_ptrIN13notifications11ClientStateENS4_14default_deleteIS7_EEEEEEEJbSA_EEEFvvEE7RunOnceEPNS0_13BindStateBaseE = comdat any

$_ZN4base8internal9BindStateINS_12OnceCallbackIFvbNSt3__110unique_ptrIN13notifications11ClientStateENS3_14default_deleteIS6_EEEEEEEJbS9_EE7DestroyEPKNS0_13BindStateBaseE = comdat any

$_ZN4base8internal23QueryCancellationTraitsINS0_9BindStateINS_12OnceCallbackIFvbNSt3__110unique_ptrIN13notifications11ClientStateENS4_14default_deleteIS7_EEEEEEEJbSA_EEEEEbPKNS0_13BindStateBaseENSE_21CancellationQueryModeE = comdat any

$_ZN13leveldb_proto17ProtoDatabaseImplIN13notifications5proto17NotificationEntryENS1_17NotificationEntryEED2Ev = comdat any

$_ZN13leveldb_proto17ProtoDatabaseImplIN13notifications5proto17NotificationEntryENS1_17NotificationEntryEED0Ev = comdat any

$_ZN13leveldb_proto17ProtoDatabaseImplIN13notifications5proto17NotificationEntryENS1_17NotificationEntryEE4InitEN4base12OnceCallbackIFvNS_5Enums10InitStatusEEEE = comdat any

$_ZN13leveldb_proto17ProtoDatabaseImplIN13notifications5proto17NotificationEntryENS1_17NotificationEntryEE4InitERKN11leveldb_env7OptionsEN4base12OnceCallbackIFvNS_5Enums10InitStatusEEEE = comdat any

$_ZN13leveldb_proto17ProtoDatabaseImplIN13notifications5proto17NotificationEntryENS1_17NotificationEntryEE13UpdateEntriesENSt3__110unique_ptrINS6_6vectorINS6_4pairINS6_12basic_stringIcNS6_11char_traitsIcEENS6_9allocatorIcEEEES4_EENSD_ISG_EEEENS6_14default_deleteISI_EEEENS7_INS8_ISF_NSD_ISF_EEEENSJ_ISN_EEEEN4base12OnceCallbackIFvbEEE = comdat any

$_ZN13leveldb_proto17ProtoDatabaseImplIN13notifications5proto17NotificationEntryENS1_17NotificationEntryEE29UpdateEntriesWithRemoveFilterENSt3__110unique_ptrINS6_6vectorINS6_4pairINS6_12basic_stringIcNS6_11char_traitsIcEENS6_9allocatorIcEEEES4_EENSD_ISG_EEEENS6_14default_deleteISI_EEEERKN4base17RepeatingCallbackIFbRKSF_EEENSM_12OnceCallbackIFvbEEE = comdat any

$_ZN13leveldb_proto17ProtoDatabaseImplIN13notifications5proto17NotificationEntryENS1_17NotificationEntryEE11LoadEntriesEN4base12OnceCallbackIFvbNSt3__110unique_ptrINS8_6vectorIS4_NS8_9allocatorIS4_EEEENS8_14default_deleteISD_EEEEEEE = comdat any

$_ZN13leveldb_proto17ProtoDatabaseImplIN13notifications5proto17NotificationEntryENS1_17NotificationEntryEE21LoadEntriesWithFilterERKN4base17RepeatingCallbackIFbRKNSt3__112basic_stringIcNS8_11char_traitsIcEENS8_9allocatorIcEEEEEEENS6_12OnceCallbackIFvbNS8_10unique_ptrINS8_6vectorIS4_NSC_IS4_EEEENS8_14default_deleteISP_EEEEEEE = comdat any

$_ZN13leveldb_proto17ProtoDatabaseImplIN13notifications5proto17NotificationEntryENS1_17NotificationEntryEE21LoadEntriesWithFilterERKN4base17RepeatingCallbackIFbRKNSt3__112basic_stringIcNS8_11char_traitsIcEENS8_9allocatorIcEEEEEEERKN7leveldb11ReadOptionsESG_NS6_12OnceCallbackIFvbNS8_10unique_ptrINS8_6vectorIS4_NSC_IS4_EEEENS8_14default_deleteIST_EEEEEEE = comdat any

$_ZN13leveldb_proto17ProtoDatabaseImplIN13notifications5proto17NotificationEntryENS1_17NotificationEntryEE18LoadKeysAndEntriesEN4base12OnceCallbackIFvbNSt3__110unique_ptrINS8_3mapINS8_12basic_stringIcNS8_11char_traitsIcEENS8_9allocatorIcEEEES4_NS8_4lessISG_EENSE_INS8_4pairIKSG_S4_EEEEEENS8_14default_deleteISN_EEEEEEE = comdat any

$_ZN13leveldb_proto17ProtoDatabaseImplIN13notifications5proto17NotificationEntryENS1_17NotificationEntryEE28LoadKeysAndEntriesWithFilterERKN4base17RepeatingCallbackIFbRKNSt3__112basic_stringIcNS8_11char_traitsIcEENS8_9allocatorIcEEEEEEENS6_12OnceCallbackIFvbNS8_10unique_ptrINS8_3mapISE_S4_NS8_4lessISE_EENSC_INS8_4pairISF_S4_EEEEEENS8_14default_deleteIST_EEEEEEE = comdat any

$_ZN13leveldb_proto17ProtoDatabaseImplIN13notifications5proto17NotificationEntryENS1_17NotificationEntryEE28LoadKeysAndEntriesWithFilterERKN4base17RepeatingCallbackIFbRKNSt3__112basic_stringIcNS8_11char_traitsIcEENS8_9allocatorIcEEEEEEERKN7leveldb11ReadOptionsESG_NS6_12OnceCallbackIFvbNS8_10unique_ptrINS8_3mapISE_S4_NS8_4lessISE_EENSC_INS8_4pairISF_S4_EEEEEENS8_14default_deleteISX_EEEEEEE = comdat any

$_ZN13leveldb_proto17ProtoDatabaseImplIN13notifications5proto17NotificationEntryENS1_17NotificationEntryEE25LoadKeysAndEntriesInRangeERKNSt3__112basic_stringIcNS6_11char_traitsIcEENS6_9allocatorIcEEEESE_N4base12OnceCallbackIFvbNS6_10unique_ptrINS6_3mapISC_S4_NS6_4lessISC_EENSA_INS6_4pairISD_S4_EEEEEENS6_14default_deleteISO_EEEEEEE = comdat any

$_ZN13leveldb_proto17ProtoDatabaseImplIN13notifications5proto17NotificationEntryENS1_17NotificationEntryEE8LoadKeysEN4base12OnceCallbackIFvbNSt3__110unique_ptrINS8_6vectorINS8_12basic_stringIcNS8_11char_traitsIcEENS8_9allocatorIcEEEENSE_ISG_EEEENS8_14default_deleteISI_EEEEEEE = comdat any

$_ZN13leveldb_proto17ProtoDatabaseImplIN13notifications5proto17NotificationEntryENS1_17NotificationEntryEE8GetEntryERKNSt3__112basic_stringIcNS6_11char_traitsIcEENS6_9allocatorIcEEEEN4base12OnceCallbackIFvbNS6_10unique_ptrIS4_NS6_14default_deleteIS4_EEEEEEE = comdat any

$_ZN13leveldb_proto17ProtoDatabaseImplIN13notifications5proto17NotificationEntryENS1_17NotificationEntryEE7DestroyEN4base12OnceCallbackIFvbEEE = comdat any

$_ZN13leveldb_proto17ProtoDatabaseImplIN13notifications5proto17NotificationEntryENS1_17NotificationEntryEE15PostTransactionEN4base12OnceCallbackIFvvEEE = comdat any

$_ZN4base8internal7InvokerINS0_9BindStateIPFvNSt3__110unique_ptrINS3_6vectorINS3_4pairINS3_12basic_stringIcNS3_11char_traitsIcEENS3_9allocatorIcEEEEN13notifications17NotificationEntryEEENSA_ISF_EEEENS3_14default_deleteISH_EEEENS4_INS5_ISC_NSA_ISC_EEEENSI_ISM_EEEE13scoped_refptrIN13leveldb_proto21ProtoDatabaseSelectorEENS_12OnceCallbackIFvbEEEEJSK_SO_SS_SV_EEEFvvEE7RunOnceEPNS0_13BindStateBaseE = comdat any

$_ZN4base8internal9BindStateIPFvNSt3__110unique_ptrINS2_6vectorINS2_4pairINS2_12basic_stringIcNS2_11char_traitsIcEENS2_9allocatorIcEEEEN13notifications17NotificationEntryEEENS9_ISE_EEEENS2_14default_deleteISG_EEEENS3_INS4_ISB_NS9_ISB_EEEENSH_ISL_EEEE13scoped_refptrIN13leveldb_proto21ProtoDatabaseSelectorEENS_12OnceCallbackIFvbEEEEJSJ_SN_SR_SU_EE7DestroyEPKNS0_13BindStateBaseE = comdat any

$_ZNSt3__112__tuple_implINS_15__tuple_indicesIJLm0ELm1ELm2ELm3EEEEJNS_10unique_ptrINS_6vectorINS_4pairINS_12basic_stringIcNS_11char_traitsIcEENS_9allocatorIcEEEEN13notifications17NotificationEntryEEENS9_ISE_EEEENS_14default_deleteISG_EEEENS3_INS4_ISB_NS9_ISB_EEEENSH_ISL_EEEE13scoped_refptrIN13leveldb_proto21ProtoDatabaseSelectorEEN4base12OnceCallbackIFvbEEEEED2Ev = comdat any

$_ZN4base8internal7InvokerINS0_9BindStateIPFvNSt3__110unique_ptrINS3_6vectorINS3_4pairINS3_12basic_stringIcNS3_11char_traitsIcEENS3_9allocatorIcEEEEN13notifications17NotificationEntryEEENSA_ISF_EEEENS3_14default_deleteISH_EEEERKNS_17RepeatingCallbackIFbRKSC_EEE13scoped_refptrIN13leveldb_proto21ProtoDatabaseSelectorEENS_12OnceCallbackIFvbEEEEJSK_SP_SV_SY_EEEFvvEE7RunOnceEPNS0_13BindStateBaseE = comdat any

$_ZN4base8internal9BindStateIPFvNSt3__110unique_ptrINS2_6vectorINS2_4pairINS2_12basic_stringIcNS2_11char_traitsIcEENS2_9allocatorIcEEEEN13notifications17NotificationEntryEEENS9_ISE_EEEENS2_14default_deleteISG_EEEERKNS_17RepeatingCallbackIFbRKSB_EEE13scoped_refptrIN13leveldb_proto21ProtoDatabaseSelectorEENS_12OnceCallbackIFvbEEEEJSJ_SO_SU_SX_EE7DestroyEPKNS0_13BindStateBaseE = comdat any

$_ZN4base8internal7InvokerINS0_9BindStateIPFv13scoped_refptrINS_19SequencedTaskRunnerEENS_12OnceCallbackIFvbNSt3__110unique_ptrINS7_6vectorIN13notifications17NotificationEntryENS7_9allocatorISB_EEEENS7_14default_deleteISE_EEEEEEEbNS8_INS9_INS7_12basic_stringIcNS7_11char_traitsIcEENSC_IcEEEENSC_ISO_EEEENSF_ISQ_EEEEEJS5_SJ_EEEFvbSS_EE7RunOnceEPNS0_13BindStateBaseEbOSS_ = comdat any

$_ZN4base8internal9BindStateIPFv13scoped_refptrINS_19SequencedTaskRunnerEENS_12OnceCallbackIFvbNSt3__110unique_ptrINS6_6vectorIN13notifications17NotificationEntryENS6_9allocatorISA_EEEENS6_14default_deleteISD_EEEEEEEbNS7_INS8_INS6_12basic_stringIcNS6_11char_traitsIcEENSB_IcEEEENSB_ISN_EEEENSE_ISP_EEEEEJS4_SI_EE7DestroyEPKNS0_13BindStateBaseE = comdat any

$_ZNSt3__16vectorIN13notifications17NotificationEntryENS_9allocatorIS2_EEE24__emplace_back_slow_pathIJS2_EEEvDpOT_ = comdat any

$_ZN4base8internal7InvokerINS0_9BindStateINS_12OnceCallbackIFvbNSt3__110unique_ptrINS4_6vectorIN13notifications17NotificationEntryENS4_9allocatorIS8_EEEENS4_14default_deleteISB_EEEEEEEJbSE_EEEFvvEE7RunOnceEPNS0_13BindStateBaseE = comdat any

$_ZN4base8internal13FunctorTraitsINS_12OnceCallbackIFvbNSt3__110unique_ptrINS3_6vectorIN13notifications17NotificationEntryENS3_9allocatorIS7_EEEENS3_14default_deleteISA_EEEEEEEvE6InvokeISF_JbSD_EEEvOT_DpOT0_ = comdat any

$_ZN4base8internal9BindStateINS_12OnceCallbackIFvbNSt3__110unique_ptrINS3_6vectorIN13notifications17NotificationEntryENS3_9allocatorIS7_EEEENS3_14default_deleteISA_EEEEEEEJbSD_EE7DestroyEPKNS0_13BindStateBaseE = comdat any

$_ZN4base8internal23QueryCancellationTraitsINS0_9BindStateINS_12OnceCallbackIFvbNSt3__110unique_ptrINS4_6vectorIN13notifications17NotificationEntryENS4_9allocatorIS8_EEEENS4_14default_deleteISB_EEEEEEEJbSE_EEEEEbPKNS0_13BindStateBaseENSI_21CancellationQueryModeE = comdat any

$_ZN4base8internal7InvokerINS0_9BindStateIPFv13scoped_refptrINS_19SequencedTaskRunnerEENS_12OnceCallbackIFvbNSt3__110unique_ptrINS7_3mapINS7_12basic_stringIcNS7_11char_traitsIcEENS7_9allocatorIcEEEEN13notifications17NotificationEntryENS7_4lessISF_EENSD_INS7_4pairIKSF_SH_EEEEEENS7_14default_deleteISO_EEEEEEEbNS8_INS9_ISF_SF_SJ_NSD_INSK_ISL_SF_EEEEEENSP_ISW_EEEEEJS5_ST_EEEFvbSY_EE7RunOnceEPNS0_13BindStateBaseEbOSY_ = comdat any

$_ZN4base8internal9BindStateIPFv13scoped_refptrINS_19SequencedTaskRunnerEENS_12OnceCallbackIFvbNSt3__110unique_ptrINS6_3mapINS6_12basic_stringIcNS6_11char_traitsIcEENS6_9allocatorIcEEEEN13notifications17NotificationEntryENS6_4lessISE_EENSC_INS6_4pairIKSE_SG_EEEEEENS6_14default_deleteISN_EEEEEEEbNS7_INS8_ISE_SE_SI_NSC_INSJ_ISK_SE_EEEEEENSO_ISV_EEEEEJS4_SS_EE7DestroyEPKNS0_13BindStateBaseE = comdat any

$_ZNSt3__16__treeINS_12__value_typeINS_12basic_stringIcNS_11char_traitsIcEENS_9allocatorIcEEEEN13notifications17NotificationEntryEEENS_19__map_value_compareIS7_SA_NS_4lessIS7_EELb1EEENS5_ISA_EEE7destroyEPNS_11__tree_nodeISA_PvEE = comdat any

$_ZNSt3__16__treeINS_12__value_typeINS_12basic_stringIcNS_11char_traitsIcEENS_9allocatorIcEEEEN13notifications17NotificationEntryEEENS_19__map_value_compareIS7_SA_NS_4lessIS7_EELb1EEENS5_ISA_EEE25__emplace_unique_key_argsIS7_JRKS7_S9_EEENS_4pairINS_15__tree_iteratorISA_PNS_11__tree_nodeISA_PvEElEEbEERKT_DpOT0_ = comdat any

$_ZNSt3__16__treeINS_12__value_typeINS_12basic_stringIcNS_11char_traitsIcEENS_9allocatorIcEEEEN13notifications17NotificationEntryEEENS_19__map_value_compareIS7_SA_NS_4lessIS7_EELb1EEENS5_ISA_EEE12__find_equalIS7_EERPNS_16__tree_node_baseIPvEERPNS_15__tree_end_nodeISL_EERKT_ = comdat any

$_ZN4base8internal7InvokerINS0_9BindStateINS_12OnceCallbackIFvbNSt3__110unique_ptrINS4_3mapINS4_12basic_stringIcNS4_11char_traitsIcEENS4_9allocatorIcEEEEN13notifications17NotificationEntryENS4_4lessISC_EENSA_INS4_4pairIKSC_SE_EEEEEENS4_14default_deleteISL_EEEEEEEJbSO_EEEFvvEE7RunOnceEPNS0_13BindStateBaseE = comdat any

$_ZN4base8internal9BindStateINS_12OnceCallbackIFvbNSt3__110unique_ptrINS3_3mapINS3_12basic_stringIcNS3_11char_traitsIcEENS3_9allocatorIcEEEEN13notifications17NotificationEntryENS3_4lessISB_EENS9_INS3_4pairIKSB_SD_EEEEEENS3_14default_deleteISK_EEEEEEEJbSN_EE7DestroyEPKNS0_13BindStateBaseE = comdat any

$_ZN4base8internal23QueryCancellationTraitsINS0_9BindStateINS_12OnceCallbackIFvbNSt3__110unique_ptrINS4_3mapINS4_12basic_stringIcNS4_11char_traitsIcEENS4_9allocatorIcEEEEN13notifications17NotificationEntryENS4_4lessISC_EENSA_INS4_4pairIKSC_SE_EEEEEENS4_14default_deleteISL_EEEEEEEJbSO_EEEEEbPKNS0_13BindStateBaseENSS_21CancellationQueryModeE = comdat any

$_ZN4base8internal7InvokerINS0_9BindStateIPFv13scoped_refptrINS_19SequencedTaskRunnerEENS_12OnceCallbackIFvbNSt3__110unique_ptrIN13notifications17NotificationEntryENS7_14default_deleteISA_EEEEEEEbNS8_INS7_12basic_stringIcNS7_11char_traitsIcEENS7_9allocatorIcEEEENSB_ISL_EEEEEJS5_SF_EEEFvbSN_EE7RunOnceEPNS0_13BindStateBaseEbOSN_ = comdat any

$_ZN4base8internal9BindStateIPFv13scoped_refptrINS_19SequencedTaskRunnerEENS_12OnceCallbackIFvbNSt3__110unique_ptrIN13notifications17NotificationEntryENS6_14default_deleteIS9_EEEEEEEbNS7_INS6_12basic_stringIcNS6_11char_traitsIcEENS6_9allocatorIcEEEENSA_ISK_EEEEEJS4_SE_EE7DestroyEPKNS0_13BindStateBaseE = comdat any

$_ZN4base8internal7InvokerINS0_9BindStateINS_12OnceCallbackIFvbNSt3__110unique_ptrIN13notifications17NotificationEntryENS4_14default_deleteIS7_EEEEEEEJbSA_EEEFvvEE7RunOnceEPNS0_13BindStateBaseE = comdat any

$_ZN4base8internal9BindStateINS_12OnceCallbackIFvbNSt3__110unique_ptrIN13notifications17NotificationEntryENS3_14default_deleteIS6_EEEEEEEJbS9_EE7DestroyEPKNS0_13BindStateBaseE = comdat any

$_ZN4base8internal23QueryCancellationTraitsINS0_9BindStateINS_12OnceCallbackIFvbNSt3__110unique_ptrIN13notifications17NotificationEntryENS4_14default_deleteIS7_EEEEEEEJbSA_EEEEEbPKNS0_13BindStateBaseENSE_21CancellationQueryModeE = comdat any

$_ZTVN13leveldb_proto17ProtoDatabaseImplIN13notifications5proto4IconENS1_9IconEntryEEE = comdat any

$_ZTVN13leveldb_proto17ProtoDatabaseImplIN13notifications5proto11ClientStateENS1_11ClientStateEEE = comdat any

$_ZTVN13leveldb_proto17ProtoDatabaseImplIN13notifications5proto17NotificationEntryENS1_17NotificationEntryEEE = comdat any

@_ZN13notifications8features28kNotificationScheduleServiceE = external global %"struct.base::Feature", align 8
@.ref.tmp = private constant %"class.base::TaskTraits" { %"struct.base::TaskTraitsExtensionStorage" zeroinitializer, i8 0, i8 1, i8 0, i8 1, i8 0, i8 0 }, align 1
@_ZN13notifications12_GLOBAL__N_111kIconDBNameE = internal constant [7 x i8] c"IconDB\00", align 1
@_ZN13notifications12_GLOBAL__N_117kImpressionDBNameE = internal constant [13 x i8] c"ImpressionDB\00", align 1
@_ZN13notifications12_GLOBAL__N_119kNotificationDBNameE = internal constant [15 x i8] c"NotificationDB\00", align 1
@_ZTVN13leveldb_proto17ProtoDatabaseImplIN13notifications5proto4IconENS1_9IconEntryEEE = linkonce_odr hidden unnamed_addr constant { [18 x i8*] } { [18 x i8*] [i8* null, i8* null, i8* bitcast (void (%"class.leveldb_proto::ProtoDatabaseImpl"*)* @_ZN13leveldb_proto17ProtoDatabaseImplIN13notifications5proto4IconENS1_9IconEntryEED2Ev to i8*), i8* bitcast (void (%"class.leveldb_proto::ProtoDatabaseImpl"*)* @_ZN13leveldb_proto17ProtoDatabaseImplIN13notifications5proto4IconENS1_9IconEntryEED0Ev to i8*), i8* bitcast (void (%"class.leveldb_proto::ProtoDatabaseImpl"*, %"class.base::OnceCallback.296"*)* @_ZN13leveldb_proto17ProtoDatabaseImplIN13notifications5proto4IconENS1_9IconEntryEE4InitEN4base12OnceCallbackIFvNS_5Enums10InitStatusEEEE to i8*), i8* bitcast (void (%"class.leveldb_proto::ProtoDatabaseImpl"*, %"struct.leveldb_env::Options"*, %"class.base::OnceCallback.296"*)* @_ZN13leveldb_proto17ProtoDatabaseImplIN13notifications5proto4IconENS1_9IconEntryEE4InitERKN11leveldb_env7OptionsEN4base12OnceCallbackIFvNS_5Enums10InitStatusEEEE to i8*), i8* bitcast (void (%"class.leveldb_proto::ProtoDatabaseImpl"*, %"class.std::__1::vector.300"*, %"class.std::__1::vector.313"*, %"class.base::OnceCallback.323"*)* @_ZN13leveldb_proto17ProtoDatabaseImplIN13notifications5proto4IconENS1_9IconEntryEE13UpdateEntriesENSt3__110unique_ptrINS6_6vectorINS6_4pairINS6_12basic_stringIcNS6_11char_traitsIcEENS6_9allocatorIcEEEES4_EENSD_ISG_EEEENS6_14default_deleteISI_EEEENS7_INS8_ISF_NSD_ISF_EEEENSJ_ISN_EEEEN4base12OnceCallbackIFvbEEE to i8*), i8* bitcast (void (%"class.leveldb_proto::ProtoDatabaseImpl"*, %"class.std::__1::vector.300"*, %"class.base::RepeatingCallback.324"*, %"class.base::OnceCallback.323"*)* @_ZN13leveldb_proto17ProtoDatabaseImplIN13notifications5proto4IconENS1_9IconEntryEE29UpdateEntriesWithRemoveFilterENSt3__110unique_ptrINS6_6vectorINS6_4pairINS6_12basic_stringIcNS6_11char_traitsIcEENS6_9allocatorIcEEEES4_EENSD_ISG_EEEENS6_14default_deleteISI_EEEERKN4base17RepeatingCallbackIFbRKSF_EEENSM_12OnceCallbackIFvbEEE to i8*), i8* bitcast (void (%"class.leveldb_proto::ProtoDatabaseImpl"*, %"class.base::OnceCallback.325"*)* @_ZN13leveldb_proto17ProtoDatabaseImplIN13notifications5proto4IconENS1_9IconEntryEE11LoadEntriesEN4base12OnceCallbackIFvbNSt3__110unique_ptrINS8_6vectorIS4_NS8_9allocatorIS4_EEEENS8_14default_deleteISD_EEEEEEE to i8*), i8* bitcast (void (%"class.leveldb_proto::ProtoDatabaseImpl"*, %"class.base::RepeatingCallback.324"*, %"class.base::OnceCallback.325"*)* @_ZN13leveldb_proto17ProtoDatabaseImplIN13notifications5proto4IconENS1_9IconEntryEE21LoadEntriesWithFilterERKN4base17RepeatingCallbackIFbRKNSt3__112basic_stringIcNS8_11char_traitsIcEENS8_9allocatorIcEEEEEEENS6_12OnceCallbackIFvbNS8_10unique_ptrINS8_6vectorIS4_NSC_IS4_EEEENS8_14default_deleteISP_EEEEEEE to i8*), i8* bitcast (void (%"class.leveldb_proto::ProtoDatabaseImpl"*, %"class.base::RepeatingCallback.324"*, %"struct.leveldb::ReadOptions"*, %"class.std::__1::basic_string"*, %"class.base::OnceCallback.325"*)* @_ZN13leveldb_proto17ProtoDatabaseImplIN13notifications5proto4IconENS1_9IconEntryEE21LoadEntriesWithFilterERKN4base17RepeatingCallbackIFbRKNSt3__112basic_stringIcNS8_11char_traitsIcEENS8_9allocatorIcEEEEEEERKN7leveldb11ReadOptionsESG_NS6_12OnceCallbackIFvbNS8_10unique_ptrINS8_6vectorIS4_NSC_IS4_EEEENS8_14default_deleteIST_EEEEEEE to i8*), i8* bitcast (void (%"class.leveldb_proto::ProtoDatabaseImpl"*, %"class.base::OnceCallback.326"*)* @_ZN13leveldb_proto17ProtoDatabaseImplIN13notifications5proto4IconENS1_9IconEntryEE18LoadKeysAndEntriesEN4base12OnceCallbackIFvbNSt3__110unique_ptrINS8_3mapINS8_12basic_stringIcNS8_11char_traitsIcEENS8_9allocatorIcEEEES4_NS8_4lessISG_EENSE_INS8_4pairIKSG_S4_EEEEEENS8_14default_deleteISN_EEEEEEE to i8*), i8* bitcast (void (%"class.leveldb_proto::ProtoDatabaseImpl"*, %"class.base::RepeatingCallback.324"*, %"class.base::OnceCallback.326"*)* @_ZN13leveldb_proto17ProtoDatabaseImplIN13notifications5proto4IconENS1_9IconEntryEE28LoadKeysAndEntriesWithFilterERKN4base17RepeatingCallbackIFbRKNSt3__112basic_stringIcNS8_11char_traitsIcEENS8_9allocatorIcEEEEEEENS6_12OnceCallbackIFvbNS8_10unique_ptrINS8_3mapISE_S4_NS8_4lessISE_EENSC_INS8_4pairISF_S4_EEEEEENS8_14default_deleteIST_EEEEEEE to i8*), i8* bitcast (void (%"class.leveldb_proto::ProtoDatabaseImpl"*, %"class.base::RepeatingCallback.324"*, %"struct.leveldb::ReadOptions"*, %"class.std::__1::basic_string"*, %"class.base::OnceCallback.326"*)* @_ZN13leveldb_proto17ProtoDatabaseImplIN13notifications5proto4IconENS1_9IconEntryEE28LoadKeysAndEntriesWithFilterERKN4base17RepeatingCallbackIFbRKNSt3__112basic_stringIcNS8_11char_traitsIcEENS8_9allocatorIcEEEEEEERKN7leveldb11ReadOptionsESG_NS6_12OnceCallbackIFvbNS8_10unique_ptrINS8_3mapISE_S4_NS8_4lessISE_EENSC_INS8_4pairISF_S4_EEEEEENS8_14default_deleteISX_EEEEEEE to i8*), i8* bitcast (void (%"class.leveldb_proto::ProtoDatabaseImpl"*, %"class.std::__1::basic_string"*, %"class.std::__1::basic_string"*, %"class.base::OnceCallback.326"*)* @_ZN13leveldb_proto17ProtoDatabaseImplIN13notifications5proto4IconENS1_9IconEntryEE25LoadKeysAndEntriesInRangeERKNSt3__112basic_stringIcNS6_11char_traitsIcEENS6_9allocatorIcEEEESE_N4base12OnceCallbackIFvbNS6_10unique_ptrINS6_3mapISC_S4_NS6_4lessISC_EENSA_INS6_4pairISD_S4_EEEEEENS6_14default_deleteISO_EEEEEEE to i8*), i8* bitcast (void (%"class.leveldb_proto::ProtoDatabaseImpl"*, %"class.base::OnceCallback.327"*)* @_ZN13leveldb_proto17ProtoDatabaseImplIN13notifications5proto4IconENS1_9IconEntryEE8LoadKeysEN4base12OnceCallbackIFvbNSt3__110unique_ptrINS8_6vectorINS8_12basic_stringIcNS8_11char_traitsIcEENS8_9allocatorIcEEEENSE_ISG_EEEENS8_14default_deleteISI_EEEEEEE to i8*), i8* bitcast (void (%"class.leveldb_proto::ProtoDatabaseImpl"*, %"class.std::__1::basic_string"*, %"class.base::OnceCallback.328"*)* @_ZN13leveldb_proto17ProtoDatabaseImplIN13notifications5proto4IconENS1_9IconEntryEE8GetEntryERKNSt3__112basic_stringIcNS6_11char_traitsIcEENS6_9allocatorIcEEEEN4base12OnceCallbackIFvbNS6_10unique_ptrIS4_NS6_14default_deleteIS4_EEEEEEE to i8*), i8* bitcast (void (%"class.leveldb_proto::ProtoDatabaseImpl"*, %"class.base::OnceCallback.323"*)* @_ZN13leveldb_proto17ProtoDatabaseImplIN13notifications5proto4IconENS1_9IconEntryEE7DestroyEN4base12OnceCallbackIFvbEEE to i8*)] }, comdat, align 8
@.str.2 = private unnamed_addr constant [13 x i8] c"InitInternal\00", align 1
@.str.3 = private unnamed_addr constant [62 x i8] c"../../components/leveldb_proto/internal/proto_database_impl.h\00", align 1
@.str.5 = private unnamed_addr constant [16 x i8] c"PostTransaction\00", align 1
@.str.6 = private unnamed_addr constant [19 x i8] c"ParseLoadedEntries\00", align 1
@.str.7 = private unnamed_addr constant [27 x i8] c"../../base/bind_internal.h\00", align 1
@.str.8 = private unnamed_addr constant [18 x i8] c"!IsNull(functor_)\00", align 1
@.str.9 = private unnamed_addr constant [26 x i8] c"ParseLoadedKeysAndEntries\00", align 1
@.str.10 = private unnamed_addr constant [17 x i8] c"ParseLoadedEntry\00", align 1
@_ZTVN13leveldb_proto17ProtoDatabaseImplIN13notifications5proto11ClientStateENS1_11ClientStateEEE = linkonce_odr hidden unnamed_addr constant { [18 x i8*] } { [18 x i8*] [i8* null, i8* null, i8* bitcast (void (%"class.leveldb_proto::ProtoDatabaseImpl.539"*)* @_ZN13leveldb_proto17ProtoDatabaseImplIN13notifications5proto11ClientStateENS1_11ClientStateEED2Ev to i8*), i8* bitcast (void (%"class.leveldb_proto::ProtoDatabaseImpl.539"*)* @_ZN13leveldb_proto17ProtoDatabaseImplIN13notifications5proto11ClientStateENS1_11ClientStateEED0Ev to i8*), i8* bitcast (void (%"class.leveldb_proto::ProtoDatabaseImpl.539"*, %"class.base::OnceCallback.296"*)* @_ZN13leveldb_proto17ProtoDatabaseImplIN13notifications5proto11ClientStateENS1_11ClientStateEE4InitEN4base12OnceCallbackIFvNS_5Enums10InitStatusEEEE to i8*), i8* bitcast (void (%"class.leveldb_proto::ProtoDatabaseImpl.539"*, %"struct.leveldb_env::Options"*, %"class.base::OnceCallback.296"*)* @_ZN13leveldb_proto17ProtoDatabaseImplIN13notifications5proto11ClientStateENS1_11ClientStateEE4InitERKN11leveldb_env7OptionsEN4base12OnceCallbackIFvNS_5Enums10InitStatusEEEE to i8*), i8* bitcast (void (%"class.leveldb_proto::ProtoDatabaseImpl.539"*, %"class.std::__1::vector.546"*, %"class.std::__1::vector.313"*, %"class.base::OnceCallback.323"*)* @_ZN13leveldb_proto17ProtoDatabaseImplIN13notifications5proto11ClientStateENS1_11ClientStateEE13UpdateEntriesENSt3__110unique_ptrINS6_6vectorINS6_4pairINS6_12basic_stringIcNS6_11char_traitsIcEENS6_9allocatorIcEEEES4_EENSD_ISG_EEEENS6_14default_deleteISI_EEEENS7_INS8_ISF_NSD_ISF_EEEENSJ_ISN_EEEEN4base12OnceCallbackIFvbEEE to i8*), i8* bitcast (void (%"class.leveldb_proto::ProtoDatabaseImpl.539"*, %"class.std::__1::vector.546"*, %"class.base::RepeatingCallback.324"*, %"class.base::OnceCallback.323"*)* @_ZN13leveldb_proto17ProtoDatabaseImplIN13notifications5proto11ClientStateENS1_11ClientStateEE29UpdateEntriesWithRemoveFilterENSt3__110unique_ptrINS6_6vectorINS6_4pairINS6_12basic_stringIcNS6_11char_traitsIcEENS6_9allocatorIcEEEES4_EENSD_ISG_EEEENS6_14default_deleteISI_EEEERKN4base17RepeatingCallbackIFbRKSF_EEENSM_12OnceCallbackIFvbEEE to i8*), i8* bitcast (void (%"class.leveldb_proto::ProtoDatabaseImpl.539"*, %"class.base::OnceCallback.585"*)* @_ZN13leveldb_proto17ProtoDatabaseImplIN13notifications5proto11ClientStateENS1_11ClientStateEE11LoadEntriesEN4base12OnceCallbackIFvbNSt3__110unique_ptrINS8_6vectorIS4_NS8_9allocatorIS4_EEEENS8_14default_deleteISD_EEEEEEE to i8*), i8* bitcast (void (%"class.leveldb_proto::ProtoDatabaseImpl.539"*, %"class.base::RepeatingCallback.324"*, %"class.base::OnceCallback.585"*)* @_ZN13leveldb_proto17ProtoDatabaseImplIN13notifications5proto11ClientStateENS1_11ClientStateEE21LoadEntriesWithFilterERKN4base17RepeatingCallbackIFbRKNSt3__112basic_stringIcNS8_11char_traitsIcEENS8_9allocatorIcEEEEEEENS6_12OnceCallbackIFvbNS8_10unique_ptrINS8_6vectorIS4_NSC_IS4_EEEENS8_14default_deleteISP_EEEEEEE to i8*), i8* bitcast (void (%"class.leveldb_proto::ProtoDatabaseImpl.539"*, %"class.base::RepeatingCallback.324"*, %"struct.leveldb::ReadOptions"*, %"class.std::__1::basic_string"*, %"class.base::OnceCallback.585"*)* @_ZN13leveldb_proto17ProtoDatabaseImplIN13notifications5proto11ClientStateENS1_11ClientStateEE21LoadEntriesWithFilterERKN4base17RepeatingCallbackIFbRKNSt3__112basic_stringIcNS8_11char_traitsIcEENS8_9allocatorIcEEEEEEERKN7leveldb11ReadOptionsESG_NS6_12OnceCallbackIFvbNS8_10unique_ptrINS8_6vectorIS4_NSC_IS4_EEEENS8_14default_deleteIST_EEEEEEE to i8*), i8* bitcast (void (%"class.leveldb_proto::ProtoDatabaseImpl.539"*, %"class.base::OnceCallback.586"*)* @_ZN13leveldb_proto17ProtoDatabaseImplIN13notifications5proto11ClientStateENS1_11ClientStateEE18LoadKeysAndEntriesEN4base12OnceCallbackIFvbNSt3__110unique_ptrINS8_3mapINS8_12basic_stringIcNS8_11char_traitsIcEENS8_9allocatorIcEEEES4_NS8_4lessISG_EENSE_INS8_4pairIKSG_S4_EEEEEENS8_14default_deleteISN_EEEEEEE to i8*), i8* bitcast (void (%"class.leveldb_proto::ProtoDatabaseImpl.539"*, %"class.base::RepeatingCallback.324"*, %"class.base::OnceCallback.586"*)* @_ZN13leveldb_proto17ProtoDatabaseImplIN13notifications5proto11ClientStateENS1_11ClientStateEE28LoadKeysAndEntriesWithFilterERKN4base17RepeatingCallbackIFbRKNSt3__112basic_stringIcNS8_11char_traitsIcEENS8_9allocatorIcEEEEEEENS6_12OnceCallbackIFvbNS8_10unique_ptrINS8_3mapISE_S4_NS8_4lessISE_EENSC_INS8_4pairISF_S4_EEEEEENS8_14default_deleteIST_EEEEEEE to i8*), i8* bitcast (void (%"class.leveldb_proto::ProtoDatabaseImpl.539"*, %"class.base::RepeatingCallback.324"*, %"struct.leveldb::ReadOptions"*, %"class.std::__1::basic_string"*, %"class.base::OnceCallback.586"*)* @_ZN13leveldb_proto17ProtoDatabaseImplIN13notifications5proto11ClientStateENS1_11ClientStateEE28LoadKeysAndEntriesWithFilterERKN4base17RepeatingCallbackIFbRKNSt3__112basic_stringIcNS8_11char_traitsIcEENS8_9allocatorIcEEEEEEERKN7leveldb11ReadOptionsESG_NS6_12OnceCallbackIFvbNS8_10unique_ptrINS8_3mapISE_S4_NS8_4lessISE_EENSC_INS8_4pairISF_S4_EEEEEENS8_14default_deleteISX_EEEEEEE to i8*), i8* bitcast (void (%"class.leveldb_proto::ProtoDatabaseImpl.539"*, %"class.std::__1::basic_string"*, %"class.std::__1::basic_string"*, %"class.base::OnceCallback.586"*)* @_ZN13leveldb_proto17ProtoDatabaseImplIN13notifications5proto11ClientStateENS1_11ClientStateEE25LoadKeysAndEntriesInRangeERKNSt3__112basic_stringIcNS6_11char_traitsIcEENS6_9allocatorIcEEEESE_N4base12OnceCallbackIFvbNS6_10unique_ptrINS6_3mapISC_S4_NS6_4lessISC_EENSA_INS6_4pairISD_S4_EEEEEENS6_14default_deleteISO_EEEEEEE to i8*), i8* bitcast (void (%"class.leveldb_proto::ProtoDatabaseImpl.539"*, %"class.base::OnceCallback.327"*)* @_ZN13leveldb_proto17ProtoDatabaseImplIN13notifications5proto11ClientStateENS1_11ClientStateEE8LoadKeysEN4base12OnceCallbackIFvbNSt3__110unique_ptrINS8_6vectorINS8_12basic_stringIcNS8_11char_traitsIcEENS8_9allocatorIcEEEENSE_ISG_EEEENS8_14default_deleteISI_EEEEEEE to i8*), i8* bitcast (void (%"class.leveldb_proto::ProtoDatabaseImpl.539"*, %"class.std::__1::basic_string"*, %"class.base::OnceCallback.587"*)* @_ZN13leveldb_proto17ProtoDatabaseImplIN13notifications5proto11ClientStateENS1_11ClientStateEE8GetEntryERKNSt3__112basic_stringIcNS6_11char_traitsIcEENS6_9allocatorIcEEEEN4base12OnceCallbackIFvbNS6_10unique_ptrIS4_NS6_14default_deleteIS4_EEEEEEE to i8*), i8* bitcast (void (%"class.leveldb_proto::ProtoDatabaseImpl.539"*, %"class.base::OnceCallback.323"*)* @_ZN13leveldb_proto17ProtoDatabaseImplIN13notifications5proto11ClientStateENS1_11ClientStateEE7DestroyEN4base12OnceCallbackIFvbEEE to i8*)] }, comdat, align 8
@_ZTVN13leveldb_proto17ProtoDatabaseImplIN13notifications5proto17NotificationEntryENS1_17NotificationEntryEEE = linkonce_odr hidden unnamed_addr constant { [18 x i8*] } { [18 x i8*] [i8* null, i8* null, i8* bitcast (void (%"class.leveldb_proto::ProtoDatabaseImpl.682"*)* @_ZN13leveldb_proto17ProtoDatabaseImplIN13notifications5proto17NotificationEntryENS1_17NotificationEntryEED2Ev to i8*), i8* bitcast (void (%"class.leveldb_proto::ProtoDatabaseImpl.682"*)* @_ZN13leveldb_proto17ProtoDatabaseImplIN13notifications5proto17NotificationEntryENS1_17NotificationEntryEED0Ev to i8*), i8* bitcast (void (%"class.leveldb_proto::ProtoDatabaseImpl.682"*, %"class.base::OnceCallback.296"*)* @_ZN13leveldb_proto17ProtoDatabaseImplIN13notifications5proto17NotificationEntryENS1_17NotificationEntryEE4InitEN4base12OnceCallbackIFvNS_5Enums10InitStatusEEEE to i8*), i8* bitcast (void (%"class.leveldb_proto::ProtoDatabaseImpl.682"*, %"struct.leveldb_env::Options"*, %"class.base::OnceCallback.296"*)* @_ZN13leveldb_proto17ProtoDatabaseImplIN13notifications5proto17NotificationEntryENS1_17NotificationEntryEE4InitERKN11leveldb_env7OptionsEN4base12OnceCallbackIFvNS_5Enums10InitStatusEEEE to i8*), i8* bitcast (void (%"class.leveldb_proto::ProtoDatabaseImpl.682"*, %"class.std::__1::vector.689"*, %"class.std::__1::vector.313"*, %"class.base::OnceCallback.323"*)* @_ZN13leveldb_proto17ProtoDatabaseImplIN13notifications5proto17NotificationEntryENS1_17NotificationEntryEE13UpdateEntriesENSt3__110unique_ptrINS6_6vectorINS6_4pairINS6_12basic_stringIcNS6_11char_traitsIcEENS6_9allocatorIcEEEES4_EENSD_ISG_EEEENS6_14default_deleteISI_EEEENS7_INS8_ISF_NSD_ISF_EEEENSJ_ISN_EEEEN4base12OnceCallbackIFvbEEE to i8*), i8* bitcast (void (%"class.leveldb_proto::ProtoDatabaseImpl.682"*, %"class.std::__1::vector.689"*, %"class.base::RepeatingCallback.324"*, %"class.base::OnceCallback.323"*)* @_ZN13leveldb_proto17ProtoDatabaseImplIN13notifications5proto17NotificationEntryENS1_17NotificationEntryEE29UpdateEntriesWithRemoveFilterENSt3__110unique_ptrINS6_6vectorINS6_4pairINS6_12basic_stringIcNS6_11char_traitsIcEENS6_9allocatorIcEEEES4_EENSD_ISG_EEEENS6_14default_deleteISI_EEEERKN4base17RepeatingCallbackIFbRKSF_EEENSM_12OnceCallbackIFvbEEE to i8*), i8* bitcast (void (%"class.leveldb_proto::ProtoDatabaseImpl.682"*, %"class.base::OnceCallback.736"*)* @_ZN13leveldb_proto17ProtoDatabaseImplIN13notifications5proto17NotificationEntryENS1_17NotificationEntryEE11LoadEntriesEN4base12OnceCallbackIFvbNSt3__110unique_ptrINS8_6vectorIS4_NS8_9allocatorIS4_EEEENS8_14default_deleteISD_EEEEEEE to i8*), i8* bitcast (void (%"class.leveldb_proto::ProtoDatabaseImpl.682"*, %"class.base::RepeatingCallback.324"*, %"class.base::OnceCallback.736"*)* @_ZN13leveldb_proto17ProtoDatabaseImplIN13notifications5proto17NotificationEntryENS1_17NotificationEntryEE21LoadEntriesWithFilterERKN4base17RepeatingCallbackIFbRKNSt3__112basic_stringIcNS8_11char_traitsIcEENS8_9allocatorIcEEEEEEENS6_12OnceCallbackIFvbNS8_10unique_ptrINS8_6vectorIS4_NSC_IS4_EEEENS8_14default_deleteISP_EEEEEEE to i8*), i8* bitcast (void (%"class.leveldb_proto::ProtoDatabaseImpl.682"*, %"class.base::RepeatingCallback.324"*, %"struct.leveldb::ReadOptions"*, %"class.std::__1::basic_string"*, %"class.base::OnceCallback.736"*)* @_ZN13leveldb_proto17ProtoDatabaseImplIN13notifications5proto17NotificationEntryENS1_17NotificationEntryEE21LoadEntriesWithFilterERKN4base17RepeatingCallbackIFbRKNSt3__112basic_stringIcNS8_11char_traitsIcEENS8_9allocatorIcEEEEEEERKN7leveldb11ReadOptionsESG_NS6_12OnceCallbackIFvbNS8_10unique_ptrINS8_6vectorIS4_NSC_IS4_EEEENS8_14default_deleteIST_EEEEEEE to i8*), i8* bitcast (void (%"class.leveldb_proto::ProtoDatabaseImpl.682"*, %"class.base::OnceCallback.737"*)* @_ZN13leveldb_proto17ProtoDatabaseImplIN13notifications5proto17NotificationEntryENS1_17NotificationEntryEE18LoadKeysAndEntriesEN4base12OnceCallbackIFvbNSt3__110unique_ptrINS8_3mapINS8_12basic_stringIcNS8_11char_traitsIcEENS8_9allocatorIcEEEES4_NS8_4lessISG_EENSE_INS8_4pairIKSG_S4_EEEEEENS8_14default_deleteISN_EEEEEEE to i8*), i8* bitcast (void (%"class.leveldb_proto::ProtoDatabaseImpl.682"*, %"class.base::RepeatingCallback.324"*, %"class.base::OnceCallback.737"*)* @_ZN13leveldb_proto17ProtoDatabaseImplIN13notifications5proto17NotificationEntryENS1_17NotificationEntryEE28LoadKeysAndEntriesWithFilterERKN4base17RepeatingCallbackIFbRKNSt3__112basic_stringIcNS8_11char_traitsIcEENS8_9allocatorIcEEEEEEENS6_12OnceCallbackIFvbNS8_10unique_ptrINS8_3mapISE_S4_NS8_4lessISE_EENSC_INS8_4pairISF_S4_EEEEEENS8_14default_deleteIST_EEEEEEE to i8*), i8* bitcast (void (%"class.leveldb_proto::ProtoDatabaseImpl.682"*, %"class.base::RepeatingCallback.324"*, %"struct.leveldb::ReadOptions"*, %"class.std::__1::basic_string"*, %"class.base::OnceCallback.737"*)* @_ZN13leveldb_proto17ProtoDatabaseImplIN13notifications5proto17NotificationEntryENS1_17NotificationEntryEE28LoadKeysAndEntriesWithFilterERKN4base17RepeatingCallbackIFbRKNSt3__112basic_stringIcNS8_11char_traitsIcEENS8_9allocatorIcEEEEEEERKN7leveldb11ReadOptionsESG_NS6_12OnceCallbackIFvbNS8_10unique_ptrINS8_3mapISE_S4_NS8_4lessISE_EENSC_INS8_4pairISF_S4_EEEEEENS8_14default_deleteISX_EEEEEEE to i8*), i8* bitcast (void (%"class.leveldb_proto::ProtoDatabaseImpl.682"*, %"class.std::__1::basic_string"*, %"class.std::__1::basic_string"*, %"class.base::OnceCallback.737"*)* @_ZN13leveldb_proto17ProtoDatabaseImplIN13notifications5proto17NotificationEntryENS1_17NotificationEntryEE25LoadKeysAndEntriesInRangeERKNSt3__112basic_stringIcNS6_11char_traitsIcEENS6_9allocatorIcEEEESE_N4base12OnceCallbackIFvbNS6_10unique_ptrINS6_3mapISC_S4_NS6_4lessISC_EENSA_INS6_4pairISD_S4_EEEEEENS6_14default_deleteISO_EEEEEEE to i8*), i8* bitcast (void (%"class.leveldb_proto::ProtoDatabaseImpl.682"*, %"class.base::OnceCallback.327"*)* @_ZN13leveldb_proto17ProtoDatabaseImplIN13notifications5proto17NotificationEntryENS1_17NotificationEntryEE8LoadKeysEN4base12OnceCallbackIFvbNSt3__110unique_ptrINS8_6vectorINS8_12basic_stringIcNS8_11char_traitsIcEENS8_9allocatorIcEEEENSE_ISG_EEEENS8_14default_deleteISI_EEEEEEE to i8*), i8* bitcast (void (%"class.leveldb_proto::ProtoDatabaseImpl.682"*, %"class.std::__1::basic_string"*, %"class.base::OnceCallback.738"*)* @_ZN13leveldb_proto17ProtoDatabaseImplIN13notifications5proto17NotificationEntryENS1_17NotificationEntryEE8GetEntryERKNSt3__112basic_stringIcNS6_11char_traitsIcEENS6_9allocatorIcEEEEN4base12OnceCallbackIFvbNS6_10unique_ptrIS4_NS6_14default_deleteIS4_EEEEEEE to i8*), i8* bitcast (void (%"class.leveldb_proto::ProtoDatabaseImpl.682"*, %"class.base::OnceCallback.323"*)* @_ZN13leveldb_proto17ProtoDatabaseImplIN13notifications5proto17NotificationEntryENS1_17NotificationEntryEE7DestroyEN4base12OnceCallbackIFvbEEE to i8*)] }, comdat, align 8

; Function Attrs: nounwind ssp uwtable
define hidden %class.KeyedService* @_ZN13notifications33CreateNotificationScheduleServiceENSt3__110unique_ptrINS_36NotificationSchedulerClientRegistrarENS0_14default_deleteIS2_EEEENS1_INS_35NotificationBackgroundTaskSchedulerENS3_IS6_EEEENS1_INS_12DisplayAgentENS3_IS9_EEEEPN13leveldb_proto21ProtoDatabaseProviderERKN4base8FilePathEb(%"class.notifications::NotificationSchedulerClientRegistrar"*, %"class.notifications::NotificationBackgroundTaskScheduler"*, %"class.notifications::DisplayAgent"*, %"class.leveldb_proto::ProtoDatabaseProvider"*, %"class.base::FilePath"* dereferenceable(24), i1 zeroext) local_unnamed_addr #0 {
  %7 = alloca %"class.std::__1::vector", align 8
  %8 = alloca %class.scoped_refptr.31, align 8
  %9 = alloca %"class.base::FilePath", align 8
  %10 = alloca %"class.base::FilePath", align 8
  %11 = alloca %"class.std::__1::vector", align 8
  %12 = alloca %"class.base::FilePath", align 8
  %13 = alloca %"class.std::__1::vector", align 8
  %14 = tail call zeroext i1 @_ZN4base11FeatureList9IsEnabledERKNS_7FeatureE(%"struct.base::Feature"* nonnull dereferenceable(16) @_ZN13notifications8features28kNotificationScheduleServiceE) #9
  %15 = xor i1 %14, true
  %16 = or i1 %15, %5
  br i1 %16, label %167, label %17

17:                                               ; preds = %6
  %18 = tail call %"struct.notifications::SchedulerConfig"* @_ZN13notifications15SchedulerConfig6CreateEv() #9
  %19 = ptrtoint %"struct.notifications::SchedulerConfig"* %18 to i64
  %20 = bitcast %class.scoped_refptr.31* %8 to i8*
  call void @llvm.lifetime.start.p0i8(i64 8, i8* nonnull %20) #9
  %21 = getelementptr inbounds %class.scoped_refptr.31, %class.scoped_refptr.31* %8, i64 0, i32 0
  %22 = tail call %"class.base::SequencedTaskRunner"* @_ZN4base10ThreadPool25CreateSequencedTaskRunnerERKNS_10TaskTraitsE(%"class.base::TaskTraits"* nonnull dereferenceable(15) @.ref.tmp) #9
  store %"class.base::SequencedTaskRunner"* %22, %"class.base::SequencedTaskRunner"** %21, align 8
  %23 = tail call i8* @_Znwm(i64 8) #10
  %24 = bitcast i8* %23 to %"class.notifications::WebUIClient"*
  tail call void @_ZN13notifications11WebUIClientC1Ev(%"class.notifications::WebUIClient"* nonnull %24) #9
  %25 = bitcast i8* %23 to %"class.notifications::NotificationSchedulerClient"*
  tail call void @_ZN13notifications36NotificationSchedulerClientRegistrar14RegisterClientENS_19SchedulerClientTypeENSt3__110unique_ptrINS_27NotificationSchedulerClientENS2_14default_deleteIS4_EEEE(%"class.notifications::NotificationSchedulerClientRegistrar"* %0, i32 1, %"class.notifications::NotificationSchedulerClient"* nonnull %25) #9
  %26 = bitcast %"class.base::FilePath"* %9 to i8*
  call void @llvm.lifetime.start.p0i8(i64 24, i8* nonnull %26) #9
  %27 = bitcast %"class.base::FilePath"* %9 to i8*
  call void @llvm.memset.p0i8.i64(i8* nonnull align 8 %27, i8 -86, i64 24, i1 false)
  call void @_ZNK4base8FilePath6AppendENS_16BasicStringPieceIcNSt3__111char_traitsIcEEEE(%"class.base::FilePath"* nonnull sret %9, %"class.base::FilePath"* %4, i8* getelementptr inbounds ([7 x i8], [7 x i8]* @_ZN13notifications12_GLOBAL__N_111kIconDBNameE, i64 0, i64 0), i64 6) #9
  %28 = call %"class.leveldb_proto::ProtoDatabase.108"* @_ZN13leveldb_proto21ProtoDatabaseProvider5GetDBIN13notifications5proto4IconENS2_9IconEntryEEENSt3__110unique_ptrINS_13ProtoDatabaseIT_T0_EENS6_14default_deleteISB_EEEENS_11ProtoDbTypeERKN4base8FilePathERK13scoped_refptrINSG_19SequencedTaskRunnerEE(%"class.leveldb_proto::ProtoDatabaseProvider"* %3, i32 15, %"class.base::FilePath"* nonnull dereferenceable(24) %9, %class.scoped_refptr.31* nonnull dereferenceable(8) %8)
  %29 = call i8* @_Znwm(i64 8) #10
  %30 = bitcast i8* %29 to %"class.notifications::PngIconConverterImpl"*
  call void @_ZN13notifications20PngIconConverterImplC1Ev(%"class.notifications::PngIconConverterImpl"* nonnull %30) #9
  %31 = call i8* @_Znwm(i64 40) #10
  %32 = bitcast i8* %31 to %"class.notifications::IconProtoDbStore"*
  %33 = bitcast i8* %29 to %"class.notifications::IconConverter"*
  call void @_ZN13notifications16IconProtoDbStoreC1ENSt3__110unique_ptrIN13leveldb_proto13ProtoDatabaseINS_5proto4IconENS_9IconEntryEEENS1_14default_deleteIS8_EEEENS2_INS_13IconConverterENS9_ISC_EEEE(%"class.notifications::IconProtoDbStore"* nonnull %32, %"class.leveldb_proto::ProtoDatabase.108"* %28, %"class.notifications::IconConverter"* nonnull %33) #9
  %34 = bitcast %"class.base::FilePath"* %10 to i8*
  call void @llvm.lifetime.start.p0i8(i64 24, i8* nonnull %34) #9
  %35 = bitcast %"class.base::FilePath"* %10 to i8*
  call void @llvm.memset.p0i8.i64(i8* nonnull align 8 %35, i8 -86, i64 24, i1 false)
  call void @_ZNK4base8FilePath6AppendENS_16BasicStringPieceIcNSt3__111char_traitsIcEEEE(%"class.base::FilePath"* nonnull sret %10, %"class.base::FilePath"* %4, i8* getelementptr inbounds ([13 x i8], [13 x i8]* @_ZN13notifications12_GLOBAL__N_117kImpressionDBNameE, i64 0, i64 0), i64 12) #9
  %36 = call %"class.leveldb_proto::ProtoDatabase.134"* @_ZN13leveldb_proto21ProtoDatabaseProvider5GetDBIN13notifications5proto11ClientStateENS2_11ClientStateEEENSt3__110unique_ptrINS_13ProtoDatabaseIT_T0_EENS6_14default_deleteISB_EEEENS_11ProtoDbTypeERKN4base8FilePathERK13scoped_refptrINSG_19SequencedTaskRunnerEE(%"class.leveldb_proto::ProtoDatabaseProvider"* %3, i32 16, %"class.base::FilePath"* nonnull dereferenceable(24) %10, %class.scoped_refptr.31* nonnull dereferenceable(8) %8)
  %37 = call i8* @_Znwm(i64 32) #10
  %38 = bitcast i8* %37 to %"class.notifications::ImpressionStore"*
  call void @_ZN13notifications15ImpressionStoreC1ENSt3__110unique_ptrIN13leveldb_proto13ProtoDatabaseINS_5proto11ClientStateENS_11ClientStateEEENS1_14default_deleteIS8_EEEE(%"class.notifications::ImpressionStore"* nonnull %38, %"class.leveldb_proto::ProtoDatabase.134"* %36) #9
  %39 = bitcast %"class.std::__1::vector"* %11 to i8*
  call void @llvm.lifetime.start.p0i8(i64 24, i8* nonnull %39) #9
  %40 = getelementptr inbounds %"class.std::__1::vector", %"class.std::__1::vector"* %11, i64 0, i32 0, i32 0
  %41 = getelementptr inbounds %"class.std::__1::vector", %"class.std::__1::vector"* %11, i64 0, i32 0, i32 1
  call void @llvm.memset.p0i8.i64(i8* nonnull align 8 %39, i8 0, i64 24, i1 false) #9
  call void @_ZNK13notifications36NotificationSchedulerClientRegistrar20GetRegisteredClientsEPNSt3__16vectorINS_19SchedulerClientTypeENS1_9allocatorIS3_EEEE(%"class.notifications::NotificationSchedulerClientRegistrar"* %0, %"class.std::__1::vector"* nonnull %11) #9
  %42 = call %"class.base::DefaultClock"* @_ZN4base12DefaultClock11GetInstanceEv() #9
  %43 = bitcast %"class.std::__1::vector"* %7 to i8*
  call void @llvm.lifetime.start.p0i8(i64 24, i8* nonnull %43)
  %44 = call i8* @_Znwm(i64 136) #10
  %45 = bitcast i8* %44 to %"class.notifications::ImpressionHistoryTrackerImpl"*
  call void @llvm.memset.p0i8.i64(i8* nonnull align 8 %43, i8 0, i64 24, i1 false) #9
  %46 = bitcast i32** %41 to i64*
  %47 = load i64, i64* %46, align 8
  %48 = bitcast %"class.std::__1::vector"* %11 to i64*
  %49 = load i64, i64* %48, align 8
  %50 = sub i64 %47, %49
  %51 = ashr exact i64 %50, 2
  %52 = icmp eq i64 %50, 0
  br i1 %52, label %75, label %53

53:                                               ; preds = %17
  %54 = icmp ugt i64 %51, 4611686018427387903
  br i1 %54, label %55, label %57

55:                                               ; preds = %53
  %56 = bitcast %"class.std::__1::vector"* %7 to %"class.std::__1::__vector_base_common"*
  call void @_ZNKSt3__120__vector_base_commonILb1EE20__throw_length_errorEv(%"class.std::__1::__vector_base_common"* nonnull %56) #11
  unreachable

57:                                               ; preds = %53
  %58 = call i8* @_Znwm(i64 %50) #10
  %59 = bitcast i8* %58 to i32*
  %60 = getelementptr inbounds %"class.std::__1::vector", %"class.std::__1::vector"* %7, i64 0, i32 0, i32 1
  %61 = bitcast i32** %60 to i8**
  store i8* %58, i8** %61, align 8
  %62 = bitcast %"class.std::__1::vector"* %7 to i8**
  store i8* %58, i8** %62, align 8
  %63 = getelementptr inbounds i32, i32* %59, i64 %51
  %64 = getelementptr inbounds %"class.std::__1::vector", %"class.std::__1::vector"* %7, i64 0, i32 0, i32 2, i32 0, i32 0
  store i32* %63, i32** %64, align 8
  %65 = bitcast i32** %60 to i64*
  %66 = ptrtoint i8* %58 to i64
  %67 = icmp sgt i64 %50, 0
  br i1 %67, label %68, label %73

68:                                               ; preds = %57
  %69 = lshr exact i64 %50, 2
  %70 = inttoptr i64 %49 to i8*
  call void @llvm.memcpy.p0i8.p0i8.i64(i8* nonnull align 4 %58, i8* align 4 %70, i64 %50, i1 false) #9
  %71 = getelementptr inbounds i32, i32* %59, i64 %69
  %72 = ptrtoint i32* %71 to i64
  br label %73

73:                                               ; preds = %68, %57
  %74 = phi i64 [ %72, %68 ], [ %66, %57 ]
  store i64 %74, i64* %65, align 8
  br label %75

75:                                               ; preds = %73, %17
  %76 = bitcast i8* %37 to %"class.notifications::CollectionStore"*
  %77 = getelementptr inbounds %"class.base::DefaultClock", %"class.base::DefaultClock"* %42, i64 0, i32 0
  call void @_ZN13notifications28ImpressionHistoryTrackerImplC1ERKNS_15SchedulerConfigENSt3__16vectorINS_19SchedulerClientTypeENS4_9allocatorIS6_EEEENS4_10unique_ptrINS_15CollectionStoreINS_11ClientStateEEENS4_14default_deleteISD_EEEEPN4base5ClockE(%"class.notifications::ImpressionHistoryTrackerImpl"* nonnull %45, %"struct.notifications::SchedulerConfig"* dereferenceable(64) %18, %"class.std::__1::vector"* nonnull %7, %"class.notifications::CollectionStore"* nonnull %76, %"class.base::Clock"* %77) #9
  %78 = getelementptr inbounds %"class.std::__1::vector", %"class.std::__1::vector"* %7, i64 0, i32 0, i32 0
  %79 = load i32*, i32** %78, align 8
  %80 = icmp eq i32* %79, null
  br i1 %80, label %86, label %81

81:                                               ; preds = %75
  %82 = ptrtoint i32* %79 to i64
  %83 = getelementptr inbounds %"class.std::__1::vector", %"class.std::__1::vector"* %7, i64 0, i32 0, i32 1
  %84 = bitcast i32** %83 to i64*
  store i64 %82, i64* %84, align 8
  %85 = bitcast i32* %79 to i8*
  call void @_ZdlPv(i8* %85) #10
  br label %86

86:                                               ; preds = %75, %81
  call void @llvm.lifetime.end.p0i8(i64 24, i8* nonnull %43)
  %87 = bitcast %"class.base::FilePath"* %12 to i8*
  call void @llvm.lifetime.start.p0i8(i64 24, i8* nonnull %87) #9
  %88 = bitcast %"class.base::FilePath"* %12 to i8*
  call void @llvm.memset.p0i8.i64(i8* nonnull align 8 %88, i8 -86, i64 24, i1 false)
  call void @_ZNK4base8FilePath6AppendENS_16BasicStringPieceIcNSt3__111char_traitsIcEEEE(%"class.base::FilePath"* nonnull sret %12, %"class.base::FilePath"* %4, i8* getelementptr inbounds ([15 x i8], [15 x i8]* @_ZN13notifications12_GLOBAL__N_119kNotificationDBNameE, i64 0, i64 0), i64 14) #9
  %89 = call %"class.leveldb_proto::ProtoDatabase.184"* @_ZN13leveldb_proto21ProtoDatabaseProvider5GetDBIN13notifications5proto17NotificationEntryENS2_17NotificationEntryEEENSt3__110unique_ptrINS_13ProtoDatabaseIT_T0_EENS6_14default_deleteISB_EEEENS_11ProtoDbTypeERKN4base8FilePathERK13scoped_refptrINSG_19SequencedTaskRunnerEE(%"class.leveldb_proto::ProtoDatabaseProvider"* %3, i32 17, %"class.base::FilePath"* nonnull dereferenceable(24) %12, %class.scoped_refptr.31* nonnull dereferenceable(8) %8)
  %90 = call i8* @_Znwm(i64 32) #10
  %91 = bitcast i8* %90 to %"class.notifications::NotificationStore"*
  call void @_ZN13notifications17NotificationStoreC1ENSt3__110unique_ptrIN13leveldb_proto13ProtoDatabaseINS_5proto17NotificationEntryENS_17NotificationEntryEEENS1_14default_deleteIS8_EEEE(%"class.notifications::NotificationStore"* nonnull %91, %"class.leveldb_proto::ProtoDatabase.184"* %89) #9
  %92 = bitcast i8* %90 to %"class.notifications::CollectionStore.191"*
  %93 = bitcast i8* %31 to %"class.notifications::IconStore"*
  %94 = call %"class.notifications::ScheduledNotificationManager"* @_ZN13notifications28ScheduledNotificationManager6CreateENSt3__110unique_ptrINS_15CollectionStoreINS_17NotificationEntryEEENS1_14default_deleteIS5_EEEENS2_INS_9IconStoreENS6_IS9_EEEERKNS1_6vectorINS_19SchedulerClientTypeENS1_9allocatorISD_EEEERKNS_15SchedulerConfigE(%"class.notifications::CollectionStore.191"* nonnull %92, %"class.notifications::IconStore"* nonnull %93, %"class.std::__1::vector"* nonnull dereferenceable(24) %11, %"struct.notifications::SchedulerConfig"* dereferenceable(64) %18) #9
  %95 = call %"class.base::DefaultClock"* @_ZN4base12DefaultClock11GetInstanceEv() #9
  %96 = getelementptr inbounds %"class.base::DefaultClock", %"class.base::DefaultClock"* %95, i64 0, i32 0
  %97 = call %"class.notifications::BackgroundTaskCoordinator"* @_ZN13notifications25BackgroundTaskCoordinator6CreateENSt3__110unique_ptrINS_35NotificationBackgroundTaskSchedulerENS1_14default_deleteIS3_EEEEPKNS_15SchedulerConfigEPN4base5ClockE(%"class.notifications::NotificationBackgroundTaskScheduler"* %1, %"struct.notifications::SchedulerConfig"* %18, %"class.base::Clock"* %96) #9
  %98 = bitcast %"class.std::__1::vector"* %13 to i8*
  call void @llvm.memset.p0i8.i64(i8* nonnull align 8 %98, i8 0, i64 24, i1 false) #9
  %99 = load i64, i64* %46, align 8
  %100 = load i64, i64* %48, align 8
  %101 = sub i64 %99, %100
  %102 = ashr exact i64 %101, 2
  %103 = icmp eq i64 %101, 0
  br i1 %103, label %126, label %104

104:                                              ; preds = %86
  %105 = icmp ugt i64 %102, 4611686018427387903
  br i1 %105, label %106, label %108

106:                                              ; preds = %104
  %107 = bitcast %"class.std::__1::vector"* %13 to %"class.std::__1::__vector_base_common"*
  call void @_ZNKSt3__120__vector_base_commonILb1EE20__throw_length_errorEv(%"class.std::__1::__vector_base_common"* nonnull %107) #11
  unreachable

108:                                              ; preds = %104
  %109 = call i8* @_Znwm(i64 %101) #10
  %110 = bitcast i8* %109 to i32*
  %111 = getelementptr inbounds %"class.std::__1::vector", %"class.std::__1::vector"* %13, i64 0, i32 0, i32 1
  %112 = bitcast i32** %111 to i8**
  store i8* %109, i8** %112, align 8
  %113 = bitcast %"class.std::__1::vector"* %13 to i8**
  store i8* %109, i8** %113, align 8
  %114 = getelementptr inbounds i32, i32* %110, i64 %102
  %115 = getelementptr inbounds %"class.std::__1::vector", %"class.std::__1::vector"* %13, i64 0, i32 0, i32 2, i32 0, i32 0
  store i32* %114, i32** %115, align 8
  %116 = bitcast i32** %111 to i64*
  %117 = ptrtoint i8* %109 to i64
  %118 = icmp sgt i64 %101, 0
  br i1 %118, label %119, label %124

119:                                              ; preds = %108
  %120 = lshr exact i64 %101, 2
  %121 = inttoptr i64 %100 to i8*
  call void @llvm.memcpy.p0i8.p0i8.i64(i8* nonnull align 4 %109, i8* align 4 %121, i64 %101, i1 false) #9
  %122 = getelementptr inbounds i32, i32* %110, i64 %120
  %123 = ptrtoint i32* %122 to i64
  br label %124

124:                                              ; preds = %119, %108
  %125 = phi i64 [ %123, %119 ], [ %117, %108 ]
  store i64 %125, i64* %116, align 8
  br label %126

126:                                              ; preds = %86, %124
  %127 = call %"class.base::DefaultClock"* @_ZN4base12DefaultClock11GetInstanceEv() #9
  %128 = getelementptr inbounds %"class.base::DefaultClock", %"class.base::DefaultClock"* %127, i64 0, i32 0
  %129 = call %"class.notifications::DisplayDecider"* @_ZN13notifications14DisplayDecider6CreateEPKNS_15SchedulerConfigENSt3__16vectorINS_19SchedulerClientTypeENS4_9allocatorIS6_EEEEPN4base5ClockE(%"struct.notifications::SchedulerConfig"* %18, %"class.std::__1::vector"* nonnull %13, %"class.base::Clock"* %128) #9
  %130 = ptrtoint %"class.notifications::DisplayDecider"* %129 to i64
  %131 = getelementptr inbounds %"class.std::__1::vector", %"class.std::__1::vector"* %13, i64 0, i32 0, i32 0
  %132 = load i32*, i32** %131, align 8
  %133 = icmp eq i32* %132, null
  br i1 %133, label %139, label %134

134:                                              ; preds = %126
  %135 = ptrtoint i32* %132 to i64
  %136 = getelementptr inbounds %"class.std::__1::vector", %"class.std::__1::vector"* %13, i64 0, i32 0, i32 1
  %137 = bitcast i32** %136 to i64*
  store i64 %135, i64* %137, align 8
  %138 = bitcast i32* %132 to i8*
  call void @_ZdlPv(i8* %138) #10
  br label %139

139:                                              ; preds = %126, %134
  %140 = call i8* @_Znwm(i64 56) #10
  %141 = bitcast i8* %140 to %"class.notifications::NotificationSchedulerContext"*
  %142 = bitcast i8* %44 to %"class.notifications::ImpressionHistoryTracker"*
  call void @_ZN13notifications28NotificationSchedulerContextC1ENSt3__110unique_ptrINS_36NotificationSchedulerClientRegistrarENS1_14default_deleteIS3_EEEENS2_INS_25BackgroundTaskCoordinatorENS4_IS7_EEEENS2_INS_24ImpressionHistoryTrackerENS4_ISA_EEEENS2_INS_28ScheduledNotificationManagerENS4_ISD_EEEENS2_INS_12DisplayAgentENS4_ISG_EEEENS2_INS_14DisplayDeciderENS4_ISJ_EEEENS2_INS_15SchedulerConfigENS4_ISM_EEEE(%"class.notifications::NotificationSchedulerContext"* nonnull %141, %"class.notifications::NotificationSchedulerClientRegistrar"* %0, %"class.notifications::BackgroundTaskCoordinator"* %97, %"class.notifications::ImpressionHistoryTracker"* nonnull %142, %"class.notifications::ScheduledNotificationManager"* %94, %"class.notifications::DisplayAgent"* %2, i64 %130, i64 %19) #9
  %143 = call %"class.notifications::NotificationScheduler"* @_ZN13notifications21NotificationScheduler6CreateENSt3__110unique_ptrINS_28NotificationSchedulerContextENS1_14default_deleteIS3_EEEE(%"class.notifications::NotificationSchedulerContext"* nonnull %141) #9
  %144 = call i8* @_Znwm(i64 72) #10
  %145 = bitcast i8* %144 to %"class.notifications::InitAwareNotificationScheduler"*
  call void @_ZN13notifications30InitAwareNotificationSchedulerC1ENSt3__110unique_ptrINS_21NotificationSchedulerENS1_14default_deleteIS3_EEEE(%"class.notifications::InitAwareNotificationScheduler"* nonnull %145, %"class.notifications::NotificationScheduler"* %143) #9
  %146 = call i8* @_Znwm(i64 48) #10
  %147 = bitcast i8* %146 to %"class.notifications::NotificationScheduleServiceImpl"*
  %148 = bitcast i8* %144 to %"class.notifications::NotificationScheduler"*
  call void @_ZN13notifications31NotificationScheduleServiceImplC1ENSt3__110unique_ptrINS_21NotificationSchedulerENS1_14default_deleteIS3_EEEE(%"class.notifications::NotificationScheduleServiceImpl"* nonnull %147, %"class.notifications::NotificationScheduler"* nonnull %148) #9
  %149 = ptrtoint i8* %146 to i64
  call void @_ZN4base8FilePathD1Ev(%"class.base::FilePath"* nonnull %12) #9
  call void @llvm.lifetime.end.p0i8(i64 24, i8* nonnull %87) #9
  %150 = load i32*, i32** %40, align 8
  %151 = icmp eq i32* %150, null
  br i1 %151, label %155, label %152

152:                                              ; preds = %139
  %153 = ptrtoint i32* %150 to i64
  store i64 %153, i64* %46, align 8
  %154 = bitcast i32* %150 to i8*
  call void @_ZdlPv(i8* %154) #10
  br label %155

155:                                              ; preds = %139, %152
  call void @llvm.lifetime.end.p0i8(i64 24, i8* nonnull %39) #9
  call void @_ZN4base8FilePathD1Ev(%"class.base::FilePath"* nonnull %10) #9
  call void @llvm.lifetime.end.p0i8(i64 24, i8* nonnull %34) #9
  call void @_ZN4base8FilePathD1Ev(%"class.base::FilePath"* nonnull %9) #9
  call void @llvm.lifetime.end.p0i8(i64 24, i8* nonnull %26) #9
  %156 = load %"class.base::SequencedTaskRunner"*, %"class.base::SequencedTaskRunner"** %21, align 8
  %157 = icmp eq %"class.base::SequencedTaskRunner"* %156, null
  br i1 %157, label %166, label %158

158:                                              ; preds = %155
  %159 = getelementptr inbounds %"class.base::SequencedTaskRunner", %"class.base::SequencedTaskRunner"* %156, i64 0, i32 0, i32 1
  %160 = getelementptr inbounds %"class.base::RefCountedThreadSafe.32", %"class.base::RefCountedThreadSafe.32"* %159, i64 0, i32 0, i32 0, i32 0, i32 0, i32 0, i32 0, i32 0, i32 0
  %161 = atomicrmw sub i32* %160, i32 1 acq_rel
  %162 = icmp eq i32 %161, 1
  br i1 %162, label %163, label %166

163:                                              ; preds = %158
  %164 = getelementptr inbounds %"class.base::RefCountedThreadSafe.32", %"class.base::RefCountedThreadSafe.32"* %159, i64 -2
  %165 = bitcast %"class.base::RefCountedThreadSafe.32"* %164 to %"class.base::TaskRunner"*
  call void @_ZN4base16TaskRunnerTraits8DestructEPKNS_10TaskRunnerE(%"class.base::TaskRunner"* %165) #9
  br label %166

166:                                              ; preds = %155, %158, %163
  call void @llvm.lifetime.end.p0i8(i64 8, i8* nonnull %20) #9
  br label %188

167:                                              ; preds = %6
  %168 = tail call i8* @_Znwm(i64 24) #10
  %169 = bitcast i8* %168 to %"class.notifications::NoopNotificationScheduleService"*
  tail call void @_ZN13notifications31NoopNotificationScheduleServiceC1Ev(%"class.notifications::NoopNotificationScheduleService"* nonnull %169) #9
  %170 = ptrtoint i8* %168 to i64
  %171 = icmp eq %"class.notifications::DisplayAgent"* %2, null
  br i1 %171, label %177, label %172

172:                                              ; preds = %167
  %173 = bitcast %"class.notifications::DisplayAgent"* %2 to void (%"class.notifications::DisplayAgent"*)***
  %174 = load void (%"class.notifications::DisplayAgent"*)**, void (%"class.notifications::DisplayAgent"*)*** %173, align 8
  %175 = getelementptr inbounds void (%"class.notifications::DisplayAgent"*)*, void (%"class.notifications::DisplayAgent"*)** %174, i64 2
  %176 = load void (%"class.notifications::DisplayAgent"*)*, void (%"class.notifications::DisplayAgent"*)** %175, align 8
  tail call void %176(%"class.notifications::DisplayAgent"* nonnull %2) #9
  br label %177

177:                                              ; preds = %167, %172
  %178 = icmp eq %"class.notifications::NotificationBackgroundTaskScheduler"* %1, null
  br i1 %178, label %184, label %179

179:                                              ; preds = %177
  %180 = bitcast %"class.notifications::NotificationBackgroundTaskScheduler"* %1 to void (%"class.notifications::NotificationBackgroundTaskScheduler"*)***
  %181 = load void (%"class.notifications::NotificationBackgroundTaskScheduler"*)**, void (%"class.notifications::NotificationBackgroundTaskScheduler"*)*** %180, align 8
  %182 = getelementptr inbounds void (%"class.notifications::NotificationBackgroundTaskScheduler"*)*, void (%"class.notifications::NotificationBackgroundTaskScheduler"*)** %181, i64 3
  %183 = load void (%"class.notifications::NotificationBackgroundTaskScheduler"*)*, void (%"class.notifications::NotificationBackgroundTaskScheduler"*)** %182, align 8
  tail call void %183(%"class.notifications::NotificationBackgroundTaskScheduler"* nonnull %1) #9
  br label %184

184:                                              ; preds = %177, %179
  %185 = icmp eq %"class.notifications::NotificationSchedulerClientRegistrar"* %0, null
  br i1 %185, label %188, label %186

186:                                              ; preds = %184
  tail call void @_ZN13notifications36NotificationSchedulerClientRegistrarD1Ev(%"class.notifications::NotificationSchedulerClientRegistrar"* nonnull %0) #9
  %187 = bitcast %"class.notifications::NotificationSchedulerClientRegistrar"* %0 to i8*
  tail call void @_ZdlPv(i8* %187) #10
  br label %188

188:                                              ; preds = %166, %184, %186
  %189 = phi i64 [ %149, %166 ], [ %170, %184 ], [ %170, %186 ]
  %190 = inttoptr i64 %189 to %class.KeyedService*
  ret %class.KeyedService* %190
}

declare zeroext i1 @_ZN4base11FeatureList9IsEnabledERKNS_7FeatureE(%"struct.base::Feature"* dereferenceable(16)) local_unnamed_addr #1

; Function Attrs: argmemonly nounwind
declare void @llvm.lifetime.start.p0i8(i64 immarg, i8* nocapture) #2

; Function Attrs: argmemonly nounwind
declare void @llvm.lifetime.end.p0i8(i64 immarg, i8* nocapture) #2

declare %"struct.notifications::SchedulerConfig"* @_ZN13notifications15SchedulerConfig6CreateEv() local_unnamed_addr #1

declare %"class.base::SequencedTaskRunner"* @_ZN4base10ThreadPool25CreateSequencedTaskRunnerERKNS_10TaskTraitsE(%"class.base::TaskTraits"* dereferenceable(15)) local_unnamed_addr #1

declare void @_ZN13notifications36NotificationSchedulerClientRegistrar14RegisterClientENS_19SchedulerClientTypeENSt3__110unique_ptrINS_27NotificationSchedulerClientENS2_14default_deleteIS4_EEEE(%"class.notifications::NotificationSchedulerClientRegistrar"*, i32, %"class.notifications::NotificationSchedulerClient"*) local_unnamed_addr #1

declare void @_ZNK4base8FilePath6AppendENS_16BasicStringPieceIcNSt3__111char_traitsIcEEEE(%"class.base::FilePath"* sret, %"class.base::FilePath"*, i8*, i64) local_unnamed_addr #1

; Function Attrs: nounwind ssp uwtable
define linkonce_odr hidden %"class.leveldb_proto::ProtoDatabase.108"* @_ZN13leveldb_proto21ProtoDatabaseProvider5GetDBIN13notifications5proto4IconENS2_9IconEntryEEENSt3__110unique_ptrINS_13ProtoDatabaseIT_T0_EENS6_14default_deleteISB_EEEENS_11ProtoDbTypeERKN4base8FilePathERK13scoped_refptrINSG_19SequencedTaskRunnerEE(%"class.leveldb_proto::ProtoDatabaseProvider"*, i32, %"class.base::FilePath"* dereferenceable(24), %class.scoped_refptr.31* dereferenceable(8)) local_unnamed_addr #0 comdat align 2 {
  %5 = alloca %"class.base::internal::WeakReference", align 8
  %6 = alloca %"class.base::FilePath", align 8
  %7 = alloca %"class.base::WeakPtr", align 8
  %8 = getelementptr inbounds %"class.leveldb_proto::ProtoDatabaseProvider", %"class.leveldb_proto::ProtoDatabaseProvider"* %0, i64 0, i32 2
  %9 = load i8, i8* %8, align 8, !range !2
  %10 = icmp eq i8 %9, 0
  br i1 %10, label %41, label %11

11:                                               ; preds = %4
  %12 = bitcast %"class.base::FilePath"* %6 to i8*
  call void @llvm.lifetime.start.p0i8(i64 24, i8* nonnull %12) #9
  call void @_ZN4base8FilePathC1Ev(%"class.base::FilePath"* nonnull %6) #9
  %13 = call i8* @_Znwm(i64 64) #10
  %14 = bitcast i8* %13 to i32 (...)***
  store i32 (...)** bitcast (i8** getelementptr inbounds ({ [18 x i8*] }, { [18 x i8*] }* @_ZTVN13leveldb_proto17ProtoDatabaseImplIN13notifications5proto4IconENS1_9IconEntryEEE, i64 0, inrange i32 0, i64 2) to i32 (...)**), i32 (...)*** %14, align 8
  %15 = getelementptr inbounds i8, i8* %13, i64 8
  %16 = bitcast i8* %15 to i32*
  store i32 %1, i32* %16, align 8
  %17 = call i8* @_Znwm(i64 128) #10
  %18 = bitcast i8* %17 to %"class.leveldb_proto::ProtoDatabaseSelector"*
  %19 = getelementptr inbounds %class.scoped_refptr.31, %class.scoped_refptr.31* %3, i64 0, i32 0
  %20 = load %"class.base::SequencedTaskRunner"*, %"class.base::SequencedTaskRunner"** %19, align 8
  %21 = icmp eq %"class.base::SequencedTaskRunner"* %20, null
  br i1 %21, label %25, label %22

22:                                               ; preds = %11
  %23 = getelementptr inbounds %"class.base::SequencedTaskRunner", %"class.base::SequencedTaskRunner"* %20, i64 0, i32 0, i32 1, i32 0, i32 0, i32 0, i32 0, i32 0, i32 0, i32 0, i32 0
  %24 = atomicrmw add i32* %23, i32 1 monotonic
  br label %25

25:                                               ; preds = %22, %11
  call void @_ZN13leveldb_proto21ProtoDatabaseSelectorC1ENS_11ProtoDbTypeE13scoped_refptrIN4base19SequencedTaskRunnerEENSt3__110unique_ptrINS_27SharedProtoDatabaseProviderENS6_14default_deleteIS8_EEEE(%"class.leveldb_proto::ProtoDatabaseSelector"* nonnull %18, i32 %1, %"class.base::SequencedTaskRunner"* %20, %"class.leveldb_proto::SharedProtoDatabaseProvider"* null) #9
  %26 = getelementptr inbounds i8, i8* %13, i64 16
  %27 = bitcast i8* %26 to i8**
  store i8* %17, i8** %27, align 8
  %28 = bitcast i8* %17 to i32*
  %29 = atomicrmw add i32* %28, i32 1 monotonic
  %30 = getelementptr inbounds i8, i8* %13, i64 24
  store i8 1, i8* %30, align 8
  %31 = load %"class.base::SequencedTaskRunner"*, %"class.base::SequencedTaskRunner"** %19, align 8
  %32 = getelementptr inbounds i8, i8* %13, i64 32
  %33 = bitcast i8* %32 to %"class.base::SequencedTaskRunner"**
  store %"class.base::SequencedTaskRunner"* %31, %"class.base::SequencedTaskRunner"** %33, align 8
  %34 = icmp eq %"class.base::SequencedTaskRunner"* %31, null
  br i1 %34, label %38, label %35

35:                                               ; preds = %25
  %36 = getelementptr inbounds %"class.base::SequencedTaskRunner", %"class.base::SequencedTaskRunner"* %31, i64 0, i32 0, i32 1, i32 0, i32 0, i32 0, i32 0, i32 0, i32 0, i32 0, i32 0
  %37 = atomicrmw add i32* %36, i32 1 monotonic
  br label %38

38:                                               ; preds = %25, %35
  %39 = getelementptr inbounds i8, i8* %13, i64 40
  %40 = bitcast i8* %39 to %"class.base::FilePath"*
  call void @_ZN4base8FilePathC1ERKS0_(%"class.base::FilePath"* %40, %"class.base::FilePath"* nonnull dereferenceable(24) %6) #9
  call void @_ZN4base8FilePathD1Ev(%"class.base::FilePath"* nonnull %6) #9
  call void @llvm.lifetime.end.p0i8(i64 24, i8* nonnull %12) #9
  br label %78

41:                                               ; preds = %4
  %42 = tail call i8* @_Znwm(i64 24) #10
  %43 = bitcast i8* %42 to %"class.leveldb_proto::SharedProtoDatabaseProvider"*
  %44 = getelementptr inbounds %"class.leveldb_proto::ProtoDatabaseProvider", %"class.leveldb_proto::ProtoDatabaseProvider"* %0, i64 0, i32 5
  %45 = bitcast %"class.base::internal::WeakReference"* %5 to i8*
  call void @llvm.lifetime.start.p0i8(i64 8, i8* nonnull %45) #9, !noalias !3
  %46 = getelementptr inbounds %"class.leveldb_proto::ProtoDatabaseProvider", %"class.leveldb_proto::ProtoDatabaseProvider"* %0, i64 0, i32 6, i32 0, i32 0
  call void @_ZNK4base8internal18WeakReferenceOwner6GetRefEv(%"class.base::internal::WeakReference"* nonnull sret %5, %"class.base::internal::WeakReferenceOwner"* %46) #9, !noalias !3
  %47 = getelementptr inbounds %"class.leveldb_proto::ProtoDatabaseProvider", %"class.leveldb_proto::ProtoDatabaseProvider"* %0, i64 0, i32 6, i32 0, i32 1
  %48 = load i64, i64* %47, align 8, !noalias !3
  %49 = getelementptr inbounds %"class.base::WeakPtr", %"class.base::WeakPtr"* %7, i64 0, i32 0
  call void @_ZN4base8internal11WeakPtrBaseC2ERKNS0_13WeakReferenceEm(%"class.base::internal::WeakPtrBase"* nonnull %49, %"class.base::internal::WeakReference"* nonnull dereferenceable(8) %5, i64 %48) #9
  call void @_ZN4base8internal13WeakReferenceD1Ev(%"class.base::internal::WeakReference"* nonnull %5) #9
  call void @llvm.lifetime.end.p0i8(i64 8, i8* nonnull %45) #9, !noalias !3
  call void @_ZN13leveldb_proto27SharedProtoDatabaseProviderC1ERK13scoped_refptrIN4base19SequencedTaskRunnerEENS2_7WeakPtrINS_21ProtoDatabaseProviderEEE(%"class.leveldb_proto::SharedProtoDatabaseProvider"* nonnull %43, %class.scoped_refptr.31* dereferenceable(8) %44, %"class.base::WeakPtr"* nonnull %7) #9
  %50 = call i8* @_Znwm(i64 64) #10
  %51 = bitcast i8* %50 to i32 (...)***
  store i32 (...)** bitcast (i8** getelementptr inbounds ({ [18 x i8*] }, { [18 x i8*] }* @_ZTVN13leveldb_proto17ProtoDatabaseImplIN13notifications5proto4IconENS1_9IconEntryEEE, i64 0, inrange i32 0, i64 2) to i32 (...)**), i32 (...)*** %51, align 8
  %52 = getelementptr inbounds i8, i8* %50, i64 8
  %53 = bitcast i8* %52 to i32*
  store i32 %1, i32* %53, align 8
  %54 = call i8* @_Znwm(i64 128) #10
  %55 = bitcast i8* %54 to %"class.leveldb_proto::ProtoDatabaseSelector"*
  %56 = getelementptr inbounds %class.scoped_refptr.31, %class.scoped_refptr.31* %3, i64 0, i32 0
  %57 = load %"class.base::SequencedTaskRunner"*, %"class.base::SequencedTaskRunner"** %56, align 8
  %58 = icmp eq %"class.base::SequencedTaskRunner"* %57, null
  br i1 %58, label %62, label %59

59:                                               ; preds = %41
  %60 = getelementptr inbounds %"class.base::SequencedTaskRunner", %"class.base::SequencedTaskRunner"* %57, i64 0, i32 0, i32 1, i32 0, i32 0, i32 0, i32 0, i32 0, i32 0, i32 0, i32 0
  %61 = atomicrmw add i32* %60, i32 1 monotonic
  br label %62

62:                                               ; preds = %59, %41
  call void @_ZN13leveldb_proto21ProtoDatabaseSelectorC1ENS_11ProtoDbTypeE13scoped_refptrIN4base19SequencedTaskRunnerEENSt3__110unique_ptrINS_27SharedProtoDatabaseProviderENS6_14default_deleteIS8_EEEE(%"class.leveldb_proto::ProtoDatabaseSelector"* nonnull %55, i32 %1, %"class.base::SequencedTaskRunner"* %57, %"class.leveldb_proto::SharedProtoDatabaseProvider"* nonnull %43) #9
  %63 = getelementptr inbounds i8, i8* %50, i64 16
  %64 = bitcast i8* %63 to i8**
  store i8* %54, i8** %64, align 8
  %65 = bitcast i8* %54 to i32*
  %66 = atomicrmw add i32* %65, i32 1 monotonic
  %67 = getelementptr inbounds i8, i8* %50, i64 24
  store i8 0, i8* %67, align 8
  %68 = load %"class.base::SequencedTaskRunner"*, %"class.base::SequencedTaskRunner"** %56, align 8
  %69 = getelementptr inbounds i8, i8* %50, i64 32
  %70 = bitcast i8* %69 to %"class.base::SequencedTaskRunner"**
  store %"class.base::SequencedTaskRunner"* %68, %"class.base::SequencedTaskRunner"** %70, align 8
  %71 = icmp eq %"class.base::SequencedTaskRunner"* %68, null
  br i1 %71, label %75, label %72

72:                                               ; preds = %62
  %73 = getelementptr inbounds %"class.base::SequencedTaskRunner", %"class.base::SequencedTaskRunner"* %68, i64 0, i32 0, i32 1, i32 0, i32 0, i32 0, i32 0, i32 0, i32 0, i32 0, i32 0
  %74 = atomicrmw add i32* %73, i32 1 monotonic
  br label %75

75:                                               ; preds = %62, %72
  %76 = getelementptr inbounds i8, i8* %50, i64 40
  %77 = bitcast i8* %76 to %"class.base::FilePath"*
  call void @_ZN4base8FilePathC1ERKS0_(%"class.base::FilePath"* %77, %"class.base::FilePath"* dereferenceable(24) %2) #9
  call void @_ZN4base8internal11WeakPtrBaseD2Ev(%"class.base::internal::WeakPtrBase"* nonnull %49) #9
  br label %78

78:                                               ; preds = %75, %38
  %79 = phi i8* [ %50, %75 ], [ %13, %38 ]
  %80 = bitcast i8* %79 to %"class.leveldb_proto::ProtoDatabase.108"*
  ret %"class.leveldb_proto::ProtoDatabase.108"* %80
}

; Function Attrs: nounwind ssp uwtable
define linkonce_odr hidden %"class.leveldb_proto::ProtoDatabase.134"* @_ZN13leveldb_proto21ProtoDatabaseProvider5GetDBIN13notifications5proto11ClientStateENS2_11ClientStateEEENSt3__110unique_ptrINS_13ProtoDatabaseIT_T0_EENS6_14default_deleteISB_EEEENS_11ProtoDbTypeERKN4base8FilePathERK13scoped_refptrINSG_19SequencedTaskRunnerEE(%"class.leveldb_proto::ProtoDatabaseProvider"*, i32, %"class.base::FilePath"* dereferenceable(24), %class.scoped_refptr.31* dereferenceable(8)) local_unnamed_addr #0 comdat align 2 {
  %5 = alloca %"class.base::internal::WeakReference", align 8
  %6 = alloca %"class.base::FilePath", align 8
  %7 = alloca %"class.base::WeakPtr", align 8
  %8 = getelementptr inbounds %"class.leveldb_proto::ProtoDatabaseProvider", %"class.leveldb_proto::ProtoDatabaseProvider"* %0, i64 0, i32 2
  %9 = load i8, i8* %8, align 8, !range !2
  %10 = icmp eq i8 %9, 0
  br i1 %10, label %41, label %11

11:                                               ; preds = %4
  %12 = bitcast %"class.base::FilePath"* %6 to i8*
  call void @llvm.lifetime.start.p0i8(i64 24, i8* nonnull %12) #9
  call void @_ZN4base8FilePathC1Ev(%"class.base::FilePath"* nonnull %6) #9
  %13 = call i8* @_Znwm(i64 64) #10
  %14 = bitcast i8* %13 to i32 (...)***
  store i32 (...)** bitcast (i8** getelementptr inbounds ({ [18 x i8*] }, { [18 x i8*] }* @_ZTVN13leveldb_proto17ProtoDatabaseImplIN13notifications5proto11ClientStateENS1_11ClientStateEEE, i64 0, inrange i32 0, i64 2) to i32 (...)**), i32 (...)*** %14, align 8
  %15 = getelementptr inbounds i8, i8* %13, i64 8
  %16 = bitcast i8* %15 to i32*
  store i32 %1, i32* %16, align 8
  %17 = call i8* @_Znwm(i64 128) #10
  %18 = bitcast i8* %17 to %"class.leveldb_proto::ProtoDatabaseSelector"*
  %19 = getelementptr inbounds %class.scoped_refptr.31, %class.scoped_refptr.31* %3, i64 0, i32 0
  %20 = load %"class.base::SequencedTaskRunner"*, %"class.base::SequencedTaskRunner"** %19, align 8
  %21 = icmp eq %"class.base::SequencedTaskRunner"* %20, null
  br i1 %21, label %25, label %22

22:                                               ; preds = %11
  %23 = getelementptr inbounds %"class.base::SequencedTaskRunner", %"class.base::SequencedTaskRunner"* %20, i64 0, i32 0, i32 1, i32 0, i32 0, i32 0, i32 0, i32 0, i32 0, i32 0, i32 0
  %24 = atomicrmw add i32* %23, i32 1 monotonic
  br label %25

25:                                               ; preds = %22, %11
  call void @_ZN13leveldb_proto21ProtoDatabaseSelectorC1ENS_11ProtoDbTypeE13scoped_refptrIN4base19SequencedTaskRunnerEENSt3__110unique_ptrINS_27SharedProtoDatabaseProviderENS6_14default_deleteIS8_EEEE(%"class.leveldb_proto::ProtoDatabaseSelector"* nonnull %18, i32 %1, %"class.base::SequencedTaskRunner"* %20, %"class.leveldb_proto::SharedProtoDatabaseProvider"* null) #9
  %26 = getelementptr inbounds i8, i8* %13, i64 16
  %27 = bitcast i8* %26 to i8**
  store i8* %17, i8** %27, align 8
  %28 = bitcast i8* %17 to i32*
  %29 = atomicrmw add i32* %28, i32 1 monotonic
  %30 = getelementptr inbounds i8, i8* %13, i64 24
  store i8 1, i8* %30, align 8
  %31 = load %"class.base::SequencedTaskRunner"*, %"class.base::SequencedTaskRunner"** %19, align 8
  %32 = getelementptr inbounds i8, i8* %13, i64 32
  %33 = bitcast i8* %32 to %"class.base::SequencedTaskRunner"**
  store %"class.base::SequencedTaskRunner"* %31, %"class.base::SequencedTaskRunner"** %33, align 8
  %34 = icmp eq %"class.base::SequencedTaskRunner"* %31, null
  br i1 %34, label %38, label %35

35:                                               ; preds = %25
  %36 = getelementptr inbounds %"class.base::SequencedTaskRunner", %"class.base::SequencedTaskRunner"* %31, i64 0, i32 0, i32 1, i32 0, i32 0, i32 0, i32 0, i32 0, i32 0, i32 0, i32 0
  %37 = atomicrmw add i32* %36, i32 1 monotonic
  br label %38

38:                                               ; preds = %25, %35
  %39 = getelementptr inbounds i8, i8* %13, i64 40
  %40 = bitcast i8* %39 to %"class.base::FilePath"*
  call void @_ZN4base8FilePathC1ERKS0_(%"class.base::FilePath"* %40, %"class.base::FilePath"* nonnull dereferenceable(24) %6) #9
  call void @_ZN4base8FilePathD1Ev(%"class.base::FilePath"* nonnull %6) #9
  call void @llvm.lifetime.end.p0i8(i64 24, i8* nonnull %12) #9
  br label %78

41:                                               ; preds = %4
  %42 = tail call i8* @_Znwm(i64 24) #10
  %43 = bitcast i8* %42 to %"class.leveldb_proto::SharedProtoDatabaseProvider"*
  %44 = getelementptr inbounds %"class.leveldb_proto::ProtoDatabaseProvider", %"class.leveldb_proto::ProtoDatabaseProvider"* %0, i64 0, i32 5
  %45 = bitcast %"class.base::internal::WeakReference"* %5 to i8*
  call void @llvm.lifetime.start.p0i8(i64 8, i8* nonnull %45) #9, !noalias !6
  %46 = getelementptr inbounds %"class.leveldb_proto::ProtoDatabaseProvider", %"class.leveldb_proto::ProtoDatabaseProvider"* %0, i64 0, i32 6, i32 0, i32 0
  call void @_ZNK4base8internal18WeakReferenceOwner6GetRefEv(%"class.base::internal::WeakReference"* nonnull sret %5, %"class.base::internal::WeakReferenceOwner"* %46) #9, !noalias !6
  %47 = getelementptr inbounds %"class.leveldb_proto::ProtoDatabaseProvider", %"class.leveldb_proto::ProtoDatabaseProvider"* %0, i64 0, i32 6, i32 0, i32 1
  %48 = load i64, i64* %47, align 8, !noalias !6
  %49 = getelementptr inbounds %"class.base::WeakPtr", %"class.base::WeakPtr"* %7, i64 0, i32 0
  call void @_ZN4base8internal11WeakPtrBaseC2ERKNS0_13WeakReferenceEm(%"class.base::internal::WeakPtrBase"* nonnull %49, %"class.base::internal::WeakReference"* nonnull dereferenceable(8) %5, i64 %48) #9
  call void @_ZN4base8internal13WeakReferenceD1Ev(%"class.base::internal::WeakReference"* nonnull %5) #9
  call void @llvm.lifetime.end.p0i8(i64 8, i8* nonnull %45) #9, !noalias !6
  call void @_ZN13leveldb_proto27SharedProtoDatabaseProviderC1ERK13scoped_refptrIN4base19SequencedTaskRunnerEENS2_7WeakPtrINS_21ProtoDatabaseProviderEEE(%"class.leveldb_proto::SharedProtoDatabaseProvider"* nonnull %43, %class.scoped_refptr.31* dereferenceable(8) %44, %"class.base::WeakPtr"* nonnull %7) #9
  %50 = call i8* @_Znwm(i64 64) #10
  %51 = bitcast i8* %50 to i32 (...)***
  store i32 (...)** bitcast (i8** getelementptr inbounds ({ [18 x i8*] }, { [18 x i8*] }* @_ZTVN13leveldb_proto17ProtoDatabaseImplIN13notifications5proto11ClientStateENS1_11ClientStateEEE, i64 0, inrange i32 0, i64 2) to i32 (...)**), i32 (...)*** %51, align 8
  %52 = getelementptr inbounds i8, i8* %50, i64 8
  %53 = bitcast i8* %52 to i32*
  store i32 %1, i32* %53, align 8
  %54 = call i8* @_Znwm(i64 128) #10
  %55 = bitcast i8* %54 to %"class.leveldb_proto::ProtoDatabaseSelector"*
  %56 = getelementptr inbounds %class.scoped_refptr.31, %class.scoped_refptr.31* %3, i64 0, i32 0
  %57 = load %"class.base::SequencedTaskRunner"*, %"class.base::SequencedTaskRunner"** %56, align 8
  %58 = icmp eq %"class.base::SequencedTaskRunner"* %57, null
  br i1 %58, label %62, label %59

59:                                               ; preds = %41
  %60 = getelementptr inbounds %"class.base::SequencedTaskRunner", %"class.base::SequencedTaskRunner"* %57, i64 0, i32 0, i32 1, i32 0, i32 0, i32 0, i32 0, i32 0, i32 0, i32 0, i32 0
  %61 = atomicrmw add i32* %60, i32 1 monotonic
  br label %62

62:                                               ; preds = %59, %41
  call void @_ZN13leveldb_proto21ProtoDatabaseSelectorC1ENS_11ProtoDbTypeE13scoped_refptrIN4base19SequencedTaskRunnerEENSt3__110unique_ptrINS_27SharedProtoDatabaseProviderENS6_14default_deleteIS8_EEEE(%"class.leveldb_proto::ProtoDatabaseSelector"* nonnull %55, i32 %1, %"class.base::SequencedTaskRunner"* %57, %"class.leveldb_proto::SharedProtoDatabaseProvider"* nonnull %43) #9
  %63 = getelementptr inbounds i8, i8* %50, i64 16
  %64 = bitcast i8* %63 to i8**
  store i8* %54, i8** %64, align 8
  %65 = bitcast i8* %54 to i32*
  %66 = atomicrmw add i32* %65, i32 1 monotonic
  %67 = getelementptr inbounds i8, i8* %50, i64 24
  store i8 0, i8* %67, align 8
  %68 = load %"class.base::SequencedTaskRunner"*, %"class.base::SequencedTaskRunner"** %56, align 8
  %69 = getelementptr inbounds i8, i8* %50, i64 32
  %70 = bitcast i8* %69 to %"class.base::SequencedTaskRunner"**
  store %"class.base::SequencedTaskRunner"* %68, %"class.base::SequencedTaskRunner"** %70, align 8
  %71 = icmp eq %"class.base::SequencedTaskRunner"* %68, null
  br i1 %71, label %75, label %72

72:                                               ; preds = %62
  %73 = getelementptr inbounds %"class.base::SequencedTaskRunner", %"class.base::SequencedTaskRunner"* %68, i64 0, i32 0, i32 1, i32 0, i32 0, i32 0, i32 0, i32 0, i32 0, i32 0, i32 0
  %74 = atomicrmw add i32* %73, i32 1 monotonic
  br label %75

75:                                               ; preds = %62, %72
  %76 = getelementptr inbounds i8, i8* %50, i64 40
  %77 = bitcast i8* %76 to %"class.base::FilePath"*
  call void @_ZN4base8FilePathC1ERKS0_(%"class.base::FilePath"* %77, %"class.base::FilePath"* dereferenceable(24) %2) #9
  call void @_ZN4base8internal11WeakPtrBaseD2Ev(%"class.base::internal::WeakPtrBase"* nonnull %49) #9
  br label %78

78:                                               ; preds = %75, %38
  %79 = phi i8* [ %50, %75 ], [ %13, %38 ]
  %80 = bitcast i8* %79 to %"class.leveldb_proto::ProtoDatabase.134"*
  ret %"class.leveldb_proto::ProtoDatabase.134"* %80
}

declare void @_ZNK13notifications36NotificationSchedulerClientRegistrar20GetRegisteredClientsEPNSt3__16vectorINS_19SchedulerClientTypeENS1_9allocatorIS3_EEEE(%"class.notifications::NotificationSchedulerClientRegistrar"*, %"class.std::__1::vector"*) local_unnamed_addr #1

declare %"class.base::DefaultClock"* @_ZN4base12DefaultClock11GetInstanceEv() local_unnamed_addr #1

; Function Attrs: nounwind ssp uwtable
define linkonce_odr hidden %"class.leveldb_proto::ProtoDatabase.184"* @_ZN13leveldb_proto21ProtoDatabaseProvider5GetDBIN13notifications5proto17NotificationEntryENS2_17NotificationEntryEEENSt3__110unique_ptrINS_13ProtoDatabaseIT_T0_EENS6_14default_deleteISB_EEEENS_11ProtoDbTypeERKN4base8FilePathERK13scoped_refptrINSG_19SequencedTaskRunnerEE(%"class.leveldb_proto::ProtoDatabaseProvider"*, i32, %"class.base::FilePath"* dereferenceable(24), %class.scoped_refptr.31* dereferenceable(8)) local_unnamed_addr #0 comdat align 2 {
  %5 = alloca %"class.base::internal::WeakReference", align 8
  %6 = alloca %"class.base::FilePath", align 8
  %7 = alloca %"class.base::WeakPtr", align 8
  %8 = getelementptr inbounds %"class.leveldb_proto::ProtoDatabaseProvider", %"class.leveldb_proto::ProtoDatabaseProvider"* %0, i64 0, i32 2
  %9 = load i8, i8* %8, align 8, !range !2
  %10 = icmp eq i8 %9, 0
  br i1 %10, label %41, label %11

11:                                               ; preds = %4
  %12 = bitcast %"class.base::FilePath"* %6 to i8*
  call void @llvm.lifetime.start.p0i8(i64 24, i8* nonnull %12) #9
  call void @_ZN4base8FilePathC1Ev(%"class.base::FilePath"* nonnull %6) #9
  %13 = call i8* @_Znwm(i64 64) #10
  %14 = bitcast i8* %13 to i32 (...)***
  store i32 (...)** bitcast (i8** getelementptr inbounds ({ [18 x i8*] }, { [18 x i8*] }* @_ZTVN13leveldb_proto17ProtoDatabaseImplIN13notifications5proto17NotificationEntryENS1_17NotificationEntryEEE, i64 0, inrange i32 0, i64 2) to i32 (...)**), i32 (...)*** %14, align 8
  %15 = getelementptr inbounds i8, i8* %13, i64 8
  %16 = bitcast i8* %15 to i32*
  store i32 %1, i32* %16, align 8
  %17 = call i8* @_Znwm(i64 128) #10
  %18 = bitcast i8* %17 to %"class.leveldb_proto::ProtoDatabaseSelector"*
  %19 = getelementptr inbounds %class.scoped_refptr.31, %class.scoped_refptr.31* %3, i64 0, i32 0
  %20 = load %"class.base::SequencedTaskRunner"*, %"class.base::SequencedTaskRunner"** %19, align 8
  %21 = icmp eq %"class.base::SequencedTaskRunner"* %20, null
  br i1 %21, label %25, label %22

22:                                               ; preds = %11
  %23 = getelementptr inbounds %"class.base::SequencedTaskRunner", %"class.base::SequencedTaskRunner"* %20, i64 0, i32 0, i32 1, i32 0, i32 0, i32 0, i32 0, i32 0, i32 0, i32 0, i32 0
  %24 = atomicrmw add i32* %23, i32 1 monotonic
  br label %25

25:                                               ; preds = %22, %11
  call void @_ZN13leveldb_proto21ProtoDatabaseSelectorC1ENS_11ProtoDbTypeE13scoped_refptrIN4base19SequencedTaskRunnerEENSt3__110unique_ptrINS_27SharedProtoDatabaseProviderENS6_14default_deleteIS8_EEEE(%"class.leveldb_proto::ProtoDatabaseSelector"* nonnull %18, i32 %1, %"class.base::SequencedTaskRunner"* %20, %"class.leveldb_proto::SharedProtoDatabaseProvider"* null) #9
  %26 = getelementptr inbounds i8, i8* %13, i64 16
  %27 = bitcast i8* %26 to i8**
  store i8* %17, i8** %27, align 8
  %28 = bitcast i8* %17 to i32*
  %29 = atomicrmw add i32* %28, i32 1 monotonic
  %30 = getelementptr inbounds i8, i8* %13, i64 24
  store i8 1, i8* %30, align 8
  %31 = load %"class.base::SequencedTaskRunner"*, %"class.base::SequencedTaskRunner"** %19, align 8
  %32 = getelementptr inbounds i8, i8* %13, i64 32
  %33 = bitcast i8* %32 to %"class.base::SequencedTaskRunner"**
  store %"class.base::SequencedTaskRunner"* %31, %"class.base::SequencedTaskRunner"** %33, align 8
  %34 = icmp eq %"class.base::SequencedTaskRunner"* %31, null
  br i1 %34, label %38, label %35

35:                                               ; preds = %25
  %36 = getelementptr inbounds %"class.base::SequencedTaskRunner", %"class.base::SequencedTaskRunner"* %31, i64 0, i32 0, i32 1, i32 0, i32 0, i32 0, i32 0, i32 0, i32 0, i32 0, i32 0
  %37 = atomicrmw add i32* %36, i32 1 monotonic
  br label %38

38:                                               ; preds = %25, %35
  %39 = getelementptr inbounds i8, i8* %13, i64 40
  %40 = bitcast i8* %39 to %"class.base::FilePath"*
  call void @_ZN4base8FilePathC1ERKS0_(%"class.base::FilePath"* %40, %"class.base::FilePath"* nonnull dereferenceable(24) %6) #9
  call void @_ZN4base8FilePathD1Ev(%"class.base::FilePath"* nonnull %6) #9
  call void @llvm.lifetime.end.p0i8(i64 24, i8* nonnull %12) #9
  br label %78

41:                                               ; preds = %4
  %42 = tail call i8* @_Znwm(i64 24) #10
  %43 = bitcast i8* %42 to %"class.leveldb_proto::SharedProtoDatabaseProvider"*
  %44 = getelementptr inbounds %"class.leveldb_proto::ProtoDatabaseProvider", %"class.leveldb_proto::ProtoDatabaseProvider"* %0, i64 0, i32 5
  %45 = bitcast %"class.base::internal::WeakReference"* %5 to i8*
  call void @llvm.lifetime.start.p0i8(i64 8, i8* nonnull %45) #9, !noalias !9
  %46 = getelementptr inbounds %"class.leveldb_proto::ProtoDatabaseProvider", %"class.leveldb_proto::ProtoDatabaseProvider"* %0, i64 0, i32 6, i32 0, i32 0
  call void @_ZNK4base8internal18WeakReferenceOwner6GetRefEv(%"class.base::internal::WeakReference"* nonnull sret %5, %"class.base::internal::WeakReferenceOwner"* %46) #9, !noalias !9
  %47 = getelementptr inbounds %"class.leveldb_proto::ProtoDatabaseProvider", %"class.leveldb_proto::ProtoDatabaseProvider"* %0, i64 0, i32 6, i32 0, i32 1
  %48 = load i64, i64* %47, align 8, !noalias !9
  %49 = getelementptr inbounds %"class.base::WeakPtr", %"class.base::WeakPtr"* %7, i64 0, i32 0
  call void @_ZN4base8internal11WeakPtrBaseC2ERKNS0_13WeakReferenceEm(%"class.base::internal::WeakPtrBase"* nonnull %49, %"class.base::internal::WeakReference"* nonnull dereferenceable(8) %5, i64 %48) #9
  call void @_ZN4base8internal13WeakReferenceD1Ev(%"class.base::internal::WeakReference"* nonnull %5) #9
  call void @llvm.lifetime.end.p0i8(i64 8, i8* nonnull %45) #9, !noalias !9
  call void @_ZN13leveldb_proto27SharedProtoDatabaseProviderC1ERK13scoped_refptrIN4base19SequencedTaskRunnerEENS2_7WeakPtrINS_21ProtoDatabaseProviderEEE(%"class.leveldb_proto::SharedProtoDatabaseProvider"* nonnull %43, %class.scoped_refptr.31* dereferenceable(8) %44, %"class.base::WeakPtr"* nonnull %7) #9
  %50 = call i8* @_Znwm(i64 64) #10
  %51 = bitcast i8* %50 to i32 (...)***
  store i32 (...)** bitcast (i8** getelementptr inbounds ({ [18 x i8*] }, { [18 x i8*] }* @_ZTVN13leveldb_proto17ProtoDatabaseImplIN13notifications5proto17NotificationEntryENS1_17NotificationEntryEEE, i64 0, inrange i32 0, i64 2) to i32 (...)**), i32 (...)*** %51, align 8
  %52 = getelementptr inbounds i8, i8* %50, i64 8
  %53 = bitcast i8* %52 to i32*
  store i32 %1, i32* %53, align 8
  %54 = call i8* @_Znwm(i64 128) #10
  %55 = bitcast i8* %54 to %"class.leveldb_proto::ProtoDatabaseSelector"*
  %56 = getelementptr inbounds %class.scoped_refptr.31, %class.scoped_refptr.31* %3, i64 0, i32 0
  %57 = load %"class.base::SequencedTaskRunner"*, %"class.base::SequencedTaskRunner"** %56, align 8
  %58 = icmp eq %"class.base::SequencedTaskRunner"* %57, null
  br i1 %58, label %62, label %59

59:                                               ; preds = %41
  %60 = getelementptr inbounds %"class.base::SequencedTaskRunner", %"class.base::SequencedTaskRunner"* %57, i64 0, i32 0, i32 1, i32 0, i32 0, i32 0, i32 0, i32 0, i32 0, i32 0, i32 0
  %61 = atomicrmw add i32* %60, i32 1 monotonic
  br label %62

62:                                               ; preds = %59, %41
  call void @_ZN13leveldb_proto21ProtoDatabaseSelectorC1ENS_11ProtoDbTypeE13scoped_refptrIN4base19SequencedTaskRunnerEENSt3__110unique_ptrINS_27SharedProtoDatabaseProviderENS6_14default_deleteIS8_EEEE(%"class.leveldb_proto::ProtoDatabaseSelector"* nonnull %55, i32 %1, %"class.base::SequencedTaskRunner"* %57, %"class.leveldb_proto::SharedProtoDatabaseProvider"* nonnull %43) #9
  %63 = getelementptr inbounds i8, i8* %50, i64 16
  %64 = bitcast i8* %63 to i8**
  store i8* %54, i8** %64, align 8
  %65 = bitcast i8* %54 to i32*
  %66 = atomicrmw add i32* %65, i32 1 monotonic
  %67 = getelementptr inbounds i8, i8* %50, i64 24
  store i8 0, i8* %67, align 8
  %68 = load %"class.base::SequencedTaskRunner"*, %"class.base::SequencedTaskRunner"** %56, align 8
  %69 = getelementptr inbounds i8, i8* %50, i64 32
  %70 = bitcast i8* %69 to %"class.base::SequencedTaskRunner"**
  store %"class.base::SequencedTaskRunner"* %68, %"class.base::SequencedTaskRunner"** %70, align 8
  %71 = icmp eq %"class.base::SequencedTaskRunner"* %68, null
  br i1 %71, label %75, label %72

72:                                               ; preds = %62
  %73 = getelementptr inbounds %"class.base::SequencedTaskRunner", %"class.base::SequencedTaskRunner"* %68, i64 0, i32 0, i32 1, i32 0, i32 0, i32 0, i32 0, i32 0, i32 0, i32 0, i32 0
  %74 = atomicrmw add i32* %73, i32 1 monotonic
  br label %75

75:                                               ; preds = %62, %72
  %76 = getelementptr inbounds i8, i8* %50, i64 40
  %77 = bitcast i8* %76 to %"class.base::FilePath"*
  call void @_ZN4base8FilePathC1ERKS0_(%"class.base::FilePath"* %77, %"class.base::FilePath"* dereferenceable(24) %2) #9
  call void @_ZN4base8internal11WeakPtrBaseD2Ev(%"class.base::internal::WeakPtrBase"* nonnull %49) #9
  br label %78

78:                                               ; preds = %75, %38
  %79 = phi i8* [ %50, %75 ], [ %13, %38 ]
  %80 = bitcast i8* %79 to %"class.leveldb_proto::ProtoDatabase.184"*
  ret %"class.leveldb_proto::ProtoDatabase.184"* %80
}

declare %"class.notifications::ScheduledNotificationManager"* @_ZN13notifications28ScheduledNotificationManager6CreateENSt3__110unique_ptrINS_15CollectionStoreINS_17NotificationEntryEEENS1_14default_deleteIS5_EEEENS2_INS_9IconStoreENS6_IS9_EEEERKNS1_6vectorINS_19SchedulerClientTypeENS1_9allocatorISD_EEEERKNS_15SchedulerConfigE(%"class.notifications::CollectionStore.191"*, %"class.notifications::IconStore"*, %"class.std::__1::vector"* dereferenceable(24), %"struct.notifications::SchedulerConfig"* dereferenceable(64)) local_unnamed_addr #1

declare %"class.notifications::BackgroundTaskCoordinator"* @_ZN13notifications25BackgroundTaskCoordinator6CreateENSt3__110unique_ptrINS_35NotificationBackgroundTaskSchedulerENS1_14default_deleteIS3_EEEEPKNS_15SchedulerConfigEPN4base5ClockE(%"class.notifications::NotificationBackgroundTaskScheduler"*, %"struct.notifications::SchedulerConfig"*, %"class.base::Clock"*) local_unnamed_addr #1

declare %"class.notifications::DisplayDecider"* @_ZN13notifications14DisplayDecider6CreateEPKNS_15SchedulerConfigENSt3__16vectorINS_19SchedulerClientTypeENS4_9allocatorIS6_EEEEPN4base5ClockE(%"struct.notifications::SchedulerConfig"*, %"class.std::__1::vector"*, %"class.base::Clock"*) local_unnamed_addr #1

declare %"class.notifications::NotificationScheduler"* @_ZN13notifications21NotificationScheduler6CreateENSt3__110unique_ptrINS_28NotificationSchedulerContextENS1_14default_deleteIS3_EEEE(%"class.notifications::NotificationSchedulerContext"*) local_unnamed_addr #1

; Function Attrs: nounwind
declare void @_ZN4base8FilePathD1Ev(%"class.base::FilePath"*) unnamed_addr #3

declare void @_ZN7logging10CheckError5CheckEPKciS2_(%"class.logging::CheckError"* sret, i8*, i32, i8*) local_unnamed_addr #1

declare dereferenceable(160) %"class.std::__1::basic_ostream"* @_ZN7logging10CheckError6streamEv(%"class.logging::CheckError"*) local_unnamed_addr #1

; Function Attrs: nounwind
declare void @_ZN7logging10CheckErrorD1Ev(%"class.logging::CheckError"*) unnamed_addr #3

; Function Attrs: nounwind
declare void @_ZN13notifications36NotificationSchedulerClientRegistrarD1Ev(%"class.notifications::NotificationSchedulerClientRegistrar"*) unnamed_addr #3

; Function Attrs: nobuiltin nounwind
declare void @_ZdlPv(i8*) local_unnamed_addr #4

; Function Attrs: nobuiltin nofree
declare noalias nonnull i8* @_Znwm(i64) local_unnamed_addr #5

declare void @_ZN13notifications31NoopNotificationScheduleServiceC1Ev(%"class.notifications::NoopNotificationScheduleService"*) unnamed_addr #1

declare void @_ZN4base16TaskRunnerTraits8DestructEPKNS_10TaskRunnerE(%"class.base::TaskRunner"*) local_unnamed_addr #1

declare void @_ZN13notifications11WebUIClientC1Ev(%"class.notifications::WebUIClient"*) unnamed_addr #1

declare void @_ZN4base8FilePathC1Ev(%"class.base::FilePath"*) unnamed_addr #1

declare void @_ZN13leveldb_proto27SharedProtoDatabaseProviderC1ERK13scoped_refptrIN4base19SequencedTaskRunnerEENS2_7WeakPtrINS_21ProtoDatabaseProviderEEE(%"class.leveldb_proto::SharedProtoDatabaseProvider"*, %class.scoped_refptr.31* dereferenceable(8), %"class.base::WeakPtr"*) unnamed_addr #1

; Function Attrs: nounwind
declare void @_ZN4base8internal11WeakPtrBaseD2Ev(%"class.base::internal::WeakPtrBase"*) unnamed_addr #3

declare void @_ZN13leveldb_proto21ProtoDatabaseSelectorC1ENS_11ProtoDbTypeE13scoped_refptrIN4base19SequencedTaskRunnerEENSt3__110unique_ptrINS_27SharedProtoDatabaseProviderENS6_14default_deleteIS8_EEEE(%"class.leveldb_proto::ProtoDatabaseSelector"*, i32, %"class.base::SequencedTaskRunner"*, %"class.leveldb_proto::SharedProtoDatabaseProvider"*) unnamed_addr #1

declare void @_ZN4base8FilePathC1ERKS0_(%"class.base::FilePath"*, %"class.base::FilePath"* dereferenceable(24)) unnamed_addr #1

; Function Attrs: nounwind ssp uwtable
define linkonce_odr hidden void @_ZN13leveldb_proto17ProtoDatabaseImplIN13notifications5proto4IconENS1_9IconEntryEED2Ev(%"class.leveldb_proto::ProtoDatabaseImpl"*) unnamed_addr #0 comdat align 2 {
  %2 = getelementptr inbounds %"class.leveldb_proto::ProtoDatabaseImpl", %"class.leveldb_proto::ProtoDatabaseImpl"* %0, i64 0, i32 0, i32 0
  store i32 (...)** bitcast (i8** getelementptr inbounds ({ [18 x i8*] }, { [18 x i8*] }* @_ZTVN13leveldb_proto17ProtoDatabaseImplIN13notifications5proto4IconENS1_9IconEntryEEE, i64 0, inrange i32 0, i64 2) to i32 (...)**), i32 (...)*** %2, align 8
  %3 = getelementptr inbounds %"class.leveldb_proto::ProtoDatabaseImpl", %"class.leveldb_proto::ProtoDatabaseImpl"* %0, i64 0, i32 5
  tail call void @_ZN4base8FilePathD1Ev(%"class.base::FilePath"* %3) #9
  %4 = getelementptr inbounds %"class.leveldb_proto::ProtoDatabaseImpl", %"class.leveldb_proto::ProtoDatabaseImpl"* %0, i64 0, i32 4, i32 0
  %5 = load %"class.base::SequencedTaskRunner"*, %"class.base::SequencedTaskRunner"** %4, align 8
  %6 = icmp eq %"class.base::SequencedTaskRunner"* %5, null
  br i1 %6, label %15, label %7

7:                                                ; preds = %1
  %8 = getelementptr inbounds %"class.base::SequencedTaskRunner", %"class.base::SequencedTaskRunner"* %5, i64 0, i32 0, i32 1
  %9 = getelementptr inbounds %"class.base::RefCountedThreadSafe.32", %"class.base::RefCountedThreadSafe.32"* %8, i64 0, i32 0, i32 0, i32 0, i32 0, i32 0, i32 0, i32 0, i32 0
  %10 = atomicrmw sub i32* %9, i32 1 acq_rel
  %11 = icmp eq i32 %10, 1
  br i1 %11, label %12, label %15

12:                                               ; preds = %7
  %13 = getelementptr inbounds %"class.base::RefCountedThreadSafe.32", %"class.base::RefCountedThreadSafe.32"* %8, i64 -2
  %14 = bitcast %"class.base::RefCountedThreadSafe.32"* %13 to %"class.base::TaskRunner"*
  tail call void @_ZN4base16TaskRunnerTraits8DestructEPKNS_10TaskRunnerE(%"class.base::TaskRunner"* %14) #9
  br label %15

15:                                               ; preds = %1, %7, %12
  %16 = getelementptr inbounds %"class.leveldb_proto::ProtoDatabaseImpl", %"class.leveldb_proto::ProtoDatabaseImpl"* %0, i64 0, i32 2, i32 0
  %17 = load %"class.leveldb_proto::ProtoDatabaseSelector"*, %"class.leveldb_proto::ProtoDatabaseSelector"** %16, align 8
  %18 = icmp eq %"class.leveldb_proto::ProtoDatabaseSelector"* %17, null
  br i1 %18, label %25, label %19

19:                                               ; preds = %15
  %20 = getelementptr inbounds %"class.leveldb_proto::ProtoDatabaseSelector", %"class.leveldb_proto::ProtoDatabaseSelector"* %17, i64 0, i32 0, i32 0, i32 0, i32 0, i32 0, i32 0, i32 0, i32 0, i32 0
  %21 = atomicrmw sub i32* %20, i32 1 acq_rel
  %22 = icmp eq i32 %21, 1
  br i1 %22, label %23, label %25

23:                                               ; preds = %19
  tail call void @_ZN13leveldb_proto21ProtoDatabaseSelectorD1Ev(%"class.leveldb_proto::ProtoDatabaseSelector"* nonnull %17) #9
  %24 = bitcast %"class.leveldb_proto::ProtoDatabaseSelector"* %17 to i8*
  tail call void @_ZdlPv(i8* %24) #10
  br label %25

25:                                               ; preds = %15, %19, %23
  ret void
}

; Function Attrs: nounwind ssp uwtable
define linkonce_odr hidden void @_ZN13leveldb_proto17ProtoDatabaseImplIN13notifications5proto4IconENS1_9IconEntryEED0Ev(%"class.leveldb_proto::ProtoDatabaseImpl"*) unnamed_addr #0 comdat align 2 {
  %2 = getelementptr inbounds %"class.leveldb_proto::ProtoDatabaseImpl", %"class.leveldb_proto::ProtoDatabaseImpl"* %0, i64 0, i32 0, i32 0
  store i32 (...)** bitcast (i8** getelementptr inbounds ({ [18 x i8*] }, { [18 x i8*] }* @_ZTVN13leveldb_proto17ProtoDatabaseImplIN13notifications5proto4IconENS1_9IconEntryEEE, i64 0, inrange i32 0, i64 2) to i32 (...)**), i32 (...)*** %2, align 8
  %3 = getelementptr inbounds %"class.leveldb_proto::ProtoDatabaseImpl", %"class.leveldb_proto::ProtoDatabaseImpl"* %0, i64 0, i32 5
  tail call void @_ZN4base8FilePathD1Ev(%"class.base::FilePath"* %3) #9
  %4 = getelementptr inbounds %"class.leveldb_proto::ProtoDatabaseImpl", %"class.leveldb_proto::ProtoDatabaseImpl"* %0, i64 0, i32 4, i32 0
  %5 = load %"class.base::SequencedTaskRunner"*, %"class.base::SequencedTaskRunner"** %4, align 8
  %6 = icmp eq %"class.base::SequencedTaskRunner"* %5, null
  br i1 %6, label %15, label %7

7:                                                ; preds = %1
  %8 = getelementptr inbounds %"class.base::SequencedTaskRunner", %"class.base::SequencedTaskRunner"* %5, i64 0, i32 0, i32 1
  %9 = getelementptr inbounds %"class.base::RefCountedThreadSafe.32", %"class.base::RefCountedThreadSafe.32"* %8, i64 0, i32 0, i32 0, i32 0, i32 0, i32 0, i32 0, i32 0, i32 0
  %10 = atomicrmw sub i32* %9, i32 1 acq_rel
  %11 = icmp eq i32 %10, 1
  br i1 %11, label %12, label %15

12:                                               ; preds = %7
  %13 = getelementptr inbounds %"class.base::RefCountedThreadSafe.32", %"class.base::RefCountedThreadSafe.32"* %8, i64 -2
  %14 = bitcast %"class.base::RefCountedThreadSafe.32"* %13 to %"class.base::TaskRunner"*
  tail call void @_ZN4base16TaskRunnerTraits8DestructEPKNS_10TaskRunnerE(%"class.base::TaskRunner"* %14) #9
  br label %15

15:                                               ; preds = %12, %7, %1
  %16 = getelementptr inbounds %"class.leveldb_proto::ProtoDatabaseImpl", %"class.leveldb_proto::ProtoDatabaseImpl"* %0, i64 0, i32 2, i32 0
  %17 = load %"class.leveldb_proto::ProtoDatabaseSelector"*, %"class.leveldb_proto::ProtoDatabaseSelector"** %16, align 8
  %18 = icmp eq %"class.leveldb_proto::ProtoDatabaseSelector"* %17, null
  br i1 %18, label %25, label %19

19:                                               ; preds = %15
  %20 = getelementptr inbounds %"class.leveldb_proto::ProtoDatabaseSelector", %"class.leveldb_proto::ProtoDatabaseSelector"* %17, i64 0, i32 0, i32 0, i32 0, i32 0, i32 0, i32 0, i32 0, i32 0, i32 0
  %21 = atomicrmw sub i32* %20, i32 1 acq_rel
  %22 = icmp eq i32 %21, 1
  br i1 %22, label %23, label %25

23:                                               ; preds = %19
  tail call void @_ZN13leveldb_proto21ProtoDatabaseSelectorD1Ev(%"class.leveldb_proto::ProtoDatabaseSelector"* nonnull %17) #9
  %24 = bitcast %"class.leveldb_proto::ProtoDatabaseSelector"* %17 to i8*
  tail call void @_ZdlPv(i8* %24) #10
  br label %25

25:                                               ; preds = %15, %19, %23
  %26 = bitcast %"class.leveldb_proto::ProtoDatabaseImpl"* %0 to i8*
  tail call void @_ZdlPv(i8* %26) #10
  ret void
}

; Function Attrs: nounwind ssp uwtable
define linkonce_odr hidden void @_ZN13leveldb_proto17ProtoDatabaseImplIN13notifications5proto4IconENS1_9IconEntryEE4InitEN4base12OnceCallbackIFvNS_5Enums10InitStatusEEEE(%"class.leveldb_proto::ProtoDatabaseImpl"*, %"class.base::OnceCallback.296"*) unnamed_addr #0 comdat align 2 {
  %3 = alloca %"class.base::Location", align 8
  %4 = alloca %"class.base::OnceCallback", align 8
  %5 = alloca %"class.std::__1::basic_string", align 8
  %6 = alloca %"struct.leveldb_env::Options", align 8
  %7 = alloca %"class.base::OnceCallback.296", align 8
  %8 = getelementptr inbounds %"class.leveldb_proto::ProtoDatabaseImpl", %"class.leveldb_proto::ProtoDatabaseImpl"* %0, i64 0, i32 3
  %9 = load i8, i8* %8, align 8, !range !2
  %10 = icmp eq i8 %9, 0
  br i1 %10, label %11, label %16

11:                                               ; preds = %2
  %12 = getelementptr inbounds %"class.leveldb_proto::ProtoDatabaseImpl", %"class.leveldb_proto::ProtoDatabaseImpl"* %0, i64 0, i32 1
  %13 = load i32, i32* %12, align 8
  %14 = tail call zeroext i1 @_ZN13leveldb_proto29SharedProtoDatabaseClientList17ShouldUseSharedDBENS_11ProtoDbTypeE(i32 %13) #9
  %15 = zext i1 %14 to i8
  br label %16

16:                                               ; preds = %2, %11
  %17 = phi i8 [ 0, %2 ], [ %15, %11 ]
  %18 = bitcast %"class.std::__1::basic_string"* %5 to i8*
  call void @llvm.lifetime.start.p0i8(i64 24, i8* nonnull %18) #9
  %19 = getelementptr inbounds %"class.leveldb_proto::ProtoDatabaseImpl", %"class.leveldb_proto::ProtoDatabaseImpl"* %0, i64 0, i32 1
  %20 = load i32, i32* %19, align 8
  call void @_ZN13leveldb_proto29SharedProtoDatabaseClientList19ProtoDbTypeToStringENS_11ProtoDbTypeE(%"class.std::__1::basic_string"* nonnull sret %5, i32 %20) #9
  %21 = bitcast %"struct.leveldb_env::Options"* %6 to i8*
  call void @llvm.lifetime.start.p0i8(i64 112, i8* nonnull %21) #9
  call void @_ZN13leveldb_proto19CreateSimpleOptionsEv(%"struct.leveldb_env::Options"* nonnull sret %6) #9
  %22 = getelementptr inbounds %"class.base::OnceCallback.296", %"class.base::OnceCallback.296"* %1, i64 0, i32 0, i32 0, i32 0
  %23 = bitcast %"class.base::OnceCallback.296"* %1 to i64*
  %24 = load i64, i64* %23, align 8
  %25 = bitcast %"class.base::OnceCallback.296"* %7 to i64*
  store i64 %24, i64* %25, align 8
  store %"class.base::internal::BindStateBase"* null, %"class.base::internal::BindStateBase"** %22, align 8
  %26 = bitcast %"class.base::OnceCallback"* %4 to i8*
  call void @llvm.lifetime.start.p0i8(i64 8, i8* nonnull %26)
  %27 = getelementptr inbounds %"class.leveldb_proto::ProtoDatabaseImpl", %"class.leveldb_proto::ProtoDatabaseImpl"* %0, i64 0, i32 4, i32 0
  %28 = bitcast %"class.base::SequencedTaskRunner"** %27 to %"class.base::TaskRunner"**
  %29 = load %"class.base::TaskRunner"*, %"class.base::TaskRunner"** %28, align 8
  %30 = bitcast %"class.base::Location"* %3 to i8*
  call void @llvm.lifetime.start.p0i8(i64 32, i8* nonnull %30) #9
  call void @_ZN4base8Location7CurrentEPKcS2_i(%"class.base::Location"* nonnull sret %3, i8* getelementptr inbounds ([13 x i8], [13 x i8]* @.str.2, i64 0, i64 0), i8* getelementptr inbounds ([62 x i8], [62 x i8]* @.str.3, i64 0, i64 0), i32 387) #9
  %31 = getelementptr inbounds %"class.leveldb_proto::ProtoDatabaseImpl", %"class.leveldb_proto::ProtoDatabaseImpl"* %0, i64 0, i32 5
  %32 = call dereferenceable(8) %class.scoped_refptr.31* @_ZN4base25SequencedTaskRunnerHandle3GetEv() #9
  %33 = call i8* @_Znwm(i64 240) #10, !noalias !12
  %34 = bitcast i8* %33 to %"class.base::internal::BindStateBase"*
  call void @_ZN4base8internal13BindStateBaseC2EPFvvEPFvPKS1_E(%"class.base::internal::BindStateBase"* nonnull %34, void ()* bitcast (void (%"class.base::internal::BindStateBase"*)* @_ZN4base8internal7InvokerINS0_9BindStateIMN13leveldb_proto21ProtoDatabaseSelectorEFvRKNSt3__112basic_stringIcNS5_11char_traitsIcEENS5_9allocatorIcEEEENS_8FilePathERKN11leveldb_env7OptionsEb13scoped_refptrINS_19SequencedTaskRunnerEENS_12OnceCallbackIFvNS3_5Enums10InitStatusEEEEEJSJ_IS4_ESB_SE_SG_bSL_SQ_EEEFvvEE7RunOnceEPNS0_13BindStateBaseE to void ()*), void (%"class.base::internal::BindStateBase"*)* nonnull @_ZN4base8internal9BindStateIMN13leveldb_proto21ProtoDatabaseSelectorEFvRKNSt3__112basic_stringIcNS4_11char_traitsIcEENS4_9allocatorIcEEEENS_8FilePathERKN11leveldb_env7OptionsEb13scoped_refptrINS_19SequencedTaskRunnerEENS_12OnceCallbackIFvNS2_5Enums10InitStatusEEEEEJSI_IS3_ESA_SD_SF_bSK_SP_EE7DestroyEPKNS0_13BindStateBaseE) #9
  %35 = getelementptr inbounds i8, i8* %33, i64 32
  %36 = bitcast i8* %35 to <2 x i64>*
  store <2 x i64> <i64 ptrtoint (void (%"class.leveldb_proto::ProtoDatabaseSelector"*, %"class.std::__1::basic_string"*, %"class.base::FilePath"*, %"struct.leveldb_env::Options"*, i1, %"class.base::SequencedTaskRunner"*, %"class.base::OnceCallback.296"*)* @_ZN13leveldb_proto21ProtoDatabaseSelector18InitUniqueOrSharedERKNSt3__112basic_stringIcNS1_11char_traitsIcEENS1_9allocatorIcEEEEN4base8FilePathERKN11leveldb_env7OptionsEb13scoped_refptrINSA_19SequencedTaskRunnerEENSA_12OnceCallbackIFvNS_5Enums10InitStatusEEEE to i64), i64 0>, <2 x i64>* %36, align 8
  %37 = getelementptr inbounds %"class.leveldb_proto::ProtoDatabaseImpl", %"class.leveldb_proto::ProtoDatabaseImpl"* %0, i64 0, i32 2, i32 0
  %38 = load %"class.leveldb_proto::ProtoDatabaseSelector"*, %"class.leveldb_proto::ProtoDatabaseSelector"** %37, align 8
  %39 = getelementptr inbounds i8, i8* %33, i64 48
  %40 = bitcast i8* %39 to %"class.leveldb_proto::ProtoDatabaseSelector"**
  store %"class.leveldb_proto::ProtoDatabaseSelector"* %38, %"class.leveldb_proto::ProtoDatabaseSelector"** %40, align 8
  %41 = icmp eq %"class.leveldb_proto::ProtoDatabaseSelector"* %38, null
  br i1 %41, label %45, label %42

42:                                               ; preds = %16
  %43 = getelementptr inbounds %"class.leveldb_proto::ProtoDatabaseSelector", %"class.leveldb_proto::ProtoDatabaseSelector"* %38, i64 0, i32 0, i32 0, i32 0, i32 0, i32 0, i32 0, i32 0, i32 0, i32 0
  %44 = atomicrmw add i32* %43, i32 1 monotonic
  br label %45

45:                                               ; preds = %42, %16
  %46 = getelementptr inbounds i8, i8* %33, i64 56
  %47 = bitcast %"class.std::__1::basic_string"* %5 to %"struct.std::__1::basic_string<char, std::__1::char_traits<char>, std::__1::allocator<char> >::__short"*
  %48 = getelementptr inbounds %"struct.std::__1::basic_string<char, std::__1::char_traits<char>, std::__1::allocator<char> >::__short", %"struct.std::__1::basic_string<char, std::__1::char_traits<char>, std::__1::allocator<char> >::__short"* %47, i64 0, i32 1, i32 0
  %49 = load i8, i8* %48, align 1
  %50 = icmp slt i8 %49, 0
  br i1 %50, label %52, label %51

51:                                               ; preds = %45
  call void @llvm.memcpy.p0i8.p0i8.i64(i8* align 8 %46, i8* nonnull align 8 %18, i64 24, i1 false) #9
  br label %58

52:                                               ; preds = %45
  %53 = bitcast i8* %46 to %"class.std::__1::basic_string"*
  %54 = getelementptr inbounds %"class.std::__1::basic_string", %"class.std::__1::basic_string"* %5, i64 0, i32 0, i32 0, i32 0, i32 0, i32 0, i32 0
  %55 = load i8*, i8** %54, align 8
  %56 = getelementptr inbounds %"class.std::__1::basic_string", %"class.std::__1::basic_string"* %5, i64 0, i32 0, i32 0, i32 0, i32 0, i32 0, i32 1
  %57 = load i64, i64* %56, align 8
  call void @_ZNSt3__112basic_stringIcNS_11char_traitsIcEENS_9allocatorIcEEE25__init_copy_ctor_externalEPKcm(%"class.std::__1::basic_string"* %53, i8* %55, i64 %57) #9
  br label %58

58:                                               ; preds = %52, %51
  %59 = getelementptr inbounds i8, i8* %33, i64 80
  %60 = bitcast i8* %59 to %"class.base::FilePath"*
  call void @_ZN4base8FilePathC1ERKS0_(%"class.base::FilePath"* %60, %"class.base::FilePath"* dereferenceable(24) %31) #9
  %61 = getelementptr inbounds i8, i8* %33, i64 104
  call void @llvm.memcpy.p0i8.p0i8.i64(i8* align 8 %61, i8* nonnull align 8 %21, i64 96, i1 false) #9
  %62 = getelementptr inbounds i8, i8* %33, i64 200
  %63 = bitcast i8* %62 to %"class.base::internal::CallbackBaseCopyable"*
  %64 = getelementptr inbounds %"struct.leveldb_env::Options", %"struct.leveldb_env::Options"* %6, i64 0, i32 1, i32 0
  call void @_ZN4base8internal20CallbackBaseCopyableC2ERKS1_(%"class.base::internal::CallbackBaseCopyable"* %63, %"class.base::internal::CallbackBaseCopyable"* dereferenceable(8) %64) #9
  %65 = getelementptr inbounds i8, i8* %33, i64 208
  %66 = bitcast i8* %65 to %"class.base::internal::CallbackBaseCopyable"*
  %67 = getelementptr inbounds %"struct.leveldb_env::Options", %"struct.leveldb_env::Options"* %6, i64 0, i32 2, i32 0
  call void @_ZN4base8internal20CallbackBaseCopyableC2ERKS1_(%"class.base::internal::CallbackBaseCopyable"* %66, %"class.base::internal::CallbackBaseCopyable"* dereferenceable(8) %67) #9
  %68 = getelementptr inbounds i8, i8* %33, i64 216
  store i8 %17, i8* %68, align 1
  %69 = getelementptr inbounds %class.scoped_refptr.31, %class.scoped_refptr.31* %32, i64 0, i32 0
  %70 = load %"class.base::SequencedTaskRunner"*, %"class.base::SequencedTaskRunner"** %69, align 8
  %71 = getelementptr inbounds i8, i8* %33, i64 224
  %72 = bitcast i8* %71 to %"class.base::SequencedTaskRunner"**
  store %"class.base::SequencedTaskRunner"* %70, %"class.base::SequencedTaskRunner"** %72, align 8
  %73 = icmp eq %"class.base::SequencedTaskRunner"* %70, null
  br i1 %73, label %77, label %74

74:                                               ; preds = %58
  %75 = getelementptr inbounds %"class.base::SequencedTaskRunner", %"class.base::SequencedTaskRunner"* %70, i64 0, i32 0, i32 1, i32 0, i32 0, i32 0, i32 0, i32 0, i32 0, i32 0, i32 0
  %76 = atomicrmw add i32* %75, i32 1 monotonic
  br label %77

77:                                               ; preds = %58, %74
  %78 = getelementptr inbounds i8, i8* %33, i64 232
  %79 = getelementptr inbounds %"class.base::OnceCallback.296", %"class.base::OnceCallback.296"* %7, i64 0, i32 0, i32 0, i32 0
  %80 = load i64, i64* %25, align 8
  %81 = bitcast i8* %78 to i64*
  store i64 %80, i64* %81, align 8
  store %"class.base::internal::BindStateBase"* null, %"class.base::internal::BindStateBase"** %79, align 8
  %82 = bitcast %"class.base::OnceCallback"* %4 to i8**
  store i8* %33, i8** %82, align 8, !alias.scope !12
  %83 = call zeroext i1 @_ZN4base10TaskRunner8PostTaskERKNS_8LocationENS_12OnceCallbackIFvvEEE(%"class.base::TaskRunner"* %29, %"class.base::Location"* nonnull dereferenceable(32) %3, %"class.base::OnceCallback"* nonnull %4) #9
  %84 = getelementptr inbounds %"class.base::OnceCallback", %"class.base::OnceCallback"* %4, i64 0, i32 0
  call void @_ZN4base8internal12CallbackBaseD2Ev(%"class.base::internal::CallbackBase"* nonnull %84) #9
  call void @llvm.lifetime.end.p0i8(i64 32, i8* nonnull %30) #9
  call void @llvm.lifetime.end.p0i8(i64 8, i8* nonnull %26)
  %85 = getelementptr inbounds %"class.base::OnceCallback.296", %"class.base::OnceCallback.296"* %7, i64 0, i32 0
  call void @_ZN4base8internal12CallbackBaseD2Ev(%"class.base::internal::CallbackBase"* nonnull %85) #9
  %86 = getelementptr inbounds %"struct.leveldb_env::Options", %"struct.leveldb_env::Options"* %6, i64 0, i32 2, i32 0, i32 0
  call void @_ZN4base8internal12CallbackBaseD2Ev(%"class.base::internal::CallbackBase"* %86) #9
  %87 = getelementptr inbounds %"struct.leveldb_env::Options", %"struct.leveldb_env::Options"* %6, i64 0, i32 1, i32 0, i32 0
  call void @_ZN4base8internal12CallbackBaseD2Ev(%"class.base::internal::CallbackBase"* %87) #9
  call void @llvm.lifetime.end.p0i8(i64 112, i8* nonnull %21) #9
  %88 = load i8, i8* %48, align 1
  %89 = icmp slt i8 %88, 0
  br i1 %89, label %90, label %93

90:                                               ; preds = %77
  %91 = getelementptr inbounds %"class.std::__1::basic_string", %"class.std::__1::basic_string"* %5, i64 0, i32 0, i32 0, i32 0, i32 0, i32 0, i32 0
  %92 = load i8*, i8** %91, align 8
  call void @_ZdlPv(i8* %92) #10
  br label %93

93:                                               ; preds = %77, %90
  call void @llvm.lifetime.end.p0i8(i64 24, i8* nonnull %18) #9
  ret void
}

; Function Attrs: nounwind ssp uwtable
define linkonce_odr hidden void @_ZN13leveldb_proto17ProtoDatabaseImplIN13notifications5proto4IconENS1_9IconEntryEE4InitERKN11leveldb_env7OptionsEN4base12OnceCallbackIFvNS_5Enums10InitStatusEEEE(%"class.leveldb_proto::ProtoDatabaseImpl"*, %"struct.leveldb_env::Options"* dereferenceable(112), %"class.base::OnceCallback.296"*) unnamed_addr #0 comdat align 2 {
  %4 = alloca %"class.base::Location", align 8
  %5 = alloca %"class.base::OnceCallback", align 8
  %6 = alloca %"class.std::__1::basic_string", align 8
  %7 = alloca %"class.base::OnceCallback.296", align 8
  %8 = getelementptr inbounds %"class.leveldb_proto::ProtoDatabaseImpl", %"class.leveldb_proto::ProtoDatabaseImpl"* %0, i64 0, i32 3
  %9 = load i8, i8* %8, align 8, !range !2
  %10 = icmp eq i8 %9, 0
  br i1 %10, label %11, label %16

11:                                               ; preds = %3
  %12 = getelementptr inbounds %"class.leveldb_proto::ProtoDatabaseImpl", %"class.leveldb_proto::ProtoDatabaseImpl"* %0, i64 0, i32 1
  %13 = load i32, i32* %12, align 8
  %14 = tail call zeroext i1 @_ZN13leveldb_proto29SharedProtoDatabaseClientList17ShouldUseSharedDBENS_11ProtoDbTypeE(i32 %13) #9
  %15 = zext i1 %14 to i8
  br label %16

16:                                               ; preds = %3, %11
  %17 = phi i8 [ 0, %3 ], [ %15, %11 ]
  %18 = bitcast %"class.std::__1::basic_string"* %6 to i8*
  call void @llvm.lifetime.start.p0i8(i64 24, i8* nonnull %18) #9
  %19 = getelementptr inbounds %"class.leveldb_proto::ProtoDatabaseImpl", %"class.leveldb_proto::ProtoDatabaseImpl"* %0, i64 0, i32 1
  %20 = load i32, i32* %19, align 8
  call void @_ZN13leveldb_proto29SharedProtoDatabaseClientList19ProtoDbTypeToStringENS_11ProtoDbTypeE(%"class.std::__1::basic_string"* nonnull sret %6, i32 %20) #9
  %21 = getelementptr inbounds %"class.base::OnceCallback.296", %"class.base::OnceCallback.296"* %2, i64 0, i32 0, i32 0, i32 0
  %22 = bitcast %"class.base::OnceCallback.296"* %2 to i64*
  %23 = load i64, i64* %22, align 8
  %24 = bitcast %"class.base::OnceCallback.296"* %7 to i64*
  store i64 %23, i64* %24, align 8
  store %"class.base::internal::BindStateBase"* null, %"class.base::internal::BindStateBase"** %21, align 8
  %25 = bitcast %"class.base::OnceCallback"* %5 to i8*
  call void @llvm.lifetime.start.p0i8(i64 8, i8* nonnull %25)
  %26 = getelementptr inbounds %"class.leveldb_proto::ProtoDatabaseImpl", %"class.leveldb_proto::ProtoDatabaseImpl"* %0, i64 0, i32 4, i32 0
  %27 = bitcast %"class.base::SequencedTaskRunner"** %26 to %"class.base::TaskRunner"**
  %28 = load %"class.base::TaskRunner"*, %"class.base::TaskRunner"** %27, align 8
  %29 = bitcast %"class.base::Location"* %4 to i8*
  call void @llvm.lifetime.start.p0i8(i64 32, i8* nonnull %29) #9
  call void @_ZN4base8Location7CurrentEPKcS2_i(%"class.base::Location"* nonnull sret %4, i8* getelementptr inbounds ([13 x i8], [13 x i8]* @.str.2, i64 0, i64 0), i8* getelementptr inbounds ([62 x i8], [62 x i8]* @.str.3, i64 0, i64 0), i32 387) #9
  %30 = getelementptr inbounds %"class.leveldb_proto::ProtoDatabaseImpl", %"class.leveldb_proto::ProtoDatabaseImpl"* %0, i64 0, i32 5
  %31 = call dereferenceable(8) %class.scoped_refptr.31* @_ZN4base25SequencedTaskRunnerHandle3GetEv() #9
  %32 = call i8* @_Znwm(i64 240) #10, !noalias !17
  %33 = bitcast i8* %32 to %"class.base::internal::BindStateBase"*
  call void @_ZN4base8internal13BindStateBaseC2EPFvvEPFvPKS1_E(%"class.base::internal::BindStateBase"* nonnull %33, void ()* bitcast (void (%"class.base::internal::BindStateBase"*)* @_ZN4base8internal7InvokerINS0_9BindStateIMN13leveldb_proto21ProtoDatabaseSelectorEFvRKNSt3__112basic_stringIcNS5_11char_traitsIcEENS5_9allocatorIcEEEENS_8FilePathERKN11leveldb_env7OptionsEb13scoped_refptrINS_19SequencedTaskRunnerEENS_12OnceCallbackIFvNS3_5Enums10InitStatusEEEEEJSJ_IS4_ESB_SE_SG_bSL_SQ_EEEFvvEE7RunOnceEPNS0_13BindStateBaseE to void ()*), void (%"class.base::internal::BindStateBase"*)* nonnull @_ZN4base8internal9BindStateIMN13leveldb_proto21ProtoDatabaseSelectorEFvRKNSt3__112basic_stringIcNS4_11char_traitsIcEENS4_9allocatorIcEEEENS_8FilePathERKN11leveldb_env7OptionsEb13scoped_refptrINS_19SequencedTaskRunnerEENS_12OnceCallbackIFvNS2_5Enums10InitStatusEEEEEJSI_IS3_ESA_SD_SF_bSK_SP_EE7DestroyEPKNS0_13BindStateBaseE) #9
  %34 = getelementptr inbounds i8, i8* %32, i64 32
  %35 = bitcast i8* %34 to <2 x i64>*
  store <2 x i64> <i64 ptrtoint (void (%"class.leveldb_proto::ProtoDatabaseSelector"*, %"class.std::__1::basic_string"*, %"class.base::FilePath"*, %"struct.leveldb_env::Options"*, i1, %"class.base::SequencedTaskRunner"*, %"class.base::OnceCallback.296"*)* @_ZN13leveldb_proto21ProtoDatabaseSelector18InitUniqueOrSharedERKNSt3__112basic_stringIcNS1_11char_traitsIcEENS1_9allocatorIcEEEEN4base8FilePathERKN11leveldb_env7OptionsEb13scoped_refptrINSA_19SequencedTaskRunnerEENSA_12OnceCallbackIFvNS_5Enums10InitStatusEEEE to i64), i64 0>, <2 x i64>* %35, align 8
  %36 = getelementptr inbounds %"class.leveldb_proto::ProtoDatabaseImpl", %"class.leveldb_proto::ProtoDatabaseImpl"* %0, i64 0, i32 2, i32 0
  %37 = load %"class.leveldb_proto::ProtoDatabaseSelector"*, %"class.leveldb_proto::ProtoDatabaseSelector"** %36, align 8
  %38 = getelementptr inbounds i8, i8* %32, i64 48
  %39 = bitcast i8* %38 to %"class.leveldb_proto::ProtoDatabaseSelector"**
  store %"class.leveldb_proto::ProtoDatabaseSelector"* %37, %"class.leveldb_proto::ProtoDatabaseSelector"** %39, align 8
  %40 = icmp eq %"class.leveldb_proto::ProtoDatabaseSelector"* %37, null
  br i1 %40, label %44, label %41

41:                                               ; preds = %16
  %42 = getelementptr inbounds %"class.leveldb_proto::ProtoDatabaseSelector", %"class.leveldb_proto::ProtoDatabaseSelector"* %37, i64 0, i32 0, i32 0, i32 0, i32 0, i32 0, i32 0, i32 0, i32 0, i32 0
  %43 = atomicrmw add i32* %42, i32 1 monotonic
  br label %44

44:                                               ; preds = %41, %16
  %45 = getelementptr inbounds i8, i8* %32, i64 56
  %46 = bitcast %"class.std::__1::basic_string"* %6 to %"struct.std::__1::basic_string<char, std::__1::char_traits<char>, std::__1::allocator<char> >::__short"*
  %47 = getelementptr inbounds %"struct.std::__1::basic_string<char, std::__1::char_traits<char>, std::__1::allocator<char> >::__short", %"struct.std::__1::basic_string<char, std::__1::char_traits<char>, std::__1::allocator<char> >::__short"* %46, i64 0, i32 1, i32 0
  %48 = load i8, i8* %47, align 1
  %49 = icmp slt i8 %48, 0
  br i1 %49, label %51, label %50

50:                                               ; preds = %44
  call void @llvm.memcpy.p0i8.p0i8.i64(i8* align 8 %45, i8* nonnull align 8 %18, i64 24, i1 false) #9
  br label %57

51:                                               ; preds = %44
  %52 = bitcast i8* %45 to %"class.std::__1::basic_string"*
  %53 = getelementptr inbounds %"class.std::__1::basic_string", %"class.std::__1::basic_string"* %6, i64 0, i32 0, i32 0, i32 0, i32 0, i32 0, i32 0
  %54 = load i8*, i8** %53, align 8
  %55 = getelementptr inbounds %"class.std::__1::basic_string", %"class.std::__1::basic_string"* %6, i64 0, i32 0, i32 0, i32 0, i32 0, i32 0, i32 1
  %56 = load i64, i64* %55, align 8
  call void @_ZNSt3__112basic_stringIcNS_11char_traitsIcEENS_9allocatorIcEEE25__init_copy_ctor_externalEPKcm(%"class.std::__1::basic_string"* %52, i8* %54, i64 %56) #9
  br label %57

57:                                               ; preds = %51, %50
  %58 = getelementptr inbounds i8, i8* %32, i64 80
  %59 = bitcast i8* %58 to %"class.base::FilePath"*
  call void @_ZN4base8FilePathC1ERKS0_(%"class.base::FilePath"* %59, %"class.base::FilePath"* dereferenceable(24) %30) #9
  %60 = getelementptr inbounds i8, i8* %32, i64 104
  %61 = bitcast %"struct.leveldb_env::Options"* %1 to i8*
  call void @llvm.memcpy.p0i8.p0i8.i64(i8* align 8 %60, i8* align 8 %61, i64 96, i1 false) #9
  %62 = getelementptr inbounds i8, i8* %32, i64 200
  %63 = bitcast i8* %62 to %"class.base::internal::CallbackBaseCopyable"*
  %64 = getelementptr inbounds %"struct.leveldb_env::Options", %"struct.leveldb_env::Options"* %1, i64 0, i32 1, i32 0
  call void @_ZN4base8internal20CallbackBaseCopyableC2ERKS1_(%"class.base::internal::CallbackBaseCopyable"* %63, %"class.base::internal::CallbackBaseCopyable"* dereferenceable(8) %64) #9
  %65 = getelementptr inbounds i8, i8* %32, i64 208
  %66 = bitcast i8* %65 to %"class.base::internal::CallbackBaseCopyable"*
  %67 = getelementptr inbounds %"struct.leveldb_env::Options", %"struct.leveldb_env::Options"* %1, i64 0, i32 2, i32 0
  call void @_ZN4base8internal20CallbackBaseCopyableC2ERKS1_(%"class.base::internal::CallbackBaseCopyable"* %66, %"class.base::internal::CallbackBaseCopyable"* dereferenceable(8) %67) #9
  %68 = getelementptr inbounds i8, i8* %32, i64 216
  store i8 %17, i8* %68, align 1
  %69 = getelementptr inbounds %class.scoped_refptr.31, %class.scoped_refptr.31* %31, i64 0, i32 0
  %70 = load %"class.base::SequencedTaskRunner"*, %"class.base::SequencedTaskRunner"** %69, align 8
  %71 = getelementptr inbounds i8, i8* %32, i64 224
  %72 = bitcast i8* %71 to %"class.base::SequencedTaskRunner"**
  store %"class.base::SequencedTaskRunner"* %70, %"class.base::SequencedTaskRunner"** %72, align 8
  %73 = icmp eq %"class.base::SequencedTaskRunner"* %70, null
  br i1 %73, label %77, label %74

74:                                               ; preds = %57
  %75 = getelementptr inbounds %"class.base::SequencedTaskRunner", %"class.base::SequencedTaskRunner"* %70, i64 0, i32 0, i32 1, i32 0, i32 0, i32 0, i32 0, i32 0, i32 0, i32 0, i32 0
  %76 = atomicrmw add i32* %75, i32 1 monotonic
  br label %77

77:                                               ; preds = %57, %74
  %78 = getelementptr inbounds i8, i8* %32, i64 232
  %79 = getelementptr inbounds %"class.base::OnceCallback.296", %"class.base::OnceCallback.296"* %7, i64 0, i32 0, i32 0, i32 0
  %80 = load i64, i64* %24, align 8
  %81 = bitcast i8* %78 to i64*
  store i64 %80, i64* %81, align 8
  store %"class.base::internal::BindStateBase"* null, %"class.base::internal::BindStateBase"** %79, align 8
  %82 = bitcast %"class.base::OnceCallback"* %5 to i8**
  store i8* %32, i8** %82, align 8, !alias.scope !17
  %83 = call zeroext i1 @_ZN4base10TaskRunner8PostTaskERKNS_8LocationENS_12OnceCallbackIFvvEEE(%"class.base::TaskRunner"* %28, %"class.base::Location"* nonnull dereferenceable(32) %4, %"class.base::OnceCallback"* nonnull %5) #9
  %84 = getelementptr inbounds %"class.base::OnceCallback", %"class.base::OnceCallback"* %5, i64 0, i32 0
  call void @_ZN4base8internal12CallbackBaseD2Ev(%"class.base::internal::CallbackBase"* nonnull %84) #9
  call void @llvm.lifetime.end.p0i8(i64 32, i8* nonnull %29) #9
  call void @llvm.lifetime.end.p0i8(i64 8, i8* nonnull %25)
  %85 = getelementptr inbounds %"class.base::OnceCallback.296", %"class.base::OnceCallback.296"* %7, i64 0, i32 0
  call void @_ZN4base8internal12CallbackBaseD2Ev(%"class.base::internal::CallbackBase"* nonnull %85) #9
  %86 = load i8, i8* %47, align 1
  %87 = icmp slt i8 %86, 0
  br i1 %87, label %88, label %91

88:                                               ; preds = %77
  %89 = getelementptr inbounds %"class.std::__1::basic_string", %"class.std::__1::basic_string"* %6, i64 0, i32 0, i32 0, i32 0, i32 0, i32 0, i32 0
  %90 = load i8*, i8** %89, align 8
  call void @_ZdlPv(i8* %90) #10
  br label %91

91:                                               ; preds = %77, %88
  call void @llvm.lifetime.end.p0i8(i64 24, i8* nonnull %18) #9
  ret void
}

; Function Attrs: nounwind ssp uwtable
define linkonce_odr hidden void @_ZN13leveldb_proto17ProtoDatabaseImplIN13notifications5proto4IconENS1_9IconEntryEE13UpdateEntriesENSt3__110unique_ptrINS6_6vectorINS6_4pairINS6_12basic_stringIcNS6_11char_traitsIcEENS6_9allocatorIcEEEES4_EENSD_ISG_EEEENS6_14default_deleteISI_EEEENS7_INS8_ISF_NSD_ISF_EEEENSJ_ISN_EEEEN4base12OnceCallbackIFvbEEE(%"class.leveldb_proto::ProtoDatabaseImpl"*, %"class.std::__1::vector.300"*, %"class.std::__1::vector.313"*, %"class.base::OnceCallback.323"*) unnamed_addr #0 comdat align 2 {
  %5 = alloca %"class.base::OnceCallback", align 8
  %6 = alloca %"class.base::OnceCallback.323", align 8
  %7 = alloca %"class.base::OnceCallback", align 8
  %8 = ptrtoint %"class.std::__1::vector.300"* %1 to i64
  %9 = ptrtoint %"class.std::__1::vector.313"* %2 to i64
  %10 = bitcast %"class.base::OnceCallback"* %5 to i8*
  call void @llvm.lifetime.start.p0i8(i64 8, i8* nonnull %10) #9
  %11 = getelementptr inbounds %"class.base::OnceCallback", %"class.base::OnceCallback"* %5, i64 0, i32 0, i32 0, i32 0
  store %"class.base::internal::BindStateBase"* inttoptr (i64 -6148914691236517206 to %"class.base::internal::BindStateBase"*), %"class.base::internal::BindStateBase"** %11, align 8
  %12 = bitcast %"class.base::OnceCallback.323"* %6 to i8*
  call void @llvm.lifetime.start.p0i8(i64 8, i8* nonnull %12) #9
  %13 = tail call dereferenceable(8) %class.scoped_refptr.31* @_ZN4base25SequencedTaskRunnerHandle3GetEv() #9
  %14 = tail call i8* @_Znwm(i64 56) #10, !noalias !22
  %15 = bitcast i8* %14 to %"class.base::internal::BindStateBase"*
  tail call void @_ZN4base8internal13BindStateBaseC2EPFvvEPFvPKS1_E(%"class.base::internal::BindStateBase"* nonnull %15, void ()* bitcast (void (%"class.base::internal::BindStateBase"*, i1)* @_ZN4base8internal7InvokerINS0_9BindStateIPFv13scoped_refptrINS_19SequencedTaskRunnerEENS_12OnceCallbackIFvbEEEbEJS5_S8_EEES7_E7RunOnceEPNS0_13BindStateBaseEb to void ()*), void (%"class.base::internal::BindStateBase"*)* nonnull @_ZN4base8internal9BindStateIPFv13scoped_refptrINS_19SequencedTaskRunnerEENS_12OnceCallbackIFvbEEEbEJS4_S7_EE7DestroyEPKNS0_13BindStateBaseE) #9, !noalias !22
  %16 = getelementptr inbounds i8, i8* %14, i64 32
  %17 = bitcast i8* %16 to i64*
  store i64 ptrtoint (void (%"class.base::SequencedTaskRunner"*, %"class.base::OnceCallback.323"*, i1)* @_ZN13leveldb_proto17RunUpdateCallbackE13scoped_refptrIN4base19SequencedTaskRunnerEENS1_12OnceCallbackIFvbEEEb to i64), i64* %17, align 8, !noalias !22
  %18 = getelementptr inbounds %class.scoped_refptr.31, %class.scoped_refptr.31* %13, i64 0, i32 0
  %19 = load %"class.base::SequencedTaskRunner"*, %"class.base::SequencedTaskRunner"** %18, align 8, !noalias !22
  %20 = getelementptr inbounds i8, i8* %14, i64 40
  %21 = bitcast i8* %20 to %"class.base::SequencedTaskRunner"**
  store %"class.base::SequencedTaskRunner"* %19, %"class.base::SequencedTaskRunner"** %21, align 8, !noalias !22
  %22 = icmp eq %"class.base::SequencedTaskRunner"* %19, null
  br i1 %22, label %26, label %23

23:                                               ; preds = %4
  %24 = getelementptr inbounds %"class.base::SequencedTaskRunner", %"class.base::SequencedTaskRunner"* %19, i64 0, i32 0, i32 1, i32 0, i32 0, i32 0, i32 0, i32 0, i32 0, i32 0, i32 0
  %25 = atomicrmw add i32* %24, i32 1 monotonic, !noalias !22
  br label %26

26:                                               ; preds = %4, %23
  %27 = getelementptr inbounds i8, i8* %14, i64 48
  %28 = getelementptr inbounds %"class.base::OnceCallback.323", %"class.base::OnceCallback.323"* %3, i64 0, i32 0, i32 0, i32 0
  %29 = bitcast %"class.base::OnceCallback.323"* %3 to i64*
  %30 = load i64, i64* %29, align 8, !noalias !22
  %31 = bitcast i8* %27 to i64*
  store i64 %30, i64* %31, align 8, !noalias !22
  store %"class.base::internal::BindStateBase"* null, %"class.base::internal::BindStateBase"** %28, align 8, !noalias !22
  %32 = bitcast %"class.base::OnceCallback.323"* %6 to i8**
  store i8* %14, i8** %32, align 8, !alias.scope !22
  %33 = tail call i8* @_Znwm(i64 72) #10, !noalias !27
  %34 = bitcast i8* %33 to %"class.base::internal::BindStateBase"*
  tail call void @_ZN4base8internal13BindStateBaseC2EPFvvEPFvPKS1_E(%"class.base::internal::BindStateBase"* nonnull %34, void ()* bitcast (void (%"class.base::internal::BindStateBase"*)* @_ZN4base8internal7InvokerINS0_9BindStateIPFvNSt3__110unique_ptrINS3_6vectorINS3_4pairINS3_12basic_stringIcNS3_11char_traitsIcEENS3_9allocatorIcEEEEN13notifications9IconEntryEEENSA_ISF_EEEENS3_14default_deleteISH_EEEENS4_INS5_ISC_NSA_ISC_EEEENSI_ISM_EEEE13scoped_refptrIN13leveldb_proto21ProtoDatabaseSelectorEENS_12OnceCallbackIFvbEEEEJSK_SO_SS_SV_EEEFvvEE7RunOnceEPNS0_13BindStateBaseE to void ()*), void (%"class.base::internal::BindStateBase"*)* nonnull @_ZN4base8internal9BindStateIPFvNSt3__110unique_ptrINS2_6vectorINS2_4pairINS2_12basic_stringIcNS2_11char_traitsIcEENS2_9allocatorIcEEEEN13notifications9IconEntryEEENS9_ISE_EEEENS2_14default_deleteISG_EEEENS3_INS4_ISB_NS9_ISB_EEEENSH_ISL_EEEE13scoped_refptrIN13leveldb_proto21ProtoDatabaseSelectorEENS_12OnceCallbackIFvbEEEEJSJ_SN_SR_SU_EE7DestroyEPKNS0_13BindStateBaseE) #9, !noalias !27
  %35 = getelementptr inbounds i8, i8* %33, i64 32
  %36 = bitcast i8* %35 to i64*
  store i64 ptrtoint (void (%"class.std::__1::vector.300"*, %"class.std::__1::vector.313"*, %"class.leveldb_proto::ProtoDatabaseSelector"*, %"class.base::OnceCallback.323"*)* @_ZN13leveldb_proto12_GLOBAL__N_127UpdateEntriesFromTaskRunnerIN13notifications5proto4IconENS2_9IconEntryEEEvNSt3__110unique_ptrINS_4Util8InternalIT0_E14KeyEntryVectorENS6_14default_deleteISC_EEEENS7_INS6_6vectorINS6_12basic_stringIcNS6_11char_traitsIcEENS6_9allocatorIcEEEENSK_ISM_EEEENSD_ISO_EEEE13scoped_refptrINS_21ProtoDatabaseSelectorEEN4base12OnceCallbackIFvbEEE to i64), i64* %36, align 8, !noalias !27
  %37 = getelementptr inbounds i8, i8* %33, i64 40
  %38 = bitcast i8* %37 to i64*
  store i64 %8, i64* %38, align 8, !noalias !27
  %39 = getelementptr inbounds i8, i8* %33, i64 48
  %40 = bitcast i8* %39 to i64*
  store i64 %9, i64* %40, align 8, !noalias !27
  %41 = getelementptr inbounds %"class.leveldb_proto::ProtoDatabaseImpl", %"class.leveldb_proto::ProtoDatabaseImpl"* %0, i64 0, i32 2, i32 0
  %42 = load %"class.leveldb_proto::ProtoDatabaseSelector"*, %"class.leveldb_proto::ProtoDatabaseSelector"** %41, align 8, !noalias !27
  %43 = getelementptr inbounds i8, i8* %33, i64 56
  %44 = bitcast i8* %43 to %"class.leveldb_proto::ProtoDatabaseSelector"**
  store %"class.leveldb_proto::ProtoDatabaseSelector"* %42, %"class.leveldb_proto::ProtoDatabaseSelector"** %44, align 8, !noalias !27
  %45 = icmp eq %"class.leveldb_proto::ProtoDatabaseSelector"* %42, null
  br i1 %45, label %46, label %48

46:                                               ; preds = %26
  %47 = ptrtoint i8* %14 to i64
  br label %53

48:                                               ; preds = %26
  %49 = getelementptr inbounds %"class.leveldb_proto::ProtoDatabaseSelector", %"class.leveldb_proto::ProtoDatabaseSelector"* %42, i64 0, i32 0, i32 0, i32 0, i32 0, i32 0, i32 0, i32 0, i32 0, i32 0
  %50 = atomicrmw add i32* %49, i32 1 monotonic, !noalias !27
  %51 = bitcast %"class.base::OnceCallback.323"* %6 to i64*
  %52 = load i64, i64* %51, align 8, !noalias !27
  br label %53

53:                                               ; preds = %46, %48
  %54 = phi i64 [ %47, %46 ], [ %52, %48 ]
  %55 = getelementptr inbounds i8, i8* %33, i64 64
  %56 = getelementptr inbounds %"class.base::OnceCallback.323", %"class.base::OnceCallback.323"* %6, i64 0, i32 0, i32 0, i32 0
  %57 = bitcast i8* %55 to i64*
  store i64 %54, i64* %57, align 8, !noalias !27
  store %"class.base::internal::BindStateBase"* null, %"class.base::internal::BindStateBase"** %56, align 8, !noalias !27
  %58 = getelementptr inbounds %"class.base::OnceCallback.323", %"class.base::OnceCallback.323"* %6, i64 0, i32 0
  call void @_ZN4base8internal12CallbackBaseD2Ev(%"class.base::internal::CallbackBase"* nonnull %58) #9
  call void @llvm.lifetime.end.p0i8(i64 8, i8* nonnull %12) #9
  %59 = ptrtoint i8* %33 to i64
  %60 = bitcast %"class.base::OnceCallback"* %7 to i64*
  store i64 %59, i64* %60, align 8
  store %"class.base::internal::BindStateBase"* null, %"class.base::internal::BindStateBase"** %11, align 8
  call void @_ZN13leveldb_proto17ProtoDatabaseImplIN13notifications5proto4IconENS1_9IconEntryEE15PostTransactionEN4base12OnceCallbackIFvvEEE(%"class.leveldb_proto::ProtoDatabaseImpl"* %0, %"class.base::OnceCallback"* nonnull %7)
  %61 = getelementptr inbounds %"class.base::OnceCallback", %"class.base::OnceCallback"* %7, i64 0, i32 0
  call void @_ZN4base8internal12CallbackBaseD2Ev(%"class.base::internal::CallbackBase"* nonnull %61) #9
  %62 = getelementptr inbounds %"class.base::OnceCallback", %"class.base::OnceCallback"* %5, i64 0, i32 0
  call void @_ZN4base8internal12CallbackBaseD2Ev(%"class.base::internal::CallbackBase"* nonnull %62) #9
  call void @llvm.lifetime.end.p0i8(i64 8, i8* nonnull %10) #9
  ret void
}

; Function Attrs: nounwind ssp uwtable
define linkonce_odr hidden void @_ZN13leveldb_proto17ProtoDatabaseImplIN13notifications5proto4IconENS1_9IconEntryEE29UpdateEntriesWithRemoveFilterENSt3__110unique_ptrINS6_6vectorINS6_4pairINS6_12basic_stringIcNS6_11char_traitsIcEENS6_9allocatorIcEEEES4_EENSD_ISG_EEEENS6_14default_deleteISI_EEEERKN4base17RepeatingCallbackIFbRKSF_EEENSM_12OnceCallbackIFvbEEE(%"class.leveldb_proto::ProtoDatabaseImpl"*, %"class.std::__1::vector.300"*, %"class.base::RepeatingCallback.324"* dereferenceable(8), %"class.base::OnceCallback.323"*) unnamed_addr #0 comdat align 2 {
  %5 = alloca %"class.base::OnceCallback", align 8
  %6 = alloca %"class.base::OnceCallback.323", align 8
  %7 = alloca %"class.base::OnceCallback", align 8
  %8 = ptrtoint %"class.std::__1::vector.300"* %1 to i64
  %9 = bitcast %"class.base::OnceCallback"* %5 to i8*
  call void @llvm.lifetime.start.p0i8(i64 8, i8* nonnull %9) #9
  %10 = getelementptr inbounds %"class.base::OnceCallback", %"class.base::OnceCallback"* %5, i64 0, i32 0, i32 0, i32 0
  store %"class.base::internal::BindStateBase"* inttoptr (i64 -6148914691236517206 to %"class.base::internal::BindStateBase"*), %"class.base::internal::BindStateBase"** %10, align 8
  %11 = bitcast %"class.base::OnceCallback.323"* %6 to i8*
  call void @llvm.lifetime.start.p0i8(i64 8, i8* nonnull %11) #9
  %12 = tail call dereferenceable(8) %class.scoped_refptr.31* @_ZN4base25SequencedTaskRunnerHandle3GetEv() #9
  %13 = tail call i8* @_Znwm(i64 56) #10, !noalias !32
  %14 = bitcast i8* %13 to %"class.base::internal::BindStateBase"*
  tail call void @_ZN4base8internal13BindStateBaseC2EPFvvEPFvPKS1_E(%"class.base::internal::BindStateBase"* nonnull %14, void ()* bitcast (void (%"class.base::internal::BindStateBase"*, i1)* @_ZN4base8internal7InvokerINS0_9BindStateIPFv13scoped_refptrINS_19SequencedTaskRunnerEENS_12OnceCallbackIFvbEEEbEJS5_S8_EEES7_E7RunOnceEPNS0_13BindStateBaseEb to void ()*), void (%"class.base::internal::BindStateBase"*)* nonnull @_ZN4base8internal9BindStateIPFv13scoped_refptrINS_19SequencedTaskRunnerEENS_12OnceCallbackIFvbEEEbEJS4_S7_EE7DestroyEPKNS0_13BindStateBaseE) #9, !noalias !32
  %15 = getelementptr inbounds i8, i8* %13, i64 32
  %16 = bitcast i8* %15 to i64*
  store i64 ptrtoint (void (%"class.base::SequencedTaskRunner"*, %"class.base::OnceCallback.323"*, i1)* @_ZN13leveldb_proto17RunUpdateCallbackE13scoped_refptrIN4base19SequencedTaskRunnerEENS1_12OnceCallbackIFvbEEEb to i64), i64* %16, align 8, !noalias !32
  %17 = getelementptr inbounds %class.scoped_refptr.31, %class.scoped_refptr.31* %12, i64 0, i32 0
  %18 = load %"class.base::SequencedTaskRunner"*, %"class.base::SequencedTaskRunner"** %17, align 8, !noalias !32
  %19 = getelementptr inbounds i8, i8* %13, i64 40
  %20 = bitcast i8* %19 to %"class.base::SequencedTaskRunner"**
  store %"class.base::SequencedTaskRunner"* %18, %"class.base::SequencedTaskRunner"** %20, align 8, !noalias !32
  %21 = icmp eq %"class.base::SequencedTaskRunner"* %18, null
  br i1 %21, label %25, label %22

22:                                               ; preds = %4
  %23 = getelementptr inbounds %"class.base::SequencedTaskRunner", %"class.base::SequencedTaskRunner"* %18, i64 0, i32 0, i32 1, i32 0, i32 0, i32 0, i32 0, i32 0, i32 0, i32 0, i32 0
  %24 = atomicrmw add i32* %23, i32 1 monotonic, !noalias !32
  br label %25

25:                                               ; preds = %4, %22
  %26 = getelementptr inbounds i8, i8* %13, i64 48
  %27 = getelementptr inbounds %"class.base::OnceCallback.323", %"class.base::OnceCallback.323"* %3, i64 0, i32 0, i32 0, i32 0
  %28 = bitcast %"class.base::OnceCallback.323"* %3 to i64*
  %29 = load i64, i64* %28, align 8, !noalias !32
  %30 = bitcast i8* %26 to i64*
  store i64 %29, i64* %30, align 8, !noalias !32
  store %"class.base::internal::BindStateBase"* null, %"class.base::internal::BindStateBase"** %27, align 8, !noalias !32
  %31 = bitcast %"class.base::OnceCallback.323"* %6 to i8**
  store i8* %13, i8** %31, align 8, !alias.scope !32
  %32 = tail call i8* @_Znwm(i64 72) #10, !noalias !37
  %33 = bitcast i8* %32 to %"class.base::internal::BindStateBase"*
  tail call void @_ZN4base8internal13BindStateBaseC2EPFvvEPFvPKS1_E(%"class.base::internal::BindStateBase"* nonnull %33, void ()* bitcast (void (%"class.base::internal::BindStateBase"*)* @_ZN4base8internal7InvokerINS0_9BindStateIPFvNSt3__110unique_ptrINS3_6vectorINS3_4pairINS3_12basic_stringIcNS3_11char_traitsIcEENS3_9allocatorIcEEEEN13notifications9IconEntryEEENSA_ISF_EEEENS3_14default_deleteISH_EEEERKNS_17RepeatingCallbackIFbRKSC_EEE13scoped_refptrIN13leveldb_proto21ProtoDatabaseSelectorEENS_12OnceCallbackIFvbEEEEJSK_SP_SV_SY_EEEFvvEE7RunOnceEPNS0_13BindStateBaseE to void ()*), void (%"class.base::internal::BindStateBase"*)* nonnull @_ZN4base8internal9BindStateIPFvNSt3__110unique_ptrINS2_6vectorINS2_4pairINS2_12basic_stringIcNS2_11char_traitsIcEENS2_9allocatorIcEEEEN13notifications9IconEntryEEENS9_ISE_EEEENS2_14default_deleteISG_EEEERKNS_17RepeatingCallbackIFbRKSB_EEE13scoped_refptrIN13leveldb_proto21ProtoDatabaseSelectorEENS_12OnceCallbackIFvbEEEEJSJ_SO_SU_SX_EE7DestroyEPKNS0_13BindStateBaseE) #9, !noalias !37
  %34 = getelementptr inbounds i8, i8* %32, i64 32
  %35 = bitcast i8* %34 to i64*
  store i64 ptrtoint (void (%"class.std::__1::vector.300"*, %"class.base::RepeatingCallback.324"*, %"class.leveldb_proto::ProtoDatabaseSelector"*, %"class.base::OnceCallback.323"*)* @_ZN13leveldb_proto12_GLOBAL__N_143UpdateEntriesWithRemoveFilterFromTaskRunnerIN13notifications5proto4IconENS2_9IconEntryEEEvNSt3__110unique_ptrINS_13ProtoDatabaseIT0_S9_E14KeyEntryVectorENS6_14default_deleteISB_EEEERKN4base17RepeatingCallbackIFbRKNS6_12basic_stringIcNS6_11char_traitsIcEENS6_9allocatorIcEEEEEEE13scoped_refptrINS_21ProtoDatabaseSelectorEENSF_12OnceCallbackIFvbEEE to i64), i64* %35, align 8, !noalias !37
  %36 = getelementptr inbounds i8, i8* %32, i64 40
  %37 = bitcast i8* %36 to i64*
  store i64 %8, i64* %37, align 8, !noalias !37
  %38 = getelementptr inbounds i8, i8* %32, i64 48
  %39 = bitcast i8* %38 to %"class.base::internal::CallbackBaseCopyable"*
  %40 = getelementptr inbounds %"class.base::RepeatingCallback.324", %"class.base::RepeatingCallback.324"* %2, i64 0, i32 0
  tail call void @_ZN4base8internal20CallbackBaseCopyableC2ERKS1_(%"class.base::internal::CallbackBaseCopyable"* %39, %"class.base::internal::CallbackBaseCopyable"* dereferenceable(8) %40) #9, !noalias !37
  %41 = getelementptr inbounds %"class.leveldb_proto::ProtoDatabaseImpl", %"class.leveldb_proto::ProtoDatabaseImpl"* %0, i64 0, i32 2, i32 0
  %42 = load %"class.leveldb_proto::ProtoDatabaseSelector"*, %"class.leveldb_proto::ProtoDatabaseSelector"** %41, align 8, !noalias !37
  %43 = getelementptr inbounds i8, i8* %32, i64 56
  %44 = bitcast i8* %43 to %"class.leveldb_proto::ProtoDatabaseSelector"**
  store %"class.leveldb_proto::ProtoDatabaseSelector"* %42, %"class.leveldb_proto::ProtoDatabaseSelector"** %44, align 8, !noalias !37
  %45 = icmp eq %"class.leveldb_proto::ProtoDatabaseSelector"* %42, null
  br i1 %45, label %46, label %48

46:                                               ; preds = %25
  %47 = ptrtoint i8* %13 to i64
  br label %53

48:                                               ; preds = %25
  %49 = getelementptr inbounds %"class.leveldb_proto::ProtoDatabaseSelector", %"class.leveldb_proto::ProtoDatabaseSelector"* %42, i64 0, i32 0, i32 0, i32 0, i32 0, i32 0, i32 0, i32 0, i32 0, i32 0
  %50 = atomicrmw add i32* %49, i32 1 monotonic, !noalias !37
  %51 = bitcast %"class.base::OnceCallback.323"* %6 to i64*
  %52 = load i64, i64* %51, align 8, !noalias !37
  br label %53

53:                                               ; preds = %46, %48
  %54 = phi i64 [ %47, %46 ], [ %52, %48 ]
  %55 = getelementptr inbounds i8, i8* %32, i64 64
  %56 = getelementptr inbounds %"class.base::OnceCallback.323", %"class.base::OnceCallback.323"* %6, i64 0, i32 0, i32 0, i32 0
  %57 = bitcast i8* %55 to i64*
  store i64 %54, i64* %57, align 8, !noalias !37
  store %"class.base::internal::BindStateBase"* null, %"class.base::internal::BindStateBase"** %56, align 8, !noalias !37
  %58 = getelementptr inbounds %"class.base::OnceCallback.323", %"class.base::OnceCallback.323"* %6, i64 0, i32 0
  call void @_ZN4base8internal12CallbackBaseD2Ev(%"class.base::internal::CallbackBase"* nonnull %58) #9
  call void @llvm.lifetime.end.p0i8(i64 8, i8* nonnull %11) #9
  %59 = ptrtoint i8* %32 to i64
  %60 = bitcast %"class.base::OnceCallback"* %7 to i64*
  store i64 %59, i64* %60, align 8
  store %"class.base::internal::BindStateBase"* null, %"class.base::internal::BindStateBase"** %10, align 8
  call void @_ZN13leveldb_proto17ProtoDatabaseImplIN13notifications5proto4IconENS1_9IconEntryEE15PostTransactionEN4base12OnceCallbackIFvvEEE(%"class.leveldb_proto::ProtoDatabaseImpl"* %0, %"class.base::OnceCallback"* nonnull %7)
  %61 = getelementptr inbounds %"class.base::OnceCallback", %"class.base::OnceCallback"* %7, i64 0, i32 0
  call void @_ZN4base8internal12CallbackBaseD2Ev(%"class.base::internal::CallbackBase"* nonnull %61) #9
  %62 = getelementptr inbounds %"class.base::OnceCallback", %"class.base::OnceCallback"* %5, i64 0, i32 0
  call void @_ZN4base8internal12CallbackBaseD2Ev(%"class.base::internal::CallbackBase"* nonnull %62) #9
  call void @llvm.lifetime.end.p0i8(i64 8, i8* nonnull %9) #9
  ret void
}

; Function Attrs: nounwind ssp uwtable
define linkonce_odr hidden void @_ZN13leveldb_proto17ProtoDatabaseImplIN13notifications5proto4IconENS1_9IconEntryEE11LoadEntriesEN4base12OnceCallbackIFvbNSt3__110unique_ptrINS8_6vectorIS4_NS8_9allocatorIS4_EEEENS8_14default_deleteISD_EEEEEEE(%"class.leveldb_proto::ProtoDatabaseImpl"*, %"class.base::OnceCallback.325"*) unnamed_addr #0 comdat align 2 {
  %3 = alloca %"class.base::RepeatingCallback.324", align 8
  %4 = alloca %"class.base::OnceCallback.325", align 8
  %5 = bitcast %"class.base::RepeatingCallback.324"* %3 to i8*
  call void @llvm.lifetime.start.p0i8(i64 8, i8* nonnull %5) #9
  %6 = getelementptr inbounds %"class.base::RepeatingCallback.324", %"class.base::RepeatingCallback.324"* %3, i64 0, i32 0, i32 0, i32 0, i32 0
  store %"class.base::internal::BindStateBase"* null, %"class.base::internal::BindStateBase"** %6, align 8
  %7 = getelementptr inbounds %"class.base::OnceCallback.325", %"class.base::OnceCallback.325"* %1, i64 0, i32 0, i32 0, i32 0
  %8 = bitcast %"class.base::OnceCallback.325"* %1 to i64*
  %9 = load i64, i64* %8, align 8
  %10 = bitcast %"class.base::OnceCallback.325"* %4 to i64*
  store i64 %9, i64* %10, align 8
  store %"class.base::internal::BindStateBase"* null, %"class.base::internal::BindStateBase"** %7, align 8
  %11 = bitcast %"class.leveldb_proto::ProtoDatabaseImpl"* %0 to void (%"class.leveldb_proto::ProtoDatabaseImpl"*, %"class.base::RepeatingCallback.324"*, %"class.base::OnceCallback.325"*)***
  %12 = load void (%"class.leveldb_proto::ProtoDatabaseImpl"*, %"class.base::RepeatingCallback.324"*, %"class.base::OnceCallback.325"*)**, void (%"class.leveldb_proto::ProtoDatabaseImpl"*, %"class.base::RepeatingCallback.324"*, %"class.base::OnceCallback.325"*)*** %11, align 8
  %13 = getelementptr inbounds void (%"class.leveldb_proto::ProtoDatabaseImpl"*, %"class.base::RepeatingCallback.324"*, %"class.base::OnceCallback.325"*)*, void (%"class.leveldb_proto::ProtoDatabaseImpl"*, %"class.base::RepeatingCallback.324"*, %"class.base::OnceCallback.325"*)** %12, i64 7
  %14 = load void (%"class.leveldb_proto::ProtoDatabaseImpl"*, %"class.base::RepeatingCallback.324"*, %"class.base::OnceCallback.325"*)*, void (%"class.leveldb_proto::ProtoDatabaseImpl"*, %"class.base::RepeatingCallback.324"*, %"class.base::OnceCallback.325"*)** %13, align 8
  call void %14(%"class.leveldb_proto::ProtoDatabaseImpl"* %0, %"class.base::RepeatingCallback.324"* nonnull dereferenceable(8) %3, %"class.base::OnceCallback.325"* nonnull %4) #9
  %15 = getelementptr inbounds %"class.base::OnceCallback.325", %"class.base::OnceCallback.325"* %4, i64 0, i32 0
  call void @_ZN4base8internal12CallbackBaseD2Ev(%"class.base::internal::CallbackBase"* nonnull %15) #9
  %16 = getelementptr inbounds %"class.base::RepeatingCallback.324", %"class.base::RepeatingCallback.324"* %3, i64 0, i32 0, i32 0
  call void @_ZN4base8internal12CallbackBaseD2Ev(%"class.base::internal::CallbackBase"* nonnull %16) #9
  call void @llvm.lifetime.end.p0i8(i64 8, i8* nonnull %5) #9
  ret void
}

; Function Attrs: nounwind ssp uwtable
define linkonce_odr hidden void @_ZN13leveldb_proto17ProtoDatabaseImplIN13notifications5proto4IconENS1_9IconEntryEE21LoadEntriesWithFilterERKN4base17RepeatingCallbackIFbRKNSt3__112basic_stringIcNS8_11char_traitsIcEENS8_9allocatorIcEEEEEEENS6_12OnceCallbackIFvbNS8_10unique_ptrINS8_6vectorIS4_NSC_IS4_EEEENS8_14default_deleteISP_EEEEEEE(%"class.leveldb_proto::ProtoDatabaseImpl"*, %"class.base::RepeatingCallback.324"* dereferenceable(8), %"class.base::OnceCallback.325"*) unnamed_addr #0 comdat align 2 {
  %4 = alloca %"struct.leveldb::ReadOptions", align 8
  %5 = alloca %"class.std::__1::basic_string", align 8
  %6 = alloca %"class.base::OnceCallback.325", align 8
  %7 = getelementptr inbounds %"struct.leveldb::ReadOptions", %"struct.leveldb::ReadOptions"* %4, i64 0, i32 0
  call void @llvm.lifetime.start.p0i8(i64 16, i8* nonnull %7) #9
  %8 = getelementptr inbounds %"struct.leveldb::ReadOptions", %"struct.leveldb::ReadOptions"* %4, i64 0, i32 1
  %9 = bitcast %"struct.leveldb::ReadOptions"* %4 to i64*
  store i64 0, i64* %9, align 8
  store i8 1, i8* %8, align 1
  %10 = getelementptr inbounds %"struct.leveldb::ReadOptions", %"struct.leveldb::ReadOptions"* %4, i64 0, i32 2
  store %"class.leveldb::Snapshot"* null, %"class.leveldb::Snapshot"** %10, align 8
  %11 = bitcast %"class.std::__1::basic_string"* %5 to i8*
  call void @llvm.lifetime.start.p0i8(i64 24, i8* nonnull %11) #9
  call void @llvm.memset.p0i8.i64(i8* nonnull align 8 %11, i8 0, i64 24, i1 false) #9
  %12 = getelementptr inbounds %"class.base::OnceCallback.325", %"class.base::OnceCallback.325"* %2, i64 0, i32 0, i32 0, i32 0
  %13 = bitcast %"class.base::OnceCallback.325"* %2 to i64*
  %14 = load i64, i64* %13, align 8
  %15 = bitcast %"class.base::OnceCallback.325"* %6 to i64*
  store i64 %14, i64* %15, align 8
  store %"class.base::internal::BindStateBase"* null, %"class.base::internal::BindStateBase"** %12, align 8
  %16 = bitcast %"class.leveldb_proto::ProtoDatabaseImpl"* %0 to void (%"class.leveldb_proto::ProtoDatabaseImpl"*, %"class.base::RepeatingCallback.324"*, %"struct.leveldb::ReadOptions"*, %"class.std::__1::basic_string"*, %"class.base::OnceCallback.325"*)***
  %17 = load void (%"class.leveldb_proto::ProtoDatabaseImpl"*, %"class.base::RepeatingCallback.324"*, %"struct.leveldb::ReadOptions"*, %"class.std::__1::basic_string"*, %"class.base::OnceCallback.325"*)**, void (%"class.leveldb_proto::ProtoDatabaseImpl"*, %"class.base::RepeatingCallback.324"*, %"struct.leveldb::ReadOptions"*, %"class.std::__1::basic_string"*, %"class.base::OnceCallback.325"*)*** %16, align 8
  %18 = getelementptr inbounds void (%"class.leveldb_proto::ProtoDatabaseImpl"*, %"class.base::RepeatingCallback.324"*, %"struct.leveldb::ReadOptions"*, %"class.std::__1::basic_string"*, %"class.base::OnceCallback.325"*)*, void (%"class.leveldb_proto::ProtoDatabaseImpl"*, %"class.base::RepeatingCallback.324"*, %"struct.leveldb::ReadOptions"*, %"class.std::__1::basic_string"*, %"class.base::OnceCallback.325"*)** %17, i64 8
  %19 = load void (%"class.leveldb_proto::ProtoDatabaseImpl"*, %"class.base::RepeatingCallback.324"*, %"struct.leveldb::ReadOptions"*, %"class.std::__1::basic_string"*, %"class.base::OnceCallback.325"*)*, void (%"class.leveldb_proto::ProtoDatabaseImpl"*, %"class.base::RepeatingCallback.324"*, %"struct.leveldb::ReadOptions"*, %"class.std::__1::basic_string"*, %"class.base::OnceCallback.325"*)** %18, align 8
  call void %19(%"class.leveldb_proto::ProtoDatabaseImpl"* %0, %"class.base::RepeatingCallback.324"* dereferenceable(8) %1, %"struct.leveldb::ReadOptions"* nonnull dereferenceable(16) %4, %"class.std::__1::basic_string"* nonnull dereferenceable(24) %5, %"class.base::OnceCallback.325"* nonnull %6) #9
  %20 = getelementptr inbounds %"class.base::OnceCallback.325", %"class.base::OnceCallback.325"* %6, i64 0, i32 0
  call void @_ZN4base8internal12CallbackBaseD2Ev(%"class.base::internal::CallbackBase"* nonnull %20) #9
  %21 = bitcast %"class.std::__1::basic_string"* %5 to %"struct.std::__1::basic_string<char, std::__1::char_traits<char>, std::__1::allocator<char> >::__short"*
  %22 = getelementptr inbounds %"struct.std::__1::basic_string<char, std::__1::char_traits<char>, std::__1::allocator<char> >::__short", %"struct.std::__1::basic_string<char, std::__1::char_traits<char>, std::__1::allocator<char> >::__short"* %21, i64 0, i32 1, i32 0
  %23 = load i8, i8* %22, align 1
  %24 = icmp slt i8 %23, 0
  br i1 %24, label %25, label %28

25:                                               ; preds = %3
  %26 = getelementptr inbounds %"class.std::__1::basic_string", %"class.std::__1::basic_string"* %5, i64 0, i32 0, i32 0, i32 0, i32 0, i32 0, i32 0
  %27 = load i8*, i8** %26, align 8
  call void @_ZdlPv(i8* %27) #10
  br label %28

28:                                               ; preds = %3, %25
  call void @llvm.lifetime.end.p0i8(i64 24, i8* nonnull %11) #9
  call void @llvm.lifetime.end.p0i8(i64 16, i8* nonnull %7) #9
  ret void
}

; Function Attrs: nounwind ssp uwtable
define linkonce_odr hidden void @_ZN13leveldb_proto17ProtoDatabaseImplIN13notifications5proto4IconENS1_9IconEntryEE21LoadEntriesWithFilterERKN4base17RepeatingCallbackIFbRKNSt3__112basic_stringIcNS8_11char_traitsIcEENS8_9allocatorIcEEEEEEERKN7leveldb11ReadOptionsESG_NS6_12OnceCallbackIFvbNS8_10unique_ptrINS8_6vectorIS4_NSC_IS4_EEEENS8_14default_deleteIST_EEEEEEE(%"class.leveldb_proto::ProtoDatabaseImpl"*, %"class.base::RepeatingCallback.324"* dereferenceable(8), %"struct.leveldb::ReadOptions"* dereferenceable(16), %"class.std::__1::basic_string"* dereferenceable(24), %"class.base::OnceCallback.325"*) unnamed_addr #0 comdat align 2 {
  %6 = alloca %"class.base::OnceCallback", align 8
  %7 = alloca %"class.base::OnceCallback.327", align 8
  %8 = alloca %"class.base::OnceCallback", align 8
  %9 = bitcast %"class.base::OnceCallback"* %6 to i8*
  call void @llvm.lifetime.start.p0i8(i64 8, i8* nonnull %9) #9
  %10 = getelementptr inbounds %"class.base::OnceCallback", %"class.base::OnceCallback"* %6, i64 0, i32 0, i32 0, i32 0
  store %"class.base::internal::BindStateBase"* inttoptr (i64 -6148914691236517206 to %"class.base::internal::BindStateBase"*), %"class.base::internal::BindStateBase"** %10, align 8
  %11 = bitcast %"class.base::OnceCallback.327"* %7 to i8*
  call void @llvm.lifetime.start.p0i8(i64 8, i8* nonnull %11) #9
  %12 = tail call dereferenceable(8) %class.scoped_refptr.31* @_ZN4base25SequencedTaskRunnerHandle3GetEv() #9
  %13 = tail call i8* @_Znwm(i64 56) #10, !noalias !42
  %14 = bitcast i8* %13 to %"class.base::internal::BindStateBase"*
  tail call void @_ZN4base8internal13BindStateBaseC2EPFvvEPFvPKS1_E(%"class.base::internal::BindStateBase"* nonnull %14, void ()* bitcast (void (%"class.base::internal::BindStateBase"*, i1, %"class.std::__1::unique_ptr.310"*)* @_ZN4base8internal7InvokerINS0_9BindStateIPFv13scoped_refptrINS_19SequencedTaskRunnerEENS_12OnceCallbackIFvbNSt3__110unique_ptrINS7_6vectorIN13notifications9IconEntryENS7_9allocatorISB_EEEENS7_14default_deleteISE_EEEEEEEbNS8_INS9_INS7_12basic_stringIcNS7_11char_traitsIcEENSC_IcEEEENSC_ISO_EEEENSF_ISQ_EEEEEJS5_SJ_EEEFvbSS_EE7RunOnceEPNS0_13BindStateBaseEbOSS_ to void ()*), void (%"class.base::internal::BindStateBase"*)* nonnull @_ZN4base8internal9BindStateIPFv13scoped_refptrINS_19SequencedTaskRunnerEENS_12OnceCallbackIFvbNSt3__110unique_ptrINS6_6vectorIN13notifications9IconEntryENS6_9allocatorISA_EEEENS6_14default_deleteISD_EEEEEEEbNS7_INS8_INS6_12basic_stringIcNS6_11char_traitsIcEENSB_IcEEEENSB_ISN_EEEENSE_ISP_EEEEEJS4_SI_EE7DestroyEPKNS0_13BindStateBaseE) #9, !noalias !42
  %15 = getelementptr inbounds i8, i8* %13, i64 32
  %16 = bitcast i8* %15 to i64*
  store i64 ptrtoint (void (%"class.base::SequencedTaskRunner"*, %"class.base::OnceCallback.325"*, i1, %"class.std::__1::vector.313"*)* @_ZN13leveldb_proto12_GLOBAL__N_118ParseLoadedEntriesIN13notifications5proto4IconENS2_9IconEntryEEEv13scoped_refptrIN4base19SequencedTaskRunnerEENS_9Callbacks8InternalIT0_E12LoadCallbackEbNSt3__110unique_ptrINSF_6vectorINSF_12basic_stringIcNSF_11char_traitsIcEENSF_9allocatorIcEEEENSL_ISN_EEEENSF_14default_deleteISP_EEEE to i64), i64* %16, align 8, !noalias !42
  %17 = getelementptr inbounds %class.scoped_refptr.31, %class.scoped_refptr.31* %12, i64 0, i32 0
  %18 = load %"class.base::SequencedTaskRunner"*, %"class.base::SequencedTaskRunner"** %17, align 8, !noalias !42
  %19 = getelementptr inbounds i8, i8* %13, i64 40
  %20 = bitcast i8* %19 to %"class.base::SequencedTaskRunner"**
  store %"class.base::SequencedTaskRunner"* %18, %"class.base::SequencedTaskRunner"** %20, align 8, !noalias !42
  %21 = icmp eq %"class.base::SequencedTaskRunner"* %18, null
  br i1 %21, label %25, label %22

22:                                               ; preds = %5
  %23 = getelementptr inbounds %"class.base::SequencedTaskRunner", %"class.base::SequencedTaskRunner"* %18, i64 0, i32 0, i32 1, i32 0, i32 0, i32 0, i32 0, i32 0, i32 0, i32 0, i32 0
  %24 = atomicrmw add i32* %23, i32 1 monotonic, !noalias !42
  br label %25

25:                                               ; preds = %5, %22
  %26 = getelementptr inbounds i8, i8* %13, i64 48
  %27 = getelementptr inbounds %"class.base::OnceCallback.325", %"class.base::OnceCallback.325"* %4, i64 0, i32 0, i32 0, i32 0
  %28 = bitcast %"class.base::OnceCallback.325"* %4 to i64*
  %29 = load i64, i64* %28, align 8, !noalias !42
  %30 = bitcast i8* %26 to i64*
  store i64 %29, i64* %30, align 8, !noalias !42
  store %"class.base::internal::BindStateBase"* null, %"class.base::internal::BindStateBase"** %27, align 8, !noalias !42
  %31 = bitcast %"class.base::OnceCallback.327"* %7 to i8**
  store i8* %13, i8** %31, align 8, !alias.scope !42
  %32 = tail call i8* @_Znwm(i64 112) #10, !noalias !47
  %33 = bitcast i8* %32 to %"class.base::internal::BindStateBase"*
  tail call void @_ZN4base8internal13BindStateBaseC2EPFvvEPFvPKS1_E(%"class.base::internal::BindStateBase"* nonnull %33, void ()* bitcast (void (%"class.base::internal::BindStateBase"*)* @_ZN4base8internal7InvokerINS0_9BindStateIMN13leveldb_proto21ProtoDatabaseSelectorEFvRKNS_17RepeatingCallbackIFbRKNSt3__112basic_stringIcNS6_11char_traitsIcEENS6_9allocatorIcEEEEEEERKN7leveldb11ReadOptionsESE_NS_12OnceCallbackIFvbNS6_10unique_ptrINS6_6vectorISC_NSA_ISC_EEEENS6_14default_deleteISR_EEEEEEEEJ13scoped_refptrIS4_ESG_SK_SC_SW_EEEFvvEE7RunOnceEPNS0_13BindStateBaseE to void ()*), void (%"class.base::internal::BindStateBase"*)* nonnull @_ZN4base8internal9BindStateIMN13leveldb_proto21ProtoDatabaseSelectorEFvRKNS_17RepeatingCallbackIFbRKNSt3__112basic_stringIcNS5_11char_traitsIcEENS5_9allocatorIcEEEEEEERKN7leveldb11ReadOptionsESD_NS_12OnceCallbackIFvbNS5_10unique_ptrINS5_6vectorISB_NS9_ISB_EEEENS5_14default_deleteISQ_EEEEEEEEJ13scoped_refptrIS3_ESF_SJ_SB_SV_EE7DestroyEPKNS0_13BindStateBaseE) #9, !noalias !47
  %34 = getelementptr inbounds i8, i8* %32, i64 32
  %35 = bitcast i8* %34 to <2 x i64>*
  store <2 x i64> <i64 ptrtoint (void (%"class.leveldb_proto::ProtoDatabaseSelector"*, %"class.base::RepeatingCallback.324"*, %"struct.leveldb::ReadOptions"*, %"class.std::__1::basic_string"*, %"class.base::OnceCallback.327"*)* @_ZN13leveldb_proto21ProtoDatabaseSelector21LoadEntriesWithFilterERKN4base17RepeatingCallbackIFbRKNSt3__112basic_stringIcNS3_11char_traitsIcEENS3_9allocatorIcEEEEEEERKN7leveldb11ReadOptionsESB_NS1_12OnceCallbackIFvbNS3_10unique_ptrINS3_6vectorIS9_NS7_IS9_EEEENS3_14default_deleteISO_EEEEEEE to i64), i64 0>, <2 x i64>* %35, align 8, !noalias !47
  %36 = getelementptr inbounds %"class.leveldb_proto::ProtoDatabaseImpl", %"class.leveldb_proto::ProtoDatabaseImpl"* %0, i64 0, i32 2, i32 0
  %37 = load %"class.leveldb_proto::ProtoDatabaseSelector"*, %"class.leveldb_proto::ProtoDatabaseSelector"** %36, align 8, !noalias !47
  %38 = getelementptr inbounds i8, i8* %32, i64 48
  %39 = bitcast i8* %38 to %"class.leveldb_proto::ProtoDatabaseSelector"**
  store %"class.leveldb_proto::ProtoDatabaseSelector"* %37, %"class.leveldb_proto::ProtoDatabaseSelector"** %39, align 8, !noalias !47
  %40 = icmp eq %"class.leveldb_proto::ProtoDatabaseSelector"* %37, null
  br i1 %40, label %44, label %41

41:                                               ; preds = %25
  %42 = getelementptr inbounds %"class.leveldb_proto::ProtoDatabaseSelector", %"class.leveldb_proto::ProtoDatabaseSelector"* %37, i64 0, i32 0, i32 0, i32 0, i32 0, i32 0, i32 0, i32 0, i32 0, i32 0
  %43 = atomicrmw add i32* %42, i32 1 monotonic, !noalias !47
  br label %44

44:                                               ; preds = %41, %25
  %45 = getelementptr inbounds i8, i8* %32, i64 56
  %46 = bitcast i8* %45 to %"class.base::internal::CallbackBaseCopyable"*
  %47 = getelementptr inbounds %"class.base::RepeatingCallback.324", %"class.base::RepeatingCallback.324"* %1, i64 0, i32 0
  tail call void @_ZN4base8internal20CallbackBaseCopyableC2ERKS1_(%"class.base::internal::CallbackBaseCopyable"* %46, %"class.base::internal::CallbackBaseCopyable"* dereferenceable(8) %47) #9, !noalias !47
  %48 = getelementptr inbounds i8, i8* %32, i64 64
  %49 = getelementptr inbounds %"struct.leveldb::ReadOptions", %"struct.leveldb::ReadOptions"* %2, i64 0, i32 0
  tail call void @llvm.memcpy.p0i8.p0i8.i64(i8* align 8 %48, i8* align 8 %49, i64 16, i1 false) #9, !noalias !47
  %50 = getelementptr inbounds i8, i8* %32, i64 80
  %51 = bitcast %"class.std::__1::basic_string"* %3 to %"struct.std::__1::basic_string<char, std::__1::char_traits<char>, std::__1::allocator<char> >::__short"*
  %52 = getelementptr inbounds %"struct.std::__1::basic_string<char, std::__1::char_traits<char>, std::__1::allocator<char> >::__short", %"struct.std::__1::basic_string<char, std::__1::char_traits<char>, std::__1::allocator<char> >::__short"* %51, i64 0, i32 1, i32 0
  %53 = load i8, i8* %52, align 1, !noalias !47
  %54 = icmp slt i8 %53, 0
  br i1 %54, label %57, label %55

55:                                               ; preds = %44
  %56 = bitcast %"class.std::__1::basic_string"* %3 to i8*
  tail call void @llvm.memcpy.p0i8.p0i8.i64(i8* align 8 %50, i8* align 8 %56, i64 24, i1 false) #9, !noalias !47
  br label %63

57:                                               ; preds = %44
  %58 = bitcast i8* %50 to %"class.std::__1::basic_string"*
  %59 = getelementptr inbounds %"class.std::__1::basic_string", %"class.std::__1::basic_string"* %3, i64 0, i32 0, i32 0, i32 0, i32 0, i32 0, i32 0
  %60 = load i8*, i8** %59, align 8, !noalias !47
  %61 = getelementptr inbounds %"class.std::__1::basic_string", %"class.std::__1::basic_string"* %3, i64 0, i32 0, i32 0, i32 0, i32 0, i32 0, i32 1
  %62 = load i64, i64* %61, align 8, !noalias !47
  tail call void @_ZNSt3__112basic_stringIcNS_11char_traitsIcEENS_9allocatorIcEEE25__init_copy_ctor_externalEPKcm(%"class.std::__1::basic_string"* %58, i8* %60, i64 %62) #9, !noalias !47
  br label %63

63:                                               ; preds = %55, %57
  %64 = getelementptr inbounds i8, i8* %32, i64 104
  %65 = getelementptr inbounds %"class.base::OnceCallback.327", %"class.base::OnceCallback.327"* %7, i64 0, i32 0, i32 0, i32 0
  %66 = bitcast %"class.base::OnceCallback.327"* %7 to i64*
  %67 = load i64, i64* %66, align 8, !noalias !47
  %68 = bitcast i8* %64 to i64*
  store i64 %67, i64* %68, align 8, !noalias !47
  store %"class.base::internal::BindStateBase"* null, %"class.base::internal::BindStateBase"** %65, align 8, !noalias !47
  %69 = getelementptr inbounds %"class.base::OnceCallback.327", %"class.base::OnceCallback.327"* %7, i64 0, i32 0
  call void @_ZN4base8internal12CallbackBaseD2Ev(%"class.base::internal::CallbackBase"* nonnull %69) #9
  call void @llvm.lifetime.end.p0i8(i64 8, i8* nonnull %11) #9
  %70 = ptrtoint i8* %32 to i64
  %71 = bitcast %"class.base::OnceCallback"* %8 to i64*
  store i64 %70, i64* %71, align 8
  store %"class.base::internal::BindStateBase"* null, %"class.base::internal::BindStateBase"** %10, align 8
  call void @_ZN13leveldb_proto17ProtoDatabaseImplIN13notifications5proto4IconENS1_9IconEntryEE15PostTransactionEN4base12OnceCallbackIFvvEEE(%"class.leveldb_proto::ProtoDatabaseImpl"* %0, %"class.base::OnceCallback"* nonnull %8)
  %72 = getelementptr inbounds %"class.base::OnceCallback", %"class.base::OnceCallback"* %8, i64 0, i32 0
  call void @_ZN4base8internal12CallbackBaseD2Ev(%"class.base::internal::CallbackBase"* nonnull %72) #9
  %73 = getelementptr inbounds %"class.base::OnceCallback", %"class.base::OnceCallback"* %6, i64 0, i32 0
  call void @_ZN4base8internal12CallbackBaseD2Ev(%"class.base::internal::CallbackBase"* nonnull %73) #9
  call void @llvm.lifetime.end.p0i8(i64 8, i8* nonnull %9) #9
  ret void
}

; Function Attrs: nounwind ssp uwtable
define linkonce_odr hidden void @_ZN13leveldb_proto17ProtoDatabaseImplIN13notifications5proto4IconENS1_9IconEntryEE18LoadKeysAndEntriesEN4base12OnceCallbackIFvbNSt3__110unique_ptrINS8_3mapINS8_12basic_stringIcNS8_11char_traitsIcEENS8_9allocatorIcEEEES4_NS8_4lessISG_EENSE_INS8_4pairIKSG_S4_EEEEEENS8_14default_deleteISN_EEEEEEE(%"class.leveldb_proto::ProtoDatabaseImpl"*, %"class.base::OnceCallback.326"*) unnamed_addr #0 comdat align 2 {
  %3 = alloca %"class.base::RepeatingCallback.324", align 8
  %4 = alloca %"class.base::OnceCallback.326", align 8
  %5 = bitcast %"class.base::RepeatingCallback.324"* %3 to i8*
  call void @llvm.lifetime.start.p0i8(i64 8, i8* nonnull %5) #9
  %6 = getelementptr inbounds %"class.base::RepeatingCallback.324", %"class.base::RepeatingCallback.324"* %3, i64 0, i32 0, i32 0, i32 0, i32 0
  store %"class.base::internal::BindStateBase"* null, %"class.base::internal::BindStateBase"** %6, align 8
  %7 = getelementptr inbounds %"class.base::OnceCallback.326", %"class.base::OnceCallback.326"* %1, i64 0, i32 0, i32 0, i32 0
  %8 = bitcast %"class.base::OnceCallback.326"* %1 to i64*
  %9 = load i64, i64* %8, align 8
  %10 = bitcast %"class.base::OnceCallback.326"* %4 to i64*
  store i64 %9, i64* %10, align 8
  store %"class.base::internal::BindStateBase"* null, %"class.base::internal::BindStateBase"** %7, align 8
  %11 = bitcast %"class.leveldb_proto::ProtoDatabaseImpl"* %0 to void (%"class.leveldb_proto::ProtoDatabaseImpl"*, %"class.base::RepeatingCallback.324"*, %"class.base::OnceCallback.326"*)***
  %12 = load void (%"class.leveldb_proto::ProtoDatabaseImpl"*, %"class.base::RepeatingCallback.324"*, %"class.base::OnceCallback.326"*)**, void (%"class.leveldb_proto::ProtoDatabaseImpl"*, %"class.base::RepeatingCallback.324"*, %"class.base::OnceCallback.326"*)*** %11, align 8
  %13 = getelementptr inbounds void (%"class.leveldb_proto::ProtoDatabaseImpl"*, %"class.base::RepeatingCallback.324"*, %"class.base::OnceCallback.326"*)*, void (%"class.leveldb_proto::ProtoDatabaseImpl"*, %"class.base::RepeatingCallback.324"*, %"class.base::OnceCallback.326"*)** %12, i64 10
  %14 = load void (%"class.leveldb_proto::ProtoDatabaseImpl"*, %"class.base::RepeatingCallback.324"*, %"class.base::OnceCallback.326"*)*, void (%"class.leveldb_proto::ProtoDatabaseImpl"*, %"class.base::RepeatingCallback.324"*, %"class.base::OnceCallback.326"*)** %13, align 8
  call void %14(%"class.leveldb_proto::ProtoDatabaseImpl"* %0, %"class.base::RepeatingCallback.324"* nonnull dereferenceable(8) %3, %"class.base::OnceCallback.326"* nonnull %4) #9
  %15 = getelementptr inbounds %"class.base::OnceCallback.326", %"class.base::OnceCallback.326"* %4, i64 0, i32 0
  call void @_ZN4base8internal12CallbackBaseD2Ev(%"class.base::internal::CallbackBase"* nonnull %15) #9
  %16 = getelementptr inbounds %"class.base::RepeatingCallback.324", %"class.base::RepeatingCallback.324"* %3, i64 0, i32 0, i32 0
  call void @_ZN4base8internal12CallbackBaseD2Ev(%"class.base::internal::CallbackBase"* nonnull %16) #9
  call void @llvm.lifetime.end.p0i8(i64 8, i8* nonnull %5) #9
  ret void
}

; Function Attrs: nounwind ssp uwtable
define linkonce_odr hidden void @_ZN13leveldb_proto17ProtoDatabaseImplIN13notifications5proto4IconENS1_9IconEntryEE28LoadKeysAndEntriesWithFilterERKN4base17RepeatingCallbackIFbRKNSt3__112basic_stringIcNS8_11char_traitsIcEENS8_9allocatorIcEEEEEEENS6_12OnceCallbackIFvbNS8_10unique_ptrINS8_3mapISE_S4_NS8_4lessISE_EENSC_INS8_4pairISF_S4_EEEEEENS8_14default_deleteIST_EEEEEEE(%"class.leveldb_proto::ProtoDatabaseImpl"*, %"class.base::RepeatingCallback.324"* dereferenceable(8), %"class.base::OnceCallback.326"*) unnamed_addr #0 comdat align 2 {
  %4 = alloca %"struct.leveldb::ReadOptions", align 8
  %5 = alloca %"class.std::__1::basic_string", align 8
  %6 = alloca %"class.base::OnceCallback.326", align 8
  %7 = getelementptr inbounds %"struct.leveldb::ReadOptions", %"struct.leveldb::ReadOptions"* %4, i64 0, i32 0
  call void @llvm.lifetime.start.p0i8(i64 16, i8* nonnull %7) #9
  %8 = getelementptr inbounds %"struct.leveldb::ReadOptions", %"struct.leveldb::ReadOptions"* %4, i64 0, i32 1
  %9 = bitcast %"struct.leveldb::ReadOptions"* %4 to i64*
  store i64 0, i64* %9, align 8
  store i8 1, i8* %8, align 1
  %10 = getelementptr inbounds %"struct.leveldb::ReadOptions", %"struct.leveldb::ReadOptions"* %4, i64 0, i32 2
  store %"class.leveldb::Snapshot"* null, %"class.leveldb::Snapshot"** %10, align 8
  %11 = bitcast %"class.std::__1::basic_string"* %5 to i8*
  call void @llvm.lifetime.start.p0i8(i64 24, i8* nonnull %11) #9
  call void @llvm.memset.p0i8.i64(i8* nonnull align 8 %11, i8 0, i64 24, i1 false) #9
  %12 = getelementptr inbounds %"class.base::OnceCallback.326", %"class.base::OnceCallback.326"* %2, i64 0, i32 0, i32 0, i32 0
  %13 = bitcast %"class.base::OnceCallback.326"* %2 to i64*
  %14 = load i64, i64* %13, align 8
  %15 = bitcast %"class.base::OnceCallback.326"* %6 to i64*
  store i64 %14, i64* %15, align 8
  store %"class.base::internal::BindStateBase"* null, %"class.base::internal::BindStateBase"** %12, align 8
  %16 = bitcast %"class.leveldb_proto::ProtoDatabaseImpl"* %0 to void (%"class.leveldb_proto::ProtoDatabaseImpl"*, %"class.base::RepeatingCallback.324"*, %"struct.leveldb::ReadOptions"*, %"class.std::__1::basic_string"*, %"class.base::OnceCallback.326"*)***
  %17 = load void (%"class.leveldb_proto::ProtoDatabaseImpl"*, %"class.base::RepeatingCallback.324"*, %"struct.leveldb::ReadOptions"*, %"class.std::__1::basic_string"*, %"class.base::OnceCallback.326"*)**, void (%"class.leveldb_proto::ProtoDatabaseImpl"*, %"class.base::RepeatingCallback.324"*, %"struct.leveldb::ReadOptions"*, %"class.std::__1::basic_string"*, %"class.base::OnceCallback.326"*)*** %16, align 8
  %18 = getelementptr inbounds void (%"class.leveldb_proto::ProtoDatabaseImpl"*, %"class.base::RepeatingCallback.324"*, %"struct.leveldb::ReadOptions"*, %"class.std::__1::basic_string"*, %"class.base::OnceCallback.326"*)*, void (%"class.leveldb_proto::ProtoDatabaseImpl"*, %"class.base::RepeatingCallback.324"*, %"struct.leveldb::ReadOptions"*, %"class.std::__1::basic_string"*, %"class.base::OnceCallback.326"*)** %17, i64 11
  %19 = load void (%"class.leveldb_proto::ProtoDatabaseImpl"*, %"class.base::RepeatingCallback.324"*, %"struct.leveldb::ReadOptions"*, %"class.std::__1::basic_string"*, %"class.base::OnceCallback.326"*)*, void (%"class.leveldb_proto::ProtoDatabaseImpl"*, %"class.base::RepeatingCallback.324"*, %"struct.leveldb::ReadOptions"*, %"class.std::__1::basic_string"*, %"class.base::OnceCallback.326"*)** %18, align 8
  call void %19(%"class.leveldb_proto::ProtoDatabaseImpl"* %0, %"class.base::RepeatingCallback.324"* dereferenceable(8) %1, %"struct.leveldb::ReadOptions"* nonnull dereferenceable(16) %4, %"class.std::__1::basic_string"* nonnull dereferenceable(24) %5, %"class.base::OnceCallback.326"* nonnull %6) #9
  %20 = getelementptr inbounds %"class.base::OnceCallback.326", %"class.base::OnceCallback.326"* %6, i64 0, i32 0
  call void @_ZN4base8internal12CallbackBaseD2Ev(%"class.base::internal::CallbackBase"* nonnull %20) #9
  %21 = bitcast %"class.std::__1::basic_string"* %5 to %"struct.std::__1::basic_string<char, std::__1::char_traits<char>, std::__1::allocator<char> >::__short"*
  %22 = getelementptr inbounds %"struct.std::__1::basic_string<char, std::__1::char_traits<char>, std::__1::allocator<char> >::__short", %"struct.std::__1::basic_string<char, std::__1::char_traits<char>, std::__1::allocator<char> >::__short"* %21, i64 0, i32 1, i32 0
  %23 = load i8, i8* %22, align 1
  %24 = icmp slt i8 %23, 0
  br i1 %24, label %25, label %28

25:                                               ; preds = %3
  %26 = getelementptr inbounds %"class.std::__1::basic_string", %"class.std::__1::basic_string"* %5, i64 0, i32 0, i32 0, i32 0, i32 0, i32 0, i32 0
  %27 = load i8*, i8** %26, align 8
  call void @_ZdlPv(i8* %27) #10
  br label %28

28:                                               ; preds = %3, %25
  call void @llvm.lifetime.end.p0i8(i64 24, i8* nonnull %11) #9
  call void @llvm.lifetime.end.p0i8(i64 16, i8* nonnull %7) #9
  ret void
}

; Function Attrs: nounwind ssp uwtable
define linkonce_odr hidden void @_ZN13leveldb_proto17ProtoDatabaseImplIN13notifications5proto4IconENS1_9IconEntryEE28LoadKeysAndEntriesWithFilterERKN4base17RepeatingCallbackIFbRKNSt3__112basic_stringIcNS8_11char_traitsIcEENS8_9allocatorIcEEEEEEERKN7leveldb11ReadOptionsESG_NS6_12OnceCallbackIFvbNS8_10unique_ptrINS8_3mapISE_S4_NS8_4lessISE_EENSC_INS8_4pairISF_S4_EEEEEENS8_14default_deleteISX_EEEEEEE(%"class.leveldb_proto::ProtoDatabaseImpl"*, %"class.base::RepeatingCallback.324"* dereferenceable(8), %"struct.leveldb::ReadOptions"* dereferenceable(16), %"class.std::__1::basic_string"* dereferenceable(24), %"class.base::OnceCallback.326"*) unnamed_addr #0 comdat align 2 {
  %6 = alloca %"class.base::OnceCallback", align 8
  %7 = alloca %"class.base::OnceCallback.428", align 8
  %8 = alloca %"class.base::OnceCallback", align 8
  %9 = bitcast %"class.base::OnceCallback"* %6 to i8*
  call void @llvm.lifetime.start.p0i8(i64 8, i8* nonnull %9) #9
  %10 = getelementptr inbounds %"class.base::OnceCallback", %"class.base::OnceCallback"* %6, i64 0, i32 0, i32 0, i32 0
  store %"class.base::internal::BindStateBase"* inttoptr (i64 -6148914691236517206 to %"class.base::internal::BindStateBase"*), %"class.base::internal::BindStateBase"** %10, align 8
  %11 = bitcast %"class.base::OnceCallback.428"* %7 to i8*
  call void @llvm.lifetime.start.p0i8(i64 8, i8* nonnull %11) #9
  %12 = tail call dereferenceable(8) %class.scoped_refptr.31* @_ZN4base25SequencedTaskRunnerHandle3GetEv() #9
  %13 = tail call i8* @_Znwm(i64 56) #10, !noalias !52
  %14 = bitcast i8* %13 to %"class.base::internal::BindStateBase"*
  tail call void @_ZN4base8internal13BindStateBaseC2EPFvvEPFvPKS1_E(%"class.base::internal::BindStateBase"* nonnull %14, void ()* bitcast (void (%"class.base::internal::BindStateBase"*, i1, %"class.std::__1::unique_ptr.429"*)* @_ZN4base8internal7InvokerINS0_9BindStateIPFv13scoped_refptrINS_19SequencedTaskRunnerEENS_12OnceCallbackIFvbNSt3__110unique_ptrINS7_3mapINS7_12basic_stringIcNS7_11char_traitsIcEENS7_9allocatorIcEEEEN13notifications9IconEntryENS7_4lessISF_EENSD_INS7_4pairIKSF_SH_EEEEEENS7_14default_deleteISO_EEEEEEEbNS8_INS9_ISF_SF_SJ_NSD_INSK_ISL_SF_EEEEEENSP_ISW_EEEEEJS5_ST_EEEFvbSY_EE7RunOnceEPNS0_13BindStateBaseEbOSY_ to void ()*), void (%"class.base::internal::BindStateBase"*)* nonnull @_ZN4base8internal9BindStateIPFv13scoped_refptrINS_19SequencedTaskRunnerEENS_12OnceCallbackIFvbNSt3__110unique_ptrINS6_3mapINS6_12basic_stringIcNS6_11char_traitsIcEENS6_9allocatorIcEEEEN13notifications9IconEntryENS6_4lessISE_EENSC_INS6_4pairIKSE_SG_EEEEEENS6_14default_deleteISN_EEEEEEEbNS7_INS8_ISE_SE_SI_NSC_INSJ_ISK_SE_EEEEEENSO_ISV_EEEEEJS4_SS_EE7DestroyEPKNS0_13BindStateBaseE) #9, !noalias !52
  %15 = getelementptr inbounds i8, i8* %13, i64 32
  %16 = bitcast i8* %15 to i64*
  store i64 ptrtoint (void (%"class.base::SequencedTaskRunner"*, %"class.base::OnceCallback.326"*, i1, %"class.std::__1::map.432"*)* @_ZN13leveldb_proto12_GLOBAL__N_125ParseLoadedKeysAndEntriesIN13notifications5proto4IconENS2_9IconEntryEEEv13scoped_refptrIN4base19SequencedTaskRunnerEENS_9Callbacks8InternalIT0_E26LoadKeysAndEntriesCallbackEbNSt3__110unique_ptrINSF_3mapINSF_12basic_stringIcNSF_11char_traitsIcEENSF_9allocatorIcEEEESN_NSF_4lessISN_EENSL_INSF_4pairIKSN_SN_EEEEEENSF_14default_deleteISU_EEEE to i64), i64* %16, align 8, !noalias !52
  %17 = getelementptr inbounds %class.scoped_refptr.31, %class.scoped_refptr.31* %12, i64 0, i32 0
  %18 = load %"class.base::SequencedTaskRunner"*, %"class.base::SequencedTaskRunner"** %17, align 8, !noalias !52
  %19 = getelementptr inbounds i8, i8* %13, i64 40
  %20 = bitcast i8* %19 to %"class.base::SequencedTaskRunner"**
  store %"class.base::SequencedTaskRunner"* %18, %"class.base::SequencedTaskRunner"** %20, align 8, !noalias !52
  %21 = icmp eq %"class.base::SequencedTaskRunner"* %18, null
  br i1 %21, label %25, label %22

22:                                               ; preds = %5
  %23 = getelementptr inbounds %"class.base::SequencedTaskRunner", %"class.base::SequencedTaskRunner"* %18, i64 0, i32 0, i32 1, i32 0, i32 0, i32 0, i32 0, i32 0, i32 0, i32 0, i32 0
  %24 = atomicrmw add i32* %23, i32 1 monotonic, !noalias !52
  br label %25

25:                                               ; preds = %5, %22
  %26 = getelementptr inbounds i8, i8* %13, i64 48
  %27 = getelementptr inbounds %"class.base::OnceCallback.326", %"class.base::OnceCallback.326"* %4, i64 0, i32 0, i32 0, i32 0
  %28 = bitcast %"class.base::OnceCallback.326"* %4 to i64*
  %29 = load i64, i64* %28, align 8, !noalias !52
  %30 = bitcast i8* %26 to i64*
  store i64 %29, i64* %30, align 8, !noalias !52
  store %"class.base::internal::BindStateBase"* null, %"class.base::internal::BindStateBase"** %27, align 8, !noalias !52
  %31 = bitcast %"class.base::OnceCallback.428"* %7 to i8**
  store i8* %13, i8** %31, align 8, !alias.scope !52
  %32 = tail call i8* @_Znwm(i64 112) #10, !noalias !57
  %33 = bitcast i8* %32 to %"class.base::internal::BindStateBase"*
  tail call void @_ZN4base8internal13BindStateBaseC2EPFvvEPFvPKS1_E(%"class.base::internal::BindStateBase"* nonnull %33, void ()* bitcast (void (%"class.base::internal::BindStateBase"*)* @_ZN4base8internal7InvokerINS0_9BindStateIMN13leveldb_proto21ProtoDatabaseSelectorEFvRKNS_17RepeatingCallbackIFbRKNSt3__112basic_stringIcNS6_11char_traitsIcEENS6_9allocatorIcEEEEEEERKN7leveldb11ReadOptionsESE_NS_12OnceCallbackIFvbNS6_10unique_ptrINS6_3mapISC_SC_NS6_4lessISC_EENSA_INS6_4pairISD_SC_EEEEEENS6_14default_deleteISV_EEEEEEEEJ13scoped_refptrIS4_ESG_SK_SC_S10_EEEFvvEE7RunOnceEPNS0_13BindStateBaseE to void ()*), void (%"class.base::internal::BindStateBase"*)* nonnull @_ZN4base8internal9BindStateIMN13leveldb_proto21ProtoDatabaseSelectorEFvRKNS_17RepeatingCallbackIFbRKNSt3__112basic_stringIcNS5_11char_traitsIcEENS5_9allocatorIcEEEEEEERKN7leveldb11ReadOptionsESD_NS_12OnceCallbackIFvbNS5_10unique_ptrINS5_3mapISB_SB_NS5_4lessISB_EENS9_INS5_4pairISC_SB_EEEEEENS5_14default_deleteISU_EEEEEEEEJ13scoped_refptrIS3_ESF_SJ_SB_SZ_EE7DestroyEPKNS0_13BindStateBaseE) #9, !noalias !57
  %34 = getelementptr inbounds i8, i8* %32, i64 32
  %35 = bitcast i8* %34 to <2 x i64>*
  store <2 x i64> <i64 ptrtoint (void (%"class.leveldb_proto::ProtoDatabaseSelector"*, %"class.base::RepeatingCallback.324"*, %"struct.leveldb::ReadOptions"*, %"class.std::__1::basic_string"*, %"class.base::OnceCallback.428"*)* @_ZN13leveldb_proto21ProtoDatabaseSelector28LoadKeysAndEntriesWithFilterERKN4base17RepeatingCallbackIFbRKNSt3__112basic_stringIcNS3_11char_traitsIcEENS3_9allocatorIcEEEEEEERKN7leveldb11ReadOptionsESB_NS1_12OnceCallbackIFvbNS3_10unique_ptrINS3_3mapIS9_S9_NS3_4lessIS9_EENS7_INS3_4pairISA_S9_EEEEEENS3_14default_deleteISS_EEEEEEE to i64), i64 0>, <2 x i64>* %35, align 8, !noalias !57
  %36 = getelementptr inbounds %"class.leveldb_proto::ProtoDatabaseImpl", %"class.leveldb_proto::ProtoDatabaseImpl"* %0, i64 0, i32 2, i32 0
  %37 = load %"class.leveldb_proto::ProtoDatabaseSelector"*, %"class.leveldb_proto::ProtoDatabaseSelector"** %36, align 8, !noalias !57
  %38 = getelementptr inbounds i8, i8* %32, i64 48
  %39 = bitcast i8* %38 to %"class.leveldb_proto::ProtoDatabaseSelector"**
  store %"class.leveldb_proto::ProtoDatabaseSelector"* %37, %"class.leveldb_proto::ProtoDatabaseSelector"** %39, align 8, !noalias !57
  %40 = icmp eq %"class.leveldb_proto::ProtoDatabaseSelector"* %37, null
  br i1 %40, label %44, label %41

41:                                               ; preds = %25
  %42 = getelementptr inbounds %"class.leveldb_proto::ProtoDatabaseSelector", %"class.leveldb_proto::ProtoDatabaseSelector"* %37, i64 0, i32 0, i32 0, i32 0, i32 0, i32 0, i32 0, i32 0, i32 0, i32 0
  %43 = atomicrmw add i32* %42, i32 1 monotonic, !noalias !57
  br label %44

44:                                               ; preds = %41, %25
  %45 = getelementptr inbounds i8, i8* %32, i64 56
  %46 = bitcast i8* %45 to %"class.base::internal::CallbackBaseCopyable"*
  %47 = getelementptr inbounds %"class.base::RepeatingCallback.324", %"class.base::RepeatingCallback.324"* %1, i64 0, i32 0
  tail call void @_ZN4base8internal20CallbackBaseCopyableC2ERKS1_(%"class.base::internal::CallbackBaseCopyable"* %46, %"class.base::internal::CallbackBaseCopyable"* dereferenceable(8) %47) #9, !noalias !57
  %48 = getelementptr inbounds i8, i8* %32, i64 64
  %49 = getelementptr inbounds %"struct.leveldb::ReadOptions", %"struct.leveldb::ReadOptions"* %2, i64 0, i32 0
  tail call void @llvm.memcpy.p0i8.p0i8.i64(i8* align 8 %48, i8* align 8 %49, i64 16, i1 false) #9, !noalias !57
  %50 = getelementptr inbounds i8, i8* %32, i64 80
  %51 = bitcast %"class.std::__1::basic_string"* %3 to %"struct.std::__1::basic_string<char, std::__1::char_traits<char>, std::__1::allocator<char> >::__short"*
  %52 = getelementptr inbounds %"struct.std::__1::basic_string<char, std::__1::char_traits<char>, std::__1::allocator<char> >::__short", %"struct.std::__1::basic_string<char, std::__1::char_traits<char>, std::__1::allocator<char> >::__short"* %51, i64 0, i32 1, i32 0
  %53 = load i8, i8* %52, align 1, !noalias !57
  %54 = icmp slt i8 %53, 0
  br i1 %54, label %57, label %55

55:                                               ; preds = %44
  %56 = bitcast %"class.std::__1::basic_string"* %3 to i8*
  tail call void @llvm.memcpy.p0i8.p0i8.i64(i8* align 8 %50, i8* align 8 %56, i64 24, i1 false) #9, !noalias !57
  br label %63

57:                                               ; preds = %44
  %58 = bitcast i8* %50 to %"class.std::__1::basic_string"*
  %59 = getelementptr inbounds %"class.std::__1::basic_string", %"class.std::__1::basic_string"* %3, i64 0, i32 0, i32 0, i32 0, i32 0, i32 0, i32 0
  %60 = load i8*, i8** %59, align 8, !noalias !57
  %61 = getelementptr inbounds %"class.std::__1::basic_string", %"class.std::__1::basic_string"* %3, i64 0, i32 0, i32 0, i32 0, i32 0, i32 0, i32 1
  %62 = load i64, i64* %61, align 8, !noalias !57
  tail call void @_ZNSt3__112basic_stringIcNS_11char_traitsIcEENS_9allocatorIcEEE25__init_copy_ctor_externalEPKcm(%"class.std::__1::basic_string"* %58, i8* %60, i64 %62) #9, !noalias !57
  br label %63

63:                                               ; preds = %55, %57
  %64 = getelementptr inbounds i8, i8* %32, i64 104
  %65 = getelementptr inbounds %"class.base::OnceCallback.428", %"class.base::OnceCallback.428"* %7, i64 0, i32 0, i32 0, i32 0
  %66 = bitcast %"class.base::OnceCallback.428"* %7 to i64*
  %67 = load i64, i64* %66, align 8, !noalias !57
  %68 = bitcast i8* %64 to i64*
  store i64 %67, i64* %68, align 8, !noalias !57
  store %"class.base::internal::BindStateBase"* null, %"class.base::internal::BindStateBase"** %65, align 8, !noalias !57
  %69 = getelementptr inbounds %"class.base::OnceCallback.428", %"class.base::OnceCallback.428"* %7, i64 0, i32 0
  call void @_ZN4base8internal12CallbackBaseD2Ev(%"class.base::internal::CallbackBase"* nonnull %69) #9
  call void @llvm.lifetime.end.p0i8(i64 8, i8* nonnull %11) #9
  %70 = ptrtoint i8* %32 to i64
  %71 = bitcast %"class.base::OnceCallback"* %8 to i64*
  store i64 %70, i64* %71, align 8
  store %"class.base::internal::BindStateBase"* null, %"class.base::internal::BindStateBase"** %10, align 8
  call void @_ZN13leveldb_proto17ProtoDatabaseImplIN13notifications5proto4IconENS1_9IconEntryEE15PostTransactionEN4base12OnceCallbackIFvvEEE(%"class.leveldb_proto::ProtoDatabaseImpl"* %0, %"class.base::OnceCallback"* nonnull %8)
  %72 = getelementptr inbounds %"class.base::OnceCallback", %"class.base::OnceCallback"* %8, i64 0, i32 0
  call void @_ZN4base8internal12CallbackBaseD2Ev(%"class.base::internal::CallbackBase"* nonnull %72) #9
  %73 = getelementptr inbounds %"class.base::OnceCallback", %"class.base::OnceCallback"* %6, i64 0, i32 0
  call void @_ZN4base8internal12CallbackBaseD2Ev(%"class.base::internal::CallbackBase"* nonnull %73) #9
  call void @llvm.lifetime.end.p0i8(i64 8, i8* nonnull %9) #9
  ret void
}

; Function Attrs: nounwind ssp uwtable
define linkonce_odr hidden void @_ZN13leveldb_proto17ProtoDatabaseImplIN13notifications5proto4IconENS1_9IconEntryEE25LoadKeysAndEntriesInRangeERKNSt3__112basic_stringIcNS6_11char_traitsIcEENS6_9allocatorIcEEEESE_N4base12OnceCallbackIFvbNS6_10unique_ptrINS6_3mapISC_S4_NS6_4lessISC_EENSA_INS6_4pairISD_S4_EEEEEENS6_14default_deleteISO_EEEEEEE(%"class.leveldb_proto::ProtoDatabaseImpl"*, %"class.std::__1::basic_string"* dereferenceable(24), %"class.std::__1::basic_string"* dereferenceable(24), %"class.base::OnceCallback.326"*) unnamed_addr #0 comdat align 2 {
  %5 = alloca %"class.base::OnceCallback", align 8
  %6 = alloca %"class.base::OnceCallback.428", align 8
  %7 = alloca %"class.base::OnceCallback", align 8
  %8 = bitcast %"class.base::OnceCallback"* %5 to i8*
  call void @llvm.lifetime.start.p0i8(i64 8, i8* nonnull %8) #9
  %9 = getelementptr inbounds %"class.base::OnceCallback", %"class.base::OnceCallback"* %5, i64 0, i32 0, i32 0, i32 0
  store %"class.base::internal::BindStateBase"* inttoptr (i64 -6148914691236517206 to %"class.base::internal::BindStateBase"*), %"class.base::internal::BindStateBase"** %9, align 8
  %10 = bitcast %"class.base::OnceCallback.428"* %6 to i8*
  call void @llvm.lifetime.start.p0i8(i64 8, i8* nonnull %10) #9
  %11 = tail call dereferenceable(8) %class.scoped_refptr.31* @_ZN4base25SequencedTaskRunnerHandle3GetEv() #9
  %12 = tail call i8* @_Znwm(i64 56) #10, !noalias !62
  %13 = bitcast i8* %12 to %"class.base::internal::BindStateBase"*
  tail call void @_ZN4base8internal13BindStateBaseC2EPFvvEPFvPKS1_E(%"class.base::internal::BindStateBase"* nonnull %13, void ()* bitcast (void (%"class.base::internal::BindStateBase"*, i1, %"class.std::__1::unique_ptr.429"*)* @_ZN4base8internal7InvokerINS0_9BindStateIPFv13scoped_refptrINS_19SequencedTaskRunnerEENS_12OnceCallbackIFvbNSt3__110unique_ptrINS7_3mapINS7_12basic_stringIcNS7_11char_traitsIcEENS7_9allocatorIcEEEEN13notifications9IconEntryENS7_4lessISF_EENSD_INS7_4pairIKSF_SH_EEEEEENS7_14default_deleteISO_EEEEEEEbNS8_INS9_ISF_SF_SJ_NSD_INSK_ISL_SF_EEEEEENSP_ISW_EEEEEJS5_ST_EEEFvbSY_EE7RunOnceEPNS0_13BindStateBaseEbOSY_ to void ()*), void (%"class.base::internal::BindStateBase"*)* nonnull @_ZN4base8internal9BindStateIPFv13scoped_refptrINS_19SequencedTaskRunnerEENS_12OnceCallbackIFvbNSt3__110unique_ptrINS6_3mapINS6_12basic_stringIcNS6_11char_traitsIcEENS6_9allocatorIcEEEEN13notifications9IconEntryENS6_4lessISE_EENSC_INS6_4pairIKSE_SG_EEEEEENS6_14default_deleteISN_EEEEEEEbNS7_INS8_ISE_SE_SI_NSC_INSJ_ISK_SE_EEEEEENSO_ISV_EEEEEJS4_SS_EE7DestroyEPKNS0_13BindStateBaseE) #9, !noalias !62
  %14 = getelementptr inbounds i8, i8* %12, i64 32
  %15 = bitcast i8* %14 to i64*
  store i64 ptrtoint (void (%"class.base::SequencedTaskRunner"*, %"class.base::OnceCallback.326"*, i1, %"class.std::__1::map.432"*)* @_ZN13leveldb_proto12_GLOBAL__N_125ParseLoadedKeysAndEntriesIN13notifications5proto4IconENS2_9IconEntryEEEv13scoped_refptrIN4base19SequencedTaskRunnerEENS_9Callbacks8InternalIT0_E26LoadKeysAndEntriesCallbackEbNSt3__110unique_ptrINSF_3mapINSF_12basic_stringIcNSF_11char_traitsIcEENSF_9allocatorIcEEEESN_NSF_4lessISN_EENSL_INSF_4pairIKSN_SN_EEEEEENSF_14default_deleteISU_EEEE to i64), i64* %15, align 8, !noalias !62
  %16 = getelementptr inbounds %class.scoped_refptr.31, %class.scoped_refptr.31* %11, i64 0, i32 0
  %17 = load %"class.base::SequencedTaskRunner"*, %"class.base::SequencedTaskRunner"** %16, align 8, !noalias !62
  %18 = getelementptr inbounds i8, i8* %12, i64 40
  %19 = bitcast i8* %18 to %"class.base::SequencedTaskRunner"**
  store %"class.base::SequencedTaskRunner"* %17, %"class.base::SequencedTaskRunner"** %19, align 8, !noalias !62
  %20 = icmp eq %"class.base::SequencedTaskRunner"* %17, null
  br i1 %20, label %24, label %21

21:                                               ; preds = %4
  %22 = getelementptr inbounds %"class.base::SequencedTaskRunner", %"class.base::SequencedTaskRunner"* %17, i64 0, i32 0, i32 1, i32 0, i32 0, i32 0, i32 0, i32 0, i32 0, i32 0, i32 0
  %23 = atomicrmw add i32* %22, i32 1 monotonic, !noalias !62
  br label %24

24:                                               ; preds = %4, %21
  %25 = getelementptr inbounds i8, i8* %12, i64 48
  %26 = getelementptr inbounds %"class.base::OnceCallback.326", %"class.base::OnceCallback.326"* %3, i64 0, i32 0, i32 0, i32 0
  %27 = bitcast %"class.base::OnceCallback.326"* %3 to i64*
  %28 = load i64, i64* %27, align 8, !noalias !62
  %29 = bitcast i8* %25 to i64*
  store i64 %28, i64* %29, align 8, !noalias !62
  store %"class.base::internal::BindStateBase"* null, %"class.base::internal::BindStateBase"** %26, align 8, !noalias !62
  %30 = bitcast %"class.base::OnceCallback.428"* %6 to i8**
  store i8* %12, i8** %30, align 8, !alias.scope !62
  %31 = tail call i8* @_Znwm(i64 112) #10
  %32 = bitcast i8* %31 to %"class.base::internal::BindStateBase"*
  tail call void @_ZN4base8internal13BindStateBaseC2EPFvvEPFvPKS1_E(%"class.base::internal::BindStateBase"* nonnull %32, void ()* bitcast (void (%"class.base::internal::BindStateBase"*)* @_ZN4base8internal7InvokerINS0_9BindStateIMN13leveldb_proto21ProtoDatabaseSelectorEFvRKNSt3__112basic_stringIcNS5_11char_traitsIcEENS5_9allocatorIcEEEESD_NS_12OnceCallbackIFvbNS5_10unique_ptrINS5_3mapISB_SB_NS5_4lessISB_EENS9_INS5_4pairISC_SB_EEEEEENS5_14default_deleteISM_EEEEEEEEJ13scoped_refptrIS4_ESB_SB_SR_EEEFvvEE7RunOnceEPNS0_13BindStateBaseE to void ()*), void (%"class.base::internal::BindStateBase"*)* nonnull @_ZN4base8internal9BindStateIMN13leveldb_proto21ProtoDatabaseSelectorEFvRKNSt3__112basic_stringIcNS4_11char_traitsIcEENS4_9allocatorIcEEEESC_NS_12OnceCallbackIFvbNS4_10unique_ptrINS4_3mapISA_SA_NS4_4lessISA_EENS8_INS4_4pairISB_SA_EEEEEENS4_14default_deleteISL_EEEEEEEEJ13scoped_refptrIS3_ESA_SA_SQ_EE7DestroyEPKNS0_13BindStateBaseE) #9
  %33 = getelementptr inbounds i8, i8* %31, i64 32
  %34 = bitcast i8* %33 to <2 x i64>*
  store <2 x i64> <i64 ptrtoint (void (%"class.leveldb_proto::ProtoDatabaseSelector"*, %"class.std::__1::basic_string"*, %"class.std::__1::basic_string"*, %"class.base::OnceCallback.428"*)* @_ZN13leveldb_proto21ProtoDatabaseSelector25LoadKeysAndEntriesInRangeERKNSt3__112basic_stringIcNS1_11char_traitsIcEENS1_9allocatorIcEEEES9_N4base12OnceCallbackIFvbNS1_10unique_ptrINS1_3mapIS7_S7_NS1_4lessIS7_EENS5_INS1_4pairIS8_S7_EEEEEENS1_14default_deleteISJ_EEEEEEE to i64), i64 0>, <2 x i64>* %34, align 8
  %35 = getelementptr inbounds %"class.leveldb_proto::ProtoDatabaseImpl", %"class.leveldb_proto::ProtoDatabaseImpl"* %0, i64 0, i32 2, i32 0
  %36 = load %"class.leveldb_proto::ProtoDatabaseSelector"*, %"class.leveldb_proto::ProtoDatabaseSelector"** %35, align 8
  %37 = getelementptr inbounds i8, i8* %31, i64 48
  %38 = bitcast i8* %37 to %"class.leveldb_proto::ProtoDatabaseSelector"**
  store %"class.leveldb_proto::ProtoDatabaseSelector"* %36, %"class.leveldb_proto::ProtoDatabaseSelector"** %38, align 8
  %39 = icmp eq %"class.leveldb_proto::ProtoDatabaseSelector"* %36, null
  br i1 %39, label %43, label %40

40:                                               ; preds = %24
  %41 = getelementptr inbounds %"class.leveldb_proto::ProtoDatabaseSelector", %"class.leveldb_proto::ProtoDatabaseSelector"* %36, i64 0, i32 0, i32 0, i32 0, i32 0, i32 0, i32 0, i32 0, i32 0, i32 0
  %42 = atomicrmw add i32* %41, i32 1 monotonic
  br label %43

43:                                               ; preds = %40, %24
  %44 = getelementptr inbounds i8, i8* %31, i64 56
  %45 = bitcast %"class.std::__1::basic_string"* %1 to %"struct.std::__1::basic_string<char, std::__1::char_traits<char>, std::__1::allocator<char> >::__short"*
  %46 = getelementptr inbounds %"struct.std::__1::basic_string<char, std::__1::char_traits<char>, std::__1::allocator<char> >::__short", %"struct.std::__1::basic_string<char, std::__1::char_traits<char>, std::__1::allocator<char> >::__short"* %45, i64 0, i32 1, i32 0
  %47 = load i8, i8* %46, align 1
  %48 = icmp slt i8 %47, 0
  br i1 %48, label %51, label %49

49:                                               ; preds = %43
  %50 = bitcast %"class.std::__1::basic_string"* %1 to i8*
  tail call void @llvm.memcpy.p0i8.p0i8.i64(i8* align 8 %44, i8* align 8 %50, i64 24, i1 false) #9
  br label %57

51:                                               ; preds = %43
  %52 = bitcast i8* %44 to %"class.std::__1::basic_string"*
  %53 = getelementptr inbounds %"class.std::__1::basic_string", %"class.std::__1::basic_string"* %1, i64 0, i32 0, i32 0, i32 0, i32 0, i32 0, i32 0
  %54 = load i8*, i8** %53, align 8
  %55 = getelementptr inbounds %"class.std::__1::basic_string", %"class.std::__1::basic_string"* %1, i64 0, i32 0, i32 0, i32 0, i32 0, i32 0, i32 1
  %56 = load i64, i64* %55, align 8
  tail call void @_ZNSt3__112basic_stringIcNS_11char_traitsIcEENS_9allocatorIcEEE25__init_copy_ctor_externalEPKcm(%"class.std::__1::basic_string"* %52, i8* %54, i64 %56) #9
  br label %57

57:                                               ; preds = %51, %49
  %58 = getelementptr inbounds i8, i8* %31, i64 80
  %59 = bitcast %"class.std::__1::basic_string"* %2 to %"struct.std::__1::basic_string<char, std::__1::char_traits<char>, std::__1::allocator<char> >::__short"*
  %60 = getelementptr inbounds %"struct.std::__1::basic_string<char, std::__1::char_traits<char>, std::__1::allocator<char> >::__short", %"struct.std::__1::basic_string<char, std::__1::char_traits<char>, std::__1::allocator<char> >::__short"* %59, i64 0, i32 1, i32 0
  %61 = load i8, i8* %60, align 1
  %62 = icmp slt i8 %61, 0
  br i1 %62, label %65, label %63

63:                                               ; preds = %57
  %64 = bitcast %"class.std::__1::basic_string"* %2 to i8*
  tail call void @llvm.memcpy.p0i8.p0i8.i64(i8* align 8 %58, i8* align 8 %64, i64 24, i1 false) #9
  br label %71

65:                                               ; preds = %57
  %66 = bitcast i8* %58 to %"class.std::__1::basic_string"*
  %67 = getelementptr inbounds %"class.std::__1::basic_string", %"class.std::__1::basic_string"* %2, i64 0, i32 0, i32 0, i32 0, i32 0, i32 0, i32 0
  %68 = load i8*, i8** %67, align 8
  %69 = getelementptr inbounds %"class.std::__1::basic_string", %"class.std::__1::basic_string"* %2, i64 0, i32 0, i32 0, i32 0, i32 0, i32 0, i32 1
  %70 = load i64, i64* %69, align 8
  tail call void @_ZNSt3__112basic_stringIcNS_11char_traitsIcEENS_9allocatorIcEEE25__init_copy_ctor_externalEPKcm(%"class.std::__1::basic_string"* %66, i8* %68, i64 %70) #9
  br label %71

71:                                               ; preds = %63, %65
  %72 = getelementptr inbounds i8, i8* %31, i64 104
  %73 = getelementptr inbounds %"class.base::OnceCallback.428", %"class.base::OnceCallback.428"* %6, i64 0, i32 0, i32 0, i32 0
  %74 = bitcast %"class.base::OnceCallback.428"* %6 to i64*
  %75 = load i64, i64* %74, align 8
  %76 = bitcast i8* %72 to i64*
  store i64 %75, i64* %76, align 8
  store %"class.base::internal::BindStateBase"* null, %"class.base::internal::BindStateBase"** %73, align 8
  %77 = getelementptr inbounds %"class.base::OnceCallback.428", %"class.base::OnceCallback.428"* %6, i64 0, i32 0
  call void @_ZN4base8internal12CallbackBaseD2Ev(%"class.base::internal::CallbackBase"* nonnull %77) #9
  call void @llvm.lifetime.end.p0i8(i64 8, i8* nonnull %10) #9
  %78 = ptrtoint i8* %31 to i64
  %79 = bitcast %"class.base::OnceCallback"* %7 to i64*
  store i64 %78, i64* %79, align 8
  store %"class.base::internal::BindStateBase"* null, %"class.base::internal::BindStateBase"** %9, align 8
  call void @_ZN13leveldb_proto17ProtoDatabaseImplIN13notifications5proto4IconENS1_9IconEntryEE15PostTransactionEN4base12OnceCallbackIFvvEEE(%"class.leveldb_proto::ProtoDatabaseImpl"* %0, %"class.base::OnceCallback"* nonnull %7)
  %80 = getelementptr inbounds %"class.base::OnceCallback", %"class.base::OnceCallback"* %7, i64 0, i32 0
  call void @_ZN4base8internal12CallbackBaseD2Ev(%"class.base::internal::CallbackBase"* nonnull %80) #9
  %81 = getelementptr inbounds %"class.base::OnceCallback", %"class.base::OnceCallback"* %5, i64 0, i32 0
  call void @_ZN4base8internal12CallbackBaseD2Ev(%"class.base::internal::CallbackBase"* nonnull %81) #9
  call void @llvm.lifetime.end.p0i8(i64 8, i8* nonnull %8) #9
  ret void
}

; Function Attrs: nounwind ssp uwtable
define linkonce_odr hidden void @_ZN13leveldb_proto17ProtoDatabaseImplIN13notifications5proto4IconENS1_9IconEntryEE8LoadKeysEN4base12OnceCallbackIFvbNSt3__110unique_ptrINS8_6vectorINS8_12basic_stringIcNS8_11char_traitsIcEENS8_9allocatorIcEEEENSE_ISG_EEEENS8_14default_deleteISI_EEEEEEE(%"class.leveldb_proto::ProtoDatabaseImpl"*, %"class.base::OnceCallback.327"*) unnamed_addr #0 comdat align 2 {
  %3 = alloca %"class.base::OnceCallback", align 8
  %4 = alloca %"class.base::OnceCallback.327", align 8
  %5 = alloca %"class.base::OnceCallback", align 8
  %6 = bitcast %"class.base::OnceCallback"* %3 to i8*
  call void @llvm.lifetime.start.p0i8(i64 8, i8* nonnull %6) #9
  %7 = getelementptr inbounds %"class.base::OnceCallback", %"class.base::OnceCallback"* %3, i64 0, i32 0, i32 0, i32 0
  store %"class.base::internal::BindStateBase"* inttoptr (i64 -6148914691236517206 to %"class.base::internal::BindStateBase"*), %"class.base::internal::BindStateBase"** %7, align 8
  %8 = bitcast %"class.base::OnceCallback.327"* %4 to i8*
  call void @llvm.lifetime.start.p0i8(i64 8, i8* nonnull %8) #9
  %9 = tail call dereferenceable(8) %class.scoped_refptr.31* @_ZN4base25SequencedTaskRunnerHandle3GetEv() #9
  %10 = tail call i8* @_Znwm(i64 56) #10, !noalias !67
  %11 = bitcast i8* %10 to %"class.base::internal::BindStateBase"*
  tail call void @_ZN4base8internal13BindStateBaseC2EPFvvEPFvPKS1_E(%"class.base::internal::BindStateBase"* nonnull %11, void ()* bitcast (void (%"class.base::internal::BindStateBase"*, i1, %"class.std::__1::unique_ptr.310"*)* @_ZN4base8internal7InvokerINS0_9BindStateIPFv13scoped_refptrINS_19SequencedTaskRunnerEENS_12OnceCallbackIFvbNSt3__110unique_ptrINS7_6vectorINS7_12basic_stringIcNS7_11char_traitsIcEENS7_9allocatorIcEEEENSD_ISF_EEEENS7_14default_deleteISH_EEEEEEEbSK_EJS5_SM_EEESL_E7RunOnceEPNS0_13BindStateBaseEbOSK_ to void ()*), void (%"class.base::internal::BindStateBase"*)* nonnull @_ZN4base8internal9BindStateIPFv13scoped_refptrINS_19SequencedTaskRunnerEENS_12OnceCallbackIFvbNSt3__110unique_ptrINS6_6vectorINS6_12basic_stringIcNS6_11char_traitsIcEENS6_9allocatorIcEEEENSC_ISE_EEEENS6_14default_deleteISG_EEEEEEEbSJ_EJS4_SL_EE7DestroyEPKNS0_13BindStateBaseE) #9, !noalias !67
  %12 = getelementptr inbounds i8, i8* %10, i64 32
  %13 = bitcast i8* %12 to i64*
  store i64 ptrtoint (void (%"class.base::SequencedTaskRunner"*, %"class.base::OnceCallback.327"*, i1, %"class.std::__1::vector.313"*)* @_ZN13leveldb_proto19RunLoadKeysCallbackE13scoped_refptrIN4base19SequencedTaskRunnerEENS1_12OnceCallbackIFvbNSt3__110unique_ptrINS5_6vectorINS5_12basic_stringIcNS5_11char_traitsIcEENS5_9allocatorIcEEEENSB_ISD_EEEENS5_14default_deleteISF_EEEEEEEbSI_ to i64), i64* %13, align 8, !noalias !67
  %14 = getelementptr inbounds %class.scoped_refptr.31, %class.scoped_refptr.31* %9, i64 0, i32 0
  %15 = load %"class.base::SequencedTaskRunner"*, %"class.base::SequencedTaskRunner"** %14, align 8, !noalias !67
  %16 = getelementptr inbounds i8, i8* %10, i64 40
  %17 = bitcast i8* %16 to %"class.base::SequencedTaskRunner"**
  store %"class.base::SequencedTaskRunner"* %15, %"class.base::SequencedTaskRunner"** %17, align 8, !noalias !67
  %18 = icmp eq %"class.base::SequencedTaskRunner"* %15, null
  br i1 %18, label %22, label %19

19:                                               ; preds = %2
  %20 = getelementptr inbounds %"class.base::SequencedTaskRunner", %"class.base::SequencedTaskRunner"* %15, i64 0, i32 0, i32 1, i32 0, i32 0, i32 0, i32 0, i32 0, i32 0, i32 0, i32 0
  %21 = atomicrmw add i32* %20, i32 1 monotonic, !noalias !67
  br label %22

22:                                               ; preds = %2, %19
  %23 = getelementptr inbounds i8, i8* %10, i64 48
  %24 = getelementptr inbounds %"class.base::OnceCallback.327", %"class.base::OnceCallback.327"* %1, i64 0, i32 0, i32 0, i32 0
  %25 = bitcast %"class.base::OnceCallback.327"* %1 to i64*
  %26 = load i64, i64* %25, align 8, !noalias !67
  %27 = bitcast i8* %23 to i64*
  store i64 %26, i64* %27, align 8, !noalias !67
  store %"class.base::internal::BindStateBase"* null, %"class.base::internal::BindStateBase"** %24, align 8, !noalias !67
  %28 = bitcast %"class.base::OnceCallback.327"* %4 to i8**
  store i8* %10, i8** %28, align 8, !alias.scope !67
  %29 = tail call i8* @_Znwm(i64 64) #10, !noalias !72
  %30 = bitcast i8* %29 to %"class.base::internal::BindStateBase"*
  tail call void @_ZN4base8internal13BindStateBaseC2EPFvvEPFvPKS1_E(%"class.base::internal::BindStateBase"* nonnull %30, void ()* bitcast (void (%"class.base::internal::BindStateBase"*)* @_ZN4base8internal7InvokerINS0_9BindStateIMN13leveldb_proto21ProtoDatabaseSelectorEFvNS_12OnceCallbackIFvbNSt3__110unique_ptrINS6_6vectorINS6_12basic_stringIcNS6_11char_traitsIcEENS6_9allocatorIcEEEENSC_ISE_EEEENS6_14default_deleteISG_EEEEEEEEJ13scoped_refptrIS4_ESL_EEEFvvEE7RunOnceEPNS0_13BindStateBaseE to void ()*), void (%"class.base::internal::BindStateBase"*)* nonnull @_ZN4base8internal9BindStateIMN13leveldb_proto21ProtoDatabaseSelectorEFvNS_12OnceCallbackIFvbNSt3__110unique_ptrINS5_6vectorINS5_12basic_stringIcNS5_11char_traitsIcEENS5_9allocatorIcEEEENSB_ISD_EEEENS5_14default_deleteISF_EEEEEEEEJ13scoped_refptrIS3_ESK_EE7DestroyEPKNS0_13BindStateBaseE) #9, !noalias !72
  %31 = getelementptr inbounds i8, i8* %29, i64 32
  %32 = bitcast i8* %31 to <2 x i64>*
  store <2 x i64> <i64 ptrtoint (void (%"class.leveldb_proto::ProtoDatabaseSelector"*, %"class.base::OnceCallback.327"*)* @_ZN13leveldb_proto21ProtoDatabaseSelector8LoadKeysEN4base12OnceCallbackIFvbNSt3__110unique_ptrINS3_6vectorINS3_12basic_stringIcNS3_11char_traitsIcEENS3_9allocatorIcEEEENS9_ISB_EEEENS3_14default_deleteISD_EEEEEEE to i64), i64 0>, <2 x i64>* %32, align 8, !noalias !72
  %33 = getelementptr inbounds %"class.leveldb_proto::ProtoDatabaseImpl", %"class.leveldb_proto::ProtoDatabaseImpl"* %0, i64 0, i32 2, i32 0
  %34 = load %"class.leveldb_proto::ProtoDatabaseSelector"*, %"class.leveldb_proto::ProtoDatabaseSelector"** %33, align 8, !noalias !72
  %35 = getelementptr inbounds i8, i8* %29, i64 48
  %36 = bitcast i8* %35 to %"class.leveldb_proto::ProtoDatabaseSelector"**
  store %"class.leveldb_proto::ProtoDatabaseSelector"* %34, %"class.leveldb_proto::ProtoDatabaseSelector"** %36, align 8, !noalias !72
  %37 = icmp eq %"class.leveldb_proto::ProtoDatabaseSelector"* %34, null
  br i1 %37, label %38, label %40

38:                                               ; preds = %22
  %39 = ptrtoint i8* %10 to i64
  br label %45

40:                                               ; preds = %22
  %41 = getelementptr inbounds %"class.leveldb_proto::ProtoDatabaseSelector", %"class.leveldb_proto::ProtoDatabaseSelector"* %34, i64 0, i32 0, i32 0, i32 0, i32 0, i32 0, i32 0, i32 0, i32 0, i32 0
  %42 = atomicrmw add i32* %41, i32 1 monotonic, !noalias !72
  %43 = bitcast %"class.base::OnceCallback.327"* %4 to i64*
  %44 = load i64, i64* %43, align 8, !noalias !72
  br label %45

45:                                               ; preds = %38, %40
  %46 = phi i64 [ %39, %38 ], [ %44, %40 ]
  %47 = getelementptr inbounds i8, i8* %29, i64 56
  %48 = getelementptr inbounds %"class.base::OnceCallback.327", %"class.base::OnceCallback.327"* %4, i64 0, i32 0, i32 0, i32 0
  %49 = bitcast i8* %47 to i64*
  store i64 %46, i64* %49, align 8, !noalias !72
  store %"class.base::internal::BindStateBase"* null, %"class.base::internal::BindStateBase"** %48, align 8, !noalias !72
  %50 = getelementptr inbounds %"class.base::OnceCallback.327", %"class.base::OnceCallback.327"* %4, i64 0, i32 0
  call void @_ZN4base8internal12CallbackBaseD2Ev(%"class.base::internal::CallbackBase"* nonnull %50) #9
  call void @llvm.lifetime.end.p0i8(i64 8, i8* nonnull %8) #9
  %51 = ptrtoint i8* %29 to i64
  %52 = bitcast %"class.base::OnceCallback"* %5 to i64*
  store i64 %51, i64* %52, align 8
  store %"class.base::internal::BindStateBase"* null, %"class.base::internal::BindStateBase"** %7, align 8
  call void @_ZN13leveldb_proto17ProtoDatabaseImplIN13notifications5proto4IconENS1_9IconEntryEE15PostTransactionEN4base12OnceCallbackIFvvEEE(%"class.leveldb_proto::ProtoDatabaseImpl"* %0, %"class.base::OnceCallback"* nonnull %5)
  %53 = getelementptr inbounds %"class.base::OnceCallback", %"class.base::OnceCallback"* %5, i64 0, i32 0
  call void @_ZN4base8internal12CallbackBaseD2Ev(%"class.base::internal::CallbackBase"* nonnull %53) #9
  %54 = getelementptr inbounds %"class.base::OnceCallback", %"class.base::OnceCallback"* %3, i64 0, i32 0
  call void @_ZN4base8internal12CallbackBaseD2Ev(%"class.base::internal::CallbackBase"* nonnull %54) #9
  call void @llvm.lifetime.end.p0i8(i64 8, i8* nonnull %6) #9
  ret void
}

; Function Attrs: nounwind ssp uwtable
define linkonce_odr hidden void @_ZN13leveldb_proto17ProtoDatabaseImplIN13notifications5proto4IconENS1_9IconEntryEE8GetEntryERKNSt3__112basic_stringIcNS6_11char_traitsIcEENS6_9allocatorIcEEEEN4base12OnceCallbackIFvbNS6_10unique_ptrIS4_NS6_14default_deleteIS4_EEEEEEE(%"class.leveldb_proto::ProtoDatabaseImpl"*, %"class.std::__1::basic_string"* dereferenceable(24), %"class.base::OnceCallback.328"*) unnamed_addr #0 comdat align 2 {
  %4 = alloca %"class.base::OnceCallback", align 8
  %5 = alloca %"class.base::OnceCallback.504", align 8
  %6 = alloca %"class.base::OnceCallback", align 8
  %7 = bitcast %"class.base::OnceCallback"* %4 to i8*
  call void @llvm.lifetime.start.p0i8(i64 8, i8* nonnull %7) #9
  %8 = getelementptr inbounds %"class.base::OnceCallback", %"class.base::OnceCallback"* %4, i64 0, i32 0, i32 0, i32 0
  store %"class.base::internal::BindStateBase"* inttoptr (i64 -6148914691236517206 to %"class.base::internal::BindStateBase"*), %"class.base::internal::BindStateBase"** %8, align 8
  %9 = bitcast %"class.base::OnceCallback.504"* %5 to i8*
  call void @llvm.lifetime.start.p0i8(i64 8, i8* nonnull %9) #9
  %10 = tail call dereferenceable(8) %class.scoped_refptr.31* @_ZN4base25SequencedTaskRunnerHandle3GetEv() #9
  %11 = tail call i8* @_Znwm(i64 56) #10, !noalias !77
  %12 = bitcast i8* %11 to %"class.base::internal::BindStateBase"*
  tail call void @_ZN4base8internal13BindStateBaseC2EPFvvEPFvPKS1_E(%"class.base::internal::BindStateBase"* nonnull %12, void ()* bitcast (void (%"class.base::internal::BindStateBase"*, i1, %"class.std::__1::unique_ptr.505"*)* @_ZN4base8internal7InvokerINS0_9BindStateIPFv13scoped_refptrINS_19SequencedTaskRunnerEENS_12OnceCallbackIFvbNSt3__110unique_ptrIN13notifications9IconEntryENS7_14default_deleteISA_EEEEEEEbNS8_INS7_12basic_stringIcNS7_11char_traitsIcEENS7_9allocatorIcEEEENSB_ISL_EEEEEJS5_SF_EEEFvbSN_EE7RunOnceEPNS0_13BindStateBaseEbOSN_ to void ()*), void (%"class.base::internal::BindStateBase"*)* nonnull @_ZN4base8internal9BindStateIPFv13scoped_refptrINS_19SequencedTaskRunnerEENS_12OnceCallbackIFvbNSt3__110unique_ptrIN13notifications9IconEntryENS6_14default_deleteIS9_EEEEEEEbNS7_INS6_12basic_stringIcNS6_11char_traitsIcEENS6_9allocatorIcEEEENSA_ISK_EEEEEJS4_SE_EE7DestroyEPKNS0_13BindStateBaseE) #9, !noalias !77
  %13 = getelementptr inbounds i8, i8* %11, i64 32
  %14 = bitcast i8* %13 to i64*
  store i64 ptrtoint (void (%"class.base::SequencedTaskRunner"*, %"class.base::OnceCallback.328"*, i1, %"class.std::__1::basic_string"*)* @_ZN13leveldb_proto12_GLOBAL__N_116ParseLoadedEntryIN13notifications5proto4IconENS2_9IconEntryEEEv13scoped_refptrIN4base19SequencedTaskRunnerEENS_9Callbacks8InternalIT0_E11GetCallbackEbNSt3__110unique_ptrINSF_12basic_stringIcNSF_11char_traitsIcEENSF_9allocatorIcEEEENSF_14default_deleteISM_EEEE to i64), i64* %14, align 8, !noalias !77
  %15 = getelementptr inbounds %class.scoped_refptr.31, %class.scoped_refptr.31* %10, i64 0, i32 0
  %16 = load %"class.base::SequencedTaskRunner"*, %"class.base::SequencedTaskRunner"** %15, align 8, !noalias !77
  %17 = getelementptr inbounds i8, i8* %11, i64 40
  %18 = bitcast i8* %17 to %"class.base::SequencedTaskRunner"**
  store %"class.base::SequencedTaskRunner"* %16, %"class.base::SequencedTaskRunner"** %18, align 8, !noalias !77
  %19 = icmp eq %"class.base::SequencedTaskRunner"* %16, null
  br i1 %19, label %23, label %20

20:                                               ; preds = %3
  %21 = getelementptr inbounds %"class.base::SequencedTaskRunner", %"class.base::SequencedTaskRunner"* %16, i64 0, i32 0, i32 1, i32 0, i32 0, i32 0, i32 0, i32 0, i32 0, i32 0, i32 0
  %22 = atomicrmw add i32* %21, i32 1 monotonic, !noalias !77
  br label %23

23:                                               ; preds = %3, %20
  %24 = getelementptr inbounds i8, i8* %11, i64 48
  %25 = getelementptr inbounds %"class.base::OnceCallback.328", %"class.base::OnceCallback.328"* %2, i64 0, i32 0, i32 0, i32 0
  %26 = bitcast %"class.base::OnceCallback.328"* %2 to i64*
  %27 = load i64, i64* %26, align 8, !noalias !77
  %28 = bitcast i8* %24 to i64*
  store i64 %27, i64* %28, align 8, !noalias !77
  store %"class.base::internal::BindStateBase"* null, %"class.base::internal::BindStateBase"** %25, align 8, !noalias !77
  %29 = bitcast %"class.base::OnceCallback.504"* %5 to i8**
  store i8* %11, i8** %29, align 8, !alias.scope !77
  %30 = tail call i8* @_Znwm(i64 88) #10, !noalias !82
  %31 = bitcast i8* %30 to %"class.base::internal::BindStateBase"*
  tail call void @_ZN4base8internal13BindStateBaseC2EPFvvEPFvPKS1_E(%"class.base::internal::BindStateBase"* nonnull %31, void ()* bitcast (void (%"class.base::internal::BindStateBase"*)* @_ZN4base8internal7InvokerINS0_9BindStateIMN13leveldb_proto21ProtoDatabaseSelectorEFvRKNSt3__112basic_stringIcNS5_11char_traitsIcEENS5_9allocatorIcEEEENS_12OnceCallbackIFvbNS5_10unique_ptrISB_NS5_14default_deleteISB_EEEEEEEEJ13scoped_refptrIS4_ESB_SK_EEEFvvEE7RunOnceEPNS0_13BindStateBaseE to void ()*), void (%"class.base::internal::BindStateBase"*)* nonnull @_ZN4base8internal9BindStateIMN13leveldb_proto21ProtoDatabaseSelectorEFvRKNSt3__112basic_stringIcNS4_11char_traitsIcEENS4_9allocatorIcEEEENS_12OnceCallbackIFvbNS4_10unique_ptrISA_NS4_14default_deleteISA_EEEEEEEEJ13scoped_refptrIS3_ESA_SJ_EE7DestroyEPKNS0_13BindStateBaseE) #9, !noalias !82
  %32 = getelementptr inbounds i8, i8* %30, i64 32
  %33 = bitcast i8* %32 to <2 x i64>*
  store <2 x i64> <i64 ptrtoint (void (%"class.leveldb_proto::ProtoDatabaseSelector"*, %"class.std::__1::basic_string"*, %"class.base::OnceCallback.504"*)* @_ZN13leveldb_proto21ProtoDatabaseSelector8GetEntryERKNSt3__112basic_stringIcNS1_11char_traitsIcEENS1_9allocatorIcEEEEN4base12OnceCallbackIFvbNS1_10unique_ptrIS7_NS1_14default_deleteIS7_EEEEEEE to i64), i64 0>, <2 x i64>* %33, align 8, !noalias !82
  %34 = getelementptr inbounds %"class.leveldb_proto::ProtoDatabaseImpl", %"class.leveldb_proto::ProtoDatabaseImpl"* %0, i64 0, i32 2, i32 0
  %35 = load %"class.leveldb_proto::ProtoDatabaseSelector"*, %"class.leveldb_proto::ProtoDatabaseSelector"** %34, align 8, !noalias !82
  %36 = getelementptr inbounds i8, i8* %30, i64 48
  %37 = bitcast i8* %36 to %"class.leveldb_proto::ProtoDatabaseSelector"**
  store %"class.leveldb_proto::ProtoDatabaseSelector"* %35, %"class.leveldb_proto::ProtoDatabaseSelector"** %37, align 8, !noalias !82
  %38 = icmp eq %"class.leveldb_proto::ProtoDatabaseSelector"* %35, null
  br i1 %38, label %42, label %39

39:                                               ; preds = %23
  %40 = getelementptr inbounds %"class.leveldb_proto::ProtoDatabaseSelector", %"class.leveldb_proto::ProtoDatabaseSelector"* %35, i64 0, i32 0, i32 0, i32 0, i32 0, i32 0, i32 0, i32 0, i32 0, i32 0
  %41 = atomicrmw add i32* %40, i32 1 monotonic, !noalias !82
  br label %42

42:                                               ; preds = %39, %23
  %43 = getelementptr inbounds i8, i8* %30, i64 56
  %44 = bitcast %"class.std::__1::basic_string"* %1 to %"struct.std::__1::basic_string<char, std::__1::char_traits<char>, std::__1::allocator<char> >::__short"*
  %45 = getelementptr inbounds %"struct.std::__1::basic_string<char, std::__1::char_traits<char>, std::__1::allocator<char> >::__short", %"struct.std::__1::basic_string<char, std::__1::char_traits<char>, std::__1::allocator<char> >::__short"* %44, i64 0, i32 1, i32 0
  %46 = load i8, i8* %45, align 1, !noalias !82
  %47 = icmp slt i8 %46, 0
  br i1 %47, label %50, label %48

48:                                               ; preds = %42
  %49 = bitcast %"class.std::__1::basic_string"* %1 to i8*
  tail call void @llvm.memcpy.p0i8.p0i8.i64(i8* align 8 %43, i8* align 8 %49, i64 24, i1 false) #9, !noalias !82
  br label %56

50:                                               ; preds = %42
  %51 = bitcast i8* %43 to %"class.std::__1::basic_string"*
  %52 = getelementptr inbounds %"class.std::__1::basic_string", %"class.std::__1::basic_string"* %1, i64 0, i32 0, i32 0, i32 0, i32 0, i32 0, i32 0
  %53 = load i8*, i8** %52, align 8, !noalias !82
  %54 = getelementptr inbounds %"class.std::__1::basic_string", %"class.std::__1::basic_string"* %1, i64 0, i32 0, i32 0, i32 0, i32 0, i32 0, i32 1
  %55 = load i64, i64* %54, align 8, !noalias !82
  tail call void @_ZNSt3__112basic_stringIcNS_11char_traitsIcEENS_9allocatorIcEEE25__init_copy_ctor_externalEPKcm(%"class.std::__1::basic_string"* %51, i8* %53, i64 %55) #9, !noalias !82
  br label %56

56:                                               ; preds = %48, %50
  %57 = getelementptr inbounds i8, i8* %30, i64 80
  %58 = getelementptr inbounds %"class.base::OnceCallback.504", %"class.base::OnceCallback.504"* %5, i64 0, i32 0, i32 0, i32 0
  %59 = bitcast %"class.base::OnceCallback.504"* %5 to i64*
  %60 = load i64, i64* %59, align 8, !noalias !82
  %61 = bitcast i8* %57 to i64*
  store i64 %60, i64* %61, align 8, !noalias !82
  store %"class.base::internal::BindStateBase"* null, %"class.base::internal::BindStateBase"** %58, align 8, !noalias !82
  %62 = getelementptr inbounds %"class.base::OnceCallback.504", %"class.base::OnceCallback.504"* %5, i64 0, i32 0
  call void @_ZN4base8internal12CallbackBaseD2Ev(%"class.base::internal::CallbackBase"* nonnull %62) #9
  call void @llvm.lifetime.end.p0i8(i64 8, i8* nonnull %9) #9
  %63 = ptrtoint i8* %30 to i64
  %64 = bitcast %"class.base::OnceCallback"* %6 to i64*
  store i64 %63, i64* %64, align 8
  store %"class.base::internal::BindStateBase"* null, %"class.base::internal::BindStateBase"** %8, align 8
  call void @_ZN13leveldb_proto17ProtoDatabaseImplIN13notifications5proto4IconENS1_9IconEntryEE15PostTransactionEN4base12OnceCallbackIFvvEEE(%"class.leveldb_proto::ProtoDatabaseImpl"* %0, %"class.base::OnceCallback"* nonnull %6)
  %65 = getelementptr inbounds %"class.base::OnceCallback", %"class.base::OnceCallback"* %6, i64 0, i32 0
  call void @_ZN4base8internal12CallbackBaseD2Ev(%"class.base::internal::CallbackBase"* nonnull %65) #9
  %66 = getelementptr inbounds %"class.base::OnceCallback", %"class.base::OnceCallback"* %4, i64 0, i32 0
  call void @_ZN4base8internal12CallbackBaseD2Ev(%"class.base::internal::CallbackBase"* nonnull %66) #9
  call void @llvm.lifetime.end.p0i8(i64 8, i8* nonnull %7) #9
  ret void
}

; Function Attrs: nounwind ssp uwtable
define linkonce_odr hidden void @_ZN13leveldb_proto17ProtoDatabaseImplIN13notifications5proto4IconENS1_9IconEntryEE7DestroyEN4base12OnceCallbackIFvbEEE(%"class.leveldb_proto::ProtoDatabaseImpl"*, %"class.base::OnceCallback.323"*) unnamed_addr #0 comdat align 2 {
  %3 = alloca %"class.base::OnceCallback", align 8
  %4 = alloca %"class.base::OnceCallback.323", align 8
  %5 = alloca %"class.base::OnceCallback", align 8
  %6 = bitcast %"class.base::OnceCallback"* %3 to i8*
  call void @llvm.lifetime.start.p0i8(i64 8, i8* nonnull %6) #9
  %7 = getelementptr inbounds %"class.base::OnceCallback", %"class.base::OnceCallback"* %3, i64 0, i32 0, i32 0, i32 0
  store %"class.base::internal::BindStateBase"* inttoptr (i64 -6148914691236517206 to %"class.base::internal::BindStateBase"*), %"class.base::internal::BindStateBase"** %7, align 8
  %8 = bitcast %"class.base::OnceCallback.323"* %4 to i8*
  call void @llvm.lifetime.start.p0i8(i64 8, i8* nonnull %8) #9
  %9 = tail call dereferenceable(8) %class.scoped_refptr.31* @_ZN4base25SequencedTaskRunnerHandle3GetEv() #9
  %10 = tail call i8* @_Znwm(i64 56) #10, !noalias !87
  %11 = bitcast i8* %10 to %"class.base::internal::BindStateBase"*
  tail call void @_ZN4base8internal13BindStateBaseC2EPFvvEPFvPKS1_E(%"class.base::internal::BindStateBase"* nonnull %11, void ()* bitcast (void (%"class.base::internal::BindStateBase"*, i1)* @_ZN4base8internal7InvokerINS0_9BindStateIPFv13scoped_refptrINS_19SequencedTaskRunnerEENS_12OnceCallbackIFvbEEEbEJS5_S8_EEES7_E7RunOnceEPNS0_13BindStateBaseEb to void ()*), void (%"class.base::internal::BindStateBase"*)* nonnull @_ZN4base8internal9BindStateIPFv13scoped_refptrINS_19SequencedTaskRunnerEENS_12OnceCallbackIFvbEEEbEJS4_S7_EE7DestroyEPKNS0_13BindStateBaseE) #9, !noalias !87
  %12 = getelementptr inbounds i8, i8* %10, i64 32
  %13 = bitcast i8* %12 to i64*
  store i64 ptrtoint (void (%"class.base::SequencedTaskRunner"*, %"class.base::OnceCallback.323"*, i1)* @_ZN13leveldb_proto18RunDestroyCallbackE13scoped_refptrIN4base19SequencedTaskRunnerEENS1_12OnceCallbackIFvbEEEb to i64), i64* %13, align 8, !noalias !87
  %14 = getelementptr inbounds %class.scoped_refptr.31, %class.scoped_refptr.31* %9, i64 0, i32 0
  %15 = load %"class.base::SequencedTaskRunner"*, %"class.base::SequencedTaskRunner"** %14, align 8, !noalias !87
  %16 = getelementptr inbounds i8, i8* %10, i64 40
  %17 = bitcast i8* %16 to %"class.base::SequencedTaskRunner"**
  store %"class.base::SequencedTaskRunner"* %15, %"class.base::SequencedTaskRunner"** %17, align 8, !noalias !87
  %18 = icmp eq %"class.base::SequencedTaskRunner"* %15, null
  br i1 %18, label %22, label %19

19:                                               ; preds = %2
  %20 = getelementptr inbounds %"class.base::SequencedTaskRunner", %"class.base::SequencedTaskRunner"* %15, i64 0, i32 0, i32 1, i32 0, i32 0, i32 0, i32 0, i32 0, i32 0, i32 0, i32 0
  %21 = atomicrmw add i32* %20, i32 1 monotonic, !noalias !87
  br label %22

22:                                               ; preds = %2, %19
  %23 = getelementptr inbounds i8, i8* %10, i64 48
  %24 = getelementptr inbounds %"class.base::OnceCallback.323", %"class.base::OnceCallback.323"* %1, i64 0, i32 0, i32 0, i32 0
  %25 = bitcast %"class.base::OnceCallback.323"* %1 to i64*
  %26 = load i64, i64* %25, align 8, !noalias !87
  %27 = bitcast i8* %23 to i64*
  store i64 %26, i64* %27, align 8, !noalias !87
  store %"class.base::internal::BindStateBase"* null, %"class.base::internal::BindStateBase"** %24, align 8, !noalias !87
  %28 = bitcast %"class.base::OnceCallback.323"* %4 to i8**
  store i8* %10, i8** %28, align 8, !alias.scope !87
  %29 = tail call i8* @_Znwm(i64 64) #10, !noalias !92
  %30 = bitcast i8* %29 to %"class.base::internal::BindStateBase"*
  tail call void @_ZN4base8internal13BindStateBaseC2EPFvvEPFvPKS1_E(%"class.base::internal::BindStateBase"* nonnull %30, void ()* bitcast (void (%"class.base::internal::BindStateBase"*)* @_ZN4base8internal7InvokerINS0_9BindStateIMN13leveldb_proto21ProtoDatabaseSelectorEFvNS_12OnceCallbackIFvbEEEEJ13scoped_refptrIS4_ES7_EEEFvvEE7RunOnceEPNS0_13BindStateBaseE to void ()*), void (%"class.base::internal::BindStateBase"*)* nonnull @_ZN4base8internal9BindStateIMN13leveldb_proto21ProtoDatabaseSelectorEFvNS_12OnceCallbackIFvbEEEEJ13scoped_refptrIS3_ES6_EE7DestroyEPKNS0_13BindStateBaseE) #9, !noalias !92
  %31 = getelementptr inbounds i8, i8* %29, i64 32
  %32 = bitcast i8* %31 to <2 x i64>*
  store <2 x i64> <i64 ptrtoint (void (%"class.leveldb_proto::ProtoDatabaseSelector"*, %"class.base::OnceCallback.323"*)* @_ZN13leveldb_proto21ProtoDatabaseSelector7DestroyEN4base12OnceCallbackIFvbEEE to i64), i64 0>, <2 x i64>* %32, align 8, !noalias !92
  %33 = getelementptr inbounds %"class.leveldb_proto::ProtoDatabaseImpl", %"class.leveldb_proto::ProtoDatabaseImpl"* %0, i64 0, i32 2, i32 0
  %34 = load %"class.leveldb_proto::ProtoDatabaseSelector"*, %"class.leveldb_proto::ProtoDatabaseSelector"** %33, align 8, !noalias !92
  %35 = getelementptr inbounds i8, i8* %29, i64 48
  %36 = bitcast i8* %35 to %"class.leveldb_proto::ProtoDatabaseSelector"**
  store %"class.leveldb_proto::ProtoDatabaseSelector"* %34, %"class.leveldb_proto::ProtoDatabaseSelector"** %36, align 8, !noalias !92
  %37 = icmp eq %"class.leveldb_proto::ProtoDatabaseSelector"* %34, null
  br i1 %37, label %38, label %40

38:                                               ; preds = %22
  %39 = ptrtoint i8* %10 to i64
  br label %45

40:                                               ; preds = %22
  %41 = getelementptr inbounds %"class.leveldb_proto::ProtoDatabaseSelector", %"class.leveldb_proto::ProtoDatabaseSelector"* %34, i64 0, i32 0, i32 0, i32 0, i32 0, i32 0, i32 0, i32 0, i32 0, i32 0
  %42 = atomicrmw add i32* %41, i32 1 monotonic, !noalias !92
  %43 = bitcast %"class.base::OnceCallback.323"* %4 to i64*
  %44 = load i64, i64* %43, align 8, !noalias !92
  br label %45

45:                                               ; preds = %38, %40
  %46 = phi i64 [ %39, %38 ], [ %44, %40 ]
  %47 = getelementptr inbounds i8, i8* %29, i64 56
  %48 = getelementptr inbounds %"class.base::OnceCallback.323", %"class.base::OnceCallback.323"* %4, i64 0, i32 0, i32 0, i32 0
  %49 = bitcast i8* %47 to i64*
  store i64 %46, i64* %49, align 8, !noalias !92
  store %"class.base::internal::BindStateBase"* null, %"class.base::internal::BindStateBase"** %48, align 8, !noalias !92
  %50 = getelementptr inbounds %"class.base::OnceCallback.323", %"class.base::OnceCallback.323"* %4, i64 0, i32 0
  call void @_ZN4base8internal12CallbackBaseD2Ev(%"class.base::internal::CallbackBase"* nonnull %50) #9
  call void @llvm.lifetime.end.p0i8(i64 8, i8* nonnull %8) #9
  %51 = ptrtoint i8* %29 to i64
  %52 = bitcast %"class.base::OnceCallback"* %5 to i64*
  store i64 %51, i64* %52, align 8
  store %"class.base::internal::BindStateBase"* null, %"class.base::internal::BindStateBase"** %7, align 8
  call void @_ZN13leveldb_proto17ProtoDatabaseImplIN13notifications5proto4IconENS1_9IconEntryEE15PostTransactionEN4base12OnceCallbackIFvvEEE(%"class.leveldb_proto::ProtoDatabaseImpl"* %0, %"class.base::OnceCallback"* nonnull %5)
  %53 = getelementptr inbounds %"class.base::OnceCallback", %"class.base::OnceCallback"* %5, i64 0, i32 0
  call void @_ZN4base8internal12CallbackBaseD2Ev(%"class.base::internal::CallbackBase"* nonnull %53) #9
  %54 = getelementptr inbounds %"class.base::OnceCallback", %"class.base::OnceCallback"* %3, i64 0, i32 0
  call void @_ZN4base8internal12CallbackBaseD2Ev(%"class.base::internal::CallbackBase"* nonnull %54) #9
  call void @llvm.lifetime.end.p0i8(i64 8, i8* nonnull %6) #9
  ret void
}

; Function Attrs: nounwind
declare void @_ZN13leveldb_proto21ProtoDatabaseSelectorD1Ev(%"class.leveldb_proto::ProtoDatabaseSelector"*) unnamed_addr #3

declare zeroext i1 @_ZN13leveldb_proto29SharedProtoDatabaseClientList17ShouldUseSharedDBENS_11ProtoDbTypeE(i32) local_unnamed_addr #1

declare void @_ZN13leveldb_proto29SharedProtoDatabaseClientList19ProtoDbTypeToStringENS_11ProtoDbTypeE(%"class.std::__1::basic_string"* sret, i32) local_unnamed_addr #1

declare void @_ZN13leveldb_proto19CreateSimpleOptionsEv(%"struct.leveldb_env::Options"* sret) local_unnamed_addr #1

declare zeroext i1 @_ZN4base10TaskRunner8PostTaskERKNS_8LocationENS_12OnceCallbackIFvvEEE(%"class.base::TaskRunner"*, %"class.base::Location"* dereferenceable(32), %"class.base::OnceCallback"*) local_unnamed_addr #1

declare void @_ZN4base8Location7CurrentEPKcS2_i(%"class.base::Location"* sret, i8*, i8*, i32) local_unnamed_addr #1

declare void @_ZN13leveldb_proto21ProtoDatabaseSelector18InitUniqueOrSharedERKNSt3__112basic_stringIcNS1_11char_traitsIcEENS1_9allocatorIcEEEEN4base8FilePathERKN11leveldb_env7OptionsEb13scoped_refptrINSA_19SequencedTaskRunnerEENSA_12OnceCallbackIFvNS_5Enums10InitStatusEEEE(%"class.leveldb_proto::ProtoDatabaseSelector"*, %"class.std::__1::basic_string"* dereferenceable(24), %"class.base::FilePath"*, %"struct.leveldb_env::Options"* dereferenceable(112), i1 zeroext, %"class.base::SequencedTaskRunner"*, %"class.base::OnceCallback.296"*) #1

declare dereferenceable(8) %class.scoped_refptr.31* @_ZN4base25SequencedTaskRunnerHandle3GetEv() local_unnamed_addr #1

; Function Attrs: nounwind ssp uwtable
define linkonce_odr hidden void @_ZN4base8internal7InvokerINS0_9BindStateIMN13leveldb_proto21ProtoDatabaseSelectorEFvRKNSt3__112basic_stringIcNS5_11char_traitsIcEENS5_9allocatorIcEEEENS_8FilePathERKN11leveldb_env7OptionsEb13scoped_refptrINS_19SequencedTaskRunnerEENS_12OnceCallbackIFvNS3_5Enums10InitStatusEEEEEJSJ_IS4_ESB_SE_SG_bSL_SQ_EEEFvvEE7RunOnceEPNS0_13BindStateBaseE(%"class.base::internal::BindStateBase"*) #0 comdat align 2 {
  %2 = alloca %"class.base::FilePath", align 8
  %3 = alloca %"class.base::OnceCallback.296", align 8
  %4 = getelementptr inbounds %"class.base::internal::BindStateBase", %"class.base::internal::BindStateBase"* %0, i64 1
  %5 = getelementptr inbounds %"class.base::internal::BindStateBase", %"class.base::internal::BindStateBase"* %0, i64 1, i32 2
  %6 = getelementptr inbounds void (%"class.base::internal::BindStateBase"*)*, void (%"class.base::internal::BindStateBase"*)** %5, i64 1
  %7 = bitcast void (%"class.base::internal::BindStateBase"*)** %6 to %"class.std::__1::basic_string"*
  %8 = getelementptr inbounds void (%"class.base::internal::BindStateBase"*)*, void (%"class.base::internal::BindStateBase"*)** %5, i64 4
  %9 = bitcast void (%"class.base::internal::BindStateBase"*)** %8 to %"class.base::FilePath"*
  %10 = getelementptr inbounds void (%"class.base::internal::BindStateBase"*)*, void (%"class.base::internal::BindStateBase"*)** %5, i64 7
  %11 = bitcast void (%"class.base::internal::BindStateBase"*)** %10 to %"struct.leveldb_env::Options"*
  %12 = getelementptr inbounds void (%"class.base::internal::BindStateBase"*)*, void (%"class.base::internal::BindStateBase"*)** %5, i64 21
  %13 = bitcast void (%"class.base::internal::BindStateBase"*)** %12 to i8*
  %14 = getelementptr inbounds void (%"class.base::internal::BindStateBase"*)*, void (%"class.base::internal::BindStateBase"*)** %5, i64 23
  %15 = bitcast %"class.base::internal::BindStateBase"* %4 to i64*
  %16 = load i64, i64* %15, align 8
  %17 = getelementptr inbounds %"class.base::internal::BindStateBase", %"class.base::internal::BindStateBase"* %0, i64 1, i32 1
  %18 = bitcast void ()** %17 to i64*
  %19 = load i64, i64* %18, align 8
  %20 = bitcast %"class.base::FilePath"* %2 to i8*
  call void @llvm.lifetime.start.p0i8(i64 24, i8* nonnull %20) #9
  %21 = bitcast %"class.base::OnceCallback.296"* %3 to i8*
  call void @llvm.lifetime.start.p0i8(i64 8, i8* nonnull %21) #9
  %22 = bitcast void (%"class.base::internal::BindStateBase"*)** %5 to i8**
  %23 = load i8*, i8** %22, align 8
  %24 = getelementptr inbounds i8, i8* %23, i64 %19
  %25 = bitcast i8* %24 to %"class.leveldb_proto::ProtoDatabaseSelector"*
  %26 = and i64 %16, 1
  %27 = icmp eq i64 %26, 0
  br i1 %27, label %35, label %28

28:                                               ; preds = %1
  %29 = bitcast i8* %24 to i8**
  %30 = load i8*, i8** %29, align 8
  %31 = add i64 %16, -1
  %32 = getelementptr i8, i8* %30, i64 %31
  %33 = bitcast i8* %32 to void (%"class.leveldb_proto::ProtoDatabaseSelector"*, %"class.std::__1::basic_string"*, %"class.base::FilePath"*, %"struct.leveldb_env::Options"*, i1, %"class.base::SequencedTaskRunner"*, %"class.base::OnceCallback.296"*)**
  %34 = load void (%"class.leveldb_proto::ProtoDatabaseSelector"*, %"class.std::__1::basic_string"*, %"class.base::FilePath"*, %"struct.leveldb_env::Options"*, i1, %"class.base::SequencedTaskRunner"*, %"class.base::OnceCallback.296"*)*, void (%"class.leveldb_proto::ProtoDatabaseSelector"*, %"class.std::__1::basic_string"*, %"class.base::FilePath"*, %"struct.leveldb_env::Options"*, i1, %"class.base::SequencedTaskRunner"*, %"class.base::OnceCallback.296"*)** %33, align 8
  br label %37

35:                                               ; preds = %1
  %36 = inttoptr i64 %16 to void (%"class.leveldb_proto::ProtoDatabaseSelector"*, %"class.std::__1::basic_string"*, %"class.base::FilePath"*, %"struct.leveldb_env::Options"*, i1, %"class.base::SequencedTaskRunner"*, %"class.base::OnceCallback.296"*)*
  br label %37

37:                                               ; preds = %28, %35
  %38 = phi void (%"class.leveldb_proto::ProtoDatabaseSelector"*, %"class.std::__1::basic_string"*, %"class.base::FilePath"*, %"struct.leveldb_env::Options"*, i1, %"class.base::SequencedTaskRunner"*, %"class.base::OnceCallback.296"*)* [ %34, %28 ], [ %36, %35 ]
  call void @_ZN4base8FilePathC1EOS0_(%"class.base::FilePath"* nonnull %2, %"class.base::FilePath"* dereferenceable(24) %9) #9
  %39 = load i8, i8* %13, align 1, !range !2
  %40 = icmp ne i8 %39, 0
  %41 = getelementptr inbounds void (%"class.base::internal::BindStateBase"*)*, void (%"class.base::internal::BindStateBase"*)** %5, i64 22
  %42 = bitcast void (%"class.base::internal::BindStateBase"*)** %41 to %"class.base::SequencedTaskRunner"**
  %43 = load %"class.base::SequencedTaskRunner"*, %"class.base::SequencedTaskRunner"** %42, align 8
  store %"class.base::SequencedTaskRunner"* null, %"class.base::SequencedTaskRunner"** %42, align 8
  %44 = bitcast void (%"class.base::internal::BindStateBase"*)** %14 to %"class.base::internal::BindStateBase"**
  %45 = bitcast void (%"class.base::internal::BindStateBase"*)** %14 to i64*
  %46 = load i64, i64* %45, align 8
  %47 = bitcast %"class.base::OnceCallback.296"* %3 to i64*
  store i64 %46, i64* %47, align 8
  store %"class.base::internal::BindStateBase"* null, %"class.base::internal::BindStateBase"** %44, align 8
  call void %38(%"class.leveldb_proto::ProtoDatabaseSelector"* %25, %"class.std::__1::basic_string"* dereferenceable(24) %7, %"class.base::FilePath"* nonnull %2, %"struct.leveldb_env::Options"* dereferenceable(112) %11, i1 zeroext %40, %"class.base::SequencedTaskRunner"* %43, %"class.base::OnceCallback.296"* nonnull %3) #9
  %48 = getelementptr inbounds %"class.base::OnceCallback.296", %"class.base::OnceCallback.296"* %3, i64 0, i32 0
  call void @_ZN4base8internal12CallbackBaseD2Ev(%"class.base::internal::CallbackBase"* nonnull %48) #9
  call void @_ZN4base8FilePathD1Ev(%"class.base::FilePath"* nonnull %2) #9
  call void @llvm.lifetime.end.p0i8(i64 24, i8* nonnull %20) #9
  call void @llvm.lifetime.end.p0i8(i64 8, i8* nonnull %21) #9
  ret void
}

; Function Attrs: nounwind
declare void @_ZN4base8FilePathC1EOS0_(%"class.base::FilePath"*, %"class.base::FilePath"* dereferenceable(24)) unnamed_addr #3

; Function Attrs: nounwind ssp uwtable
define linkonce_odr hidden void @_ZN4base8internal9BindStateIMN13leveldb_proto21ProtoDatabaseSelectorEFvRKNSt3__112basic_stringIcNS4_11char_traitsIcEENS4_9allocatorIcEEEENS_8FilePathERKN11leveldb_env7OptionsEb13scoped_refptrINS_19SequencedTaskRunnerEENS_12OnceCallbackIFvNS2_5Enums10InitStatusEEEEEJSI_IS3_ESA_SD_SF_bSK_SP_EE7DestroyEPKNS0_13BindStateBaseE(%"class.base::internal::BindStateBase"*) #0 comdat align 2 {
  %2 = icmp eq %"class.base::internal::BindStateBase"* %0, null
  br i1 %2, label %7, label %3

3:                                                ; preds = %1
  %4 = getelementptr inbounds %"class.base::internal::BindStateBase", %"class.base::internal::BindStateBase"* %0, i64 1, i32 2
  %5 = bitcast void (%"class.base::internal::BindStateBase"*)** %4 to %"struct.std::__1::__tuple_impl"*
  tail call void @_ZNSt3__112__tuple_implINS_15__tuple_indicesIJLm0ELm1ELm2ELm3ELm4ELm5ELm6EEEEJ13scoped_refptrIN13leveldb_proto21ProtoDatabaseSelectorEENS_12basic_stringIcNS_11char_traitsIcEENS_9allocatorIcEEEEN4base8FilePathEN11leveldb_env7OptionsEbS3_INSD_19SequencedTaskRunnerEENSD_12OnceCallbackIFvNS4_5Enums10InitStatusEEEEEED2Ev(%"struct.std::__1::__tuple_impl"* %5) #9
  %6 = bitcast %"class.base::internal::BindStateBase"* %0 to i8*
  tail call void @_ZdlPv(i8* %6) #10
  br label %7

7:                                                ; preds = %3, %1
  ret void
}

declare void @_ZN4base8internal13BindStateBaseC2EPFvvEPFvPKS1_E(%"class.base::internal::BindStateBase"*, void ()*, void (%"class.base::internal::BindStateBase"*)*) unnamed_addr #1

; Function Attrs: inlinehint nounwind ssp uwtable
define linkonce_odr hidden void @_ZNSt3__112__tuple_implINS_15__tuple_indicesIJLm0ELm1ELm2ELm3ELm4ELm5ELm6EEEEJ13scoped_refptrIN13leveldb_proto21ProtoDatabaseSelectorEENS_12basic_stringIcNS_11char_traitsIcEENS_9allocatorIcEEEEN4base8FilePathEN11leveldb_env7OptionsEbS3_INSD_19SequencedTaskRunnerEENSD_12OnceCallbackIFvNS4_5Enums10InitStatusEEEEEED2Ev(%"struct.std::__1::__tuple_impl"*) unnamed_addr #6 comdat align 2 {
  %2 = getelementptr inbounds %"struct.std::__1::__tuple_impl", %"struct.std::__1::__tuple_impl"* %0, i64 0, i32 6, i32 0, i32 0
  tail call void @_ZN4base8internal12CallbackBaseD2Ev(%"class.base::internal::CallbackBase"* %2) #9
  %3 = getelementptr inbounds %"struct.std::__1::__tuple_impl", %"struct.std::__1::__tuple_impl"* %0, i64 0, i32 5, i32 0, i32 0
  %4 = load %"class.base::SequencedTaskRunner"*, %"class.base::SequencedTaskRunner"** %3, align 8
  %5 = icmp eq %"class.base::SequencedTaskRunner"* %4, null
  br i1 %5, label %14, label %6

6:                                                ; preds = %1
  %7 = getelementptr inbounds %"class.base::SequencedTaskRunner", %"class.base::SequencedTaskRunner"* %4, i64 0, i32 0, i32 1
  %8 = getelementptr inbounds %"class.base::RefCountedThreadSafe.32", %"class.base::RefCountedThreadSafe.32"* %7, i64 0, i32 0, i32 0, i32 0, i32 0, i32 0, i32 0, i32 0, i32 0
  %9 = atomicrmw sub i32* %8, i32 1 acq_rel
  %10 = icmp eq i32 %9, 1
  br i1 %10, label %11, label %14

11:                                               ; preds = %6
  %12 = getelementptr inbounds %"class.base::RefCountedThreadSafe.32", %"class.base::RefCountedThreadSafe.32"* %7, i64 -2
  %13 = bitcast %"class.base::RefCountedThreadSafe.32"* %12 to %"class.base::TaskRunner"*
  tail call void @_ZN4base16TaskRunnerTraits8DestructEPKNS_10TaskRunnerE(%"class.base::TaskRunner"* %13) #9
  br label %14

14:                                               ; preds = %1, %6, %11
  %15 = getelementptr inbounds %"struct.std::__1::__tuple_impl", %"struct.std::__1::__tuple_impl"* %0, i64 0, i32 3, i32 0, i32 2, i32 0, i32 0
  tail call void @_ZN4base8internal12CallbackBaseD2Ev(%"class.base::internal::CallbackBase"* %15) #9
  %16 = getelementptr inbounds %"struct.std::__1::__tuple_impl", %"struct.std::__1::__tuple_impl"* %0, i64 0, i32 3, i32 0, i32 1, i32 0, i32 0
  tail call void @_ZN4base8internal12CallbackBaseD2Ev(%"class.base::internal::CallbackBase"* %16) #9
  %17 = getelementptr inbounds %"struct.std::__1::__tuple_impl", %"struct.std::__1::__tuple_impl"* %0, i64 0, i32 2, i32 0
  tail call void @_ZN4base8FilePathD1Ev(%"class.base::FilePath"* %17) #9
  %18 = getelementptr inbounds %"struct.std::__1::__tuple_impl", %"struct.std::__1::__tuple_impl"* %0, i64 0, i32 1
  %19 = bitcast %"class.std::__1::__tuple_leaf.329"* %18 to %"struct.std::__1::basic_string<char, std::__1::char_traits<char>, std::__1::allocator<char> >::__short"*
  %20 = getelementptr inbounds %"struct.std::__1::basic_string<char, std::__1::char_traits<char>, std::__1::allocator<char> >::__short", %"struct.std::__1::basic_string<char, std::__1::char_traits<char>, std::__1::allocator<char> >::__short"* %19, i64 0, i32 1, i32 0
  %21 = load i8, i8* %20, align 1
  %22 = icmp slt i8 %21, 0
  br i1 %22, label %23, label %26

23:                                               ; preds = %14
  %24 = getelementptr inbounds %"class.std::__1::__tuple_leaf.329", %"class.std::__1::__tuple_leaf.329"* %18, i64 0, i32 0, i32 0, i32 0, i32 0, i32 0, i32 0, i32 0
  %25 = load i8*, i8** %24, align 8
  tail call void @_ZdlPv(i8* %25) #10
  br label %26

26:                                               ; preds = %14, %23
  %27 = getelementptr inbounds %"struct.std::__1::__tuple_impl", %"struct.std::__1::__tuple_impl"* %0, i64 0, i32 0, i32 0, i32 0
  %28 = load %"class.leveldb_proto::ProtoDatabaseSelector"*, %"class.leveldb_proto::ProtoDatabaseSelector"** %27, align 8
  %29 = icmp eq %"class.leveldb_proto::ProtoDatabaseSelector"* %28, null
  br i1 %29, label %36, label %30

30:                                               ; preds = %26
  %31 = getelementptr inbounds %"class.leveldb_proto::ProtoDatabaseSelector", %"class.leveldb_proto::ProtoDatabaseSelector"* %28, i64 0, i32 0, i32 0, i32 0, i32 0, i32 0, i32 0, i32 0, i32 0, i32 0
  %32 = atomicrmw sub i32* %31, i32 1 acq_rel
  %33 = icmp eq i32 %32, 1
  br i1 %33, label %34, label %36

34:                                               ; preds = %30
  tail call void @_ZN13leveldb_proto21ProtoDatabaseSelectorD1Ev(%"class.leveldb_proto::ProtoDatabaseSelector"* nonnull %28) #9
  %35 = bitcast %"class.leveldb_proto::ProtoDatabaseSelector"* %28 to i8*
  tail call void @_ZdlPv(i8* %35) #10
  br label %36

36:                                               ; preds = %26, %30, %34
  ret void
}

; Function Attrs: argmemonly nounwind
declare void @llvm.memcpy.p0i8.p0i8.i64(i8* nocapture writeonly, i8* nocapture readonly, i64, i1 immarg) #2

declare void @_ZNSt3__112basic_stringIcNS_11char_traitsIcEENS_9allocatorIcEEE25__init_copy_ctor_externalEPKcm(%"class.std::__1::basic_string"*, i8*, i64) local_unnamed_addr #1

declare void @_ZN4base8internal20CallbackBaseCopyableC2ERKS1_(%"class.base::internal::CallbackBaseCopyable"*, %"class.base::internal::CallbackBaseCopyable"* dereferenceable(8)) unnamed_addr #1

; Function Attrs: nounwind ssp uwtable
define internal void @_ZN13leveldb_proto12_GLOBAL__N_127UpdateEntriesFromTaskRunnerIN13notifications5proto4IconENS2_9IconEntryEEEvNSt3__110unique_ptrINS_4Util8InternalIT0_E14KeyEntryVectorENS6_14default_deleteISC_EEEENS7_INS6_6vectorINS6_12basic_stringIcNS6_11char_traitsIcEENS6_9allocatorIcEEEENSK_ISM_EEEENSD_ISO_EEEE13scoped_refptrINS_21ProtoDatabaseSelectorEEN4base12OnceCallbackIFvbEEE(%"class.std::__1::vector.300"*, %"class.std::__1::vector.313"*, %"class.leveldb_proto::ProtoDatabaseSelector"*, %"class.base::OnceCallback.323"* nocapture) #0 {
  %5 = alloca %"class.notifications::proto::Icon", align 8
  %6 = alloca %"class.std::__1::basic_string", align 8
  %7 = alloca %"struct.std::__1::pair.353", align 8
  %8 = alloca %"class.base::OnceCallback.323", align 8
  %9 = tail call i8* @_Znwm(i64 24) #10
  %10 = bitcast i8* %9 to %"class.std::__1::vector.351"*
  tail call void @llvm.memset.p0i8.i64(i8* nonnull align 8 %9, i8 0, i64 24, i1 false) #9
  %11 = getelementptr inbounds %"class.std::__1::vector.300", %"class.std::__1::vector.300"* %0, i64 0, i32 0, i32 0
  %12 = load %"struct.std::__1::pair"*, %"struct.std::__1::pair"** %11, align 8
  %13 = getelementptr inbounds %"class.std::__1::vector.300", %"class.std::__1::vector.300"* %0, i64 0, i32 0, i32 1
  %14 = load %"struct.std::__1::pair"*, %"struct.std::__1::pair"** %13, align 8
  %15 = icmp eq %"struct.std::__1::pair"* %12, %14
  br i1 %15, label %40, label %16

16:                                               ; preds = %4
  %17 = bitcast %"class.std::__1::basic_string"* %6 to i8*
  %18 = getelementptr inbounds %"class.std::__1::basic_string", %"class.std::__1::basic_string"* %6, i64 0, i32 0, i32 0, i32 0, i32 0, i32 0, i32 0
  %19 = getelementptr inbounds %"class.std::__1::basic_string", %"class.std::__1::basic_string"* %6, i64 0, i32 0, i32 0, i32 0, i32 0, i32 0, i32 1
  %20 = bitcast %"class.notifications::proto::Icon"* %5 to i8*
  %21 = getelementptr inbounds %"class.notifications::proto::Icon", %"class.notifications::proto::Icon"* %5, i64 0, i32 0
  %22 = bitcast %"struct.std::__1::pair.353"* %7 to i8*
  %23 = getelementptr inbounds %"struct.std::__1::pair.353", %"struct.std::__1::pair.353"* %7, i64 0, i32 0
  %24 = getelementptr inbounds %"struct.std::__1::pair.353", %"struct.std::__1::pair.353"* %7, i64 0, i32 1
  %25 = bitcast %"class.std::__1::basic_string"* %6 to %"struct.std::__1::basic_string<char, std::__1::char_traits<char>, std::__1::allocator<char> >::__short"*
  %26 = getelementptr inbounds %"struct.std::__1::basic_string<char, std::__1::char_traits<char>, std::__1::allocator<char> >::__short", %"struct.std::__1::basic_string<char, std::__1::char_traits<char>, std::__1::allocator<char> >::__short"* %25, i64 0, i32 1, i32 0
  %27 = bitcast %"class.std::__1::basic_string"* %24 to i8*
  %28 = getelementptr inbounds i8, i8* %9, i64 8
  %29 = bitcast i8* %28 to %"struct.std::__1::pair.353"**
  %30 = getelementptr inbounds i8, i8* %9, i64 16
  %31 = bitcast i8* %30 to %"struct.std::__1::pair.353"**
  %32 = bitcast i8* %28 to i64*
  %33 = bitcast %"class.std::__1::basic_string"* %24 to %"struct.std::__1::basic_string<char, std::__1::char_traits<char>, std::__1::allocator<char> >::__short"*
  %34 = getelementptr inbounds %"struct.std::__1::basic_string<char, std::__1::char_traits<char>, std::__1::allocator<char> >::__short", %"struct.std::__1::basic_string<char, std::__1::char_traits<char>, std::__1::allocator<char> >::__short"* %33, i64 0, i32 1, i32 0
  %35 = getelementptr inbounds %"class.std::__1::basic_string", %"class.std::__1::basic_string"* %24, i64 0, i32 0, i32 0, i32 0, i32 0, i32 0, i32 0
  %36 = bitcast %"struct.std::__1::pair.353"* %7 to %"struct.std::__1::basic_string<char, std::__1::char_traits<char>, std::__1::allocator<char> >::__short"*
  %37 = getelementptr inbounds %"struct.std::__1::basic_string<char, std::__1::char_traits<char>, std::__1::allocator<char> >::__short", %"struct.std::__1::basic_string<char, std::__1::char_traits<char>, std::__1::allocator<char> >::__short"* %36, i64 0, i32 1, i32 0
  %38 = getelementptr inbounds %"struct.std::__1::pair.353", %"struct.std::__1::pair.353"* %7, i64 0, i32 0, i32 0, i32 0, i32 0, i32 0, i32 0, i32 0
  %39 = bitcast %"class.std::__1::basic_string"* %6 to i8*
  br label %91

40:                                               ; preds = %137, %4
  %41 = getelementptr inbounds %"class.base::OnceCallback.323", %"class.base::OnceCallback.323"* %3, i64 0, i32 0, i32 0, i32 0
  %42 = bitcast %"class.base::OnceCallback.323"* %3 to i64*
  %43 = load i64, i64* %42, align 8
  %44 = bitcast %"class.base::OnceCallback.323"* %8 to i64*
  store i64 %43, i64* %44, align 8
  store %"class.base::internal::BindStateBase"* null, %"class.base::internal::BindStateBase"** %41, align 8
  call void @_ZN13leveldb_proto21ProtoDatabaseSelector13UpdateEntriesENSt3__110unique_ptrINS1_6vectorINS1_4pairINS1_12basic_stringIcNS1_11char_traitsIcEENS1_9allocatorIcEEEESA_EENS8_ISB_EEEENS1_14default_deleteISD_EEEENS2_INS3_ISA_NS8_ISA_EEEENSE_ISI_EEEEN4base12OnceCallbackIFvbEEE(%"class.leveldb_proto::ProtoDatabaseSelector"* %2, %"class.std::__1::vector.351"* nonnull %10, %"class.std::__1::vector.313"* %1, %"class.base::OnceCallback.323"* nonnull %8) #9
  %45 = getelementptr inbounds %"class.base::OnceCallback.323", %"class.base::OnceCallback.323"* %8, i64 0, i32 0
  call void @_ZN4base8internal12CallbackBaseD2Ev(%"class.base::internal::CallbackBase"* nonnull %45) #9
  %46 = icmp eq %"class.leveldb_proto::ProtoDatabaseSelector"* %2, null
  br i1 %46, label %53, label %47

47:                                               ; preds = %40
  %48 = getelementptr inbounds %"class.leveldb_proto::ProtoDatabaseSelector", %"class.leveldb_proto::ProtoDatabaseSelector"* %2, i64 0, i32 0, i32 0, i32 0, i32 0, i32 0, i32 0, i32 0, i32 0, i32 0
  %49 = atomicrmw sub i32* %48, i32 1 acq_rel
  %50 = icmp eq i32 %49, 1
  br i1 %50, label %51, label %53

51:                                               ; preds = %47
  call void @_ZN13leveldb_proto21ProtoDatabaseSelectorD1Ev(%"class.leveldb_proto::ProtoDatabaseSelector"* nonnull %2) #9
  %52 = bitcast %"class.leveldb_proto::ProtoDatabaseSelector"* %2 to i8*
  call void @_ZdlPv(i8* %52) #10
  br label %53

53:                                               ; preds = %51, %47, %40
  %54 = icmp eq %"class.std::__1::vector.300"* %0, null
  br i1 %54, label %90, label %55

55:                                               ; preds = %53
  %56 = load %"struct.std::__1::pair"*, %"struct.std::__1::pair"** %11, align 8
  %57 = icmp eq %"struct.std::__1::pair"* %56, null
  br i1 %57, label %88, label %58

58:                                               ; preds = %55
  %59 = bitcast %"struct.std::__1::pair"* %56 to i8*
  %60 = load %"struct.std::__1::pair"*, %"struct.std::__1::pair"** %13, align 8
  %61 = icmp eq %"struct.std::__1::pair"* %60, %56
  br i1 %61, label %86, label %62

62:                                               ; preds = %58, %81
  %63 = phi %"struct.std::__1::pair"* [ %64, %81 ], [ %60, %58 ]
  %64 = getelementptr inbounds %"struct.std::__1::pair", %"struct.std::__1::pair"* %63, i64 -1
  %65 = getelementptr inbounds %"struct.std::__1::pair", %"struct.std::__1::pair"* %63, i64 -1, i32 1
  %66 = bitcast %"struct.notifications::IconEntry"* %65 to %"struct.std::__1::basic_string<char, std::__1::char_traits<char>, std::__1::allocator<char> >::__short"*
  %67 = getelementptr inbounds %"struct.std::__1::basic_string<char, std::__1::char_traits<char>, std::__1::allocator<char> >::__short", %"struct.std::__1::basic_string<char, std::__1::char_traits<char>, std::__1::allocator<char> >::__short"* %66, i64 0, i32 1, i32 0
  %68 = load i8, i8* %67, align 1
  %69 = icmp slt i8 %68, 0
  br i1 %69, label %70, label %73

70:                                               ; preds = %62
  %71 = getelementptr inbounds %"struct.notifications::IconEntry", %"struct.notifications::IconEntry"* %65, i64 0, i32 0, i32 0, i32 0, i32 0, i32 0, i32 0, i32 0
  %72 = load i8*, i8** %71, align 8
  call void @_ZdlPv(i8* %72) #10
  br label %73

73:                                               ; preds = %70, %62
  %74 = bitcast %"struct.std::__1::pair"* %64 to %"struct.std::__1::basic_string<char, std::__1::char_traits<char>, std::__1::allocator<char> >::__short"*
  %75 = getelementptr inbounds %"struct.std::__1::basic_string<char, std::__1::char_traits<char>, std::__1::allocator<char> >::__short", %"struct.std::__1::basic_string<char, std::__1::char_traits<char>, std::__1::allocator<char> >::__short"* %74, i64 0, i32 1, i32 0
  %76 = load i8, i8* %75, align 1
  %77 = icmp slt i8 %76, 0
  br i1 %77, label %78, label %81

78:                                               ; preds = %73
  %79 = getelementptr inbounds %"struct.std::__1::pair", %"struct.std::__1::pair"* %64, i64 0, i32 0, i32 0, i32 0, i32 0, i32 0, i32 0, i32 0
  %80 = load i8*, i8** %79, align 8
  call void @_ZdlPv(i8* %80) #10
  br label %81

81:                                               ; preds = %78, %73
  %82 = icmp eq %"struct.std::__1::pair"* %64, %56
  br i1 %82, label %83, label %62

83:                                               ; preds = %81
  %84 = bitcast %"class.std::__1::vector.300"* %0 to i8**
  %85 = load i8*, i8** %84, align 8
  br label %86

86:                                               ; preds = %83, %58
  %87 = phi i8* [ %85, %83 ], [ %59, %58 ]
  store %"struct.std::__1::pair"* %56, %"struct.std::__1::pair"** %13, align 8
  call void @_ZdlPv(i8* %87) #10
  br label %88

88:                                               ; preds = %86, %55
  %89 = bitcast %"class.std::__1::vector.300"* %0 to i8*
  call void @_ZdlPv(i8* %89) #10
  br label %90

90:                                               ; preds = %53, %88
  ret void

91:                                               ; preds = %16, %137
  %92 = phi %"struct.std::__1::pair"* [ %12, %16 ], [ %138, %137 ]
  call void @llvm.lifetime.start.p0i8(i64 24, i8* nonnull %17) #9
  %93 = getelementptr inbounds %"struct.std::__1::pair", %"struct.std::__1::pair"* %92, i64 0, i32 1
  call void @llvm.memset.p0i8.i64(i8* nonnull align 8 %39, i8 -86, i64 24, i1 false)
  call void @llvm.lifetime.start.p0i8(i64 32, i8* nonnull %20) #9, !noalias !97
  call void @llvm.memset.p0i8.i64(i8* nonnull align 8 %20, i8 -86, i64 32, i1 false) #9, !noalias !97
  call void @_ZN13notifications5proto4IconC2EPN6google8protobuf5ArenaE(%"class.notifications::proto::Icon"* nonnull %5, %"class.google::protobuf::Arena"* null) #9, !noalias !97
  call void @_ZN13leveldb_proto11DataToProtoEPN13notifications9IconEntryEPNS0_5proto4IconE(%"struct.notifications::IconEntry"* %93, %"class.notifications::proto::Icon"* nonnull %5) #9, !noalias !97
  call void @_ZNK6google8protobuf11MessageLite17SerializeAsStringEv(%"class.std::__1::basic_string"* nonnull sret %6, %"class.google::protobuf::MessageLite"* nonnull %21) #9
  call void @_ZN13notifications5proto4IconD1Ev(%"class.notifications::proto::Icon"* nonnull %5) #9
  call void @llvm.lifetime.end.p0i8(i64 32, i8* nonnull %20) #9, !noalias !97
  call void @llvm.lifetime.start.p0i8(i64 48, i8* nonnull %22) #9
  %94 = bitcast %"struct.std::__1::pair"* %92 to %"struct.std::__1::basic_string<char, std::__1::char_traits<char>, std::__1::allocator<char> >::__short"*
  %95 = getelementptr inbounds %"struct.std::__1::basic_string<char, std::__1::char_traits<char>, std::__1::allocator<char> >::__short", %"struct.std::__1::basic_string<char, std::__1::char_traits<char>, std::__1::allocator<char> >::__short"* %94, i64 0, i32 1, i32 0
  %96 = load i8, i8* %95, align 1, !noalias !100
  %97 = icmp slt i8 %96, 0
  br i1 %97, label %100, label %98

98:                                               ; preds = %91
  %99 = bitcast %"struct.std::__1::pair"* %92 to i8*
  call void @llvm.memcpy.p0i8.p0i8.i64(i8* nonnull align 8 %22, i8* align 8 %99, i64 24, i1 false) #9
  br label %105

100:                                              ; preds = %91
  %101 = getelementptr inbounds %"struct.std::__1::pair", %"struct.std::__1::pair"* %92, i64 0, i32 0, i32 0, i32 0, i32 0, i32 0, i32 0, i32 0
  %102 = load i8*, i8** %101, align 8, !noalias !100
  %103 = getelementptr inbounds %"struct.std::__1::pair", %"struct.std::__1::pair"* %92, i64 0, i32 0, i32 0, i32 0, i32 0, i32 0, i32 0, i32 1
  %104 = load i64, i64* %103, align 8, !noalias !100
  call void @_ZNSt3__112basic_stringIcNS_11char_traitsIcEENS_9allocatorIcEEE25__init_copy_ctor_externalEPKcm(%"class.std::__1::basic_string"* nonnull %23, i8* %102, i64 %104) #9
  br label %105

105:                                              ; preds = %100, %98
  %106 = load i8, i8* %26, align 1, !noalias !100
  %107 = icmp slt i8 %106, 0
  br i1 %107, label %109, label %108

108:                                              ; preds = %105
  call void @llvm.memcpy.p0i8.p0i8.i64(i8* align 8 %27, i8* nonnull align 8 %17, i64 24, i1 false) #9
  br label %112

109:                                              ; preds = %105
  %110 = load i8*, i8** %18, align 8, !noalias !100
  %111 = load i64, i64* %19, align 8, !noalias !100
  call void @_ZNSt3__112basic_stringIcNS_11char_traitsIcEENS_9allocatorIcEEE25__init_copy_ctor_externalEPKcm(%"class.std::__1::basic_string"* %24, i8* %110, i64 %111) #9
  br label %112

112:                                              ; preds = %108, %109
  %113 = load %"struct.std::__1::pair.353"*, %"struct.std::__1::pair.353"** %29, align 8
  %114 = load %"struct.std::__1::pair.353"*, %"struct.std::__1::pair.353"** %31, align 8
  %115 = icmp ult %"struct.std::__1::pair.353"* %113, %114
  br i1 %115, label %116, label %122

116:                                              ; preds = %112
  %117 = bitcast %"struct.std::__1::pair.353"* %113 to i8*
  call void @llvm.memcpy.p0i8.p0i8.i64(i8* align 8 %117, i8* nonnull align 8 %22, i64 24, i1 false) #9
  call void @llvm.memset.p0i8.i64(i8* nonnull align 8 %22, i8 0, i64 24, i1 false) #9
  %118 = getelementptr inbounds %"struct.std::__1::pair.353", %"struct.std::__1::pair.353"* %113, i64 0, i32 1
  %119 = bitcast %"class.std::__1::basic_string"* %118 to i8*
  call void @llvm.memcpy.p0i8.p0i8.i64(i8* align 8 %119, i8* align 8 %27, i64 24, i1 false) #9
  call void @llvm.memset.p0i8.i64(i8* align 8 %27, i8 0, i64 24, i1 false) #9
  %120 = getelementptr inbounds %"struct.std::__1::pair.353", %"struct.std::__1::pair.353"* %113, i64 1
  %121 = ptrtoint %"struct.std::__1::pair.353"* %120 to i64
  store i64 %121, i64* %32, align 8
  br label %127

122:                                              ; preds = %112
  call void @_ZNSt3__16vectorINS_4pairINS_12basic_stringIcNS_11char_traitsIcEENS_9allocatorIcEEEES7_EENS5_IS8_EEE21__push_back_slow_pathIS8_EEvOT_(%"class.std::__1::vector.351"* nonnull %10, %"struct.std::__1::pair.353"* nonnull dereferenceable(48) %7) #9
  %123 = load i8, i8* %34, align 1
  %124 = icmp slt i8 %123, 0
  br i1 %124, label %125, label %127

125:                                              ; preds = %122
  %126 = load i8*, i8** %35, align 8
  call void @_ZdlPv(i8* %126) #10
  br label %127

127:                                              ; preds = %116, %125, %122
  %128 = load i8, i8* %37, align 1
  %129 = icmp slt i8 %128, 0
  br i1 %129, label %130, label %132

130:                                              ; preds = %127
  %131 = load i8*, i8** %38, align 8
  call void @_ZdlPv(i8* %131) #10
  br label %132

132:                                              ; preds = %127, %130
  call void @llvm.lifetime.end.p0i8(i64 48, i8* nonnull %22) #9
  %133 = load i8, i8* %26, align 1
  %134 = icmp slt i8 %133, 0
  br i1 %134, label %135, label %137

135:                                              ; preds = %132
  %136 = load i8*, i8** %18, align 8
  call void @_ZdlPv(i8* %136) #10
  br label %137

137:                                              ; preds = %132, %135
  call void @llvm.lifetime.end.p0i8(i64 24, i8* nonnull %17) #9
  %138 = getelementptr inbounds %"struct.std::__1::pair", %"struct.std::__1::pair"* %92, i64 1
  %139 = icmp eq %"struct.std::__1::pair"* %138, %14
  br i1 %139, label %40, label %91
}

declare void @_ZN13leveldb_proto17RunUpdateCallbackE13scoped_refptrIN4base19SequencedTaskRunnerEENS1_12OnceCallbackIFvbEEEb(%"class.base::SequencedTaskRunner"*, %"class.base::OnceCallback.323"*, i1 zeroext) #1

; Function Attrs: nounwind ssp uwtable
define linkonce_odr hidden void @_ZN13leveldb_proto17ProtoDatabaseImplIN13notifications5proto4IconENS1_9IconEntryEE15PostTransactionEN4base12OnceCallbackIFvvEEE(%"class.leveldb_proto::ProtoDatabaseImpl"*, %"class.base::OnceCallback"*) local_unnamed_addr #0 comdat align 2 {
  %3 = alloca %"class.base::Location", align 8
  %4 = alloca %"class.base::OnceCallback", align 8
  %5 = getelementptr inbounds %"class.leveldb_proto::ProtoDatabaseImpl", %"class.leveldb_proto::ProtoDatabaseImpl"* %0, i64 0, i32 4, i32 0
  %6 = bitcast %"class.base::SequencedTaskRunner"** %5 to %"class.base::TaskRunner"**
  %7 = load %"class.base::TaskRunner"*, %"class.base::TaskRunner"** %6, align 8
  %8 = bitcast %"class.base::Location"* %3 to i8*
  call void @llvm.lifetime.start.p0i8(i64 32, i8* nonnull %8) #9
  call void @_ZN4base8Location7CurrentEPKcS2_i(%"class.base::Location"* nonnull sret %3, i8* getelementptr inbounds ([16 x i8], [16 x i8]* @.str.5, i64 0, i64 0), i8* getelementptr inbounds ([62 x i8], [62 x i8]* @.str.3, i64 0, i64 0), i32 554) #9
  %9 = call i8* @_Znwm(i64 64) #10, !noalias !103
  %10 = bitcast i8* %9 to %"class.base::internal::BindStateBase"*
  call void @_ZN4base8internal13BindStateBaseC2EPFvvEPFvPKS1_E(%"class.base::internal::BindStateBase"* nonnull %10, void ()* bitcast (void (%"class.base::internal::BindStateBase"*)* @_ZN4base8internal7InvokerINS0_9BindStateIMN13leveldb_proto21ProtoDatabaseSelectorEFvNS_12OnceCallbackIFvvEEEEJ13scoped_refptrIS4_ES7_EEES6_E7RunOnceEPNS0_13BindStateBaseE to void ()*), void (%"class.base::internal::BindStateBase"*)* nonnull @_ZN4base8internal9BindStateIMN13leveldb_proto21ProtoDatabaseSelectorEFvNS_12OnceCallbackIFvvEEEEJ13scoped_refptrIS3_ES6_EE7DestroyEPKNS0_13BindStateBaseE) #9, !noalias !103
  %11 = getelementptr inbounds i8, i8* %9, i64 32
  %12 = bitcast i8* %11 to <2 x i64>*
  store <2 x i64> <i64 ptrtoint (void (%"class.leveldb_proto::ProtoDatabaseSelector"*, %"class.base::OnceCallback"*)* @_ZN13leveldb_proto21ProtoDatabaseSelector14AddTransactionEN4base12OnceCallbackIFvvEEE to i64), i64 0>, <2 x i64>* %12, align 8, !noalias !103
  %13 = getelementptr inbounds %"class.leveldb_proto::ProtoDatabaseImpl", %"class.leveldb_proto::ProtoDatabaseImpl"* %0, i64 0, i32 2, i32 0
  %14 = load %"class.leveldb_proto::ProtoDatabaseSelector"*, %"class.leveldb_proto::ProtoDatabaseSelector"** %13, align 8, !noalias !103
  %15 = getelementptr inbounds i8, i8* %9, i64 48
  %16 = bitcast i8* %15 to %"class.leveldb_proto::ProtoDatabaseSelector"**
  store %"class.leveldb_proto::ProtoDatabaseSelector"* %14, %"class.leveldb_proto::ProtoDatabaseSelector"** %16, align 8, !noalias !103
  %17 = icmp eq %"class.leveldb_proto::ProtoDatabaseSelector"* %14, null
  br i1 %17, label %21, label %18

18:                                               ; preds = %2
  %19 = getelementptr inbounds %"class.leveldb_proto::ProtoDatabaseSelector", %"class.leveldb_proto::ProtoDatabaseSelector"* %14, i64 0, i32 0, i32 0, i32 0, i32 0, i32 0, i32 0, i32 0, i32 0, i32 0
  %20 = atomicrmw add i32* %19, i32 1 monotonic, !noalias !103
  br label %21

21:                                               ; preds = %2, %18
  %22 = getelementptr inbounds i8, i8* %9, i64 56
  %23 = getelementptr inbounds %"class.base::OnceCallback", %"class.base::OnceCallback"* %1, i64 0, i32 0, i32 0, i32 0
  %24 = bitcast %"class.base::OnceCallback"* %1 to i64*
  %25 = load i64, i64* %24, align 8, !noalias !103
  %26 = bitcast i8* %22 to i64*
  store i64 %25, i64* %26, align 8, !noalias !103
  store %"class.base::internal::BindStateBase"* null, %"class.base::internal::BindStateBase"** %23, align 8, !noalias !103
  %27 = bitcast %"class.base::OnceCallback"* %4 to i8**
  store i8* %9, i8** %27, align 8, !alias.scope !103
  %28 = call zeroext i1 @_ZN4base10TaskRunner8PostTaskERKNS_8LocationENS_12OnceCallbackIFvvEEE(%"class.base::TaskRunner"* %7, %"class.base::Location"* nonnull dereferenceable(32) %3, %"class.base::OnceCallback"* nonnull %4) #9
  %29 = getelementptr inbounds %"class.base::OnceCallback", %"class.base::OnceCallback"* %4, i64 0, i32 0
  call void @_ZN4base8internal12CallbackBaseD2Ev(%"class.base::internal::CallbackBase"* nonnull %29) #9
  call void @llvm.lifetime.end.p0i8(i64 32, i8* nonnull %8) #9
  ret void
}

; Function Attrs: nounwind ssp uwtable
define linkonce_odr hidden void @_ZN4base8internal7InvokerINS0_9BindStateIPFvNSt3__110unique_ptrINS3_6vectorINS3_4pairINS3_12basic_stringIcNS3_11char_traitsIcEENS3_9allocatorIcEEEEN13notifications9IconEntryEEENSA_ISF_EEEENS3_14default_deleteISH_EEEENS4_INS5_ISC_NSA_ISC_EEEENSI_ISM_EEEE13scoped_refptrIN13leveldb_proto21ProtoDatabaseSelectorEENS_12OnceCallbackIFvbEEEEJSK_SO_SS_SV_EEEFvvEE7RunOnceEPNS0_13BindStateBaseE(%"class.base::internal::BindStateBase"*) #0 comdat align 2 {
  %2 = alloca %"class.base::OnceCallback.323", align 8
  %3 = getelementptr inbounds %"class.base::internal::BindStateBase", %"class.base::internal::BindStateBase"* %0, i64 1
  %4 = bitcast %"class.base::internal::BindStateBase"* %3 to void (%"class.std::__1::vector.300"*, %"class.std::__1::vector.313"*, %"class.leveldb_proto::ProtoDatabaseSelector"*, %"class.base::OnceCallback.323"*)**
  %5 = getelementptr inbounds %"class.base::internal::BindStateBase", %"class.base::internal::BindStateBase"* %0, i64 1, i32 1
  %6 = getelementptr inbounds void ()*, void ()** %5, i64 3
  %7 = bitcast %"class.base::OnceCallback.323"* %2 to i8*
  call void @llvm.lifetime.start.p0i8(i64 8, i8* nonnull %7) #9
  %8 = load void (%"class.std::__1::vector.300"*, %"class.std::__1::vector.313"*, %"class.leveldb_proto::ProtoDatabaseSelector"*, %"class.base::OnceCallback.323"*)*, void (%"class.std::__1::vector.300"*, %"class.std::__1::vector.313"*, %"class.leveldb_proto::ProtoDatabaseSelector"*, %"class.base::OnceCallback.323"*)** %4, align 8
  %9 = bitcast void ()** %5 to %"class.std::__1::vector.300"**
  %10 = load %"class.std::__1::vector.300"*, %"class.std::__1::vector.300"** %9, align 8
  store %"class.std::__1::vector.300"* null, %"class.std::__1::vector.300"** %9, align 8
  %11 = getelementptr inbounds void ()*, void ()** %5, i64 1
  %12 = bitcast void ()** %11 to %"class.std::__1::vector.313"**
  %13 = load %"class.std::__1::vector.313"*, %"class.std::__1::vector.313"** %12, align 8
  store %"class.std::__1::vector.313"* null, %"class.std::__1::vector.313"** %12, align 8
  %14 = getelementptr inbounds void ()*, void ()** %5, i64 2
  %15 = bitcast void ()** %14 to %"class.leveldb_proto::ProtoDatabaseSelector"**
  %16 = load %"class.leveldb_proto::ProtoDatabaseSelector"*, %"class.leveldb_proto::ProtoDatabaseSelector"** %15, align 8
  store %"class.leveldb_proto::ProtoDatabaseSelector"* null, %"class.leveldb_proto::ProtoDatabaseSelector"** %15, align 8
  %17 = bitcast void ()** %6 to %"class.base::internal::BindStateBase"**
  %18 = bitcast void ()** %6 to i64*
  %19 = load i64, i64* %18, align 8
  %20 = bitcast %"class.base::OnceCallback.323"* %2 to i64*
  store i64 %19, i64* %20, align 8
  store %"class.base::internal::BindStateBase"* null, %"class.base::internal::BindStateBase"** %17, align 8
  call void %8(%"class.std::__1::vector.300"* %10, %"class.std::__1::vector.313"* %13, %"class.leveldb_proto::ProtoDatabaseSelector"* %16, %"class.base::OnceCallback.323"* nonnull %2) #9
  %21 = getelementptr inbounds %"class.base::OnceCallback.323", %"class.base::OnceCallback.323"* %2, i64 0, i32 0
  call void @_ZN4base8internal12CallbackBaseD2Ev(%"class.base::internal::CallbackBase"* nonnull %21) #9
  call void @llvm.lifetime.end.p0i8(i64 8, i8* nonnull %7) #9
  ret void
}

; Function Attrs: nounwind ssp uwtable
define linkonce_odr hidden void @_ZN4base8internal9BindStateIPFvNSt3__110unique_ptrINS2_6vectorINS2_4pairINS2_12basic_stringIcNS2_11char_traitsIcEENS2_9allocatorIcEEEEN13notifications9IconEntryEEENS9_ISE_EEEENS2_14default_deleteISG_EEEENS3_INS4_ISB_NS9_ISB_EEEENSH_ISL_EEEE13scoped_refptrIN13leveldb_proto21ProtoDatabaseSelectorEENS_12OnceCallbackIFvbEEEEJSJ_SN_SR_SU_EE7DestroyEPKNS0_13BindStateBaseE(%"class.base::internal::BindStateBase"*) #0 comdat align 2 {
  %2 = icmp eq %"class.base::internal::BindStateBase"* %0, null
  br i1 %2, label %7, label %3

3:                                                ; preds = %1
  %4 = getelementptr inbounds %"class.base::internal::BindStateBase", %"class.base::internal::BindStateBase"* %0, i64 1, i32 1
  %5 = bitcast void ()** %4 to %"struct.std::__1::__tuple_impl.340"*
  tail call void @_ZNSt3__112__tuple_implINS_15__tuple_indicesIJLm0ELm1ELm2ELm3EEEEJNS_10unique_ptrINS_6vectorINS_4pairINS_12basic_stringIcNS_11char_traitsIcEENS_9allocatorIcEEEEN13notifications9IconEntryEEENS9_ISE_EEEENS_14default_deleteISG_EEEENS3_INS4_ISB_NS9_ISB_EEEENSH_ISL_EEEE13scoped_refptrIN13leveldb_proto21ProtoDatabaseSelectorEEN4base12OnceCallbackIFvbEEEEED2Ev(%"struct.std::__1::__tuple_impl.340"* %5) #9
  %6 = bitcast %"class.base::internal::BindStateBase"* %0 to i8*
  tail call void @_ZdlPv(i8* %6) #10
  br label %7

7:                                                ; preds = %3, %1
  ret void
}

; Function Attrs: inlinehint nounwind ssp uwtable
define linkonce_odr hidden void @_ZNSt3__112__tuple_implINS_15__tuple_indicesIJLm0ELm1ELm2ELm3EEEEJNS_10unique_ptrINS_6vectorINS_4pairINS_12basic_stringIcNS_11char_traitsIcEENS_9allocatorIcEEEEN13notifications9IconEntryEEENS9_ISE_EEEENS_14default_deleteISG_EEEENS3_INS4_ISB_NS9_ISB_EEEENSH_ISL_EEEE13scoped_refptrIN13leveldb_proto21ProtoDatabaseSelectorEEN4base12OnceCallbackIFvbEEEEED2Ev(%"struct.std::__1::__tuple_impl.340"*) unnamed_addr #6 comdat align 2 {
  %2 = getelementptr inbounds %"struct.std::__1::__tuple_impl.340", %"struct.std::__1::__tuple_impl.340"* %0, i64 0, i32 3, i32 0, i32 0
  tail call void @_ZN4base8internal12CallbackBaseD2Ev(%"class.base::internal::CallbackBase"* %2) #9
  %3 = getelementptr inbounds %"struct.std::__1::__tuple_impl.340", %"struct.std::__1::__tuple_impl.340"* %0, i64 0, i32 2, i32 0, i32 0
  %4 = load %"class.leveldb_proto::ProtoDatabaseSelector"*, %"class.leveldb_proto::ProtoDatabaseSelector"** %3, align 8
  %5 = icmp eq %"class.leveldb_proto::ProtoDatabaseSelector"* %4, null
  br i1 %5, label %12, label %6

6:                                                ; preds = %1
  %7 = getelementptr inbounds %"class.leveldb_proto::ProtoDatabaseSelector", %"class.leveldb_proto::ProtoDatabaseSelector"* %4, i64 0, i32 0, i32 0, i32 0, i32 0, i32 0, i32 0, i32 0, i32 0, i32 0
  %8 = atomicrmw sub i32* %7, i32 1 acq_rel
  %9 = icmp eq i32 %8, 1
  br i1 %9, label %10, label %12

10:                                               ; preds = %6
  tail call void @_ZN13leveldb_proto21ProtoDatabaseSelectorD1Ev(%"class.leveldb_proto::ProtoDatabaseSelector"* nonnull %4) #9
  %11 = bitcast %"class.leveldb_proto::ProtoDatabaseSelector"* %4 to i8*
  tail call void @_ZdlPv(i8* %11) #10
  br label %12

12:                                               ; preds = %1, %6, %10
  %13 = getelementptr inbounds %"struct.std::__1::__tuple_impl.340", %"struct.std::__1::__tuple_impl.340"* %0, i64 0, i32 1, i32 0, i32 0, i32 0, i32 0
  %14 = load %"class.std::__1::vector.313"*, %"class.std::__1::vector.313"** %13, align 8
  store %"class.std::__1::vector.313"* null, %"class.std::__1::vector.313"** %13, align 8
  %15 = icmp eq %"class.std::__1::vector.313"* %14, null
  br i1 %15, label %44, label %16

16:                                               ; preds = %12
  %17 = getelementptr inbounds %"class.std::__1::vector.313", %"class.std::__1::vector.313"* %14, i64 0, i32 0, i32 0
  %18 = load %"class.std::__1::basic_string"*, %"class.std::__1::basic_string"** %17, align 8
  %19 = icmp eq %"class.std::__1::basic_string"* %18, null
  br i1 %19, label %42, label %20

20:                                               ; preds = %16
  %21 = bitcast %"class.std::__1::basic_string"* %18 to i8*
  %22 = getelementptr inbounds %"class.std::__1::vector.313", %"class.std::__1::vector.313"* %14, i64 0, i32 0, i32 1
  %23 = load %"class.std::__1::basic_string"*, %"class.std::__1::basic_string"** %22, align 8
  %24 = icmp eq %"class.std::__1::basic_string"* %23, %18
  br i1 %24, label %40, label %25

25:                                               ; preds = %20, %35
  %26 = phi %"class.std::__1::basic_string"* [ %27, %35 ], [ %23, %20 ]
  %27 = getelementptr inbounds %"class.std::__1::basic_string", %"class.std::__1::basic_string"* %26, i64 -1
  %28 = bitcast %"class.std::__1::basic_string"* %27 to %"struct.std::__1::basic_string<char, std::__1::char_traits<char>, std::__1::allocator<char> >::__short"*
  %29 = getelementptr inbounds %"struct.std::__1::basic_string<char, std::__1::char_traits<char>, std::__1::allocator<char> >::__short", %"struct.std::__1::basic_string<char, std::__1::char_traits<char>, std::__1::allocator<char> >::__short"* %28, i64 0, i32 1, i32 0
  %30 = load i8, i8* %29, align 1
  %31 = icmp slt i8 %30, 0
  br i1 %31, label %32, label %35

32:                                               ; preds = %25
  %33 = getelementptr inbounds %"class.std::__1::basic_string", %"class.std::__1::basic_string"* %27, i64 0, i32 0, i32 0, i32 0, i32 0, i32 0, i32 0
  %34 = load i8*, i8** %33, align 8
  tail call void @_ZdlPv(i8* %34) #10
  br label %35

35:                                               ; preds = %32, %25
  %36 = icmp eq %"class.std::__1::basic_string"* %27, %18
  br i1 %36, label %37, label %25

37:                                               ; preds = %35
  %38 = bitcast %"class.std::__1::vector.313"* %14 to i8**
  %39 = load i8*, i8** %38, align 8
  br label %40

40:                                               ; preds = %37, %20
  %41 = phi i8* [ %39, %37 ], [ %21, %20 ]
  store %"class.std::__1::basic_string"* %18, %"class.std::__1::basic_string"** %22, align 8
  tail call void @_ZdlPv(i8* %41) #10
  br label %42

42:                                               ; preds = %40, %16
  %43 = bitcast %"class.std::__1::vector.313"* %14 to i8*
  tail call void @_ZdlPv(i8* %43) #10
  br label %44

44:                                               ; preds = %12, %42
  %45 = getelementptr inbounds %"struct.std::__1::__tuple_impl.340", %"struct.std::__1::__tuple_impl.340"* %0, i64 0, i32 0, i32 0, i32 0, i32 0, i32 0
  %46 = load %"class.std::__1::vector.300"*, %"class.std::__1::vector.300"** %45, align 8
  store %"class.std::__1::vector.300"* null, %"class.std::__1::vector.300"** %45, align 8
  %47 = icmp eq %"class.std::__1::vector.300"* %46, null
  br i1 %47, label %85, label %48

48:                                               ; preds = %44
  %49 = getelementptr inbounds %"class.std::__1::vector.300", %"class.std::__1::vector.300"* %46, i64 0, i32 0, i32 0
  %50 = load %"struct.std::__1::pair"*, %"struct.std::__1::pair"** %49, align 8
  %51 = icmp eq %"struct.std::__1::pair"* %50, null
  br i1 %51, label %83, label %52

52:                                               ; preds = %48
  %53 = bitcast %"struct.std::__1::pair"* %50 to i8*
  %54 = getelementptr inbounds %"class.std::__1::vector.300", %"class.std::__1::vector.300"* %46, i64 0, i32 0, i32 1
  %55 = load %"struct.std::__1::pair"*, %"struct.std::__1::pair"** %54, align 8
  %56 = icmp eq %"struct.std::__1::pair"* %55, %50
  br i1 %56, label %81, label %57

57:                                               ; preds = %52, %76
  %58 = phi %"struct.std::__1::pair"* [ %59, %76 ], [ %55, %52 ]
  %59 = getelementptr inbounds %"struct.std::__1::pair", %"struct.std::__1::pair"* %58, i64 -1
  %60 = getelementptr inbounds %"struct.std::__1::pair", %"struct.std::__1::pair"* %58, i64 -1, i32 1
  %61 = bitcast %"struct.notifications::IconEntry"* %60 to %"struct.std::__1::basic_string<char, std::__1::char_traits<char>, std::__1::allocator<char> >::__short"*
  %62 = getelementptr inbounds %"struct.std::__1::basic_string<char, std::__1::char_traits<char>, std::__1::allocator<char> >::__short", %"struct.std::__1::basic_string<char, std::__1::char_traits<char>, std::__1::allocator<char> >::__short"* %61, i64 0, i32 1, i32 0
  %63 = load i8, i8* %62, align 1
  %64 = icmp slt i8 %63, 0
  br i1 %64, label %65, label %68

65:                                               ; preds = %57
  %66 = getelementptr inbounds %"struct.notifications::IconEntry", %"struct.notifications::IconEntry"* %60, i64 0, i32 0, i32 0, i32 0, i32 0, i32 0, i32 0, i32 0
  %67 = load i8*, i8** %66, align 8
  tail call void @_ZdlPv(i8* %67) #10
  br label %68

68:                                               ; preds = %65, %57
  %69 = bitcast %"struct.std::__1::pair"* %59 to %"struct.std::__1::basic_string<char, std::__1::char_traits<char>, std::__1::allocator<char> >::__short"*
  %70 = getelementptr inbounds %"struct.std::__1::basic_string<char, std::__1::char_traits<char>, std::__1::allocator<char> >::__short", %"struct.std::__1::basic_string<char, std::__1::char_traits<char>, std::__1::allocator<char> >::__short"* %69, i64 0, i32 1, i32 0
  %71 = load i8, i8* %70, align 1
  %72 = icmp slt i8 %71, 0
  br i1 %72, label %73, label %76

73:                                               ; preds = %68
  %74 = getelementptr inbounds %"struct.std::__1::pair", %"struct.std::__1::pair"* %59, i64 0, i32 0, i32 0, i32 0, i32 0, i32 0, i32 0, i32 0
  %75 = load i8*, i8** %74, align 8
  tail call void @_ZdlPv(i8* %75) #10
  br label %76

76:                                               ; preds = %73, %68
  %77 = icmp eq %"struct.std::__1::pair"* %59, %50
  br i1 %77, label %78, label %57

78:                                               ; preds = %76
  %79 = bitcast %"class.std::__1::vector.300"* %46 to i8**
  %80 = load i8*, i8** %79, align 8
  br label %81

81:                                               ; preds = %78, %52
  %82 = phi i8* [ %80, %78 ], [ %53, %52 ]
  store %"struct.std::__1::pair"* %50, %"struct.std::__1::pair"** %54, align 8
  tail call void @_ZdlPv(i8* %82) #10
  br label %83

83:                                               ; preds = %81, %48
  %84 = bitcast %"class.std::__1::vector.300"* %46 to i8*
  tail call void @_ZdlPv(i8* %84) #10
  br label %85

85:                                               ; preds = %44, %83
  ret void
}

declare void @_ZN13leveldb_proto21ProtoDatabaseSelector13UpdateEntriesENSt3__110unique_ptrINS1_6vectorINS1_4pairINS1_12basic_stringIcNS1_11char_traitsIcEENS1_9allocatorIcEEEESA_EENS8_ISB_EEEENS1_14default_deleteISD_EEEENS2_INS3_ISA_NS8_ISA_EEEENSE_ISI_EEEEN4base12OnceCallbackIFvbEEE(%"class.leveldb_proto::ProtoDatabaseSelector"*, %"class.std::__1::vector.351"*, %"class.std::__1::vector.313"*, %"class.base::OnceCallback.323"*) local_unnamed_addr #1

declare void @_ZN13leveldb_proto11DataToProtoEPN13notifications9IconEntryEPNS0_5proto4IconE(%"struct.notifications::IconEntry"*, %"class.notifications::proto::Icon"*) local_unnamed_addr #1

declare void @_ZNK6google8protobuf11MessageLite17SerializeAsStringEv(%"class.std::__1::basic_string"* sret, %"class.google::protobuf::MessageLite"*) local_unnamed_addr #1

; Function Attrs: nounwind
declare void @_ZN13notifications5proto4IconD1Ev(%"class.notifications::proto::Icon"*) unnamed_addr #3

declare void @_ZN13notifications5proto4IconC2EPN6google8protobuf5ArenaE(%"class.notifications::proto::Icon"*, %"class.google::protobuf::Arena"*) unnamed_addr #1

; Function Attrs: inlinehint nounwind ssp uwtable
define linkonce_odr hidden void @_ZNSt3__16vectorINS_4pairINS_12basic_stringIcNS_11char_traitsIcEENS_9allocatorIcEEEES7_EENS5_IS8_EEE21__push_back_slow_pathIS8_EEvOT_(%"class.std::__1::vector.351"*, %"struct.std::__1::pair.353"* dereferenceable(48)) local_unnamed_addr #6 comdat align 2 {
  %3 = getelementptr inbounds %"class.std::__1::vector.351", %"class.std::__1::vector.351"* %0, i64 0, i32 0, i32 1
  %4 = bitcast %"struct.std::__1::pair.353"** %3 to i64*
  %5 = load i64, i64* %4, align 8
  %6 = bitcast %"class.std::__1::vector.351"* %0 to i64*
  %7 = load i64, i64* %6, align 8
  %8 = sub i64 %5, %7
  %9 = sdiv exact i64 %8, 48
  %10 = add nsw i64 %9, 1
  %11 = icmp ugt i64 %10, 384307168202282325
  br i1 %11, label %12, label %14

12:                                               ; preds = %2
  %13 = bitcast %"class.std::__1::vector.351"* %0 to %"class.std::__1::__vector_base_common"*
  tail call void @_ZNKSt3__120__vector_base_commonILb1EE20__throw_length_errorEv(%"class.std::__1::__vector_base_common"* %13) #11
  unreachable

14:                                               ; preds = %2
  %15 = getelementptr inbounds %"class.std::__1::vector.351", %"class.std::__1::vector.351"* %0, i64 0, i32 0, i32 2, i32 0, i32 0
  %16 = bitcast %"struct.std::__1::pair.353"** %15 to i64*
  %17 = load i64, i64* %16, align 8
  %18 = sub i64 %17, %7
  %19 = sdiv exact i64 %18, 48
  %20 = icmp ult i64 %19, 192153584101141162
  br i1 %20, label %21, label %26

21:                                               ; preds = %14
  %22 = shl nsw i64 %19, 1
  %23 = icmp ult i64 %22, %10
  %24 = select i1 %23, i64 %10, i64 %22
  %25 = icmp eq i64 %24, 0
  br i1 %25, label %31, label %26

26:                                               ; preds = %14, %21
  %27 = phi i64 [ %24, %21 ], [ 384307168202282325, %14 ]
  %28 = mul i64 %27, 48
  %29 = tail call i8* @_Znwm(i64 %28) #10
  %30 = bitcast i8* %29 to %"struct.std::__1::pair.353"*
  br label %31

31:                                               ; preds = %21, %26
  %32 = phi i64 [ %27, %26 ], [ 0, %21 ]
  %33 = phi %"struct.std::__1::pair.353"* [ %30, %26 ], [ null, %21 ]
  %34 = getelementptr inbounds %"struct.std::__1::pair.353", %"struct.std::__1::pair.353"* %33, i64 %9
  %35 = getelementptr inbounds %"struct.std::__1::pair.353", %"struct.std::__1::pair.353"* %33, i64 %32
  %36 = ptrtoint %"struct.std::__1::pair.353"* %35 to i64
  %37 = bitcast %"struct.std::__1::pair.353"* %34 to i8*
  %38 = bitcast %"struct.std::__1::pair.353"* %1 to i8*
  tail call void @llvm.memcpy.p0i8.p0i8.i64(i8* align 8 %37, i8* align 8 %38, i64 24, i1 false) #9
  tail call void @llvm.memset.p0i8.i64(i8* align 8 %38, i8 0, i64 24, i1 false) #9
  %39 = getelementptr inbounds %"struct.std::__1::pair.353", %"struct.std::__1::pair.353"* %33, i64 %9, i32 1
  %40 = getelementptr inbounds %"struct.std::__1::pair.353", %"struct.std::__1::pair.353"* %1, i64 0, i32 1
  %41 = bitcast %"class.std::__1::basic_string"* %39 to i8*
  %42 = bitcast %"class.std::__1::basic_string"* %40 to i8*
  tail call void @llvm.memcpy.p0i8.p0i8.i64(i8* align 8 %41, i8* align 8 %42, i64 24, i1 false) #9
  tail call void @llvm.memset.p0i8.i64(i8* align 8 %42, i8 0, i64 24, i1 false) #9
  %43 = getelementptr inbounds %"struct.std::__1::pair.353", %"struct.std::__1::pair.353"* %34, i64 1
  %44 = ptrtoint %"struct.std::__1::pair.353"* %43 to i64
  %45 = getelementptr inbounds %"class.std::__1::vector.351", %"class.std::__1::vector.351"* %0, i64 0, i32 0, i32 0
  %46 = load %"struct.std::__1::pair.353"*, %"struct.std::__1::pair.353"** %45, align 8
  %47 = load %"struct.std::__1::pair.353"*, %"struct.std::__1::pair.353"** %3, align 8
  %48 = icmp eq %"struct.std::__1::pair.353"* %47, %46
  br i1 %48, label %49, label %51

49:                                               ; preds = %31
  %50 = ptrtoint %"struct.std::__1::pair.353"* %46 to i64
  br label %66

51:                                               ; preds = %31, %51
  %52 = phi %"struct.std::__1::pair.353"* [ %54, %51 ], [ %34, %31 ]
  %53 = phi %"struct.std::__1::pair.353"* [ %55, %51 ], [ %47, %31 ]
  %54 = getelementptr inbounds %"struct.std::__1::pair.353", %"struct.std::__1::pair.353"* %52, i64 -1
  %55 = getelementptr inbounds %"struct.std::__1::pair.353", %"struct.std::__1::pair.353"* %53, i64 -1
  %56 = bitcast %"struct.std::__1::pair.353"* %54 to i8*
  %57 = bitcast %"struct.std::__1::pair.353"* %55 to i8*
  tail call void @llvm.memcpy.p0i8.p0i8.i64(i8* align 8 %56, i8* align 8 %57, i64 24, i1 false) #9
  tail call void @llvm.memset.p0i8.i64(i8* align 8 %57, i8 0, i64 24, i1 false) #9
  %58 = getelementptr inbounds %"struct.std::__1::pair.353", %"struct.std::__1::pair.353"* %52, i64 -1, i32 1
  %59 = getelementptr inbounds %"struct.std::__1::pair.353", %"struct.std::__1::pair.353"* %53, i64 -1, i32 1
  %60 = bitcast %"class.std::__1::basic_string"* %58 to i8*
  %61 = bitcast %"class.std::__1::basic_string"* %59 to i8*
  tail call void @llvm.memcpy.p0i8.p0i8.i64(i8* align 8 %60, i8* align 8 %61, i64 24, i1 false) #9
  tail call void @llvm.memset.p0i8.i64(i8* align 8 %61, i8 0, i64 24, i1 false) #9
  %62 = icmp eq %"struct.std::__1::pair.353"* %55, %46
  br i1 %62, label %63, label %51

63:                                               ; preds = %51
  %64 = load i64, i64* %6, align 8
  %65 = load %"struct.std::__1::pair.353"*, %"struct.std::__1::pair.353"** %3, align 8
  br label %66

66:                                               ; preds = %49, %63
  %67 = phi %"struct.std::__1::pair.353"* [ %46, %49 ], [ %65, %63 ]
  %68 = phi %"struct.std::__1::pair.353"* [ %34, %49 ], [ %54, %63 ]
  %69 = phi i64 [ %50, %49 ], [ %64, %63 ]
  %70 = ptrtoint %"struct.std::__1::pair.353"* %68 to i64
  store i64 %70, i64* %6, align 8
  store i64 %44, i64* %4, align 8
  store i64 %36, i64* %16, align 8
  %71 = inttoptr i64 %69 to %"struct.std::__1::pair.353"*
  %72 = icmp eq %"struct.std::__1::pair.353"* %67, %71
  br i1 %72, label %94, label %73

73:                                               ; preds = %66, %92
  %74 = phi %"struct.std::__1::pair.353"* [ %75, %92 ], [ %67, %66 ]
  %75 = getelementptr inbounds %"struct.std::__1::pair.353", %"struct.std::__1::pair.353"* %74, i64 -1
  %76 = getelementptr inbounds %"struct.std::__1::pair.353", %"struct.std::__1::pair.353"* %74, i64 -1, i32 1
  %77 = bitcast %"class.std::__1::basic_string"* %76 to %"struct.std::__1::basic_string<char, std::__1::char_traits<char>, std::__1::allocator<char> >::__short"*
  %78 = getelementptr inbounds %"struct.std::__1::basic_string<char, std::__1::char_traits<char>, std::__1::allocator<char> >::__short", %"struct.std::__1::basic_string<char, std::__1::char_traits<char>, std::__1::allocator<char> >::__short"* %77, i64 0, i32 1, i32 0
  %79 = load i8, i8* %78, align 1
  %80 = icmp slt i8 %79, 0
  br i1 %80, label %81, label %84

81:                                               ; preds = %73
  %82 = getelementptr inbounds %"class.std::__1::basic_string", %"class.std::__1::basic_string"* %76, i64 0, i32 0, i32 0, i32 0, i32 0, i32 0, i32 0
  %83 = load i8*, i8** %82, align 8
  tail call void @_ZdlPv(i8* %83) #10
  br label %84

84:                                               ; preds = %81, %73
  %85 = bitcast %"struct.std::__1::pair.353"* %75 to %"struct.std::__1::basic_string<char, std::__1::char_traits<char>, std::__1::allocator<char> >::__short"*
  %86 = getelementptr inbounds %"struct.std::__1::basic_string<char, std::__1::char_traits<char>, std::__1::allocator<char> >::__short", %"struct.std::__1::basic_string<char, std::__1::char_traits<char>, std::__1::allocator<char> >::__short"* %85, i64 0, i32 1, i32 0
  %87 = load i8, i8* %86, align 1
  %88 = icmp slt i8 %87, 0
  br i1 %88, label %89, label %92

89:                                               ; preds = %84
  %90 = getelementptr inbounds %"struct.std::__1::pair.353", %"struct.std::__1::pair.353"* %75, i64 0, i32 0, i32 0, i32 0, i32 0, i32 0, i32 0, i32 0
  %91 = load i8*, i8** %90, align 8
  tail call void @_ZdlPv(i8* %91) #10
  br label %92

92:                                               ; preds = %89, %84
  %93 = icmp eq %"struct.std::__1::pair.353"* %75, %71
  br i1 %93, label %94, label %73

94:                                               ; preds = %92, %66
  %95 = icmp eq i64 %69, 0
  br i1 %95, label %98, label %96

96:                                               ; preds = %94
  %97 = inttoptr i64 %69 to i8*
  tail call void @_ZdlPv(i8* %97) #10
  br label %98

98:                                               ; preds = %94, %96
  ret void
}

; Function Attrs: argmemonly nounwind
declare void @llvm.memset.p0i8.i64(i8* nocapture writeonly, i8, i64, i1 immarg) #2

; Function Attrs: noreturn
declare void @_ZNKSt3__120__vector_base_commonILb1EE20__throw_length_errorEv(%"class.std::__1::__vector_base_common"*) local_unnamed_addr #7

; Function Attrs: nounwind ssp uwtable
define linkonce_odr hidden void @_ZN4base8internal7InvokerINS0_9BindStateIPFv13scoped_refptrINS_19SequencedTaskRunnerEENS_12OnceCallbackIFvbEEEbEJS5_S8_EEES7_E7RunOnceEPNS0_13BindStateBaseEb(%"class.base::internal::BindStateBase"*, i1 zeroext) #0 comdat align 2 {
  %3 = alloca %"class.base::OnceCallback.323", align 8
  %4 = getelementptr inbounds %"class.base::internal::BindStateBase", %"class.base::internal::BindStateBase"* %0, i64 1
  %5 = bitcast %"class.base::internal::BindStateBase"* %4 to void (%"class.base::SequencedTaskRunner"*, %"class.base::OnceCallback.323"*, i1)**
  %6 = getelementptr inbounds %"class.base::internal::BindStateBase", %"class.base::internal::BindStateBase"* %0, i64 1, i32 1
  %7 = getelementptr inbounds void ()*, void ()** %6, i64 1
  %8 = bitcast %"class.base::OnceCallback.323"* %3 to i8*
  call void @llvm.lifetime.start.p0i8(i64 8, i8* nonnull %8) #9
  %9 = load void (%"class.base::SequencedTaskRunner"*, %"class.base::OnceCallback.323"*, i1)*, void (%"class.base::SequencedTaskRunner"*, %"class.base::OnceCallback.323"*, i1)** %5, align 8
  %10 = bitcast void ()** %6 to %"class.base::SequencedTaskRunner"**
  %11 = load %"class.base::SequencedTaskRunner"*, %"class.base::SequencedTaskRunner"** %10, align 8
  store %"class.base::SequencedTaskRunner"* null, %"class.base::SequencedTaskRunner"** %10, align 8
  %12 = bitcast void ()** %7 to %"class.base::internal::BindStateBase"**
  %13 = bitcast void ()** %7 to i64*
  %14 = load i64, i64* %13, align 8
  %15 = bitcast %"class.base::OnceCallback.323"* %3 to i64*
  store i64 %14, i64* %15, align 8
  store %"class.base::internal::BindStateBase"* null, %"class.base::internal::BindStateBase"** %12, align 8
  call void %9(%"class.base::SequencedTaskRunner"* %11, %"class.base::OnceCallback.323"* nonnull %3, i1 zeroext %1) #9
  %16 = getelementptr inbounds %"class.base::OnceCallback.323", %"class.base::OnceCallback.323"* %3, i64 0, i32 0
  call void @_ZN4base8internal12CallbackBaseD2Ev(%"class.base::internal::CallbackBase"* nonnull %16) #9
  call void @llvm.lifetime.end.p0i8(i64 8, i8* nonnull %8) #9
  ret void
}

; Function Attrs: nounwind ssp uwtable
define linkonce_odr hidden void @_ZN4base8internal9BindStateIPFv13scoped_refptrINS_19SequencedTaskRunnerEENS_12OnceCallbackIFvbEEEbEJS4_S7_EE7DestroyEPKNS0_13BindStateBaseE(%"class.base::internal::BindStateBase"*) #0 comdat align 2 {
  %2 = icmp eq %"class.base::internal::BindStateBase"* %0, null
  br i1 %2, label %20, label %3

3:                                                ; preds = %1
  %4 = getelementptr inbounds %"class.base::internal::BindStateBase", %"class.base::internal::BindStateBase"* %0, i64 1, i32 2
  %5 = bitcast void (%"class.base::internal::BindStateBase"*)** %4 to %"class.base::internal::CallbackBase"*
  tail call void @_ZN4base8internal12CallbackBaseD2Ev(%"class.base::internal::CallbackBase"* %5) #9
  %6 = getelementptr inbounds %"class.base::internal::BindStateBase", %"class.base::internal::BindStateBase"* %0, i64 1, i32 1
  %7 = bitcast void ()** %6 to %"class.base::SequencedTaskRunner"**
  %8 = load %"class.base::SequencedTaskRunner"*, %"class.base::SequencedTaskRunner"** %7, align 8
  %9 = icmp eq %"class.base::SequencedTaskRunner"* %8, null
  br i1 %9, label %18, label %10

10:                                               ; preds = %3
  %11 = getelementptr inbounds %"class.base::SequencedTaskRunner", %"class.base::SequencedTaskRunner"* %8, i64 0, i32 0, i32 1
  %12 = getelementptr inbounds %"class.base::RefCountedThreadSafe.32", %"class.base::RefCountedThreadSafe.32"* %11, i64 0, i32 0, i32 0, i32 0, i32 0, i32 0, i32 0, i32 0, i32 0
  %13 = atomicrmw sub i32* %12, i32 1 acq_rel
  %14 = icmp eq i32 %13, 1
  br i1 %14, label %15, label %18

15:                                               ; preds = %10
  %16 = getelementptr inbounds %"class.base::RefCountedThreadSafe.32", %"class.base::RefCountedThreadSafe.32"* %11, i64 -2
  %17 = bitcast %"class.base::RefCountedThreadSafe.32"* %16 to %"class.base::TaskRunner"*
  tail call void @_ZN4base16TaskRunnerTraits8DestructEPKNS_10TaskRunnerE(%"class.base::TaskRunner"* %17) #9
  br label %18

18:                                               ; preds = %3, %10, %15
  %19 = bitcast %"class.base::internal::BindStateBase"* %0 to i8*
  tail call void @_ZdlPv(i8* %19) #10
  br label %20

20:                                               ; preds = %18, %1
  ret void
}

declare void @_ZN13leveldb_proto21ProtoDatabaseSelector14AddTransactionEN4base12OnceCallbackIFvvEEE(%"class.leveldb_proto::ProtoDatabaseSelector"*, %"class.base::OnceCallback"*) #1

; Function Attrs: nounwind ssp uwtable
define linkonce_odr hidden void @_ZN4base8internal7InvokerINS0_9BindStateIMN13leveldb_proto21ProtoDatabaseSelectorEFvNS_12OnceCallbackIFvvEEEEJ13scoped_refptrIS4_ES7_EEES6_E7RunOnceEPNS0_13BindStateBaseE(%"class.base::internal::BindStateBase"*) #0 comdat align 2 {
  %2 = alloca %"class.base::OnceCallback", align 8
  %3 = getelementptr inbounds %"class.base::internal::BindStateBase", %"class.base::internal::BindStateBase"* %0, i64 1
  %4 = getelementptr inbounds %"class.base::internal::BindStateBase", %"class.base::internal::BindStateBase"* %0, i64 1, i32 2
  %5 = getelementptr inbounds void (%"class.base::internal::BindStateBase"*)*, void (%"class.base::internal::BindStateBase"*)** %4, i64 1
  %6 = bitcast %"class.base::internal::BindStateBase"* %3 to i64*
  %7 = load i64, i64* %6, align 8
  %8 = getelementptr inbounds %"class.base::internal::BindStateBase", %"class.base::internal::BindStateBase"* %0, i64 1, i32 1
  %9 = bitcast void ()** %8 to i64*
  %10 = load i64, i64* %9, align 8
  %11 = bitcast %"class.base::OnceCallback"* %2 to i8*
  call void @llvm.lifetime.start.p0i8(i64 8, i8* nonnull %11) #9
  %12 = bitcast void (%"class.base::internal::BindStateBase"*)** %4 to i8**
  %13 = load i8*, i8** %12, align 8
  %14 = getelementptr inbounds i8, i8* %13, i64 %10
  %15 = bitcast i8* %14 to %"class.leveldb_proto::ProtoDatabaseSelector"*
  %16 = and i64 %7, 1
  %17 = icmp eq i64 %16, 0
  br i1 %17, label %25, label %18

18:                                               ; preds = %1
  %19 = bitcast i8* %14 to i8**
  %20 = load i8*, i8** %19, align 8
  %21 = add i64 %7, -1
  %22 = getelementptr i8, i8* %20, i64 %21
  %23 = bitcast i8* %22 to void (%"class.leveldb_proto::ProtoDatabaseSelector"*, %"class.base::OnceCallback"*)**
  %24 = load void (%"class.leveldb_proto::ProtoDatabaseSelector"*, %"class.base::OnceCallback"*)*, void (%"class.leveldb_proto::ProtoDatabaseSelector"*, %"class.base::OnceCallback"*)** %23, align 8
  br label %27

25:                                               ; preds = %1
  %26 = inttoptr i64 %7 to void (%"class.leveldb_proto::ProtoDatabaseSelector"*, %"class.base::OnceCallback"*)*
  br label %27

27:                                               ; preds = %18, %25
  %28 = phi void (%"class.leveldb_proto::ProtoDatabaseSelector"*, %"class.base::OnceCallback"*)* [ %24, %18 ], [ %26, %25 ]
  %29 = bitcast void (%"class.base::internal::BindStateBase"*)** %5 to %"class.base::internal::BindStateBase"**
  %30 = bitcast void (%"class.base::internal::BindStateBase"*)** %5 to i64*
  %31 = load i64, i64* %30, align 8
  %32 = bitcast %"class.base::OnceCallback"* %2 to i64*
  store i64 %31, i64* %32, align 8
  store %"class.base::internal::BindStateBase"* null, %"class.base::internal::BindStateBase"** %29, align 8
  call void %28(%"class.leveldb_proto::ProtoDatabaseSelector"* %15, %"class.base::OnceCallback"* nonnull %2) #9
  %33 = getelementptr inbounds %"class.base::OnceCallback", %"class.base::OnceCallback"* %2, i64 0, i32 0
  call void @_ZN4base8internal12CallbackBaseD2Ev(%"class.base::internal::CallbackBase"* nonnull %33) #9
  call void @llvm.lifetime.end.p0i8(i64 8, i8* nonnull %11) #9
  ret void
}

; Function Attrs: nounwind ssp uwtable
define linkonce_odr hidden void @_ZN4base8internal9BindStateIMN13leveldb_proto21ProtoDatabaseSelectorEFvNS_12OnceCallbackIFvvEEEEJ13scoped_refptrIS3_ES6_EE7DestroyEPKNS0_13BindStateBaseE(%"class.base::internal::BindStateBase"*) #0 comdat align 2 {
  %2 = icmp eq %"class.base::internal::BindStateBase"* %0, null
  br i1 %2, label %18, label %3

3:                                                ; preds = %1
  %4 = getelementptr inbounds %"class.base::internal::BindStateBase", %"class.base::internal::BindStateBase"* %0, i64 1, i32 3
  %5 = bitcast i1 (%"class.base::internal::BindStateBase"*, i32)** %4 to %"class.base::internal::CallbackBase"*
  tail call void @_ZN4base8internal12CallbackBaseD2Ev(%"class.base::internal::CallbackBase"* %5) #9
  %6 = getelementptr inbounds %"class.base::internal::BindStateBase", %"class.base::internal::BindStateBase"* %0, i64 1, i32 2
  %7 = bitcast void (%"class.base::internal::BindStateBase"*)** %6 to %"class.leveldb_proto::ProtoDatabaseSelector"**
  %8 = load %"class.leveldb_proto::ProtoDatabaseSelector"*, %"class.leveldb_proto::ProtoDatabaseSelector"** %7, align 8
  %9 = icmp eq %"class.leveldb_proto::ProtoDatabaseSelector"* %8, null
  br i1 %9, label %16, label %10

10:                                               ; preds = %3
  %11 = getelementptr inbounds %"class.leveldb_proto::ProtoDatabaseSelector", %"class.leveldb_proto::ProtoDatabaseSelector"* %8, i64 0, i32 0, i32 0, i32 0, i32 0, i32 0, i32 0, i32 0, i32 0, i32 0
  %12 = atomicrmw sub i32* %11, i32 1 acq_rel
  %13 = icmp eq i32 %12, 1
  br i1 %13, label %14, label %16

14:                                               ; preds = %10
  tail call void @_ZN13leveldb_proto21ProtoDatabaseSelectorD1Ev(%"class.leveldb_proto::ProtoDatabaseSelector"* nonnull %8) #9
  %15 = bitcast %"class.leveldb_proto::ProtoDatabaseSelector"* %8 to i8*
  tail call void @_ZdlPv(i8* %15) #10
  br label %16

16:                                               ; preds = %3, %10, %14
  %17 = bitcast %"class.base::internal::BindStateBase"* %0 to i8*
  tail call void @_ZdlPv(i8* %17) #10
  br label %18

18:                                               ; preds = %16, %1
  ret void
}

; Function Attrs: nounwind ssp uwtable
define internal void @_ZN13leveldb_proto12_GLOBAL__N_143UpdateEntriesWithRemoveFilterFromTaskRunnerIN13notifications5proto4IconENS2_9IconEntryEEEvNSt3__110unique_ptrINS_13ProtoDatabaseIT0_S9_E14KeyEntryVectorENS6_14default_deleteISB_EEEERKN4base17RepeatingCallbackIFbRKNS6_12basic_stringIcNS6_11char_traitsIcEENS6_9allocatorIcEEEEEEE13scoped_refptrINS_21ProtoDatabaseSelectorEENSF_12OnceCallbackIFvbEEE(%"class.std::__1::vector.300"*, %"class.base::RepeatingCallback.324"* dereferenceable(8), %"class.leveldb_proto::ProtoDatabaseSelector"*, %"class.base::OnceCallback.323"* nocapture) #0 {
  %5 = alloca %"class.notifications::proto::Icon", align 8
  %6 = alloca %"class.std::__1::basic_string", align 8
  %7 = alloca %"struct.std::__1::pair.353", align 8
  %8 = alloca %"class.base::OnceCallback.323", align 8
  %9 = tail call i8* @_Znwm(i64 24) #10
  %10 = bitcast i8* %9 to %"class.std::__1::vector.351"*
  tail call void @llvm.memset.p0i8.i64(i8* nonnull align 8 %9, i8 0, i64 24, i1 false) #9
  %11 = getelementptr inbounds %"class.std::__1::vector.300", %"class.std::__1::vector.300"* %0, i64 0, i32 0, i32 0
  %12 = load %"struct.std::__1::pair"*, %"struct.std::__1::pair"** %11, align 8
  %13 = getelementptr inbounds %"class.std::__1::vector.300", %"class.std::__1::vector.300"* %0, i64 0, i32 0, i32 1
  %14 = load %"struct.std::__1::pair"*, %"struct.std::__1::pair"** %13, align 8
  %15 = icmp eq %"struct.std::__1::pair"* %12, %14
  br i1 %15, label %40, label %16

16:                                               ; preds = %4
  %17 = bitcast %"class.std::__1::basic_string"* %6 to i8*
  %18 = getelementptr inbounds %"class.std::__1::basic_string", %"class.std::__1::basic_string"* %6, i64 0, i32 0, i32 0, i32 0, i32 0, i32 0, i32 0
  %19 = getelementptr inbounds %"class.std::__1::basic_string", %"class.std::__1::basic_string"* %6, i64 0, i32 0, i32 0, i32 0, i32 0, i32 0, i32 1
  %20 = bitcast %"class.notifications::proto::Icon"* %5 to i8*
  %21 = getelementptr inbounds %"class.notifications::proto::Icon", %"class.notifications::proto::Icon"* %5, i64 0, i32 0
  %22 = bitcast %"struct.std::__1::pair.353"* %7 to i8*
  %23 = getelementptr inbounds %"struct.std::__1::pair.353", %"struct.std::__1::pair.353"* %7, i64 0, i32 0
  %24 = getelementptr inbounds %"struct.std::__1::pair.353", %"struct.std::__1::pair.353"* %7, i64 0, i32 1
  %25 = bitcast %"class.std::__1::basic_string"* %6 to %"struct.std::__1::basic_string<char, std::__1::char_traits<char>, std::__1::allocator<char> >::__short"*
  %26 = getelementptr inbounds %"struct.std::__1::basic_string<char, std::__1::char_traits<char>, std::__1::allocator<char> >::__short", %"struct.std::__1::basic_string<char, std::__1::char_traits<char>, std::__1::allocator<char> >::__short"* %25, i64 0, i32 1, i32 0
  %27 = bitcast %"class.std::__1::basic_string"* %24 to i8*
  %28 = getelementptr inbounds i8, i8* %9, i64 8
  %29 = bitcast i8* %28 to %"struct.std::__1::pair.353"**
  %30 = getelementptr inbounds i8, i8* %9, i64 16
  %31 = bitcast i8* %30 to %"struct.std::__1::pair.353"**
  %32 = bitcast i8* %28 to i64*
  %33 = bitcast %"class.std::__1::basic_string"* %24 to %"struct.std::__1::basic_string<char, std::__1::char_traits<char>, std::__1::allocator<char> >::__short"*
  %34 = getelementptr inbounds %"struct.std::__1::basic_string<char, std::__1::char_traits<char>, std::__1::allocator<char> >::__short", %"struct.std::__1::basic_string<char, std::__1::char_traits<char>, std::__1::allocator<char> >::__short"* %33, i64 0, i32 1, i32 0
  %35 = getelementptr inbounds %"class.std::__1::basic_string", %"class.std::__1::basic_string"* %24, i64 0, i32 0, i32 0, i32 0, i32 0, i32 0, i32 0
  %36 = bitcast %"struct.std::__1::pair.353"* %7 to %"struct.std::__1::basic_string<char, std::__1::char_traits<char>, std::__1::allocator<char> >::__short"*
  %37 = getelementptr inbounds %"struct.std::__1::basic_string<char, std::__1::char_traits<char>, std::__1::allocator<char> >::__short", %"struct.std::__1::basic_string<char, std::__1::char_traits<char>, std::__1::allocator<char> >::__short"* %36, i64 0, i32 1, i32 0
  %38 = getelementptr inbounds %"struct.std::__1::pair.353", %"struct.std::__1::pair.353"* %7, i64 0, i32 0, i32 0, i32 0, i32 0, i32 0, i32 0, i32 0
  %39 = bitcast %"class.std::__1::basic_string"* %6 to i8*
  br label %91

40:                                               ; preds = %137, %4
  %41 = getelementptr inbounds %"class.base::OnceCallback.323", %"class.base::OnceCallback.323"* %3, i64 0, i32 0, i32 0, i32 0
  %42 = bitcast %"class.base::OnceCallback.323"* %3 to i64*
  %43 = load i64, i64* %42, align 8
  %44 = bitcast %"class.base::OnceCallback.323"* %8 to i64*
  store i64 %43, i64* %44, align 8
  store %"class.base::internal::BindStateBase"* null, %"class.base::internal::BindStateBase"** %41, align 8
  call void @_ZN13leveldb_proto21ProtoDatabaseSelector29UpdateEntriesWithRemoveFilterENSt3__110unique_ptrINS1_6vectorINS1_4pairINS1_12basic_stringIcNS1_11char_traitsIcEENS1_9allocatorIcEEEESA_EENS8_ISB_EEEENS1_14default_deleteISD_EEEERKN4base17RepeatingCallbackIFbRKSA_EEENSH_12OnceCallbackIFvbEEE(%"class.leveldb_proto::ProtoDatabaseSelector"* %2, %"class.std::__1::vector.351"* nonnull %10, %"class.base::RepeatingCallback.324"* dereferenceable(8) %1, %"class.base::OnceCallback.323"* nonnull %8) #9
  %45 = getelementptr inbounds %"class.base::OnceCallback.323", %"class.base::OnceCallback.323"* %8, i64 0, i32 0
  call void @_ZN4base8internal12CallbackBaseD2Ev(%"class.base::internal::CallbackBase"* nonnull %45) #9
  %46 = icmp eq %"class.leveldb_proto::ProtoDatabaseSelector"* %2, null
  br i1 %46, label %53, label %47

47:                                               ; preds = %40
  %48 = getelementptr inbounds %"class.leveldb_proto::ProtoDatabaseSelector", %"class.leveldb_proto::ProtoDatabaseSelector"* %2, i64 0, i32 0, i32 0, i32 0, i32 0, i32 0, i32 0, i32 0, i32 0, i32 0
  %49 = atomicrmw sub i32* %48, i32 1 acq_rel
  %50 = icmp eq i32 %49, 1
  br i1 %50, label %51, label %53

51:                                               ; preds = %47
  call void @_ZN13leveldb_proto21ProtoDatabaseSelectorD1Ev(%"class.leveldb_proto::ProtoDatabaseSelector"* nonnull %2) #9
  %52 = bitcast %"class.leveldb_proto::ProtoDatabaseSelector"* %2 to i8*
  call void @_ZdlPv(i8* %52) #10
  br label %53

53:                                               ; preds = %40, %47, %51
  %54 = icmp eq %"class.std::__1::vector.300"* %0, null
  br i1 %54, label %90, label %55

55:                                               ; preds = %53
  %56 = load %"struct.std::__1::pair"*, %"struct.std::__1::pair"** %11, align 8
  %57 = icmp eq %"struct.std::__1::pair"* %56, null
  br i1 %57, label %88, label %58

58:                                               ; preds = %55
  %59 = bitcast %"struct.std::__1::pair"* %56 to i8*
  %60 = load %"struct.std::__1::pair"*, %"struct.std::__1::pair"** %13, align 8
  %61 = icmp eq %"struct.std::__1::pair"* %60, %56
  br i1 %61, label %86, label %62

62:                                               ; preds = %58, %81
  %63 = phi %"struct.std::__1::pair"* [ %64, %81 ], [ %60, %58 ]
  %64 = getelementptr inbounds %"struct.std::__1::pair", %"struct.std::__1::pair"* %63, i64 -1
  %65 = getelementptr inbounds %"struct.std::__1::pair", %"struct.std::__1::pair"* %63, i64 -1, i32 1
  %66 = bitcast %"struct.notifications::IconEntry"* %65 to %"struct.std::__1::basic_string<char, std::__1::char_traits<char>, std::__1::allocator<char> >::__short"*
  %67 = getelementptr inbounds %"struct.std::__1::basic_string<char, std::__1::char_traits<char>, std::__1::allocator<char> >::__short", %"struct.std::__1::basic_string<char, std::__1::char_traits<char>, std::__1::allocator<char> >::__short"* %66, i64 0, i32 1, i32 0
  %68 = load i8, i8* %67, align 1
  %69 = icmp slt i8 %68, 0
  br i1 %69, label %70, label %73

70:                                               ; preds = %62
  %71 = getelementptr inbounds %"struct.notifications::IconEntry", %"struct.notifications::IconEntry"* %65, i64 0, i32 0, i32 0, i32 0, i32 0, i32 0, i32 0, i32 0
  %72 = load i8*, i8** %71, align 8
  call void @_ZdlPv(i8* %72) #10
  br label %73

73:                                               ; preds = %70, %62
  %74 = bitcast %"struct.std::__1::pair"* %64 to %"struct.std::__1::basic_string<char, std::__1::char_traits<char>, std::__1::allocator<char> >::__short"*
  %75 = getelementptr inbounds %"struct.std::__1::basic_string<char, std::__1::char_traits<char>, std::__1::allocator<char> >::__short", %"struct.std::__1::basic_string<char, std::__1::char_traits<char>, std::__1::allocator<char> >::__short"* %74, i64 0, i32 1, i32 0
  %76 = load i8, i8* %75, align 1
  %77 = icmp slt i8 %76, 0
  br i1 %77, label %78, label %81

78:                                               ; preds = %73
  %79 = getelementptr inbounds %"struct.std::__1::pair", %"struct.std::__1::pair"* %64, i64 0, i32 0, i32 0, i32 0, i32 0, i32 0, i32 0, i32 0
  %80 = load i8*, i8** %79, align 8
  call void @_ZdlPv(i8* %80) #10
  br label %81

81:                                               ; preds = %78, %73
  %82 = icmp eq %"struct.std::__1::pair"* %64, %56
  br i1 %82, label %83, label %62

83:                                               ; preds = %81
  %84 = bitcast %"class.std::__1::vector.300"* %0 to i8**
  %85 = load i8*, i8** %84, align 8
  br label %86

86:                                               ; preds = %83, %58
  %87 = phi i8* [ %85, %83 ], [ %59, %58 ]
  store %"struct.std::__1::pair"* %56, %"struct.std::__1::pair"** %13, align 8
  call void @_ZdlPv(i8* %87) #10
  br label %88

88:                                               ; preds = %86, %55
  %89 = bitcast %"class.std::__1::vector.300"* %0 to i8*
  call void @_ZdlPv(i8* %89) #10
  br label %90

90:                                               ; preds = %53, %88
  ret void

91:                                               ; preds = %16, %137
  %92 = phi %"struct.std::__1::pair"* [ %12, %16 ], [ %138, %137 ]
  call void @llvm.lifetime.start.p0i8(i64 24, i8* nonnull %17) #9
  %93 = getelementptr inbounds %"struct.std::__1::pair", %"struct.std::__1::pair"* %92, i64 0, i32 1
  call void @llvm.memset.p0i8.i64(i8* nonnull align 8 %39, i8 -86, i64 24, i1 false)
  call void @llvm.lifetime.start.p0i8(i64 32, i8* nonnull %20) #9, !noalias !108
  call void @llvm.memset.p0i8.i64(i8* nonnull align 8 %20, i8 -86, i64 32, i1 false) #9, !noalias !108
  call void @_ZN13notifications5proto4IconC2EPN6google8protobuf5ArenaE(%"class.notifications::proto::Icon"* nonnull %5, %"class.google::protobuf::Arena"* null) #9, !noalias !108
  call void @_ZN13leveldb_proto11DataToProtoEPN13notifications9IconEntryEPNS0_5proto4IconE(%"struct.notifications::IconEntry"* %93, %"class.notifications::proto::Icon"* nonnull %5) #9, !noalias !108
  call void @_ZNK6google8protobuf11MessageLite17SerializeAsStringEv(%"class.std::__1::basic_string"* nonnull sret %6, %"class.google::protobuf::MessageLite"* nonnull %21) #9
  call void @_ZN13notifications5proto4IconD1Ev(%"class.notifications::proto::Icon"* nonnull %5) #9
  call void @llvm.lifetime.end.p0i8(i64 32, i8* nonnull %20) #9, !noalias !108
  call void @llvm.lifetime.start.p0i8(i64 48, i8* nonnull %22) #9
  %94 = bitcast %"struct.std::__1::pair"* %92 to %"struct.std::__1::basic_string<char, std::__1::char_traits<char>, std::__1::allocator<char> >::__short"*
  %95 = getelementptr inbounds %"struct.std::__1::basic_string<char, std::__1::char_traits<char>, std::__1::allocator<char> >::__short", %"struct.std::__1::basic_string<char, std::__1::char_traits<char>, std::__1::allocator<char> >::__short"* %94, i64 0, i32 1, i32 0
  %96 = load i8, i8* %95, align 1, !noalias !111
  %97 = icmp slt i8 %96, 0
  br i1 %97, label %100, label %98

98:                                               ; preds = %91
  %99 = bitcast %"struct.std::__1::pair"* %92 to i8*
  call void @llvm.memcpy.p0i8.p0i8.i64(i8* nonnull align 8 %22, i8* align 8 %99, i64 24, i1 false) #9
  br label %105

100:                                              ; preds = %91
  %101 = getelementptr inbounds %"struct.std::__1::pair", %"struct.std::__1::pair"* %92, i64 0, i32 0, i32 0, i32 0, i32 0, i32 0, i32 0, i32 0
  %102 = load i8*, i8** %101, align 8, !noalias !111
  %103 = getelementptr inbounds %"struct.std::__1::pair", %"struct.std::__1::pair"* %92, i64 0, i32 0, i32 0, i32 0, i32 0, i32 0, i32 0, i32 1
  %104 = load i64, i64* %103, align 8, !noalias !111
  call void @_ZNSt3__112basic_stringIcNS_11char_traitsIcEENS_9allocatorIcEEE25__init_copy_ctor_externalEPKcm(%"class.std::__1::basic_string"* nonnull %23, i8* %102, i64 %104) #9
  br label %105

105:                                              ; preds = %100, %98
  %106 = load i8, i8* %26, align 1, !noalias !111
  %107 = icmp slt i8 %106, 0
  br i1 %107, label %109, label %108

108:                                              ; preds = %105
  call void @llvm.memcpy.p0i8.p0i8.i64(i8* align 8 %27, i8* nonnull align 8 %17, i64 24, i1 false) #9
  br label %112

109:                                              ; preds = %105
  %110 = load i8*, i8** %18, align 8, !noalias !111
  %111 = load i64, i64* %19, align 8, !noalias !111
  call void @_ZNSt3__112basic_stringIcNS_11char_traitsIcEENS_9allocatorIcEEE25__init_copy_ctor_externalEPKcm(%"class.std::__1::basic_string"* %24, i8* %110, i64 %111) #9
  br label %112

112:                                              ; preds = %108, %109
  %113 = load %"struct.std::__1::pair.353"*, %"struct.std::__1::pair.353"** %29, align 8
  %114 = load %"struct.std::__1::pair.353"*, %"struct.std::__1::pair.353"** %31, align 8
  %115 = icmp ult %"struct.std::__1::pair.353"* %113, %114
  br i1 %115, label %116, label %122

116:                                              ; preds = %112
  %117 = bitcast %"struct.std::__1::pair.353"* %113 to i8*
  call void @llvm.memcpy.p0i8.p0i8.i64(i8* align 8 %117, i8* nonnull align 8 %22, i64 24, i1 false) #9
  call void @llvm.memset.p0i8.i64(i8* nonnull align 8 %22, i8 0, i64 24, i1 false) #9
  %118 = getelementptr inbounds %"struct.std::__1::pair.353", %"struct.std::__1::pair.353"* %113, i64 0, i32 1
  %119 = bitcast %"class.std::__1::basic_string"* %118 to i8*
  call void @llvm.memcpy.p0i8.p0i8.i64(i8* align 8 %119, i8* align 8 %27, i64 24, i1 false) #9
  call void @llvm.memset.p0i8.i64(i8* align 8 %27, i8 0, i64 24, i1 false) #9
  %120 = getelementptr inbounds %"struct.std::__1::pair.353", %"struct.std::__1::pair.353"* %113, i64 1
  %121 = ptrtoint %"struct.std::__1::pair.353"* %120 to i64
  store i64 %121, i64* %32, align 8
  br label %127

122:                                              ; preds = %112
  call void @_ZNSt3__16vectorINS_4pairINS_12basic_stringIcNS_11char_traitsIcEENS_9allocatorIcEEEES7_EENS5_IS8_EEE21__push_back_slow_pathIS8_EEvOT_(%"class.std::__1::vector.351"* nonnull %10, %"struct.std::__1::pair.353"* nonnull dereferenceable(48) %7) #9
  %123 = load i8, i8* %34, align 1
  %124 = icmp slt i8 %123, 0
  br i1 %124, label %125, label %127

125:                                              ; preds = %122
  %126 = load i8*, i8** %35, align 8
  call void @_ZdlPv(i8* %126) #10
  br label %127

127:                                              ; preds = %116, %125, %122
  %128 = load i8, i8* %37, align 1
  %129 = icmp slt i8 %128, 0
  br i1 %129, label %130, label %132

130:                                              ; preds = %127
  %131 = load i8*, i8** %38, align 8
  call void @_ZdlPv(i8* %131) #10
  br label %132

132:                                              ; preds = %127, %130
  call void @llvm.lifetime.end.p0i8(i64 48, i8* nonnull %22) #9
  %133 = load i8, i8* %26, align 1
  %134 = icmp slt i8 %133, 0
  br i1 %134, label %135, label %137

135:                                              ; preds = %132
  %136 = load i8*, i8** %18, align 8
  call void @_ZdlPv(i8* %136) #10
  br label %137

137:                                              ; preds = %132, %135
  call void @llvm.lifetime.end.p0i8(i64 24, i8* nonnull %17) #9
  %138 = getelementptr inbounds %"struct.std::__1::pair", %"struct.std::__1::pair"* %92, i64 1
  %139 = icmp eq %"struct.std::__1::pair"* %138, %14
  br i1 %139, label %40, label %91
}

; Function Attrs: nounwind ssp uwtable
define linkonce_odr hidden void @_ZN4base8internal7InvokerINS0_9BindStateIPFvNSt3__110unique_ptrINS3_6vectorINS3_4pairINS3_12basic_stringIcNS3_11char_traitsIcEENS3_9allocatorIcEEEEN13notifications9IconEntryEEENSA_ISF_EEEENS3_14default_deleteISH_EEEERKNS_17RepeatingCallbackIFbRKSC_EEE13scoped_refptrIN13leveldb_proto21ProtoDatabaseSelectorEENS_12OnceCallbackIFvbEEEEJSK_SP_SV_SY_EEEFvvEE7RunOnceEPNS0_13BindStateBaseE(%"class.base::internal::BindStateBase"*) #0 comdat align 2 {
  %2 = alloca %"class.base::OnceCallback.323", align 8
  %3 = getelementptr inbounds %"class.base::internal::BindStateBase", %"class.base::internal::BindStateBase"* %0, i64 1
  %4 = bitcast %"class.base::internal::BindStateBase"* %3 to void (%"class.std::__1::vector.300"*, %"class.base::RepeatingCallback.324"*, %"class.leveldb_proto::ProtoDatabaseSelector"*, %"class.base::OnceCallback.323"*)**
  %5 = getelementptr inbounds %"class.base::internal::BindStateBase", %"class.base::internal::BindStateBase"* %0, i64 1, i32 1
  %6 = getelementptr inbounds void ()*, void ()** %5, i64 1
  %7 = bitcast void ()** %6 to %"class.base::RepeatingCallback.324"*
  %8 = getelementptr inbounds void ()*, void ()** %5, i64 3
  %9 = bitcast %"class.base::OnceCallback.323"* %2 to i8*
  call void @llvm.lifetime.start.p0i8(i64 8, i8* nonnull %9) #9
  %10 = load void (%"class.std::__1::vector.300"*, %"class.base::RepeatingCallback.324"*, %"class.leveldb_proto::ProtoDatabaseSelector"*, %"class.base::OnceCallback.323"*)*, void (%"class.std::__1::vector.300"*, %"class.base::RepeatingCallback.324"*, %"class.leveldb_proto::ProtoDatabaseSelector"*, %"class.base::OnceCallback.323"*)** %4, align 8
  %11 = bitcast void ()** %5 to %"class.std::__1::vector.300"**
  %12 = load %"class.std::__1::vector.300"*, %"class.std::__1::vector.300"** %11, align 8
  store %"class.std::__1::vector.300"* null, %"class.std::__1::vector.300"** %11, align 8
  %13 = getelementptr inbounds void ()*, void ()** %5, i64 2
  %14 = bitcast void ()** %13 to %"class.leveldb_proto::ProtoDatabaseSelector"**
  %15 = load %"class.leveldb_proto::ProtoDatabaseSelector"*, %"class.leveldb_proto::ProtoDatabaseSelector"** %14, align 8
  store %"class.leveldb_proto::ProtoDatabaseSelector"* null, %"class.leveldb_proto::ProtoDatabaseSelector"** %14, align 8
  %16 = bitcast void ()** %8 to %"class.base::internal::BindStateBase"**
  %17 = bitcast void ()** %8 to i64*
  %18 = load i64, i64* %17, align 8
  %19 = bitcast %"class.base::OnceCallback.323"* %2 to i64*
  store i64 %18, i64* %19, align 8
  store %"class.base::internal::BindStateBase"* null, %"class.base::internal::BindStateBase"** %16, align 8
  call void %10(%"class.std::__1::vector.300"* %12, %"class.base::RepeatingCallback.324"* dereferenceable(8) %7, %"class.leveldb_proto::ProtoDatabaseSelector"* %15, %"class.base::OnceCallback.323"* nonnull %2) #9
  %20 = getelementptr inbounds %"class.base::OnceCallback.323", %"class.base::OnceCallback.323"* %2, i64 0, i32 0
  call void @_ZN4base8internal12CallbackBaseD2Ev(%"class.base::internal::CallbackBase"* nonnull %20) #9
  call void @llvm.lifetime.end.p0i8(i64 8, i8* nonnull %9) #9
  ret void
}

; Function Attrs: nounwind ssp uwtable
define linkonce_odr hidden void @_ZN4base8internal9BindStateIPFvNSt3__110unique_ptrINS2_6vectorINS2_4pairINS2_12basic_stringIcNS2_11char_traitsIcEENS2_9allocatorIcEEEEN13notifications9IconEntryEEENS9_ISE_EEEENS2_14default_deleteISG_EEEERKNS_17RepeatingCallbackIFbRKSB_EEE13scoped_refptrIN13leveldb_proto21ProtoDatabaseSelectorEENS_12OnceCallbackIFvbEEEEJSJ_SO_SU_SX_EE7DestroyEPKNS0_13BindStateBaseE(%"class.base::internal::BindStateBase"*) #0 comdat align 2 {
  %2 = icmp eq %"class.base::internal::BindStateBase"* %0, null
  br i1 %2, label %62, label %3

3:                                                ; preds = %1
  %4 = getelementptr inbounds %"class.base::internal::BindStateBase", %"class.base::internal::BindStateBase"* %0, i64 2
  %5 = bitcast %"class.base::internal::BindStateBase"* %4 to %"class.base::internal::CallbackBase"*
  tail call void @_ZN4base8internal12CallbackBaseD2Ev(%"class.base::internal::CallbackBase"* %5) #9
  %6 = getelementptr inbounds %"class.base::internal::BindStateBase", %"class.base::internal::BindStateBase"* %0, i64 1, i32 3
  %7 = bitcast i1 (%"class.base::internal::BindStateBase"*, i32)** %6 to %"class.leveldb_proto::ProtoDatabaseSelector"**
  %8 = load %"class.leveldb_proto::ProtoDatabaseSelector"*, %"class.leveldb_proto::ProtoDatabaseSelector"** %7, align 8
  %9 = icmp eq %"class.leveldb_proto::ProtoDatabaseSelector"* %8, null
  br i1 %9, label %16, label %10

10:                                               ; preds = %3
  %11 = getelementptr inbounds %"class.leveldb_proto::ProtoDatabaseSelector", %"class.leveldb_proto::ProtoDatabaseSelector"* %8, i64 0, i32 0, i32 0, i32 0, i32 0, i32 0, i32 0, i32 0, i32 0, i32 0
  %12 = atomicrmw sub i32* %11, i32 1 acq_rel
  %13 = icmp eq i32 %12, 1
  br i1 %13, label %14, label %16

14:                                               ; preds = %10
  tail call void @_ZN13leveldb_proto21ProtoDatabaseSelectorD1Ev(%"class.leveldb_proto::ProtoDatabaseSelector"* nonnull %8) #9
  %15 = bitcast %"class.leveldb_proto::ProtoDatabaseSelector"* %8 to i8*
  tail call void @_ZdlPv(i8* %15) #10
  br label %16

16:                                               ; preds = %3, %10, %14
  %17 = getelementptr inbounds %"class.base::internal::BindStateBase", %"class.base::internal::BindStateBase"* %0, i64 1, i32 2
  %18 = bitcast void (%"class.base::internal::BindStateBase"*)** %17 to %"class.base::internal::CallbackBase"*
  tail call void @_ZN4base8internal12CallbackBaseD2Ev(%"class.base::internal::CallbackBase"* %18) #9
  %19 = getelementptr inbounds %"class.base::internal::BindStateBase", %"class.base::internal::BindStateBase"* %0, i64 1, i32 1
  %20 = bitcast void ()** %19 to %"class.std::__1::vector.300"**
  %21 = load %"class.std::__1::vector.300"*, %"class.std::__1::vector.300"** %20, align 8
  store %"class.std::__1::vector.300"* null, %"class.std::__1::vector.300"** %20, align 8
  %22 = icmp eq %"class.std::__1::vector.300"* %21, null
  br i1 %22, label %60, label %23

23:                                               ; preds = %16
  %24 = getelementptr inbounds %"class.std::__1::vector.300", %"class.std::__1::vector.300"* %21, i64 0, i32 0, i32 0
  %25 = load %"struct.std::__1::pair"*, %"struct.std::__1::pair"** %24, align 8
  %26 = icmp eq %"struct.std::__1::pair"* %25, null
  br i1 %26, label %58, label %27

27:                                               ; preds = %23
  %28 = bitcast %"struct.std::__1::pair"* %25 to i8*
  %29 = getelementptr inbounds %"class.std::__1::vector.300", %"class.std::__1::vector.300"* %21, i64 0, i32 0, i32 1
  %30 = load %"struct.std::__1::pair"*, %"struct.std::__1::pair"** %29, align 8
  %31 = icmp eq %"struct.std::__1::pair"* %30, %25
  br i1 %31, label %56, label %32

32:                                               ; preds = %27, %51
  %33 = phi %"struct.std::__1::pair"* [ %34, %51 ], [ %30, %27 ]
  %34 = getelementptr inbounds %"struct.std::__1::pair", %"struct.std::__1::pair"* %33, i64 -1
  %35 = getelementptr inbounds %"struct.std::__1::pair", %"struct.std::__1::pair"* %33, i64 -1, i32 1
  %36 = bitcast %"struct.notifications::IconEntry"* %35 to %"struct.std::__1::basic_string<char, std::__1::char_traits<char>, std::__1::allocator<char> >::__short"*
  %37 = getelementptr inbounds %"struct.std::__1::basic_string<char, std::__1::char_traits<char>, std::__1::allocator<char> >::__short", %"struct.std::__1::basic_string<char, std::__1::char_traits<char>, std::__1::allocator<char> >::__short"* %36, i64 0, i32 1, i32 0
  %38 = load i8, i8* %37, align 1
  %39 = icmp slt i8 %38, 0
  br i1 %39, label %40, label %43

40:                                               ; preds = %32
  %41 = getelementptr inbounds %"struct.notifications::IconEntry", %"struct.notifications::IconEntry"* %35, i64 0, i32 0, i32 0, i32 0, i32 0, i32 0, i32 0, i32 0
  %42 = load i8*, i8** %41, align 8
  tail call void @_ZdlPv(i8* %42) #10
  br label %43

43:                                               ; preds = %40, %32
  %44 = bitcast %"struct.std::__1::pair"* %34 to %"struct.std::__1::basic_string<char, std::__1::char_traits<char>, std::__1::allocator<char> >::__short"*
  %45 = getelementptr inbounds %"struct.std::__1::basic_string<char, std::__1::char_traits<char>, std::__1::allocator<char> >::__short", %"struct.std::__1::basic_string<char, std::__1::char_traits<char>, std::__1::allocator<char> >::__short"* %44, i64 0, i32 1, i32 0
  %46 = load i8, i8* %45, align 1
  %47 = icmp slt i8 %46, 0
  br i1 %47, label %48, label %51

48:                                               ; preds = %43
  %49 = getelementptr inbounds %"struct.std::__1::pair", %"struct.std::__1::pair"* %34, i64 0, i32 0, i32 0, i32 0, i32 0, i32 0, i32 0, i32 0
  %50 = load i8*, i8** %49, align 8
  tail call void @_ZdlPv(i8* %50) #10
  br label %51

51:                                               ; preds = %48, %43
  %52 = icmp eq %"struct.std::__1::pair"* %34, %25
  br i1 %52, label %53, label %32

53:                                               ; preds = %51
  %54 = bitcast %"class.std::__1::vector.300"* %21 to i8**
  %55 = load i8*, i8** %54, align 8
  br label %56

56:                                               ; preds = %53, %27
  %57 = phi i8* [ %55, %53 ], [ %28, %27 ]
  store %"struct.std::__1::pair"* %25, %"struct.std::__1::pair"** %29, align 8
  tail call void @_ZdlPv(i8* %57) #10
  br label %58

58:                                               ; preds = %56, %23
  %59 = bitcast %"class.std::__1::vector.300"* %21 to i8*
  tail call void @_ZdlPv(i8* %59) #10
  br label %60

60:                                               ; preds = %16, %58
  %61 = bitcast %"class.base::internal::BindStateBase"* %0 to i8*
  tail call void @_ZdlPv(i8* %61) #10
  br label %62

62:                                               ; preds = %60, %1
  ret void
}

declare void @_ZN13leveldb_proto21ProtoDatabaseSelector29UpdateEntriesWithRemoveFilterENSt3__110unique_ptrINS1_6vectorINS1_4pairINS1_12basic_stringIcNS1_11char_traitsIcEENS1_9allocatorIcEEEESA_EENS8_ISB_EEEENS1_14default_deleteISD_EEEERKN4base17RepeatingCallbackIFbRKSA_EEENSH_12OnceCallbackIFvbEEE(%"class.leveldb_proto::ProtoDatabaseSelector"*, %"class.std::__1::vector.351"*, %"class.base::RepeatingCallback.324"* dereferenceable(8), %"class.base::OnceCallback.323"*) local_unnamed_addr #1

declare void @_ZN13leveldb_proto21ProtoDatabaseSelector21LoadEntriesWithFilterERKN4base17RepeatingCallbackIFbRKNSt3__112basic_stringIcNS3_11char_traitsIcEENS3_9allocatorIcEEEEEEERKN7leveldb11ReadOptionsESB_NS1_12OnceCallbackIFvbNS3_10unique_ptrINS3_6vectorIS9_NS7_IS9_EEEENS3_14default_deleteISO_EEEEEEE(%"class.leveldb_proto::ProtoDatabaseSelector"*, %"class.base::RepeatingCallback.324"* dereferenceable(8), %"struct.leveldb::ReadOptions"* dereferenceable(16), %"class.std::__1::basic_string"* dereferenceable(24), %"class.base::OnceCallback.327"*) #1

; Function Attrs: nounwind ssp uwtable
define internal void @_ZN13leveldb_proto12_GLOBAL__N_118ParseLoadedEntriesIN13notifications5proto4IconENS2_9IconEntryEEEv13scoped_refptrIN4base19SequencedTaskRunnerEENS_9Callbacks8InternalIT0_E12LoadCallbackEbNSt3__110unique_ptrINSF_6vectorINSF_12basic_stringIcNSF_11char_traitsIcEENSF_9allocatorIcEEEENSL_ISN_EEEENSF_14default_deleteISP_EEEE(%"class.base::SequencedTaskRunner"*, %"class.base::OnceCallback.325"* nocapture, i1 zeroext, %"class.std::__1::vector.313"*) #0 {
  %5 = alloca %"class.logging::CheckError", align 8
  %6 = alloca %"struct.notifications::IconEntry", align 8
  %7 = alloca %"class.base::Location", align 8
  %8 = alloca %"class.base::OnceCallback", align 8
  %9 = zext i1 %2 to i8
  %10 = tail call i8* @_Znwm(i64 24) #10
  %11 = bitcast i8* %10 to %"class.std::__1::vector.408"*
  tail call void @llvm.memset.p0i8.i64(i8* nonnull align 8 %10, i8 0, i64 24, i1 false) #9
  %12 = ptrtoint i8* %10 to i64
  %13 = icmp ne %"class.std::__1::vector.313"* %3, null
  %14 = and i1 %13, %2
  br i1 %14, label %16, label %15

15:                                               ; preds = %4
  tail call void @_ZdlPv(i8* nonnull %10) #10
  br label %52

16:                                               ; preds = %4
  %17 = getelementptr inbounds %"class.std::__1::vector.313", %"class.std::__1::vector.313"* %3, i64 0, i32 0, i32 0
  %18 = load %"class.std::__1::basic_string"*, %"class.std::__1::basic_string"** %17, align 8
  %19 = getelementptr inbounds %"class.std::__1::vector.313", %"class.std::__1::vector.313"* %3, i64 0, i32 0, i32 1
  %20 = load %"class.std::__1::basic_string"*, %"class.std::__1::basic_string"** %19, align 8
  %21 = icmp eq %"class.std::__1::basic_string"* %18, %20
  br i1 %21, label %52, label %22

22:                                               ; preds = %16
  %23 = bitcast %"struct.notifications::IconEntry"* %6 to i8*
  %24 = getelementptr inbounds i8, i8* %10, i64 8
  %25 = bitcast i8* %24 to %"struct.notifications::IconEntry"**
  %26 = getelementptr inbounds i8, i8* %10, i64 16
  %27 = bitcast i8* %26 to %"struct.notifications::IconEntry"**
  %28 = bitcast i8* %24 to i64*
  %29 = bitcast %"struct.notifications::IconEntry"* %6 to %"struct.std::__1::basic_string<char, std::__1::char_traits<char>, std::__1::allocator<char> >::__short"*
  %30 = getelementptr inbounds %"struct.std::__1::basic_string<char, std::__1::char_traits<char>, std::__1::allocator<char> >::__short", %"struct.std::__1::basic_string<char, std::__1::char_traits<char>, std::__1::allocator<char> >::__short"* %29, i64 0, i32 1, i32 0
  %31 = getelementptr inbounds %"struct.notifications::IconEntry", %"struct.notifications::IconEntry"* %6, i64 0, i32 0, i32 0, i32 0, i32 0, i32 0, i32 0, i32 0
  br label %32

32:                                               ; preds = %22, %46
  %33 = phi %"class.std::__1::basic_string"* [ %18, %22 ], [ %50, %46 ]
  call void @llvm.lifetime.start.p0i8(i64 24, i8* nonnull %23) #9
  call void @_ZN13notifications9IconEntryC1Ev(%"struct.notifications::IconEntry"* nonnull %6) #9
  %34 = load %"struct.notifications::IconEntry"*, %"struct.notifications::IconEntry"** %25, align 8
  %35 = load %"struct.notifications::IconEntry"*, %"struct.notifications::IconEntry"** %27, align 8
  %36 = icmp ult %"struct.notifications::IconEntry"* %34, %35
  br i1 %36, label %37, label %40

37:                                               ; preds = %32
  call void @_ZN13notifications9IconEntryC1EOS0_(%"struct.notifications::IconEntry"* %34, %"struct.notifications::IconEntry"* nonnull dereferenceable(24) %6) #9
  %38 = getelementptr inbounds %"struct.notifications::IconEntry", %"struct.notifications::IconEntry"* %34, i64 1
  %39 = ptrtoint %"struct.notifications::IconEntry"* %38 to i64
  store i64 %39, i64* %28, align 8
  br label %41

40:                                               ; preds = %32
  call void @_ZNSt3__16vectorIN13notifications9IconEntryENS_9allocatorIS2_EEE24__emplace_back_slow_pathIJS2_EEEvDpOT_(%"class.std::__1::vector.408"* nonnull %11, %"struct.notifications::IconEntry"* nonnull dereferenceable(24) %6) #9
  br label %41

41:                                               ; preds = %37, %40
  %42 = load i8, i8* %30, align 1
  %43 = icmp slt i8 %42, 0
  br i1 %43, label %44, label %46

44:                                               ; preds = %41
  %45 = load i8*, i8** %31, align 8
  call void @_ZdlPv(i8* %45) #10
  br label %46

46:                                               ; preds = %41, %44
  call void @llvm.lifetime.end.p0i8(i64 24, i8* nonnull %23) #9
  %47 = load %"struct.notifications::IconEntry"*, %"struct.notifications::IconEntry"** %25, align 8
  %48 = getelementptr inbounds %"struct.notifications::IconEntry", %"struct.notifications::IconEntry"* %47, i64 -1
  %49 = call fastcc zeroext i1 @_ZN13leveldb_proto12_GLOBAL__N_117ParseToClientTypeIN13notifications5proto4IconENS2_9IconEntryELPv0EEEbRKNSt3__112basic_stringIcNS7_11char_traitsIcEENS7_9allocatorIcEEEEPT0_(%"class.std::__1::basic_string"* dereferenceable(24) %33, %"struct.notifications::IconEntry"* %48)
  %50 = getelementptr inbounds %"class.std::__1::basic_string", %"class.std::__1::basic_string"* %33, i64 1
  %51 = icmp eq %"class.std::__1::basic_string"* %50, %20
  br i1 %51, label %52, label %32

52:                                               ; preds = %46, %16, %15
  %53 = phi i64 [ 0, %15 ], [ %12, %16 ], [ %12, %46 ]
  %54 = bitcast %"class.base::SequencedTaskRunner"* %0 to %"class.base::TaskRunner"*
  %55 = bitcast %"class.base::Location"* %7 to i8*
  call void @llvm.lifetime.start.p0i8(i64 32, i8* nonnull %55) #9
  call void @_ZN4base8Location7CurrentEPKcS2_i(%"class.base::Location"* nonnull sret %7, i8* getelementptr inbounds ([19 x i8], [19 x i8]* @.str.6, i64 0, i64 0), i8* getelementptr inbounds ([62 x i8], [62 x i8]* @.str.3, i64 0, i64 0), i32 277) #9
  %56 = call i8* @_Znwm(i64 56) #10, !noalias !114
  %57 = bitcast i8* %56 to %"class.base::internal::BindStateBase"*
  call void @_ZN4base8internal13BindStateBaseC2EPFvvEPFvPKS1_EPFbS5_NS1_21CancellationQueryModeEE(%"class.base::internal::BindStateBase"* nonnull %57, void ()* bitcast (void (%"class.base::internal::BindStateBase"*)* @_ZN4base8internal7InvokerINS0_9BindStateINS_12OnceCallbackIFvbNSt3__110unique_ptrINS4_6vectorIN13notifications9IconEntryENS4_9allocatorIS8_EEEENS4_14default_deleteISB_EEEEEEEJbSE_EEEFvvEE7RunOnceEPNS0_13BindStateBaseE to void ()*), void (%"class.base::internal::BindStateBase"*)* nonnull @_ZN4base8internal9BindStateINS_12OnceCallbackIFvbNSt3__110unique_ptrINS3_6vectorIN13notifications9IconEntryENS3_9allocatorIS7_EEEENS3_14default_deleteISA_EEEEEEEJbSD_EE7DestroyEPKNS0_13BindStateBaseE, i1 (%"class.base::internal::BindStateBase"*, i32)* nonnull @_ZN4base8internal23QueryCancellationTraitsINS0_9BindStateINS_12OnceCallbackIFvbNSt3__110unique_ptrINS4_6vectorIN13notifications9IconEntryENS4_9allocatorIS8_EEEENS4_14default_deleteISB_EEEEEEEJbSE_EEEEEbPKNS0_13BindStateBaseENSI_21CancellationQueryModeE) #9, !noalias !114
  %58 = getelementptr inbounds i8, i8* %56, i64 32
  %59 = getelementptr inbounds %"class.base::OnceCallback.325", %"class.base::OnceCallback.325"* %1, i64 0, i32 0, i32 0, i32 0
  %60 = bitcast %"class.base::OnceCallback.325"* %1 to i64*
  %61 = load i64, i64* %60, align 8, !noalias !114
  %62 = bitcast i8* %58 to i64*
  store i64 %61, i64* %62, align 8, !noalias !114
  store %"class.base::internal::BindStateBase"* null, %"class.base::internal::BindStateBase"** %59, align 8, !noalias !114
  %63 = getelementptr inbounds i8, i8* %56, i64 40
  store i8 %9, i8* %63, align 1, !noalias !114
  %64 = getelementptr inbounds i8, i8* %56, i64 48
  %65 = bitcast i8* %64 to i64*
  store i64 %53, i64* %65, align 8, !noalias !114
  %66 = icmp eq i64 %61, 0
  br i1 %66, label %67, label %70

67:                                               ; preds = %52
  %68 = bitcast %"class.logging::CheckError"* %5 to i8*
  call void @llvm.lifetime.start.p0i8(i64 8, i8* nonnull %68) #9, !noalias !114
  call void @_ZN7logging10CheckError5CheckEPKciS2_(%"class.logging::CheckError"* nonnull sret %5, i8* getelementptr inbounds ([27 x i8], [27 x i8]* @.str.7, i64 0, i64 0), i32 896, i8* getelementptr inbounds ([18 x i8], [18 x i8]* @.str.8, i64 0, i64 0)) #9, !noalias !114
  %69 = call dereferenceable(160) %"class.std::__1::basic_ostream"* @_ZN7logging10CheckError6streamEv(%"class.logging::CheckError"* nonnull %5) #9, !noalias !114
  call void @_ZN7logging10CheckErrorD1Ev(%"class.logging::CheckError"* nonnull %5) #9, !noalias !114
  call void @llvm.lifetime.end.p0i8(i64 8, i8* nonnull %68) #9, !noalias !114
  br label %70

70:                                               ; preds = %52, %67
  %71 = bitcast %"class.base::OnceCallback"* %8 to i8**
  store i8* %56, i8** %71, align 8, !alias.scope !114
  %72 = call zeroext i1 @_ZN4base10TaskRunner8PostTaskERKNS_8LocationENS_12OnceCallbackIFvvEEE(%"class.base::TaskRunner"* %54, %"class.base::Location"* nonnull dereferenceable(32) %7, %"class.base::OnceCallback"* nonnull %8) #9
  %73 = getelementptr inbounds %"class.base::OnceCallback", %"class.base::OnceCallback"* %8, i64 0, i32 0
  call void @_ZN4base8internal12CallbackBaseD2Ev(%"class.base::internal::CallbackBase"* nonnull %73) #9
  call void @llvm.lifetime.end.p0i8(i64 32, i8* nonnull %55) #9
  %74 = icmp eq %"class.std::__1::vector.313"* %3, null
  br i1 %74, label %103, label %75

75:                                               ; preds = %70
  %76 = getelementptr inbounds %"class.std::__1::vector.313", %"class.std::__1::vector.313"* %3, i64 0, i32 0, i32 0
  %77 = load %"class.std::__1::basic_string"*, %"class.std::__1::basic_string"** %76, align 8
  %78 = icmp eq %"class.std::__1::basic_string"* %77, null
  br i1 %78, label %101, label %79

79:                                               ; preds = %75
  %80 = bitcast %"class.std::__1::basic_string"* %77 to i8*
  %81 = getelementptr inbounds %"class.std::__1::vector.313", %"class.std::__1::vector.313"* %3, i64 0, i32 0, i32 1
  %82 = load %"class.std::__1::basic_string"*, %"class.std::__1::basic_string"** %81, align 8
  %83 = icmp eq %"class.std::__1::basic_string"* %82, %77
  br i1 %83, label %99, label %84

84:                                               ; preds = %79, %94
  %85 = phi %"class.std::__1::basic_string"* [ %86, %94 ], [ %82, %79 ]
  %86 = getelementptr inbounds %"class.std::__1::basic_string", %"class.std::__1::basic_string"* %85, i64 -1
  %87 = bitcast %"class.std::__1::basic_string"* %86 to %"struct.std::__1::basic_string<char, std::__1::char_traits<char>, std::__1::allocator<char> >::__short"*
  %88 = getelementptr inbounds %"struct.std::__1::basic_string<char, std::__1::char_traits<char>, std::__1::allocator<char> >::__short", %"struct.std::__1::basic_string<char, std::__1::char_traits<char>, std::__1::allocator<char> >::__short"* %87, i64 0, i32 1, i32 0
  %89 = load i8, i8* %88, align 1
  %90 = icmp slt i8 %89, 0
  br i1 %90, label %91, label %94

91:                                               ; preds = %84
  %92 = getelementptr inbounds %"class.std::__1::basic_string", %"class.std::__1::basic_string"* %86, i64 0, i32 0, i32 0, i32 0, i32 0, i32 0, i32 0
  %93 = load i8*, i8** %92, align 8
  call void @_ZdlPv(i8* %93) #10
  br label %94

94:                                               ; preds = %91, %84
  %95 = icmp eq %"class.std::__1::basic_string"* %86, %77
  br i1 %95, label %96, label %84

96:                                               ; preds = %94
  %97 = bitcast %"class.std::__1::vector.313"* %3 to i8**
  %98 = load i8*, i8** %97, align 8
  br label %99

99:                                               ; preds = %96, %79
  %100 = phi i8* [ %98, %96 ], [ %80, %79 ]
  store %"class.std::__1::basic_string"* %77, %"class.std::__1::basic_string"** %81, align 8
  call void @_ZdlPv(i8* %100) #10
  br label %101

101:                                              ; preds = %99, %75
  %102 = bitcast %"class.std::__1::vector.313"* %3 to i8*
  call void @_ZdlPv(i8* %102) #10
  br label %103

103:                                              ; preds = %70, %101
  %104 = icmp eq %"class.base::SequencedTaskRunner"* %0, null
  br i1 %104, label %113, label %105

105:                                              ; preds = %103
  %106 = getelementptr inbounds %"class.base::SequencedTaskRunner", %"class.base::SequencedTaskRunner"* %0, i64 0, i32 0, i32 1
  %107 = getelementptr inbounds %"class.base::RefCountedThreadSafe.32", %"class.base::RefCountedThreadSafe.32"* %106, i64 0, i32 0, i32 0, i32 0, i32 0, i32 0, i32 0, i32 0, i32 0
  %108 = atomicrmw sub i32* %107, i32 1 acq_rel
  %109 = icmp eq i32 %108, 1
  br i1 %109, label %110, label %113

110:                                              ; preds = %105
  %111 = getelementptr inbounds %"class.base::RefCountedThreadSafe.32", %"class.base::RefCountedThreadSafe.32"* %106, i64 -2
  %112 = bitcast %"class.base::RefCountedThreadSafe.32"* %111 to %"class.base::TaskRunner"*
  call void @_ZN4base16TaskRunnerTraits8DestructEPKNS_10TaskRunnerE(%"class.base::TaskRunner"* %112) #9
  br label %113

113:                                              ; preds = %103, %105, %110
  ret void
}

; Function Attrs: nounwind ssp uwtable
define linkonce_odr hidden void @_ZN4base8internal7InvokerINS0_9BindStateIMN13leveldb_proto21ProtoDatabaseSelectorEFvRKNS_17RepeatingCallbackIFbRKNSt3__112basic_stringIcNS6_11char_traitsIcEENS6_9allocatorIcEEEEEEERKN7leveldb11ReadOptionsESE_NS_12OnceCallbackIFvbNS6_10unique_ptrINS6_6vectorISC_NSA_ISC_EEEENS6_14default_deleteISR_EEEEEEEEJ13scoped_refptrIS4_ESG_SK_SC_SW_EEEFvvEE7RunOnceEPNS0_13BindStateBaseE(%"class.base::internal::BindStateBase"*) #0 comdat align 2 {
  %2 = alloca %"class.base::OnceCallback.327", align 8
  %3 = getelementptr inbounds %"class.base::internal::BindStateBase", %"class.base::internal::BindStateBase"* %0, i64 1
  %4 = getelementptr inbounds %"class.base::internal::BindStateBase", %"class.base::internal::BindStateBase"* %0, i64 1, i32 2
  %5 = getelementptr inbounds void (%"class.base::internal::BindStateBase"*)*, void (%"class.base::internal::BindStateBase"*)** %4, i64 1
  %6 = bitcast void (%"class.base::internal::BindStateBase"*)** %5 to %"class.base::RepeatingCallback.324"*
  %7 = getelementptr inbounds void (%"class.base::internal::BindStateBase"*)*, void (%"class.base::internal::BindStateBase"*)** %4, i64 2
  %8 = bitcast void (%"class.base::internal::BindStateBase"*)** %7 to %"struct.leveldb::ReadOptions"*
  %9 = getelementptr inbounds void (%"class.base::internal::BindStateBase"*)*, void (%"class.base::internal::BindStateBase"*)** %4, i64 4
  %10 = bitcast void (%"class.base::internal::BindStateBase"*)** %9 to %"class.std::__1::basic_string"*
  %11 = getelementptr inbounds void (%"class.base::internal::BindStateBase"*)*, void (%"class.base::internal::BindStateBase"*)** %4, i64 7
  %12 = bitcast %"class.base::internal::BindStateBase"* %3 to i64*
  %13 = load i64, i64* %12, align 8
  %14 = getelementptr inbounds %"class.base::internal::BindStateBase", %"class.base::internal::BindStateBase"* %0, i64 1, i32 1
  %15 = bitcast void ()** %14 to i64*
  %16 = load i64, i64* %15, align 8
  %17 = bitcast %"class.base::OnceCallback.327"* %2 to i8*
  call void @llvm.lifetime.start.p0i8(i64 8, i8* nonnull %17) #9
  %18 = bitcast void (%"class.base::internal::BindStateBase"*)** %4 to i8**
  %19 = load i8*, i8** %18, align 8
  %20 = getelementptr inbounds i8, i8* %19, i64 %16
  %21 = bitcast i8* %20 to %"class.leveldb_proto::ProtoDatabaseSelector"*
  %22 = and i64 %13, 1
  %23 = icmp eq i64 %22, 0
  br i1 %23, label %31, label %24

24:                                               ; preds = %1
  %25 = bitcast i8* %20 to i8**
  %26 = load i8*, i8** %25, align 8
  %27 = add i64 %13, -1
  %28 = getelementptr i8, i8* %26, i64 %27
  %29 = bitcast i8* %28 to void (%"class.leveldb_proto::ProtoDatabaseSelector"*, %"class.base::RepeatingCallback.324"*, %"struct.leveldb::ReadOptions"*, %"class.std::__1::basic_string"*, %"class.base::OnceCallback.327"*)**
  %30 = load void (%"class.leveldb_proto::ProtoDatabaseSelector"*, %"class.base::RepeatingCallback.324"*, %"struct.leveldb::ReadOptions"*, %"class.std::__1::basic_string"*, %"class.base::OnceCallback.327"*)*, void (%"class.leveldb_proto::ProtoDatabaseSelector"*, %"class.base::RepeatingCallback.324"*, %"struct.leveldb::ReadOptions"*, %"class.std::__1::basic_string"*, %"class.base::OnceCallback.327"*)** %29, align 8
  br label %33

31:                                               ; preds = %1
  %32 = inttoptr i64 %13 to void (%"class.leveldb_proto::ProtoDatabaseSelector"*, %"class.base::RepeatingCallback.324"*, %"struct.leveldb::ReadOptions"*, %"class.std::__1::basic_string"*, %"class.base::OnceCallback.327"*)*
  br label %33

33:                                               ; preds = %24, %31
  %34 = phi void (%"class.leveldb_proto::ProtoDatabaseSelector"*, %"class.base::RepeatingCallback.324"*, %"struct.leveldb::ReadOptions"*, %"class.std::__1::basic_string"*, %"class.base::OnceCallback.327"*)* [ %30, %24 ], [ %32, %31 ]
  %35 = bitcast void (%"class.base::internal::BindStateBase"*)** %11 to %"class.base::internal::BindStateBase"**
  %36 = bitcast void (%"class.base::internal::BindStateBase"*)** %11 to i64*
  %37 = load i64, i64* %36, align 8
  %38 = bitcast %"class.base::OnceCallback.327"* %2 to i64*
  store i64 %37, i64* %38, align 8
  store %"class.base::internal::BindStateBase"* null, %"class.base::internal::BindStateBase"** %35, align 8
  call void %34(%"class.leveldb_proto::ProtoDatabaseSelector"* %21, %"class.base::RepeatingCallback.324"* dereferenceable(8) %6, %"struct.leveldb::ReadOptions"* dereferenceable(16) %8, %"class.std::__1::basic_string"* dereferenceable(24) %10, %"class.base::OnceCallback.327"* nonnull %2) #9
  %39 = getelementptr inbounds %"class.base::OnceCallback.327", %"class.base::OnceCallback.327"* %2, i64 0, i32 0
  call void @_ZN4base8internal12CallbackBaseD2Ev(%"class.base::internal::CallbackBase"* nonnull %39) #9
  call void @llvm.lifetime.end.p0i8(i64 8, i8* nonnull %17) #9
  ret void
}

; Function Attrs: nounwind ssp uwtable
define linkonce_odr hidden void @_ZN4base8internal9BindStateIMN13leveldb_proto21ProtoDatabaseSelectorEFvRKNS_17RepeatingCallbackIFbRKNSt3__112basic_stringIcNS5_11char_traitsIcEENS5_9allocatorIcEEEEEEERKN7leveldb11ReadOptionsESD_NS_12OnceCallbackIFvbNS5_10unique_ptrINS5_6vectorISB_NS9_ISB_EEEENS5_14default_deleteISQ_EEEEEEEEJ13scoped_refptrIS3_ESF_SJ_SB_SV_EE7DestroyEPKNS0_13BindStateBaseE(%"class.base::internal::BindStateBase"*) #0 comdat align 2 {
  %2 = icmp eq %"class.base::internal::BindStateBase"* %0, null
  br i1 %2, label %29, label %3

3:                                                ; preds = %1
  %4 = getelementptr inbounds %"class.base::internal::BindStateBase", %"class.base::internal::BindStateBase"* %0, i64 3, i32 1
  %5 = bitcast void ()** %4 to %"class.base::internal::CallbackBase"*
  tail call void @_ZN4base8internal12CallbackBaseD2Ev(%"class.base::internal::CallbackBase"* %5) #9
  %6 = getelementptr inbounds %"class.base::internal::BindStateBase", %"class.base::internal::BindStateBase"* %0, i64 2, i32 2
  %7 = bitcast void (%"class.base::internal::BindStateBase"*)** %6 to %"struct.std::__1::basic_string<char, std::__1::char_traits<char>, std::__1::allocator<char> >::__short"*
  %8 = getelementptr inbounds %"struct.std::__1::basic_string<char, std::__1::char_traits<char>, std::__1::allocator<char> >::__short", %"struct.std::__1::basic_string<char, std::__1::char_traits<char>, std::__1::allocator<char> >::__short"* %7, i64 0, i32 1, i32 0
  %9 = load i8, i8* %8, align 1
  %10 = icmp slt i8 %9, 0
  br i1 %10, label %11, label %14

11:                                               ; preds = %3
  %12 = bitcast void (%"class.base::internal::BindStateBase"*)** %6 to i8**
  %13 = load i8*, i8** %12, align 8
  tail call void @_ZdlPv(i8* %13) #10
  br label %14

14:                                               ; preds = %11, %3
  %15 = getelementptr inbounds %"class.base::internal::BindStateBase", %"class.base::internal::BindStateBase"* %0, i64 1, i32 3
  %16 = bitcast i1 (%"class.base::internal::BindStateBase"*, i32)** %15 to %"class.base::internal::CallbackBase"*
  tail call void @_ZN4base8internal12CallbackBaseD2Ev(%"class.base::internal::CallbackBase"* %16) #9
  %17 = getelementptr inbounds %"class.base::internal::BindStateBase", %"class.base::internal::BindStateBase"* %0, i64 1, i32 2
  %18 = bitcast void (%"class.base::internal::BindStateBase"*)** %17 to %"class.leveldb_proto::ProtoDatabaseSelector"**
  %19 = load %"class.leveldb_proto::ProtoDatabaseSelector"*, %"class.leveldb_proto::ProtoDatabaseSelector"** %18, align 8
  %20 = icmp eq %"class.leveldb_proto::ProtoDatabaseSelector"* %19, null
  br i1 %20, label %27, label %21

21:                                               ; preds = %14
  %22 = getelementptr inbounds %"class.leveldb_proto::ProtoDatabaseSelector", %"class.leveldb_proto::ProtoDatabaseSelector"* %19, i64 0, i32 0, i32 0, i32 0, i32 0, i32 0, i32 0, i32 0, i32 0, i32 0
  %23 = atomicrmw sub i32* %22, i32 1 acq_rel
  %24 = icmp eq i32 %23, 1
  br i1 %24, label %25, label %27

25:                                               ; preds = %21
  tail call void @_ZN13leveldb_proto21ProtoDatabaseSelectorD1Ev(%"class.leveldb_proto::ProtoDatabaseSelector"* nonnull %19) #9
  %26 = bitcast %"class.leveldb_proto::ProtoDatabaseSelector"* %19 to i8*
  tail call void @_ZdlPv(i8* %26) #10
  br label %27

27:                                               ; preds = %14, %21, %25
  %28 = bitcast %"class.base::internal::BindStateBase"* %0 to i8*
  tail call void @_ZdlPv(i8* %28) #10
  br label %29

29:                                               ; preds = %27, %1
  ret void
}

; Function Attrs: nounwind ssp uwtable
define linkonce_odr hidden void @_ZN4base8internal7InvokerINS0_9BindStateIPFv13scoped_refptrINS_19SequencedTaskRunnerEENS_12OnceCallbackIFvbNSt3__110unique_ptrINS7_6vectorIN13notifications9IconEntryENS7_9allocatorISB_EEEENS7_14default_deleteISE_EEEEEEEbNS8_INS9_INS7_12basic_stringIcNS7_11char_traitsIcEENSC_IcEEEENSC_ISO_EEEENSF_ISQ_EEEEEJS5_SJ_EEEFvbSS_EE7RunOnceEPNS0_13BindStateBaseEbOSS_(%"class.base::internal::BindStateBase"*, i1 zeroext, %"class.std::__1::unique_ptr.310"* dereferenceable(8)) #0 comdat align 2 {
  %4 = alloca %"class.base::OnceCallback.325", align 8
  %5 = getelementptr inbounds %"class.base::internal::BindStateBase", %"class.base::internal::BindStateBase"* %0, i64 1
  %6 = bitcast %"class.base::internal::BindStateBase"* %5 to void (%"class.base::SequencedTaskRunner"*, %"class.base::OnceCallback.325"*, i1, %"class.std::__1::vector.313"*)**
  %7 = getelementptr inbounds %"class.base::internal::BindStateBase", %"class.base::internal::BindStateBase"* %0, i64 1, i32 1
  %8 = getelementptr inbounds void ()*, void ()** %7, i64 1
  %9 = bitcast %"class.base::OnceCallback.325"* %4 to i8*
  call void @llvm.lifetime.start.p0i8(i64 8, i8* nonnull %9) #9
  %10 = load void (%"class.base::SequencedTaskRunner"*, %"class.base::OnceCallback.325"*, i1, %"class.std::__1::vector.313"*)*, void (%"class.base::SequencedTaskRunner"*, %"class.base::OnceCallback.325"*, i1, %"class.std::__1::vector.313"*)** %6, align 8
  %11 = bitcast void ()** %7 to %"class.base::SequencedTaskRunner"**
  %12 = load %"class.base::SequencedTaskRunner"*, %"class.base::SequencedTaskRunner"** %11, align 8
  store %"class.base::SequencedTaskRunner"* null, %"class.base::SequencedTaskRunner"** %11, align 8
  %13 = bitcast void ()** %8 to %"class.base::internal::BindStateBase"**
  %14 = bitcast void ()** %8 to i64*
  %15 = load i64, i64* %14, align 8
  %16 = bitcast %"class.base::OnceCallback.325"* %4 to i64*
  store i64 %15, i64* %16, align 8
  store %"class.base::internal::BindStateBase"* null, %"class.base::internal::BindStateBase"** %13, align 8
  %17 = getelementptr inbounds %"class.std::__1::unique_ptr.310", %"class.std::__1::unique_ptr.310"* %2, i64 0, i32 0, i32 0, i32 0
  %18 = load %"class.std::__1::vector.313"*, %"class.std::__1::vector.313"** %17, align 8
  store %"class.std::__1::vector.313"* null, %"class.std::__1::vector.313"** %17, align 8
  call void %10(%"class.base::SequencedTaskRunner"* %12, %"class.base::OnceCallback.325"* nonnull %4, i1 zeroext %1, %"class.std::__1::vector.313"* %18) #9
  %19 = getelementptr inbounds %"class.base::OnceCallback.325", %"class.base::OnceCallback.325"* %4, i64 0, i32 0
  call void @_ZN4base8internal12CallbackBaseD2Ev(%"class.base::internal::CallbackBase"* nonnull %19) #9
  call void @llvm.lifetime.end.p0i8(i64 8, i8* nonnull %9) #9
  ret void
}

; Function Attrs: nounwind ssp uwtable
define linkonce_odr hidden void @_ZN4base8internal9BindStateIPFv13scoped_refptrINS_19SequencedTaskRunnerEENS_12OnceCallbackIFvbNSt3__110unique_ptrINS6_6vectorIN13notifications9IconEntryENS6_9allocatorISA_EEEENS6_14default_deleteISD_EEEEEEEbNS7_INS8_INS6_12basic_stringIcNS6_11char_traitsIcEENSB_IcEEEENSB_ISN_EEEENSE_ISP_EEEEEJS4_SI_EE7DestroyEPKNS0_13BindStateBaseE(%"class.base::internal::BindStateBase"*) #0 comdat align 2 {
  %2 = icmp eq %"class.base::internal::BindStateBase"* %0, null
  br i1 %2, label %20, label %3

3:                                                ; preds = %1
  %4 = getelementptr inbounds %"class.base::internal::BindStateBase", %"class.base::internal::BindStateBase"* %0, i64 1, i32 2
  %5 = bitcast void (%"class.base::internal::BindStateBase"*)** %4 to %"class.base::internal::CallbackBase"*
  tail call void @_ZN4base8internal12CallbackBaseD2Ev(%"class.base::internal::CallbackBase"* %5) #9
  %6 = getelementptr inbounds %"class.base::internal::BindStateBase", %"class.base::internal::BindStateBase"* %0, i64 1, i32 1
  %7 = bitcast void ()** %6 to %"class.base::SequencedTaskRunner"**
  %8 = load %"class.base::SequencedTaskRunner"*, %"class.base::SequencedTaskRunner"** %7, align 8
  %9 = icmp eq %"class.base::SequencedTaskRunner"* %8, null
  br i1 %9, label %18, label %10

10:                                               ; preds = %3
  %11 = getelementptr inbounds %"class.base::SequencedTaskRunner", %"class.base::SequencedTaskRunner"* %8, i64 0, i32 0, i32 1
  %12 = getelementptr inbounds %"class.base::RefCountedThreadSafe.32", %"class.base::RefCountedThreadSafe.32"* %11, i64 0, i32 0, i32 0, i32 0, i32 0, i32 0, i32 0, i32 0, i32 0
  %13 = atomicrmw sub i32* %12, i32 1 acq_rel
  %14 = icmp eq i32 %13, 1
  br i1 %14, label %15, label %18

15:                                               ; preds = %10
  %16 = getelementptr inbounds %"class.base::RefCountedThreadSafe.32", %"class.base::RefCountedThreadSafe.32"* %11, i64 -2
  %17 = bitcast %"class.base::RefCountedThreadSafe.32"* %16 to %"class.base::TaskRunner"*
  tail call void @_ZN4base16TaskRunnerTraits8DestructEPKNS_10TaskRunnerE(%"class.base::TaskRunner"* %17) #9
  br label %18

18:                                               ; preds = %3, %10, %15
  %19 = bitcast %"class.base::internal::BindStateBase"* %0 to i8*
  tail call void @_ZdlPv(i8* %19) #10
  br label %20

20:                                               ; preds = %18, %1
  ret void
}

declare void @_ZN13notifications9IconEntryC1Ev(%"struct.notifications::IconEntry"*) unnamed_addr #1

; Function Attrs: nounwind ssp uwtable
define internal fastcc zeroext i1 @_ZN13leveldb_proto12_GLOBAL__N_117ParseToClientTypeIN13notifications5proto4IconENS2_9IconEntryELPv0EEEbRKNSt3__112basic_stringIcNS7_11char_traitsIcEENS7_9allocatorIcEEEEPT0_(%"class.std::__1::basic_string"* dereferenceable(24), %"struct.notifications::IconEntry"*) unnamed_addr #0 {
  %3 = alloca %"class.notifications::proto::Icon", align 8
  %4 = alloca %"class.notifications::proto::Icon", align 8
  %5 = bitcast %"class.notifications::proto::Icon"* %4 to i8*
  call void @llvm.lifetime.start.p0i8(i64 32, i8* nonnull %5) #9
  %6 = bitcast %"class.notifications::proto::Icon"* %4 to i8*
  call void @llvm.memset.p0i8.i64(i8* nonnull align 8 %6, i8 -86, i64 32, i1 false)
  call void @_ZN13notifications5proto4IconC2EPN6google8protobuf5ArenaE(%"class.notifications::proto::Icon"* nonnull %4, %"class.google::protobuf::Arena"* null) #9
  %7 = getelementptr inbounds %"class.notifications::proto::Icon", %"class.notifications::proto::Icon"* %4, i64 0, i32 0
  %8 = call zeroext i1 @_ZN6google8protobuf11MessageLite15ParseFromStringERKNSt3__112basic_stringIcNS2_11char_traitsIcEENS2_9allocatorIcEEEE(%"class.google::protobuf::MessageLite"* nonnull %7, %"class.std::__1::basic_string"* dereferenceable(24) %0) #9
  br i1 %8, label %43, label %9

9:                                                ; preds = %2
  %10 = bitcast %"class.notifications::proto::Icon"* %3 to i8*
  call void @llvm.lifetime.start.p0i8(i64 32, i8* nonnull %10) #9
  call void @_ZN13notifications5proto4IconC2EPN6google8protobuf5ArenaE(%"class.notifications::proto::Icon"* nonnull %3, %"class.google::protobuf::Arena"* null) #9
  %11 = getelementptr inbounds %"class.notifications::proto::Icon", %"class.notifications::proto::Icon"* %4, i64 0, i32 0, i32 1
  %12 = bitcast %"class.google::protobuf::internal::InternalMetadata"* %11 to i64*
  %13 = load i64, i64* %12, align 8
  %14 = and i64 %13, 1
  %15 = icmp eq i64 %14, 0
  %16 = and i64 %13, -2
  br i1 %15, label %21, label %17, !prof !119

17:                                               ; preds = %9
  %18 = inttoptr i64 %16 to %"struct.google::protobuf::internal::InternalMetadata::ContainerBase"*
  %19 = getelementptr inbounds %"struct.google::protobuf::internal::InternalMetadata::ContainerBase", %"struct.google::protobuf::internal::InternalMetadata::ContainerBase"* %18, i64 0, i32 0
  %20 = load %"class.google::protobuf::Arena"*, %"class.google::protobuf::Arena"** %19, align 8
  br label %23

21:                                               ; preds = %9
  %22 = inttoptr i64 %16 to %"class.google::protobuf::Arena"*
  br label %23

23:                                               ; preds = %21, %17
  %24 = phi %"class.google::protobuf::Arena"* [ %20, %17 ], [ %22, %21 ]
  %25 = getelementptr inbounds %"class.notifications::proto::Icon", %"class.notifications::proto::Icon"* %3, i64 0, i32 0, i32 1
  %26 = bitcast %"class.google::protobuf::internal::InternalMetadata"* %25 to i64*
  %27 = load i64, i64* %26, align 8
  %28 = and i64 %27, 1
  %29 = icmp eq i64 %28, 0
  %30 = and i64 %27, -2
  br i1 %29, label %35, label %31, !prof !119

31:                                               ; preds = %23
  %32 = inttoptr i64 %30 to %"struct.google::protobuf::internal::InternalMetadata::ContainerBase"*
  %33 = getelementptr inbounds %"struct.google::protobuf::internal::InternalMetadata::ContainerBase", %"struct.google::protobuf::internal::InternalMetadata::ContainerBase"* %32, i64 0, i32 0
  %34 = load %"class.google::protobuf::Arena"*, %"class.google::protobuf::Arena"** %33, align 8
  br label %37

35:                                               ; preds = %23
  %36 = inttoptr i64 %30 to %"class.google::protobuf::Arena"*
  br label %37

37:                                               ; preds = %35, %31
  %38 = phi %"class.google::protobuf::Arena"* [ %34, %31 ], [ %36, %35 ]
  %39 = icmp eq %"class.google::protobuf::Arena"* %24, %38
  br i1 %39, label %40, label %41

40:                                               ; preds = %37
  call void @_ZN13notifications5proto4Icon12InternalSwapEPS1_(%"class.notifications::proto::Icon"* nonnull %4, %"class.notifications::proto::Icon"* nonnull %3) #9
  br label %42

41:                                               ; preds = %37
  call void @_ZN13notifications5proto4Icon8CopyFromERKS1_(%"class.notifications::proto::Icon"* nonnull %4, %"class.notifications::proto::Icon"* nonnull dereferenceable(32) %3) #9
  br label %42

42:                                               ; preds = %40, %41
  call void @_ZN13notifications5proto4IconD1Ev(%"class.notifications::proto::Icon"* nonnull %3) #9
  call void @llvm.lifetime.end.p0i8(i64 32, i8* nonnull %10) #9
  br label %44

43:                                               ; preds = %2
  call void @_ZN13leveldb_proto11ProtoToDataEPN13notifications5proto4IconEPNS0_9IconEntryE(%"class.notifications::proto::Icon"* nonnull %4, %"struct.notifications::IconEntry"* %1) #9
  br label %44

44:                                               ; preds = %42, %43
  %45 = phi i1 [ true, %43 ], [ false, %42 ]
  call void @_ZN13notifications5proto4IconD1Ev(%"class.notifications::proto::Icon"* nonnull %4) #9
  call void @llvm.lifetime.end.p0i8(i64 32, i8* nonnull %5) #9
  ret i1 %45
}

; Function Attrs: inlinehint nounwind ssp uwtable
define linkonce_odr hidden void @_ZNSt3__16vectorIN13notifications9IconEntryENS_9allocatorIS2_EEE24__emplace_back_slow_pathIJS2_EEEvDpOT_(%"class.std::__1::vector.408"*, %"struct.notifications::IconEntry"* dereferenceable(24)) local_unnamed_addr #6 comdat align 2 {
  %3 = getelementptr inbounds %"class.std::__1::vector.408", %"class.std::__1::vector.408"* %0, i64 0, i32 0, i32 1
  %4 = bitcast %"struct.notifications::IconEntry"** %3 to i64*
  %5 = load i64, i64* %4, align 8
  %6 = bitcast %"class.std::__1::vector.408"* %0 to i64*
  %7 = load i64, i64* %6, align 8
  %8 = sub i64 %5, %7
  %9 = sdiv exact i64 %8, 24
  %10 = add nsw i64 %9, 1
  %11 = icmp ugt i64 %10, 768614336404564650
  br i1 %11, label %12, label %14

12:                                               ; preds = %2
  %13 = bitcast %"class.std::__1::vector.408"* %0 to %"class.std::__1::__vector_base_common"*
  tail call void @_ZNKSt3__120__vector_base_commonILb1EE20__throw_length_errorEv(%"class.std::__1::__vector_base_common"* %13) #11
  unreachable

14:                                               ; preds = %2
  %15 = getelementptr inbounds %"class.std::__1::vector.408", %"class.std::__1::vector.408"* %0, i64 0, i32 0, i32 2, i32 0, i32 0
  %16 = bitcast %"struct.notifications::IconEntry"** %15 to i64*
  %17 = load i64, i64* %16, align 8
  %18 = sub i64 %17, %7
  %19 = sdiv exact i64 %18, 24
  %20 = icmp ult i64 %19, 384307168202282325
  br i1 %20, label %21, label %26

21:                                               ; preds = %14
  %22 = shl nsw i64 %19, 1
  %23 = icmp ult i64 %22, %10
  %24 = select i1 %23, i64 %10, i64 %22
  %25 = icmp eq i64 %24, 0
  br i1 %25, label %31, label %26

26:                                               ; preds = %14, %21
  %27 = phi i64 [ %24, %21 ], [ 768614336404564650, %14 ]
  %28 = mul i64 %27, 24
  %29 = tail call i8* @_Znwm(i64 %28) #10
  %30 = bitcast i8* %29 to %"struct.notifications::IconEntry"*
  br label %31

31:                                               ; preds = %21, %26
  %32 = phi i64 [ %27, %26 ], [ 0, %21 ]
  %33 = phi %"struct.notifications::IconEntry"* [ %30, %26 ], [ null, %21 ]
  %34 = getelementptr inbounds %"struct.notifications::IconEntry", %"struct.notifications::IconEntry"* %33, i64 %9
  %35 = getelementptr inbounds %"struct.notifications::IconEntry", %"struct.notifications::IconEntry"* %33, i64 %32
  %36 = ptrtoint %"struct.notifications::IconEntry"* %35 to i64
  tail call void @_ZN13notifications9IconEntryC1EOS0_(%"struct.notifications::IconEntry"* %34, %"struct.notifications::IconEntry"* dereferenceable(24) %1) #9
  %37 = getelementptr inbounds %"struct.notifications::IconEntry", %"struct.notifications::IconEntry"* %34, i64 1
  %38 = ptrtoint %"struct.notifications::IconEntry"* %37 to i64
  %39 = getelementptr inbounds %"class.std::__1::vector.408", %"class.std::__1::vector.408"* %0, i64 0, i32 0, i32 0
  %40 = load %"struct.notifications::IconEntry"*, %"struct.notifications::IconEntry"** %39, align 8
  %41 = load %"struct.notifications::IconEntry"*, %"struct.notifications::IconEntry"** %3, align 8
  %42 = icmp eq %"struct.notifications::IconEntry"* %41, %40
  br i1 %42, label %43, label %45

43:                                               ; preds = %31
  %44 = ptrtoint %"struct.notifications::IconEntry"* %40 to i64
  br label %54

45:                                               ; preds = %31, %45
  %46 = phi %"struct.notifications::IconEntry"* [ %48, %45 ], [ %34, %31 ]
  %47 = phi %"struct.notifications::IconEntry"* [ %49, %45 ], [ %41, %31 ]
  %48 = getelementptr inbounds %"struct.notifications::IconEntry", %"struct.notifications::IconEntry"* %46, i64 -1
  %49 = getelementptr inbounds %"struct.notifications::IconEntry", %"struct.notifications::IconEntry"* %47, i64 -1
  tail call void @_ZN13notifications9IconEntryC1EOS0_(%"struct.notifications::IconEntry"* %48, %"struct.notifications::IconEntry"* dereferenceable(24) %49) #9
  %50 = icmp eq %"struct.notifications::IconEntry"* %49, %40
  br i1 %50, label %51, label %45

51:                                               ; preds = %45
  %52 = load i64, i64* %6, align 8
  %53 = load %"struct.notifications::IconEntry"*, %"struct.notifications::IconEntry"** %3, align 8
  br label %54

54:                                               ; preds = %43, %51
  %55 = phi %"struct.notifications::IconEntry"* [ %40, %43 ], [ %53, %51 ]
  %56 = phi %"struct.notifications::IconEntry"* [ %34, %43 ], [ %48, %51 ]
  %57 = phi i64 [ %44, %43 ], [ %52, %51 ]
  %58 = ptrtoint %"struct.notifications::IconEntry"* %56 to i64
  store i64 %58, i64* %6, align 8
  store i64 %38, i64* %4, align 8
  store i64 %36, i64* %16, align 8
  %59 = inttoptr i64 %57 to %"struct.notifications::IconEntry"*
  %60 = icmp eq %"struct.notifications::IconEntry"* %55, %59
  br i1 %60, label %73, label %61

61:                                               ; preds = %54, %71
  %62 = phi %"struct.notifications::IconEntry"* [ %63, %71 ], [ %55, %54 ]
  %63 = getelementptr inbounds %"struct.notifications::IconEntry", %"struct.notifications::IconEntry"* %62, i64 -1
  %64 = bitcast %"struct.notifications::IconEntry"* %63 to %"struct.std::__1::basic_string<char, std::__1::char_traits<char>, std::__1::allocator<char> >::__short"*
  %65 = getelementptr inbounds %"struct.std::__1::basic_string<char, std::__1::char_traits<char>, std::__1::allocator<char> >::__short", %"struct.std::__1::basic_string<char, std::__1::char_traits<char>, std::__1::allocator<char> >::__short"* %64, i64 0, i32 1, i32 0
  %66 = load i8, i8* %65, align 1
  %67 = icmp slt i8 %66, 0
  br i1 %67, label %68, label %71

68:                                               ; preds = %61
  %69 = getelementptr inbounds %"struct.notifications::IconEntry", %"struct.notifications::IconEntry"* %63, i64 0, i32 0, i32 0, i32 0, i32 0, i32 0, i32 0, i32 0
  %70 = load i8*, i8** %69, align 8
  tail call void @_ZdlPv(i8* %70) #10
  br label %71

71:                                               ; preds = %68, %61
  %72 = icmp eq %"struct.notifications::IconEntry"* %63, %59
  br i1 %72, label %73, label %61

73:                                               ; preds = %71, %54
  %74 = icmp eq i64 %57, 0
  br i1 %74, label %77, label %75

75:                                               ; preds = %73
  %76 = inttoptr i64 %57 to i8*
  tail call void @_ZdlPv(i8* %76) #10
  br label %77

77:                                               ; preds = %73, %75
  ret void
}

declare void @_ZN13notifications9IconEntryC1EOS0_(%"struct.notifications::IconEntry"*, %"struct.notifications::IconEntry"* dereferenceable(24)) unnamed_addr #1

declare void @_ZN13leveldb_proto11ProtoToDataEPN13notifications5proto4IconEPNS0_9IconEntryE(%"class.notifications::proto::Icon"*, %"struct.notifications::IconEntry"*) local_unnamed_addr #1

declare zeroext i1 @_ZN6google8protobuf11MessageLite15ParseFromStringERKNSt3__112basic_stringIcNS2_11char_traitsIcEENS2_9allocatorIcEEEE(%"class.google::protobuf::MessageLite"*, %"class.std::__1::basic_string"* dereferenceable(24)) local_unnamed_addr #1

declare void @_ZN13notifications5proto4Icon12InternalSwapEPS1_(%"class.notifications::proto::Icon"*, %"class.notifications::proto::Icon"*) local_unnamed_addr #1

declare void @_ZN13notifications5proto4Icon8CopyFromERKS1_(%"class.notifications::proto::Icon"*, %"class.notifications::proto::Icon"* dereferenceable(32)) local_unnamed_addr #1

; Function Attrs: nounwind ssp uwtable
define linkonce_odr hidden void @_ZN4base8internal7InvokerINS0_9BindStateINS_12OnceCallbackIFvbNSt3__110unique_ptrINS4_6vectorIN13notifications9IconEntryENS4_9allocatorIS8_EEEENS4_14default_deleteISB_EEEEEEEJbSE_EEEFvvEE7RunOnceEPNS0_13BindStateBaseE(%"class.base::internal::BindStateBase"*) #0 comdat align 2 {
  %2 = getelementptr inbounds %"class.base::internal::BindStateBase", %"class.base::internal::BindStateBase"* %0, i64 1
  %3 = bitcast %"class.base::internal::BindStateBase"* %2 to %"class.base::OnceCallback.325"*
  %4 = getelementptr inbounds %"class.base::internal::BindStateBase", %"class.base::internal::BindStateBase"* %0, i64 1, i32 1
  %5 = bitcast void ()** %4 to i8*
  %6 = getelementptr inbounds void ()*, void ()** %4, i64 1
  %7 = load i8, i8* %5, align 1, !range !2
  %8 = icmp ne i8 %7, 0
  %9 = bitcast void ()** %6 to %"class.std::__1::vector.408"**
  %10 = load %"class.std::__1::vector.408"*, %"class.std::__1::vector.408"** %9, align 8
  store %"class.std::__1::vector.408"* null, %"class.std::__1::vector.408"** %9, align 8
  tail call void @_ZNO4base12OnceCallbackIFvbNSt3__110unique_ptrINS1_6vectorIN13notifications9IconEntryENS1_9allocatorIS5_EEEENS1_14default_deleteIS8_EEEEEE3RunEbSB_(%"class.base::OnceCallback.325"* %3, i1 zeroext %8, %"class.std::__1::vector.408"* %10) #9
  ret void
}

; Function Attrs: nounwind ssp uwtable
define linkonce_odr hidden void @_ZNO4base12OnceCallbackIFvbNSt3__110unique_ptrINS1_6vectorIN13notifications9IconEntryENS1_9allocatorIS5_EEEENS1_14default_deleteIS8_EEEEEE3RunEbSB_(%"class.base::OnceCallback.325"*, i1 zeroext, %"class.std::__1::vector.408"*) local_unnamed_addr #0 comdat align 2 {
  %4 = alloca %"class.std::__1::unique_ptr.405", align 8
  %5 = alloca %"class.base::OnceCallback.325", align 8
  %6 = getelementptr inbounds %"class.std::__1::unique_ptr.405", %"class.std::__1::unique_ptr.405"* %4, i64 0, i32 0, i32 0, i32 0
  store %"class.std::__1::vector.408"* %2, %"class.std::__1::vector.408"** %6, align 8
  %7 = bitcast %"class.base::OnceCallback.325"* %5 to i8*
  call void @llvm.lifetime.start.p0i8(i64 8, i8* nonnull %7) #9
  %8 = getelementptr inbounds %"class.base::OnceCallback.325", %"class.base::OnceCallback.325"* %0, i64 0, i32 0, i32 0, i32 0
  %9 = bitcast %"class.base::OnceCallback.325"* %0 to i64*
  %10 = load i64, i64* %9, align 8
  %11 = bitcast %"class.base::OnceCallback.325"* %5 to i64*
  store i64 %10, i64* %11, align 8
  store %"class.base::internal::BindStateBase"* null, %"class.base::internal::BindStateBase"** %8, align 8
  %12 = getelementptr inbounds %"class.base::OnceCallback.325", %"class.base::OnceCallback.325"* %5, i64 0, i32 0
  %13 = inttoptr i64 %10 to %"class.base::internal::BindStateBase"*
  %14 = getelementptr inbounds %"class.base::internal::BindStateBase", %"class.base::internal::BindStateBase"* %13, i64 0, i32 1
  %15 = bitcast void ()** %14 to void (%"class.base::internal::BindStateBase"*, i1, %"class.std::__1::unique_ptr.405"*)**
  %16 = load void (%"class.base::internal::BindStateBase"*, i1, %"class.std::__1::unique_ptr.405"*)*, void (%"class.base::internal::BindStateBase"*, i1, %"class.std::__1::unique_ptr.405"*)** %15, align 8
  call void %16(%"class.base::internal::BindStateBase"* %13, i1 zeroext %1, %"class.std::__1::unique_ptr.405"* nonnull dereferenceable(8) %4) #9
  call void @_ZN4base8internal12CallbackBaseD2Ev(%"class.base::internal::CallbackBase"* nonnull %12) #9
  call void @llvm.lifetime.end.p0i8(i64 8, i8* nonnull %7) #9
  %17 = load %"class.std::__1::vector.408"*, %"class.std::__1::vector.408"** %6, align 8
  store %"class.std::__1::vector.408"* null, %"class.std::__1::vector.408"** %6, align 8
  %18 = icmp eq %"class.std::__1::vector.408"* %17, null
  br i1 %18, label %47, label %19

19:                                               ; preds = %3
  %20 = getelementptr inbounds %"class.std::__1::vector.408", %"class.std::__1::vector.408"* %17, i64 0, i32 0, i32 0
  %21 = load %"struct.notifications::IconEntry"*, %"struct.notifications::IconEntry"** %20, align 8
  %22 = icmp eq %"struct.notifications::IconEntry"* %21, null
  br i1 %22, label %45, label %23

23:                                               ; preds = %19
  %24 = bitcast %"struct.notifications::IconEntry"* %21 to i8*
  %25 = getelementptr inbounds %"class.std::__1::vector.408", %"class.std::__1::vector.408"* %17, i64 0, i32 0, i32 1
  %26 = load %"struct.notifications::IconEntry"*, %"struct.notifications::IconEntry"** %25, align 8
  %27 = icmp eq %"struct.notifications::IconEntry"* %26, %21
  br i1 %27, label %43, label %28

28:                                               ; preds = %23, %38
  %29 = phi %"struct.notifications::IconEntry"* [ %30, %38 ], [ %26, %23 ]
  %30 = getelementptr inbounds %"struct.notifications::IconEntry", %"struct.notifications::IconEntry"* %29, i64 -1
  %31 = bitcast %"struct.notifications::IconEntry"* %30 to %"struct.std::__1::basic_string<char, std::__1::char_traits<char>, std::__1::allocator<char> >::__short"*
  %32 = getelementptr inbounds %"struct.std::__1::basic_string<char, std::__1::char_traits<char>, std::__1::allocator<char> >::__short", %"struct.std::__1::basic_string<char, std::__1::char_traits<char>, std::__1::allocator<char> >::__short"* %31, i64 0, i32 1, i32 0
  %33 = load i8, i8* %32, align 1
  %34 = icmp slt i8 %33, 0
  br i1 %34, label %35, label %38

35:                                               ; preds = %28
  %36 = getelementptr inbounds %"struct.notifications::IconEntry", %"struct.notifications::IconEntry"* %30, i64 0, i32 0, i32 0, i32 0, i32 0, i32 0, i32 0, i32 0
  %37 = load i8*, i8** %36, align 8
  call void @_ZdlPv(i8* %37) #10
  br label %38

38:                                               ; preds = %35, %28
  %39 = icmp eq %"struct.notifications::IconEntry"* %30, %21
  br i1 %39, label %40, label %28

40:                                               ; preds = %38
  %41 = bitcast %"class.std::__1::vector.408"* %17 to i8**
  %42 = load i8*, i8** %41, align 8
  br label %43

43:                                               ; preds = %40, %23
  %44 = phi i8* [ %42, %40 ], [ %24, %23 ]
  store %"struct.notifications::IconEntry"* %21, %"struct.notifications::IconEntry"** %25, align 8
  call void @_ZdlPv(i8* %44) #10
  br label %45

45:                                               ; preds = %43, %19
  %46 = bitcast %"class.std::__1::vector.408"* %17 to i8*
  call void @_ZdlPv(i8* %46) #10
  br label %47

47:                                               ; preds = %3, %45
  ret void
}

; Function Attrs: nounwind ssp uwtable
define linkonce_odr hidden void @_ZN4base8internal9BindStateINS_12OnceCallbackIFvbNSt3__110unique_ptrINS3_6vectorIN13notifications9IconEntryENS3_9allocatorIS7_EEEENS3_14default_deleteISA_EEEEEEEJbSD_EE7DestroyEPKNS0_13BindStateBaseE(%"class.base::internal::BindStateBase"*) #0 comdat align 2 {
  %2 = icmp eq %"class.base::internal::BindStateBase"* %0, null
  br i1 %2, label %41, label %3

3:                                                ; preds = %1
  %4 = getelementptr inbounds %"class.base::internal::BindStateBase", %"class.base::internal::BindStateBase"* %0, i64 1, i32 1
  %5 = getelementptr inbounds void ()*, void ()** %4, i64 1
  %6 = bitcast void ()** %5 to %"class.std::__1::vector.408"**
  %7 = load %"class.std::__1::vector.408"*, %"class.std::__1::vector.408"** %6, align 8
  store %"class.std::__1::vector.408"* null, %"class.std::__1::vector.408"** %6, align 8
  %8 = icmp eq %"class.std::__1::vector.408"* %7, null
  br i1 %8, label %37, label %9

9:                                                ; preds = %3
  %10 = getelementptr inbounds %"class.std::__1::vector.408", %"class.std::__1::vector.408"* %7, i64 0, i32 0, i32 0
  %11 = load %"struct.notifications::IconEntry"*, %"struct.notifications::IconEntry"** %10, align 8
  %12 = icmp eq %"struct.notifications::IconEntry"* %11, null
  br i1 %12, label %35, label %13

13:                                               ; preds = %9
  %14 = bitcast %"struct.notifications::IconEntry"* %11 to i8*
  %15 = getelementptr inbounds %"class.std::__1::vector.408", %"class.std::__1::vector.408"* %7, i64 0, i32 0, i32 1
  %16 = load %"struct.notifications::IconEntry"*, %"struct.notifications::IconEntry"** %15, align 8
  %17 = icmp eq %"struct.notifications::IconEntry"* %16, %11
  br i1 %17, label %33, label %18

18:                                               ; preds = %13, %28
  %19 = phi %"struct.notifications::IconEntry"* [ %20, %28 ], [ %16, %13 ]
  %20 = getelementptr inbounds %"struct.notifications::IconEntry", %"struct.notifications::IconEntry"* %19, i64 -1
  %21 = bitcast %"struct.notifications::IconEntry"* %20 to %"struct.std::__1::basic_string<char, std::__1::char_traits<char>, std::__1::allocator<char> >::__short"*
  %22 = getelementptr inbounds %"struct.std::__1::basic_string<char, std::__1::char_traits<char>, std::__1::allocator<char> >::__short", %"struct.std::__1::basic_string<char, std::__1::char_traits<char>, std::__1::allocator<char> >::__short"* %21, i64 0, i32 1, i32 0
  %23 = load i8, i8* %22, align 1
  %24 = icmp slt i8 %23, 0
  br i1 %24, label %25, label %28

25:                                               ; preds = %18
  %26 = getelementptr inbounds %"struct.notifications::IconEntry", %"struct.notifications::IconEntry"* %20, i64 0, i32 0, i32 0, i32 0, i32 0, i32 0, i32 0, i32 0
  %27 = load i8*, i8** %26, align 8
  tail call void @_ZdlPv(i8* %27) #10
  br label %28

28:                                               ; preds = %25, %18
  %29 = icmp eq %"struct.notifications::IconEntry"* %20, %11
  br i1 %29, label %30, label %18

30:                                               ; preds = %28
  %31 = bitcast %"class.std::__1::vector.408"* %7 to i8**
  %32 = load i8*, i8** %31, align 8
  br label %33

33:                                               ; preds = %30, %13
  %34 = phi i8* [ %32, %30 ], [ %14, %13 ]
  store %"struct.notifications::IconEntry"* %11, %"struct.notifications::IconEntry"** %15, align 8
  tail call void @_ZdlPv(i8* %34) #10
  br label %35

35:                                               ; preds = %33, %9
  %36 = bitcast %"class.std::__1::vector.408"* %7 to i8*
  tail call void @_ZdlPv(i8* %36) #10
  br label %37

37:                                               ; preds = %3, %35
  %38 = getelementptr inbounds %"class.base::internal::BindStateBase", %"class.base::internal::BindStateBase"* %0, i64 1
  %39 = bitcast %"class.base::internal::BindStateBase"* %38 to %"class.base::internal::CallbackBase"*
  tail call void @_ZN4base8internal12CallbackBaseD2Ev(%"class.base::internal::CallbackBase"* %39) #9
  %40 = bitcast %"class.base::internal::BindStateBase"* %0 to i8*
  tail call void @_ZdlPv(i8* %40) #10
  br label %41

41:                                               ; preds = %37, %1
  ret void
}

; Function Attrs: nounwind ssp uwtable
define linkonce_odr hidden zeroext i1 @_ZN4base8internal23QueryCancellationTraitsINS0_9BindStateINS_12OnceCallbackIFvbNSt3__110unique_ptrINS4_6vectorIN13notifications9IconEntryENS4_9allocatorIS8_EEEENS4_14default_deleteISB_EEEEEEEJbSE_EEEEEbPKNS0_13BindStateBaseENSI_21CancellationQueryModeE(%"class.base::internal::BindStateBase"*, i32) #0 comdat {
  %3 = getelementptr inbounds %"class.base::internal::BindStateBase", %"class.base::internal::BindStateBase"* %0, i64 1
  switch i32 %1, label %10 [
    i32 0, label %4
    i32 1, label %7
  ]

4:                                                ; preds = %2
  %5 = bitcast %"class.base::internal::BindStateBase"* %3 to %"class.base::internal::CallbackBase"*
  %6 = tail call zeroext i1 @_ZNK4base8internal12CallbackBase11IsCancelledEv(%"class.base::internal::CallbackBase"* %5) #9
  br label %10

7:                                                ; preds = %2
  %8 = bitcast %"class.base::internal::BindStateBase"* %3 to %"class.base::internal::CallbackBase"*
  %9 = tail call zeroext i1 @_ZNK4base8internal12CallbackBase10MaybeValidEv(%"class.base::internal::CallbackBase"* %8) #9
  br label %10

10:                                               ; preds = %2, %4, %7
  %11 = phi i1 [ %9, %7 ], [ %6, %4 ], [ false, %2 ]
  ret i1 %11
}

declare void @_ZN4base8internal13BindStateBaseC2EPFvvEPFvPKS1_EPFbS5_NS1_21CancellationQueryModeEE(%"class.base::internal::BindStateBase"*, void ()*, void (%"class.base::internal::BindStateBase"*)*, i1 (%"class.base::internal::BindStateBase"*, i32)*) unnamed_addr #1

declare zeroext i1 @_ZNK4base8internal12CallbackBase11IsCancelledEv(%"class.base::internal::CallbackBase"*) local_unnamed_addr #1

declare zeroext i1 @_ZNK4base8internal12CallbackBase10MaybeValidEv(%"class.base::internal::CallbackBase"*) local_unnamed_addr #1

declare void @_ZN13leveldb_proto21ProtoDatabaseSelector28LoadKeysAndEntriesWithFilterERKN4base17RepeatingCallbackIFbRKNSt3__112basic_stringIcNS3_11char_traitsIcEENS3_9allocatorIcEEEEEEERKN7leveldb11ReadOptionsESB_NS1_12OnceCallbackIFvbNS3_10unique_ptrINS3_3mapIS9_S9_NS3_4lessIS9_EENS7_INS3_4pairISA_S9_EEEEEENS3_14default_deleteISS_EEEEEEE(%"class.leveldb_proto::ProtoDatabaseSelector"*, %"class.base::RepeatingCallback.324"* dereferenceable(8), %"struct.leveldb::ReadOptions"* dereferenceable(16), %"class.std::__1::basic_string"* dereferenceable(24), %"class.base::OnceCallback.428"*) #1

; Function Attrs: nounwind ssp uwtable
define internal void @_ZN13leveldb_proto12_GLOBAL__N_125ParseLoadedKeysAndEntriesIN13notifications5proto4IconENS2_9IconEntryEEEv13scoped_refptrIN4base19SequencedTaskRunnerEENS_9Callbacks8InternalIT0_E26LoadKeysAndEntriesCallbackEbNSt3__110unique_ptrINSF_3mapINSF_12basic_stringIcNSF_11char_traitsIcEENSF_9allocatorIcEEEESN_NSF_4lessISN_EENSL_INSF_4pairIKSN_SN_EEEEEENSF_14default_deleteISU_EEEE(%"class.base::SequencedTaskRunner"*, %"class.base::OnceCallback.326"* nocapture, i1 zeroext, %"class.std::__1::map.432"*) #0 {
  %5 = alloca %"class.logging::CheckError", align 8
  %6 = alloca %"struct.notifications::IconEntry", align 8
  %7 = alloca %"class.base::Location", align 8
  %8 = alloca %"class.base::OnceCallback", align 8
  %9 = zext i1 %2 to i8
  %10 = tail call i8* @_Znwm(i64 24) #10
  %11 = getelementptr inbounds i8, i8* %10, i64 8
  tail call void @llvm.memset.p0i8.i64(i8* align 8 %11, i8 0, i64 16, i1 false) #9
  %12 = bitcast i8* %10 to i8**
  store i8* %11, i8** %12, align 8
  %13 = ptrtoint i8* %10 to i64
  %14 = icmp ne %"class.std::__1::map.432"* %3, null
  %15 = and i1 %14, %2
  br i1 %15, label %18, label %16

16:                                               ; preds = %4
  %17 = bitcast i8* %10 to %"class.std::__1::__tree.460"*
  tail call void @_ZNSt3__16__treeINS_12__value_typeINS_12basic_stringIcNS_11char_traitsIcEENS_9allocatorIcEEEEN13notifications9IconEntryEEENS_19__map_value_compareIS7_SA_NS_4lessIS7_EELb1EEENS5_ISA_EEE7destroyEPNS_11__tree_nodeISA_PvEE(%"class.std::__1::__tree.460"* nonnull %17, %"class.std::__1::__tree_node"* null) #9
  tail call void @_ZdlPv(i8* nonnull %10) #10
  br label %75

18:                                               ; preds = %4
  %19 = getelementptr inbounds %"class.std::__1::map.432", %"class.std::__1::map.432"* %3, i64 0, i32 0, i32 0
  %20 = load %"class.std::__1::__tree_end_node"*, %"class.std::__1::__tree_end_node"** %19, align 8
  %21 = getelementptr inbounds %"class.std::__1::map.432", %"class.std::__1::map.432"* %3, i64 0, i32 0, i32 1, i32 0, i32 0
  %22 = icmp eq %"class.std::__1::__tree_end_node"* %20, %21
  br i1 %22, label %75, label %23

23:                                               ; preds = %18
  %24 = bitcast %"struct.notifications::IconEntry"* %6 to i8*
  %25 = bitcast i8* %10 to %"class.std::__1::__tree.460"*
  %26 = bitcast %"struct.notifications::IconEntry"* %6 to %"struct.std::__1::basic_string<char, std::__1::char_traits<char>, std::__1::allocator<char> >::__short"*
  %27 = getelementptr inbounds %"struct.std::__1::basic_string<char, std::__1::char_traits<char>, std::__1::allocator<char> >::__short", %"struct.std::__1::basic_string<char, std::__1::char_traits<char>, std::__1::allocator<char> >::__short"* %26, i64 0, i32 1, i32 0
  %28 = getelementptr inbounds %"struct.notifications::IconEntry", %"struct.notifications::IconEntry"* %6, i64 0, i32 0, i32 0, i32 0, i32 0, i32 0, i32 0, i32 0
  br label %29

29:                                               ; preds = %23, %72
  %30 = phi %"class.std::__1::__tree_end_node"* [ %20, %23 ], [ %73, %72 ]
  %31 = getelementptr inbounds %"class.std::__1::__tree_end_node", %"class.std::__1::__tree_end_node"* %30, i64 4
  %32 = bitcast %"class.std::__1::__tree_end_node"* %31 to %"class.std::__1::basic_string"*
  call void @llvm.lifetime.start.p0i8(i64 24, i8* nonnull %24) #9
  call void @_ZN13notifications9IconEntryC1Ev(%"struct.notifications::IconEntry"* nonnull %6) #9
  %33 = call { %"class.std::__1::__tree_end_node"*, i8 } @_ZNSt3__16__treeINS_12__value_typeINS_12basic_stringIcNS_11char_traitsIcEENS_9allocatorIcEEEEN13notifications9IconEntryEEENS_19__map_value_compareIS7_SA_NS_4lessIS7_EELb1EEENS5_ISA_EEE25__emplace_unique_key_argsIS7_JRKS7_S9_EEENS_4pairINS_15__tree_iteratorISA_PNS_11__tree_nodeISA_PvEElEEbEERKT_DpOT0_(%"class.std::__1::__tree.460"* nonnull %25, %"class.std::__1::basic_string"* dereferenceable(24) %32, %"class.std::__1::basic_string"* dereferenceable(24) %32, %"struct.notifications::IconEntry"* nonnull dereferenceable(24) %6) #9
  %34 = extractvalue { %"class.std::__1::__tree_end_node"*, i8 } %33, 0
  %35 = load i8, i8* %27, align 1
  %36 = icmp slt i8 %35, 0
  br i1 %36, label %37, label %39

37:                                               ; preds = %29
  %38 = load i8*, i8** %28, align 8
  call void @_ZdlPv(i8* %38) #10
  br label %39

39:                                               ; preds = %29, %37
  call void @llvm.lifetime.end.p0i8(i64 24, i8* nonnull %24) #9
  %40 = getelementptr inbounds %"class.std::__1::__tree_end_node", %"class.std::__1::__tree_end_node"* %30, i64 7
  %41 = bitcast %"class.std::__1::__tree_end_node"* %40 to %"class.std::__1::basic_string"*
  %42 = getelementptr inbounds %"class.std::__1::__tree_end_node", %"class.std::__1::__tree_end_node"* %34, i64 7
  %43 = bitcast %"class.std::__1::__tree_end_node"* %42 to %"struct.notifications::IconEntry"*
  %44 = call fastcc zeroext i1 @_ZN13leveldb_proto12_GLOBAL__N_117ParseToClientTypeIN13notifications5proto4IconENS2_9IconEntryELPv0EEEbRKNSt3__112basic_stringIcNS7_11char_traitsIcEENS7_9allocatorIcEEEEPT0_(%"class.std::__1::basic_string"* dereferenceable(24) %41, %"struct.notifications::IconEntry"* %43)
  %45 = getelementptr inbounds %"class.std::__1::__tree_end_node", %"class.std::__1::__tree_end_node"* %30, i64 1, i32 0
  %46 = load %"class.std::__1::__tree_node_base"*, %"class.std::__1::__tree_node_base"** %45, align 8
  %47 = icmp eq %"class.std::__1::__tree_node_base"* %46, null
  br i1 %47, label %48, label %56

48:                                               ; preds = %39
  %49 = bitcast %"class.std::__1::__tree_end_node"* %30 to %"class.std::__1::__tree_node_base"*
  %50 = getelementptr inbounds %"class.std::__1::__tree_end_node", %"class.std::__1::__tree_end_node"* %30, i64 2
  %51 = bitcast %"class.std::__1::__tree_end_node"* %50 to %"class.std::__1::__tree_end_node"**
  %52 = load %"class.std::__1::__tree_end_node"*, %"class.std::__1::__tree_end_node"** %51, align 8
  %53 = getelementptr inbounds %"class.std::__1::__tree_end_node", %"class.std::__1::__tree_end_node"* %52, i64 0, i32 0
  %54 = load %"class.std::__1::__tree_node_base"*, %"class.std::__1::__tree_node_base"** %53, align 8
  %55 = icmp eq %"class.std::__1::__tree_node_base"* %54, %49
  br i1 %55, label %72, label %63

56:                                               ; preds = %39, %56
  %57 = phi %"class.std::__1::__tree_node_base"* [ %59, %56 ], [ %46, %39 ]
  %58 = getelementptr inbounds %"class.std::__1::__tree_node_base", %"class.std::__1::__tree_node_base"* %57, i64 0, i32 0, i32 0
  %59 = load %"class.std::__1::__tree_node_base"*, %"class.std::__1::__tree_node_base"** %58, align 8
  %60 = icmp eq %"class.std::__1::__tree_node_base"* %59, null
  br i1 %60, label %61, label %56

61:                                               ; preds = %56
  %62 = getelementptr inbounds %"class.std::__1::__tree_node_base", %"class.std::__1::__tree_node_base"* %57, i64 0, i32 0
  br label %72

63:                                               ; preds = %48, %63
  %64 = phi %"class.std::__1::__tree_end_node"** [ %67, %63 ], [ %51, %48 ]
  %65 = bitcast %"class.std::__1::__tree_end_node"** %64 to %"class.std::__1::__tree_node_base"**
  %66 = load %"class.std::__1::__tree_node_base"*, %"class.std::__1::__tree_node_base"** %65, align 8
  %67 = getelementptr inbounds %"class.std::__1::__tree_node_base", %"class.std::__1::__tree_node_base"* %66, i64 0, i32 2
  %68 = load %"class.std::__1::__tree_end_node"*, %"class.std::__1::__tree_end_node"** %67, align 8
  %69 = getelementptr inbounds %"class.std::__1::__tree_end_node", %"class.std::__1::__tree_end_node"* %68, i64 0, i32 0
  %70 = load %"class.std::__1::__tree_node_base"*, %"class.std::__1::__tree_node_base"** %69, align 8
  %71 = icmp eq %"class.std::__1::__tree_node_base"* %70, %66
  br i1 %71, label %72, label %63

72:                                               ; preds = %63, %48, %61
  %73 = phi %"class.std::__1::__tree_end_node"* [ %62, %61 ], [ %52, %48 ], [ %68, %63 ]
  %74 = icmp eq %"class.std::__1::__tree_end_node"* %73, %21
  br i1 %74, label %75, label %29

75:                                               ; preds = %72, %18, %16
  %76 = phi i64 [ 0, %16 ], [ %13, %18 ], [ %13, %72 ]
  %77 = bitcast %"class.base::SequencedTaskRunner"* %0 to %"class.base::TaskRunner"*
  %78 = bitcast %"class.base::Location"* %7 to i8*
  call void @llvm.lifetime.start.p0i8(i64 32, i8* nonnull %78) #9
  call void @_ZN4base8Location7CurrentEPKcS2_i(%"class.base::Location"* nonnull sret %7, i8* getelementptr inbounds ([26 x i8], [26 x i8]* @.str.9, i64 0, i64 0), i8* getelementptr inbounds ([62 x i8], [62 x i8]* @.str.3, i64 0, i64 0), i32 301) #9
  %79 = call i8* @_Znwm(i64 56) #10, !noalias !120
  %80 = bitcast i8* %79 to %"class.base::internal::BindStateBase"*
  call void @_ZN4base8internal13BindStateBaseC2EPFvvEPFvPKS1_EPFbS5_NS1_21CancellationQueryModeEE(%"class.base::internal::BindStateBase"* nonnull %80, void ()* bitcast (void (%"class.base::internal::BindStateBase"*)* @_ZN4base8internal7InvokerINS0_9BindStateINS_12OnceCallbackIFvbNSt3__110unique_ptrINS4_3mapINS4_12basic_stringIcNS4_11char_traitsIcEENS4_9allocatorIcEEEEN13notifications9IconEntryENS4_4lessISC_EENSA_INS4_4pairIKSC_SE_EEEEEENS4_14default_deleteISL_EEEEEEEJbSO_EEEFvvEE7RunOnceEPNS0_13BindStateBaseE to void ()*), void (%"class.base::internal::BindStateBase"*)* nonnull @_ZN4base8internal9BindStateINS_12OnceCallbackIFvbNSt3__110unique_ptrINS3_3mapINS3_12basic_stringIcNS3_11char_traitsIcEENS3_9allocatorIcEEEEN13notifications9IconEntryENS3_4lessISB_EENS9_INS3_4pairIKSB_SD_EEEEEENS3_14default_deleteISK_EEEEEEEJbSN_EE7DestroyEPKNS0_13BindStateBaseE, i1 (%"class.base::internal::BindStateBase"*, i32)* nonnull @_ZN4base8internal23QueryCancellationTraitsINS0_9BindStateINS_12OnceCallbackIFvbNSt3__110unique_ptrINS4_3mapINS4_12basic_stringIcNS4_11char_traitsIcEENS4_9allocatorIcEEEEN13notifications9IconEntryENS4_4lessISC_EENSA_INS4_4pairIKSC_SE_EEEEEENS4_14default_deleteISL_EEEEEEEJbSO_EEEEEbPKNS0_13BindStateBaseENSS_21CancellationQueryModeE) #9, !noalias !120
  %81 = getelementptr inbounds i8, i8* %79, i64 32
  %82 = getelementptr inbounds %"class.base::OnceCallback.326", %"class.base::OnceCallback.326"* %1, i64 0, i32 0, i32 0, i32 0
  %83 = bitcast %"class.base::OnceCallback.326"* %1 to i64*
  %84 = load i64, i64* %83, align 8, !noalias !120
  %85 = bitcast i8* %81 to i64*
  store i64 %84, i64* %85, align 8, !noalias !120
  store %"class.base::internal::BindStateBase"* null, %"class.base::internal::BindStateBase"** %82, align 8, !noalias !120
  %86 = getelementptr inbounds i8, i8* %79, i64 40
  store i8 %9, i8* %86, align 1, !noalias !120
  %87 = getelementptr inbounds i8, i8* %79, i64 48
  %88 = bitcast i8* %87 to i64*
  store i64 %76, i64* %88, align 8, !noalias !120
  %89 = icmp eq i64 %84, 0
  br i1 %89, label %90, label %93

90:                                               ; preds = %75
  %91 = bitcast %"class.logging::CheckError"* %5 to i8*
  call void @llvm.lifetime.start.p0i8(i64 8, i8* nonnull %91) #9, !noalias !120
  call void @_ZN7logging10CheckError5CheckEPKciS2_(%"class.logging::CheckError"* nonnull sret %5, i8* getelementptr inbounds ([27 x i8], [27 x i8]* @.str.7, i64 0, i64 0), i32 896, i8* getelementptr inbounds ([18 x i8], [18 x i8]* @.str.8, i64 0, i64 0)) #9, !noalias !120
  %92 = call dereferenceable(160) %"class.std::__1::basic_ostream"* @_ZN7logging10CheckError6streamEv(%"class.logging::CheckError"* nonnull %5) #9, !noalias !120
  call void @_ZN7logging10CheckErrorD1Ev(%"class.logging::CheckError"* nonnull %5) #9, !noalias !120
  call void @llvm.lifetime.end.p0i8(i64 8, i8* nonnull %91) #9, !noalias !120
  br label %93

93:                                               ; preds = %90, %75
  %94 = bitcast %"class.base::OnceCallback"* %8 to i8**
  store i8* %79, i8** %94, align 8, !alias.scope !120
  %95 = call zeroext i1 @_ZN4base10TaskRunner8PostTaskERKNS_8LocationENS_12OnceCallbackIFvvEEE(%"class.base::TaskRunner"* %77, %"class.base::Location"* nonnull dereferenceable(32) %7, %"class.base::OnceCallback"* nonnull %8) #9
  %96 = getelementptr inbounds %"class.base::OnceCallback", %"class.base::OnceCallback"* %8, i64 0, i32 0
  call void @_ZN4base8internal12CallbackBaseD2Ev(%"class.base::internal::CallbackBase"* nonnull %96) #9
  call void @llvm.lifetime.end.p0i8(i64 32, i8* nonnull %78) #9
  %97 = icmp eq %"class.std::__1::map.432"* %3, null
  br i1 %97, label %104, label %98

98:                                               ; preds = %93
  %99 = getelementptr inbounds %"class.std::__1::map.432", %"class.std::__1::map.432"* %3, i64 0, i32 0
  %100 = getelementptr inbounds %"class.std::__1::map.432", %"class.std::__1::map.432"* %3, i64 0, i32 0, i32 1, i32 0, i32 0
  %101 = bitcast %"class.std::__1::__tree_end_node"* %100 to %"class.std::__1::__tree_node.477"**
  %102 = load %"class.std::__1::__tree_node.477"*, %"class.std::__1::__tree_node.477"** %101, align 8
  call void @_ZNSt3__16__treeINS_12__value_typeINS_12basic_stringIcNS_11char_traitsIcEENS_9allocatorIcEEEES7_EENS_19__map_value_compareIS7_S8_NS_4lessIS7_EELb1EEENS5_IS8_EEE7destroyEPNS_11__tree_nodeIS8_PvEE(%"class.std::__1::__tree.433"* %99, %"class.std::__1::__tree_node.477"* %102) #9
  %103 = bitcast %"class.std::__1::map.432"* %3 to i8*
  call void @_ZdlPv(i8* %103) #10
  br label %104

104:                                              ; preds = %93, %98
  %105 = icmp eq %"class.base::SequencedTaskRunner"* %0, null
  br i1 %105, label %114, label %106

106:                                              ; preds = %104
  %107 = getelementptr inbounds %"class.base::SequencedTaskRunner", %"class.base::SequencedTaskRunner"* %0, i64 0, i32 0, i32 1
  %108 = getelementptr inbounds %"class.base::RefCountedThreadSafe.32", %"class.base::RefCountedThreadSafe.32"* %107, i64 0, i32 0, i32 0, i32 0, i32 0, i32 0, i32 0, i32 0, i32 0
  %109 = atomicrmw sub i32* %108, i32 1 acq_rel
  %110 = icmp eq i32 %109, 1
  br i1 %110, label %111, label %114

111:                                              ; preds = %106
  %112 = getelementptr inbounds %"class.base::RefCountedThreadSafe.32", %"class.base::RefCountedThreadSafe.32"* %107, i64 -2
  %113 = bitcast %"class.base::RefCountedThreadSafe.32"* %112 to %"class.base::TaskRunner"*
  call void @_ZN4base16TaskRunnerTraits8DestructEPKNS_10TaskRunnerE(%"class.base::TaskRunner"* %113) #9
  br label %114

114:                                              ; preds = %104, %106, %111
  ret void
}

; Function Attrs: nounwind ssp uwtable
define linkonce_odr hidden void @_ZN4base8internal7InvokerINS0_9BindStateIMN13leveldb_proto21ProtoDatabaseSelectorEFvRKNS_17RepeatingCallbackIFbRKNSt3__112basic_stringIcNS6_11char_traitsIcEENS6_9allocatorIcEEEEEEERKN7leveldb11ReadOptionsESE_NS_12OnceCallbackIFvbNS6_10unique_ptrINS6_3mapISC_SC_NS6_4lessISC_EENSA_INS6_4pairISD_SC_EEEEEENS6_14default_deleteISV_EEEEEEEEJ13scoped_refptrIS4_ESG_SK_SC_S10_EEEFvvEE7RunOnceEPNS0_13BindStateBaseE(%"class.base::internal::BindStateBase"*) #0 comdat align 2 {
  %2 = alloca %"class.base::OnceCallback.428", align 8
  %3 = getelementptr inbounds %"class.base::internal::BindStateBase", %"class.base::internal::BindStateBase"* %0, i64 1
  %4 = getelementptr inbounds %"class.base::internal::BindStateBase", %"class.base::internal::BindStateBase"* %0, i64 1, i32 2
  %5 = getelementptr inbounds void (%"class.base::internal::BindStateBase"*)*, void (%"class.base::internal::BindStateBase"*)** %4, i64 1
  %6 = bitcast void (%"class.base::internal::BindStateBase"*)** %5 to %"class.base::RepeatingCallback.324"*
  %7 = getelementptr inbounds void (%"class.base::internal::BindStateBase"*)*, void (%"class.base::internal::BindStateBase"*)** %4, i64 2
  %8 = bitcast void (%"class.base::internal::BindStateBase"*)** %7 to %"struct.leveldb::ReadOptions"*
  %9 = getelementptr inbounds void (%"class.base::internal::BindStateBase"*)*, void (%"class.base::internal::BindStateBase"*)** %4, i64 4
  %10 = bitcast void (%"class.base::internal::BindStateBase"*)** %9 to %"class.std::__1::basic_string"*
  %11 = getelementptr inbounds void (%"class.base::internal::BindStateBase"*)*, void (%"class.base::internal::BindStateBase"*)** %4, i64 7
  %12 = bitcast %"class.base::internal::BindStateBase"* %3 to i64*
  %13 = load i64, i64* %12, align 8
  %14 = getelementptr inbounds %"class.base::internal::BindStateBase", %"class.base::internal::BindStateBase"* %0, i64 1, i32 1
  %15 = bitcast void ()** %14 to i64*
  %16 = load i64, i64* %15, align 8
  %17 = bitcast %"class.base::OnceCallback.428"* %2 to i8*
  call void @llvm.lifetime.start.p0i8(i64 8, i8* nonnull %17) #9
  %18 = bitcast void (%"class.base::internal::BindStateBase"*)** %4 to i8**
  %19 = load i8*, i8** %18, align 8
  %20 = getelementptr inbounds i8, i8* %19, i64 %16
  %21 = bitcast i8* %20 to %"class.leveldb_proto::ProtoDatabaseSelector"*
  %22 = and i64 %13, 1
  %23 = icmp eq i64 %22, 0
  br i1 %23, label %31, label %24

24:                                               ; preds = %1
  %25 = bitcast i8* %20 to i8**
  %26 = load i8*, i8** %25, align 8
  %27 = add i64 %13, -1
  %28 = getelementptr i8, i8* %26, i64 %27
  %29 = bitcast i8* %28 to void (%"class.leveldb_proto::ProtoDatabaseSelector"*, %"class.base::RepeatingCallback.324"*, %"struct.leveldb::ReadOptions"*, %"class.std::__1::basic_string"*, %"class.base::OnceCallback.428"*)**
  %30 = load void (%"class.leveldb_proto::ProtoDatabaseSelector"*, %"class.base::RepeatingCallback.324"*, %"struct.leveldb::ReadOptions"*, %"class.std::__1::basic_string"*, %"class.base::OnceCallback.428"*)*, void (%"class.leveldb_proto::ProtoDatabaseSelector"*, %"class.base::RepeatingCallback.324"*, %"struct.leveldb::ReadOptions"*, %"class.std::__1::basic_string"*, %"class.base::OnceCallback.428"*)** %29, align 8
  br label %33

31:                                               ; preds = %1
  %32 = inttoptr i64 %13 to void (%"class.leveldb_proto::ProtoDatabaseSelector"*, %"class.base::RepeatingCallback.324"*, %"struct.leveldb::ReadOptions"*, %"class.std::__1::basic_string"*, %"class.base::OnceCallback.428"*)*
  br label %33

33:                                               ; preds = %24, %31
  %34 = phi void (%"class.leveldb_proto::ProtoDatabaseSelector"*, %"class.base::RepeatingCallback.324"*, %"struct.leveldb::ReadOptions"*, %"class.std::__1::basic_string"*, %"class.base::OnceCallback.428"*)* [ %30, %24 ], [ %32, %31 ]
  %35 = bitcast void (%"class.base::internal::BindStateBase"*)** %11 to %"class.base::internal::BindStateBase"**
  %36 = bitcast void (%"class.base::internal::BindStateBase"*)** %11 to i64*
  %37 = load i64, i64* %36, align 8
  %38 = bitcast %"class.base::OnceCallback.428"* %2 to i64*
  store i64 %37, i64* %38, align 8
  store %"class.base::internal::BindStateBase"* null, %"class.base::internal::BindStateBase"** %35, align 8
  call void %34(%"class.leveldb_proto::ProtoDatabaseSelector"* %21, %"class.base::RepeatingCallback.324"* dereferenceable(8) %6, %"struct.leveldb::ReadOptions"* dereferenceable(16) %8, %"class.std::__1::basic_string"* dereferenceable(24) %10, %"class.base::OnceCallback.428"* nonnull %2) #9
  %39 = getelementptr inbounds %"class.base::OnceCallback.428", %"class.base::OnceCallback.428"* %2, i64 0, i32 0
  call void @_ZN4base8internal12CallbackBaseD2Ev(%"class.base::internal::CallbackBase"* nonnull %39) #9
  call void @llvm.lifetime.end.p0i8(i64 8, i8* nonnull %17) #9
  ret void
}

; Function Attrs: nounwind ssp uwtable
define linkonce_odr hidden void @_ZN4base8internal9BindStateIMN13leveldb_proto21ProtoDatabaseSelectorEFvRKNS_17RepeatingCallbackIFbRKNSt3__112basic_stringIcNS5_11char_traitsIcEENS5_9allocatorIcEEEEEEERKN7leveldb11ReadOptionsESD_NS_12OnceCallbackIFvbNS5_10unique_ptrINS5_3mapISB_SB_NS5_4lessISB_EENS9_INS5_4pairISC_SB_EEEEEENS5_14default_deleteISU_EEEEEEEEJ13scoped_refptrIS3_ESF_SJ_SB_SZ_EE7DestroyEPKNS0_13BindStateBaseE(%"class.base::internal::BindStateBase"*) #0 comdat align 2 {
  %2 = icmp eq %"class.base::internal::BindStateBase"* %0, null
  br i1 %2, label %29, label %3

3:                                                ; preds = %1
  %4 = getelementptr inbounds %"class.base::internal::BindStateBase", %"class.base::internal::BindStateBase"* %0, i64 3, i32 1
  %5 = bitcast void ()** %4 to %"class.base::internal::CallbackBase"*
  tail call void @_ZN4base8internal12CallbackBaseD2Ev(%"class.base::internal::CallbackBase"* %5) #9
  %6 = getelementptr inbounds %"class.base::internal::BindStateBase", %"class.base::internal::BindStateBase"* %0, i64 2, i32 2
  %7 = bitcast void (%"class.base::internal::BindStateBase"*)** %6 to %"struct.std::__1::basic_string<char, std::__1::char_traits<char>, std::__1::allocator<char> >::__short"*
  %8 = getelementptr inbounds %"struct.std::__1::basic_string<char, std::__1::char_traits<char>, std::__1::allocator<char> >::__short", %"struct.std::__1::basic_string<char, std::__1::char_traits<char>, std::__1::allocator<char> >::__short"* %7, i64 0, i32 1, i32 0
  %9 = load i8, i8* %8, align 1
  %10 = icmp slt i8 %9, 0
  br i1 %10, label %11, label %14

11:                                               ; preds = %3
  %12 = bitcast void (%"class.base::internal::BindStateBase"*)** %6 to i8**
  %13 = load i8*, i8** %12, align 8
  tail call void @_ZdlPv(i8* %13) #10
  br label %14

14:                                               ; preds = %11, %3
  %15 = getelementptr inbounds %"class.base::internal::BindStateBase", %"class.base::internal::BindStateBase"* %0, i64 1, i32 3
  %16 = bitcast i1 (%"class.base::internal::BindStateBase"*, i32)** %15 to %"class.base::internal::CallbackBase"*
  tail call void @_ZN4base8internal12CallbackBaseD2Ev(%"class.base::internal::CallbackBase"* %16) #9
  %17 = getelementptr inbounds %"class.base::internal::BindStateBase", %"class.base::internal::BindStateBase"* %0, i64 1, i32 2
  %18 = bitcast void (%"class.base::internal::BindStateBase"*)** %17 to %"class.leveldb_proto::ProtoDatabaseSelector"**
  %19 = load %"class.leveldb_proto::ProtoDatabaseSelector"*, %"class.leveldb_proto::ProtoDatabaseSelector"** %18, align 8
  %20 = icmp eq %"class.leveldb_proto::ProtoDatabaseSelector"* %19, null
  br i1 %20, label %27, label %21

21:                                               ; preds = %14
  %22 = getelementptr inbounds %"class.leveldb_proto::ProtoDatabaseSelector", %"class.leveldb_proto::ProtoDatabaseSelector"* %19, i64 0, i32 0, i32 0, i32 0, i32 0, i32 0, i32 0, i32 0, i32 0, i32 0
  %23 = atomicrmw sub i32* %22, i32 1 acq_rel
  %24 = icmp eq i32 %23, 1
  br i1 %24, label %25, label %27

25:                                               ; preds = %21
  tail call void @_ZN13leveldb_proto21ProtoDatabaseSelectorD1Ev(%"class.leveldb_proto::ProtoDatabaseSelector"* nonnull %19) #9
  %26 = bitcast %"class.leveldb_proto::ProtoDatabaseSelector"* %19 to i8*
  tail call void @_ZdlPv(i8* %26) #10
  br label %27

27:                                               ; preds = %14, %21, %25
  %28 = bitcast %"class.base::internal::BindStateBase"* %0 to i8*
  tail call void @_ZdlPv(i8* %28) #10
  br label %29

29:                                               ; preds = %27, %1
  ret void
}

; Function Attrs: nounwind ssp uwtable
define linkonce_odr hidden void @_ZN4base8internal7InvokerINS0_9BindStateIPFv13scoped_refptrINS_19SequencedTaskRunnerEENS_12OnceCallbackIFvbNSt3__110unique_ptrINS7_3mapINS7_12basic_stringIcNS7_11char_traitsIcEENS7_9allocatorIcEEEEN13notifications9IconEntryENS7_4lessISF_EENSD_INS7_4pairIKSF_SH_EEEEEENS7_14default_deleteISO_EEEEEEEbNS8_INS9_ISF_SF_SJ_NSD_INSK_ISL_SF_EEEEEENSP_ISW_EEEEEJS5_ST_EEEFvbSY_EE7RunOnceEPNS0_13BindStateBaseEbOSY_(%"class.base::internal::BindStateBase"*, i1 zeroext, %"class.std::__1::unique_ptr.429"* dereferenceable(8)) #0 comdat align 2 {
  %4 = alloca %"class.base::OnceCallback.326", align 8
  %5 = getelementptr inbounds %"class.base::internal::BindStateBase", %"class.base::internal::BindStateBase"* %0, i64 1
  %6 = bitcast %"class.base::internal::BindStateBase"* %5 to void (%"class.base::SequencedTaskRunner"*, %"class.base::OnceCallback.326"*, i1, %"class.std::__1::map.432"*)**
  %7 = getelementptr inbounds %"class.base::internal::BindStateBase", %"class.base::internal::BindStateBase"* %0, i64 1, i32 1
  %8 = getelementptr inbounds void ()*, void ()** %7, i64 1
  %9 = bitcast %"class.base::OnceCallback.326"* %4 to i8*
  call void @llvm.lifetime.start.p0i8(i64 8, i8* nonnull %9) #9
  %10 = load void (%"class.base::SequencedTaskRunner"*, %"class.base::OnceCallback.326"*, i1, %"class.std::__1::map.432"*)*, void (%"class.base::SequencedTaskRunner"*, %"class.base::OnceCallback.326"*, i1, %"class.std::__1::map.432"*)** %6, align 8
  %11 = bitcast void ()** %7 to %"class.base::SequencedTaskRunner"**
  %12 = load %"class.base::SequencedTaskRunner"*, %"class.base::SequencedTaskRunner"** %11, align 8
  store %"class.base::SequencedTaskRunner"* null, %"class.base::SequencedTaskRunner"** %11, align 8
  %13 = bitcast void ()** %8 to %"class.base::internal::BindStateBase"**
  %14 = bitcast void ()** %8 to i64*
  %15 = load i64, i64* %14, align 8
  %16 = bitcast %"class.base::OnceCallback.326"* %4 to i64*
  store i64 %15, i64* %16, align 8
  store %"class.base::internal::BindStateBase"* null, %"class.base::internal::BindStateBase"** %13, align 8
  %17 = getelementptr inbounds %"class.std::__1::unique_ptr.429", %"class.std::__1::unique_ptr.429"* %2, i64 0, i32 0, i32 0, i32 0
  %18 = load %"class.std::__1::map.432"*, %"class.std::__1::map.432"** %17, align 8
  store %"class.std::__1::map.432"* null, %"class.std::__1::map.432"** %17, align 8
  call void %10(%"class.base::SequencedTaskRunner"* %12, %"class.base::OnceCallback.326"* nonnull %4, i1 zeroext %1, %"class.std::__1::map.432"* %18) #9
  %19 = getelementptr inbounds %"class.base::OnceCallback.326", %"class.base::OnceCallback.326"* %4, i64 0, i32 0
  call void @_ZN4base8internal12CallbackBaseD2Ev(%"class.base::internal::CallbackBase"* nonnull %19) #9
  call void @llvm.lifetime.end.p0i8(i64 8, i8* nonnull %9) #9
  ret void
}

; Function Attrs: nounwind ssp uwtable
define linkonce_odr hidden void @_ZN4base8internal9BindStateIPFv13scoped_refptrINS_19SequencedTaskRunnerEENS_12OnceCallbackIFvbNSt3__110unique_ptrINS6_3mapINS6_12basic_stringIcNS6_11char_traitsIcEENS6_9allocatorIcEEEEN13notifications9IconEntryENS6_4lessISE_EENSC_INS6_4pairIKSE_SG_EEEEEENS6_14default_deleteISN_EEEEEEEbNS7_INS8_ISE_SE_SI_NSC_INSJ_ISK_SE_EEEEEENSO_ISV_EEEEEJS4_SS_EE7DestroyEPKNS0_13BindStateBaseE(%"class.base::internal::BindStateBase"*) #0 comdat align 2 {
  %2 = icmp eq %"class.base::internal::BindStateBase"* %0, null
  br i1 %2, label %20, label %3

3:                                                ; preds = %1
  %4 = getelementptr inbounds %"class.base::internal::BindStateBase", %"class.base::internal::BindStateBase"* %0, i64 1, i32 2
  %5 = bitcast void (%"class.base::internal::BindStateBase"*)** %4 to %"class.base::internal::CallbackBase"*
  tail call void @_ZN4base8internal12CallbackBaseD2Ev(%"class.base::internal::CallbackBase"* %5) #9
  %6 = getelementptr inbounds %"class.base::internal::BindStateBase", %"class.base::internal::BindStateBase"* %0, i64 1, i32 1
  %7 = bitcast void ()** %6 to %"class.base::SequencedTaskRunner"**
  %8 = load %"class.base::SequencedTaskRunner"*, %"class.base::SequencedTaskRunner"** %7, align 8
  %9 = icmp eq %"class.base::SequencedTaskRunner"* %8, null
  br i1 %9, label %18, label %10

10:                                               ; preds = %3
  %11 = getelementptr inbounds %"class.base::SequencedTaskRunner", %"class.base::SequencedTaskRunner"* %8, i64 0, i32 0, i32 1
  %12 = getelementptr inbounds %"class.base::RefCountedThreadSafe.32", %"class.base::RefCountedThreadSafe.32"* %11, i64 0, i32 0, i32 0, i32 0, i32 0, i32 0, i32 0, i32 0, i32 0
  %13 = atomicrmw sub i32* %12, i32 1 acq_rel
  %14 = icmp eq i32 %13, 1
  br i1 %14, label %15, label %18

15:                                               ; preds = %10
  %16 = getelementptr inbounds %"class.base::RefCountedThreadSafe.32", %"class.base::RefCountedThreadSafe.32"* %11, i64 -2
  %17 = bitcast %"class.base::RefCountedThreadSafe.32"* %16 to %"class.base::TaskRunner"*
  tail call void @_ZN4base16TaskRunnerTraits8DestructEPKNS_10TaskRunnerE(%"class.base::TaskRunner"* %17) #9
  br label %18

18:                                               ; preds = %3, %10, %15
  %19 = bitcast %"class.base::internal::BindStateBase"* %0 to i8*
  tail call void @_ZdlPv(i8* %19) #10
  br label %20

20:                                               ; preds = %18, %1
  ret void
}

; Function Attrs: nounwind ssp uwtable
define linkonce_odr hidden void @_ZNSt3__16__treeINS_12__value_typeINS_12basic_stringIcNS_11char_traitsIcEENS_9allocatorIcEEEEN13notifications9IconEntryEEENS_19__map_value_compareIS7_SA_NS_4lessIS7_EELb1EEENS5_ISA_EEE7destroyEPNS_11__tree_nodeISA_PvEE(%"class.std::__1::__tree.460"*, %"class.std::__1::__tree_node"*) local_unnamed_addr #0 comdat align 2 {
  %3 = icmp eq %"class.std::__1::__tree_node"* %1, null
  br i1 %3, label %29, label %4

4:                                                ; preds = %2
  %5 = bitcast %"class.std::__1::__tree_node"* %1 to %"class.std::__1::__tree_node"**
  %6 = load %"class.std::__1::__tree_node"*, %"class.std::__1::__tree_node"** %5, align 8
  tail call void @_ZNSt3__16__treeINS_12__value_typeINS_12basic_stringIcNS_11char_traitsIcEENS_9allocatorIcEEEEN13notifications9IconEntryEEENS_19__map_value_compareIS7_SA_NS_4lessIS7_EELb1EEENS5_ISA_EEE7destroyEPNS_11__tree_nodeISA_PvEE(%"class.std::__1::__tree.460"* %0, %"class.std::__1::__tree_node"* %6) #9
  %7 = getelementptr inbounds %"class.std::__1::__tree_node", %"class.std::__1::__tree_node"* %1, i64 0, i32 0, i32 1
  %8 = bitcast %"class.std::__1::__tree_node_base"** %7 to %"class.std::__1::__tree_node"**
  %9 = load %"class.std::__1::__tree_node"*, %"class.std::__1::__tree_node"** %8, align 8
  tail call void @_ZNSt3__16__treeINS_12__value_typeINS_12basic_stringIcNS_11char_traitsIcEENS_9allocatorIcEEEEN13notifications9IconEntryEEENS_19__map_value_compareIS7_SA_NS_4lessIS7_EELb1EEENS5_ISA_EEE7destroyEPNS_11__tree_nodeISA_PvEE(%"class.std::__1::__tree.460"* %0, %"class.std::__1::__tree_node"* %9) #9
  %10 = getelementptr inbounds %"class.std::__1::__tree_node", %"class.std::__1::__tree_node"* %1, i64 0, i32 1, i32 0
  %11 = getelementptr inbounds %"class.std::__1::__tree_node", %"class.std::__1::__tree_node"* %1, i64 0, i32 1, i32 0, i32 1
  %12 = bitcast %"struct.notifications::IconEntry"* %11 to %"struct.std::__1::basic_string<char, std::__1::char_traits<char>, std::__1::allocator<char> >::__short"*
  %13 = getelementptr inbounds %"struct.std::__1::basic_string<char, std::__1::char_traits<char>, std::__1::allocator<char> >::__short", %"struct.std::__1::basic_string<char, std::__1::char_traits<char>, std::__1::allocator<char> >::__short"* %12, i64 0, i32 1, i32 0
  %14 = load i8, i8* %13, align 1
  %15 = icmp slt i8 %14, 0
  br i1 %15, label %16, label %19

16:                                               ; preds = %4
  %17 = getelementptr inbounds %"struct.notifications::IconEntry", %"struct.notifications::IconEntry"* %11, i64 0, i32 0, i32 0, i32 0, i32 0, i32 0, i32 0, i32 0
  %18 = load i8*, i8** %17, align 8
  tail call void @_ZdlPv(i8* %18) #10
  br label %19

19:                                               ; preds = %16, %4
  %20 = bitcast %"struct.std::__1::pair.475"* %10 to %"struct.std::__1::basic_string<char, std::__1::char_traits<char>, std::__1::allocator<char> >::__short"*
  %21 = getelementptr inbounds %"struct.std::__1::basic_string<char, std::__1::char_traits<char>, std::__1::allocator<char> >::__short", %"struct.std::__1::basic_string<char, std::__1::char_traits<char>, std::__1::allocator<char> >::__short"* %20, i64 0, i32 1, i32 0
  %22 = load i8, i8* %21, align 1
  %23 = icmp slt i8 %22, 0
  br i1 %23, label %24, label %27

24:                                               ; preds = %19
  %25 = getelementptr inbounds %"struct.std::__1::pair.475", %"struct.std::__1::pair.475"* %10, i64 0, i32 0, i32 0, i32 0, i32 0, i32 0, i32 0, i32 0
  %26 = load i8*, i8** %25, align 8
  tail call void @_ZdlPv(i8* %26) #10
  br label %27

27:                                               ; preds = %19, %24
  %28 = bitcast %"class.std::__1::__tree_node"* %1 to i8*
  tail call void @_ZdlPv(i8* %28) #10
  br label %29

29:                                               ; preds = %2, %27
  ret void
}

; Function Attrs: nounwind ssp uwtable
define linkonce_odr hidden { %"class.std::__1::__tree_end_node"*, i8 } @_ZNSt3__16__treeINS_12__value_typeINS_12basic_stringIcNS_11char_traitsIcEENS_9allocatorIcEEEEN13notifications9IconEntryEEENS_19__map_value_compareIS7_SA_NS_4lessIS7_EELb1EEENS5_ISA_EEE25__emplace_unique_key_argsIS7_JRKS7_S9_EEENS_4pairINS_15__tree_iteratorISA_PNS_11__tree_nodeISA_PvEElEEbEERKT_DpOT0_(%"class.std::__1::__tree.460"*, %"class.std::__1::basic_string"* dereferenceable(24), %"class.std::__1::basic_string"* dereferenceable(24), %"struct.notifications::IconEntry"* dereferenceable(24)) local_unnamed_addr #0 comdat align 2 {
  %5 = alloca %"class.std::__1::__tree_end_node"*, align 8
  %6 = bitcast %"class.std::__1::__tree_end_node"** %5 to i8*
  call void @llvm.lifetime.start.p0i8(i64 8, i8* nonnull %6) #9
  store %"class.std::__1::__tree_end_node"* inttoptr (i64 -6148914691236517206 to %"class.std::__1::__tree_end_node"*), %"class.std::__1::__tree_end_node"** %5, align 8
  %7 = call dereferenceable(8) %"class.std::__1::__tree_node_base"** @_ZNSt3__16__treeINS_12__value_typeINS_12basic_stringIcNS_11char_traitsIcEENS_9allocatorIcEEEEN13notifications9IconEntryEEENS_19__map_value_compareIS7_SA_NS_4lessIS7_EELb1EEENS5_ISA_EEE12__find_equalIS7_EERPNS_16__tree_node_baseIPvEERPNS_15__tree_end_nodeISL_EERKT_(%"class.std::__1::__tree.460"* %0, %"class.std::__1::__tree_end_node"** nonnull dereferenceable(8) %5, %"class.std::__1::basic_string"* dereferenceable(24) %1)
  %8 = bitcast %"class.std::__1::__tree_node_base"** %7 to %"class.std::__1::__tree_node"**
  %9 = load %"class.std::__1::__tree_node"*, %"class.std::__1::__tree_node"** %8, align 8
  %10 = icmp eq %"class.std::__1::__tree_node"* %9, null
  br i1 %10, label %11, label %52

11:                                               ; preds = %4
  %12 = call i8* @_Znwm(i64 80) #10, !noalias !125
  %13 = getelementptr inbounds i8, i8* %12, i64 32
  %14 = bitcast %"class.std::__1::basic_string"* %2 to %"struct.std::__1::basic_string<char, std::__1::char_traits<char>, std::__1::allocator<char> >::__short"*
  %15 = getelementptr inbounds %"struct.std::__1::basic_string<char, std::__1::char_traits<char>, std::__1::allocator<char> >::__short", %"struct.std::__1::basic_string<char, std::__1::char_traits<char>, std::__1::allocator<char> >::__short"* %14, i64 0, i32 1, i32 0
  %16 = load i8, i8* %15, align 1, !noalias !125
  %17 = icmp slt i8 %16, 0
  br i1 %17, label %20, label %18

18:                                               ; preds = %11
  %19 = bitcast %"class.std::__1::basic_string"* %2 to i8*
  call void @llvm.memcpy.p0i8.p0i8.i64(i8* align 8 %13, i8* align 8 %19, i64 24, i1 false) #9, !noalias !125
  br label %26

20:                                               ; preds = %11
  %21 = bitcast i8* %13 to %"class.std::__1::basic_string"*
  %22 = getelementptr inbounds %"class.std::__1::basic_string", %"class.std::__1::basic_string"* %2, i64 0, i32 0, i32 0, i32 0, i32 0, i32 0, i32 0
  %23 = load i8*, i8** %22, align 8, !noalias !125
  %24 = getelementptr inbounds %"class.std::__1::basic_string", %"class.std::__1::basic_string"* %2, i64 0, i32 0, i32 0, i32 0, i32 0, i32 0, i32 1
  %25 = load i64, i64* %24, align 8, !noalias !125
  call void @_ZNSt3__112basic_stringIcNS_11char_traitsIcEENS_9allocatorIcEEE25__init_copy_ctor_externalEPKcm(%"class.std::__1::basic_string"* %21, i8* %23, i64 %25) #9, !noalias !125
  br label %26

26:                                               ; preds = %18, %20
  %27 = getelementptr inbounds i8, i8* %12, i64 56
  %28 = bitcast i8* %27 to %"struct.notifications::IconEntry"*
  call void @_ZN13notifications9IconEntryC1EOS0_(%"struct.notifications::IconEntry"* %28, %"struct.notifications::IconEntry"* dereferenceable(24) %3) #9, !noalias !125
  %29 = bitcast %"class.std::__1::__tree_end_node"** %5 to i64*
  %30 = load i64, i64* %29, align 8
  %31 = bitcast i8* %12 to %"class.std::__1::__tree_node"*
  %32 = bitcast i8* %12 to %"class.std::__1::__tree_node_base"*
  %33 = getelementptr inbounds i8, i8* %12, i64 16
  call void @llvm.memset.p0i8.i64(i8* nonnull align 8 %12, i8 0, i64 16, i1 false) #9
  %34 = bitcast i8* %33 to i64*
  store i64 %30, i64* %34, align 8
  %35 = bitcast %"class.std::__1::__tree_node_base"** %7 to i8**
  store i8* %12, i8** %35, align 8
  %36 = getelementptr inbounds %"class.std::__1::__tree.460", %"class.std::__1::__tree.460"* %0, i64 0, i32 0
  %37 = load %"class.std::__1::__tree_end_node"*, %"class.std::__1::__tree_end_node"** %36, align 8
  %38 = getelementptr inbounds %"class.std::__1::__tree_end_node", %"class.std::__1::__tree_end_node"* %37, i64 0, i32 0
  %39 = load %"class.std::__1::__tree_node_base"*, %"class.std::__1::__tree_node_base"** %38, align 8
  %40 = icmp eq %"class.std::__1::__tree_node_base"* %39, null
  br i1 %40, label %45, label %41

41:                                               ; preds = %26
  %42 = ptrtoint %"class.std::__1::__tree_node_base"* %39 to i64
  %43 = bitcast %"class.std::__1::__tree.460"* %0 to i64*
  store i64 %42, i64* %43, align 8
  %44 = load %"class.std::__1::__tree_node_base"*, %"class.std::__1::__tree_node_base"** %7, align 8
  br label %45

45:                                               ; preds = %41, %26
  %46 = phi %"class.std::__1::__tree_node_base"* [ %32, %26 ], [ %44, %41 ]
  %47 = getelementptr inbounds %"class.std::__1::__tree.460", %"class.std::__1::__tree.460"* %0, i64 0, i32 1, i32 0, i32 0, i32 0
  %48 = load %"class.std::__1::__tree_node_base"*, %"class.std::__1::__tree_node_base"** %47, align 8
  call void @_ZNSt3__127__tree_balance_after_insertIPNS_16__tree_node_baseIPvEEEEvT_S5_(%"class.std::__1::__tree_node_base"* %48, %"class.std::__1::__tree_node_base"* %46) #9
  %49 = getelementptr inbounds %"class.std::__1::__tree.460", %"class.std::__1::__tree.460"* %0, i64 0, i32 2, i32 0, i32 0
  %50 = load i64, i64* %49, align 8
  %51 = add i64 %50, 1
  store i64 %51, i64* %49, align 8
  br label %52

52:                                               ; preds = %45, %4
  %53 = phi i8 [ 1, %45 ], [ 0, %4 ]
  %54 = phi %"class.std::__1::__tree_node"* [ %31, %45 ], [ %9, %4 ]
  %55 = getelementptr inbounds %"class.std::__1::__tree_node", %"class.std::__1::__tree_node"* %54, i64 0, i32 0, i32 0
  call void @llvm.lifetime.end.p0i8(i64 8, i8* nonnull %6) #9
  %56 = insertvalue { %"class.std::__1::__tree_end_node"*, i8 } undef, %"class.std::__1::__tree_end_node"* %55, 0
  %57 = insertvalue { %"class.std::__1::__tree_end_node"*, i8 } %56, i8 %53, 1
  ret { %"class.std::__1::__tree_end_node"*, i8 } %57
}

; Function Attrs: nounwind ssp uwtable
define linkonce_odr hidden dereferenceable(8) %"class.std::__1::__tree_node_base"** @_ZNSt3__16__treeINS_12__value_typeINS_12basic_stringIcNS_11char_traitsIcEENS_9allocatorIcEEEEN13notifications9IconEntryEEENS_19__map_value_compareIS7_SA_NS_4lessIS7_EELb1EEENS5_ISA_EEE12__find_equalIS7_EERPNS_16__tree_node_baseIPvEERPNS_15__tree_end_nodeISL_EERKT_(%"class.std::__1::__tree.460"*, %"class.std::__1::__tree_end_node"** dereferenceable(8), %"class.std::__1::basic_string"* dereferenceable(24)) local_unnamed_addr #0 comdat align 2 {
  %4 = getelementptr inbounds %"class.std::__1::__tree.460", %"class.std::__1::__tree.460"* %0, i64 0, i32 1, i32 0, i32 0
  %5 = bitcast %"class.std::__1::__tree_end_node"* %4 to %"class.std::__1::__tree_node"**
  %6 = load %"class.std::__1::__tree_node"*, %"class.std::__1::__tree_node"** %5, align 8
  %7 = icmp eq %"class.std::__1::__tree_node"* %6, null
  br i1 %7, label %79, label %8

8:                                                ; preds = %3
  %9 = getelementptr inbounds %"class.std::__1::__tree.460", %"class.std::__1::__tree.460"* %0, i64 0, i32 1, i32 0, i32 0, i32 0
  %10 = bitcast %"class.std::__1::basic_string"* %2 to %"struct.std::__1::basic_string<char, std::__1::char_traits<char>, std::__1::allocator<char> >::__short"*
  %11 = getelementptr inbounds %"struct.std::__1::basic_string<char, std::__1::char_traits<char>, std::__1::allocator<char> >::__short", %"struct.std::__1::basic_string<char, std::__1::char_traits<char>, std::__1::allocator<char> >::__short"* %10, i64 0, i32 1, i32 0
  %12 = load i8, i8* %11, align 1
  %13 = icmp slt i8 %12, 0
  %14 = getelementptr inbounds %"class.std::__1::basic_string", %"class.std::__1::basic_string"* %2, i64 0, i32 0, i32 0, i32 0, i32 0, i32 0, i32 1
  %15 = load i64, i64* %14, align 8
  %16 = zext i8 %12 to i64
  %17 = select i1 %13, i64 %15, i64 %16
  %18 = getelementptr inbounds %"class.std::__1::basic_string", %"class.std::__1::basic_string"* %2, i64 0, i32 0, i32 0, i32 0, i32 0, i32 0, i32 0
  %19 = load i8*, i8** %18, align 8
  %20 = bitcast %"class.std::__1::basic_string"* %2 to i8*
  %21 = select i1 %13, i8* %19, i8* %20
  br label %22

22:                                               ; preds = %8, %75
  %23 = phi %"class.std::__1::__tree_node"* [ %78, %75 ], [ %6, %8 ]
  %24 = phi %"class.std::__1::__tree_node_base"** [ %77, %75 ], [ %9, %8 ]
  %25 = getelementptr inbounds %"class.std::__1::__tree_node", %"class.std::__1::__tree_node"* %23, i64 0, i32 1
  %26 = bitcast %"struct.std::__1::__value_type"* %25 to %"struct.std::__1::basic_string<char, std::__1::char_traits<char>, std::__1::allocator<char> >::__short"*
  %27 = getelementptr inbounds %"struct.std::__1::basic_string<char, std::__1::char_traits<char>, std::__1::allocator<char> >::__short", %"struct.std::__1::basic_string<char, std::__1::char_traits<char>, std::__1::allocator<char> >::__short"* %26, i64 0, i32 1, i32 0
  %28 = load i8, i8* %27, align 1
  %29 = icmp slt i8 %28, 0
  %30 = getelementptr inbounds %"class.std::__1::__tree_node", %"class.std::__1::__tree_node"* %23, i64 0, i32 1, i32 0, i32 0, i32 0, i32 0, i32 0, i32 0, i32 0, i32 1
  %31 = load i64, i64* %30, align 8
  %32 = zext i8 %28 to i64
  %33 = select i1 %29, i64 %31, i64 %32
  %34 = icmp ult i64 %33, %17
  %35 = select i1 %34, i64 %33, i64 %17
  %36 = icmp eq i64 %35, 0
  br i1 %36, label %44, label %37

37:                                               ; preds = %22
  %38 = getelementptr inbounds %"struct.std::__1::__value_type", %"struct.std::__1::__value_type"* %25, i64 0, i32 0, i32 0, i32 0, i32 0, i32 0, i32 0, i32 0, i32 0
  %39 = load i8*, i8** %38, align 8
  %40 = bitcast %"struct.std::__1::__value_type"* %25 to i8*
  %41 = select i1 %29, i8* %39, i8* %40
  %42 = tail call i32 @memcmp(i8* %21, i8* %41, i64 %35) #9
  %43 = icmp eq i32 %42, 0
  br i1 %43, label %44, label %46

44:                                               ; preds = %37, %22
  %45 = icmp ult i64 %17, %33
  br i1 %45, label %48, label %54

46:                                               ; preds = %37
  %47 = icmp slt i32 %42, 0
  br i1 %47, label %48, label %60

48:                                               ; preds = %44, %46
  %49 = getelementptr inbounds %"class.std::__1::__tree_node", %"class.std::__1::__tree_node"* %23, i64 0, i32 0, i32 0, i32 0
  %50 = load %"class.std::__1::__tree_node_base"*, %"class.std::__1::__tree_node_base"** %49, align 8
  %51 = icmp eq %"class.std::__1::__tree_node_base"* %50, null
  br i1 %51, label %52, label %75

52:                                               ; preds = %48
  %53 = getelementptr inbounds %"class.std::__1::__tree_node", %"class.std::__1::__tree_node"* %23, i64 0, i32 0, i32 0
  store %"class.std::__1::__tree_end_node"* %53, %"class.std::__1::__tree_end_node"** %1, align 8
  br label %81

54:                                               ; preds = %44
  br i1 %36, label %64, label %55

55:                                               ; preds = %54
  %56 = getelementptr inbounds %"struct.std::__1::__value_type", %"struct.std::__1::__value_type"* %25, i64 0, i32 0, i32 0, i32 0, i32 0, i32 0, i32 0, i32 0, i32 0
  %57 = load i8*, i8** %56, align 8
  %58 = bitcast %"struct.std::__1::__value_type"* %25 to i8*
  %59 = select i1 %29, i8* %57, i8* %58
  br label %60

60:                                               ; preds = %55, %46
  %61 = phi i8* [ %59, %55 ], [ %41, %46 ]
  %62 = tail call i32 @memcmp(i8* %61, i8* %21, i64 %35) #9
  %63 = icmp eq i32 %62, 0
  br i1 %63, label %64, label %65

64:                                               ; preds = %60, %54
  br i1 %34, label %67, label %73

65:                                               ; preds = %60
  %66 = icmp slt i32 %62, 0
  br i1 %66, label %67, label %73

67:                                               ; preds = %64, %65
  %68 = getelementptr inbounds %"class.std::__1::__tree_node", %"class.std::__1::__tree_node"* %23, i64 0, i32 0, i32 1
  %69 = load %"class.std::__1::__tree_node_base"*, %"class.std::__1::__tree_node_base"** %68, align 8
  %70 = icmp eq %"class.std::__1::__tree_node_base"* %69, null
  br i1 %70, label %71, label %75

71:                                               ; preds = %67
  %72 = getelementptr inbounds %"class.std::__1::__tree_node", %"class.std::__1::__tree_node"* %23, i64 0, i32 0, i32 0
  store %"class.std::__1::__tree_end_node"* %72, %"class.std::__1::__tree_end_node"** %1, align 8
  br label %81

73:                                               ; preds = %64, %65
  %74 = getelementptr inbounds %"class.std::__1::__tree_node", %"class.std::__1::__tree_node"* %23, i64 0, i32 0, i32 0
  store %"class.std::__1::__tree_end_node"* %74, %"class.std::__1::__tree_end_node"** %1, align 8
  br label %81

75:                                               ; preds = %67, %48
  %76 = phi %"class.std::__1::__tree_node_base"* [ %50, %48 ], [ %69, %67 ]
  %77 = phi %"class.std::__1::__tree_node_base"** [ %49, %48 ], [ %68, %67 ]
  %78 = bitcast %"class.std::__1::__tree_node_base"* %76 to %"class.std::__1::__tree_node"*
  br label %22

79:                                               ; preds = %3
  store %"class.std::__1::__tree_end_node"* %4, %"class.std::__1::__tree_end_node"** %1, align 8
  %80 = getelementptr inbounds %"class.std::__1::__tree_end_node", %"class.std::__1::__tree_end_node"* %4, i64 0, i32 0
  br label %81

81:                                               ; preds = %79, %73, %71, %52
  %82 = phi %"class.std::__1::__tree_node_base"** [ %49, %52 ], [ %68, %71 ], [ %24, %73 ], [ %80, %79 ]
  ret %"class.std::__1::__tree_node_base"** %82
}

; Function Attrs: nofree nounwind readonly
declare i32 @memcmp(i8* nocapture, i8* nocapture, i64) local_unnamed_addr #8

; Function Attrs: nounwind ssp uwtable
define linkonce_odr hidden void @_ZNSt3__127__tree_balance_after_insertIPNS_16__tree_node_baseIPvEEEEvT_S5_(%"class.std::__1::__tree_node_base"*, %"class.std::__1::__tree_node_base"*) local_unnamed_addr #0 comdat {
  %3 = icmp eq %"class.std::__1::__tree_node_base"* %1, %0
  %4 = getelementptr inbounds %"class.std::__1::__tree_node_base", %"class.std::__1::__tree_node_base"* %1, i64 0, i32 3
  %5 = zext i1 %3 to i8
  store i8 %5, i8* %4, align 8
  br i1 %3, label %156, label %6

6:                                                ; preds = %2, %149
  %7 = phi %"class.std::__1::__tree_node_base"* [ %20, %149 ], [ %1, %2 ]
  %8 = getelementptr inbounds %"class.std::__1::__tree_node_base", %"class.std::__1::__tree_node_base"* %7, i64 0, i32 2
  %9 = bitcast %"class.std::__1::__tree_end_node"** %8 to %"class.std::__1::__tree_node_base"**
  %10 = load %"class.std::__1::__tree_node_base"*, %"class.std::__1::__tree_node_base"** %9, align 8
  %11 = getelementptr inbounds %"class.std::__1::__tree_node_base", %"class.std::__1::__tree_node_base"* %10, i64 0, i32 3
  %12 = load i8, i8* %11, align 8, !range !2
  %13 = icmp eq i8 %12, 0
  br i1 %13, label %14, label %156

14:                                               ; preds = %6
  %15 = getelementptr inbounds %"class.std::__1::__tree_node_base", %"class.std::__1::__tree_node_base"* %10, i64 0, i32 2
  %16 = load %"class.std::__1::__tree_end_node"*, %"class.std::__1::__tree_end_node"** %15, align 8
  %17 = getelementptr inbounds %"class.std::__1::__tree_end_node", %"class.std::__1::__tree_end_node"* %16, i64 0, i32 0
  %18 = load %"class.std::__1::__tree_node_base"*, %"class.std::__1::__tree_node_base"** %17, align 8
  %19 = icmp eq %"class.std::__1::__tree_node_base"* %18, %10
  %20 = bitcast %"class.std::__1::__tree_end_node"* %16 to %"class.std::__1::__tree_node_base"*
  br i1 %19, label %21, label %87

21:                                               ; preds = %14
  %22 = getelementptr inbounds %"class.std::__1::__tree_end_node", %"class.std::__1::__tree_end_node"* %16, i64 1, i32 0
  %23 = load %"class.std::__1::__tree_node_base"*, %"class.std::__1::__tree_node_base"** %22, align 8
  %24 = icmp eq %"class.std::__1::__tree_node_base"* %23, null
  br i1 %24, label %29, label %25

25:                                               ; preds = %21
  %26 = getelementptr inbounds %"class.std::__1::__tree_node_base", %"class.std::__1::__tree_node_base"* %23, i64 0, i32 3
