; ModuleID = '../../ui/aura/scoped_keyboard_hook.cc'
source_filename = "../../ui/aura/scoped_keyboard_hook.cc"
target datalayout = "e-m:e-i64:64-f80:128-n8:16:32:64-S128"
target triple = "x86_64-unknown-linux-gnu"

module asm ".symver exp, exp@GLIBC_2.2.5"
module asm ".symver exp2, exp2@GLIBC_2.2.5"
module asm ".symver exp2f, exp2f@GLIBC_2.2.5"
module asm ".symver expf, expf@GLIBC_2.2.5"
module asm ".symver lgamma, lgamma@GLIBC_2.2.5"
module asm ".symver lgammaf, lgammaf@GLIBC_2.2.5"
module asm ".symver lgammal, lgammal@GLIBC_2.2.5"
module asm ".symver log, log@GLIBC_2.2.5"
module asm ".symver log2, log2@GLIBC_2.2.5"
module asm ".symver log2f, log2f@GLIBC_2.2.5"
module asm ".symver logf, logf@GLIBC_2.2.5"
module asm ".symver pow, pow@GLIBC_2.2.5"
module asm ".symver powf, powf@GLIBC_2.2.5"

%"class.aura::ScopedKeyboardHook" = type { i32 (...)**, %"class.base::WeakPtr" }
%"class.base::WeakPtr" = type { %"class.base::internal::WeakPtrBase" }
%"class.base::internal::WeakPtrBase" = type { %"class.base::internal::WeakReference", i64 }
%"class.base::internal::WeakReference" = type { %class.scoped_refptr }
%class.scoped_refptr = type { %"class.base::internal::WeakReference::Flag"* }
%"class.base::internal::WeakReference::Flag" = type <{ %"class.base::RefCountedThreadSafe", %"class.base::AtomicFlag", [3 x i8] }>
%"class.base::RefCountedThreadSafe" = type { %"class.base::subtle::RefCountedThreadSafeBase" }
%"class.base::subtle::RefCountedThreadSafeBase" = type { %"class.base::AtomicRefCount" }
%"class.base::AtomicRefCount" = type { %"struct.std::__1::atomic" }
%"struct.std::__1::atomic" = type { %"struct.std::__1::__atomic_base" }
%"struct.std::__1::__atomic_base" = type { %"struct.std::__1::__atomic_base.0" }
%"struct.std::__1::__atomic_base.0" = type { %"struct.std::__1::__cxx_atomic_impl" }
%"struct.std::__1::__cxx_atomic_impl" = type { %"struct.std::__1::__cxx_atomic_base_impl" }
%"struct.std::__1::__cxx_atomic_base_impl" = type { i32 }
%"class.base::AtomicFlag" = type { %"struct.std::__1::atomic.1" }
%"struct.std::__1::atomic.1" = type { %"struct.std::__1::__atomic_base.2" }
%"struct.std::__1::__atomic_base.2" = type { %"struct.std::__1::__atomic_base.3" }
%"struct.std::__1::__atomic_base.3" = type { %"struct.std::__1::__cxx_atomic_impl.4" }
%"struct.std::__1::__cxx_atomic_impl.4" = type { %"struct.std::__1::__cxx_atomic_base_impl.5" }
%"struct.std::__1::__cxx_atomic_base_impl.5" = type { i8 }
%"class.logging::CheckError" = type { %"class.logging::LogMessage"* }
%"class.logging::LogMessage" = type { i32 (...)**, i32, %"class.std::__1::basic_ostringstream", i64, i8*, i32, %"class.base::ScopedClearLastErrorBase" }
%"class.std::__1::basic_ostringstream" = type { %"class.std::__1::basic_ostream.base", %"class.std::__1::basic_stringbuf", %"class.std::__1::basic_ios.base" }
%"class.std::__1::basic_ostream.base" = type { i32 (...)** }
%"class.std::__1::basic_stringbuf" = type <{ %"class.std::__1::basic_streambuf", %"class.std::__1::basic_string", i8*, i32, [4 x i8] }>
%"class.std::__1::basic_streambuf" = type { i32 (...)**, %"class.std::__1::locale", i8*, i8*, i8*, i8*, i8*, i8* }
%"class.std::__1::locale" = type { %"class.std::__1::locale::__imp"* }
%"class.std::__1::locale::__imp" = type opaque
%"class.std::__1::basic_string" = type { %"class.std::__1::__compressed_pair.131" }
%"class.std::__1::__compressed_pair.131" = type { %"struct.std::__1::__compressed_pair_elem.132" }
%"struct.std::__1::__compressed_pair_elem.132" = type { %"struct.std::__1::basic_string<char, std::__1::char_traits<char>, std::__1::allocator<char> >::__rep" }
%"struct.std::__1::basic_string<char, std::__1::char_traits<char>, std::__1::allocator<char> >::__rep" = type { %union.anon }
%union.anon = type { %"struct.std::__1::basic_string<char, std::__1::char_traits<char>, std::__1::allocator<char> >::__long" }
%"struct.std::__1::basic_string<char, std::__1::char_traits<char>, std::__1::allocator<char> >::__long" = type { i8*, i64, i64 }
%"class.std::__1::basic_ios.base" = type <{ %"class.std::__1::ios_base", %"class.std::__1::basic_ostream"*, i32 }>
%"class.std::__1::ios_base" = type { i32 (...)**, i32, i64, i64, i32, i32, i8*, i8*, void (i32, %"class.std::__1::ios_base"*, i32)**, i32*, i64, i64, i64*, i64, i64, i8**, i64, i64 }
%"class.std::__1::basic_ostream" = type { i32 (...)**, %"class.std::__1::basic_ios.base" }
%"class.base::ScopedClearLastErrorBase" = type { i32 }
%"class.aura::WindowTreeHost" = type { %"class.ui::internal::InputMethodDelegate", %"class.ui::EventSource", %"class.display::DisplayObserver", %"class.ui::CompositorObserver", %"class.aura::Window"*, i32, [4 x i8], %"class.base::ObserverList.105", %"class.std::__1::unique_ptr.109", %"class.std::__1::unique_ptr.115", float, %"class.ui::Cursor", %"class.gfx::Point", %"class.std::__1::unique_ptr.124", %"class.ui::InputMethod"*, i8, i8, i8, %"class.base::WeakPtrFactory.130" }
%"class.ui::internal::InputMethodDelegate" = type { i32 (...)** }
%"class.ui::EventSource" = type { i32 (...)**, %"class.std::__1::list" }
%"class.std::__1::list" = type { %"class.std::__1::__list_imp" }
%"class.std::__1::__list_imp" = type { %"struct.std::__1::__list_node_base", %"class.std::__1::__compressed_pair" }
%"struct.std::__1::__list_node_base" = type { %"struct.std::__1::__list_node_base"*, %"struct.std::__1::__list_node_base"* }
%"class.std::__1::__compressed_pair" = type { %"struct.std::__1::__compressed_pair_elem" }
%"struct.std::__1::__compressed_pair_elem" = type { i64 }
%"class.display::DisplayObserver" = type { %"class.base::CheckedObserver" }
%"class.base::CheckedObserver" = type { i32 (...)**, %"class.base::WeakPtrFactory" }
%"class.base::WeakPtrFactory" = type { %"class.base::internal::WeakPtrFactoryBase" }
%"class.base::internal::WeakPtrFactoryBase" = type { %"class.base::internal::WeakReferenceOwner", i64 }
%"class.base::internal::WeakReferenceOwner" = type { %class.scoped_refptr.7 }
%class.scoped_refptr.7 = type { %"class.base::internal::WeakReference::Flag"* }
%"class.ui::CompositorObserver" = type { i32 (...)** }
%"class.aura::Window" = type { %"class.ui::LayerDelegate", %"class.ui::LayerOwner", %"class.ui::EventTarget", %"class.ui::GestureConsumer", %"class.ui::PropertyHandler", %"class.ui::metadata::MetaDataProvider", %"class.viz::HostFrameSinkClient", %"class.gfx::Rect", %"class.aura::WindowTreeHost"*, i32, i8, i8, %"class.aura::WindowDelegate"*, %"class.aura::Window"*, %"class.std::__1::vector.60", i8, i32, %class.SkRegion, i32, i8, i8, %"class.std::__1::unique_ptr.67", %"class.std::__1::unique_ptr.73", %"class.std::__1::vector.79", i32, i32, i32, [4 x i8], %"class.base::ObserverList.86", i32, %"class.viz::SubtreeCaptureId", float, %"class.viz::FrameSinkId", i8, i8, i8, %"class.std::__1::unique_ptr.98", %"class.base::WeakPtr.104" }
%"class.ui::LayerDelegate" = type { i32 (...)** }
%"class.ui::LayerOwner" = type { i32 (...)**, %"class.std::__1::unique_ptr", %"class.ui::Layer"*, %"class.base::ObserverList" }
%"class.std::__1::unique_ptr" = type { %"class.std::__1::__compressed_pair.8" }
%"class.std::__1::__compressed_pair.8" = type { %"struct.std::__1::__compressed_pair_elem.9" }
%"struct.std::__1::__compressed_pair_elem.9" = type { %"class.ui::Layer"* }
%"class.ui::Layer" = type opaque
%"class.base::ObserverList" = type <{ %"class.std::__1::vector", %"class.base::LinkedList", i64, i32, [4 x i8] }>
%"class.std::__1::vector" = type { %"class.std::__1::__vector_base" }
%"class.std::__1::__vector_base" = type { %"class.base::internal::UncheckedObserverAdapter"*, %"class.base::internal::UncheckedObserverAdapter"*, %"class.std::__1::__compressed_pair.11" }
%"class.base::internal::UncheckedObserverAdapter" = type { i8* }
%"class.std::__1::__compressed_pair.11" = type { %"struct.std::__1::__compressed_pair_elem.12" }
%"struct.std::__1::__compressed_pair_elem.12" = type { %"class.base::internal::UncheckedObserverAdapter"* }
%"class.base::LinkedList" = type { %"class.base::LinkNode" }
%"class.base::LinkNode" = type { %"class.base::internal::LinkNodeBase" }
%"class.base::internal::LinkNodeBase" = type { %"class.base::internal::LinkNodeBase"*, %"class.base::internal::LinkNodeBase"* }
%"class.ui::EventTarget" = type { i32 (...)**, %"class.std::__1::vector.16", %"class.std::__1::vector.32", %"class.ui::EventHandler"* }
%"class.std::__1::vector.16" = type { %"class.std::__1::__vector_base.17" }
%"class.std::__1::__vector_base.17" = type { %"struct.ui::EventTarget::PrioritizedHandler"*, %"struct.ui::EventTarget::PrioritizedHandler"*, %"class.std::__1::__compressed_pair.39" }
%"struct.ui::EventTarget::PrioritizedHandler" = type <{ %"class.ui::EventHandler"*, i32, [4 x i8] }>
%"class.std::__1::__compressed_pair.39" = type { %"struct.std::__1::__compressed_pair_elem.40" }
%"struct.std::__1::__compressed_pair_elem.40" = type { %"struct.ui::EventTarget::PrioritizedHandler"* }
%"class.std::__1::vector.32" = type { %"class.std::__1::__vector_base.33" }
%"class.std::__1::__vector_base.33" = type { %"class.ui::EventHandler"**, %"class.ui::EventHandler"**, %"class.std::__1::__compressed_pair.34" }
%"class.std::__1::__compressed_pair.34" = type { %"struct.std::__1::__compressed_pair_elem.35" }
%"struct.std::__1::__compressed_pair_elem.35" = type { %"class.ui::EventHandler"** }
%"class.ui::EventHandler" = type { i32 (...)**, %"class.std::__1::stack" }
%"class.std::__1::stack" = type { %"class.base::circular_deque" }
%"class.base::circular_deque" = type { %"class.base::internal::VectorBuffer", i64, i64 }
%"class.base::internal::VectorBuffer" = type { %"class.ui::EventDispatcher"**, i64 }
%"class.ui::EventDispatcher" = type { i32 (...)**, %"class.ui::EventDispatcherDelegate"*, %"class.ui::Event"*, %"class.std::__1::vector.32" }
%"class.ui::EventDispatcherDelegate" = type { i32 (...)**, %"class.ui::EventDispatcher"* }
%"class.ui::Event" = type { i32 (...)**, i32, %"class.base::TimeTicks", %"class.ui::LatencyInfo", i32, %"class.ui::Event"*, i8, i8, %"class.ui::EventTarget"*, i32, i32, i32, %"class.std::__1::unique_ptr.25" }
%"class.base::TimeTicks" = type { %"class.base::time_internal::TimeBase" }
%"class.base::time_internal::TimeBase" = type { i64 }
%"class.ui::LatencyInfo" = type { %"class.base::flat_map", i64, i64, i8, i8, i8, i32, float, float, i64 }
%"class.base::flat_map" = type { %"class.base::internal::flat_tree" }
%"class.base::internal::flat_tree" = type { %"class.std::__1::vector.18" }
%"class.std::__1::vector.18" = type { %"class.std::__1::__vector_base.19" }
%"class.std::__1::__vector_base.19" = type { %"struct.std::__1::pair"*, %"struct.std::__1::pair"*, %"class.std::__1::__compressed_pair.20" }
%"struct.std::__1::pair" = type opaque
%"class.std::__1::__compressed_pair.20" = type { %"struct.std::__1::__compressed_pair_elem.21" }
%"struct.std::__1::__compressed_pair_elem.21" = type { %"struct.std::__1::pair"* }
%"class.std::__1::unique_ptr.25" = type { %"class.std::__1::__compressed_pair.26" }
%"class.std::__1::__compressed_pair.26" = type { %"struct.std::__1::__compressed_pair_elem.27" }
%"struct.std::__1::__compressed_pair_elem.27" = type { %"class.base::flat_map.28"* }
%"class.base::flat_map.28" = type opaque
%"class.ui::GestureConsumer" = type { i32 (...)** }
%"class.ui::PropertyHandler" = type { i32 (...)**, %"class.std::__1::map" }
%"class.std::__1::map" = type { %"class.std::__1::__tree" }
%"class.std::__1::__tree" = type { %"class.std::__1::__tree_end_node"*, %"class.std::__1::__compressed_pair.44", %"class.std::__1::__compressed_pair.49" }
%"class.std::__1::__tree_end_node" = type { %"class.std::__1::__tree_node_base"* }
%"class.std::__1::__tree_node_base" = type opaque
%"class.std::__1::__compressed_pair.44" = type { %"struct.std::__1::__compressed_pair_elem.45" }
%"struct.std::__1::__compressed_pair_elem.45" = type { %"class.std::__1::__tree_end_node" }
%"class.std::__1::__compressed_pair.49" = type { %"struct.std::__1::__compressed_pair_elem" }
%"class.ui::metadata::MetaDataProvider" = type { i32 (...)**, %"class.std::__1::map.51" }
%"class.std::__1::map.51" = type { %"class.std::__1::__tree.52" }
%"class.std::__1::__tree.52" = type { %"class.std::__1::__tree_end_node"*, %"class.std::__1::__compressed_pair.53", %"class.std::__1::__compressed_pair.57" }
%"class.std::__1::__compressed_pair.53" = type { %"struct.std::__1::__compressed_pair_elem.45" }
%"class.std::__1::__compressed_pair.57" = type { %"struct.std::__1::__compressed_pair_elem" }
%"class.viz::HostFrameSinkClient" = type { i32 (...)** }
%"class.gfx::Rect" = type { %"class.gfx::Point", %"class.gfx::Size" }
%"class.gfx::Size" = type { i32, i32 }
%"class.aura::WindowDelegate" = type opaque
%"class.std::__1::vector.60" = type { %"class.std::__1::__vector_base.61" }
%"class.std::__1::__vector_base.61" = type { %"class.aura::Window"**, %"class.aura::Window"**, %"class.std::__1::__compressed_pair.62" }
%"class.std::__1::__compressed_pair.62" = type { %"struct.std::__1::__compressed_pair_elem.63" }
%"struct.std::__1::__compressed_pair_elem.63" = type { %"class.aura::Window"** }
%class.SkRegion = type { %struct.SkIRect, %"struct.SkRegion::RunHead"* }
%struct.SkIRect = type { i32, i32, i32, i32 }
%"struct.SkRegion::RunHead" = type opaque
%"class.std::__1::unique_ptr.67" = type { %"class.std::__1::__compressed_pair.68" }
%"class.std::__1::__compressed_pair.68" = type { %"struct.std::__1::__compressed_pair_elem.69" }
%"struct.std::__1::__compressed_pair_elem.69" = type { %"class.aura::LayoutManager"* }
%"class.aura::LayoutManager" = type opaque
%"class.std::__1::unique_ptr.73" = type { %"class.std::__1::__compressed_pair.74" }
%"class.std::__1::__compressed_pair.74" = type { %"struct.std::__1::__compressed_pair_elem.75" }
%"struct.std::__1::__compressed_pair_elem.75" = type { %"class.aura::WindowTargeter"* }
%"class.aura::WindowTargeter" = type opaque
%"class.std::__1::vector.79" = type { %"class.std::__1::__vector_base.80" }
%"class.std::__1::__vector_base.80" = type { %"class.gfx::Rect"*, %"class.gfx::Rect"*, %"class.std::__1::__compressed_pair.81" }
%"class.std::__1::__compressed_pair.81" = type { %"struct.std::__1::__compressed_pair_elem.82" }
%"struct.std::__1::__compressed_pair_elem.82" = type { %"class.gfx::Rect"* }
%"class.base::ObserverList.86" = type <{ %"class.std::__1::vector.87", %"class.base::LinkedList.95", i64, i32, [4 x i8] }>
%"class.std::__1::vector.87" = type { %"class.std::__1::__vector_base.88" }
%"class.std::__1::__vector_base.88" = type { %"class.base::internal::CheckedObserverAdapter"*, %"class.base::internal::CheckedObserverAdapter"*, %"class.std::__1::__compressed_pair.90" }
%"class.base::internal::CheckedObserverAdapter" = type { %"class.base::WeakPtr.89" }
%"class.base::WeakPtr.89" = type { %"class.base::internal::WeakPtrBase" }
%"class.std::__1::__compressed_pair.90" = type { %"struct.std::__1::__compressed_pair_elem.91" }
%"struct.std::__1::__compressed_pair_elem.91" = type { %"class.base::internal::CheckedObserverAdapter"* }
%"class.base::LinkedList.95" = type { %"class.base::LinkNode.96" }
%"class.base::LinkNode.96" = type { %"class.base::internal::LinkNodeBase" }
%"class.viz::SubtreeCaptureId" = type { i32 }
%"class.viz::FrameSinkId" = type { i32, i32 }
%"class.std::__1::unique_ptr.98" = type { %"class.std::__1::__compressed_pair.99" }
%"class.std::__1::__compressed_pair.99" = type { %"struct.std::__1::__compressed_pair_elem.100" }
%"struct.std::__1::__compressed_pair_elem.100" = type { %"class.viz::ParentLocalSurfaceIdAllocator"* }
%"class.viz::ParentLocalSurfaceIdAllocator" = type opaque
%"class.base::WeakPtr.104" = type { %"class.base::internal::WeakPtrBase" }
%"class.base::ObserverList.105" = type <{ %"class.std::__1::vector", %"class.base::LinkedList.106", i64, i32, [4 x i8] }>
%"class.base::LinkedList.106" = type { %"class.base::LinkNode.107" }
%"class.base::LinkNode.107" = type { %"class.base::internal::LinkNodeBase" }
%"class.std::__1::unique_ptr.109" = type { %"class.std::__1::__compressed_pair.110" }
%"class.std::__1::__compressed_pair.110" = type { %"struct.std::__1::__compressed_pair_elem.111" }
%"struct.std::__1::__compressed_pair_elem.111" = type { %"class.aura::WindowEventDispatcher"* }
%"class.aura::WindowEventDispatcher" = type opaque
%"class.std::__1::unique_ptr.115" = type { %"class.std::__1::__compressed_pair.116" }
%"class.std::__1::__compressed_pair.116" = type { %"struct.std::__1::__compressed_pair_elem.117" }
%"struct.std::__1::__compressed_pair_elem.117" = type { %"class.ui::Compositor"* }
%"class.ui::Compositor" = type opaque
%"class.ui::Cursor" = type { i32, %class.scoped_refptr.121, float, %"class.gfx::Point", %class.SkBitmap }
%class.scoped_refptr.121 = type { %"class.ui::PlatformCursor"* }
%"class.ui::PlatformCursor" = type <{ i32 (...)**, %"class.base::RefCounted", [4 x i8] }>
%"class.base::RefCounted" = type { %"class.base::subtle::RefCountedBase" }
%"class.base::subtle::RefCountedBase" = type { i32 }
%class.SkBitmap = type { %class.sk_sp, %class.SkPixmap, %class.sk_sp.123 }
%class.sk_sp = type { %class.SkPixelRef* }
%class.SkPixelRef = type opaque
%class.SkPixmap = type { i8*, i64, %struct.SkImageInfo }
%struct.SkImageInfo = type { %class.SkColorInfo, %struct.SkISize }
%class.SkColorInfo = type { %class.sk_sp.122, i32, i32 }
%class.sk_sp.122 = type { %class.SkColorSpace* }
%class.SkColorSpace = type <{ %class.SkNVRefCnt, i32, i32, %struct.skcms_TransferFunction, %struct.skcms_Matrix3x3, %struct.skcms_TransferFunction, %struct.skcms_Matrix3x3, %class.SkOnce, [3 x i8] }>
%class.SkNVRefCnt = type { %"struct.std::__1::atomic" }
%struct.skcms_TransferFunction = type { float, float, float, float, float, float, float }
%struct.skcms_Matrix3x3 = type { [3 x [3 x float]] }
%class.SkOnce = type { %"struct.std::__1::atomic.1" }
%struct.SkISize = type { i32, i32 }
%class.sk_sp.123 = type { %class.SkMipmap* }
%class.SkMipmap = type opaque
%"class.gfx::Point" = type { i32, i32 }
%"class.std::__1::unique_ptr.124" = type { %"class.std::__1::__compressed_pair.125" }
%"class.std::__1::__compressed_pair.125" = type { %"struct.std::__1::__compressed_pair_elem.126" }
%"struct.std::__1::__compressed_pair_elem.126" = type { %"class.ui::ViewProp"* }
%"class.ui::ViewProp" = type opaque
%"class.ui::InputMethod" = type opaque
%"class.base::WeakPtrFactory.130" = type { %"class.base::internal::WeakPtrFactoryBase" }

@_ZTVN4aura18ScopedKeyboardHookE = hidden unnamed_addr constant { [5 x i8*] } { [5 x i8*] [i8* null, i8* null, i8* bitcast (void (%"class.aura::ScopedKeyboardHook"*)* @_ZN4aura18ScopedKeyboardHookD2Ev to i8*), i8* bitcast (void (%"class.aura::ScopedKeyboardHook"*)* @_ZN4aura18ScopedKeyboardHookD0Ev to i8*), i8* bitcast (i1 (%"class.aura::ScopedKeyboardHook"*, i32)* @_ZN4aura18ScopedKeyboardHook11IsKeyLockedEN2ui7DomCodeE to i8*)] }, align 8
@.str = private unnamed_addr constant [29 x i8] c"../../base/memory/weak_ptr.h\00", align 1
@.str.1 = private unnamed_addr constant [15 x i8] c"ref_.IsValid()\00", align 1

@_ZN4aura18ScopedKeyboardHookC1Ev = hidden unnamed_addr alias void (%"class.aura::ScopedKeyboardHook"*), void (%"class.aura::ScopedKeyboardHook"*)* @_ZN4aura18ScopedKeyboardHookC2Ev
@_ZN4aura18ScopedKeyboardHookC1EN4base7WeakPtrINS_14WindowTreeHostEEE = hidden unnamed_addr alias void (%"class.aura::ScopedKeyboardHook"*, %"class.base::WeakPtr"*), void (%"class.aura::ScopedKeyboardHook"*, %"class.base::WeakPtr"*)* @_ZN4aura18ScopedKeyboardHookC2EN4base7WeakPtrINS_14WindowTreeHostEEE
@_ZN4aura18ScopedKeyboardHookD1Ev = hidden unnamed_addr alias void (%"class.aura::ScopedKeyboardHook"*), void (%"class.aura::ScopedKeyboardHook"*)* @_ZN4aura18ScopedKeyboardHookD2Ev

; Function Attrs: nounwind ssp uwtable
define hidden void @_ZN4aura18ScopedKeyboardHookC2Ev(%"class.aura::ScopedKeyboardHook"*) unnamed_addr #0 align 2 {
  %2 = getelementptr inbounds %"class.aura::ScopedKeyboardHook", %"class.aura::ScopedKeyboardHook"* %0, i64 0, i32 0
  store i32 (...)** bitcast (i8** getelementptr inbounds ({ [5 x i8*] }, { [5 x i8*] }* @_ZTVN4aura18ScopedKeyboardHookE, i64 0, inrange i32 0, i64 2) to i32 (...)**), i32 (...)*** %2, align 8
  %3 = getelementptr inbounds %"class.aura::ScopedKeyboardHook", %"class.aura::ScopedKeyboardHook"* %0, i64 0, i32 1, i32 0
  tail call void @_ZN4base8internal11WeakPtrBaseC2Ev(%"class.base::internal::WeakPtrBase"* %3) #5
  ret void
}

; Function Attrs: nounwind ssp uwtable
define hidden void @_ZN4aura18ScopedKeyboardHookC2EN4base7WeakPtrINS_14WindowTreeHostEEE(%"class.aura::ScopedKeyboardHook"*, %"class.base::WeakPtr"*) unnamed_addr #0 align 2 {
  %3 = getelementptr inbounds %"class.aura::ScopedKeyboardHook", %"class.aura::ScopedKeyboardHook"* %0, i64 0, i32 0
  store i32 (...)** bitcast (i8** getelementptr inbounds ({ [5 x i8*] }, { [5 x i8*] }* @_ZTVN4aura18ScopedKeyboardHookE, i64 0, inrange i32 0, i64 2) to i32 (...)**), i32 (...)*** %3, align 8
  %4 = getelementptr inbounds %"class.aura::ScopedKeyboardHook", %"class.aura::ScopedKeyboardHook"* %0, i64 0, i32 1, i32 0, i32 0
  %5 = getelementptr inbounds %"class.base::WeakPtr", %"class.base::WeakPtr"* %1, i64 0, i32 0, i32 0
  tail call void @_ZN4base8internal13WeakReferenceC1ERKS1_(%"class.base::internal::WeakReference"* %4, %"class.base::internal::WeakReference"* dereferenceable(8) %5) #5
  %6 = getelementptr inbounds %"class.aura::ScopedKeyboardHook", %"class.aura::ScopedKeyboardHook"* %0, i64 0, i32 1, i32 0, i32 1
  %7 = getelementptr inbounds %"class.base::WeakPtr", %"class.base::WeakPtr"* %1, i64 0, i32 0, i32 1
  %8 = load i64, i64* %7, align 8
  store i64 %8, i64* %6, align 8
  ret void
}

; Function Attrs: nounwind ssp uwtable
define hidden void @_ZN4aura18ScopedKeyboardHookD2Ev(%"class.aura::ScopedKeyboardHook"*) unnamed_addr #0 align 2 {
  %2 = alloca %"class.logging::CheckError", align 8
  %3 = getelementptr inbounds %"class.aura::ScopedKeyboardHook", %"class.aura::ScopedKeyboardHook"* %0, i64 0, i32 0
  store i32 (...)** bitcast (i8** getelementptr inbounds ({ [5 x i8*] }, { [5 x i8*] }* @_ZTVN4aura18ScopedKeyboardHookE, i64 0, inrange i32 0, i64 2) to i32 (...)**), i32 (...)*** %3, align 8
  %4 = getelementptr inbounds %"class.aura::ScopedKeyboardHook", %"class.aura::ScopedKeyboardHook"* %0, i64 0, i32 1
  %5 = getelementptr inbounds %"class.base::WeakPtr", %"class.base::WeakPtr"* %4, i64 0, i32 0, i32 0
  %6 = tail call zeroext i1 @_ZNK4base8internal13WeakReference7IsValidEv(%"class.base::internal::WeakReference"* %5) #5
  br i1 %6, label %7, label %28

7:                                                ; preds = %1
  %8 = getelementptr inbounds %"class.aura::ScopedKeyboardHook", %"class.aura::ScopedKeyboardHook"* %0, i64 0, i32 1, i32 0, i32 1
  %9 = bitcast i64* %8 to %"class.aura::WindowTreeHost"**
  %10 = load %"class.aura::WindowTreeHost"*, %"class.aura::WindowTreeHost"** %9, align 8
  %11 = icmp eq %"class.aura::WindowTreeHost"* %10, null
  br i1 %11, label %28, label %12

12:                                               ; preds = %7
  %13 = tail call zeroext i1 @_ZNK4base8internal13WeakReference7IsValidEv(%"class.base::internal::WeakReference"* %5) #5
  br i1 %13, label %17, label %14

14:                                               ; preds = %12
  %15 = bitcast %"class.logging::CheckError"* %2 to i8*
  call void @llvm.lifetime.start.p0i8(i64 8, i8* nonnull %15) #5
  call void @_ZN7logging10CheckError5CheckEPKciS2_(%"class.logging::CheckError"* nonnull sret %2, i8* getelementptr inbounds ([29 x i8], [29 x i8]* @.str, i64 0, i64 0), i32 255, i8* getelementptr inbounds ([15 x i8], [15 x i8]* @.str.1, i64 0, i64 0)) #5
  %16 = call dereferenceable(160) %"class.std::__1::basic_ostream"* @_ZN7logging10CheckError6streamEv(%"class.logging::CheckError"* nonnull %2) #5
  call void @_ZN7logging10CheckErrorD1Ev(%"class.logging::CheckError"* nonnull %2) #5
  call void @llvm.lifetime.end.p0i8(i64 8, i8* nonnull %15) #5
  br label %17

17:                                               ; preds = %14, %12
  %18 = call zeroext i1 @_ZNK4base8internal13WeakReference7IsValidEv(%"class.base::internal::WeakReference"* %5) #5
  br i1 %18, label %19, label %22

19:                                               ; preds = %17
  %20 = load %"class.aura::WindowTreeHost"*, %"class.aura::WindowTreeHost"** %9, align 8
  %21 = bitcast %"class.aura::WindowTreeHost"* %20 to void (%"class.aura::WindowTreeHost"*)***
  br label %22

22:                                               ; preds = %17, %19
  %23 = phi void (%"class.aura::WindowTreeHost"*)*** [ %21, %19 ], [ null, %17 ]
  %24 = phi %"class.aura::WindowTreeHost"* [ %20, %19 ], [ null, %17 ]
  %25 = load void (%"class.aura::WindowTreeHost"*)**, void (%"class.aura::WindowTreeHost"*)*** %23, align 8
  %26 = getelementptr inbounds void (%"class.aura::WindowTreeHost"*)*, void (%"class.aura::WindowTreeHost"*)** %25, i64 30
  %27 = load void (%"class.aura::WindowTreeHost"*)*, void (%"class.aura::WindowTreeHost"*)** %26, align 8
  call void %27(%"class.aura::WindowTreeHost"* %24) #5
  br label %28

28:                                               ; preds = %7, %1, %22
  %29 = getelementptr inbounds %"class.base::WeakPtr", %"class.base::WeakPtr"* %4, i64 0, i32 0
  call void @_ZN4base8internal11WeakPtrBaseD2Ev(%"class.base::internal::WeakPtrBase"* %29) #5
  ret void
}

; Function Attrs: nounwind
declare void @_ZN4base8internal11WeakPtrBaseD2Ev(%"class.base::internal::WeakPtrBase"*) unnamed_addr #1

; Function Attrs: nounwind ssp uwtable
define hidden void @_ZN4aura18ScopedKeyboardHookD0Ev(%"class.aura::ScopedKeyboardHook"*) unnamed_addr #0 align 2 {
  tail call void @_ZN4aura18ScopedKeyboardHookD2Ev(%"class.aura::ScopedKeyboardHook"* %0) #5
  %2 = bitcast %"class.aura::ScopedKeyboardHook"* %0 to i8*
  tail call void @_ZdlPv(i8* %2) #6
  ret void
}

; Function Attrs: nobuiltin nounwind
declare void @_ZdlPv(i8*) local_unnamed_addr #2

; Function Attrs: nounwind ssp uwtable
define hidden zeroext i1 @_ZN4aura18ScopedKeyboardHook11IsKeyLockedEN2ui7DomCodeE(%"class.aura::ScopedKeyboardHook"*, i32) unnamed_addr #0 align 2 {
  %3 = alloca %"class.logging::CheckError", align 8
  %4 = getelementptr inbounds %"class.aura::ScopedKeyboardHook", %"class.aura::ScopedKeyboardHook"* %0, i64 0, i32 1, i32 0, i32 0
  %5 = tail call zeroext i1 @_ZNK4base8internal13WeakReference7IsValidEv(%"class.base::internal::WeakReference"* %4) #5
  br i1 %5, label %6, label %28

6:                                                ; preds = %2
  %7 = getelementptr inbounds %"class.aura::ScopedKeyboardHook", %"class.aura::ScopedKeyboardHook"* %0, i64 0, i32 1, i32 0, i32 1
  %8 = bitcast i64* %7 to %"class.aura::WindowTreeHost"**
  %9 = load %"class.aura::WindowTreeHost"*, %"class.aura::WindowTreeHost"** %8, align 8
  %10 = icmp eq %"class.aura::WindowTreeHost"* %9, null
  br i1 %10, label %28, label %11

11:                                               ; preds = %6
  %12 = tail call zeroext i1 @_ZNK4base8internal13WeakReference7IsValidEv(%"class.base::internal::WeakReference"* %4) #5
  br i1 %12, label %16, label %13

13:                                               ; preds = %11
  %14 = bitcast %"class.logging::CheckError"* %3 to i8*
  call void @llvm.lifetime.start.p0i8(i64 8, i8* nonnull %14) #5
  call void @_ZN7logging10CheckError5CheckEPKciS2_(%"class.logging::CheckError"* nonnull sret %3, i8* getelementptr inbounds ([29 x i8], [29 x i8]* @.str, i64 0, i64 0), i32 255, i8* getelementptr inbounds ([15 x i8], [15 x i8]* @.str.1, i64 0, i64 0)) #5
  %15 = call dereferenceable(160) %"class.std::__1::basic_ostream"* @_ZN7logging10CheckError6streamEv(%"class.logging::CheckError"* nonnull %3) #5
  call void @_ZN7logging10CheckErrorD1Ev(%"class.logging::CheckError"* nonnull %3) #5
  call void @llvm.lifetime.end.p0i8(i64 8, i8* nonnull %14) #5
  br label %16

16:                                               ; preds = %13, %11
  %17 = call zeroext i1 @_ZNK4base8internal13WeakReference7IsValidEv(%"class.base::internal::WeakReference"* %4) #5
  br i1 %17, label %18, label %21

18:                                               ; preds = %16
  %19 = load %"class.aura::WindowTreeHost"*, %"class.aura::WindowTreeHost"** %8, align 8
  %20 = bitcast %"class.aura::WindowTreeHost"* %19 to i1 (%"class.aura::WindowTreeHost"*, i32)***
  br label %21

21:                                               ; preds = %16, %18
  %22 = phi i1 (%"class.aura::WindowTreeHost"*, i32)*** [ %20, %18 ], [ null, %16 ]
  %23 = phi %"class.aura::WindowTreeHost"* [ %19, %18 ], [ null, %16 ]
  %24 = load i1 (%"class.aura::WindowTreeHost"*, i32)**, i1 (%"class.aura::WindowTreeHost"*, i32)*** %22, align 8
  %25 = getelementptr inbounds i1 (%"class.aura::WindowTreeHost"*, i32)*, i1 (%"class.aura::WindowTreeHost"*, i32)** %24, i64 31
  %26 = load i1 (%"class.aura::WindowTreeHost"*, i32)*, i1 (%"class.aura::WindowTreeHost"*, i32)** %25, align 8
  %27 = call zeroext i1 %26(%"class.aura::WindowTreeHost"* %23, i32 %1) #5
  br label %28

28:                                               ; preds = %6, %2, %21
  %29 = phi i1 [ false, %6 ], [ %27, %21 ], [ false, %2 ]
  ret i1 %29
}

declare void @_ZN4base8internal11WeakPtrBaseC2Ev(%"class.base::internal::WeakPtrBase"*) unnamed_addr #3

declare void @_ZN4base8internal13WeakReferenceC1ERKS1_(%"class.base::internal::WeakReference"*, %"class.base::internal::WeakReference"* dereferenceable(8)) unnamed_addr #3

declare zeroext i1 @_ZNK4base8internal13WeakReference7IsValidEv(%"class.base::internal::WeakReference"*) local_unnamed_addr #3

; Function Attrs: argmemonly nounwind
declare void @llvm.lifetime.start.p0i8(i64 immarg, i8* nocapture) #4

declare void @_ZN7logging10CheckError5CheckEPKciS2_(%"class.logging::CheckError"* sret, i8*, i32, i8*) local_unnamed_addr #3

declare dereferenceable(160) %"class.std::__1::basic_ostream"* @_ZN7logging10CheckError6streamEv(%"class.logging::CheckError"*) local_unnamed_addr #3

; Function Attrs: nounwind
declare void @_ZN7logging10CheckErrorD1Ev(%"class.logging::CheckError"*) unnamed_addr #1

; Function Attrs: argmemonly nounwind
declare void @llvm.lifetime.end.p0i8(i64 immarg, i8* nocapture) #4

attributes #0 = { nounwind ssp uwtable "correctly-rounded-divide-sqrt-fp-math"="false" "disable-tail-calls"="false" "less-precise-fpmad"="false" "min-legal-vector-width"="0" "no-frame-pointer-elim"="false" "no-frame-pointer-elim-non-leaf" "no-infs-fp-math"="false" "no-jump-tables"="false" "no-nans-fp-math"="false" "no-signed-zeros-fp-math"="false" "no-trapping-math"="false" "null-pointer-is-valid"="true" "stack-protector-buffer-size"="4" "target-cpu"="x86-64" "target-features"="+cx8,+fxsr,+mmx,+sse,+sse2,+sse3,+x87" "unsafe-fp-math"="false" "use-soft-float"="false" }
attributes #1 = { nounwind "correctly-rounded-divide-sqrt-fp-math"="false" "disable-tail-calls"="false" "less-precise-fpmad"="false" "no-frame-pointer-elim"="false" "no-frame-pointer-elim-non-leaf" "no-infs-fp-math"="false" "no-nans-fp-math"="false" "no-signed-zeros-fp-math"="false" "no-trapping-math"="false" "null-pointer-is-valid"="true" "stack-protector-buffer-size"="4" "target-cpu"="x86-64" "target-features"="+cx8,+fxsr,+mmx,+sse,+sse2,+sse3,+x87" "unsafe-fp-math"="false" "use-soft-float"="false" }
attributes #2 = { nobuiltin nounwind "correctly-rounded-divide-sqrt-fp-math"="false" "disable-tail-calls"="false" "less-precise-fpmad"="false" "no-frame-pointer-elim"="false" "no-frame-pointer-elim-non-leaf" "no-infs-fp-math"="false" "no-nans-fp-math"="false" "no-signed-zeros-fp-math"="false" "no-trapping-math"="false" "null-pointer-is-valid"="true" "stack-protector-buffer-size"="4" "target-cpu"="x86-64" "target-features"="+cx8,+fxsr,+mmx,+sse,+sse2,+sse3,+x87" "unsafe-fp-math"="false" "use-soft-float"="false" }
attributes #3 = { "correctly-rounded-divide-sqrt-fp-math"="false" "disable-tail-calls"="false" "less-precise-fpmad"="false" "no-frame-pointer-elim"="false" "no-frame-pointer-elim-non-leaf" "no-infs-fp-math"="false" "no-nans-fp-math"="false" "no-signed-zeros-fp-math"="false" "no-trapping-math"="false" "null-pointer-is-valid"="true" "stack-protector-buffer-size"="4" "target-cpu"="x86-64" "target-features"="+cx8,+fxsr,+mmx,+sse,+sse2,+sse3,+x87" "unsafe-fp-math"="false" "use-soft-float"="false" }
attributes #4 = { argmemonly nounwind }
attributes #5 = { nounwind }
attributes #6 = { builtin nounwind }

!llvm.module.flags = !{!0, !1}

!0 = !{i32 1, !"wchar_size", i32 4}
!1 = !{i32 7, !"PIC Level", i32 2}
