; ModuleID = 'gen/components/autofill/core/browser/proto/server.pb.cc'
source_filename = "gen/components/autofill/core/browser/proto/server.pb.cc"
target datalayout = "e-m:e-i64:64-f80:128-n8:16:32:64-S128"
target triple = "x86_64-unknown-linux-gnu"

module asm ".symver exp, exp@GLIBC_2.2.5"
module asm ".symver exp2, exp2@GLIBC_2.2.5"
module asm ".symver exp2f, exp2f@GLIBC_2.2.5"
module asm ".symver expf, expf@GLIBC_2.2.5"
module asm ".symver lgamma, lgamma@GLIBC_2.2.5"
module asm ".symver lgammaf, lgammaf@GLIBC_2.2.5"
module asm ".symver lgammal, lgammal@GLIBC_2.2.5"
module asm ".symver log, log@GLIBC_2.2.5"
module asm ".symver log2, log2@GLIBC_2.2.5"
module asm ".symver log2f, log2f@GLIBC_2.2.5"
module asm ".symver logf, logf@GLIBC_2.2.5"
module asm ".symver pow, pow@GLIBC_2.2.5"
module asm ".symver powf, powf@GLIBC_2.2.5"

%"class.autofill::AutofillQueryContents_Form_FieldDefaultTypeInternal" = type { %"class.google::protobuf::internal::ExplicitlyConstructed" }
%"class.google::protobuf::internal::ExplicitlyConstructed" = type { %"union.google::protobuf::internal::ExplicitlyConstructed<autofill::AutofillQueryContents_Form_Field>::AlignedUnion" }
%"union.google::protobuf::internal::ExplicitlyConstructed<autofill::AutofillQueryContents_Form_Field>::AlignedUnion" = type { i64, [48 x i8] }
%"class.autofill::AutofillQueryContents_FormDefaultTypeInternal" = type { %"class.google::protobuf::internal::ExplicitlyConstructed.0" }
%"class.google::protobuf::internal::ExplicitlyConstructed.0" = type { %"union.google::protobuf::internal::ExplicitlyConstructed<autofill::AutofillQueryContents_Form>::AlignedUnion" }
%"union.google::protobuf::internal::ExplicitlyConstructed<autofill::AutofillQueryContents_Form>::AlignedUnion" = type { i64, [56 x i8] }
%"class.autofill::AutofillQueryContentsDefaultTypeInternal" = type { %"class.google::protobuf::internal::ExplicitlyConstructed.1" }
%"class.google::protobuf::internal::ExplicitlyConstructed.1" = type { %"union.google::protobuf::internal::ExplicitlyConstructed<autofill::AutofillQueryContents>::AlignedUnion" }
%"union.google::protobuf::internal::ExplicitlyConstructed<autofill::AutofillQueryContents>::AlignedUnion" = type { i64, [64 x i8] }
%"class.autofill::AutofillQueryResponseContents_Field_FieldPredictionDefaultTypeInternal" = type { %"class.google::protobuf::internal::ExplicitlyConstructed.2" }
%"class.google::protobuf::internal::ExplicitlyConstructed.2" = type { %"union.google::protobuf::internal::ExplicitlyConstructed<autofill::AutofillQueryResponseContents_Field_FieldPrediction>::AlignedUnion" }
%"union.google::protobuf::internal::ExplicitlyConstructed<autofill::AutofillQueryResponseContents_Field_FieldPrediction>::AlignedUnion" = type { i64, [24 x i8] }
%"class.autofill::AutofillQueryResponseContents_FieldDefaultTypeInternal" = type { %"class.google::protobuf::internal::ExplicitlyConstructed.3" }
%"class.google::protobuf::internal::ExplicitlyConstructed.3" = type { %"union.google::protobuf::internal::ExplicitlyConstructed<autofill::AutofillQueryResponseContents_Field>::AlignedUnion" }
%"union.google::protobuf::internal::ExplicitlyConstructed<autofill::AutofillQueryResponseContents_Field>::AlignedUnion" = type { i64, [56 x i8] }
%"class.autofill::AutofillQueryResponseContentsDefaultTypeInternal" = type { %"class.google::protobuf::internal::ExplicitlyConstructed.4" }
%"class.google::protobuf::internal::ExplicitlyConstructed.4" = type { %"union.google::protobuf::internal::ExplicitlyConstructed<autofill::AutofillQueryResponseContents>::AlignedUnion" }
%"union.google::protobuf::internal::ExplicitlyConstructed<autofill::AutofillQueryResponseContents>::AlignedUnion" = type { i64, [48 x i8] }
%"class.autofill::AutofillRandomizedValueDefaultTypeInternal" = type { %"class.google::protobuf::internal::ExplicitlyConstructed.5" }
%"class.google::protobuf::internal::ExplicitlyConstructed.5" = type { %"union.google::protobuf::internal::ExplicitlyConstructed<autofill::AutofillRandomizedValue>::AlignedUnion" }
%"union.google::protobuf::internal::ExplicitlyConstructed<autofill::AutofillRandomizedValue>::AlignedUnion" = type { i64, [32 x i8] }
%"class.autofill::AutofillRandomizedFormMetadata_ButtonTitleDefaultTypeInternal" = type { %"class.google::protobuf::internal::ExplicitlyConstructed.6" }
%"class.google::protobuf::internal::ExplicitlyConstructed.6" = type { %"union.google::protobuf::internal::ExplicitlyConstructed<autofill::AutofillRandomizedFormMetadata_ButtonTitle>::AlignedUnion" }
%"union.google::protobuf::internal::ExplicitlyConstructed<autofill::AutofillRandomizedFormMetadata_ButtonTitle>::AlignedUnion" = type { i64, [32 x i8] }
%"class.autofill::AutofillRandomizedFormMetadataDefaultTypeInternal" = type { %"class.google::protobuf::internal::ExplicitlyConstructed.7" }
%"class.google::protobuf::internal::ExplicitlyConstructed.7" = type { %"union.google::protobuf::internal::ExplicitlyConstructed<autofill::AutofillRandomizedFormMetadata>::AlignedUnion" }
%"union.google::protobuf::internal::ExplicitlyConstructed<autofill::AutofillRandomizedFormMetadata>::AlignedUnion" = type { i64, [72 x i8] }
%"class.autofill::AutofillRandomizedFieldMetadataDefaultTypeInternal" = type { %"class.google::protobuf::internal::ExplicitlyConstructed.8" }
%"class.google::protobuf::internal::ExplicitlyConstructed.8" = type { %"union.google::protobuf::internal::ExplicitlyConstructed<autofill::AutofillRandomizedFieldMetadata>::AlignedUnion" }
%"union.google::protobuf::internal::ExplicitlyConstructed<autofill::AutofillRandomizedFieldMetadata>::AlignedUnion" = type { i64, [88 x i8] }
%"class.autofill::AutofillUploadContents_Field_AutofillTypeValiditiesPairDefaultTypeInternal" = type { %"class.google::protobuf::internal::ExplicitlyConstructed.9" }
%"class.google::protobuf::internal::ExplicitlyConstructed.9" = type { %"union.google::protobuf::internal::ExplicitlyConstructed<autofill::AutofillUploadContents_Field_AutofillTypeValiditiesPair>::AlignedUnion" }
%"union.google::protobuf::internal::ExplicitlyConstructed<autofill::AutofillUploadContents_Field_AutofillTypeValiditiesPair>::AlignedUnion" = type { i64, [40 x i8] }
%"class.autofill::AutofillUploadContents_FieldDefaultTypeInternal" = type { %"class.google::protobuf::internal::ExplicitlyConstructed.10" }
%"class.google::protobuf::internal::ExplicitlyConstructed.10" = type { %"union.google::protobuf::internal::ExplicitlyConstructed<autofill::AutofillUploadContents_Field>::AlignedUnion" }
%"union.google::protobuf::internal::ExplicitlyConstructed<autofill::AutofillUploadContents_Field>::AlignedUnion" = type { i64, [128 x i8] }
%"class.autofill::AutofillUploadContents_ButtonTitleDefaultTypeInternal" = type { %"class.google::protobuf::internal::ExplicitlyConstructed.11" }
%"class.google::protobuf::internal::ExplicitlyConstructed.11" = type { %"union.google::protobuf::internal::ExplicitlyConstructed<autofill::AutofillUploadContents_ButtonTitle>::AlignedUnion" }
%"union.google::protobuf::internal::ExplicitlyConstructed<autofill::AutofillUploadContents_ButtonTitle>::AlignedUnion" = type { i64, [32 x i8] }
%"class.autofill::AutofillUploadContentsDefaultTypeInternal" = type { %"class.google::protobuf::internal::ExplicitlyConstructed.12" }
%"class.google::protobuf::internal::ExplicitlyConstructed.12" = type { %"union.google::protobuf::internal::ExplicitlyConstructed<autofill::AutofillUploadContents>::AlignedUnion" }
%"union.google::protobuf::internal::ExplicitlyConstructed<autofill::AutofillUploadContents>::AlignedUnion" = type { i64, [160 x i8] }
%"class.autofill::ProfileValidityMap_FieldValidityStatesEntry_DoNotUseDefaultTypeInternal" = type { %"class.google::protobuf::internal::ExplicitlyConstructed.13" }
%"class.google::protobuf::internal::ExplicitlyConstructed.13" = type { %"union.google::protobuf::internal::ExplicitlyConstructed<autofill::ProfileValidityMap_FieldValidityStatesEntry_DoNotUse>::AlignedUnion" }
%"union.google::protobuf::internal::ExplicitlyConstructed<autofill::ProfileValidityMap_FieldValidityStatesEntry_DoNotUse>::AlignedUnion" = type { i64, [24 x i8] }
%"class.autofill::ProfileValidityMapDefaultTypeInternal" = type { %"class.google::protobuf::internal::ExplicitlyConstructed.14" }
%"class.google::protobuf::internal::ExplicitlyConstructed.14" = type { %"union.google::protobuf::internal::ExplicitlyConstructed<autofill::ProfileValidityMap>::AlignedUnion" }
%"union.google::protobuf::internal::ExplicitlyConstructed<autofill::ProfileValidityMap>::AlignedUnion" = type { i64, [64 x i8] }
%"class.autofill::UserProfileValidityMap_ProfileValidityEntry_DoNotUseDefaultTypeInternal" = type { %"class.google::protobuf::internal::ExplicitlyConstructed.15" }
%"class.google::protobuf::internal::ExplicitlyConstructed.15" = type { %"union.google::protobuf::internal::ExplicitlyConstructed<autofill::UserProfileValidityMap_ProfileValidityEntry_DoNotUse>::AlignedUnion" }
%"union.google::protobuf::internal::ExplicitlyConstructed<autofill::UserProfileValidityMap_ProfileValidityEntry_DoNotUse>::AlignedUnion" = type { i64, [32 x i8] }
%"class.autofill::UserProfileValidityMapDefaultTypeInternal" = type { %"class.google::protobuf::internal::ExplicitlyConstructed.16" }
%"class.google::protobuf::internal::ExplicitlyConstructed.16" = type { %"union.google::protobuf::internal::ExplicitlyConstructed<autofill::UserProfileValidityMap>::AlignedUnion" }
%"union.google::protobuf::internal::ExplicitlyConstructed<autofill::UserProfileValidityMap>::AlignedUnion" = type { i64, [64 x i8] }
%"struct.google::protobuf::internal::SCCInfo.18" = type { %"struct.google::protobuf::internal::SCCInfoBase", [1 x i8*] }
%"struct.google::protobuf::internal::SCCInfoBase" = type { %"struct.std::__1::atomic", i32, i32, void ()* }
%"struct.std::__1::atomic" = type { %"struct.std::__1::__atomic_base" }
%"struct.std::__1::__atomic_base" = type { %"struct.std::__1::__atomic_base.17" }
%"struct.std::__1::__atomic_base.17" = type { %"struct.std::__1::__cxx_atomic_impl" }
%"struct.std::__1::__cxx_atomic_impl" = type { %"struct.std::__1::__cxx_atomic_base_impl" }
%"struct.std::__1::__cxx_atomic_base_impl" = type { i32 }
%"struct.google::protobuf::internal::EnumEntry" = type <{ %"class.google::protobuf::StringPiece", i32, [4 x i8] }>
%"class.google::protobuf::StringPiece" = type { i8*, i64 }
%"class.google::protobuf::internal::ExplicitlyConstructed.22" = type { %"union.google::protobuf::internal::ExplicitlyConstructed<std::__1::basic_string<char, std::__1::char_traits<char>, std::__1::allocator<char> > >::AlignedUnion" }
%"union.google::protobuf::internal::ExplicitlyConstructed<std::__1::basic_string<char, std::__1::char_traits<char>, std::__1::allocator<char> > >::AlignedUnion" = type { i64, [16 x i8] }
%"class.autofill::PasswordRequirementsSpecDefaultTypeInternal" = type opaque
%"struct.google::protobuf::MapPair" = type { i32, i32 }
%"class.autofill::AutofillQueryContents_Form_Field" = type <{ %"class.google::protobuf::MessageLite", %"class.google::protobuf::internal::HasBits", %"class.google::protobuf::internal::CachedSize", %"struct.google::protobuf::internal::ArenaStringPtr", %"struct.google::protobuf::internal::ArenaStringPtr", %"class.autofill::AutofillRandomizedFieldMetadata"*, i32, [4 x i8] }>
%"class.google::protobuf::MessageLite" = type { i32 (...)**, %"class.google::protobuf::internal::InternalMetadata" }
%"class.google::protobuf::internal::InternalMetadata" = type { i8* }
%"class.google::protobuf::internal::HasBits" = type { [1 x i32] }
%"class.google::protobuf::internal::CachedSize" = type { %"struct.std::__1::atomic" }
%"struct.google::protobuf::internal::ArenaStringPtr" = type { %"class.std::__1::basic_string"* }
%"class.std::__1::basic_string" = type { %"class.std::__1::__compressed_pair" }
%"class.std::__1::__compressed_pair" = type { %"struct.std::__1::__compressed_pair_elem" }
%"struct.std::__1::__compressed_pair_elem" = type { %"struct.std::__1::basic_string<char, std::__1::char_traits<char>, std::__1::allocator<char> >::__rep" }
%"struct.std::__1::basic_string<char, std::__1::char_traits<char>, std::__1::allocator<char> >::__rep" = type { %union.anon }
%union.anon = type { %"struct.std::__1::basic_string<char, std::__1::char_traits<char>, std::__1::allocator<char> >::__long" }
%"struct.std::__1::basic_string<char, std::__1::char_traits<char>, std::__1::allocator<char> >::__long" = type { i8*, i64, i64 }
%"class.autofill::AutofillRandomizedFieldMetadata" = type { %"class.google::protobuf::MessageLite", %"class.google::protobuf::internal::HasBits", %"class.google::protobuf::internal::CachedSize", %"class.autofill::AutofillRandomizedValue"*, %"class.autofill::AutofillRandomizedValue"*, %"class.autofill::AutofillRandomizedValue"*, %"class.autofill::AutofillRandomizedValue"*, %"class.autofill::AutofillRandomizedValue"*, %"class.autofill::AutofillRandomizedValue"*, %"class.autofill::AutofillRandomizedValue"*, %"class.autofill::AutofillRandomizedValue"*, %"class.autofill::AutofillRandomizedValue"* }
%"class.autofill::AutofillRandomizedValue" = type { %"class.google::protobuf::MessageLite", %"class.google::protobuf::internal::HasBits", %"class.google::protobuf::internal::CachedSize", %"struct.google::protobuf::internal::ArenaStringPtr", i32, i32 }
%"class.google::protobuf::Arena" = type { %"class.google::protobuf::internal::ArenaImpl", void (%"class.std::type_info"*, i64, i8*)*, void (%"class.google::protobuf::Arena"*, i8*, i64)*, void (%"class.google::protobuf::Arena"*, i8*, i64)*, i8* }
%"class.google::protobuf::internal::ArenaImpl" = type { %"struct.std::__1::atomic.23", %"struct.std::__1::atomic.23", %"struct.std::__1::atomic.27", %"class.google::protobuf::internal::ArenaImpl::Block"*, i64, %"struct.google::protobuf::internal::ArenaImpl::Options" }
%"struct.std::__1::atomic.23" = type { %"struct.std::__1::__atomic_base.24" }
%"struct.std::__1::__atomic_base.24" = type { %"struct.std::__1::__cxx_atomic_impl.25" }
%"struct.std::__1::__cxx_atomic_impl.25" = type { %"struct.std::__1::__cxx_atomic_base_impl.26" }
%"struct.std::__1::__cxx_atomic_base_impl.26" = type { %"class.google::protobuf::internal::ArenaImpl::SerialArena"* }
%"class.google::protobuf::internal::ArenaImpl::SerialArena" = type { %"class.google::protobuf::internal::ArenaImpl"*, i8*, %"class.google::protobuf::internal::ArenaImpl::Block"*, %"struct.google::protobuf::internal::ArenaImpl::CleanupChunk"*, %"class.google::protobuf::internal::ArenaImpl::SerialArena"*, i8*, i8*, %"struct.google::protobuf::internal::ArenaImpl::CleanupNode"*, %"struct.google::protobuf::internal::ArenaImpl::CleanupNode"* }
%"struct.google::protobuf::internal::ArenaImpl::CleanupChunk" = type { i64, %"struct.google::protobuf::internal::ArenaImpl::CleanupChunk"*, [1 x %"struct.google::protobuf::internal::ArenaImpl::CleanupNode"] }
%"struct.google::protobuf::internal::ArenaImpl::CleanupNode" = type { i8*, void (i8*)* }
%"struct.std::__1::atomic.27" = type { %"struct.std::__1::__atomic_base.28" }
%"struct.std::__1::__atomic_base.28" = type { %"struct.std::__1::__atomic_base.29" }
%"struct.std::__1::__atomic_base.29" = type { %"struct.std::__1::__cxx_atomic_impl.30" }
%"struct.std::__1::__cxx_atomic_impl.30" = type { %"struct.std::__1::__cxx_atomic_base_impl.31" }
%"struct.std::__1::__cxx_atomic_base_impl.31" = type { i64 }
%"class.google::protobuf::internal::ArenaImpl::Block" = type { %"class.google::protobuf::internal::ArenaImpl::Block"*, i64, i64 }
%"struct.google::protobuf::internal::ArenaImpl::Options" = type { i64, i64, i8*, i64, i8* (i64)*, void (i8*, i64)* }
%"class.std::type_info" = type { i32 (...)**, i8* }
%"class.autofill::AutofillQueryContents_Form" = type { %"class.google::protobuf::MessageLite", %"class.google::protobuf::internal::HasBits", %"class.google::protobuf::internal::CachedSize", %"class.google::protobuf::RepeatedPtrField.32", %"class.autofill::AutofillRandomizedFormMetadata"*, i64 }
%"class.google::protobuf::RepeatedPtrField.32" = type { %"class.google::protobuf::internal::RepeatedPtrFieldBase" }
%"class.google::protobuf::internal::RepeatedPtrFieldBase" = type { %"class.google::protobuf::Arena"*, i32, i32, %"struct.google::protobuf::internal::RepeatedPtrFieldBase::Rep"* }
%"struct.google::protobuf::internal::RepeatedPtrFieldBase::Rep" = type { i32, [268435454 x i8*] }
%"class.autofill::AutofillRandomizedFormMetadata" = type { %"class.google::protobuf::MessageLite", %"class.google::protobuf::internal::HasBits", %"class.google::protobuf::internal::CachedSize", %"class.google::protobuf::RepeatedPtrField", %"class.autofill::AutofillRandomizedValue"*, %"class.autofill::AutofillRandomizedValue"*, %"class.autofill::AutofillRandomizedValue"*, %"class.autofill::AutofillRandomizedValue"* }
%"class.google::protobuf::RepeatedPtrField" = type { %"class.google::protobuf::internal::RepeatedPtrFieldBase" }
%"class.autofill::AutofillQueryContents" = type { %"class.google::protobuf::MessageLite", %"class.google::protobuf::internal::HasBits", %"class.google::protobuf::internal::CachedSize", %"class.google::protobuf::RepeatedPtrField.33", %"class.google::protobuf::RepeatedField", %"struct.google::protobuf::internal::ArenaStringPtr" }
%"class.google::protobuf::RepeatedPtrField.33" = type { %"class.google::protobuf::internal::RepeatedPtrFieldBase" }
%"class.google::protobuf::RepeatedField" = type { i32, i32, i8* }
%"class.autofill::AutofillQueryResponseContents_Field_FieldPrediction" = type <{ %"class.google::protobuf::MessageLite", %"class.google::protobuf::internal::HasBits", %"class.google::protobuf::internal::CachedSize", i32, i8, [3 x i8] }>
%"class.autofill::AutofillQueryResponseContents_Field" = type <{ %"class.google::protobuf::MessageLite", %"class.google::protobuf::internal::HasBits", %"class.google::protobuf::internal::CachedSize", %"class.google::protobuf::RepeatedPtrField.35", %"class.autofill::PasswordRequirementsSpec"*, i32, [4 x i8] }>
%"class.google::protobuf::RepeatedPtrField.35" = type { %"class.google::protobuf::internal::RepeatedPtrFieldBase" }
%"class.autofill::PasswordRequirementsSpec" = type { %"class.google::protobuf::MessageLite", %"class.google::protobuf::internal::HasBits", %"class.google::protobuf::internal::CachedSize", %"class.autofill::PasswordRequirementsSpec_CharacterClass"*, %"class.autofill::PasswordRequirementsSpec_CharacterClass"*, %"class.autofill::PasswordRequirementsSpec_CharacterClass"*, %"class.autofill::PasswordRequirementsSpec_CharacterClass"*, %"class.autofill::PasswordRequirementsSpec_CharacterClass"*, i32, i32, i32, i32 }
%"class.autofill::PasswordRequirementsSpec_CharacterClass" = type { %"class.google::protobuf::MessageLite", %"class.google::protobuf::internal::HasBits", %"class.google::protobuf::internal::CachedSize", %"struct.google::protobuf::internal::ArenaStringPtr", i32, i32 }
%"class.autofill::AutofillQueryResponseContents" = type <{ %"class.google::protobuf::MessageLite", %"class.google::protobuf::internal::HasBits", %"class.google::protobuf::internal::CachedSize", %"class.google::protobuf::RepeatedPtrField.37", i8, [7 x i8] }>
%"class.google::protobuf::RepeatedPtrField.37" = type { %"class.google::protobuf::internal::RepeatedPtrFieldBase" }
%"class.autofill::AutofillRandomizedFormMetadata_ButtonTitle" = type <{ %"class.google::protobuf::MessageLite", %"class.google::protobuf::internal::HasBits", %"class.google::protobuf::internal::CachedSize", %"class.autofill::AutofillRandomizedValue"*, i32, [4 x i8] }>
%"class.autofill::AutofillUploadContents_Field_AutofillTypeValiditiesPair" = type <{ %"class.google::protobuf::MessageLite", %"class.google::protobuf::internal::HasBits", %"class.google::protobuf::internal::CachedSize", %"class.google::protobuf::RepeatedField.40", i32, [4 x i8] }>
%"class.google::protobuf::RepeatedField.40" = type { i32, i32, i8* }
%"class.autofill::AutofillUploadContents_Field" = type { %"class.google::protobuf::MessageLite", %"class.google::protobuf::internal::HasBits", %"class.google::protobuf::internal::CachedSize", %"class.google::protobuf::RepeatedField.41", %"class.google::protobuf::RepeatedPtrField.42", %"struct.google::protobuf::internal::ArenaStringPtr", %"struct.google::protobuf::internal::ArenaStringPtr", %"struct.google::protobuf::internal::ArenaStringPtr", %"struct.google::protobuf::internal::ArenaStringPtr", %"struct.google::protobuf::internal::ArenaStringPtr", %"class.autofill::AutofillRandomizedFieldMetadata"*, i32, i32, i32, i8, i32, i32 }
%"class.google::protobuf::RepeatedField.41" = type { i32, i32, i8* }
%"class.google::protobuf::RepeatedPtrField.42" = type { %"class.google::protobuf::internal::RepeatedPtrFieldBase" }
%"class.autofill::AutofillUploadContents_ButtonTitle" = type <{ %"class.google::protobuf::MessageLite", %"class.google::protobuf::internal::HasBits", %"class.google::protobuf::internal::CachedSize", %"struct.google::protobuf::internal::ArenaStringPtr", i32, [4 x i8] }>
%"class.autofill::AutofillUploadContents" = type { %"class.google::protobuf::MessageLite", %"class.google::protobuf::internal::HasBits", %"class.google::protobuf::internal::CachedSize", %"class.google::protobuf::RepeatedPtrField.44", %"class.google::protobuf::RepeatedPtrField.45", %"struct.google::protobuf::internal::ArenaStringPtr", %"struct.google::protobuf::internal::ArenaStringPtr", %"struct.google::protobuf::internal::ArenaStringPtr", %"struct.google::protobuf::internal::ArenaStringPtr", %"class.autofill::AutofillRandomizedFormMetadata"*, i64, i64, i64, i8, i8, i8, i8, i32, i8, i8, i8, i8, i32, i64, i8, i32 }
%"class.google::protobuf::RepeatedPtrField.44" = type { %"class.google::protobuf::internal::RepeatedPtrFieldBase" }
%"class.google::protobuf::RepeatedPtrField.45" = type { %"class.google::protobuf::internal::RepeatedPtrFieldBase" }
%"class.autofill::ProfileValidityMap_FieldValidityStatesEntry_DoNotUse" = type { %"class.google::protobuf::internal::MapEntryLite.base", [4 x i8] }
%"class.google::protobuf::internal::MapEntryLite.base" = type { %"class.google::protobuf::internal::MapEntryImpl.base" }
%"class.google::protobuf::internal::MapEntryImpl.base" = type <{ %"class.google::protobuf::MessageLite", i32, i32, [1 x i32] }>
%"class.autofill::ProfileValidityMap" = type <{ %"class.google::protobuf::MessageLite", %"class.google::protobuf::internal::MapFieldLite", %"class.google::protobuf::internal::CachedSize", [4 x i8] }>
%"class.google::protobuf::internal::MapFieldLite" = type { %"class.google::protobuf::Map" }
%"class.google::protobuf::Map" = type { %"class.google::protobuf::Map<int, int>::InnerMap" }
%"class.google::protobuf::Map<int, int>::InnerMap" = type { i64, i64, i64, i64, i8**, %"class.google::protobuf::internal::MapAllocator" }
%"class.google::protobuf::internal::MapAllocator" = type { %"class.google::protobuf::Arena"* }
%"class.autofill::UserProfileValidityMap_ProfileValidityEntry_DoNotUse" = type { %"class.google::protobuf::internal::MapEntryLite.base.54", [4 x i8] }
%"class.google::protobuf::internal::MapEntryLite.base.54" = type { %"class.google::protobuf::internal::MapEntryImpl.base.53" }
%"class.google::protobuf::internal::MapEntryImpl.base.53" = type <{ %"class.google::protobuf::MessageLite", %"struct.google::protobuf::internal::ArenaStringPtr", %"class.autofill::ProfileValidityMap"*, [1 x i32] }>
%"class.autofill::UserProfileValidityMap" = type <{ %"class.google::protobuf::MessageLite", %"class.google::protobuf::internal::MapFieldLite.55", %"class.google::protobuf::internal::CachedSize", [4 x i8] }>
%"class.google::protobuf::internal::MapFieldLite.55" = type { %"class.google::protobuf::Map.56" }
%"class.google::protobuf::Map.56" = type { %"class.google::protobuf::Map<std::__1::basic_string<char, std::__1::char_traits<char>, std::__1::allocator<char> >, autofill::ProfileValidityMap>::InnerMap" }
%"class.google::protobuf::Map<std::__1::basic_string<char, std::__1::char_traits<char>, std::__1::allocator<char> >, autofill::ProfileValidityMap>::InnerMap" = type { i64, i64, i64, i64, i8**, %"class.google::protobuf::internal::MapAllocator" }
%"struct.std::__1::basic_string<char, std::__1::char_traits<char>, std::__1::allocator<char> >::__short" = type { [23 x i8], %struct.anon }
%struct.anon = type { i8 }
%"struct.google::protobuf::internal::InternalMetadata::Container" = type { %"struct.google::protobuf::internal::InternalMetadata::ContainerBase", %"class.std::__1::basic_string" }
%"struct.google::protobuf::internal::InternalMetadata::ContainerBase" = type { %"class.google::protobuf::Arena"* }
%"class.google::protobuf::internal::ParseContext" = type { %"class.google::protobuf::internal::EpsCopyInputStream", i32, i32, %"struct.google::protobuf::internal::ParseContext::Data" }
%"class.google::protobuf::internal::EpsCopyInputStream" = type { i8*, i8*, i8*, i32, i32, %"class.google::protobuf::io::ZeroCopyInputStream"*, [32 x i8], i64, i32, i32 }
%"class.google::protobuf::io::ZeroCopyInputStream" = type { i32 (...)** }
%"struct.google::protobuf::internal::ParseContext::Data" = type { %"class.google::protobuf::DescriptorPool"*, %"class.google::protobuf::MessageFactory"* }
%"class.google::protobuf::DescriptorPool" = type opaque
%"class.google::protobuf::MessageFactory" = type opaque
%"class.google::protobuf::io::EpsCopyOutputStream" = type <{ i8*, i8*, [32 x i8], %"class.google::protobuf::io::ZeroCopyOutputStream"*, i8, i8, i8, [5 x i8] }>
%"class.google::protobuf::io::ZeroCopyOutputStream" = type { i32 (...)** }
%"class.google::protobuf::internal::MapEntryImpl" = type <{ %"class.google::protobuf::MessageLite", i32, i32, [1 x i32], [4 x i8] }>
%"struct.std::__1::pair.106" = type <{ %"class.google::protobuf::Map<int, int>::InnerMap::iterator_base.107", i8, [7 x i8] }>
%"class.google::protobuf::Map<int, int>::InnerMap::iterator_base.107" = type { %"struct.google::protobuf::Map<int, int>::InnerMap::Node"*, %"class.google::protobuf::Map<int, int>::InnerMap"*, i64 }
%"struct.google::protobuf::Map<int, int>::InnerMap::Node" = type { %"struct.google::protobuf::MapPair", %"struct.google::protobuf::Map<int, int>::InnerMap::Node"* }
%"class.google::protobuf::Map<int, int>::const_iterator" = type { %"class.google::protobuf::Map<int, int>::InnerMap::iterator_base" }
%"class.google::protobuf::Map<int, int>::InnerMap::iterator_base" = type { %"struct.google::protobuf::Map<int, int>::InnerMap::Node"*, %"class.google::protobuf::Map<int, int>::InnerMap"*, i64 }
%"class.std::__1::__tree_end_node" = type { %"class.std::__1::__tree_node_base"* }
%"class.std::__1::__tree_node_base" = type <{ %"class.std::__1::__tree_end_node", %"class.std::__1::__tree_node_base"*, %"class.std::__1::__tree_end_node"*, i8, [7 x i8] }>
%"class.google::protobuf::internal::MapEntryImpl<autofill::ProfileValidityMap_FieldValidityStatesEntry_DoNotUse, google::protobuf::MessageLite, int, int, google::protobuf::internal::WireFormatLite::TYPE_INT32, google::protobuf::internal::WireFormatLite::TYPE_INT32>::Parser" = type { %"class.google::protobuf::internal::MapFieldLite"*, %"class.google::protobuf::Map"*, i32, i32*, %"class.google::protobuf::internal::MapEntryImpl"* }
%"struct.google::protobuf::internal::CompareByFirstField" = type { i8 }
%"struct.google::protobuf::internal::SortItem" = type { i32, %"struct.google::protobuf::MapPair"* }
%"class.google::protobuf::internal::MapEntryImpl.52" = type <{ %"class.google::protobuf::MessageLite", %"struct.google::protobuf::internal::ArenaStringPtr", %"class.autofill::ProfileValidityMap"*, [1 x i32], [4 x i8] }>
%"struct.std::__1::pair.129" = type <{ %"class.google::protobuf::Map<std::__1::basic_string<char, std::__1::char_traits<char>, std::__1::allocator<char> >, autofill::ProfileValidityMap>::InnerMap::iterator_base.130", i8, [7 x i8] }>
%"class.google::protobuf::Map<std::__1::basic_string<char, std::__1::char_traits<char>, std::__1::allocator<char> >, autofill::ProfileValidityMap>::InnerMap::iterator_base.130" = type { %"struct.google::protobuf::Map<std::__1::basic_string<char, std::__1::char_traits<char>, std::__1::allocator<char> >, autofill::ProfileValidityMap>::InnerMap::Node"*, %"class.google::protobuf::Map<std::__1::basic_string<char, std::__1::char_traits<char>, std::__1::allocator<char> >, autofill::ProfileValidityMap>::InnerMap"*, i64 }
%"struct.google::protobuf::Map<std::__1::basic_string<char, std::__1::char_traits<char>, std::__1::allocator<char> >, autofill::ProfileValidityMap>::InnerMap::Node" = type { %"struct.google::protobuf::MapPair.62", %"struct.google::protobuf::Map<std::__1::basic_string<char, std::__1::char_traits<char>, std::__1::allocator<char> >, autofill::ProfileValidityMap>::InnerMap::Node"* }
%"struct.google::protobuf::MapPair.62" = type { %"class.std::__1::basic_string", %"class.autofill::ProfileValidityMap" }
%"class.google::protobuf::Map<std::__1::basic_string<char, std::__1::char_traits<char>, std::__1::allocator<char> >, autofill::ProfileValidityMap>::const_iterator" = type { %"class.google::protobuf::Map<std::__1::basic_string<char, std::__1::char_traits<char>, std::__1::allocator<char> >, autofill::ProfileValidityMap>::InnerMap::iterator_base" }
%"class.google::protobuf::Map<std::__1::basic_string<char, std::__1::char_traits<char>, std::__1::allocator<char> >, autofill::ProfileValidityMap>::InnerMap::iterator_base" = type { %"struct.google::protobuf::Map<std::__1::basic_string<char, std::__1::char_traits<char>, std::__1::allocator<char> >, autofill::ProfileValidityMap>::InnerMap::Node"*, %"class.google::protobuf::Map<std::__1::basic_string<char, std::__1::char_traits<char>, std::__1::allocator<char> >, autofill::ProfileValidityMap>::InnerMap"*, i64 }
%"class.google::protobuf::internal::MapEntryImpl<autofill::UserProfileValidityMap_ProfileValidityEntry_DoNotUse, google::protobuf::MessageLite, std::__1::basic_string<char, std::__1::char_traits<char>, std::__1::allocator<char> >, autofill::ProfileValidityMap, google::protobuf::internal::WireFormatLite::TYPE_STRING, google::protobuf::internal::WireFormatLite::TYPE_MESSAGE>::Parser" = type { %"class.google::protobuf::internal::MapFieldLite.55"*, %"class.google::protobuf::Map.56"*, %"class.std::__1::basic_string", %"class.autofill::ProfileValidityMap"*, %"class.google::protobuf::internal::MapEntryImpl.52"* }
%"struct.google::protobuf::internal::CompareByDerefFirst" = type { i8 }
%"class.google::protobuf::internal::MapEntryLite" = type { %"class.google::protobuf::internal::MapEntryImpl.base", [4 x i8] }
%"class.google::protobuf::internal::MapEntryLite.51" = type { %"class.google::protobuf::internal::MapEntryImpl.base.53", [4 x i8] }
%"class.std::__1::__tree" = type { %"class.std::__1::__tree_end_node"*, %"class.std::__1::__compressed_pair.69", %"class.std::__1::__compressed_pair.73" }
%"class.std::__1::__compressed_pair.69" = type { %"struct.std::__1::__compressed_pair_elem.70", %"struct.std::__1::__compressed_pair_elem.71" }
%"struct.std::__1::__compressed_pair_elem.70" = type { %"class.std::__1::__tree_end_node" }
%"struct.std::__1::__compressed_pair_elem.71" = type { %"class.google::protobuf::internal::MapAllocator.72" }
%"class.google::protobuf::internal::MapAllocator.72" = type { %"class.google::protobuf::Arena"* }
%"class.std::__1::__compressed_pair.73" = type { %"struct.std::__1::__compressed_pair_elem.74" }
%"struct.std::__1::__compressed_pair_elem.74" = type { i64 }
%"class.std::__1::__tree_node" = type { %"class.std::__1::__tree_node_base.base", %"struct.std::__1::__value_type" }
%"class.std::__1::__tree_node_base.base" = type <{ %"class.std::__1::__tree_end_node", %"class.std::__1::__tree_node_base"*, %"class.std::__1::__tree_end_node"*, i8 }>
%"struct.std::__1::__value_type" = type { %"struct.std::__1::pair.76" }
%"struct.std::__1::pair.76" = type { i32, i8* }
%"class.std::__1::__tree.78" = type { %"class.std::__1::__tree_end_node"*, %"class.std::__1::__compressed_pair.79", %"class.std::__1::__compressed_pair.82" }
%"class.std::__1::__compressed_pair.79" = type { %"struct.std::__1::__compressed_pair_elem.70", %"struct.std::__1::__compressed_pair_elem.80" }
%"struct.std::__1::__compressed_pair_elem.80" = type { %"class.google::protobuf::internal::MapAllocator.81" }
%"class.google::protobuf::internal::MapAllocator.81" = type { %"class.google::protobuf::Arena"* }
%"class.std::__1::__compressed_pair.82" = type { %"struct.std::__1::__compressed_pair_elem.74" }
%"class.std::__1::__tree_node.91" = type { %"class.std::__1::__tree_node_base.base", %"struct.std::__1::__value_type.90" }
%"struct.std::__1::__value_type.90" = type { %"struct.std::__1::pair.89" }
%"struct.std::__1::pair.89" = type { %"class.std::__1::reference_wrapper", i8* }
%"class.std::__1::reference_wrapper" = type { %"class.std::__1::basic_string"* }
%"class.std::__1::map" = type { %"class.std::__1::__tree" }
%"class.google::protobuf::Map<int, int>::iterator" = type { %"class.google::protobuf::Map<int, int>::InnerMap::iterator_base.107" }
%"class.std::__1::__map_iterator" = type { %"class.std::__1::__tree_iterator" }
%"class.std::__1::__tree_iterator" = type { %"class.std::__1::__tree_end_node"* }
%"struct.std::__1::pair.132" = type { %"class.google::protobuf::Map<std::__1::basic_string<char, std::__1::char_traits<char>, std::__1::allocator<char> >, autofill::ProfileValidityMap>::InnerMap::iterator_base", i64 }
%"class.std::__1::__map_iterator.87" = type { %"class.std::__1::__tree_iterator.88" }
%"class.std::__1::__tree_iterator.88" = type { %"class.std::__1::__tree_end_node"* }
%"class.std::__1::map.77" = type { %"class.std::__1::__tree.78" }
%"struct.std::__1::__murmur2_or_cityhash" = type { i8 }
%"class.google::protobuf::Map<std::__1::basic_string<char, std::__1::char_traits<char>, std::__1::allocator<char> >, autofill::ProfileValidityMap>::iterator" = type { %"class.google::protobuf::Map<std::__1::basic_string<char, std::__1::char_traits<char>, std::__1::allocator<char> >, autofill::ProfileValidityMap>::InnerMap::iterator_base.130" }

$_ZN6google8protobuf8internal12ParseContext12ParseMessageIN8autofill31AutofillRandomizedFieldMetadataEEEPKcPT_S7_ = comdat any

$_ZN6google8protobuf8internal12ParseContext12ParseMessageIN8autofill30AutofillRandomizedFormMetadataEEEPKcPT_S7_ = comdat any

$_ZN6google8protobuf8internal12ParseContext12ParseMessageIN8autofill51AutofillQueryResponseContents_Field_FieldPredictionEEEPKcPT_S7_ = comdat any

$_ZN6google8protobuf8internal12ParseContext12ParseMessageIN8autofill24PasswordRequirementsSpecEEEPKcPT_S7_ = comdat any

$_ZN6google8protobuf8internal12ParseContext12ParseMessageIN8autofill23AutofillRandomizedValueEEEPKcPT_S7_ = comdat any

$_ZN6google8protobuf8internal12ParseContext12ParseMessageIN8autofill42AutofillRandomizedFormMetadata_ButtonTitleEEEPKcPT_S7_ = comdat any

$_ZN6google8protobuf8internal12ParseContext12ParseMessageIN8autofill55AutofillUploadContents_Field_AutofillTypeValiditiesPairEEEPKcPT_S7_ = comdat any

$_ZN6google8protobuf8internal12ParseContext12ParseMessageIN8autofill34AutofillUploadContents_ButtonTitleEEEPKcPT_S7_ = comdat any

$_ZN6google8protobuf8internal12ParseContext12ParseMessageINS1_12MapFieldLiteIN8autofill52ProfileValidityMap_FieldValidityStatesEntry_DoNotUseEiiLNS1_14WireFormatLite9FieldTypeE5ELS8_5EEEEEPKcPT_SB_ = comdat any

$_ZN6google8protobuf8internal13MapEntryFuncsIiiLNS1_14WireFormatLite9FieldTypeE5ELS4_5EE17InternalSerializeEiRKiS7_PhPNS0_2io19EpsCopyOutputStreamE = comdat any

$_ZN6google8protobuf8internal12MapEntryImplIN8autofill52UserProfileValidityMap_ProfileValidityEntry_DoNotUseENS0_11MessageLiteENSt3__112basic_stringIcNS6_11char_traitsIcEENS6_9allocatorIcEEEENS3_18ProfileValidityMapELNS1_14WireFormatLite9FieldTypeE9ELSF_11EE17MergeFromInternalERKSG_ = comdat any

$_ZN6google8protobuf8internal12MapFieldLiteIN8autofill52UserProfileValidityMap_ProfileValidityEntry_DoNotUseENSt3__112basic_stringIcNS5_11char_traitsIcEENS5_9allocatorIcEEEENS3_18ProfileValidityMapELNS1_14WireFormatLite9FieldTypeE9ELSE_11EE9MergeFromERKSF_ = comdat any

$_ZN6google8protobuf8internal12ParseContext12ParseMessageINS1_12MapFieldLiteIN8autofill52UserProfileValidityMap_ProfileValidityEntry_DoNotUseENSt3__112basic_stringIcNS7_11char_traitsIcEENS7_9allocatorIcEEEENS5_18ProfileValidityMapELNS1_14WireFormatLite9FieldTypeE9ELSG_11EEEEEPKcPT_SJ_ = comdat any

$_ZN6google8protobuf8internal13MapEntryFuncsINSt3__112basic_stringIcNS3_11char_traitsIcEENS3_9allocatorIcEEEEN8autofill18ProfileValidityMapELNS1_14WireFormatLite9FieldTypeE9ELSD_11EE17InternalSerializeEiRKS9_RKSB_PhPNS0_2io19EpsCopyOutputStreamE = comdat any

$_ZNK8autofill32AutofillQueryContents_Form_Field3NewEv = comdat any

$_ZNK8autofill32AutofillQueryContents_Form_Field3NewEPN6google8protobuf5ArenaE = comdat any

$_ZNK8autofill32AutofillQueryContents_Form_Field13GetCachedSizeEv = comdat any

$_ZNK6google8protobuf11MessageLite16InternalGetTableEv = comdat any

$_ZNK8autofill26AutofillQueryContents_Form3NewEv = comdat any

$_ZNK8autofill26AutofillQueryContents_Form3NewEPN6google8protobuf5ArenaE = comdat any

$_ZNK8autofill26AutofillQueryContents_Form13GetCachedSizeEv = comdat any

$_ZNK8autofill21AutofillQueryContents3NewEv = comdat any

$_ZNK8autofill21AutofillQueryContents3NewEPN6google8protobuf5ArenaE = comdat any

$_ZNK8autofill21AutofillQueryContents13GetCachedSizeEv = comdat any

$_ZNK8autofill51AutofillQueryResponseContents_Field_FieldPrediction3NewEv = comdat any

$_ZNK8autofill51AutofillQueryResponseContents_Field_FieldPrediction3NewEPN6google8protobuf5ArenaE = comdat any

$_ZNK8autofill51AutofillQueryResponseContents_Field_FieldPrediction13GetCachedSizeEv = comdat any

$_ZNK8autofill35AutofillQueryResponseContents_Field3NewEv = comdat any

$_ZNK8autofill35AutofillQueryResponseContents_Field3NewEPN6google8protobuf5ArenaE = comdat any

$_ZNK8autofill35AutofillQueryResponseContents_Field13GetCachedSizeEv = comdat any

$_ZNK8autofill29AutofillQueryResponseContents3NewEv = comdat any

$_ZNK8autofill29AutofillQueryResponseContents3NewEPN6google8protobuf5ArenaE = comdat any

$_ZNK8autofill29AutofillQueryResponseContents13GetCachedSizeEv = comdat any

$_ZNK8autofill23AutofillRandomizedValue3NewEv = comdat any

$_ZNK8autofill23AutofillRandomizedValue3NewEPN6google8protobuf5ArenaE = comdat any

$_ZNK8autofill23AutofillRandomizedValue13GetCachedSizeEv = comdat any

$_ZNK8autofill42AutofillRandomizedFormMetadata_ButtonTitle3NewEv = comdat any

$_ZNK8autofill42AutofillRandomizedFormMetadata_ButtonTitle3NewEPN6google8protobuf5ArenaE = comdat any

$_ZNK8autofill42AutofillRandomizedFormMetadata_ButtonTitle13GetCachedSizeEv = comdat any

$_ZNK8autofill30AutofillRandomizedFormMetadata3NewEv = comdat any

$_ZNK8autofill30AutofillRandomizedFormMetadata3NewEPN6google8protobuf5ArenaE = comdat any

$_ZNK8autofill30AutofillRandomizedFormMetadata13GetCachedSizeEv = comdat any

$_ZNK8autofill31AutofillRandomizedFieldMetadata3NewEv = comdat any

$_ZNK8autofill31AutofillRandomizedFieldMetadata3NewEPN6google8protobuf5ArenaE = comdat any

$_ZNK8autofill31AutofillRandomizedFieldMetadata13GetCachedSizeEv = comdat any

$_ZNK8autofill55AutofillUploadContents_Field_AutofillTypeValiditiesPair3NewEv = comdat any

$_ZNK8autofill55AutofillUploadContents_Field_AutofillTypeValiditiesPair3NewEPN6google8protobuf5ArenaE = comdat any

$_ZNK8autofill55AutofillUploadContents_Field_AutofillTypeValiditiesPair13GetCachedSizeEv = comdat any

$_ZNK8autofill28AutofillUploadContents_Field3NewEv = comdat any

$_ZNK8autofill28AutofillUploadContents_Field3NewEPN6google8protobuf5ArenaE = comdat any

$_ZNK8autofill28AutofillUploadContents_Field13GetCachedSizeEv = comdat any

$_ZNK8autofill34AutofillUploadContents_ButtonTitle3NewEv = comdat any

$_ZNK8autofill34AutofillUploadContents_ButtonTitle3NewEPN6google8protobuf5ArenaE = comdat any

$_ZNK8autofill34AutofillUploadContents_ButtonTitle13GetCachedSizeEv = comdat any

$_ZNK8autofill22AutofillUploadContents3NewEv = comdat any

$_ZNK8autofill22AutofillUploadContents3NewEPN6google8protobuf5ArenaE = comdat any

$_ZNK8autofill22AutofillUploadContents13GetCachedSizeEv = comdat any

$_ZNK8autofill18ProfileValidityMap3NewEv = comdat any

$_ZNK8autofill18ProfileValidityMap3NewEPN6google8protobuf5ArenaE = comdat any

$_ZNK8autofill18ProfileValidityMap13GetCachedSizeEv = comdat any

$_ZNK8autofill22UserProfileValidityMap3NewEv = comdat any

$_ZNK8autofill22UserProfileValidityMap3NewEPN6google8protobuf5ArenaE = comdat any

$_ZNK8autofill22UserProfileValidityMap13GetCachedSizeEv = comdat any

$_ZN6google8protobuf8internal12MapEntryLiteIN8autofill52ProfileValidityMap_FieldValidityStatesEntry_DoNotUseEiiLNS1_14WireFormatLite9FieldTypeE5ELS6_5EED2Ev = comdat any

$_ZN8autofill52ProfileValidityMap_FieldValidityStatesEntry_DoNotUseD0Ev = comdat any

$_ZNK6google8protobuf8internal12MapEntryImplIN8autofill52ProfileValidityMap_FieldValidityStatesEntry_DoNotUseENS0_11MessageLiteEiiLNS1_14WireFormatLite9FieldTypeE5ELS7_5EE11GetTypeNameEv = comdat any

$_ZNK6google8protobuf8internal12MapEntryImplIN8autofill52ProfileValidityMap_FieldValidityStatesEntry_DoNotUseENS0_11MessageLiteEiiLNS1_14WireFormatLite9FieldTypeE5ELS7_5EE3NewEv = comdat any

$_ZNK6google8protobuf8internal12MapEntryImplIN8autofill52ProfileValidityMap_FieldValidityStatesEntry_DoNotUseENS0_11MessageLiteEiiLNS1_14WireFormatLite9FieldTypeE5ELS7_5EE3NewEPNS0_5ArenaE = comdat any

$_ZN6google8protobuf8internal12MapEntryImplIN8autofill52ProfileValidityMap_FieldValidityStatesEntry_DoNotUseENS0_11MessageLiteEiiLNS1_14WireFormatLite9FieldTypeE5ELS7_5EE5ClearEv = comdat any

$_ZNK6google8protobuf8internal12MapEntryImplIN8autofill52ProfileValidityMap_FieldValidityStatesEntry_DoNotUseENS0_11MessageLiteEiiLNS1_14WireFormatLite9FieldTypeE5ELS7_5EE13IsInitializedEv = comdat any

$_ZN6google8protobuf8internal12MapEntryImplIN8autofill52ProfileValidityMap_FieldValidityStatesEntry_DoNotUseENS0_11MessageLiteEiiLNS1_14WireFormatLite9FieldTypeE5ELS7_5EE21CheckTypeAndMergeFromERKS5_ = comdat any

$_ZNK6google8protobuf8internal12MapEntryImplIN8autofill52ProfileValidityMap_FieldValidityStatesEntry_DoNotUseENS0_11MessageLiteEiiLNS1_14WireFormatLite9FieldTypeE5ELS7_5EE12ByteSizeLongEv = comdat any

$_ZNK6google8protobuf8internal12MapEntryImplIN8autofill52ProfileValidityMap_FieldValidityStatesEntry_DoNotUseENS0_11MessageLiteEiiLNS1_14WireFormatLite9FieldTypeE5ELS7_5EE13GetCachedSizeEv = comdat any

$_ZN6google8protobuf8internal12MapEntryImplIN8autofill52ProfileValidityMap_FieldValidityStatesEntry_DoNotUseENS0_11MessageLiteEiiLNS1_14WireFormatLite9FieldTypeE5ELS7_5EE14_InternalParseEPKcPNS1_12ParseContextE = comdat any

$_ZNK6google8protobuf8internal12MapEntryImplIN8autofill52ProfileValidityMap_FieldValidityStatesEntry_DoNotUseENS0_11MessageLiteEiiLNS1_14WireFormatLite9FieldTypeE5ELS7_5EE18_InternalSerializeEPhPNS0_2io19EpsCopyOutputStreamE = comdat any

$_ZNK6google8protobuf8internal12MapEntryImplIN8autofill52ProfileValidityMap_FieldValidityStatesEntry_DoNotUseENS0_11MessageLiteEiiLNS1_14WireFormatLite9FieldTypeE5ELS7_5EE3keyEv = comdat any

$_ZNK6google8protobuf8internal12MapEntryImplIN8autofill52ProfileValidityMap_FieldValidityStatesEntry_DoNotUseENS0_11MessageLiteEiiLNS1_14WireFormatLite9FieldTypeE5ELS7_5EE5valueEv = comdat any

$_ZN8autofill52UserProfileValidityMap_ProfileValidityEntry_DoNotUseD0Ev = comdat any

$_ZNK6google8protobuf8internal12MapEntryImplIN8autofill52UserProfileValidityMap_ProfileValidityEntry_DoNotUseENS0_11MessageLiteENSt3__112basic_stringIcNS6_11char_traitsIcEENS6_9allocatorIcEEEENS3_18ProfileValidityMapELNS1_14WireFormatLite9FieldTypeE9ELSF_11EE11GetTypeNameEv = comdat any

$_ZNK6google8protobuf8internal12MapEntryImplIN8autofill52UserProfileValidityMap_ProfileValidityEntry_DoNotUseENS0_11MessageLiteENSt3__112basic_stringIcNS6_11char_traitsIcEENS6_9allocatorIcEEEENS3_18ProfileValidityMapELNS1_14WireFormatLite9FieldTypeE9ELSF_11EE3NewEv = comdat any

$_ZNK6google8protobuf8internal12MapEntryImplIN8autofill52UserProfileValidityMap_ProfileValidityEntry_DoNotUseENS0_11MessageLiteENSt3__112basic_stringIcNS6_11char_traitsIcEENS6_9allocatorIcEEEENS3_18ProfileValidityMapELNS1_14WireFormatLite9FieldTypeE9ELSF_11EE3NewEPNS0_5ArenaE = comdat any

$_ZN6google8protobuf8internal12MapEntryImplIN8autofill52UserProfileValidityMap_ProfileValidityEntry_DoNotUseENS0_11MessageLiteENSt3__112basic_stringIcNS6_11char_traitsIcEENS6_9allocatorIcEEEENS3_18ProfileValidityMapELNS1_14WireFormatLite9FieldTypeE9ELSF_11EE5ClearEv = comdat any

$_ZNK6google8protobuf8internal12MapEntryImplIN8autofill52UserProfileValidityMap_ProfileValidityEntry_DoNotUseENS0_11MessageLiteENSt3__112basic_stringIcNS6_11char_traitsIcEENS6_9allocatorIcEEEENS3_18ProfileValidityMapELNS1_14WireFormatLite9FieldTypeE9ELSF_11EE13IsInitializedEv = comdat any

$_ZN6google8protobuf8internal12MapEntryImplIN8autofill52UserProfileValidityMap_ProfileValidityEntry_DoNotUseENS0_11MessageLiteENSt3__112basic_stringIcNS6_11char_traitsIcEENS6_9allocatorIcEEEENS3_18ProfileValidityMapELNS1_14WireFormatLite9FieldTypeE9ELSF_11EE21CheckTypeAndMergeFromERKS5_ = comdat any

$_ZNK6google8protobuf8internal12MapEntryImplIN8autofill52UserProfileValidityMap_ProfileValidityEntry_DoNotUseENS0_11MessageLiteENSt3__112basic_stringIcNS6_11char_traitsIcEENS6_9allocatorIcEEEENS3_18ProfileValidityMapELNS1_14WireFormatLite9FieldTypeE9ELSF_11EE12ByteSizeLongEv = comdat any

$_ZNK6google8protobuf8internal12MapEntryImplIN8autofill52UserProfileValidityMap_ProfileValidityEntry_DoNotUseENS0_11MessageLiteENSt3__112basic_stringIcNS6_11char_traitsIcEENS6_9allocatorIcEEEENS3_18ProfileValidityMapELNS1_14WireFormatLite9FieldTypeE9ELSF_11EE13GetCachedSizeEv = comdat any

$_ZN6google8protobuf8internal12MapEntryImplIN8autofill52UserProfileValidityMap_ProfileValidityEntry_DoNotUseENS0_11MessageLiteENSt3__112basic_stringIcNS6_11char_traitsIcEENS6_9allocatorIcEEEENS3_18ProfileValidityMapELNS1_14WireFormatLite9FieldTypeE9ELSF_11EE14_InternalParseEPKcPNS1_12ParseContextE = comdat any

$_ZNK6google8protobuf8internal12MapEntryImplIN8autofill52UserProfileValidityMap_ProfileValidityEntry_DoNotUseENS0_11MessageLiteENSt3__112basic_stringIcNS6_11char_traitsIcEENS6_9allocatorIcEEEENS3_18ProfileValidityMapELNS1_14WireFormatLite9FieldTypeE9ELSF_11EE18_InternalSerializeEPhPNS0_2io19EpsCopyOutputStreamE = comdat any

$_ZNK6google8protobuf8internal12MapEntryImplIN8autofill52UserProfileValidityMap_ProfileValidityEntry_DoNotUseENS0_11MessageLiteENSt3__112basic_stringIcNS6_11char_traitsIcEENS6_9allocatorIcEEEENS3_18ProfileValidityMapELNS1_14WireFormatLite9FieldTypeE9ELSF_11EE3keyEv = comdat any

$_ZNK6google8protobuf8internal12MapEntryImplIN8autofill52UserProfileValidityMap_ProfileValidityEntry_DoNotUseENS0_11MessageLiteENSt3__112basic_stringIcNS6_11char_traitsIcEENS6_9allocatorIcEEEENS3_18ProfileValidityMapELNS1_14WireFormatLite9FieldTypeE9ELSF_11EE5valueEv = comdat any

$_ZN6google8protobuf8internal14ArenaStringPtr14CreateInstanceEPNS0_5ArenaEPKNSt3__112basic_stringIcNS5_11char_traitsIcEENS5_9allocatorIcEEEE = comdat any

$_ZN6google8protobuf8internal21arena_destruct_objectINSt3__112basic_stringIcNS3_11char_traitsIcEENS3_9allocatorIcEEEEEEvPv = comdat any

$_ZN6google8protobuf3MapIiiE8InnerMap5clearEv = comdat any

$_ZNSt3__113__tree_removeIPNS_16__tree_node_baseIPvEEEEvT_S5_ = comdat any

$_ZNSt3__16__treeINS_12__value_typeIiPvEENS_19__map_value_compareIiS3_NS_4lessIiEELb1EEEN6google8protobuf8internal12MapAllocatorIS3_EEE7destroyEPNS_11__tree_nodeIS3_S2_EE = comdat any

$_ZN6google8protobuf3MapINSt3__112basic_stringIcNS2_11char_traitsIcEENS2_9allocatorIcEEEEN8autofill18ProfileValidityMapEE8InnerMap5clearEv = comdat any

$_ZNSt3__16__treeINS_12__value_typeINS_17reference_wrapperIKNS_12basic_stringIcNS_11char_traitsIcEENS_9allocatorIcEEEEEEPvEENS_19__map_value_compareISA_SC_NS_4lessIS8_EELb1EEEN6google8protobuf8internal12MapAllocatorISC_EEE7destroyEPNS_11__tree_nodeISC_SB_EE = comdat any

$_ZN6google8protobuf8internal16InternalMetadata27mutable_unknown_fields_slowINSt3__112basic_stringIcNS4_11char_traitsIcEENS4_9allocatorIcEEEEEEPT_v = comdat any

$_ZN6google8protobuf8internal21arena_destruct_objectINS1_16InternalMetadata9ContainerINSt3__112basic_stringIcNS5_11char_traitsIcEENS5_9allocatorIcEEEEEEEEvPv = comdat any

$_ZN6google8protobuf8internal20RepeatedPtrFieldBase5ClearINS0_16RepeatedPtrFieldIN8autofill26AutofillQueryContents_FormEE11TypeHandlerEEEvv = comdat any

$_ZN6google8protobuf8internal18GenericTypeHandlerIN8autofill32AutofillQueryContents_Form_FieldEE5MergeERKS4_PS4_ = comdat any

$_ZN6google8protobuf8internal18GenericTypeHandlerIN8autofill26AutofillQueryContents_FormEE5MergeERKS4_PS4_ = comdat any

$_ZN6google8protobuf8internal18GenericTypeHandlerIN8autofill51AutofillQueryResponseContents_Field_FieldPredictionEE5MergeERKS4_PS4_ = comdat any

$_ZN6google8protobuf8internal18GenericTypeHandlerIN8autofill35AutofillQueryResponseContents_FieldEE5MergeERKS4_PS4_ = comdat any

$_ZN6google8protobuf8internal18GenericTypeHandlerIN8autofill42AutofillRandomizedFormMetadata_ButtonTitleEE5MergeERKS4_PS4_ = comdat any

$_ZN6google8protobuf8internal18GenericTypeHandlerIN8autofill55AutofillUploadContents_Field_AutofillTypeValiditiesPairEE5MergeERKS4_PS4_ = comdat any

$_ZN6google8protobuf8internal18GenericTypeHandlerIN8autofill28AutofillUploadContents_FieldEE5MergeERKS4_PS4_ = comdat any

$_ZN6google8protobuf8internal18GenericTypeHandlerIN8autofill34AutofillUploadContents_ButtonTitleEE5MergeERKS4_PS4_ = comdat any

$_ZN6google8protobuf8internal12MapEntryLiteIN8autofill52ProfileValidityMap_FieldValidityStatesEntry_DoNotUseEiiLNS1_14WireFormatLite9FieldTypeE5ELS6_5EED0Ev = comdat any

$_ZN6google8protobuf8internal12MapEntryImplIN8autofill52ProfileValidityMap_FieldValidityStatesEntry_DoNotUseENS0_11MessageLiteEiiLNS1_14WireFormatLite9FieldTypeE5ELS7_5EED2Ev = comdat any

$_ZN6google8protobuf8internal12MapEntryImplIN8autofill52ProfileValidityMap_FieldValidityStatesEntry_DoNotUseENS0_11MessageLiteEiiLNS1_14WireFormatLite9FieldTypeE5ELS7_5EED0Ev = comdat any

$_ZN6google8protobuf3MapIiiE8InnerMap6insertERKi = comdat any

$_ZN6google8protobuf3MapIiiE8InnerMap12InsertUniqueEmPNS3_4NodeE = comdat any

$_ZN6google8protobuf3MapIiiE8InnerMap6ResizeEm = comdat any

$_ZN6google8protobuf3MapIiiE8InnerMap12TransferTreeEPKPvm = comdat any

$_ZN6google8protobuf3MapIiiE8InnerMap11TreeConvertEm = comdat any

$_ZN6google8protobuf8internal21arena_destruct_objectINSt3__13mapIiPvNS3_4lessIiEENS1_12MapAllocatorINS3_4pairIKiS5_EEEEEEEEvS5_ = comdat any

$_ZNSt3__16__treeINS_12__value_typeIiPvEENS_19__map_value_compareIiS3_NS_4lessIiEELb1EEEN6google8protobuf8internal12MapAllocatorIS3_EEE25__emplace_unique_key_argsIiJNS_4pairIKiS2_EEEEENSF_INS_15__tree_iteratorIS3_PNS_11__tree_nodeIS3_S2_EElEEbEERKT_DpOT0_ = comdat any

$_ZNSt3__127__tree_balance_after_insertIPNS_16__tree_node_baseIPvEEEEvT_S5_ = comdat any

$_ZN6google8protobuf8internal12MapEntryImplIN8autofill52ProfileValidityMap_FieldValidityStatesEntry_DoNotUseENS0_11MessageLiteEiiLNS1_14WireFormatLite9FieldTypeE5ELS7_5EE6ParserINS1_12MapFieldLiteIS4_iiLS7_5ELS7_5EEENS0_3MapIiiEEE14_InternalParseEPKcPNS1_12ParseContextE = comdat any

$_ZN6google8protobuf3MapIiiE5eraseIiEEmRKi = comdat any

$_ZN6google8protobuf3MapIiiE8InnerMap5eraseENS3_13iterator_baseINS0_7MapPairIiiEEEE = comdat any

$_ZN6google8protobuf3MapIiiE8InnerMap13iterator_baseINS0_7MapPairIiiEEEppEv = comdat any

$_ZN6google8protobuf3MapIiiE8InnerMap13iterator_baseINS0_7MapPairIiiEEE23revalidate_if_necessaryEPNSt3__114__map_iteratorINS8_15__tree_iteratorINS8_12__value_typeIiPvEEPNS8_11__tree_nodeISD_SC_EElEEEE = comdat any

$_ZN6google8protobuf3MapIiiE8InnerMap19EraseFromLinkedListEPNS3_4NodeES5_ = comdat any

$_ZN6google8protobuf3MapIiiE8InnerMap13iterator_baseIKNS0_7MapPairIiiEEEppEv = comdat any

$_ZN6google8protobuf3MapIiiE8InnerMap13iterator_baseIKNS0_7MapPairIiiEEE23revalidate_if_necessaryEPNSt3__114__map_iteratorINS9_15__tree_iteratorINS9_12__value_typeIiPvEEPNS9_11__tree_nodeISE_SD_EElEEEE = comdat any

$_ZNSt3__16__sortIRN6google8protobuf8internal19CompareByFirstFieldINS3_8SortItemIiPKNS2_7MapPairIiiEEEEEEPSA_EEvT0_SE_T_ = comdat any

$_ZNSt3__17__sort4IRN6google8protobuf8internal19CompareByFirstFieldINS3_8SortItemIiPKNS2_7MapPairIiiEEEEEEPSA_EEjT0_SE_SE_SE_T_ = comdat any

$_ZNSt3__127__insertion_sort_incompleteIRN6google8protobuf8internal19CompareByFirstFieldINS3_8SortItemIiPKNS2_7MapPairIiiEEEEEEPSA_EEbT0_SE_T_ = comdat any

$_ZN6google8protobuf3MapIiiE4swapERS2_ = comdat any

$_ZN6google8protobuf3MapIiiE6insertINS2_14const_iteratorEEEvT_S5_ = comdat any

$_ZN6google8protobuf8internal12MapEntryLiteIN8autofill52UserProfileValidityMap_ProfileValidityEntry_DoNotUseENSt3__112basic_stringIcNS5_11char_traitsIcEENS5_9allocatorIcEEEENS3_18ProfileValidityMapELNS1_14WireFormatLite9FieldTypeE9ELSE_11EED2Ev = comdat any

$_ZN6google8protobuf8internal12MapEntryLiteIN8autofill52UserProfileValidityMap_ProfileValidityEntry_DoNotUseENSt3__112basic_stringIcNS5_11char_traitsIcEENS5_9allocatorIcEEEENS3_18ProfileValidityMapELNS1_14WireFormatLite9FieldTypeE9ELSE_11EED0Ev = comdat any

$_ZN6google8protobuf8internal12MapEntryImplIN8autofill52UserProfileValidityMap_ProfileValidityEntry_DoNotUseENS0_11MessageLiteENSt3__112basic_stringIcNS6_11char_traitsIcEENS6_9allocatorIcEEEENS3_18ProfileValidityMapELNS1_14WireFormatLite9FieldTypeE9ELSF_11EED2Ev = comdat any

$_ZN6google8protobuf8internal12MapEntryImplIN8autofill52UserProfileValidityMap_ProfileValidityEntry_DoNotUseENS0_11MessageLiteENSt3__112basic_stringIcNS6_11char_traitsIcEENS6_9allocatorIcEEEENS3_18ProfileValidityMapELNS1_14WireFormatLite9FieldTypeE9ELSF_11EED0Ev = comdat any

$_ZN6google8protobuf3MapINSt3__112basic_stringIcNS2_11char_traitsIcEENS2_9allocatorIcEEEEN8autofill18ProfileValidityMapEE8InnerMap6insertERKS8_ = comdat any

$_ZN6google8protobuf3MapINSt3__112basic_stringIcNS2_11char_traitsIcEENS2_9allocatorIcEEEEN8autofill18ProfileValidityMapEE8InnerMap12InsertUniqueEmPNSC_4NodeE = comdat any

$_ZNK6google8protobuf3MapINSt3__112basic_stringIcNS2_11char_traitsIcEENS2_9allocatorIcEEEEN8autofill18ProfileValidityMapEE8InnerMap10FindHelperIS8_EENS2_4pairINSC_13iterator_baseIKNS0_7MapPairIS8_SA_EEEEmEERKT_PNS2_14__map_iteratorINS2_15__tree_iteratorINS2_12__value_typeINS2_17reference_wrapperIKS8_EEPvEEPNS2_11__tree_nodeISV_SU_EElEEEE = comdat any

$_ZNSt3__121__murmur2_or_cityhashImLm64EEclEPKvm = comdat any

$_ZNSt3__121__murmur2_or_cityhashImLm64EE18__hash_len_0_to_16EPKcm = comdat any

$_ZNSt3__16__treeINS_12__value_typeINS_17reference_wrapperIKNS_12basic_stringIcNS_11char_traitsIcEENS_9allocatorIcEEEEEEPvEENS_19__map_value_compareISA_SC_NS_4lessIS8_EELb1EEEN6google8protobuf8internal12MapAllocatorISC_EEE4findISA_EENS_15__tree_iteratorISC_PNS_11__tree_nodeISC_SB_EElEERKT_ = comdat any

$_ZN6google8protobuf3MapINSt3__112basic_stringIcNS2_11char_traitsIcEENS2_9allocatorIcEEEEN8autofill18ProfileValidityMapEE8InnerMap6ResizeEm = comdat any

$_ZN6google8protobuf3MapINSt3__112basic_stringIcNS2_11char_traitsIcEENS2_9allocatorIcEEEEN8autofill18ProfileValidityMapEE8InnerMap12TransferTreeEPKPvm = comdat any

$_ZN6google8protobuf5Arena13OwnDestructorINSt3__112basic_stringIcNS3_11char_traitsIcEENS3_9allocatorIcEEEEEEvPT_ = comdat any

$_ZN6google8protobuf3MapINSt3__112basic_stringIcNS2_11char_traitsIcEENS2_9allocatorIcEEEEN8autofill18ProfileValidityMapEE8InnerMap11TreeConvertEm = comdat any

$_ZN6google8protobuf8internal21arena_destruct_objectINSt3__13mapINS3_17reference_wrapperIKNS3_12basic_stringIcNS3_11char_traitsIcEENS3_9allocatorIcEEEEEEPvNS3_4lessISB_EENS1_12MapAllocatorINS3_4pairIKSD_SE_EEEEEEEEvSE_ = comdat any

$_ZNSt3__16__treeINS_12__value_typeINS_17reference_wrapperIKNS_12basic_stringIcNS_11char_traitsIcEENS_9allocatorIcEEEEEEPvEENS_19__map_value_compareISA_SC_NS_4lessIS8_EELb1EEEN6google8protobuf8internal12MapAllocatorISC_EEE25__emplace_unique_key_argsISA_JNS_4pairIKSA_SB_EEEEENSO_INS_15__tree_iteratorISC_PNS_11__tree_nodeISC_SB_EElEEbEERKT_DpOT0_ = comdat any

$_ZNSt3__16__treeINS_12__value_typeINS_17reference_wrapperIKNS_12basic_stringIcNS_11char_traitsIcEENS_9allocatorIcEEEEEEPvEENS_19__map_value_compareISA_SC_NS_4lessIS8_EELb1EEEN6google8protobuf8internal12MapAllocatorISC_EEE12__find_equalISA_EERPNS_16__tree_node_baseISB_EERPNS_15__tree_end_nodeISQ_EERKT_ = comdat any

$_ZN6google8protobuf8internal12MapEntryImplIN8autofill52UserProfileValidityMap_ProfileValidityEntry_DoNotUseENS0_11MessageLiteENSt3__112basic_stringIcNS6_11char_traitsIcEENS6_9allocatorIcEEEENS3_18ProfileValidityMapELNS1_14WireFormatLite9FieldTypeE9ELSF_11EE6ParserINS1_12MapFieldLiteIS4_SC_SD_LSF_9ELSF_11EEENS0_3MapISC_SD_EEE14_InternalParseEPKcPNS1_12ParseContextE = comdat any

$_ZN6google8protobuf8internal12MapEntryImplIN8autofill52UserProfileValidityMap_ProfileValidityEntry_DoNotUseENS0_11MessageLiteENSt3__112basic_stringIcNS6_11char_traitsIcEENS6_9allocatorIcEEEENS3_18ProfileValidityMapELNS1_14WireFormatLite9FieldTypeE9ELSF_11EE6ParserINS1_12MapFieldLiteIS4_SC_SD_LSF_9ELSF_11EEENS0_3MapISC_SD_EEE23UseKeyAndValueFromEntryEv = comdat any

$_ZN6google8protobuf8internal12ParseContext12ParseMessageIN8autofill18ProfileValidityMapEEEPKcPT_S7_ = comdat any

$_ZN6google8protobuf3MapINSt3__112basic_stringIcNS2_11char_traitsIcEENS2_9allocatorIcEEEEN8autofill18ProfileValidityMapEE8InnerMap5eraseENSC_13iterator_baseINS0_7MapPairIS8_SA_EEEE = comdat any

$_ZN6google8protobuf3MapINSt3__112basic_stringIcNS2_11char_traitsIcEENS2_9allocatorIcEEEEN8autofill18ProfileValidityMapEE8InnerMap13iterator_baseINS0_7MapPairIS8_SA_EEEppEv = comdat any

$_ZN6google8protobuf3MapINSt3__112basic_stringIcNS2_11char_traitsIcEENS2_9allocatorIcEEEEN8autofill18ProfileValidityMapEE8InnerMap19EraseFromLinkedListEPNSC_4NodeESE_ = comdat any

$_ZN8autofill18ProfileValidityMap4SwapEPS0_ = comdat any

$_ZN6google8protobuf3MapINSt3__112basic_stringIcNS2_11char_traitsIcEENS2_9allocatorIcEEEEN8autofill18ProfileValidityMapEE8InnerMap13iterator_baseIKNS0_7MapPairIS8_SA_EEEppEv = comdat any

$_ZNSt3__16__sortIRN6google8protobuf8internal19CompareByDerefFirstIPKNS2_7MapPairINS_12basic_stringIcNS_11char_traitsIcEENS_9allocatorIcEEEEN8autofill18ProfileValidityMapEEEEEPSG_EEvT0_SK_T_ = comdat any

$_ZNSt3__17__sort3IRN6google8protobuf8internal19CompareByDerefFirstIPKNS2_7MapPairINS_12basic_stringIcNS_11char_traitsIcEENS_9allocatorIcEEEEN8autofill18ProfileValidityMapEEEEEPSG_EEjT0_SK_SK_T_ = comdat any

$_ZNSt3__17__sort4IRN6google8protobuf8internal19CompareByDerefFirstIPKNS2_7MapPairINS_12basic_stringIcNS_11char_traitsIcEENS_9allocatorIcEEEEN8autofill18ProfileValidityMapEEEEEPSG_EEjT0_SK_SK_SK_T_ = comdat any

$_ZNSt3__17__sort5IRN6google8protobuf8internal19CompareByDerefFirstIPKNS2_7MapPairINS_12basic_stringIcNS_11char_traitsIcEENS_9allocatorIcEEEEN8autofill18ProfileValidityMapEEEEEPSG_EEjT0_SK_SK_SK_SK_T_ = comdat any

$_ZNSt3__118__insertion_sort_3IRN6google8protobuf8internal19CompareByDerefFirstIPKNS2_7MapPairINS_12basic_stringIcNS_11char_traitsIcEENS_9allocatorIcEEEEN8autofill18ProfileValidityMapEEEEEPSG_EEvT0_SK_T_ = comdat any

$_ZNSt3__127__insertion_sort_incompleteIRN6google8protobuf8internal19CompareByDerefFirstIPKNS2_7MapPairINS_12basic_stringIcNS_11char_traitsIcEENS_9allocatorIcEEEEN8autofill18ProfileValidityMapEEEEEPSG_EEbT0_SK_T_ = comdat any

$_ZN6google8protobuf3MapINSt3__112basic_stringIcNS2_11char_traitsIcEENS2_9allocatorIcEEEEN8autofill18ProfileValidityMapEE4swapERSB_ = comdat any

$_ZN6google8protobuf3MapINSt3__112basic_stringIcNS2_11char_traitsIcEENS2_9allocatorIcEEEEN8autofill18ProfileValidityMapEE6insertINSB_14const_iteratorEEEvT_SE_ = comdat any

$_ZTVN8autofill52ProfileValidityMap_FieldValidityStatesEntry_DoNotUseE = comdat any

$_ZTVN8autofill52UserProfileValidityMap_ProfileValidityEntry_DoNotUseE = comdat any

$_ZTVN6google8protobuf8internal12MapEntryLiteIN8autofill52ProfileValidityMap_FieldValidityStatesEntry_DoNotUseEiiLNS1_14WireFormatLite9FieldTypeE5ELS6_5EEE = comdat any

$_ZTVN6google8protobuf8internal12MapEntryImplIN8autofill52ProfileValidityMap_FieldValidityStatesEntry_DoNotUseENS0_11MessageLiteEiiLNS1_14WireFormatLite9FieldTypeE5ELS7_5EEE = comdat any

$_ZTVN6google8protobuf8internal12MapEntryLiteIN8autofill52UserProfileValidityMap_ProfileValidityEntry_DoNotUseENSt3__112basic_stringIcNS5_11char_traitsIcEENS5_9allocatorIcEEEENS3_18ProfileValidityMapELNS1_14WireFormatLite9FieldTypeE9ELSE_11EEE = comdat any

$_ZTVN6google8protobuf8internal12MapEntryImplIN8autofill52UserProfileValidityMap_ProfileValidityEntry_DoNotUseENS0_11MessageLiteENSt3__112basic_stringIcNS6_11char_traitsIcEENS6_9allocatorIcEEEENS3_18ProfileValidityMapELNS1_14WireFormatLite9FieldTypeE9ELSF_11EEE = comdat any

@_ZN8autofill51_AutofillQueryContents_Form_Field_default_instance_E = hidden global %"class.autofill::AutofillQueryContents_Form_FieldDefaultTypeInternal" zeroinitializer, align 8
@_ZN8autofill45_AutofillQueryContents_Form_default_instance_E = hidden global %"class.autofill::AutofillQueryContents_FormDefaultTypeInternal" zeroinitializer, align 8
@_ZN8autofill40_AutofillQueryContents_default_instance_E = hidden global %"class.autofill::AutofillQueryContentsDefaultTypeInternal" zeroinitializer, align 8
@_ZN8autofill70_AutofillQueryResponseContents_Field_FieldPrediction_default_instance_E = hidden global %"class.autofill::AutofillQueryResponseContents_Field_FieldPredictionDefaultTypeInternal" zeroinitializer, align 8
@_ZN8autofill54_AutofillQueryResponseContents_Field_default_instance_E = hidden global %"class.autofill::AutofillQueryResponseContents_FieldDefaultTypeInternal" zeroinitializer, align 8
@_ZN8autofill48_AutofillQueryResponseContents_default_instance_E = hidden global %"class.autofill::AutofillQueryResponseContentsDefaultTypeInternal" zeroinitializer, align 8
@_ZN8autofill42_AutofillRandomizedValue_default_instance_E = hidden global %"class.autofill::AutofillRandomizedValueDefaultTypeInternal" zeroinitializer, align 8
@_ZN8autofill61_AutofillRandomizedFormMetadata_ButtonTitle_default_instance_E = hidden global %"class.autofill::AutofillRandomizedFormMetadata_ButtonTitleDefaultTypeInternal" zeroinitializer, align 8
@_ZN8autofill49_AutofillRandomizedFormMetadata_default_instance_E = hidden global %"class.autofill::AutofillRandomizedFormMetadataDefaultTypeInternal" zeroinitializer, align 8
@_ZN8autofill50_AutofillRandomizedFieldMetadata_default_instance_E = hidden global %"class.autofill::AutofillRandomizedFieldMetadataDefaultTypeInternal" zeroinitializer, align 8
@_ZN8autofill74_AutofillUploadContents_Field_AutofillTypeValiditiesPair_default_instance_E = hidden global %"class.autofill::AutofillUploadContents_Field_AutofillTypeValiditiesPairDefaultTypeInternal" zeroinitializer, align 8
@_ZN8autofill47_AutofillUploadContents_Field_default_instance_E = hidden global %"class.autofill::AutofillUploadContents_FieldDefaultTypeInternal" zeroinitializer, align 8
@_ZN8autofill53_AutofillUploadContents_ButtonTitle_default_instance_E = hidden global %"class.autofill::AutofillUploadContents_ButtonTitleDefaultTypeInternal" zeroinitializer, align 8
@_ZN8autofill41_AutofillUploadContents_default_instance_E = hidden global %"class.autofill::AutofillUploadContentsDefaultTypeInternal" zeroinitializer, align 8
@_ZN8autofill71_ProfileValidityMap_FieldValidityStatesEntry_DoNotUse_default_instance_E = hidden local_unnamed_addr global %"class.autofill::ProfileValidityMap_FieldValidityStatesEntry_DoNotUseDefaultTypeInternal" zeroinitializer, align 8
@_ZN8autofill37_ProfileValidityMap_default_instance_E = hidden global %"class.autofill::ProfileValidityMapDefaultTypeInternal" zeroinitializer, align 8
@_ZN8autofill71_UserProfileValidityMap_ProfileValidityEntry_DoNotUse_default_instance_E = hidden local_unnamed_addr global %"class.autofill::UserProfileValidityMap_ProfileValidityEntry_DoNotUseDefaultTypeInternal" zeroinitializer, align 8
@_ZN8autofill41_UserProfileValidityMap_default_instance_E = hidden global %"class.autofill::UserProfileValidityMapDefaultTypeInternal" zeroinitializer, align 8
@scc_info_AutofillQueryContents_server_2eproto = hidden global { { { { i32 } }, i32, i32, void ()* }, [1 x i8*] } { { { { i32 } }, i32, i32, void ()* } { { { i32 } } { { i32 } { i32 -1 } }, i32 1, i32 0, void ()* @_ZL57InitDefaultsscc_info_AutofillQueryContents_server_2eprotov }, [1 x i8*] [i8* bitcast ({ { { { i32 } }, i32, i32, void ()* }, [2 x i8*] }* @scc_info_AutofillQueryContents_Form_server_2eproto to i8*)] }, align 8
@scc_info_AutofillQueryContents_Form_server_2eproto = hidden global { { { { i32 } }, i32, i32, void ()* }, [2 x i8*] } { { { { i32 } }, i32, i32, void ()* } { { { i32 } } { { i32 } { i32 -1 } }, i32 2, i32 0, void ()* @_ZL62InitDefaultsscc_info_AutofillQueryContents_Form_server_2eprotov }, [2 x i8*] [i8* bitcast ({ { { { i32 } }, i32, i32, void ()* }, [2 x i8*] }* @scc_info_AutofillRandomizedFormMetadata_server_2eproto to i8*), i8* bitcast ({ { { { i32 } }, i32, i32, void ()* }, [1 x i8*] }* @scc_info_AutofillQueryContents_Form_Field_server_2eproto to i8*)] }, align 8
@scc_info_AutofillQueryContents_Form_Field_server_2eproto = hidden global { { { { i32 } }, i32, i32, void ()* }, [1 x i8*] } { { { { i32 } }, i32, i32, void ()* } { { { i32 } } { { i32 } { i32 -1 } }, i32 1, i32 0, void ()* @_ZL68InitDefaultsscc_info_AutofillQueryContents_Form_Field_server_2eprotov }, [1 x i8*] [i8* bitcast ({ { { { i32 } }, i32, i32, void ()* }, [1 x i8*] }* @scc_info_AutofillRandomizedFieldMetadata_server_2eproto to i8*)] }, align 8
@scc_info_AutofillQueryResponseContents_server_2eproto = hidden global { { { { i32 } }, i32, i32, void ()* }, [1 x i8*] } { { { { i32 } }, i32, i32, void ()* } { { { i32 } } { { i32 } { i32 -1 } }, i32 1, i32 0, void ()* @_ZL65InitDefaultsscc_info_AutofillQueryResponseContents_server_2eprotov }, [1 x i8*] [i8* bitcast ({ { { { i32 } }, i32, i32, void ()* }, [2 x i8*] }* @scc_info_AutofillQueryResponseContents_Field_server_2eproto to i8*)] }, align 8
@scc_info_PasswordRequirementsSpec_password_5frequirements_2eproto = external global %"struct.google::protobuf::internal::SCCInfo.18", align 8
@scc_info_AutofillQueryResponseContents_Field_server_2eproto = hidden global { { { { i32 } }, i32, i32, void ()* }, [2 x i8*] } { { { { i32 } }, i32, i32, void ()* } { { { i32 } } { { i32 } { i32 -1 } }, i32 2, i32 0, void ()* @_ZL71InitDefaultsscc_info_AutofillQueryResponseContents_Field_server_2eprotov }, [2 x i8*] [i8* bitcast ({ { { { i32 } }, i32, i32, void ()* }, [0 x i8*] }* @scc_info_AutofillQueryResponseContents_Field_FieldPrediction_server_2eproto to i8*), i8* bitcast (%"struct.google::protobuf::internal::SCCInfo.18"* @scc_info_PasswordRequirementsSpec_password_5frequirements_2eproto to i8*)] }, align 8
@scc_info_AutofillQueryResponseContents_Field_FieldPrediction_server_2eproto = hidden global { { { { i32 } }, i32, i32, void ()* }, [0 x i8*] } { { { { i32 } }, i32, i32, void ()* } { { { i32 } } { { i32 } { i32 -1 } }, i32 0, i32 0, void ()* @_ZL87InitDefaultsscc_info_AutofillQueryResponseContents_Field_FieldPrediction_server_2eprotov }, [0 x i8*] zeroinitializer }, align 8
@scc_info_AutofillRandomizedFieldMetadata_server_2eproto = hidden global { { { { i32 } }, i32, i32, void ()* }, [1 x i8*] } { { { { i32 } }, i32, i32, void ()* } { { { i32 } } { { i32 } { i32 -1 } }, i32 1, i32 0, void ()* @_ZL67InitDefaultsscc_info_AutofillRandomizedFieldMetadata_server_2eprotov }, [1 x i8*] [i8* bitcast ({ { { { i32 } }, i32, i32, void ()* }, [0 x i8*] }* @scc_info_AutofillRandomizedValue_server_2eproto to i8*)] }, align 8
@scc_info_AutofillRandomizedFormMetadata_server_2eproto = hidden global { { { { i32 } }, i32, i32, void ()* }, [2 x i8*] } { { { { i32 } }, i32, i32, void ()* } { { { i32 } } { { i32 } { i32 -1 } }, i32 2, i32 0, void ()* @_ZL66InitDefaultsscc_info_AutofillRandomizedFormMetadata_server_2eprotov }, [2 x i8*] [i8* bitcast ({ { { { i32 } }, i32, i32, void ()* }, [0 x i8*] }* @scc_info_AutofillRandomizedValue_server_2eproto to i8*), i8* bitcast ({ { { { i32 } }, i32, i32, void ()* }, [1 x i8*] }* @scc_info_AutofillRandomizedFormMetadata_ButtonTitle_server_2eproto to i8*)] }, align 8
@scc_info_AutofillRandomizedFormMetadata_ButtonTitle_server_2eproto = hidden global { { { { i32 } }, i32, i32, void ()* }, [1 x i8*] } { { { { i32 } }, i32, i32, void ()* } { { { i32 } } { { i32 } { i32 -1 } }, i32 1, i32 0, void ()* @_ZL78InitDefaultsscc_info_AutofillRandomizedFormMetadata_ButtonTitle_server_2eprotov }, [1 x i8*] [i8* bitcast ({ { { { i32 } }, i32, i32, void ()* }, [0 x i8*] }* @scc_info_AutofillRandomizedValue_server_2eproto to i8*)] }, align 8
@scc_info_AutofillRandomizedValue_server_2eproto = hidden global { { { { i32 } }, i32, i32, void ()* }, [0 x i8*] } { { { { i32 } }, i32, i32, void ()* } { { { i32 } } { { i32 } { i32 -1 } }, i32 0, i32 0, void ()* @_ZL59InitDefaultsscc_info_AutofillRandomizedValue_server_2eprotov }, [0 x i8*] zeroinitializer }, align 8
@scc_info_AutofillUploadContents_server_2eproto = hidden global { { { { i32 } }, i32, i32, void ()* }, [3 x i8*] } { { { { i32 } }, i32, i32, void ()* } { { { i32 } } { { i32 } { i32 -1 } }, i32 3, i32 0, void ()* @_ZL58InitDefaultsscc_info_AutofillUploadContents_server_2eprotov }, [3 x i8*] [i8* bitcast ({ { { { i32 } }, i32, i32, void ()* }, [2 x i8*] }* @scc_info_AutofillUploadContents_Field_server_2eproto to i8*), i8* bitcast ({ { { { i32 } }, i32, i32, void ()* }, [2 x i8*] }* @scc_info_AutofillRandomizedFormMetadata_server_2eproto to i8*), i8* bitcast ({ { { { i32 } }, i32, i32, void ()* }, [0 x i8*] }* @scc_info_AutofillUploadContents_ButtonTitle_server_2eproto to i8*)] }, align 8
@scc_info_AutofillUploadContents_ButtonTitle_server_2eproto = hidden global { { { { i32 } }, i32, i32, void ()* }, [0 x i8*] } { { { { i32 } }, i32, i32, void ()* } { { { i32 } } { { i32 } { i32 -1 } }, i32 0, i32 0, void ()* @_ZL70InitDefaultsscc_info_AutofillUploadContents_ButtonTitle_server_2eprotov }, [0 x i8*] zeroinitializer }, align 8
@scc_info_AutofillUploadContents_Field_server_2eproto = hidden global { { { { i32 } }, i32, i32, void ()* }, [2 x i8*] } { { { { i32 } }, i32, i32, void ()* } { { { i32 } } { { i32 } { i32 -1 } }, i32 2, i32 0, void ()* @_ZL64InitDefaultsscc_info_AutofillUploadContents_Field_server_2eprotov }, [2 x i8*] [i8* bitcast ({ { { { i32 } }, i32, i32, void ()* }, [1 x i8*] }* @scc_info_AutofillRandomizedFieldMetadata_server_2eproto to i8*), i8* bitcast ({ { { { i32 } }, i32, i32, void ()* }, [0 x i8*] }* @scc_info_AutofillUploadContents_Field_AutofillTypeValiditiesPair_server_2eproto to i8*)] }, align 8
@scc_info_AutofillUploadContents_Field_AutofillTypeValiditiesPair_server_2eproto = hidden global { { { { i32 } }, i32, i32, void ()* }, [0 x i8*] } { { { { i32 } }, i32, i32, void ()* } { { { i32 } } { { i32 } { i32 -1 } }, i32 0, i32 0, void ()* @_ZL91InitDefaultsscc_info_AutofillUploadContents_Field_AutofillTypeValiditiesPair_server_2eprotov }, [0 x i8*] zeroinitializer }, align 8
@scc_info_ProfileValidityMap_server_2eproto = hidden global { { { { i32 } }, i32, i32, void ()* }, [1 x i8*] } { { { { i32 } }, i32, i32, void ()* } { { { i32 } } { { i32 } { i32 -1 } }, i32 1, i32 0, void ()* @_ZL54InitDefaultsscc_info_ProfileValidityMap_server_2eprotov }, [1 x i8*] [i8* bitcast ({ { { { i32 } }, i32, i32, void ()* }, [0 x i8*] }* @scc_info_ProfileValidityMap_FieldValidityStatesEntry_DoNotUse_server_2eproto to i8*)] }, align 8
@scc_info_ProfileValidityMap_FieldValidityStatesEntry_DoNotUse_server_2eproto = hidden global { { { { i32 } }, i32, i32, void ()* }, [0 x i8*] } { { { { i32 } }, i32, i32, void ()* } { { { i32 } } { { i32 } { i32 -1 } }, i32 0, i32 0, void ()* @_ZL88InitDefaultsscc_info_ProfileValidityMap_FieldValidityStatesEntry_DoNotUse_server_2eprotov }, [0 x i8*] zeroinitializer }, align 8
@scc_info_UserProfileValidityMap_server_2eproto = hidden global { { { { i32 } }, i32, i32, void ()* }, [1 x i8*] } { { { { i32 } }, i32, i32, void ()* } { { { i32 } } { { i32 } { i32 -1 } }, i32 1, i32 0, void ()* @_ZL58InitDefaultsscc_info_UserProfileValidityMap_server_2eprotov }, [1 x i8*] [i8* bitcast ({ { { { i32 } }, i32, i32, void ()* }, [1 x i8*] }* @scc_info_UserProfileValidityMap_ProfileValidityEntry_DoNotUse_server_2eproto to i8*)] }, align 8
@scc_info_UserProfileValidityMap_ProfileValidityEntry_DoNotUse_server_2eproto = hidden global { { { { i32 } }, i32, i32, void ()* }, [1 x i8*] } { { { { i32 } }, i32, i32, void ()* } { { { i32 } } { { i32 } { i32 -1 } }, i32 1, i32 0, void ()* @_ZL88InitDefaultsscc_info_UserProfileValidityMap_ProfileValidityEntry_DoNotUse_server_2eprotov }, [1 x i8*] [i8* bitcast ({ { { { i32 } }, i32, i32, void ()* }, [1 x i8*] }* @scc_info_ProfileValidityMap_server_2eproto to i8*)] }, align 8
@_ZN8autofillL44AutofillRandomizedValue_EncodingType_entriesE = internal constant [12 x %"struct.google::protobuf::internal::EnumEntry"] [%"struct.google::protobuf::internal::EnumEntry" <{ %"class.google::protobuf::StringPiece" { i8* getelementptr inbounds ([91 x i8], [91 x i8]* @_ZN8autofillL42AutofillRandomizedValue_EncodingType_namesE, i64 0, i64 0), i64 8 }, i32 10, [4 x i8] zeroinitializer }>, %"struct.google::protobuf::internal::EnumEntry" <{ %"class.google::protobuf::StringPiece" { i8* getelementptr inbounds ([91 x i8], [91 x i8]* @_ZN8autofillL42AutofillRandomizedValue_EncodingType_namesE, i64 0, i64 8), i64 5 }, i32 0, [4 x i8] zeroinitializer }>, %"struct.google::protobuf::internal::EnumEntry" <{ %"class.google::protobuf::StringPiece" { i8* getelementptr inbounds ([91 x i8], [91 x i8]* @_ZN8autofillL42AutofillRandomizedValue_EncodingType_namesE, i64 0, i64 13), i64 5 }, i32 1, [4 x i8] zeroinitializer }>, %"struct.google::protobuf::internal::EnumEntry" <{ %"class.google::protobuf::StringPiece" { i8* getelementptr inbounds ([91 x i8], [91 x i8]* @_ZN8autofillL42AutofillRandomizedValue_EncodingType_namesE, i64 0, i64 18), i64 5 }, i32 2, [4 x i8] zeroinitializer }>, %"struct.google::protobuf::internal::EnumEntry" <{ %"class.google::protobuf::StringPiece" { i8* getelementptr inbounds ([91 x i8], [91 x i8]* @_ZN8autofillL42AutofillRandomizedValue_EncodingType_namesE, i64 0, i64 23), i64 5 }, i32 3, [4 x i8] zeroinitializer }>, %"struct.google::protobuf::internal::EnumEntry" <{ %"class.google::protobuf::StringPiece" { i8* getelementptr inbounds ([91 x i8], [91 x i8]* @_ZN8autofillL42AutofillRandomizedValue_EncodingType_namesE, i64 0, i64 28), i64 5 }, i32 4, [4 x i8] zeroinitializer }>, %"struct.google::protobuf::internal::EnumEntry" <{ %"class.google::protobuf::StringPiece" { i8* getelementptr inbounds ([91 x i8], [91 x i8]* @_ZN8autofillL42AutofillRandomizedValue_EncodingType_namesE, i64 0, i64 33), i64 5 }, i32 5, [4 x i8] zeroinitializer }>, %"struct.google::protobuf::internal::EnumEntry" <{ %"class.google::protobuf::StringPiece" { i8* getelementptr inbounds ([91 x i8], [91 x i8]* @_ZN8autofillL42AutofillRandomizedValue_EncodingType_namesE, i64 0, i64 38), i64 5 }, i32 6, [4 x i8] zeroinitializer }>, %"struct.google::protobuf::internal::EnumEntry" <{ %"class.google::protobuf::StringPiece" { i8* getelementptr inbounds ([91 x i8], [91 x i8]* @_ZN8autofillL42AutofillRandomizedValue_EncodingType_namesE, i64 0, i64 43), i64 5 }, i32 7, [4 x i8] zeroinitializer }>, %"struct.google::protobuf::internal::EnumEntry" <{ %"class.google::protobuf::StringPiece" { i8* getelementptr inbounds ([91 x i8], [91 x i8]* @_ZN8autofillL42AutofillRandomizedValue_EncodingType_namesE, i64 0, i64 48), i64 9 }, i32 8, [4 x i8] zeroinitializer }>, %"struct.google::protobuf::internal::EnumEntry" <{ %"class.google::protobuf::StringPiece" { i8* getelementptr inbounds ([91 x i8], [91 x i8]* @_ZN8autofillL42AutofillRandomizedValue_EncodingType_namesE, i64 0, i64 57), i64 8 }, i32 9, [4 x i8] zeroinitializer }>, %"struct.google::protobuf::internal::EnumEntry" <{ %"class.google::protobuf::StringPiece" { i8* getelementptr inbounds ([91 x i8], [91 x i8]* @_ZN8autofillL42AutofillRandomizedValue_EncodingType_namesE, i64 0, i64 65), i64 25 }, i32 -1, [4 x i8] zeroinitializer }>], align 16
@_ZN8autofillL42AutofillRandomizedValue_EncodingType_namesE = internal constant [91 x i8] c"ALL_BITSBIT_0BIT_1BIT_2BIT_3BIT_4BIT_5BIT_6BIT_7EVEN_BITSODD_BITSUNSPECIFIED_ENCODING_TYPE\00", align 16
@_ZZN8autofill41AutofillRandomizedValue_EncodingType_NameENS_36AutofillRandomizedValue_EncodingTypeEE5dummy = internal global i8 0, align 1
@_ZGVZN8autofill41AutofillRandomizedValue_EncodingType_NameENS_36AutofillRandomizedValue_EncodingTypeEE5dummy = internal global i64 0, align 8
@_ZN8autofillL54AutofillRandomizedValue_EncodingType_entries_by_numberE = internal constant [12 x i32] [i32 11, i32 1, i32 2, i32 3, i32 4, i32 5, i32 6, i32 7, i32 8, i32 9, i32 10, i32 0], align 16
@_ZN8autofillL44AutofillRandomizedValue_EncodingType_stringsE = internal global [12 x %"class.google::protobuf::internal::ExplicitlyConstructed.22"] zeroinitializer, align 16
@_ZN8autofill23AutofillRandomizedValue25UNSPECIFIED_ENCODING_TYPEE = hidden local_unnamed_addr constant i32 -1, align 4
@_ZN8autofill23AutofillRandomizedValue5BIT_0E = hidden local_unnamed_addr constant i32 0, align 4
@_ZN8autofill23AutofillRandomizedValue5BIT_1E = hidden local_unnamed_addr constant i32 1, align 4
@_ZN8autofill23AutofillRandomizedValue5BIT_2E = hidden local_unnamed_addr constant i32 2, align 4
@_ZN8autofill23AutofillRandomizedValue5BIT_3E = hidden local_unnamed_addr constant i32 3, align 4
@_ZN8autofill23AutofillRandomizedValue5BIT_4E = hidden local_unnamed_addr constant i32 4, align 4
@_ZN8autofill23AutofillRandomizedValue5BIT_5E = hidden local_unnamed_addr constant i32 5, align 4
@_ZN8autofill23AutofillRandomizedValue5BIT_6E = hidden local_unnamed_addr constant i32 6, align 4
@_ZN8autofill23AutofillRandomizedValue5BIT_7E = hidden local_unnamed_addr constant i32 7, align 4
@_ZN8autofill23AutofillRandomizedValue9EVEN_BITSE = hidden local_unnamed_addr constant i32 8, align 4
@_ZN8autofill23AutofillRandomizedValue8ODD_BITSE = hidden local_unnamed_addr constant i32 9, align 4
@_ZN8autofill23AutofillRandomizedValue8ALL_BITSE = hidden local_unnamed_addr constant i32 10, align 4
@_ZN8autofill23AutofillRandomizedValue16EncodingType_MINE = hidden local_unnamed_addr constant i32 -1, align 4
@_ZN8autofill23AutofillRandomizedValue16EncodingType_MAXE = hidden local_unnamed_addr constant i32 10, align 4
@_ZN8autofill23AutofillRandomizedValue22EncodingType_ARRAYSIZEE = hidden local_unnamed_addr constant i32 11, align 4
@_ZN8autofillL59AutofillUploadContents_Field_PasswordGenerationType_entriesE = internal constant [6 x %"struct.google::protobuf::internal::EnumEntry"] [%"struct.google::protobuf::internal::EnumEntry" <{ %"class.google::protobuf::StringPiece" { i8* getelementptr inbounds ([244 x i8], [244 x i8]* @_ZN8autofillL57AutofillUploadContents_Field_PasswordGenerationType_namesE, i64 0, i64 0), i64 58 }, i32 2, [4 x i8] zeroinitializer }>, %"struct.google::protobuf::internal::EnumEntry" <{ %"class.google::protobuf::StringPiece" { i8* getelementptr inbounds ([244 x i8], [244 x i8]* @_ZN8autofillL57AutofillUploadContents_Field_PasswordGenerationType_namesE, i64 0, i64 58), i64 50 }, i32 1, [4 x i8] zeroinitializer }>, %"struct.google::protobuf::internal::EnumEntry" <{ %"class.google::protobuf::StringPiece" { i8* getelementptr inbounds ([244 x i8], [244 x i8]* @_ZN8autofillL57AutofillUploadContents_Field_PasswordGenerationType_namesE, i64 0, i64 108), i64 24 }, i32 5, [4 x i8] zeroinitializer }>, %"struct.google::protobuf::internal::EnumEntry" <{ %"class.google::protobuf::StringPiece" { i8* getelementptr inbounds ([244 x i8], [244 x i8]* @_ZN8autofillL57AutofillUploadContents_Field_PasswordGenerationType_namesE, i64 0, i64 132), i64 53 }, i32 4, [4 x i8] zeroinitializer }>, %"struct.google::protobuf::internal::EnumEntry" <{ %"class.google::protobuf::StringPiece" { i8* getelementptr inbounds ([244 x i8], [244 x i8]* @_ZN8autofillL57AutofillUploadContents_Field_PasswordGenerationType_namesE, i64 0, i64 185), i64 45 }, i32 3, [4 x i8] zeroinitializer }>, %"struct.google::protobuf::internal::EnumEntry" <{ %"class.google::protobuf::StringPiece" { i8* getelementptr inbounds ([244 x i8], [244 x i8]* @_ZN8autofillL57AutofillUploadContents_Field_PasswordGenerationType_namesE, i64 0, i64 230), i64 13 }, i32 0, [4 x i8] zeroinitializer }>], align 16
@_ZN8autofillL57AutofillUploadContents_Field_PasswordGenerationType_namesE = internal constant [244 x i8] c"AUTOMATICALLY_TRIGGERED_GENERATION_ON_CHANGE_PASSWORD_FORMAUTOMATICALLY_TRIGGERED_GENERATION_ON_SIGN_UP_FORMIGNORED_GENERATION_POPUPMANUALLY_TRIGGERED_GENERATION_ON_CHANGE_PASSWORD_FORMMANUALLY_TRIGGERED_GENERATION_ON_SIGN_UP_FORMNO_GENERATION\00", align 16
@_ZZN8autofill56AutofillUploadContents_Field_PasswordGenerationType_NameENS_51AutofillUploadContents_Field_PasswordGenerationTypeEE5dummy = internal global i8 0, align 1
@_ZGVZN8autofill56AutofillUploadContents_Field_PasswordGenerationType_NameENS_51AutofillUploadContents_Field_PasswordGenerationTypeEE5dummy = internal global i64 0, align 8
@_ZN8autofillL69AutofillUploadContents_Field_PasswordGenerationType_entries_by_numberE = internal constant [6 x i32] [i32 5, i32 1, i32 0, i32 4, i32 3, i32 2], align 16
@_ZN8autofillL59AutofillUploadContents_Field_PasswordGenerationType_stringsE = internal global [6 x %"class.google::protobuf::internal::ExplicitlyConstructed.22"] zeroinitializer, align 16
@_ZN8autofill28AutofillUploadContents_Field13NO_GENERATIONE = hidden local_unnamed_addr constant i32 0, align 4
@_ZN8autofill28AutofillUploadContents_Field50AUTOMATICALLY_TRIGGERED_GENERATION_ON_SIGN_UP_FORME = hidden local_unnamed_addr constant i32 1, align 4
@_ZN8autofill28AutofillUploadContents_Field58AUTOMATICALLY_TRIGGERED_GENERATION_ON_CHANGE_PASSWORD_FORME = hidden local_unnamed_addr constant i32 2, align 4
@_ZN8autofill28AutofillUploadContents_Field45MANUALLY_TRIGGERED_GENERATION_ON_SIGN_UP_FORME = hidden local_unnamed_addr constant i32 3, align 4
@_ZN8autofill28AutofillUploadContents_Field53MANUALLY_TRIGGERED_GENERATION_ON_CHANGE_PASSWORD_FORME = hidden local_unnamed_addr constant i32 4, align 4
@_ZN8autofill28AutofillUploadContents_Field24IGNORED_GENERATION_POPUPE = hidden local_unnamed_addr constant i32 5, align 4
@_ZN8autofill28AutofillUploadContents_Field26PasswordGenerationType_MINE = hidden local_unnamed_addr constant i32 0, align 4
@_ZN8autofill28AutofillUploadContents_Field26PasswordGenerationType_MAXE = hidden local_unnamed_addr constant i32 5, align 4
@_ZN8autofill28AutofillUploadContents_Field32PasswordGenerationType_ARRAYSIZEE = hidden local_unnamed_addr constant i32 6, align 4
@_ZN8autofillL45AutofillUploadContents_Field_VoteType_entriesE = internal constant [7 x %"struct.google::protobuf::internal::EnumEntry"] [%"struct.google::protobuf::internal::EnumEntry" <{ %"class.google::protobuf::StringPiece" { i8* getelementptr inbounds ([106 x i8], [106 x i8]* @_ZN8autofillL43AutofillUploadContents_Field_VoteType_namesE, i64 0, i64 0), i64 14 }, i32 4, [4 x i8] zeroinitializer }>, %"struct.google::protobuf::internal::EnumEntry" <{ %"class.google::protobuf::StringPiece" { i8* getelementptr inbounds ([106 x i8], [106 x i8]* @_ZN8autofillL43AutofillUploadContents_Field_VoteType_namesE, i64 0, i64 14), i64 18 }, i32 1, [4 x i8] zeroinitializer }>, %"struct.google::protobuf::internal::EnumEntry" <{ %"class.google::protobuf::StringPiece" { i8* getelementptr inbounds ([106 x i8], [106 x i8]* @_ZN8autofillL43AutofillUploadContents_Field_VoteType_namesE, i64 0, i64 32), i64 9 }, i32 6, [4 x i8] zeroinitializer }>, %"struct.google::protobuf::internal::EnumEntry" <{ %"class.google::protobuf::StringPiece" { i8* getelementptr inbounds ([106 x i8], [106 x i8]* @_ZN8autofillL43AutofillUploadContents_Field_VoteType_namesE, i64 0, i64 41), i64 15 }, i32 5, [4 x i8] zeroinitializer }>, %"struct.google::protobuf::internal::EnumEntry" <{ %"class.google::protobuf::StringPiece" { i8* getelementptr inbounds ([106 x i8], [106 x i8]* @_ZN8autofillL43AutofillUploadContents_Field_VoteType_namesE, i64 0, i64 56), i64 14 }, i32 0, [4 x i8] zeroinitializer }>, %"struct.google::protobuf::internal::EnumEntry" <{ %"class.google::protobuf::StringPiece" { i8* getelementptr inbounds ([106 x i8], [106 x i8]* @_ZN8autofillL43AutofillUploadContents_Field_VoteType_namesE, i64 0, i64 70), i64 15 }, i32 3, [4 x i8] zeroinitializer }>, %"struct.google::protobuf::internal::EnumEntry" <{ %"class.google::protobuf::StringPiece" { i8* getelementptr inbounds ([106 x i8], [106 x i8]* @_ZN8autofillL43AutofillUploadContents_Field_VoteType_namesE, i64 0, i64 85), i64 20 }, i32 2, [4 x i8] zeroinitializer }>], align 16
@_ZN8autofillL43AutofillUploadContents_Field_VoteType_namesE = internal constant [106 x i8] c"BASE_HEURISTICCREDENTIALS_REUSEDFIRST_USEHTML_CLASSIFIERNO_INFORMATIONUSERNAME_EDITEDUSERNAME_OVERWRITTEN\00", align 16
@_ZZN8autofill42AutofillUploadContents_Field_VoteType_NameENS_37AutofillUploadContents_Field_VoteTypeEE5dummy = internal global i8 0, align 1
@_ZGVZN8autofill42AutofillUploadContents_Field_VoteType_NameENS_37AutofillUploadContents_Field_VoteTypeEE5dummy = internal global i64 0, align 8
@_ZN8autofillL55AutofillUploadContents_Field_VoteType_entries_by_numberE = internal constant [7 x i32] [i32 4, i32 1, i32 6, i32 5, i32 0, i32 3, i32 2], align 16
@_ZN8autofillL45AutofillUploadContents_Field_VoteType_stringsE = internal global [7 x %"class.google::protobuf::internal::ExplicitlyConstructed.22"] zeroinitializer, align 16
@_ZN8autofill28AutofillUploadContents_Field14NO_INFORMATIONE = hidden local_unnamed_addr constant i32 0, align 4
@_ZN8autofill28AutofillUploadContents_Field18CREDENTIALS_REUSEDE = hidden local_unnamed_addr constant i32 1, align 4
@_ZN8autofill28AutofillUploadContents_Field20USERNAME_OVERWRITTENE = hidden local_unnamed_addr constant i32 2, align 4
@_ZN8autofill28AutofillUploadContents_Field15USERNAME_EDITEDE = hidden local_unnamed_addr constant i32 3, align 4
@_ZN8autofill28AutofillUploadContents_Field14BASE_HEURISTICE = hidden local_unnamed_addr constant i32 4, align 4
@_ZN8autofill28AutofillUploadContents_Field15HTML_CLASSIFIERE = hidden local_unnamed_addr constant i32 5, align 4
@_ZN8autofill28AutofillUploadContents_Field9FIRST_USEE = hidden local_unnamed_addr constant i32 6, align 4
@_ZN8autofill28AutofillUploadContents_Field12VoteType_MINE = hidden local_unnamed_addr constant i32 0, align 4
@_ZN8autofill28AutofillUploadContents_Field12VoteType_MAXE = hidden local_unnamed_addr constant i32 6, align 4
@_ZN8autofill28AutofillUploadContents_Field18VoteType_ARRAYSIZEE = hidden local_unnamed_addr constant i32 7, align 4
@_ZN8autofillL55AutofillUploadContents_SubmissionIndicatorEvent_entriesE = internal constant [12 x %"struct.google::protobuf::internal::EnumEntry"] [%"struct.google::protobuf::internal::EnumEntry" <{ %"class.google::protobuf::StringPiece" { i8* getelementptr inbounds ([328 x i8], [328 x i8]* @_ZN8autofillL53AutofillUploadContents_SubmissionIndicatorEvent_namesE, i64 0, i64 0), i64 28 }, i32 11, [4 x i8] zeroinitializer }>, %"struct.google::protobuf::internal::EnumEntry" <{ %"class.google::protobuf::StringPiece" { i8* getelementptr inbounds ([328 x i8], [328 x i8]* @_ZN8autofillL53AutofillUploadContents_SubmissionIndicatorEvent_namesE, i64 0, i64 28), i64 48 }, i32 8, [4 x i8] zeroinitializer }>, %"struct.google::protobuf::internal::EnumEntry" <{ %"class.google::protobuf::StringPiece" { i8* getelementptr inbounds ([328 x i8], [328 x i8]* @_ZN8autofillL53AutofillUploadContents_SubmissionIndicatorEvent_namesE, i64 0, i64 76), i64 58 }, i32 9, [4 x i8] zeroinitializer }>, %"struct.google::protobuf::internal::EnumEntry" <{ %"class.google::protobuf::StringPiece" { i8* getelementptr inbounds ([328 x i8], [328 x i8]* @_ZN8autofillL53AutofillUploadContents_SubmissionIndicatorEvent_namesE, i64 0, i64 134), i64 22 }, i32 5, [4 x i8] zeroinitializer }>, %"struct.google::protobuf::internal::EnumEntry" <{ %"class.google::protobuf::StringPiece" { i8* getelementptr inbounds ([328 x i8], [328 x i8]* @_ZN8autofillL53AutofillUploadContents_SubmissionIndicatorEvent_namesE, i64 0, i64 156), i64 22 }, i32 6, [4 x i8] zeroinitializer }>, %"struct.google::protobuf::internal::EnumEntry" <{ %"class.google::protobuf::StringPiece" { i8* getelementptr inbounds ([328 x i8], [328 x i8]* @_ZN8autofillL53AutofillUploadContents_SubmissionIndicatorEvent_namesE, i64 0, i64 178), i64 14 }, i32 4, [4 x i8] zeroinitializer }>, %"struct.google::protobuf::internal::EnumEntry" <{ %"class.google::protobuf::StringPiece" { i8* getelementptr inbounds ([328 x i8], [328 x i8]* @_ZN8autofillL53AutofillUploadContents_SubmissionIndicatorEvent_namesE, i64 0, i64 192), i64 20 }, i32 1, [4 x i8] zeroinitializer }>, %"struct.google::protobuf::internal::EnumEntry" <{ %"class.google::protobuf::StringPiece" { i8* getelementptr inbounds ([328 x i8], [328 x i8]* @_ZN8autofillL53AutofillUploadContents_SubmissionIndicatorEvent_namesE, i64 0, i64 212), i64 4 }, i32 0, [4 x i8] zeroinitializer }>, %"struct.google::protobuf::internal::EnumEntry" <{ %"class.google::protobuf::StringPiece" { i8* getelementptr inbounds ([328 x i8], [328 x i8]* @_ZN8autofillL53AutofillUploadContents_SubmissionIndicatorEvent_namesE, i64 0, i64 216), i64 24 }, i32 10, [4 x i8] zeroinitializer }>, %"struct.google::protobuf::internal::EnumEntry" <{ %"class.google::protobuf::StringPiece" { i8* getelementptr inbounds ([328 x i8], [328 x i8]* @_ZN8autofillL53AutofillUploadContents_SubmissionIndicatorEvent_namesE, i64 0, i64 240), i64 50 }, i32 7, [4 x i8] zeroinitializer }>, %"struct.google::protobuf::internal::EnumEntry" <{ %"class.google::protobuf::StringPiece" { i8* getelementptr inbounds ([328 x i8], [328 x i8]* @_ZN8autofillL53AutofillUploadContents_SubmissionIndicatorEvent_namesE, i64 0, i64 290), i64 24 }, i32 2, [4 x i8] zeroinitializer }>, %"struct.google::protobuf::internal::EnumEntry" <{ %"class.google::protobuf::StringPiece" { i8* getelementptr inbounds ([328 x i8], [328 x i8]* @_ZN8autofillL53AutofillUploadContents_SubmissionIndicatorEvent_namesE, i64 0, i64 314), i64 13 }, i32 3, [4 x i8] zeroinitializer }>], align 16
@_ZN8autofillL53AutofillUploadContents_SubmissionIndicatorEvent_namesE = internal constant [328 x i8] c"CHANGE_PASSWORD_FORM_CLEAREDDEPRECATED_FILLED_FORM_ON_START_PROVISIONAL_LOADDEPRECATED_FILLED_INPUT_ELEMENTS_ON_START_PROVISIONAL_LOADDEPRECATED_MANUAL_SAVEDOM_MUTATION_AFTER_XHRFRAME_DETACHEDHTML_FORM_SUBMISSIONNONEPROBABLE_FORM_SUBMISSIONPROVISIONALLY_SAVED_FORM_ON_START_PROVISIONAL_LOADSAME_DOCUMENT_NAVIGATIONXHR_SUCCEEDED\00", align 16
@_ZZN8autofill52AutofillUploadContents_SubmissionIndicatorEvent_NameENS_47AutofillUploadContents_SubmissionIndicatorEventEE5dummy = internal global i8 0, align 1
@_ZGVZN8autofill52AutofillUploadContents_SubmissionIndicatorEvent_NameENS_47AutofillUploadContents_SubmissionIndicatorEventEE5dummy = internal global i64 0, align 8
@_ZN8autofillL65AutofillUploadContents_SubmissionIndicatorEvent_entries_by_numberE = internal constant [12 x i32] [i32 7, i32 6, i32 10, i32 11, i32 5, i32 3, i32 4, i32 9, i32 1, i32 2, i32 8, i32 0], align 16
@_ZN8autofillL55AutofillUploadContents_SubmissionIndicatorEvent_stringsE = internal global [12 x %"class.google::protobuf::internal::ExplicitlyConstructed.22"] zeroinitializer, align 16
@_ZN8autofill22AutofillUploadContents4NONEE = hidden local_unnamed_addr constant i32 0, align 4
@_ZN8autofill22AutofillUploadContents20HTML_FORM_SUBMISSIONE = hidden local_unnamed_addr constant i32 1, align 4
@_ZN8autofill22AutofillUploadContents24SAME_DOCUMENT_NAVIGATIONE = hidden local_unnamed_addr constant i32 2, align 4
@_ZN8autofill22AutofillUploadContents13XHR_SUCCEEDEDE = hidden local_unnamed_addr constant i32 3, align 4
@_ZN8autofill22AutofillUploadContents14FRAME_DETACHEDE = hidden local_unnamed_addr constant i32 4, align 4
@_ZN8autofill22AutofillUploadContents22DEPRECATED_MANUAL_SAVEE = hidden local_unnamed_addr constant i32 5, align 4
@_ZN8autofill22AutofillUploadContents22DOM_MUTATION_AFTER_XHRE = hidden local_unnamed_addr constant i32 6, align 4
@_ZN8autofill22AutofillUploadContents50PROVISIONALLY_SAVED_FORM_ON_START_PROVISIONAL_LOADE = hidden local_unnamed_addr constant i32 7, align 4
@_ZN8autofill22AutofillUploadContents48DEPRECATED_FILLED_FORM_ON_START_PROVISIONAL_LOADE = hidden local_unnamed_addr constant i32 8, align 4
@_ZN8autofill22AutofillUploadContents58DEPRECATED_FILLED_INPUT_ELEMENTS_ON_START_PROVISIONAL_LOADE = hidden local_unnamed_addr constant i32 9, align 4
@_ZN8autofill22AutofillUploadContents24PROBABLE_FORM_SUBMISSIONE = hidden local_unnamed_addr constant i32 10, align 4
@_ZN8autofill22AutofillUploadContents28CHANGE_PASSWORD_FORM_CLEAREDE = hidden local_unnamed_addr constant i32 11, align 4
@_ZN8autofill22AutofillUploadContents28SubmissionIndicatorEvent_MINE = hidden local_unnamed_addr constant i32 0, align 4
@_ZN8autofill22AutofillUploadContents28SubmissionIndicatorEvent_MAXE = hidden local_unnamed_addr constant i32 11, align 4
@_ZN8autofill22AutofillUploadContents34SubmissionIndicatorEvent_ARRAYSIZEE = hidden local_unnamed_addr constant i32 12, align 4
@_ZN8autofillL23ButtonTitleType_entriesE = internal constant [8 x %"struct.google::protobuf::internal::EnumEntry"] [%"struct.google::protobuf::internal::EnumEntry" <{ %"class.google::protobuf::StringPiece" { i8* getelementptr inbounds ([123 x i8], [123 x i8]* @_ZN8autofillL21ButtonTitleType_namesE, i64 0, i64 0), i64 26 }, i32 2, [4 x i8] zeroinitializer }>, %"struct.google::protobuf::internal::EnumEntry" <{ %"class.google::protobuf::StringPiece" { i8* getelementptr inbounds ([123 x i8], [123 x i8]* @_ZN8autofillL21ButtonTitleType_namesE, i64 0, i64 26), i64 26 }, i32 1, [4 x i8] zeroinitializer }>, %"struct.google::protobuf::internal::EnumEntry" <{ %"class.google::protobuf::StringPiece" { i8* getelementptr inbounds ([123 x i8], [123 x i8]* @_ZN8autofillL21ButtonTitleType_namesE, i64 0, i64 52), i64 3 }, i32 6, [4 x i8] zeroinitializer }>, %"struct.google::protobuf::internal::EnumEntry" <{ %"class.google::protobuf::StringPiece" { i8* getelementptr inbounds ([123 x i8], [123 x i8]* @_ZN8autofillL21ButtonTitleType_namesE, i64 0, i64 55), i64 9 }, i32 5, [4 x i8] zeroinitializer }>, %"struct.google::protobuf::internal::EnumEntry" <{ %"class.google::protobuf::StringPiece" { i8* getelementptr inbounds ([123 x i8], [123 x i8]* @_ZN8autofillL21ButtonTitleType_namesE, i64 0, i64 64), i64 25 }, i32 4, [4 x i8] zeroinitializer }>, %"struct.google::protobuf::internal::EnumEntry" <{ %"class.google::protobuf::StringPiece" { i8* getelementptr inbounds ([123 x i8], [123 x i8]* @_ZN8autofillL21ButtonTitleType_namesE, i64 0, i64 89), i64 25 }, i32 3, [4 x i8] zeroinitializer }>, %"struct.google::protobuf::internal::EnumEntry" <{ %"class.google::protobuf::StringPiece" { i8* getelementptr inbounds ([123 x i8], [123 x i8]* @_ZN8autofillL21ButtonTitleType_namesE, i64 0, i64 114), i64 4 }, i32 0, [4 x i8] zeroinitializer }>, %"struct.google::protobuf::internal::EnumEntry" <{ %"class.google::protobuf::StringPiece" { i8* getelementptr inbounds ([123 x i8], [123 x i8]* @_ZN8autofillL21ButtonTitleType_namesE, i64 0, i64 118), i64 4 }, i32 7, [4 x i8] zeroinitializer }>], align 16
@_ZN8autofillL21ButtonTitleType_namesE = internal constant [123 x i8] c"BUTTON_ELEMENT_BUTTON_TYPEBUTTON_ELEMENT_SUBMIT_TYPEDIVHYPERLINKINPUT_ELEMENT_BUTTON_TYPEINPUT_ELEMENT_SUBMIT_TYPENONESPAN\00", align 16
@_ZZN8autofill20ButtonTitleType_NameENS_15ButtonTitleTypeEE5dummy = internal global i8 0, align 1
@_ZGVZN8autofill20ButtonTitleType_NameENS_15ButtonTitleTypeEE5dummy = internal global i64 0, align 8
@_ZN8autofillL33ButtonTitleType_entries_by_numberE = internal constant [8 x i32] [i32 6, i32 1, i32 0, i32 5, i32 4, i32 3, i32 2, i32 7], align 16
@_ZN8autofillL23ButtonTitleType_stringsE = internal global [8 x %"class.google::protobuf::internal::ExplicitlyConstructed.22"] zeroinitializer, align 16
@_ZTVN8autofill32AutofillQueryContents_Form_FieldE = hidden unnamed_addr constant { [16 x i8*] } { [16 x i8*] [i8* null, i8* null, i8* bitcast (void (%"class.autofill::AutofillQueryContents_Form_Field"*)* @_ZN8autofill32AutofillQueryContents_Form_FieldD2Ev to i8*), i8* bitcast (void (%"class.autofill::AutofillQueryContents_Form_Field"*)* @_ZN8autofill32AutofillQueryContents_Form_FieldD0Ev to i8*), i8* bitcast (void (%"class.std::__1::basic_string"*, %"class.autofill::AutofillQueryContents_Form_Field"*)* @_ZNK8autofill32AutofillQueryContents_Form_Field11GetTypeNameEv to i8*), i8* bitcast (%"class.autofill::AutofillQueryContents_Form_Field"* (%"class.autofill::AutofillQueryContents_Form_Field"*)* @_ZNK8autofill32AutofillQueryContents_Form_Field3NewEv to i8*), i8* bitcast (%"class.autofill::AutofillQueryContents_Form_Field"* (%"class.autofill::AutofillQueryContents_Form_Field"*, %"class.google::protobuf::Arena"*)* @_ZNK8autofill32AutofillQueryContents_Form_Field3NewEPN6google8protobuf5ArenaE to i8*), i8* bitcast (void (%"class.autofill::AutofillQueryContents_Form_Field"*)* @_ZN8autofill32AutofillQueryContents_Form_Field5ClearEv to i8*), i8* bitcast (i1 (%"class.autofill::AutofillQueryContents_Form_Field"*)* @_ZNK8autofill32AutofillQueryContents_Form_Field13IsInitializedEv to i8*), i8* bitcast (void (%"class.std::__1::basic_string"*, %"class.google::protobuf::MessageLite"*)* @_ZNK6google8protobuf11MessageLite25InitializationErrorStringEv to i8*), i8* bitcast (void (%"class.autofill::AutofillQueryContents_Form_Field"*, %"class.google::protobuf::MessageLite"*)* @_ZN8autofill32AutofillQueryContents_Form_Field21CheckTypeAndMergeFromERKN6google8protobuf11MessageLiteE to i8*), i8* bitcast (i64 (%"class.autofill::AutofillQueryContents_Form_Field"*)* @_ZNK8autofill32AutofillQueryContents_Form_Field12ByteSizeLongEv to i8*), i8* bitcast (i32 (%"class.autofill::AutofillQueryContents_Form_Field"*)* @_ZNK8autofill32AutofillQueryContents_Form_Field13GetCachedSizeEv to i8*), i8* bitcast (i8* (%"class.autofill::AutofillQueryContents_Form_Field"*, i8*, %"class.google::protobuf::internal::ParseContext"*)* @_ZN8autofill32AutofillQueryContents_Form_Field14_InternalParseEPKcPN6google8protobuf8internal12ParseContextE to i8*), i8* bitcast (i8* (%"class.autofill::AutofillQueryContents_Form_Field"*, i8*, %"class.google::protobuf::io::EpsCopyOutputStream"*)* @_ZNK8autofill32AutofillQueryContents_Form_Field18_InternalSerializeEPhPN6google8protobuf2io19EpsCopyOutputStreamE to i8*), i8* bitcast (i8* (%"class.google::protobuf::MessageLite"*)* @_ZNK6google8protobuf11MessageLite16InternalGetTableEv to i8*)] }, align 8
@.str = private unnamed_addr constant [56 x i8] c"gen/components/autofill/core/browser/proto/server.pb.cc\00", align 1
@.str.20 = private unnamed_addr constant [42 x i8] c"autofill.AutofillQueryContents.Form.Field\00", align 1
@_ZTVN8autofill26AutofillQueryContents_FormE = hidden unnamed_addr constant { [16 x i8*] } { [16 x i8*] [i8* null, i8* null, i8* bitcast (void (%"class.autofill::AutofillQueryContents_Form"*)* @_ZN8autofill26AutofillQueryContents_FormD2Ev to i8*), i8* bitcast (void (%"class.autofill::AutofillQueryContents_Form"*)* @_ZN8autofill26AutofillQueryContents_FormD0Ev to i8*), i8* bitcast (void (%"class.std::__1::basic_string"*, %"class.autofill::AutofillQueryContents_Form"*)* @_ZNK8autofill26AutofillQueryContents_Form11GetTypeNameEv to i8*), i8* bitcast (%"class.autofill::AutofillQueryContents_Form"* (%"class.autofill::AutofillQueryContents_Form"*)* @_ZNK8autofill26AutofillQueryContents_Form3NewEv to i8*), i8* bitcast (%"class.autofill::AutofillQueryContents_Form"* (%"class.autofill::AutofillQueryContents_Form"*, %"class.google::protobuf::Arena"*)* @_ZNK8autofill26AutofillQueryContents_Form3NewEPN6google8protobuf5ArenaE to i8*), i8* bitcast (void (%"class.autofill::AutofillQueryContents_Form"*)* @_ZN8autofill26AutofillQueryContents_Form5ClearEv to i8*), i8* bitcast (i1 (%"class.autofill::AutofillQueryContents_Form"*)* @_ZNK8autofill26AutofillQueryContents_Form13IsInitializedEv to i8*), i8* bitcast (void (%"class.std::__1::basic_string"*, %"class.google::protobuf::MessageLite"*)* @_ZNK6google8protobuf11MessageLite25InitializationErrorStringEv to i8*), i8* bitcast (void (%"class.autofill::AutofillQueryContents_Form"*, %"class.google::protobuf::MessageLite"*)* @_ZN8autofill26AutofillQueryContents_Form21CheckTypeAndMergeFromERKN6google8protobuf11MessageLiteE to i8*), i8* bitcast (i64 (%"class.autofill::AutofillQueryContents_Form"*)* @_ZNK8autofill26AutofillQueryContents_Form12ByteSizeLongEv to i8*), i8* bitcast (i32 (%"class.autofill::AutofillQueryContents_Form"*)* @_ZNK8autofill26AutofillQueryContents_Form13GetCachedSizeEv to i8*), i8* bitcast (i8* (%"class.autofill::AutofillQueryContents_Form"*, i8*, %"class.google::protobuf::internal::ParseContext"*)* @_ZN8autofill26AutofillQueryContents_Form14_InternalParseEPKcPN6google8protobuf8internal12ParseContextE to i8*), i8* bitcast (i8* (%"class.autofill::AutofillQueryContents_Form"*, i8*, %"class.google::protobuf::io::EpsCopyOutputStream"*)* @_ZNK8autofill26AutofillQueryContents_Form18_InternalSerializeEPhPN6google8protobuf2io19EpsCopyOutputStreamE to i8*), i8* bitcast (i8* (%"class.google::protobuf::MessageLite"*)* @_ZNK6google8protobuf11MessageLite16InternalGetTableEv to i8*)] }, align 8
@.str.22 = private unnamed_addr constant [36 x i8] c"autofill.AutofillQueryContents.Form\00", align 1
@_ZTVN8autofill21AutofillQueryContentsE = hidden unnamed_addr constant { [16 x i8*] } { [16 x i8*] [i8* null, i8* null, i8* bitcast (void (%"class.autofill::AutofillQueryContents"*)* @_ZN8autofill21AutofillQueryContentsD2Ev to i8*), i8* bitcast (void (%"class.autofill::AutofillQueryContents"*)* @_ZN8autofill21AutofillQueryContentsD0Ev to i8*), i8* bitcast (void (%"class.std::__1::basic_string"*, %"class.autofill::AutofillQueryContents"*)* @_ZNK8autofill21AutofillQueryContents11GetTypeNameEv to i8*), i8* bitcast (%"class.autofill::AutofillQueryContents"* (%"class.autofill::AutofillQueryContents"*)* @_ZNK8autofill21AutofillQueryContents3NewEv to i8*), i8* bitcast (%"class.autofill::AutofillQueryContents"* (%"class.autofill::AutofillQueryContents"*, %"class.google::protobuf::Arena"*)* @_ZNK8autofill21AutofillQueryContents3NewEPN6google8protobuf5ArenaE to i8*), i8* bitcast (void (%"class.autofill::AutofillQueryContents"*)* @_ZN8autofill21AutofillQueryContents5ClearEv to i8*), i8* bitcast (i1 (%"class.autofill::AutofillQueryContents"*)* @_ZNK8autofill21AutofillQueryContents13IsInitializedEv to i8*), i8* bitcast (void (%"class.std::__1::basic_string"*, %"class.google::protobuf::MessageLite"*)* @_ZNK6google8protobuf11MessageLite25InitializationErrorStringEv to i8*), i8* bitcast (void (%"class.autofill::AutofillQueryContents"*, %"class.google::protobuf::MessageLite"*)* @_ZN8autofill21AutofillQueryContents21CheckTypeAndMergeFromERKN6google8protobuf11MessageLiteE to i8*), i8* bitcast (i64 (%"class.autofill::AutofillQueryContents"*)* @_ZNK8autofill21AutofillQueryContents12ByteSizeLongEv to i8*), i8* bitcast (i32 (%"class.autofill::AutofillQueryContents"*)* @_ZNK8autofill21AutofillQueryContents13GetCachedSizeEv to i8*), i8* bitcast (i8* (%"class.autofill::AutofillQueryContents"*, i8*, %"class.google::protobuf::internal::ParseContext"*)* @_ZN8autofill21AutofillQueryContents14_InternalParseEPKcPN6google8protobuf8internal12ParseContextE to i8*), i8* bitcast (i8* (%"class.autofill::AutofillQueryContents"*, i8*, %"class.google::protobuf::io::EpsCopyOutputStream"*)* @_ZNK8autofill21AutofillQueryContents18_InternalSerializeEPhPN6google8protobuf2io19EpsCopyOutputStreamE to i8*), i8* bitcast (i8* (%"class.google::protobuf::MessageLite"*)* @_ZNK6google8protobuf11MessageLite16InternalGetTableEv to i8*)] }, align 8
@.str.23 = private unnamed_addr constant [31 x i8] c"autofill.AutofillQueryContents\00", align 1
@_ZTVN8autofill51AutofillQueryResponseContents_Field_FieldPredictionE = hidden unnamed_addr constant { [16 x i8*] } { [16 x i8*] [i8* null, i8* null, i8* bitcast (void (%"class.autofill::AutofillQueryResponseContents_Field_FieldPrediction"*)* @_ZN8autofill51AutofillQueryResponseContents_Field_FieldPredictionD2Ev to i8*), i8* bitcast (void (%"class.autofill::AutofillQueryResponseContents_Field_FieldPrediction"*)* @_ZN8autofill51AutofillQueryResponseContents_Field_FieldPredictionD0Ev to i8*), i8* bitcast (void (%"class.std::__1::basic_string"*, %"class.autofill::AutofillQueryResponseContents_Field_FieldPrediction"*)* @_ZNK8autofill51AutofillQueryResponseContents_Field_FieldPrediction11GetTypeNameEv to i8*), i8* bitcast (%"class.autofill::AutofillQueryResponseContents_Field_FieldPrediction"* (%"class.autofill::AutofillQueryResponseContents_Field_FieldPrediction"*)* @_ZNK8autofill51AutofillQueryResponseContents_Field_FieldPrediction3NewEv to i8*), i8* bitcast (%"class.autofill::AutofillQueryResponseContents_Field_FieldPrediction"* (%"class.autofill::AutofillQueryResponseContents_Field_FieldPrediction"*, %"class.google::protobuf::Arena"*)* @_ZNK8autofill51AutofillQueryResponseContents_Field_FieldPrediction3NewEPN6google8protobuf5ArenaE to i8*), i8* bitcast (void (%"class.autofill::AutofillQueryResponseContents_Field_FieldPrediction"*)* @_ZN8autofill51AutofillQueryResponseContents_Field_FieldPrediction5ClearEv to i8*), i8* bitcast (i1 (%"class.autofill::AutofillQueryResponseContents_Field_FieldPrediction"*)* @_ZNK8autofill51AutofillQueryResponseContents_Field_FieldPrediction13IsInitializedEv to i8*), i8* bitcast (void (%"class.std::__1::basic_string"*, %"class.google::protobuf::MessageLite"*)* @_ZNK6google8protobuf11MessageLite25InitializationErrorStringEv to i8*), i8* bitcast (void (%"class.autofill::AutofillQueryResponseContents_Field_FieldPrediction"*, %"class.google::protobuf::MessageLite"*)* @_ZN8autofill51AutofillQueryResponseContents_Field_FieldPrediction21CheckTypeAndMergeFromERKN6google8protobuf11MessageLiteE to i8*), i8* bitcast (i64 (%"class.autofill::AutofillQueryResponseContents_Field_FieldPrediction"*)* @_ZNK8autofill51AutofillQueryResponseContents_Field_FieldPrediction12ByteSizeLongEv to i8*), i8* bitcast (i32 (%"class.autofill::AutofillQueryResponseContents_Field_FieldPrediction"*)* @_ZNK8autofill51AutofillQueryResponseContents_Field_FieldPrediction13GetCachedSizeEv to i8*), i8* bitcast (i8* (%"class.autofill::AutofillQueryResponseContents_Field_FieldPrediction"*, i8*, %"class.google::protobuf::internal::ParseContext"*)* @_ZN8autofill51AutofillQueryResponseContents_Field_FieldPrediction14_InternalParseEPKcPN6google8protobuf8internal12ParseContextE to i8*), i8* bitcast (i8* (%"class.autofill::AutofillQueryResponseContents_Field_FieldPrediction"*, i8*, %"class.google::protobuf::io::EpsCopyOutputStream"*)* @_ZNK8autofill51AutofillQueryResponseContents_Field_FieldPrediction18_InternalSerializeEPhPN6google8protobuf2io19EpsCopyOutputStreamE to i8*), i8* bitcast (i8* (%"class.google::protobuf::MessageLite"*)* @_ZNK6google8protobuf11MessageLite16InternalGetTableEv to i8*)] }, align 8
@.str.24 = private unnamed_addr constant [61 x i8] c"autofill.AutofillQueryResponseContents.Field.FieldPrediction\00", align 1
@_ZTVN8autofill35AutofillQueryResponseContents_FieldE = hidden unnamed_addr constant { [16 x i8*] } { [16 x i8*] [i8* null, i8* null, i8* bitcast (void (%"class.autofill::AutofillQueryResponseContents_Field"*)* @_ZN8autofill35AutofillQueryResponseContents_FieldD2Ev to i8*), i8* bitcast (void (%"class.autofill::AutofillQueryResponseContents_Field"*)* @_ZN8autofill35AutofillQueryResponseContents_FieldD0Ev to i8*), i8* bitcast (void (%"class.std::__1::basic_string"*, %"class.autofill::AutofillQueryResponseContents_Field"*)* @_ZNK8autofill35AutofillQueryResponseContents_Field11GetTypeNameEv to i8*), i8* bitcast (%"class.autofill::AutofillQueryResponseContents_Field"* (%"class.autofill::AutofillQueryResponseContents_Field"*)* @_ZNK8autofill35AutofillQueryResponseContents_Field3NewEv to i8*), i8* bitcast (%"class.autofill::AutofillQueryResponseContents_Field"* (%"class.autofill::AutofillQueryResponseContents_Field"*, %"class.google::protobuf::Arena"*)* @_ZNK8autofill35AutofillQueryResponseContents_Field3NewEPN6google8protobuf5ArenaE to i8*), i8* bitcast (void (%"class.autofill::AutofillQueryResponseContents_Field"*)* @_ZN8autofill35AutofillQueryResponseContents_Field5ClearEv to i8*), i8* bitcast (i1 (%"class.autofill::AutofillQueryResponseContents_Field"*)* @_ZNK8autofill35AutofillQueryResponseContents_Field13IsInitializedEv to i8*), i8* bitcast (void (%"class.std::__1::basic_string"*, %"class.google::protobuf::MessageLite"*)* @_ZNK6google8protobuf11MessageLite25InitializationErrorStringEv to i8*), i8* bitcast (void (%"class.autofill::AutofillQueryResponseContents_Field"*, %"class.google::protobuf::MessageLite"*)* @_ZN8autofill35AutofillQueryResponseContents_Field21CheckTypeAndMergeFromERKN6google8protobuf11MessageLiteE to i8*), i8* bitcast (i64 (%"class.autofill::AutofillQueryResponseContents_Field"*)* @_ZNK8autofill35AutofillQueryResponseContents_Field12ByteSizeLongEv to i8*), i8* bitcast (i32 (%"class.autofill::AutofillQueryResponseContents_Field"*)* @_ZNK8autofill35AutofillQueryResponseContents_Field13GetCachedSizeEv to i8*), i8* bitcast (i8* (%"class.autofill::AutofillQueryResponseContents_Field"*, i8*, %"class.google::protobuf::internal::ParseContext"*)* @_ZN8autofill35AutofillQueryResponseContents_Field14_InternalParseEPKcPN6google8protobuf8internal12ParseContextE to i8*), i8* bitcast (i8* (%"class.autofill::AutofillQueryResponseContents_Field"*, i8*, %"class.google::protobuf::io::EpsCopyOutputStream"*)* @_ZNK8autofill35AutofillQueryResponseContents_Field18_InternalSerializeEPhPN6google8protobuf2io19EpsCopyOutputStreamE to i8*), i8* bitcast (i8* (%"class.google::protobuf::MessageLite"*)* @_ZNK6google8protobuf11MessageLite16InternalGetTableEv to i8*)] }, align 8
@.str.26 = private unnamed_addr constant [45 x i8] c"autofill.AutofillQueryResponseContents.Field\00", align 1
@_ZTVN8autofill29AutofillQueryResponseContentsE = hidden unnamed_addr constant { [16 x i8*] } { [16 x i8*] [i8* null, i8* null, i8* bitcast (void (%"class.autofill::AutofillQueryResponseContents"*)* @_ZN8autofill29AutofillQueryResponseContentsD2Ev to i8*), i8* bitcast (void (%"class.autofill::AutofillQueryResponseContents"*)* @_ZN8autofill29AutofillQueryResponseContentsD0Ev to i8*), i8* bitcast (void (%"class.std::__1::basic_string"*, %"class.autofill::AutofillQueryResponseContents"*)* @_ZNK8autofill29AutofillQueryResponseContents11GetTypeNameEv to i8*), i8* bitcast (%"class.autofill::AutofillQueryResponseContents"* (%"class.autofill::AutofillQueryResponseContents"*)* @_ZNK8autofill29AutofillQueryResponseContents3NewEv to i8*), i8* bitcast (%"class.autofill::AutofillQueryResponseContents"* (%"class.autofill::AutofillQueryResponseContents"*, %"class.google::protobuf::Arena"*)* @_ZNK8autofill29AutofillQueryResponseContents3NewEPN6google8protobuf5ArenaE to i8*), i8* bitcast (void (%"class.autofill::AutofillQueryResponseContents"*)* @_ZN8autofill29AutofillQueryResponseContents5ClearEv to i8*), i8* bitcast (i1 (%"class.autofill::AutofillQueryResponseContents"*)* @_ZNK8autofill29AutofillQueryResponseContents13IsInitializedEv to i8*), i8* bitcast (void (%"class.std::__1::basic_string"*, %"class.google::protobuf::MessageLite"*)* @_ZNK6google8protobuf11MessageLite25InitializationErrorStringEv to i8*), i8* bitcast (void (%"class.autofill::AutofillQueryResponseContents"*, %"class.google::protobuf::MessageLite"*)* @_ZN8autofill29AutofillQueryResponseContents21CheckTypeAndMergeFromERKN6google8protobuf11MessageLiteE to i8*), i8* bitcast (i64 (%"class.autofill::AutofillQueryResponseContents"*)* @_ZNK8autofill29AutofillQueryResponseContents12ByteSizeLongEv to i8*), i8* bitcast (i32 (%"class.autofill::AutofillQueryResponseContents"*)* @_ZNK8autofill29AutofillQueryResponseContents13GetCachedSizeEv to i8*), i8* bitcast (i8* (%"class.autofill::AutofillQueryResponseContents"*, i8*, %"class.google::protobuf::internal::ParseContext"*)* @_ZN8autofill29AutofillQueryResponseContents14_InternalParseEPKcPN6google8protobuf8internal12ParseContextE to i8*), i8* bitcast (i8* (%"class.autofill::AutofillQueryResponseContents"*, i8*, %"class.google::protobuf::io::EpsCopyOutputStream"*)* @_ZNK8autofill29AutofillQueryResponseContents18_InternalSerializeEPhPN6google8protobuf2io19EpsCopyOutputStreamE to i8*), i8* bitcast (i8* (%"class.google::protobuf::MessageLite"*)* @_ZNK6google8protobuf11MessageLite16InternalGetTableEv to i8*)] }, align 8
@.str.27 = private unnamed_addr constant [39 x i8] c"autofill.AutofillQueryResponseContents\00", align 1
@_ZTVN8autofill23AutofillRandomizedValueE = hidden unnamed_addr constant { [16 x i8*] } { [16 x i8*] [i8* null, i8* null, i8* bitcast (void (%"class.autofill::AutofillRandomizedValue"*)* @_ZN8autofill23AutofillRandomizedValueD2Ev to i8*), i8* bitcast (void (%"class.autofill::AutofillRandomizedValue"*)* @_ZN8autofill23AutofillRandomizedValueD0Ev to i8*), i8* bitcast (void (%"class.std::__1::basic_string"*, %"class.autofill::AutofillRandomizedValue"*)* @_ZNK8autofill23AutofillRandomizedValue11GetTypeNameEv to i8*), i8* bitcast (%"class.autofill::AutofillRandomizedValue"* (%"class.autofill::AutofillRandomizedValue"*)* @_ZNK8autofill23AutofillRandomizedValue3NewEv to i8*), i8* bitcast (%"class.autofill::AutofillRandomizedValue"* (%"class.autofill::AutofillRandomizedValue"*, %"class.google::protobuf::Arena"*)* @_ZNK8autofill23AutofillRandomizedValue3NewEPN6google8protobuf5ArenaE to i8*), i8* bitcast (void (%"class.autofill::AutofillRandomizedValue"*)* @_ZN8autofill23AutofillRandomizedValue5ClearEv to i8*), i8* bitcast (i1 (%"class.autofill::AutofillRandomizedValue"*)* @_ZNK8autofill23AutofillRandomizedValue13IsInitializedEv to i8*), i8* bitcast (void (%"class.std::__1::basic_string"*, %"class.google::protobuf::MessageLite"*)* @_ZNK6google8protobuf11MessageLite25InitializationErrorStringEv to i8*), i8* bitcast (void (%"class.autofill::AutofillRandomizedValue"*, %"class.google::protobuf::MessageLite"*)* @_ZN8autofill23AutofillRandomizedValue21CheckTypeAndMergeFromERKN6google8protobuf11MessageLiteE to i8*), i8* bitcast (i64 (%"class.autofill::AutofillRandomizedValue"*)* @_ZNK8autofill23AutofillRandomizedValue12ByteSizeLongEv to i8*), i8* bitcast (i32 (%"class.autofill::AutofillRandomizedValue"*)* @_ZNK8autofill23AutofillRandomizedValue13GetCachedSizeEv to i8*), i8* bitcast (i8* (%"class.autofill::AutofillRandomizedValue"*, i8*, %"class.google::protobuf::internal::ParseContext"*)* @_ZN8autofill23AutofillRandomizedValue14_InternalParseEPKcPN6google8protobuf8internal12ParseContextE to i8*), i8* bitcast (i8* (%"class.autofill::AutofillRandomizedValue"*, i8*, %"class.google::protobuf::io::EpsCopyOutputStream"*)* @_ZNK8autofill23AutofillRandomizedValue18_InternalSerializeEPhPN6google8protobuf2io19EpsCopyOutputStreamE to i8*), i8* bitcast (i8* (%"class.google::protobuf::MessageLite"*)* @_ZNK6google8protobuf11MessageLite16InternalGetTableEv to i8*)] }, align 8
@.str.28 = private unnamed_addr constant [33 x i8] c"autofill.AutofillRandomizedValue\00", align 1
@_ZTVN8autofill42AutofillRandomizedFormMetadata_ButtonTitleE = hidden unnamed_addr constant { [16 x i8*] } { [16 x i8*] [i8* null, i8* null, i8* bitcast (void (%"class.autofill::AutofillRandomizedFormMetadata_ButtonTitle"*)* @_ZN8autofill42AutofillRandomizedFormMetadata_ButtonTitleD2Ev to i8*), i8* bitcast (void (%"class.autofill::AutofillRandomizedFormMetadata_ButtonTitle"*)* @_ZN8autofill42AutofillRandomizedFormMetadata_ButtonTitleD0Ev to i8*), i8* bitcast (void (%"class.std::__1::basic_string"*, %"class.autofill::AutofillRandomizedFormMetadata_ButtonTitle"*)* @_ZNK8autofill42AutofillRandomizedFormMetadata_ButtonTitle11GetTypeNameEv to i8*), i8* bitcast (%"class.autofill::AutofillRandomizedFormMetadata_ButtonTitle"* (%"class.autofill::AutofillRandomizedFormMetadata_ButtonTitle"*)* @_ZNK8autofill42AutofillRandomizedFormMetadata_ButtonTitle3NewEv to i8*), i8* bitcast (%"class.autofill::AutofillRandomizedFormMetadata_ButtonTitle"* (%"class.autofill::AutofillRandomizedFormMetadata_ButtonTitle"*, %"class.google::protobuf::Arena"*)* @_ZNK8autofill42AutofillRandomizedFormMetadata_ButtonTitle3NewEPN6google8protobuf5ArenaE to i8*), i8* bitcast (void (%"class.autofill::AutofillRandomizedFormMetadata_ButtonTitle"*)* @_ZN8autofill42AutofillRandomizedFormMetadata_ButtonTitle5ClearEv to i8*), i8* bitcast (i1 (%"class.autofill::AutofillRandomizedFormMetadata_ButtonTitle"*)* @_ZNK8autofill42AutofillRandomizedFormMetadata_ButtonTitle13IsInitializedEv to i8*), i8* bitcast (void (%"class.std::__1::basic_string"*, %"class.google::protobuf::MessageLite"*)* @_ZNK6google8protobuf11MessageLite25InitializationErrorStringEv to i8*), i8* bitcast (void (%"class.autofill::AutofillRandomizedFormMetadata_ButtonTitle"*, %"class.google::protobuf::MessageLite"*)* @_ZN8autofill42AutofillRandomizedFormMetadata_ButtonTitle21CheckTypeAndMergeFromERKN6google8protobuf11MessageLiteE to i8*), i8* bitcast (i64 (%"class.autofill::AutofillRandomizedFormMetadata_ButtonTitle"*)* @_ZNK8autofill42AutofillRandomizedFormMetadata_ButtonTitle12ByteSizeLongEv to i8*), i8* bitcast (i32 (%"class.autofill::AutofillRandomizedFormMetadata_ButtonTitle"*)* @_ZNK8autofill42AutofillRandomizedFormMetadata_ButtonTitle13GetCachedSizeEv to i8*), i8* bitcast (i8* (%"class.autofill::AutofillRandomizedFormMetadata_ButtonTitle"*, i8*, %"class.google::protobuf::internal::ParseContext"*)* @_ZN8autofill42AutofillRandomizedFormMetadata_ButtonTitle14_InternalParseEPKcPN6google8protobuf8internal12ParseContextE to i8*), i8* bitcast (i8* (%"class.autofill::AutofillRandomizedFormMetadata_ButtonTitle"*, i8*, %"class.google::protobuf::io::EpsCopyOutputStream"*)* @_ZNK8autofill42AutofillRandomizedFormMetadata_ButtonTitle18_InternalSerializeEPhPN6google8protobuf2io19EpsCopyOutputStreamE to i8*), i8* bitcast (i8* (%"class.google::protobuf::MessageLite"*)* @_ZNK6google8protobuf11MessageLite16InternalGetTableEv to i8*)] }, align 8
@.str.30 = private unnamed_addr constant [52 x i8] c"autofill.AutofillRandomizedFormMetadata.ButtonTitle\00", align 1
@_ZTVN8autofill30AutofillRandomizedFormMetadataE = hidden unnamed_addr constant { [16 x i8*] } { [16 x i8*] [i8* null, i8* null, i8* bitcast (void (%"class.autofill::AutofillRandomizedFormMetadata"*)* @_ZN8autofill30AutofillRandomizedFormMetadataD2Ev to i8*), i8* bitcast (void (%"class.autofill::AutofillRandomizedFormMetadata"*)* @_ZN8autofill30AutofillRandomizedFormMetadataD0Ev to i8*), i8* bitcast (void (%"class.std::__1::basic_string"*, %"class.autofill::AutofillRandomizedFormMetadata"*)* @_ZNK8autofill30AutofillRandomizedFormMetadata11GetTypeNameEv to i8*), i8* bitcast (%"class.autofill::AutofillRandomizedFormMetadata"* (%"class.autofill::AutofillRandomizedFormMetadata"*)* @_ZNK8autofill30AutofillRandomizedFormMetadata3NewEv to i8*), i8* bitcast (%"class.autofill::AutofillRandomizedFormMetadata"* (%"class.autofill::AutofillRandomizedFormMetadata"*, %"class.google::protobuf::Arena"*)* @_ZNK8autofill30AutofillRandomizedFormMetadata3NewEPN6google8protobuf5ArenaE to i8*), i8* bitcast (void (%"class.autofill::AutofillRandomizedFormMetadata"*)* @_ZN8autofill30AutofillRandomizedFormMetadata5ClearEv to i8*), i8* bitcast (i1 (%"class.autofill::AutofillRandomizedFormMetadata"*)* @_ZNK8autofill30AutofillRandomizedFormMetadata13IsInitializedEv to i8*), i8* bitcast (void (%"class.std::__1::basic_string"*, %"class.google::protobuf::MessageLite"*)* @_ZNK6google8protobuf11MessageLite25InitializationErrorStringEv to i8*), i8* bitcast (void (%"class.autofill::AutofillRandomizedFormMetadata"*, %"class.google::protobuf::MessageLite"*)* @_ZN8autofill30AutofillRandomizedFormMetadata21CheckTypeAndMergeFromERKN6google8protobuf11MessageLiteE to i8*), i8* bitcast (i64 (%"class.autofill::AutofillRandomizedFormMetadata"*)* @_ZNK8autofill30AutofillRandomizedFormMetadata12ByteSizeLongEv to i8*), i8* bitcast (i32 (%"class.autofill::AutofillRandomizedFormMetadata"*)* @_ZNK8autofill30AutofillRandomizedFormMetadata13GetCachedSizeEv to i8*), i8* bitcast (i8* (%"class.autofill::AutofillRandomizedFormMetadata"*, i8*, %"class.google::protobuf::internal::ParseContext"*)* @_ZN8autofill30AutofillRandomizedFormMetadata14_InternalParseEPKcPN6google8protobuf8internal12ParseContextE to i8*), i8* bitcast (i8* (%"class.autofill::AutofillRandomizedFormMetadata"*, i8*, %"class.google::protobuf::io::EpsCopyOutputStream"*)* @_ZNK8autofill30AutofillRandomizedFormMetadata18_InternalSerializeEPhPN6google8protobuf2io19EpsCopyOutputStreamE to i8*), i8* bitcast (i8* (%"class.google::protobuf::MessageLite"*)* @_ZNK6google8protobuf11MessageLite16InternalGetTableEv to i8*)] }, align 8
@.str.35 = private unnamed_addr constant [40 x i8] c"autofill.AutofillRandomizedFormMetadata\00", align 1
@_ZTVN8autofill31AutofillRandomizedFieldMetadataE = hidden unnamed_addr constant { [16 x i8*] } { [16 x i8*] [i8* null, i8* null, i8* bitcast (void (%"class.autofill::AutofillRandomizedFieldMetadata"*)* @_ZN8autofill31AutofillRandomizedFieldMetadataD2Ev to i8*), i8* bitcast (void (%"class.autofill::AutofillRandomizedFieldMetadata"*)* @_ZN8autofill31AutofillRandomizedFieldMetadataD0Ev to i8*), i8* bitcast (void (%"class.std::__1::basic_string"*, %"class.autofill::AutofillRandomizedFieldMetadata"*)* @_ZNK8autofill31AutofillRandomizedFieldMetadata11GetTypeNameEv to i8*), i8* bitcast (%"class.autofill::AutofillRandomizedFieldMetadata"* (%"class.autofill::AutofillRandomizedFieldMetadata"*)* @_ZNK8autofill31AutofillRandomizedFieldMetadata3NewEv to i8*), i8* bitcast (%"class.autofill::AutofillRandomizedFieldMetadata"* (%"class.autofill::AutofillRandomizedFieldMetadata"*, %"class.google::protobuf::Arena"*)* @_ZNK8autofill31AutofillRandomizedFieldMetadata3NewEPN6google8protobuf5ArenaE to i8*), i8* bitcast (void (%"class.autofill::AutofillRandomizedFieldMetadata"*)* @_ZN8autofill31AutofillRandomizedFieldMetadata5ClearEv to i8*), i8* bitcast (i1 (%"class.autofill::AutofillRandomizedFieldMetadata"*)* @_ZNK8autofill31AutofillRandomizedFieldMetadata13IsInitializedEv to i8*), i8* bitcast (void (%"class.std::__1::basic_string"*, %"class.google::protobuf::MessageLite"*)* @_ZNK6google8protobuf11MessageLite25InitializationErrorStringEv to i8*), i8* bitcast (void (%"class.autofill::AutofillRandomizedFieldMetadata"*, %"class.google::protobuf::MessageLite"*)* @_ZN8autofill31AutofillRandomizedFieldMetadata21CheckTypeAndMergeFromERKN6google8protobuf11MessageLiteE to i8*), i8* bitcast (i64 (%"class.autofill::AutofillRandomizedFieldMetadata"*)* @_ZNK8autofill31AutofillRandomizedFieldMetadata12ByteSizeLongEv to i8*), i8* bitcast (i32 (%"class.autofill::AutofillRandomizedFieldMetadata"*)* @_ZNK8autofill31AutofillRandomizedFieldMetadata13GetCachedSizeEv to i8*), i8* bitcast (i8* (%"class.autofill::AutofillRandomizedFieldMetadata"*, i8*, %"class.google::protobuf::internal::ParseContext"*)* @_ZN8autofill31AutofillRandomizedFieldMetadata14_InternalParseEPKcPN6google8protobuf8internal12ParseContextE to i8*), i8* bitcast (i8* (%"class.autofill::AutofillRandomizedFieldMetadata"*, i8*, %"class.google::protobuf::io::EpsCopyOutputStream"*)* @_ZNK8autofill31AutofillRandomizedFieldMetadata18_InternalSerializeEPhPN6google8protobuf2io19EpsCopyOutputStreamE to i8*), i8* bitcast (i8* (%"class.google::protobuf::MessageLite"*)* @_ZNK6google8protobuf11MessageLite16InternalGetTableEv to i8*)] }, align 8
@.str.43 = private unnamed_addr constant [41 x i8] c"autofill.AutofillRandomizedFieldMetadata\00", align 1
@_ZTVN8autofill55AutofillUploadContents_Field_AutofillTypeValiditiesPairE = hidden unnamed_addr constant { [16 x i8*] } { [16 x i8*] [i8* null, i8* null, i8* bitcast (void (%"class.autofill::AutofillUploadContents_Field_AutofillTypeValiditiesPair"*)* @_ZN8autofill55AutofillUploadContents_Field_AutofillTypeValiditiesPairD2Ev to i8*), i8* bitcast (void (%"class.autofill::AutofillUploadContents_Field_AutofillTypeValiditiesPair"*)* @_ZN8autofill55AutofillUploadContents_Field_AutofillTypeValiditiesPairD0Ev to i8*), i8* bitcast (void (%"class.std::__1::basic_string"*, %"class.autofill::AutofillUploadContents_Field_AutofillTypeValiditiesPair"*)* @_ZNK8autofill55AutofillUploadContents_Field_AutofillTypeValiditiesPair11GetTypeNameEv to i8*), i8* bitcast (%"class.autofill::AutofillUploadContents_Field_AutofillTypeValiditiesPair"* (%"class.autofill::AutofillUploadContents_Field_AutofillTypeValiditiesPair"*)* @_ZNK8autofill55AutofillUploadContents_Field_AutofillTypeValiditiesPair3NewEv to i8*), i8* bitcast (%"class.autofill::AutofillUploadContents_Field_AutofillTypeValiditiesPair"* (%"class.autofill::AutofillUploadContents_Field_AutofillTypeValiditiesPair"*, %"class.google::protobuf::Arena"*)* @_ZNK8autofill55AutofillUploadContents_Field_AutofillTypeValiditiesPair3NewEPN6google8protobuf5ArenaE to i8*), i8* bitcast (void (%"class.autofill::AutofillUploadContents_Field_AutofillTypeValiditiesPair"*)* @_ZN8autofill55AutofillUploadContents_Field_AutofillTypeValiditiesPair5ClearEv to i8*), i8* bitcast (i1 (%"class.autofill::AutofillUploadContents_Field_AutofillTypeValiditiesPair"*)* @_ZNK8autofill55AutofillUploadContents_Field_AutofillTypeValiditiesPair13IsInitializedEv to i8*), i8* bitcast (void (%"class.std::__1::basic_string"*, %"class.google::protobuf::MessageLite"*)* @_ZNK6google8protobuf11MessageLite25InitializationErrorStringEv to i8*), i8* bitcast (void (%"class.autofill::AutofillUploadContents_Field_AutofillTypeValiditiesPair"*, %"class.google::protobuf::MessageLite"*)* @_ZN8autofill55AutofillUploadContents_Field_AutofillTypeValiditiesPair21CheckTypeAndMergeFromERKN6google8protobuf11MessageLiteE to i8*), i8* bitcast (i64 (%"class.autofill::AutofillUploadContents_Field_AutofillTypeValiditiesPair"*)* @_ZNK8autofill55AutofillUploadContents_Field_AutofillTypeValiditiesPair12ByteSizeLongEv to i8*), i8* bitcast (i32 (%"class.autofill::AutofillUploadContents_Field_AutofillTypeValiditiesPair"*)* @_ZNK8autofill55AutofillUploadContents_Field_AutofillTypeValiditiesPair13GetCachedSizeEv to i8*), i8* bitcast (i8* (%"class.autofill::AutofillUploadContents_Field_AutofillTypeValiditiesPair"*, i8*, %"class.google::protobuf::internal::ParseContext"*)* @_ZN8autofill55AutofillUploadContents_Field_AutofillTypeValiditiesPair14_InternalParseEPKcPN6google8protobuf8internal12ParseContextE to i8*), i8* bitcast (i8* (%"class.autofill::AutofillUploadContents_Field_AutofillTypeValiditiesPair"*, i8*, %"class.google::protobuf::io::EpsCopyOutputStream"*)* @_ZNK8autofill55AutofillUploadContents_Field_AutofillTypeValiditiesPair18_InternalSerializeEPhPN6google8protobuf2io19EpsCopyOutputStreamE to i8*), i8* bitcast (i8* (%"class.google::protobuf::MessageLite"*)* @_ZNK6google8protobuf11MessageLite16InternalGetTableEv to i8*)] }, align 8
@.str.44 = private unnamed_addr constant [65 x i8] c"autofill.AutofillUploadContents.Field.AutofillTypeValiditiesPair\00", align 1
@_ZTVN8autofill28AutofillUploadContents_FieldE = hidden unnamed_addr constant { [16 x i8*] } { [16 x i8*] [i8* null, i8* null, i8* bitcast (void (%"class.autofill::AutofillUploadContents_Field"*)* @_ZN8autofill28AutofillUploadContents_FieldD2Ev to i8*), i8* bitcast (void (%"class.autofill::AutofillUploadContents_Field"*)* @_ZN8autofill28AutofillUploadContents_FieldD0Ev to i8*), i8* bitcast (void (%"class.std::__1::basic_string"*, %"class.autofill::AutofillUploadContents_Field"*)* @_ZNK8autofill28AutofillUploadContents_Field11GetTypeNameEv to i8*), i8* bitcast (%"class.autofill::AutofillUploadContents_Field"* (%"class.autofill::AutofillUploadContents_Field"*)* @_ZNK8autofill28AutofillUploadContents_Field3NewEv to i8*), i8* bitcast (%"class.autofill::AutofillUploadContents_Field"* (%"class.autofill::AutofillUploadContents_Field"*, %"class.google::protobuf::Arena"*)* @_ZNK8autofill28AutofillUploadContents_Field3NewEPN6google8protobuf5ArenaE to i8*), i8* bitcast (void (%"class.autofill::AutofillUploadContents_Field"*)* @_ZN8autofill28AutofillUploadContents_Field5ClearEv to i8*), i8* bitcast (i1 (%"class.autofill::AutofillUploadContents_Field"*)* @_ZNK8autofill28AutofillUploadContents_Field13IsInitializedEv to i8*), i8* bitcast (void (%"class.std::__1::basic_string"*, %"class.google::protobuf::MessageLite"*)* @_ZNK6google8protobuf11MessageLite25InitializationErrorStringEv to i8*), i8* bitcast (void (%"class.autofill::AutofillUploadContents_Field"*, %"class.google::protobuf::MessageLite"*)* @_ZN8autofill28AutofillUploadContents_Field21CheckTypeAndMergeFromERKN6google8protobuf11MessageLiteE to i8*), i8* bitcast (i64 (%"class.autofill::AutofillUploadContents_Field"*)* @_ZNK8autofill28AutofillUploadContents_Field12ByteSizeLongEv to i8*), i8* bitcast (i32 (%"class.autofill::AutofillUploadContents_Field"*)* @_ZNK8autofill28AutofillUploadContents_Field13GetCachedSizeEv to i8*), i8* bitcast (i8* (%"class.autofill::AutofillUploadContents_Field"*, i8*, %"class.google::protobuf::internal::ParseContext"*)* @_ZN8autofill28AutofillUploadContents_Field14_InternalParseEPKcPN6google8protobuf8internal12ParseContextE to i8*), i8* bitcast (i8* (%"class.autofill::AutofillUploadContents_Field"*, i8*, %"class.google::protobuf::io::EpsCopyOutputStream"*)* @_ZNK8autofill28AutofillUploadContents_Field18_InternalSerializeEPhPN6google8protobuf2io19EpsCopyOutputStreamE to i8*), i8* bitcast (i8* (%"class.google::protobuf::MessageLite"*)* @_ZNK6google8protobuf11MessageLite16InternalGetTableEv to i8*)] }, align 8
@.str.46 = private unnamed_addr constant [38 x i8] c"autofill.AutofillUploadContents.Field\00", align 1
@_ZTVN8autofill34AutofillUploadContents_ButtonTitleE = hidden unnamed_addr constant { [16 x i8*] } { [16 x i8*] [i8* null, i8* null, i8* bitcast (void (%"class.autofill::AutofillUploadContents_ButtonTitle"*)* @_ZN8autofill34AutofillUploadContents_ButtonTitleD2Ev to i8*), i8* bitcast (void (%"class.autofill::AutofillUploadContents_ButtonTitle"*)* @_ZN8autofill34AutofillUploadContents_ButtonTitleD0Ev to i8*), i8* bitcast (void (%"class.std::__1::basic_string"*, %"class.autofill::AutofillUploadContents_ButtonTitle"*)* @_ZNK8autofill34AutofillUploadContents_ButtonTitle11GetTypeNameEv to i8*), i8* bitcast (%"class.autofill::AutofillUploadContents_ButtonTitle"* (%"class.autofill::AutofillUploadContents_ButtonTitle"*)* @_ZNK8autofill34AutofillUploadContents_ButtonTitle3NewEv to i8*), i8* bitcast (%"class.autofill::AutofillUploadContents_ButtonTitle"* (%"class.autofill::AutofillUploadContents_ButtonTitle"*, %"class.google::protobuf::Arena"*)* @_ZNK8autofill34AutofillUploadContents_ButtonTitle3NewEPN6google8protobuf5ArenaE to i8*), i8* bitcast (void (%"class.autofill::AutofillUploadContents_ButtonTitle"*)* @_ZN8autofill34AutofillUploadContents_ButtonTitle5ClearEv to i8*), i8* bitcast (i1 (%"class.autofill::AutofillUploadContents_ButtonTitle"*)* @_ZNK8autofill34AutofillUploadContents_ButtonTitle13IsInitializedEv to i8*), i8* bitcast (void (%"class.std::__1::basic_string"*, %"class.google::protobuf::MessageLite"*)* @_ZNK6google8protobuf11MessageLite25InitializationErrorStringEv to i8*), i8* bitcast (void (%"class.autofill::AutofillUploadContents_ButtonTitle"*, %"class.google::protobuf::MessageLite"*)* @_ZN8autofill34AutofillUploadContents_ButtonTitle21CheckTypeAndMergeFromERKN6google8protobuf11MessageLiteE to i8*), i8* bitcast (i64 (%"class.autofill::AutofillUploadContents_ButtonTitle"*)* @_ZNK8autofill34AutofillUploadContents_ButtonTitle12ByteSizeLongEv to i8*), i8* bitcast (i32 (%"class.autofill::AutofillUploadContents_ButtonTitle"*)* @_ZNK8autofill34AutofillUploadContents_ButtonTitle13GetCachedSizeEv to i8*), i8* bitcast (i8* (%"class.autofill::AutofillUploadContents_ButtonTitle"*, i8*, %"class.google::protobuf::internal::ParseContext"*)* @_ZN8autofill34AutofillUploadContents_ButtonTitle14_InternalParseEPKcPN6google8protobuf8internal12ParseContextE to i8*), i8* bitcast (i8* (%"class.autofill::AutofillUploadContents_ButtonTitle"*, i8*, %"class.google::protobuf::io::EpsCopyOutputStream"*)* @_ZNK8autofill34AutofillUploadContents_ButtonTitle18_InternalSerializeEPhPN6google8protobuf2io19EpsCopyOutputStreamE to i8*), i8* bitcast (i8* (%"class.google::protobuf::MessageLite"*)* @_ZNK6google8protobuf11MessageLite16InternalGetTableEv to i8*)] }, align 8
@.str.47 = private unnamed_addr constant [44 x i8] c"autofill.AutofillUploadContents.ButtonTitle\00", align 1
@_ZTVN8autofill22AutofillUploadContentsE = hidden unnamed_addr constant { [16 x i8*] } { [16 x i8*] [i8* null, i8* null, i8* bitcast (void (%"class.autofill::AutofillUploadContents"*)* @_ZN8autofill22AutofillUploadContentsD2Ev to i8*), i8* bitcast (void (%"class.autofill::AutofillUploadContents"*)* @_ZN8autofill22AutofillUploadContentsD0Ev to i8*), i8* bitcast (void (%"class.std::__1::basic_string"*, %"class.autofill::AutofillUploadContents"*)* @_ZNK8autofill22AutofillUploadContents11GetTypeNameEv to i8*), i8* bitcast (%"class.autofill::AutofillUploadContents"* (%"class.autofill::AutofillUploadContents"*)* @_ZNK8autofill22AutofillUploadContents3NewEv to i8*), i8* bitcast (%"class.autofill::AutofillUploadContents"* (%"class.autofill::AutofillUploadContents"*, %"class.google::protobuf::Arena"*)* @_ZNK8autofill22AutofillUploadContents3NewEPN6google8protobuf5ArenaE to i8*), i8* bitcast (void (%"class.autofill::AutofillUploadContents"*)* @_ZN8autofill22AutofillUploadContents5ClearEv to i8*), i8* bitcast (i1 (%"class.autofill::AutofillUploadContents"*)* @_ZNK8autofill22AutofillUploadContents13IsInitializedEv to i8*), i8* bitcast (void (%"class.std::__1::basic_string"*, %"class.google::protobuf::MessageLite"*)* @_ZNK6google8protobuf11MessageLite25InitializationErrorStringEv to i8*), i8* bitcast (void (%"class.autofill::AutofillUploadContents"*, %"class.google::protobuf::MessageLite"*)* @_ZN8autofill22AutofillUploadContents21CheckTypeAndMergeFromERKN6google8protobuf11MessageLiteE to i8*), i8* bitcast (i64 (%"class.autofill::AutofillUploadContents"*)* @_ZNK8autofill22AutofillUploadContents12ByteSizeLongEv to i8*), i8* bitcast (i32 (%"class.autofill::AutofillUploadContents"*)* @_ZNK8autofill22AutofillUploadContents13GetCachedSizeEv to i8*), i8* bitcast (i8* (%"class.autofill::AutofillUploadContents"*, i8*, %"class.google::protobuf::internal::ParseContext"*)* @_ZN8autofill22AutofillUploadContents14_InternalParseEPKcPN6google8protobuf8internal12ParseContextE to i8*), i8* bitcast (i8* (%"class.autofill::AutofillUploadContents"*, i8*, %"class.google::protobuf::io::EpsCopyOutputStream"*)* @_ZNK8autofill22AutofillUploadContents18_InternalSerializeEPhPN6google8protobuf2io19EpsCopyOutputStreamE to i8*), i8* bitcast (i8* (%"class.google::protobuf::MessageLite"*)* @_ZNK6google8protobuf11MessageLite16InternalGetTableEv to i8*)] }, align 8
@.str.49 = private unnamed_addr constant [32 x i8] c"autofill.AutofillUploadContents\00", align 1
@_ZTVN8autofill52ProfileValidityMap_FieldValidityStatesEntry_DoNotUseE = linkonce_odr hidden unnamed_addr constant { [18 x i8*] } { [18 x i8*] [i8* null, i8* null, i8* bitcast (void (%"class.google::protobuf::internal::MapEntryLite"*)* @_ZN6google8protobuf8internal12MapEntryLiteIN8autofill52ProfileValidityMap_FieldValidityStatesEntry_DoNotUseEiiLNS1_14WireFormatLite9FieldTypeE5ELS6_5EED2Ev to i8*), i8* bitcast (void (%"class.autofill::ProfileValidityMap_FieldValidityStatesEntry_DoNotUse"*)* @_ZN8autofill52ProfileValidityMap_FieldValidityStatesEntry_DoNotUseD0Ev to i8*), i8* bitcast (void (%"class.std::__1::basic_string"*, %"class.google::protobuf::internal::MapEntryImpl"*)* @_ZNK6google8protobuf8internal12MapEntryImplIN8autofill52ProfileValidityMap_FieldValidityStatesEntry_DoNotUseENS0_11MessageLiteEiiLNS1_14WireFormatLite9FieldTypeE5ELS7_5EE11GetTypeNameEv to i8*), i8* bitcast (%"class.google::protobuf::MessageLite"* (%"class.google::protobuf::internal::MapEntryImpl"*)* @_ZNK6google8protobuf8internal12MapEntryImplIN8autofill52ProfileValidityMap_FieldValidityStatesEntry_DoNotUseENS0_11MessageLiteEiiLNS1_14WireFormatLite9FieldTypeE5ELS7_5EE3NewEv to i8*), i8* bitcast (%"class.google::protobuf::MessageLite"* (%"class.google::protobuf::internal::MapEntryImpl"*, %"class.google::protobuf::Arena"*)* @_ZNK6google8protobuf8internal12MapEntryImplIN8autofill52ProfileValidityMap_FieldValidityStatesEntry_DoNotUseENS0_11MessageLiteEiiLNS1_14WireFormatLite9FieldTypeE5ELS7_5EE3NewEPNS0_5ArenaE to i8*), i8* bitcast (void (%"class.google::protobuf::internal::MapEntryImpl"*)* @_ZN6google8protobuf8internal12MapEntryImplIN8autofill52ProfileValidityMap_FieldValidityStatesEntry_DoNotUseENS0_11MessageLiteEiiLNS1_14WireFormatLite9FieldTypeE5ELS7_5EE5ClearEv to i8*), i8* bitcast (i1 (%"class.google::protobuf::internal::MapEntryImpl"*)* @_ZNK6google8protobuf8internal12MapEntryImplIN8autofill52ProfileValidityMap_FieldValidityStatesEntry_DoNotUseENS0_11MessageLiteEiiLNS1_14WireFormatLite9FieldTypeE5ELS7_5EE13IsInitializedEv to i8*), i8* bitcast (void (%"class.std::__1::basic_string"*, %"class.google::protobuf::MessageLite"*)* @_ZNK6google8protobuf11MessageLite25InitializationErrorStringEv to i8*), i8* bitcast (void (%"class.google::protobuf::internal::MapEntryImpl"*, %"class.google::protobuf::MessageLite"*)* @_ZN6google8protobuf8internal12MapEntryImplIN8autofill52ProfileValidityMap_FieldValidityStatesEntry_DoNotUseENS0_11MessageLiteEiiLNS1_14WireFormatLite9FieldTypeE5ELS7_5EE21CheckTypeAndMergeFromERKS5_ to i8*), i8* bitcast (i64 (%"class.google::protobuf::internal::MapEntryImpl"*)* @_ZNK6google8protobuf8internal12MapEntryImplIN8autofill52ProfileValidityMap_FieldValidityStatesEntry_DoNotUseENS0_11MessageLiteEiiLNS1_14WireFormatLite9FieldTypeE5ELS7_5EE12ByteSizeLongEv to i8*), i8* bitcast (i32 (%"class.google::protobuf::internal::MapEntryImpl"*)* @_ZNK6google8protobuf8internal12MapEntryImplIN8autofill52ProfileValidityMap_FieldValidityStatesEntry_DoNotUseENS0_11MessageLiteEiiLNS1_14WireFormatLite9FieldTypeE5ELS7_5EE13GetCachedSizeEv to i8*), i8* bitcast (i8* (%"class.google::protobuf::internal::MapEntryImpl"*, i8*, %"class.google::protobuf::internal::ParseContext"*)* @_ZN6google8protobuf8internal12MapEntryImplIN8autofill52ProfileValidityMap_FieldValidityStatesEntry_DoNotUseENS0_11MessageLiteEiiLNS1_14WireFormatLite9FieldTypeE5ELS7_5EE14_InternalParseEPKcPNS1_12ParseContextE to i8*), i8* bitcast (i8* (%"class.google::protobuf::internal::MapEntryImpl"*, i8*, %"class.google::protobuf::io::EpsCopyOutputStream"*)* @_ZNK6google8protobuf8internal12MapEntryImplIN8autofill52ProfileValidityMap_FieldValidityStatesEntry_DoNotUseENS0_11MessageLiteEiiLNS1_14WireFormatLite9FieldTypeE5ELS7_5EE18_InternalSerializeEPhPNS0_2io19EpsCopyOutputStreamE to i8*), i8* bitcast (i8* (%"class.google::protobuf::MessageLite"*)* @_ZNK6google8protobuf11MessageLite16InternalGetTableEv to i8*), i8* bitcast (i32* (%"class.google::protobuf::internal::MapEntryImpl"*)* @_ZNK6google8protobuf8internal12MapEntryImplIN8autofill52ProfileValidityMap_FieldValidityStatesEntry_DoNotUseENS0_11MessageLiteEiiLNS1_14WireFormatLite9FieldTypeE5ELS7_5EE3keyEv to i8*), i8* bitcast (i32* (%"class.google::protobuf::internal::MapEntryImpl"*)* @_ZNK6google8protobuf8internal12MapEntryImplIN8autofill52ProfileValidityMap_FieldValidityStatesEntry_DoNotUseENS0_11MessageLiteEiiLNS1_14WireFormatLite9FieldTypeE5ELS7_5EE5valueEv to i8*)] }, comdat, align 8
@_ZTVN8autofill18ProfileValidityMapE = hidden unnamed_addr constant { [16 x i8*] } { [16 x i8*] [i8* null, i8* null, i8* bitcast (void (%"class.autofill::ProfileValidityMap"*)* @_ZN8autofill18ProfileValidityMapD2Ev to i8*), i8* bitcast (void (%"class.autofill::ProfileValidityMap"*)* @_ZN8autofill18ProfileValidityMapD0Ev to i8*), i8* bitcast (void (%"class.std::__1::basic_string"*, %"class.autofill::ProfileValidityMap"*)* @_ZNK8autofill18ProfileValidityMap11GetTypeNameEv to i8*), i8* bitcast (%"class.autofill::ProfileValidityMap"* (%"class.autofill::ProfileValidityMap"*)* @_ZNK8autofill18ProfileValidityMap3NewEv to i8*), i8* bitcast (%"class.autofill::ProfileValidityMap"* (%"class.autofill::ProfileValidityMap"*, %"class.google::protobuf::Arena"*)* @_ZNK8autofill18ProfileValidityMap3NewEPN6google8protobuf5ArenaE to i8*), i8* bitcast (void (%"class.autofill::ProfileValidityMap"*)* @_ZN8autofill18ProfileValidityMap5ClearEv to i8*), i8* bitcast (i1 (%"class.autofill::ProfileValidityMap"*)* @_ZNK8autofill18ProfileValidityMap13IsInitializedEv to i8*), i8* bitcast (void (%"class.std::__1::basic_string"*, %"class.google::protobuf::MessageLite"*)* @_ZNK6google8protobuf11MessageLite25InitializationErrorStringEv to i8*), i8* bitcast (void (%"class.autofill::ProfileValidityMap"*, %"class.google::protobuf::MessageLite"*)* @_ZN8autofill18ProfileValidityMap21CheckTypeAndMergeFromERKN6google8protobuf11MessageLiteE to i8*), i8* bitcast (i64 (%"class.autofill::ProfileValidityMap"*)* @_ZNK8autofill18ProfileValidityMap12ByteSizeLongEv to i8*), i8* bitcast (i32 (%"class.autofill::ProfileValidityMap"*)* @_ZNK8autofill18ProfileValidityMap13GetCachedSizeEv to i8*), i8* bitcast (i8* (%"class.autofill::ProfileValidityMap"*, i8*, %"class.google::protobuf::internal::ParseContext"*)* @_ZN8autofill18ProfileValidityMap14_InternalParseEPKcPN6google8protobuf8internal12ParseContextE to i8*), i8* bitcast (i8* (%"class.autofill::ProfileValidityMap"*, i8*, %"class.google::protobuf::io::EpsCopyOutputStream"*)* @_ZNK8autofill18ProfileValidityMap18_InternalSerializeEPhPN6google8protobuf2io19EpsCopyOutputStreamE to i8*), i8* bitcast (i8* (%"class.google::protobuf::MessageLite"*)* @_ZNK6google8protobuf11MessageLite16InternalGetTableEv to i8*)] }, align 8
@.str.50 = private unnamed_addr constant [28 x i8] c"autofill.ProfileValidityMap\00", align 1
@_ZTVN8autofill52UserProfileValidityMap_ProfileValidityEntry_DoNotUseE = linkonce_odr hidden unnamed_addr constant { [18 x i8*] } { [18 x i8*] [i8* null, i8* null, i8* bitcast (void (%"class.google::protobuf::internal::MapEntryLite.51"*)* @_ZN6google8protobuf8internal12MapEntryLiteIN8autofill52UserProfileValidityMap_ProfileValidityEntry_DoNotUseENSt3__112basic_stringIcNS5_11char_traitsIcEENS5_9allocatorIcEEEENS3_18ProfileValidityMapELNS1_14WireFormatLite9FieldTypeE9ELSE_11EED2Ev to i8*), i8* bitcast (void (%"class.autofill::UserProfileValidityMap_ProfileValidityEntry_DoNotUse"*)* @_ZN8autofill52UserProfileValidityMap_ProfileValidityEntry_DoNotUseD0Ev to i8*), i8* bitcast (void (%"class.std::__1::basic_string"*, %"class.google::protobuf::internal::MapEntryImpl.52"*)* @_ZNK6google8protobuf8internal12MapEntryImplIN8autofill52UserProfileValidityMap_ProfileValidityEntry_DoNotUseENS0_11MessageLiteENSt3__112basic_stringIcNS6_11char_traitsIcEENS6_9allocatorIcEEEENS3_18ProfileValidityMapELNS1_14WireFormatLite9FieldTypeE9ELSF_11EE11GetTypeNameEv to i8*), i8* bitcast (%"class.google::protobuf::MessageLite"* (%"class.google::protobuf::internal::MapEntryImpl.52"*)* @_ZNK6google8protobuf8internal12MapEntryImplIN8autofill52UserProfileValidityMap_ProfileValidityEntry_DoNotUseENS0_11MessageLiteENSt3__112basic_stringIcNS6_11char_traitsIcEENS6_9allocatorIcEEEENS3_18ProfileValidityMapELNS1_14WireFormatLite9FieldTypeE9ELSF_11EE3NewEv to i8*), i8* bitcast (%"class.google::protobuf::MessageLite"* (%"class.google::protobuf::internal::MapEntryImpl.52"*, %"class.google::protobuf::Arena"*)* @_ZNK6google8protobuf8internal12MapEntryImplIN8autofill52UserProfileValidityMap_ProfileValidityEntry_DoNotUseENS0_11MessageLiteENSt3__112basic_stringIcNS6_11char_traitsIcEENS6_9allocatorIcEEEENS3_18ProfileValidityMapELNS1_14WireFormatLite9FieldTypeE9ELSF_11EE3NewEPNS0_5ArenaE to i8*), i8* bitcast (void (%"class.google::protobuf::internal::MapEntryImpl.52"*)* @_ZN6google8protobuf8internal12MapEntryImplIN8autofill52UserProfileValidityMap_ProfileValidityEntry_DoNotUseENS0_11MessageLiteENSt3__112basic_stringIcNS6_11char_traitsIcEENS6_9allocatorIcEEEENS3_18ProfileValidityMapELNS1_14WireFormatLite9FieldTypeE9ELSF_11EE5ClearEv to i8*), i8* bitcast (i1 (%"class.google::protobuf::internal::MapEntryImpl.52"*)* @_ZNK6google8protobuf8internal12MapEntryImplIN8autofill52UserProfileValidityMap_ProfileValidityEntry_DoNotUseENS0_11MessageLiteENSt3__112basic_stringIcNS6_11char_traitsIcEENS6_9allocatorIcEEEENS3_18ProfileValidityMapELNS1_14WireFormatLite9FieldTypeE9ELSF_11EE13IsInitializedEv to i8*), i8* bitcast (void (%"class.std::__1::basic_string"*, %"class.google::protobuf::MessageLite"*)* @_ZNK6google8protobuf11MessageLite25InitializationErrorStringEv to i8*), i8* bitcast (void (%"class.google::protobuf::internal::MapEntryImpl.52"*, %"class.google::protobuf::MessageLite"*)* @_ZN6google8protobuf8internal12MapEntryImplIN8autofill52UserProfileValidityMap_ProfileValidityEntry_DoNotUseENS0_11MessageLiteENSt3__112basic_stringIcNS6_11char_traitsIcEENS6_9allocatorIcEEEENS3_18ProfileValidityMapELNS1_14WireFormatLite9FieldTypeE9ELSF_11EE21CheckTypeAndMergeFromERKS5_ to i8*), i8* bitcast (i64 (%"class.google::protobuf::internal::MapEntryImpl.52"*)* @_ZNK6google8protobuf8internal12MapEntryImplIN8autofill52UserProfileValidityMap_ProfileValidityEntry_DoNotUseENS0_11MessageLiteENSt3__112basic_stringIcNS6_11char_traitsIcEENS6_9allocatorIcEEEENS3_18ProfileValidityMapELNS1_14WireFormatLite9FieldTypeE9ELSF_11EE12ByteSizeLongEv to i8*), i8* bitcast (i32 (%"class.google::protobuf::internal::MapEntryImpl.52"*)* @_ZNK6google8protobuf8internal12MapEntryImplIN8autofill52UserProfileValidityMap_ProfileValidityEntry_DoNotUseENS0_11MessageLiteENSt3__112basic_stringIcNS6_11char_traitsIcEENS6_9allocatorIcEEEENS3_18ProfileValidityMapELNS1_14WireFormatLite9FieldTypeE9ELSF_11EE13GetCachedSizeEv to i8*), i8* bitcast (i8* (%"class.google::protobuf::internal::MapEntryImpl.52"*, i8*, %"class.google::protobuf::internal::ParseContext"*)* @_ZN6google8protobuf8internal12MapEntryImplIN8autofill52UserProfileValidityMap_ProfileValidityEntry_DoNotUseENS0_11MessageLiteENSt3__112basic_stringIcNS6_11char_traitsIcEENS6_9allocatorIcEEEENS3_18ProfileValidityMapELNS1_14WireFormatLite9FieldTypeE9ELSF_11EE14_InternalParseEPKcPNS1_12ParseContextE to i8*), i8* bitcast (i8* (%"class.google::protobuf::internal::MapEntryImpl.52"*, i8*, %"class.google::protobuf::io::EpsCopyOutputStream"*)* @_ZNK6google8protobuf8internal12MapEntryImplIN8autofill52UserProfileValidityMap_ProfileValidityEntry_DoNotUseENS0_11MessageLiteENSt3__112basic_stringIcNS6_11char_traitsIcEENS6_9allocatorIcEEEENS3_18ProfileValidityMapELNS1_14WireFormatLite9FieldTypeE9ELSF_11EE18_InternalSerializeEPhPNS0_2io19EpsCopyOutputStreamE to i8*), i8* bitcast (i8* (%"class.google::protobuf::MessageLite"*)* @_ZNK6google8protobuf11MessageLite16InternalGetTableEv to i8*), i8* bitcast (%"class.std::__1::basic_string"* (%"class.google::protobuf::internal::MapEntryImpl.52"*)* @_ZNK6google8protobuf8internal12MapEntryImplIN8autofill52UserProfileValidityMap_ProfileValidityEntry_DoNotUseENS0_11MessageLiteENSt3__112basic_stringIcNS6_11char_traitsIcEENS6_9allocatorIcEEEENS3_18ProfileValidityMapELNS1_14WireFormatLite9FieldTypeE9ELSF_11EE3keyEv to i8*), i8* bitcast (%"class.autofill::ProfileValidityMap"* (%"class.google::protobuf::internal::MapEntryImpl.52"*)* @_ZNK6google8protobuf8internal12MapEntryImplIN8autofill52UserProfileValidityMap_ProfileValidityEntry_DoNotUseENS0_11MessageLiteENSt3__112basic_stringIcNS6_11char_traitsIcEENS6_9allocatorIcEEEENS3_18ProfileValidityMapELNS1_14WireFormatLite9FieldTypeE9ELSF_11EE5valueEv to i8*)] }, comdat, align 8
@_ZTVN8autofill22UserProfileValidityMapE = hidden unnamed_addr constant { [16 x i8*] } { [16 x i8*] [i8* null, i8* null, i8* bitcast (void (%"class.autofill::UserProfileValidityMap"*)* @_ZN8autofill22UserProfileValidityMapD2Ev to i8*), i8* bitcast (void (%"class.autofill::UserProfileValidityMap"*)* @_ZN8autofill22UserProfileValidityMapD0Ev to i8*), i8* bitcast (void (%"class.std::__1::basic_string"*, %"class.autofill::UserProfileValidityMap"*)* @_ZNK8autofill22UserProfileValidityMap11GetTypeNameEv to i8*), i8* bitcast (%"class.autofill::UserProfileValidityMap"* (%"class.autofill::UserProfileValidityMap"*)* @_ZNK8autofill22UserProfileValidityMap3NewEv to i8*), i8* bitcast (%"class.autofill::UserProfileValidityMap"* (%"class.autofill::UserProfileValidityMap"*, %"class.google::protobuf::Arena"*)* @_ZNK8autofill22UserProfileValidityMap3NewEPN6google8protobuf5ArenaE to i8*), i8* bitcast (void (%"class.autofill::UserProfileValidityMap"*)* @_ZN8autofill22UserProfileValidityMap5ClearEv to i8*), i8* bitcast (i1 (%"class.autofill::UserProfileValidityMap"*)* @_ZNK8autofill22UserProfileValidityMap13IsInitializedEv to i8*), i8* bitcast (void (%"class.std::__1::basic_string"*, %"class.google::protobuf::MessageLite"*)* @_ZNK6google8protobuf11MessageLite25InitializationErrorStringEv to i8*), i8* bitcast (void (%"class.autofill::UserProfileValidityMap"*, %"class.google::protobuf::MessageLite"*)* @_ZN8autofill22UserProfileValidityMap21CheckTypeAndMergeFromERKN6google8protobuf11MessageLiteE to i8*), i8* bitcast (i64 (%"class.autofill::UserProfileValidityMap"*)* @_ZNK8autofill22UserProfileValidityMap12ByteSizeLongEv to i8*), i8* bitcast (i32 (%"class.autofill::UserProfileValidityMap"*)* @_ZNK8autofill22UserProfileValidityMap13GetCachedSizeEv to i8*), i8* bitcast (i8* (%"class.autofill::UserProfileValidityMap"*, i8*, %"class.google::protobuf::internal::ParseContext"*)* @_ZN8autofill22UserProfileValidityMap14_InternalParseEPKcPN6google8protobuf8internal12ParseContextE to i8*), i8* bitcast (i8* (%"class.autofill::UserProfileValidityMap"*, i8*, %"class.google::protobuf::io::EpsCopyOutputStream"*)* @_ZNK8autofill22UserProfileValidityMap18_InternalSerializeEPhPN6google8protobuf2io19EpsCopyOutputStreamE to i8*), i8* bitcast (i8* (%"class.google::protobuf::MessageLite"*)* @_ZNK6google8protobuf11MessageLite16InternalGetTableEv to i8*)] }, align 8
@.str.51 = private unnamed_addr constant [32 x i8] c"autofill.UserProfileValidityMap\00", align 1
@_ZN6google8protobuf8internal26fixed_address_empty_stringE = external global %"class.google::protobuf::internal::ExplicitlyConstructed.22", align 8
@_ZN8autofill43_PasswordRequirementsSpec_default_instance_E = external global %"class.autofill::PasswordRequirementsSpecDefaultTypeInternal", align 1
@.str.82 = private unnamed_addr constant [25 x i8] c"size_t to int conversion\00", align 1
@__const._ZN6google8protobuf8internal9ExpectTagILj282EEEbPKc.buf = private unnamed_addr constant [2 x i8] c"\9A\02", align 1
@__const._ZN6google8protobuf8internal9ExpectTagILj290EEEbPKc.buf = private unnamed_addr constant [2 x i8] c"\A2\02", align 1
@_ZTVN6google8protobuf8internal12MapEntryLiteIN8autofill52ProfileValidityMap_FieldValidityStatesEntry_DoNotUseEiiLNS1_14WireFormatLite9FieldTypeE5ELS6_5EEE = linkonce_odr hidden unnamed_addr constant { [18 x i8*] } { [18 x i8*] [i8* null, i8* null, i8* bitcast (void (%"class.google::protobuf::internal::MapEntryLite"*)* @_ZN6google8protobuf8internal12MapEntryLiteIN8autofill52ProfileValidityMap_FieldValidityStatesEntry_DoNotUseEiiLNS1_14WireFormatLite9FieldTypeE5ELS6_5EED2Ev to i8*), i8* bitcast (void (%"class.google::protobuf::internal::MapEntryLite"*)* @_ZN6google8protobuf8internal12MapEntryLiteIN8autofill52ProfileValidityMap_FieldValidityStatesEntry_DoNotUseEiiLNS1_14WireFormatLite9FieldTypeE5ELS6_5EED0Ev to i8*), i8* bitcast (void (%"class.std::__1::basic_string"*, %"class.google::protobuf::internal::MapEntryImpl"*)* @_ZNK6google8protobuf8internal12MapEntryImplIN8autofill52ProfileValidityMap_FieldValidityStatesEntry_DoNotUseENS0_11MessageLiteEiiLNS1_14WireFormatLite9FieldTypeE5ELS7_5EE11GetTypeNameEv to i8*), i8* bitcast (%"class.google::protobuf::MessageLite"* (%"class.google::protobuf::internal::MapEntryImpl"*)* @_ZNK6google8protobuf8internal12MapEntryImplIN8autofill52ProfileValidityMap_FieldValidityStatesEntry_DoNotUseENS0_11MessageLiteEiiLNS1_14WireFormatLite9FieldTypeE5ELS7_5EE3NewEv to i8*), i8* bitcast (%"class.google::protobuf::MessageLite"* (%"class.google::protobuf::internal::MapEntryImpl"*, %"class.google::protobuf::Arena"*)* @_ZNK6google8protobuf8internal12MapEntryImplIN8autofill52ProfileValidityMap_FieldValidityStatesEntry_DoNotUseENS0_11MessageLiteEiiLNS1_14WireFormatLite9FieldTypeE5ELS7_5EE3NewEPNS0_5ArenaE to i8*), i8* bitcast (void (%"class.google::protobuf::internal::MapEntryImpl"*)* @_ZN6google8protobuf8internal12MapEntryImplIN8autofill52ProfileValidityMap_FieldValidityStatesEntry_DoNotUseENS0_11MessageLiteEiiLNS1_14WireFormatLite9FieldTypeE5ELS7_5EE5ClearEv to i8*), i8* bitcast (i1 (%"class.google::protobuf::internal::MapEntryImpl"*)* @_ZNK6google8protobuf8internal12MapEntryImplIN8autofill52ProfileValidityMap_FieldValidityStatesEntry_DoNotUseENS0_11MessageLiteEiiLNS1_14WireFormatLite9FieldTypeE5ELS7_5EE13IsInitializedEv to i8*), i8* bitcast (void (%"class.std::__1::basic_string"*, %"class.google::protobuf::MessageLite"*)* @_ZNK6google8protobuf11MessageLite25InitializationErrorStringEv to i8*), i8* bitcast (void (%"class.google::protobuf::internal::MapEntryImpl"*, %"class.google::protobuf::MessageLite"*)* @_ZN6google8protobuf8internal12MapEntryImplIN8autofill52ProfileValidityMap_FieldValidityStatesEntry_DoNotUseENS0_11MessageLiteEiiLNS1_14WireFormatLite9FieldTypeE5ELS7_5EE21CheckTypeAndMergeFromERKS5_ to i8*), i8* bitcast (i64 (%"class.google::protobuf::internal::MapEntryImpl"*)* @_ZNK6google8protobuf8internal12MapEntryImplIN8autofill52ProfileValidityMap_FieldValidityStatesEntry_DoNotUseENS0_11MessageLiteEiiLNS1_14WireFormatLite9FieldTypeE5ELS7_5EE12ByteSizeLongEv to i8*), i8* bitcast (i32 (%"class.google::protobuf::internal::MapEntryImpl"*)* @_ZNK6google8protobuf8internal12MapEntryImplIN8autofill52ProfileValidityMap_FieldValidityStatesEntry_DoNotUseENS0_11MessageLiteEiiLNS1_14WireFormatLite9FieldTypeE5ELS7_5EE13GetCachedSizeEv to i8*), i8* bitcast (i8* (%"class.google::protobuf::internal::MapEntryImpl"*, i8*, %"class.google::protobuf::internal::ParseContext"*)* @_ZN6google8protobuf8internal12MapEntryImplIN8autofill52ProfileValidityMap_FieldValidityStatesEntry_DoNotUseENS0_11MessageLiteEiiLNS1_14WireFormatLite9FieldTypeE5ELS7_5EE14_InternalParseEPKcPNS1_12ParseContextE to i8*), i8* bitcast (i8* (%"class.google::protobuf::internal::MapEntryImpl"*, i8*, %"class.google::protobuf::io::EpsCopyOutputStream"*)* @_ZNK6google8protobuf8internal12MapEntryImplIN8autofill52ProfileValidityMap_FieldValidityStatesEntry_DoNotUseENS0_11MessageLiteEiiLNS1_14WireFormatLite9FieldTypeE5ELS7_5EE18_InternalSerializeEPhPNS0_2io19EpsCopyOutputStreamE to i8*), i8* bitcast (i8* (%"class.google::protobuf::MessageLite"*)* @_ZNK6google8protobuf11MessageLite16InternalGetTableEv to i8*), i8* bitcast (i32* (%"class.google::protobuf::internal::MapEntryImpl"*)* @_ZNK6google8protobuf8internal12MapEntryImplIN8autofill52ProfileValidityMap_FieldValidityStatesEntry_DoNotUseENS0_11MessageLiteEiiLNS1_14WireFormatLite9FieldTypeE5ELS7_5EE3keyEv to i8*), i8* bitcast (i32* (%"class.google::protobuf::internal::MapEntryImpl"*)* @_ZNK6google8protobuf8internal12MapEntryImplIN8autofill52ProfileValidityMap_FieldValidityStatesEntry_DoNotUseENS0_11MessageLiteEiiLNS1_14WireFormatLite9FieldTypeE5ELS7_5EE5valueEv to i8*)] }, comdat, align 8
@_ZTVN6google8protobuf8internal12MapEntryImplIN8autofill52ProfileValidityMap_FieldValidityStatesEntry_DoNotUseENS0_11MessageLiteEiiLNS1_14WireFormatLite9FieldTypeE5ELS7_5EEE = linkonce_odr hidden unnamed_addr constant { [18 x i8*] } { [18 x i8*] [i8* null, i8* null, i8* bitcast (void (%"class.google::protobuf::internal::MapEntryImpl"*)* @_ZN6google8protobuf8internal12MapEntryImplIN8autofill52ProfileValidityMap_FieldValidityStatesEntry_DoNotUseENS0_11MessageLiteEiiLNS1_14WireFormatLite9FieldTypeE5ELS7_5EED2Ev to i8*), i8* bitcast (void (%"class.google::protobuf::internal::MapEntryImpl"*)* @_ZN6google8protobuf8internal12MapEntryImplIN8autofill52ProfileValidityMap_FieldValidityStatesEntry_DoNotUseENS0_11MessageLiteEiiLNS1_14WireFormatLite9FieldTypeE5ELS7_5EED0Ev to i8*), i8* bitcast (void (%"class.std::__1::basic_string"*, %"class.google::protobuf::internal::MapEntryImpl"*)* @_ZNK6google8protobuf8internal12MapEntryImplIN8autofill52ProfileValidityMap_FieldValidityStatesEntry_DoNotUseENS0_11MessageLiteEiiLNS1_14WireFormatLite9FieldTypeE5ELS7_5EE11GetTypeNameEv to i8*), i8* bitcast (%"class.google::protobuf::MessageLite"* (%"class.google::protobuf::internal::MapEntryImpl"*)* @_ZNK6google8protobuf8internal12MapEntryImplIN8autofill52ProfileValidityMap_FieldValidityStatesEntry_DoNotUseENS0_11MessageLiteEiiLNS1_14WireFormatLite9FieldTypeE5ELS7_5EE3NewEv to i8*), i8* bitcast (%"class.google::protobuf::MessageLite"* (%"class.google::protobuf::internal::MapEntryImpl"*, %"class.google::protobuf::Arena"*)* @_ZNK6google8protobuf8internal12MapEntryImplIN8autofill52ProfileValidityMap_FieldValidityStatesEntry_DoNotUseENS0_11MessageLiteEiiLNS1_14WireFormatLite9FieldTypeE5ELS7_5EE3NewEPNS0_5ArenaE to i8*), i8* bitcast (void (%"class.google::protobuf::internal::MapEntryImpl"*)* @_ZN6google8protobuf8internal12MapEntryImplIN8autofill52ProfileValidityMap_FieldValidityStatesEntry_DoNotUseENS0_11MessageLiteEiiLNS1_14WireFormatLite9FieldTypeE5ELS7_5EE5ClearEv to i8*), i8* bitcast (i1 (%"class.google::protobuf::internal::MapEntryImpl"*)* @_ZNK6google8protobuf8internal12MapEntryImplIN8autofill52ProfileValidityMap_FieldValidityStatesEntry_DoNotUseENS0_11MessageLiteEiiLNS1_14WireFormatLite9FieldTypeE5ELS7_5EE13IsInitializedEv to i8*), i8* bitcast (void (%"class.std::__1::basic_string"*, %"class.google::protobuf::MessageLite"*)* @_ZNK6google8protobuf11MessageLite25InitializationErrorStringEv to i8*), i8* bitcast (void (%"class.google::protobuf::internal::MapEntryImpl"*, %"class.google::protobuf::MessageLite"*)* @_ZN6google8protobuf8internal12MapEntryImplIN8autofill52ProfileValidityMap_FieldValidityStatesEntry_DoNotUseENS0_11MessageLiteEiiLNS1_14WireFormatLite9FieldTypeE5ELS7_5EE21CheckTypeAndMergeFromERKS5_ to i8*), i8* bitcast (i64 (%"class.google::protobuf::internal::MapEntryImpl"*)* @_ZNK6google8protobuf8internal12MapEntryImplIN8autofill52ProfileValidityMap_FieldValidityStatesEntry_DoNotUseENS0_11MessageLiteEiiLNS1_14WireFormatLite9FieldTypeE5ELS7_5EE12ByteSizeLongEv to i8*), i8* bitcast (i32 (%"class.google::protobuf::internal::MapEntryImpl"*)* @_ZNK6google8protobuf8internal12MapEntryImplIN8autofill52ProfileValidityMap_FieldValidityStatesEntry_DoNotUseENS0_11MessageLiteEiiLNS1_14WireFormatLite9FieldTypeE5ELS7_5EE13GetCachedSizeEv to i8*), i8* bitcast (i8* (%"class.google::protobuf::internal::MapEntryImpl"*, i8*, %"class.google::protobuf::internal::ParseContext"*)* @_ZN6google8protobuf8internal12MapEntryImplIN8autofill52ProfileValidityMap_FieldValidityStatesEntry_DoNotUseENS0_11MessageLiteEiiLNS1_14WireFormatLite9FieldTypeE5ELS7_5EE14_InternalParseEPKcPNS1_12ParseContextE to i8*), i8* bitcast (i8* (%"class.google::protobuf::internal::MapEntryImpl"*, i8*, %"class.google::protobuf::io::EpsCopyOutputStream"*)* @_ZNK6google8protobuf8internal12MapEntryImplIN8autofill52ProfileValidityMap_FieldValidityStatesEntry_DoNotUseENS0_11MessageLiteEiiLNS1_14WireFormatLite9FieldTypeE5ELS7_5EE18_InternalSerializeEPhPNS0_2io19EpsCopyOutputStreamE to i8*), i8* bitcast (i8* (%"class.google::protobuf::MessageLite"*)* @_ZNK6google8protobuf11MessageLite16InternalGetTableEv to i8*), i8* bitcast (i32* (%"class.google::protobuf::internal::MapEntryImpl"*)* @_ZNK6google8protobuf8internal12MapEntryImplIN8autofill52ProfileValidityMap_FieldValidityStatesEntry_DoNotUseENS0_11MessageLiteEiiLNS1_14WireFormatLite9FieldTypeE5ELS7_5EE3keyEv to i8*), i8* bitcast (i32* (%"class.google::protobuf::internal::MapEntryImpl"*)* @_ZNK6google8protobuf8internal12MapEntryImplIN8autofill52ProfileValidityMap_FieldValidityStatesEntry_DoNotUseENS0_11MessageLiteEiiLNS1_14WireFormatLite9FieldTypeE5ELS7_5EE5valueEv to i8*)] }, comdat, align 8
@_ZN6google8protobuf8internal17kGlobalEmptyTableE = external constant [1 x i8*], align 8
@__const._ZNSt3__127__insertion_sort_incompleteIRN6google8protobuf8internal19CompareByFirstFieldINS3_8SortItemIiPKNS2_7MapPairIiiEEEEEEPSA_EEbT0_SE_T_.__t = private unnamed_addr constant { i32, [4 x i8], %"struct.google::protobuf::MapPair"* } { i32 -1431655766, [4 x i8] c"\AA\AA\AA\AA", %"struct.google::protobuf::MapPair"* inttoptr (i64 -6148914691236517206 to %"struct.google::protobuf::MapPair"*) }, align 8
@_ZTVN6google8protobuf8internal12MapEntryLiteIN8autofill52UserProfileValidityMap_ProfileValidityEntry_DoNotUseENSt3__112basic_stringIcNS5_11char_traitsIcEENS5_9allocatorIcEEEENS3_18ProfileValidityMapELNS1_14WireFormatLite9FieldTypeE9ELSE_11EEE = linkonce_odr hidden unnamed_addr constant { [18 x i8*] } { [18 x i8*] [i8* null, i8* null, i8* bitcast (void (%"class.google::protobuf::internal::MapEntryLite.51"*)* @_ZN6google8protobuf8internal12MapEntryLiteIN8autofill52UserProfileValidityMap_ProfileValidityEntry_DoNotUseENSt3__112basic_stringIcNS5_11char_traitsIcEENS5_9allocatorIcEEEENS3_18ProfileValidityMapELNS1_14WireFormatLite9FieldTypeE9ELSE_11EED2Ev to i8*), i8* bitcast (void (%"class.google::protobuf::internal::MapEntryLite.51"*)* @_ZN6google8protobuf8internal12MapEntryLiteIN8autofill52UserProfileValidityMap_ProfileValidityEntry_DoNotUseENSt3__112basic_stringIcNS5_11char_traitsIcEENS5_9allocatorIcEEEENS3_18ProfileValidityMapELNS1_14WireFormatLite9FieldTypeE9ELSE_11EED0Ev to i8*), i8* bitcast (void (%"class.std::__1::basic_string"*, %"class.google::protobuf::internal::MapEntryImpl.52"*)* @_ZNK6google8protobuf8internal12MapEntryImplIN8autofill52UserProfileValidityMap_ProfileValidityEntry_DoNotUseENS0_11MessageLiteENSt3__112basic_stringIcNS6_11char_traitsIcEENS6_9allocatorIcEEEENS3_18ProfileValidityMapELNS1_14WireFormatLite9FieldTypeE9ELSF_11EE11GetTypeNameEv to i8*), i8* bitcast (%"class.google::protobuf::MessageLite"* (%"class.google::protobuf::internal::MapEntryImpl.52"*)* @_ZNK6google8protobuf8internal12MapEntryImplIN8autofill52UserProfileValidityMap_ProfileValidityEntry_DoNotUseENS0_11MessageLiteENSt3__112basic_stringIcNS6_11char_traitsIcEENS6_9allocatorIcEEEENS3_18ProfileValidityMapELNS1_14WireFormatLite9FieldTypeE9ELSF_11EE3NewEv to i8*), i8* bitcast (%"class.google::protobuf::MessageLite"* (%"class.google::protobuf::internal::MapEntryImpl.52"*, %"class.google::protobuf::Arena"*)* @_ZNK6google8protobuf8internal12MapEntryImplIN8autofill52UserProfileValidityMap_ProfileValidityEntry_DoNotUseENS0_11MessageLiteENSt3__112basic_stringIcNS6_11char_traitsIcEENS6_9allocatorIcEEEENS3_18ProfileValidityMapELNS1_14WireFormatLite9FieldTypeE9ELSF_11EE3NewEPNS0_5ArenaE to i8*), i8* bitcast (void (%"class.google::protobuf::internal::MapEntryImpl.52"*)* @_ZN6google8protobuf8internal12MapEntryImplIN8autofill52UserProfileValidityMap_ProfileValidityEntry_DoNotUseENS0_11MessageLiteENSt3__112basic_stringIcNS6_11char_traitsIcEENS6_9allocatorIcEEEENS3_18ProfileValidityMapELNS1_14WireFormatLite9FieldTypeE9ELSF_11EE5ClearEv to i8*), i8* bitcast (i1 (%"class.google::protobuf::internal::MapEntryImpl.52"*)* @_ZNK6google8protobuf8internal12MapEntryImplIN8autofill52UserProfileValidityMap_ProfileValidityEntry_DoNotUseENS0_11MessageLiteENSt3__112basic_stringIcNS6_11char_traitsIcEENS6_9allocatorIcEEEENS3_18ProfileValidityMapELNS1_14WireFormatLite9FieldTypeE9ELSF_11EE13IsInitializedEv to i8*), i8* bitcast (void (%"class.std::__1::basic_string"*, %"class.google::protobuf::MessageLite"*)* @_ZNK6google8protobuf11MessageLite25InitializationErrorStringEv to i8*), i8* bitcast (void (%"class.google::protobuf::internal::MapEntryImpl.52"*, %"class.google::protobuf::MessageLite"*)* @_ZN6google8protobuf8internal12MapEntryImplIN8autofill52UserProfileValidityMap_ProfileValidityEntry_DoNotUseENS0_11MessageLiteENSt3__112basic_stringIcNS6_11char_traitsIcEENS6_9allocatorIcEEEENS3_18ProfileValidityMapELNS1_14WireFormatLite9FieldTypeE9ELSF_11EE21CheckTypeAndMergeFromERKS5_ to i8*), i8* bitcast (i64 (%"class.google::protobuf::internal::MapEntryImpl.52"*)* @_ZNK6google8protobuf8internal12MapEntryImplIN8autofill52UserProfileValidityMap_ProfileValidityEntry_DoNotUseENS0_11MessageLiteENSt3__112basic_stringIcNS6_11char_traitsIcEENS6_9allocatorIcEEEENS3_18ProfileValidityMapELNS1_14WireFormatLite9FieldTypeE9ELSF_11EE12ByteSizeLongEv to i8*), i8* bitcast (i32 (%"class.google::protobuf::internal::MapEntryImpl.52"*)* @_ZNK6google8protobuf8internal12MapEntryImplIN8autofill52UserProfileValidityMap_ProfileValidityEntry_DoNotUseENS0_11MessageLiteENSt3__112basic_stringIcNS6_11char_traitsIcEENS6_9allocatorIcEEEENS3_18ProfileValidityMapELNS1_14WireFormatLite9FieldTypeE9ELSF_11EE13GetCachedSizeEv to i8*), i8* bitcast (i8* (%"class.google::protobuf::internal::MapEntryImpl.52"*, i8*, %"class.google::protobuf::internal::ParseContext"*)* @_ZN6google8protobuf8internal12MapEntryImplIN8autofill52UserProfileValidityMap_ProfileValidityEntry_DoNotUseENS0_11MessageLiteENSt3__112basic_stringIcNS6_11char_traitsIcEENS6_9allocatorIcEEEENS3_18ProfileValidityMapELNS1_14WireFormatLite9FieldTypeE9ELSF_11EE14_InternalParseEPKcPNS1_12ParseContextE to i8*), i8* bitcast (i8* (%"class.google::protobuf::internal::MapEntryImpl.52"*, i8*, %"class.google::protobuf::io::EpsCopyOutputStream"*)* @_ZNK6google8protobuf8internal12MapEntryImplIN8autofill52UserProfileValidityMap_ProfileValidityEntry_DoNotUseENS0_11MessageLiteENSt3__112basic_stringIcNS6_11char_traitsIcEENS6_9allocatorIcEEEENS3_18ProfileValidityMapELNS1_14WireFormatLite9FieldTypeE9ELSF_11EE18_InternalSerializeEPhPNS0_2io19EpsCopyOutputStreamE to i8*), i8* bitcast (i8* (%"class.google::protobuf::MessageLite"*)* @_ZNK6google8protobuf11MessageLite16InternalGetTableEv to i8*), i8* bitcast (%"class.std::__1::basic_string"* (%"class.google::protobuf::internal::MapEntryImpl.52"*)* @_ZNK6google8protobuf8internal12MapEntryImplIN8autofill52UserProfileValidityMap_ProfileValidityEntry_DoNotUseENS0_11MessageLiteENSt3__112basic_stringIcNS6_11char_traitsIcEENS6_9allocatorIcEEEENS3_18ProfileValidityMapELNS1_14WireFormatLite9FieldTypeE9ELSF_11EE3keyEv to i8*), i8* bitcast (%"class.autofill::ProfileValidityMap"* (%"class.google::protobuf::internal::MapEntryImpl.52"*)* @_ZNK6google8protobuf8internal12MapEntryImplIN8autofill52UserProfileValidityMap_ProfileValidityEntry_DoNotUseENS0_11MessageLiteENSt3__112basic_stringIcNS6_11char_traitsIcEENS6_9allocatorIcEEEENS3_18ProfileValidityMapELNS1_14WireFormatLite9FieldTypeE9ELSF_11EE5valueEv to i8*)] }, comdat, align 8
@_ZTVN6google8protobuf8internal12MapEntryImplIN8autofill52UserProfileValidityMap_ProfileValidityEntry_DoNotUseENS0_11MessageLiteENSt3__112basic_stringIcNS6_11char_traitsIcEENS6_9allocatorIcEEEENS3_18ProfileValidityMapELNS1_14WireFormatLite9FieldTypeE9ELSF_11EEE = linkonce_odr hidden unnamed_addr constant { [18 x i8*] } { [18 x i8*] [i8* null, i8* null, i8* bitcast (void (%"class.google::protobuf::internal::MapEntryImpl.52"*)* @_ZN6google8protobuf8internal12MapEntryImplIN8autofill52UserProfileValidityMap_ProfileValidityEntry_DoNotUseENS0_11MessageLiteENSt3__112basic_stringIcNS6_11char_traitsIcEENS6_9allocatorIcEEEENS3_18ProfileValidityMapELNS1_14WireFormatLite9FieldTypeE9ELSF_11EED2Ev to i8*), i8* bitcast (void (%"class.google::protobuf::internal::MapEntryImpl.52"*)* @_ZN6google8protobuf8internal12MapEntryImplIN8autofill52UserProfileValidityMap_ProfileValidityEntry_DoNotUseENS0_11MessageLiteENSt3__112basic_stringIcNS6_11char_traitsIcEENS6_9allocatorIcEEEENS3_18ProfileValidityMapELNS1_14WireFormatLite9FieldTypeE9ELSF_11EED0Ev to i8*), i8* bitcast (void (%"class.std::__1::basic_string"*, %"class.google::protobuf::internal::MapEntryImpl.52"*)* @_ZNK6google8protobuf8internal12MapEntryImplIN8autofill52UserProfileValidityMap_ProfileValidityEntry_DoNotUseENS0_11MessageLiteENSt3__112basic_stringIcNS6_11char_traitsIcEENS6_9allocatorIcEEEENS3_18ProfileValidityMapELNS1_14WireFormatLite9FieldTypeE9ELSF_11EE11GetTypeNameEv to i8*), i8* bitcast (%"class.google::protobuf::MessageLite"* (%"class.google::protobuf::internal::MapEntryImpl.52"*)* @_ZNK6google8protobuf8internal12MapEntryImplIN8autofill52UserProfileValidityMap_ProfileValidityEntry_DoNotUseENS0_11MessageLiteENSt3__112basic_stringIcNS6_11char_traitsIcEENS6_9allocatorIcEEEENS3_18ProfileValidityMapELNS1_14WireFormatLite9FieldTypeE9ELSF_11EE3NewEv to i8*), i8* bitcast (%"class.google::protobuf::MessageLite"* (%"class.google::protobuf::internal::MapEntryImpl.52"*, %"class.google::protobuf::Arena"*)* @_ZNK6google8protobuf8internal12MapEntryImplIN8autofill52UserProfileValidityMap_ProfileValidityEntry_DoNotUseENS0_11MessageLiteENSt3__112basic_stringIcNS6_11char_traitsIcEENS6_9allocatorIcEEEENS3_18ProfileValidityMapELNS1_14WireFormatLite9FieldTypeE9ELSF_11EE3NewEPNS0_5ArenaE to i8*), i8* bitcast (void (%"class.google::protobuf::internal::MapEntryImpl.52"*)* @_ZN6google8protobuf8internal12MapEntryImplIN8autofill52UserProfileValidityMap_ProfileValidityEntry_DoNotUseENS0_11MessageLiteENSt3__112basic_stringIcNS6_11char_traitsIcEENS6_9allocatorIcEEEENS3_18ProfileValidityMapELNS1_14WireFormatLite9FieldTypeE9ELSF_11EE5ClearEv to i8*), i8* bitcast (i1 (%"class.google::protobuf::internal::MapEntryImpl.52"*)* @_ZNK6google8protobuf8internal12MapEntryImplIN8autofill52UserProfileValidityMap_ProfileValidityEntry_DoNotUseENS0_11MessageLiteENSt3__112basic_stringIcNS6_11char_traitsIcEENS6_9allocatorIcEEEENS3_18ProfileValidityMapELNS1_14WireFormatLite9FieldTypeE9ELSF_11EE13IsInitializedEv to i8*), i8* bitcast (void (%"class.std::__1::basic_string"*, %"class.google::protobuf::MessageLite"*)* @_ZNK6google8protobuf11MessageLite25InitializationErrorStringEv to i8*), i8* bitcast (void (%"class.google::protobuf::internal::MapEntryImpl.52"*, %"class.google::protobuf::MessageLite"*)* @_ZN6google8protobuf8internal12MapEntryImplIN8autofill52UserProfileValidityMap_ProfileValidityEntry_DoNotUseENS0_11MessageLiteENSt3__112basic_stringIcNS6_11char_traitsIcEENS6_9allocatorIcEEEENS3_18ProfileValidityMapELNS1_14WireFormatLite9FieldTypeE9ELSF_11EE21CheckTypeAndMergeFromERKS5_ to i8*), i8* bitcast (i64 (%"class.google::protobuf::internal::MapEntryImpl.52"*)* @_ZNK6google8protobuf8internal12MapEntryImplIN8autofill52UserProfileValidityMap_ProfileValidityEntry_DoNotUseENS0_11MessageLiteENSt3__112basic_stringIcNS6_11char_traitsIcEENS6_9allocatorIcEEEENS3_18ProfileValidityMapELNS1_14WireFormatLite9FieldTypeE9ELSF_11EE12ByteSizeLongEv to i8*), i8* bitcast (i32 (%"class.google::protobuf::internal::MapEntryImpl.52"*)* @_ZNK6google8protobuf8internal12MapEntryImplIN8autofill52UserProfileValidityMap_ProfileValidityEntry_DoNotUseENS0_11MessageLiteENSt3__112basic_stringIcNS6_11char_traitsIcEENS6_9allocatorIcEEEENS3_18ProfileValidityMapELNS1_14WireFormatLite9FieldTypeE9ELSF_11EE13GetCachedSizeEv to i8*), i8* bitcast (i8* (%"class.google::protobuf::internal::MapEntryImpl.52"*, i8*, %"class.google::protobuf::internal::ParseContext"*)* @_ZN6google8protobuf8internal12MapEntryImplIN8autofill52UserProfileValidityMap_ProfileValidityEntry_DoNotUseENS0_11MessageLiteENSt3__112basic_stringIcNS6_11char_traitsIcEENS6_9allocatorIcEEEENS3_18ProfileValidityMapELNS1_14WireFormatLite9FieldTypeE9ELSF_11EE14_InternalParseEPKcPNS1_12ParseContextE to i8*), i8* bitcast (i8* (%"class.google::protobuf::internal::MapEntryImpl.52"*, i8*, %"class.google::protobuf::io::EpsCopyOutputStream"*)* @_ZNK6google8protobuf8internal12MapEntryImplIN8autofill52UserProfileValidityMap_ProfileValidityEntry_DoNotUseENS0_11MessageLiteENSt3__112basic_stringIcNS6_11char_traitsIcEENS6_9allocatorIcEEEENS3_18ProfileValidityMapELNS1_14WireFormatLite9FieldTypeE9ELSF_11EE18_InternalSerializeEPhPNS0_2io19EpsCopyOutputStreamE to i8*), i8* bitcast (i8* (%"class.google::protobuf::MessageLite"*)* @_ZNK6google8protobuf11MessageLite16InternalGetTableEv to i8*), i8* bitcast (%"class.std::__1::basic_string"* (%"class.google::protobuf::internal::MapEntryImpl.52"*)* @_ZNK6google8protobuf8internal12MapEntryImplIN8autofill52UserProfileValidityMap_ProfileValidityEntry_DoNotUseENS0_11MessageLiteENSt3__112basic_stringIcNS6_11char_traitsIcEENS6_9allocatorIcEEEENS3_18ProfileValidityMapELNS1_14WireFormatLite9FieldTypeE9ELSF_11EE3keyEv to i8*), i8* bitcast (%"class.autofill::ProfileValidityMap"* (%"class.google::protobuf::internal::MapEntryImpl.52"*)* @_ZNK6google8protobuf8internal12MapEntryImplIN8autofill52UserProfileValidityMap_ProfileValidityEntry_DoNotUseENS0_11MessageLiteENSt3__112basic_stringIcNS6_11char_traitsIcEENS6_9allocatorIcEEEENS3_18ProfileValidityMapELNS1_14WireFormatLite9FieldTypeE9ELSF_11EE5valueEv to i8*)] }, comdat, align 8
@llvm.global_ctors = appending global [0 x { i32, void ()*, i8* }] zeroinitializer

@_ZN8autofill32AutofillQueryContents_Form_FieldC1EPN6google8protobuf5ArenaE = hidden unnamed_addr alias void (%"class.autofill::AutofillQueryContents_Form_Field"*, %"class.google::protobuf::Arena"*), void (%"class.autofill::AutofillQueryContents_Form_Field"*, %"class.google::protobuf::Arena"*)* @_ZN8autofill32AutofillQueryContents_Form_FieldC2EPN6google8protobuf5ArenaE
@_ZN8autofill32AutofillQueryContents_Form_FieldC1ERKS0_ = hidden unnamed_addr alias void (%"class.autofill::AutofillQueryContents_Form_Field"*, %"class.autofill::AutofillQueryContents_Form_Field"*), void (%"class.autofill::AutofillQueryContents_Form_Field"*, %"class.autofill::AutofillQueryContents_Form_Field"*)* @_ZN8autofill32AutofillQueryContents_Form_FieldC2ERKS0_
@_ZN8autofill32AutofillQueryContents_Form_FieldD1Ev = hidden unnamed_addr alias void (%"class.autofill::AutofillQueryContents_Form_Field"*), void (%"class.autofill::AutofillQueryContents_Form_Field"*)* @_ZN8autofill32AutofillQueryContents_Form_FieldD2Ev
@_ZN8autofill26AutofillQueryContents_FormC1EPN6google8protobuf5ArenaE = hidden unnamed_addr alias void (%"class.autofill::AutofillQueryContents_Form"*, %"class.google::protobuf::Arena"*), void (%"class.autofill::AutofillQueryContents_Form"*, %"class.google::protobuf::Arena"*)* @_ZN8autofill26AutofillQueryContents_FormC2EPN6google8protobuf5ArenaE
@_ZN8autofill26AutofillQueryContents_FormC1ERKS0_ = hidden unnamed_addr alias void (%"class.autofill::AutofillQueryContents_Form"*, %"class.autofill::AutofillQueryContents_Form"*), void (%"class.autofill::AutofillQueryContents_Form"*, %"class.autofill::AutofillQueryContents_Form"*)* @_ZN8autofill26AutofillQueryContents_FormC2ERKS0_
@_ZN8autofill26AutofillQueryContents_FormD1Ev = hidden unnamed_addr alias void (%"class.autofill::AutofillQueryContents_Form"*), void (%"class.autofill::AutofillQueryContents_Form"*)* @_ZN8autofill26AutofillQueryContents_FormD2Ev
@_ZN8autofill21AutofillQueryContentsC1EPN6google8protobuf5ArenaE = hidden unnamed_addr alias void (%"class.autofill::AutofillQueryContents"*, %"class.google::protobuf::Arena"*), void (%"class.autofill::AutofillQueryContents"*, %"class.google::protobuf::Arena"*)* @_ZN8autofill21AutofillQueryContentsC2EPN6google8protobuf5ArenaE
@_ZN8autofill21AutofillQueryContentsC1ERKS0_ = hidden unnamed_addr alias void (%"class.autofill::AutofillQueryContents"*, %"class.autofill::AutofillQueryContents"*), void (%"class.autofill::AutofillQueryContents"*, %"class.autofill::AutofillQueryContents"*)* @_ZN8autofill21AutofillQueryContentsC2ERKS0_
@_ZN8autofill21AutofillQueryContentsD1Ev = hidden unnamed_addr alias void (%"class.autofill::AutofillQueryContents"*), void (%"class.autofill::AutofillQueryContents"*)* @_ZN8autofill21AutofillQueryContentsD2Ev
@_ZN8autofill51AutofillQueryResponseContents_Field_FieldPredictionC1EPN6google8protobuf5ArenaE = hidden unnamed_addr alias void (%"class.autofill::AutofillQueryResponseContents_Field_FieldPrediction"*, %"class.google::protobuf::Arena"*), void (%"class.autofill::AutofillQueryResponseContents_Field_FieldPrediction"*, %"class.google::protobuf::Arena"*)* @_ZN8autofill51AutofillQueryResponseContents_Field_FieldPredictionC2EPN6google8protobuf5ArenaE
@_ZN8autofill51AutofillQueryResponseContents_Field_FieldPredictionC1ERKS0_ = hidden unnamed_addr alias void (%"class.autofill::AutofillQueryResponseContents_Field_FieldPrediction"*, %"class.autofill::AutofillQueryResponseContents_Field_FieldPrediction"*), void (%"class.autofill::AutofillQueryResponseContents_Field_FieldPrediction"*, %"class.autofill::AutofillQueryResponseContents_Field_FieldPrediction"*)* @_ZN8autofill51AutofillQueryResponseContents_Field_FieldPredictionC2ERKS0_
@_ZN8autofill51AutofillQueryResponseContents_Field_FieldPredictionD1Ev = hidden unnamed_addr alias void (%"class.autofill::AutofillQueryResponseContents_Field_FieldPrediction"*), void (%"class.autofill::AutofillQueryResponseContents_Field_FieldPrediction"*)* @_ZN8autofill51AutofillQueryResponseContents_Field_FieldPredictionD2Ev
@_ZN8autofill35AutofillQueryResponseContents_FieldC1EPN6google8protobuf5ArenaE = hidden unnamed_addr alias void (%"class.autofill::AutofillQueryResponseContents_Field"*, %"class.google::protobuf::Arena"*), void (%"class.autofill::AutofillQueryResponseContents_Field"*, %"class.google::protobuf::Arena"*)* @_ZN8autofill35AutofillQueryResponseContents_FieldC2EPN6google8protobuf5ArenaE
@_ZN8autofill35AutofillQueryResponseContents_FieldC1ERKS0_ = hidden unnamed_addr alias void (%"class.autofill::AutofillQueryResponseContents_Field"*, %"class.autofill::AutofillQueryResponseContents_Field"*), void (%"class.autofill::AutofillQueryResponseContents_Field"*, %"class.autofill::AutofillQueryResponseContents_Field"*)* @_ZN8autofill35AutofillQueryResponseContents_FieldC2ERKS0_
@_ZN8autofill35AutofillQueryResponseContents_FieldD1Ev = hidden unnamed_addr alias void (%"class.autofill::AutofillQueryResponseContents_Field"*), void (%"class.autofill::AutofillQueryResponseContents_Field"*)* @_ZN8autofill35AutofillQueryResponseContents_FieldD2Ev
@_ZN8autofill29AutofillQueryResponseContentsC1EPN6google8protobuf5ArenaE = hidden unnamed_addr alias void (%"class.autofill::AutofillQueryResponseContents"*, %"class.google::protobuf::Arena"*), void (%"class.autofill::AutofillQueryResponseContents"*, %"class.google::protobuf::Arena"*)* @_ZN8autofill29AutofillQueryResponseContentsC2EPN6google8protobuf5ArenaE
@_ZN8autofill29AutofillQueryResponseContentsC1ERKS0_ = hidden unnamed_addr alias void (%"class.autofill::AutofillQueryResponseContents"*, %"class.autofill::AutofillQueryResponseContents"*), void (%"class.autofill::AutofillQueryResponseContents"*, %"class.autofill::AutofillQueryResponseContents"*)* @_ZN8autofill29AutofillQueryResponseContentsC2ERKS0_
@_ZN8autofill29AutofillQueryResponseContentsD1Ev = hidden unnamed_addr alias void (%"class.autofill::AutofillQueryResponseContents"*), void (%"class.autofill::AutofillQueryResponseContents"*)* @_ZN8autofill29AutofillQueryResponseContentsD2Ev
@_ZN8autofill23AutofillRandomizedValueC1EPN6google8protobuf5ArenaE = hidden unnamed_addr alias void (%"class.autofill::AutofillRandomizedValue"*, %"class.google::protobuf::Arena"*), void (%"class.autofill::AutofillRandomizedValue"*, %"class.google::protobuf::Arena"*)* @_ZN8autofill23AutofillRandomizedValueC2EPN6google8protobuf5ArenaE
@_ZN8autofill23AutofillRandomizedValueC1ERKS0_ = hidden unnamed_addr alias void (%"class.autofill::AutofillRandomizedValue"*, %"class.autofill::AutofillRandomizedValue"*), void (%"class.autofill::AutofillRandomizedValue"*, %"class.autofill::AutofillRandomizedValue"*)* @_ZN8autofill23AutofillRandomizedValueC2ERKS0_
@_ZN8autofill23AutofillRandomizedValueD1Ev = hidden unnamed_addr alias void (%"class.autofill::AutofillRandomizedValue"*), void (%"class.autofill::AutofillRandomizedValue"*)* @_ZN8autofill23AutofillRandomizedValueD2Ev
@_ZN8autofill42AutofillRandomizedFormMetadata_ButtonTitleC1EPN6google8protobuf5ArenaE = hidden unnamed_addr alias void (%"class.autofill::AutofillRandomizedFormMetadata_ButtonTitle"*, %"class.google::protobuf::Arena"*), void (%"class.autofill::AutofillRandomizedFormMetadata_ButtonTitle"*, %"class.google::protobuf::Arena"*)* @_ZN8autofill42AutofillRandomizedFormMetadata_ButtonTitleC2EPN6google8protobuf5ArenaE
@_ZN8autofill42AutofillRandomizedFormMetadata_ButtonTitleC1ERKS0_ = hidden unnamed_addr alias void (%"class.autofill::AutofillRandomizedFormMetadata_ButtonTitle"*, %"class.autofill::AutofillRandomizedFormMetadata_ButtonTitle"*), void (%"class.autofill::AutofillRandomizedFormMetadata_ButtonTitle"*, %"class.autofill::AutofillRandomizedFormMetadata_ButtonTitle"*)* @_ZN8autofill42AutofillRandomizedFormMetadata_ButtonTitleC2ERKS0_
@_ZN8autofill42AutofillRandomizedFormMetadata_ButtonTitleD1Ev = hidden unnamed_addr alias void (%"class.autofill::AutofillRandomizedFormMetadata_ButtonTitle"*), void (%"class.autofill::AutofillRandomizedFormMetadata_ButtonTitle"*)* @_ZN8autofill42AutofillRandomizedFormMetadata_ButtonTitleD2Ev
@_ZN8autofill30AutofillRandomizedFormMetadataC1EPN6google8protobuf5ArenaE = hidden unnamed_addr alias void (%"class.autofill::AutofillRandomizedFormMetadata"*, %"class.google::protobuf::Arena"*), void (%"class.autofill::AutofillRandomizedFormMetadata"*, %"class.google::protobuf::Arena"*)* @_ZN8autofill30AutofillRandomizedFormMetadataC2EPN6google8protobuf5ArenaE
@_ZN8autofill30AutofillRandomizedFormMetadataC1ERKS0_ = hidden unnamed_addr alias void (%"class.autofill::AutofillRandomizedFormMetadata"*, %"class.autofill::AutofillRandomizedFormMetadata"*), void (%"class.autofill::AutofillRandomizedFormMetadata"*, %"class.autofill::AutofillRandomizedFormMetadata"*)* @_ZN8autofill30AutofillRandomizedFormMetadataC2ERKS0_
@_ZN8autofill30AutofillRandomizedFormMetadataD1Ev = hidden unnamed_addr alias void (%"class.autofill::AutofillRandomizedFormMetadata"*), void (%"class.autofill::AutofillRandomizedFormMetadata"*)* @_ZN8autofill30AutofillRandomizedFormMetadataD2Ev
@_ZN8autofill31AutofillRandomizedFieldMetadataC1EPN6google8protobuf5ArenaE = hidden unnamed_addr alias void (%"class.autofill::AutofillRandomizedFieldMetadata"*, %"class.google::protobuf::Arena"*), void (%"class.autofill::AutofillRandomizedFieldMetadata"*, %"class.google::protobuf::Arena"*)* @_ZN8autofill31AutofillRandomizedFieldMetadataC2EPN6google8protobuf5ArenaE
@_ZN8autofill31AutofillRandomizedFieldMetadataC1ERKS0_ = hidden unnamed_addr alias void (%"class.autofill::AutofillRandomizedFieldMetadata"*, %"class.autofill::AutofillRandomizedFieldMetadata"*), void (%"class.autofill::AutofillRandomizedFieldMetadata"*, %"class.autofill::AutofillRandomizedFieldMetadata"*)* @_ZN8autofill31AutofillRandomizedFieldMetadataC2ERKS0_
@_ZN8autofill31AutofillRandomizedFieldMetadataD1Ev = hidden unnamed_addr alias void (%"class.autofill::AutofillRandomizedFieldMetadata"*), void (%"class.autofill::AutofillRandomizedFieldMetadata"*)* @_ZN8autofill31AutofillRandomizedFieldMetadataD2Ev
@_ZN8autofill55AutofillUploadContents_Field_AutofillTypeValiditiesPairC1EPN6google8protobuf5ArenaE = hidden unnamed_addr alias void (%"class.autofill::AutofillUploadContents_Field_AutofillTypeValiditiesPair"*, %"class.google::protobuf::Arena"*), void (%"class.autofill::AutofillUploadContents_Field_AutofillTypeValiditiesPair"*, %"class.google::protobuf::Arena"*)* @_ZN8autofill55AutofillUploadContents_Field_AutofillTypeValiditiesPairC2EPN6google8protobuf5ArenaE
@_ZN8autofill55AutofillUploadContents_Field_AutofillTypeValiditiesPairC1ERKS0_ = hidden unnamed_addr alias void (%"class.autofill::AutofillUploadContents_Field_AutofillTypeValiditiesPair"*, %"class.autofill::AutofillUploadContents_Field_AutofillTypeValiditiesPair"*), void (%"class.autofill::AutofillUploadContents_Field_AutofillTypeValiditiesPair"*, %"class.autofill::AutofillUploadContents_Field_AutofillTypeValiditiesPair"*)* @_ZN8autofill55AutofillUploadContents_Field_AutofillTypeValiditiesPairC2ERKS0_
@_ZN8autofill55AutofillUploadContents_Field_AutofillTypeValiditiesPairD1Ev = hidden unnamed_addr alias void (%"class.autofill::AutofillUploadContents_Field_AutofillTypeValiditiesPair"*), void (%"class.autofill::AutofillUploadContents_Field_AutofillTypeValiditiesPair"*)* @_ZN8autofill55AutofillUploadContents_Field_AutofillTypeValiditiesPairD2Ev
@_ZN8autofill28AutofillUploadContents_FieldC1EPN6google8protobuf5ArenaE = hidden unnamed_addr alias void (%"class.autofill::AutofillUploadContents_Field"*, %"class.google::protobuf::Arena"*), void (%"class.autofill::AutofillUploadContents_Field"*, %"class.google::protobuf::Arena"*)* @_ZN8autofill28AutofillUploadContents_FieldC2EPN6google8protobuf5ArenaE
@_ZN8autofill28AutofillUploadContents_FieldC1ERKS0_ = hidden unnamed_addr alias void (%"class.autofill::AutofillUploadContents_Field"*, %"class.autofill::AutofillUploadContents_Field"*), void (%"class.autofill::AutofillUploadContents_Field"*, %"class.autofill::AutofillUploadContents_Field"*)* @_ZN8autofill28AutofillUploadContents_FieldC2ERKS0_
@_ZN8autofill28AutofillUploadContents_FieldD1Ev = hidden unnamed_addr alias void (%"class.autofill::AutofillUploadContents_Field"*), void (%"class.autofill::AutofillUploadContents_Field"*)* @_ZN8autofill28AutofillUploadContents_FieldD2Ev
@_ZN8autofill34AutofillUploadContents_ButtonTitleC1EPN6google8protobuf5ArenaE = hidden unnamed_addr alias void (%"class.autofill::AutofillUploadContents_ButtonTitle"*, %"class.google::protobuf::Arena"*), void (%"class.autofill::AutofillUploadContents_ButtonTitle"*, %"class.google::protobuf::Arena"*)* @_ZN8autofill34AutofillUploadContents_ButtonTitleC2EPN6google8protobuf5ArenaE
@_ZN8autofill34AutofillUploadContents_ButtonTitleC1ERKS0_ = hidden unnamed_addr alias void (%"class.autofill::AutofillUploadContents_ButtonTitle"*, %"class.autofill::AutofillUploadContents_ButtonTitle"*), void (%"class.autofill::AutofillUploadContents_ButtonTitle"*, %"class.autofill::AutofillUploadContents_ButtonTitle"*)* @_ZN8autofill34AutofillUploadContents_ButtonTitleC2ERKS0_
@_ZN8autofill34AutofillUploadContents_ButtonTitleD1Ev = hidden unnamed_addr alias void (%"class.autofill::AutofillUploadContents_ButtonTitle"*), void (%"class.autofill::AutofillUploadContents_ButtonTitle"*)* @_ZN8autofill34AutofillUploadContents_ButtonTitleD2Ev
@_ZN8autofill22AutofillUploadContentsC1EPN6google8protobuf5ArenaE = hidden unnamed_addr alias void (%"class.autofill::AutofillUploadContents"*, %"class.google::protobuf::Arena"*), void (%"class.autofill::AutofillUploadContents"*, %"class.google::protobuf::Arena"*)* @_ZN8autofill22AutofillUploadContentsC2EPN6google8protobuf5ArenaE
@_ZN8autofill22AutofillUploadContentsC1ERKS0_ = hidden unnamed_addr alias void (%"class.autofill::AutofillUploadContents"*, %"class.autofill::AutofillUploadContents"*), void (%"class.autofill::AutofillUploadContents"*, %"class.autofill::AutofillUploadContents"*)* @_ZN8autofill22AutofillUploadContentsC2ERKS0_
@_ZN8autofill22AutofillUploadContentsD1Ev = hidden unnamed_addr alias void (%"class.autofill::AutofillUploadContents"*), void (%"class.autofill::AutofillUploadContents"*)* @_ZN8autofill22AutofillUploadContentsD2Ev
@_ZN8autofill52ProfileValidityMap_FieldValidityStatesEntry_DoNotUseC1Ev = hidden unnamed_addr alias void (%"class.autofill::ProfileValidityMap_FieldValidityStatesEntry_DoNotUse"*), void (%"class.autofill::ProfileValidityMap_FieldValidityStatesEntry_DoNotUse"*)* @_ZN8autofill52ProfileValidityMap_FieldValidityStatesEntry_DoNotUseC2Ev
@_ZN8autofill52ProfileValidityMap_FieldValidityStatesEntry_DoNotUseC1EPN6google8protobuf5ArenaE = hidden unnamed_addr alias void (%"class.autofill::ProfileValidityMap_FieldValidityStatesEntry_DoNotUse"*, %"class.google::protobuf::Arena"*), void (%"class.autofill::ProfileValidityMap_FieldValidityStatesEntry_DoNotUse"*, %"class.google::protobuf::Arena"*)* @_ZN8autofill52ProfileValidityMap_FieldValidityStatesEntry_DoNotUseC2EPN6google8protobuf5ArenaE
@_ZN8autofill18ProfileValidityMapC1EPN6google8protobuf5ArenaE = hidden unnamed_addr alias void (%"class.autofill::ProfileValidityMap"*, %"class.google::protobuf::Arena"*), void (%"class.autofill::ProfileValidityMap"*, %"class.google::protobuf::Arena"*)* @_ZN8autofill18ProfileValidityMapC2EPN6google8protobuf5ArenaE
@_ZN8autofill18ProfileValidityMapC1ERKS0_ = hidden unnamed_addr alias void (%"class.autofill::ProfileValidityMap"*, %"class.autofill::ProfileValidityMap"*), void (%"class.autofill::ProfileValidityMap"*, %"class.autofill::ProfileValidityMap"*)* @_ZN8autofill18ProfileValidityMapC2ERKS0_
@_ZN8autofill18ProfileValidityMapD1Ev = hidden unnamed_addr alias void (%"class.autofill::ProfileValidityMap"*), void (%"class.autofill::ProfileValidityMap"*)* @_ZN8autofill18ProfileValidityMapD2Ev
@_ZN8autofill52UserProfileValidityMap_ProfileValidityEntry_DoNotUseC1Ev = hidden unnamed_addr alias void (%"class.autofill::UserProfileValidityMap_ProfileValidityEntry_DoNotUse"*), void (%"class.autofill::UserProfileValidityMap_ProfileValidityEntry_DoNotUse"*)* @_ZN8autofill52UserProfileValidityMap_ProfileValidityEntry_DoNotUseC2Ev
@_ZN8autofill52UserProfileValidityMap_ProfileValidityEntry_DoNotUseC1EPN6google8protobuf5ArenaE = hidden unnamed_addr alias void (%"class.autofill::UserProfileValidityMap_ProfileValidityEntry_DoNotUse"*, %"class.google::protobuf::Arena"*), void (%"class.autofill::UserProfileValidityMap_ProfileValidityEntry_DoNotUse"*, %"class.google::protobuf::Arena"*)* @_ZN8autofill52UserProfileValidityMap_ProfileValidityEntry_DoNotUseC2EPN6google8protobuf5ArenaE
@_ZN8autofill22UserProfileValidityMapC1EPN6google8protobuf5ArenaE = hidden unnamed_addr alias void (%"class.autofill::UserProfileValidityMap"*, %"class.google::protobuf::Arena"*), void (%"class.autofill::UserProfileValidityMap"*, %"class.google::protobuf::Arena"*)* @_ZN8autofill22UserProfileValidityMapC2EPN6google8protobuf5ArenaE
@_ZN8autofill22UserProfileValidityMapC1ERKS0_ = hidden unnamed_addr alias void (%"class.autofill::UserProfileValidityMap"*, %"class.autofill::UserProfileValidityMap"*), void (%"class.autofill::UserProfileValidityMap"*, %"class.autofill::UserProfileValidityMap"*)* @_ZN8autofill22UserProfileValidityMapC2ERKS0_
@_ZN8autofill22UserProfileValidityMapD1Ev = hidden unnamed_addr alias void (%"class.autofill::UserProfileValidityMap"*), void (%"class.autofill::UserProfileValidityMap"*)* @_ZN8autofill22UserProfileValidityMapD2Ev

; Function Attrs: nounwind ssp uwtable
define internal void @_ZL57InitDefaultsscc_info_AutofillQueryContents_server_2eprotov() #0 {
  tail call void @_ZN6google8protobuf8internal13VerifyVersionEiiPKc(i32 3013000, i32 3013000, i8* getelementptr inbounds ([56 x i8], [56 x i8]* @.str, i64 0, i64 0)) #18
  store %"class.google::protobuf::Arena"* null, %"class.google::protobuf::Arena"** bitcast (i8* getelementptr inbounds (%"class.autofill::AutofillQueryContentsDefaultTypeInternal", %"class.autofill::AutofillQueryContentsDefaultTypeInternal"* @_ZN8autofill40_AutofillQueryContents_default_instance_E, i64 0, i32 0, i32 0, i32 1, i64 0) to %"class.google::protobuf::Arena"**), align 8
  store i32 (...)** bitcast (i8** getelementptr inbounds ({ [16 x i8*] }, { [16 x i8*] }* @_ZTVN8autofill21AutofillQueryContentsE, i64 0, inrange i32 0, i64 2) to i32 (...)**), i32 (...)*** bitcast (%"class.autofill::AutofillQueryContentsDefaultTypeInternal"* @_ZN8autofill40_AutofillQueryContents_default_instance_E to i32 (...)***), align 8
  tail call void @llvm.memset.p0i8.i64(i8* align 8 getelementptr inbounds (%"class.autofill::AutofillQueryContentsDefaultTypeInternal", %"class.autofill::AutofillQueryContentsDefaultTypeInternal"* @_ZN8autofill40_AutofillQueryContents_default_instance_E, i64 0, i32 0, i32 0, i32 1, i64 8), i8 0, i64 48, i1 false) #18
  %1 = load atomic i32, i32* getelementptr inbounds ({ { { { i32 } }, i32, i32, void ()* }, [1 x i8*] }, { { { { i32 } }, i32, i32, void ()* }, [1 x i8*] }* @scc_info_AutofillQueryContents_server_2eproto, i64 0, i32 0, i32 0, i32 0, i32 0) acquire, align 8
  %2 = icmp eq i32 %1, 0
  br i1 %2, label %4, label %3, !prof !2

3:                                                ; preds = %0
  tail call void @_ZN6google8protobuf8internal11InitSCCImplEPNS1_11SCCInfoBaseE(%"struct.google::protobuf::internal::SCCInfoBase"* bitcast ({ { { { i32 } }, i32, i32, void ()* }, [1 x i8*] }* @scc_info_AutofillQueryContents_server_2eproto to %"struct.google::protobuf::internal::SCCInfoBase"*)) #18
  br label %4

4:                                                ; preds = %0, %3
  store %"class.std::__1::basic_string"* bitcast (%"class.google::protobuf::internal::ExplicitlyConstructed.22"* @_ZN6google8protobuf8internal26fixed_address_empty_stringE to %"class.std::__1::basic_string"*), %"class.std::__1::basic_string"** bitcast (i8* getelementptr inbounds (%"class.autofill::AutofillQueryContentsDefaultTypeInternal", %"class.autofill::AutofillQueryContentsDefaultTypeInternal"* @_ZN8autofill40_AutofillQueryContents_default_instance_E, i64 0, i32 0, i32 0, i32 1, i64 56) to %"class.std::__1::basic_string"**), align 8
  tail call void @_ZN6google8protobuf8internal13OnShutdownRunEPFvPKvES3_(void (i8*)* nonnull @_ZN6google8protobuf8internal14DestroyMessageEPKv, i8* bitcast (%"class.autofill::AutofillQueryContentsDefaultTypeInternal"* @_ZN8autofill40_AutofillQueryContents_default_instance_E to i8*)) #18
  ret void
}

; Function Attrs: nounwind ssp uwtable
define internal void @_ZL62InitDefaultsscc_info_AutofillQueryContents_Form_server_2eprotov() #0 {
  tail call void @_ZN6google8protobuf8internal13VerifyVersionEiiPKc(i32 3013000, i32 3013000, i8* getelementptr inbounds ([56 x i8], [56 x i8]* @.str, i64 0, i64 0)) #18
  store %"class.google::protobuf::Arena"* null, %"class.google::protobuf::Arena"** bitcast (i8* getelementptr inbounds (%"class.autofill::AutofillQueryContents_FormDefaultTypeInternal", %"class.autofill::AutofillQueryContents_FormDefaultTypeInternal"* @_ZN8autofill45_AutofillQueryContents_Form_default_instance_E, i64 0, i32 0, i32 0, i32 1, i64 0) to %"class.google::protobuf::Arena"**), align 8
  store i32 (...)** bitcast (i8** getelementptr inbounds ({ [16 x i8*] }, { [16 x i8*] }* @_ZTVN8autofill26AutofillQueryContents_FormE, i64 0, inrange i32 0, i64 2) to i32 (...)**), i32 (...)*** bitcast (%"class.autofill::AutofillQueryContents_FormDefaultTypeInternal"* @_ZN8autofill45_AutofillQueryContents_Form_default_instance_E to i32 (...)***), align 8
  tail call void @llvm.memset.p0i8.i64(i8* align 8 getelementptr inbounds (%"class.autofill::AutofillQueryContents_FormDefaultTypeInternal", %"class.autofill::AutofillQueryContents_FormDefaultTypeInternal"* @_ZN8autofill45_AutofillQueryContents_Form_default_instance_E, i64 0, i32 0, i32 0, i32 1, i64 8), i8 0, i64 32, i1 false) #18
  %1 = load atomic i32, i32* getelementptr inbounds ({ { { { i32 } }, i32, i32, void ()* }, [2 x i8*] }, { { { { i32 } }, i32, i32, void ()* }, [2 x i8*] }* @scc_info_AutofillQueryContents_Form_server_2eproto, i64 0, i32 0, i32 0, i32 0, i32 0) acquire, align 8
  %2 = icmp eq i32 %1, 0
  br i1 %2, label %4, label %3, !prof !2

3:                                                ; preds = %0
  tail call void @_ZN6google8protobuf8internal11InitSCCImplEPNS1_11SCCInfoBaseE(%"struct.google::protobuf::internal::SCCInfoBase"* bitcast ({ { { { i32 } }, i32, i32, void ()* }, [2 x i8*] }* @scc_info_AutofillQueryContents_Form_server_2eproto to %"struct.google::protobuf::internal::SCCInfoBase"*)) #18
  br label %4

4:                                                ; preds = %0, %3
  tail call void @llvm.memset.p0i8.i64(i8* align 8 getelementptr inbounds (%"class.autofill::AutofillQueryContents_FormDefaultTypeInternal", %"class.autofill::AutofillQueryContents_FormDefaultTypeInternal"* @_ZN8autofill45_AutofillQueryContents_Form_default_instance_E, i64 0, i32 0, i32 0, i32 1, i64 40), i8 0, i64 16, i1 false) #18
  tail call void @_ZN6google8protobuf8internal13OnShutdownRunEPFvPKvES3_(void (i8*)* nonnull @_ZN6google8protobuf8internal14DestroyMessageEPKv, i8* bitcast (%"class.autofill::AutofillQueryContents_FormDefaultTypeInternal"* @_ZN8autofill45_AutofillQueryContents_Form_default_instance_E to i8*)) #18
  ret void
}

; Function Attrs: nounwind ssp uwtable
define internal void @_ZL68InitDefaultsscc_info_AutofillQueryContents_Form_Field_server_2eprotov() #0 {
  tail call void @_ZN6google8protobuf8internal13VerifyVersionEiiPKc(i32 3013000, i32 3013000, i8* getelementptr inbounds ([56 x i8], [56 x i8]* @.str, i64 0, i64 0)) #18
  store %"class.google::protobuf::Arena"* null, %"class.google::protobuf::Arena"** bitcast (i8* getelementptr inbounds (%"class.autofill::AutofillQueryContents_Form_FieldDefaultTypeInternal", %"class.autofill::AutofillQueryContents_Form_FieldDefaultTypeInternal"* @_ZN8autofill51_AutofillQueryContents_Form_Field_default_instance_E, i64 0, i32 0, i32 0, i32 1, i64 0) to %"class.google::protobuf::Arena"**), align 8
  store i32 (...)** bitcast (i8** getelementptr inbounds ({ [16 x i8*] }, { [16 x i8*] }* @_ZTVN8autofill32AutofillQueryContents_Form_FieldE, i64 0, inrange i32 0, i64 2) to i32 (...)**), i32 (...)*** bitcast (%"class.autofill::AutofillQueryContents_Form_FieldDefaultTypeInternal"* @_ZN8autofill51_AutofillQueryContents_Form_Field_default_instance_E to i32 (...)***), align 8
  store i32 0, i32* bitcast (i8* getelementptr inbounds (%"class.autofill::AutofillQueryContents_Form_FieldDefaultTypeInternal", %"class.autofill::AutofillQueryContents_Form_FieldDefaultTypeInternal"* @_ZN8autofill51_AutofillQueryContents_Form_Field_default_instance_E, i64 0, i32 0, i32 0, i32 1, i64 8) to i32*), align 8
  store i32 0, i32* bitcast (i8* getelementptr inbounds (%"class.autofill::AutofillQueryContents_Form_FieldDefaultTypeInternal", %"class.autofill::AutofillQueryContents_Form_FieldDefaultTypeInternal"* @_ZN8autofill51_AutofillQueryContents_Form_Field_default_instance_E, i64 0, i32 0, i32 0, i32 1, i64 12) to i32*), align 4
  %1 = load atomic i32, i32* getelementptr inbounds ({ { { { i32 } }, i32, i32, void ()* }, [1 x i8*] }, { { { { i32 } }, i32, i32, void ()* }, [1 x i8*] }* @scc_info_AutofillQueryContents_Form_Field_server_2eproto, i64 0, i32 0, i32 0, i32 0, i32 0) acquire, align 8
  %2 = icmp eq i32 %1, 0
  br i1 %2, label %4, label %3, !prof !2

3:                                                ; preds = %0
  tail call void @_ZN6google8protobuf8internal11InitSCCImplEPNS1_11SCCInfoBaseE(%"struct.google::protobuf::internal::SCCInfoBase"* bitcast ({ { { { i32 } }, i32, i32, void ()* }, [1 x i8*] }* @scc_info_AutofillQueryContents_Form_Field_server_2eproto to %"struct.google::protobuf::internal::SCCInfoBase"*)) #18
  br label %4

4:                                                ; preds = %0, %3
  store <2 x %"class.std::__1::basic_string"*> <%"class.std::__1::basic_string"* bitcast (%"class.google::protobuf::internal::ExplicitlyConstructed.22"* @_ZN6google8protobuf8internal26fixed_address_empty_stringE to %"class.std::__1::basic_string"*), %"class.std::__1::basic_string"* bitcast (%"class.google::protobuf::internal::ExplicitlyConstructed.22"* @_ZN6google8protobuf8internal26fixed_address_empty_stringE to %"class.std::__1::basic_string"*)>, <2 x %"class.std::__1::basic_string"*>* bitcast (i8* getelementptr inbounds (%"class.autofill::AutofillQueryContents_Form_FieldDefaultTypeInternal", %"class.autofill::AutofillQueryContents_Form_FieldDefaultTypeInternal"* @_ZN8autofill51_AutofillQueryContents_Form_Field_default_instance_E, i64 0, i32 0, i32 0, i32 1, i64 16) to <2 x %"class.std::__1::basic_string"*>*), align 8
  tail call void @llvm.memset.p0i8.i64(i8* align 8 getelementptr inbounds (%"class.autofill::AutofillQueryContents_Form_FieldDefaultTypeInternal", %"class.autofill::AutofillQueryContents_Form_FieldDefaultTypeInternal"* @_ZN8autofill51_AutofillQueryContents_Form_Field_default_instance_E, i64 0, i32 0, i32 0, i32 1, i64 32), i8 0, i64 12, i1 false) #18
  tail call void @_ZN6google8protobuf8internal13OnShutdownRunEPFvPKvES3_(void (i8*)* nonnull @_ZN6google8protobuf8internal14DestroyMessageEPKv, i8* bitcast (%"class.autofill::AutofillQueryContents_Form_FieldDefaultTypeInternal"* @_ZN8autofill51_AutofillQueryContents_Form_Field_default_instance_E to i8*)) #18
  ret void
}

; Function Attrs: nounwind ssp uwtable
define internal void @_ZL65InitDefaultsscc_info_AutofillQueryResponseContents_server_2eprotov() #0 {
  tail call void @_ZN6google8protobuf8internal13VerifyVersionEiiPKc(i32 3013000, i32 3013000, i8* getelementptr inbounds ([56 x i8], [56 x i8]* @.str, i64 0, i64 0)) #18
  store %"class.google::protobuf::Arena"* null, %"class.google::protobuf::Arena"** bitcast (i8* getelementptr inbounds (%"class.autofill::AutofillQueryResponseContentsDefaultTypeInternal", %"class.autofill::AutofillQueryResponseContentsDefaultTypeInternal"* @_ZN8autofill48_AutofillQueryResponseContents_default_instance_E, i64 0, i32 0, i32 0, i32 1, i64 0) to %"class.google::protobuf::Arena"**), align 8
  store i32 (...)** bitcast (i8** getelementptr inbounds ({ [16 x i8*] }, { [16 x i8*] }* @_ZTVN8autofill29AutofillQueryResponseContentsE, i64 0, inrange i32 0, i64 2) to i32 (...)**), i32 (...)*** bitcast (%"class.autofill::AutofillQueryResponseContentsDefaultTypeInternal"* @_ZN8autofill48_AutofillQueryResponseContents_default_instance_E to i32 (...)***), align 8
  tail call void @llvm.memset.p0i8.i64(i8* align 8 getelementptr inbounds (%"class.autofill::AutofillQueryResponseContentsDefaultTypeInternal", %"class.autofill::AutofillQueryResponseContentsDefaultTypeInternal"* @_ZN8autofill48_AutofillQueryResponseContents_default_instance_E, i64 0, i32 0, i32 0, i32 1, i64 8), i8 0, i64 32, i1 false) #18
  %1 = load atomic i32, i32* getelementptr inbounds ({ { { { i32 } }, i32, i32, void ()* }, [1 x i8*] }, { { { { i32 } }, i32, i32, void ()* }, [1 x i8*] }* @scc_info_AutofillQueryResponseContents_server_2eproto, i64 0, i32 0, i32 0, i32 0, i32 0) acquire, align 8
  %2 = icmp eq i32 %1, 0
  br i1 %2, label %4, label %3, !prof !2

3:                                                ; preds = %0
  tail call void @_ZN6google8protobuf8internal11InitSCCImplEPNS1_11SCCInfoBaseE(%"struct.google::protobuf::internal::SCCInfoBase"* bitcast ({ { { { i32 } }, i32, i32, void ()* }, [1 x i8*] }* @scc_info_AutofillQueryResponseContents_server_2eproto to %"struct.google::protobuf::internal::SCCInfoBase"*)) #18
  br label %4

4:                                                ; preds = %0, %3
  store i8 0, i8* getelementptr inbounds (%"class.autofill::AutofillQueryResponseContentsDefaultTypeInternal", %"class.autofill::AutofillQueryResponseContentsDefaultTypeInternal"* @_ZN8autofill48_AutofillQueryResponseContents_default_instance_E, i64 0, i32 0, i32 0, i32 1, i64 40), align 8
  tail call void @_ZN6google8protobuf8internal13OnShutdownRunEPFvPKvES3_(void (i8*)* nonnull @_ZN6google8protobuf8internal14DestroyMessageEPKv, i8* bitcast (%"class.autofill::AutofillQueryResponseContentsDefaultTypeInternal"* @_ZN8autofill48_AutofillQueryResponseContents_default_instance_E to i8*)) #18
  ret void
}

; Function Attrs: nounwind ssp uwtable
define internal void @_ZL71InitDefaultsscc_info_AutofillQueryResponseContents_Field_server_2eprotov() #0 {
  tail call void @_ZN6google8protobuf8internal13VerifyVersionEiiPKc(i32 3013000, i32 3013000, i8* getelementptr inbounds ([56 x i8], [56 x i8]* @.str, i64 0, i64 0)) #18
  store %"class.google::protobuf::Arena"* null, %"class.google::protobuf::Arena"** bitcast (i8* getelementptr inbounds (%"class.autofill::AutofillQueryResponseContents_FieldDefaultTypeInternal", %"class.autofill::AutofillQueryResponseContents_FieldDefaultTypeInternal"* @_ZN8autofill54_AutofillQueryResponseContents_Field_default_instance_E, i64 0, i32 0, i32 0, i32 1, i64 0) to %"class.google::protobuf::Arena"**), align 8
  store i32 (...)** bitcast (i8** getelementptr inbounds ({ [16 x i8*] }, { [16 x i8*] }* @_ZTVN8autofill35AutofillQueryResponseContents_FieldE, i64 0, inrange i32 0, i64 2) to i32 (...)**), i32 (...)*** bitcast (%"class.autofill::AutofillQueryResponseContents_FieldDefaultTypeInternal"* @_ZN8autofill54_AutofillQueryResponseContents_Field_default_instance_E to i32 (...)***), align 8
  tail call void @llvm.memset.p0i8.i64(i8* align 8 getelementptr inbounds (%"class.autofill::AutofillQueryResponseContents_FieldDefaultTypeInternal", %"class.autofill::AutofillQueryResponseContents_FieldDefaultTypeInternal"* @_ZN8autofill54_AutofillQueryResponseContents_Field_default_instance_E, i64 0, i32 0, i32 0, i32 1, i64 8), i8 0, i64 32, i1 false) #18
  %1 = load atomic i32, i32* getelementptr inbounds ({ { { { i32 } }, i32, i32, void ()* }, [2 x i8*] }, { { { { i32 } }, i32, i32, void ()* }, [2 x i8*] }* @scc_info_AutofillQueryResponseContents_Field_server_2eproto, i64 0, i32 0, i32 0, i32 0, i32 0) acquire, align 8
  %2 = icmp eq i32 %1, 0
  br i1 %2, label %4, label %3, !prof !2

3:                                                ; preds = %0
  tail call void @_ZN6google8protobuf8internal11InitSCCImplEPNS1_11SCCInfoBaseE(%"struct.google::protobuf::internal::SCCInfoBase"* bitcast ({ { { { i32 } }, i32, i32, void ()* }, [2 x i8*] }* @scc_info_AutofillQueryResponseContents_Field_server_2eproto to %"struct.google::protobuf::internal::SCCInfoBase"*)) #18
  br label %4

4:                                                ; preds = %0, %3
  tail call void @llvm.memset.p0i8.i64(i8* align 8 getelementptr inbounds (%"class.autofill::AutofillQueryResponseContents_FieldDefaultTypeInternal", %"class.autofill::AutofillQueryResponseContents_FieldDefaultTypeInternal"* @_ZN8autofill54_AutofillQueryResponseContents_Field_default_instance_E, i64 0, i32 0, i32 0, i32 1, i64 40), i8 0, i64 12, i1 false) #18
  tail call void @_ZN6google8protobuf8internal13OnShutdownRunEPFvPKvES3_(void (i8*)* nonnull @_ZN6google8protobuf8internal14DestroyMessageEPKv, i8* bitcast (%"class.autofill::AutofillQueryResponseContents_FieldDefaultTypeInternal"* @_ZN8autofill54_AutofillQueryResponseContents_Field_default_instance_E to i8*)) #18
  ret void
}

; Function Attrs: nounwind ssp uwtable
define internal void @_ZL87InitDefaultsscc_info_AutofillQueryResponseContents_Field_FieldPrediction_server_2eprotov() #0 {
  tail call void @_ZN6google8protobuf8internal13VerifyVersionEiiPKc(i32 3013000, i32 3013000, i8* getelementptr inbounds ([56 x i8], [56 x i8]* @.str, i64 0, i64 0)) #18
  store %"class.google::protobuf::Arena"* null, %"class.google::protobuf::Arena"** bitcast (i8* getelementptr inbounds (%"class.autofill::AutofillQueryResponseContents_Field_FieldPredictionDefaultTypeInternal", %"class.autofill::AutofillQueryResponseContents_Field_FieldPredictionDefaultTypeInternal"* @_ZN8autofill70_AutofillQueryResponseContents_Field_FieldPrediction_default_instance_E, i64 0, i32 0, i32 0, i32 1, i64 0) to %"class.google::protobuf::Arena"**), align 8
  store i32 (...)** bitcast (i8** getelementptr inbounds ({ [16 x i8*] }, { [16 x i8*] }* @_ZTVN8autofill51AutofillQueryResponseContents_Field_FieldPredictionE, i64 0, inrange i32 0, i64 2) to i32 (...)**), i32 (...)*** bitcast (%"class.autofill::AutofillQueryResponseContents_Field_FieldPredictionDefaultTypeInternal"* @_ZN8autofill70_AutofillQueryResponseContents_Field_FieldPrediction_default_instance_E to i32 (...)***), align 8
  tail call void @llvm.memset.p0i8.i64(i8* align 8 getelementptr inbounds (%"class.autofill::AutofillQueryResponseContents_Field_FieldPredictionDefaultTypeInternal", %"class.autofill::AutofillQueryResponseContents_Field_FieldPredictionDefaultTypeInternal"* @_ZN8autofill70_AutofillQueryResponseContents_Field_FieldPrediction_default_instance_E, i64 0, i32 0, i32 0, i32 1, i64 8), i8 0, i64 13, i1 false) #18
  tail call void @_ZN6google8protobuf8internal13OnShutdownRunEPFvPKvES3_(void (i8*)* nonnull @_ZN6google8protobuf8internal14DestroyMessageEPKv, i8* bitcast (%"class.autofill::AutofillQueryResponseContents_Field_FieldPredictionDefaultTypeInternal"* @_ZN8autofill70_AutofillQueryResponseContents_Field_FieldPrediction_default_instance_E to i8*)) #18
  ret void
}

; Function Attrs: nounwind ssp uwtable
define internal void @_ZL67InitDefaultsscc_info_AutofillRandomizedFieldMetadata_server_2eprotov() #0 {
  tail call void @_ZN6google8protobuf8internal13VerifyVersionEiiPKc(i32 3013000, i32 3013000, i8* getelementptr inbounds ([56 x i8], [56 x i8]* @.str, i64 0, i64 0)) #18
  store %"class.google::protobuf::Arena"* null, %"class.google::protobuf::Arena"** bitcast (i8* getelementptr inbounds (%"class.autofill::AutofillRandomizedFieldMetadataDefaultTypeInternal", %"class.autofill::AutofillRandomizedFieldMetadataDefaultTypeInternal"* @_ZN8autofill50_AutofillRandomizedFieldMetadata_default_instance_E, i64 0, i32 0, i32 0, i32 1, i64 0) to %"class.google::protobuf::Arena"**), align 8
  store i32 (...)** bitcast (i8** getelementptr inbounds ({ [16 x i8*] }, { [16 x i8*] }* @_ZTVN8autofill31AutofillRandomizedFieldMetadataE, i64 0, inrange i32 0, i64 2) to i32 (...)**), i32 (...)*** bitcast (%"class.autofill::AutofillRandomizedFieldMetadataDefaultTypeInternal"* @_ZN8autofill50_AutofillRandomizedFieldMetadata_default_instance_E to i32 (...)***), align 8
  store i32 0, i32* bitcast (i8* getelementptr inbounds (%"class.autofill::AutofillRandomizedFieldMetadataDefaultTypeInternal", %"class.autofill::AutofillRandomizedFieldMetadataDefaultTypeInternal"* @_ZN8autofill50_AutofillRandomizedFieldMetadata_default_instance_E, i64 0, i32 0, i32 0, i32 1, i64 8) to i32*), align 8
  store i32 0, i32* bitcast (i8* getelementptr inbounds (%"class.autofill::AutofillRandomizedFieldMetadataDefaultTypeInternal", %"class.autofill::AutofillRandomizedFieldMetadataDefaultTypeInternal"* @_ZN8autofill50_AutofillRandomizedFieldMetadata_default_instance_E, i64 0, i32 0, i32 0, i32 1, i64 12) to i32*), align 4
  %1 = load atomic i32, i32* getelementptr inbounds ({ { { { i32 } }, i32, i32, void ()* }, [1 x i8*] }, { { { { i32 } }, i32, i32, void ()* }, [1 x i8*] }* @scc_info_AutofillRandomizedFieldMetadata_server_2eproto, i64 0, i32 0, i32 0, i32 0, i32 0) acquire, align 8
  %2 = icmp eq i32 %1, 0
  br i1 %2, label %4, label %3, !prof !2

3:                                                ; preds = %0
  tail call void @_ZN6google8protobuf8internal11InitSCCImplEPNS1_11SCCInfoBaseE(%"struct.google::protobuf::internal::SCCInfoBase"* bitcast ({ { { { i32 } }, i32, i32, void ()* }, [1 x i8*] }* @scc_info_AutofillRandomizedFieldMetadata_server_2eproto to %"struct.google::protobuf::internal::SCCInfoBase"*)) #18
  br label %4

4:                                                ; preds = %0, %3
  tail call void @llvm.memset.p0i8.i64(i8* align 8 getelementptr inbounds (%"class.autofill::AutofillRandomizedFieldMetadataDefaultTypeInternal", %"class.autofill::AutofillRandomizedFieldMetadataDefaultTypeInternal"* @_ZN8autofill50_AutofillRandomizedFieldMetadata_default_instance_E, i64 0, i32 0, i32 0, i32 1, i64 16), i8 0, i64 72, i1 false) #18
  tail call void @_ZN6google8protobuf8internal13OnShutdownRunEPFvPKvES3_(void (i8*)* nonnull @_ZN6google8protobuf8internal14DestroyMessageEPKv, i8* bitcast (%"class.autofill::AutofillRandomizedFieldMetadataDefaultTypeInternal"* @_ZN8autofill50_AutofillRandomizedFieldMetadata_default_instance_E to i8*)) #18
  ret void
}

; Function Attrs: nounwind ssp uwtable
define internal void @_ZL66InitDefaultsscc_info_AutofillRandomizedFormMetadata_server_2eprotov() #0 {
  tail call void @_ZN6google8protobuf8internal13VerifyVersionEiiPKc(i32 3013000, i32 3013000, i8* getelementptr inbounds ([56 x i8], [56 x i8]* @.str, i64 0, i64 0)) #18
  store %"class.google::protobuf::Arena"* null, %"class.google::protobuf::Arena"** bitcast (i8* getelementptr inbounds (%"class.autofill::AutofillRandomizedFormMetadataDefaultTypeInternal", %"class.autofill::AutofillRandomizedFormMetadataDefaultTypeInternal"* @_ZN8autofill49_AutofillRandomizedFormMetadata_default_instance_E, i64 0, i32 0, i32 0, i32 1, i64 0) to %"class.google::protobuf::Arena"**), align 8
  store i32 (...)** bitcast (i8** getelementptr inbounds ({ [16 x i8*] }, { [16 x i8*] }* @_ZTVN8autofill30AutofillRandomizedFormMetadataE, i64 0, inrange i32 0, i64 2) to i32 (...)**), i32 (...)*** bitcast (%"class.autofill::AutofillRandomizedFormMetadataDefaultTypeInternal"* @_ZN8autofill49_AutofillRandomizedFormMetadata_default_instance_E to i32 (...)***), align 8
  tail call void @llvm.memset.p0i8.i64(i8* align 8 getelementptr inbounds (%"class.autofill::AutofillRandomizedFormMetadataDefaultTypeInternal", %"class.autofill::AutofillRandomizedFormMetadataDefaultTypeInternal"* @_ZN8autofill49_AutofillRandomizedFormMetadata_default_instance_E, i64 0, i32 0, i32 0, i32 1, i64 8), i8 0, i64 32, i1 false) #18
  %1 = load atomic i32, i32* getelementptr inbounds ({ { { { i32 } }, i32, i32, void ()* }, [2 x i8*] }, { { { { i32 } }, i32, i32, void ()* }, [2 x i8*] }* @scc_info_AutofillRandomizedFormMetadata_server_2eproto, i64 0, i32 0, i32 0, i32 0, i32 0) acquire, align 8
  %2 = icmp eq i32 %1, 0
  br i1 %2, label %4, label %3, !prof !2

3:                                                ; preds = %0
  tail call void @_ZN6google8protobuf8internal11InitSCCImplEPNS1_11SCCInfoBaseE(%"struct.google::protobuf::internal::SCCInfoBase"* bitcast ({ { { { i32 } }, i32, i32, void ()* }, [2 x i8*] }* @scc_info_AutofillRandomizedFormMetadata_server_2eproto to %"struct.google::protobuf::internal::SCCInfoBase"*)) #18
  br label %4

4:                                                ; preds = %0, %3
  tail call void @llvm.memset.p0i8.i64(i8* align 8 getelementptr inbounds (%"class.autofill::AutofillRandomizedFormMetadataDefaultTypeInternal", %"class.autofill::AutofillRandomizedFormMetadataDefaultTypeInternal"* @_ZN8autofill49_AutofillRandomizedFormMetadata_default_instance_E, i64 0, i32 0, i32 0, i32 1, i64 40), i8 0, i64 32, i1 false) #18
  tail call void @_ZN6google8protobuf8internal13OnShutdownRunEPFvPKvES3_(void (i8*)* nonnull @_ZN6google8protobuf8internal14DestroyMessageEPKv, i8* bitcast (%"class.autofill::AutofillRandomizedFormMetadataDefaultTypeInternal"* @_ZN8autofill49_AutofillRandomizedFormMetadata_default_instance_E to i8*)) #18
  ret void
}

; Function Attrs: nounwind ssp uwtable
define internal void @_ZL78InitDefaultsscc_info_AutofillRandomizedFormMetadata_ButtonTitle_server_2eprotov() #0 {
  tail call void @_ZN6google8protobuf8internal13VerifyVersionEiiPKc(i32 3013000, i32 3013000, i8* getelementptr inbounds ([56 x i8], [56 x i8]* @.str, i64 0, i64 0)) #18
  store %"class.google::protobuf::Arena"* null, %"class.google::protobuf::Arena"** bitcast (i8* getelementptr inbounds (%"class.autofill::AutofillRandomizedFormMetadata_ButtonTitleDefaultTypeInternal", %"class.autofill::AutofillRandomizedFormMetadata_ButtonTitleDefaultTypeInternal"* @_ZN8autofill61_AutofillRandomizedFormMetadata_ButtonTitle_default_instance_E, i64 0, i32 0, i32 0, i32 1, i64 0) to %"class.google::protobuf::Arena"**), align 8
  store i32 (...)** bitcast (i8** getelementptr inbounds ({ [16 x i8*] }, { [16 x i8*] }* @_ZTVN8autofill42AutofillRandomizedFormMetadata_ButtonTitleE, i64 0, inrange i32 0, i64 2) to i32 (...)**), i32 (...)*** bitcast (%"class.autofill::AutofillRandomizedFormMetadata_ButtonTitleDefaultTypeInternal"* @_ZN8autofill61_AutofillRandomizedFormMetadata_ButtonTitle_default_instance_E to i32 (...)***), align 8
  store i32 0, i32* bitcast (i8* getelementptr inbounds (%"class.autofill::AutofillRandomizedFormMetadata_ButtonTitleDefaultTypeInternal", %"class.autofill::AutofillRandomizedFormMetadata_ButtonTitleDefaultTypeInternal"* @_ZN8autofill61_AutofillRandomizedFormMetadata_ButtonTitle_default_instance_E, i64 0, i32 0, i32 0, i32 1, i64 8) to i32*), align 8
  store i32 0, i32* bitcast (i8* getelementptr inbounds (%"class.autofill::AutofillRandomizedFormMetadata_ButtonTitleDefaultTypeInternal", %"class.autofill::AutofillRandomizedFormMetadata_ButtonTitleDefaultTypeInternal"* @_ZN8autofill61_AutofillRandomizedFormMetadata_ButtonTitle_default_instance_E, i64 0, i32 0, i32 0, i32 1, i64 12) to i32*), align 4
  %1 = load atomic i32, i32* getelementptr inbounds ({ { { { i32 } }, i32, i32, void ()* }, [1 x i8*] }, { { { { i32 } }, i32, i32, void ()* }, [1 x i8*] }* @scc_info_AutofillRandomizedFormMetadata_ButtonTitle_server_2eproto, i64 0, i32 0, i32 0, i32 0, i32 0) acquire, align 8
  %2 = icmp eq i32 %1, 0
  br i1 %2, label %4, label %3, !prof !2

3:                                                ; preds = %0
  tail call void @_ZN6google8protobuf8internal11InitSCCImplEPNS1_11SCCInfoBaseE(%"struct.google::protobuf::internal::SCCInfoBase"* bitcast ({ { { { i32 } }, i32, i32, void ()* }, [1 x i8*] }* @scc_info_AutofillRandomizedFormMetadata_ButtonTitle_server_2eproto to %"struct.google::protobuf::internal::SCCInfoBase"*)) #18
  br label %4

4:                                                ; preds = %0, %3
  tail call void @llvm.memset.p0i8.i64(i8* align 8 getelementptr inbounds (%"class.autofill::AutofillRandomizedFormMetadata_ButtonTitleDefaultTypeInternal", %"class.autofill::AutofillRandomizedFormMetadata_ButtonTitleDefaultTypeInternal"* @_ZN8autofill61_AutofillRandomizedFormMetadata_ButtonTitle_default_instance_E, i64 0, i32 0, i32 0, i32 1, i64 16), i8 0, i64 12, i1 false) #18
  tail call void @_ZN6google8protobuf8internal13OnShutdownRunEPFvPKvES3_(void (i8*)* nonnull @_ZN6google8protobuf8internal14DestroyMessageEPKv, i8* bitcast (%"class.autofill::AutofillRandomizedFormMetadata_ButtonTitleDefaultTypeInternal"* @_ZN8autofill61_AutofillRandomizedFormMetadata_ButtonTitle_default_instance_E to i8*)) #18
  ret void
}

; Function Attrs: nounwind ssp uwtable
define internal void @_ZL59InitDefaultsscc_info_AutofillRandomizedValue_server_2eprotov() #0 {
  tail call void @_ZN6google8protobuf8internal13VerifyVersionEiiPKc(i32 3013000, i32 3013000, i8* getelementptr inbounds ([56 x i8], [56 x i8]* @.str, i64 0, i64 0)) #18
  store %"class.google::protobuf::Arena"* null, %"class.google::protobuf::Arena"** bitcast (i8* getelementptr inbounds (%"class.autofill::AutofillRandomizedValueDefaultTypeInternal", %"class.autofill::AutofillRandomizedValueDefaultTypeInternal"* @_ZN8autofill42_AutofillRandomizedValue_default_instance_E, i64 0, i32 0, i32 0, i32 1, i64 0) to %"class.google::protobuf::Arena"**), align 8
  store i32 (...)** bitcast (i8** getelementptr inbounds ({ [16 x i8*] }, { [16 x i8*] }* @_ZTVN8autofill23AutofillRandomizedValueE, i64 0, inrange i32 0, i64 2) to i32 (...)**), i32 (...)*** bitcast (%"class.autofill::AutofillRandomizedValueDefaultTypeInternal"* @_ZN8autofill42_AutofillRandomizedValue_default_instance_E to i32 (...)***), align 8
  store i32 0, i32* bitcast (i8* getelementptr inbounds (%"class.autofill::AutofillRandomizedValueDefaultTypeInternal", %"class.autofill::AutofillRandomizedValueDefaultTypeInternal"* @_ZN8autofill42_AutofillRandomizedValue_default_instance_E, i64 0, i32 0, i32 0, i32 1, i64 8) to i32*), align 8
  store i32 0, i32* bitcast (i8* getelementptr inbounds (%"class.autofill::AutofillRandomizedValueDefaultTypeInternal", %"class.autofill::AutofillRandomizedValueDefaultTypeInternal"* @_ZN8autofill42_AutofillRandomizedValue_default_instance_E, i64 0, i32 0, i32 0, i32 1, i64 12) to i32*), align 4
  %1 = load atomic i32, i32* getelementptr inbounds ({ { { { i32 } }, i32, i32, void ()* }, [0 x i8*] }, { { { { i32 } }, i32, i32, void ()* }, [0 x i8*] }* @scc_info_AutofillRandomizedValue_server_2eproto, i64 0, i32 0, i32 0, i32 0, i32 0) acquire, align 8
  %2 = icmp eq i32 %1, 0
  br i1 %2, label %4, label %3, !prof !2

3:                                                ; preds = %0
  tail call void @_ZN6google8protobuf8internal11InitSCCImplEPNS1_11SCCInfoBaseE(%"struct.google::protobuf::internal::SCCInfoBase"* bitcast ({ { { { i32 } }, i32, i32, void ()* }, [0 x i8*] }* @scc_info_AutofillRandomizedValue_server_2eproto to %"struct.google::protobuf::internal::SCCInfoBase"*)) #18
  br label %4

4:                                                ; preds = %0, %3
  store %"class.std::__1::basic_string"* bitcast (%"class.google::protobuf::internal::ExplicitlyConstructed.22"* @_ZN6google8protobuf8internal26fixed_address_empty_stringE to %"class.std::__1::basic_string"*), %"class.std::__1::basic_string"** bitcast (i8* getelementptr inbounds (%"class.autofill::AutofillRandomizedValueDefaultTypeInternal", %"class.autofill::AutofillRandomizedValueDefaultTypeInternal"* @_ZN8autofill42_AutofillRandomizedValue_default_instance_E, i64 0, i32 0, i32 0, i32 1, i64 16) to %"class.std::__1::basic_string"**), align 8
  store i32 0, i32* bitcast (i8* getelementptr inbounds (%"class.autofill::AutofillRandomizedValueDefaultTypeInternal", %"class.autofill::AutofillRandomizedValueDefaultTypeInternal"* @_ZN8autofill42_AutofillRandomizedValue_default_instance_E, i64 0, i32 0, i32 0, i32 1, i64 24) to i32*), align 8
  store i32 -1, i32* bitcast (i8* getelementptr inbounds (%"class.autofill::AutofillRandomizedValueDefaultTypeInternal", %"class.autofill::AutofillRandomizedValueDefaultTypeInternal"* @_ZN8autofill42_AutofillRandomizedValue_default_instance_E, i64 0, i32 0, i32 0, i32 1, i64 28) to i32*), align 4
  tail call void @_ZN6google8protobuf8internal13OnShutdownRunEPFvPKvES3_(void (i8*)* nonnull @_ZN6google8protobuf8internal14DestroyMessageEPKv, i8* bitcast (%"class.autofill::AutofillRandomizedValueDefaultTypeInternal"* @_ZN8autofill42_AutofillRandomizedValue_default_instance_E to i8*)) #18
  ret void
}

; Function Attrs: nounwind ssp uwtable
define internal void @_ZL58InitDefaultsscc_info_AutofillUploadContents_server_2eprotov() #0 {
  tail call void @_ZN6google8protobuf8internal13VerifyVersionEiiPKc(i32 3013000, i32 3013000, i8* getelementptr inbounds ([56 x i8], [56 x i8]* @.str, i64 0, i64 0)) #18
  store %"class.google::protobuf::Arena"* null, %"class.google::protobuf::Arena"** bitcast (i8* getelementptr inbounds (%"class.autofill::AutofillUploadContentsDefaultTypeInternal", %"class.autofill::AutofillUploadContentsDefaultTypeInternal"* @_ZN8autofill41_AutofillUploadContents_default_instance_E, i64 0, i32 0, i32 0, i32 1, i64 0) to %"class.google::protobuf::Arena"**), align 8
  store i32 (...)** bitcast (i8** getelementptr inbounds ({ [16 x i8*] }, { [16 x i8*] }* @_ZTVN8autofill22AutofillUploadContentsE, i64 0, inrange i32 0, i64 2) to i32 (...)**), i32 (...)*** bitcast (%"class.autofill::AutofillUploadContentsDefaultTypeInternal"* @_ZN8autofill41_AutofillUploadContents_default_instance_E to i32 (...)***), align 8
  tail call void @llvm.memset.p0i8.i64(i8* align 8 getelementptr inbounds (%"class.autofill::AutofillUploadContentsDefaultTypeInternal", %"class.autofill::AutofillUploadContentsDefaultTypeInternal"* @_ZN8autofill41_AutofillUploadContents_default_instance_E, i64 0, i32 0, i32 0, i32 1, i64 8), i8 0, i64 56, i1 false) #18
  %1 = load atomic i32, i32* getelementptr inbounds ({ { { { i32 } }, i32, i32, void ()* }, [3 x i8*] }, { { { { i32 } }, i32, i32, void ()* }, [3 x i8*] }* @scc_info_AutofillUploadContents_server_2eproto, i64 0, i32 0, i32 0, i32 0, i32 0) acquire, align 8
  %2 = icmp eq i32 %1, 0
  br i1 %2, label %4, label %3, !prof !2

3:                                                ; preds = %0
  tail call void @_ZN6google8protobuf8internal11InitSCCImplEPNS1_11SCCInfoBaseE(%"struct.google::protobuf::internal::SCCInfoBase"* bitcast ({ { { { i32 } }, i32, i32, void ()* }, [3 x i8*] }* @scc_info_AutofillUploadContents_server_2eproto to %"struct.google::protobuf::internal::SCCInfoBase"*)) #18
  br label %4

4:                                                ; preds = %0, %3
  store <2 x %"class.std::__1::basic_string"*> <%"class.std::__1::basic_string"* bitcast (%"class.google::protobuf::internal::ExplicitlyConstructed.22"* @_ZN6google8protobuf8internal26fixed_address_empty_stringE to %"class.std::__1::basic_string"*), %"class.std::__1::basic_string"* bitcast (%"class.google::protobuf::internal::ExplicitlyConstructed.22"* @_ZN6google8protobuf8internal26fixed_address_empty_stringE to %"class.std::__1::basic_string"*)>, <2 x %"class.std::__1::basic_string"*>* bitcast (i8* getelementptr inbounds (%"class.autofill::AutofillUploadContentsDefaultTypeInternal", %"class.autofill::AutofillUploadContentsDefaultTypeInternal"* @_ZN8autofill41_AutofillUploadContents_default_instance_E, i64 0, i32 0, i32 0, i32 1, i64 64) to <2 x %"class.std::__1::basic_string"*>*), align 8
  store <2 x %"class.std::__1::basic_string"*> <%"class.std::__1::basic_string"* bitcast (%"class.google::protobuf::internal::ExplicitlyConstructed.22"* @_ZN6google8protobuf8internal26fixed_address_empty_stringE to %"class.std::__1::basic_string"*), %"class.std::__1::basic_string"* bitcast (%"class.google::protobuf::internal::ExplicitlyConstructed.22"* @_ZN6google8protobuf8internal26fixed_address_empty_stringE to %"class.std::__1::basic_string"*)>, <2 x %"class.std::__1::basic_string"*>* bitcast (i8* getelementptr inbounds (%"class.autofill::AutofillUploadContentsDefaultTypeInternal", %"class.autofill::AutofillUploadContentsDefaultTypeInternal"* @_ZN8autofill41_AutofillUploadContents_default_instance_E, i64 0, i32 0, i32 0, i32 1, i64 80) to <2 x %"class.std::__1::basic_string"*>*), align 8
  tail call void @llvm.memset.p0i8.i64(i8* align 8 getelementptr inbounds (%"class.autofill::AutofillUploadContentsDefaultTypeInternal", %"class.autofill::AutofillUploadContentsDefaultTypeInternal"* @_ZN8autofill41_AutofillUploadContents_default_instance_E, i64 0, i32 0, i32 0, i32 1, i64 96), i8 0, i64 64, i1 false) #18
  tail call void @_ZN6google8protobuf8internal13OnShutdownRunEPFvPKvES3_(void (i8*)* nonnull @_ZN6google8protobuf8internal14DestroyMessageEPKv, i8* bitcast (%"class.autofill::AutofillUploadContentsDefaultTypeInternal"* @_ZN8autofill41_AutofillUploadContents_default_instance_E to i8*)) #18
  ret void
}

; Function Attrs: nounwind ssp uwtable
define internal void @_ZL70InitDefaultsscc_info_AutofillUploadContents_ButtonTitle_server_2eprotov() #0 {
  tail call void @_ZN6google8protobuf8internal13VerifyVersionEiiPKc(i32 3013000, i32 3013000, i8* getelementptr inbounds ([56 x i8], [56 x i8]* @.str, i64 0, i64 0)) #18
  store %"class.google::protobuf::Arena"* null, %"class.google::protobuf::Arena"** bitcast (i8* getelementptr inbounds (%"class.autofill::AutofillUploadContents_ButtonTitleDefaultTypeInternal", %"class.autofill::AutofillUploadContents_ButtonTitleDefaultTypeInternal"* @_ZN8autofill53_AutofillUploadContents_ButtonTitle_default_instance_E, i64 0, i32 0, i32 0, i32 1, i64 0) to %"class.google::protobuf::Arena"**), align 8
  store i32 (...)** bitcast (i8** getelementptr inbounds ({ [16 x i8*] }, { [16 x i8*] }* @_ZTVN8autofill34AutofillUploadContents_ButtonTitleE, i64 0, inrange i32 0, i64 2) to i32 (...)**), i32 (...)*** bitcast (%"class.autofill::AutofillUploadContents_ButtonTitleDefaultTypeInternal"* @_ZN8autofill53_AutofillUploadContents_ButtonTitle_default_instance_E to i32 (...)***), align 8
  store i32 0, i32* bitcast (i8* getelementptr inbounds (%"class.autofill::AutofillUploadContents_ButtonTitleDefaultTypeInternal", %"class.autofill::AutofillUploadContents_ButtonTitleDefaultTypeInternal"* @_ZN8autofill53_AutofillUploadContents_ButtonTitle_default_instance_E, i64 0, i32 0, i32 0, i32 1, i64 8) to i32*), align 8
  store i32 0, i32* bitcast (i8* getelementptr inbounds (%"class.autofill::AutofillUploadContents_ButtonTitleDefaultTypeInternal", %"class.autofill::AutofillUploadContents_ButtonTitleDefaultTypeInternal"* @_ZN8autofill53_AutofillUploadContents_ButtonTitle_default_instance_E, i64 0, i32 0, i32 0, i32 1, i64 12) to i32*), align 4
  %1 = load atomic i32, i32* getelementptr inbounds ({ { { { i32 } }, i32, i32, void ()* }, [0 x i8*] }, { { { { i32 } }, i32, i32, void ()* }, [0 x i8*] }* @scc_info_AutofillUploadContents_ButtonTitle_server_2eproto, i64 0, i32 0, i32 0, i32 0, i32 0) acquire, align 8
  %2 = icmp eq i32 %1, 0
  br i1 %2, label %4, label %3, !prof !2

3:                                                ; preds = %0
  tail call void @_ZN6google8protobuf8internal11InitSCCImplEPNS1_11SCCInfoBaseE(%"struct.google::protobuf::internal::SCCInfoBase"* bitcast ({ { { { i32 } }, i32, i32, void ()* }, [0 x i8*] }* @scc_info_AutofillUploadContents_ButtonTitle_server_2eproto to %"struct.google::protobuf::internal::SCCInfoBase"*)) #18
  br label %4

4:                                                ; preds = %0, %3
  store %"class.std::__1::basic_string"* bitcast (%"class.google::protobuf::internal::ExplicitlyConstructed.22"* @_ZN6google8protobuf8internal26fixed_address_empty_stringE to %"class.std::__1::basic_string"*), %"class.std::__1::basic_string"** bitcast (i8* getelementptr inbounds (%"class.autofill::AutofillUploadContents_ButtonTitleDefaultTypeInternal", %"class.autofill::AutofillUploadContents_ButtonTitleDefaultTypeInternal"* @_ZN8autofill53_AutofillUploadContents_ButtonTitle_default_instance_E, i64 0, i32 0, i32 0, i32 1, i64 16) to %"class.std::__1::basic_string"**), align 8
  store i32 0, i32* bitcast (i8* getelementptr inbounds (%"class.autofill::AutofillUploadContents_ButtonTitleDefaultTypeInternal", %"class.autofill::AutofillUploadContents_ButtonTitleDefaultTypeInternal"* @_ZN8autofill53_AutofillUploadContents_ButtonTitle_default_instance_E, i64 0, i32 0, i32 0, i32 1, i64 24) to i32*), align 8
  tail call void @_ZN6google8protobuf8internal13OnShutdownRunEPFvPKvES3_(void (i8*)* nonnull @_ZN6google8protobuf8internal14DestroyMessageEPKv, i8* bitcast (%"class.autofill::AutofillUploadContents_ButtonTitleDefaultTypeInternal"* @_ZN8autofill53_AutofillUploadContents_ButtonTitle_default_instance_E to i8*)) #18
  ret void
}

; Function Attrs: nounwind ssp uwtable
define internal void @_ZL64InitDefaultsscc_info_AutofillUploadContents_Field_server_2eprotov() #0 {
  tail call void @_ZN6google8protobuf8internal13VerifyVersionEiiPKc(i32 3013000, i32 3013000, i8* getelementptr inbounds ([56 x i8], [56 x i8]* @.str, i64 0, i64 0)) #18
  store %"class.google::protobuf::Arena"* null, %"class.google::protobuf::Arena"** bitcast (i8* getelementptr inbounds (%"class.autofill::AutofillUploadContents_FieldDefaultTypeInternal", %"class.autofill::AutofillUploadContents_FieldDefaultTypeInternal"* @_ZN8autofill47_AutofillUploadContents_Field_default_instance_E, i64 0, i32 0, i32 0, i32 1, i64 0) to %"class.google::protobuf::Arena"**), align 8
  store i32 (...)** bitcast (i8** getelementptr inbounds ({ [16 x i8*] }, { [16 x i8*] }* @_ZTVN8autofill28AutofillUploadContents_FieldE, i64 0, inrange i32 0, i64 2) to i32 (...)**), i32 (...)*** bitcast (%"class.autofill::AutofillUploadContents_FieldDefaultTypeInternal"* @_ZN8autofill47_AutofillUploadContents_Field_default_instance_E to i32 (...)***), align 8
  tail call void @llvm.memset.p0i8.i64(i8* align 8 getelementptr inbounds (%"class.autofill::AutofillUploadContents_FieldDefaultTypeInternal", %"class.autofill::AutofillUploadContents_FieldDefaultTypeInternal"* @_ZN8autofill47_AutofillUploadContents_Field_default_instance_E, i64 0, i32 0, i32 0, i32 1, i64 8), i8 0, i64 48, i1 false) #18
  %1 = load atomic i32, i32* getelementptr inbounds ({ { { { i32 } }, i32, i32, void ()* }, [2 x i8*] }, { { { { i32 } }, i32, i32, void ()* }, [2 x i8*] }* @scc_info_AutofillUploadContents_Field_server_2eproto, i64 0, i32 0, i32 0, i32 0, i32 0) acquire, align 8
  %2 = icmp eq i32 %1, 0
  br i1 %2, label %4, label %3, !prof !2

3:                                                ; preds = %0
  tail call void @_ZN6google8protobuf8internal11InitSCCImplEPNS1_11SCCInfoBaseE(%"struct.google::protobuf::internal::SCCInfoBase"* bitcast ({ { { { i32 } }, i32, i32, void ()* }, [2 x i8*] }* @scc_info_AutofillUploadContents_Field_server_2eproto to %"struct.google::protobuf::internal::SCCInfoBase"*)) #18
  br label %4

4:                                                ; preds = %0, %3
  store <2 x %"class.std::__1::basic_string"*> <%"class.std::__1::basic_string"* bitcast (%"class.google::protobuf::internal::ExplicitlyConstructed.22"* @_ZN6google8protobuf8internal26fixed_address_empty_stringE to %"class.std::__1::basic_string"*), %"class.std::__1::basic_string"* bitcast (%"class.google::protobuf::internal::ExplicitlyConstructed.22"* @_ZN6google8protobuf8internal26fixed_address_empty_stringE to %"class.std::__1::basic_string"*)>, <2 x %"class.std::__1::basic_string"*>* bitcast (i8* getelementptr inbounds (%"class.autofill::AutofillUploadContents_FieldDefaultTypeInternal", %"class.autofill::AutofillUploadContents_FieldDefaultTypeInternal"* @_ZN8autofill47_AutofillUploadContents_Field_default_instance_E, i64 0, i32 0, i32 0, i32 1, i64 56) to <2 x %"class.std::__1::basic_string"*>*), align 8
  store <2 x %"class.std::__1::basic_string"*> <%"class.std::__1::basic_string"* bitcast (%"class.google::protobuf::internal::ExplicitlyConstructed.22"* @_ZN6google8protobuf8internal26fixed_address_empty_stringE to %"class.std::__1::basic_string"*), %"class.std::__1::basic_string"* bitcast (%"class.google::protobuf::internal::ExplicitlyConstructed.22"* @_ZN6google8protobuf8internal26fixed_address_empty_stringE to %"class.std::__1::basic_string"*)>, <2 x %"class.std::__1::basic_string"*>* bitcast (i8* getelementptr inbounds (%"class.autofill::AutofillUploadContents_FieldDefaultTypeInternal", %"class.autofill::AutofillUploadContents_FieldDefaultTypeInternal"* @_ZN8autofill47_AutofillUploadContents_Field_default_instance_E, i64 0, i32 0, i32 0, i32 1, i64 72) to <2 x %"class.std::__1::basic_string"*>*), align 8
  store %"class.std::__1::basic_string"* bitcast (%"class.google::protobuf::internal::ExplicitlyConstructed.22"* @_ZN6google8protobuf8internal26fixed_address_empty_stringE to %"class.std::__1::basic_string"*), %"class.std::__1::basic_string"** bitcast (i8* getelementptr inbounds (%"class.autofill::AutofillUploadContents_FieldDefaultTypeInternal", %"class.autofill::AutofillUploadContents_FieldDefaultTypeInternal"* @_ZN8autofill47_AutofillUploadContents_Field_default_instance_E, i64 0, i32 0, i32 0, i32 1, i64 88) to %"class.std::__1::basic_string"**), align 8
  tail call void @llvm.memset.p0i8.i64(i8* align 8 getelementptr inbounds (%"class.autofill::AutofillUploadContents_FieldDefaultTypeInternal", %"class.autofill::AutofillUploadContents_FieldDefaultTypeInternal"* @_ZN8autofill47_AutofillUploadContents_Field_default_instance_E, i64 0, i32 0, i32 0, i32 1, i64 96), i8 0, i64 32, i1 false) #18
  tail call void @_ZN6google8protobuf8internal13OnShutdownRunEPFvPKvES3_(void (i8*)* nonnull @_ZN6google8protobuf8internal14DestroyMessageEPKv, i8* bitcast (%"class.autofill::AutofillUploadContents_FieldDefaultTypeInternal"* @_ZN8autofill47_AutofillUploadContents_Field_default_instance_E to i8*)) #18
  ret void
}

; Function Attrs: nounwind ssp uwtable
define internal void @_ZL91InitDefaultsscc_info_AutofillUploadContents_Field_AutofillTypeValiditiesPair_server_2eprotov() #0 {
  tail call void @_ZN6google8protobuf8internal13VerifyVersionEiiPKc(i32 3013000, i32 3013000, i8* getelementptr inbounds ([56 x i8], [56 x i8]* @.str, i64 0, i64 0)) #18
  store %"class.google::protobuf::Arena"* null, %"class.google::protobuf::Arena"** bitcast (i8* getelementptr inbounds (%"class.autofill::AutofillUploadContents_Field_AutofillTypeValiditiesPairDefaultTypeInternal", %"class.autofill::AutofillUploadContents_Field_AutofillTypeValiditiesPairDefaultTypeInternal"* @_ZN8autofill74_AutofillUploadContents_Field_AutofillTypeValiditiesPair_default_instance_E, i64 0, i32 0, i32 0, i32 1, i64 0) to %"class.google::protobuf::Arena"**), align 8
  store i32 (...)** bitcast (i8** getelementptr inbounds ({ [16 x i8*] }, { [16 x i8*] }* @_ZTVN8autofill55AutofillUploadContents_Field_AutofillTypeValiditiesPairE, i64 0, inrange i32 0, i64 2) to i32 (...)**), i32 (...)*** bitcast (%"class.autofill::AutofillUploadContents_Field_AutofillTypeValiditiesPairDefaultTypeInternal"* @_ZN8autofill74_AutofillUploadContents_Field_AutofillTypeValiditiesPair_default_instance_E to i32 (...)***), align 8
  tail call void @llvm.memset.p0i8.i64(i8* align 8 getelementptr inbounds (%"class.autofill::AutofillUploadContents_Field_AutofillTypeValiditiesPairDefaultTypeInternal", %"class.autofill::AutofillUploadContents_Field_AutofillTypeValiditiesPairDefaultTypeInternal"* @_ZN8autofill74_AutofillUploadContents_Field_AutofillTypeValiditiesPair_default_instance_E, i64 0, i32 0, i32 0, i32 1, i64 8), i8 0, i64 28, i1 false) #18
  tail call void @_ZN6google8protobuf8internal13OnShutdownRunEPFvPKvES3_(void (i8*)* nonnull @_ZN6google8protobuf8internal14DestroyMessageEPKv, i8* bitcast (%"class.autofill::AutofillUploadContents_Field_AutofillTypeValiditiesPairDefaultTypeInternal"* @_ZN8autofill74_AutofillUploadContents_Field_AutofillTypeValiditiesPair_default_instance_E to i8*)) #18
  ret void
}

; Function Attrs: nounwind ssp uwtable
define internal void @_ZL54InitDefaultsscc_info_ProfileValidityMap_server_2eprotov() #0 {
  tail call void @_ZN6google8protobuf8internal13VerifyVersionEiiPKc(i32 3013000, i32 3013000, i8* getelementptr inbounds ([56 x i8], [56 x i8]* @.str, i64 0, i64 0)) #18
  store %"class.google::protobuf::Arena"* null, %"class.google::protobuf::Arena"** bitcast (i8* getelementptr inbounds (%"class.autofill::ProfileValidityMapDefaultTypeInternal", %"class.autofill::ProfileValidityMapDefaultTypeInternal"* @_ZN8autofill37_ProfileValidityMap_default_instance_E, i64 0, i32 0, i32 0, i32 1, i64 0) to %"class.google::protobuf::Arena"**), align 8
  store i32 (...)** bitcast (i8** getelementptr inbounds ({ [16 x i8*] }, { [16 x i8*] }* @_ZTVN8autofill18ProfileValidityMapE, i64 0, inrange i32 0, i64 2) to i32 (...)**), i32 (...)*** bitcast (%"class.autofill::ProfileValidityMapDefaultTypeInternal"* @_ZN8autofill37_ProfileValidityMap_default_instance_E to i32 (...)***), align 8
  store <2 x i64> <i64 0, i64 1>, <2 x i64>* bitcast (i8* getelementptr inbounds (%"class.autofill::ProfileValidityMapDefaultTypeInternal", %"class.autofill::ProfileValidityMapDefaultTypeInternal"* @_ZN8autofill37_ProfileValidityMap_default_instance_E, i64 0, i32 0, i32 0, i32 1, i64 8) to <2 x i64>*), align 8
  %1 = tail call { i32, i32 } asm sideeffect "rdtsc", "={ax},={dx},~{dirflag},~{fpsr},~{flags}"() #18, !srcloc !3
  %2 = extractvalue { i32, i32 } %1, 0
  %3 = extractvalue { i32, i32 } %1, 1
  %4 = zext i32 %3 to i64
  %5 = shl nuw i64 %4, 32
  %6 = zext i32 %2 to i64
  %7 = or i64 %5, %6
  %8 = add i64 %7, lshr (i64 ptrtoint (i8* getelementptr inbounds (%"class.autofill::ProfileValidityMapDefaultTypeInternal", %"class.autofill::ProfileValidityMapDefaultTypeInternal"* @_ZN8autofill37_ProfileValidityMap_default_instance_E, i64 0, i32 0, i32 0, i32 1, i64 8) to i64), i64 12)
  store i64 %8, i64* bitcast (i8* getelementptr inbounds (%"class.autofill::ProfileValidityMapDefaultTypeInternal", %"class.autofill::ProfileValidityMapDefaultTypeInternal"* @_ZN8autofill37_ProfileValidityMap_default_instance_E, i64 0, i32 0, i32 0, i32 1, i64 24) to i64*), align 8
  %9 = load i64, i64* bitcast (i8* getelementptr inbounds (%"class.autofill::ProfileValidityMapDefaultTypeInternal", %"class.autofill::ProfileValidityMapDefaultTypeInternal"* @_ZN8autofill37_ProfileValidityMap_default_instance_E, i64 0, i32 0, i32 0, i32 1, i64 16) to i64*), align 8
  store i64 %9, i64* bitcast (i8* getelementptr inbounds (%"class.autofill::ProfileValidityMapDefaultTypeInternal", %"class.autofill::ProfileValidityMapDefaultTypeInternal"* @_ZN8autofill37_ProfileValidityMap_default_instance_E, i64 0, i32 0, i32 0, i32 1, i64 32) to i64*), align 8
  store i8** getelementptr inbounds ([1 x i8*], [1 x i8*]* @_ZN6google8protobuf8internal17kGlobalEmptyTableE, i64 0, i64 0), i8*** bitcast (i8* getelementptr inbounds (%"class.autofill::ProfileValidityMapDefaultTypeInternal", %"class.autofill::ProfileValidityMapDefaultTypeInternal"* @_ZN8autofill37_ProfileValidityMap_default_instance_E, i64 0, i32 0, i32 0, i32 1, i64 40) to i8***), align 8
  store %"class.google::protobuf::Arena"* null, %"class.google::protobuf::Arena"** bitcast (i8* getelementptr inbounds (%"class.autofill::ProfileValidityMapDefaultTypeInternal", %"class.autofill::ProfileValidityMapDefaultTypeInternal"* @_ZN8autofill37_ProfileValidityMap_default_instance_E, i64 0, i32 0, i32 0, i32 1, i64 48) to %"class.google::protobuf::Arena"**), align 8
  store i32 0, i32* bitcast (i8* getelementptr inbounds (%"class.autofill::ProfileValidityMapDefaultTypeInternal", %"class.autofill::ProfileValidityMapDefaultTypeInternal"* @_ZN8autofill37_ProfileValidityMap_default_instance_E, i64 0, i32 0, i32 0, i32 1, i64 56) to i32*), align 8
  %10 = load atomic i32, i32* getelementptr inbounds ({ { { { i32 } }, i32, i32, void ()* }, [1 x i8*] }, { { { { i32 } }, i32, i32, void ()* }, [1 x i8*] }* @scc_info_ProfileValidityMap_server_2eproto, i64 0, i32 0, i32 0, i32 0, i32 0) acquire, align 8
  %11 = icmp eq i32 %10, 0
  br i1 %11, label %13, label %12, !prof !2

12:                                               ; preds = %0
  tail call void @_ZN6google8protobuf8internal11InitSCCImplEPNS1_11SCCInfoBaseE(%"struct.google::protobuf::internal::SCCInfoBase"* bitcast ({ { { { i32 } }, i32, i32, void ()* }, [1 x i8*] }* @scc_info_ProfileValidityMap_server_2eproto to %"struct.google::protobuf::internal::SCCInfoBase"*)) #18
  br label %13

13:                                               ; preds = %0, %12
  tail call void @_ZN6google8protobuf8internal13OnShutdownRunEPFvPKvES3_(void (i8*)* nonnull @_ZN6google8protobuf8internal14DestroyMessageEPKv, i8* bitcast (%"class.autofill::ProfileValidityMapDefaultTypeInternal"* @_ZN8autofill37_ProfileValidityMap_default_instance_E to i8*)) #18
  ret void
}

; Function Attrs: nounwind ssp uwtable
define internal void @_ZL88InitDefaultsscc_info_ProfileValidityMap_FieldValidityStatesEntry_DoNotUse_server_2eprotov() #0 {
  tail call void @_ZN6google8protobuf8internal13VerifyVersionEiiPKc(i32 3013000, i32 3013000, i8* getelementptr inbounds ([56 x i8], [56 x i8]* @.str, i64 0, i64 0)) #18
  tail call void @llvm.memset.p0i8.i64(i8* align 8 getelementptr inbounds (%"class.autofill::ProfileValidityMap_FieldValidityStatesEntry_DoNotUseDefaultTypeInternal", %"class.autofill::ProfileValidityMap_FieldValidityStatesEntry_DoNotUseDefaultTypeInternal"* @_ZN8autofill71_ProfileValidityMap_FieldValidityStatesEntry_DoNotUse_default_instance_E, i64 0, i32 0, i32 0, i32 1, i64 0), i8 0, i64 20, i1 false) #18
  store i32 (...)** bitcast (i8** getelementptr inbounds ({ [18 x i8*] }, { [18 x i8*] }* @_ZTVN8autofill52ProfileValidityMap_FieldValidityStatesEntry_DoNotUseE, i64 0, inrange i32 0, i64 2) to i32 (...)**), i32 (...)*** bitcast (%"class.autofill::ProfileValidityMap_FieldValidityStatesEntry_DoNotUseDefaultTypeInternal"* @_ZN8autofill71_ProfileValidityMap_FieldValidityStatesEntry_DoNotUse_default_instance_E to i32 (...)***), align 8
  ret void
}

; Function Attrs: nounwind ssp uwtable
define internal void @_ZL58InitDefaultsscc_info_UserProfileValidityMap_server_2eprotov() #0 {
  tail call void @_ZN6google8protobuf8internal13VerifyVersionEiiPKc(i32 3013000, i32 3013000, i8* getelementptr inbounds ([56 x i8], [56 x i8]* @.str, i64 0, i64 0)) #18
  store %"class.google::protobuf::Arena"* null, %"class.google::protobuf::Arena"** bitcast (i8* getelementptr inbounds (%"class.autofill::UserProfileValidityMapDefaultTypeInternal", %"class.autofill::UserProfileValidityMapDefaultTypeInternal"* @_ZN8autofill41_UserProfileValidityMap_default_instance_E, i64 0, i32 0, i32 0, i32 1, i64 0) to %"class.google::protobuf::Arena"**), align 8
  store i32 (...)** bitcast (i8** getelementptr inbounds ({ [16 x i8*] }, { [16 x i8*] }* @_ZTVN8autofill22UserProfileValidityMapE, i64 0, inrange i32 0, i64 2) to i32 (...)**), i32 (...)*** bitcast (%"class.autofill::UserProfileValidityMapDefaultTypeInternal"* @_ZN8autofill41_UserProfileValidityMap_default_instance_E to i32 (...)***), align 8
  store <2 x i64> <i64 0, i64 1>, <2 x i64>* bitcast (i8* getelementptr inbounds (%"class.autofill::UserProfileValidityMapDefaultTypeInternal", %"class.autofill::UserProfileValidityMapDefaultTypeInternal"* @_ZN8autofill41_UserProfileValidityMap_default_instance_E, i64 0, i32 0, i32 0, i32 1, i64 8) to <2 x i64>*), align 8
  %1 = tail call { i32, i32 } asm sideeffect "rdtsc", "={ax},={dx},~{dirflag},~{fpsr},~{flags}"() #18, !srcloc !3
  %2 = extractvalue { i32, i32 } %1, 0
  %3 = extractvalue { i32, i32 } %1, 1
  %4 = zext i32 %3 to i64
  %5 = shl nuw i64 %4, 32
  %6 = zext i32 %2 to i64
  %7 = or i64 %5, %6
  %8 = add i64 %7, lshr (i64 ptrtoint (i8* getelementptr inbounds (%"class.autofill::UserProfileValidityMapDefaultTypeInternal", %"class.autofill::UserProfileValidityMapDefaultTypeInternal"* @_ZN8autofill41_UserProfileValidityMap_default_instance_E, i64 0, i32 0, i32 0, i32 1, i64 8) to i64), i64 12)
  store i64 %8, i64* bitcast (i8* getelementptr inbounds (%"class.autofill::UserProfileValidityMapDefaultTypeInternal", %"class.autofill::UserProfileValidityMapDefaultTypeInternal"* @_ZN8autofill41_UserProfileValidityMap_default_instance_E, i64 0, i32 0, i32 0, i32 1, i64 24) to i64*), align 8
  %9 = load i64, i64* bitcast (i8* getelementptr inbounds (%"class.autofill::UserProfileValidityMapDefaultTypeInternal", %"class.autofill::UserProfileValidityMapDefaultTypeInternal"* @_ZN8autofill41_UserProfileValidityMap_default_instance_E, i64 0, i32 0, i32 0, i32 1, i64 16) to i64*), align 8
  store i64 %9, i64* bitcast (i8* getelementptr inbounds (%"class.autofill::UserProfileValidityMapDefaultTypeInternal", %"class.autofill::UserProfileValidityMapDefaultTypeInternal"* @_ZN8autofill41_UserProfileValidityMap_default_instance_E, i64 0, i32 0, i32 0, i32 1, i64 32) to i64*), align 8
  store i8** getelementptr inbounds ([1 x i8*], [1 x i8*]* @_ZN6google8protobuf8internal17kGlobalEmptyTableE, i64 0, i64 0), i8*** bitcast (i8* getelementptr inbounds (%"class.autofill::UserProfileValidityMapDefaultTypeInternal", %"class.autofill::UserProfileValidityMapDefaultTypeInternal"* @_ZN8autofill41_UserProfileValidityMap_default_instance_E, i64 0, i32 0, i32 0, i32 1, i64 40) to i8***), align 8
  store %"class.google::protobuf::Arena"* null, %"class.google::protobuf::Arena"** bitcast (i8* getelementptr inbounds (%"class.autofill::UserProfileValidityMapDefaultTypeInternal", %"class.autofill::UserProfileValidityMapDefaultTypeInternal"* @_ZN8autofill41_UserProfileValidityMap_default_instance_E, i64 0, i32 0, i32 0, i32 1, i64 48) to %"class.google::protobuf::Arena"**), align 8
  store i32 0, i32* bitcast (i8* getelementptr inbounds (%"class.autofill::UserProfileValidityMapDefaultTypeInternal", %"class.autofill::UserProfileValidityMapDefaultTypeInternal"* @_ZN8autofill41_UserProfileValidityMap_default_instance_E, i64 0, i32 0, i32 0, i32 1, i64 56) to i32*), align 8
  %10 = load atomic i32, i32* getelementptr inbounds ({ { { { i32 } }, i32, i32, void ()* }, [1 x i8*] }, { { { { i32 } }, i32, i32, void ()* }, [1 x i8*] }* @scc_info_UserProfileValidityMap_server_2eproto, i64 0, i32 0, i32 0, i32 0, i32 0) acquire, align 8
  %11 = icmp eq i32 %10, 0
  br i1 %11, label %13, label %12, !prof !2

12:                                               ; preds = %0
  tail call void @_ZN6google8protobuf8internal11InitSCCImplEPNS1_11SCCInfoBaseE(%"struct.google::protobuf::internal::SCCInfoBase"* bitcast ({ { { { i32 } }, i32, i32, void ()* }, [1 x i8*] }* @scc_info_UserProfileValidityMap_server_2eproto to %"struct.google::protobuf::internal::SCCInfoBase"*)) #18
  br label %13

13:                                               ; preds = %0, %12
  tail call void @_ZN6google8protobuf8internal13OnShutdownRunEPFvPKvES3_(void (i8*)* nonnull @_ZN6google8protobuf8internal14DestroyMessageEPKv, i8* bitcast (%"class.autofill::UserProfileValidityMapDefaultTypeInternal"* @_ZN8autofill41_UserProfileValidityMap_default_instance_E to i8*)) #18
  ret void
}

; Function Attrs: nounwind ssp uwtable
define internal void @_ZL88InitDefaultsscc_info_UserProfileValidityMap_ProfileValidityEntry_DoNotUse_server_2eprotov() #0 {
  tail call void @_ZN6google8protobuf8internal13VerifyVersionEiiPKc(i32 3013000, i32 3013000, i8* getelementptr inbounds ([56 x i8], [56 x i8]* @.str, i64 0, i64 0)) #18
  store i8* null, i8** bitcast (i8* getelementptr inbounds (%"class.autofill::UserProfileValidityMap_ProfileValidityEntry_DoNotUseDefaultTypeInternal", %"class.autofill::UserProfileValidityMap_ProfileValidityEntry_DoNotUseDefaultTypeInternal"* @_ZN8autofill71_UserProfileValidityMap_ProfileValidityEntry_DoNotUse_default_instance_E, i64 0, i32 0, i32 0, i32 1, i64 0) to i8**), align 8
  store %"class.std::__1::basic_string"* bitcast (%"class.google::protobuf::internal::ExplicitlyConstructed.22"* @_ZN6google8protobuf8internal26fixed_address_empty_stringE to %"class.std::__1::basic_string"*), %"class.std::__1::basic_string"** bitcast (i8* getelementptr inbounds (%"class.autofill::UserProfileValidityMap_ProfileValidityEntry_DoNotUseDefaultTypeInternal", %"class.autofill::UserProfileValidityMap_ProfileValidityEntry_DoNotUseDefaultTypeInternal"* @_ZN8autofill71_UserProfileValidityMap_ProfileValidityEntry_DoNotUse_default_instance_E, i64 0, i32 0, i32 0, i32 1, i64 8) to %"class.std::__1::basic_string"**), align 8
  store %"class.autofill::ProfileValidityMap"* null, %"class.autofill::ProfileValidityMap"** bitcast (i8* getelementptr inbounds (%"class.autofill::UserProfileValidityMap_ProfileValidityEntry_DoNotUseDefaultTypeInternal", %"class.autofill::UserProfileValidityMap_ProfileValidityEntry_DoNotUseDefaultTypeInternal"* @_ZN8autofill71_UserProfileValidityMap_ProfileValidityEntry_DoNotUse_default_instance_E, i64 0, i32 0, i32 0, i32 1, i64 16) to %"class.autofill::ProfileValidityMap"**), align 8
  store i32 0, i32* bitcast (i8* getelementptr inbounds (%"class.autofill::UserProfileValidityMap_ProfileValidityEntry_DoNotUseDefaultTypeInternal", %"class.autofill::UserProfileValidityMap_ProfileValidityEntry_DoNotUseDefaultTypeInternal"* @_ZN8autofill71_UserProfileValidityMap_ProfileValidityEntry_DoNotUse_default_instance_E, i64 0, i32 0, i32 0, i32 1, i64 24) to i32*), align 8
  store i32 (...)** bitcast (i8** getelementptr inbounds ({ [18 x i8*] }, { [18 x i8*] }* @_ZTVN8autofill52UserProfileValidityMap_ProfileValidityEntry_DoNotUseE, i64 0, inrange i32 0, i64 2) to i32 (...)**), i32 (...)*** bitcast (%"class.autofill::UserProfileValidityMap_ProfileValidityEntry_DoNotUseDefaultTypeInternal"* @_ZN8autofill71_UserProfileValidityMap_ProfileValidityEntry_DoNotUse_default_instance_E to i32 (...)***), align 8
  ret void
}

; Function Attrs: norecurse nounwind readnone ssp uwtable
define hidden zeroext i1 @_ZN8autofill44AutofillRandomizedValue_EncodingType_IsValidEi(i32) local_unnamed_addr #1 {
  %2 = add i32 %0, 1
  %3 = icmp ult i32 %2, 12
  ret i1 %3
}

; Function Attrs: argmemonly nounwind
declare {}* @llvm.invariant.start.p0i8(i64 immarg, i8* nocapture) #2

; Function Attrs: nounwind ssp uwtable
define hidden dereferenceable(24) %"class.std::__1::basic_string"* @_ZN8autofill41AutofillRandomizedValue_EncodingType_NameENS_36AutofillRandomizedValue_EncodingTypeE(i32) local_unnamed_addr #0 {
  %2 = load atomic i8, i8* bitcast (i64* @_ZGVZN8autofill41AutofillRandomizedValue_EncodingType_NameENS_36AutofillRandomizedValue_EncodingTypeEE5dummy to i8*) acquire, align 8
  %3 = icmp eq i8 %2, 0
  br i1 %3, label %4, label %11, !prof !4

4:                                                ; preds = %1
  %5 = tail call i32 @__cxa_guard_acquire(i64* nonnull @_ZGVZN8autofill41AutofillRandomizedValue_EncodingType_NameENS_36AutofillRandomizedValue_EncodingTypeEE5dummy) #18
  %6 = icmp eq i32 %5, 0
  br i1 %6, label %11, label %7

7:                                                ; preds = %4
  %8 = tail call zeroext i1 @_ZN6google8protobuf8internal21InitializeEnumStringsEPKNS1_9EnumEntryEPKimPNS1_21ExplicitlyConstructedINSt3__112basic_stringIcNS8_11char_traitsIcEENS8_9allocatorIcEEEEEE(%"struct.google::protobuf::internal::EnumEntry"* getelementptr inbounds ([12 x %"struct.google::protobuf::internal::EnumEntry"], [12 x %"struct.google::protobuf::internal::EnumEntry"]* @_ZN8autofillL44AutofillRandomizedValue_EncodingType_entriesE, i64 0, i64 0), i32* getelementptr inbounds ([12 x i32], [12 x i32]* @_ZN8autofillL54AutofillRandomizedValue_EncodingType_entries_by_numberE, i64 0, i64 0), i64 12, %"class.google::protobuf::internal::ExplicitlyConstructed.22"* getelementptr inbounds ([12 x %"class.google::protobuf::internal::ExplicitlyConstructed.22"], [12 x %"class.google::protobuf::internal::ExplicitlyConstructed.22"]* @_ZN8autofillL44AutofillRandomizedValue_EncodingType_stringsE, i64 0, i64 0)) #18
  %9 = zext i1 %8 to i8
  store i8 %9, i8* @_ZZN8autofill41AutofillRandomizedValue_EncodingType_NameENS_36AutofillRandomizedValue_EncodingTypeEE5dummy, align 1
  %10 = tail call {}* @llvm.invariant.start.p0i8(i64 1, i8* nonnull @_ZZN8autofill41AutofillRandomizedValue_EncodingType_NameENS_36AutofillRandomizedValue_EncodingTypeEE5dummy)
  tail call void @__cxa_guard_release(i64* nonnull @_ZGVZN8autofill41AutofillRandomizedValue_EncodingType_NameENS_36AutofillRandomizedValue_EncodingTypeEE5dummy) #18
  br label %11

11:                                               ; preds = %4, %7, %1
  %12 = tail call i32 @_ZN6google8protobuf8internal14LookUpEnumNameEPKNS1_9EnumEntryEPKimi(%"struct.google::protobuf::internal::EnumEntry"* getelementptr inbounds ([12 x %"struct.google::protobuf::internal::EnumEntry"], [12 x %"struct.google::protobuf::internal::EnumEntry"]* @_ZN8autofillL44AutofillRandomizedValue_EncodingType_entriesE, i64 0, i64 0), i32* getelementptr inbounds ([12 x i32], [12 x i32]* @_ZN8autofillL54AutofillRandomizedValue_EncodingType_entries_by_numberE, i64 0, i64 0), i64 12, i32 %0) #18
  %13 = icmp eq i32 %12, -1
  br i1 %13, label %14, label %16

14:                                               ; preds = %11
  %15 = tail call dereferenceable(24) %"class.std::__1::basic_string"* @_ZN6google8protobuf8internal14GetEmptyStringEv() #18
  br label %20

16:                                               ; preds = %11
  %17 = sext i32 %12 to i64
  %18 = getelementptr inbounds [12 x %"class.google::protobuf::internal::ExplicitlyConstructed.22"], [12 x %"class.google::protobuf::internal::ExplicitlyConstructed.22"]* @_ZN8autofillL44AutofillRandomizedValue_EncodingType_stringsE, i64 0, i64 %17
  %19 = bitcast %"class.google::protobuf::internal::ExplicitlyConstructed.22"* %18 to %"class.std::__1::basic_string"*
  br label %20

20:                                               ; preds = %16, %14
  %21 = phi %"class.std::__1::basic_string"* [ %15, %14 ], [ %19, %16 ]
  ret %"class.std::__1::basic_string"* %21
}

; Function Attrs: nofree nounwind
declare i32 @__cxa_guard_acquire(i64*) local_unnamed_addr #3

declare zeroext i1 @_ZN6google8protobuf8internal21InitializeEnumStringsEPKNS1_9EnumEntryEPKimPNS1_21ExplicitlyConstructedINSt3__112basic_stringIcNS8_11char_traitsIcEENS8_9allocatorIcEEEEEE(%"struct.google::protobuf::internal::EnumEntry"*, i32*, i64, %"class.google::protobuf::internal::ExplicitlyConstructed.22"*) local_unnamed_addr #4

; Function Attrs: nofree nounwind
declare void @__cxa_guard_release(i64*) local_unnamed_addr #3

; Function Attrs: argmemonly nounwind
declare void @llvm.lifetime.start.p0i8(i64 immarg, i8* nocapture) #2

declare i32 @_ZN6google8protobuf8internal14LookUpEnumNameEPKNS1_9EnumEntryEPKimi(%"struct.google::protobuf::internal::EnumEntry"*, i32*, i64, i32) local_unnamed_addr #4

declare dereferenceable(24) %"class.std::__1::basic_string"* @_ZN6google8protobuf8internal14GetEmptyStringEv() local_unnamed_addr #4

; Function Attrs: argmemonly nounwind
declare void @llvm.lifetime.end.p0i8(i64 immarg, i8* nocapture) #2

; Function Attrs: nounwind ssp uwtable
define hidden zeroext i1 @_ZN8autofill42AutofillRandomizedValue_EncodingType_ParseERKNSt3__112basic_stringIcNS0_11char_traitsIcEENS0_9allocatorIcEEEEPNS_36AutofillRandomizedValue_EncodingTypeE(%"class.std::__1::basic_string"* dereferenceable(24), i32* nocapture) local_unnamed_addr #0 {
  %3 = alloca i32, align 4
  %4 = bitcast i32* %3 to i8*
  call void @llvm.lifetime.start.p0i8(i64 4, i8* nonnull %4) #18
  store i32 -1431655766, i32* %3, align 4
  %5 = bitcast %"class.std::__1::basic_string"* %0 to %"struct.std::__1::basic_string<char, std::__1::char_traits<char>, std::__1::allocator<char> >::__short"*
  %6 = getelementptr inbounds %"struct.std::__1::basic_string<char, std::__1::char_traits<char>, std::__1::allocator<char> >::__short", %"struct.std::__1::basic_string<char, std::__1::char_traits<char>, std::__1::allocator<char> >::__short"* %5, i64 0, i32 1, i32 0
  %7 = load i8, i8* %6, align 1
  %8 = icmp slt i8 %7, 0
  %9 = getelementptr inbounds %"class.std::__1::basic_string", %"class.std::__1::basic_string"* %0, i64 0, i32 0, i32 0, i32 0, i32 0, i32 0, i32 0
  %10 = load i8*, i8** %9, align 8
  %11 = bitcast %"class.std::__1::basic_string"* %0 to i8*
  %12 = select i1 %8, i8* %10, i8* %11
  br i1 %8, label %15, label %13

13:                                               ; preds = %2
  %14 = zext i8 %7 to i64
  br label %20

15:                                               ; preds = %2
  %16 = getelementptr inbounds %"class.std::__1::basic_string", %"class.std::__1::basic_string"* %0, i64 0, i32 0, i32 0, i32 0, i32 0, i32 0, i32 1
  %17 = load i64, i64* %16, align 8
  %18 = icmp slt i64 %17, 0
  br i1 %18, label %19, label %20

19:                                               ; preds = %15
  tail call void @_ZN6google8protobuf11StringPiece18LogFatalSizeTooBigEmPKc(i64 %17, i8* getelementptr inbounds ([25 x i8], [25 x i8]* @.str.82, i64 0, i64 0)) #18
  br label %20

20:                                               ; preds = %13, %15, %19
  %21 = phi i64 [ %14, %13 ], [ %17, %15 ], [ %17, %19 ]
  %22 = call zeroext i1 @_ZN6google8protobuf8internal15LookUpEnumValueEPKNS1_9EnumEntryEmNS0_11StringPieceEPi(%"struct.google::protobuf::internal::EnumEntry"* getelementptr inbounds ([12 x %"struct.google::protobuf::internal::EnumEntry"], [12 x %"struct.google::protobuf::internal::EnumEntry"]* @_ZN8autofillL44AutofillRandomizedValue_EncodingType_entriesE, i64 0, i64 0), i64 12, i8* %12, i64 %21, i32* nonnull %3) #18
  br i1 %22, label %23, label %25

23:                                               ; preds = %20
  %24 = load i32, i32* %3, align 4
  store i32 %24, i32* %1, align 4
  br label %25

25:                                               ; preds = %23, %20
  call void @llvm.lifetime.end.p0i8(i64 4, i8* nonnull %4) #18
  ret i1 %22
}

declare zeroext i1 @_ZN6google8protobuf8internal15LookUpEnumValueEPKNS1_9EnumEntryEmNS0_11StringPieceEPi(%"struct.google::protobuf::internal::EnumEntry"*, i64, i8*, i64, i32*) local_unnamed_addr #4

; Function Attrs: norecurse nounwind readnone ssp uwtable
define hidden zeroext i1 @_ZN8autofill59AutofillUploadContents_Field_PasswordGenerationType_IsValidEi(i32) local_unnamed_addr #1 {
  %2 = icmp ult i32 %0, 6
  ret i1 %2
}

; Function Attrs: nounwind ssp uwtable
define hidden dereferenceable(24) %"class.std::__1::basic_string"* @_ZN8autofill56AutofillUploadContents_Field_PasswordGenerationType_NameENS_51AutofillUploadContents_Field_PasswordGenerationTypeE(i32) local_unnamed_addr #0 {
  %2 = load atomic i8, i8* bitcast (i64* @_ZGVZN8autofill56AutofillUploadContents_Field_PasswordGenerationType_NameENS_51AutofillUploadContents_Field_PasswordGenerationTypeEE5dummy to i8*) acquire, align 8
  %3 = icmp eq i8 %2, 0
  br i1 %3, label %4, label %11, !prof !4

4:                                                ; preds = %1
  %5 = tail call i32 @__cxa_guard_acquire(i64* nonnull @_ZGVZN8autofill56AutofillUploadContents_Field_PasswordGenerationType_NameENS_51AutofillUploadContents_Field_PasswordGenerationTypeEE5dummy) #18
  %6 = icmp eq i32 %5, 0
  br i1 %6, label %11, label %7

7:                                                ; preds = %4
  %8 = tail call zeroext i1 @_ZN6google8protobuf8internal21InitializeEnumStringsEPKNS1_9EnumEntryEPKimPNS1_21ExplicitlyConstructedINSt3__112basic_stringIcNS8_11char_traitsIcEENS8_9allocatorIcEEEEEE(%"struct.google::protobuf::internal::EnumEntry"* getelementptr inbounds ([6 x %"struct.google::protobuf::internal::EnumEntry"], [6 x %"struct.google::protobuf::internal::EnumEntry"]* @_ZN8autofillL59AutofillUploadContents_Field_PasswordGenerationType_entriesE, i64 0, i64 0), i32* getelementptr inbounds ([6 x i32], [6 x i32]* @_ZN8autofillL69AutofillUploadContents_Field_PasswordGenerationType_entries_by_numberE, i64 0, i64 0), i64 6, %"class.google::protobuf::internal::ExplicitlyConstructed.22"* getelementptr inbounds ([6 x %"class.google::protobuf::internal::ExplicitlyConstructed.22"], [6 x %"class.google::protobuf::internal::ExplicitlyConstructed.22"]* @_ZN8autofillL59AutofillUploadContents_Field_PasswordGenerationType_stringsE, i64 0, i64 0)) #18
  %9 = zext i1 %8 to i8
  store i8 %9, i8* @_ZZN8autofill56AutofillUploadContents_Field_PasswordGenerationType_NameENS_51AutofillUploadContents_Field_PasswordGenerationTypeEE5dummy, align 1
  %10 = tail call {}* @llvm.invariant.start.p0i8(i64 1, i8* nonnull @_ZZN8autofill56AutofillUploadContents_Field_PasswordGenerationType_NameENS_51AutofillUploadContents_Field_PasswordGenerationTypeEE5dummy)
  tail call void @__cxa_guard_release(i64* nonnull @_ZGVZN8autofill56AutofillUploadContents_Field_PasswordGenerationType_NameENS_51AutofillUploadContents_Field_PasswordGenerationTypeEE5dummy) #18
  br label %11

11:                                               ; preds = %4, %7, %1
  %12 = tail call i32 @_ZN6google8protobuf8internal14LookUpEnumNameEPKNS1_9EnumEntryEPKimi(%"struct.google::protobuf::internal::EnumEntry"* getelementptr inbounds ([6 x %"struct.google::protobuf::internal::EnumEntry"], [6 x %"struct.google::protobuf::internal::EnumEntry"]* @_ZN8autofillL59AutofillUploadContents_Field_PasswordGenerationType_entriesE, i64 0, i64 0), i32* getelementptr inbounds ([6 x i32], [6 x i32]* @_ZN8autofillL69AutofillUploadContents_Field_PasswordGenerationType_entries_by_numberE, i64 0, i64 0), i64 6, i32 %0) #18
  %13 = icmp eq i32 %12, -1
  br i1 %13, label %14, label %16

14:                                               ; preds = %11
  %15 = tail call dereferenceable(24) %"class.std::__1::basic_string"* @_ZN6google8protobuf8internal14GetEmptyStringEv() #18
  br label %20

16:                                               ; preds = %11
  %17 = sext i32 %12 to i64
  %18 = getelementptr inbounds [6 x %"class.google::protobuf::internal::ExplicitlyConstructed.22"], [6 x %"class.google::protobuf::internal::ExplicitlyConstructed.22"]* @_ZN8autofillL59AutofillUploadContents_Field_PasswordGenerationType_stringsE, i64 0, i64 %17
  %19 = bitcast %"class.google::protobuf::internal::ExplicitlyConstructed.22"* %18 to %"class.std::__1::basic_string"*
  br label %20

20:                                               ; preds = %16, %14
  %21 = phi %"class.std::__1::basic_string"* [ %15, %14 ], [ %19, %16 ]
  ret %"class.std::__1::basic_string"* %21
}

; Function Attrs: nounwind ssp uwtable
define hidden zeroext i1 @_ZN8autofill57AutofillUploadContents_Field_PasswordGenerationType_ParseERKNSt3__112basic_stringIcNS0_11char_traitsIcEENS0_9allocatorIcEEEEPNS_51AutofillUploadContents_Field_PasswordGenerationTypeE(%"class.std::__1::basic_string"* dereferenceable(24), i32* nocapture) local_unnamed_addr #0 {
  %3 = alloca i32, align 4
  %4 = bitcast i32* %3 to i8*
  call void @llvm.lifetime.start.p0i8(i64 4, i8* nonnull %4) #18
  store i32 -1431655766, i32* %3, align 4
  %5 = bitcast %"class.std::__1::basic_string"* %0 to %"struct.std::__1::basic_string<char, std::__1::char_traits<char>, std::__1::allocator<char> >::__short"*
  %6 = getelementptr inbounds %"struct.std::__1::basic_string<char, std::__1::char_traits<char>, std::__1::allocator<char> >::__short", %"struct.std::__1::basic_string<char, std::__1::char_traits<char>, std::__1::allocator<char> >::__short"* %5, i64 0, i32 1, i32 0
  %7 = load i8, i8* %6, align 1
  %8 = icmp slt i8 %7, 0
  %9 = getelementptr inbounds %"class.std::__1::basic_string", %"class.std::__1::basic_string"* %0, i64 0, i32 0, i32 0, i32 0, i32 0, i32 0, i32 0
  %10 = load i8*, i8** %9, align 8
  %11 = bitcast %"class.std::__1::basic_string"* %0 to i8*
  %12 = select i1 %8, i8* %10, i8* %11
  br i1 %8, label %15, label %13

13:                                               ; preds = %2
  %14 = zext i8 %7 to i64
  br label %20

15:                                               ; preds = %2
  %16 = getelementptr inbounds %"class.std::__1::basic_string", %"class.std::__1::basic_string"* %0, i64 0, i32 0, i32 0, i32 0, i32 0, i32 0, i32 1
  %17 = load i64, i64* %16, align 8
  %18 = icmp slt i64 %17, 0
  br i1 %18, label %19, label %20

19:                                               ; preds = %15
  tail call void @_ZN6google8protobuf11StringPiece18LogFatalSizeTooBigEmPKc(i64 %17, i8* getelementptr inbounds ([25 x i8], [25 x i8]* @.str.82, i64 0, i64 0)) #18
  br label %20

20:                                               ; preds = %13, %15, %19
  %21 = phi i64 [ %14, %13 ], [ %17, %15 ], [ %17, %19 ]
  %22 = call zeroext i1 @_ZN6google8protobuf8internal15LookUpEnumValueEPKNS1_9EnumEntryEmNS0_11StringPieceEPi(%"struct.google::protobuf::internal::EnumEntry"* getelementptr inbounds ([6 x %"struct.google::protobuf::internal::EnumEntry"], [6 x %"struct.google::protobuf::internal::EnumEntry"]* @_ZN8autofillL59AutofillUploadContents_Field_PasswordGenerationType_entriesE, i64 0, i64 0), i64 6, i8* %12, i64 %21, i32* nonnull %3) #18
  br i1 %22, label %23, label %25

23:                                               ; preds = %20
  %24 = load i32, i32* %3, align 4
  store i32 %24, i32* %1, align 4
  br label %25

25:                                               ; preds = %23, %20
  call void @llvm.lifetime.end.p0i8(i64 4, i8* nonnull %4) #18
  ret i1 %22
}

; Function Attrs: norecurse nounwind readnone ssp uwtable
define hidden zeroext i1 @_ZN8autofill45AutofillUploadContents_Field_VoteType_IsValidEi(i32) local_unnamed_addr #1 {
  %2 = icmp ult i32 %0, 7
  ret i1 %2
}

; Function Attrs: nounwind ssp uwtable
define hidden dereferenceable(24) %"class.std::__1::basic_string"* @_ZN8autofill42AutofillUploadContents_Field_VoteType_NameENS_37AutofillUploadContents_Field_VoteTypeE(i32) local_unnamed_addr #0 {
  %2 = load atomic i8, i8* bitcast (i64* @_ZGVZN8autofill42AutofillUploadContents_Field_VoteType_NameENS_37AutofillUploadContents_Field_VoteTypeEE5dummy to i8*) acquire, align 8
  %3 = icmp eq i8 %2, 0
  br i1 %3, label %4, label %11, !prof !4

4:                                                ; preds = %1
  %5 = tail call i32 @__cxa_guard_acquire(i64* nonnull @_ZGVZN8autofill42AutofillUploadContents_Field_VoteType_NameENS_37AutofillUploadContents_Field_VoteTypeEE5dummy) #18
  %6 = icmp eq i32 %5, 0
  br i1 %6, label %11, label %7

7:                                                ; preds = %4
  %8 = tail call zeroext i1 @_ZN6google8protobuf8internal21InitializeEnumStringsEPKNS1_9EnumEntryEPKimPNS1_21ExplicitlyConstructedINSt3__112basic_stringIcNS8_11char_traitsIcEENS8_9allocatorIcEEEEEE(%"struct.google::protobuf::internal::EnumEntry"* getelementptr inbounds ([7 x %"struct.google::protobuf::internal::EnumEntry"], [7 x %"struct.google::protobuf::internal::EnumEntry"]* @_ZN8autofillL45AutofillUploadContents_Field_VoteType_entriesE, i64 0, i64 0), i32* getelementptr inbounds ([7 x i32], [7 x i32]* @_ZN8autofillL55AutofillUploadContents_Field_VoteType_entries_by_numberE, i64 0, i64 0), i64 7, %"class.google::protobuf::internal::ExplicitlyConstructed.22"* getelementptr inbounds ([7 x %"class.google::protobuf::internal::ExplicitlyConstructed.22"], [7 x %"class.google::protobuf::internal::ExplicitlyConstructed.22"]* @_ZN8autofillL45AutofillUploadContents_Field_VoteType_stringsE, i64 0, i64 0)) #18
  %9 = zext i1 %8 to i8
  store i8 %9, i8* @_ZZN8autofill42AutofillUploadContents_Field_VoteType_NameENS_37AutofillUploadContents_Field_VoteTypeEE5dummy, align 1
  %10 = tail call {}* @llvm.invariant.start.p0i8(i64 1, i8* nonnull @_ZZN8autofill42AutofillUploadContents_Field_VoteType_NameENS_37AutofillUploadContents_Field_VoteTypeEE5dummy)
  tail call void @__cxa_guard_release(i64* nonnull @_ZGVZN8autofill42AutofillUploadContents_Field_VoteType_NameENS_37AutofillUploadContents_Field_VoteTypeEE5dummy) #18
  br label %11

11:                                               ; preds = %4, %7, %1
  %12 = tail call i32 @_ZN6google8protobuf8internal14LookUpEnumNameEPKNS1_9EnumEntryEPKimi(%"struct.google::protobuf::internal::EnumEntry"* getelementptr inbounds ([7 x %"struct.google::protobuf::internal::EnumEntry"], [7 x %"struct.google::protobuf::internal::EnumEntry"]* @_ZN8autofillL45AutofillUploadContents_Field_VoteType_entriesE, i64 0, i64 0), i32* getelementptr inbounds ([7 x i32], [7 x i32]* @_ZN8autofillL55AutofillUploadContents_Field_VoteType_entries_by_numberE, i64 0, i64 0), i64 7, i32 %0) #18
  %13 = icmp eq i32 %12, -1
  br i1 %13, label %14, label %16

14:                                               ; preds = %11
  %15 = tail call dereferenceable(24) %"class.std::__1::basic_string"* @_ZN6google8protobuf8internal14GetEmptyStringEv() #18
  br label %20

16:                                               ; preds = %11
  %17 = sext i32 %12 to i64
  %18 = getelementptr inbounds [7 x %"class.google::protobuf::internal::ExplicitlyConstructed.22"], [7 x %"class.google::protobuf::internal::ExplicitlyConstructed.22"]* @_ZN8autofillL45AutofillUploadContents_Field_VoteType_stringsE, i64 0, i64 %17
  %19 = bitcast %"class.google::protobuf::internal::ExplicitlyConstructed.22"* %18 to %"class.std::__1::basic_string"*
  br label %20

20:                                               ; preds = %16, %14
  %21 = phi %"class.std::__1::basic_string"* [ %15, %14 ], [ %19, %16 ]
  ret %"class.std::__1::basic_string"* %21
}

; Function Attrs: nounwind ssp uwtable
define hidden zeroext i1 @_ZN8autofill43AutofillUploadContents_Field_VoteType_ParseERKNSt3__112basic_stringIcNS0_11char_traitsIcEENS0_9allocatorIcEEEEPNS_37AutofillUploadContents_Field_VoteTypeE(%"class.std::__1::basic_string"* dereferenceable(24), i32* nocapture) local_unnamed_addr #0 {
  %3 = alloca i32, align 4
  %4 = bitcast i32* %3 to i8*
  call void @llvm.lifetime.start.p0i8(i64 4, i8* nonnull %4) #18
  store i32 -1431655766, i32* %3, align 4
  %5 = bitcast %"class.std::__1::basic_string"* %0 to %"struct.std::__1::basic_string<char, std::__1::char_traits<char>, std::__1::allocator<char> >::__short"*
  %6 = getelementptr inbounds %"struct.std::__1::basic_string<char, std::__1::char_traits<char>, std::__1::allocator<char> >::__short", %"struct.std::__1::basic_string<char, std::__1::char_traits<char>, std::__1::allocator<char> >::__short"* %5, i64 0, i32 1, i32 0
  %7 = load i8, i8* %6, align 1
  %8 = icmp slt i8 %7, 0
  %9 = getelementptr inbounds %"class.std::__1::basic_string", %"class.std::__1::basic_string"* %0, i64 0, i32 0, i32 0, i32 0, i32 0, i32 0, i32 0
  %10 = load i8*, i8** %9, align 8
  %11 = bitcast %"class.std::__1::basic_string"* %0 to i8*
  %12 = select i1 %8, i8* %10, i8* %11
  br i1 %8, label %15, label %13

13:                                               ; preds = %2
  %14 = zext i8 %7 to i64
  br label %20

15:                                               ; preds = %2
  %16 = getelementptr inbounds %"class.std::__1::basic_string", %"class.std::__1::basic_string"* %0, i64 0, i32 0, i32 0, i32 0, i32 0, i32 0, i32 1
  %17 = load i64, i64* %16, align 8
  %18 = icmp slt i64 %17, 0
  br i1 %18, label %19, label %20

19:                                               ; preds = %15
  tail call void @_ZN6google8protobuf11StringPiece18LogFatalSizeTooBigEmPKc(i64 %17, i8* getelementptr inbounds ([25 x i8], [25 x i8]* @.str.82, i64 0, i64 0)) #18
  br label %20

20:                                               ; preds = %13, %15, %19
  %21 = phi i64 [ %14, %13 ], [ %17, %15 ], [ %17, %19 ]
  %22 = call zeroext i1 @_ZN6google8protobuf8internal15LookUpEnumValueEPKNS1_9EnumEntryEmNS0_11StringPieceEPi(%"struct.google::protobuf::internal::EnumEntry"* getelementptr inbounds ([7 x %"struct.google::protobuf::internal::EnumEntry"], [7 x %"struct.google::protobuf::internal::EnumEntry"]* @_ZN8autofillL45AutofillUploadContents_Field_VoteType_entriesE, i64 0, i64 0), i64 7, i8* %12, i64 %21, i32* nonnull %3) #18
  br i1 %22, label %23, label %25

23:                                               ; preds = %20
  %24 = load i32, i32* %3, align 4
  store i32 %24, i32* %1, align 4
  br label %25

25:                                               ; preds = %23, %20
  call void @llvm.lifetime.end.p0i8(i64 4, i8* nonnull %4) #18
  ret i1 %22
}

; Function Attrs: norecurse nounwind readnone ssp uwtable
define hidden zeroext i1 @_ZN8autofill55AutofillUploadContents_SubmissionIndicatorEvent_IsValidEi(i32) local_unnamed_addr #1 {
  %2 = icmp ult i32 %0, 12
  ret i1 %2
}

; Function Attrs: nounwind ssp uwtable
define hidden dereferenceable(24) %"class.std::__1::basic_string"* @_ZN8autofill52AutofillUploadContents_SubmissionIndicatorEvent_NameENS_47AutofillUploadContents_SubmissionIndicatorEventE(i32) local_unnamed_addr #0 {
  %2 = load atomic i8, i8* bitcast (i64* @_ZGVZN8autofill52AutofillUploadContents_SubmissionIndicatorEvent_NameENS_47AutofillUploadContents_SubmissionIndicatorEventEE5dummy to i8*) acquire, align 8
  %3 = icmp eq i8 %2, 0
  br i1 %3, label %4, label %11, !prof !4

4:                                                ; preds = %1
  %5 = tail call i32 @__cxa_guard_acquire(i64* nonnull @_ZGVZN8autofill52AutofillUploadContents_SubmissionIndicatorEvent_NameENS_47AutofillUploadContents_SubmissionIndicatorEventEE5dummy) #18
  %6 = icmp eq i32 %5, 0
  br i1 %6, label %11, label %7

7:                                                ; preds = %4
  %8 = tail call zeroext i1 @_ZN6google8protobuf8internal21InitializeEnumStringsEPKNS1_9EnumEntryEPKimPNS1_21ExplicitlyConstructedINSt3__112basic_stringIcNS8_11char_traitsIcEENS8_9allocatorIcEEEEEE(%"struct.google::protobuf::internal::EnumEntry"* getelementptr inbounds ([12 x %"struct.google::protobuf::internal::EnumEntry"], [12 x %"struct.google::protobuf::internal::EnumEntry"]* @_ZN8autofillL55AutofillUploadContents_SubmissionIndicatorEvent_entriesE, i64 0, i64 0), i32* getelementptr inbounds ([12 x i32], [12 x i32]* @_ZN8autofillL65AutofillUploadContents_SubmissionIndicatorEvent_entries_by_numberE, i64 0, i64 0), i64 12, %"class.google::protobuf::internal::ExplicitlyConstructed.22"* getelementptr inbounds ([12 x %"class.google::protobuf::internal::ExplicitlyConstructed.22"], [12 x %"class.google::protobuf::internal::ExplicitlyConstructed.22"]* @_ZN8autofillL55AutofillUploadContents_SubmissionIndicatorEvent_stringsE, i64 0, i64 0)) #18
  %9 = zext i1 %8 to i8
  store i8 %9, i8* @_ZZN8autofill52AutofillUploadContents_SubmissionIndicatorEvent_NameENS_47AutofillUploadContents_SubmissionIndicatorEventEE5dummy, align 1
  %10 = tail call {}* @llvm.invariant.start.p0i8(i64 1, i8* nonnull @_ZZN8autofill52AutofillUploadContents_SubmissionIndicatorEvent_NameENS_47AutofillUploadContents_SubmissionIndicatorEventEE5dummy)
  tail call void @__cxa_guard_release(i64* nonnull @_ZGVZN8autofill52AutofillUploadContents_SubmissionIndicatorEvent_NameENS_47AutofillUploadContents_SubmissionIndicatorEventEE5dummy) #18
  br label %11

11:                                               ; preds = %4, %7, %1
  %12 = tail call i32 @_ZN6google8protobuf8internal14LookUpEnumNameEPKNS1_9EnumEntryEPKimi(%"struct.google::protobuf::internal::EnumEntry"* getelementptr inbounds ([12 x %"struct.google::protobuf::internal::EnumEntry"], [12 x %"struct.google::protobuf::internal::EnumEntry"]* @_ZN8autofillL55AutofillUploadContents_SubmissionIndicatorEvent_entriesE, i64 0, i64 0), i32* getelementptr inbounds ([12 x i32], [12 x i32]* @_ZN8autofillL65AutofillUploadContents_SubmissionIndicatorEvent_entries_by_numberE, i64 0, i64 0), i64 12, i32 %0) #18
  %13 = icmp eq i32 %12, -1
  br i1 %13, label %14, label %16

14:                                               ; preds = %11
  %15 = tail call dereferenceable(24) %"class.std::__1::basic_string"* @_ZN6google8protobuf8internal14GetEmptyStringEv() #18
  br label %20

16:                                               ; preds = %11
  %17 = sext i32 %12 to i64
  %18 = getelementptr inbounds [12 x %"class.google::protobuf::internal::ExplicitlyConstructed.22"], [12 x %"class.google::protobuf::internal::ExplicitlyConstructed.22"]* @_ZN8autofillL55AutofillUploadContents_SubmissionIndicatorEvent_stringsE, i64 0, i64 %17
  %19 = bitcast %"class.google::protobuf::internal::ExplicitlyConstructed.22"* %18 to %"class.std::__1::basic_string"*
  br label %20

20:                                               ; preds = %16, %14
  %21 = phi %"class.std::__1::basic_string"* [ %15, %14 ], [ %19, %16 ]
  ret %"class.std::__1::basic_string"* %21
}

; Function Attrs: nounwind ssp uwtable
define hidden zeroext i1 @_ZN8autofill53AutofillUploadContents_SubmissionIndicatorEvent_ParseERKNSt3__112basic_stringIcNS0_11char_traitsIcEENS0_9allocatorIcEEEEPNS_47AutofillUploadContents_SubmissionIndicatorEventE(%"class.std::__1::basic_string"* dereferenceable(24), i32* nocapture) local_unnamed_addr #0 {
  %3 = alloca i32, align 4
  %4 = bitcast i32* %3 to i8*
  call void @llvm.lifetime.start.p0i8(i64 4, i8* nonnull %4) #18
  store i32 -1431655766, i32* %3, align 4
  %5 = bitcast %"class.std::__1::basic_string"* %0 to %"struct.std::__1::basic_string<char, std::__1::char_traits<char>, std::__1::allocator<char> >::__short"*
  %6 = getelementptr inbounds %"struct.std::__1::basic_string<char, std::__1::char_traits<char>, std::__1::allocator<char> >::__short", %"struct.std::__1::basic_string<char, std::__1::char_traits<char>, std::__1::allocator<char> >::__short"* %5, i64 0, i32 1, i32 0
  %7 = load i8, i8* %6, align 1
  %8 = icmp slt i8 %7, 0
  %9 = getelementptr inbounds %"class.std::__1::basic_string", %"class.std::__1::basic_string"* %0, i64 0, i32 0, i32 0, i32 0, i32 0, i32 0, i32 0
  %10 = load i8*, i8** %9, align 8
  %11 = bitcast %"class.std::__1::basic_string"* %0 to i8*
  %12 = select i1 %8, i8* %10, i8* %11
  br i1 %8, label %15, label %13

13:                                               ; preds = %2
  %14 = zext i8 %7 to i64
  br label %20

15:                                               ; preds = %2
  %16 = getelementptr inbounds %"class.std::__1::basic_string", %"class.std::__1::basic_string"* %0, i64 0, i32 0, i32 0, i32 0, i32 0, i32 0, i32 1
  %17 = load i64, i64* %16, align 8
  %18 = icmp slt i64 %17, 0
  br i1 %18, label %19, label %20

19:                                               ; preds = %15
  tail call void @_ZN6google8protobuf11StringPiece18LogFatalSizeTooBigEmPKc(i64 %17, i8* getelementptr inbounds ([25 x i8], [25 x i8]* @.str.82, i64 0, i64 0)) #18
  br label %20

20:                                               ; preds = %13, %15, %19
  %21 = phi i64 [ %14, %13 ], [ %17, %15 ], [ %17, %19 ]
  %22 = call zeroext i1 @_ZN6google8protobuf8internal15LookUpEnumValueEPKNS1_9EnumEntryEmNS0_11StringPieceEPi(%"struct.google::protobuf::internal::EnumEntry"* getelementptr inbounds ([12 x %"struct.google::protobuf::internal::EnumEntry"], [12 x %"struct.google::protobuf::internal::EnumEntry"]* @_ZN8autofillL55AutofillUploadContents_SubmissionIndicatorEvent_entriesE, i64 0, i64 0), i64 12, i8* %12, i64 %21, i32* nonnull %3) #18
  br i1 %22, label %23, label %25

23:                                               ; preds = %20
  %24 = load i32, i32* %3, align 4
  store i32 %24, i32* %1, align 4
  br label %25

25:                                               ; preds = %23, %20
  call void @llvm.lifetime.end.p0i8(i64 4, i8* nonnull %4) #18
  ret i1 %22
}

; Function Attrs: norecurse nounwind readnone ssp uwtable
define hidden zeroext i1 @_ZN8autofill23ButtonTitleType_IsValidEi(i32) local_unnamed_addr #1 {
  %2 = icmp ult i32 %0, 8
  ret i1 %2
}

; Function Attrs: nounwind ssp uwtable
define hidden dereferenceable(24) %"class.std::__1::basic_string"* @_ZN8autofill20ButtonTitleType_NameENS_15ButtonTitleTypeE(i32) local_unnamed_addr #0 {
  %2 = load atomic i8, i8* bitcast (i64* @_ZGVZN8autofill20ButtonTitleType_NameENS_15ButtonTitleTypeEE5dummy to i8*) acquire, align 8
  %3 = icmp eq i8 %2, 0
  br i1 %3, label %4, label %11, !prof !4

4:                                                ; preds = %1
  %5 = tail call i32 @__cxa_guard_acquire(i64* nonnull @_ZGVZN8autofill20ButtonTitleType_NameENS_15ButtonTitleTypeEE5dummy) #18
  %6 = icmp eq i32 %5, 0
  br i1 %6, label %11, label %7

7:                                                ; preds = %4
  %8 = tail call zeroext i1 @_ZN6google8protobuf8internal21InitializeEnumStringsEPKNS1_9EnumEntryEPKimPNS1_21ExplicitlyConstructedINSt3__112basic_stringIcNS8_11char_traitsIcEENS8_9allocatorIcEEEEEE(%"struct.google::protobuf::internal::EnumEntry"* getelementptr inbounds ([8 x %"struct.google::protobuf::internal::EnumEntry"], [8 x %"struct.google::protobuf::internal::EnumEntry"]* @_ZN8autofillL23ButtonTitleType_entriesE, i64 0, i64 0), i32* getelementptr inbounds ([8 x i32], [8 x i32]* @_ZN8autofillL33ButtonTitleType_entries_by_numberE, i64 0, i64 0), i64 8, %"class.google::protobuf::internal::ExplicitlyConstructed.22"* getelementptr inbounds ([8 x %"class.google::protobuf::internal::ExplicitlyConstructed.22"], [8 x %"class.google::protobuf::internal::ExplicitlyConstructed.22"]* @_ZN8autofillL23ButtonTitleType_stringsE, i64 0, i64 0)) #18
  %9 = zext i1 %8 to i8
  store i8 %9, i8* @_ZZN8autofill20ButtonTitleType_NameENS_15ButtonTitleTypeEE5dummy, align 1
  %10 = tail call {}* @llvm.invariant.start.p0i8(i64 1, i8* nonnull @_ZZN8autofill20ButtonTitleType_NameENS_15ButtonTitleTypeEE5dummy)
  tail call void @__cxa_guard_release(i64* nonnull @_ZGVZN8autofill20ButtonTitleType_NameENS_15ButtonTitleTypeEE5dummy) #18
  br label %11

11:                                               ; preds = %4, %7, %1
  %12 = tail call i32 @_ZN6google8protobuf8internal14LookUpEnumNameEPKNS1_9EnumEntryEPKimi(%"struct.google::protobuf::internal::EnumEntry"* getelementptr inbounds ([8 x %"struct.google::protobuf::internal::EnumEntry"], [8 x %"struct.google::protobuf::internal::EnumEntry"]* @_ZN8autofillL23ButtonTitleType_entriesE, i64 0, i64 0), i32* getelementptr inbounds ([8 x i32], [8 x i32]* @_ZN8autofillL33ButtonTitleType_entries_by_numberE, i64 0, i64 0), i64 8, i32 %0) #18
  %13 = icmp eq i32 %12, -1
  br i1 %13, label %14, label %16

14:                                               ; preds = %11
  %15 = tail call dereferenceable(24) %"class.std::__1::basic_string"* @_ZN6google8protobuf8internal14GetEmptyStringEv() #18
  br label %20

16:                                               ; preds = %11
  %17 = sext i32 %12 to i64
  %18 = getelementptr inbounds [8 x %"class.google::protobuf::internal::ExplicitlyConstructed.22"], [8 x %"class.google::protobuf::internal::ExplicitlyConstructed.22"]* @_ZN8autofillL23ButtonTitleType_stringsE, i64 0, i64 %17
  %19 = bitcast %"class.google::protobuf::internal::ExplicitlyConstructed.22"* %18 to %"class.std::__1::basic_string"*
  br label %20

20:                                               ; preds = %16, %14
  %21 = phi %"class.std::__1::basic_string"* [ %15, %14 ], [ %19, %16 ]
  ret %"class.std::__1::basic_string"* %21
}

; Function Attrs: nounwind ssp uwtable
define hidden zeroext i1 @_ZN8autofill21ButtonTitleType_ParseERKNSt3__112basic_stringIcNS0_11char_traitsIcEENS0_9allocatorIcEEEEPNS_15ButtonTitleTypeE(%"class.std::__1::basic_string"* dereferenceable(24), i32* nocapture) local_unnamed_addr #0 {
  %3 = alloca i32, align 4
  %4 = bitcast i32* %3 to i8*
  call void @llvm.lifetime.start.p0i8(i64 4, i8* nonnull %4) #18
  store i32 -1431655766, i32* %3, align 4
  %5 = bitcast %"class.std::__1::basic_string"* %0 to %"struct.std::__1::basic_string<char, std::__1::char_traits<char>, std::__1::allocator<char> >::__short"*
  %6 = getelementptr inbounds %"struct.std::__1::basic_string<char, std::__1::char_traits<char>, std::__1::allocator<char> >::__short", %"struct.std::__1::basic_string<char, std::__1::char_traits<char>, std::__1::allocator<char> >::__short"* %5, i64 0, i32 1, i32 0
  %7 = load i8, i8* %6, align 1
  %8 = icmp slt i8 %7, 0
  %9 = getelementptr inbounds %"class.std::__1::basic_string", %"class.std::__1::basic_string"* %0, i64 0, i32 0, i32 0, i32 0, i32 0, i32 0, i32 0
  %10 = load i8*, i8** %9, align 8
  %11 = bitcast %"class.std::__1::basic_string"* %0 to i8*
  %12 = select i1 %8, i8* %10, i8* %11
  br i1 %8, label %15, label %13

13:                                               ; preds = %2
  %14 = zext i8 %7 to i64
  br label %20

15:                                               ; preds = %2
  %16 = getelementptr inbounds %"class.std::__1::basic_string", %"class.std::__1::basic_string"* %0, i64 0, i32 0, i32 0, i32 0, i32 0, i32 0, i32 1
  %17 = load i64, i64* %16, align 8
  %18 = icmp slt i64 %17, 0
  br i1 %18, label %19, label %20

19:                                               ; preds = %15
  tail call void @_ZN6google8protobuf11StringPiece18LogFatalSizeTooBigEmPKc(i64 %17, i8* getelementptr inbounds ([25 x i8], [25 x i8]* @.str.82, i64 0, i64 0)) #18
  br label %20

20:                                               ; preds = %13, %15, %19
  %21 = phi i64 [ %14, %13 ], [ %17, %15 ], [ %17, %19 ]
  %22 = call zeroext i1 @_ZN6google8protobuf8internal15LookUpEnumValueEPKNS1_9EnumEntryEmNS0_11StringPieceEPi(%"struct.google::protobuf::internal::EnumEntry"* getelementptr inbounds ([8 x %"struct.google::protobuf::internal::EnumEntry"], [8 x %"struct.google::protobuf::internal::EnumEntry"]* @_ZN8autofillL23ButtonTitleType_entriesE, i64 0, i64 0), i64 8, i8* %12, i64 %21, i32* nonnull %3) #18
  br i1 %22, label %23, label %25

23:                                               ; preds = %20
  %24 = load i32, i32* %3, align 4
  store i32 %24, i32* %1, align 4
  br label %25

25:                                               ; preds = %23, %20
  call void @llvm.lifetime.end.p0i8(i64 4, i8* nonnull %4) #18
  ret i1 %22
}

; Function Attrs: norecurse nounwind readonly ssp uwtable
define hidden dereferenceable(96) %"class.autofill::AutofillRandomizedFieldMetadata"* @_ZN8autofill32AutofillQueryContents_Form_Field9_Internal14field_metadataEPKS0_(%"class.autofill::AutofillQueryContents_Form_Field"* nocapture readonly) local_unnamed_addr #5 align 2 {
  %2 = getelementptr inbounds %"class.autofill::AutofillQueryContents_Form_Field", %"class.autofill::AutofillQueryContents_Form_Field"* %0, i64 0, i32 5
  %3 = load %"class.autofill::AutofillRandomizedFieldMetadata"*, %"class.autofill::AutofillRandomizedFieldMetadata"** %2, align 8
  ret %"class.autofill::AutofillRandomizedFieldMetadata"* %3
}

; Function Attrs: nounwind ssp uwtable
define hidden void @_ZN8autofill32AutofillQueryContents_Form_FieldC2EPN6google8protobuf5ArenaE(%"class.autofill::AutofillQueryContents_Form_Field"* nocapture, %"class.google::protobuf::Arena"*) unnamed_addr #0 align 2 {
  %3 = getelementptr inbounds %"class.autofill::AutofillQueryContents_Form_Field", %"class.autofill::AutofillQueryContents_Form_Field"* %0, i64 0, i32 0, i32 0
  %4 = getelementptr inbounds %"class.autofill::AutofillQueryContents_Form_Field", %"class.autofill::AutofillQueryContents_Form_Field"* %0, i64 0, i32 0, i32 1
  %5 = bitcast %"class.google::protobuf::internal::InternalMetadata"* %4 to %"class.google::protobuf::Arena"**
  store %"class.google::protobuf::Arena"* %1, %"class.google::protobuf::Arena"** %5, align 8
  store i32 (...)** bitcast (i8** getelementptr inbounds ({ [16 x i8*] }, { [16 x i8*] }* @_ZTVN8autofill32AutofillQueryContents_Form_FieldE, i64 0, inrange i32 0, i64 2) to i32 (...)**), i32 (...)*** %3, align 8
  %6 = getelementptr inbounds %"class.autofill::AutofillQueryContents_Form_Field", %"class.autofill::AutofillQueryContents_Form_Field"* %0, i64 0, i32 1, i32 0, i64 0
  store i32 0, i32* %6, align 4
  %7 = getelementptr inbounds %"class.autofill::AutofillQueryContents_Form_Field", %"class.autofill::AutofillQueryContents_Form_Field"* %0, i64 0, i32 2, i32 0, i32 0, i32 0, i32 0, i32 0, i32 0
  store i32 0, i32* %7, align 4
  %8 = load atomic i32, i32* getelementptr inbounds ({ { { { i32 } }, i32, i32, void ()* }, [1 x i8*] }, { { { { i32 } }, i32, i32, void ()* }, [1 x i8*] }* @scc_info_AutofillQueryContents_Form_Field_server_2eproto, i64 0, i32 0, i32 0, i32 0, i32 0) acquire, align 8
  %9 = icmp eq i32 %8, 0
  br i1 %9, label %11, label %10, !prof !2

10:                                               ; preds = %2
  tail call void @_ZN6google8protobuf8internal11InitSCCImplEPNS1_11SCCInfoBaseE(%"struct.google::protobuf::internal::SCCInfoBase"* bitcast ({ { { { i32 } }, i32, i32, void ()* }, [1 x i8*] }* @scc_info_AutofillQueryContents_Form_Field_server_2eproto to %"struct.google::protobuf::internal::SCCInfoBase"*)) #18
  br label %11

11:                                               ; preds = %2, %10
  %12 = getelementptr inbounds %"class.autofill::AutofillQueryContents_Form_Field", %"class.autofill::AutofillQueryContents_Form_Field"* %0, i64 0, i32 3, i32 0
  %13 = bitcast %"class.std::__1::basic_string"** %12 to <2 x %"class.std::__1::basic_string"*>*
  store <2 x %"class.std::__1::basic_string"*> <%"class.std::__1::basic_string"* bitcast (%"class.google::protobuf::internal::ExplicitlyConstructed.22"* @_ZN6google8protobuf8internal26fixed_address_empty_stringE to %"class.std::__1::basic_string"*), %"class.std::__1::basic_string"* bitcast (%"class.google::protobuf::internal::ExplicitlyConstructed.22"* @_ZN6google8protobuf8internal26fixed_address_empty_stringE to %"class.std::__1::basic_string"*)>, <2 x %"class.std::__1::basic_string"*>* %13, align 8
  %14 = getelementptr inbounds %"class.autofill::AutofillQueryContents_Form_Field", %"class.autofill::AutofillQueryContents_Form_Field"* %0, i64 0, i32 5
  %15 = bitcast %"class.autofill::AutofillRandomizedFieldMetadata"** %14 to i8*
  tail call void @llvm.memset.p0i8.i64(i8* align 1 %15, i8 0, i64 12, i1 false) #18
  ret void
}

; Function Attrs: nounwind ssp uwtable
define hidden void @_ZN8autofill32AutofillQueryContents_Form_FieldC2ERKS0_(%"class.autofill::AutofillQueryContents_Form_Field"*, %"class.autofill::AutofillQueryContents_Form_Field"* nocapture readonly dereferenceable(56)) unnamed_addr #0 align 2 {
  %3 = getelementptr inbounds %"class.autofill::AutofillQueryContents_Form_Field", %"class.autofill::AutofillQueryContents_Form_Field"* %0, i64 0, i32 0, i32 0
  %4 = getelementptr inbounds %"class.autofill::AutofillQueryContents_Form_Field", %"class.autofill::AutofillQueryContents_Form_Field"* %0, i64 0, i32 0, i32 1, i32 0
  store i8* null, i8** %4, align 8
  store i32 (...)** bitcast (i8** getelementptr inbounds ({ [16 x i8*] }, { [16 x i8*] }* @_ZTVN8autofill32AutofillQueryContents_Form_FieldE, i64 0, inrange i32 0, i64 2) to i32 (...)**), i32 (...)*** %3, align 8
  %5 = getelementptr inbounds %"class.autofill::AutofillQueryContents_Form_Field", %"class.autofill::AutofillQueryContents_Form_Field"* %1, i64 0, i32 1, i32 0, i64 0
  %6 = getelementptr inbounds %"class.autofill::AutofillQueryContents_Form_Field", %"class.autofill::AutofillQueryContents_Form_Field"* %0, i64 0, i32 1, i32 0, i64 0
  %7 = load i32, i32* %5, align 8
  store i32 %7, i32* %6, align 8
  %8 = getelementptr inbounds %"class.autofill::AutofillQueryContents_Form_Field", %"class.autofill::AutofillQueryContents_Form_Field"* %0, i64 0, i32 2, i32 0, i32 0, i32 0, i32 0, i32 0, i32 0
  store i32 0, i32* %8, align 4
  %9 = getelementptr inbounds %"class.autofill::AutofillQueryContents_Form_Field", %"class.autofill::AutofillQueryContents_Form_Field"* %0, i64 0, i32 0, i32 1
  %10 = getelementptr inbounds %"class.autofill::AutofillQueryContents_Form_Field", %"class.autofill::AutofillQueryContents_Form_Field"* %1, i64 0, i32 0, i32 1
  %11 = bitcast %"class.google::protobuf::internal::InternalMetadata"* %10 to i64*
  %12 = load i64, i64* %11, align 8
  %13 = and i64 %12, 1
  %14 = icmp eq i64 %13, 0
  br i1 %14, label %33, label %15

15:                                               ; preds = %2
  %16 = and i64 %12, -2
  %17 = inttoptr i64 %16 to %"struct.google::protobuf::internal::InternalMetadata::Container"*
  %18 = getelementptr inbounds %"struct.google::protobuf::internal::InternalMetadata::Container", %"struct.google::protobuf::internal::InternalMetadata::Container"* %17, i64 0, i32 1
  %19 = tail call %"class.std::__1::basic_string"* @_ZN6google8protobuf8internal16InternalMetadata27mutable_unknown_fields_slowINSt3__112basic_stringIcNS4_11char_traitsIcEENS4_9allocatorIcEEEEEEPT_v(%"class.google::protobuf::internal::InternalMetadata"* %9) #18
  %20 = bitcast %"class.std::__1::basic_string"* %18 to %"struct.std::__1::basic_string<char, std::__1::char_traits<char>, std::__1::allocator<char> >::__short"*
  %21 = getelementptr inbounds %"struct.std::__1::basic_string<char, std::__1::char_traits<char>, std::__1::allocator<char> >::__short", %"struct.std::__1::basic_string<char, std::__1::char_traits<char>, std::__1::allocator<char> >::__short"* %20, i64 0, i32 1, i32 0
  %22 = load i8, i8* %21, align 1
  %23 = icmp slt i8 %22, 0
  %24 = getelementptr inbounds %"class.std::__1::basic_string", %"class.std::__1::basic_string"* %18, i64 0, i32 0, i32 0, i32 0, i32 0, i32 0, i32 0
  %25 = load i8*, i8** %24, align 8
  %26 = getelementptr inbounds %"struct.google::protobuf::internal::InternalMetadata::Container", %"struct.google::protobuf::internal::InternalMetadata::Container"* %17, i64 0, i32 1, i32 0, i32 0, i32 0, i32 0, i32 0, i32 1
  %27 = load i64, i64* %26, align 8
  %28 = bitcast %"class.std::__1::basic_string"* %18 to i8*
  %29 = zext i8 %22 to i64
  %30 = select i1 %23, i8* %25, i8* %28
  %31 = select i1 %23, i64 %27, i64 %29
  %32 = tail call dereferenceable(24) %"class.std::__1::basic_string"* @_ZNSt3__112basic_stringIcNS_11char_traitsIcEENS_9allocatorIcEEE6appendEPKcm(%"class.std::__1::basic_string"* %19, i8* %30, i64 %31) #18
  br label %33

33:                                               ; preds = %2, %15
  %34 = getelementptr inbounds %"class.autofill::AutofillQueryContents_Form_Field", %"class.autofill::AutofillQueryContents_Form_Field"* %0, i64 0, i32 3
  %35 = getelementptr inbounds %"struct.google::protobuf::internal::ArenaStringPtr", %"struct.google::protobuf::internal::ArenaStringPtr"* %34, i64 0, i32 0
  store %"class.std::__1::basic_string"* bitcast (%"class.google::protobuf::internal::ExplicitlyConstructed.22"* @_ZN6google8protobuf8internal26fixed_address_empty_stringE to %"class.std::__1::basic_string"*), %"class.std::__1::basic_string"** %35, align 8
  %36 = load i32, i32* %5, align 4
  %37 = and i32 %36, 1
  %38 = icmp eq i32 %37, 0
  br i1 %38, label %55, label %39

39:                                               ; preds = %33
  %40 = getelementptr inbounds %"class.autofill::AutofillQueryContents_Form_Field", %"class.autofill::AutofillQueryContents_Form_Field"* %1, i64 0, i32 3, i32 0
  %41 = load %"class.std::__1::basic_string"*, %"class.std::__1::basic_string"** %40, align 8
  %42 = bitcast %"class.google::protobuf::internal::InternalMetadata"* %9 to i64*
  %43 = load i64, i64* %42, align 8
  %44 = and i64 %43, 1
  %45 = icmp eq i64 %44, 0
  %46 = and i64 %43, -2
  br i1 %45, label %51, label %47, !prof !2

47:                                               ; preds = %39
  %48 = inttoptr i64 %46 to %"struct.google::protobuf::internal::InternalMetadata::ContainerBase"*
  %49 = getelementptr inbounds %"struct.google::protobuf::internal::InternalMetadata::ContainerBase", %"struct.google::protobuf::internal::InternalMetadata::ContainerBase"* %48, i64 0, i32 0
  %50 = load %"class.google::protobuf::Arena"*, %"class.google::protobuf::Arena"** %49, align 8
  br label %53

51:                                               ; preds = %39
  %52 = inttoptr i64 %46 to %"class.google::protobuf::Arena"*
  br label %53

53:                                               ; preds = %47, %51
  %54 = phi %"class.google::protobuf::Arena"* [ %50, %47 ], [ %52, %51 ]
  tail call void @_ZN6google8protobuf8internal14ArenaStringPtr14CreateInstanceEPNS0_5ArenaEPKNSt3__112basic_stringIcNS5_11char_traitsIcEENS5_9allocatorIcEEEE(%"struct.google::protobuf::internal::ArenaStringPtr"* %34, %"class.google::protobuf::Arena"* %54, %"class.std::__1::basic_string"* %41) #18
  br label %55

55:                                               ; preds = %33, %53
  %56 = getelementptr inbounds %"class.autofill::AutofillQueryContents_Form_Field", %"class.autofill::AutofillQueryContents_Form_Field"* %0, i64 0, i32 4
  %57 = getelementptr inbounds %"struct.google::protobuf::internal::ArenaStringPtr", %"struct.google::protobuf::internal::ArenaStringPtr"* %56, i64 0, i32 0
  store %"class.std::__1::basic_string"* bitcast (%"class.google::protobuf::internal::ExplicitlyConstructed.22"* @_ZN6google8protobuf8internal26fixed_address_empty_stringE to %"class.std::__1::basic_string"*), %"class.std::__1::basic_string"** %57, align 8
  %58 = load i32, i32* %5, align 4
  %59 = and i32 %58, 2
  %60 = icmp eq i32 %59, 0
  br i1 %60, label %78, label %61

61:                                               ; preds = %55
  %62 = getelementptr inbounds %"class.autofill::AutofillQueryContents_Form_Field", %"class.autofill::AutofillQueryContents_Form_Field"* %1, i64 0, i32 4, i32 0
  %63 = load %"class.std::__1::basic_string"*, %"class.std::__1::basic_string"** %62, align 8
  %64 = bitcast %"class.google::protobuf::internal::InternalMetadata"* %9 to i64*
  %65 = load i64, i64* %64, align 8
  %66 = and i64 %65, 1
  %67 = icmp eq i64 %66, 0
  %68 = and i64 %65, -2
  br i1 %67, label %73, label %69, !prof !2

69:                                               ; preds = %61
  %70 = inttoptr i64 %68 to %"struct.google::protobuf::internal::InternalMetadata::ContainerBase"*
  %71 = getelementptr inbounds %"struct.google::protobuf::internal::InternalMetadata::ContainerBase", %"struct.google::protobuf::internal::InternalMetadata::ContainerBase"* %70, i64 0, i32 0
  %72 = load %"class.google::protobuf::Arena"*, %"class.google::protobuf::Arena"** %71, align 8
  br label %75

73:                                               ; preds = %61
  %74 = inttoptr i64 %68 to %"class.google::protobuf::Arena"*
  br label %75

75:                                               ; preds = %69, %73
  %76 = phi %"class.google::protobuf::Arena"* [ %72, %69 ], [ %74, %73 ]
  tail call void @_ZN6google8protobuf8internal14ArenaStringPtr14CreateInstanceEPNS0_5ArenaEPKNSt3__112basic_stringIcNS5_11char_traitsIcEENS5_9allocatorIcEEEE(%"struct.google::protobuf::internal::ArenaStringPtr"* %56, %"class.google::protobuf::Arena"* %76, %"class.std::__1::basic_string"* %63) #18
  %77 = load i32, i32* %5, align 4
  br label %78

78:                                               ; preds = %55, %75
  %79 = phi i32 [ %58, %55 ], [ %77, %75 ]
  %80 = and i32 %79, 4
  %81 = icmp eq i32 %80, 0
  br i1 %81, label %89, label %82

82:                                               ; preds = %78
  %83 = getelementptr inbounds %"class.autofill::AutofillQueryContents_Form_Field", %"class.autofill::AutofillQueryContents_Form_Field"* %1, i64 0, i32 5
  %84 = load %"class.autofill::AutofillRandomizedFieldMetadata"*, %"class.autofill::AutofillRandomizedFieldMetadata"** %83, align 8, !nonnull !5
  %85 = tail call i8* @_Znwm(i64 96) #19
  %86 = bitcast i8* %85 to %"class.autofill::AutofillRandomizedFieldMetadata"*
  tail call void @_ZN8autofill31AutofillRandomizedFieldMetadataC2ERKS0_(%"class.autofill::AutofillRandomizedFieldMetadata"* nonnull %86, %"class.autofill::AutofillRandomizedFieldMetadata"* nonnull dereferenceable(96) %84)
  %87 = getelementptr inbounds %"class.autofill::AutofillQueryContents_Form_Field", %"class.autofill::AutofillQueryContents_Form_Field"* %0, i64 0, i32 5
  %88 = bitcast %"class.autofill::AutofillRandomizedFieldMetadata"** %87 to i8**
  store i8* %85, i8** %88, align 8
  br label %91

89:                                               ; preds = %78
  %90 = getelementptr inbounds %"class.autofill::AutofillQueryContents_Form_Field", %"class.autofill::AutofillQueryContents_Form_Field"* %0, i64 0, i32 5
  store %"class.autofill::AutofillRandomizedFieldMetadata"* null, %"class.autofill::AutofillRandomizedFieldMetadata"** %90, align 8
  br label %91

91:                                               ; preds = %89, %82
  %92 = getelementptr inbounds %"class.autofill::AutofillQueryContents_Form_Field", %"class.autofill::AutofillQueryContents_Form_Field"* %1, i64 0, i32 6
  %93 = load i32, i32* %92, align 8
  %94 = getelementptr inbounds %"class.autofill::AutofillQueryContents_Form_Field", %"class.autofill::AutofillQueryContents_Form_Field"* %0, i64 0, i32 6
  store i32 %93, i32* %94, align 8
  ret void
}

; Function Attrs: argmemonly nounwind
declare void @llvm.memcpy.p0i8.p0i8.i64(i8* nocapture writeonly, i8* nocapture readonly, i64, i1 immarg) #2

; Function Attrs: nobuiltin nofree
declare noalias nonnull i8* @_Znwm(i64) local_unnamed_addr #6

; Function Attrs: nounwind ssp uwtable
define hidden void @_ZN8autofill32AutofillQueryContents_Form_FieldD2Ev(%"class.autofill::AutofillQueryContents_Form_Field"*) unnamed_addr #0 align 2 {
  %2 = getelementptr inbounds %"class.autofill::AutofillQueryContents_Form_Field", %"class.autofill::AutofillQueryContents_Form_Field"* %0, i64 0, i32 0, i32 0
  store i32 (...)** bitcast (i8** getelementptr inbounds ({ [16 x i8*] }, { [16 x i8*] }* @_ZTVN8autofill32AutofillQueryContents_Form_FieldE, i64 0, inrange i32 0, i64 2) to i32 (...)**), i32 (...)*** %2, align 8
  %3 = getelementptr inbounds %"class.autofill::AutofillQueryContents_Form_Field", %"class.autofill::AutofillQueryContents_Form_Field"* %0, i64 0, i32 3
  tail call void @_ZN6google8protobuf8internal14ArenaStringPtr14DestroyNoArenaEPKNSt3__112basic_stringIcNS3_11char_traitsIcEENS3_9allocatorIcEEEE(%"struct.google::protobuf::internal::ArenaStringPtr"* %3, %"class.std::__1::basic_string"* bitcast (%"class.google::protobuf::internal::ExplicitlyConstructed.22"* @_ZN6google8protobuf8internal26fixed_address_empty_stringE to %"class.std::__1::basic_string"*)) #18
  %4 = getelementptr inbounds %"class.autofill::AutofillQueryContents_Form_Field", %"class.autofill::AutofillQueryContents_Form_Field"* %0, i64 0, i32 4
  tail call void @_ZN6google8protobuf8internal14ArenaStringPtr14DestroyNoArenaEPKNSt3__112basic_stringIcNS3_11char_traitsIcEENS3_9allocatorIcEEEE(%"struct.google::protobuf::internal::ArenaStringPtr"* %4, %"class.std::__1::basic_string"* bitcast (%"class.google::protobuf::internal::ExplicitlyConstructed.22"* @_ZN6google8protobuf8internal26fixed_address_empty_stringE to %"class.std::__1::basic_string"*)) #18
  %5 = icmp eq %"class.autofill::AutofillQueryContents_Form_Field"* %0, bitcast (%"class.autofill::AutofillQueryContents_Form_FieldDefaultTypeInternal"* @_ZN8autofill51_AutofillQueryContents_Form_Field_default_instance_E to %"class.autofill::AutofillQueryContents_Form_Field"*)
  br i1 %5, label %15, label %6

6:                                                ; preds = %1
  %7 = getelementptr inbounds %"class.autofill::AutofillQueryContents_Form_Field", %"class.autofill::AutofillQueryContents_Form_Field"* %0, i64 0, i32 5
  %8 = load %"class.autofill::AutofillRandomizedFieldMetadata"*, %"class.autofill::AutofillRandomizedFieldMetadata"** %7, align 8
  %9 = icmp eq %"class.autofill::AutofillRandomizedFieldMetadata"* %8, null
  br i1 %9, label %15, label %10

10:                                               ; preds = %6
  %11 = bitcast %"class.autofill::AutofillRandomizedFieldMetadata"* %8 to void (%"class.autofill::AutofillRandomizedFieldMetadata"*)***
  %12 = load void (%"class.autofill::AutofillRandomizedFieldMetadata"*)**, void (%"class.autofill::AutofillRandomizedFieldMetadata"*)*** %11, align 8
  %13 = getelementptr inbounds void (%"class.autofill::AutofillRandomizedFieldMetadata"*)*, void (%"class.autofill::AutofillRandomizedFieldMetadata"*)** %12, i64 1
  %14 = load void (%"class.autofill::AutofillRandomizedFieldMetadata"*)*, void (%"class.autofill::AutofillRandomizedFieldMetadata"*)** %13, align 8
  tail call void %14(%"class.autofill::AutofillRandomizedFieldMetadata"* nonnull %8) #18
  br label %15

15:                                               ; preds = %1, %6, %10
  %16 = getelementptr inbounds %"class.autofill::AutofillQueryContents_Form_Field", %"class.autofill::AutofillQueryContents_Form_Field"* %0, i64 0, i32 0, i32 1
  %17 = bitcast %"class.google::protobuf::internal::InternalMetadata"* %16 to i64*
  %18 = load i64, i64* %17, align 8
  %19 = and i64 %18, 1
  %20 = icmp eq i64 %19, 0
  br i1 %20, label %41, label %21

21:                                               ; preds = %15
  %22 = and i64 %18, -2
  %23 = inttoptr i64 %22 to %"struct.google::protobuf::internal::InternalMetadata::ContainerBase"*
  %24 = getelementptr inbounds %"struct.google::protobuf::internal::InternalMetadata::ContainerBase", %"struct.google::protobuf::internal::InternalMetadata::ContainerBase"* %23, i64 0, i32 0
  %25 = load %"class.google::protobuf::Arena"*, %"class.google::protobuf::Arena"** %24, align 8
  %26 = icmp ne %"class.google::protobuf::Arena"* %25, null
  %27 = icmp eq i64 %22, 0
  %28 = or i1 %27, %26
  br i1 %28, label %41, label %29

29:                                               ; preds = %21
  %30 = inttoptr i64 %22 to %"struct.google::protobuf::internal::InternalMetadata::Container"*
  %31 = getelementptr inbounds %"struct.google::protobuf::internal::InternalMetadata::Container", %"struct.google::protobuf::internal::InternalMetadata::Container"* %30, i64 0, i32 1
  %32 = bitcast %"class.std::__1::basic_string"* %31 to %"struct.std::__1::basic_string<char, std::__1::char_traits<char>, std::__1::allocator<char> >::__short"*
  %33 = getelementptr inbounds %"struct.std::__1::basic_string<char, std::__1::char_traits<char>, std::__1::allocator<char> >::__short", %"struct.std::__1::basic_string<char, std::__1::char_traits<char>, std::__1::allocator<char> >::__short"* %32, i64 0, i32 1, i32 0
  %34 = load i8, i8* %33, align 1
  %35 = icmp slt i8 %34, 0
  br i1 %35, label %36, label %39

36:                                               ; preds = %29
  %37 = getelementptr inbounds %"class.std::__1::basic_string", %"class.std::__1::basic_string"* %31, i64 0, i32 0, i32 0, i32 0, i32 0, i32 0, i32 0
  %38 = load i8*, i8** %37, align 8
  tail call void @_ZdlPv(i8* %38) #19
  br label %39

39:                                               ; preds = %36, %29
  %40 = inttoptr i64 %22 to i8*
  tail call void @_ZdlPv(i8* %40) #19
  br label %41

41:                                               ; preds = %15, %21, %39
  ret void
}

; Function Attrs: nounwind ssp uwtable
define hidden void @_ZN8autofill32AutofillQueryContents_Form_FieldD0Ev(%"class.autofill::AutofillQueryContents_Form_Field"*) unnamed_addr #0 align 2 {
  tail call void @_ZN8autofill32AutofillQueryContents_Form_FieldD2Ev(%"class.autofill::AutofillQueryContents_Form_Field"* %0) #18
  %2 = bitcast %"class.autofill::AutofillQueryContents_Form_Field"* %0 to i8*
  tail call void @_ZdlPv(i8* %2) #19
  ret void
}

; Function Attrs: nobuiltin nounwind
declare void @_ZdlPv(i8*) local_unnamed_addr #7

; Function Attrs: norecurse nounwind readnone ssp uwtable
define hidden void @_ZN8autofill32AutofillQueryContents_Form_Field9ArenaDtorEPv(i8* nocapture) local_unnamed_addr #1 align 2 {
  ret void
}

; Function Attrs: nofree norecurse nounwind ssp uwtable
define hidden void @_ZNK8autofill32AutofillQueryContents_Form_Field13SetCachedSizeEi(%"class.autofill::AutofillQueryContents_Form_Field"* nocapture, i32) local_unnamed_addr #8 align 2 {
  %3 = getelementptr inbounds %"class.autofill::AutofillQueryContents_Form_Field", %"class.autofill::AutofillQueryContents_Form_Field"* %0, i64 0, i32 2, i32 0, i32 0, i32 0, i32 0, i32 0, i32 0
  store atomic i32 %1, i32* %3 monotonic, align 4
  ret void
}

; Function Attrs: nounwind ssp uwtable
define hidden dereferenceable(56) %"class.autofill::AutofillQueryContents_Form_Field"* @_ZN8autofill32AutofillQueryContents_Form_Field16default_instanceEv() local_unnamed_addr #0 align 2 {
  %1 = load atomic i32, i32* getelementptr inbounds ({ { { { i32 } }, i32, i32, void ()* }, [1 x i8*] }, { { { { i32 } }, i32, i32, void ()* }, [1 x i8*] }* @scc_info_AutofillQueryContents_Form_Field_server_2eproto, i64 0, i32 0, i32 0, i32 0, i32 0) acquire, align 8
  %2 = icmp eq i32 %1, 0
  br i1 %2, label %4, label %3, !prof !2

3:                                                ; preds = %0
  tail call void @_ZN6google8protobuf8internal11InitSCCImplEPNS1_11SCCInfoBaseE(%"struct.google::protobuf::internal::SCCInfoBase"* bitcast ({ { { { i32 } }, i32, i32, void ()* }, [1 x i8*] }* @scc_info_AutofillQueryContents_Form_Field_server_2eproto to %"struct.google::protobuf::internal::SCCInfoBase"*)) #18
  br label %4

4:                                                ; preds = %0, %3
  ret %"class.autofill::AutofillQueryContents_Form_Field"* bitcast (%"class.autofill::AutofillQueryContents_Form_FieldDefaultTypeInternal"* @_ZN8autofill51_AutofillQueryContents_Form_Field_default_instance_E to %"class.autofill::AutofillQueryContents_Form_Field"*)
}

; Function Attrs: nofree norecurse nounwind ssp uwtable
define hidden void @_ZN8autofill32AutofillQueryContents_Form_Field5ClearEv(%"class.autofill::AutofillQueryContents_Form_Field"* nocapture) unnamed_addr #8 align 2 {
  %2 = getelementptr inbounds %"class.autofill::AutofillQueryContents_Form_Field", %"class.autofill::AutofillQueryContents_Form_Field"* %0, i64 0, i32 1, i32 0, i64 0
  %3 = load i32, i32* %2, align 4
  %4 = and i32 %3, 7
  %5 = icmp eq i32 %4, 0
  br i1 %5, label %44, label %6

6:                                                ; preds = %1
  %7 = and i32 %3, 1
  %8 = icmp eq i32 %7, 0
  br i1 %8, label %22, label %9

9:                                                ; preds = %6
  %10 = getelementptr inbounds %"class.autofill::AutofillQueryContents_Form_Field", %"class.autofill::AutofillQueryContents_Form_Field"* %0, i64 0, i32 3, i32 0
  %11 = load %"class.std::__1::basic_string"*, %"class.std::__1::basic_string"** %10, align 8
  %12 = bitcast %"class.std::__1::basic_string"* %11 to %"struct.std::__1::basic_string<char, std::__1::char_traits<char>, std::__1::allocator<char> >::__short"*
  %13 = getelementptr inbounds %"struct.std::__1::basic_string<char, std::__1::char_traits<char>, std::__1::allocator<char> >::__short", %"struct.std::__1::basic_string<char, std::__1::char_traits<char>, std::__1::allocator<char> >::__short"* %12, i64 0, i32 1, i32 0
  %14 = load i8, i8* %13, align 1
  %15 = icmp slt i8 %14, 0
  br i1 %15, label %16, label %20

16:                                               ; preds = %9
  %17 = getelementptr inbounds %"class.std::__1::basic_string", %"class.std::__1::basic_string"* %11, i64 0, i32 0, i32 0, i32 0, i32 0, i32 0, i32 0
  %18 = load i8*, i8** %17, align 8
  store i8 0, i8* %18, align 1
  %19 = getelementptr inbounds %"class.std::__1::basic_string", %"class.std::__1::basic_string"* %11, i64 0, i32 0, i32 0, i32 0, i32 0, i32 0, i32 1
  store i64 0, i64* %19, align 8
  br label %22

20:                                               ; preds = %9
  %21 = bitcast %"class.std::__1::basic_string"* %11 to i8*
  store i8 0, i8* %21, align 1
  store i8 0, i8* %13, align 1
  br label %22

22:                                               ; preds = %20, %16, %6
  %23 = and i32 %3, 2
  %24 = icmp eq i32 %23, 0
  br i1 %24, label %38, label %25

25:                                               ; preds = %22
  %26 = getelementptr inbounds %"class.autofill::AutofillQueryContents_Form_Field", %"class.autofill::AutofillQueryContents_Form_Field"* %0, i64 0, i32 4, i32 0
  %27 = load %"class.std::__1::basic_string"*, %"class.std::__1::basic_string"** %26, align 8
  %28 = bitcast %"class.std::__1::basic_string"* %27 to %"struct.std::__1::basic_string<char, std::__1::char_traits<char>, std::__1::allocator<char> >::__short"*
  %29 = getelementptr inbounds %"struct.std::__1::basic_string<char, std::__1::char_traits<char>, std::__1::allocator<char> >::__short", %"struct.std::__1::basic_string<char, std::__1::char_traits<char>, std::__1::allocator<char> >::__short"* %28, i64 0, i32 1, i32 0
  %30 = load i8, i8* %29, align 1
  %31 = icmp slt i8 %30, 0
  br i1 %31, label %32, label %36

32:                                               ; preds = %25
  %33 = getelementptr inbounds %"class.std::__1::basic_string", %"class.std::__1::basic_string"* %27, i64 0, i32 0, i32 0, i32 0, i32 0, i32 0, i32 0
  %34 = load i8*, i8** %33, align 8
  store i8 0, i8* %34, align 1
  %35 = getelementptr inbounds %"class.std::__1::basic_string", %"class.std::__1::basic_string"* %27, i64 0, i32 0, i32 0, i32 0, i32 0, i32 0, i32 1
  store i64 0, i64* %35, align 8
  br label %38

36:                                               ; preds = %25
  %37 = bitcast %"class.std::__1::basic_string"* %27 to i8*
  store i8 0, i8* %37, align 1
  store i8 0, i8* %29, align 1
  br label %38

38:                                               ; preds = %36, %32, %22
  %39 = and i32 %3, 4
  %40 = icmp eq i32 %39, 0
  br i1 %40, label %44, label %41

41:                                               ; preds = %38
  %42 = getelementptr inbounds %"class.autofill::AutofillQueryContents_Form_Field", %"class.autofill::AutofillQueryContents_Form_Field"* %0, i64 0, i32 5
  %43 = load %"class.autofill::AutofillRandomizedFieldMetadata"*, %"class.autofill::AutofillRandomizedFieldMetadata"** %42, align 8
  tail call void @_ZN8autofill31AutofillRandomizedFieldMetadata5ClearEv(%"class.autofill::AutofillRandomizedFieldMetadata"* %43)
  br label %44

44:                                               ; preds = %38, %1, %41
  %45 = getelementptr inbounds %"class.autofill::AutofillQueryContents_Form_Field", %"class.autofill::AutofillQueryContents_Form_Field"* %0, i64 0, i32 6
  store i32 0, i32* %45, align 8
  store i32 0, i32* %2, align 4
  %46 = getelementptr inbounds %"class.autofill::AutofillQueryContents_Form_Field", %"class.autofill::AutofillQueryContents_Form_Field"* %0, i64 0, i32 0, i32 1
  %47 = bitcast %"class.google::protobuf::internal::InternalMetadata"* %46 to i64*
  %48 = load i64, i64* %47, align 8
  %49 = and i64 %48, 1
  %50 = icmp eq i64 %49, 0
  br i1 %50, label %65, label %51

51:                                               ; preds = %44
  %52 = and i64 %48, -2
  %53 = inttoptr i64 %52 to %"struct.google::protobuf::internal::InternalMetadata::Container"*
  %54 = getelementptr inbounds %"struct.google::protobuf::internal::InternalMetadata::Container", %"struct.google::protobuf::internal::InternalMetadata::Container"* %53, i64 0, i32 1
  %55 = bitcast %"class.std::__1::basic_string"* %54 to %"struct.std::__1::basic_string<char, std::__1::char_traits<char>, std::__1::allocator<char> >::__short"*
  %56 = getelementptr inbounds %"struct.std::__1::basic_string<char, std::__1::char_traits<char>, std::__1::allocator<char> >::__short", %"struct.std::__1::basic_string<char, std::__1::char_traits<char>, std::__1::allocator<char> >::__short"* %55, i64 0, i32 1, i32 0
  %57 = load i8, i8* %56, align 1
  %58 = icmp slt i8 %57, 0
  br i1 %58, label %59, label %63

59:                                               ; preds = %51
  %60 = getelementptr inbounds %"class.std::__1::basic_string", %"class.std::__1::basic_string"* %54, i64 0, i32 0, i32 0, i32 0, i32 0, i32 0, i32 0
  %61 = load i8*, i8** %60, align 8
  store i8 0, i8* %61, align 1
  %62 = getelementptr inbounds %"struct.google::protobuf::internal::InternalMetadata::Container", %"struct.google::protobuf::internal::InternalMetadata::Container"* %53, i64 0, i32 1, i32 0, i32 0, i32 0, i32 0, i32 0, i32 1
  store i64 0, i64* %62, align 8
  br label %65

63:                                               ; preds = %51
  %64 = bitcast %"class.std::__1::basic_string"* %54 to i8*
  store i8 0, i8* %64, align 2
  store i8 0, i8* %56, align 1
  br label %65

65:                                               ; preds = %44, %59, %63
  ret void
}

; Function Attrs: nofree norecurse nounwind ssp uwtable
define hidden void @_ZN8autofill31AutofillRandomizedFieldMetadata5ClearEv(%"class.autofill::AutofillRandomizedFieldMetadata"* nocapture) unnamed_addr #8 align 2 {
  %2 = getelementptr inbounds %"class.autofill::AutofillRandomizedFieldMetadata", %"class.autofill::AutofillRandomizedFieldMetadata"* %0, i64 0, i32 1, i32 0, i64 0
  %3 = load i32, i32* %2, align 4
  %4 = and i32 %3, 255
  %5 = icmp eq i32 %4, 0
  br i1 %5, label %398, label %6

6:                                                ; preds = %1
  %7 = and i32 %3, 1
  %8 = icmp eq i32 %7, 0
  br i1 %8, label %55, label %9

9:                                                ; preds = %6
  %10 = getelementptr inbounds %"class.autofill::AutofillRandomizedFieldMetadata", %"class.autofill::AutofillRandomizedFieldMetadata"* %0, i64 0, i32 3
  %11 = load %"class.autofill::AutofillRandomizedValue"*, %"class.autofill::AutofillRandomizedValue"** %10, align 8
  %12 = getelementptr inbounds %"class.autofill::AutofillRandomizedValue", %"class.autofill::AutofillRandomizedValue"* %11, i64 0, i32 1, i32 0, i64 0
  %13 = load i32, i32* %12, align 4
  %14 = and i32 %13, 1
  %15 = icmp eq i32 %14, 0
  br i1 %15, label %29, label %16

16:                                               ; preds = %9
  %17 = getelementptr inbounds %"class.autofill::AutofillRandomizedValue", %"class.autofill::AutofillRandomizedValue"* %11, i64 0, i32 3, i32 0
  %18 = load %"class.std::__1::basic_string"*, %"class.std::__1::basic_string"** %17, align 8
  %19 = bitcast %"class.std::__1::basic_string"* %18 to %"struct.std::__1::basic_string<char, std::__1::char_traits<char>, std::__1::allocator<char> >::__short"*
  %20 = getelementptr inbounds %"struct.std::__1::basic_string<char, std::__1::char_traits<char>, std::__1::allocator<char> >::__short", %"struct.std::__1::basic_string<char, std::__1::char_traits<char>, std::__1::allocator<char> >::__short"* %19, i64 0, i32 1, i32 0
  %21 = load i8, i8* %20, align 1
  %22 = icmp slt i8 %21, 0
  br i1 %22, label %23, label %27

23:                                               ; preds = %16
  %24 = getelementptr inbounds %"class.std::__1::basic_string", %"class.std::__1::basic_string"* %18, i64 0, i32 0, i32 0, i32 0, i32 0, i32 0, i32 0
  %25 = load i8*, i8** %24, align 8
  store i8 0, i8* %25, align 1
  %26 = getelementptr inbounds %"class.std::__1::basic_string", %"class.std::__1::basic_string"* %18, i64 0, i32 0, i32 0, i32 0, i32 0, i32 0, i32 1
  store i64 0, i64* %26, align 8
  br label %29

27:                                               ; preds = %16
  %28 = bitcast %"class.std::__1::basic_string"* %18 to i8*
  store i8 0, i8* %28, align 1
  store i8 0, i8* %20, align 1
  br label %29

29:                                               ; preds = %27, %23, %9
  %30 = and i32 %13, 6
  %31 = icmp eq i32 %30, 0
  br i1 %31, label %35, label %32

32:                                               ; preds = %29
  %33 = getelementptr inbounds %"class.autofill::AutofillRandomizedValue", %"class.autofill::AutofillRandomizedValue"* %11, i64 0, i32 4
  store i32 0, i32* %33, align 8
  %34 = getelementptr inbounds %"class.autofill::AutofillRandomizedValue", %"class.autofill::AutofillRandomizedValue"* %11, i64 0, i32 5
  store i32 -1, i32* %34, align 4
  br label %35

35:                                               ; preds = %32, %29
  store i32 0, i32* %12, align 4
  %36 = getelementptr inbounds %"class.autofill::AutofillRandomizedValue", %"class.autofill::AutofillRandomizedValue"* %11, i64 0, i32 0, i32 1
  %37 = bitcast %"class.google::protobuf::internal::InternalMetadata"* %36 to i64*
  %38 = load i64, i64* %37, align 8
  %39 = and i64 %38, 1
  %40 = icmp eq i64 %39, 0
  br i1 %40, label %55, label %41

41:                                               ; preds = %35
  %42 = and i64 %38, -2
  %43 = inttoptr i64 %42 to %"struct.google::protobuf::internal::InternalMetadata::Container"*
  %44 = getelementptr inbounds %"struct.google::protobuf::internal::InternalMetadata::Container", %"struct.google::protobuf::internal::InternalMetadata::Container"* %43, i64 0, i32 1
  %45 = bitcast %"class.std::__1::basic_string"* %44 to %"struct.std::__1::basic_string<char, std::__1::char_traits<char>, std::__1::allocator<char> >::__short"*
  %46 = getelementptr inbounds %"struct.std::__1::basic_string<char, std::__1::char_traits<char>, std::__1::allocator<char> >::__short", %"struct.std::__1::basic_string<char, std::__1::char_traits<char>, std::__1::allocator<char> >::__short"* %45, i64 0, i32 1, i32 0
  %47 = load i8, i8* %46, align 1
  %48 = icmp slt i8 %47, 0
  br i1 %48, label %49, label %53

49:                                               ; preds = %41
  %50 = getelementptr inbounds %"class.std::__1::basic_string", %"class.std::__1::basic_string"* %44, i64 0, i32 0, i32 0, i32 0, i32 0, i32 0, i32 0
  %51 = load i8*, i8** %50, align 8
  store i8 0, i8* %51, align 1
  %52 = getelementptr inbounds %"struct.google::protobuf::internal::InternalMetadata::Container", %"struct.google::protobuf::internal::InternalMetadata::Container"* %43, i64 0, i32 1, i32 0, i32 0, i32 0, i32 0, i32 0, i32 1
  store i64 0, i64* %52, align 8
  br label %55

53:                                               ; preds = %41
  %54 = bitcast %"class.std::__1::basic_string"* %44 to i8*
  store i8 0, i8* %54, align 2
  store i8 0, i8* %46, align 1
  br label %55

55:                                               ; preds = %53, %49, %35, %6
  %56 = and i32 %3, 2
  %57 = icmp eq i32 %56, 0
  br i1 %57, label %104, label %58

58:                                               ; preds = %55
  %59 = getelementptr inbounds %"class.autofill::AutofillRandomizedFieldMetadata", %"class.autofill::AutofillRandomizedFieldMetadata"* %0, i64 0, i32 4
  %60 = load %"class.autofill::AutofillRandomizedValue"*, %"class.autofill::AutofillRandomizedValue"** %59, align 8
  %61 = getelementptr inbounds %"class.autofill::AutofillRandomizedValue", %"class.autofill::AutofillRandomizedValue"* %60, i64 0, i32 1, i32 0, i64 0
  %62 = load i32, i32* %61, align 4
  %63 = and i32 %62, 1
  %64 = icmp eq i32 %63, 0
  br i1 %64, label %78, label %65

65:                                               ; preds = %58
  %66 = getelementptr inbounds %"class.autofill::AutofillRandomizedValue", %"class.autofill::AutofillRandomizedValue"* %60, i64 0, i32 3, i32 0
  %67 = load %"class.std::__1::basic_string"*, %"class.std::__1::basic_string"** %66, align 8
  %68 = bitcast %"class.std::__1::basic_string"* %67 to %"struct.std::__1::basic_string<char, std::__1::char_traits<char>, std::__1::allocator<char> >::__short"*
  %69 = getelementptr inbounds %"struct.std::__1::basic_string<char, std::__1::char_traits<char>, std::__1::allocator<char> >::__short", %"struct.std::__1::basic_string<char, std::__1::char_traits<char>, std::__1::allocator<char> >::__short"* %68, i64 0, i32 1, i32 0
  %70 = load i8, i8* %69, align 1
  %71 = icmp slt i8 %70, 0
  br i1 %71, label %72, label %76

72:                                               ; preds = %65
  %73 = getelementptr inbounds %"class.std::__1::basic_string", %"class.std::__1::basic_string"* %67, i64 0, i32 0, i32 0, i32 0, i32 0, i32 0, i32 0
  %74 = load i8*, i8** %73, align 8
  store i8 0, i8* %74, align 1
  %75 = getelementptr inbounds %"class.std::__1::basic_string", %"class.std::__1::basic_string"* %67, i64 0, i32 0, i32 0, i32 0, i32 0, i32 0, i32 1
  store i64 0, i64* %75, align 8
  br label %78

76:                                               ; preds = %65
  %77 = bitcast %"class.std::__1::basic_string"* %67 to i8*
  store i8 0, i8* %77, align 1
  store i8 0, i8* %69, align 1
  br label %78

78:                                               ; preds = %76, %72, %58
  %79 = and i32 %62, 6
  %80 = icmp eq i32 %79, 0
  br i1 %80, label %84, label %81

81:                                               ; preds = %78
  %82 = getelementptr inbounds %"class.autofill::AutofillRandomizedValue", %"class.autofill::AutofillRandomizedValue"* %60, i64 0, i32 4
  store i32 0, i32* %82, align 8
  %83 = getelementptr inbounds %"class.autofill::AutofillRandomizedValue", %"class.autofill::AutofillRandomizedValue"* %60, i64 0, i32 5
  store i32 -1, i32* %83, align 4
  br label %84

84:                                               ; preds = %81, %78
  store i32 0, i32* %61, align 4
  %85 = getelementptr inbounds %"class.autofill::AutofillRandomizedValue", %"class.autofill::AutofillRandomizedValue"* %60, i64 0, i32 0, i32 1
  %86 = bitcast %"class.google::protobuf::internal::InternalMetadata"* %85 to i64*
  %87 = load i64, i64* %86, align 8
  %88 = and i64 %87, 1
  %89 = icmp eq i64 %88, 0
  br i1 %89, label %104, label %90

90:                                               ; preds = %84
  %91 = and i64 %87, -2
  %92 = inttoptr i64 %91 to %"struct.google::protobuf::internal::InternalMetadata::Container"*
  %93 = getelementptr inbounds %"struct.google::protobuf::internal::InternalMetadata::Container", %"struct.google::protobuf::internal::InternalMetadata::Container"* %92, i64 0, i32 1
  %94 = bitcast %"class.std::__1::basic_string"* %93 to %"struct.std::__1::basic_string<char, std::__1::char_traits<char>, std::__1::allocator<char> >::__short"*
  %95 = getelementptr inbounds %"struct.std::__1::basic_string<char, std::__1::char_traits<char>, std::__1::allocator<char> >::__short", %"struct.std::__1::basic_string<char, std::__1::char_traits<char>, std::__1::allocator<char> >::__short"* %94, i64 0, i32 1, i32 0
  %96 = load i8, i8* %95, align 1
  %97 = icmp slt i8 %96, 0
  br i1 %97, label %98, label %102

98:                                               ; preds = %90
  %99 = getelementptr inbounds %"class.std::__1::basic_string", %"class.std::__1::basic_string"* %93, i64 0, i32 0, i32 0, i32 0, i32 0, i32 0, i32 0
  %100 = load i8*, i8** %99, align 8
  store i8 0, i8* %100, align 1
  %101 = getelementptr inbounds %"struct.google::protobuf::internal::InternalMetadata::Container", %"struct.google::protobuf::internal::InternalMetadata::Container"* %92, i64 0, i32 1, i32 0, i32 0, i32 0, i32 0, i32 0, i32 1
  store i64 0, i64* %101, align 8
  br label %104

102:                                              ; preds = %90
  %103 = bitcast %"class.std::__1::basic_string"* %93 to i8*
  store i8 0, i8* %103, align 2
  store i8 0, i8* %95, align 1
  br label %104

104:                                              ; preds = %102, %98, %84, %55
  %105 = and i32 %3, 4
  %106 = icmp eq i32 %105, 0
  br i1 %106, label %153, label %107

107:                                              ; preds = %104
  %108 = getelementptr inbounds %"class.autofill::AutofillRandomizedFieldMetadata", %"class.autofill::AutofillRandomizedFieldMetadata"* %0, i64 0, i32 5
  %109 = load %"class.autofill::AutofillRandomizedValue"*, %"class.autofill::AutofillRandomizedValue"** %108, align 8
  %110 = getelementptr inbounds %"class.autofill::AutofillRandomizedValue", %"class.autofill::AutofillRandomizedValue"* %109, i64 0, i32 1, i32 0, i64 0
  %111 = load i32, i32* %110, align 4
  %112 = and i32 %111, 1
  %113 = icmp eq i32 %112, 0
  br i1 %113, label %127, label %114

114:                                              ; preds = %107
  %115 = getelementptr inbounds %"class.autofill::AutofillRandomizedValue", %"class.autofill::AutofillRandomizedValue"* %109, i64 0, i32 3, i32 0
  %116 = load %"class.std::__1::basic_string"*, %"class.std::__1::basic_string"** %115, align 8
  %117 = bitcast %"class.std::__1::basic_string"* %116 to %"struct.std::__1::basic_string<char, std::__1::char_traits<char>, std::__1::allocator<char> >::__short"*
  %118 = getelementptr inbounds %"struct.std::__1::basic_string<char, std::__1::char_traits<char>, std::__1::allocator<char> >::__short", %"struct.std::__1::basic_string<char, std::__1::char_traits<char>, std::__1::allocator<char> >::__short"* %117, i64 0, i32 1, i32 0
  %119 = load i8, i8* %118, align 1
  %120 = icmp slt i8 %119, 0
  br i1 %120, label %121, label %125

121:                                              ; preds = %114
  %122 = getelementptr inbounds %"class.std::__1::basic_string", %"class.std::__1::basic_string"* %116, i64 0, i32 0, i32 0, i32 0, i32 0, i32 0, i32 0
  %123 = load i8*, i8** %122, align 8
  store i8 0, i8* %123, align 1
  %124 = getelementptr inbounds %"class.std::__1::basic_string", %"class.std::__1::basic_string"* %116, i64 0, i32 0, i32 0, i32 0, i32 0, i32 0, i32 1
  store i64 0, i64* %124, align 8
  br label %127

125:                                              ; preds = %114
  %126 = bitcast %"class.std::__1::basic_string"* %116 to i8*
  store i8 0, i8* %126, align 1
  store i8 0, i8* %118, align 1
  br label %127

127:                                              ; preds = %125, %121, %107
  %128 = and i32 %111, 6
  %129 = icmp eq i32 %128, 0
  br i1 %129, label %133, label %130

130:                                              ; preds = %127
  %131 = getelementptr inbounds %"class.autofill::AutofillRandomizedValue", %"class.autofill::AutofillRandomizedValue"* %109, i64 0, i32 4
  store i32 0, i32* %131, align 8
  %132 = getelementptr inbounds %"class.autofill::AutofillRandomizedValue", %"class.autofill::AutofillRandomizedValue"* %109, i64 0, i32 5
  store i32 -1, i32* %132, align 4
  br label %133

133:                                              ; preds = %130, %127
  store i32 0, i32* %110, align 4
  %134 = getelementptr inbounds %"class.autofill::AutofillRandomizedValue", %"class.autofill::AutofillRandomizedValue"* %109, i64 0, i32 0, i32 1
  %135 = bitcast %"class.google::protobuf::internal::InternalMetadata"* %134 to i64*
  %136 = load i64, i64* %135, align 8
  %137 = and i64 %136, 1
  %138 = icmp eq i64 %137, 0
  br i1 %138, label %153, label %139

139:                                              ; preds = %133
  %140 = and i64 %136, -2
  %141 = inttoptr i64 %140 to %"struct.google::protobuf::internal::InternalMetadata::Container"*
  %142 = getelementptr inbounds %"struct.google::protobuf::internal::InternalMetadata::Container", %"struct.google::protobuf::internal::InternalMetadata::Container"* %141, i64 0, i32 1
  %143 = bitcast %"class.std::__1::basic_string"* %142 to %"struct.std::__1::basic_string<char, std::__1::char_traits<char>, std::__1::allocator<char> >::__short"*
  %144 = getelementptr inbounds %"struct.std::__1::basic_string<char, std::__1::char_traits<char>, std::__1::allocator<char> >::__short", %"struct.std::__1::basic_string<char, std::__1::char_traits<char>, std::__1::allocator<char> >::__short"* %143, i64 0, i32 1, i32 0
  %145 = load i8, i8* %144, align 1
  %146 = icmp slt i8 %145, 0
  br i1 %146, label %147, label %151

147:                                              ; preds = %139
  %148 = getelementptr inbounds %"class.std::__1::basic_string", %"class.std::__1::basic_string"* %142, i64 0, i32 0, i32 0, i32 0, i32 0, i32 0, i32 0
  %149 = load i8*, i8** %148, align 8
  store i8 0, i8* %149, align 1
  %150 = getelementptr inbounds %"struct.google::protobuf::internal::InternalMetadata::Container", %"struct.google::protobuf::internal::InternalMetadata::Container"* %141, i64 0, i32 1, i32 0, i32 0, i32 0, i32 0, i32 0, i32 1
  store i64 0, i64* %150, align 8
  br label %153

151:                                              ; preds = %139
  %152 = bitcast %"class.std::__1::basic_string"* %142 to i8*
  store i8 0, i8* %152, align 2
  store i8 0, i8* %144, align 1
  br label %153

153:                                              ; preds = %151, %147, %133, %104
  %154 = and i32 %3, 8
  %155 = icmp eq i32 %154, 0
  br i1 %155, label %202, label %156

156:                                              ; preds = %153
  %157 = getelementptr inbounds %"class.autofill::AutofillRandomizedFieldMetadata", %"class.autofill::AutofillRandomizedFieldMetadata"* %0, i64 0, i32 6
  %158 = load %"class.autofill::AutofillRandomizedValue"*, %"class.autofill::AutofillRandomizedValue"** %157, align 8
  %159 = getelementptr inbounds %"class.autofill::AutofillRandomizedValue", %"class.autofill::AutofillRandomizedValue"* %158, i64 0, i32 1, i32 0, i64 0
  %160 = load i32, i32* %159, align 4
  %161 = and i32 %160, 1
  %162 = icmp eq i32 %161, 0
  br i1 %162, label %176, label %163

163:                                              ; preds = %156
  %164 = getelementptr inbounds %"class.autofill::AutofillRandomizedValue", %"class.autofill::AutofillRandomizedValue"* %158, i64 0, i32 3, i32 0
  %165 = load %"class.std::__1::basic_string"*, %"class.std::__1::basic_string"** %164, align 8
  %166 = bitcast %"class.std::__1::basic_string"* %165 to %"struct.std::__1::basic_string<char, std::__1::char_traits<char>, std::__1::allocator<char> >::__short"*
  %167 = getelementptr inbounds %"struct.std::__1::basic_string<char, std::__1::char_traits<char>, std::__1::allocator<char> >::__short", %"struct.std::__1::basic_string<char, std::__1::char_traits<char>, std::__1::allocator<char> >::__short"* %166, i64 0, i32 1, i32 0
  %168 = load i8, i8* %167, align 1
  %169 = icmp slt i8 %168, 0
  br i1 %169, label %170, label %174

170:                                              ; preds = %163
  %171 = getelementptr inbounds %"class.std::__1::basic_string", %"class.std::__1::basic_string"* %165, i64 0, i32 0, i32 0, i32 0, i32 0, i32 0, i32 0
  %172 = load i8*, i8** %171, align 8
  store i8 0, i8* %172, align 1
  %173 = getelementptr inbounds %"class.std::__1::basic_string", %"class.std::__1::basic_string"* %165, i64 0, i32 0, i32 0, i32 0, i32 0, i32 0, i32 1
  store i64 0, i64* %173, align 8
  br label %176

174:                                              ; preds = %163
  %175 = bitcast %"class.std::__1::basic_string"* %165 to i8*
  store i8 0, i8* %175, align 1
  store i8 0, i8* %167, align 1
  br label %176

176:                                              ; preds = %174, %170, %156
  %177 = and i32 %160, 6
  %178 = icmp eq i32 %177, 0
  br i1 %178, label %182, label %179

179:                                              ; preds = %176
  %180 = getelementptr inbounds %"class.autofill::AutofillRandomizedValue", %"class.autofill::AutofillRandomizedValue"* %158, i64 0, i32 4
  store i32 0, i32* %180, align 8
  %181 = getelementptr inbounds %"class.autofill::AutofillRandomizedValue", %"class.autofill::AutofillRandomizedValue"* %158, i64 0, i32 5
  store i32 -1, i32* %181, align 4
  br label %182

182:                                              ; preds = %179, %176
  store i32 0, i32* %159, align 4
  %183 = getelementptr inbounds %"class.autofill::AutofillRandomizedValue", %"class.autofill::AutofillRandomizedValue"* %158, i64 0, i32 0, i32 1
  %184 = bitcast %"class.google::protobuf::internal::InternalMetadata"* %183 to i64*
  %185 = load i64, i64* %184, align 8
  %186 = and i64 %185, 1
  %187 = icmp eq i64 %186, 0
  br i1 %187, label %202, label %188

188:                                              ; preds = %182
  %189 = and i64 %185, -2
  %190 = inttoptr i64 %189 to %"struct.google::protobuf::internal::InternalMetadata::Container"*
  %191 = getelementptr inbounds %"struct.google::protobuf::internal::InternalMetadata::Container", %"struct.google::protobuf::internal::InternalMetadata::Container"* %190, i64 0, i32 1
  %192 = bitcast %"class.std::__1::basic_string"* %191 to %"struct.std::__1::basic_string<char, std::__1::char_traits<char>, std::__1::allocator<char> >::__short"*
  %193 = getelementptr inbounds %"struct.std::__1::basic_string<char, std::__1::char_traits<char>, std::__1::allocator<char> >::__short", %"struct.std::__1::basic_string<char, std::__1::char_traits<char>, std::__1::allocator<char> >::__short"* %192, i64 0, i32 1, i32 0
  %194 = load i8, i8* %193, align 1
  %195 = icmp slt i8 %194, 0
  br i1 %195, label %196, label %200

196:                                              ; preds = %188
  %197 = getelementptr inbounds %"class.std::__1::basic_string", %"class.std::__1::basic_string"* %191, i64 0, i32 0, i32 0, i32 0, i32 0, i32 0, i32 0
  %198 = load i8*, i8** %197, align 8
  store i8 0, i8* %198, align 1
  %199 = getelementptr inbounds %"struct.google::protobuf::internal::InternalMetadata::Container", %"struct.google::protobuf::internal::InternalMetadata::Container"* %190, i64 0, i32 1, i32 0, i32 0, i32 0, i32 0, i32 0, i32 1
  store i64 0, i64* %199, align 8
  br label %202

200:                                              ; preds = %188
  %201 = bitcast %"class.std::__1::basic_string"* %191 to i8*
  store i8 0, i8* %201, align 2
  store i8 0, i8* %193, align 1
  br label %202

202:                                              ; preds = %200, %196, %182, %153
  %203 = and i32 %3, 16
  %204 = icmp eq i32 %203, 0
  br i1 %204, label %251, label %205

205:                                              ; preds = %202
  %206 = getelementptr inbounds %"class.autofill::AutofillRandomizedFieldMetadata", %"class.autofill::AutofillRandomizedFieldMetadata"* %0, i64 0, i32 7
  %207 = load %"class.autofill::AutofillRandomizedValue"*, %"class.autofill::AutofillRandomizedValue"** %206, align 8
  %208 = getelementptr inbounds %"class.autofill::AutofillRandomizedValue", %"class.autofill::AutofillRandomizedValue"* %207, i64 0, i32 1, i32 0, i64 0
  %209 = load i32, i32* %208, align 4
  %210 = and i32 %209, 1
  %211 = icmp eq i32 %210, 0
  br i1 %211, label %225, label %212

212:                                              ; preds = %205
  %213 = getelementptr inbounds %"class.autofill::AutofillRandomizedValue", %"class.autofill::AutofillRandomizedValue"* %207, i64 0, i32 3, i32 0
  %214 = load %"class.std::__1::basic_string"*, %"class.std::__1::basic_string"** %213, align 8
  %215 = bitcast %"class.std::__1::basic_string"* %214 to %"struct.std::__1::basic_string<char, std::__1::char_traits<char>, std::__1::allocator<char> >::__short"*
  %216 = getelementptr inbounds %"struct.std::__1::basic_string<char, std::__1::char_traits<char>, std::__1::allocator<char> >::__short", %"struct.std::__1::basic_string<char, std::__1::char_traits<char>, std::__1::allocator<char> >::__short"* %215, i64 0, i32 1, i32 0
  %217 = load i8, i8* %216, align 1
  %218 = icmp slt i8 %217, 0
  br i1 %218, label %219, label %223

219:                                              ; preds = %212
  %220 = getelementptr inbounds %"class.std::__1::basic_string", %"class.std::__1::basic_string"* %214, i64 0, i32 0, i32 0, i32 0, i32 0, i32 0, i32 0
  %221 = load i8*, i8** %220, align 8
  store i8 0, i8* %221, align 1
  %222 = getelementptr inbounds %"class.std::__1::basic_string", %"class.std::__1::basic_string"* %214, i64 0, i32 0, i32 0, i32 0, i32 0, i32 0, i32 1
  store i64 0, i64* %222, align 8
  br label %225

223:                                              ; preds = %212
  %224 = bitcast %"class.std::__1::basic_string"* %214 to i8*
  store i8 0, i8* %224, align 1
  store i8 0, i8* %216, align 1
  br label %225

225:                                              ; preds = %223, %219, %205
  %226 = and i32 %209, 6
  %227 = icmp eq i32 %226, 0
  br i1 %227, label %231, label %228

228:                                              ; preds = %225
  %229 = getelementptr inbounds %"class.autofill::AutofillRandomizedValue", %"class.autofill::AutofillRandomizedValue"* %207, i64 0, i32 4
  store i32 0, i32* %229, align 8
  %230 = getelementptr inbounds %"class.autofill::AutofillRandomizedValue", %"class.autofill::AutofillRandomizedValue"* %207, i64 0, i32 5
  store i32 -1, i32* %230, align 4
  br label %231

231:                                              ; preds = %228, %225
  store i32 0, i32* %208, align 4
  %232 = getelementptr inbounds %"class.autofill::AutofillRandomizedValue", %"class.autofill::AutofillRandomizedValue"* %207, i64 0, i32 0, i32 1
  %233 = bitcast %"class.google::protobuf::internal::InternalMetadata"* %232 to i64*
  %234 = load i64, i64* %233, align 8
  %235 = and i64 %234, 1
  %236 = icmp eq i64 %235, 0
  br i1 %236, label %251, label %237

237:                                              ; preds = %231
  %238 = and i64 %234, -2
  %239 = inttoptr i64 %238 to %"struct.google::protobuf::internal::InternalMetadata::Container"*
  %240 = getelementptr inbounds %"struct.google::protobuf::internal::InternalMetadata::Container", %"struct.google::protobuf::internal::InternalMetadata::Container"* %239, i64 0, i32 1
  %241 = bitcast %"class.std::__1::basic_string"* %240 to %"struct.std::__1::basic_string<char, std::__1::char_traits<char>, std::__1::allocator<char> >::__short"*
  %242 = getelementptr inbounds %"struct.std::__1::basic_string<char, std::__1::char_traits<char>, std::__1::allocator<char> >::__short", %"struct.std::__1::basic_string<char, std::__1::char_traits<char>, std::__1::allocator<char> >::__short"* %241, i64 0, i32 1, i32 0
  %243 = load i8, i8* %242, align 1
  %244 = icmp slt i8 %243, 0
  br i1 %244, label %245, label %249

245:                                              ; preds = %237
  %246 = getelementptr inbounds %"class.std::__1::basic_string", %"class.std::__1::basic_string"* %240, i64 0, i32 0, i32 0, i32 0, i32 0, i32 0, i32 0
  %247 = load i8*, i8** %246, align 8
  store i8 0, i8* %247, align 1
  %248 = getelementptr inbounds %"struct.google::protobuf::internal::InternalMetadata::Container", %"struct.google::protobuf::internal::InternalMetadata::Container"* %239, i64 0, i32 1, i32 0, i32 0, i32 0, i32 0, i32 0, i32 1
  store i64 0, i64* %248, align 8
  br label %251

249:                                              ; preds = %237
  %250 = bitcast %"class.std::__1::basic_string"* %240 to i8*
  store i8 0, i8* %250, align 2
  store i8 0, i8* %242, align 1
  br label %251

251:                                              ; preds = %249, %245, %231, %202
  %252 = and i32 %3, 32
  %253 = icmp eq i32 %252, 0
  br i1 %253, label %300, label %254

254:                                              ; preds = %251
  %255 = getelementptr inbounds %"class.autofill::AutofillRandomizedFieldMetadata", %"class.autofill::AutofillRandomizedFieldMetadata"* %0, i64 0, i32 8
  %256 = load %"class.autofill::AutofillRandomizedValue"*, %"class.autofill::AutofillRandomizedValue"** %255, align 8
  %257 = getelementptr inbounds %"class.autofill::AutofillRandomizedValue", %"class.autofill::AutofillRandomizedValue"* %256, i64 0, i32 1, i32 0, i64 0
  %258 = load i32, i32* %257, align 4
  %259 = and i32 %258, 1
  %260 = icmp eq i32 %259, 0
  br i1 %260, label %274, label %261

261:                                              ; preds = %254
  %262 = getelementptr inbounds %"class.autofill::AutofillRandomizedValue", %"class.autofill::AutofillRandomizedValue"* %256, i64 0, i32 3, i32 0
  %263 = load %"class.std::__1::basic_string"*, %"class.std::__1::basic_string"** %262, align 8
  %264 = bitcast %"class.std::__1::basic_string"* %263 to %"struct.std::__1::basic_string<char, std::__1::char_traits<char>, std::__1::allocator<char> >::__short"*
  %265 = getelementptr inbounds %"struct.std::__1::basic_string<char, std::__1::char_traits<char>, std::__1::allocator<char> >::__short", %"struct.std::__1::basic_string<char, std::__1::char_traits<char>, std::__1::allocator<char> >::__short"* %264, i64 0, i32 1, i32 0
  %266 = load i8, i8* %265, align 1
  %267 = icmp slt i8 %266, 0
  br i1 %267, label %268, label %272

268:                                              ; preds = %261
  %269 = getelementptr inbounds %"class.std::__1::basic_string", %"class.std::__1::basic_string"* %263, i64 0, i32 0, i32 0, i32 0, i32 0, i32 0, i32 0
  %270 = load i8*, i8** %269, align 8
  store i8 0, i8* %270, align 1
  %271 = getelementptr inbounds %"class.std::__1::basic_string", %"class.std::__1::basic_string"* %263, i64 0, i32 0, i32 0, i32 0, i32 0, i32 0, i32 1
  store i64 0, i64* %271, align 8
  br label %274

272:                                              ; preds = %261
  %273 = bitcast %"class.std::__1::basic_string"* %263 to i8*
  store i8 0, i8* %273, align 1
  store i8 0, i8* %265, align 1
  br label %274

274:                                              ; preds = %272, %268, %254
  %275 = and i32 %258, 6
  %276 = icmp eq i32 %275, 0
  br i1 %276, label %280, label %277

277:                                              ; preds = %274
  %278 = getelementptr inbounds %"class.autofill::AutofillRandomizedValue", %"class.autofill::AutofillRandomizedValue"* %256, i64 0, i32 4
  store i32 0, i32* %278, align 8
  %279 = getelementptr inbounds %"class.autofill::AutofillRandomizedValue", %"class.autofill::AutofillRandomizedValue"* %256, i64 0, i32 5
  store i32 -1, i32* %279, align 4
  br label %280

280:                                              ; preds = %277, %274
  store i32 0, i32* %257, align 4
  %281 = getelementptr inbounds %"class.autofill::AutofillRandomizedValue", %"class.autofill::AutofillRandomizedValue"* %256, i64 0, i32 0, i32 1
  %282 = bitcast %"class.google::protobuf::internal::InternalMetadata"* %281 to i64*
  %283 = load i64, i64* %282, align 8
  %284 = and i64 %283, 1
  %285 = icmp eq i64 %284, 0
  br i1 %285, label %300, label %286

286:                                              ; preds = %280
  %287 = and i64 %283, -2
  %288 = inttoptr i64 %287 to %"struct.google::protobuf::internal::InternalMetadata::Container"*
  %289 = getelementptr inbounds %"struct.google::protobuf::internal::InternalMetadata::Container", %"struct.google::protobuf::internal::InternalMetadata::Container"* %288, i64 0, i32 1
  %290 = bitcast %"class.std::__1::basic_string"* %289 to %"struct.std::__1::basic_string<char, std::__1::char_traits<char>, std::__1::allocator<char> >::__short"*
  %291 = getelementptr inbounds %"struct.std::__1::basic_string<char, std::__1::char_traits<char>, std::__1::allocator<char> >::__short", %"struct.std::__1::basic_string<char, std::__1::char_traits<char>, std::__1::allocator<char> >::__short"* %290, i64 0, i32 1, i32 0
  %292 = load i8, i8* %291, align 1
  %293 = icmp slt i8 %292, 0
  br i1 %293, label %294, label %298

294:                                              ; preds = %286
  %295 = getelementptr inbounds %"class.std::__1::basic_string", %"class.std::__1::basic_string"* %289, i64 0, i32 0, i32 0, i32 0, i32 0, i32 0, i32 0
  %296 = load i8*, i8** %295, align 8
  store i8 0, i8* %296, align 1
  %297 = getelementptr inbounds %"struct.google::protobuf::internal::InternalMetadata::Container", %"struct.google::protobuf::internal::InternalMetadata::Container"* %288, i64 0, i32 1, i32 0, i32 0, i32 0, i32 0, i32 0, i32 1
  store i64 0, i64* %297, align 8
  br label %300

298:                                              ; preds = %286
  %299 = bitcast %"class.std::__1::basic_string"* %289 to i8*
  store i8 0, i8* %299, align 2
  store i8 0, i8* %291, align 1
  br label %300

300:                                              ; preds = %298, %294, %280, %251
  %301 = and i32 %3, 64
  %302 = icmp eq i32 %301, 0
  br i1 %302, label %349, label %303

303:                                              ; preds = %300
  %304 = getelementptr inbounds %"class.autofill::AutofillRandomizedFieldMetadata", %"class.autofill::AutofillRandomizedFieldMetadata"* %0, i64 0, i32 9
  %305 = load %"class.autofill::AutofillRandomizedValue"*, %"class.autofill::AutofillRandomizedValue"** %304, align 8
  %306 = getelementptr inbounds %"class.autofill::AutofillRandomizedValue", %"class.autofill::AutofillRandomizedValue"* %305, i64 0, i32 1, i32 0, i64 0
  %307 = load i32, i32* %306, align 4
  %308 = and i32 %307, 1
  %309 = icmp eq i32 %308, 0
  br i1 %309, label %323, label %310

310:                                              ; preds = %303
  %311 = getelementptr inbounds %"class.autofill::AutofillRandomizedValue", %"class.autofill::AutofillRandomizedValue"* %305, i64 0, i32 3, i32 0
  %312 = load %"class.std::__1::basic_string"*, %"class.std::__1::basic_string"** %311, align 8
  %313 = bitcast %"class.std::__1::basic_string"* %312 to %"struct.std::__1::basic_string<char, std::__1::char_traits<char>, std::__1::allocator<char> >::__short"*
  %314 = getelementptr inbounds %"struct.std::__1::basic_string<char, std::__1::char_traits<char>, std::__1::allocator<char> >::__short", %"struct.std::__1::basic_string<char, std::__1::char_traits<char>, std::__1::allocator<char> >::__short"* %313, i64 0, i32 1, i32 0
  %315 = load i8, i8* %314, align 1
  %316 = icmp slt i8 %315, 0
  br i1 %316, label %317, label %321

317:                                              ; preds = %310
  %318 = getelementptr inbounds %"class.std::__1::basic_string", %"class.std::__1::basic_string"* %312, i64 0, i32 0, i32 0, i32 0, i32 0, i32 0, i32 0
  %319 = load i8*, i8** %318, align 8
  store i8 0, i8* %319, align 1
  %320 = getelementptr inbounds %"class.std::__1::basic_string", %"class.std::__1::basic_string"* %312, i64 0, i32 0, i32 0, i32 0, i32 0, i32 0, i32 1
  store i64 0, i64* %320, align 8
  br label %323

321:                                              ; preds = %310
  %322 = bitcast %"class.std::__1::basic_string"* %312 to i8*
  store i8 0, i8* %322, align 1
  store i8 0, i8* %314, align 1
  br label %323

323:                                              ; preds = %321, %317, %303
  %324 = and i32 %307, 6
  %325 = icmp eq i32 %324, 0
  br i1 %325, label %329, label %326

326:                                              ; preds = %323
  %327 = getelementptr inbounds %"class.autofill::AutofillRandomizedValue", %"class.autofill::AutofillRandomizedValue"* %305, i64 0, i32 4
  store i32 0, i32* %327, align 8
  %328 = getelementptr inbounds %"class.autofill::AutofillRandomizedValue", %"class.autofill::AutofillRandomizedValue"* %305, i64 0, i32 5
  store i32 -1, i32* %328, align 4
  br label %329

329:                                              ; preds = %326, %323
  store i32 0, i32* %306, align 4
  %330 = getelementptr inbounds %"class.autofill::AutofillRandomizedValue", %"class.autofill::AutofillRandomizedValue"* %305, i64 0, i32 0, i32 1
  %331 = bitcast %"class.google::protobuf::internal::InternalMetadata"* %330 to i64*
  %332 = load i64, i64* %331, align 8
  %333 = and i64 %332, 1
  %334 = icmp eq i64 %333, 0
  br i1 %334, label %349, label %335

335:                                              ; preds = %329
  %336 = and i64 %332, -2
  %337 = inttoptr i64 %336 to %"struct.google::protobuf::internal::InternalMetadata::Container"*
  %338 = getelementptr inbounds %"struct.google::protobuf::internal::InternalMetadata::Container", %"struct.google::protobuf::internal::InternalMetadata::Container"* %337, i64 0, i32 1
  %339 = bitcast %"class.std::__1::basic_string"* %338 to %"struct.std::__1::basic_string<char, std::__1::char_traits<char>, std::__1::allocator<char> >::__short"*
  %340 = getelementptr inbounds %"struct.std::__1::basic_string<char, std::__1::char_traits<char>, std::__1::allocator<char> >::__short", %"struct.std::__1::basic_string<char, std::__1::char_traits<char>, std::__1::allocator<char> >::__short"* %339, i64 0, i32 1, i32 0
  %341 = load i8, i8* %340, align 1
  %342 = icmp slt i8 %341, 0
  br i1 %342, label %343, label %347

343:                                              ; preds = %335
  %344 = getelementptr inbounds %"class.std::__1::basic_string", %"class.std::__1::basic_string"* %338, i64 0, i32 0, i32 0, i32 0, i32 0, i32 0, i32 0
  %345 = load i8*, i8** %344, align 8
  store i8 0, i8* %345, align 1
  %346 = getelementptr inbounds %"struct.google::protobuf::internal::InternalMetadata::Container", %"struct.google::protobuf::internal::InternalMetadata::Container"* %337, i64 0, i32 1, i32 0, i32 0, i32 0, i32 0, i32 0, i32 1
  store i64 0, i64* %346, align 8
  br label %349

347:                                              ; preds = %335
  %348 = bitcast %"class.std::__1::basic_string"* %338 to i8*
  store i8 0, i8* %348, align 2
  store i8 0, i8* %340, align 1
  br label %349

349:                                              ; preds = %347, %343, %329, %300
  %350 = trunc i32 %3 to i8
  %351 = icmp slt i8 %350, 0
  br i1 %351, label %352, label %398

352:                                              ; preds = %349
  %353 = getelementptr inbounds %"class.autofill::AutofillRandomizedFieldMetadata", %"class.autofill::AutofillRandomizedFieldMetadata"* %0, i64 0, i32 10
  %354 = load %"class.autofill::AutofillRandomizedValue"*, %"class.autofill::AutofillRandomizedValue"** %353, align 8
  %355 = getelementptr inbounds %"class.autofill::AutofillRandomizedValue", %"class.autofill::AutofillRandomizedValue"* %354, i64 0, i32 1, i32 0, i64 0
  %356 = load i32, i32* %355, align 4
  %357 = and i32 %356, 1
  %358 = icmp eq i32 %357, 0
  br i1 %358, label %372, label %359

359:                                              ; preds = %352
  %360 = getelementptr inbounds %"class.autofill::AutofillRandomizedValue", %"class.autofill::AutofillRandomizedValue"* %354, i64 0, i32 3, i32 0
  %361 = load %"class.std::__1::basic_string"*, %"class.std::__1::basic_string"** %360, align 8
  %362 = bitcast %"class.std::__1::basic_string"* %361 to %"struct.std::__1::basic_string<char, std::__1::char_traits<char>, std::__1::allocator<char> >::__short"*
  %363 = getelementptr inbounds %"struct.std::__1::basic_string<char, std::__1::char_traits<char>, std::__1::allocator<char> >::__short", %"struct.std::__1::basic_string<char, std::__1::char_traits<char>, std::__1::allocator<char> >::__short"* %362, i64 0, i32 1, i32 0
  %364 = load i8, i8* %363, align 1
  %365 = icmp slt i8 %364, 0
  br i1 %365, label %366, label %370

366:                                              ; preds = %359
  %367 = getelementptr inbounds %"class.std::__1::basic_string", %"class.std::__1::basic_string"* %361, i64 0, i32 0, i32 0, i32 0, i32 0, i32 0, i32 0
  %368 = load i8*, i8** %367, align 8
  store i8 0, i8* %368, align 1
  %369 = getelementptr inbounds %"class.std::__1::basic_string", %"class.std::__1::basic_string"* %361, i64 0, i32 0, i32 0, i32 0, i32 0, i32 0, i32 1
  store i64 0, i64* %369, align 8
  br label %372

370:                                              ; preds = %359
  %371 = bitcast %"class.std::__1::basic_string"* %361 to i8*
  store i8 0, i8* %371, align 1
  store i8 0, i8* %363, align 1
  br label %372

372:                                              ; preds = %370, %366, %352
  %373 = and i32 %356, 6
  %374 = icmp eq i32 %373, 0
  br i1 %374, label %378, label %375

375:                                              ; preds = %372
  %376 = getelementptr inbounds %"class.autofill::AutofillRandomizedValue", %"class.autofill::AutofillRandomizedValue"* %354, i64 0, i32 4
  store i32 0, i32* %376, align 8
  %377 = getelementptr inbounds %"class.autofill::AutofillRandomizedValue", %"class.autofill::AutofillRandomizedValue"* %354, i64 0, i32 5
  store i32 -1, i32* %377, align 4
  br label %378

378:                                              ; preds = %375, %372
  store i32 0, i32* %355, align 4
  %379 = getelementptr inbounds %"class.autofill::AutofillRandomizedValue", %"class.autofill::AutofillRandomizedValue"* %354, i64 0, i32 0, i32 1
  %380 = bitcast %"class.google::protobuf::internal::InternalMetadata"* %379 to i64*
  %381 = load i64, i64* %380, align 8
  %382 = and i64 %381, 1
  %383 = icmp eq i64 %382, 0
  br i1 %383, label %398, label %384

384:                                              ; preds = %378
  %385 = and i64 %381, -2
  %386 = inttoptr i64 %385 to %"struct.google::protobuf::internal::InternalMetadata::Container"*
  %387 = getelementptr inbounds %"struct.google::protobuf::internal::InternalMetadata::Container", %"struct.google::protobuf::internal::InternalMetadata::Container"* %386, i64 0, i32 1
  %388 = bitcast %"class.std::__1::basic_string"* %387 to %"struct.std::__1::basic_string<char, std::__1::char_traits<char>, std::__1::allocator<char> >::__short"*
  %389 = getelementptr inbounds %"struct.std::__1::basic_string<char, std::__1::char_traits<char>, std::__1::allocator<char> >::__short", %"struct.std::__1::basic_string<char, std::__1::char_traits<char>, std::__1::allocator<char> >::__short"* %388, i64 0, i32 1, i32 0
  %390 = load i8, i8* %389, align 1
  %391 = icmp slt i8 %390, 0
  br i1 %391, label %392, label %396

392:                                              ; preds = %384
  %393 = getelementptr inbounds %"class.std::__1::basic_string", %"class.std::__1::basic_string"* %387, i64 0, i32 0, i32 0, i32 0, i32 0, i32 0, i32 0
  %394 = load i8*, i8** %393, align 8
  store i8 0, i8* %394, align 1
  %395 = getelementptr inbounds %"struct.google::protobuf::internal::InternalMetadata::Container", %"struct.google::protobuf::internal::InternalMetadata::Container"* %386, i64 0, i32 1, i32 0, i32 0, i32 0, i32 0, i32 0, i32 1
  store i64 0, i64* %395, align 8
  br label %398

396:                                              ; preds = %384
  %397 = bitcast %"class.std::__1::basic_string"* %387 to i8*
  store i8 0, i8* %397, align 2
  store i8 0, i8* %389, align 1
  br label %398

398:                                              ; preds = %396, %392, %378, %1, %349
  %399 = and i32 %3, 256
  %400 = icmp eq i32 %399, 0
  br i1 %400, label %447, label %401

401:                                              ; preds = %398
  %402 = getelementptr inbounds %"class.autofill::AutofillRandomizedFieldMetadata", %"class.autofill::AutofillRandomizedFieldMetadata"* %0, i64 0, i32 11
  %403 = load %"class.autofill::AutofillRandomizedValue"*, %"class.autofill::AutofillRandomizedValue"** %402, align 8
  %404 = getelementptr inbounds %"class.autofill::AutofillRandomizedValue", %"class.autofill::AutofillRandomizedValue"* %403, i64 0, i32 1, i32 0, i64 0
  %405 = load i32, i32* %404, align 4
  %406 = and i32 %405, 1
  %407 = icmp eq i32 %406, 0
  br i1 %407, label %421, label %408

408:                                              ; preds = %401
  %409 = getelementptr inbounds %"class.autofill::AutofillRandomizedValue", %"class.autofill::AutofillRandomizedValue"* %403, i64 0, i32 3, i32 0
  %410 = load %"class.std::__1::basic_string"*, %"class.std::__1::basic_string"** %409, align 8
  %411 = bitcast %"class.std::__1::basic_string"* %410 to %"struct.std::__1::basic_string<char, std::__1::char_traits<char>, std::__1::allocator<char> >::__short"*
  %412 = getelementptr inbounds %"struct.std::__1::basic_string<char, std::__1::char_traits<char>, std::__1::allocator<char> >::__short", %"struct.std::__1::basic_string<char, std::__1::char_traits<char>, std::__1::allocator<char> >::__short"* %411, i64 0, i32 1, i32 0
  %413 = load i8, i8* %412, align 1
  %414 = icmp slt i8 %413, 0
  br i1 %414, label %415, label %419

415:                                              ; preds = %408
  %416 = getelementptr inbounds %"class.std::__1::basic_string", %"class.std::__1::basic_string"* %410, i64 0, i32 0, i32 0, i32 0, i32 0, i32 0, i32 0
  %417 = load i8*, i8** %416, align 8
  store i8 0, i8* %417, align 1
  %418 = getelementptr inbounds %"class.std::__1::basic_string", %"class.std::__1::basic_string"* %410, i64 0, i32 0, i32 0, i32 0, i32 0, i32 0, i32 1
  store i64 0, i64* %418, align 8
  br label %421

419:                                              ; preds = %408
  %420 = bitcast %"class.std::__1::basic_string"* %410 to i8*
  store i8 0, i8* %420, align 1
  store i8 0, i8* %412, align 1
  br label %421

421:                                              ; preds = %419, %415, %401
  %422 = and i32 %405, 6
  %423 = icmp eq i32 %422, 0
  br i1 %423, label %427, label %424

424:                                              ; preds = %421
  %425 = getelementptr inbounds %"class.autofill::AutofillRandomizedValue", %"class.autofill::AutofillRandomizedValue"* %403, i64 0, i32 4
  store i32 0, i32* %425, align 8
  %426 = getelementptr inbounds %"class.autofill::AutofillRandomizedValue", %"class.autofill::AutofillRandomizedValue"* %403, i64 0, i32 5
  store i32 -1, i32* %426, align 4
  br label %427

427:                                              ; preds = %424, %421
  store i32 0, i32* %404, align 4
  %428 = getelementptr inbounds %"class.autofill::AutofillRandomizedValue", %"class.autofill::AutofillRandomizedValue"* %403, i64 0, i32 0, i32 1
  %429 = bitcast %"class.google::protobuf::internal::InternalMetadata"* %428 to i64*
  %430 = load i64, i64* %429, align 8
  %431 = and i64 %430, 1
  %432 = icmp eq i64 %431, 0
  br i1 %432, label %447, label %433

433:                                              ; preds = %427
  %434 = and i64 %430, -2
  %435 = inttoptr i64 %434 to %"struct.google::protobuf::internal::InternalMetadata::Container"*
  %436 = getelementptr inbounds %"struct.google::protobuf::internal::InternalMetadata::Container", %"struct.google::protobuf::internal::InternalMetadata::Container"* %435, i64 0, i32 1
  %437 = bitcast %"class.std::__1::basic_string"* %436 to %"struct.std::__1::basic_string<char, std::__1::char_traits<char>, std::__1::allocator<char> >::__short"*
  %438 = getelementptr inbounds %"struct.std::__1::basic_string<char, std::__1::char_traits<char>, std::__1::allocator<char> >::__short", %"struct.std::__1::basic_string<char, std::__1::char_traits<char>, std::__1::allocator<char> >::__short"* %437, i64 0, i32 1, i32 0
  %439 = load i8, i8* %438, align 1
  %440 = icmp slt i8 %439, 0
  br i1 %440, label %441, label %445

441:                                              ; preds = %433
  %442 = getelementptr inbounds %"class.std::__1::basic_string", %"class.std::__1::basic_string"* %436, i64 0, i32 0, i32 0, i32 0, i32 0, i32 0, i32 0
  %443 = load i8*, i8** %442, align 8
  store i8 0, i8* %443, align 1
  %444 = getelementptr inbounds %"struct.google::protobuf::internal::InternalMetadata::Container", %"struct.google::protobuf::internal::InternalMetadata::Container"* %435, i64 0, i32 1, i32 0, i32 0, i32 0, i32 0, i32 0, i32 1
  store i64 0, i64* %444, align 8
  br label %447

445:                                              ; preds = %433
  %446 = bitcast %"class.std::__1::basic_string"* %436 to i8*
  store i8 0, i8* %446, align 2
  store i8 0, i8* %438, align 1
  br label %447

447:                                              ; preds = %445, %441, %427, %398
  store i32 0, i32* %2, align 4
  %448 = getelementptr inbounds %"class.autofill::AutofillRandomizedFieldMetadata", %"class.autofill::AutofillRandomizedFieldMetadata"* %0, i64 0, i32 0, i32 1
  %449 = bitcast %"class.google::protobuf::internal::InternalMetadata"* %448 to i64*
  %450 = load i64, i64* %449, align 8
  %451 = and i64 %450, 1
  %452 = icmp eq i64 %451, 0
  br i1 %452, label %467, label %453

453:                                              ; preds = %447
  %454 = and i64 %450, -2
  %455 = inttoptr i64 %454 to %"struct.google::protobuf::internal::InternalMetadata::Container"*
  %456 = getelementptr inbounds %"struct.google::protobuf::internal::InternalMetadata::Container", %"struct.google::protobuf::internal::InternalMetadata::Container"* %455, i64 0, i32 1
  %457 = bitcast %"class.std::__1::basic_string"* %456 to %"struct.std::__1::basic_string<char, std::__1::char_traits<char>, std::__1::allocator<char> >::__short"*
  %458 = getelementptr inbounds %"struct.std::__1::basic_string<char, std::__1::char_traits<char>, std::__1::allocator<char> >::__short", %"struct.std::__1::basic_string<char, std::__1::char_traits<char>, std::__1::allocator<char> >::__short"* %457, i64 0, i32 1, i32 0
  %459 = load i8, i8* %458, align 1
  %460 = icmp slt i8 %459, 0
  br i1 %460, label %461, label %465

461:                                              ; preds = %453
  %462 = getelementptr inbounds %"class.std::__1::basic_string", %"class.std::__1::basic_string"* %456, i64 0, i32 0, i32 0, i32 0, i32 0, i32 0, i32 0
  %463 = load i8*, i8** %462, align 8
  store i8 0, i8* %463, align 1
  %464 = getelementptr inbounds %"struct.google::protobuf::internal::InternalMetadata::Container", %"struct.google::protobuf::internal::InternalMetadata::Container"* %455, i64 0, i32 1, i32 0, i32 0, i32 0, i32 0, i32 0, i32 1
  store i64 0, i64* %464, align 8
  br label %467

465:                                              ; preds = %453
  %466 = bitcast %"class.std::__1::basic_string"* %456 to i8*
  store i8 0, i8* %466, align 2
  store i8 0, i8* %458, align 1
  br label %467

467:                                              ; preds = %447, %461, %465
  ret void
}

; Function Attrs: nounwind ssp uwtable
define hidden i8* @_ZN8autofill32AutofillQueryContents_Form_Field14_InternalParseEPKcPN6google8protobuf8internal12ParseContextE(%"class.autofill::AutofillQueryContents_Form_Field"*, i8*, %"class.google::protobuf::internal::ParseContext"*) unnamed_addr #0 align 2 {
  %4 = getelementptr inbounds %"class.google::protobuf::internal::ParseContext", %"class.google::protobuf::internal::ParseContext"* %2, i64 0, i32 0
  %5 = getelementptr inbounds %"class.google::protobuf::internal::ParseContext", %"class.google::protobuf::internal::ParseContext"* %2, i64 0, i32 2
  %6 = getelementptr inbounds %"class.google::protobuf::internal::ParseContext", %"class.google::protobuf::internal::ParseContext"* %2, i64 0, i32 0, i32 0
  %7 = getelementptr inbounds %"class.google::protobuf::internal::ParseContext", %"class.google::protobuf::internal::ParseContext"* %2, i64 0, i32 0, i32 1
  %8 = bitcast i8** %7 to i64*
  %9 = getelementptr inbounds %"class.google::protobuf::internal::ParseContext", %"class.google::protobuf::internal::ParseContext"* %2, i64 0, i32 0, i32 4
  %10 = getelementptr inbounds %"class.autofill::AutofillQueryContents_Form_Field", %"class.autofill::AutofillQueryContents_Form_Field"* %0, i64 0, i32 1, i32 0, i64 0
  %11 = getelementptr inbounds %"class.autofill::AutofillQueryContents_Form_Field", %"class.autofill::AutofillQueryContents_Form_Field"* %0, i64 0, i32 5
  %12 = getelementptr inbounds %"class.autofill::AutofillQueryContents_Form_Field", %"class.autofill::AutofillQueryContents_Form_Field"* %0, i64 0, i32 0, i32 1
  %13 = bitcast %"class.google::protobuf::internal::InternalMetadata"* %12 to i64*
  %14 = getelementptr inbounds %"class.autofill::AutofillQueryContents_Form_Field", %"class.autofill::AutofillQueryContents_Form_Field"* %0, i64 0, i32 4
  %15 = getelementptr inbounds %"struct.google::protobuf::internal::ArenaStringPtr", %"struct.google::protobuf::internal::ArenaStringPtr"* %14, i64 0, i32 0
  %16 = getelementptr inbounds %"class.autofill::AutofillQueryContents_Form_Field", %"class.autofill::AutofillQueryContents_Form_Field"* %0, i64 0, i32 3
  %17 = getelementptr inbounds %"struct.google::protobuf::internal::ArenaStringPtr", %"struct.google::protobuf::internal::ArenaStringPtr"* %16, i64 0, i32 0
  %18 = getelementptr inbounds %"class.autofill::AutofillQueryContents_Form_Field", %"class.autofill::AutofillQueryContents_Form_Field"* %0, i64 0, i32 6
  br label %19

19:                                               ; preds = %68, %3
  %20 = phi i8* [ %72, %68 ], [ %1, %3 ]
  %21 = phi i32 [ %69, %68 ], [ 0, %3 ]
  br label %22

22:                                               ; preds = %125, %19
  %23 = phi i8* [ %20, %19 ], [ %126, %125 ]
  %24 = load i32, i32* %5, align 4
  %25 = load i8*, i8** %6, align 8
  %26 = icmp ult i8* %23, %25
  br i1 %26, label %40, label %27, !prof !2

27:                                               ; preds = %22
  %28 = load i64, i64* %8, align 8
  %29 = ptrtoint i8* %23 to i64
  %30 = sub i64 %29, %28
  %31 = load i32, i32* %9, align 4
  %32 = sext i32 %31 to i64
  %33 = icmp eq i64 %30, %32
  br i1 %33, label %175, label %34

34:                                               ; preds = %27
  %35 = tail call { i8*, i8 } @_ZN6google8protobuf8internal18EpsCopyInputStream12DoneFallbackEPKci(%"class.google::protobuf::internal::EpsCopyInputStream"* %4, i8* %23, i32 %24) #18
  %36 = extractvalue { i8*, i8 } %35, 0
  %37 = extractvalue { i8*, i8 } %35, 1
  %38 = and i8 %37, 1
  %39 = icmp eq i8 %38, 0
  br i1 %39, label %40, label %175

40:                                               ; preds = %34, %22
  %41 = phi i8* [ %36, %34 ], [ %23, %22 ]
  %42 = load i8, i8* %41, align 1
  %43 = zext i8 %42 to i32
  %44 = icmp sgt i8 %42, -1
  %45 = getelementptr inbounds i8, i8* %41, i64 1
  br i1 %44, label %59, label %46

46:                                               ; preds = %40
  %47 = load i8, i8* %45, align 1
  %48 = zext i8 %47 to i32
  %49 = shl nuw nsw i32 %48, 7
  %50 = add nsw i32 %43, -128
  %51 = add nsw i32 %50, %49
  %52 = icmp sgt i8 %47, -1
  br i1 %52, label %53, label %55

53:                                               ; preds = %46
  %54 = getelementptr inbounds i8, i8* %41, i64 2
  br label %59

55:                                               ; preds = %46
  %56 = tail call { i8*, i32 } @_ZN6google8protobuf8internal15ReadTagFallbackEPKcj(i8* %41, i32 %51) #18
  %57 = extractvalue { i8*, i32 } %56, 0
  %58 = extractvalue { i8*, i32 } %56, 1
  br label %59

59:                                               ; preds = %40, %53, %55
  %60 = phi i32 [ %51, %53 ], [ %58, %55 ], [ %43, %40 ]
  %61 = phi i8* [ %54, %53 ], [ %57, %55 ], [ %45, %40 ]
  %62 = icmp eq i8* %61, null
  br i1 %62, label %175, label %63, !prof !6

63:                                               ; preds = %59
  %64 = lshr i32 %60, 3
  switch i32 %64, label %153 [
    i32 5, label %65
    i32 8, label %73
    i32 9, label %99
    i32 13, label %127
  ]

65:                                               ; preds = %63
  %66 = and i32 %60, 255
  %67 = icmp eq i32 %66, 45
  br i1 %67, label %68, label %153, !prof !2

68:                                               ; preds = %65
  %69 = or i32 %21, 8
  %70 = bitcast i8* %61 to i32*
  %71 = load i32, i32* %70, align 1
  store i32 %71, i32* %18, align 8
  %72 = getelementptr inbounds i8, i8* %61, i64 4
  br label %19

73:                                               ; preds = %63
  %74 = and i32 %60, 255
  %75 = icmp eq i32 %74, 66
  br i1 %75, label %76, label %153, !prof !2

76:                                               ; preds = %73
  %77 = load i32, i32* %10, align 4
  %78 = or i32 %77, 1
  store i32 %78, i32* %10, align 4
  %79 = load i64, i64* %13, align 8
  %80 = and i64 %79, 1
  %81 = icmp eq i64 %80, 0
  %82 = and i64 %79, -2
  br i1 %81, label %87, label %83, !prof !2

83:                                               ; preds = %76
  %84 = inttoptr i64 %82 to %"struct.google::protobuf::internal::InternalMetadata::ContainerBase"*
  %85 = getelementptr inbounds %"struct.google::protobuf::internal::InternalMetadata::ContainerBase", %"struct.google::protobuf::internal::InternalMetadata::ContainerBase"* %84, i64 0, i32 0
  %86 = load %"class.google::protobuf::Arena"*, %"class.google::protobuf::Arena"** %85, align 8
  br label %89

87:                                               ; preds = %76
  %88 = inttoptr i64 %82 to %"class.google::protobuf::Arena"*
  br label %89

89:                                               ; preds = %87, %83
  %90 = phi %"class.google::protobuf::Arena"* [ %86, %83 ], [ %88, %87 ]
  %91 = load %"class.std::__1::basic_string"*, %"class.std::__1::basic_string"** %17, align 8
  %92 = icmp eq %"class.std::__1::basic_string"* %91, bitcast (%"class.google::protobuf::internal::ExplicitlyConstructed.22"* @_ZN6google8protobuf8internal26fixed_address_empty_stringE to %"class.std::__1::basic_string"*)
  br i1 %92, label %93, label %95

93:                                               ; preds = %89
  tail call void @_ZN6google8protobuf8internal14ArenaStringPtr14CreateInstanceEPNS0_5ArenaEPKNSt3__112basic_stringIcNS5_11char_traitsIcEENS5_9allocatorIcEEEE(%"struct.google::protobuf::internal::ArenaStringPtr"* %16, %"class.google::protobuf::Arena"* %90, %"class.std::__1::basic_string"* bitcast (%"class.google::protobuf::internal::ExplicitlyConstructed.22"* @_ZN6google8protobuf8internal26fixed_address_empty_stringE to %"class.std::__1::basic_string"*)) #18
  %94 = load %"class.std::__1::basic_string"*, %"class.std::__1::basic_string"** %17, align 8
  br label %95

95:                                               ; preds = %89, %93
  %96 = phi %"class.std::__1::basic_string"* [ %94, %93 ], [ %91, %89 ]
  %97 = tail call i8* @_ZN6google8protobuf8internal24InlineGreedyStringParserEPNSt3__112basic_stringIcNS2_11char_traitsIcEENS2_9allocatorIcEEEEPKcPNS1_12ParseContextE(%"class.std::__1::basic_string"* %96, i8* nonnull %61, %"class.google::protobuf::internal::ParseContext"* %2) #18
  %98 = icmp eq i8* %97, null
  br i1 %98, label %175, label %125

99:                                               ; preds = %63
  %100 = and i32 %60, 255
  %101 = icmp eq i32 %100, 74
  br i1 %101, label %102, label %153, !prof !2

102:                                              ; preds = %99
  %103 = load i32, i32* %10, align 4
  %104 = or i32 %103, 2
  store i32 %104, i32* %10, align 4
  %105 = load i64, i64* %13, align 8
  %106 = and i64 %105, 1
  %107 = icmp eq i64 %106, 0
  %108 = and i64 %105, -2
  br i1 %107, label %113, label %109, !prof !2

109:                                              ; preds = %102
  %110 = inttoptr i64 %108 to %"struct.google::protobuf::internal::InternalMetadata::ContainerBase"*
  %111 = getelementptr inbounds %"struct.google::protobuf::internal::InternalMetadata::ContainerBase", %"struct.google::protobuf::internal::InternalMetadata::ContainerBase"* %110, i64 0, i32 0
  %112 = load %"class.google::protobuf::Arena"*, %"class.google::protobuf::Arena"** %111, align 8
  br label %115

113:                                              ; preds = %102
  %114 = inttoptr i64 %108 to %"class.google::protobuf::Arena"*
  br label %115

115:                                              ; preds = %113, %109
  %116 = phi %"class.google::protobuf::Arena"* [ %112, %109 ], [ %114, %113 ]
  %117 = load %"class.std::__1::basic_string"*, %"class.std::__1::basic_string"** %15, align 8
  %118 = icmp eq %"class.std::__1::basic_string"* %117, bitcast (%"class.google::protobuf::internal::ExplicitlyConstructed.22"* @_ZN6google8protobuf8internal26fixed_address_empty_stringE to %"class.std::__1::basic_string"*)
  br i1 %118, label %119, label %121

119:                                              ; preds = %115
  tail call void @_ZN6google8protobuf8internal14ArenaStringPtr14CreateInstanceEPNS0_5ArenaEPKNSt3__112basic_stringIcNS5_11char_traitsIcEENS5_9allocatorIcEEEE(%"struct.google::protobuf::internal::ArenaStringPtr"* %14, %"class.google::protobuf::Arena"* %116, %"class.std::__1::basic_string"* bitcast (%"class.google::protobuf::internal::ExplicitlyConstructed.22"* @_ZN6google8protobuf8internal26fixed_address_empty_stringE to %"class.std::__1::basic_string"*)) #18
  %120 = load %"class.std::__1::basic_string"*, %"class.std::__1::basic_string"** %15, align 8
  br label %121

121:                                              ; preds = %115, %119
  %122 = phi %"class.std::__1::basic_string"* [ %120, %119 ], [ %117, %115 ]
  %123 = tail call i8* @_ZN6google8protobuf8internal24InlineGreedyStringParserEPNSt3__112basic_stringIcNS2_11char_traitsIcEENS2_9allocatorIcEEEEPKcPNS1_12ParseContextE(%"class.std::__1::basic_string"* %122, i8* nonnull %61, %"class.google::protobuf::internal::ParseContext"* %2) #18
  %124 = icmp eq i8* %123, null
  br i1 %124, label %175, label %125

125:                                              ; preds = %121, %95, %171, %149
  %126 = phi i8* [ %173, %171 ], [ %151, %149 ], [ %97, %95 ], [ %123, %121 ]
  br label %22

127:                                              ; preds = %63
  %128 = and i32 %60, 255
  %129 = icmp eq i32 %128, 106
  br i1 %129, label %130, label %153, !prof !2

130:                                              ; preds = %127
  %131 = load i32, i32* %10, align 4
  %132 = or i32 %131, 4
  store i32 %132, i32* %10, align 4
  %133 = load %"class.autofill::AutofillRandomizedFieldMetadata"*, %"class.autofill::AutofillRandomizedFieldMetadata"** %11, align 8
  %134 = icmp eq %"class.autofill::AutofillRandomizedFieldMetadata"* %133, null
  br i1 %134, label %135, label %149

135:                                              ; preds = %130
  %136 = load i64, i64* %13, align 8
  %137 = and i64 %136, 1
  %138 = icmp eq i64 %137, 0
  %139 = and i64 %136, -2
  br i1 %138, label %144, label %140, !prof !2

140:                                              ; preds = %135
  %141 = inttoptr i64 %139 to %"struct.google::protobuf::internal::InternalMetadata::ContainerBase"*
  %142 = getelementptr inbounds %"struct.google::protobuf::internal::InternalMetadata::ContainerBase", %"struct.google::protobuf::internal::InternalMetadata::ContainerBase"* %141, i64 0, i32 0
  %143 = load %"class.google::protobuf::Arena"*, %"class.google::protobuf::Arena"** %142, align 8
  br label %146

144:                                              ; preds = %135
  %145 = inttoptr i64 %139 to %"class.google::protobuf::Arena"*
  br label %146

146:                                              ; preds = %144, %140
  %147 = phi %"class.google::protobuf::Arena"* [ %143, %140 ], [ %145, %144 ]
  %148 = tail call %"class.autofill::AutofillRandomizedFieldMetadata"* @_ZN6google8protobuf5Arena18CreateMaybeMessageIN8autofill31AutofillRandomizedFieldMetadataEJEEEPT_PS1_DpOT0_(%"class.google::protobuf::Arena"* %147) #18
  store %"class.autofill::AutofillRandomizedFieldMetadata"* %148, %"class.autofill::AutofillRandomizedFieldMetadata"** %11, align 8
  br label %149

149:                                              ; preds = %130, %146
  %150 = phi %"class.autofill::AutofillRandomizedFieldMetadata"* [ %148, %146 ], [ %133, %130 ]
  %151 = tail call i8* @_ZN6google8protobuf8internal12ParseContext12ParseMessageIN8autofill31AutofillRandomizedFieldMetadataEEEPKcPT_S7_(%"class.google::protobuf::internal::ParseContext"* %2, %"class.autofill::AutofillRandomizedFieldMetadata"* %150, i8* nonnull %61)
  %152 = icmp eq i8* %151, null
  br i1 %152, label %175, label %125

153:                                              ; preds = %63, %127, %99, %73, %65
  %154 = and i32 %60, 7
  %155 = icmp eq i32 %154, 4
  %156 = icmp eq i32 %60, 0
  %157 = or i1 %156, %155
  br i1 %157, label %158, label %161

158:                                              ; preds = %153
  %159 = add i32 %60, -1
  %160 = getelementptr inbounds %"class.google::protobuf::internal::ParseContext", %"class.google::protobuf::internal::ParseContext"* %2, i64 0, i32 0, i32 8
  store i32 %159, i32* %160, align 8
  br label %175

161:                                              ; preds = %153
  %162 = load i64, i64* %13, align 8
  %163 = and i64 %162, 1
  %164 = icmp eq i64 %163, 0
  br i1 %164, label %169, label %165, !prof !6

165:                                              ; preds = %161
  %166 = and i64 %162, -2
  %167 = inttoptr i64 %166 to %"struct.google::protobuf::internal::InternalMetadata::Container"*
  %168 = getelementptr inbounds %"struct.google::protobuf::internal::InternalMetadata::Container", %"struct.google::protobuf::internal::InternalMetadata::Container"* %167, i64 0, i32 1
  br label %171

169:                                              ; preds = %161
  %170 = tail call %"class.std::__1::basic_string"* @_ZN6google8protobuf8internal16InternalMetadata27mutable_unknown_fields_slowINSt3__112basic_stringIcNS4_11char_traitsIcEENS4_9allocatorIcEEEEEEPT_v(%"class.google::protobuf::internal::InternalMetadata"* %12) #18
  br label %171

171:                                              ; preds = %165, %169
  %172 = phi %"class.std::__1::basic_string"* [ %168, %165 ], [ %170, %169 ]
  %173 = tail call i8* @_ZN6google8protobuf8internal17UnknownFieldParseEjPNSt3__112basic_stringIcNS2_11char_traitsIcEENS2_9allocatorIcEEEEPKcPNS1_12ParseContextE(i32 %60, %"class.std::__1::basic_string"* %172, i8* nonnull %61, %"class.google::protobuf::internal::ParseContext"* %2) #18
  %174 = icmp eq i8* %173, null
  br i1 %174, label %175, label %125

175:                                              ; preds = %121, %95, %27, %171, %149, %59, %34, %158
  %176 = phi i8* [ %61, %158 ], [ %36, %34 ], [ null, %59 ], [ null, %149 ], [ null, %171 ], [ %23, %27 ], [ null, %95 ], [ null, %121 ]
  %177 = load i32, i32* %10, align 4
  %178 = or i32 %177, %21
  store i32 %178, i32* %10, align 4
  ret i8* %176
}

declare i8* @_ZN6google8protobuf8internal24InlineGreedyStringParserEPNSt3__112basic_stringIcNS2_11char_traitsIcEENS2_9allocatorIcEEEEPKcPNS1_12ParseContextE(%"class.std::__1::basic_string"*, i8*, %"class.google::protobuf::internal::ParseContext"*) local_unnamed_addr #4

; Function Attrs: nounwind ssp uwtable
define linkonce_odr hidden i8* @_ZN6google8protobuf8internal12ParseContext12ParseMessageIN8autofill31AutofillRandomizedFieldMetadataEEEPKcPT_S7_(%"class.google::protobuf::internal::ParseContext"*, %"class.autofill::AutofillRandomizedFieldMetadata"*, i8*) local_unnamed_addr #0 comdat align 2 {
  %4 = load i8, i8* %2, align 1
  %5 = zext i8 %4 to i32
  %6 = icmp sgt i8 %4, -1
  br i1 %6, label %7, label %9

7:                                                ; preds = %3
  %8 = getelementptr inbounds i8, i8* %2, i64 1
  br label %13

9:                                                ; preds = %3
  %10 = tail call { i8*, i32 } @_ZN6google8protobuf8internal16ReadSizeFallbackEPKcj(i8* %2, i32 %5) #18
  %11 = extractvalue { i8*, i32 } %10, 0
  %12 = extractvalue { i8*, i32 } %10, 1
  br label %13

13:                                               ; preds = %7, %9
  %14 = phi i8* [ %11, %9 ], [ %8, %7 ]
  %15 = phi i32 [ %12, %9 ], [ %5, %7 ]
  %16 = icmp eq i8* %14, null
  br i1 %16, label %55, label %17

17:                                               ; preds = %13
  %18 = getelementptr inbounds %"class.google::protobuf::internal::ParseContext", %"class.google::protobuf::internal::ParseContext"* %0, i64 0, i32 0, i32 1
  %19 = bitcast i8** %18 to i64*
  %20 = load i64, i64* %19, align 8
  %21 = ptrtoint i8* %14 to i64
  %22 = sub i64 %21, %20
  %23 = trunc i64 %22 to i32
  %24 = add nsw i32 %15, %23
  %25 = inttoptr i64 %20 to i8*
  %26 = icmp slt i32 %24, 0
  %27 = select i1 %26, i32 %24, i32 0
  %28 = sext i32 %27 to i64
  %29 = getelementptr inbounds i8, i8* %25, i64 %28
  %30 = getelementptr inbounds %"class.google::protobuf::internal::ParseContext", %"class.google::protobuf::internal::ParseContext"* %0, i64 0, i32 0, i32 0
  store i8* %29, i8** %30, align 8
  %31 = getelementptr inbounds %"class.google::protobuf::internal::ParseContext", %"class.google::protobuf::internal::ParseContext"* %0, i64 0, i32 0, i32 4
  %32 = load i32, i32* %31, align 4
  store i32 %24, i32* %31, align 4
  %33 = sub nsw i32 %32, %24
  %34 = getelementptr inbounds %"class.google::protobuf::internal::ParseContext", %"class.google::protobuf::internal::ParseContext"* %0, i64 0, i32 1
  %35 = load i32, i32* %34, align 8
  %36 = add nsw i32 %35, -1
  store i32 %36, i32* %34, align 8
  %37 = icmp slt i32 %35, 1
  br i1 %37, label %55, label %38

38:                                               ; preds = %17
  %39 = tail call i8* @_ZN8autofill31AutofillRandomizedFieldMetadata14_InternalParseEPKcPN6google8protobuf8internal12ParseContextE(%"class.autofill::AutofillRandomizedFieldMetadata"* %1, i8* nonnull %14, %"class.google::protobuf::internal::ParseContext"* %0)
  %40 = icmp eq i8* %39, null
  br i1 %40, label %55, label %41, !prof !6

41:                                               ; preds = %38
  %42 = load i32, i32* %34, align 8
  %43 = add nsw i32 %42, 1
  store i32 %43, i32* %34, align 8
  %44 = getelementptr inbounds %"class.google::protobuf::internal::ParseContext", %"class.google::protobuf::internal::ParseContext"* %0, i64 0, i32 0, i32 8
  %45 = load i32, i32* %44, align 8
  %46 = icmp eq i32 %45, 0
  br i1 %46, label %47, label %55, !prof !2

47:                                               ; preds = %41
  %48 = load i32, i32* %31, align 4
  %49 = add nsw i32 %48, %33
  store i32 %49, i32* %31, align 4
  %50 = load i8*, i8** %18, align 8
  %51 = icmp slt i32 %49, 0
  %52 = select i1 %51, i32 %49, i32 0
  %53 = sext i32 %52 to i64
  %54 = getelementptr inbounds i8, i8* %50, i64 %53
  store i8* %54, i8** %30, align 8
  br label %55

55:                                               ; preds = %13, %38, %17, %41, %47
  %56 = phi i8* [ %39, %47 ], [ null, %41 ], [ null, %17 ], [ null, %38 ], [ null, %13 ]
  ret i8* %56
}

declare i8* @_ZN6google8protobuf8internal17UnknownFieldParseEjPNSt3__112basic_stringIcNS2_11char_traitsIcEENS2_9allocatorIcEEEEPKcPNS1_12ParseContextE(i32, %"class.std::__1::basic_string"*, i8*, %"class.google::protobuf::internal::ParseContext"*) local_unnamed_addr #4

; Function Attrs: nounwind ssp uwtable
define hidden i8* @_ZNK8autofill32AutofillQueryContents_Form_Field18_InternalSerializeEPhPN6google8protobuf2io19EpsCopyOutputStreamE(%"class.autofill::AutofillQueryContents_Form_Field"* nocapture readonly, i8*, %"class.google::protobuf::io::EpsCopyOutputStream"*) unnamed_addr #0 align 2 {
  %4 = getelementptr inbounds %"class.autofill::AutofillQueryContents_Form_Field", %"class.autofill::AutofillQueryContents_Form_Field"* %0, i64 0, i32 1, i32 0, i64 0
  %5 = load i32, i32* %4, align 4
  %6 = and i32 %5, 8
  %7 = icmp eq i32 %6, 0
  br i1 %7, label %21, label %8

8:                                                ; preds = %3
  %9 = getelementptr inbounds %"class.google::protobuf::io::EpsCopyOutputStream", %"class.google::protobuf::io::EpsCopyOutputStream"* %2, i64 0, i32 0
  %10 = load i8*, i8** %9, align 8
  %11 = icmp ugt i8* %10, %1
  br i1 %11, label %14, label %12, !prof !2

12:                                               ; preds = %8
  %13 = tail call i8* @_ZN6google8protobuf2io19EpsCopyOutputStream19EnsureSpaceFallbackEPh(%"class.google::protobuf::io::EpsCopyOutputStream"* %2, i8* %1) #18
  br label %14

14:                                               ; preds = %8, %12
  %15 = phi i8* [ %13, %12 ], [ %1, %8 ]
  %16 = getelementptr inbounds %"class.autofill::AutofillQueryContents_Form_Field", %"class.autofill::AutofillQueryContents_Form_Field"* %0, i64 0, i32 6
  %17 = load i32, i32* %16, align 8
  store i8 45, i8* %15, align 1
  %18 = getelementptr inbounds i8, i8* %15, i64 1
  %19 = bitcast i8* %18 to i32*
  store i32 %17, i32* %19, align 1
  %20 = getelementptr inbounds i8, i8* %15, i64 5
  br label %21

21:                                               ; preds = %3, %14
  %22 = phi i8* [ %20, %14 ], [ %1, %3 ]
  %23 = and i32 %5, 1
  %24 = icmp eq i32 %23, 0
  br i1 %24, label %59, label %25

25:                                               ; preds = %21
  %26 = getelementptr inbounds %"class.autofill::AutofillQueryContents_Form_Field", %"class.autofill::AutofillQueryContents_Form_Field"* %0, i64 0, i32 3, i32 0
  %27 = load %"class.std::__1::basic_string"*, %"class.std::__1::basic_string"** %26, align 8
  %28 = bitcast %"class.std::__1::basic_string"* %27 to %"struct.std::__1::basic_string<char, std::__1::char_traits<char>, std::__1::allocator<char> >::__short"*
  %29 = getelementptr inbounds %"struct.std::__1::basic_string<char, std::__1::char_traits<char>, std::__1::allocator<char> >::__short", %"struct.std::__1::basic_string<char, std::__1::char_traits<char>, std::__1::allocator<char> >::__short"* %28, i64 0, i32 1, i32 0
  %30 = load i8, i8* %29, align 1
  %31 = icmp slt i8 %30, 0
  br i1 %31, label %34, label %32

32:                                               ; preds = %25
  %33 = zext i8 %30 to i64
  br label %38

34:                                               ; preds = %25
  %35 = getelementptr inbounds %"class.std::__1::basic_string", %"class.std::__1::basic_string"* %27, i64 0, i32 0, i32 0, i32 0, i32 0, i32 0, i32 1
  %36 = load i64, i64* %35, align 8
  %37 = icmp sgt i64 %36, 127
  br i1 %37, label %46, label %38, !prof !6

38:                                               ; preds = %34, %32
  %39 = phi i64 [ %33, %32 ], [ %36, %34 ]
  %40 = bitcast %"class.google::protobuf::io::EpsCopyOutputStream"* %2 to i64*
  %41 = load i64, i64* %40, align 8
  %42 = ptrtoint i8* %22 to i64
  %43 = sub i64 14, %42
  %44 = add i64 %43, %41
  %45 = icmp slt i64 %44, %39
  br i1 %45, label %46, label %48, !prof !6

46:                                               ; preds = %38, %34
  %47 = tail call i8* @_ZN6google8protobuf2io19EpsCopyOutputStream30WriteStringMaybeAliasedOutlineEjRKNSt3__112basic_stringIcNS3_11char_traitsIcEENS3_9allocatorIcEEEEPh(%"class.google::protobuf::io::EpsCopyOutputStream"* %2, i32 8, %"class.std::__1::basic_string"* dereferenceable(24) %27, i8* %22) #18
  br label %59

48:                                               ; preds = %38
  store i8 66, i8* %22, align 1
  %49 = getelementptr inbounds i8, i8* %22, i64 1
  %50 = trunc i64 %39 to i8
  %51 = getelementptr inbounds i8, i8* %22, i64 2
  store i8 %50, i8* %49, align 1
  %52 = load i8, i8* %29, align 1
  %53 = icmp slt i8 %52, 0
  %54 = getelementptr inbounds %"class.std::__1::basic_string", %"class.std::__1::basic_string"* %27, i64 0, i32 0, i32 0, i32 0, i32 0, i32 0, i32 0
  %55 = load i8*, i8** %54, align 8
  %56 = bitcast %"class.std::__1::basic_string"* %27 to i8*
  %57 = select i1 %53, i8* %55, i8* %56
  tail call void @llvm.memcpy.p0i8.p0i8.i64(i8* align 1 %51, i8* align 1 %57, i64 %39, i1 false) #18
  %58 = getelementptr inbounds i8, i8* %51, i64 %39
  br label %59

59:                                               ; preds = %48, %46, %21
  %60 = phi i8* [ %22, %21 ], [ %47, %46 ], [ %58, %48 ]
  %61 = and i32 %5, 2
  %62 = icmp eq i32 %61, 0
  br i1 %62, label %97, label %63

63:                                               ; preds = %59
  %64 = getelementptr inbounds %"class.autofill::AutofillQueryContents_Form_Field", %"class.autofill::AutofillQueryContents_Form_Field"* %0, i64 0, i32 4, i32 0
  %65 = load %"class.std::__1::basic_string"*, %"class.std::__1::basic_string"** %64, align 8
  %66 = bitcast %"class.std::__1::basic_string"* %65 to %"struct.std::__1::basic_string<char, std::__1::char_traits<char>, std::__1::allocator<char> >::__short"*
  %67 = getelementptr inbounds %"struct.std::__1::basic_string<char, std::__1::char_traits<char>, std::__1::allocator<char> >::__short", %"struct.std::__1::basic_string<char, std::__1::char_traits<char>, std::__1::allocator<char> >::__short"* %66, i64 0, i32 1, i32 0
  %68 = load i8, i8* %67, align 1
  %69 = icmp slt i8 %68, 0
  br i1 %69, label %72, label %70

70:                                               ; preds = %63
  %71 = zext i8 %68 to i64
  br label %76

72:                                               ; preds = %63
  %73 = getelementptr inbounds %"class.std::__1::basic_string", %"class.std::__1::basic_string"* %65, i64 0, i32 0, i32 0, i32 0, i32 0, i32 0, i32 1
  %74 = load i64, i64* %73, align 8
  %75 = icmp sgt i64 %74, 127
  br i1 %75, label %84, label %76, !prof !6

76:                                               ; preds = %72, %70
  %77 = phi i64 [ %71, %70 ], [ %74, %72 ]
  %78 = bitcast %"class.google::protobuf::io::EpsCopyOutputStream"* %2 to i64*
  %79 = load i64, i64* %78, align 8
  %80 = ptrtoint i8* %60 to i64
  %81 = sub i64 14, %80
  %82 = add i64 %81, %79
  %83 = icmp slt i64 %82, %77
  br i1 %83, label %84, label %86, !prof !6

84:                                               ; preds = %76, %72
  %85 = tail call i8* @_ZN6google8protobuf2io19EpsCopyOutputStream30WriteStringMaybeAliasedOutlineEjRKNSt3__112basic_stringIcNS3_11char_traitsIcEENS3_9allocatorIcEEEEPh(%"class.google::protobuf::io::EpsCopyOutputStream"* %2, i32 9, %"class.std::__1::basic_string"* dereferenceable(24) %65, i8* %60) #18
  br label %97

86:                                               ; preds = %76
  store i8 74, i8* %60, align 1
  %87 = getelementptr inbounds i8, i8* %60, i64 1
  %88 = trunc i64 %77 to i8
  %89 = getelementptr inbounds i8, i8* %60, i64 2
  store i8 %88, i8* %87, align 1
  %90 = load i8, i8* %67, align 1
  %91 = icmp slt i8 %90, 0
  %92 = getelementptr inbounds %"class.std::__1::basic_string", %"class.std::__1::basic_string"* %65, i64 0, i32 0, i32 0, i32 0, i32 0, i32 0, i32 0
  %93 = load i8*, i8** %92, align 8
  %94 = bitcast %"class.std::__1::basic_string"* %65 to i8*
  %95 = select i1 %91, i8* %93, i8* %94
  tail call void @llvm.memcpy.p0i8.p0i8.i64(i8* align 1 %89, i8* align 1 %95, i64 %77, i1 false) #18
  %96 = getelementptr inbounds i8, i8* %89, i64 %77
  br label %97

97:                                               ; preds = %86, %84, %59
  %98 = phi i8* [ %60, %59 ], [ %85, %84 ], [ %96, %86 ]
  %99 = and i32 %5, 4
  %100 = icmp eq i32 %99, 0
  br i1 %100, label %142, label %101

101:                                              ; preds = %97
  %102 = getelementptr inbounds %"class.google::protobuf::io::EpsCopyOutputStream", %"class.google::protobuf::io::EpsCopyOutputStream"* %2, i64 0, i32 0
  %103 = load i8*, i8** %102, align 8
  %104 = icmp ugt i8* %103, %98
  br i1 %104, label %107, label %105, !prof !2

105:                                              ; preds = %101
  %106 = tail call i8* @_ZN6google8protobuf2io19EpsCopyOutputStream19EnsureSpaceFallbackEPh(%"class.google::protobuf::io::EpsCopyOutputStream"* %2, i8* %98) #18
  br label %107

107:                                              ; preds = %101, %105
  %108 = phi i8* [ %106, %105 ], [ %98, %101 ]
  %109 = getelementptr inbounds %"class.autofill::AutofillQueryContents_Form_Field", %"class.autofill::AutofillQueryContents_Form_Field"* %0, i64 0, i32 5
  %110 = load %"class.autofill::AutofillRandomizedFieldMetadata"*, %"class.autofill::AutofillRandomizedFieldMetadata"** %109, align 8
  store i8 106, i8* %108, align 1
  %111 = getelementptr inbounds i8, i8* %108, i64 1
  %112 = getelementptr inbounds %"class.autofill::AutofillRandomizedFieldMetadata", %"class.autofill::AutofillRandomizedFieldMetadata"* %110, i64 0, i32 2, i32 0, i32 0, i32 0, i32 0, i32 0, i32 0
  %113 = load atomic i32, i32* %112 monotonic, align 4
  %114 = icmp ult i32 %113, 128
  %115 = trunc i32 %113 to i8
  br i1 %114, label %116, label %118

116:                                              ; preds = %107
  store i8 %115, i8* %111, align 1
  %117 = getelementptr inbounds i8, i8* %108, i64 2
  br label %139

118:                                              ; preds = %107
  %119 = or i8 %115, -128
  store i8 %119, i8* %111, align 1
  %120 = lshr i32 %113, 7
  %121 = icmp ult i32 %113, 16384
  br i1 %121, label %122, label %126

122:                                              ; preds = %118
  %123 = trunc i32 %120 to i8
  %124 = getelementptr inbounds i8, i8* %108, i64 2
  store i8 %123, i8* %124, align 1
  %125 = getelementptr inbounds i8, i8* %108, i64 3
  br label %139

126:                                              ; preds = %118
  %127 = getelementptr inbounds i8, i8* %108, i64 2
  br label %128

128:                                              ; preds = %128, %126
  %129 = phi i32 [ %120, %126 ], [ %133, %128 ]
  %130 = phi i8* [ %127, %126 ], [ %134, %128 ]
  %131 = trunc i32 %129 to i8
  %132 = or i8 %131, -128
  store i8 %132, i8* %130, align 1
  %133 = lshr i32 %129, 7
  %134 = getelementptr inbounds i8, i8* %130, i64 1
  %135 = icmp ugt i32 %129, 16383
  br i1 %135, label %128, label %136, !prof !6

136:                                              ; preds = %128
  %137 = trunc i32 %133 to i8
  %138 = getelementptr inbounds i8, i8* %130, i64 2
  store i8 %137, i8* %134, align 1
  br label %139

139:                                              ; preds = %116, %122, %136
  %140 = phi i8* [ %117, %116 ], [ %125, %122 ], [ %138, %136 ]
  %141 = tail call i8* @_ZNK8autofill31AutofillRandomizedFieldMetadata18_InternalSerializeEPhPN6google8protobuf2io19EpsCopyOutputStreamE(%"class.autofill::AutofillRandomizedFieldMetadata"* %110, i8* %140, %"class.google::protobuf::io::EpsCopyOutputStream"* %2) #18
  br label %142

142:                                              ; preds = %97, %139
  %143 = phi i8* [ %141, %139 ], [ %98, %97 ]
  %144 = getelementptr inbounds %"class.autofill::AutofillQueryContents_Form_Field", %"class.autofill::AutofillQueryContents_Form_Field"* %0, i64 0, i32 0, i32 1
  %145 = bitcast %"class.google::protobuf::internal::InternalMetadata"* %144 to i64*
  %146 = load i64, i64* %145, align 8
  %147 = and i64 %146, 1
  %148 = icmp eq i64 %147, 0
  br i1 %148, label %180, label %149, !prof !2

149:                                              ; preds = %142
  %150 = and i64 %146, -2
  %151 = inttoptr i64 %150 to %"struct.google::protobuf::internal::InternalMetadata::Container"*
  %152 = getelementptr inbounds %"struct.google::protobuf::internal::InternalMetadata::Container", %"struct.google::protobuf::internal::InternalMetadata::Container"* %151, i64 0, i32 1
  %153 = bitcast %"class.std::__1::basic_string"* %152 to %"struct.std::__1::basic_string<char, std::__1::char_traits<char>, std::__1::allocator<char> >::__short"*
  %154 = getelementptr inbounds %"struct.std::__1::basic_string<char, std::__1::char_traits<char>, std::__1::allocator<char> >::__short", %"struct.std::__1::basic_string<char, std::__1::char_traits<char>, std::__1::allocator<char> >::__short"* %153, i64 0, i32 1, i32 0
  %155 = load i8, i8* %154, align 1
  %156 = icmp slt i8 %155, 0
  br i1 %156, label %157, label %162

157:                                              ; preds = %149
  %158 = getelementptr inbounds %"class.std::__1::basic_string", %"class.std::__1::basic_string"* %152, i64 0, i32 0, i32 0, i32 0, i32 0, i32 0, i32 0
  %159 = load i8*, i8** %158, align 8
  %160 = getelementptr inbounds %"struct.google::protobuf::internal::InternalMetadata::Container", %"struct.google::protobuf::internal::InternalMetadata::Container"* %151, i64 0, i32 1, i32 0, i32 0, i32 0, i32 0, i32 0, i32 1
  %161 = load i64, i64* %160, align 8
  br label %165

162:                                              ; preds = %149
  %163 = bitcast %"class.std::__1::basic_string"* %152 to i8*
  %164 = zext i8 %155 to i64
  br label %165

165:                                              ; preds = %157, %162
  %166 = phi i8* [ %159, %157 ], [ %163, %162 ]
  %167 = phi i64 [ %161, %157 ], [ %164, %162 ]
  %168 = bitcast %"class.google::protobuf::io::EpsCopyOutputStream"* %2 to i64*
  %169 = load i64, i64* %168, align 8
  %170 = ptrtoint i8* %143 to i64
  %171 = sub i64 %169, %170
  %172 = shl i64 %167, 32
  %173 = ashr exact i64 %172, 32
  %174 = icmp slt i64 %171, %173
  br i1 %174, label %175, label %178, !prof !6

175:                                              ; preds = %165
  %176 = trunc i64 %167 to i32
  %177 = tail call i8* @_ZN6google8protobuf2io19EpsCopyOutputStream16WriteRawFallbackEPKviPh(%"class.google::protobuf::io::EpsCopyOutputStream"* %2, i8* %166, i32 %176, i8* %143) #18
  br label %180

178:                                              ; preds = %165
  tail call void @llvm.memcpy.p0i8.p0i8.i64(i8* align 1 %143, i8* align 1 %166, i64 %173, i1 false) #18
  %179 = getelementptr inbounds i8, i8* %143, i64 %173
  br label %180

180:                                              ; preds = %142, %178, %175
  %181 = phi i8* [ %143, %142 ], [ %177, %175 ], [ %179, %178 ]
  ret i8* %181
}

; Function Attrs: nounwind ssp uwtable
define hidden i64 @_ZNK8autofill32AutofillQueryContents_Form_Field12ByteSizeLongEv(%"class.autofill::AutofillQueryContents_Form_Field"* nocapture) unnamed_addr #0 align 2 {
  %2 = getelementptr inbounds %"class.autofill::AutofillQueryContents_Form_Field", %"class.autofill::AutofillQueryContents_Form_Field"* %0, i64 0, i32 1, i32 0, i64 0
  %3 = load i32, i32* %2, align 4
  %4 = and i32 %3, 8
  %5 = icmp eq i32 %4, 0
  %6 = select i1 %5, i64 0, i64 5
  %7 = and i32 %3, 7
  %8 = icmp eq i32 %7, 0
  br i1 %8, label %79, label %9

9:                                                ; preds = %1
  %10 = and i32 %3, 1
  %11 = icmp eq i32 %10, 0
  br i1 %11, label %34, label %12

12:                                               ; preds = %9
  %13 = getelementptr inbounds %"class.autofill::AutofillQueryContents_Form_Field", %"class.autofill::AutofillQueryContents_Form_Field"* %0, i64 0, i32 3, i32 0
  %14 = load %"class.std::__1::basic_string"*, %"class.std::__1::basic_string"** %13, align 8
  %15 = bitcast %"class.std::__1::basic_string"* %14 to %"struct.std::__1::basic_string<char, std::__1::char_traits<char>, std::__1::allocator<char> >::__short"*
  %16 = getelementptr inbounds %"struct.std::__1::basic_string<char, std::__1::char_traits<char>, std::__1::allocator<char> >::__short", %"struct.std::__1::basic_string<char, std::__1::char_traits<char>, std::__1::allocator<char> >::__short"* %15, i64 0, i32 1, i32 0
  %17 = load i8, i8* %16, align 1
  %18 = icmp slt i8 %17, 0
  %19 = getelementptr inbounds %"class.std::__1::basic_string", %"class.std::__1::basic_string"* %14, i64 0, i32 0, i32 0, i32 0, i32 0, i32 0, i32 1
  %20 = load i64, i64* %19, align 8
  %21 = zext i8 %17 to i64
  %22 = select i1 %18, i64 %20, i64 %21
  %23 = trunc i64 %22 to i32
  %24 = or i32 %23, 1
  %25 = tail call i32 @llvm.ctlz.i32(i32 %24, i1 true) #18, !range !7
  %26 = xor i32 %25, 31
  %27 = mul nuw nsw i32 %26, 9
  %28 = add nuw nsw i32 %27, 73
  %29 = lshr i32 %28, 6
  %30 = zext i32 %29 to i64
  %31 = add nuw nsw i64 %6, 1
  %32 = add i64 %31, %22
  %33 = add i64 %32, %30
  br label %34

34:                                               ; preds = %9, %12
  %35 = phi i64 [ %33, %12 ], [ %6, %9 ]
  %36 = and i32 %3, 2
  %37 = icmp eq i32 %36, 0
  br i1 %37, label %60, label %38

38:                                               ; preds = %34
  %39 = getelementptr inbounds %"class.autofill::AutofillQueryContents_Form_Field", %"class.autofill::AutofillQueryContents_Form_Field"* %0, i64 0, i32 4, i32 0
  %40 = load %"class.std::__1::basic_string"*, %"class.std::__1::basic_string"** %39, align 8
  %41 = bitcast %"class.std::__1::basic_string"* %40 to %"struct.std::__1::basic_string<char, std::__1::char_traits<char>, std::__1::allocator<char> >::__short"*
  %42 = getelementptr inbounds %"struct.std::__1::basic_string<char, std::__1::char_traits<char>, std::__1::allocator<char> >::__short", %"struct.std::__1::basic_string<char, std::__1::char_traits<char>, std::__1::allocator<char> >::__short"* %41, i64 0, i32 1, i32 0
  %43 = load i8, i8* %42, align 1
  %44 = icmp slt i8 %43, 0
  %45 = getelementptr inbounds %"class.std::__1::basic_string", %"class.std::__1::basic_string"* %40, i64 0, i32 0, i32 0, i32 0, i32 0, i32 0, i32 1
  %46 = load i64, i64* %45, align 8
  %47 = zext i8 %43 to i64
  %48 = select i1 %44, i64 %46, i64 %47
  %49 = trunc i64 %48 to i32
  %50 = or i32 %49, 1
  %51 = tail call i32 @llvm.ctlz.i32(i32 %50, i1 true) #18, !range !7
  %52 = xor i32 %51, 31
  %53 = mul nuw nsw i32 %52, 9
  %54 = add nuw nsw i32 %53, 73
  %55 = lshr i32 %54, 6
  %56 = zext i32 %55 to i64
  %57 = add i64 %35, 1
  %58 = add i64 %57, %48
  %59 = add i64 %58, %56
  br label %60

60:                                               ; preds = %34, %38
  %61 = phi i64 [ %59, %38 ], [ %35, %34 ]
  %62 = and i32 %3, 4
  %63 = icmp eq i32 %62, 0
  br i1 %63, label %79, label %64

64:                                               ; preds = %60
  %65 = getelementptr inbounds %"class.autofill::AutofillQueryContents_Form_Field", %"class.autofill::AutofillQueryContents_Form_Field"* %0, i64 0, i32 5
  %66 = load %"class.autofill::AutofillRandomizedFieldMetadata"*, %"class.autofill::AutofillRandomizedFieldMetadata"** %65, align 8
  %67 = tail call i64 @_ZNK8autofill31AutofillRandomizedFieldMetadata12ByteSizeLongEv(%"class.autofill::AutofillRandomizedFieldMetadata"* %66) #18
  %68 = trunc i64 %67 to i32
  %69 = or i32 %68, 1
  %70 = tail call i32 @llvm.ctlz.i32(i32 %69, i1 true) #18, !range !7
  %71 = xor i32 %70, 31
  %72 = mul nuw nsw i32 %71, 9
  %73 = add nuw nsw i32 %72, 73
  %74 = lshr i32 %73, 6
  %75 = zext i32 %74 to i64
  %76 = add i64 %61, 1
  %77 = add i64 %76, %67
  %78 = add i64 %77, %75
  br label %79

79:                                               ; preds = %60, %1, %64
  %80 = phi i64 [ %78, %64 ], [ %61, %60 ], [ %6, %1 ]
  %81 = getelementptr inbounds %"class.autofill::AutofillQueryContents_Form_Field", %"class.autofill::AutofillQueryContents_Form_Field"* %0, i64 0, i32 0, i32 1
  %82 = bitcast %"class.google::protobuf::internal::InternalMetadata"* %81 to i64*
  %83 = load i64, i64* %82, align 8
  %84 = and i64 %83, 1
  %85 = icmp eq i64 %84, 0
  br i1 %85, label %102, label %86, !prof !2

86:                                               ; preds = %79
  %87 = and i64 %83, -2
  %88 = inttoptr i64 %87 to %"struct.google::protobuf::internal::InternalMetadata::Container"*
  %89 = getelementptr inbounds %"struct.google::protobuf::internal::InternalMetadata::Container", %"struct.google::protobuf::internal::InternalMetadata::Container"* %88, i64 0, i32 1
  %90 = bitcast %"class.std::__1::basic_string"* %89 to %"struct.std::__1::basic_string<char, std::__1::char_traits<char>, std::__1::allocator<char> >::__short"*
  %91 = getelementptr inbounds %"struct.std::__1::basic_string<char, std::__1::char_traits<char>, std::__1::allocator<char> >::__short", %"struct.std::__1::basic_string<char, std::__1::char_traits<char>, std::__1::allocator<char> >::__short"* %90, i64 0, i32 1, i32 0
  %92 = load i8, i8* %91, align 1
  %93 = icmp slt i8 %92, 0
  br i1 %93, label %94, label %97

94:                                               ; preds = %86
  %95 = getelementptr inbounds %"struct.google::protobuf::internal::InternalMetadata::Container", %"struct.google::protobuf::internal::InternalMetadata::Container"* %88, i64 0, i32 1, i32 0, i32 0, i32 0, i32 0, i32 0, i32 1
  %96 = load i64, i64* %95, align 8
  br label %99

97:                                               ; preds = %86
  %98 = zext i8 %92 to i64
  br label %99

99:                                               ; preds = %94, %97
  %100 = phi i64 [ %96, %94 ], [ %98, %97 ]
  %101 = add i64 %100, %80
  br label %102

102:                                              ; preds = %79, %99
  %103 = phi i64 [ %101, %99 ], [ %80, %79 ]
  %104 = trunc i64 %103 to i32
  %105 = getelementptr inbounds %"class.autofill::AutofillQueryContents_Form_Field", %"class.autofill::AutofillQueryContents_Form_Field"* %0, i64 0, i32 2, i32 0, i32 0, i32 0, i32 0, i32 0, i32 0
  store atomic i32 %104, i32* %105 monotonic, align 4
  ret i64 %103
}

; Function Attrs: nounwind ssp uwtable
define hidden void @_ZN8autofill32AutofillQueryContents_Form_Field21CheckTypeAndMergeFromERKN6google8protobuf11MessageLiteE(%"class.autofill::AutofillQueryContents_Form_Field"*, %"class.google::protobuf::MessageLite"* nocapture readonly dereferenceable(16)) unnamed_addr #0 align 2 {
  %3 = bitcast %"class.google::protobuf::MessageLite"* %1 to %"class.autofill::AutofillQueryContents_Form_Field"*
  tail call void @_ZN8autofill32AutofillQueryContents_Form_Field9MergeFromERKS0_(%"class.autofill::AutofillQueryContents_Form_Field"* %0, %"class.autofill::AutofillQueryContents_Form_Field"* dereferenceable(56) %3)
  ret void
}

; Function Attrs: nounwind ssp uwtable
define hidden void @_ZN8autofill32AutofillQueryContents_Form_Field9MergeFromERKS0_(%"class.autofill::AutofillQueryContents_Form_Field"*, %"class.autofill::AutofillQueryContents_Form_Field"* nocapture readonly dereferenceable(56)) local_unnamed_addr #0 align 2 {
  %3 = getelementptr inbounds %"class.autofill::AutofillQueryContents_Form_Field", %"class.autofill::AutofillQueryContents_Form_Field"* %0, i64 0, i32 0, i32 1
  %4 = getelementptr inbounds %"class.autofill::AutofillQueryContents_Form_Field", %"class.autofill::AutofillQueryContents_Form_Field"* %1, i64 0, i32 0, i32 1
  %5 = bitcast %"class.google::protobuf::internal::InternalMetadata"* %4 to i64*
  %6 = load i64, i64* %5, align 8
  %7 = and i64 %6, 1
  %8 = icmp eq i64 %7, 0
  br i1 %8, label %38, label %9

9:                                                ; preds = %2
  %10 = and i64 %6, -2
  %11 = inttoptr i64 %10 to %"struct.google::protobuf::internal::InternalMetadata::Container"*
  %12 = getelementptr inbounds %"struct.google::protobuf::internal::InternalMetadata::Container", %"struct.google::protobuf::internal::InternalMetadata::Container"* %11, i64 0, i32 1
  %13 = bitcast %"class.google::protobuf::internal::InternalMetadata"* %3 to i64*
  %14 = load i64, i64* %13, align 8
  %15 = and i64 %14, 1
  %16 = icmp eq i64 %15, 0
  br i1 %16, label %21, label %17, !prof !6

17:                                               ; preds = %9
  %18 = and i64 %14, -2
  %19 = inttoptr i64 %18 to %"struct.google::protobuf::internal::InternalMetadata::Container"*
  %20 = getelementptr inbounds %"struct.google::protobuf::internal::InternalMetadata::Container", %"struct.google::protobuf::internal::InternalMetadata::Container"* %19, i64 0, i32 1
  br label %23

21:                                               ; preds = %9
  %22 = tail call %"class.std::__1::basic_string"* @_ZN6google8protobuf8internal16InternalMetadata27mutable_unknown_fields_slowINSt3__112basic_stringIcNS4_11char_traitsIcEENS4_9allocatorIcEEEEEEPT_v(%"class.google::protobuf::internal::InternalMetadata"* %3) #18
  br label %23

23:                                               ; preds = %21, %17
  %24 = phi %"class.std::__1::basic_string"* [ %20, %17 ], [ %22, %21 ]
  %25 = bitcast %"class.std::__1::basic_string"* %12 to %"struct.std::__1::basic_string<char, std::__1::char_traits<char>, std::__1::allocator<char> >::__short"*
  %26 = getelementptr inbounds %"struct.std::__1::basic_string<char, std::__1::char_traits<char>, std::__1::allocator<char> >::__short", %"struct.std::__1::basic_string<char, std::__1::char_traits<char>, std::__1::allocator<char> >::__short"* %25, i64 0, i32 1, i32 0
  %27 = load i8, i8* %26, align 1
  %28 = icmp slt i8 %27, 0
  %29 = getelementptr inbounds %"class.std::__1::basic_string", %"class.std::__1::basic_string"* %12, i64 0, i32 0, i32 0, i32 0, i32 0, i32 0, i32 0
  %30 = load i8*, i8** %29, align 8
  %31 = getelementptr inbounds %"struct.google::protobuf::internal::InternalMetadata::Container", %"struct.google::protobuf::internal::InternalMetadata::Container"* %11, i64 0, i32 1, i32 0, i32 0, i32 0, i32 0, i32 0, i32 1
  %32 = load i64, i64* %31, align 8
  %33 = bitcast %"class.std::__1::basic_string"* %12 to i8*
  %34 = zext i8 %27 to i64
  %35 = select i1 %28, i8* %30, i8* %33
  %36 = select i1 %28, i64 %32, i64 %34
  %37 = tail call dereferenceable(24) %"class.std::__1::basic_string"* @_ZNSt3__112basic_stringIcNS_11char_traitsIcEENS_9allocatorIcEEE6appendEPKcm(%"class.std::__1::basic_string"* %24, i8* %35, i64 %36) #18
  br label %38

38:                                               ; preds = %2, %23
  %39 = getelementptr inbounds %"class.autofill::AutofillQueryContents_Form_Field", %"class.autofill::AutofillQueryContents_Form_Field"* %1, i64 0, i32 1, i32 0, i64 0
  %40 = load i32, i32* %39, align 4
  %41 = and i32 %40, 15
  %42 = icmp eq i32 %41, 0
  br i1 %42, label %201, label %43

43:                                               ; preds = %38
  %44 = and i32 %40, 1
  %45 = icmp eq i32 %44, 0
  br i1 %45, label %101, label %46

46:                                               ; preds = %43
  %47 = getelementptr inbounds %"class.autofill::AutofillQueryContents_Form_Field", %"class.autofill::AutofillQueryContents_Form_Field"* %1, i64 0, i32 3, i32 0
  %48 = load %"class.std::__1::basic_string"*, %"class.std::__1::basic_string"** %47, align 8
  %49 = getelementptr inbounds %"class.autofill::AutofillQueryContents_Form_Field", %"class.autofill::AutofillQueryContents_Form_Field"* %0, i64 0, i32 1, i32 0, i64 0
  %50 = load i32, i32* %49, align 4
  %51 = or i32 %50, 1
  store i32 %51, i32* %49, align 4
  %52 = getelementptr inbounds %"class.autofill::AutofillQueryContents_Form_Field", %"class.autofill::AutofillQueryContents_Form_Field"* %0, i64 0, i32 3
  %53 = bitcast %"class.google::protobuf::internal::InternalMetadata"* %3 to i64*
  %54 = load i64, i64* %53, align 8
  %55 = and i64 %54, 1
  %56 = icmp eq i64 %55, 0
  %57 = and i64 %54, -2
  br i1 %56, label %62, label %58, !prof !2

58:                                               ; preds = %46
  %59 = inttoptr i64 %57 to %"struct.google::protobuf::internal::InternalMetadata::ContainerBase"*
  %60 = getelementptr inbounds %"struct.google::protobuf::internal::InternalMetadata::ContainerBase", %"struct.google::protobuf::internal::InternalMetadata::ContainerBase"* %59, i64 0, i32 0
  %61 = load %"class.google::protobuf::Arena"*, %"class.google::protobuf::Arena"** %60, align 8
  br label %64

62:                                               ; preds = %46
  %63 = inttoptr i64 %57 to %"class.google::protobuf::Arena"*
  br label %64

64:                                               ; preds = %62, %58
  %65 = phi %"class.google::protobuf::Arena"* [ %61, %58 ], [ %63, %62 ]
  %66 = getelementptr inbounds %"struct.google::protobuf::internal::ArenaStringPtr", %"struct.google::protobuf::internal::ArenaStringPtr"* %52, i64 0, i32 0
  %67 = load %"class.std::__1::basic_string"*, %"class.std::__1::basic_string"** %66, align 8
  %68 = icmp eq %"class.std::__1::basic_string"* %67, bitcast (%"class.google::protobuf::internal::ExplicitlyConstructed.22"* @_ZN6google8protobuf8internal26fixed_address_empty_stringE to %"class.std::__1::basic_string"*)
  br i1 %68, label %69, label %70

69:                                               ; preds = %64
  tail call void @_ZN6google8protobuf8internal14ArenaStringPtr14CreateInstanceEPNS0_5ArenaEPKNSt3__112basic_stringIcNS5_11char_traitsIcEENS5_9allocatorIcEEEE(%"struct.google::protobuf::internal::ArenaStringPtr"* %52, %"class.google::protobuf::Arena"* %65, %"class.std::__1::basic_string"* %48) #18
  br label %101

70:                                               ; preds = %64
  %71 = icmp eq %"class.std::__1::basic_string"* %67, %48
  br i1 %71, label %101, label %72

72:                                               ; preds = %70
  %73 = bitcast %"class.std::__1::basic_string"* %67 to %"struct.std::__1::basic_string<char, std::__1::char_traits<char>, std::__1::allocator<char> >::__short"*
  %74 = getelementptr inbounds %"struct.std::__1::basic_string<char, std::__1::char_traits<char>, std::__1::allocator<char> >::__short", %"struct.std::__1::basic_string<char, std::__1::char_traits<char>, std::__1::allocator<char> >::__short"* %73, i64 0, i32 1, i32 0
  %75 = load i8, i8* %74, align 1
  %76 = icmp slt i8 %75, 0
  %77 = bitcast %"class.std::__1::basic_string"* %48 to %"struct.std::__1::basic_string<char, std::__1::char_traits<char>, std::__1::allocator<char> >::__short"*
  %78 = getelementptr inbounds %"struct.std::__1::basic_string<char, std::__1::char_traits<char>, std::__1::allocator<char> >::__short", %"struct.std::__1::basic_string<char, std::__1::char_traits<char>, std::__1::allocator<char> >::__short"* %77, i64 0, i32 1, i32 0
  %79 = load i8, i8* %78, align 1
  %80 = icmp slt i8 %79, 0
  br i1 %76, label %91, label %81

81:                                               ; preds = %72
  br i1 %80, label %85, label %82

82:                                               ; preds = %81
  %83 = bitcast %"class.std::__1::basic_string"* %67 to i8*
  %84 = bitcast %"class.std::__1::basic_string"* %48 to i8*
  tail call void @llvm.memcpy.p0i8.p0i8.i64(i8* align 8 %83, i8* align 8 %84, i64 24, i1 false) #18
  br label %101

85:                                               ; preds = %81
  %86 = getelementptr inbounds %"class.std::__1::basic_string", %"class.std::__1::basic_string"* %48, i64 0, i32 0, i32 0, i32 0, i32 0, i32 0, i32 0
  %87 = load i8*, i8** %86, align 8
  %88 = getelementptr inbounds %"class.std::__1::basic_string", %"class.std::__1::basic_string"* %48, i64 0, i32 0, i32 0, i32 0, i32 0, i32 0, i32 1
  %89 = load i64, i64* %88, align 8
  %90 = tail call dereferenceable(24) %"class.std::__1::basic_string"* @_ZNSt3__112basic_stringIcNS_11char_traitsIcEENS_9allocatorIcEEE17__assign_no_aliasILb1EEERS5_PKcm(%"class.std::__1::basic_string"* %67, i8* %87, i64 %89) #18
  br label %101

91:                                               ; preds = %72
  %92 = getelementptr inbounds %"class.std::__1::basic_string", %"class.std::__1::basic_string"* %48, i64 0, i32 0, i32 0, i32 0, i32 0, i32 0, i32 0
  %93 = load i8*, i8** %92, align 8
  %94 = getelementptr inbounds %"class.std::__1::basic_string", %"class.std::__1::basic_string"* %48, i64 0, i32 0, i32 0, i32 0, i32 0, i32 0, i32 1
  %95 = load i64, i64* %94, align 8
  %96 = bitcast %"class.std::__1::basic_string"* %48 to i8*
  %97 = zext i8 %79 to i64
  %98 = select i1 %80, i8* %93, i8* %96
  %99 = select i1 %80, i64 %95, i64 %97
  %100 = tail call dereferenceable(24) %"class.std::__1::basic_string"* @_ZNSt3__112basic_stringIcNS_11char_traitsIcEENS_9allocatorIcEEE17__assign_no_aliasILb0EEERS5_PKcm(%"class.std::__1::basic_string"* %67, i8* %98, i64 %99) #18
  br label %101

101:                                              ; preds = %91, %85, %82, %70, %69, %43
  %102 = and i32 %40, 2
  %103 = icmp eq i32 %102, 0
  br i1 %103, label %159, label %104

104:                                              ; preds = %101
  %105 = getelementptr inbounds %"class.autofill::AutofillQueryContents_Form_Field", %"class.autofill::AutofillQueryContents_Form_Field"* %1, i64 0, i32 4, i32 0
  %106 = load %"class.std::__1::basic_string"*, %"class.std::__1::basic_string"** %105, align 8
  %107 = getelementptr inbounds %"class.autofill::AutofillQueryContents_Form_Field", %"class.autofill::AutofillQueryContents_Form_Field"* %0, i64 0, i32 1, i32 0, i64 0
  %108 = load i32, i32* %107, align 4
  %109 = or i32 %108, 2
  store i32 %109, i32* %107, align 4
  %110 = getelementptr inbounds %"class.autofill::AutofillQueryContents_Form_Field", %"class.autofill::AutofillQueryContents_Form_Field"* %0, i64 0, i32 4
  %111 = bitcast %"class.google::protobuf::internal::InternalMetadata"* %3 to i64*
  %112 = load i64, i64* %111, align 8
  %113 = and i64 %112, 1
  %114 = icmp eq i64 %113, 0
  %115 = and i64 %112, -2
  br i1 %114, label %120, label %116, !prof !2

116:                                              ; preds = %104
  %117 = inttoptr i64 %115 to %"struct.google::protobuf::internal::InternalMetadata::ContainerBase"*
  %118 = getelementptr inbounds %"struct.google::protobuf::internal::InternalMetadata::ContainerBase", %"struct.google::protobuf::internal::InternalMetadata::ContainerBase"* %117, i64 0, i32 0
  %119 = load %"class.google::protobuf::Arena"*, %"class.google::protobuf::Arena"** %118, align 8
  br label %122

120:                                              ; preds = %104
  %121 = inttoptr i64 %115 to %"class.google::protobuf::Arena"*
  br label %122

122:                                              ; preds = %120, %116
  %123 = phi %"class.google::protobuf::Arena"* [ %119, %116 ], [ %121, %120 ]
  %124 = getelementptr inbounds %"struct.google::protobuf::internal::ArenaStringPtr", %"struct.google::protobuf::internal::ArenaStringPtr"* %110, i64 0, i32 0
  %125 = load %"class.std::__1::basic_string"*, %"class.std::__1::basic_string"** %124, align 8
  %126 = icmp eq %"class.std::__1::basic_string"* %125, bitcast (%"class.google::protobuf::internal::ExplicitlyConstructed.22"* @_ZN6google8protobuf8internal26fixed_address_empty_stringE to %"class.std::__1::basic_string"*)
  br i1 %126, label %127, label %128

127:                                              ; preds = %122
  tail call void @_ZN6google8protobuf8internal14ArenaStringPtr14CreateInstanceEPNS0_5ArenaEPKNSt3__112basic_stringIcNS5_11char_traitsIcEENS5_9allocatorIcEEEE(%"struct.google::protobuf::internal::ArenaStringPtr"* %110, %"class.google::protobuf::Arena"* %123, %"class.std::__1::basic_string"* %106) #18
  br label %159

128:                                              ; preds = %122
  %129 = icmp eq %"class.std::__1::basic_string"* %125, %106
  br i1 %129, label %159, label %130

130:                                              ; preds = %128
  %131 = bitcast %"class.std::__1::basic_string"* %125 to %"struct.std::__1::basic_string<char, std::__1::char_traits<char>, std::__1::allocator<char> >::__short"*
  %132 = getelementptr inbounds %"struct.std::__1::basic_string<char, std::__1::char_traits<char>, std::__1::allocator<char> >::__short", %"struct.std::__1::basic_string<char, std::__1::char_traits<char>, std::__1::allocator<char> >::__short"* %131, i64 0, i32 1, i32 0
  %133 = load i8, i8* %132, align 1
  %134 = icmp slt i8 %133, 0
  %135 = bitcast %"class.std::__1::basic_string"* %106 to %"struct.std::__1::basic_string<char, std::__1::char_traits<char>, std::__1::allocator<char> >::__short"*
  %136 = getelementptr inbounds %"struct.std::__1::basic_string<char, std::__1::char_traits<char>, std::__1::allocator<char> >::__short", %"struct.std::__1::basic_string<char, std::__1::char_traits<char>, std::__1::allocator<char> >::__short"* %135, i64 0, i32 1, i32 0
  %137 = load i8, i8* %136, align 1
  %138 = icmp slt i8 %137, 0
  br i1 %134, label %149, label %139

139:                                              ; preds = %130
  br i1 %138, label %143, label %140

140:                                              ; preds = %139
  %141 = bitcast %"class.std::__1::basic_string"* %125 to i8*
  %142 = bitcast %"class.std::__1::basic_string"* %106 to i8*
  tail call void @llvm.memcpy.p0i8.p0i8.i64(i8* align 8 %141, i8* align 8 %142, i64 24, i1 false) #18
  br label %159

143:                                              ; preds = %139
  %144 = getelementptr inbounds %"class.std::__1::basic_string", %"class.std::__1::basic_string"* %106, i64 0, i32 0, i32 0, i32 0, i32 0, i32 0, i32 0
  %145 = load i8*, i8** %144, align 8
  %146 = getelementptr inbounds %"class.std::__1::basic_string", %"class.std::__1::basic_string"* %106, i64 0, i32 0, i32 0, i32 0, i32 0, i32 0, i32 1
  %147 = load i64, i64* %146, align 8
  %148 = tail call dereferenceable(24) %"class.std::__1::basic_string"* @_ZNSt3__112basic_stringIcNS_11char_traitsIcEENS_9allocatorIcEEE17__assign_no_aliasILb1EEERS5_PKcm(%"class.std::__1::basic_string"* %125, i8* %145, i64 %147) #18
  br label %159

149:                                              ; preds = %130
  %150 = getelementptr inbounds %"class.std::__1::basic_string", %"class.std::__1::basic_string"* %106, i64 0, i32 0, i32 0, i32 0, i32 0, i32 0, i32 0
  %151 = load i8*, i8** %150, align 8
  %152 = getelementptr inbounds %"class.std::__1::basic_string", %"class.std::__1::basic_string"* %106, i64 0, i32 0, i32 0, i32 0, i32 0, i32 0, i32 1
  %153 = load i64, i64* %152, align 8
  %154 = bitcast %"class.std::__1::basic_string"* %106 to i8*
  %155 = zext i8 %137 to i64
  %156 = select i1 %138, i8* %151, i8* %154
  %157 = select i1 %138, i64 %153, i64 %155
  %158 = tail call dereferenceable(24) %"class.std::__1::basic_string"* @_ZNSt3__112basic_stringIcNS_11char_traitsIcEENS_9allocatorIcEEE17__assign_no_aliasILb0EEERS5_PKcm(%"class.std::__1::basic_string"* %125, i8* %156, i64 %157) #18
  br label %159

159:                                              ; preds = %149, %143, %140, %128, %127, %101
  %160 = and i32 %40, 4
  %161 = icmp eq i32 %160, 0
  br i1 %161, label %190, label %162

162:                                              ; preds = %159
  %163 = getelementptr inbounds %"class.autofill::AutofillQueryContents_Form_Field", %"class.autofill::AutofillQueryContents_Form_Field"* %0, i64 0, i32 1, i32 0, i64 0
  %164 = load i32, i32* %163, align 4
  %165 = or i32 %164, 4
  store i32 %165, i32* %163, align 4
  %166 = getelementptr inbounds %"class.autofill::AutofillQueryContents_Form_Field", %"class.autofill::AutofillQueryContents_Form_Field"* %0, i64 0, i32 5
  %167 = load %"class.autofill::AutofillRandomizedFieldMetadata"*, %"class.autofill::AutofillRandomizedFieldMetadata"** %166, align 8
  %168 = icmp eq %"class.autofill::AutofillRandomizedFieldMetadata"* %167, null
  br i1 %168, label %169, label %184

169:                                              ; preds = %162
  %170 = bitcast %"class.google::protobuf::internal::InternalMetadata"* %3 to i64*
  %171 = load i64, i64* %170, align 8
  %172 = and i64 %171, 1
  %173 = icmp eq i64 %172, 0
  %174 = and i64 %171, -2
  br i1 %173, label %179, label %175, !prof !2

175:                                              ; preds = %169
  %176 = inttoptr i64 %174 to %"struct.google::protobuf::internal::InternalMetadata::ContainerBase"*
  %177 = getelementptr inbounds %"struct.google::protobuf::internal::InternalMetadata::ContainerBase", %"struct.google::protobuf::internal::InternalMetadata::ContainerBase"* %176, i64 0, i32 0
  %178 = load %"class.google::protobuf::Arena"*, %"class.google::protobuf::Arena"** %177, align 8
  br label %181

179:                                              ; preds = %169
  %180 = inttoptr i64 %174 to %"class.google::protobuf::Arena"*
  br label %181

181:                                              ; preds = %179, %175
  %182 = phi %"class.google::protobuf::Arena"* [ %178, %175 ], [ %180, %179 ]
  %183 = tail call %"class.autofill::AutofillRandomizedFieldMetadata"* @_ZN6google8protobuf5Arena18CreateMaybeMessageIN8autofill31AutofillRandomizedFieldMetadataEJEEEPT_PS1_DpOT0_(%"class.google::protobuf::Arena"* %182) #18
  store %"class.autofill::AutofillRandomizedFieldMetadata"* %183, %"class.autofill::AutofillRandomizedFieldMetadata"** %166, align 8
  br label %184

184:                                              ; preds = %162, %181
  %185 = phi %"class.autofill::AutofillRandomizedFieldMetadata"* [ %183, %181 ], [ %167, %162 ]
  %186 = getelementptr inbounds %"class.autofill::AutofillQueryContents_Form_Field", %"class.autofill::AutofillQueryContents_Form_Field"* %1, i64 0, i32 5
  %187 = load %"class.autofill::AutofillRandomizedFieldMetadata"*, %"class.autofill::AutofillRandomizedFieldMetadata"** %186, align 8
  %188 = icmp eq %"class.autofill::AutofillRandomizedFieldMetadata"* %187, null
  %189 = select i1 %188, %"class.autofill::AutofillRandomizedFieldMetadata"* bitcast (%"class.autofill::AutofillRandomizedFieldMetadataDefaultTypeInternal"* @_ZN8autofill50_AutofillRandomizedFieldMetadata_default_instance_E to %"class.autofill::AutofillRandomizedFieldMetadata"*), %"class.autofill::AutofillRandomizedFieldMetadata"* %187
  tail call void @_ZN8autofill31AutofillRandomizedFieldMetadata9MergeFromERKS0_(%"class.autofill::AutofillRandomizedFieldMetadata"* %185, %"class.autofill::AutofillRandomizedFieldMetadata"* dereferenceable(96) %189)
  br label %190

190:                                              ; preds = %159, %184
  %191 = and i32 %40, 8
  %192 = icmp eq i32 %191, 0
  br i1 %192, label %197, label %193

193:                                              ; preds = %190
  %194 = getelementptr inbounds %"class.autofill::AutofillQueryContents_Form_Field", %"class.autofill::AutofillQueryContents_Form_Field"* %1, i64 0, i32 6
  %195 = load i32, i32* %194, align 8
  %196 = getelementptr inbounds %"class.autofill::AutofillQueryContents_Form_Field", %"class.autofill::AutofillQueryContents_Form_Field"* %0, i64 0, i32 6
  store i32 %195, i32* %196, align 8
  br label %197

197:                                              ; preds = %190, %193
  %198 = getelementptr inbounds %"class.autofill::AutofillQueryContents_Form_Field", %"class.autofill::AutofillQueryContents_Form_Field"* %0, i64 0, i32 1, i32 0, i64 0
  %199 = load i32, i32* %198, align 4
  %200 = or i32 %199, %40
  store i32 %200, i32* %198, align 4
  br label %201

201:                                              ; preds = %38, %197
  ret void
}

; Function Attrs: nounwind ssp uwtable
define hidden void @_ZN8autofill31AutofillRandomizedFieldMetadata9MergeFromERKS0_(%"class.autofill::AutofillRandomizedFieldMetadata"*, %"class.autofill::AutofillRandomizedFieldMetadata"* nocapture readonly dereferenceable(96)) local_unnamed_addr #0 align 2 {
  %3 = getelementptr inbounds %"class.autofill::AutofillRandomizedFieldMetadata", %"class.autofill::AutofillRandomizedFieldMetadata"* %0, i64 0, i32 0, i32 1
  %4 = getelementptr inbounds %"class.autofill::AutofillRandomizedFieldMetadata", %"class.autofill::AutofillRandomizedFieldMetadata"* %1, i64 0, i32 0, i32 1
  %5 = bitcast %"class.google::protobuf::internal::InternalMetadata"* %4 to i64*
  %6 = load i64, i64* %5, align 8
  %7 = and i64 %6, 1
  %8 = icmp eq i64 %7, 0
  br i1 %8, label %38, label %9

9:                                                ; preds = %2
  %10 = and i64 %6, -2
  %11 = inttoptr i64 %10 to %"struct.google::protobuf::internal::InternalMetadata::Container"*
  %12 = getelementptr inbounds %"struct.google::protobuf::internal::InternalMetadata::Container", %"struct.google::protobuf::internal::InternalMetadata::Container"* %11, i64 0, i32 1
  %13 = bitcast %"class.google::protobuf::internal::InternalMetadata"* %3 to i64*
  %14 = load i64, i64* %13, align 8
  %15 = and i64 %14, 1
  %16 = icmp eq i64 %15, 0
  br i1 %16, label %21, label %17, !prof !6

17:                                               ; preds = %9
  %18 = and i64 %14, -2
  %19 = inttoptr i64 %18 to %"struct.google::protobuf::internal::InternalMetadata::Container"*
  %20 = getelementptr inbounds %"struct.google::protobuf::internal::InternalMetadata::Container", %"struct.google::protobuf::internal::InternalMetadata::Container"* %19, i64 0, i32 1
  br label %23

21:                                               ; preds = %9
  %22 = tail call %"class.std::__1::basic_string"* @_ZN6google8protobuf8internal16InternalMetadata27mutable_unknown_fields_slowINSt3__112basic_stringIcNS4_11char_traitsIcEENS4_9allocatorIcEEEEEEPT_v(%"class.google::protobuf::internal::InternalMetadata"* %3) #18
  br label %23

23:                                               ; preds = %21, %17
  %24 = phi %"class.std::__1::basic_string"* [ %20, %17 ], [ %22, %21 ]
  %25 = bitcast %"class.std::__1::basic_string"* %12 to %"struct.std::__1::basic_string<char, std::__1::char_traits<char>, std::__1::allocator<char> >::__short"*
  %26 = getelementptr inbounds %"struct.std::__1::basic_string<char, std::__1::char_traits<char>, std::__1::allocator<char> >::__short", %"struct.std::__1::basic_string<char, std::__1::char_traits<char>, std::__1::allocator<char> >::__short"* %25, i64 0, i32 1, i32 0
  %27 = load i8, i8* %26, align 1
  %28 = icmp slt i8 %27, 0
  %29 = getelementptr inbounds %"class.std::__1::basic_string", %"class.std::__1::basic_string"* %12, i64 0, i32 0, i32 0, i32 0, i32 0, i32 0, i32 0
  %30 = load i8*, i8** %29, align 8
  %31 = getelementptr inbounds %"struct.google::protobuf::internal::InternalMetadata::Container", %"struct.google::protobuf::internal::InternalMetadata::Container"* %11, i64 0, i32 1, i32 0, i32 0, i32 0, i32 0, i32 0, i32 1
  %32 = load i64, i64* %31, align 8
  %33 = bitcast %"class.std::__1::basic_string"* %12 to i8*
  %34 = zext i8 %27 to i64
  %35 = select i1 %28, i8* %30, i8* %33
  %36 = select i1 %28, i64 %32, i64 %34
  %37 = tail call dereferenceable(24) %"class.std::__1::basic_string"* @_ZNSt3__112basic_stringIcNS_11char_traitsIcEENS_9allocatorIcEEE6appendEPKcm(%"class.std::__1::basic_string"* %24, i8* %35, i64 %36) #18
  br label %38

38:                                               ; preds = %2, %23
  %39 = getelementptr inbounds %"class.autofill::AutofillRandomizedFieldMetadata", %"class.autofill::AutofillRandomizedFieldMetadata"* %1, i64 0, i32 1, i32 0, i64 0
  %40 = load i32, i32* %39, align 4
  %41 = and i32 %40, 255
  %42 = icmp eq i32 %41, 0
  br i1 %42, label %291, label %43

43:                                               ; preds = %38
  %44 = and i32 %40, 1
  %45 = icmp eq i32 %44, 0
  br i1 %45, label %74, label %46

46:                                               ; preds = %43
  %47 = getelementptr inbounds %"class.autofill::AutofillRandomizedFieldMetadata", %"class.autofill::AutofillRandomizedFieldMetadata"* %0, i64 0, i32 1, i32 0, i64 0
  %48 = load i32, i32* %47, align 4
  %49 = or i32 %48, 1
  store i32 %49, i32* %47, align 4
  %50 = getelementptr inbounds %"class.autofill::AutofillRandomizedFieldMetadata", %"class.autofill::AutofillRandomizedFieldMetadata"* %0, i64 0, i32 3
  %51 = load %"class.autofill::AutofillRandomizedValue"*, %"class.autofill::AutofillRandomizedValue"** %50, align 8
  %52 = icmp eq %"class.autofill::AutofillRandomizedValue"* %51, null
  br i1 %52, label %53, label %68

53:                                               ; preds = %46
  %54 = bitcast %"class.google::protobuf::internal::InternalMetadata"* %3 to i64*
  %55 = load i64, i64* %54, align 8
  %56 = and i64 %55, 1
  %57 = icmp eq i64 %56, 0
  %58 = and i64 %55, -2
  br i1 %57, label %63, label %59, !prof !2

59:                                               ; preds = %53
  %60 = inttoptr i64 %58 to %"struct.google::protobuf::internal::InternalMetadata::ContainerBase"*
  %61 = getelementptr inbounds %"struct.google::protobuf::internal::InternalMetadata::ContainerBase", %"struct.google::protobuf::internal::InternalMetadata::ContainerBase"* %60, i64 0, i32 0
  %62 = load %"class.google::protobuf::Arena"*, %"class.google::protobuf::Arena"** %61, align 8
  br label %65

63:                                               ; preds = %53
  %64 = inttoptr i64 %58 to %"class.google::protobuf::Arena"*
  br label %65

65:                                               ; preds = %63, %59
  %66 = phi %"class.google::protobuf::Arena"* [ %62, %59 ], [ %64, %63 ]
  %67 = tail call %"class.autofill::AutofillRandomizedValue"* @_ZN6google8protobuf5Arena18CreateMaybeMessageIN8autofill23AutofillRandomizedValueEJEEEPT_PS1_DpOT0_(%"class.google::protobuf::Arena"* %66) #18
  store %"class.autofill::AutofillRandomizedValue"* %67, %"class.autofill::AutofillRandomizedValue"** %50, align 8
  br label %68

68:                                               ; preds = %46, %65
  %69 = phi %"class.autofill::AutofillRandomizedValue"* [ %67, %65 ], [ %51, %46 ]
  %70 = getelementptr inbounds %"class.autofill::AutofillRandomizedFieldMetadata", %"class.autofill::AutofillRandomizedFieldMetadata"* %1, i64 0, i32 3
  %71 = load %"class.autofill::AutofillRandomizedValue"*, %"class.autofill::AutofillRandomizedValue"** %70, align 8
  %72 = icmp eq %"class.autofill::AutofillRandomizedValue"* %71, null
  %73 = select i1 %72, %"class.autofill::AutofillRandomizedValue"* bitcast (%"class.autofill::AutofillRandomizedValueDefaultTypeInternal"* @_ZN8autofill42_AutofillRandomizedValue_default_instance_E to %"class.autofill::AutofillRandomizedValue"*), %"class.autofill::AutofillRandomizedValue"* %71
  tail call void @_ZN8autofill23AutofillRandomizedValue9MergeFromERKS0_(%"class.autofill::AutofillRandomizedValue"* %69, %"class.autofill::AutofillRandomizedValue"* dereferenceable(40) %73)
  br label %74

74:                                               ; preds = %43, %68
  %75 = and i32 %40, 2
  %76 = icmp eq i32 %75, 0
  br i1 %76, label %105, label %77

77:                                               ; preds = %74
  %78 = getelementptr inbounds %"class.autofill::AutofillRandomizedFieldMetadata", %"class.autofill::AutofillRandomizedFieldMetadata"* %0, i64 0, i32 1, i32 0, i64 0
  %79 = load i32, i32* %78, align 4
  %80 = or i32 %79, 2
  store i32 %80, i32* %78, align 4
  %81 = getelementptr inbounds %"class.autofill::AutofillRandomizedFieldMetadata", %"class.autofill::AutofillRandomizedFieldMetadata"* %0, i64 0, i32 4
  %82 = load %"class.autofill::AutofillRandomizedValue"*, %"class.autofill::AutofillRandomizedValue"** %81, align 8
  %83 = icmp eq %"class.autofill::AutofillRandomizedValue"* %82, null
  br i1 %83, label %84, label %99

84:                                               ; preds = %77
  %85 = bitcast %"class.google::protobuf::internal::InternalMetadata"* %3 to i64*
  %86 = load i64, i64* %85, align 8
  %87 = and i64 %86, 1
  %88 = icmp eq i64 %87, 0
  %89 = and i64 %86, -2
  br i1 %88, label %94, label %90, !prof !2

90:                                               ; preds = %84
  %91 = inttoptr i64 %89 to %"struct.google::protobuf::internal::InternalMetadata::ContainerBase"*
  %92 = getelementptr inbounds %"struct.google::protobuf::internal::InternalMetadata::ContainerBase", %"struct.google::protobuf::internal::InternalMetadata::ContainerBase"* %91, i64 0, i32 0
  %93 = load %"class.google::protobuf::Arena"*, %"class.google::protobuf::Arena"** %92, align 8
  br label %96

94:                                               ; preds = %84
  %95 = inttoptr i64 %89 to %"class.google::protobuf::Arena"*
  br label %96

96:                                               ; preds = %94, %90
  %97 = phi %"class.google::protobuf::Arena"* [ %93, %90 ], [ %95, %94 ]
  %98 = tail call %"class.autofill::AutofillRandomizedValue"* @_ZN6google8protobuf5Arena18CreateMaybeMessageIN8autofill23AutofillRandomizedValueEJEEEPT_PS1_DpOT0_(%"class.google::protobuf::Arena"* %97) #18
  store %"class.autofill::AutofillRandomizedValue"* %98, %"class.autofill::AutofillRandomizedValue"** %81, align 8
  br label %99

99:                                               ; preds = %77, %96
  %100 = phi %"class.autofill::AutofillRandomizedValue"* [ %98, %96 ], [ %82, %77 ]
  %101 = getelementptr inbounds %"class.autofill::AutofillRandomizedFieldMetadata", %"class.autofill::AutofillRandomizedFieldMetadata"* %1, i64 0, i32 4
  %102 = load %"class.autofill::AutofillRandomizedValue"*, %"class.autofill::AutofillRandomizedValue"** %101, align 8
  %103 = icmp eq %"class.autofill::AutofillRandomizedValue"* %102, null
  %104 = select i1 %103, %"class.autofill::AutofillRandomizedValue"* bitcast (%"class.autofill::AutofillRandomizedValueDefaultTypeInternal"* @_ZN8autofill42_AutofillRandomizedValue_default_instance_E to %"class.autofill::AutofillRandomizedValue"*), %"class.autofill::AutofillRandomizedValue"* %102
  tail call void @_ZN8autofill23AutofillRandomizedValue9MergeFromERKS0_(%"class.autofill::AutofillRandomizedValue"* %100, %"class.autofill::AutofillRandomizedValue"* dereferenceable(40) %104)
  br label %105

105:                                              ; preds = %74, %99
  %106 = and i32 %40, 4
  %107 = icmp eq i32 %106, 0
  br i1 %107, label %136, label %108

108:                                              ; preds = %105
  %109 = getelementptr inbounds %"class.autofill::AutofillRandomizedFieldMetadata", %"class.autofill::AutofillRandomizedFieldMetadata"* %0, i64 0, i32 1, i32 0, i64 0
  %110 = load i32, i32* %109, align 4
  %111 = or i32 %110, 4
  store i32 %111, i32* %109, align 4
  %112 = getelementptr inbounds %"class.autofill::AutofillRandomizedFieldMetadata", %"class.autofill::AutofillRandomizedFieldMetadata"* %0, i64 0, i32 5
  %113 = load %"class.autofill::AutofillRandomizedValue"*, %"class.autofill::AutofillRandomizedValue"** %112, align 8
  %114 = icmp eq %"class.autofill::AutofillRandomizedValue"* %113, null
  br i1 %114, label %115, label %130

115:                                              ; preds = %108
  %116 = bitcast %"class.google::protobuf::internal::InternalMetadata"* %3 to i64*
  %117 = load i64, i64* %116, align 8
  %118 = and i64 %117, 1
  %119 = icmp eq i64 %118, 0
  %120 = and i64 %117, -2
  br i1 %119, label %125, label %121, !prof !2

121:                                              ; preds = %115
  %122 = inttoptr i64 %120 to %"struct.google::protobuf::internal::InternalMetadata::ContainerBase"*
  %123 = getelementptr inbounds %"struct.google::protobuf::internal::InternalMetadata::ContainerBase", %"struct.google::protobuf::internal::InternalMetadata::ContainerBase"* %122, i64 0, i32 0
  %124 = load %"class.google::protobuf::Arena"*, %"class.google::protobuf::Arena"** %123, align 8
  br label %127

125:                                              ; preds = %115
  %126 = inttoptr i64 %120 to %"class.google::protobuf::Arena"*
  br label %127

127:                                              ; preds = %125, %121
  %128 = phi %"class.google::protobuf::Arena"* [ %124, %121 ], [ %126, %125 ]
  %129 = tail call %"class.autofill::AutofillRandomizedValue"* @_ZN6google8protobuf5Arena18CreateMaybeMessageIN8autofill23AutofillRandomizedValueEJEEEPT_PS1_DpOT0_(%"class.google::protobuf::Arena"* %128) #18
  store %"class.autofill::AutofillRandomizedValue"* %129, %"class.autofill::AutofillRandomizedValue"** %112, align 8
  br label %130

130:                                              ; preds = %108, %127
  %131 = phi %"class.autofill::AutofillRandomizedValue"* [ %129, %127 ], [ %113, %108 ]
  %132 = getelementptr inbounds %"class.autofill::AutofillRandomizedFieldMetadata", %"class.autofill::AutofillRandomizedFieldMetadata"* %1, i64 0, i32 5
  %133 = load %"class.autofill::AutofillRandomizedValue"*, %"class.autofill::AutofillRandomizedValue"** %132, align 8
  %134 = icmp eq %"class.autofill::AutofillRandomizedValue"* %133, null
  %135 = select i1 %134, %"class.autofill::AutofillRandomizedValue"* bitcast (%"class.autofill::AutofillRandomizedValueDefaultTypeInternal"* @_ZN8autofill42_AutofillRandomizedValue_default_instance_E to %"class.autofill::AutofillRandomizedValue"*), %"class.autofill::AutofillRandomizedValue"* %133
  tail call void @_ZN8autofill23AutofillRandomizedValue9MergeFromERKS0_(%"class.autofill::AutofillRandomizedValue"* %131, %"class.autofill::AutofillRandomizedValue"* dereferenceable(40) %135)
  br label %136

136:                                              ; preds = %105, %130
  %137 = and i32 %40, 8
  %138 = icmp eq i32 %137, 0
  br i1 %138, label %167, label %139

139:                                              ; preds = %136
  %140 = getelementptr inbounds %"class.autofill::AutofillRandomizedFieldMetadata", %"class.autofill::AutofillRandomizedFieldMetadata"* %0, i64 0, i32 1, i32 0, i64 0
  %141 = load i32, i32* %140, align 4
  %142 = or i32 %141, 8
  store i32 %142, i32* %140, align 4
  %143 = getelementptr inbounds %"class.autofill::AutofillRandomizedFieldMetadata", %"class.autofill::AutofillRandomizedFieldMetadata"* %0, i64 0, i32 6
  %144 = load %"class.autofill::AutofillRandomizedValue"*, %"class.autofill::AutofillRandomizedValue"** %143, align 8
  %145 = icmp eq %"class.autofill::AutofillRandomizedValue"* %144, null
  br i1 %145, label %146, label %161

146:                                              ; preds = %139
  %147 = bitcast %"class.google::protobuf::internal::InternalMetadata"* %3 to i64*
  %148 = load i64, i64* %147, align 8
  %149 = and i64 %148, 1
  %150 = icmp eq i64 %149, 0
  %151 = and i64 %148, -2
  br i1 %150, label %156, label %152, !prof !2

152:                                              ; preds = %146
  %153 = inttoptr i64 %151 to %"struct.google::protobuf::internal::InternalMetadata::ContainerBase"*
  %154 = getelementptr inbounds %"struct.google::protobuf::internal::InternalMetadata::ContainerBase", %"struct.google::protobuf::internal::InternalMetadata::ContainerBase"* %153, i64 0, i32 0
  %155 = load %"class.google::protobuf::Arena"*, %"class.google::protobuf::Arena"** %154, align 8
  br label %158

156:                                              ; preds = %146
  %157 = inttoptr i64 %151 to %"class.google::protobuf::Arena"*
  br label %158

158:                                              ; preds = %156, %152
  %159 = phi %"class.google::protobuf::Arena"* [ %155, %152 ], [ %157, %156 ]
  %160 = tail call %"class.autofill::AutofillRandomizedValue"* @_ZN6google8protobuf5Arena18CreateMaybeMessageIN8autofill23AutofillRandomizedValueEJEEEPT_PS1_DpOT0_(%"class.google::protobuf::Arena"* %159) #18
  store %"class.autofill::AutofillRandomizedValue"* %160, %"class.autofill::AutofillRandomizedValue"** %143, align 8
  br label %161

161:                                              ; preds = %139, %158
  %162 = phi %"class.autofill::AutofillRandomizedValue"* [ %160, %158 ], [ %144, %139 ]
  %163 = getelementptr inbounds %"class.autofill::AutofillRandomizedFieldMetadata", %"class.autofill::AutofillRandomizedFieldMetadata"* %1, i64 0, i32 6
  %164 = load %"class.autofill::AutofillRandomizedValue"*, %"class.autofill::AutofillRandomizedValue"** %163, align 8
  %165 = icmp eq %"class.autofill::AutofillRandomizedValue"* %164, null
  %166 = select i1 %165, %"class.autofill::AutofillRandomizedValue"* bitcast (%"class.autofill::AutofillRandomizedValueDefaultTypeInternal"* @_ZN8autofill42_AutofillRandomizedValue_default_instance_E to %"class.autofill::AutofillRandomizedValue"*), %"class.autofill::AutofillRandomizedValue"* %164
  tail call void @_ZN8autofill23AutofillRandomizedValue9MergeFromERKS0_(%"class.autofill::AutofillRandomizedValue"* %162, %"class.autofill::AutofillRandomizedValue"* dereferenceable(40) %166)
  br label %167

167:                                              ; preds = %136, %161
  %168 = and i32 %40, 16
  %169 = icmp eq i32 %168, 0
  br i1 %169, label %198, label %170

170:                                              ; preds = %167
  %171 = getelementptr inbounds %"class.autofill::AutofillRandomizedFieldMetadata", %"class.autofill::AutofillRandomizedFieldMetadata"* %0, i64 0, i32 1, i32 0, i64 0
  %172 = load i32, i32* %171, align 4
  %173 = or i32 %172, 16
  store i32 %173, i32* %171, align 4
  %174 = getelementptr inbounds %"class.autofill::AutofillRandomizedFieldMetadata", %"class.autofill::AutofillRandomizedFieldMetadata"* %0, i64 0, i32 7
  %175 = load %"class.autofill::AutofillRandomizedValue"*, %"class.autofill::AutofillRandomizedValue"** %174, align 8
  %176 = icmp eq %"class.autofill::AutofillRandomizedValue"* %175, null
  br i1 %176, label %177, label %192

177:                                              ; preds = %170
  %178 = bitcast %"class.google::protobuf::internal::InternalMetadata"* %3 to i64*
  %179 = load i64, i64* %178, align 8
  %180 = and i64 %179, 1
  %181 = icmp eq i64 %180, 0
  %182 = and i64 %179, -2
  br i1 %181, label %187, label %183, !prof !2

183:                                              ; preds = %177
  %184 = inttoptr i64 %182 to %"struct.google::protobuf::internal::InternalMetadata::ContainerBase"*
  %185 = getelementptr inbounds %"struct.google::protobuf::internal::InternalMetadata::ContainerBase", %"struct.google::protobuf::internal::InternalMetadata::ContainerBase"* %184, i64 0, i32 0
  %186 = load %"class.google::protobuf::Arena"*, %"class.google::protobuf::Arena"** %185, align 8
  br label %189

187:                                              ; preds = %177
  %188 = inttoptr i64 %182 to %"class.google::protobuf::Arena"*
  br label %189

189:                                              ; preds = %187, %183
  %190 = phi %"class.google::protobuf::Arena"* [ %186, %183 ], [ %188, %187 ]
  %191 = tail call %"class.autofill::AutofillRandomizedValue"* @_ZN6google8protobuf5Arena18CreateMaybeMessageIN8autofill23AutofillRandomizedValueEJEEEPT_PS1_DpOT0_(%"class.google::protobuf::Arena"* %190) #18
  store %"class.autofill::AutofillRandomizedValue"* %191, %"class.autofill::AutofillRandomizedValue"** %174, align 8
  br label %192

192:                                              ; preds = %170, %189
  %193 = phi %"class.autofill::AutofillRandomizedValue"* [ %191, %189 ], [ %175, %170 ]
  %194 = getelementptr inbounds %"class.autofill::AutofillRandomizedFieldMetadata", %"class.autofill::AutofillRandomizedFieldMetadata"* %1, i64 0, i32 7
  %195 = load %"class.autofill::AutofillRandomizedValue"*, %"class.autofill::AutofillRandomizedValue"** %194, align 8
  %196 = icmp eq %"class.autofill::AutofillRandomizedValue"* %195, null
  %197 = select i1 %196, %"class.autofill::AutofillRandomizedValue"* bitcast (%"class.autofill::AutofillRandomizedValueDefaultTypeInternal"* @_ZN8autofill42_AutofillRandomizedValue_default_instance_E to %"class.autofill::AutofillRandomizedValue"*), %"class.autofill::AutofillRandomizedValue"* %195
  tail call void @_ZN8autofill23AutofillRandomizedValue9MergeFromERKS0_(%"class.autofill::AutofillRandomizedValue"* %193, %"class.autofill::AutofillRandomizedValue"* dereferenceable(40) %197)
  br label %198

198:                                              ; preds = %167, %192
  %199 = and i32 %40, 32
  %200 = icmp eq i32 %199, 0
  br i1 %200, label %229, label %201

201:                                              ; preds = %198
  %202 = getelementptr inbounds %"class.autofill::AutofillRandomizedFieldMetadata", %"class.autofill::AutofillRandomizedFieldMetadata"* %0, i64 0, i32 1, i32 0, i64 0
  %203 = load i32, i32* %202, align 4
  %204 = or i32 %203, 32
  store i32 %204, i32* %202, align 4
  %205 = getelementptr inbounds %"class.autofill::AutofillRandomizedFieldMetadata", %"class.autofill::AutofillRandomizedFieldMetadata"* %0, i64 0, i32 8
  %206 = load %"class.autofill::AutofillRandomizedValue"*, %"class.autofill::AutofillRandomizedValue"** %205, align 8
  %207 = icmp eq %"class.autofill::AutofillRandomizedValue"* %206, null
  br i1 %207, label %208, label %223

208:                                              ; preds = %201
  %209 = bitcast %"class.google::protobuf::internal::InternalMetadata"* %3 to i64*
  %210 = load i64, i64* %209, align 8
  %211 = and i64 %210, 1
  %212 = icmp eq i64 %211, 0
  %213 = and i64 %210, -2
  br i1 %212, label %218, label %214, !prof !2

214:                                              ; preds = %208
  %215 = inttoptr i64 %213 to %"struct.google::protobuf::internal::InternalMetadata::ContainerBase"*
  %216 = getelementptr inbounds %"struct.google::protobuf::internal::InternalMetadata::ContainerBase", %"struct.google::protobuf::internal::InternalMetadata::ContainerBase"* %215, i64 0, i32 0
  %217 = load %"class.google::protobuf::Arena"*, %"class.google::protobuf::Arena"** %216, align 8
  br label %220

218:                                              ; preds = %208
  %219 = inttoptr i64 %213 to %"class.google::protobuf::Arena"*
  br label %220

220:                                              ; preds = %218, %214
  %221 = phi %"class.google::protobuf::Arena"* [ %217, %214 ], [ %219, %218 ]
  %222 = tail call %"class.autofill::AutofillRandomizedValue"* @_ZN6google8protobuf5Arena18CreateMaybeMessageIN8autofill23AutofillRandomizedValueEJEEEPT_PS1_DpOT0_(%"class.google::protobuf::Arena"* %221) #18
  store %"class.autofill::AutofillRandomizedValue"* %222, %"class.autofill::AutofillRandomizedValue"** %205, align 8
  br label %223

223:                                              ; preds = %201, %220
  %224 = phi %"class.autofill::AutofillRandomizedValue"* [ %222, %220 ], [ %206, %201 ]
  %225 = getelementptr inbounds %"class.autofill::AutofillRandomizedFieldMetadata", %"class.autofill::AutofillRandomizedFieldMetadata"* %1, i64 0, i32 8
  %226 = load %"class.autofill::AutofillRandomizedValue"*, %"class.autofill::AutofillRandomizedValue"** %225, align 8
  %227 = icmp eq %"class.autofill::AutofillRandomizedValue"* %226, null
  %228 = select i1 %227, %"class.autofill::AutofillRandomizedValue"* bitcast (%"class.autofill::AutofillRandomizedValueDefaultTypeInternal"* @_ZN8autofill42_AutofillRandomizedValue_default_instance_E to %"class.autofill::AutofillRandomizedValue"*), %"class.autofill::AutofillRandomizedValue"* %226
  tail call void @_ZN8autofill23AutofillRandomizedValue9MergeFromERKS0_(%"class.autofill::AutofillRandomizedValue"* %224, %"class.autofill::AutofillRandomizedValue"* dereferenceable(40) %228)
  br label %229

229:                                              ; preds = %198, %223
  %230 = and i32 %40, 64
  %231 = icmp eq i32 %230, 0
  br i1 %231, label %260, label %232

232:                                              ; preds = %229
  %233 = getelementptr inbounds %"class.autofill::AutofillRandomizedFieldMetadata", %"class.autofill::AutofillRandomizedFieldMetadata"* %0, i64 0, i32 1, i32 0, i64 0
  %234 = load i32, i32* %233, align 4
  %235 = or i32 %234, 64
  store i32 %235, i32* %233, align 4
  %236 = getelementptr inbounds %"class.autofill::AutofillRandomizedFieldMetadata", %"class.autofill::AutofillRandomizedFieldMetadata"* %0, i64 0, i32 9
  %237 = load %"class.autofill::AutofillRandomizedValue"*, %"class.autofill::AutofillRandomizedValue"** %236, align 8
  %238 = icmp eq %"class.autofill::AutofillRandomizedValue"* %237, null
  br i1 %238, label %239, label %254

239:                                              ; preds = %232
  %240 = bitcast %"class.google::protobuf::internal::InternalMetadata"* %3 to i64*
  %241 = load i64, i64* %240, align 8
  %242 = and i64 %241, 1
  %243 = icmp eq i64 %242, 0
  %244 = and i64 %241, -2
  br i1 %243, label %249, label %245, !prof !2

245:                                              ; preds = %239
  %246 = inttoptr i64 %244 to %"struct.google::protobuf::internal::InternalMetadata::ContainerBase"*
  %247 = getelementptr inbounds %"struct.google::protobuf::internal::InternalMetadata::ContainerBase", %"struct.google::protobuf::internal::InternalMetadata::ContainerBase"* %246, i64 0, i32 0
  %248 = load %"class.google::protobuf::Arena"*, %"class.google::protobuf::Arena"** %247, align 8
  br label %251

249:                                              ; preds = %239
  %250 = inttoptr i64 %244 to %"class.google::protobuf::Arena"*
  br label %251

251:                                              ; preds = %249, %245
  %252 = phi %"class.google::protobuf::Arena"* [ %248, %245 ], [ %250, %249 ]
  %253 = tail call %"class.autofill::AutofillRandomizedValue"* @_ZN6google8protobuf5Arena18CreateMaybeMessageIN8autofill23AutofillRandomizedValueEJEEEPT_PS1_DpOT0_(%"class.google::protobuf::Arena"* %252) #18
  store %"class.autofill::AutofillRandomizedValue"* %253, %"class.autofill::AutofillRandomizedValue"** %236, align 8
  br label %254

254:                                              ; preds = %232, %251
  %255 = phi %"class.autofill::AutofillRandomizedValue"* [ %253, %251 ], [ %237, %232 ]
  %256 = getelementptr inbounds %"class.autofill::AutofillRandomizedFieldMetadata", %"class.autofill::AutofillRandomizedFieldMetadata"* %1, i64 0, i32 9
  %257 = load %"class.autofill::AutofillRandomizedValue"*, %"class.autofill::AutofillRandomizedValue"** %256, align 8
  %258 = icmp eq %"class.autofill::AutofillRandomizedValue"* %257, null
  %259 = select i1 %258, %"class.autofill::AutofillRandomizedValue"* bitcast (%"class.autofill::AutofillRandomizedValueDefaultTypeInternal"* @_ZN8autofill42_AutofillRandomizedValue_default_instance_E to %"class.autofill::AutofillRandomizedValue"*), %"class.autofill::AutofillRandomizedValue"* %257
  tail call void @_ZN8autofill23AutofillRandomizedValue9MergeFromERKS0_(%"class.autofill::AutofillRandomizedValue"* %255, %"class.autofill::AutofillRandomizedValue"* dereferenceable(40) %259)
  br label %260

260:                                              ; preds = %229, %254
  %261 = trunc i32 %40 to i8
  %262 = icmp slt i8 %261, 0
  br i1 %262, label %263, label %291

263:                                              ; preds = %260
  %264 = getelementptr inbounds %"class.autofill::AutofillRandomizedFieldMetadata", %"class.autofill::AutofillRandomizedFieldMetadata"* %0, i64 0, i32 1, i32 0, i64 0
  %265 = load i32, i32* %264, align 4
  %266 = or i32 %265, 128
  store i32 %266, i32* %264, align 4
  %267 = getelementptr inbounds %"class.autofill::AutofillRandomizedFieldMetadata", %"class.autofill::AutofillRandomizedFieldMetadata"* %0, i64 0, i32 10
  %268 = load %"class.autofill::AutofillRandomizedValue"*, %"class.autofill::AutofillRandomizedValue"** %267, align 8
  %269 = icmp eq %"class.autofill::AutofillRandomizedValue"* %268, null
  br i1 %269, label %270, label %285

270:                                              ; preds = %263
  %271 = bitcast %"class.google::protobuf::internal::InternalMetadata"* %3 to i64*
  %272 = load i64, i64* %271, align 8
  %273 = and i64 %272, 1
  %274 = icmp eq i64 %273, 0
  %275 = and i64 %272, -2
  br i1 %274, label %280, label %276, !prof !2

276:                                              ; preds = %270
  %277 = inttoptr i64 %275 to %"struct.google::protobuf::internal::InternalMetadata::ContainerBase"*
  %278 = getelementptr inbounds %"struct.google::protobuf::internal::InternalMetadata::ContainerBase", %"struct.google::protobuf::internal::InternalMetadata::ContainerBase"* %277, i64 0, i32 0
  %279 = load %"class.google::protobuf::Arena"*, %"class.google::protobuf::Arena"** %278, align 8
  br label %282

280:                                              ; preds = %270
  %281 = inttoptr i64 %275 to %"class.google::protobuf::Arena"*
  br label %282

282:                                              ; preds = %280, %276
  %283 = phi %"class.google::protobuf::Arena"* [ %279, %276 ], [ %281, %280 ]
  %284 = tail call %"class.autofill::AutofillRandomizedValue"* @_ZN6google8protobuf5Arena18CreateMaybeMessageIN8autofill23AutofillRandomizedValueEJEEEPT_PS1_DpOT0_(%"class.google::protobuf::Arena"* %283) #18
  store %"class.autofill::AutofillRandomizedValue"* %284, %"class.autofill::AutofillRandomizedValue"** %267, align 8
  br label %285

285:                                              ; preds = %263, %282
  %286 = phi %"class.autofill::AutofillRandomizedValue"* [ %284, %282 ], [ %268, %263 ]
  %287 = getelementptr inbounds %"class.autofill::AutofillRandomizedFieldMetadata", %"class.autofill::AutofillRandomizedFieldMetadata"* %1, i64 0, i32 10
  %288 = load %"class.autofill::AutofillRandomizedValue"*, %"class.autofill::AutofillRandomizedValue"** %287, align 8
  %289 = icmp eq %"class.autofill::AutofillRandomizedValue"* %288, null
  %290 = select i1 %289, %"class.autofill::AutofillRandomizedValue"* bitcast (%"class.autofill::AutofillRandomizedValueDefaultTypeInternal"* @_ZN8autofill42_AutofillRandomizedValue_default_instance_E to %"class.autofill::AutofillRandomizedValue"*), %"class.autofill::AutofillRandomizedValue"* %288
  tail call void @_ZN8autofill23AutofillRandomizedValue9MergeFromERKS0_(%"class.autofill::AutofillRandomizedValue"* %286, %"class.autofill::AutofillRandomizedValue"* dereferenceable(40) %290)
  br label %291

291:                                              ; preds = %38, %260, %285
  %292 = and i32 %40, 256
  %293 = icmp eq i32 %292, 0
  br i1 %293, label %322, label %294

294:                                              ; preds = %291
  %295 = getelementptr inbounds %"class.autofill::AutofillRandomizedFieldMetadata", %"class.autofill::AutofillRandomizedFieldMetadata"* %0, i64 0, i32 1, i32 0, i64 0
  %296 = load i32, i32* %295, align 4
  %297 = or i32 %296, 256
  store i32 %297, i32* %295, align 4
  %298 = getelementptr inbounds %"class.autofill::AutofillRandomizedFieldMetadata", %"class.autofill::AutofillRandomizedFieldMetadata"* %0, i64 0, i32 11
  %299 = load %"class.autofill::AutofillRandomizedValue"*, %"class.autofill::AutofillRandomizedValue"** %298, align 8
  %300 = icmp eq %"class.autofill::AutofillRandomizedValue"* %299, null
  br i1 %300, label %301, label %316

301:                                              ; preds = %294
  %302 = bitcast %"class.google::protobuf::internal::InternalMetadata"* %3 to i64*
  %303 = load i64, i64* %302, align 8
  %304 = and i64 %303, 1
  %305 = icmp eq i64 %304, 0
  %306 = and i64 %303, -2
  br i1 %305, label %311, label %307, !prof !2

307:                                              ; preds = %301
  %308 = inttoptr i64 %306 to %"struct.google::protobuf::internal::InternalMetadata::ContainerBase"*
  %309 = getelementptr inbounds %"struct.google::protobuf::internal::InternalMetadata::ContainerBase", %"struct.google::protobuf::internal::InternalMetadata::ContainerBase"* %308, i64 0, i32 0
  %310 = load %"class.google::protobuf::Arena"*, %"class.google::protobuf::Arena"** %309, align 8
  br label %313

311:                                              ; preds = %301
  %312 = inttoptr i64 %306 to %"class.google::protobuf::Arena"*
  br label %313

313:                                              ; preds = %311, %307
  %314 = phi %"class.google::protobuf::Arena"* [ %310, %307 ], [ %312, %311 ]
  %315 = tail call %"class.autofill::AutofillRandomizedValue"* @_ZN6google8protobuf5Arena18CreateMaybeMessageIN8autofill23AutofillRandomizedValueEJEEEPT_PS1_DpOT0_(%"class.google::protobuf::Arena"* %314) #18
  store %"class.autofill::AutofillRandomizedValue"* %315, %"class.autofill::AutofillRandomizedValue"** %298, align 8
  br label %316

316:                                              ; preds = %294, %313
  %317 = phi %"class.autofill::AutofillRandomizedValue"* [ %315, %313 ], [ %299, %294 ]
  %318 = getelementptr inbounds %"class.autofill::AutofillRandomizedFieldMetadata", %"class.autofill::AutofillRandomizedFieldMetadata"* %1, i64 0, i32 11
  %319 = load %"class.autofill::AutofillRandomizedValue"*, %"class.autofill::AutofillRandomizedValue"** %318, align 8
  %320 = icmp eq %"class.autofill::AutofillRandomizedValue"* %319, null
  %321 = select i1 %320, %"class.autofill::AutofillRandomizedValue"* bitcast (%"class.autofill::AutofillRandomizedValueDefaultTypeInternal"* @_ZN8autofill42_AutofillRandomizedValue_default_instance_E to %"class.autofill::AutofillRandomizedValue"*), %"class.autofill::AutofillRandomizedValue"* %319
  tail call void @_ZN8autofill23AutofillRandomizedValue9MergeFromERKS0_(%"class.autofill::AutofillRandomizedValue"* %317, %"class.autofill::AutofillRandomizedValue"* dereferenceable(40) %321)
  br label %322

322:                                              ; preds = %291, %316
  ret void
}

; Function Attrs: nounwind ssp uwtable
define hidden void @_ZN8autofill32AutofillQueryContents_Form_Field8CopyFromERKS0_(%"class.autofill::AutofillQueryContents_Form_Field"*, %"class.autofill::AutofillQueryContents_Form_Field"* readonly dereferenceable(56)) local_unnamed_addr #0 align 2 {
  %3 = icmp eq %"class.autofill::AutofillQueryContents_Form_Field"* %1, %0
  br i1 %3, label %5, label %4

4:                                                ; preds = %2
  tail call void @_ZN8autofill32AutofillQueryContents_Form_Field5ClearEv(%"class.autofill::AutofillQueryContents_Form_Field"* %0)
  tail call void @_ZN8autofill32AutofillQueryContents_Form_Field9MergeFromERKS0_(%"class.autofill::AutofillQueryContents_Form_Field"* %0, %"class.autofill::AutofillQueryContents_Form_Field"* dereferenceable(56) %1)
  br label %5

5:                                                ; preds = %2, %4
  ret void
}

; Function Attrs: norecurse nounwind readonly ssp uwtable
define hidden zeroext i1 @_ZNK8autofill32AutofillQueryContents_Form_Field13IsInitializedEv(%"class.autofill::AutofillQueryContents_Form_Field"* nocapture readonly) unnamed_addr #5 align 2 {
  %2 = getelementptr inbounds %"class.autofill::AutofillQueryContents_Form_Field", %"class.autofill::AutofillQueryContents_Form_Field"* %0, i64 0, i32 1, i32 0, i64 0
  %3 = load i32, i32* %2, align 4
  %4 = and i32 %3, 8
  %5 = icmp ne i32 %4, 0
  ret i1 %5
}

; Function Attrs: nounwind ssp uwtable
define hidden void @_ZN8autofill32AutofillQueryContents_Form_Field12InternalSwapEPS0_(%"class.autofill::AutofillQueryContents_Form_Field"*, %"class.autofill::AutofillQueryContents_Form_Field"*) local_unnamed_addr #0 align 2 {
  %3 = getelementptr inbounds %"class.autofill::AutofillQueryContents_Form_Field", %"class.autofill::AutofillQueryContents_Form_Field"* %0, i64 0, i32 0, i32 1
  %4 = getelementptr inbounds %"class.autofill::AutofillQueryContents_Form_Field", %"class.autofill::AutofillQueryContents_Form_Field"* %1, i64 0, i32 0, i32 1
  %5 = bitcast %"class.google::protobuf::internal::InternalMetadata"* %3 to i64*
  %6 = load i64, i64* %5, align 8
  %7 = bitcast %"class.google::protobuf::internal::InternalMetadata"* %4 to i64*
  %8 = load i64, i64* %7, align 8
  %9 = or i64 %8, %6
  %10 = and i64 %9, 1
  %11 = icmp eq i64 %10, 0
  br i1 %11, label %43, label %12

12:                                               ; preds = %2
  %13 = and i64 %8, 1
  %14 = icmp eq i64 %13, 0
  br i1 %14, label %19, label %15, !prof !6

15:                                               ; preds = %12
  %16 = and i64 %8, -2
  %17 = inttoptr i64 %16 to %"struct.google::protobuf::internal::InternalMetadata::Container"*
  %18 = getelementptr inbounds %"struct.google::protobuf::internal::InternalMetadata::Container", %"struct.google::protobuf::internal::InternalMetadata::Container"* %17, i64 0, i32 1
  br label %22

19:                                               ; preds = %12
  %20 = tail call %"class.std::__1::basic_string"* @_ZN6google8protobuf8internal16InternalMetadata27mutable_unknown_fields_slowINSt3__112basic_stringIcNS4_11char_traitsIcEENS4_9allocatorIcEEEEEEPT_v(%"class.google::protobuf::internal::InternalMetadata"* %4) #18
  %21 = load i64, i64* %5, align 8
  br label %22

22:                                               ; preds = %19, %15
  %23 = phi i64 [ %6, %15 ], [ %21, %19 ]
  %24 = phi %"class.std::__1::basic_string"* [ %18, %15 ], [ %20, %19 ]
  %25 = and i64 %23, 1
  %26 = icmp eq i64 %25, 0
  br i1 %26, label %31, label %27, !prof !6

27:                                               ; preds = %22
  %28 = and i64 %23, -2
  %29 = inttoptr i64 %28 to %"struct.google::protobuf::internal::InternalMetadata::Container"*
  %30 = getelementptr inbounds %"struct.google::protobuf::internal::InternalMetadata::Container", %"struct.google::protobuf::internal::InternalMetadata::Container"* %29, i64 0, i32 1
  br label %33

31:                                               ; preds = %22
  %32 = tail call %"class.std::__1::basic_string"* @_ZN6google8protobuf8internal16InternalMetadata27mutable_unknown_fields_slowINSt3__112basic_stringIcNS4_11char_traitsIcEENS4_9allocatorIcEEEEEEPT_v(%"class.google::protobuf::internal::InternalMetadata"* %3) #18
  br label %33

33:                                               ; preds = %31, %27
  %34 = phi %"class.std::__1::basic_string"* [ %30, %27 ], [ %32, %31 ]
  %35 = bitcast %"class.std::__1::basic_string"* %34 to <2 x i64>*
  %36 = load <2 x i64>, <2 x i64>* %35, align 8
  %37 = getelementptr inbounds %"class.std::__1::basic_string", %"class.std::__1::basic_string"* %34, i64 0, i32 0, i32 0, i32 0, i32 0, i32 0, i32 2
  %38 = load i64, i64* %37, align 8
  %39 = bitcast %"class.std::__1::basic_string"* %34 to i8*
  %40 = bitcast %"class.std::__1::basic_string"* %24 to i8*
  tail call void @llvm.memcpy.p0i8.p0i8.i64(i8* align 8 %39, i8* align 8 %40, i64 24, i1 false) #18
  %41 = bitcast %"class.std::__1::basic_string"* %24 to <2 x i64>*
  store <2 x i64> %36, <2 x i64>* %41, align 8
  %42 = getelementptr inbounds %"class.std::__1::basic_string", %"class.std::__1::basic_string"* %24, i64 0, i32 0, i32 0, i32 0, i32 0, i32 0, i32 2
  store i64 %38, i64* %42, align 8
  br label %43

43:                                               ; preds = %2, %33
  %44 = getelementptr inbounds %"class.autofill::AutofillQueryContents_Form_Field", %"class.autofill::AutofillQueryContents_Form_Field"* %0, i64 0, i32 1, i32 0, i64 0
  %45 = getelementptr inbounds %"class.autofill::AutofillQueryContents_Form_Field", %"class.autofill::AutofillQueryContents_Form_Field"* %1, i64 0, i32 1, i32 0, i64 0
  %46 = load i32, i32* %44, align 4
  %47 = load i32, i32* %45, align 4
  store i32 %47, i32* %44, align 4
  store i32 %46, i32* %45, align 4
  %48 = getelementptr inbounds %"class.autofill::AutofillQueryContents_Form_Field", %"class.autofill::AutofillQueryContents_Form_Field"* %0, i64 0, i32 3
  %49 = getelementptr inbounds %"class.autofill::AutofillQueryContents_Form_Field", %"class.autofill::AutofillQueryContents_Form_Field"* %1, i64 0, i32 3
  %50 = bitcast %"struct.google::protobuf::internal::ArenaStringPtr"* %48 to i64*
  %51 = load i64, i64* %50, align 8
  %52 = bitcast %"struct.google::protobuf::internal::ArenaStringPtr"* %49 to i64*
  %53 = load i64, i64* %52, align 8
  store i64 %53, i64* %50, align 8
  store i64 %51, i64* %52, align 8
  %54 = getelementptr inbounds %"class.autofill::AutofillQueryContents_Form_Field", %"class.autofill::AutofillQueryContents_Form_Field"* %0, i64 0, i32 4
  %55 = getelementptr inbounds %"class.autofill::AutofillQueryContents_Form_Field", %"class.autofill::AutofillQueryContents_Form_Field"* %1, i64 0, i32 4
  %56 = bitcast %"struct.google::protobuf::internal::ArenaStringPtr"* %54 to i64*
  %57 = load i64, i64* %56, align 8
  %58 = bitcast %"struct.google::protobuf::internal::ArenaStringPtr"* %55 to i64*
  %59 = load i64, i64* %58, align 8
  store i64 %59, i64* %56, align 8
  store i64 %57, i64* %58, align 8
  %60 = getelementptr inbounds %"class.autofill::AutofillQueryContents_Form_Field", %"class.autofill::AutofillQueryContents_Form_Field"* %0, i64 0, i32 5
  %61 = getelementptr inbounds %"class.autofill::AutofillQueryContents_Form_Field", %"class.autofill::AutofillQueryContents_Form_Field"* %1, i64 0, i32 5
  %62 = bitcast %"class.autofill::AutofillRandomizedFieldMetadata"** %60 to i64*
  %63 = load i64, i64* %62, align 1
  %64 = bitcast %"class.autofill::AutofillRandomizedFieldMetadata"** %61 to i64*
  %65 = load i64, i64* %64, align 1
  store i64 %65, i64* %62, align 1
  store i64 %63, i64* %64, align 1
  %66 = getelementptr inbounds %"class.autofill::AutofillRandomizedFieldMetadata"*, %"class.autofill::AutofillRandomizedFieldMetadata"** %60, i64 1
  %67 = getelementptr inbounds %"class.autofill::AutofillRandomizedFieldMetadata"*, %"class.autofill::AutofillRandomizedFieldMetadata"** %61, i64 1
  %68 = bitcast %"class.autofill::AutofillRandomizedFieldMetadata"** %66 to i32*
  %69 = load i32, i32* %68, align 1
  %70 = bitcast %"class.autofill::AutofillRandomizedFieldMetadata"** %67 to i32*
  %71 = load i32, i32* %70, align 1
  store i32 %71, i32* %68, align 1
  store i32 %69, i32* %70, align 1
  ret void
}

; Function Attrs: nounwind ssp uwtable
define hidden void @_ZNK8autofill32AutofillQueryContents_Form_Field11GetTypeNameEv(%"class.std::__1::basic_string"* noalias sret, %"class.autofill::AutofillQueryContents_Form_Field"* nocapture readnone) unnamed_addr #0 align 2 {
  %3 = tail call i8* @_Znwm(i64 48) #19
  %4 = getelementptr inbounds %"class.std::__1::basic_string", %"class.std::__1::basic_string"* %0, i64 0, i32 0, i32 0, i32 0, i32 0, i32 0, i32 0
  store i8* %3, i8** %4, align 8
  %5 = getelementptr inbounds %"class.std::__1::basic_string", %"class.std::__1::basic_string"* %0, i64 0, i32 0, i32 0, i32 0, i32 0, i32 0, i32 1
  %6 = bitcast i64* %5 to <2 x i64>*
  store <2 x i64> <i64 41, i64 -9223372036854775760>, <2 x i64>* %6, align 8
  tail call void @llvm.memcpy.p0i8.p0i8.i64(i8* nonnull align 1 %3, i8* align 1 getelementptr inbounds ([42 x i8], [42 x i8]* @.str.20, i64 0, i64 0), i64 41, i1 false) #18
  %7 = getelementptr inbounds i8, i8* %3, i64 41
  store i8 0, i8* %7, align 1
  ret void
}

; Function Attrs: norecurse nounwind readonly ssp uwtable
define hidden dereferenceable(80) %"class.autofill::AutofillRandomizedFormMetadata"* @_ZN8autofill26AutofillQueryContents_Form9_Internal13form_metadataEPKS0_(%"class.autofill::AutofillQueryContents_Form"* nocapture readonly) local_unnamed_addr #5 align 2 {
  %2 = getelementptr inbounds %"class.autofill::AutofillQueryContents_Form", %"class.autofill::AutofillQueryContents_Form"* %0, i64 0, i32 4
  %3 = load %"class.autofill::AutofillRandomizedFormMetadata"*, %"class.autofill::AutofillRandomizedFormMetadata"** %2, align 8
  ret %"class.autofill::AutofillRandomizedFormMetadata"* %3
}

; Function Attrs: nounwind ssp uwtable
define hidden void @_ZN8autofill26AutofillQueryContents_FormC2EPN6google8protobuf5ArenaE(%"class.autofill::AutofillQueryContents_Form"* nocapture, %"class.google::protobuf::Arena"*) unnamed_addr #0 align 2 {
  %3 = getelementptr inbounds %"class.autofill::AutofillQueryContents_Form", %"class.autofill::AutofillQueryContents_Form"* %0, i64 0, i32 0, i32 0
  %4 = getelementptr inbounds %"class.autofill::AutofillQueryContents_Form", %"class.autofill::AutofillQueryContents_Form"* %0, i64 0, i32 0, i32 1
  %5 = bitcast %"class.google::protobuf::internal::InternalMetadata"* %4 to %"class.google::protobuf::Arena"**
  store %"class.google::protobuf::Arena"* %1, %"class.google::protobuf::Arena"** %5, align 8
  store i32 (...)** bitcast (i8** getelementptr inbounds ({ [16 x i8*] }, { [16 x i8*] }* @_ZTVN8autofill26AutofillQueryContents_FormE, i64 0, inrange i32 0, i64 2) to i32 (...)**), i32 (...)*** %3, align 8
  %6 = getelementptr inbounds %"class.autofill::AutofillQueryContents_Form", %"class.autofill::AutofillQueryContents_Form"* %0, i64 0, i32 1, i32 0, i64 0
  store i32 0, i32* %6, align 4
  %7 = getelementptr inbounds %"class.autofill::AutofillQueryContents_Form", %"class.autofill::AutofillQueryContents_Form"* %0, i64 0, i32 2, i32 0, i32 0, i32 0, i32 0, i32 0, i32 0
  store i32 0, i32* %7, align 4
  %8 = getelementptr inbounds %"class.autofill::AutofillQueryContents_Form", %"class.autofill::AutofillQueryContents_Form"* %0, i64 0, i32 3, i32 0, i32 0
  store %"class.google::protobuf::Arena"* %1, %"class.google::protobuf::Arena"** %8, align 8
  %9 = getelementptr inbounds %"class.autofill::AutofillQueryContents_Form", %"class.autofill::AutofillQueryContents_Form"* %0, i64 0, i32 3, i32 0, i32 1
  %10 = bitcast i32* %9 to i8*
  tail call void @llvm.memset.p0i8.i64(i8* align 8 %10, i8 0, i64 16, i1 false) #18
  %11 = load atomic i32, i32* getelementptr inbounds ({ { { { i32 } }, i32, i32, void ()* }, [2 x i8*] }, { { { { i32 } }, i32, i32, void ()* }, [2 x i8*] }* @scc_info_AutofillQueryContents_Form_server_2eproto, i64 0, i32 0, i32 0, i32 0, i32 0) acquire, align 8
  %12 = icmp eq i32 %11, 0
  br i1 %12, label %14, label %13, !prof !2

13:                                               ; preds = %2
  tail call void @_ZN6google8protobuf8internal11InitSCCImplEPNS1_11SCCInfoBaseE(%"struct.google::protobuf::internal::SCCInfoBase"* bitcast ({ { { { i32 } }, i32, i32, void ()* }, [2 x i8*] }* @scc_info_AutofillQueryContents_Form_server_2eproto to %"struct.google::protobuf::internal::SCCInfoBase"*)) #18
  br label %14

14:                                               ; preds = %2, %13
  %15 = getelementptr inbounds %"class.autofill::AutofillQueryContents_Form", %"class.autofill::AutofillQueryContents_Form"* %0, i64 0, i32 4
  %16 = bitcast %"class.autofill::AutofillRandomizedFormMetadata"** %15 to i8*
  tail call void @llvm.memset.p0i8.i64(i8* align 1 %16, i8 0, i64 16, i1 false) #18
  ret void
}

; Function Attrs: nounwind ssp uwtable
define hidden void @_ZN8autofill26AutofillQueryContents_FormC2ERKS0_(%"class.autofill::AutofillQueryContents_Form"*, %"class.autofill::AutofillQueryContents_Form"* nocapture readonly dereferenceable(64)) unnamed_addr #0 align 2 {
  %3 = getelementptr inbounds %"class.autofill::AutofillQueryContents_Form", %"class.autofill::AutofillQueryContents_Form"* %0, i64 0, i32 0, i32 0
  %4 = getelementptr inbounds %"class.autofill::AutofillQueryContents_Form", %"class.autofill::AutofillQueryContents_Form"* %0, i64 0, i32 0, i32 1, i32 0
  store i8* null, i8** %4, align 8
  store i32 (...)** bitcast (i8** getelementptr inbounds ({ [16 x i8*] }, { [16 x i8*] }* @_ZTVN8autofill26AutofillQueryContents_FormE, i64 0, inrange i32 0, i64 2) to i32 (...)**), i32 (...)*** %3, align 8
  %5 = getelementptr inbounds %"class.autofill::AutofillQueryContents_Form", %"class.autofill::AutofillQueryContents_Form"* %1, i64 0, i32 1, i32 0, i64 0
  %6 = getelementptr inbounds %"class.autofill::AutofillQueryContents_Form", %"class.autofill::AutofillQueryContents_Form"* %0, i64 0, i32 1, i32 0, i64 0
  %7 = load i32, i32* %5, align 8
  store i32 %7, i32* %6, align 8
  %8 = getelementptr inbounds %"class.autofill::AutofillQueryContents_Form", %"class.autofill::AutofillQueryContents_Form"* %0, i64 0, i32 2, i32 0, i32 0, i32 0, i32 0, i32 0, i32 0
  %9 = getelementptr inbounds %"class.autofill::AutofillQueryContents_Form", %"class.autofill::AutofillQueryContents_Form"* %0, i64 0, i32 3
  %10 = getelementptr inbounds %"class.autofill::AutofillQueryContents_Form", %"class.autofill::AutofillQueryContents_Form"* %1, i64 0, i32 3, i32 0, i32 1
  %11 = bitcast i32* %8 to i8*
  call void @llvm.memset.p0i8.i64(i8* align 4 %11, i8 0, i64 28, i1 false)
  %12 = load i32, i32* %10, align 8
  %13 = icmp eq i32 %12, 0
  br i1 %13, label %69, label %14

14:                                               ; preds = %2
  %15 = getelementptr inbounds %"class.google::protobuf::RepeatedPtrField.32", %"class.google::protobuf::RepeatedPtrField.32"* %9, i64 0, i32 0
  %16 = getelementptr inbounds %"class.autofill::AutofillQueryContents_Form", %"class.autofill::AutofillQueryContents_Form"* %1, i64 0, i32 3, i32 0, i32 3
  %17 = load %"struct.google::protobuf::internal::RepeatedPtrFieldBase::Rep"*, %"struct.google::protobuf::internal::RepeatedPtrFieldBase::Rep"** %16, align 8
  %18 = tail call i8** @_ZN6google8protobuf8internal20RepeatedPtrFieldBase14InternalExtendEi(%"class.google::protobuf::internal::RepeatedPtrFieldBase"* %15, i32 %12) #18
  %19 = getelementptr inbounds %"class.autofill::AutofillQueryContents_Form", %"class.autofill::AutofillQueryContents_Form"* %0, i64 0, i32 3, i32 0, i32 3
  %20 = load %"struct.google::protobuf::internal::RepeatedPtrFieldBase::Rep"*, %"struct.google::protobuf::internal::RepeatedPtrFieldBase::Rep"** %19, align 8
  %21 = getelementptr inbounds %"struct.google::protobuf::internal::RepeatedPtrFieldBase::Rep", %"struct.google::protobuf::internal::RepeatedPtrFieldBase::Rep"* %20, i64 0, i32 0
  %22 = load i32, i32* %21, align 8
  %23 = getelementptr inbounds %"class.autofill::AutofillQueryContents_Form", %"class.autofill::AutofillQueryContents_Form"* %0, i64 0, i32 3, i32 0, i32 1
  %24 = load i32, i32* %23, align 8
  %25 = sub i32 %22, %24
  %26 = icmp sgt i32 %25, 0
  %27 = icmp sgt i32 %12, 0
  %28 = and i1 %27, %26
  br i1 %28, label %29, label %32

29:                                               ; preds = %14
  %30 = sext i32 %12 to i64
  %31 = sext i32 %25 to i64
  br label %38

32:                                               ; preds = %38, %14
  %33 = getelementptr inbounds %"class.google::protobuf::RepeatedPtrField.32", %"class.google::protobuf::RepeatedPtrField.32"* %9, i64 0, i32 0, i32 0
  %34 = load %"class.google::protobuf::Arena"*, %"class.google::protobuf::Arena"** %33, align 8
  %35 = icmp slt i32 %25, %12
  br i1 %35, label %36, label %61

36:                                               ; preds = %32
  %37 = sext i32 %25 to i64
  br label %50

38:                                               ; preds = %38, %29
  %39 = phi i64 [ 0, %29 ], [ %46, %38 ]
  %40 = getelementptr inbounds %"struct.google::protobuf::internal::RepeatedPtrFieldBase::Rep", %"struct.google::protobuf::internal::RepeatedPtrFieldBase::Rep"* %17, i64 0, i32 1, i64 %39
  %41 = bitcast i8** %40 to %"class.autofill::AutofillQueryContents_Form_Field"**
  %42 = load %"class.autofill::AutofillQueryContents_Form_Field"*, %"class.autofill::AutofillQueryContents_Form_Field"** %41, align 8
  %43 = getelementptr inbounds i8*, i8** %18, i64 %39
  %44 = bitcast i8** %43 to %"class.autofill::AutofillQueryContents_Form_Field"**
  %45 = load %"class.autofill::AutofillQueryContents_Form_Field"*, %"class.autofill::AutofillQueryContents_Form_Field"** %44, align 8
  tail call void @_ZN6google8protobuf8internal18GenericTypeHandlerIN8autofill32AutofillQueryContents_Form_FieldEE5MergeERKS4_PS4_(%"class.autofill::AutofillQueryContents_Form_Field"* dereferenceable(56) %42, %"class.autofill::AutofillQueryContents_Form_Field"* %45) #18
  %46 = add nuw nsw i64 %39, 1
  %47 = icmp slt i64 %46, %31
  %48 = icmp slt i64 %46, %30
  %49 = and i1 %47, %48
  br i1 %49, label %38, label %32

50:                                               ; preds = %50, %36
  %51 = phi i64 [ %37, %36 ], [ %58, %50 ]
  %52 = getelementptr inbounds %"struct.google::protobuf::internal::RepeatedPtrFieldBase::Rep", %"struct.google::protobuf::internal::RepeatedPtrFieldBase::Rep"* %17, i64 0, i32 1, i64 %51
  %53 = bitcast i8** %52 to %"class.autofill::AutofillQueryContents_Form_Field"**
  %54 = load %"class.autofill::AutofillQueryContents_Form_Field"*, %"class.autofill::AutofillQueryContents_Form_Field"** %53, align 8
  %55 = tail call %"class.autofill::AutofillQueryContents_Form_Field"* @_ZN6google8protobuf5Arena18CreateMaybeMessageIN8autofill32AutofillQueryContents_Form_FieldEJEEEPT_PS1_DpOT0_(%"class.google::protobuf::Arena"* %34) #18
  tail call void @_ZN6google8protobuf8internal18GenericTypeHandlerIN8autofill32AutofillQueryContents_Form_FieldEE5MergeERKS4_PS4_(%"class.autofill::AutofillQueryContents_Form_Field"* dereferenceable(56) %54, %"class.autofill::AutofillQueryContents_Form_Field"* %55) #18
  %56 = getelementptr inbounds i8*, i8** %18, i64 %51
  %57 = bitcast i8** %56 to %"class.autofill::AutofillQueryContents_Form_Field"**
  store %"class.autofill::AutofillQueryContents_Form_Field"* %55, %"class.autofill::AutofillQueryContents_Form_Field"** %57, align 8
  %58 = add nsw i64 %51, 1
  %59 = trunc i64 %58 to i32
  %60 = icmp eq i32 %12, %59
  br i1 %60, label %61, label %50

61:                                               ; preds = %50, %32
  %62 = load i32, i32* %23, align 8
  %63 = add nsw i32 %62, %12
  store i32 %63, i32* %23, align 8
  %64 = load %"struct.google::protobuf::internal::RepeatedPtrFieldBase::Rep"*, %"struct.google::protobuf::internal::RepeatedPtrFieldBase::Rep"** %19, align 8
  %65 = getelementptr inbounds %"struct.google::protobuf::internal::RepeatedPtrFieldBase::Rep", %"struct.google::protobuf::internal::RepeatedPtrFieldBase::Rep"* %64, i64 0, i32 0
  %66 = load i32, i32* %65, align 8
  %67 = icmp slt i32 %66, %63
  br i1 %67, label %68, label %69

68:                                               ; preds = %61
  store i32 %63, i32* %65, align 8
  br label %69

69:                                               ; preds = %2, %61, %68
  %70 = getelementptr inbounds %"class.autofill::AutofillQueryContents_Form", %"class.autofill::AutofillQueryContents_Form"* %0, i64 0, i32 0, i32 1
  %71 = getelementptr inbounds %"class.autofill::AutofillQueryContents_Form", %"class.autofill::AutofillQueryContents_Form"* %1, i64 0, i32 0, i32 1
  %72 = bitcast %"class.google::protobuf::internal::InternalMetadata"* %71 to i64*
  %73 = load i64, i64* %72, align 8
  %74 = and i64 %73, 1
  %75 = icmp eq i64 %74, 0
  br i1 %75, label %105, label %76

76:                                               ; preds = %69
  %77 = and i64 %73, -2
  %78 = inttoptr i64 %77 to %"struct.google::protobuf::internal::InternalMetadata::Container"*
  %79 = getelementptr inbounds %"struct.google::protobuf::internal::InternalMetadata::Container", %"struct.google::protobuf::internal::InternalMetadata::Container"* %78, i64 0, i32 1
  %80 = bitcast %"class.google::protobuf::internal::InternalMetadata"* %70 to i64*
  %81 = load i64, i64* %80, align 8
  %82 = and i64 %81, 1
  %83 = icmp eq i64 %82, 0
  br i1 %83, label %88, label %84, !prof !6

84:                                               ; preds = %76
  %85 = and i64 %81, -2
  %86 = inttoptr i64 %85 to %"struct.google::protobuf::internal::InternalMetadata::Container"*
  %87 = getelementptr inbounds %"struct.google::protobuf::internal::InternalMetadata::Container", %"struct.google::protobuf::internal::InternalMetadata::Container"* %86, i64 0, i32 1
  br label %90

88:                                               ; preds = %76
  %89 = tail call %"class.std::__1::basic_string"* @_ZN6google8protobuf8internal16InternalMetadata27mutable_unknown_fields_slowINSt3__112basic_stringIcNS4_11char_traitsIcEENS4_9allocatorIcEEEEEEPT_v(%"class.google::protobuf::internal::InternalMetadata"* %70) #18
  br label %90

90:                                               ; preds = %88, %84
  %91 = phi %"class.std::__1::basic_string"* [ %87, %84 ], [ %89, %88 ]
  %92 = bitcast %"class.std::__1::basic_string"* %79 to %"struct.std::__1::basic_string<char, std::__1::char_traits<char>, std::__1::allocator<char> >::__short"*
  %93 = getelementptr inbounds %"struct.std::__1::basic_string<char, std::__1::char_traits<char>, std::__1::allocator<char> >::__short", %"struct.std::__1::basic_string<char, std::__1::char_traits<char>, std::__1::allocator<char> >::__short"* %92, i64 0, i32 1, i32 0
  %94 = load i8, i8* %93, align 1
  %95 = icmp slt i8 %94, 0
  %96 = getelementptr inbounds %"class.std::__1::basic_string", %"class.std::__1::basic_string"* %79, i64 0, i32 0, i32 0, i32 0, i32 0, i32 0, i32 0
  %97 = load i8*, i8** %96, align 8
  %98 = getelementptr inbounds %"struct.google::protobuf::internal::InternalMetadata::Container", %"struct.google::protobuf::internal::InternalMetadata::Container"* %78, i64 0, i32 1, i32 0, i32 0, i32 0, i32 0, i32 0, i32 1
  %99 = load i64, i64* %98, align 8
  %100 = bitcast %"class.std::__1::basic_string"* %79 to i8*
  %101 = zext i8 %94 to i64
  %102 = select i1 %95, i8* %97, i8* %100
  %103 = select i1 %95, i64 %99, i64 %101
  %104 = tail call dereferenceable(24) %"class.std::__1::basic_string"* @_ZNSt3__112basic_stringIcNS_11char_traitsIcEENS_9allocatorIcEEE6appendEPKcm(%"class.std::__1::basic_string"* %91, i8* %102, i64 %103) #18
  br label %105

105:                                              ; preds = %69, %90
  %106 = load i32, i32* %5, align 4
  %107 = and i32 %106, 1
  %108 = icmp eq i32 %107, 0
  br i1 %108, label %116, label %109

109:                                              ; preds = %105
  %110 = getelementptr inbounds %"class.autofill::AutofillQueryContents_Form", %"class.autofill::AutofillQueryContents_Form"* %1, i64 0, i32 4
  %111 = load %"class.autofill::AutofillRandomizedFormMetadata"*, %"class.autofill::AutofillRandomizedFormMetadata"** %110, align 8, !nonnull !5
  %112 = tail call i8* @_Znwm(i64 80) #19
  %113 = bitcast i8* %112 to %"class.autofill::AutofillRandomizedFormMetadata"*
  tail call void @_ZN8autofill30AutofillRandomizedFormMetadataC2ERKS0_(%"class.autofill::AutofillRandomizedFormMetadata"* nonnull %113, %"class.autofill::AutofillRandomizedFormMetadata"* nonnull dereferenceable(80) %111)
  %114 = getelementptr inbounds %"class.autofill::AutofillQueryContents_Form", %"class.autofill::AutofillQueryContents_Form"* %0, i64 0, i32 4
  %115 = bitcast %"class.autofill::AutofillRandomizedFormMetadata"** %114 to i8**
  store i8* %112, i8** %115, align 8
  br label %118

116:                                              ; preds = %105
  %117 = getelementptr inbounds %"class.autofill::AutofillQueryContents_Form", %"class.autofill::AutofillQueryContents_Form"* %0, i64 0, i32 4
  store %"class.autofill::AutofillRandomizedFormMetadata"* null, %"class.autofill::AutofillRandomizedFormMetadata"** %117, align 8
  br label %118

118:                                              ; preds = %116, %109
  %119 = getelementptr inbounds %"class.autofill::AutofillQueryContents_Form", %"class.autofill::AutofillQueryContents_Form"* %1, i64 0, i32 5
  %120 = load i64, i64* %119, align 8
  %121 = getelementptr inbounds %"class.autofill::AutofillQueryContents_Form", %"class.autofill::AutofillQueryContents_Form"* %0, i64 0, i32 5
  store i64 %120, i64* %121, align 8
  ret void
}

; Function Attrs: nounwind ssp uwtable
define hidden void @_ZN8autofill26AutofillQueryContents_FormD2Ev(%"class.autofill::AutofillQueryContents_Form"*) unnamed_addr #0 align 2 {
  %2 = getelementptr inbounds %"class.autofill::AutofillQueryContents_Form", %"class.autofill::AutofillQueryContents_Form"* %0, i64 0, i32 0, i32 0
  store i32 (...)** bitcast (i8** getelementptr inbounds ({ [16 x i8*] }, { [16 x i8*] }* @_ZTVN8autofill26AutofillQueryContents_FormE, i64 0, inrange i32 0, i64 2) to i32 (...)**), i32 (...)*** %2, align 8
  %3 = icmp eq %"class.autofill::AutofillQueryContents_Form"* %0, bitcast (%"class.autofill::AutofillQueryContents_FormDefaultTypeInternal"* @_ZN8autofill45_AutofillQueryContents_Form_default_instance_E to %"class.autofill::AutofillQueryContents_Form"*)
  br i1 %3, label %13, label %4

4:                                                ; preds = %1
  %5 = getelementptr inbounds %"class.autofill::AutofillQueryContents_Form", %"class.autofill::AutofillQueryContents_Form"* %0, i64 0, i32 4
  %6 = load %"class.autofill::AutofillRandomizedFormMetadata"*, %"class.autofill::AutofillRandomizedFormMetadata"** %5, align 8
  %7 = icmp eq %"class.autofill::AutofillRandomizedFormMetadata"* %6, null
  br i1 %7, label %13, label %8

8:                                                ; preds = %4
  %9 = bitcast %"class.autofill::AutofillRandomizedFormMetadata"* %6 to void (%"class.autofill::AutofillRandomizedFormMetadata"*)***
  %10 = load void (%"class.autofill::AutofillRandomizedFormMetadata"*)**, void (%"class.autofill::AutofillRandomizedFormMetadata"*)*** %9, align 8
  %11 = getelementptr inbounds void (%"class.autofill::AutofillRandomizedFormMetadata"*)*, void (%"class.autofill::AutofillRandomizedFormMetadata"*)** %10, i64 1
  %12 = load void (%"class.autofill::AutofillRandomizedFormMetadata"*)*, void (%"class.autofill::AutofillRandomizedFormMetadata"*)** %11, align 8
  tail call void %12(%"class.autofill::AutofillRandomizedFormMetadata"* nonnull %6) #18
  br label %13

13:                                               ; preds = %1, %4, %8
  %14 = getelementptr inbounds %"class.autofill::AutofillQueryContents_Form", %"class.autofill::AutofillQueryContents_Form"* %0, i64 0, i32 0, i32 1
  %15 = bitcast %"class.google::protobuf::internal::InternalMetadata"* %14 to i64*
  %16 = load i64, i64* %15, align 8
  %17 = and i64 %16, 1
  %18 = icmp eq i64 %17, 0
  br i1 %18, label %39, label %19

19:                                               ; preds = %13
  %20 = and i64 %16, -2
  %21 = inttoptr i64 %20 to %"struct.google::protobuf::internal::InternalMetadata::ContainerBase"*
  %22 = getelementptr inbounds %"struct.google::protobuf::internal::InternalMetadata::ContainerBase", %"struct.google::protobuf::internal::InternalMetadata::ContainerBase"* %21, i64 0, i32 0
  %23 = load %"class.google::protobuf::Arena"*, %"class.google::protobuf::Arena"** %22, align 8
  %24 = icmp ne %"class.google::protobuf::Arena"* %23, null
  %25 = icmp eq i64 %20, 0
  %26 = or i1 %25, %24
  br i1 %26, label %39, label %27

27:                                               ; preds = %19
  %28 = inttoptr i64 %20 to %"struct.google::protobuf::internal::InternalMetadata::Container"*
  %29 = getelementptr inbounds %"struct.google::protobuf::internal::InternalMetadata::Container", %"struct.google::protobuf::internal::InternalMetadata::Container"* %28, i64 0, i32 1
  %30 = bitcast %"class.std::__1::basic_string"* %29 to %"struct.std::__1::basic_string<char, std::__1::char_traits<char>, std::__1::allocator<char> >::__short"*
  %31 = getelementptr inbounds %"struct.std::__1::basic_string<char, std::__1::char_traits<char>, std::__1::allocator<char> >::__short", %"struct.std::__1::basic_string<char, std::__1::char_traits<char>, std::__1::allocator<char> >::__short"* %30, i64 0, i32 1, i32 0
  %32 = load i8, i8* %31, align 1
  %33 = icmp slt i8 %32, 0
  br i1 %33, label %34, label %37

34:                                               ; preds = %27
  %35 = getelementptr inbounds %"class.std::__1::basic_string", %"class.std::__1::basic_string"* %29, i64 0, i32 0, i32 0, i32 0, i32 0, i32 0, i32 0
  %36 = load i8*, i8** %35, align 8
  tail call void @_ZdlPv(i8* %36) #19
  br label %37

37:                                               ; preds = %34, %27
  %38 = inttoptr i64 %20 to i8*
  tail call void @_ZdlPv(i8* %38) #19
  br label %39

39:                                               ; preds = %13, %19, %37
  %40 = getelementptr inbounds %"class.autofill::AutofillQueryContents_Form", %"class.autofill::AutofillQueryContents_Form"* %0, i64 0, i32 3, i32 0, i32 3
  %41 = load %"struct.google::protobuf::internal::RepeatedPtrFieldBase::Rep"*, %"struct.google::protobuf::internal::RepeatedPtrFieldBase::Rep"** %40, align 8
  %42 = icmp eq %"struct.google::protobuf::internal::RepeatedPtrFieldBase::Rep"* %41, null
  %43 = bitcast %"struct.google::protobuf::internal::RepeatedPtrFieldBase::Rep"* %41 to i8*
  br i1 %42, label %73, label %44

44:                                               ; preds = %39
  %45 = getelementptr inbounds %"class.autofill::AutofillQueryContents_Form", %"class.autofill::AutofillQueryContents_Form"* %0, i64 0, i32 3, i32 0, i32 0
  %46 = load %"class.google::protobuf::Arena"*, %"class.google::protobuf::Arena"** %45, align 8
  %47 = icmp eq %"class.google::protobuf::Arena"* %46, null
  br i1 %47, label %48, label %73

48:                                               ; preds = %44
  %49 = getelementptr inbounds %"struct.google::protobuf::internal::RepeatedPtrFieldBase::Rep", %"struct.google::protobuf::internal::RepeatedPtrFieldBase::Rep"* %41, i64 0, i32 0
  %50 = load i32, i32* %49, align 8
  %51 = icmp sgt i32 %50, 0
  br i1 %51, label %52, label %57

52:                                               ; preds = %48
  %53 = zext i32 %50 to i64
  br label %59

54:                                               ; preds = %70
  %55 = bitcast %"struct.google::protobuf::internal::RepeatedPtrFieldBase::Rep"** %40 to i8**
  %56 = load i8*, i8** %55, align 8
  br label %57

57:                                               ; preds = %54, %48
  %58 = phi i8* [ %56, %54 ], [ %43, %48 ]
  tail call void @_ZdlPv(i8* %58) #18
  br label %73

59:                                               ; preds = %70, %52
  %60 = phi i64 [ 0, %52 ], [ %71, %70 ]
  %61 = getelementptr inbounds %"struct.google::protobuf::internal::RepeatedPtrFieldBase::Rep", %"struct.google::protobuf::internal::RepeatedPtrFieldBase::Rep"* %41, i64 0, i32 1, i64 %60
  %62 = bitcast i8** %61 to %"class.autofill::AutofillQueryContents_Form_Field"**
  %63 = load %"class.autofill::AutofillQueryContents_Form_Field"*, %"class.autofill::AutofillQueryContents_Form_Field"** %62, align 8
  %64 = icmp eq %"class.autofill::AutofillQueryContents_Form_Field"* %63, null
  br i1 %64, label %70, label %65

65:                                               ; preds = %59
  %66 = bitcast %"class.autofill::AutofillQueryContents_Form_Field"* %63 to void (%"class.autofill::AutofillQueryContents_Form_Field"*)***
  %67 = load void (%"class.autofill::AutofillQueryContents_Form_Field"*)**, void (%"class.autofill::AutofillQueryContents_Form_Field"*)*** %66, align 8
  %68 = getelementptr inbounds void (%"class.autofill::AutofillQueryContents_Form_Field"*)*, void (%"class.autofill::AutofillQueryContents_Form_Field"*)** %67, i64 1
  %69 = load void (%"class.autofill::AutofillQueryContents_Form_Field"*)*, void (%"class.autofill::AutofillQueryContents_Form_Field"*)** %68, align 8
  tail call void %69(%"class.autofill::AutofillQueryContents_Form_Field"* nonnull %63) #18
  br label %70

70:                                               ; preds = %65, %59
  %71 = add nuw nsw i64 %60, 1
  %72 = icmp eq i64 %71, %53
  br i1 %72, label %54, label %59

73:                                               ; preds = %39, %44, %57
  store %"struct.google::protobuf::internal::RepeatedPtrFieldBase::Rep"* null, %"struct.google::protobuf::internal::RepeatedPtrFieldBase::Rep"** %40, align 8
  ret void
}

; Function Attrs: nounwind ssp uwtable
define hidden void @_ZN8autofill26AutofillQueryContents_FormD0Ev(%"class.autofill::AutofillQueryContents_Form"*) unnamed_addr #0 align 2 {
  tail call void @_ZN8autofill26AutofillQueryContents_FormD2Ev(%"class.autofill::AutofillQueryContents_Form"* %0) #18
  %2 = bitcast %"class.autofill::AutofillQueryContents_Form"* %0 to i8*
  tail call void @_ZdlPv(i8* %2) #19
  ret void
}

; Function Attrs: norecurse nounwind readnone ssp uwtable
define hidden void @_ZN8autofill26AutofillQueryContents_Form9ArenaDtorEPv(i8* nocapture) local_unnamed_addr #1 align 2 {
  ret void
}

; Function Attrs: nofree norecurse nounwind ssp uwtable
define hidden void @_ZNK8autofill26AutofillQueryContents_Form13SetCachedSizeEi(%"class.autofill::AutofillQueryContents_Form"* nocapture, i32) local_unnamed_addr #8 align 2 {
  %3 = getelementptr inbounds %"class.autofill::AutofillQueryContents_Form", %"class.autofill::AutofillQueryContents_Form"* %0, i64 0, i32 2, i32 0, i32 0, i32 0, i32 0, i32 0, i32 0
  store atomic i32 %1, i32* %3 monotonic, align 4
  ret void
}

; Function Attrs: nounwind ssp uwtable
define hidden dereferenceable(64) %"class.autofill::AutofillQueryContents_Form"* @_ZN8autofill26AutofillQueryContents_Form16default_instanceEv() local_unnamed_addr #0 align 2 {
  %1 = load atomic i32, i32* getelementptr inbounds ({ { { { i32 } }, i32, i32, void ()* }, [2 x i8*] }, { { { { i32 } }, i32, i32, void ()* }, [2 x i8*] }* @scc_info_AutofillQueryContents_Form_server_2eproto, i64 0, i32 0, i32 0, i32 0, i32 0) acquire, align 8
  %2 = icmp eq i32 %1, 0
  br i1 %2, label %4, label %3, !prof !2

3:                                                ; preds = %0
  tail call void @_ZN6google8protobuf8internal11InitSCCImplEPNS1_11SCCInfoBaseE(%"struct.google::protobuf::internal::SCCInfoBase"* bitcast ({ { { { i32 } }, i32, i32, void ()* }, [2 x i8*] }* @scc_info_AutofillQueryContents_Form_server_2eproto to %"struct.google::protobuf::internal::SCCInfoBase"*)) #18
  br label %4

4:                                                ; preds = %0, %3
  ret %"class.autofill::AutofillQueryContents_Form"* bitcast (%"class.autofill::AutofillQueryContents_FormDefaultTypeInternal"* @_ZN8autofill45_AutofillQueryContents_Form_default_instance_E to %"class.autofill::AutofillQueryContents_Form"*)
}

; Function Attrs: nofree norecurse nounwind ssp uwtable
define hidden void @_ZN8autofill26AutofillQueryContents_Form5ClearEv(%"class.autofill::AutofillQueryContents_Form"* nocapture) unnamed_addr #8 align 2 {
  %2 = getelementptr inbounds %"class.autofill::AutofillQueryContents_Form", %"class.autofill::AutofillQueryContents_Form"* %0, i64 0, i32 3, i32 0, i32 1
  %3 = load i32, i32* %2, align 8
  %4 = icmp sgt i32 %3, 0
  br i1 %4, label %5, label %17

5:                                                ; preds = %1
  %6 = getelementptr inbounds %"class.autofill::AutofillQueryContents_Form", %"class.autofill::AutofillQueryContents_Form"* %0, i64 0, i32 3, i32 0, i32 3
  %7 = load %"struct.google::protobuf::internal::RepeatedPtrFieldBase::Rep"*, %"struct.google::protobuf::internal::RepeatedPtrFieldBase::Rep"** %6, align 8
  %8 = zext i32 %3 to i64
  br label %9

9:                                                ; preds = %9, %5
  %10 = phi i64 [ %11, %9 ], [ 0, %5 ]
  %11 = add nuw nsw i64 %10, 1
  %12 = getelementptr inbounds %"struct.google::protobuf::internal::RepeatedPtrFieldBase::Rep", %"struct.google::protobuf::internal::RepeatedPtrFieldBase::Rep"* %7, i64 0, i32 1, i64 %10
  %13 = bitcast i8** %12 to %"class.autofill::AutofillQueryContents_Form_Field"**
  %14 = load %"class.autofill::AutofillQueryContents_Form_Field"*, %"class.autofill::AutofillQueryContents_Form_Field"** %13, align 8
  tail call void @_ZN8autofill32AutofillQueryContents_Form_Field5ClearEv(%"class.autofill::AutofillQueryContents_Form_Field"* %14) #18
  %15 = icmp eq i64 %11, %8
  br i1 %15, label %16, label %9

16:                                               ; preds = %9
  store i32 0, i32* %2, align 8
  br label %17

17:                                               ; preds = %1, %16
  %18 = getelementptr inbounds %"class.autofill::AutofillQueryContents_Form", %"class.autofill::AutofillQueryContents_Form"* %0, i64 0, i32 1, i32 0, i64 0
  %19 = load i32, i32* %18, align 4
  %20 = and i32 %19, 1
  %21 = icmp eq i32 %20, 0
  br i1 %21, label %25, label %22

22:                                               ; preds = %17
  %23 = getelementptr inbounds %"class.autofill::AutofillQueryContents_Form", %"class.autofill::AutofillQueryContents_Form"* %0, i64 0, i32 4
  %24 = load %"class.autofill::AutofillRandomizedFormMetadata"*, %"class.autofill::AutofillRandomizedFormMetadata"** %23, align 8
  tail call void @_ZN8autofill30AutofillRandomizedFormMetadata5ClearEv(%"class.autofill::AutofillRandomizedFormMetadata"* %24)
  br label %25

25:                                               ; preds = %17, %22
  %26 = getelementptr inbounds %"class.autofill::AutofillQueryContents_Form", %"class.autofill::AutofillQueryContents_Form"* %0, i64 0, i32 5
  store i64 0, i64* %26, align 8
  store i32 0, i32* %18, align 4
  %27 = getelementptr inbounds %"class.autofill::AutofillQueryContents_Form", %"class.autofill::AutofillQueryContents_Form"* %0, i64 0, i32 0, i32 1
  %28 = bitcast %"class.google::protobuf::internal::InternalMetadata"* %27 to i64*
  %29 = load i64, i64* %28, align 8
  %30 = and i64 %29, 1
  %31 = icmp eq i64 %30, 0
  br i1 %31, label %46, label %32

32:                                               ; preds = %25
  %33 = and i64 %29, -2
  %34 = inttoptr i64 %33 to %"struct.google::protobuf::internal::InternalMetadata::Container"*
  %35 = getelementptr inbounds %"struct.google::protobuf::internal::InternalMetadata::Container", %"struct.google::protobuf::internal::InternalMetadata::Container"* %34, i64 0, i32 1
  %36 = bitcast %"class.std::__1::basic_string"* %35 to %"struct.std::__1::basic_string<char, std::__1::char_traits<char>, std::__1::allocator<char> >::__short"*
  %37 = getelementptr inbounds %"struct.std::__1::basic_string<char, std::__1::char_traits<char>, std::__1::allocator<char> >::__short", %"struct.std::__1::basic_string<char, std::__1::char_traits<char>, std::__1::allocator<char> >::__short"* %36, i64 0, i32 1, i32 0
  %38 = load i8, i8* %37, align 1
  %39 = icmp slt i8 %38, 0
  br i1 %39, label %40, label %44

40:                                               ; preds = %32
