; ModuleID = 'gen/third_party/blink/public/mojom/service_worker/service_worker_container.mojom-shared.cc'
source_filename = "gen/third_party/blink/public/mojom/service_worker/service_worker_container.mojom-shared.cc"
target datalayout = "e-m:e-i64:64-f80:128-n8:16:32:64-S128"
target triple = "x86_64-unknown-linux-gnu"

module asm ".symver exp, exp@GLIBC_2.2.5"
module asm ".symver exp2, exp2@GLIBC_2.2.5"
module asm ".symver exp2f, exp2f@GLIBC_2.2.5"
module asm ".symver expf, expf@GLIBC_2.2.5"
module asm ".symver lgamma, lgamma@GLIBC_2.2.5"
module asm ".symver lgammaf, lgammaf@GLIBC_2.2.5"
module asm ".symver lgammal, lgammal@GLIBC_2.2.5"
module asm ".symver log, log@GLIBC_2.2.5"
module asm ".symver log2, log2@GLIBC_2.2.5"
module asm ".symver log2f, log2f@GLIBC_2.2.5"
module asm ".symver logf, logf@GLIBC_2.2.5"
module asm ".symver pow, pow@GLIBC_2.2.5"
module asm ".symver powf, powf@GLIBC_2.2.5"

%"class.std::__1::locale::id" = type <{ %"struct.std::__1::once_flag", i32, [4 x i8] }>
%"struct.std::__1::once_flag" = type { i64 }
%"class.blink::mojom::internal::ServiceWorkerContainerInfoForClient_Data" = type { %"struct.mojo::internal::StructHeader", %"struct.mojo::internal::AssociatedInterface_Data", %"struct.mojo::internal::AssociatedEndpointHandle_Data", [4 x i8] }
%"struct.mojo::internal::StructHeader" = type { i32, i32 }
%"struct.mojo::internal::AssociatedInterface_Data" = type { %"struct.mojo::internal::AssociatedEndpointHandle_Data", i32 }
%"struct.mojo::internal::AssociatedEndpointHandle_Data" = type { i32 }
%"class.blink::mojom::internal::ServiceWorkerContainerHost_Register_Params_Data" = type { %"struct.mojo::internal::StructHeader", %"struct.mojo::internal::Pointer", %"struct.mojo::internal::Pointer.25", %"struct.mojo::internal::Pointer.26" }
%"struct.mojo::internal::Pointer" = type { i64 }
%"struct.mojo::internal::Pointer.25" = type { i64 }
%"struct.mojo::internal::Pointer.26" = type { i64 }
%"class.blink::mojom::internal::ServiceWorkerContainerHost_Register_ResponseParams_Data" = type { %"struct.mojo::internal::StructHeader", i32, [4 x i8], %"struct.mojo::internal::Pointer.27", %"struct.mojo::internal::Pointer.28" }
%"struct.mojo::internal::Pointer.27" = type { i64 }
%"struct.mojo::internal::Pointer.28" = type { i64 }
%"class.blink::mojom::internal::ServiceWorkerContainerHost_GetRegistration_Params_Data" = type { %"struct.mojo::internal::StructHeader", %"struct.mojo::internal::Pointer" }
%"class.blink::mojom::internal::ServiceWorkerContainerHost_GetRegistration_ResponseParams_Data" = type { %"struct.mojo::internal::StructHeader", i32, [4 x i8], %"struct.mojo::internal::Pointer.27", %"struct.mojo::internal::Pointer.28" }
%"class.blink::mojom::internal::ServiceWorkerContainerHost_GetRegistrations_Params_Data" = type { %"struct.mojo::internal::StructHeader" }
%"class.blink::mojom::internal::ServiceWorkerContainerHost_GetRegistrations_ResponseParams_Data" = type { %"struct.mojo::internal::StructHeader", i32, [4 x i8], %"struct.mojo::internal::Pointer.27", %"struct.mojo::internal::Pointer.29" }
%"struct.mojo::internal::Pointer.29" = type { i64 }
%"class.blink::mojom::internal::ServiceWorkerContainerHost_GetRegistrationForReady_Params_Data" = type { %"struct.mojo::internal::StructHeader" }
%"class.blink::mojom::internal::ServiceWorkerContainerHost_GetRegistrationForReady_ResponseParams_Data" = type { %"struct.mojo::internal::StructHeader", %"struct.mojo::internal::Pointer.28" }
%"class.blink::mojom::internal::ServiceWorkerContainerHost_EnsureControllerServiceWorker_Params_Data" = type { %"struct.mojo::internal::StructHeader", %"struct.mojo::internal::Handle_Data", i32 }
%"struct.mojo::internal::Handle_Data" = type { i32 }
%"class.blink::mojom::internal::ServiceWorkerContainerHost_CloneContainerHost_Params_Data" = type { %"struct.mojo::internal::StructHeader", %"struct.mojo::internal::Handle_Data", [4 x i8] }
%"class.blink::mojom::internal::ServiceWorkerContainerHost_HintToUpdateServiceWorker_Params_Data" = type { %"struct.mojo::internal::StructHeader" }
%"class.blink::mojom::internal::ServiceWorkerContainerHost_EnsureFileAccess_Params_Data" = type { %"struct.mojo::internal::StructHeader", %"struct.mojo::internal::Pointer.30" }
%"struct.mojo::internal::Pointer.30" = type { i64 }
%"class.blink::mojom::internal::ServiceWorkerContainerHost_EnsureFileAccess_ResponseParams_Data" = type { %"struct.mojo::internal::StructHeader" }
%"class.blink::mojom::internal::ServiceWorkerContainerHost_OnExecutionReady_Params_Data" = type { %"struct.mojo::internal::StructHeader" }
%"class.blink::mojom::internal::ServiceWorkerContainer_SetController_Params_Data" = type { %"struct.mojo::internal::StructHeader", %"struct.mojo::internal::Pointer.31", i8, [7 x i8] }
%"struct.mojo::internal::Pointer.31" = type { i64 }
%"class.blink::mojom::internal::ServiceWorkerContainer_PostMessageToClient_Params_Data" = type { %"struct.mojo::internal::StructHeader", %"struct.mojo::internal::Pointer.32", %"struct.mojo::internal::Pointer.33" }
%"struct.mojo::internal::Pointer.32" = type { i64 }
%"struct.mojo::internal::Pointer.33" = type { i64 }
%"class.blink::mojom::internal::ServiceWorkerContainer_CountFeature_Params_Data" = type { %"struct.mojo::internal::StructHeader", i32, [4 x i8] }
%"class.std::__1::basic_string" = type { %"class.std::__1::__compressed_pair" }
%"class.std::__1::__compressed_pair" = type { %"struct.std::__1::__compressed_pair_elem" }
%"struct.std::__1::__compressed_pair_elem" = type { %"struct.std::__1::basic_string<char, std::__1::char_traits<char>, std::__1::allocator<char> >::__rep" }
%"struct.std::__1::basic_string<char, std::__1::char_traits<char>, std::__1::allocator<char> >::__rep" = type { %union.anon }
%union.anon = type { %"struct.std::__1::basic_string<char, std::__1::char_traits<char>, std::__1::allocator<char> >::__long" }
%"struct.std::__1::basic_string<char, std::__1::char_traits<char>, std::__1::allocator<char> >::__long" = type { i8*, i64, i64 }
%"class.std::__1::__basic_string_common" = type { i8 }
%"struct.std::__1::basic_string<char, std::__1::char_traits<char>, std::__1::allocator<char> >::__short" = type { [23 x i8], %struct.anon }
%struct.anon = type { i8 }
%"class.std::__1::basic_ostream" = type { i32 (...)**, %"class.std::__1::basic_ios.base" }
%"class.std::__1::basic_ios.base" = type <{ %"class.std::__1::ios_base", %"class.std::__1::basic_ostream"*, i32 }>
%"class.std::__1::ios_base" = type { i32 (...)**, i32, i64, i64, i32, i32, i8*, i8*, void (i32, %"class.std::__1::ios_base"*, i32)**, i32*, i64, i64, i64*, i64, i64, i8**, i64, i64 }
%"class.mojo::internal::ValidationContext" = type <{ %"class.mojo::Message"*, i8*, i32, [4 x i8], i64, i64, i32, i32, i32, i32, i32, [4 x i8] }>
%"class.mojo::Message" = type { %"class.mojo::ScopedHandleBase", %"class.mojo::internal::Buffer", %"class.std::__1::vector", %"class.std::__1::vector.7", %"class.mojo::ConnectionGroup::Ref"*, i8, i8, i8* }
%"class.mojo::ScopedHandleBase" = type { %"class.mojo::MessageHandle" }
%"class.mojo::MessageHandle" = type { i64 }
%"class.mojo::internal::Buffer" = type { %"class.mojo::MessageHandle", i64, i8*, i64, i64 }
%"class.std::__1::vector" = type { %"class.std::__1::__vector_base" }
%"class.std::__1::__vector_base" = type { %"class.mojo::ScopedHandleBase.1"*, %"class.mojo::ScopedHandleBase.1"*, %"class.std::__1::__compressed_pair.2" }
%"class.mojo::ScopedHandleBase.1" = type { %"class.mojo::Handle" }
%"class.mojo::Handle" = type { i32 }
%"class.std::__1::__compressed_pair.2" = type { %"struct.std::__1::__compressed_pair_elem.3" }
%"struct.std::__1::__compressed_pair_elem.3" = type { %"class.mojo::ScopedHandleBase.1"* }
%"class.std::__1::vector.7" = type { %"class.std::__1::__vector_base.8" }
%"class.std::__1::__vector_base.8" = type { %"class.mojo::ScopedInterfaceEndpointHandle"*, %"class.mojo::ScopedInterfaceEndpointHandle"*, %"class.std::__1::__compressed_pair.9" }
%"class.mojo::ScopedInterfaceEndpointHandle" = type { %class.scoped_refptr }
%class.scoped_refptr = type { %"class.mojo::ScopedInterfaceEndpointHandle::State"* }
%"class.mojo::ScopedInterfaceEndpointHandle::State" = type opaque
%"class.std::__1::__compressed_pair.9" = type { %"struct.std::__1::__compressed_pair_elem.10" }
%"struct.std::__1::__compressed_pair_elem.10" = type { %"class.mojo::ScopedInterfaceEndpointHandle"* }
%"class.mojo::ConnectionGroup::Ref" = type { i32, %class.scoped_refptr.14 }
%class.scoped_refptr.14 = type { %"class.mojo::ConnectionGroup"* }
%"class.mojo::ConnectionGroup" = type <{ i32 (...)**, %"class.base::RefCountedThreadSafe", [4 x i8], %"class.base::RepeatingCallback", %class.scoped_refptr.18, %"class.mojo::ConnectionGroup::Ref", %"struct.std::__1::atomic.20", [4 x i8] }>
%"class.base::RefCountedThreadSafe" = type { %"class.base::subtle::RefCountedThreadSafeBase" }
%"class.base::subtle::RefCountedThreadSafeBase" = type { %"class.base::AtomicRefCount" }
%"class.base::AtomicRefCount" = type { %"struct.std::__1::atomic" }
%"struct.std::__1::atomic" = type { %"struct.std::__1::__atomic_base" }
%"struct.std::__1::__atomic_base" = type { %"struct.std::__1::__atomic_base.15" }
%"struct.std::__1::__atomic_base.15" = type { %"struct.std::__1::__cxx_atomic_impl" }
%"struct.std::__1::__cxx_atomic_impl" = type { %"struct.std::__1::__cxx_atomic_base_impl" }
%"struct.std::__1::__cxx_atomic_base_impl" = type { i32 }
%"class.base::RepeatingCallback" = type { %"class.base::internal::CallbackBaseCopyable" }
%"class.base::internal::CallbackBaseCopyable" = type { %"class.base::internal::CallbackBase" }
%"class.base::internal::CallbackBase" = type { %class.scoped_refptr.16 }
%class.scoped_refptr.16 = type { %"class.base::internal::BindStateBase"* }
%"class.base::internal::BindStateBase" = type { %"class.base::RefCountedThreadSafe.17", void ()*, void (%"class.base::internal::BindStateBase"*)*, i1 (%"class.base::internal::BindStateBase"*, i32)* }
%"class.base::RefCountedThreadSafe.17" = type { %"class.base::subtle::RefCountedThreadSafeBase" }
%class.scoped_refptr.18 = type { %"class.base::SequencedTaskRunner"* }
%"class.base::SequencedTaskRunner" = type { %"class.base::TaskRunner.base", [4 x i8] }
%"class.base::TaskRunner.base" = type <{ i32 (...)**, %"class.base::RefCountedThreadSafe.19" }>
%"class.base::RefCountedThreadSafe.19" = type { %"class.base::subtle::RefCountedThreadSafeBase" }
%"struct.std::__1::atomic.20" = type { %"struct.std::__1::__atomic_base.21" }
%"struct.std::__1::__atomic_base.21" = type { %"struct.std::__1::__atomic_base.22" }
%"struct.std::__1::__atomic_base.22" = type { %"struct.std::__1::__cxx_atomic_impl.23" }
%"struct.std::__1::__cxx_atomic_impl.23" = type { %"struct.std::__1::__cxx_atomic_base_impl.24" }
%"struct.std::__1::__cxx_atomic_base_impl.24" = type { i32 }
%"class.mojo::internal::ContainerValidateParams" = type { i32, i8, %"class.mojo::internal::ContainerValidateParams"*, %"class.mojo::internal::ContainerValidateParams"*, i1 (i32, %"class.mojo::internal::ValidationContext"*)* }
%"class.perfetto::TracedValue" = type <{ %"class.perfetto::protos::pbzero::DebugAnnotation"*, %"class.perfetto::internal::CheckedScope", [7 x i8] }>
%"class.perfetto::protos::pbzero::DebugAnnotation" = type opaque
%"class.perfetto::internal::CheckedScope" = type { i8 }
%"class.std::__1::locale" = type { %"class.std::__1::locale::__imp"* }
%"class.std::__1::locale::__imp" = type opaque
%"class.std::__1::basic_ostream<char, std::__1::char_traits<char> >::sentry" = type { i8, %"class.std::__1::basic_ostream"* }
%"class.std::__1::basic_streambuf" = type { i32 (...)**, %"class.std::__1::locale", i8*, i8*, i8*, i8*, i8*, i8* }
%"class.std::__1::locale::facet" = type { %"class.std::__1::__shared_count" }
%"class.std::__1::__shared_count" = type { i32 (...)**, i64 }
%"class.std::__1::ctype" = type <{ %"class.std::__1::locale::facet", i16*, i8, [7 x i8] }>
%"struct.mojo::internal::ArrayHeader" = type { i32, i32 }
%"struct.mojo::internal::Pointer.36" = type { i64 }

$_ZN4mojo8internal23ContainerValidateParamsD2Ev = comdat any

$_ZN5blink5mojom8internal15WebFeature_Data12IsKnownValueEi = comdat any

$_ZNSt3__124__put_character_sequenceIcNS_11char_traitsIcEEEERNS_13basic_ostreamIT_T0_EES7_PKS4_m = comdat any

$_ZNSt3__116__pad_and_outputIcNS_11char_traitsIcEEEENS_19ostreambuf_iteratorIT_T0_EES6_PKS4_S8_S8_RNS_8ios_baseES4_ = comdat any

$_ZN4mojo8internal10Array_DataIcE8ValidateEPKvPNS0_17ValidationContextEPKNS0_23ContainerValidateParamsE = comdat any

$_ZN4mojo8internal10Array_DataINS0_7PointerIN5blink5mojom8internal40ServiceWorkerRegistrationObjectInfo_DataEEEE8ValidateEPKvPNS0_17ValidationContextEPKNS0_23ContainerValidateParamsE = comdat any

$_ZN4mojo8internal24ArraySerializationHelperINS0_7PointerIN5blink5mojom8internal40ServiceWorkerRegistrationObjectInfo_DataEEELb0ELb0EE16ValidateElementsEPKNS0_11ArrayHeaderEPKS7_PNS0_17ValidationContextEPKNS0_23ContainerValidateParamsE = comdat any

$_ZN4mojo8internal10Array_DataINS0_7PointerIN9mojo_base5mojom8internal13FilePath_DataEEEE8ValidateEPKvPNS0_17ValidationContextEPKNS0_23ContainerValidateParamsE = comdat any

$_ZN4mojo8internal24ArraySerializationHelperINS0_7PointerIN9mojo_base5mojom8internal13FilePath_DataEEELb0ELb0EE16ValidateElementsEPKNS0_11ArrayHeaderEPKS7_PNS0_17ValidationContextEPKNS0_23ContainerValidateParamsE = comdat any

@.str = private unnamed_addr constant [49 x i8] c"Unknown ControllerServiceWorkerPurpose value: %i\00", align 1
@.str.1 = private unnamed_addr constant [19 x i8] c"FETCH_SUB_RESOURCE\00", align 1
@_ZNSt3__15ctypeIcE2idE = external global %"class.std::__1::locale::id", align 8
@.str.3 = private unnamed_addr constant [46 x i8] c"fixed-size array has wrong number of elements\00", align 1
@.str.4 = private unnamed_addr constant [39 x i8] c"null in array expecting valid pointers\00", align 1

@_ZN5blink5mojom8internal40ServiceWorkerContainerInfoForClient_DataC1Ev = hidden unnamed_addr alias void (%"class.blink::mojom::internal::ServiceWorkerContainerInfoForClient_Data"*), void (%"class.blink::mojom::internal::ServiceWorkerContainerInfoForClient_Data"*)* @_ZN5blink5mojom8internal40ServiceWorkerContainerInfoForClient_DataC2Ev
@_ZN5blink5mojom8internal47ServiceWorkerContainerHost_Register_Params_DataC1Ev = hidden unnamed_addr alias void (%"class.blink::mojom::internal::ServiceWorkerContainerHost_Register_Params_Data"*), void (%"class.blink::mojom::internal::ServiceWorkerContainerHost_Register_Params_Data"*)* @_ZN5blink5mojom8internal47ServiceWorkerContainerHost_Register_Params_DataC2Ev
@_ZN5blink5mojom8internal55ServiceWorkerContainerHost_Register_ResponseParams_DataC1Ev = hidden unnamed_addr alias void (%"class.blink::mojom::internal::ServiceWorkerContainerHost_Register_ResponseParams_Data"*), void (%"class.blink::mojom::internal::ServiceWorkerContainerHost_Register_ResponseParams_Data"*)* @_ZN5blink5mojom8internal55ServiceWorkerContainerHost_Register_ResponseParams_DataC2Ev
@_ZN5blink5mojom8internal54ServiceWorkerContainerHost_GetRegistration_Params_DataC1Ev = hidden unnamed_addr alias void (%"class.blink::mojom::internal::ServiceWorkerContainerHost_GetRegistration_Params_Data"*), void (%"class.blink::mojom::internal::ServiceWorkerContainerHost_GetRegistration_Params_Data"*)* @_ZN5blink5mojom8internal54ServiceWorkerContainerHost_GetRegistration_Params_DataC2Ev
@_ZN5blink5mojom8internal62ServiceWorkerContainerHost_GetRegistration_ResponseParams_DataC1Ev = hidden unnamed_addr alias void (%"class.blink::mojom::internal::ServiceWorkerContainerHost_GetRegistration_ResponseParams_Data"*), void (%"class.blink::mojom::internal::ServiceWorkerContainerHost_GetRegistration_ResponseParams_Data"*)* @_ZN5blink5mojom8internal62ServiceWorkerContainerHost_GetRegistration_ResponseParams_DataC2Ev
@_ZN5blink5mojom8internal55ServiceWorkerContainerHost_GetRegistrations_Params_DataC1Ev = hidden unnamed_addr alias void (%"class.blink::mojom::internal::ServiceWorkerContainerHost_GetRegistrations_Params_Data"*), void (%"class.blink::mojom::internal::ServiceWorkerContainerHost_GetRegistrations_Params_Data"*)* @_ZN5blink5mojom8internal55ServiceWorkerContainerHost_GetRegistrations_Params_DataC2Ev
@_ZN5blink5mojom8internal63ServiceWorkerContainerHost_GetRegistrations_ResponseParams_DataC1Ev = hidden unnamed_addr alias void (%"class.blink::mojom::internal::ServiceWorkerContainerHost_GetRegistrations_ResponseParams_Data"*), void (%"class.blink::mojom::internal::ServiceWorkerContainerHost_GetRegistrations_ResponseParams_Data"*)* @_ZN5blink5mojom8internal63ServiceWorkerContainerHost_GetRegistrations_ResponseParams_DataC2Ev
@_ZN5blink5mojom8internal62ServiceWorkerContainerHost_GetRegistrationForReady_Params_DataC1Ev = hidden unnamed_addr alias void (%"class.blink::mojom::internal::ServiceWorkerContainerHost_GetRegistrationForReady_Params_Data"*), void (%"class.blink::mojom::internal::ServiceWorkerContainerHost_GetRegistrationForReady_Params_Data"*)* @_ZN5blink5mojom8internal62ServiceWorkerContainerHost_GetRegistrationForReady_Params_DataC2Ev
@_ZN5blink5mojom8internal70ServiceWorkerContainerHost_GetRegistrationForReady_ResponseParams_DataC1Ev = hidden unnamed_addr alias void (%"class.blink::mojom::internal::ServiceWorkerContainerHost_GetRegistrationForReady_ResponseParams_Data"*), void (%"class.blink::mojom::internal::ServiceWorkerContainerHost_GetRegistrationForReady_ResponseParams_Data"*)* @_ZN5blink5mojom8internal70ServiceWorkerContainerHost_GetRegistrationForReady_ResponseParams_DataC2Ev
@_ZN5blink5mojom8internal68ServiceWorkerContainerHost_EnsureControllerServiceWorker_Params_DataC1Ev = hidden unnamed_addr alias void (%"class.blink::mojom::internal::ServiceWorkerContainerHost_EnsureControllerServiceWorker_Params_Data"*), void (%"class.blink::mojom::internal::ServiceWorkerContainerHost_EnsureControllerServiceWorker_Params_Data"*)* @_ZN5blink5mojom8internal68ServiceWorkerContainerHost_EnsureControllerServiceWorker_Params_DataC2Ev
@_ZN5blink5mojom8internal57ServiceWorkerContainerHost_CloneContainerHost_Params_DataC1Ev = hidden unnamed_addr alias void (%"class.blink::mojom::internal::ServiceWorkerContainerHost_CloneContainerHost_Params_Data"*), void (%"class.blink::mojom::internal::ServiceWorkerContainerHost_CloneContainerHost_Params_Data"*)* @_ZN5blink5mojom8internal57ServiceWorkerContainerHost_CloneContainerHost_Params_DataC2Ev
@_ZN5blink5mojom8internal64ServiceWorkerContainerHost_HintToUpdateServiceWorker_Params_DataC1Ev = hidden unnamed_addr alias void (%"class.blink::mojom::internal::ServiceWorkerContainerHost_HintToUpdateServiceWorker_Params_Data"*), void (%"class.blink::mojom::internal::ServiceWorkerContainerHost_HintToUpdateServiceWorker_Params_Data"*)* @_ZN5blink5mojom8internal64ServiceWorkerContainerHost_HintToUpdateServiceWorker_Params_DataC2Ev
@_ZN5blink5mojom8internal55ServiceWorkerContainerHost_EnsureFileAccess_Params_DataC1Ev = hidden unnamed_addr alias void (%"class.blink::mojom::internal::ServiceWorkerContainerHost_EnsureFileAccess_Params_Data"*), void (%"class.blink::mojom::internal::ServiceWorkerContainerHost_EnsureFileAccess_Params_Data"*)* @_ZN5blink5mojom8internal55ServiceWorkerContainerHost_EnsureFileAccess_Params_DataC2Ev
@_ZN5blink5mojom8internal63ServiceWorkerContainerHost_EnsureFileAccess_ResponseParams_DataC1Ev = hidden unnamed_addr alias void (%"class.blink::mojom::internal::ServiceWorkerContainerHost_EnsureFileAccess_ResponseParams_Data"*), void (%"class.blink::mojom::internal::ServiceWorkerContainerHost_EnsureFileAccess_ResponseParams_Data"*)* @_ZN5blink5mojom8internal63ServiceWorkerContainerHost_EnsureFileAccess_ResponseParams_DataC2Ev
@_ZN5blink5mojom8internal55ServiceWorkerContainerHost_OnExecutionReady_Params_DataC1Ev = hidden unnamed_addr alias void (%"class.blink::mojom::internal::ServiceWorkerContainerHost_OnExecutionReady_Params_Data"*), void (%"class.blink::mojom::internal::ServiceWorkerContainerHost_OnExecutionReady_Params_Data"*)* @_ZN5blink5mojom8internal55ServiceWorkerContainerHost_OnExecutionReady_Params_DataC2Ev
@_ZN5blink5mojom8internal48ServiceWorkerContainer_SetController_Params_DataC1Ev = hidden unnamed_addr alias void (%"class.blink::mojom::internal::ServiceWorkerContainer_SetController_Params_Data"*), void (%"class.blink::mojom::internal::ServiceWorkerContainer_SetController_Params_Data"*)* @_ZN5blink5mojom8internal48ServiceWorkerContainer_SetController_Params_DataC2Ev
@_ZN5blink5mojom8internal54ServiceWorkerContainer_PostMessageToClient_Params_DataC1Ev = hidden unnamed_addr alias void (%"class.blink::mojom::internal::ServiceWorkerContainer_PostMessageToClient_Params_Data"*), void (%"class.blink::mojom::internal::ServiceWorkerContainer_PostMessageToClient_Params_Data"*)* @_ZN5blink5mojom8internal54ServiceWorkerContainer_PostMessageToClient_Params_DataC2Ev
@_ZN5blink5mojom8internal47ServiceWorkerContainer_CountFeature_Params_DataC1Ev = hidden unnamed_addr alias void (%"class.blink::mojom::internal::ServiceWorkerContainer_CountFeature_Params_Data"*), void (%"class.blink::mojom::internal::ServiceWorkerContainer_CountFeature_Params_Data"*)* @_ZN5blink5mojom8internal47ServiceWorkerContainer_CountFeature_Params_DataC2Ev

; Function Attrs: nounwind ssp uwtable
define hidden void @_ZN5blink5mojom38ControllerServiceWorkerPurposeToStringENS0_30ControllerServiceWorkerPurposeE(%"class.std::__1::basic_string"* noalias sret, i32) local_unnamed_addr #0 {
  %3 = tail call fastcc i8* @_ZN5blink5mojomL44ControllerServiceWorkerPurposeToStringHelperENS0_30ControllerServiceWorkerPurposeE(i32 %1)
  %4 = icmp eq i8* %3, null
  br i1 %4, label %5, label %6

5:                                                ; preds = %2
  tail call void (%"class.std::__1::basic_string"*, i8*, ...) @_ZN4base12StringPrintfEPKcz(%"class.std::__1::basic_string"* sret %0, i8* getelementptr inbounds ([49 x i8], [49 x i8]* @.str, i64 0, i64 0), i32 %1) #10
  br label %32

6:                                                ; preds = %2
  %7 = tail call i64 @strlen(i8* nonnull %3) #10
  %8 = icmp ugt i64 %7, -17
  br i1 %8, label %9, label %11

9:                                                ; preds = %6
  %10 = bitcast %"class.std::__1::basic_string"* %0 to %"class.std::__1::__basic_string_common"*
  tail call void @_ZNKSt3__121__basic_string_commonILb1EE20__throw_length_errorEv(%"class.std::__1::__basic_string_common"* %10) #11
  unreachable

11:                                               ; preds = %6
  %12 = icmp ult i64 %7, 23
  br i1 %12, label %21, label %13

13:                                               ; preds = %11
  %14 = add nuw i64 %7, 16
  %15 = and i64 %14, -16
  %16 = tail call i8* @_Znwm(i64 %15) #12
  %17 = getelementptr inbounds %"class.std::__1::basic_string", %"class.std::__1::basic_string"* %0, i64 0, i32 0, i32 0, i32 0, i32 0, i32 0, i32 0
  store i8* %16, i8** %17, align 8
  %18 = or i64 %15, -9223372036854775808
  %19 = getelementptr inbounds %"class.std::__1::basic_string", %"class.std::__1::basic_string"* %0, i64 0, i32 0, i32 0, i32 0, i32 0, i32 0, i32 2
  store i64 %18, i64* %19, align 8
  %20 = getelementptr inbounds %"class.std::__1::basic_string", %"class.std::__1::basic_string"* %0, i64 0, i32 0, i32 0, i32 0, i32 0, i32 0, i32 1
  store i64 %7, i64* %20, align 8
  br label %27

21:                                               ; preds = %11
  %22 = trunc i64 %7 to i8
  %23 = bitcast %"class.std::__1::basic_string"* %0 to %"struct.std::__1::basic_string<char, std::__1::char_traits<char>, std::__1::allocator<char> >::__short"*
  %24 = getelementptr inbounds %"struct.std::__1::basic_string<char, std::__1::char_traits<char>, std::__1::allocator<char> >::__short", %"struct.std::__1::basic_string<char, std::__1::char_traits<char>, std::__1::allocator<char> >::__short"* %23, i64 0, i32 1, i32 0
  store i8 %22, i8* %24, align 1
  %25 = bitcast %"class.std::__1::basic_string"* %0 to i8*
  %26 = icmp eq i64 %7, 0
  br i1 %26, label %29, label %27

27:                                               ; preds = %21, %13
  %28 = phi i8* [ %16, %13 ], [ %25, %21 ]
  tail call void @llvm.memcpy.p0i8.p0i8.i64(i8* align 1 %28, i8* nonnull align 1 %3, i64 %7, i1 false) #10
  br label %29

29:                                               ; preds = %21, %27
  %30 = phi i8* [ %25, %21 ], [ %28, %27 ]
  %31 = getelementptr inbounds i8, i8* %30, i64 %7
  store i8 0, i8* %31, align 1
  br label %32

32:                                               ; preds = %29, %5
  ret void
}

; Function Attrs: argmemonly nounwind
declare void @llvm.lifetime.start.p0i8(i64 immarg, i8* nocapture) #1

; Function Attrs: noinline norecurse nounwind readnone ssp uwtable
define internal fastcc i8* @_ZN5blink5mojomL44ControllerServiceWorkerPurposeToStringHelperENS0_30ControllerServiceWorkerPurposeE(i32) unnamed_addr #2 {
  %2 = icmp eq i32 %0, 0
  %3 = select i1 %2, i8* getelementptr inbounds ([19 x i8], [19 x i8]* @.str.1, i64 0, i64 0), i8* null
  ret i8* %3
}

declare void @_ZN4base12StringPrintfEPKcz(%"class.std::__1::basic_string"* sret, i8*, ...) local_unnamed_addr #3

; Function Attrs: argmemonly nounwind
declare void @llvm.lifetime.end.p0i8(i64 immarg, i8* nocapture) #1

; Function Attrs: nounwind ssp uwtable
define hidden dereferenceable(160) %"class.std::__1::basic_ostream"* @_ZN5blink5mojomlsERNSt3__113basic_ostreamIcNS1_11char_traitsIcEEEENS0_30ControllerServiceWorkerPurposeE(%"class.std::__1::basic_ostream"* dereferenceable(160), i32) local_unnamed_addr #0 {
  %3 = alloca %"class.std::__1::basic_string", align 8
  %4 = bitcast %"class.std::__1::basic_string"* %3 to i8*
  call void @llvm.lifetime.start.p0i8(i64 24, i8* nonnull %4) #10
  call void @_ZN5blink5mojom38ControllerServiceWorkerPurposeToStringENS0_30ControllerServiceWorkerPurposeE(%"class.std::__1::basic_string"* nonnull sret %3, i32 %1)
  %5 = bitcast %"class.std::__1::basic_string"* %3 to %"struct.std::__1::basic_string<char, std::__1::char_traits<char>, std::__1::allocator<char> >::__short"*
  %6 = getelementptr inbounds %"struct.std::__1::basic_string<char, std::__1::char_traits<char>, std::__1::allocator<char> >::__short", %"struct.std::__1::basic_string<char, std::__1::char_traits<char>, std::__1::allocator<char> >::__short"* %5, i64 0, i32 1, i32 0
  %7 = load i8, i8* %6, align 1
  %8 = icmp slt i8 %7, 0
  %9 = getelementptr inbounds %"class.std::__1::basic_string", %"class.std::__1::basic_string"* %3, i64 0, i32 0, i32 0, i32 0, i32 0, i32 0, i32 0
  %10 = load i8*, i8** %9, align 8
  %11 = getelementptr inbounds %"class.std::__1::basic_string", %"class.std::__1::basic_string"* %3, i64 0, i32 0, i32 0, i32 0, i32 0, i32 0, i32 1
  %12 = load i64, i64* %11, align 8
  %13 = zext i8 %7 to i64
  %14 = select i1 %8, i8* %10, i8* %4
  %15 = select i1 %8, i64 %12, i64 %13
  %16 = call dereferenceable(160) %"class.std::__1::basic_ostream"* @_ZNSt3__124__put_character_sequenceIcNS_11char_traitsIcEEEERNS_13basic_ostreamIT_T0_EES7_PKS4_m(%"class.std::__1::basic_ostream"* dereferenceable(160) %0, i8* %14, i64 %15) #10
  %17 = load i8, i8* %6, align 1
  %18 = icmp slt i8 %17, 0
  br i1 %18, label %19, label %21

19:                                               ; preds = %2
  %20 = load i8*, i8** %9, align 8
  call void @_ZdlPv(i8* %20) #12
  br label %21

21:                                               ; preds = %2, %19
  call void @llvm.lifetime.end.p0i8(i64 24, i8* nonnull %4) #10
  ret %"class.std::__1::basic_ostream"* %16
}

; Function Attrs: nounwind ssp uwtable
define hidden zeroext i1 @_ZN5blink5mojom8internal40ServiceWorkerContainerInfoForClient_Data8ValidateEPKvPN4mojo8internal17ValidationContextE(i8*, %"class.mojo::internal::ValidationContext"*) local_unnamed_addr #0 align 2 {
  %3 = icmp eq i8* %0, null
  br i1 %3, label %18, label %4

4:                                                ; preds = %2
  %5 = tail call zeroext i1 @_ZN4mojo8internal52ValidateUnversionedStructHeaderAndSizeAndClaimMemoryEPKvmPNS0_17ValidationContextE(i8* nonnull %0, i64 24, %"class.mojo::internal::ValidationContext"* %1) #10
  br i1 %5, label %6, label %18

6:                                                ; preds = %4
  %7 = getelementptr inbounds i8, i8* %0, i64 8
  %8 = bitcast i8* %7 to %"struct.mojo::internal::AssociatedInterface_Data"*
  %9 = tail call zeroext i1 @_ZN4mojo8internal36ValidateHandleOrInterfaceNonNullableERKNS0_24AssociatedInterface_DataEiPNS0_17ValidationContextE(%"struct.mojo::internal::AssociatedInterface_Data"* dereferenceable(8) %8, i32 1, %"class.mojo::internal::ValidationContext"* %1) #10
  br i1 %9, label %10, label %18

10:                                               ; preds = %6
  %11 = tail call zeroext i1 @_ZN4mojo8internal25ValidateHandleOrInterfaceERKNS0_24AssociatedInterface_DataEPNS0_17ValidationContextE(%"struct.mojo::internal::AssociatedInterface_Data"* dereferenceable(8) %8, %"class.mojo::internal::ValidationContext"* %1) #10
  br i1 %11, label %12, label %18

12:                                               ; preds = %10
  %13 = getelementptr inbounds i8, i8* %0, i64 16
  %14 = bitcast i8* %13 to %"struct.mojo::internal::AssociatedEndpointHandle_Data"*
  %15 = tail call zeroext i1 @_ZN4mojo8internal36ValidateHandleOrInterfaceNonNullableERKNS0_29AssociatedEndpointHandle_DataEiPNS0_17ValidationContextE(%"struct.mojo::internal::AssociatedEndpointHandle_Data"* dereferenceable(4) %14, i32 2, %"class.mojo::internal::ValidationContext"* %1) #10
  br i1 %15, label %16, label %18

16:                                               ; preds = %12
  %17 = tail call zeroext i1 @_ZN4mojo8internal25ValidateHandleOrInterfaceERKNS0_29AssociatedEndpointHandle_DataEPNS0_17ValidationContextE(%"struct.mojo::internal::AssociatedEndpointHandle_Data"* dereferenceable(4) %14, %"class.mojo::internal::ValidationContext"* %1) #10
  br label %18

18:                                               ; preds = %6, %10, %12, %16, %4, %2
  %19 = phi i1 [ true, %2 ], [ false, %4 ], [ false, %6 ], [ false, %10 ], [ false, %12 ], [ %17, %16 ]
  ret i1 %19
}

declare zeroext i1 @_ZN4mojo8internal52ValidateUnversionedStructHeaderAndSizeAndClaimMemoryEPKvmPNS0_17ValidationContextE(i8*, i64, %"class.mojo::internal::ValidationContext"*) local_unnamed_addr #3

declare zeroext i1 @_ZN4mojo8internal36ValidateHandleOrInterfaceNonNullableERKNS0_24AssociatedInterface_DataEiPNS0_17ValidationContextE(%"struct.mojo::internal::AssociatedInterface_Data"* dereferenceable(8), i32, %"class.mojo::internal::ValidationContext"*) local_unnamed_addr #3

declare zeroext i1 @_ZN4mojo8internal25ValidateHandleOrInterfaceERKNS0_24AssociatedInterface_DataEPNS0_17ValidationContextE(%"struct.mojo::internal::AssociatedInterface_Data"* dereferenceable(8), %"class.mojo::internal::ValidationContext"*) local_unnamed_addr #3

declare zeroext i1 @_ZN4mojo8internal36ValidateHandleOrInterfaceNonNullableERKNS0_29AssociatedEndpointHandle_DataEiPNS0_17ValidationContextE(%"struct.mojo::internal::AssociatedEndpointHandle_Data"* dereferenceable(4), i32, %"class.mojo::internal::ValidationContext"*) local_unnamed_addr #3

declare zeroext i1 @_ZN4mojo8internal25ValidateHandleOrInterfaceERKNS0_29AssociatedEndpointHandle_DataEPNS0_17ValidationContextE(%"struct.mojo::internal::AssociatedEndpointHandle_Data"* dereferenceable(4), %"class.mojo::internal::ValidationContext"*) local_unnamed_addr #3

; Function Attrs: nofree norecurse nounwind ssp uwtable writeonly
define hidden void @_ZN5blink5mojom8internal40ServiceWorkerContainerInfoForClient_DataC2Ev(%"class.blink::mojom::internal::ServiceWorkerContainerInfoForClient_Data"* nocapture) unnamed_addr #4 align 2 {
  %2 = getelementptr inbounds %"class.blink::mojom::internal::ServiceWorkerContainerInfoForClient_Data", %"class.blink::mojom::internal::ServiceWorkerContainerInfoForClient_Data"* %0, i64 0, i32 0, i32 0
  store i32 24, i32* %2, align 1
  %3 = getelementptr inbounds %"class.blink::mojom::internal::ServiceWorkerContainerInfoForClient_Data", %"class.blink::mojom::internal::ServiceWorkerContainerInfoForClient_Data"* %0, i64 0, i32 0, i32 1
  store i32 0, i32* %3, align 1
  ret void
}

; Function Attrs: nounwind ssp uwtable
define hidden zeroext i1 @_ZN5blink5mojom8internal47ServiceWorkerContainerHost_Register_Params_Data8ValidateEPKvPN4mojo8internal17ValidationContextE(i8*, %"class.mojo::internal::ValidationContext"*) local_unnamed_addr #0 align 2 {
  %3 = icmp eq i8* %0, null
  br i1 %3, label %90, label %4

4:                                                ; preds = %2
  %5 = tail call zeroext i1 @_ZN4mojo8internal52ValidateUnversionedStructHeaderAndSizeAndClaimMemoryEPKvmPNS0_17ValidationContextE(i8* nonnull %0, i64 32, %"class.mojo::internal::ValidationContext"* %1) #10
  br i1 %5, label %6, label %90

6:                                                ; preds = %4
  %7 = getelementptr inbounds i8, i8* %0, i64 8
  %8 = bitcast i8* %7 to i64*
  %9 = load i64, i64* %8, align 1
  %10 = icmp eq i64 %9, 0
  br i1 %10, label %11, label %12

11:                                               ; preds = %6
  tail call void @_ZN4mojo8internal32ReportNonNullableValidationErrorEPNS0_17ValidationContextENS0_15ValidationErrorEi(%"class.mojo::internal::ValidationContext"* %1, i32 8, i32 1) #10
  br label %90

12:                                               ; preds = %6
  %13 = getelementptr inbounds %"class.mojo::internal::ValidationContext", %"class.mojo::internal::ValidationContext"* %1, i64 0, i32 10
  %14 = load i32, i32* %13, align 8
  %15 = add nsw i32 %14, 1
  store i32 %15, i32* %13, align 8
  %16 = icmp sgt i32 %14, 199
  br i1 %16, label %25, label %17

17:                                               ; preds = %12
  %18 = load i64, i64* %8, align 8
  %19 = icmp ugt i64 %18, 4294967295
  br i1 %19, label %25, label %20

20:                                               ; preds = %17
  %21 = ptrtoint i8* %7 to i64
  %22 = and i64 %18, 4294967295
  %23 = xor i64 %21, -1
  %24 = icmp ugt i64 %22, %23
  br i1 %24, label %25, label %29

25:                                               ; preds = %17, %20, %12
  %26 = phi i32 [ 18, %12 ], [ 7, %20 ], [ 7, %17 ]
  tail call void @_ZN4mojo8internal21ReportValidationErrorEPNS0_17ValidationContextENS0_15ValidationErrorEPKc(%"class.mojo::internal::ValidationContext"* %1, i32 %26, i8* null) #10
  %27 = load i32, i32* %13, align 8
  %28 = add nsw i32 %27, -1
  store i32 %28, i32* %13, align 8
  br label %90

29:                                               ; preds = %20
  %30 = icmp eq i64 %18, 0
  %31 = getelementptr inbounds i8, i8* %7, i64 %18
  %32 = select i1 %30, i8* null, i8* %31
  %33 = tail call zeroext i1 @_ZN3url5mojom8internal8Url_Data8ValidateEPKvPN4mojo8internal17ValidationContextE(i8* %32, %"class.mojo::internal::ValidationContext"* %1) #10
  %34 = load i32, i32* %13, align 8
  %35 = add nsw i32 %34, -1
  store i32 %35, i32* %13, align 8
  br i1 %33, label %36, label %90

36:                                               ; preds = %29
  %37 = getelementptr inbounds i8, i8* %0, i64 16
  %38 = bitcast i8* %37 to i64*
  %39 = load i64, i64* %38, align 1
  %40 = icmp eq i64 %39, 0
  br i1 %40, label %41, label %42

41:                                               ; preds = %36
  tail call void @_ZN4mojo8internal32ReportNonNullableValidationErrorEPNS0_17ValidationContextENS0_15ValidationErrorEi(%"class.mojo::internal::ValidationContext"* %1, i32 8, i32 2) #10
  br label %90

42:                                               ; preds = %36
  store i32 %34, i32* %13, align 8
  %43 = icmp sgt i32 %35, 199
  br i1 %43, label %52, label %44

44:                                               ; preds = %42
  %45 = load i64, i64* %38, align 8
  %46 = icmp ugt i64 %45, 4294967295
  br i1 %46, label %52, label %47

47:                                               ; preds = %44
  %48 = ptrtoint i8* %37 to i64
  %49 = and i64 %45, 4294967295
  %50 = xor i64 %48, -1
  %51 = icmp ugt i64 %49, %50
  br i1 %51, label %52, label %56

52:                                               ; preds = %44, %47, %42
  %53 = phi i32 [ 18, %42 ], [ 7, %47 ], [ 7, %44 ]
  tail call void @_ZN4mojo8internal21ReportValidationErrorEPNS0_17ValidationContextENS0_15ValidationErrorEPKc(%"class.mojo::internal::ValidationContext"* %1, i32 %53, i8* null) #10
  %54 = load i32, i32* %13, align 8
  %55 = add nsw i32 %54, -1
  store i32 %55, i32* %13, align 8
  br label %90

56:                                               ; preds = %47
  %57 = icmp eq i64 %45, 0
  %58 = getelementptr inbounds i8, i8* %37, i64 %45
  %59 = select i1 %57, i8* null, i8* %58
  %60 = tail call zeroext i1 @_ZN5blink5mojom8internal37ServiceWorkerRegistrationOptions_Data8ValidateEPKvPN4mojo8internal17ValidationContextE(i8* %59, %"class.mojo::internal::ValidationContext"* %1) #10
  %61 = load i32, i32* %13, align 8
  %62 = add nsw i32 %61, -1
  store i32 %62, i32* %13, align 8
  br i1 %60, label %63, label %90

63:                                               ; preds = %56
  %64 = getelementptr inbounds i8, i8* %0, i64 24
  %65 = bitcast i8* %64 to i64*
  %66 = load i64, i64* %65, align 1
  %67 = icmp eq i64 %66, 0
  br i1 %67, label %68, label %69

68:                                               ; preds = %63
  tail call void @_ZN4mojo8internal32ReportNonNullableValidationErrorEPNS0_17ValidationContextENS0_15ValidationErrorEi(%"class.mojo::internal::ValidationContext"* %1, i32 8, i32 3) #10
  br label %90

69:                                               ; preds = %63
  store i32 %61, i32* %13, align 8
  %70 = icmp sgt i32 %62, 199
  br i1 %70, label %79, label %71

71:                                               ; preds = %69
  %72 = load i64, i64* %65, align 8
  %73 = icmp ugt i64 %72, 4294967295
  br i1 %73, label %79, label %74

74:                                               ; preds = %71
  %75 = ptrtoint i8* %64 to i64
  %76 = and i64 %72, 4294967295
  %77 = xor i64 %75, -1
  %78 = icmp ugt i64 %76, %77
  br i1 %78, label %79, label %83

79:                                               ; preds = %71, %74, %69
  %80 = phi i32 [ 18, %69 ], [ 7, %74 ], [ 7, %71 ]
  tail call void @_ZN4mojo8internal21ReportValidationErrorEPNS0_17ValidationContextENS0_15ValidationErrorEPKc(%"class.mojo::internal::ValidationContext"* %1, i32 %80, i8* null) #10
  %81 = load i32, i32* %13, align 8
  %82 = add nsw i32 %81, -1
  store i32 %82, i32* %13, align 8
  br label %90

83:                                               ; preds = %74
  %84 = icmp eq i64 %72, 0
  %85 = getelementptr inbounds i8, i8* %64, i64 %72
  %86 = select i1 %84, i8* null, i8* %85
  %87 = tail call zeroext i1 @_ZN5blink5mojom8internal30FetchClientSettingsObject_Data8ValidateEPKvPN4mojo8internal17ValidationContextE(i8* %86, %"class.mojo::internal::ValidationContext"* %1) #10
  %88 = load i32, i32* %13, align 8
  %89 = add nsw i32 %88, -1
  store i32 %89, i32* %13, align 8
  ret i1 %87

90:                                               ; preds = %79, %68, %52, %41, %25, %11, %29, %56, %4, %2
  %91 = phi i1 [ true, %2 ], [ false, %4 ], [ false, %11 ], [ false, %29 ], [ false, %41 ], [ false, %56 ], [ false, %68 ], [ false, %25 ], [ false, %52 ], [ false, %79 ]
  ret i1 %91
}

; Function Attrs: nofree norecurse nounwind ssp uwtable writeonly
define hidden void @_ZN5blink5mojom8internal47ServiceWorkerContainerHost_Register_Params_DataC2Ev(%"class.blink::mojom::internal::ServiceWorkerContainerHost_Register_Params_Data"* nocapture) unnamed_addr #4 align 2 {
  %2 = getelementptr inbounds %"class.blink::mojom::internal::ServiceWorkerContainerHost_Register_Params_Data", %"class.blink::mojom::internal::ServiceWorkerContainerHost_Register_Params_Data"* %0, i64 0, i32 0, i32 0
  store i32 32, i32* %2, align 1
  %3 = getelementptr inbounds %"class.blink::mojom::internal::ServiceWorkerContainerHost_Register_Params_Data", %"class.blink::mojom::internal::ServiceWorkerContainerHost_Register_Params_Data"* %0, i64 0, i32 0, i32 1
  store i32 0, i32* %3, align 1
  ret void
}

; Function Attrs: nounwind ssp uwtable
define hidden zeroext i1 @_ZN5blink5mojom8internal55ServiceWorkerContainerHost_Register_ResponseParams_Data8ValidateEPKvPN4mojo8internal17ValidationContextE(i8*, %"class.mojo::internal::ValidationContext"*) local_unnamed_addr #0 align 2 {
  %3 = alloca %"class.mojo::internal::ContainerValidateParams", align 8
  %4 = icmp eq i8* %0, null
  br i1 %4, label %68, label %5

5:                                                ; preds = %2
  %6 = tail call zeroext i1 @_ZN4mojo8internal52ValidateUnversionedStructHeaderAndSizeAndClaimMemoryEPKvmPNS0_17ValidationContextE(i8* nonnull %0, i64 32, %"class.mojo::internal::ValidationContext"* %1) #10
  br i1 %6, label %7, label %68

7:                                                ; preds = %5
  %8 = getelementptr inbounds i8, i8* %0, i64 8
  %9 = bitcast i8* %8 to i32*
  %10 = load i32, i32* %9, align 4
  %11 = icmp ult i32 %10, 14
  br i1 %11, label %13, label %12

12:                                               ; preds = %7
  tail call void @_ZN4mojo8internal21ReportValidationErrorEPNS0_17ValidationContextENS0_15ValidationErrorEPKc(%"class.mojo::internal::ValidationContext"* %1, i32 16, i8* null) #10
  br label %68

13:                                               ; preds = %7
  %14 = bitcast %"class.mojo::internal::ContainerValidateParams"* %3 to i8*
  call void @llvm.lifetime.start.p0i8(i64 32, i8* nonnull %14) #10
  %15 = bitcast %"class.mojo::internal::ContainerValidateParams"* %3 to i64*
  store i64 -6148914691236517206, i64* %15, align 8
  %16 = getelementptr inbounds %"class.mojo::internal::ContainerValidateParams", %"class.mojo::internal::ContainerValidateParams"* %3, i64 0, i32 0
  store i32 0, i32* %16, align 8
  %17 = getelementptr inbounds %"class.mojo::internal::ContainerValidateParams", %"class.mojo::internal::ContainerValidateParams"* %3, i64 0, i32 1
  store i8 0, i8* %17, align 4
  %18 = getelementptr inbounds %"class.mojo::internal::ContainerValidateParams", %"class.mojo::internal::ContainerValidateParams"* %3, i64 0, i32 2
  %19 = getelementptr inbounds i8, i8* %0, i64 16
  %20 = getelementptr inbounds %"class.mojo::internal::ValidationContext", %"class.mojo::internal::ValidationContext"* %1, i64 0, i32 10
  %21 = bitcast %"class.mojo::internal::ContainerValidateParams"** %18 to i8*
  call void @llvm.memset.p0i8.i64(i8* align 8 %21, i8 0, i64 24, i1 false)
  %22 = load i32, i32* %20, align 8
  %23 = add nsw i32 %22, 1
  store i32 %23, i32* %20, align 8
  %24 = icmp sgt i32 %22, 199
  br i1 %24, label %34, label %25

25:                                               ; preds = %13
  %26 = bitcast i8* %19 to i64*
  %27 = load i64, i64* %26, align 8
  %28 = icmp ugt i64 %27, 4294967295
  br i1 %28, label %34, label %29

29:                                               ; preds = %25
  %30 = ptrtoint i8* %19 to i64
  %31 = and i64 %27, 4294967295
  %32 = xor i64 %30, -1
  %33 = icmp ugt i64 %31, %32
  br i1 %33, label %34, label %36

34:                                               ; preds = %25, %29, %13
  %35 = phi i32 [ 18, %13 ], [ 7, %29 ], [ 7, %25 ]
  tail call void @_ZN4mojo8internal21ReportValidationErrorEPNS0_17ValidationContextENS0_15ValidationErrorEPKc(%"class.mojo::internal::ValidationContext"* %1, i32 %35, i8* null) #10
  br label %62

36:                                               ; preds = %29
  %37 = icmp eq i64 %27, 0
  %38 = getelementptr inbounds i8, i8* %19, i64 %27
  %39 = select i1 %37, i8* null, i8* %38
  %40 = call zeroext i1 @_ZN4mojo8internal10Array_DataIcE8ValidateEPKvPNS0_17ValidationContextEPKNS0_23ContainerValidateParamsE(i8* %39, %"class.mojo::internal::ValidationContext"* %1, %"class.mojo::internal::ContainerValidateParams"* nonnull %3) #10
  %41 = load i32, i32* %20, align 8
  %42 = add nsw i32 %41, -1
  store i32 %42, i32* %20, align 8
  br i1 %40, label %43, label %66

43:                                               ; preds = %36
  %44 = getelementptr inbounds i8, i8* %0, i64 24
  store i32 %41, i32* %20, align 8
  %45 = icmp sgt i32 %42, 199
  br i1 %45, label %55, label %46

46:                                               ; preds = %43
  %47 = bitcast i8* %44 to i64*
  %48 = load i64, i64* %47, align 8
  %49 = icmp ugt i64 %48, 4294967295
  br i1 %49, label %55, label %50

50:                                               ; preds = %46
  %51 = ptrtoint i8* %44 to i64
  %52 = and i64 %48, 4294967295
  %53 = xor i64 %51, -1
  %54 = icmp ugt i64 %52, %53
  br i1 %54, label %55, label %57

55:                                               ; preds = %46, %50, %43
  %56 = phi i32 [ 18, %43 ], [ 7, %50 ], [ 7, %46 ]
  call void @_ZN4mojo8internal21ReportValidationErrorEPNS0_17ValidationContextENS0_15ValidationErrorEPKc(%"class.mojo::internal::ValidationContext"* %1, i32 %56, i8* null) #10
  br label %62

57:                                               ; preds = %50
  %58 = icmp eq i64 %48, 0
  %59 = getelementptr inbounds i8, i8* %44, i64 %48
  %60 = select i1 %58, i8* null, i8* %59
  %61 = call zeroext i1 @_ZN5blink5mojom8internal40ServiceWorkerRegistrationObjectInfo_Data8ValidateEPKvPN4mojo8internal17ValidationContextE(i8* %60, %"class.mojo::internal::ValidationContext"* %1) #10
  br label %62

62:                                               ; preds = %34, %55, %57
  %63 = phi i1 [ %61, %57 ], [ false, %55 ], [ false, %34 ]
  %64 = load i32, i32* %20, align 8
  %65 = add nsw i32 %64, -1
  store i32 %65, i32* %20, align 8
  br label %66

66:                                               ; preds = %62, %36
  %67 = phi i1 [ false, %36 ], [ %63, %62 ]
  call void @_ZN4mojo8internal23ContainerValidateParamsD2Ev(%"class.mojo::internal::ContainerValidateParams"* nonnull %3) #10
  call void @llvm.lifetime.end.p0i8(i64 32, i8* nonnull %14) #10
  br label %68

68:                                               ; preds = %12, %66, %5, %2
  %69 = phi i1 [ true, %2 ], [ false, %5 ], [ %67, %66 ], [ false, %12 ]
  ret i1 %69
}

; Function Attrs: argmemonly nounwind
declare void @llvm.memcpy.p0i8.p0i8.i64(i8* nocapture writeonly, i8* nocapture readonly, i64, i1 immarg) #1

; Function Attrs: nounwind ssp uwtable
define linkonce_odr hidden void @_ZN4mojo8internal23ContainerValidateParamsD2Ev(%"class.mojo::internal::ContainerValidateParams"*) unnamed_addr #0 comdat align 2 {
  %2 = getelementptr inbounds %"class.mojo::internal::ContainerValidateParams", %"class.mojo::internal::ContainerValidateParams"* %0, i64 0, i32 3
  %3 = load %"class.mojo::internal::ContainerValidateParams"*, %"class.mojo::internal::ContainerValidateParams"** %2, align 8
  %4 = icmp eq %"class.mojo::internal::ContainerValidateParams"* %3, null
  br i1 %4, label %7, label %5

5:                                                ; preds = %1
  tail call void @_ZN4mojo8internal23ContainerValidateParamsD2Ev(%"class.mojo::internal::ContainerValidateParams"* nonnull %3) #10
  %6 = bitcast %"class.mojo::internal::ContainerValidateParams"* %3 to i8*
  tail call void @_ZdlPv(i8* %6) #12
  br label %7

7:                                                ; preds = %1, %5
  %8 = getelementptr inbounds %"class.mojo::internal::ContainerValidateParams", %"class.mojo::internal::ContainerValidateParams"* %0, i64 0, i32 2
  %9 = load %"class.mojo::internal::ContainerValidateParams"*, %"class.mojo::internal::ContainerValidateParams"** %8, align 8
  %10 = icmp eq %"class.mojo::internal::ContainerValidateParams"* %9, null
  br i1 %10, label %13, label %11

11:                                               ; preds = %7
  tail call void @_ZN4mojo8internal23ContainerValidateParamsD2Ev(%"class.mojo::internal::ContainerValidateParams"* nonnull %9) #10
  %12 = bitcast %"class.mojo::internal::ContainerValidateParams"* %9 to i8*
  tail call void @_ZdlPv(i8* %12) #12
  ret void

13:                                               ; preds = %7
  ret void
}

; Function Attrs: nofree norecurse nounwind ssp uwtable writeonly
define hidden void @_ZN5blink5mojom8internal55ServiceWorkerContainerHost_Register_ResponseParams_DataC2Ev(%"class.blink::mojom::internal::ServiceWorkerContainerHost_Register_ResponseParams_Data"* nocapture) unnamed_addr #4 align 2 {
  %2 = getelementptr inbounds %"class.blink::mojom::internal::ServiceWorkerContainerHost_Register_ResponseParams_Data", %"class.blink::mojom::internal::ServiceWorkerContainerHost_Register_ResponseParams_Data"* %0, i64 0, i32 0, i32 0
  store i32 32, i32* %2, align 4
  %3 = getelementptr inbounds %"class.blink::mojom::internal::ServiceWorkerContainerHost_Register_ResponseParams_Data", %"class.blink::mojom::internal::ServiceWorkerContainerHost_Register_ResponseParams_Data"* %0, i64 0, i32 0, i32 1
  store i32 0, i32* %3, align 4
  ret void
}

; Function Attrs: nounwind ssp uwtable
define hidden zeroext i1 @_ZN5blink5mojom8internal54ServiceWorkerContainerHost_GetRegistration_Params_Data8ValidateEPKvPN4mojo8internal17ValidationContextE(i8*, %"class.mojo::internal::ValidationContext"*) local_unnamed_addr #0 align 2 {
  %3 = icmp eq i8* %0, null
  br i1 %3, label %36, label %4

4:                                                ; preds = %2
  %5 = tail call zeroext i1 @_ZN4mojo8internal52ValidateUnversionedStructHeaderAndSizeAndClaimMemoryEPKvmPNS0_17ValidationContextE(i8* nonnull %0, i64 16, %"class.mojo::internal::ValidationContext"* %1) #10
  br i1 %5, label %6, label %36

6:                                                ; preds = %4
  %7 = getelementptr inbounds i8, i8* %0, i64 8
  %8 = bitcast i8* %7 to i64*
  %9 = load i64, i64* %8, align 1
  %10 = icmp eq i64 %9, 0
  br i1 %10, label %11, label %12

11:                                               ; preds = %6
  tail call void @_ZN4mojo8internal32ReportNonNullableValidationErrorEPNS0_17ValidationContextENS0_15ValidationErrorEi(%"class.mojo::internal::ValidationContext"* %1, i32 8, i32 1) #10
  br label %36

12:                                               ; preds = %6
  %13 = getelementptr inbounds %"class.mojo::internal::ValidationContext", %"class.mojo::internal::ValidationContext"* %1, i64 0, i32 10
  %14 = load i32, i32* %13, align 8
  %15 = add nsw i32 %14, 1
  store i32 %15, i32* %13, align 8
  %16 = icmp sgt i32 %14, 199
  br i1 %16, label %25, label %17

17:                                               ; preds = %12
  %18 = load i64, i64* %8, align 8
  %19 = icmp ugt i64 %18, 4294967295
  br i1 %19, label %25, label %20

20:                                               ; preds = %17
  %21 = ptrtoint i8* %7 to i64
  %22 = and i64 %18, 4294967295
  %23 = xor i64 %21, -1
  %24 = icmp ugt i64 %22, %23
  br i1 %24, label %25, label %29

25:                                               ; preds = %17, %20, %12
  %26 = phi i32 [ 18, %12 ], [ 7, %20 ], [ 7, %17 ]
  tail call void @_ZN4mojo8internal21ReportValidationErrorEPNS0_17ValidationContextENS0_15ValidationErrorEPKc(%"class.mojo::internal::ValidationContext"* %1, i32 %26, i8* null) #10
  %27 = load i32, i32* %13, align 8
  %28 = add nsw i32 %27, -1
  store i32 %28, i32* %13, align 8
  br label %36

29:                                               ; preds = %20
  %30 = icmp eq i64 %18, 0
  %31 = getelementptr inbounds i8, i8* %7, i64 %18
  %32 = select i1 %30, i8* null, i8* %31
  %33 = tail call zeroext i1 @_ZN3url5mojom8internal8Url_Data8ValidateEPKvPN4mojo8internal17ValidationContextE(i8* %32, %"class.mojo::internal::ValidationContext"* %1) #10
  %34 = load i32, i32* %13, align 8
  %35 = add nsw i32 %34, -1
  store i32 %35, i32* %13, align 8
  ret i1 %33

36:                                               ; preds = %25, %11, %4, %2
  %37 = phi i1 [ true, %2 ], [ false, %4 ], [ false, %11 ], [ false, %25 ]
  ret i1 %37
}

; Function Attrs: nofree norecurse nounwind ssp uwtable writeonly
define hidden void @_ZN5blink5mojom8internal54ServiceWorkerContainerHost_GetRegistration_Params_DataC2Ev(%"class.blink::mojom::internal::ServiceWorkerContainerHost_GetRegistration_Params_Data"* nocapture) unnamed_addr #4 align 2 {
  %2 = getelementptr inbounds %"class.blink::mojom::internal::ServiceWorkerContainerHost_GetRegistration_Params_Data", %"class.blink::mojom::internal::ServiceWorkerContainerHost_GetRegistration_Params_Data"* %0, i64 0, i32 0, i32 0
  store i32 16, i32* %2, align 1
  %3 = getelementptr inbounds %"class.blink::mojom::internal::ServiceWorkerContainerHost_GetRegistration_Params_Data", %"class.blink::mojom::internal::ServiceWorkerContainerHost_GetRegistration_Params_Data"* %0, i64 0, i32 0, i32 1
  store i32 0, i32* %3, align 1
  ret void
}

; Function Attrs: nounwind ssp uwtable
define hidden zeroext i1 @_ZN5blink5mojom8internal62ServiceWorkerContainerHost_GetRegistration_ResponseParams_Data8ValidateEPKvPN4mojo8internal17ValidationContextE(i8*, %"class.mojo::internal::ValidationContext"*) local_unnamed_addr #0 align 2 {
  %3 = alloca %"class.mojo::internal::ContainerValidateParams", align 8
  %4 = icmp eq i8* %0, null
  br i1 %4, label %68, label %5

5:                                                ; preds = %2
  %6 = tail call zeroext i1 @_ZN4mojo8internal52ValidateUnversionedStructHeaderAndSizeAndClaimMemoryEPKvmPNS0_17ValidationContextE(i8* nonnull %0, i64 32, %"class.mojo::internal::ValidationContext"* %1) #10
  br i1 %6, label %7, label %68

7:                                                ; preds = %5
  %8 = getelementptr inbounds i8, i8* %0, i64 8
  %9 = bitcast i8* %8 to i32*
  %10 = load i32, i32* %9, align 4
  %11 = icmp ult i32 %10, 14
  br i1 %11, label %13, label %12

12:                                               ; preds = %7
  tail call void @_ZN4mojo8internal21ReportValidationErrorEPNS0_17ValidationContextENS0_15ValidationErrorEPKc(%"class.mojo::internal::ValidationContext"* %1, i32 16, i8* null) #10
  br label %68

13:                                               ; preds = %7
  %14 = bitcast %"class.mojo::internal::ContainerValidateParams"* %3 to i8*
  call void @llvm.lifetime.start.p0i8(i64 32, i8* nonnull %14) #10
  %15 = bitcast %"class.mojo::internal::ContainerValidateParams"* %3 to i64*
  store i64 -6148914691236517206, i64* %15, align 8
  %16 = getelementptr inbounds %"class.mojo::internal::ContainerValidateParams", %"class.mojo::internal::ContainerValidateParams"* %3, i64 0, i32 0
  store i32 0, i32* %16, align 8
  %17 = getelementptr inbounds %"class.mojo::internal::ContainerValidateParams", %"class.mojo::internal::ContainerValidateParams"* %3, i64 0, i32 1
  store i8 0, i8* %17, align 4
  %18 = getelementptr inbounds %"class.mojo::internal::ContainerValidateParams", %"class.mojo::internal::ContainerValidateParams"* %3, i64 0, i32 2
  %19 = getelementptr inbounds i8, i8* %0, i64 16
  %20 = getelementptr inbounds %"class.mojo::internal::ValidationContext", %"class.mojo::internal::ValidationContext"* %1, i64 0, i32 10
  %21 = bitcast %"class.mojo::internal::ContainerValidateParams"** %18 to i8*
  call void @llvm.memset.p0i8.i64(i8* align 8 %21, i8 0, i64 24, i1 false)
  %22 = load i32, i32* %20, align 8
  %23 = add nsw i32 %22, 1
  store i32 %23, i32* %20, align 8
  %24 = icmp sgt i32 %22, 199
  br i1 %24, label %34, label %25

25:                                               ; preds = %13
  %26 = bitcast i8* %19 to i64*
  %27 = load i64, i64* %26, align 8
  %28 = icmp ugt i64 %27, 4294967295
  br i1 %28, label %34, label %29

29:                                               ; preds = %25
  %30 = ptrtoint i8* %19 to i64
  %31 = and i64 %27, 4294967295
  %32 = xor i64 %30, -1
  %33 = icmp ugt i64 %31, %32
  br i1 %33, label %34, label %36

34:                                               ; preds = %25, %29, %13
  %35 = phi i32 [ 18, %13 ], [ 7, %29 ], [ 7, %25 ]
  tail call void @_ZN4mojo8internal21ReportValidationErrorEPNS0_17ValidationContextENS0_15ValidationErrorEPKc(%"class.mojo::internal::ValidationContext"* %1, i32 %35, i8* null) #10
  br label %62

36:                                               ; preds = %29
  %37 = icmp eq i64 %27, 0
  %38 = getelementptr inbounds i8, i8* %19, i64 %27
  %39 = select i1 %37, i8* null, i8* %38
  %40 = call zeroext i1 @_ZN4mojo8internal10Array_DataIcE8ValidateEPKvPNS0_17ValidationContextEPKNS0_23ContainerValidateParamsE(i8* %39, %"class.mojo::internal::ValidationContext"* %1, %"class.mojo::internal::ContainerValidateParams"* nonnull %3) #10
  %41 = load i32, i32* %20, align 8
  %42 = add nsw i32 %41, -1
  store i32 %42, i32* %20, align 8
  br i1 %40, label %43, label %66

43:                                               ; preds = %36
  %44 = getelementptr inbounds i8, i8* %0, i64 24
  store i32 %41, i32* %20, align 8
  %45 = icmp sgt i32 %42, 199
  br i1 %45, label %55, label %46

46:                                               ; preds = %43
  %47 = bitcast i8* %44 to i64*
  %48 = load i64, i64* %47, align 8
  %49 = icmp ugt i64 %48, 4294967295
  br i1 %49, label %55, label %50

50:                                               ; preds = %46
  %51 = ptrtoint i8* %44 to i64
  %52 = and i64 %48, 4294967295
  %53 = xor i64 %51, -1
  %54 = icmp ugt i64 %52, %53
  br i1 %54, label %55, label %57

55:                                               ; preds = %46, %50, %43
  %56 = phi i32 [ 18, %43 ], [ 7, %50 ], [ 7, %46 ]
  call void @_ZN4mojo8internal21ReportValidationErrorEPNS0_17ValidationContextENS0_15ValidationErrorEPKc(%"class.mojo::internal::ValidationContext"* %1, i32 %56, i8* null) #10
  br label %62

57:                                               ; preds = %50
  %58 = icmp eq i64 %48, 0
  %59 = getelementptr inbounds i8, i8* %44, i64 %48
  %60 = select i1 %58, i8* null, i8* %59
  %61 = call zeroext i1 @_ZN5blink5mojom8internal40ServiceWorkerRegistrationObjectInfo_Data8ValidateEPKvPN4mojo8internal17ValidationContextE(i8* %60, %"class.mojo::internal::ValidationContext"* %1) #10
  br label %62

62:                                               ; preds = %34, %55, %57
  %63 = phi i1 [ %61, %57 ], [ false, %55 ], [ false, %34 ]
  %64 = load i32, i32* %20, align 8
  %65 = add nsw i32 %64, -1
  store i32 %65, i32* %20, align 8
  br label %66

66:                                               ; preds = %62, %36
  %67 = phi i1 [ false, %36 ], [ %63, %62 ]
  call void @_ZN4mojo8internal23ContainerValidateParamsD2Ev(%"class.mojo::internal::ContainerValidateParams"* nonnull %3) #10
  call void @llvm.lifetime.end.p0i8(i64 32, i8* nonnull %14) #10
  br label %68

68:                                               ; preds = %12, %66, %5, %2
  %69 = phi i1 [ true, %2 ], [ false, %5 ], [ %67, %66 ], [ false, %12 ]
  ret i1 %69
}

; Function Attrs: nofree norecurse nounwind ssp uwtable writeonly
define hidden void @_ZN5blink5mojom8internal62ServiceWorkerContainerHost_GetRegistration_ResponseParams_DataC2Ev(%"class.blink::mojom::internal::ServiceWorkerContainerHost_GetRegistration_ResponseParams_Data"* nocapture) unnamed_addr #4 align 2 {
  %2 = getelementptr inbounds %"class.blink::mojom::internal::ServiceWorkerContainerHost_GetRegistration_ResponseParams_Data", %"class.blink::mojom::internal::ServiceWorkerContainerHost_GetRegistration_ResponseParams_Data"* %0, i64 0, i32 0, i32 0
  store i32 32, i32* %2, align 4
  %3 = getelementptr inbounds %"class.blink::mojom::internal::ServiceWorkerContainerHost_GetRegistration_ResponseParams_Data", %"class.blink::mojom::internal::ServiceWorkerContainerHost_GetRegistration_ResponseParams_Data"* %0, i64 0, i32 0, i32 1
  store i32 0, i32* %3, align 4
  ret void
}

; Function Attrs: nounwind ssp uwtable
define hidden zeroext i1 @_ZN5blink5mojom8internal55ServiceWorkerContainerHost_GetRegistrations_Params_Data8ValidateEPKvPN4mojo8internal17ValidationContextE(i8*, %"class.mojo::internal::ValidationContext"*) local_unnamed_addr #0 align 2 {
  %3 = icmp eq i8* %0, null
  br i1 %3, label %6, label %4

4:                                                ; preds = %2
  %5 = tail call zeroext i1 @_ZN4mojo8internal52ValidateUnversionedStructHeaderAndSizeAndClaimMemoryEPKvmPNS0_17ValidationContextE(i8* nonnull %0, i64 8, %"class.mojo::internal::ValidationContext"* %1) #10
  br label %6

6:                                                ; preds = %4, %2
  %7 = phi i1 [ true, %2 ], [ %5, %4 ]
  ret i1 %7
}

; Function Attrs: nofree norecurse nounwind ssp uwtable writeonly
define hidden void @_ZN5blink5mojom8internal55ServiceWorkerContainerHost_GetRegistrations_Params_DataC2Ev(%"class.blink::mojom::internal::ServiceWorkerContainerHost_GetRegistrations_Params_Data"* nocapture) unnamed_addr #4 align 2 {
  %2 = getelementptr inbounds %"class.blink::mojom::internal::ServiceWorkerContainerHost_GetRegistrations_Params_Data", %"class.blink::mojom::internal::ServiceWorkerContainerHost_GetRegistrations_Params_Data"* %0, i64 0, i32 0, i32 0
  store i32 8, i32* %2, align 1
  %3 = getelementptr inbounds %"class.blink::mojom::internal::ServiceWorkerContainerHost_GetRegistrations_Params_Data", %"class.blink::mojom::internal::ServiceWorkerContainerHost_GetRegistrations_Params_Data"* %0, i64 0, i32 0, i32 1
  store i32 0, i32* %3, align 1
  ret void
}

; Function Attrs: nounwind ssp uwtable
define hidden zeroext i1 @_ZN5blink5mojom8internal63ServiceWorkerContainerHost_GetRegistrations_ResponseParams_Data8ValidateEPKvPN4mojo8internal17ValidationContextE(i8*, %"class.mojo::internal::ValidationContext"*) local_unnamed_addr #0 align 2 {
  %3 = alloca %"class.mojo::internal::ContainerValidateParams", align 8
  %4 = alloca %"class.mojo::internal::ContainerValidateParams", align 8
  %5 = icmp eq i8* %0, null
  br i1 %5, label %77, label %6

6:                                                ; preds = %2
  %7 = tail call zeroext i1 @_ZN4mojo8internal52ValidateUnversionedStructHeaderAndSizeAndClaimMemoryEPKvmPNS0_17ValidationContextE(i8* nonnull %0, i64 32, %"class.mojo::internal::ValidationContext"* %1) #10
  br i1 %7, label %8, label %77

8:                                                ; preds = %6
  %9 = getelementptr inbounds i8, i8* %0, i64 8
  %10 = bitcast i8* %9 to i32*
  %11 = load i32, i32* %10, align 4
  %12 = icmp ult i32 %11, 14
  br i1 %12, label %14, label %13

13:                                               ; preds = %8
  tail call void @_ZN4mojo8internal21ReportValidationErrorEPNS0_17ValidationContextENS0_15ValidationErrorEPKc(%"class.mojo::internal::ValidationContext"* %1, i32 16, i8* null) #10
  br label %77

14:                                               ; preds = %8
  %15 = bitcast %"class.mojo::internal::ContainerValidateParams"* %3 to i8*
  call void @llvm.lifetime.start.p0i8(i64 32, i8* nonnull %15) #10
  %16 = bitcast %"class.mojo::internal::ContainerValidateParams"* %3 to i64*
  store i64 -6148914691236517206, i64* %16, align 8
  %17 = getelementptr inbounds %"class.mojo::internal::ContainerValidateParams", %"class.mojo::internal::ContainerValidateParams"* %3, i64 0, i32 0
  store i32 0, i32* %17, align 8
  %18 = getelementptr inbounds %"class.mojo::internal::ContainerValidateParams", %"class.mojo::internal::ContainerValidateParams"* %3, i64 0, i32 1
  store i8 0, i8* %18, align 4
  %19 = getelementptr inbounds %"class.mojo::internal::ContainerValidateParams", %"class.mojo::internal::ContainerValidateParams"* %3, i64 0, i32 2
  %20 = getelementptr inbounds i8, i8* %0, i64 16
  %21 = getelementptr inbounds %"class.mojo::internal::ValidationContext", %"class.mojo::internal::ValidationContext"* %1, i64 0, i32 10
  %22 = bitcast %"class.mojo::internal::ContainerValidateParams"** %19 to i8*
  call void @llvm.memset.p0i8.i64(i8* align 8 %22, i8 0, i64 24, i1 false)
  %23 = load i32, i32* %21, align 8
  %24 = add nsw i32 %23, 1
  store i32 %24, i32* %21, align 8
  %25 = icmp sgt i32 %23, 199
  br i1 %25, label %35, label %26

26:                                               ; preds = %14
  %27 = bitcast i8* %20 to i64*
  %28 = load i64, i64* %27, align 8
  %29 = icmp ugt i64 %28, 4294967295
  br i1 %29, label %35, label %30

30:                                               ; preds = %26
  %31 = ptrtoint i8* %20 to i64
  %32 = and i64 %28, 4294967295
  %33 = xor i64 %31, -1
  %34 = icmp ugt i64 %32, %33
  br i1 %34, label %35, label %39

35:                                               ; preds = %26, %30, %14
  %36 = phi i32 [ 18, %14 ], [ 7, %30 ], [ 7, %26 ]
  tail call void @_ZN4mojo8internal21ReportValidationErrorEPNS0_17ValidationContextENS0_15ValidationErrorEPKc(%"class.mojo::internal::ValidationContext"* %1, i32 %36, i8* null) #10
  %37 = load i32, i32* %21, align 8
  %38 = add nsw i32 %37, -1
  store i32 %38, i32* %21, align 8
  br label %75

39:                                               ; preds = %30
  %40 = icmp eq i64 %28, 0
  %41 = getelementptr inbounds i8, i8* %20, i64 %28
  %42 = select i1 %40, i8* null, i8* %41
  %43 = call zeroext i1 @_ZN4mojo8internal10Array_DataIcE8ValidateEPKvPNS0_17ValidationContextEPKNS0_23ContainerValidateParamsE(i8* %42, %"class.mojo::internal::ValidationContext"* %1, %"class.mojo::internal::ContainerValidateParams"* nonnull %3) #10
  %44 = load i32, i32* %21, align 8
  %45 = add nsw i32 %44, -1
  store i32 %45, i32* %21, align 8
  br i1 %43, label %46, label %75

46:                                               ; preds = %39
  %47 = bitcast %"class.mojo::internal::ContainerValidateParams"* %4 to i8*
  call void @llvm.lifetime.start.p0i8(i64 32, i8* nonnull %47) #10
  %48 = bitcast %"class.mojo::internal::ContainerValidateParams"* %4 to i64*
  store i64 -6148914691236517206, i64* %48, align 8
  %49 = getelementptr inbounds %"class.mojo::internal::ContainerValidateParams", %"class.mojo::internal::ContainerValidateParams"* %4, i64 0, i32 0
  store i32 0, i32* %49, align 8
  %50 = getelementptr inbounds %"class.mojo::internal::ContainerValidateParams", %"class.mojo::internal::ContainerValidateParams"* %4, i64 0, i32 1
  store i8 0, i8* %50, align 4
  %51 = getelementptr inbounds %"class.mojo::internal::ContainerValidateParams", %"class.mojo::internal::ContainerValidateParams"* %4, i64 0, i32 2
  %52 = getelementptr inbounds i8, i8* %0, i64 24
  %53 = bitcast %"class.mojo::internal::ContainerValidateParams"** %51 to i8*
  call void @llvm.memset.p0i8.i64(i8* align 8 %53, i8 0, i64 24, i1 false)
  store i32 %44, i32* %21, align 8
  %54 = icmp sgt i32 %45, 199
  br i1 %54, label %55, label %56

55:                                               ; preds = %46
  call void @_ZN4mojo8internal21ReportValidationErrorEPNS0_17ValidationContextENS0_15ValidationErrorEPKc(%"class.mojo::internal::ValidationContext"* %1, i32 18, i8* null) #10
  br label %71

56:                                               ; preds = %46
  %57 = bitcast i8* %52 to i64*
  %58 = load i64, i64* %57, align 8
  %59 = icmp ugt i64 %58, 4294967295
  br i1 %59, label %65, label %60

60:                                               ; preds = %56
  %61 = ptrtoint i8* %52 to i64
  %62 = and i64 %58, 4294967295
  %63 = xor i64 %61, -1
  %64 = icmp ugt i64 %62, %63
  br i1 %64, label %65, label %66

65:                                               ; preds = %60, %56
  call void @_ZN4mojo8internal21ReportValidationErrorEPNS0_17ValidationContextENS0_15ValidationErrorEPKc(%"class.mojo::internal::ValidationContext"* %1, i32 7, i8* null) #10
  br label %71

66:                                               ; preds = %60
  %67 = icmp eq i64 %58, 0
  %68 = getelementptr inbounds i8, i8* %52, i64 %58
  %69 = select i1 %67, i8* null, i8* %68
  %70 = call zeroext i1 @_ZN4mojo8internal10Array_DataINS0_7PointerIN5blink5mojom8internal40ServiceWorkerRegistrationObjectInfo_DataEEEE8ValidateEPKvPNS0_17ValidationContextEPKNS0_23ContainerValidateParamsE(i8* %69, %"class.mojo::internal::ValidationContext"* %1, %"class.mojo::internal::ContainerValidateParams"* nonnull %4) #10
  br label %71

71:                                               ; preds = %65, %55, %66
  %72 = phi i1 [ %70, %66 ], [ false, %55 ], [ false, %65 ]
  %73 = load i32, i32* %21, align 8
  %74 = add nsw i32 %73, -1
  store i32 %74, i32* %21, align 8
  call void @_ZN4mojo8internal23ContainerValidateParamsD2Ev(%"class.mojo::internal::ContainerValidateParams"* nonnull %4) #10
  call void @llvm.lifetime.end.p0i8(i64 32, i8* nonnull %47) #10
  br label %75

75:                                               ; preds = %35, %39, %71
  %76 = phi i1 [ %72, %71 ], [ false, %39 ], [ false, %35 ]
  call void @_ZN4mojo8internal23ContainerValidateParamsD2Ev(%"class.mojo::internal::ContainerValidateParams"* nonnull %3) #10
  call void @llvm.lifetime.end.p0i8(i64 32, i8* nonnull %15) #10
  br label %77

77:                                               ; preds = %13, %75, %6, %2
  %78 = phi i1 [ true, %2 ], [ false, %6 ], [ %76, %75 ], [ false, %13 ]
  ret i1 %78
}

; Function Attrs: nofree norecurse nounwind ssp uwtable writeonly
define hidden void @_ZN5blink5mojom8internal63ServiceWorkerContainerHost_GetRegistrations_ResponseParams_DataC2Ev(%"class.blink::mojom::internal::ServiceWorkerContainerHost_GetRegistrations_ResponseParams_Data"* nocapture) unnamed_addr #4 align 2 {
  %2 = getelementptr inbounds %"class.blink::mojom::internal::ServiceWorkerContainerHost_GetRegistrations_ResponseParams_Data", %"class.blink::mojom::internal::ServiceWorkerContainerHost_GetRegistrations_ResponseParams_Data"* %0, i64 0, i32 0, i32 0
  store i32 32, i32* %2, align 4
  %3 = getelementptr inbounds %"class.blink::mojom::internal::ServiceWorkerContainerHost_GetRegistrations_ResponseParams_Data", %"class.blink::mojom::internal::ServiceWorkerContainerHost_GetRegistrations_ResponseParams_Data"* %0, i64 0, i32 0, i32 1
  store i32 0, i32* %3, align 4
  ret void
}

; Function Attrs: nounwind ssp uwtable
define hidden zeroext i1 @_ZN5blink5mojom8internal62ServiceWorkerContainerHost_GetRegistrationForReady_Params_Data8ValidateEPKvPN4mojo8internal17ValidationContextE(i8*, %"class.mojo::internal::ValidationContext"*) local_unnamed_addr #0 align 2 {
  %3 = icmp eq i8* %0, null
  br i1 %3, label %6, label %4

4:                                                ; preds = %2
  %5 = tail call zeroext i1 @_ZN4mojo8internal52ValidateUnversionedStructHeaderAndSizeAndClaimMemoryEPKvmPNS0_17ValidationContextE(i8* nonnull %0, i64 8, %"class.mojo::internal::ValidationContext"* %1) #10
  br label %6

6:                                                ; preds = %4, %2
  %7 = phi i1 [ true, %2 ], [ %5, %4 ]
  ret i1 %7
}

; Function Attrs: nofree norecurse nounwind ssp uwtable writeonly
define hidden void @_ZN5blink5mojom8internal62ServiceWorkerContainerHost_GetRegistrationForReady_Params_DataC2Ev(%"class.blink::mojom::internal::ServiceWorkerContainerHost_GetRegistrationForReady_Params_Data"* nocapture) unnamed_addr #4 align 2 {
  %2 = getelementptr inbounds %"class.blink::mojom::internal::ServiceWorkerContainerHost_GetRegistrationForReady_Params_Data", %"class.blink::mojom::internal::ServiceWorkerContainerHost_GetRegistrationForReady_Params_Data"* %0, i64 0, i32 0, i32 0
  store i32 8, i32* %2, align 1
  %3 = getelementptr inbounds %"class.blink::mojom::internal::ServiceWorkerContainerHost_GetRegistrationForReady_Params_Data", %"class.blink::mojom::internal::ServiceWorkerContainerHost_GetRegistrationForReady_Params_Data"* %0, i64 0, i32 0, i32 1
  store i32 0, i32* %3, align 1
  ret void
}

; Function Attrs: nounwind ssp uwtable
define hidden zeroext i1 @_ZN5blink5mojom8internal70ServiceWorkerContainerHost_GetRegistrationForReady_ResponseParams_Data8ValidateEPKvPN4mojo8internal17ValidationContextE(i8*, %"class.mojo::internal::ValidationContext"*) local_unnamed_addr #0 align 2 {
  %3 = icmp eq i8* %0, null
  br i1 %3, label %32, label %4

4:                                                ; preds = %2
  %5 = tail call zeroext i1 @_ZN4mojo8internal52ValidateUnversionedStructHeaderAndSizeAndClaimMemoryEPKvmPNS0_17ValidationContextE(i8* nonnull %0, i64 16, %"class.mojo::internal::ValidationContext"* %1) #10
  br i1 %5, label %6, label %32

6:                                                ; preds = %4
  %7 = getelementptr inbounds i8, i8* %0, i64 8
  %8 = getelementptr inbounds %"class.mojo::internal::ValidationContext", %"class.mojo::internal::ValidationContext"* %1, i64 0, i32 10
  %9 = load i32, i32* %8, align 8
  %10 = add nsw i32 %9, 1
  store i32 %10, i32* %8, align 8
  %11 = icmp sgt i32 %9, 199
  br i1 %11, label %21, label %12

12:                                               ; preds = %6
  %13 = bitcast i8* %7 to i64*
  %14 = load i64, i64* %13, align 8
  %15 = icmp ugt i64 %14, 4294967295
  br i1 %15, label %21, label %16

16:                                               ; preds = %12
  %17 = ptrtoint i8* %7 to i64
  %18 = and i64 %14, 4294967295
  %19 = xor i64 %17, -1
  %20 = icmp ugt i64 %18, %19
  br i1 %20, label %21, label %25

21:                                               ; preds = %12, %16, %6
  %22 = phi i32 [ 18, %6 ], [ 7, %16 ], [ 7, %12 ]
  tail call void @_ZN4mojo8internal21ReportValidationErrorEPNS0_17ValidationContextENS0_15ValidationErrorEPKc(%"class.mojo::internal::ValidationContext"* %1, i32 %22, i8* null) #10
  %23 = load i32, i32* %8, align 8
  %24 = add nsw i32 %23, -1
  store i32 %24, i32* %8, align 8
  br label %32

25:                                               ; preds = %16
  %26 = icmp eq i64 %14, 0
  %27 = getelementptr inbounds i8, i8* %7, i64 %14
  %28 = select i1 %26, i8* null, i8* %27
  %29 = tail call zeroext i1 @_ZN5blink5mojom8internal40ServiceWorkerRegistrationObjectInfo_Data8ValidateEPKvPN4mojo8internal17ValidationContextE(i8* %28, %"class.mojo::internal::ValidationContext"* %1) #10
  %30 = load i32, i32* %8, align 8
  %31 = add nsw i32 %30, -1
  store i32 %31, i32* %8, align 8
  ret i1 %29

32:                                               ; preds = %21, %4, %2
  %33 = phi i1 [ true, %2 ], [ false, %4 ], [ false, %21 ]
  ret i1 %33
}

; Function Attrs: nofree norecurse nounwind ssp uwtable writeonly
define hidden void @_ZN5blink5mojom8internal70ServiceWorkerContainerHost_GetRegistrationForReady_ResponseParams_DataC2Ev(%"class.blink::mojom::internal::ServiceWorkerContainerHost_GetRegistrationForReady_ResponseParams_Data"* nocapture) unnamed_addr #4 align 2 {
  %2 = getelementptr inbounds %"class.blink::mojom::internal::ServiceWorkerContainerHost_GetRegistrationForReady_ResponseParams_Data", %"class.blink::mojom::internal::ServiceWorkerContainerHost_GetRegistrationForReady_ResponseParams_Data"* %0, i64 0, i32 0, i32 0
  store i32 16, i32* %2, align 1
  %3 = getelementptr inbounds %"class.blink::mojom::internal::ServiceWorkerContainerHost_GetRegistrationForReady_ResponseParams_Data", %"class.blink::mojom::internal::ServiceWorkerContainerHost_GetRegistrationForReady_ResponseParams_Data"* %0, i64 0, i32 0, i32 1
  store i32 0, i32* %3, align 1
  ret void
}

; Function Attrs: nounwind ssp uwtable
define hidden zeroext i1 @_ZN5blink5mojom8internal68ServiceWorkerContainerHost_EnsureControllerServiceWorker_Params_Data8ValidateEPKvPN4mojo8internal17ValidationContextE(i8*, %"class.mojo::internal::ValidationContext"*) local_unnamed_addr #0 align 2 {
  %3 = icmp eq i8* %0, null
  br i1 %3, label %18, label %4

4:                                                ; preds = %2
  %5 = tail call zeroext i1 @_ZN4mojo8internal52ValidateUnversionedStructHeaderAndSizeAndClaimMemoryEPKvmPNS0_17ValidationContextE(i8* nonnull %0, i64 16, %"class.mojo::internal::ValidationContext"* %1) #10
  br i1 %5, label %6, label %18

6:                                                ; preds = %4
  %7 = getelementptr inbounds i8, i8* %0, i64 8
  %8 = bitcast i8* %7 to %"struct.mojo::internal::Handle_Data"*
  %9 = tail call zeroext i1 @_ZN4mojo8internal36ValidateHandleOrInterfaceNonNullableERKNS0_11Handle_DataEiPNS0_17ValidationContextE(%"struct.mojo::internal::Handle_Data"* dereferenceable(4) %8, i32 1, %"class.mojo::internal::ValidationContext"* %1) #10
  br i1 %9, label %10, label %18

10:                                               ; preds = %6
  %11 = tail call zeroext i1 @_ZN4mojo8internal25ValidateHandleOrInterfaceERKNS0_11Handle_DataEPNS0_17ValidationContextE(%"struct.mojo::internal::Handle_Data"* dereferenceable(4) %8, %"class.mojo::internal::ValidationContext"* %1) #10
  br i1 %11, label %12, label %18

12:                                               ; preds = %10
  %13 = getelementptr inbounds i8, i8* %0, i64 12
  %14 = bitcast i8* %13 to i32*
  %15 = load i32, i32* %14, align 4
  %16 = icmp eq i32 %15, 0
  br i1 %16, label %18, label %17

17:                                               ; preds = %12
  tail call void @_ZN4mojo8internal21ReportValidationErrorEPNS0_17ValidationContextENS0_15ValidationErrorEPKc(%"class.mojo::internal::ValidationContext"* %1, i32 16, i8* null) #10
  br label %18

18:                                               ; preds = %17, %12, %6, %10, %4, %2
  %19 = phi i1 [ true, %2 ], [ false, %4 ], [ false, %6 ], [ false, %10 ], [ false, %17 ], [ true, %12 ]
  ret i1 %19
}

declare zeroext i1 @_ZN4mojo8internal36ValidateHandleOrInterfaceNonNullableERKNS0_11Handle_DataEiPNS0_17ValidationContextE(%"struct.mojo::internal::Handle_Data"* dereferenceable(4), i32, %"class.mojo::internal::ValidationContext"*) local_unnamed_addr #3

declare zeroext i1 @_ZN4mojo8internal25ValidateHandleOrInterfaceERKNS0_11Handle_DataEPNS0_17ValidationContextE(%"struct.mojo::internal::Handle_Data"* dereferenceable(4), %"class.mojo::internal::ValidationContext"*) local_unnamed_addr #3

; Function Attrs: nofree norecurse nounwind ssp uwtable writeonly
define hidden void @_ZN5blink5mojom8internal68ServiceWorkerContainerHost_EnsureControllerServiceWorker_Params_DataC2Ev(%"class.blink::mojom::internal::ServiceWorkerContainerHost_EnsureControllerServiceWorker_Params_Data"* nocapture) unnamed_addr #4 align 2 {
  %2 = getelementptr inbounds %"class.blink::mojom::internal::ServiceWorkerContainerHost_EnsureControllerServiceWorker_Params_Data", %"class.blink::mojom::internal::ServiceWorkerContainerHost_EnsureControllerServiceWorker_Params_Data"* %0, i64 0, i32 0, i32 0
  store i32 16, i32* %2, align 4
  %3 = getelementptr inbounds %"class.blink::mojom::internal::ServiceWorkerContainerHost_EnsureControllerServiceWorker_Params_Data", %"class.blink::mojom::internal::ServiceWorkerContainerHost_EnsureControllerServiceWorker_Params_Data"* %0, i64 0, i32 0, i32 1
  store i32 0, i32* %3, align 4
  ret void
}

; Function Attrs: nounwind ssp uwtable
define hidden zeroext i1 @_ZN5blink5mojom8internal57ServiceWorkerContainerHost_CloneContainerHost_Params_Data8ValidateEPKvPN4mojo8internal17ValidationContextE(i8*, %"class.mojo::internal::ValidationContext"*) local_unnamed_addr #0 align 2 {
  %3 = icmp eq i8* %0, null
  br i1 %3, label %12, label %4

4:                                                ; preds = %2
  %5 = tail call zeroext i1 @_ZN4mojo8internal52ValidateUnversionedStructHeaderAndSizeAndClaimMemoryEPKvmPNS0_17ValidationContextE(i8* nonnull %0, i64 16, %"class.mojo::internal::ValidationContext"* %1) #10
  br i1 %5, label %6, label %12

6:                                                ; preds = %4
  %7 = getelementptr inbounds i8, i8* %0, i64 8
  %8 = bitcast i8* %7 to %"struct.mojo::internal::Handle_Data"*
  %9 = tail call zeroext i1 @_ZN4mojo8internal36ValidateHandleOrInterfaceNonNullableERKNS0_11Handle_DataEiPNS0_17ValidationContextE(%"struct.mojo::internal::Handle_Data"* dereferenceable(4) %8, i32 1, %"class.mojo::internal::ValidationContext"* %1) #10
  br i1 %9, label %10, label %12

10:                                               ; preds = %6
  %11 = tail call zeroext i1 @_ZN4mojo8internal25ValidateHandleOrInterfaceERKNS0_11Handle_DataEPNS0_17ValidationContextE(%"struct.mojo::internal::Handle_Data"* dereferenceable(4) %8, %"class.mojo::internal::ValidationContext"* %1) #10
  br label %12

12:                                               ; preds = %6, %10, %4, %2
  %13 = phi i1 [ true, %2 ], [ false, %4 ], [ false, %6 ], [ %11, %10 ]
  ret i1 %13
}

; Function Attrs: nofree norecurse nounwind ssp uwtable writeonly
define hidden void @_ZN5blink5mojom8internal57ServiceWorkerContainerHost_CloneContainerHost_Params_DataC2Ev(%"class.blink::mojom::internal::ServiceWorkerContainerHost_CloneContainerHost_Params_Data"* nocapture) unnamed_addr #4 align 2 {
  %2 = getelementptr inbounds %"class.blink::mojom::internal::ServiceWorkerContainerHost_CloneContainerHost_Params_Data", %"class.blink::mojom::internal::ServiceWorkerContainerHost_CloneContainerHost_Params_Data"* %0, i64 0, i32 0, i32 0
  store i32 16, i32* %2, align 1
  %3 = getelementptr inbounds %"class.blink::mojom::internal::ServiceWorkerContainerHost_CloneContainerHost_Params_Data", %"class.blink::mojom::internal::ServiceWorkerContainerHost_CloneContainerHost_Params_Data"* %0, i64 0, i32 0, i32 1
  store i32 0, i32* %3, align 1
  ret void
}

; Function Attrs: nounwind ssp uwtable
define hidden zeroext i1 @_ZN5blink5mojom8internal64ServiceWorkerContainerHost_HintToUpdateServiceWorker_Params_Data8ValidateEPKvPN4mojo8internal17ValidationContextE(i8*, %"class.mojo::internal::ValidationContext"*) local_unnamed_addr #0 align 2 {
  %3 = icmp eq i8* %0, null
  br i1 %3, label %6, label %4

4:                                                ; preds = %2
  %5 = tail call zeroext i1 @_ZN4mojo8internal52ValidateUnversionedStructHeaderAndSizeAndClaimMemoryEPKvmPNS0_17ValidationContextE(i8* nonnull %0, i64 8, %"class.mojo::internal::ValidationContext"* %1) #10
  br label %6

6:                                                ; preds = %4, %2
  %7 = phi i1 [ true, %2 ], [ %5, %4 ]
  ret i1 %7
}

; Function Attrs: nofree norecurse nounwind ssp uwtable writeonly
define hidden void @_ZN5blink5mojom8internal64ServiceWorkerContainerHost_HintToUpdateServiceWorker_Params_DataC2Ev(%"class.blink::mojom::internal::ServiceWorkerContainerHost_HintToUpdateServiceWorker_Params_Data"* nocapture) unnamed_addr #4 align 2 {
  %2 = getelementptr inbounds %"class.blink::mojom::internal::ServiceWorkerContainerHost_HintToUpdateServiceWorker_Params_Data", %"class.blink::mojom::internal::ServiceWorkerContainerHost_HintToUpdateServiceWorker_Params_Data"* %0, i64 0, i32 0, i32 0
  store i32 8, i32* %2, align 1
  %3 = getelementptr inbounds %"class.blink::mojom::internal::ServiceWorkerContainerHost_HintToUpdateServiceWorker_Params_Data", %"class.blink::mojom::internal::ServiceWorkerContainerHost_HintToUpdateServiceWorker_Params_Data"* %0, i64 0, i32 0, i32 1
  store i32 0, i32* %3, align 1
  ret void
}

; Function Attrs: nounwind ssp uwtable
define hidden zeroext i1 @_ZN5blink5mojom8internal55ServiceWorkerContainerHost_EnsureFileAccess_Params_Data8ValidateEPKvPN4mojo8internal17ValidationContextE(i8*, %"class.mojo::internal::ValidationContext"*) local_unnamed_addr #0 align 2 {
  %3 = alloca %"class.mojo::internal::ContainerValidateParams", align 8
  %4 = icmp eq i8* %0, null
  br i1 %4, label %43, label %5

5:                                                ; preds = %2
  %6 = tail call zeroext i1 @_ZN4mojo8internal52ValidateUnversionedStructHeaderAndSizeAndClaimMemoryEPKvmPNS0_17ValidationContextE(i8* nonnull %0, i64 16, %"class.mojo::internal::ValidationContext"* %1) #10
  br i1 %6, label %7, label %43

7:                                                ; preds = %5
  %8 = getelementptr inbounds i8, i8* %0, i64 8
  %9 = bitcast i8* %8 to i64*
  %10 = load i64, i64* %9, align 1
  %11 = icmp eq i64 %10, 0
  br i1 %11, label %12, label %13

12:                                               ; preds = %7
  tail call void @_ZN4mojo8internal32ReportNonNullableValidationErrorEPNS0_17ValidationContextENS0_15ValidationErrorEi(%"class.mojo::internal::ValidationContext"* %1, i32 8, i32 1) #10
  br label %43

13:                                               ; preds = %7
  %14 = bitcast %"class.mojo::internal::ContainerValidateParams"* %3 to i8*
  call void @llvm.lifetime.start.p0i8(i64 32, i8* nonnull %14) #10
  %15 = bitcast %"class.mojo::internal::ContainerValidateParams"* %3 to i64*
  store i64 -6148914691236517206, i64* %15, align 8
  %16 = getelementptr inbounds %"class.mojo::internal::ContainerValidateParams", %"class.mojo::internal::ContainerValidateParams"* %3, i64 0, i32 0
  store i32 0, i32* %16, align 8
  %17 = getelementptr inbounds %"class.mojo::internal::ContainerValidateParams", %"class.mojo::internal::ContainerValidateParams"* %3, i64 0, i32 1
  store i8 0, i8* %17, align 4
  %18 = getelementptr inbounds %"class.mojo::internal::ContainerValidateParams", %"class.mojo::internal::ContainerValidateParams"* %3, i64 0, i32 2
  %19 = getelementptr inbounds %"class.mojo::internal::ValidationContext", %"class.mojo::internal::ValidationContext"* %1, i64 0, i32 10
  %20 = bitcast %"class.mojo::internal::ContainerValidateParams"** %18 to i8*
  call void @llvm.memset.p0i8.i64(i8* align 8 %20, i8 0, i64 24, i1 false)
  %21 = load i32, i32* %19, align 8
  %22 = add nsw i32 %21, 1
  store i32 %22, i32* %19, align 8
  %23 = icmp sgt i32 %21, 199
  br i1 %23, label %24, label %25

24:                                               ; preds = %13
  tail call void @_ZN4mojo8internal21ReportValidationErrorEPNS0_17ValidationContextENS0_15ValidationErrorEPKc(%"class.mojo::internal::ValidationContext"* %1, i32 18, i8* null) #10
  br label %39

25:                                               ; preds = %13
  %26 = load i64, i64* %9, align 8
  %27 = icmp ugt i64 %26, 4294967295
  br i1 %27, label %33, label %28

28:                                               ; preds = %25
  %29 = ptrtoint i8* %8 to i64
  %30 = and i64 %26, 4294967295
  %31 = xor i64 %29, -1
  %32 = icmp ugt i64 %30, %31
  br i1 %32, label %33, label %34

33:                                               ; preds = %28, %25
  tail call void @_ZN4mojo8internal21ReportValidationErrorEPNS0_17ValidationContextENS0_15ValidationErrorEPKc(%"class.mojo::internal::ValidationContext"* %1, i32 7, i8* null) #10
  br label %39

34:                                               ; preds = %28
  %35 = icmp eq i64 %26, 0
  %36 = getelementptr inbounds i8, i8* %8, i64 %26
  %37 = select i1 %35, i8* null, i8* %36
  %38 = call zeroext i1 @_ZN4mojo8internal10Array_DataINS0_7PointerIN9mojo_base5mojom8internal13FilePath_DataEEEE8ValidateEPKvPNS0_17ValidationContextEPKNS0_23ContainerValidateParamsE(i8* %37, %"class.mojo::internal::ValidationContext"* %1, %"class.mojo::internal::ContainerValidateParams"* nonnull %3) #10
  br label %39

39:                                               ; preds = %33, %24, %34
  %40 = phi i1 [ %38, %34 ], [ false, %24 ], [ false, %33 ]
  %41 = load i32, i32* %19, align 8
  %42 = add nsw i32 %41, -1
  store i32 %42, i32* %19, align 8
  call void @_ZN4mojo8internal23ContainerValidateParamsD2Ev(%"class.mojo::internal::ContainerValidateParams"* nonnull %3) #10
  call void @llvm.lifetime.end.p0i8(i64 32, i8* nonnull %14) #10
  br label %43

43:                                               ; preds = %12, %39, %5, %2
  %44 = phi i1 [ true, %2 ], [ false, %5 ], [ %40, %39 ], [ false, %12 ]
  ret i1 %44
}

; Function Attrs: nofree norecurse nounwind ssp uwtable writeonly
define hidden void @_ZN5blink5mojom8internal55ServiceWorkerContainerHost_EnsureFileAccess_Params_DataC2Ev(%"class.blink::mojom::internal::ServiceWorkerContainerHost_EnsureFileAccess_Params_Data"* nocapture) unnamed_addr #4 align 2 {
  %2 = getelementptr inbounds %"class.blink::mojom::internal::ServiceWorkerContainerHost_EnsureFileAccess_Params_Data", %"class.blink::mojom::internal::ServiceWorkerContainerHost_EnsureFileAccess_Params_Data"* %0, i64 0, i32 0, i32 0
  store i32 16, i32* %2, align 1
  %3 = getelementptr inbounds %"class.blink::mojom::internal::ServiceWorkerContainerHost_EnsureFileAccess_Params_Data", %"class.blink::mojom::internal::ServiceWorkerContainerHost_EnsureFileAccess_Params_Data"* %0, i64 0, i32 0, i32 1
  store i32 0, i32* %3, align 1
  ret void
}

; Function Attrs: nounwind ssp uwtable
define hidden zeroext i1 @_ZN5blink5mojom8internal63ServiceWorkerContainerHost_EnsureFileAccess_ResponseParams_Data8ValidateEPKvPN4mojo8internal17ValidationContextE(i8*, %"class.mojo::internal::ValidationContext"*) local_unnamed_addr #0 align 2 {
  %3 = icmp eq i8* %0, null
  br i1 %3, label %6, label %4

4:                                                ; preds = %2
  %5 = tail call zeroext i1 @_ZN4mojo8internal52ValidateUnversionedStructHeaderAndSizeAndClaimMemoryEPKvmPNS0_17ValidationContextE(i8* nonnull %0, i64 8, %"class.mojo::internal::ValidationContext"* %1) #10
  br label %6

6:                                                ; preds = %4, %2
  %7 = phi i1 [ true, %2 ], [ %5, %4 ]
  ret i1 %7
}

; Function Attrs: nofree norecurse nounwind ssp uwtable writeonly
define hidden void @_ZN5blink5mojom8internal63ServiceWorkerContainerHost_EnsureFileAccess_ResponseParams_DataC2Ev(%"class.blink::mojom::internal::ServiceWorkerContainerHost_EnsureFileAccess_ResponseParams_Data"* nocapture) unnamed_addr #4 align 2 {
  %2 = getelementptr inbounds %"class.blink::mojom::internal::ServiceWorkerContainerHost_EnsureFileAccess_ResponseParams_Data", %"class.blink::mojom::internal::ServiceWorkerContainerHost_EnsureFileAccess_ResponseParams_Data"* %0, i64 0, i32 0, i32 0
  store i32 8, i32* %2, align 1
  %3 = getelementptr inbounds %"class.blink::mojom::internal::ServiceWorkerContainerHost_EnsureFileAccess_ResponseParams_Data", %"class.blink::mojom::internal::ServiceWorkerContainerHost_EnsureFileAccess_ResponseParams_Data"* %0, i64 0, i32 0, i32 1
  store i32 0, i32* %3, align 1
  ret void
}

; Function Attrs: nounwind ssp uwtable
define hidden zeroext i1 @_ZN5blink5mojom8internal55ServiceWorkerContainerHost_OnExecutionReady_Params_Data8ValidateEPKvPN4mojo8internal17ValidationContextE(i8*, %"class.mojo::internal::ValidationContext"*) local_unnamed_addr #0 align 2 {
  %3 = icmp eq i8* %0, null
  br i1 %3, label %6, label %4

4:                                                ; preds = %2
  %5 = tail call zeroext i1 @_ZN4mojo8internal52ValidateUnversionedStructHeaderAndSizeAndClaimMemoryEPKvmPNS0_17ValidationContextE(i8* nonnull %0, i64 8, %"class.mojo::internal::ValidationContext"* %1) #10
  br label %6

6:                                                ; preds = %4, %2
  %7 = phi i1 [ true, %2 ], [ %5, %4 ]
  ret i1 %7
}

; Function Attrs: nofree norecurse nounwind ssp uwtable writeonly
define hidden void @_ZN5blink5mojom8internal55ServiceWorkerContainerHost_OnExecutionReady_Params_DataC2Ev(%"class.blink::mojom::internal::ServiceWorkerContainerHost_OnExecutionReady_Params_Data"* nocapture) unnamed_addr #4 align 2 {
  %2 = getelementptr inbounds %"class.blink::mojom::internal::ServiceWorkerContainerHost_OnExecutionReady_Params_Data", %"class.blink::mojom::internal::ServiceWorkerContainerHost_OnExecutionReady_Params_Data"* %0, i64 0, i32 0, i32 0
  store i32 8, i32* %2, align 1
  %3 = getelementptr inbounds %"class.blink::mojom::internal::ServiceWorkerContainerHost_OnExecutionReady_Params_Data", %"class.blink::mojom::internal::ServiceWorkerContainerHost_OnExecutionReady_Params_Data"* %0, i64 0, i32 0, i32 1
  store i32 0, i32* %3, align 1
  ret void
}

; Function Attrs: nounwind ssp uwtable
define hidden zeroext i1 @_ZN5blink5mojom8internal48ServiceWorkerContainer_SetController_Params_Data8ValidateEPKvPN4mojo8internal17ValidationContextE(i8*, %"class.mojo::internal::ValidationContext"*) local_unnamed_addr #0 align 2 {
  %3 = icmp eq i8* %0, null
  br i1 %3, label %36, label %4

4:                                                ; preds = %2
  %5 = tail call zeroext i1 @_ZN4mojo8internal52ValidateUnversionedStructHeaderAndSizeAndClaimMemoryEPKvmPNS0_17ValidationContextE(i8* nonnull %0, i64 24, %"class.mojo::internal::ValidationContext"* %1) #10
  br i1 %5, label %6, label %36

6:                                                ; preds = %4
  %7 = getelementptr inbounds i8, i8* %0, i64 8
  %8 = bitcast i8* %7 to i64*
  %9 = load i64, i64* %8, align 1
  %10 = icmp eq i64 %9, 0
  br i1 %10, label %11, label %12

11:                                               ; preds = %6
  tail call void @_ZN4mojo8internal32ReportNonNullableValidationErrorEPNS0_17ValidationContextENS0_15ValidationErrorEi(%"class.mojo::internal::ValidationContext"* %1, i32 8, i32 1) #10
  br label %36

12:                                               ; preds = %6
  %13 = getelementptr inbounds %"class.mojo::internal::ValidationContext", %"class.mojo::internal::ValidationContext"* %1, i64 0, i32 10
  %14 = load i32, i32* %13, align 8
  %15 = add nsw i32 %14, 1
  store i32 %15, i32* %13, align 8
  %16 = icmp sgt i32 %14, 199
  br i1 %16, label %25, label %17

17:                                               ; preds = %12
  %18 = load i64, i64* %8, align 8
  %19 = icmp ugt i64 %18, 4294967295
  br i1 %19, label %25, label %20

20:                                               ; preds = %17
  %21 = ptrtoint i8* %7 to i64
  %22 = and i64 %18, 4294967295
  %23 = xor i64 %21, -1
  %24 = icmp ugt i64 %22, %23
  br i1 %24, label %25, label %29

25:                                               ; preds = %17, %20, %12
  %26 = phi i32 [ 18, %12 ], [ 7, %20 ], [ 7, %17 ]
  tail call void @_ZN4mojo8internal21ReportValidationErrorEPNS0_17ValidationContextENS0_15ValidationErrorEPKc(%"class.mojo::internal::ValidationContext"* %1, i32 %26, i8* null) #10
  %27 = load i32, i32* %13, align 8
  %28 = add nsw i32 %27, -1
  store i32 %28, i32* %13, align 8
  br label %36

29:                                               ; preds = %20
  %30 = icmp eq i64 %18, 0
  %31 = getelementptr inbounds i8, i8* %7, i64 %18
  %32 = select i1 %30, i8* null, i8* %31
  %33 = tail call zeroext i1 @_ZN5blink5mojom8internal32ControllerServiceWorkerInfo_Data8ValidateEPKvPN4mojo8internal17ValidationContextE(i8* %32, %"class.mojo::internal::ValidationContext"* %1) #10
  %34 = load i32, i32* %13, align 8
  %35 = add nsw i32 %34, -1
  store i32 %35, i32* %13, align 8
  ret i1 %33

36:                                               ; preds = %25, %11, %4, %2
  %37 = phi i1 [ true, %2 ], [ false, %4 ], [ false, %11 ], [ false, %25 ]
  ret i1 %37
}

; Function Attrs: nofree norecurse nounwind ssp uwtable writeonly
define hidden void @_ZN5blink5mojom8internal48ServiceWorkerContainer_SetController_Params_DataC2Ev(%"class.blink::mojom::internal::ServiceWorkerContainer_SetController_Params_Data"* nocapture) unnamed_addr #4 align 2 {
  %2 = getelementptr inbounds %"class.blink::mojom::internal::ServiceWorkerContainer_SetController_Params_Data", %"class.blink::mojom::internal::ServiceWorkerContainer_SetController_Params_Data"* %0, i64 0, i32 0, i32 0
  store i32 24, i32* %2, align 1
  %3 = getelementptr inbounds %"class.blink::mojom::internal::ServiceWorkerContainer_SetController_Params_Data", %"class.blink::mojom::internal::ServiceWorkerContainer_SetController_Params_Data"* %0, i64 0, i32 0, i32 1
  store i32 0, i32* %3, align 1
  ret void
}

; Function Attrs: nounwind ssp uwtable
define hidden zeroext i1 @_ZN5blink5mojom8internal54ServiceWorkerContainer_PostMessageToClient_Params_Data8ValidateEPKvPN4mojo8internal17ValidationContextE(i8*, %"class.mojo::internal::ValidationContext"*) local_unnamed_addr #0 align 2 {
  %3 = icmp eq i8* %0, null
  br i1 %3, label %63, label %4

4:                                                ; preds = %2
  %5 = tail call zeroext i1 @_ZN4mojo8internal52ValidateUnversionedStructHeaderAndSizeAndClaimMemoryEPKvmPNS0_17ValidationContextE(i8* nonnull %0, i64 24, %"class.mojo::internal::ValidationContext"* %1) #10
  br i1 %5, label %6, label %63

6:                                                ; preds = %4
  %7 = getelementptr inbounds i8, i8* %0, i64 8
  %8 = bitcast i8* %7 to i64*
  %9 = load i64, i64* %8, align 1
  %10 = icmp eq i64 %9, 0
  br i1 %10, label %11, label %12

11:                                               ; preds = %6
  tail call void @_ZN4mojo8internal32ReportNonNullableValidationErrorEPNS0_17ValidationContextENS0_15ValidationErrorEi(%"class.mojo::internal::ValidationContext"* %1, i32 8, i32 1) #10
  br label %63

12:                                               ; preds = %6
  %13 = getelementptr inbounds %"class.mojo::internal::ValidationContext", %"class.mojo::internal::ValidationContext"* %1, i64 0, i32 10
  %14 = load i32, i32* %13, align 8
  %15 = add nsw i32 %14, 1
  store i32 %15, i32* %13, align 8
  %16 = icmp sgt i32 %14, 199
  br i1 %16, label %25, label %17

17:                                               ; preds = %12
  %18 = load i64, i64* %8, align 8
  %19 = icmp ugt i64 %18, 4294967295
  br i1 %19, label %25, label %20

20:                                               ; preds = %17
  %21 = ptrtoint i8* %7 to i64
  %22 = and i64 %18, 4294967295
  %23 = xor i64 %21, -1
  %24 = icmp ugt i64 %22, %23
  br i1 %24, label %25, label %29

25:                                               ; preds = %17, %20, %12
  %26 = phi i32 [ 18, %12 ], [ 7, %20 ], [ 7, %17 ]
  tail call void @_ZN4mojo8internal21ReportValidationErrorEPNS0_17ValidationContextENS0_15ValidationErrorEPKc(%"class.mojo::internal::ValidationContext"* %1, i32 %26, i8* null) #10
  %27 = load i32, i32* %13, align 8
  %28 = add nsw i32 %27, -1
  store i32 %28, i32* %13, align 8
  br label %63

29:                                               ; preds = %20
  %30 = icmp eq i64 %18, 0
  %31 = getelementptr inbounds i8, i8* %7, i64 %18
  %32 = select i1 %30, i8* null, i8* %31
  %33 = tail call zeroext i1 @_ZN5blink5mojom8internal28ServiceWorkerObjectInfo_Data8ValidateEPKvPN4mojo8internal17ValidationContextE(i8* %32, %"class.mojo::internal::ValidationContext"* %1) #10
  %34 = load i32, i32* %13, align 8
  %35 = add nsw i32 %34, -1
  store i32 %35, i32* %13, align 8
  br i1 %33, label %36, label %63

36:                                               ; preds = %29
  %37 = getelementptr inbounds i8, i8* %0, i64 16
  %38 = bitcast i8* %37 to i64*
  %39 = load i64, i64* %38, align 1
  %40 = icmp eq i64 %39, 0
  br i1 %40, label %41, label %42

41:                                               ; preds = %36
  tail call void @_ZN4mojo8internal32ReportNonNullableValidationErrorEPNS0_17ValidationContextENS0_15ValidationErrorEi(%"class.mojo::internal::ValidationContext"* %1, i32 8, i32 2) #10
  br label %63

42:                                               ; preds = %36
  store i32 %34, i32* %13, align 8
  %43 = icmp sgt i32 %35, 199
  br i1 %43, label %52, label %44

44:                                               ; preds = %42
  %45 = load i64, i64* %38, align 8
  %46 = icmp ugt i64 %45, 4294967295
  br i1 %46, label %52, label %47

47:                                               ; preds = %44
  %48 = ptrtoint i8* %37 to i64
  %49 = and i64 %45, 4294967295
  %50 = xor i64 %48, -1
  %51 = icmp ugt i64 %49, %50
  br i1 %51, label %52, label %56

52:                                               ; preds = %44, %47, %42
  %53 = phi i32 [ 18, %42 ], [ 7, %47 ], [ 7, %44 ]
  tail call void @_ZN4mojo8internal21ReportValidationErrorEPNS0_17ValidationContextENS0_15ValidationErrorEPKc(%"class.mojo::internal::ValidationContext"* %1, i32 %53, i8* null) #10
  %54 = load i32, i32* %13, align 8
  %55 = add nsw i32 %54, -1
  store i32 %55, i32* %13, align 8
  br label %63

56:                                               ; preds = %47
  %57 = icmp eq i64 %45, 0
  %58 = getelementptr inbounds i8, i8* %37, i64 %45
  %59 = select i1 %57, i8* null, i8* %58
  %60 = tail call zeroext i1 @_ZN5blink5mojom8internal24TransferableMessage_Data8ValidateEPKvPN4mojo8internal17ValidationContextE(i8* %59, %"class.mojo::internal::ValidationContext"* %1) #10
  %61 = load i32, i32* %13, align 8
  %62 = add nsw i32 %61, -1
  store i32 %62, i32* %13, align 8
  ret i1 %60

63:                                               ; preds = %52, %41, %25, %11, %29, %4, %2
  %64 = phi i1 [ true, %2 ], [ false, %4 ], [ false, %11 ], [ false, %29 ], [ false, %41 ], [ false, %25 ], [ false, %52 ]
  ret i1 %64
}

; Function Attrs: nofree norecurse nounwind ssp uwtable writeonly
define hidden void @_ZN5blink5mojom8internal54ServiceWorkerContainer_PostMessageToClient_Params_DataC2Ev(%"class.blink::mojom::internal::ServiceWorkerContainer_PostMessageToClient_Params_Data"* nocapture) unnamed_addr #4 align 2 {
  %2 = getelementptr inbounds %"class.blink::mojom::internal::ServiceWorkerContainer_PostMessageToClient_Params_Data", %"class.blink::mojom::internal::ServiceWorkerContainer_PostMessageToClient_Params_Data"* %0, i64 0, i32 0, i32 0
  store i32 24, i32* %2, align 1
  %3 = getelementptr inbounds %"class.blink::mojom::internal::ServiceWorkerContainer_PostMessageToClient_Params_Data", %"class.blink::mojom::internal::ServiceWorkerContainer_PostMessageToClient_Params_Data"* %0, i64 0, i32 0, i32 1
  store i32 0, i32* %3, align 1
  ret void
}

; Function Attrs: nounwind ssp uwtable
define hidden zeroext i1 @_ZN5blink5mojom8internal47ServiceWorkerContainer_CountFeature_Params_Data8ValidateEPKvPN4mojo8internal17ValidationContextE(i8*, %"class.mojo::internal::ValidationContext"*) local_unnamed_addr #0 align 2 {
  %3 = icmp eq i8* %0, null
  br i1 %3, label %12, label %4

4:                                                ; preds = %2
  %5 = tail call zeroext i1 @_ZN4mojo8internal52ValidateUnversionedStructHeaderAndSizeAndClaimMemoryEPKvmPNS0_17ValidationContextE(i8* nonnull %0, i64 16, %"class.mojo::internal::ValidationContext"* %1) #10
  br i1 %5, label %6, label %12

6:                                                ; preds = %4
  %7 = getelementptr inbounds i8, i8* %0, i64 8
  %8 = bitcast i8* %7 to i32*
  %9 = load i32, i32* %8, align 4
  %10 = tail call zeroext i1 @_ZN5blink5mojom8internal15WebFeature_Data12IsKnownValueEi(i32 %9) #10
  br i1 %10, label %12, label %11

11:                                               ; preds = %6
  tail call void @_ZN4mojo8internal21ReportValidationErrorEPNS0_17ValidationContextENS0_15ValidationErrorEPKc(%"class.mojo::internal::ValidationContext"* %1, i32 16, i8* null) #10
  br label %12

12:                                               ; preds = %11, %6, %4, %2
  %13 = phi i1 [ true, %2 ], [ false, %4 ], [ false, %11 ], [ true, %6 ]
  ret i1 %13
}

; Function Attrs: nofree norecurse nounwind ssp uwtable writeonly
define hidden void @_ZN5blink5mojom8internal47ServiceWorkerContainer_CountFeature_Params_DataC2Ev(%"class.blink::mojom::internal::ServiceWorkerContainer_CountFeature_Params_Data"* nocapture) unnamed_addr #4 align 2 {
  %2 = getelementptr inbounds %"class.blink::mojom::internal::ServiceWorkerContainer_CountFeature_Params_Data", %"class.blink::mojom::internal::ServiceWorkerContainer_CountFeature_Params_Data"* %0, i64 0, i32 0, i32 0
  store i32 16, i32* %2, align 4
  %3 = getelementptr inbounds %"class.blink::mojom::internal::ServiceWorkerContainer_CountFeature_Params_Data", %"class.blink::mojom::internal::ServiceWorkerContainer_CountFeature_Params_Data"* %0, i64 0, i32 0, i32 1
  store i32 0, i32* %3, align 4
  ret void
}

; Function Attrs: nounwind ssp uwtable
define hidden void @_ZN8perfetto17TraceFormatTraitsIN5blink5mojom30ControllerServiceWorkerPurposeEvE14WriteIntoTraceENS_11TracedValueES3_(%"class.perfetto::TracedValue"*, i32) local_unnamed_addr #0 align 2 {
  %3 = alloca %"class.std::__1::basic_string", align 8
  %4 = bitcast %"class.std::__1::basic_string"* %3 to i8*
  call void @llvm.lifetime.start.p0i8(i64 24, i8* nonnull %4) #10
  call void @_ZN5blink5mojom38ControllerServiceWorkerPurposeToStringENS0_30ControllerServiceWorkerPurposeE(%"class.std::__1::basic_string"* nonnull sret %3, i32 %1)
  call void @_ZNO8perfetto11TracedValue11WriteStringERKNSt3__112basic_stringIcNS1_11char_traitsIcEENS1_9allocatorIcEEEE(%"class.perfetto::TracedValue"* %0, %"class.std::__1::basic_string"* nonnull dereferenceable(24) %3) #10
  %5 = bitcast %"class.std::__1::basic_string"* %3 to %"struct.std::__1::basic_string<char, std::__1::char_traits<char>, std::__1::allocator<char> >::__short"*
  %6 = getelementptr inbounds %"struct.std::__1::basic_string<char, std::__1::char_traits<char>, std::__1::allocator<char> >::__short", %"struct.std::__1::basic_string<char, std::__1::char_traits<char>, std::__1::allocator<char> >::__short"* %5, i64 0, i32 1, i32 0
  %7 = load i8, i8* %6, align 1
  %8 = icmp slt i8 %7, 0
  br i1 %8, label %9, label %12

9:                                                ; preds = %2
  %10 = getelementptr inbounds %"class.std::__1::basic_string", %"class.std::__1::basic_string"* %3, i64 0, i32 0, i32 0, i32 0, i32 0, i32 0, i32 0
  %11 = load i8*, i8** %10, align 8
  call void @_ZdlPv(i8* %11) #12
  br label %12

12:                                               ; preds = %2, %9
  call void @llvm.lifetime.end.p0i8(i64 24, i8* nonnull %4) #10
  ret void
}

declare void @_ZNO8perfetto11TracedValue11WriteStringERKNSt3__112basic_stringIcNS1_11char_traitsIcEENS1_9allocatorIcEEEE(%"class.perfetto::TracedValue"*, %"class.std::__1::basic_string"* dereferenceable(24)) local_unnamed_addr #3

declare void @_ZN4mojo8internal21ReportValidationErrorEPNS0_17ValidationContextENS0_15ValidationErrorEPKc(%"class.mojo::internal::ValidationContext"*, i32, i8*) local_unnamed_addr #3

; Function Attrs: nobuiltin nounwind
declare void @_ZdlPv(i8*) local_unnamed_addr #5

; Function Attrs: nounwind ssp uwtable
define linkonce_odr hidden zeroext i1 @_ZN5blink5mojom8internal15WebFeature_Data12IsKnownValueEi(i32) local_unnamed_addr #0 comdat align 2 {
  switch i32 %0, label %2 [
    i32 0, label %3
    i32 4, label %3
    i32 5, label %3
    i32 10, label %3
    i32 13, label %3
    i32 14, label %3
    i32 15, label %3
    i32 16, label %3
    i32 18, label %3
    i32 19, label %3
    i32 20, label %3
    i32 21, label %3
    i32 23, label %3
    i32 24, label %3
    i32 25, label %3
    i32 26, label %3
    i32 27, label %3
    i32 29, label %3
    i32 30, label %3
    i32 31, label %3
    i32 32, label %3
    i32 33, label %3
    i32 34, label %3
    i32 35, label %3
    i32 36, label %3
    i32 37, label %3
    i32 38, label %3
    i32 39, label %3
    i32 40, label %3
    i32 41, label %3
    i32 42, label %3
    i32 43, label %3
    i32 44, label %3
    i32 45, label %3
    i32 47, label %3
    i32 49, label %3
    i32 51, label %3
    i32 52, label %3
    i32 53, label %3
    i32 55, label %3
    i32 57, label %3
    i32 61, label %3
    i32 62, label %3
    i32 63, label %3
    i32 69, label %3
    i32 70, label %3
    i32 74, label %3
    i32 77, label %3
    i32 78, label %3
    i32 79, label %3
    i32 80, label %3
    i32 83, label %3
    i32 84, label %3
    i32 85, label %3
    i32 90, label %3
    i32 96, label %3
    i32 97, label %3
    i32 98, label %3
    i32 111, label %3
    i32 112, label %3
    i32 115, label %3
    i32 116, label %3
    i32 117, label %3
    i32 123, label %3
    i32 124, label %3
    i32 125, label %3
    i32 128, label %3
    i32 129, label %3
    i32 130, label %3
    i32 131, label %3
    i32 132, label %3
    i32 133, label %3
    i32 134, label %3
    i32 135, label %3
    i32 136, label %3
    i32 137, label %3
    i32 138, label %3
    i32 143, label %3
    i32 144, label %3
    i32 145, label %3
    i32 146, label %3
    i32 147, label %3
    i32 148, label %3
    i32 164, label %3
    i32 165, label %3
    i32 166, label %3
    i32 167, label %3
    i32 168, label %3
    i32 169, label %3
    i32 170, label %3
    i32 171, label %3
    i32 172, label %3
    i32 173, label %3
    i32 176, label %3
    i32 177, label %3
    i32 178, label %3
    i32 179, label %3
    i32 180, label %3
    i32 181, label %3
    i32 182, label %3
    i32 183, label %3
    i32 184, label %3
    i32 185, label %3
    i32 186, label %3
    i32 190, label %3
    i32 191, label %3
    i32 192, label %3
    i32 193, label %3
    i32 196, label %3
    i32 200, label %3
    i32 201, label %3
    i32 202, label %3
    i32 203, label %3
    i32 204, label %3
    i32 205, label %3
    i32 209, label %3
    i32 211, label %3
    i32 212, label %3
    i32 213, label %3
    i32 214, label %3
    i32 215, label %3
    i32 217, label %3
    i32 219, label %3
    i32 220, label %3
    i32 221, label %3
    i32 222, label %3
    i32 233, label %3
    i32 234, label %3
    i32 235, label %3
    i32 237, label %3
    i32 240, label %3
    i32 243, label %3
    i32 244, label %3
    i32 246, label %3
    i32 247, label %3
    i32 248, label %3
    i32 250, label %3
    i32 251, label %3
    i32 260, label %3
    i32 261, label %3
    i32 262, label %3
    i32 263, label %3
    i32 264, label %3
    i32 274, label %3
    i32 276, label %3
    i32 279, label %3
    i32 281, label %3
    i32 282, label %3
    i32 283, label %3
    i32 285, label %3
    i32 287, label %3
    i32 288, label %3
    i32 289, label %3
    i32 290, label %3
    i32 295, label %3
    i32 296, label %3
    i32 297, label %3
    i32 304, label %3
    i32 306, label %3
    i32 307, label %3
    i32 308, label %3
    i32 309, label %3
    i32 310, label %3
    i32 311, label %3
    i32 312, label %3
    i32 318, label %3
    i32 320, label %3
    i32 321, label %3
    i32 322, label %3
    i32 323, label %3
    i32 324, label %3
    i32 325, label %3
    i32 327, label %3
    i32 328, label %3
    i32 329, label %3
    i32 343, label %3
    i32 344, label %3
    i32 345, label %3
    i32 347, label %3
    i32 350, label %3
    i32 351, label %3
    i32 352, label %3
    i32 353, label %3
    i32 356, label %3
    i32 357, label %3
    i32 358, label %3
    i32 361, label %3
    i32 362, label %3
    i32 371, label %3
    i32 372, label %3
    i32 386, label %3
    i32 387, label %3
    i32 389, label %3
    i32 393, label %3
    i32 396, label %3
    i32 397, label %3
    i32 400, label %3
    i32 401, label %3
    i32 402, label %3
    i32 403, label %3
    i32 404, label %3
    i32 405, label %3
    i32 406, label %3
    i32 407, label %3
    i32 409, label %3
    i32 410, label %3
    i32 411, label %3
    i32 412, label %3
    i32 413, label %3
    i32 414, label %3
    i32 415, label %3
    i32 416, label %3
    i32 417, label %3
    i32 418, label %3
    i32 419, label %3
    i32 420, label %3
    i32 421, label %3
    i32 422, label %3
    i32 424, label %3
    i32 425, label %3
    i32 429, label %3
    i32 430, label %3
    i32 431, label %3
    i32 432, label %3
    i32 433, label %3
    i32 434, label %3
    i32 435, label %3
    i32 440, label %3
    i32 441, label %3
    i32 442, label %3
    i32 455, label %3
    i32 456, label %3
    i32 457, label %3
    i32 458, label %3
    i32 459, label %3
    i32 460, label %3
    i32 461, label %3
    i32 463, label %3
    i32 465, label %3
    i32 466, label %3
    i32 467, label %3
    i32 468, label %3
    i32 469, label %3
    i32 470, label %3
    i32 471, label %3
    i32 473, label %3
    i32 475, label %3
    i32 476, label %3
    i32 479, label %3
    i32 480, label %3
    i32 481, label %3
    i32 482, label %3
    i32 483, label %3
    i32 484, label %3
    i32 491, label %3
    i32 492, label %3
    i32 493, label %3
    i32 494, label %3
    i32 495, label %3
    i32 501, label %3
    i32 502, label %3
    i32 503, label %3
    i32 504, label %3
    i32 505, label %3
    i32 506, label %3
    i32 507, label %3
    i32 508, label %3
    i32 509, label %3
    i32 510, label %3
    i32 519, label %3
    i32 520, label %3
    i32 521, label %3
    i32 522, label %3
    i32 523, label %3
    i32 524, label %3
    i32 525, label %3
    i32 529, label %3
    i32 530, label %3
    i32 531, label %3
    i32 532, label %3
    i32 533, label %3
    i32 534, label %3
    i32 535, label %3
    i32 540, label %3
    i32 541, label %3
    i32 542, label %3
    i32 545, label %3
    i32 546, label %3
    i32 547, label %3
    i32 548, label %3
    i32 549, label %3
    i32 550, label %3
    i32 551, label %3
    i32 552, label %3
    i32 553, label %3
    i32 554, label %3
    i32 555, label %3
    i32 556, label %3
    i32 557, label %3
    i32 558, label %3
    i32 559, label %3
    i32 560, label %3
    i32 561, label %3
    i32 562, label %3
    i32 563, label %3
    i32 564, label %3
    i32 565, label %3
    i32 569, label %3
    i32 570, label %3
    i32 571, label %3
    i32 572, label %3
    i32 573, label %3
    i32 574, label %3
    i32 576, label %3
    i32 578, label %3
    i32 581, label %3
    i32 582, label %3
    i32 583, label %3
    i32 584, label %3
    i32 585, label %3
    i32 586, label %3
    i32 587, label %3
    i32 588, label %3
    i32 589, label %3
    i32 590, label %3
    i32 591, label %3
    i32 592, label %3
    i32 593, label %3
    i32 599, label %3
    i32 603, label %3
    i32 606, label %3
    i32 607, label %3
    i32 608, label %3
    i32 609, label %3
    i32 610, label %3
    i32 611, label %3
    i32 612, label %3
    i32 613, label %3
    i32 614, label %3
    i32 615, label %3
    i32 616, label %3
    i32 617, label %3
    i32 618, label %3
    i32 628, label %3
    i32 629, label %3
    i32 630, label %3
    i32 631, label %3
    i32 632, label %3
    i32 633, label %3
    i32 634, label %3
    i32 635, label %3
    i32 636, label %3
    i32 637, label %3
    i32 638, label %3
    i32 639, label %3
    i32 640, label %3
    i32 641, label %3
    i32 642, label %3
    i32 643, label %3
    i32 645, label %3
    i32 646, label %3
    i32 647, label %3
    i32 648, label %3
    i32 649, label %3
    i32 650, label %3
    i32 651, label %3
    i32 661, label %3
    i32 662, label %3
    i32 663, label %3
    i32 664, label %3
    i32 665, label %3
    i32 666, label %3
    i32 667, label %3
    i32 668, label %3
    i32 669, label %3
    i32 670, label %3
    i32 671, label %3
    i32 672, label %3
    i32 673, label %3
    i32 674, label %3
    i32 675, label %3
    i32 676, label %3
    i32 677, label %3
    i32 679, label %3
    i32 680, label %3
    i32 685, label %3
    i32 686, label %3
    i32 687, label %3
    i32 688, label %3
    i32 689, label %3
    i32 691, label %3
    i32 694, label %3
    i32 695, label %3
    i32 696, label %3
    i32 697, label %3
    i32 698, label %3
    i32 699, label %3
    i32 700, label %3
    i32 701, label %3
    i32 707, label %3
    i32 710, label %3
    i32 711, label %3
    i32 712, label %3
    i32 713, label %3
    i32 714, label %3
    i32 715, label %3
    i32 716, label %3
    i32 717, label %3
    i32 718, label %3
    i32 719, label %3
    i32 720, label %3
    i32 721, label %3
    i32 722, label %3
    i32 723, label %3
    i32 724, label %3
    i32 725, label %3
    i32 726, label %3
    i32 727, label %3
    i32 728, label %3
    i32 729, label %3
    i32 730, label %3
    i32 731, label %3
    i32 732, label %3
    i32 733, label %3
    i32 734, label %3
    i32 735, label %3
    i32 736, label %3
    i32 737, label %3
    i32 738, label %3
    i32 739, label %3
    i32 740, label %3
    i32 741, label %3
    i32 742, label %3
    i32 743, label %3
    i32 744, label %3
    i32 745, label %3
    i32 748, label %3
    i32 750, label %3
    i32 758, label %3
    i32 759, label %3
    i32 760, label %3
    i32 761, label %3
    i32 762, label %3
    i32 763, label %3
    i32 764, label %3
    i32 765, label %3
    i32 766, label %3
    i32 767, label %3
    i32 768, label %3
    i32 770, label %3
    i32 772, label %3
    i32 773, label %3
    i32 778, label %3
    i32 780, label %3
    i32 781, label %3
    i32 782, label %3
    i32 783, label %3
    i32 784, label %3
    i32 785, label %3
    i32 786, label %3
    i32 787, label %3
    i32 791, label %3
    i32 798, label %3
    i32 799, label %3
    i32 801, label %3
    i32 802, label %3
    i32 804, label %3
    i32 806, label %3
    i32 807, label %3
    i32 808, label %3
    i32 809, label %3
    i32 810, label %3
    i32 811, label %3
    i32 812, label %3
    i32 813, label %3
    i32 816, label %3
    i32 817, label %3
    i32 818, label %3
    i32 830, label %3
    i32 831, label %3
    i32 832, label %3
    i32 835, label %3
    i32 836, label %3
    i32 837, label %3
    i32 838, label %3
    i32 843, label %3
    i32 845, label %3
    i32 850, label %3
    i32 851, label %3
    i32 853, label %3
    i32 854, label %3
    i32 855, label %3
    i32 856, label %3
    i32 857, label %3
    i32 858, label %3
    i32 859, label %3
    i32 860, label %3
    i32 861, label %3
    i32 862, label %3
    i32 863, label %3
    i32 864, label %3
    i32 865, label %3
    i32 866, label %3
    i32 867, label %3
    i32 868, label %3
    i32 869, label %3
    i32 870, label %3
    i32 871, label %3
    i32 873, label %3
    i32 876, label %3
    i32 879, label %3
    i32 880, label %3
    i32 881, label %3
    i32 882, label %3
    i32 883, label %3
    i32 884, label %3
    i32 885, label %3
    i32 892, label %3
    i32 893, label %3
    i32 894, label %3
    i32 895, label %3
    i32 896, label %3
    i32 897, label %3
    i32 898, label %3
    i32 899, label %3
    i32 900, label %3
    i32 901, label %3
    i32 902, label %3
    i32 903, label %3
    i32 904, label %3
    i32 905, label %3
    i32 906, label %3
    i32 907, label %3
    i32 908, label %3
    i32 909, label %3
    i32 910, label %3
    i32 911, label %3
    i32 912, label %3
    i32 913, label %3
    i32 914, label %3
    i32 915, label %3
    i32 917, label %3
    i32 918, label %3
    i32 919, label %3
    i32 921, label %3
    i32 922, label %3
    i32 923, label %3
    i32 924, label %3
    i32 926, label %3
    i32 927, label %3
    i32 928, label %3
    i32 929, label %3
    i32 930, label %3
    i32 931, label %3
    i32 932, label %3
    i32 933, label %3
    i32 934, label %3
    i32 936, label %3
    i32 937, label %3
    i32 938, label %3
    i32 939, label %3
    i32 940, label %3
    i32 946, label %3
    i32 947, label %3
    i32 948, label %3
    i32 949, label %3
    i32 950, label %3
    i32 951, label %3
    i32 952, label %3
    i32 953, label %3
    i32 954, label %3
    i32 955, label %3
    i32 956, label %3
    i32 960, label %3
    i32 961, label %3
    i32 962, label %3
    i32 963, label %3
    i32 966, label %3
    i32 969, label %3
    i32 970, label %3
    i32 971, label %3
    i32 972, label %3
    i32 973, label %3
    i32 974, label %3
    i32 975, label %3
    i32 976, label %3
    i32 977, label %3
    i32 978, label %3
    i32 979, label %3
    i32 981, label %3
    i32 982, label %3
    i32 983, label %3
    i32 987, label %3
    i32 988, label %3
    i32 989, label %3
    i32 990, label %3
    i32 993, label %3
    i32 994, label %3
    i32 997, label %3
    i32 998, label %3
    i32 999, label %3
    i32 1000, label %3
    i32 1001, label %3
    i32 1002, label %3
    i32 1003, label %3
    i32 1004, label %3
    i32 1005, label %3
    i32 1006, label %3
    i32 1007, label %3
    i32 1008, label %3
    i32 1009, label %3
    i32 1010, label %3
    i32 1011, label %3
    i32 1012, label %3
    i32 1013, label %3
    i32 1014, label %3
    i32 1015, label %3
    i32 1016, label %3
    i32 1017, label %3
    i32 1018, label %3
    i32 1019, label %3
    i32 1020, label %3
    i32 1021, label %3
    i32 1022, label %3
    i32 1023, label %3
    i32 1024, label %3
    i32 1025, label %3
    i32 1027, label %3
    i32 1028, label %3
    i32 1029, label %3
    i32 1030, label %3
    i32 1031, label %3
    i32 1032, label %3
    i32 1033, label %3
    i32 1035, label %3
    i32 1036, label %3
    i32 1037, label %3
    i32 1038, label %3
    i32 1039, label %3
    i32 1040, label %3
    i32 1041, label %3
    i32 1042, label %3
    i32 1044, label %3
    i32 1045, label %3
    i32 1046, label %3
    i32 1047, label %3
    i32 1049, label %3
    i32 1050, label %3
    i32 1051, label %3
    i32 1052, label %3
    i32 1053, label %3
    i32 1054, label %3
    i32 1055, label %3
    i32 1056, label %3
    i32 1057, label %3
    i32 1058, label %3
    i32 1059, label %3
    i32 1060, label %3
    i32 1062, label %3
    i32 1064, label %3
    i32 1065, label %3
    i32 1066, label %3
    i32 1067, label %3
    i32 1068, label %3
    i32 1069, label %3
    i32 1070, label %3
    i32 1071, label %3
    i32 1072, label %3
    i32 1074, label %3
    i32 1075, label %3
    i32 1076, label %3
    i32 1077, label %3
    i32 1078, label %3
    i32 1079, label %3
    i32 1080, label %3
    i32 1081, label %3
    i32 1082, label %3
    i32 1083, label %3
    i32 1084, label %3
    i32 1085, label %3
    i32 1086, label %3
    i32 1087, label %3
    i32 1088, label %3
    i32 1089, label %3
    i32 1090, label %3
    i32 1091, label %3
    i32 1092, label %3
    i32 1093, label %3
    i32 1096, label %3
    i32 1097, label %3
    i32 1098, label %3
    i32 1099, label %3
    i32 1100, label %3
    i32 1101, label %3
    i32 1102, label %3
    i32 1103, label %3
    i32 1104, label %3
    i32 1105, label %3
    i32 1106, label %3
    i32 1107, label %3
    i32 1108, label %3
    i32 1109, label %3
    i32 1110, label %3
    i32 1111, label %3
    i32 1114, label %3
    i32 1115, label %3
    i32 1116, label %3
    i32 1117, label %3
    i32 1118, label %3
    i32 1119, label %3
    i32 1123, label %3
    i32 1124, label %3
    i32 1125, label %3
    i32 1126, label %3
    i32 1127, label %3
    i32 1128, label %3
    i32 1129, label %3
    i32 1130, label %3
    i32 1131, label %3
    i32 1132, label %3
    i32 1133, label %3
    i32 1134, label %3
    i32 1135, label %3
    i32 1136, label %3
    i32 1137, label %3
    i32 1138, label %3
    i32 1139, label %3
    i32 1140, label %3
    i32 1141, label %3
    i32 1142, label %3
    i32 1143, label %3
    i32 1144, label %3
    i32 1145, label %3
    i32 1146, label %3
    i32 1147, label %3
    i32 1148, label %3
    i32 1149, label %3
    i32 1150, label %3
    i32 1151, label %3
    i32 1152, label %3
    i32 1153, label %3
    i32 1156, label %3
    i32 1157, label %3
    i32 1158, label %3
    i32 1159, label %3
    i32 1162, label %3
    i32 1166, label %3
    i32 1168, label %3
    i32 1169, label %3
    i32 1170, label %3
    i32 1171, label %3
    i32 1172, label %3
    i32 1173, label %3
    i32 1174, label %3
    i32 1176, label %3
    i32 1182, label %3
    i32 1183, label %3
    i32 1184, label %3
    i32 1186, label %3
    i32 1188, label %3
    i32 1190, label %3
    i32 1195, label %3
    i32 1196, label %3
    i32 1201, label %3
    i32 1221, label %3
    i32 1224, label %3
    i32 1227, label %3
    i32 1228, label %3
    i32 1229, label %3
    i32 1230, label %3
    i32 1231, label %3
    i32 1233, label %3
    i32 1234, label %3
    i32 1235, label %3
    i32 1236, label %3
    i32 1237, label %3
    i32 1238, label %3
    i32 1239, label %3
    i32 1240, label %3
    i32 1245, label %3
    i32 1246, label %3
    i32 1247, label %3
    i32 1248, label %3
    i32 1249, label %3
    i32 1250, label %3
    i32 1263, label %3
    i32 1265, label %3
    i32 1267, label %3
    i32 1268, label %3
    i32 1269, label %3
    i32 1270, label %3
    i32 1271, label %3
    i32 1272, label %3
    i32 1273, label %3
    i32 1275, label %3
    i32 1277, label %3
    i32 1278, label %3
    i32 1287, label %3
    i32 1288, label %3
    i32 1289, label %3
    i32 1290, label %3
    i32 1291, label %3
    i32 1292, label %3
    i32 1293, label %3
    i32 1294, label %3
    i32 1297, label %3
    i32 1298, label %3
    i32 1299, label %3
    i32 1300, label %3
    i32 1301, label %3
    i32 1302, label %3
    i32 1303, label %3
    i32 1304, label %3
    i32 1306, label %3
    i32 1307, label %3
    i32 1308, label %3
    i32 1309, label %3
    i32 1320, label %3
    i32 1321, label %3
    i32 1322, label %3
    i32 1325, label %3
    i32 1326, label %3
    i32 1327, label %3
    i32 1328, label %3
    i32 1329, label %3
    i32 1330, label %3
    i32 1331, label %3
    i32 1332, label %3
    i32 1333, label %3
    i32 1334, label %3
    i32 1335, label %3
    i32 1336, label %3
    i32 1337, label %3
    i32 1338, label %3
    i32 1342, label %3
    i32 1343, label %3
    i32 1344, label %3
    i32 1345, label %3
    i32 1346, label %3
    i32 1347, label %3
    i32 1351, label %3
    i32 1352, label %3
    i32 1353, label %3
    i32 1354, label %3
    i32 1356, label %3
    i32 1357, label %3
    i32 1358, label %3
    i32 1359, label %3
    i32 1360, label %3
    i32 1361, label %3
    i32 1362, label %3
    i32 1363, label %3
    i32 1364, label %3
    i32 1365, label %3
    i32 1366, label %3
    i32 1367, label %3
    i32 1368, label %3
    i32 1369, label %3
    i32 1370, label %3
    i32 1371, label %3
    i32 1375, label %3
    i32 1376, label %3
    i32 1377, label %3
    i32 1378, label %3
    i32 1383, label %3
    i32 1384, label %3
    i32 1385, label %3
    i32 1386, label %3
    i32 1389, label %3
    i32 1390, label %3
    i32 1391, label %3
    i32 1392, label %3
    i32 1393, label %3
    i32 1394, label %3
    i32 1395, label %3
    i32 1396, label %3
    i32 1397, label %3
    i32 1398, label %3
    i32 1400, label %3
    i32 1401, label %3
    i32 1402, label %3
    i32 1403, label %3
    i32 1404, label %3
    i32 1405, label %3
    i32 1406, label %3
    i32 1407, label %3
    i32 1408, label %3
    i32 1409, label %3
    i32 1410, label %3
    i32 1411, label %3
    i32 1412, label %3
    i32 1413, label %3
    i32 1414, label %3
    i32 1415, label %3
    i32 1416, label %3
    i32 1417, label %3
    i32 1418, label %3
    i32 1419, label %3
    i32 1421, label %3
    i32 1422, label %3
    i32 1423, label %3
    i32 1424, label %3
    i32 1425, label %3
    i32 1426, label %3
    i32 1427, label %3
    i32 1428, label %3
    i32 1429, label %3
    i32 1430, label %3
    i32 1431, label %3
    i32 1432, label %3
    i32 1433, label %3
    i32 1435, label %3
    i32 1436, label %3
    i32 1437, label %3
    i32 1438, label %3
    i32 1439, label %3
    i32 1440, label %3
    i32 1441, label %3
    i32 1442, label %3
    i32 1443, label %3
    i32 1444, label %3
    i32 1445, label %3
    i32 1446, label %3
    i32 1447, label %3
    i32 1448, label %3
    i32 1449, label %3
    i32 1450, label %3
    i32 1451, label %3
    i32 1452, label %3
    i32 1453, label %3
    i32 1454, label %3
    i32 1455, label %3
    i32 1456, label %3
    i32 1457, label %3
    i32 1458, label %3
    i32 1459, label %3
    i32 1460, label %3
    i32 1461, label %3
    i32 1462, label %3
    i32 1463, label %3
    i32 1464, label %3
    i32 1465, label %3
    i32 1466, label %3
    i32 1467, label %3
    i32 1468, label %3
    i32 1471, label %3
    i32 1472, label %3
    i32 1474, label %3
    i32 1475, label %3
    i32 1476, label %3
    i32 1477, label %3
    i32 1478, label %3
    i32 1479, label %3
    i32 1480, label %3
    i32 1481, label %3
    i32 1482, label %3
    i32 1483, label %3
    i32 1484, label %3
    i32 1485, label %3
    i32 1486, label %3
    i32 1487, label %3
    i32 1488, label %3
    i32 1489, label %3
    i32 1490, label %3
    i32 1491, label %3
    i32 1492, label %3
    i32 1493, label %3
    i32 1494, label %3
    i32 1495, label %3
    i32 1496, label %3
    i32 1497, label %3
    i32 1498, label %3
    i32 1499, label %3
    i32 1500, label %3
    i32 1501, label %3
    i32 1502, label %3
    i32 1503, label %3
    i32 1504, label %3
    i32 1505, label %3
    i32 1506, label %3
    i32 1507, label %3
    i32 1508, label %3
    i32 1519, label %3
    i32 1520, label %3
    i32 1521, label %3
    i32 1522, label %3
    i32 1523, label %3
    i32 1524, label %3
    i32 1525, label %3
    i32 1526, label %3
    i32 1527, label %3
    i32 1528, label %3
    i32 1529, label %3
    i32 1530, label %3
    i32 1531, label %3
    i32 1532, label %3
    i32 1533, label %3
    i32 1534, label %3
    i32 1535, label %3
    i32 1536, label %3
    i32 1539, label %3
    i32 1540, label %3
    i32 1541, label %3
    i32 1542, label %3
    i32 1543, label %3
    i32 1544, label %3
    i32 1545, label %3
    i32 1546, label %3
    i32 1548, label %3
    i32 1550, label %3
    i32 1551, label %3
    i32 1553, label %3
    i32 1554, label %3
    i32 1555, label %3
    i32 1556, label %3
    i32 1558, label %3
    i32 1581, label %3
    i32 1582, label %3
    i32 1583, label %3
    i32 1584, label %3
    i32 1585, label %3
    i32 1586, label %3
    i32 1589, label %3
    i32 1590, label %3
    i32 1591, label %3
    i32 1592, label %3
    i32 1593, label %3
    i32 1594, label %3
    i32 1595, label %3
    i32 1596, label %3
    i32 1597, label %3
    i32 1598, label %3
    i32 1599, label %3
    i32 1600, label %3
    i32 1601, label %3
    i32 1602, label %3
    i32 1603, label %3
    i32 1604, label %3
    i32 1605, label %3
    i32 1606, label %3
    i32 1615, label %3
    i32 1617, label %3
    i32 1618, label %3
    i32 1619, label %3
    i32 1620, label %3
    i32 1621, label %3
    i32 1622, label %3
    i32 1623, label %3
    i32 1624, label %3
    i32 1625, label %3
    i32 1626, label %3
    i32 1627, label %3
    i32 1628, label %3
    i32 1629, label %3
    i32 1630, label %3
    i32 1631, label %3
    i32 1632, label %3
    i32 1633, label %3
    i32 1634, label %3
    i32 1635, label %3
    i32 1636, label %3
    i32 1638, label %3
    i32 1639, label %3
    i32 1640, label %3
    i32 1641, label %3
    i32 1642, label %3
    i32 1643, label %3
    i32 1644, label %3
    i32 1646, label %3
    i32 1648, label %3
    i32 1649, label %3
    i32 1650, label %3
    i32 1651, label %3
    i32 1654, label %3
    i32 1656, label %3
    i32 1657, label %3
    i32 1658, label %3
    i32 1659, label %3
    i32 1660, label %3
    i32 1661, label %3
    i32 1662, label %3
    i32 1664, label %3
    i32 1665, label %3
    i32 1666, label %3
    i32 1667, label %3
    i32 1668, label %3
    i32 1669, label %3
    i32 1670, label %3
    i32 1671, label %3
    i32 1672, label %3
    i32 1673, label %3
    i32 1674, label %3
    i32 1675, label %3
    i32 1676, label %3
    i32 1677, label %3
    i32 1678, label %3
    i32 1679, label %3
    i32 1680, label %3
    i32 1681, label %3
    i32 1682, label %3
    i32 1683, label %3
    i32 1684, label %3
    i32 1685, label %3
    i32 1686, label %3
    i32 1687, label %3
    i32 1688, label %3
    i32 1689, label %3
    i32 1690, label %3
    i32 1692, label %3
    i32 1693, label %3
    i32 1696, label %3
    i32 1697, label %3
    i32 1698, label %3
    i32 1699, label %3
    i32 1700, label %3
    i32 1701, label %3
    i32 1702, label %3
    i32 1703, label %3
    i32 1704, label %3
    i32 1705, label %3
    i32 1706, label %3
    i32 1707, label %3
    i32 1708, label %3
    i32 1709, label %3
    i32 1710, label %3
    i32 1711, label %3
    i32 1712, label %3
    i32 1713, label %3
    i32 1714, label %3
    i32 1715, label %3
    i32 1716, label %3
    i32 1717, label %3
    i32 1718, label %3
    i32 1719, label %3
    i32 1720, label %3
    i32 1721, label %3
    i32 1722, label %3
    i32 1723, label %3
    i32 1724, label %3
    i32 1725, label %3
    i32 1726, label %3
    i32 1727, label %3
    i32 1728, label %3
    i32 1729, label %3
    i32 1730, label %3
    i32 1731, label %3
    i32 1732, label %3
    i32 1733, label %3
    i32 1734, label %3
    i32 1735, label %3
    i32 1736, label %3
    i32 1737, label %3
    i32 1738, label %3
    i32 1739, label %3
    i32 1740, label %3
    i32 1741, label %3
    i32 1742, label %3
    i32 1743, label %3
    i32 1744, label %3
    i32 1745, label %3
    i32 1746, label %3
    i32 1747, label %3
    i32 1748, label %3
    i32 1749, label %3
    i32 1750, label %3
    i32 1751, label %3
    i32 1752, label %3
    i32 1753, label %3
    i32 1754, label %3
    i32 1755, label %3
    i32 1756, label %3
    i32 1757, label %3
    i32 1758, label %3
    i32 1759, label %3
    i32 1760, label %3
    i32 1761, label %3
    i32 1762, label %3
    i32 1763, label %3
    i32 1764, label %3
    i32 1765, label %3
    i32 1766, label %3
    i32 1767, label %3
    i32 1777, label %3
    i32 1779, label %3
    i32 1780, label %3
    i32 1782, label %3
    i32 1783, label %3
    i32 1784, label %3
    i32 1785, label %3
    i32 1786, label %3
    i32 1787, label %3
    i32 1788, label %3
    i32 1789, label %3
    i32 1790, label %3
    i32 1791, label %3
    i32 1792, label %3
    i32 1797, label %3
    i32 1798, label %3
    i32 1799, label %3
    i32 1800, label %3
    i32 1802, label %3
    i32 1803, label %3
    i32 1804, label %3
    i32 1805, label %3
    i32 1806, label %3
    i32 1807, label %3
    i32 1808, label %3
    i32 1809, label %3
    i32 1810, label %3
    i32 1811, label %3
    i32 1812, label %3
    i32 1815, label %3
    i32 1816, label %3
    i32 1817, label %3
    i32 1823, label %3
    i32 1824, label %3
    i32 1825, label %3
    i32 1826, label %3
    i32 1827, label %3
    i32 1830, label %3
    i32 1831, label %3
    i32 1832, label %3
    i32 1833, label %3
    i32 1834, label %3
    i32 1835, label %3
    i32 1836, label %3
    i32 1837, label %3
    i32 1838, label %3
    i32 1839, label %3
    i32 1840, label %3
    i32 1841, label %3
    i32 1842, label %3
    i32 1843, label %3
    i32 1844, label %3
    i32 1845, label %3
    i32 1846, label %3
    i32 1847, label %3
    i32 1848, label %3
    i32 1849, label %3
    i32 1850, label %3
    i32 1851, label %3
    i32 1852, label %3
    i32 1853, label %3
    i32 1854, label %3
    i32 1855, label %3
    i32 1856, label %3
    i32 1857, label %3
    i32 1861, label %3
    i32 1862, label %3
    i32 1863, label %3
    i32 1864, label %3
    i32 1865, label %3
    i32 1866, label %3
    i32 1867, label %3
    i32 1869, label %3
    i32 1870, label %3
    i32 1871, label %3
    i32 1872, label %3
    i32 1873, label %3
    i32 1874, label %3
    i32 1875, label %3
    i32 1877, label %3
    i32 1878, label %3
    i32 1879, label %3
    i32 1882, label %3
    i32 1883, label %3
    i32 1884, label %3
    i32 1885, label %3
    i32 1886, label %3
    i32 1887, label %3
    i32 1888, label %3
    i32 1889, label %3
    i32 1890, label %3
    i32 1891, label %3
    i32 1892, label %3
    i32 1893, label %3
    i32 1894, label %3
    i32 1895, label %3
    i32 1896, label %3
    i32 1897, label %3
    i32 1898, label %3
    i32 1899, label %3
    i32 1900, label %3
    i32 1901, label %3
    i32 1902, label %3
    i32 1903, label %3
    i32 1904, label %3
    i32 1905, label %3
    i32 1906, label %3
    i32 1907, label %3
    i32 1908, label %3
    i32 1909, label %3
    i32 1910, label %3
    i32 1911, label %3
    i32 1912, label %3
    i32 1913, label %3
    i32 1914, label %3
    i32 1916, label %3
    i32 1918, label %3
    i32 1919, label %3
    i32 1920, label %3
    i32 1921, label %3
    i32 1922, label %3
    i32 1923, label %3
    i32 1924, label %3
    i32 1925, label %3
    i32 1926, label %3
    i32 1927, label %3
    i32 1928, label %3
    i32 1929, label %3
    i32 1930, label %3
    i32 1931, label %3
    i32 1932, label %3
    i32 1933, label %3
    i32 1934, label %3
    i32 1935, label %3
    i32 1936, label %3
    i32 1937, label %3
    i32 1938, label %3
    i32 1943, label %3
    i32 1944, label %3
    i32 1945, label %3
    i32 1946, label %3
    i32 1947, label %3
    i32 1948, label %3
    i32 1949, label %3
    i32 1950, label %3
    i32 1951, label %3
    i32 1952, label %3
    i32 1953, label %3
    i32 1954, label %3
    i32 1955, label %3
    i32 1956, label %3
    i32 1957, label %3
    i32 1958, label %3
    i32 1959, label %3
    i32 1961, label %3
    i32 1962, label %3
    i32 1963, label %3
    i32 1964, label %3
    i32 1965, label %3
    i32 1967, label %3
    i32 1968, label %3
    i32 1969, label %3
    i32 1970, label %3
    i32 1971, label %3
    i32 1972, label %3
    i32 1973, label %3
    i32 1974, label %3
    i32 1975, label %3
    i32 1977, label %3
    i32 1978, label %3
    i32 1979, label %3
    i32 1981, label %3
    i32 1982, label %3
    i32 1984, label %3
    i32 1989, label %3
    i32 1990, label %3
    i32 1991, label %3
    i32 1992, label %3
    i32 1993, label %3
    i32 1995, label %3
    i32 1996, label %3
    i32 1997, label %3
    i32 2000, label %3
    i32 2001, label %3
    i32 2007, label %3
    i32 2008, label %3
    i32 2010, label %3
    i32 2012, label %3
    i32 2013, label %3
    i32 2014, label %3
    i32 2015, label %3
    i32 2016, label %3
    i32 2017, label %3
    i32 2018, label %3
    i32 2019, label %3
    i32 2020, label %3
    i32 2021, label %3
    i32 2022, label %3
    i32 2023, label %3
    i32 2025, label %3
    i32 2026, label %3
    i32 2027, label %3
    i32 2028, label %3
    i32 2029, label %3
    i32 2030, label %3
    i32 2031, label %3
    i32 2032, label %3
    i32 2033, label %3
    i32 2034, label %3
    i32 2035, label %3
    i32 2036, label %3
    i32 2037, label %3
    i32 2038, label %3
    i32 2039, label %3
    i32 2040, label %3
    i32 2041, label %3
    i32 2042, label %3
    i32 2043, label %3
    i32 2044, label %3
    i32 2045, label %3
    i32 2046, label %3
    i32 2047, label %3
    i32 2048, label %3
    i32 2049, label %3
    i32 2050, label %3
    i32 2051, label %3
    i32 2052, label %3
    i32 2053, label %3
    i32 2054, label %3
    i32 2060, label %3
    i32 2061, label %3
    i32 2062, label %3
    i32 2063, label %3
    i32 2064, label %3
    i32 2065, label %3
    i32 2066, label %3
    i32 2069, label %3
    i32 2070, label %3
    i32 2071, label %3
    i32 2072, label %3
    i32 2073, label %3
    i32 2074, label %3
    i32 2075, label %3
    i32 2076, label %3
    i32 2077, label %3
    i32 2078, label %3
    i32 2079, label %3
    i32 2080, label %3
    i32 2081, label %3
    i32 2082, label %3
    i32 2083, label %3
    i32 2084, label %3
    i32 2085, label %3
    i32 2086, label %3
    i32 2087, label %3
    i32 2089, label %3
    i32 2090, label %3
    i32 2091, label %3
    i32 2092, label %3
    i32 2093, label %3
    i32 2094, label %3
    i32 2095, label %3
    i32 2096, label %3
    i32 2097, label %3
    i32 2098, label %3
    i32 2099, label %3
    i32 2100, label %3
    i32 2101, label %3
    i32 2102, label %3
    i32 2103, label %3
    i32 2104, label %3
    i32 2105, label %3
    i32 2106, label %3
    i32 2107, label %3
    i32 2108, label %3
    i32 2109, label %3
    i32 2110, label %3
    i32 2111, label %3
    i32 2112, label %3
    i32 2113, label %3
    i32 2114, label %3
    i32 2115, label %3
    i32 2116, label %3
    i32 2117, label %3
    i32 2118, label %3
    i32 2119, label %3
    i32 2121, label %3
    i32 2122, label %3
    i32 2123, label %3
    i32 2124, label %3
    i32 2125, label %3
    i32 2126, label %3
    i32 2127, label %3
    i32 2128, label %3
    i32 2129, label %3
    i32 2130, label %3
    i32 2131, label %3
    i32 2132, label %3
    i32 2133, label %3
    i32 2134, label %3
    i32 2135, label %3
    i32 2136, label %3
    i32 2137, label %3
    i32 2138, label %3
    i32 2139, label %3
    i32 2140, label %3
    i32 2141, label %3
    i32 2142, label %3
    i32 2143, label %3
    i32 2144, label %3
    i32 2145, label %3
    i32 2146, label %3
    i32 2157, label %3
    i32 2162, label %3
    i32 2163, label %3
    i32 2164, label %3
    i32 2165, label %3
    i32 2166, label %3
    i32 2167, label %3
    i32 2168, label %3
    i32 2169, label %3
    i32 2170, label %3
    i32 2171, label %3
    i32 2172, label %3
    i32 2173, label %3
    i32 2174, label %3
    i32 2175, label %3
    i32 2176, label %3
    i32 2188, label %3
    i32 2189, label %3
    i32 2190, label %3
    i32 2191, label %3
    i32 2192, label %3
    i32 2194, label %3
    i32 2195, label %3
    i32 2196, label %3
    i32 2197, label %3
    i32 2198, label %3
    i32 2199, label %3
    i32 2200, label %3
    i32 2201, label %3
    i32 2203, label %3
    i32 2204, label %3
    i32 2205, label %3
    i32 2206, label %3
    i32 2207, label %3
    i32 2208, label %3
    i32 2209, label %3
    i32 2210, label %3
    i32 2214, label %3
    i32 2215, label %3
    i32 2217, label %3
    i32 2218, label %3
    i32 2219, label %3
    i32 2220, label %3
    i32 2221, label %3
    i32 2222, label %3
    i32 2223, label %3
    i32 2224, label %3
    i32 2225, label %3
    i32 2226, label %3
    i32 2227, label %3
    i32 2228, label %3
    i32 2229, label %3
    i32 2230, label %3
    i32 2232, label %3
    i32 2236, label %3
    i32 2237, label %3
    i32 2238, label %3
    i32 2239, label %3
    i32 2240, label %3
    i32 2241, label %3
    i32 2242, label %3
    i32 2243, label %3
    i32 2244, label %3
    i32 2247, label %3
    i32 2248, label %3
    i32 2249, label %3
    i32 2250, label %3
    i32 2251, label %3
    i32 2252, label %3
    i32 2253, label %3
    i32 2254, label %3
    i32 2255, label %3
    i32 2256, label %3
    i32 2257, label %3
    i32 2258, label %3
    i32 2259, label %3
    i32 2260, label %3
    i32 2261, label %3
    i32 2262, label %3
    i32 2263, label %3
    i32 2264, label %3
    i32 2265, label %3
    i32 2266, label %3
    i32 2267, label %3
    i32 2268, label %3
    i32 2269, label %3
    i32 2270, label %3
    i32 2271, label %3
    i32 2272, label %3
    i32 2273, label %3
    i32 2274, label %3
    i32 2275, label %3
    i32 2276, label %3
    i32 2277, label %3
    i32 2278, label %3
    i32 2279, label %3
    i32 2280, label %3
    i32 2281, label %3
    i32 2282, label %3
    i32 2283, label %3
    i32 2284, label %3
    i32 2285, label %3
    i32 2286, label %3
    i32 2287, label %3
    i32 2288, label %3
    i32 2289, label %3
    i32 2290, label %3
    i32 2291, label %3
    i32 2292, label %3
    i32 2293, label %3
    i32 2294, label %3
    i32 2295, label %3
    i32 2297, label %3
    i32 2298, label %3
    i32 2299, label %3
    i32 2300, label %3
    i32 2301, label %3
    i32 2302, label %3
    i32 2303, label %3
    i32 2304, label %3
    i32 2305, label %3
    i32 2306, label %3
    i32 2307, label %3
    i32 2308, label %3
    i32 2309, label %3
    i32 2310, label %3
    i32 2311, label %3
    i32 2312, label %3
    i32 2313, label %3
    i32 2314, label %3
    i32 2315, label %3
    i32 2316, label %3
    i32 2317, label %3
    i32 2318, label %3
    i32 2319, label %3
    i32 2320, label %3
    i32 2321, label %3
    i32 2322, label %3
    i32 2323, label %3
    i32 2324, label %3
    i32 2325, label %3
    i32 2326, label %3
    i32 2328, label %3
    i32 2329, label %3
    i32 2330, label %3
    i32 2331, label %3
    i32 2332, label %3
    i32 2333, label %3
    i32 2334, label %3
    i32 2346, label %3
    i32 2347, label %3
    i32 2348, label %3
    i32 2349, label %3
    i32 2350, label %3
    i32 2351, label %3
    i32 2352, label %3
    i32 2353, label %3
    i32 2354, label %3
    i32 2355, label %3
    i32 2356, label %3
    i32 2357, label %3
    i32 2358, label %3
    i32 2359, label %3
    i32 2360, label %3
    i32 2361, label %3
    i32 2362, label %3
    i32 2363, label %3
    i32 2364, label %3
    i32 2365, label %3
    i32 2366, label %3
    i32 2367, label %3
    i32 2369, label %3
    i32 2370, label %3
    i32 2371, label %3
    i32 2372, label %3
    i32 2373, label %3
    i32 2375, label %3
    i32 2376, label %3
    i32 2378, label %3
    i32 2379, label %3
    i32 2380, label %3
    i32 2381, label %3
    i32 2382, label %3
    i32 2383, label %3
    i32 2384, label %3
    i32 2385, label %3
    i32 2386, label %3
    i32 2387, label %3
    i32 2388, label %3
    i32 2389, label %3
    i32 2390, label %3
    i32 2391, label %3
    i32 2392, label %3
    i32 2393, label %3
    i32 2394, label %3
    i32 2395, label %3
    i32 2396, label %3
    i32 2397, label %3
    i32 2398, label %3
    i32 2399, label %3
    i32 2400, label %3
    i32 2401, label %3
    i32 2402, label %3
    i32 2403, label %3
    i32 2404, label %3
    i32 2405, label %3
    i32 2406, label %3
    i32 2407, label %3
    i32 2408, label %3
    i32 2409, label %3
    i32 2410, label %3
    i32 2411, label %3
    i32 2412, label %3
    i32 2413, label %3
    i32 2414, label %3
    i32 2415, label %3
    i32 2416, label %3
    i32 2417, label %3
    i32 2418, label %3
    i32 2419, label %3
    i32 2420, label %3
    i32 2421, label %3
    i32 2422, label %3
    i32 2423, label %3
    i32 2424, label %3
    i32 2425, label %3
    i32 2426, label %3
    i32 2427, label %3
    i32 2428, label %3
    i32 2429, label %3
    i32 2430, label %3
    i32 2431, label %3
    i32 2432, label %3
    i32 2434, label %3
    i32 2436, label %3
    i32 2437, label %3
    i32 2438, label %3
    i32 2439, label %3
    i32 2440, label %3
    i32 2441, label %3
    i32 2442, label %3
    i32 2443, label %3
    i32 2444, label %3
    i32 2445, label %3
    i32 2446, label %3
    i32 2447, label %3
    i32 2448, label %3
    i32 2449, label %3
    i32 2450, label %3
    i32 2451, label %3
    i32 2452, label %3
    i32 2453, label %3
    i32 2454, label %3
    i32 2455, label %3
    i32 2456, label %3
    i32 2457, label %3
    i32 2458, label %3
    i32 2459, label %3
    i32 2460, label %3
    i32 2461, label %3
    i32 2462, label %3
    i32 2463, label %3
    i32 2465, label %3
    i32 2466, label %3
    i32 2467, label %3
    i32 2468, label %3
    i32 2469, label %3
    i32 2470, label %3
    i32 2471, label %3
    i32 2472, label %3
    i32 2473, label %3
    i32 2474, label %3
    i32 2475, label %3
    i32 2476, label %3
    i32 2477, label %3
    i32 2478, label %3
    i32 2479, label %3
    i32 2480, label %3
    i32 2483, label %3
    i32 2484, label %3
    i32 2485, label %3
    i32 2486, label %3
    i32 2487, label %3
    i32 2488, label %3
    i32 2489, label %3
    i32 2490, label %3
    i32 2491, label %3
    i32 2492, label %3
    i32 2493, label %3
    i32 2494, label %3
    i32 2495, label %3
    i32 2496, label %3
    i32 2497, label %3
    i32 2498, label %3
    i32 2499, label %3
    i32 2500, label %3
    i32 2507, label %3
    i32 2508, label %3
    i32 2509, label %3
    i32 2510, label %3
    i32 2511, label %3
    i32 2512, label %3
    i32 2513, label %3
    i32 2514, label %3
    i32 2515, label %3
    i32 2516, label %3
    i32 2517, label %3
    i32 2518, label %3
    i32 2519, label %3
    i32 2520, label %3
    i32 2521, label %3
    i32 2522, label %3
    i32 2523, label %3
    i32 2524, label %3
    i32 2525, label %3
    i32 2526, label %3
    i32 2527, label %3
    i32 2529, label %3
    i32 2530, label %3
    i32 2531, label %3
    i32 2532, label %3
    i32 2533, label %3
    i32 2536, label %3
    i32 2537, label %3
    i32 2538, label %3
    i32 2539, label %3
    i32 2540, label %3
    i32 2541, label %3
    i32 2542, label %3
    i32 2543, label %3
    i32 2544, label %3
    i32 2545, label %3
    i32 2546, label %3
    i32 2547, label %3
    i32 2548, label %3
    i32 2549, label %3
    i32 2550, label %3
    i32 2551, label %3
    i32 2552, label %3
    i32 2553, label %3
    i32 2554, label %3
    i32 2557, label %3
    i32 2558, label %3
    i32 2559, label %3
    i32 2561, label %3
    i32 2563, label %3
    i32 2565, label %3
    i32 2567, label %3
    i32 2568, label %3
    i32 2570, label %3
    i32 2572, label %3
    i32 2574, label %3
    i32 2576, label %3
    i32 2578, label %3
    i32 2580, label %3
    i32 2582, label %3
    i32 2584, label %3
    i32 2586, label %3
    i32 2589, label %3
    i32 2590, label %3
    i32 2591, label %3
    i32 2592, label %3
    i32 2593, label %3
    i32 2594, label %3
    i32 2595, label %3
    i32 2596, label %3
    i32 2597, label %3
    i32 2598, label %3
    i32 2599, label %3
    i32 2600, label %3
    i32 2601, label %3
    i32 2602, label %3
    i32 2603, label %3
    i32 2604, label %3
    i32 2605, label %3
    i32 2606, label %3
    i32 2607, label %3
    i32 2608, label %3
    i32 2609, label %3
    i32 2610, label %3
    i32 2611, label %3
    i32 2612, label %3
    i32 2613, label %3
    i32 2614, label %3
    i32 2615, label %3
    i32 2616, label %3
    i32 2617, label %3
    i32 2618, label %3
    i32 2619, label %3
    i32 2620, label %3
    i32 2621, label %3
    i32 2622, label %3
    i32 2623, label %3
    i32 2624, label %3
    i32 2625, label %3
    i32 2626, label %3
    i32 2627, label %3
    i32 2628, label %3
    i32 2629, label %3
    i32 2630, label %3
    i32 2631, label %3
    i32 2634, label %3
    i32 2635, label %3
    i32 2636, label %3
    i32 2637, label %3
    i32 2638, label %3
    i32 2639, label %3
    i32 2640, label %3
    i32 2641, label %3
    i32 2642, label %3
    i32 2643, label %3
    i32 2644, label %3
    i32 2648, label %3
    i32 2649, label %3
    i32 2650, label %3
    i32 2651, label %3
    i32 2653, label %3
    i32 2654, label %3
    i32 2655, label %3
    i32 2656, label %3
    i32 2657, label %3
    i32 2658, label %3
    i32 2659, label %3
    i32 2660, label %3
    i32 2661, label %3
    i32 2662, label %3
    i32 2663, label %3
    i32 2664, label %3
    i32 2665, label %3
    i32 2666, label %3
    i32 2667, label %3
    i32 2668, label %3
    i32 2669, label %3
    i32 2670, label %3
    i32 2671, label %3
    i32 2672, label %3
    i32 2673, label %3
    i32 2674, label %3
    i32 2675, label %3
    i32 2676, label %3
    i32 2677, label %3
    i32 2678, label %3
    i32 2679, label %3
    i32 2680, label %3
    i32 2681, label %3
    i32 2682, label %3
    i32 2683, label %3
    i32 2684, label %3
    i32 2685, label %3
    i32 2686, label %3
    i32 2687, label %3
    i32 2688, label %3
    i32 2689, label %3
    i32 2690, label %3
    i32 2691, label %3
    i32 2692, label %3
    i32 2693, label %3
    i32 2694, label %3
    i32 2695, label %3
    i32 2696, label %3
    i32 2697, label %3
    i32 2698, label %3
    i32 2699, label %3
    i32 2700, label %3
    i32 2701, label %3
    i32 2702, label %3
    i32 2703, label %3
    i32 2704, label %3
    i32 2705, label %3
    i32 2706, label %3
    i32 2707, label %3
    i32 2708, label %3
    i32 2709, label %3
    i32 2710, label %3
    i32 2711, label %3
    i32 2712, label %3
    i32 2713, label %3
    i32 2714, label %3
    i32 2715, label %3
    i32 2716, label %3
    i32 2717, label %3
    i32 2718, label %3
    i32 2719, label %3
    i32 2720, label %3
    i32 2721, label %3
    i32 2722, label %3
    i32 2723, label %3
    i32 2724, label %3
    i32 2725, label %3
    i32 2726, label %3
    i32 2727, label %3
    i32 2728, label %3
    i32 2729, label %3
    i32 2730, label %3
    i32 2731, label %3
    i32 2733, label %3
    i32 2734, label %3
    i32 2735, label %3
    i32 2736, label %3
    i32 2737, label %3
    i32 2738, label %3
    i32 2739, label %3
    i32 2740, label %3
    i32 2741, label %3
    i32 2742, label %3
    i32 2743, label %3
    i32 2744, label %3
    i32 2745, label %3
    i32 2746, label %3
    i32 2747, label %3
    i32 2748, label %3
    i32 2749, label %3
    i32 2750, label %3
    i32 2751, label %3
    i32 2752, label %3
    i32 2753, label %3
    i32 2754, label %3
    i32 2755, label %3
    i32 2756, label %3
    i32 2757, label %3
    i32 2758, label %3
    i32 2759, label %3
    i32 2760, label %3
    i32 2761, label %3
    i32 2762, label %3
    i32 2763, label %3
    i32 2764, label %3
    i32 2765, label %3
    i32 2766, label %3
    i32 2767, label %3
    i32 2768, label %3
    i32 2769, label %3
    i32 2770, label %3
    i32 2771, label %3
    i32 2772, label %3
    i32 2776, label %3
    i32 2777, label %3
    i32 2778, label %3
    i32 2779, label %3
    i32 2780, label %3
    i32 2781, label %3
    i32 2782, label %3
    i32 2783, label %3
    i32 2785, label %3
    i32 2786, label %3
    i32 2787, label %3
    i32 2789, label %3
    i32 2790, label %3
    i32 2791, label %3
    i32 2792, label %3
    i32 2793, label %3
    i32 2794, label %3
    i32 2795, label %3
    i32 2812, label %3
    i32 2813, label %3
    i32 2814, label %3
    i32 2815, label %3
    i32 2816, label %3
    i32 2818, label %3
    i32 2819, label %3
    i32 2820, label %3
    i32 2821, label %3
    i32 2823, label %3
    i32 2826, label %3
    i32 2827, label %3
    i32 2829, label %3
    i32 2830, label %3
    i32 2831, label %3
    i32 2832, label %3
    i32 2833, label %3
    i32 2834, label %3
    i32 2835, label %3
    i32 2836, label %3
    i32 2837, label %3
    i32 2838, label %3
    i32 2839, label %3
    i32 2841, label %3
    i32 2842, label %3
    i32 2843, label %3
    i32 2844, label %3
    i32 2845, label %3
    i32 2846, label %3
    i32 2847, label %3
    i32 2848, label %3
    i32 2849, label %3
    i32 2850, label %3
    i32 2851, label %3
    i32 2852, label %3
    i32 2853, label %3
    i32 2854, label %3
    i32 2855, label %3
    i32 2856, label %3
    i32 2857, label %3
    i32 2858, label %3
    i32 2859, label %3
    i32 2860, label %3
    i32 2861, label %3
    i32 2862, label %3
    i32 2863, label %3
    i32 2864, label %3
    i32 2865, label %3
    i32 2866, label %3
    i32 2867, label %3
    i32 2868, label %3
    i32 2869, label %3
    i32 2870, label %3
    i32 2871, label %3
    i32 2872, label %3
    i32 2873, label %3
    i32 2874, label %3
    i32 2875, label %3
    i32 2876, label %3
    i32 2877, label %3
    i32 2878, label %3
    i32 2879, label %3
    i32 2880, label %3
    i32 2881, label %3
    i32 2882, label %3
    i32 2883, label %3
    i32 2884, label %3
    i32 2885, label %3
    i32 2886, label %3
    i32 2887, label %3
    i32 2888, label %3
    i32 2889, label %3
    i32 2890, label %3
    i32 2891, label %3
    i32 2892, label %3
    i32 2893, label %3
    i32 2894, label %3
    i32 2895, label %3
    i32 2896, label %3
    i32 2897, label %3
    i32 2898, label %3
    i32 2899, label %3
    i32 2900, label %3
    i32 2901, label %3
    i32 2902, label %3
    i32 2903, label %3
    i32 2904, label %3
    i32 2906, label %3
    i32 2907, label %3
    i32 2908, label %3
    i32 2909, label %3
    i32 2910, label %3
    i32 2911, label %3
    i32 2912, label %3
    i32 2913, label %3
    i32 2914, label %3
    i32 2915, label %3
    i32 2916, label %3
    i32 2917, label %3
    i32 2918, label %3
    i32 2919, label %3
    i32 2920, label %3
    i32 2922, label %3
    i32 2923, label %3
    i32 2924, label %3
    i32 2925, label %3
    i32 2927, label %3
    i32 2928, label %3
    i32 2929, label %3
    i32 2930, label %3
    i32 2931, label %3
    i32 2932, label %3
    i32 2933, label %3
    i32 2934, label %3
    i32 2935, label %3
    i32 2936, label %3
    i32 2937, label %3
    i32 2938, label %3
    i32 2939, label %3
    i32 2940, label %3
    i32 2941, label %3
    i32 2942, label %3
    i32 2943, label %3
    i32 2944, label %3
    i32 2945, label %3
    i32 2946, label %3
    i32 2947, label %3
    i32 2949, label %3
    i32 2951, label %3
    i32 2952, label %3
    i32 2953, label %3
    i32 2954, label %3
    i32 2955, label %3
    i32 2956, label %3
    i32 2957, label %3
    i32 2958, label %3
    i32 2959, label %3
    i32 2960, label %3
    i32 2961, label %3
    i32 2962, label %3
    i32 2971, label %3
    i32 2972, label %3
    i32 2973, label %3
    i32 2974, label %3
    i32 2975, label %3
    i32 2976, label %3
    i32 2977, label %3
    i32 2978, label %3
    i32 2979, label %3
    i32 2981, label %3
    i32 2982, label %3
    i32 2983, label %3
    i32 2984, label %3
    i32 2985, label %3
    i32 2986, label %3
    i32 2987, label %3
    i32 2988, label %3
    i32 2989, label %3
    i32 2990, label %3
    i32 2991, label %3
    i32 2992, label %3
    i32 2993, label %3
    i32 2994, label %3
    i32 2995, label %3
    i32 2996, label %3
    i32 2997, label %3
    i32 2998, label %3
    i32 2999, label %3
    i32 3000, label %3
    i32 3001, label %3
    i32 3002, label %3
    i32 3003, label %3
    i32 3004, label %3
    i32 3005, label %3
    i32 3006, label %3
    i32 3007, label %3
    i32 3008, label %3
    i32 3009, label %3
    i32 3012, label %3
    i32 3013, label %3
    i32 3014, label %3
    i32 3015, label %3
    i32 3016, label %3
    i32 3017, label %3
    i32 3018, label %3
    i32 3019, label %3
    i32 3020, label %3
    i32 3021, label %3
    i32 3022, label %3
    i32 3023, label %3
    i32 3024, label %3
    i32 3025, label %3
    i32 3026, label %3
    i32 3027, label %3
    i32 3028, label %3
    i32 3029, label %3
    i32 3030, label %3
    i32 3032, label %3
    i32 3033, label %3
    i32 3034, label %3
    i32 3035, label %3
    i32 3036, label %3
    i32 3037, label %3
    i32 3038, label %3
    i32 3039, label %3
    i32 3040, label %3
    i32 3041, label %3
    i32 3042, label %3
    i32 3043, label %3
    i32 3044, label %3
    i32 3046, label %3
    i32 3047, label %3
    i32 3048, label %3
    i32 3049, label %3
    i32 3050, label %3
    i32 3051, label %3
    i32 3052, label %3
    i32 3053, label %3
    i32 3054, label %3
    i32 3055, label %3
    i32 3056, label %3
    i32 3057, label %3
    i32 3058, label %3
    i32 3059, label %3
    i32 3060, label %3
    i32 3061, label %3
    i32 3062, label %3
    i32 3063, label %3
    i32 3064, label %3
    i32 3065, label %3
    i32 3066, label %3
    i32 3067, label %3
    i32 3068, label %3
    i32 3069, label %3
    i32 3070, label %3
    i32 3071, label %3
    i32 3072, label %3
    i32 3073, label %3
    i32 3074, label %3
    i32 3075, label %3
    i32 3076, label %3
    i32 3077, label %3
    i32 3078, label %3
    i32 3079, label %3
    i32 3080, label %3
    i32 3081, label %3
    i32 3082, label %3
    i32 3083, label %3
    i32 3084, label %3
    i32 3085, label %3
    i32 3086, label %3
    i32 3087, label %3
    i32 3088, label %3
    i32 3089, label %3
    i32 3090, label %3
    i32 3091, label %3
    i32 3092, label %3
    i32 3093, label %3
    i32 3094, label %3
    i32 3095, label %3
    i32 3096, label %3
    i32 3097, label %3
    i32 3098, label %3
    i32 3099, label %3
    i32 3100, label %3
    i32 3101, label %3
    i32 3102, label %3
    i32 3103, label %3
    i32 3104, label %3
    i32 3105, label %3
    i32 3106, label %3
    i32 3107, label %3
    i32 3108, label %3
    i32 3109, label %3
    i32 3110, label %3
    i32 3111, label %3
    i32 3112, label %3
    i32 3113, label %3
    i32 3114, label %3
    i32 3115, label %3
    i32 3116, label %3
    i32 3117, label %3
    i32 3118, label %3
    i32 3119, label %3
    i32 3120, label %3
    i32 3121, label %3
    i32 3122, label %3
    i32 3123, label %3
    i32 3124, label %3
    i32 3125, label %3
    i32 3126, label %3
    i32 3127, label %3
    i32 3128, label %3
    i32 3129, label %3
    i32 3130, label %3
    i32 3131, label %3
    i32 3132, label %3
    i32 3133, label %3
    i32 3134, label %3
    i32 3135, label %3
    i32 3136, label %3
    i32 3137, label %3
    i32 3138, label %3
    i32 3139, label %3
    i32 3140, label %3
    i32 3141, label %3
    i32 3142, label %3
    i32 3143, label %3
    i32 3144, label %3
    i32 3145, label %3
    i32 3146, label %3
    i32 3147, label %3
    i32 3148, label %3
    i32 3149, label %3
    i32 3150, label %3
    i32 3151, label %3
    i32 3152, label %3
    i32 3153, label %3
    i32 3154, label %3
    i32 3155, label %3
    i32 3157, label %3
    i32 3158, label %3
    i32 3159, label %3
    i32 3160, label %3
    i32 3161, label %3
    i32 3162, label %3
    i32 3163, label %3
    i32 3164, label %3
    i32 3165, label %3
    i32 3166, label %3
    i32 3167, label %3
    i32 3168, label %3
    i32 3169, label %3
    i32 3170, label %3
    i32 3171, label %3
    i32 3172, label %3
    i32 3173, label %3
    i32 3174, label %3
    i32 3175, label %3
    i32 3176, label %3
    i32 3177, label %3
    i32 3178, label %3
    i32 3179, label %3
    i32 3180, label %3
    i32 3181, label %3
    i32 3182, label %3
    i32 3183, label %3
    i32 3184, label %3
    i32 3185, label %3
    i32 3186, label %3
    i32 3187, label %3
    i32 3188, label %3
    i32 3189, label %3
    i32 3190, label %3
    i32 3191, label %3
    i32 3192, label %3
    i32 3193, label %3
    i32 3194, label %3
    i32 3195, label %3
    i32 3196, label %3
    i32 3197, label %3
    i32 3198, label %3
    i32 3199, label %3
    i32 3200, label %3
    i32 3202, label %3
    i32 3203, label %3
    i32 3206, label %3
    i32 3207, label %3
    i32 3211, label %3
    i32 3212, label %3
    i32 3214, label %3
    i32 3215, label %3
    i32 3217, label %3
    i32 3219, label %3
    i32 3220, label %3
    i32 3221, label %3
    i32 3222, label %3
    i32 3224, label %3
    i32 3225, label %3
    i32 3226, label %3
    i32 3227, label %3
    i32 3228, label %3
    i32 3229, label %3
    i32 3230, label %3
    i32 3231, label %3
    i32 3232, label %3
    i32 3233, label %3
    i32 3234, label %3
    i32 3235, label %3
    i32 3236, label %3
    i32 3237, label %3
    i32 3238, label %3
    i32 3239, label %3
    i32 3240, label %3
    i32 3241, label %3
    i32 3242, label %3
    i32 3243, label %3
    i32 3244, label %3
    i32 3245, label %3
    i32 3246, label %3
    i32 3247, label %3
    i32 3248, label %3
    i32 3249, label %3
    i32 3250, label %3
    i32 3251, label %3
    i32 3252, label %3
    i32 3253, label %3
    i32 3254, label %3
    i32 3255, label %3
    i32 3256, label %3
    i32 3257, label %3
    i32 3258, label %3
    i32 3259, label %3
    i32 3260, label %3
    i32 3261, label %3
    i32 3262, label %3
    i32 3263, label %3
    i32 3264, label %3
    i32 3265, label %3
    i32 3266, label %3
    i32 3267, label %3
    i32 3268, label %3
    i32 3269, label %3
    i32 3270, label %3
    i32 3271, label %3
    i32 3272, label %3
    i32 3273, label %3
    i32 3274, label %3
    i32 3275, label %3
    i32 3276, label %3
    i32 3277, label %3
    i32 3278, label %3
    i32 3279, label %3
    i32 3280, label %3
    i32 3281, label %3
    i32 3282, label %3
    i32 3283, label %3
    i32 3284, label %3
    i32 3285, label %3
    i32 3286, label %3
    i32 3287, label %3
    i32 3288, label %3
    i32 3289, label %3
    i32 3290, label %3
    i32 3291, label %3
    i32 3292, label %3
    i32 3293, label %3
    i32 3294, label %3
    i32 3295, label %3
    i32 3296, label %3
    i32 3297, label %3
    i32 3298, label %3
    i32 3299, label %3
    i32 3300, label %3
    i32 3301, label %3
    i32 3302, label %3
    i32 3303, label %3
    i32 3304, label %3
    i32 3305, label %3
    i32 3306, label %3
    i32 3307, label %3
    i32 3308, label %3
    i32 3309, label %3
    i32 3310, label %3
    i32 3311, label %3
    i32 3312, label %3
    i32 3313, label %3
    i32 3314, label %3
    i32 3315, label %3
    i32 3318, label %3
    i32 3319, label %3
    i32 3320, label %3
    i32 3321, label %3
    i32 3322, label %3
    i32 3323, label %3
    i32 3324, label %3
    i32 3325, label %3
    i32 3326, label %3
    i32 3327, label %3
    i32 3328, label %3
    i32 3329, label %3
    i32 3330, label %3
    i32 3331, label %3
    i32 3332, label %3
    i32 3333, label %3
    i32 3334, label %3
    i32 3335, label %3
    i32 3336, label %3
    i32 3338, label %3
    i32 3339, label %3
    i32 3340, label %3
    i32 3341, label %3
    i32 3342, label %3
    i32 3344, label %3
    i32 3345, label %3
    i32 3346, label %3
    i32 3347, label %3
    i32 3348, label %3
    i32 3349, label %3
    i32 3350, label %3
    i32 3351, label %3
    i32 3352, label %3
    i32 3353, label %3
    i32 3354, label %3
    i32 3355, label %3
    i32 3359, label %3
    i32 3360, label %3
    i32 3361, label %3
    i32 3362, label %3
    i32 3363, label %3
    i32 3364, label %3
    i32 3365, label %3
    i32 3366, label %3
    i32 3367, label %3
    i32 3368, label %3
    i32 3369, label %3
    i32 3370, label %3
    i32 3371, label %3
    i32 3372, label %3
    i32 3373, label %3
    i32 3374, label %3
    i32 3375, label %3
    i32 3376, label %3
    i32 3377, label %3
    i32 3378, label %3
    i32 3379, label %3
    i32 3380, label %3
    i32 3381, label %3
    i32 3382, label %3
    i32 3383, label %3
    i32 3384, label %3
    i32 3385, label %3
    i32 3386, label %3
    i32 3387, label %3
    i32 3388, label %3
    i32 3389, label %3
    i32 3390, label %3
    i32 3391, label %3
    i32 3392, label %3
    i32 3393, label %3
    i32 3394, label %3
    i32 3395, label %3
    i32 3396, label %3
    i32 3397, label %3
    i32 3398, label %3
    i32 3399, label %3
    i32 3400, label %3
    i32 3401, label %3
    i32 3402, label %3
    i32 3403, label %3
    i32 3404, label %3
    i32 3405, label %3
    i32 3406, label %3
    i32 3407, label %3
    i32 3408, label %3
    i32 3409, label %3
    i32 3410, label %3
    i32 3411, label %3
    i32 3412, label %3
    i32 3413, label %3
    i32 3414, label %3
    i32 3415, label %3
    i32 3416, label %3
    i32 3417, label %3
    i32 3418, label %3
    i32 3419, label %3
    i32 3420, label %3
    i32 3421, label %3
    i32 3422, label %3
    i32 3423, label %3
    i32 3424, label %3
    i32 3425, label %3
    i32 3426, label %3
    i32 3427, label %3
    i32 3428, label %3
    i32 3429, label %3
    i32 3430, label %3
    i32 3431, label %3
    i32 3432, label %3
    i32 3433, label %3
    i32 3434, label %3
    i32 3435, label %3
    i32 3436, label %3
    i32 3437, label %3
    i32 3438, label %3
    i32 3439, label %3
    i32 3440, label %3
    i32 3441, label %3
    i32 3442, label %3
    i32 3443, label %3
    i32 3444, label %3
    i32 3445, label %3
    i32 3446, label %3
    i32 3447, label %3
    i32 3448, label %3
    i32 3449, label %3
    i32 3450, label %3
    i32 3451, label %3
    i32 3452, label %3
    i32 3453, label %3
    i32 3454, label %3
    i32 3455, label %3
    i32 3456, label %3
    i32 3457, label %3
    i32 3458, label %3
    i32 3459, label %3
    i32 3460, label %3
    i32 3461, label %3
    i32 3462, label %3
    i32 3463, label %3
    i32 3464, label %3
    i32 3465, label %3
    i32 3466, label %3
    i32 3467, label %3
    i32 3468, label %3
    i32 3469, label %3
    i32 3470, label %3
    i32 3471, label %3
    i32 3472, label %3
    i32 3477, label %3
    i32 3478, label %3
    i32 3479, label %3
    i32 3480, label %3
    i32 3481, label %3
    i32 3482, label %3
    i32 3483, label %3
    i32 3484, label %3
    i32 3485, label %3
    i32 3486, label %3
    i32 3487, label %3
    i32 3488, label %3
    i32 3489, label %3
    i32 3490, label %3
    i32 3491, label %3
    i32 3492, label %3
    i32 3493, label %3
    i32 3494, label %3
    i32 3495, label %3
    i32 3496, label %3
    i32 3497, label %3
    i32 3498, label %3
    i32 3499, label %3
    i32 3500, label %3
    i32 3501, label %3
    i32 3502, label %3
    i32 3503, label %3
    i32 3504, label %3
    i32 3505, label %3
    i32 3506, label %3
    i32 3507, label %3
    i32 3508, label %3
    i32 3509, label %3
    i32 3510, label %3
    i32 3511, label %3
    i32 3512, label %3
    i32 3513, label %3
    i32 3514, label %3
    i32 3515, label %3
    i32 3516, label %3
    i32 3517, label %3
    i32 3518, label %3
    i32 3519, label %3
    i32 3520, label %3
    i32 3521, label %3
    i32 3522, label %3
    i32 3523, label %3
    i32 3524, label %3
    i32 3525, label %3
    i32 3526, label %3
    i32 3527, label %3
    i32 3528, label %3
    i32 3529, label %3
    i32 3530, label %3
    i32 3531, label %3
    i32 3532, label %3
    i32 3533, label %3
    i32 3534, label %3
    i32 3535, label %3
    i32 3536, label %3
    i32 3537, label %3
    i32 3538, label %3
    i32 3539, label %3
    i32 3540, label %3
    i32 3541, label %3
    i32 3542, label %3
    i32 3543, label %3
    i32 3544, label %3
    i32 3545, label %3
    i32 3546, label %3
    i32 3547, label %3
    i32 3548, label %3
    i32 3549, label %3
    i32 3550, label %3
    i32 3551, label %3
    i32 3552, label %3
    i32 3553, label %3
    i32 3554, label %3
    i32 3555, label %3
    i32 3556, label %3
    i32 3557, label %3
    i32 3558, label %3
    i32 3559, label %3
    i32 3560, label %3
    i32 3561, label %3
    i32 3562, label %3
    i32 3563, label %3
    i32 3564, label %3
    i32 3565, label %3
    i32 3566, label %3
    i32 3567, label %3
    i32 3568, label %3
    i32 3569, label %3
    i32 3570, label %3
    i32 3571, label %3
    i32 3572, label %3
    i32 3573, label %3
    i32 3574, label %3
    i32 3575, label %3
    i32 3576, label %3
    i32 3577, label %3
    i32 3578, label %3
    i32 3579, label %3
    i32 3580, label %3
    i32 3581, label %3
    i32 3582, label %3
    i32 3583, label %3
    i32 3584, label %3
    i32 3585, label %3
    i32 3586, label %3
    i32 3587, label %3
    i32 3588, label %3
    i32 3589, label %3
    i32 3590, label %3
    i32 3591, label %3
    i32 3592, label %3
    i32 3593, label %3
    i32 3594, label %3
    i32 3595, label %3
    i32 3596, label %3
    i32 3597, label %3
    i32 3598, label %3
    i32 3599, label %3
    i32 3600, label %3
    i32 3601, label %3
    i32 3602, label %3
    i32 3603, label %3
    i32 3604, label %3
    i32 3605, label %3
    i32 3606, label %3
    i32 3607, label %3
    i32 3608, label %3
    i32 3609, label %3
    i32 3610, label %3
    i32 3611, label %3
    i32 3612, label %3
    i32 3613, label %3
    i32 3614, label %3
    i32 3615, label %3
    i32 3616, label %3
    i32 3617, label %3
    i32 3618, label %3
    i32 3619, label %3
    i32 3620, label %3
    i32 3621, label %3
    i32 3622, label %3
    i32 3623, label %3
    i32 3624, label %3
    i32 3625, label %3
    i32 3626, label %3
    i32 3627, label %3
    i32 3628, label %3
    i32 3629, label %3
    i32 3630, label %3
    i32 3631, label %3
    i32 3632, label %3
    i32 3633, label %3
    i32 3634, label %3
    i32 3635, label %3
    i32 3636, label %3
    i32 3637, label %3
    i32 3638, label %3
    i32 3639, label %3
    i32 3640, label %3
    i32 3641, label %3
    i32 3642, label %3
    i32 3643, label %3
    i32 3644, label %3
    i32 3645, label %3
    i32 3646, label %3
    i32 3647, label %3
    i32 3648, label %3
    i32 3649, label %3
    i32 3650, label %3
    i32 3651, label %3
    i32 3652, label %3
    i32 3653, label %3
    i32 3654, label %3
    i32 3655, label %3
    i32 3656, label %3
    i32 3657, label %3
    i32 3658, label %3
    i32 3659, label %3
    i32 3660, label %3
    i32 3661, label %3
    i32 3662, label %3
    i32 3663, label %3
    i32 3664, label %3
    i32 3665, label %3
    i32 3666, label %3
    i32 3667, label %3
    i32 3668, label %3
    i32 3669, label %3
    i32 3670, label %3
    i32 3671, label %3
    i32 3672, label %3
    i32 3673, label %3
    i32 3674, label %3
    i32 3675, label %3
    i32 3676, label %3
    i32 3677, label %3
    i32 3678, label %3
    i32 3679, label %3
    i32 3680, label %3
    i32 3681, label %3
    i32 3682, label %3
    i32 3683, label %3
    i32 3684, label %3
    i32 3685, label %3
    i32 3686, label %3
    i32 3687, label %3
    i32 3688, label %3
    i32 3689, label %3
    i32 3690, label %3
    i32 3691, label %3
    i32 3692, label %3
    i32 3693, label %3
    i32 3694, label %3
    i32 3695, label %3
    i32 3696, label %3
    i32 3697, label %3
    i32 3698, label %3
    i32 3699, label %3
    i32 3700, label %3
    i32 3701, label %3
    i32 3702, label %3
    i32 3703, label %3
    i32 3704, label %3
    i32 3705, label %3
    i32 3706, label %3
    i32 3707, label %3
    i32 3708, label %3
    i32 3709, label %3
    i32 3710, label %3
    i32 3711, label %3
    i32 3712, label %3
    i32 3713, label %3
    i32 3714, label %3
    i32 3715, label %3
    i32 3716, label %3
    i32 3717, label %3
    i32 3718, label %3
    i32 3719, label %3
    i32 3720, label %3
    i32 3721, label %3
    i32 3722, label %3
    i32 3723, label %3
    i32 3724, label %3
    i32 3725, label %3
    i32 3726, label %3
    i32 3727, label %3
    i32 3728, label %3
    i32 3729, label %3
    i32 3730, label %3
    i32 3731, label %3
    i32 3732, label %3
    i32 3733, label %3
    i32 3734, label %3
    i32 3735, label %3
    i32 3736, label %3
    i32 3737, label %3
    i32 3738, label %3
    i32 3739, label %3
    i32 3740, label %3
    i32 3741, label %3
    i32 3742, label %3
    i32 3743, label %3
    i32 3744, label %3
    i32 3746, label %3
    i32 3747, label %3
    i32 3748, label %3
    i32 3749, label %3
    i32 3750, label %3
    i32 3751, label %3
    i32 3752, label %3
    i32 3753, label %3
    i32 3754, label %3
    i32 3755, label %3
    i32 3756, label %3
    i32 3757, label %3
    i32 3758, label %3
    i32 3759, label %3
    i32 3760, label %3
    i32 3761, label %3
    i32 3762, label %3
    i32 3763, label %3
    i32 3764, label %3
    i32 3765, label %3
    i32 3766, label %3
    i32 3767, label %3
    i32 3768, label %3
    i32 3769, label %3
    i32 3770, label %3
    i32 3771, label %3
    i32 3772, label %3
    i32 3773, label %3
    i32 3774, label %3
    i32 3775, label %3
    i32 3776, label %3
    i32 3777, label %3
    i32 3778, label %3
    i32 3779, label %3
    i32 3780, label %3
    i32 3781, label %3
    i32 3782, label %3
    i32 3783, label %3
    i32 3784, label %3
    i32 3785, label %3
    i32 3786, label %3
    i32 3787, label %3
    i32 3788, label %3
    i32 3789, label %3
    i32 3790, label %3
    i32 3791, label %3
    i32 3792, label %3
    i32 3793, label %3
    i32 3794, label %3
    i32 3795, label %3
    i32 3796, label %3
    i32 3797, label %3
    i32 3798, label %3
    i32 3799, label %3
    i32 3800, label %3
    i32 3801, label %3
    i32 3802, label %3
    i32 3803, label %3
    i32 3804, label %3
    i32 3805, label %3
    i32 3806, label %3
    i32 3807, label %3
    i32 3808, label %3
    i32 3809, label %3
    i32 3810, label %3
    i32 3811, label %3
    i32 3812, label %3
    i32 3813, label %3
    i32 3814, label %3
    i32 3815, label %3
    i32 3816, label %3
    i32 3817, label %3
    i32 3818, label %3
    i32 3819, label %3
    i32 3820, label %3
    i32 3821, label %3
    i32 3822, label %3
    i32 3823, label %3
    i32 3824, label %3
    i32 3825, label %3
    i32 3826, label %3
    i32 3827, label %3
    i32 3828, label %3
    i32 3829, label %3
    i32 3830, label %3
    i32 3831, label %3
    i32 3832, label %3
    i32 3833, label %3
    i32 3834, label %3
    i32 3835, label %3
    i32 3836, label %3
    i32 3837, label %3
    i32 3838, label %3
    i32 3839, label %3
    i32 3840, label %3
    i32 3841, label %3
    i32 3842, label %3
    i32 3843, label %3
    i32 3844, label %3
    i32 3845, label %3
    i32 3846, label %3
    i32 3847, label %3
    i32 3848, label %3
    i32 3849, label %3
    i32 3850, label %3
    i32 3851, label %3
    i32 3852, label %3
    i32 3853, label %3
    i32 3854, label %3
    i32 3855, label %3
    i32 3856, label %3
    i32 3857, label %3
    i32 3858, label %3
    i32 3859, label %3
    i32 3860, label %3
    i32 3861, label %3
    i32 3862, label %3
    i32 3863, label %3
    i32 3864, label %3
    i32 3865, label %3
    i32 3866, label %3
    i32 3867, label %3
    i32 3868, label %3
    i32 3869, label %3
    i32 3870, label %3
    i32 3871, label %3
    i32 3872, label %3
    i32 3873, label %3
    i32 3874, label %3
    i32 3875, label %3
    i32 3876, label %3
    i32 3877, label %3
    i32 3878, label %3
    i32 3879, label %3
    i32 3880, label %3
    i32 3881, label %3
    i32 3882, label %3
    i32 3883, label %3
    i32 3884, label %3
    i32 3885, label %3
    i32 3886, label %3
    i32 3887, label %3
    i32 3888, label %3
    i32 3889, label %3
    i32 3890, label %3
    i32 3891, label %3
    i32 3892, label %3
    i32 3893, label %3
    i32 3894, label %3
    i32 3895, label %3
    i32 3896, label %3
    i32 3897, label %3
    i32 3898, label %3
    i32 3899, label %3
    i32 3900, label %3
    i32 3901, label %3
    i32 3902, label %3
    i32 3903, label %3
    i32 3904, label %3
    i32 3905, label %3
    i32 3906, label %3
    i32 3907, label %3
    i32 3908, label %3
    i32 3909, label %3
    i32 3910, label %3
    i32 3911, label %3
    i32 3912, label %3
    i32 3913, label %3
    i32 3914, label %3
    i32 3915, label %3
    i32 3916, label %3
    i32 3917, label %3
    i32 3918, label %3
    i32 3919, label %3
    i32 3920, label %3
    i32 3921, label %3
    i32 3922, label %3
    i32 3923, label %3
    i32 3924, label %3
    i32 3925, label %3
    i32 3926, label %3
    i32 3927, label %3
  ]

2:                                                ; preds = %1
  br label %3

3:                                                ; preds = %1, %1, %1, %1, %1, %1, %1, %1, %1, %1, %1, %1, %1, %1, %1, %1, %1, %1, %1, %1, %1, %1, %1, %1, %1, %1, %1, %1, %1, %1, %1, %1, %1, %1, %1, %1, %1, %1, %1, %1, %1, %1, %1, %1, %1, %1, %1, %1, %1, %1, %1, %1, %1, %1, %1, %1, %1, %1, %1, %1, %1, %1, %1, %1, %1, %1, %1, %1, %1, %1, %1, %1, %1, %1, %1, %1, %1, %1, %1, %1, %1, %1, %1, %1, %1, %1, %1, %1, %1, %1, %1, %1, %1, %1, %1, %1, %1, %1, %1, %1, %1, %1, %1, %1, %1, %1, %1, %1, %1, %1, %1, %1, %1, %1, %1, %1, %1, %1, %1, %1, %1, %1, %1, %1, %1, %1, %1, %1, %1, %1, %1, %1, %1, %1, %1, %1, %1, %1, %1, %1, %1, %1, %1, %1, %1, %1, %1, %1, %1, %1, %1, %1, %1, %1, %1, %1, %1, %1, %1, %1, %1, %1, %1, %1, %1, %1, %1, %1, %1, %1, %1, %1, %1, %1, %1, %1, %1, %1, %1, %1, %1, %1, %1, %1, %1, %1, %1, %1, %1, %1, %1, %1, %1, %1, %1, %1, %1, %1, %1, %1, %1, %1, %1, %1, %1, %1, %1, %1, %1, %1, %1, %1, %1, %1, %1, %1, %1, %1, %1, %1, %1, %1, %1, %1, %1, %1, %1, %1, %1, %1, %1, %1, %1, %1, %1, %1, %1, %1, %1, %1, %1, %1, %1, %1, %1, %1, %1, %1, %1, %1, %1, %1, %1, %1, %1, %1, %1, %1, %1, %1, %1, %1, %1, %1, %1, %1, %1, %1, %1, %1, %1, %1, %1, %1, %1, %1, %1, %1, %1, %1, %1, %1, %1, %1, %1, %1, %1, %1, %1, %1, %1, %1, %1, %1, %1, %1, %1, %1, %1, %1, %1, %1, %1, %1, %1, %1, %1, %1, %1, %1, %1, %1, %1, %1, %1, %1, %1, %1, %1, %1, %1, %1, %1, %1, %1, %1, %1, %1, %1, %1, %1, %1, %1, %1, %1, %1, %1, %1, %1, %1, %1, %1, %1, %1, %1, %1, %1, %1, %1, %1, %1, %1, %1, %1, %1, %1, %1, %1, %1, %1, %1, %1, %1, %1, %1, %1, %1, %1, %1, %1, %1, %1, %1, %1, %1, %1, %1, %1, %1, %1, %1, %1, %1, %1, %1, %1, %1, %1, %1, %1, %1, %1, %1, %1, %1, %1, %1, %1, %1, %1, %1, %1, %1, %1, %1, %1, %1, %1, %1, %1, %1, %1, %1, %1, %1, %1, %1, %1, %1, %1, %1, %1, %1, %1, %1, %1, %1, %1, %1, %1, %1, %1, %1, %1, %1, %1, %1, %1, %1, %1, %1, %1, %1, %1, %1, %1, %1, %1, %1, %1, %1, %1, %1, %1, %1, %1, %1, %1, %1, %1, %1, %1, %1, %1, %1, %1, %1, %1, %1, %1, %1, %1, %1, %1, %1, %1, %1, %1, %1, %1, %1, %1, %1, %1, %1, %1, %1, %1, %1, %1, %1, %1, %1, %1, %1, %1, %1, %1, %1, %1, %1, %1, %1, %1, %1, %1, %1, %1, %1, %1, %1, %1, %1, %1, %1, %1, %1, %1, %1, %1, %1, %1, %1, %1, %1, %1, %1, %1, %1, %1, %1, %1, %1, %1, %1, %1, %1, %1, %1, %1, %1, %1, %1, %1, %1, %1, %1, %1, %1, %1, %1, %1, %1, %1, %1, %1, %1, %1, %1, %1, %1, %1, %1, %1, %1, %1, %1, %1, %1, %1, %1, %1, %1, %1, %1, %1, %1, %1, %1, %1, %1, %1, %1, %1, %1, %1, %1, %1, %1, %1, %1, %1, %1, %1, %1, %1, %1, %1, %1, %1, %1, %1, %1, %1, %1, %1, %1, %1, %1, %1, %1, %1, %1, %1, %1, %1, %1, %1, %1, %1, %1, %1, %1, %1, %1, %1, %1, %1, %1, %1, %1, %1, %1, %1, %1, %1, %1, %1, %1, %1, %1, %1, %1, %1, %1, %1, %1, %1, %1, %1, %1, %1, %1, %1, %1, %1, %1, %1, %1, %1, %1, %1, %1, %1, %1, %1, %1, %1, %1, %1, %1, %1, %1, %1, %1, %1, %1, %1, %1, %1, %1, %1, %1, %1, %1, %1, %1, %1, %1, %1, %1, %1, %1, %1, %1, %1, %1, %1, %1, %1, %1, %1, %1, %1, %1, %1, %1, %1, %1, %1, %1, %1, %1, %1, %1, %1, %1, %1, %1, %1, %1, %1, %1, %1, %1, %1, %1, %1, %1, %1, %1, %1, %1, %1, %1, %1, %1, %1, %1, %1, %1, %1, %1, %1, %1, %1, %1, %1, %1, %1, %1, %1, %1, %1, %1, %1, %1, %1, %1, %1, %1, %1, %1, %1, %1, %1, %1, %1, %1, %1, %1, %1, %1, %1, %1, %1, %1, %1, %1, %1, %1, %1, %1, %1, %1, %1, %1, %1, %1, %1, %1, %1, %1, %1, %1, %1, %1, %1, %1, %1, %1, %1, %1, %1, %1, %1, %1, %1, %1, %1, %1, %1, %1, %1, %1, %1, %1, %1, %1, %1, %1, %1, %1, %1, %1, %1, %1, %1, %1, %1, %1, %1, %1, %1, %1, %1, %1, %1, %1, %1, %1, %1, %1, %1, %1, %1, %1, %1, %1, %1, %1, %1, %1, %1, %1, %1, %1, %1, %1, %1, %1, %1, %1, %1, %1, %1, %1, %1, %1, %1, %1, %1, %1, %1, %1, %1, %1, %1, %1, %1, %1, %1, %1, %1, %1, %1, %1, %1, %1, %1, %1, %1, %1, %1, %1, %1, %1, %1, %1, %1, %1, %1, %1, %1, %1, %1, %1, %1, %1, %1, %1, %1, %1, %1, %1, %1, %1, %1, %1, %1, %1, %1, %1, %1, %1, %1, %1, %1, %1, %1, %1, %1, %1, %1, %1, %1, %1, %1, %1, %1, %1, %1, %1, %1, %1, %1, %1, %1, %1, %1, %1, %1, %1, %1, %1, %1, %1, %1, %1, %1, %1, %1, %1, %1, %1, %1, %1, %1, %1, %1, %1, %1, %1, %1, %1, %1, %1, %1, %1, %1, %1, %1, %1, %1, %1, %1, %1, %1, %1, %1, %1, %1, %1, %1, %1, %1, %1, %1, %1, %1, %1, %1, %1, %1, %1, %1, %1, %1, %1, %1, %1, %1, %1, %1, %1, %1, %1, %1, %1, %1, %1, %1, %1, %1, %1, %1, %1, %1, %1, %1, %1, %1, %1, %1, %1, %1, %1, %1, %1, %1, %1, %1, %1, %1, %1, %1, %1, %1, %1, %1, %1, %1, %1, %1, %1, %1, %1, %1, %1, %1, %1, %1, %1, %1, %1, %1, %1, %1, %1, %1, %1, %1, %1, %1, %1, %1, %1, %1, %1, %1, %1, %1, %1, %1, %1, %1, %1, %1, %1, %1, %1, %1, %1, %1, %1, %1, %1, %1, %1, %1, %1, %1, %1, %1, %1, %1, %1, %1, %1, %1, %1, %1, %1, %1, %1, %1, %1, %1, %1, %1, %1, %1, %1, %1, %1, %1, %1, %1, %1, %1, %1, %1, %1, %1, %1, %1, %1, %1, %1, %1, %1, %1, %1, %1, %1, %1, %1, %1, %1, %1, %1, %1, %1, %1, %1, %1, %1, %1, %1, %1, %1, %1, %1, %1, %1, %1, %1, %1, %1, %1, %1, %1, %1, %1, %1, %1, %1, %1, %1, %1, %1, %1, %1, %1, %1, %1, %1, %1, %1, %1, %1, %1, %1, %1, %1, %1, %1, %1, %1, %1, %1, %1, %1, %1, %1, %1, %1, %1, %1, %1, %1, %1, %1, %1, %1, %1, %1, %1, %1, %1, %1, %1, %1, %1, %1, %1, %1, %1, %1, %1, %1, %1, %1, %1, %1, %1, %1, %1, %1, %1, %1, %1, %1, %1, %1, %1, %1, %1, %1, %1, %1, %1, %1, %1, %1, %1, %1, %1, %1, %1, %1, %1, %1, %1, %1, %1, %1, %1, %1, %1, %1, %1, %1, %1, %1, %1, %1, %1, %1, %1, %1, %1, %1, %1, %1, %1, %1, %1, %1, %1, %1, %1, %1, %1, %1, %1, %1, %1, %1, %1, %1, %1, %1, %1, %1, %1, %1, %1, %1, %1, %1, %1, %1, %1, %1, %1, %1, %1, %1, %1, %1, %1, %1, %1, %1, %1, %1, %1, %1, %1, %1, %1, %1, %1, %1, %1, %1, %1, %1, %1, %1, %1, %1, %1, %1, %1, %1, %1, %1, %1, %1, %1, %1, %1, %1, %1, %1, %1, %1, %1, %1, %1, %1, %1, %1, %1, %1, %1, %1, %1, %1, %1, %1, %1, %1, %1, %1, %1, %1, %1, %1, %1, %1, %1, %1, %1, %1, %1, %1, %1, %1, %1, %1, %1, %1, %1, %1, %1, %1, %1, %1, %1, %1, %1, %1, %1, %1, %1, %1, %1, %1, %1, %1, %1, %1, %1, %1, %1, %1, %1, %1, %1, %1, %1, %1, %1, %1, %1, %1, %1, %1, %1, %1, %1, %1, %1, %1, %1, %1, %1, %1, %1, %1, %1, %1, %1, %1, %1, %1, %1, %1, %1, %1, %1, %1, %1, %1, %1, %1, %1, %1, %1, %1, %1, %1, %1, %1, %1, %1, %1, %1, %1, %1, %1, %1, %1, %1, %1, %1, %1, %1, %1, %1, %1, %1, %1, %1, %1, %1, %1, %1, %1, %1, %1, %1, %1, %1, %1, %1, %1, %1, %1, %1, %1, %1, %1, %1, %1, %1, %1, %1, %1, %1, %1, %1, %1, %1, %1, %1, %1, %1, %1, %1, %1, %1, %1, %1, %1, %1, %1, %1, %1, %1, %1, %1, %1, %1, %1, %1, %1, %1, %1, %1, %1, %1, %1, %1, %1, %1, %1, %1, %1, %1, %1, %1, %1, %1, %1, %1, %1, %1, %1, %1, %1, %1, %1, %1, %1, %1, %1, %1, %1, %1, %1, %1, %1, %1, %1, %1, %1, %1, %1, %1, %1, %1, %1, %1, %1, %1, %1, %1, %1, %1, %1, %1, %1, %1, %1, %1, %1, %1, %1, %1, %1, %1, %1, %1, %1, %1, %1, %1, %1, %1, %1, %1, %1, %1, %1, %1, %1, %1, %1, %1, %1, %1, %1, %1, %1, %1, %1, %1, %1, %1, %1, %1, %1, %1, %1, %1, %1, %1, %1, %1, %1, %1, %1, %1, %1, %1, %1, %1, %1, %1, %1, %1, %1, %1, %1, %1, %1, %1, %1, %1, %1, %1, %1, %1, %1, %1, %1, %1, %1, %1, %1, %1, %1, %1, %1, %1, %1, %1, %1, %1, %1, %1, %1, %1, %1, %1, %1, %1, %1, %1, %1, %1, %1, %1, %1, %1, %1, %1, %1, %1, %1, %1, %1, %1, %1, %1, %1, %1, %1, %1, %1, %1, %1, %1, %1, %1, %1, %1, %1, %1, %1, %1, %1, %1, %1, %1, %1, %1, %1, %1, %1, %1, %1, %1, %1, %1, %1, %1, %1, %1, %1, %1, %1, %1, %1, %1, %1, %1, %1, %1, %1, %1, %1, %1, %1, %1, %1, %1, %1, %1, %1, %1, %1, %1, %1, %1, %1, %1, %1, %1, %1, %1, %1, %1, %1, %1, %1, %1, %1, %1, %1, %1, %1, %1, %1, %1, %1, %1, %1, %1, %1, %1, %1, %1, %1, %1, %1, %1, %1, %1, %1, %1, %1, %1, %1, %1, %1, %1, %1, %1, %1, %1, %1, %1, %1, %1, %1, %1, %1, %1, %1, %1, %1, %1, %1, %1, %1, %1, %1, %1, %1, %1, %1, %1, %1, %1, %1, %1, %1, %1, %1, %1, %1, %1, %1, %1, %1, %1, %1, %1, %1, %1, %1, %1, %1, %1, %1, %1, %1, %1, %1, %1, %1, %1, %1, %1, %1, %1, %1, %1, %1, %1, %1, %1, %1, %1, %1, %1, %1, %1, %1, %1, %1, %1, %1, %1, %1, %1, %1, %1, %1, %1, %1, %1, %1, %1, %1, %1, %1, %1, %1, %1, %1, %1, %1, %1, %1, %1, %1, %1, %1, %1, %1, %1, %1, %1, %1, %1, %1, %1, %1, %1, %1, %1, %1, %1, %1, %1, %1, %1, %1, %1, %1, %1, %1, %1, %1, %1, %1, %1, %1, %1, %1, %1, %1, %1, %1, %1, %1, %1, %1, %1, %1, %1, %1, %1, %1, %1, %1, %1, %1, %1, %1, %1, %1, %1, %1, %1, %1, %1, %1, %1, %1, %1, %1, %1, %1, %1, %1, %1, %1, %1, %1, %1, %1, %1, %1, %1, %1, %1, %1, %1, %1, %1, %1, %1, %1, %1, %1, %1, %1, %1, %1, %1, %1, %1, %1, %1, %1, %1, %1, %1, %1, %1, %1, %1, %1, %1, %1, %1, %1, %1, %1, %1, %1, %1, %1, %1, %1, %1, %1, %1, %1, %1, %1, %1, %1, %1, %1, %1, %1, %1, %1, %1, %1, %1, %1, %1, %1, %1, %1, %1, %1, %1, %1, %1, %1, %1, %1, %1, %1, %1, %1, %1, %1, %1, %1, %1, %1, %1, %1, %1, %1, %1, %1, %1, %1, %1, %1, %1, %1, %1, %1, %1, %1, %1, %1, %1, %1, %1, %1, %1, %1, %1, %1, %1, %1, %1, %1, %1, %1, %1, %1, %1, %1, %1, %1, %1, %1, %1, %1, %1, %1, %1, %1, %1, %1, %1, %1, %1, %1, %1, %1, %1, %1, %1, %1, %1, %1, %1, %1, %1, %1, %1, %1, %1, %1, %1, %1, %1, %1, %1, %1, %1, %1, %1, %1, %1, %1, %1, %1, %1, %1, %1, %1, %1, %1, %1, %1, %1, %1, %1, %1, %1, %1, %1, %1, %1, %1, %1, %1, %1, %1, %1, %1, %1, %1, %1, %1, %1, %1, %1, %1, %1, %1, %1, %1, %1, %1, %1, %1, %1, %1, %1, %1, %1, %1, %1, %1, %1, %1, %1, %1, %1, %1, %1, %1, %1, %1, %1, %1, %1, %1, %1, %1, %1, %1, %1, %1, %1, %1, %1, %1, %1, %1, %1, %1, %1, %1, %1, %1, %1, %1, %1, %1, %1, %1, %1, %1, %1, %1, %1, %1, %1, %1, %1, %1, %1, %1, %1, %1, %1, %1, %1, %1, %1, %1, %1, %1, %1, %1, %1, %1, %1, %1, %1, %1, %1, %1, %1, %1, %1, %1, %1, %1, %1, %1, %1, %1, %1, %1, %1, %1, %1, %1, %1, %1, %1, %1, %1, %1, %1, %1, %1, %1, %1, %1, %1, %1, %1, %1, %1, %1, %1, %1, %1, %1, %1, %1, %1, %1, %1, %1, %1, %1, %1, %1, %1, %1, %1, %1, %1, %1, %1, %1, %1, %1, %1, %1, %1, %1, %1, %1, %1, %1, %1, %1, %1, %1, %1, %1, %1, %1, %1, %1, %1, %1, %1, %1, %1, %1, %1, %1, %1, %1, %1, %1, %1, %1, %1, %1, %1, %1, %1, %1, %1, %1, %1, %1, %1, %1, %1, %1, %1, %1, %1, %1, %1, %1, %1, %1, %1, %1, %1, %1, %1, %1, %1, %1, %1, %1, %1, %1, %1, %1, %1, %1, %1, %1, %1, %1, %1, %1, %1, %1, %1, %1, %1, %1, %1, %1, %1, %1, %1, %1, %1, %1, %1, %1, %1, %1, %1, %1, %1, %1, %1, %1, %1, %1, %1, %1, %1, %1, %1, %1, %1, %1, %1, %1, %1, %1, %1, %1, %1, %1, %1, %1, %1, %1, %1, %1, %1, %1, %1, %1, %1, %1, %1, %1, %1, %1, %1, %1, %1, %1, %1, %1, %1, %1, %1, %1, %1, %1, %1, %1, %1, %1, %1, %1, %1, %1, %1, %1, %1, %1, %1, %1, %1, %1, %1, %1, %1, %1, %1, %1, %1, %1, %1, %1, %1, %1, %1, %1, %1, %1, %1, %1, %1, %1, %1, %1, %1, %1, %1, %1, %1, %1, %1, %1, %1, %1, %1, %1, %1, %1, %1, %1, %1, %1, %1, %1, %1, %1, %1, %1, %1, %1, %1, %1, %1, %1, %1, %1, %1, %1, %1, %1, %1, %1, %1, %1, %1, %1, %1, %1, %1, %1, %1, %1, %1, %1, %1, %1, %1, %1, %1, %1, %1, %1, %1, %1, %1, %1, %1, %1, %1, %1, %1, %1, %1, %1, %1, %1, %1, %1, %1, %1, %1, %1, %1, %1, %1, %1, %1, %1, %1, %1, %1, %1, %1, %1, %1, %1, %1, %1, %1, %1, %1, %1, %1, %1, %1, %1, %1, %1, %1, %1, %1, %1, %1, %1, %1, %1, %1, %1, %1, %1, %1, %1, %1, %1, %1, %1, %1, %1, %1, %1, %1, %1, %1, %1, %1, %1, %1, %1, %1, %1, %1, %1, %1, %1, %1, %1, %1, %1, %1, %1, %1, %1, %1, %1, %1, %1, %1, %1, %1, %1, %1, %1, %1, %1, %1, %1, %1, %1, %1, %1, %1, %1, %1, %1, %1, %1, %1, %1, %1, %1, %1, %1, %1, %1, %1, %1, %1, %1, %1, %1, %1, %1, %1, %1, %1, %1, %1, %1, %1, %1, %1, %1, %1, %1, %1, %1, %1, %1, %1, %1, %1, %1, %1, %1, %1, %1, %1, %1, %1, %1, %1, %1, %1, %1, %1, %1, %1, %1, %1, %1, %1, %1, %1, %1, %1, %1, %1, %1, %1, %1, %1, %1, %1, %1, %1, %1, %1, %1, %1, %1, %1, %1, %1, %1, %1, %1, %1, %1, %1, %1, %1, %1, %1, %1, %1, %1, %1, %1, %1, %1, %1, %1, %1, %1, %1, %1, %1, %1, %1, %1, %1, %1, %1, %1, %1, %1, %1, %1, %1, %1, %1, %1, %1, %1, %1, %1, %1, %1, %1, %1, %1, %1, %1, %1, %1, %1, %1, %1, %1, %1, %1, %1, %1, %1, %1, %1, %1, %1, %1, %1, %1, %1, %1, %1, %1, %1, %1, %1, %1, %1, %1, %1, %1, %1, %1, %1, %1, %1, %1, %1, %1, %1, %1, %1, %1, %1, %1, %1, %1, %1, %1, %1, %1, %1, %1, %1, %1, %1, %1, %1, %1, %1, %1, %1, %1, %1, %1, %1, %1, %1, %1, %1, %1, %1, %1, %1, %1, %1, %1, %1, %1, %1, %1, %1, %1, %1, %1, %1, %1, %1, %1, %1, %1, %1, %1, %1, %1, %1, %1, %1, %1, %1, %1, %1, %1, %1, %1, %1, %1, %1, %1, %1, %1, %1, %1, %1, %1, %1, %1, %1, %1, %1, %1, %1, %1, %1, %1, %1, %1, %1, %1, %1, %1, %1, %1, %1, %1, %1, %1, %1, %1, %1, %1, %1, %1, %1, %1, %1, %1, %1, %1, %1, %1, %1, %1, %1, %1, %1, %1, %1, %1, %1, %1, %1, %1, %1, %1, %1, %1, %1, %1, %1, %1, %1, %1, %1, %1, %1, %1, %1, %1, %1, %1, %1, %1, %1, %1, %1, %1, %1, %1, %1, %1, %1, %1, %1, %1, %1, %1, %1, %1, %1, %1, %1, %1, %1, %1, %1, %1, %1, %1, %1, %1, %1, %1, %1, %1, %1, %1, %1, %1, %1, %1, %1, %1, %1, %1, %1, %1, %1, %1, %1, %1, %1, %1, %1, %1, %1, %1, %1, %1, %1, %1, %1, %1, %1, %1, %1, %1, %1, %1, %1, %1, %1, %1, %1, %1, %1, %1, %1, %1, %1, %1, %1, %1, %1, %1, %1, %1, %1, %1, %1, %1, %1, %1, %1, %1, %1, %1, %1, %1, %1, %1, %1, %1, %1, %1, %1, %1, %1, %1, %1, %1, %1, %1, %1, %1, %1, %1, %1, %1, %1, %1, %1, %1, %1, %2
  %4 = phi i1 [ false, %2 ], [ true, %1 ], [ true, %1 ], [ true, %1 ], [ true, %1 ], [ true, %1 ], [ true, %1 ], [ true, %1 ], [ true, %1 ], [ true, %1 ], [ true, %1 ], [ true, %1 ], [ true, %1 ], [ true, %1 ], [ true, %1 ], [ true, %1 ], [ true, %1 ], [ true, %1 ], [ true, %1 ], [ true, %1 ], [ true, %1 ], [ true, %1 ], [ true, %1 ], [ true, %1 ], [ true, %1 ], [ true, %1 ], [ true, %1 ], [ true, %1 ], [ true, %1 ], [ true, %1 ], [ true, %1 ], [ true, %1 ], [ true, %1 ], [ true, %1 ], [ true, %1 ], [ true, %1 ], [ true, %1 ], [ true, %1 ], [ true, %1 ], [ true, %1 ], [ true, %1 ], [ true, %1 ], [ true, %1 ], [ true, %1 ], [ true, %1 ], [ true, %1 ], [ true, %1 ], [ true, %1 ], [ true, %1 ], [ true, %1 ], [ true, %1 ], [ true, %1 ], [ true, %1 ], [ true, %1 ], [ true, %1 ], [ true, %1 ], [ true, %1 ], [ true, %1 ], [ true, %1 ], [ true, %1 ], [ true, %1 ], [ true, %1 ], [ true, %1 ], [ true, %1 ], [ true, %1 ], [ true, %1 ], [ true, %1 ], [ true, %1 ], [ true, %1 ], [ true, %1 ], [ true, %1 ], [ true, %1 ], [ true, %1 ], [ true, %1 ], [ true, %1 ], [ true, %1 ], [ true, %1 ], [ true, %1 ], [ true, %1 ], [ true, %1 ], [ true, %1 ], [ true, %1 ], [ true, %1 ], [ true, %1 ], [ true, %1 ], [ true, %1 ], [ true, %1 ], [ true, %1 ], [ true, %1 ], [ true, %1 ], [ true, %1 ], [ true, %1 ], [ true, %1 ], [ true, %1 ], [ true, %1 ], [ true, %1 ], [ true, %1 ], [ true, %1 ], [ true, %1 ], [ true, %1 ], [ true, %1 ], [ true, %1 ], [ true, %1 ], [ true, %1 ], [ true, %1 ], [ true, %1 ], [ true, %1 ], [ true, %1 ], [ true, %1 ], [ true, %1 ], [ true, %1 ], [ true, %1 ], [ true, %1 ], [ true, %1 ], [ true, %1 ], [ true, %1 ], [ true, %1 ], [ true, %1 ], [ true, %1 ], [ true, %1 ], [ true, %1 ], [ true, %1 ], [ true, %1 ], [ true, %1 ], [ true, %1 ], [ true, %1 ], [ true, %1 ], [ true, %1 ], [ true, %1 ], [ true, %1 ], [ true, %1 ], [ true, %1 ], [ true, %1 ], [ true, %1 ], [ true, %1 ], [ true, %1 ], [ true, %1 ], [ true, %1 ], [ true, %1 ], [ true, %1 ], [ true, %1 ], [ true, %1 ], [ true, %1 ], [ true, %1 ], [ true, %1 ], [ true, %1 ], [ true, %1 ], [ true, %1 ], [ true, %1 ], [ true, %1 ], [ true, %1 ], [ true, %1 ], [ true, %1 ], [ true, %1 ], [ true, %1 ], [ true, %1 ], [ true, %1 ], [ true, %1 ], [ true, %1 ], [ true, %1 ], [ true, %1 ], [ true, %1 ], [ true, %1 ], [ true, %1 ], [ true, %1 ], [ true, %1 ], [ true, %1 ], [ true, %1 ], [ true, %1 ], [ true, %1 ], [ true, %1 ], [ true, %1 ], [ true, %1 ], [ true, %1 ], [ true, %1 ], [ true, %1 ], [ true, %1 ], [ true, %1 ], [ true, %1 ], [ true, %1 ], [ true, %1 ], [ true, %1 ], [ true, %1 ], [ true, %1 ], [ true, %1 ], [ true, %1 ], [ true, %1 ], [ true, %1 ], [ true, %1 ], [ true, %1 ], [ true, %1 ], [ true, %1 ], [ true, %1 ], [ true, %1 ], [ true, %1 ], [ true, %1 ], [ true, %1 ], [ true, %1 ], [ true, %1 ], [ true, %1 ], [ true, %1 ], [ true, %1 ], [ true, %1 ], [ true, %1 ], [ true, %1 ], [ true, %1 ], [ true, %1 ], [ true, %1 ], [ true, %1 ], [ true, %1 ], [ true, %1 ], [ true, %1 ], [ true, %1 ], [ true, %1 ], [ true, %1 ], [ true, %1 ], [ true, %1 ], [ true, %1 ], [ true, %1 ], [ true, %1 ], [ true, %1 ], [ true, %1 ], [ true, %1 ], [ true, %1 ], [ true, %1 ], [ true, %1 ], [ true, %1 ], [ true, %1 ], [ true, %1 ], [ true, %1 ], [ true, %1 ], [ true, %1 ], [ true, %1 ], [ true, %1 ], [ true, %1 ], [ true, %1 ], [ true, %1 ], [ true, %1 ], [ true, %1 ], [ true, %1 ], [ true, %1 ], [ true, %1 ], [ true, %1 ], [ true, %1 ], [ true, %1 ], [ true, %1 ], [ true, %1 ], [ true, %1 ], [ true, %1 ], [ true, %1 ], [ true, %1 ], [ true, %1 ], [ true, %1 ], [ true, %1 ], [ true, %1 ], [ true, %1 ], [ true, %1 ], [ true, %1 ], [ true, %1 ], [ true, %1 ], [ true, %1 ], [ true, %1 ], [ true, %1 ], [ true, %1 ], [ true, %1 ], [ true, %1 ], [ true, %1 ], [ true, %1 ], [ true, %1 ], [ true, %1 ], [ true, %1 ], [ true, %1 ], [ true, %1 ], [ true, %1 ], [ true, %1 ], [ true, %1 ], [ true, %1 ], [ true, %1 ], [ true, %1 ], [ true, %1 ], [ true, %1 ], [ true, %1 ], [ true, %1 ], [ true, %1 ], [ true, %1 ], [ true, %1 ], [ true, %1 ], [ true, %1 ], [ true, %1 ], [ true, %1 ], [ true, %1 ], [ true, %1 ], [ true, %1 ], [ true, %1 ], [ true, %1 ], [ true, %1 ], [ true, %1 ], [ true, %1 ], [ true, %1 ], [ true, %1 ], [ true, %1 ], [ true, %1 ], [ true, %1 ], [ true, %1 ], [ true, %1 ], [ true, %1 ], [ true, %1 ], [ true, %1 ], [ true, %1 ], [ true, %1 ], [ true, %1 ], [ true, %1 ], [ true, %1 ], [ true, %1 ], [ true, %1 ], [ true, %1 ], [ true, %1 ], [ true, %1 ], [ true, %1 ], [ true, %1 ], [ true, %1 ], [ true, %1 ], [ true, %1 ], [ true, %1 ], [ true, %1 ], [ true, %1 ], [ true, %1 ], [ true, %1 ], [ true, %1 ], [ true, %1 ], [ true, %1 ], [ true, %1 ], [ true, %1 ], [ true, %1 ], [ true, %1 ], [ true, %1 ], [ true, %1 ], [ true, %1 ], [ true, %1 ], [ true, %1 ], [ true, %1 ], [ true, %1 ], [ true, %1 ], [ true, %1 ], [ true, %1 ], [ true, %1 ], [ true, %1 ], [ true, %1 ], [ true, %1 ], [ true, %1 ], [ true, %1 ], [ true, %1 ], [ true, %1 ], [ true, %1 ], [ true, %1 ], [ true, %1 ], [ true, %1 ], [ true, %1 ], [ true, %1 ], [ true, %1 ], [ true, %1 ], [ true, %1 ], [ true, %1 ], [ true, %1 ], [ true, %1 ], [ true, %1 ], [ true, %1 ], [ true, %1 ], [ true, %1 ], [ true, %1 ], [ true, %1 ], [ true, %1 ], [ true, %1 ], [ true, %1 ], [ true, %1 ], [ true, %1 ], [ true, %1 ], [ true, %1 ], [ true, %1 ], [ true, %1 ], [ true, %1 ], [ true, %1 ], [ true, %1 ], [ true, %1 ], [ true, %1 ], [ true, %1 ], [ true, %1 ], [ true, %1 ], [ true, %1 ], [ true, %1 ], [ true, %1 ], [ true, %1 ], [ true, %1 ], [ true, %1 ], [ true, %1 ], [ true, %1 ], [ true, %1 ], [ true, %1 ], [ true, %1 ], [ true, %1 ], [ true, %1 ], [ true, %1 ], [ true, %1 ], [ true, %1 ], [ true, %1 ], [ true, %1 ], [ true, %1 ], [ true, %1 ], [ true, %1 ], [ true, %1 ], [ true, %1 ], [ true, %1 ], [ true, %1 ], [ true, %1 ], [ true, %1 ], [ true, %1 ], [ true, %1 ], [ true, %1 ], [ true, %1 ], [ true, %1 ], [ true, %1 ], [ true, %1 ], [ true, %1 ], [ true, %1 ], [ true, %1 ], [ true, %1 ], [ true, %1 ], [ true, %1 ], [ true, %1 ], [ true, %1 ], [ true, %1 ], [ true, %1 ], [ true, %1 ], [ true, %1 ], [ true, %1 ], [ true, %1 ], [ true, %1 ], [ true, %1 ], [ true, %1 ], [ true, %1 ], [ true, %1 ], [ true, %1 ], [ true, %1 ], [ true, %1 ], [ true, %1 ], [ true, %1 ], [ true, %1 ], [ true, %1 ], [ true, %1 ], [ true, %1 ], [ true, %1 ], [ true, %1 ], [ true, %1 ], [ true, %1 ], [ true, %1 ], [ true, %1 ], [ true, %1 ], [ true, %1 ], [ true, %1 ], [ true, %1 ], [ true, %1 ], [ true, %1 ], [ true, %1 ], [ true, %1 ], [ true, %1 ], [ true, %1 ], [ true, %1 ], [ true, %1 ], [ true, %1 ], [ true, %1 ], [ true, %1 ], [ true, %1 ], [ true, %1 ], [ true, %1 ], [ true, %1 ], [ true, %1 ], [ true, %1 ], [ true, %1 ], [ true, %1 ], [ true, %1 ], [ true, %1 ], [ true, %1 ], [ true, %1 ], [ true, %1 ], [ true, %1 ], [ true, %1 ], [ true, %1 ], [ true, %1 ], [ true, %1 ], [ true, %1 ], [ true, %1 ], [ true, %1 ], [ true, %1 ], [ true, %1 ], [ true, %1 ], [ true, %1 ], [ true, %1 ], [ true, %1 ], [ true, %1 ], [ true, %1 ], [ true, %1 ], [ true, %1 ], [ true, %1 ], [ true, %1 ], [ true, %1 ], [ true, %1 ], [ true, %1 ], [ true, %1 ], [ true, %1 ], [ true, %1 ], [ true, %1 ], [ true, %1 ], [ true, %1 ], [ true, %1 ], [ true, %1 ], [ true, %1 ], [ true, %1 ], [ true, %1 ], [ true, %1 ], [ true, %1 ], [ true, %1 ], [ true, %1 ], [ true, %1 ], [ true, %1 ], [ true, %1 ], [ true, %1 ], [ true, %1 ], [ true, %1 ], [ true, %1 ], [ true, %1 ], [ true, %1 ], [ true, %1 ], [ true, %1 ], [ true, %1 ], [ true, %1 ], [ true, %1 ], [ true, %1 ], [ true, %1 ], [ true, %1 ], [ true, %1 ], [ true, %1 ], [ true, %1 ], [ true, %1 ], [ true, %1 ], [ true, %1 ], [ true, %1 ], [ true, %1 ], [ true, %1 ], [ true, %1 ], [ true, %1 ], [ true, %1 ], [ true, %1 ], [ true, %1 ], [ true, %1 ], [ true, %1 ], [ true, %1 ], [ true, %1 ], [ true, %1 ], [ true, %1 ], [ true, %1 ], [ true, %1 ], [ true, %1 ], [ true, %1 ], [ true, %1 ], [ true, %1 ], [ true, %1 ], [ true, %1 ], [ true, %1 ], [ true, %1 ], [ true, %1 ], [ true, %1 ], [ true, %1 ], [ true, %1 ], [ true, %1 ], [ true, %1 ], [ true, %1 ], [ true, %1 ], [ true, %1 ], [ true, %1 ], [ true, %1 ], [ true, %1 ], [ true, %1 ], [ true, %1 ], [ true, %1 ], [ true, %1 ], [ true, %1 ], [ true, %1 ], [ true, %1 ], [ true, %1 ], [ true, %1 ], [ true, %1 ], [ true, %1 ], [ true, %1 ], [ true, %1 ], [ true, %1 ], [ true, %1 ], [ true, %1 ], [ true, %1 ], [ true, %1 ], [ true, %1 ], [ true, %1 ], [ true, %1 ], [ true, %1 ], [ true, %1 ], [ true, %1 ], [ true, %1 ], [ true, %1 ], [ true, %1 ], [ true, %1 ], [ true, %1 ], [ true, %1 ], [ true, %1 ], [ true, %1 ], [ true, %1 ], [ true, %1 ], [ true, %1 ], [ true, %1 ], [ true, %1 ], [ true, %1 ], [ true, %1 ], [ true, %1 ], [ true, %1 ], [ true, %1 ], [ true, %1 ], [ true, %1 ], [ true, %1 ], [ true, %1 ], [ true, %1 ], [ true, %1 ], [ true, %1 ], [ true, %1 ], [ true, %1 ], [ true, %1 ], [ true, %1 ], [ true, %1 ], [ true, %1 ], [ true, %1 ], [ true, %1 ], [ true, %1 ], [ true, %1 ], [ true, %1 ], [ true, %1 ], [ true, %1 ], [ true, %1 ], [ true, %1 ], [ true, %1 ], [ true, %1 ], [ true, %1 ], [ true, %1 ], [ true, %1 ], [ true, %1 ], [ true, %1 ], [ true, %1 ], [ true, %1 ], [ true, %1 ], [ true, %1 ], [ true, %1 ], [ true, %1 ], [ true, %1 ], [ true, %1 ], [ true, %1 ], [ true, %1 ], [ true, %1 ], [ true, %1 ], [ true, %1 ], [ true, %1 ], [ true, %1 ], [ true, %1 ], [ true, %1 ], [ true, %1 ], [ true, %1 ], [ true, %1 ], [ true, %1 ], [ true, %1 ], [ true, %1 ], [ true, %1 ], [ true, %1 ], [ true, %1 ], [ true, %1 ], [ true, %1 ], [ true, %1 ], [ true, %1 ], [ true, %1 ], [ true, %1 ], [ true, %1 ], [ true, %1 ], [ true, %1 ], [ true, %1 ], [ true, %1 ], [ true, %1 ], [ true, %1 ], [ true, %1 ], [ true, %1 ], [ true, %1 ], [ true, %1 ], [ true, %1 ], [ true, %1 ], [ true, %1 ], [ true, %1 ], [ true, %1 ], [ true, %1 ], [ true, %1 ], [ true, %1 ], [ true, %1 ], [ true, %1 ], [ true, %1 ], [ true, %1 ], [ true, %1 ], [ true, %1 ], [ true, %1 ], [ true, %1 ], [ true, %1 ], [ true, %1 ], [ true, %1 ], [ true, %1 ], [ true, %1 ], [ true, %1 ], [ true, %1 ], [ true, %1 ], [ true, %1 ], [ true, %1 ], [ true, %1 ], [ true, %1 ], [ true, %1 ], [ true, %1 ], [ true, %1 ], [ true, %1 ], [ true, %1 ], [ true, %1 ], [ true, %1 ], [ true, %1 ], [ true, %1 ], [ true, %1 ], [ true, %1 ], [ true, %1 ], [ true, %1 ], [ true, %1 ], [ true, %1 ], [ true, %1 ], [ true, %1 ], [ true, %1 ], [ true, %1 ], [ true, %1 ], [ true, %1 ], [ true, %1 ], [ true, %1 ], [ true, %1 ], [ true, %1 ], [ true, %1 ], [ true, %1 ], [ true, %1 ], [ true, %1 ], [ true, %1 ], [ true, %1 ], [ true, %1 ], [ true, %1 ], [ true, %1 ], [ true, %1 ], [ true, %1 ], [ true, %1 ], [ true, %1 ], [ true, %1 ], [ true, %1 ], [ true, %1 ], [ true, %1 ], [ true, %1 ], [ true, %1 ], [ true, %1 ], [ true, %1 ], [ true, %1 ], [ true, %1 ], [ true, %1 ], [ true, %1 ], [ true, %1 ], [ true, %1 ], [ true, %1 ], [ true, %1 ], [ true, %1 ], [ true, %1 ], [ true, %1 ], [ true, %1 ], [ true, %1 ], [ true, %1 ], [ true, %1 ], [ true, %1 ], [ true, %1 ], [ true, %1 ], [ true, %1 ], [ true, %1 ], [ true, %1 ], [ true, %1 ], [ true, %1 ], [ true, %1 ], [ true, %1 ], [ true, %1 ], [ true, %1 ], [ true, %1 ], [ true, %1 ], [ true, %1 ], [ true, %1 ], [ true, %1 ], [ true, %1 ], [ true, %1 ], [ true, %1 ], [ true, %1 ], [ true, %1 ], [ true, %1 ], [ true, %1 ], [ true, %1 ], [ true, %1 ], [ true, %1 ], [ true, %1 ], [ true, %1 ], [ true, %1 ], [ true, %1 ], [ true, %1 ], [ true, %1 ], [ true, %1 ], [ true, %1 ], [ true, %1 ], [ true, %1 ], [ true, %1 ], [ true, %1 ], [ true, %1 ], [ true, %1 ], [ true, %1 ], [ true, %1 ], [ true, %1 ], [ true, %1 ], [ true, %1 ], [ true, %1 ], [ true, %1 ], [ true, %1 ], [ true, %1 ], [ true, %1 ], [ true, %1 ], [ true, %1 ], [ true, %1 ], [ true, %1 ], [ true, %1 ], [ true, %1 ], [ true, %1 ], [ true, %1 ], [ true, %1 ], [ true, %1 ], [ true, %1 ], [ true, %1 ], [ true, %1 ], [ true, %1 ], [ true, %1 ], [ true, %1 ], [ true, %1 ], [ true, %1 ], [ true, %1 ], [ true, %1 ], [ true, %1 ], [ true, %1 ], [ true, %1 ], [ true, %1 ], [ true, %1 ], [ true, %1 ], [ true, %1 ], [ true, %1 ], [ true, %1 ], [ true, %1 ], [ true, %1 ], [ true, %1 ], [ true, %1 ], [ true, %1 ], [ true, %1 ], [ true, %1 ], [ true, %1 ], [ true, %1 ], [ true, %1 ], [ true, %1 ], [ true, %1 ], [ true, %1 ], [ true, %1 ], [ true, %1 ], [ true, %1 ], [ true, %1 ], [ true, %1 ], [ true, %1 ], [ true, %1 ], [ true, %1 ], [ true, %1 ], [ true, %1 ], [ true, %1 ], [ true, %1 ], [ true, %1 ], [ true, %1 ], [ true, %1 ], [ true, %1 ], [ true, %1 ], [ true, %1 ], [ true, %1 ], [ true, %1 ], [ true, %1 ], [ true, %1 ], [ true, %1 ], [ true, %1 ], [ true, %1 ], [ true, %1 ], [ true, %1 ], [ true, %1 ], [ true, %1 ], [ true, %1 ], [ true, %1 ], [ true, %1 ], [ true, %1 ], [ true, %1 ], [ true, %1 ], [ true, %1 ], [ true, %1 ], [ true, %1 ], [ true, %1 ], [ true, %1 ], [ true, %1 ], [ true, %1 ], [ true, %1 ], [ true, %1 ], [ true, %1 ], [ true, %1 ], [ true, %1 ], [ true, %1 ], [ true, %1 ], [ true, %1 ], [ true, %1 ], [ true, %1 ], [ true, %1 ], [ true, %1 ], [ true, %1 ], [ true, %1 ], [ true, %1 ], [ true, %1 ], [ true, %1 ], [ true, %1 ], [ true, %1 ], [ true, %1 ], [ true, %1 ], [ true, %1 ], [ true, %1 ], [ true, %1 ], [ true, %1 ], [ true, %1 ], [ true, %1 ], [ true, %1 ], [ true, %1 ], [ true, %1 ], [ true, %1 ], [ true, %1 ], [ true, %1 ], [ true, %1 ], [ true, %1 ], [ true, %1 ], [ true, %1 ], [ true, %1 ], [ true, %1 ], [ true, %1 ], [ true, %1 ], [ true, %1 ], [ true, %1 ], [ true, %1 ], [ true, %1 ], [ true, %1 ], [ true, %1 ], [ true, %1 ], [ true, %1 ], [ true, %1 ], [ true, %1 ], [ true, %1 ], [ true, %1 ], [ true, %1 ], [ true, %1 ], [ true, %1 ], [ true, %1 ], [ true, %1 ], [ true, %1 ], [ true, %1 ], [ true, %1 ], [ true, %1 ], [ true, %1 ], [ true, %1 ], [ true, %1 ], [ true, %1 ], [ true, %1 ], [ true, %1 ], [ true, %1 ], [ true, %1 ], [ true, %1 ], [ true, %1 ], [ true, %1 ], [ true, %1 ], [ true, %1 ], [ true, %1 ], [ true, %1 ], [ true, %1 ], [ true, %1 ], [ true, %1 ], [ true, %1 ], [ true, %1 ], [ true, %1 ], [ true, %1 ], [ true, %1 ], [ true, %1 ], [ true, %1 ], [ true, %1 ], [ true, %1 ], [ true, %1 ], [ true, %1 ], [ true, %1 ], [ true, %1 ], [ true, %1 ], [ true, %1 ], [ true, %1 ], [ true, %1 ], [ true, %1 ], [ true, %1 ], [ true, %1 ], [ true, %1 ], [ true, %1 ], [ true, %1 ], [ true, %1 ], [ true, %1 ], [ true, %1 ], [ true, %1 ], [ true, %1 ], [ true, %1 ], [ true, %1 ], [ true, %1 ], [ true, %1 ], [ true, %1 ], [ true, %1 ], [ true, %1 ], [ true, %1 ], [ true, %1 ], [ true, %1 ], [ true, %1 ], [ true, %1 ], [ true, %1 ], [ true, %1 ], [ true, %1 ], [ true, %1 ], [ true, %1 ], [ true, %1 ], [ true, %1 ], [ true, %1 ], [ true, %1 ], [ true, %1 ], [ true, %1 ], [ true, %1 ], [ true, %1 ], [ true, %1 ], [ true, %1 ], [ true, %1 ], [ true, %1 ], [ true, %1 ], [ true, %1 ], [ true, %1 ], [ true, %1 ], [ true, %1 ], [ true, %1 ], [ true, %1 ], [ true, %1 ], [ true, %1 ], [ true, %1 ], [ true, %1 ], [ true, %1 ], [ true, %1 ], [ true, %1 ], [ true, %1 ], [ true, %1 ], [ true, %1 ], [ true, %1 ], [ true, %1 ], [ true, %1 ], [ true, %1 ], [ true, %1 ], [ true, %1 ], [ true, %1 ], [ true, %1 ], [ true, %1 ], [ true, %1 ], [ true, %1 ], [ true, %1 ], [ true, %1 ], [ true, %1 ], [ true, %1 ], [ true, %1 ], [ true, %1 ], [ true, %1 ], [ true, %1 ], [ true, %1 ], [ true, %1 ], [ true, %1 ], [ true, %1 ], [ true, %1 ], [ true, %1 ], [ true, %1 ], [ true, %1 ], [ true, %1 ], [ true, %1 ], [ true, %1 ], [ true, %1 ], [ true, %1 ], [ true, %1 ], [ true, %1 ], [ true, %1 ], [ true, %1 ], [ true, %1 ], [ true, %1 ], [ true, %1 ], [ true, %1 ], [ true, %1 ], [ true, %1 ], [ true, %1 ], [ true, %1 ], [ true, %1 ], [ true, %1 ], [ true, %1 ], [ true, %1 ], [ true, %1 ], [ true, %1 ], [ true, %1 ], [ true, %1 ], [ true, %1 ], [ true, %1 ], [ true, %1 ], [ true, %1 ], [ true, %1 ], [ true, %1 ], [ true, %1 ], [ true, %1 ], [ true, %1 ], [ true, %1 ], [ true, %1 ], [ true, %1 ], [ true, %1 ], [ true, %1 ], [ true, %1 ], [ true, %1 ], [ true, %1 ], [ true, %1 ], [ true, %1 ], [ true, %1 ], [ true, %1 ], [ true, %1 ], [ true, %1 ], [ true, %1 ], [ true, %1 ], [ true, %1 ], [ true, %1 ], [ true, %1 ], [ true, %1 ], [ true, %1 ], [ true, %1 ], [ true, %1 ], [ true, %1 ], [ true, %1 ], [ true, %1 ], [ true, %1 ], [ true, %1 ], [ true, %1 ], [ true, %1 ], [ true, %1 ], [ true, %1 ], [ true, %1 ], [ true, %1 ], [ true, %1 ], [ true, %1 ], [ true, %1 ], [ true, %1 ], [ true, %1 ], [ true, %1 ], [ true, %1 ], [ true, %1 ], [ true, %1 ], [ true, %1 ], [ true, %1 ], [ true, %1 ], [ true, %1 ], [ true, %1 ], [ true, %1 ], [ true, %1 ], [ true, %1 ], [ true, %1 ], [ true, %1 ], [ true, %1 ], [ true, %1 ], [ true, %1 ], [ true, %1 ], [ true, %1 ], [ true, %1 ], [ true, %1 ], [ true, %1 ], [ true, %1 ], [ true, %1 ], [ true, %1 ], [ true, %1 ], [ true, %1 ], [ true, %1 ], [ true, %1 ], [ true, %1 ], [ true, %1 ], [ true, %1 ], [ true, %1 ], [ true, %1 ], [ true, %1 ], [ true, %1 ], [ true, %1 ], [ true, %1 ], [ true, %1 ], [ true, %1 ], [ true, %1 ], [ true, %1 ], [ true, %1 ], [ true, %1 ], [ true, %1 ], [ true, %1 ], [ true, %1 ], [ true, %1 ], [ true, %1 ], [ true, %1 ], [ true, %1 ], [ true, %1 ], [ true, %1 ], [ true, %1 ], [ true, %1 ], [ true, %1 ], [ true, %1 ], [ true, %1 ], [ true, %1 ], [ true, %1 ], [ true, %1 ], [ true, %1 ], [ true, %1 ], [ true, %1 ], [ true, %1 ], [ true, %1 ], [ true, %1 ], [ true, %1 ], [ true, %1 ], [ true, %1 ], [ true, %1 ], [ true, %1 ], [ true, %1 ], [ true, %1 ], [ true, %1 ], [ true, %1 ], [ true, %1 ], [ true, %1 ], [ true, %1 ], [ true, %1 ], [ true, %1 ], [ true, %1 ], [ true, %1 ], [ true, %1 ], [ true, %1 ], [ true, %1 ], [ true, %1 ], [ true, %1 ], [ true, %1 ], [ true, %1 ], [ true, %1 ], [ true, %1 ], [ true, %1 ], [ true, %1 ], [ true, %1 ], [ true, %1 ], [ true, %1 ], [ true, %1 ], [ true, %1 ], [ true, %1 ], [ true, %1 ], [ true, %1 ], [ true, %1 ], [ true, %1 ], [ true, %1 ], [ true, %1 ], [ true, %1 ], [ true, %1 ], [ true, %1 ], [ true, %1 ], [ true, %1 ], [ true, %1 ], [ true, %1 ], [ true, %1 ], [ true, %1 ], [ true, %1 ], [ true, %1 ], [ true, %1 ], [ true, %1 ], [ true, %1 ], [ true, %1 ], [ true, %1 ], [ true, %1 ], [ true, %1 ], [ true, %1 ], [ true, %1 ], [ true, %1 ], [ true, %1 ], [ true, %1 ], [ true, %1 ], [ true, %1 ], [ true, %1 ], [ true, %1 ], [ true, %1 ], [ true, %1 ], [ true, %1 ], [ true, %1 ], [ true, %1 ], [ true, %1 ], [ true, %1 ], [ true, %1 ], [ true, %1 ], [ true, %1 ], [ true, %1 ], [ true, %1 ], [ true, %1 ], [ true, %1 ], [ true, %1 ], [ true, %1 ], [ true, %1 ], [ true, %1 ], [ true, %1 ], [ true, %1 ], [ true, %1 ], [ true, %1 ], [ true, %1 ], [ true, %1 ], [ true, %1 ], [ true, %1 ], [ true, %1 ], [ true, %1 ], [ true, %1 ], [ true, %1 ], [ true, %1 ], [ true, %1 ], [ true, %1 ], [ true, %1 ], [ true, %1 ], [ true, %1 ], [ true, %1 ], [ true, %1 ], [ true, %1 ], [ true, %1 ], [ true, %1 ], [ true, %1 ], [ true, %1 ], [ true, %1 ], [ true, %1 ], [ true, %1 ], [ true, %1 ], [ true, %1 ], [ true, %1 ], [ true, %1 ], [ true, %1 ], [ true, %1 ], [ true, %1 ], [ true, %1 ], [ true, %1 ], [ true, %1 ], [ true, %1 ], [ true, %1 ], [ true, %1 ], [ true, %1 ], [ true, %1 ], [ true, %1 ], [ true, %1 ], [ true, %1 ], [ true, %1 ], [ true, %1 ], [ true, %1 ], [ true, %1 ], [ true, %1 ], [ true, %1 ], [ true, %1 ], [ true, %1 ], [ true, %1 ], [ true, %1 ], [ true, %1 ], [ true, %1 ], [ true, %1 ], [ true, %1 ], [ true, %1 ], [ true, %1 ], [ true, %1 ], [ true, %1 ], [ true, %1 ], [ true, %1 ], [ true, %1 ], [ true, %1 ], [ true, %1 ], [ true, %1 ], [ true, %1 ], [ true, %1 ], [ true, %1 ], [ true, %1 ], [ true, %1 ], [ true, %1 ], [ true, %1 ], [ true, %1 ], [ true, %1 ], [ true, %1 ], [ true, %1 ], [ true, %1 ], [ true, %1 ], [ true, %1 ], [ true, %1 ], [ true, %1 ], [ true, %1 ], [ true, %1 ], [ true, %1 ], [ true, %1 ], [ true, %1 ], [ true, %1 ], [ true, %1 ], [ true, %1 ], [ true, %1 ], [ true, %1 ], [ true, %1 ], [ true, %1 ], [ true, %1 ], [ true, %1 ], [ true, %1 ], [ true, %1 ], [ true, %1 ], [ true, %1 ], [ true, %1 ], [ true, %1 ], [ true, %1 ], [ true, %1 ], [ true, %1 ], [ true, %1 ], [ true, %1 ], [ true, %1 ], [ true, %1 ], [ true, %1 ], [ true, %1 ], [ true, %1 ], [ true, %1 ], [ true, %1 ], [ true, %1 ], [ true, %1 ], [ true, %1 ], [ true, %1 ], [ true, %1 ], [ true, %1 ], [ true, %1 ], [ true, %1 ], [ true, %1 ], [ true, %1 ], [ true, %1 ], [ true, %1 ], [ true, %1 ], [ true, %1 ], [ true, %1 ], [ true, %1 ], [ true, %1 ], [ true, %1 ], [ true, %1 ], [ true, %1 ], [ true, %1 ], [ true, %1 ], [ true, %1 ], [ true, %1 ], [ true, %1 ], [ true, %1 ], [ true, %1 ], [ true, %1 ], [ true, %1 ], [ true, %1 ], [ true, %1 ], [ true, %1 ], [ true, %1 ], [ true, %1 ], [ true, %1 ], [ true, %1 ], [ true, %1 ], [ true, %1 ], [ true, %1 ], [ true, %1 ], [ true, %1 ], [ true, %1 ], [ true, %1 ], [ true, %1 ], [ true, %1 ], [ true, %1 ], [ true, %1 ], [ true, %1 ], [ true, %1 ], [ true, %1 ], [ true, %1 ], [ true, %1 ], [ true, %1 ], [ true, %1 ], [ true, %1 ], [ true, %1 ], [ true, %1 ], [ true, %1 ], [ true, %1 ], [ true, %1 ], [ true, %1 ], [ true, %1 ], [ true, %1 ], [ true, %1 ], [ true, %1 ], [ true, %1 ], [ true, %1 ], [ true, %1 ], [ true, %1 ], [ true, %1 ], [ true, %1 ], [ true, %1 ], [ true, %1 ], [ true, %1 ], [ true, %1 ], [ true, %1 ], [ true, %1 ], [ true, %1 ], [ true, %1 ], [ true, %1 ], [ true, %1 ], [ true, %1 ], [ true, %1 ], [ true, %1 ], [ true, %1 ], [ true, %1 ], [ true, %1 ], [ true, %1 ], [ true, %1 ], [ true, %1 ], [ true, %1 ], [ true, %1 ], [ true, %1 ], [ true, %1 ], [ true, %1 ], [ true, %1 ], [ true, %1 ], [ true, %1 ], [ true, %1 ], [ true, %1 ], [ true, %1 ], [ true, %1 ], [ true, %1 ], [ true, %1 ], [ true, %1 ], [ true, %1 ], [ true, %1 ], [ true, %1 ], [ true, %1 ], [ true, %1 ], [ true, %1 ], [ true, %1 ], [ true, %1 ], [ true, %1 ], [ true, %1 ], [ true, %1 ], [ true, %1 ], [ true, %1 ], [ true, %1 ], [ true, %1 ], [ true, %1 ], [ true, %1 ], [ true, %1 ], [ true, %1 ], [ true, %1 ], [ true, %1 ], [ true, %1 ], [ true, %1 ], [ true, %1 ], [ true, %1 ], [ true, %1 ], [ true, %1 ], [ true, %1 ], [ true, %1 ], [ true, %1 ], [ true, %1 ], [ true, %1 ], [ true, %1 ], [ true, %1 ], [ true, %1 ], [ true, %1 ], [ true, %1 ], [ true, %1 ], [ true, %1 ], [ true, %1 ], [ true, %1 ], [ true, %1 ], [ true, %1 ], [ true, %1 ], [ true, %1 ], [ true, %1 ], [ true, %1 ], [ true, %1 ], [ true, %1 ], [ true, %1 ], [ true, %1 ], [ true, %1 ], [ true, %1 ], [ true, %1 ], [ true, %1 ], [ true, %1 ], [ true, %1 ], [ true, %1 ], [ true, %1 ], [ true, %1 ], [ true, %1 ], [ true, %1 ], [ true, %1 ], [ true, %1 ], [ true, %1 ], [ true, %1 ], [ true, %1 ], [ true, %1 ], [ true, %1 ], [ true, %1 ], [ true, %1 ], [ true, %1 ], [ true, %1 ], [ true, %1 ], [ true, %1 ], [ true, %1 ], [ true, %1 ], [ true, %1 ], [ true, %1 ], [ true, %1 ], [ true, %1 ], [ true, %1 ], [ true, %1 ], [ true, %1 ], [ true, %1 ], [ true, %1 ], [ true, %1 ], [ true, %1 ], [ true, %1 ], [ true, %1 ], [ true, %1 ], [ true, %1 ], [ true, %1 ], [ true, %1 ], [ true, %1 ], [ true, %1 ], [ true, %1 ], [ true, %1 ], [ true, %1 ], [ true, %1 ], [ true, %1 ], [ true, %1 ], [ true, %1 ], [ true, %1 ], [ true, %1 ], [ true, %1 ], [ true, %1 ], [ true, %1 ], [ true, %1 ], [ true, %1 ], [ true, %1 ], [ true, %1 ], [ true, %1 ], [ true, %1 ], [ true, %1 ], [ true, %1 ], [ true, %1 ], [ true, %1 ], [ true, %1 ], [ true, %1 ], [ true, %1 ], [ true, %1 ], [ true, %1 ], [ true, %1 ], [ true, %1 ], [ true, %1 ], [ true, %1 ], [ true, %1 ], [ true, %1 ], [ true, %1 ], [ true, %1 ], [ true, %1 ], [ true, %1 ], [ true, %1 ], [ true, %1 ], [ true, %1 ], [ true, %1 ], [ true, %1 ], [ true, %1 ], [ true, %1 ], [ true, %1 ], [ true, %1 ], [ true, %1 ], [ true, %1 ], [ true, %1 ], [ true, %1 ], [ true, %1 ], [ true, %1 ], [ true, %1 ], [ true, %1 ], [ true, %1 ], [ true, %1 ], [ true, %1 ], [ true, %1 ], [ true, %1 ], [ true, %1 ], [ true, %1 ], [ true, %1 ], [ true, %1 ], [ true, %1 ], [ true, %1 ], [ true, %1 ], [ true, %1 ], [ true, %1 ], [ true, %1 ], [ true, %1 ], [ true, %1 ], [ true, %1 ], [ true, %1 ], [ true, %1 ], [ true, %1 ], [ true, %1 ], [ true, %1 ], [ true, %1 ], [ true, %1 ], [ true, %1 ], [ true, %1 ], [ true, %1 ], [ true, %1 ], [ true, %1 ], [ true, %1 ], [ true, %1 ], [ true, %1 ], [ true, %1 ], [ true, %1 ], [ true, %1 ], [ true, %1 ], [ true, %1 ], [ true, %1 ], [ true, %1 ], [ true, %1 ], [ true, %1 ], [ true, %1 ], [ true, %1 ], [ true, %1 ], [ true, %1 ], [ true, %1 ], [ true, %1 ], [ true, %1 ], [ true, %1 ], [ true, %1 ], [ true, %1 ], [ true, %1 ], [ true, %1 ], [ true, %1 ], [ true, %1 ], [ true, %1 ], [ true, %1 ], [ true, %1 ], [ true, %1 ], [ true, %1 ], [ true, %1 ], [ true, %1 ], [ true, %1 ], [ true, %1 ], [ true, %1 ], [ true, %1 ], [ true, %1 ], [ true, %1 ], [ true, %1 ], [ true, %1 ], [ true, %1 ], [ true, %1 ], [ true, %1 ], [ true, %1 ], [ true, %1 ], [ true, %1 ], [ true, %1 ], [ true, %1 ], [ true, %1 ], [ true, %1 ], [ true, %1 ], [ true, %1 ], [ true, %1 ], [ true, %1 ], [ true, %1 ], [ true, %1 ], [ true, %1 ], [ true, %1 ], [ true, %1 ], [ true, %1 ], [ true, %1 ], [ true, %1 ], [ true, %1 ], [ true, %1 ], [ true, %1 ], [ true, %1 ], [ true, %1 ], [ true, %1 ], [ true, %1 ], [ true, %1 ], [ true, %1 ], [ true, %1 ], [ true, %1 ], [ true, %1 ], [ true, %1 ], [ true, %1 ], [ true, %1 ], [ true, %1 ], [ true, %1 ], [ true, %1 ], [ true, %1 ], [ true, %1 ], [ true, %1 ], [ true, %1 ], [ true, %1 ], [ true, %1 ], [ true, %1 ], [ true, %1 ], [ true, %1 ], [ true, %1 ], [ true, %1 ], [ true, %1 ], [ true, %1 ], [ true, %1 ], [ true, %1 ], [ true, %1 ], [ true, %1 ], [ true, %1 ], [ true, %1 ], [ true, %1 ], [ true, %1 ], [ true, %1 ], [ true, %1 ], [ true, %1 ], [ true, %1 ], [ true, %1 ], [ true, %1 ], [ true, %1 ], [ true, %1 ], [ true, %1 ], [ true, %1 ], [ true, %1 ], [ true, %1 ], [ true, %1 ], [ true, %1 ], [ true, %1 ], [ true, %1 ], [ true, %1 ], [ true, %1 ], [ true, %1 ], [ true, %1 ], [ true, %1 ], [ true, %1 ], [ true, %1 ], [ true, %1 ], [ true, %1 ], [ true, %1 ], [ true, %1 ], [ true, %1 ], [ true, %1 ], [ true, %1 ], [ true, %1 ], [ true, %1 ], [ true, %1 ], [ true, %1 ], [ true, %1 ], [ true, %1 ], [ true, %1 ], [ true, %1 ], [ true, %1 ], [ true, %1 ], [ true, %1 ], [ true, %1 ], [ true, %1 ], [ true, %1 ], [ true, %1 ], [ true, %1 ], [ true, %1 ], [ true, %1 ], [ true, %1 ], [ true, %1 ], [ true, %1 ], [ true, %1 ], [ true, %1 ], [ true, %1 ], [ true, %1 ], [ true, %1 ], [ true, %1 ], [ true, %1 ], [ true, %1 ], [ true, %1 ], [ true, %1 ], [ true, %1 ], [ true, %1 ], [ true, %1 ], [ true, %1 ], [ true, %1 ], [ true, %1 ], [ true, %1 ], [ true, %1 ], [ true, %1 ], [ true, %1 ], [ true, %1 ], [ true, %1 ], [ true, %1 ], [ true, %1 ], [ true, %1 ], [ true, %1 ], [ true, %1 ], [ true, %1 ], [ true, %1 ], [ true, %1 ], [ true, %1 ], [ true, %1 ], [ true, %1 ], [ true, %1 ], [ true, %1 ], [ true, %1 ], [ true, %1 ], [ true, %1 ], [ true, %1 ], [ true, %1 ], [ true, %1 ], [ true, %1 ], [ true, %1 ], [ true, %1 ], [ true, %1 ], [ true, %1 ], [ true, %1 ], [ true, %1 ], [ true, %1 ], [ true, %1 ], [ true, %1 ], [ true, %1 ], [ true, %1 ], [ true, %1 ], [ true, %1 ], [ true, %1 ], [ true, %1 ], [ true, %1 ], [ true, %1 ], [ true, %1 ], [ true, %1 ], [ true, %1 ], [ true, %1 ], [ true, %1 ], [ true, %1 ], [ true, %1 ], [ true, %1 ], [ true, %1 ], [ true, %1 ], [ true, %1 ], [ true, %1 ], [ true, %1 ], [ true, %1 ], [ true, %1 ], [ true, %1 ], [ true, %1 ], [ true, %1 ], [ true, %1 ], [ true, %1 ], [ true, %1 ], [ true, %1 ], [ true, %1 ], [ true, %1 ], [ true, %1 ], [ true, %1 ], [ true, %1 ], [ true, %1 ], [ true, %1 ], [ true, %1 ], [ true, %1 ], [ true, %1 ], [ true, %1 ], [ true, %1 ], [ true, %1 ], [ true, %1 ], [ true, %1 ], [ true, %1 ], [ true, %1 ], [ true, %1 ], [ true, %1 ], [ true, %1 ], [ true, %1 ], [ true, %1 ], [ true, %1 ], [ true, %1 ], [ true, %1 ], [ true, %1 ], [ true, %1 ], [ true, %1 ], [ true, %1 ], [ true, %1 ], [ true, %1 ], [ true, %1 ], [ true, %1 ], [ true, %1 ], [ true, %1 ], [ true, %1 ], [ true, %1 ], [ true, %1 ], [ true, %1 ], [ true, %1 ], [ true, %1 ], [ true, %1 ], [ true, %1 ], [ true, %1 ], [ true, %1 ], [ true, %1 ], [ true, %1 ], [ true, %1 ], [ true, %1 ], [ true, %1 ], [ true, %1 ], [ true, %1 ], [ true, %1 ], [ true, %1 ], [ true, %1 ], [ true, %1 ], [ true, %1 ], [ true, %1 ], [ true, %1 ], [ true, %1 ], [ true, %1 ], [ true, %1 ], [ true, %1 ], [ true, %1 ], [ true, %1 ], [ true, %1 ], [ true, %1 ], [ true, %1 ], [ true, %1 ], [ true, %1 ], [ true, %1 ], [ true, %1 ], [ true, %1 ], [ true, %1 ], [ true, %1 ], [ true, %1 ], [ true, %1 ], [ true, %1 ], [ true, %1 ], [ true, %1 ], [ true, %1 ], [ true, %1 ], [ true, %1 ], [ true, %1 ], [ true, %1 ], [ true, %1 ], [ true, %1 ], [ true, %1 ], [ true, %1 ], [ true, %1 ], [ true, %1 ], [ true, %1 ], [ true, %1 ], [ true, %1 ], [ true, %1 ], [ true, %1 ], [ true, %1 ], [ true, %1 ], [ true, %1 ], [ true, %1 ], [ true, %1 ], [ true, %1 ], [ true, %1 ], [ true, %1 ], [ true, %1 ], [ true, %1 ], [ true, %1 ], [ true, %1 ], [ true, %1 ], [ true, %1 ], [ true, %1 ], [ true, %1 ], [ true, %1 ], [ true, %1 ], [ true, %1 ], [ true, %1 ], [ true, %1 ], [ true, %1 ], [ true, %1 ], [ true, %1 ], [ true, %1 ], [ true, %1 ], [ true, %1 ], [ true, %1 ], [ true, %1 ], [ true, %1 ], [ true, %1 ], [ true, %1 ], [ true, %1 ], [ true, %1 ], [ true, %1 ], [ true, %1 ], [ true, %1 ], [ true, %1 ], [ true, %1 ], [ true, %1 ], [ true, %1 ], [ true, %1 ], [ true, %1 ], [ true, %1 ], [ true, %1 ], [ true, %1 ], [ true, %1 ], [ true, %1 ], [ true, %1 ], [ true, %1 ], [ true, %1 ], [ true, %1 ], [ true, %1 ], [ true, %1 ], [ true, %1 ], [ true, %1 ], [ true, %1 ], [ true, %1 ], [ true, %1 ], [ true, %1 ], [ true, %1 ], [ true, %1 ], [ true, %1 ], [ true, %1 ], [ true, %1 ], [ true, %1 ], [ true, %1 ], [ true, %1 ], [ true, %1 ], [ true, %1 ], [ true, %1 ], [ true, %1 ], [ true, %1 ], [ true, %1 ], [ true, %1 ], [ true, %1 ], [ true, %1 ], [ true, %1 ], [ true, %1 ], [ true, %1 ], [ true, %1 ], [ true, %1 ], [ true, %1 ], [ true, %1 ], [ true, %1 ], [ true, %1 ], [ true, %1 ], [ true, %1 ], [ true, %1 ], [ true, %1 ], [ true, %1 ], [ true, %1 ], [ true, %1 ], [ true, %1 ], [ true, %1 ], [ true, %1 ], [ true, %1 ], [ true, %1 ], [ true, %1 ], [ true, %1 ], [ true, %1 ], [ true, %1 ], [ true, %1 ], [ true, %1 ], [ true, %1 ], [ true, %1 ], [ true, %1 ], [ true, %1 ], [ true, %1 ], [ true, %1 ], [ true, %1 ], [ true, %1 ], [ true, %1 ], [ true, %1 ], [ true, %1 ], [ true, %1 ], [ true, %1 ], [ true, %1 ], [ true, %1 ], [ true, %1 ], [ true, %1 ], [ true, %1 ], [ true, %1 ], [ true, %1 ], [ true, %1 ], [ true, %1 ], [ true, %1 ], [ true, %1 ], [ true, %1 ], [ true, %1 ], [ true, %1 ], [ true, %1 ], [ true, %1 ], [ true, %1 ], [ true, %1 ], [ true, %1 ], [ true, %1 ], [ true, %1 ], [ true, %1 ], [ true, %1 ], [ true, %1 ], [ true, %1 ], [ true, %1 ], [ true, %1 ], [ true, %1 ], [ true, %1 ], [ true, %1 ], [ true, %1 ], [ true, %1 ], [ true, %1 ], [ true, %1 ], [ true, %1 ], [ true, %1 ], [ true, %1 ], [ true, %1 ], [ true, %1 ], [ true, %1 ], [ true, %1 ], [ true, %1 ], [ true, %1 ], [ true, %1 ], [ true, %1 ], [ true, %1 ], [ true, %1 ], [ true, %1 ], [ true, %1 ], [ true, %1 ], [ true, %1 ], [ true, %1 ], [ true, %1 ], [ true, %1 ], [ true, %1 ], [ true, %1 ], [ true, %1 ], [ true, %1 ], [ true, %1 ], [ true, %1 ], [ true, %1 ], [ true, %1 ], [ true, %1 ], [ true, %1 ], [ true, %1 ], [ true, %1 ], [ true, %1 ], [ true, %1 ], [ true, %1 ], [ true, %1 ], [ true, %1 ], [ true, %1 ], [ true, %1 ], [ true, %1 ], [ true, %1 ], [ true, %1 ], [ true, %1 ], [ true, %1 ], [ true, %1 ], [ true, %1 ], [ true, %1 ], [ true, %1 ], [ true, %1 ], [ true, %1 ], [ true, %1 ], [ true, %1 ], [ true, %1 ], [ true, %1 ], [ true, %1 ], [ true, %1 ], [ true, %1 ], [ true, %1 ], [ true, %1 ], [ true, %1 ], [ true, %1 ], [ true, %1 ], [ true, %1 ], [ true, %1 ], [ true, %1 ], [ true, %1 ], [ true, %1 ], [ true, %1 ], [ true, %1 ], [ true, %1 ], [ true, %1 ], [ true, %1 ], [ true, %1 ], [ true, %1 ], [ true, %1 ], [ true, %1 ], [ true, %1 ], [ true, %1 ], [ true, %1 ], [ true, %1 ], [ true, %1 ], [ true, %1 ], [ true, %1 ], [ true, %1 ], [ true, %1 ], [ true, %1 ], [ true, %1 ], [ true, %1 ], [ true, %1 ], [ true, %1 ], [ true, %1 ], [ true, %1 ], [ true, %1 ], [ true, %1 ], [ true, %1 ], [ true, %1 ], [ true, %1 ], [ true, %1 ], [ true, %1 ], [ true, %1 ], [ true, %1 ], [ true, %1 ], [ true, %1 ], [ true, %1 ], [ true, %1 ], [ true, %1 ], [ true, %1 ], [ true, %1 ], [ true, %1 ], [ true, %1 ], [ true, %1 ], [ true, %1 ], [ true, %1 ], [ true, %1 ], [ true, %1 ], [ true, %1 ], [ true, %1 ], [ true, %1 ], [ true, %1 ], [ true, %1 ], [ true, %1 ], [ true, %1 ], [ true, %1 ], [ true, %1 ], [ true, %1 ], [ true, %1 ], [ true, %1 ], [ true, %1 ], [ true, %1 ], [ true, %1 ], [ true, %1 ], [ true, %1 ], [ true, %1 ], [ true, %1 ], [ true, %1 ], [ true, %1 ], [ true, %1 ], [ true, %1 ], [ true, %1 ], [ true, %1 ], [ true, %1 ], [ true, %1 ], [ true, %1 ], [ true, %1 ], [ true, %1 ], [ true, %1 ], [ true, %1 ], [ true, %1 ], [ true, %1 ], [ true, %1 ], [ true, %1 ], [ true, %1 ], [ true, %1 ], [ true, %1 ], [ true, %1 ], [ true, %1 ], [ true, %1 ], [ true, %1 ], [ true, %1 ], [ true, %1 ], [ true, %1 ], [ true, %1 ], [ true, %1 ], [ true, %1 ], [ true, %1 ], [ true, %1 ], [ true, %1 ], [ true, %1 ], [ true, %1 ], [ true, %1 ], [ true, %1 ], [ true, %1 ], [ true, %1 ], [ true, %1 ], [ true, %1 ], [ true, %1 ], [ true, %1 ], [ true, %1 ], [ true, %1 ], [ true, %1 ], [ true, %1 ], [ true, %1 ], [ true, %1 ], [ true, %1 ], [ true, %1 ], [ true, %1 ], [ true, %1 ], [ true, %1 ], [ true, %1 ], [ true, %1 ], [ true, %1 ], [ true, %1 ], [ true, %1 ], [ true, %1 ], [ true, %1 ], [ true, %1 ], [ true, %1 ], [ true, %1 ], [ true, %1 ], [ true, %1 ], [ true, %1 ], [ true, %1 ], [ true, %1 ], [ true, %1 ], [ true, %1 ], [ true, %1 ], [ true, %1 ], [ true, %1 ], [ true, %1 ], [ true, %1 ], [ true, %1 ], [ true, %1 ], [ true, %1 ], [ true, %1 ], [ true, %1 ], [ true, %1 ], [ true, %1 ], [ true, %1 ], [ true, %1 ], [ true, %1 ], [ true, %1 ], [ true, %1 ], [ true, %1 ], [ true, %1 ], [ true, %1 ], [ true, %1 ], [ true, %1 ], [ true, %1 ], [ true, %1 ], [ true, %1 ], [ true, %1 ], [ true, %1 ], [ true, %1 ], [ true, %1 ], [ true, %1 ], [ true, %1 ], [ true, %1 ], [ true, %1 ], [ true, %1 ], [ true, %1 ], [ true, %1 ], [ true, %1 ], [ true, %1 ], [ true, %1 ], [ true, %1 ], [ true, %1 ], [ true, %1 ], [ true, %1 ], [ true, %1 ], [ true, %1 ], [ true, %1 ], [ true, %1 ], [ true, %1 ], [ true, %1 ], [ true, %1 ], [ true, %1 ], [ true, %1 ], [ true, %1 ], [ true, %1 ], [ true, %1 ], [ true, %1 ], [ true, %1 ], [ true, %1 ], [ true, %1 ], [ true, %1 ], [ true, %1 ], [ true, %1 ], [ true, %1 ], [ true, %1 ], [ true, %1 ], [ true, %1 ], [ true, %1 ], [ true, %1 ], [ true, %1 ], [ true, %1 ], [ true, %1 ], [ true, %1 ], [ true, %1 ], [ true, %1 ], [ true, %1 ], [ true, %1 ], [ true, %1 ], [ true, %1 ], [ true, %1 ], [ true, %1 ], [ true, %1 ], [ true, %1 ], [ true, %1 ], [ true, %1 ], [ true, %1 ], [ true, %1 ], [ true, %1 ], [ true, %1 ], [ true, %1 ], [ true, %1 ], [ true, %1 ], [ true, %1 ], [ true, %1 ], [ true, %1 ], [ true, %1 ], [ true, %1 ], [ true, %1 ], [ true, %1 ], [ true, %1 ], [ true, %1 ], [ true, %1 ], [ true, %1 ], [ true, %1 ], [ true, %1 ], [ true, %1 ], [ true, %1 ], [ true, %1 ], [ true, %1 ], [ true, %1 ], [ true, %1 ], [ true, %1 ], [ true, %1 ], [ true, %1 ], [ true, %1 ], [ true, %1 ], [ true, %1 ], [ true, %1 ], [ true, %1 ], [ true, %1 ], [ true, %1 ], [ true, %1 ], [ true, %1 ], [ true, %1 ], [ true, %1 ], [ true, %1 ], [ true, %1 ], [ true, %1 ], [ true, %1 ], [ true, %1 ], [ true, %1 ], [ true, %1 ], [ true, %1 ], [ true, %1 ], [ true, %1 ], [ true, %1 ], [ true, %1 ], [ true, %1 ], [ true, %1 ], [ true, %1 ], [ true, %1 ], [ true, %1 ], [ true, %1 ], [ true, %1 ], [ true, %1 ], [ true, %1 ], [ true, %1 ], [ true, %1 ], [ true, %1 ], [ true, %1 ], [ true, %1 ], [ true, %1 ], [ true, %1 ], [ true, %1 ], [ true, %1 ], [ true, %1 ], [ true, %1 ], [ true, %1 ], [ true, %1 ], [ true, %1 ], [ true, %1 ], [ true, %1 ], [ true, %1 ], [ true, %1 ], [ true, %1 ], [ true, %1 ], [ true, %1 ], [ true, %1 ], [ true, %1 ], [ true, %1 ], [ true, %1 ], [ true, %1 ], [ true, %1 ], [ true, %1 ], [ true, %1 ], [ true, %1 ], [ true, %1 ], [ true, %1 ], [ true, %1 ], [ true, %1 ], [ true, %1 ], [ true, %1 ], [ true, %1 ], [ true, %1 ], [ true, %1 ], [ true, %1 ], [ true, %1 ], [ true, %1 ], [ true, %1 ], [ true, %1 ], [ true, %1 ], [ true, %1 ], [ true, %1 ], [ true, %1 ], [ true, %1 ], [ true, %1 ], [ true, %1 ], [ true, %1 ], [ true, %1 ], [ true, %1 ], [ true, %1 ], [ true, %1 ], [ true, %1 ], [ true, %1 ], [ true, %1 ], [ true, %1 ], [ true, %1 ], [ true, %1 ], [ true, %1 ], [ true, %1 ], [ true, %1 ], [ true, %1 ], [ true, %1 ], [ true, %1 ], [ true, %1 ], [ true, %1 ], [ true, %1 ], [ true, %1 ], [ true, %1 ], [ true, %1 ], [ true, %1 ], [ true, %1 ], [ true, %1 ], [ true, %1 ], [ true, %1 ], [ true, %1 ], [ true, %1 ], [ true, %1 ], [ true, %1 ], [ true, %1 ], [ true, %1 ], [ true, %1 ], [ true, %1 ], [ true, %1 ], [ true, %1 ], [ true, %1 ], [ true, %1 ], [ true, %1 ], [ true, %1 ], [ true, %1 ], [ true, %1 ], [ true, %1 ], [ true, %1 ], [ true, %1 ], [ true, %1 ], [ true, %1 ], [ true, %1 ], [ true, %1 ], [ true, %1 ], [ true, %1 ], [ true, %1 ], [ true, %1 ], [ true, %1 ], [ true, %1 ], [ true, %1 ], [ true, %1 ], [ true, %1 ], [ true, %1 ], [ true, %1 ], [ true, %1 ], [ true, %1 ], [ true, %1 ], [ true, %1 ], [ true, %1 ], [ true, %1 ], [ true, %1 ], [ true, %1 ], [ true, %1 ], [ true, %1 ], [ true, %1 ], [ true, %1 ], [ true, %1 ], [ true, %1 ], [ true, %1 ], [ true, %1 ], [ true, %1 ], [ true, %1 ], [ true, %1 ], [ true, %1 ], [ true, %1 ], [ true, %1 ], [ true, %1 ], [ true, %1 ], [ true, %1 ], [ true, %1 ], [ true, %1 ], [ true, %1 ], [ true, %1 ], [ true, %1 ], [ true, %1 ], [ true, %1 ], [ true, %1 ], [ true, %1 ], [ true, %1 ], [ true, %1 ], [ true, %1 ], [ true, %1 ], [ true, %1 ], [ true, %1 ], [ true, %1 ], [ true, %1 ], [ true, %1 ], [ true, %1 ], [ true, %1 ], [ true, %1 ], [ true, %1 ], [ true, %1 ], [ true, %1 ], [ true, %1 ], [ true, %1 ], [ true, %1 ], [ true, %1 ], [ true, %1 ], [ true, %1 ], [ true, %1 ], [ true, %1 ], [ true, %1 ], [ true, %1 ], [ true, %1 ], [ true, %1 ], [ true, %1 ], [ true, %1 ], [ true, %1 ], [ true, %1 ], [ true, %1 ], [ true, %1 ], [ true, %1 ], [ true, %1 ], [ true, %1 ], [ true, %1 ], [ true, %1 ], [ true, %1 ], [ true, %1 ], [ true, %1 ], [ true, %1 ], [ true, %1 ], [ true, %1 ], [ true, %1 ], [ true, %1 ], [ true, %1 ], [ true, %1 ], [ true, %1 ], [ true, %1 ], [ true, %1 ], [ true, %1 ], [ true, %1 ], [ true, %1 ], [ true, %1 ], [ true, %1 ], [ true, %1 ], [ true, %1 ], [ true, %1 ], [ true, %1 ], [ true, %1 ], [ true, %1 ], [ true, %1 ], [ true, %1 ], [ true, %1 ], [ true, %1 ], [ true, %1 ], [ true, %1 ], [ true, %1 ], [ true, %1 ], [ true, %1 ], [ true, %1 ], [ true, %1 ], [ true, %1 ], [ true, %1 ], [ true, %1 ], [ true, %1 ], [ true, %1 ], [ true, %1 ], [ true, %1 ], [ true, %1 ], [ true, %1 ], [ true, %1 ], [ true, %1 ], [ true, %1 ], [ true, %1 ], [ true, %1 ], [ true, %1 ], [ true, %1 ], [ true, %1 ], [ true, %1 ], [ true, %1 ], [ true, %1 ], [ true, %1 ], [ true, %1 ], [ true, %1 ], [ true, %1 ], [ true, %1 ], [ true, %1 ], [ true, %1 ], [ true, %1 ], [ true, %1 ], [ true, %1 ], [ true, %1 ], [ true, %1 ], [ true, %1 ], [ true, %1 ], [ true, %1 ], [ true, %1 ], [ true, %1 ], [ true, %1 ], [ true, %1 ], [ true, %1 ], [ true, %1 ], [ true, %1 ], [ true, %1 ], [ true, %1 ], [ true, %1 ], [ true, %1 ], [ true, %1 ], [ true, %1 ], [ true, %1 ], [ true, %1 ], [ true, %1 ], [ true, %1 ], [ true, %1 ], [ true, %1 ], [ true, %1 ], [ true, %1 ], [ true, %1 ], [ true, %1 ], [ true, %1 ], [ true, %1 ], [ true, %1 ], [ true, %1 ], [ true, %1 ], [ true, %1 ], [ true, %1 ], [ true, %1 ], [ true, %1 ], [ true, %1 ], [ true, %1 ], [ true, %1 ], [ true, %1 ], [ true, %1 ], [ true, %1 ], [ true, %1 ], [ true, %1 ], [ true, %1 ], [ true, %1 ], [ true, %1 ], [ true, %1 ], [ true, %1 ], [ true, %1 ], [ true, %1 ], [ true, %1 ], [ true, %1 ], [ true, %1 ], [ true, %1 ], [ true, %1 ], [ true, %1 ], [ true, %1 ], [ true, %1 ], [ true, %1 ], [ true, %1 ], [ true, %1 ], [ true, %1 ], [ true, %1 ], [ true, %1 ], [ true, %1 ], [ true, %1 ], [ true, %1 ], [ true, %1 ], [ true, %1 ], [ true, %1 ], [ true, %1 ], [ true, %1 ], [ true, %1 ], [ true, %1 ], [ true, %1 ], [ true, %1 ], [ true, %1 ], [ true, %1 ], [ true, %1 ], [ true, %1 ], [ true, %1 ], [ true, %1 ], [ true, %1 ], [ true, %1 ], [ true, %1 ], [ true, %1 ], [ true, %1 ], [ true, %1 ], [ true, %1 ], [ true, %1 ], [ true, %1 ], [ true, %1 ], [ true, %1 ], [ true, %1 ], [ true, %1 ], [ true, %1 ], [ true, %1 ], [ true, %1 ], [ true, %1 ], [ true, %1 ], [ true, %1 ], [ true, %1 ], [ true, %1 ], [ true, %1 ], [ true, %1 ], [ true, %1 ], [ true, %1 ], [ true, %1 ], [ true, %1 ], [ true, %1 ], [ true, %1 ], [ true, %1 ], [ true, %1 ], [ true, %1 ], [ true, %1 ], [ true, %1 ], [ true, %1 ], [ true, %1 ], [ true, %1 ], [ true, %1 ], [ true, %1 ], [ true, %1 ], [ true, %1 ], [ true, %1 ], [ true, %1 ], [ true, %1 ], [ true, %1 ], [ true, %1 ], [ true, %1 ], [ true, %1 ], [ true, %1 ], [ true, %1 ], [ true, %1 ], [ true, %1 ], [ true, %1 ], [ true, %1 ], [ true, %1 ], [ true, %1 ], [ true, %1 ], [ true, %1 ], [ true, %1 ], [ true, %1 ], [ true, %1 ], [ true, %1 ], [ true, %1 ], [ true, %1 ], [ true, %1 ], [ true, %1 ], [ true, %1 ], [ true, %1 ], [ true, %1 ], [ true, %1 ], [ true, %1 ], [ true, %1 ], [ true, %1 ], [ true, %1 ], [ true, %1 ], [ true, %1 ], [ true, %1 ], [ true, %1 ], [ true, %1 ], [ true, %1 ], [ true, %1 ], [ true, %1 ], [ true, %1 ], [ true, %1 ], [ true, %1 ], [ true, %1 ], [ true, %1 ], [ true, %1 ], [ true, %1 ], [ true, %1 ], [ true, %1 ], [ true, %1 ], [ true, %1 ], [ true, %1 ], [ true, %1 ], [ true, %1 ], [ true, %1 ], [ true, %1 ], [ true, %1 ], [ true, %1 ], [ true, %1 ], [ true, %1 ], [ true, %1 ], [ true, %1 ], [ true, %1 ], [ true, %1 ], [ true, %1 ], [ true, %1 ], [ true, %1 ], [ true, %1 ], [ true, %1 ], [ true, %1 ], [ true, %1 ], [ true, %1 ], [ true, %1 ], [ true, %1 ], [ true, %1 ], [ true, %1 ], [ true, %1 ], [ true, %1 ], [ true, %1 ], [ true, %1 ], [ true, %1 ], [ true, %1 ], [ true, %1 ], [ true, %1 ], [ true, %1 ], [ true, %1 ], [ true, %1 ], [ true, %1 ], [ true, %1 ], [ true, %1 ], [ true, %1 ], [ true, %1 ], [ true, %1 ], [ true, %1 ], [ true, %1 ], [ true, %1 ], [ true, %1 ], [ true, %1 ], [ true, %1 ], [ true, %1 ], [ true, %1 ], [ true, %1 ], [ true, %1 ], [ true, %1 ], [ true, %1 ], [ true, %1 ], [ true, %1 ], [ true, %1 ], [ true, %1 ], [ true, %1 ], [ true, %1 ], [ true, %1 ], [ true, %1 ], [ true, %1 ], [ true, %1 ], [ true, %1 ], [ true, %1 ], [ true, %1 ], [ true, %1 ], [ true, %1 ], [ true, %1 ], [ true, %1 ], [ true, %1 ], [ true, %1 ], [ true, %1 ], [ true, %1 ], [ true, %1 ], [ true, %1 ], [ true, %1 ], [ true, %1 ], [ true, %1 ], [ true, %1 ], [ true, %1 ], [ true, %1 ], [ true, %1 ], [ true, %1 ], [ true, %1 ], [ true, %1 ], [ true, %1 ], [ true, %1 ], [ true, %1 ], [ true, %1 ], [ true, %1 ], [ true, %1 ], [ true, %1 ], [ true, %1 ], [ true, %1 ], [ true, %1 ], [ true, %1 ], [ true, %1 ], [ true, %1 ], [ true, %1 ], [ true, %1 ], [ true, %1 ], [ true, %1 ], [ true, %1 ], [ true, %1 ], [ true, %1 ], [ true, %1 ], [ true, %1 ], [ true, %1 ], [ true, %1 ], [ true, %1 ], [ true, %1 ], [ true, %1 ], [ true, %1 ], [ true, %1 ], [ true, %1 ], [ true, %1 ], [ true, %1 ], [ true, %1 ], [ true, %1 ], [ true, %1 ], [ true, %1 ], [ true, %1 ], [ true, %1 ], [ true, %1 ], [ true, %1 ], [ true, %1 ], [ true, %1 ], [ true, %1 ], [ true, %1 ], [ true, %1 ]
  ret i1 %4
}

; Function Attrs: noreturn
declare void @_ZNKSt3__121__basic_string_commonILb1EE20__throw_length_errorEv(%"class.std::__1::__basic_string_common"*) local_unnamed_addr #6

; Function Attrs: nobuiltin nofree
declare noalias nonnull i8* @_Znwm(i64) local_unnamed_addr #7

; Function Attrs: argmemonly nofree nounwind readonly
declare i64 @strlen(i8* nocapture) local_unnamed_addr #8

; Function Attrs: nounwind ssp uwtable
define linkonce_odr hidden dereferenceable(160) %"class.std::__1::basic_ostream"* @_ZNSt3__124__put_character_sequenceIcNS_11char_traitsIcEEEERNS_13basic_ostreamIT_T0_EES7_PKS4_m(%"class.std::__1::basic_ostream"* dereferenceable(160), i8*, i64) local_unnamed_addr #0 comdat {
  %4 = alloca %"class.std::__1::locale", align 8
  %5 = alloca %"class.std::__1::basic_ostream<char, std::__1::char_traits<char> >::sentry", align 8
  %6 = getelementptr inbounds %"class.std::__1::basic_ostream<char, std::__1::char_traits<char> >::sentry", %"class.std::__1::basic_ostream<char, std::__1::char_traits<char> >::sentry"* %5, i64 0, i32 0
  call void @llvm.lifetime.start.p0i8(i64 16, i8* nonnull %6) #10
  call void @llvm.memset.p0i8.i64(i8* nonnull align 8 %6, i8 -86, i64 16, i1 false)
  call void @_ZNSt3__113basic_ostreamIcNS_11char_traitsIcEEE6sentryC1ERS3_(%"class.std::__1::basic_ostream<char, std::__1::char_traits<char> >::sentry"* nonnull %5, %"class.std::__1::basic_ostream"* dereferenceable(160) %0) #10
  %7 = load i8, i8* %6, align 8, !range !2
  %8 = icmp eq i8 %7, 0
  br i1 %8, label %58, label %9

9:                                                ; preds = %3
  %10 = bitcast %"class.std::__1::basic_ostream"* %0 to i8**
  %11 = load i8*, i8** %10, align 8
  %12 = getelementptr i8, i8* %11, i64 -24
  %13 = bitcast i8* %12 to i64*
  %14 = load i64, i64* %13, align 8
  %15 = bitcast %"class.std::__1::basic_ostream"* %0 to i8*
  %16 = getelementptr inbounds i8, i8* %15, i64 %14
  %17 = getelementptr inbounds i8, i8* %16, i64 40
  %18 = bitcast i8* %17 to %"class.std::__1::basic_streambuf"**
  %19 = load %"class.std::__1::basic_streambuf"*, %"class.std::__1::basic_streambuf"** %18, align 8
  %20 = bitcast i8* %16 to %"class.std::__1::ios_base"*
  %21 = getelementptr inbounds i8, i8* %16, i64 8
  %22 = bitcast i8* %21 to i32*
  %23 = load i32, i32* %22, align 8
  %24 = and i32 %23, 176
  %25 = icmp eq i32 %24, 32
  %26 = getelementptr inbounds i8, i8* %1, i64 %2
  %27 = select i1 %25, i8* %26, i8* %1
  %28 = getelementptr inbounds i8, i8* %16, i64 144
  %29 = bitcast i8* %28 to i32*
  %30 = load i32, i32* %29, align 8
  %31 = icmp eq i32 %30, -1
  br i1 %31, label %32, label %42

32:                                               ; preds = %9
  %33 = bitcast %"class.std::__1::locale"* %4 to i8*
  call void @llvm.lifetime.start.p0i8(i64 8, i8* nonnull %33) #10
  call void @_ZNKSt3__18ios_base6getlocEv(%"class.std::__1::locale"* nonnull sret %4, %"class.std::__1::ios_base"* %20) #10
  %34 = call %"class.std::__1::locale::facet"* @_ZNKSt3__16locale9use_facetERNS0_2idE(%"class.std::__1::locale"* nonnull %4, %"class.std::__1::locale::id"* nonnull dereferenceable(16) @_ZNSt3__15ctypeIcE2idE) #10
  %35 = bitcast %"class.std::__1::locale::facet"* %34 to %"class.std::__1::ctype"*
  %36 = bitcast %"class.std::__1::locale::facet"* %34 to i8 (%"class.std::__1::ctype"*, i8)***
  %37 = load i8 (%"class.std::__1::ctype"*, i8)**, i8 (%"class.std::__1::ctype"*, i8)*** %36, align 8
  %38 = getelementptr inbounds i8 (%"class.std::__1::ctype"*, i8)*, i8 (%"class.std::__1::ctype"*, i8)** %37, i64 7
  %39 = load i8 (%"class.std::__1::ctype"*, i8)*, i8 (%"class.std::__1::ctype"*, i8)** %38, align 8
  %40 = call signext i8 %39(%"class.std::__1::ctype"* %35, i8 signext 32) #10
  call void @_ZNSt3__16localeD1Ev(%"class.std::__1::locale"* nonnull %4) #10
  call void @llvm.lifetime.end.p0i8(i64 8, i8* nonnull %33) #10
  %41 = sext i8 %40 to i32
  store i32 %41, i32* %29, align 8
  br label %42

42:                                               ; preds = %9, %32
  %43 = phi i32 [ %41, %32 ], [ %30, %9 ]
  %44 = trunc i32 %43 to i8
  %45 = call %"class.std::__1::basic_streambuf"* @_ZNSt3__116__pad_and_outputIcNS_11char_traitsIcEEEENS_19ostreambuf_iteratorIT_T0_EES6_PKS4_S8_S8_RNS_8ios_baseES4_(%"class.std::__1::basic_streambuf"* %19, i8* %1, i8* %27, i8* %26, %"class.std::__1::ios_base"* dereferenceable(136) %20, i8 signext %44)
  %46 = icmp eq %"class.std::__1::basic_streambuf"* %45, null
  br i1 %46, label %47, label %58

47:                                               ; preds = %42
  %48 = load i8*, i8** %10, align 8
  %49 = getelementptr i8, i8* %48, i64 -24
  %50 = bitcast i8* %49 to i64*
  %51 = load i64, i64* %50, align 8
  %52 = getelementptr inbounds i8, i8* %15, i64 %51
  %53 = bitcast i8* %52 to %"class.std::__1::ios_base"*
  %54 = getelementptr inbounds i8, i8* %52, i64 32
  %55 = bitcast i8* %54 to i32*
  %56 = load i32, i32* %55, align 8
  %57 = or i32 %56, 5
  call void @_ZNSt3__18ios_base5clearEj(%"class.std::__1::ios_base"* %53, i32 %57) #10
  br label %58

58:                                               ; preds = %3, %42, %47
  call void @_ZNSt3__113basic_ostreamIcNS_11char_traitsIcEEE6sentryD1Ev(%"class.std::__1::basic_ostream<char, std::__1::char_traits<char> >::sentry"* nonnull %5) #10
  call void @llvm.lifetime.end.p0i8(i64 16, i8* nonnull %6) #10
  ret %"class.std::__1::basic_ostream"* %0
}

declare void @_ZNSt3__113basic_ostreamIcNS_11char_traitsIcEEE6sentryC1ERS3_(%"class.std::__1::basic_ostream<char, std::__1::char_traits<char> >::sentry"*, %"class.std::__1::basic_ostream"* dereferenceable(160)) unnamed_addr #3

; Function Attrs: nounwind ssp uwtable
define linkonce_odr hidden %"class.std::__1::basic_streambuf"* @_ZNSt3__116__pad_and_outputIcNS_11char_traitsIcEEEENS_19ostreambuf_iteratorIT_T0_EES6_PKS4_S8_S8_RNS_8ios_baseES4_(%"class.std::__1::basic_streambuf"*, i8*, i8*, i8*, %"class.std::__1::ios_base"* dereferenceable(136), i8 signext) local_unnamed_addr #0 comdat {
  %7 = alloca %"class.std::__1::basic_string", align 8
  %8 = icmp eq %"class.std::__1::basic_streambuf"* %0, null
  br i1 %8, label %78, label %9

9:                                                ; preds = %6
  %10 = ptrtoint i8* %3 to i64
  %11 = ptrtoint i8* %1 to i64
  %12 = sub i64 %10, %11
  %13 = getelementptr inbounds %"class.std::__1::ios_base", %"class.std::__1::ios_base"* %4, i64 0, i32 3
  %14 = load i64, i64* %13, align 8
  %15 = icmp sgt i64 %14, %12
  %16 = sub nsw i64 %14, %12
  %17 = select i1 %15, i64 %16, i64 0
  %18 = ptrtoint i8* %2 to i64
  %19 = sub i64 %18, %11
  %20 = icmp sgt i64 %19, 0
  br i1 %20, label %21, label %28

21:                                               ; preds = %9
  %22 = bitcast %"class.std::__1::basic_streambuf"* %0 to i64 (%"class.std::__1::basic_streambuf"*, i8*, i64)***
  %23 = load i64 (%"class.std::__1::basic_streambuf"*, i8*, i64)**, i64 (%"class.std::__1::basic_streambuf"*, i8*, i64)*** %22, align 8
  %24 = getelementptr inbounds i64 (%"class.std::__1::basic_streambuf"*, i8*, i64)*, i64 (%"class.std::__1::basic_streambuf"*, i8*, i64)** %23, i64 12
  %25 = load i64 (%"class.std::__1::basic_streambuf"*, i8*, i64)*, i64 (%"class.std::__1::basic_streambuf"*, i8*, i64)** %24, align 8
  %26 = tail call i64 %25(%"class.std::__1::basic_streambuf"* nonnull %0, i8* %1, i64 %19) #10
  %27 = icmp eq i64 %26, %19
  br i1 %27, label %28, label %78

28:                                               ; preds = %21, %9
  %29 = icmp sgt i64 %17, 0
  br i1 %29, label %30, label %67

30:                                               ; preds = %28
  %31 = bitcast %"class.std::__1::basic_string"* %7 to i8*
  call void @llvm.lifetime.start.p0i8(i64 24, i8* nonnull %31) #10
  %32 = getelementptr inbounds %"class.std::__1::basic_string", %"class.std::__1::basic_string"* %7, i64 0, i32 0, i32 0, i32 0, i32 0, i32 0, i32 0
  %33 = icmp ult i64 %17, 23
  %34 = bitcast %"class.std::__1::basic_string"* %7 to i8*
  call void @llvm.memset.p0i8.i64(i8* nonnull align 8 %34, i8 -86, i64 24, i1 false)
  br i1 %33, label %43, label %35

35:                                               ; preds = %30
  %36 = getelementptr inbounds %"class.std::__1::basic_string", %"class.std::__1::basic_string"* %7, i64 0, i32 0, i32 0, i32 0, i32 0, i32 0, i32 2
  %37 = getelementptr inbounds %"class.std::__1::basic_string", %"class.std::__1::basic_string"* %7, i64 0, i32 0, i32 0, i32 0, i32 0, i32 0, i32 1
  %38 = add nuw i64 %17, 16
  %39 = and i64 %38, -16
  %40 = tail call i8* @_Znwm(i64 %39) #12
  store i8* %40, i8** %32, align 8
  %41 = or i64 %39, -9223372036854775808
  store i64 %41, i64* %36, align 8
  store i64 %17, i64* %37, align 8
  %42 = bitcast %"class.std::__1::basic_string"* %7 to %"struct.std::__1::basic_string<char, std::__1::char_traits<char>, std::__1::allocator<char> >::__short"*
  br label %47

43:                                               ; preds = %30
  %44 = trunc i64 %17 to i8
  %45 = bitcast %"class.std::__1::basic_string"* %7 to %"struct.std::__1::basic_string<char, std::__1::char_traits<char>, std::__1::allocator<char> >::__short"*
  %46 = getelementptr inbounds %"struct.std::__1::basic_string<char, std::__1::char_traits<char>, std::__1::allocator<char> >::__short", %"struct.std::__1::basic_string<char, std::__1::char_traits<char>, std::__1::allocator<char> >::__short"* %45, i64 0, i32 1, i32 0
  store i8 %44, i8* %46, align 1
  br label %47

47:                                               ; preds = %35, %43
  %48 = phi %"struct.std::__1::basic_string<char, std::__1::char_traits<char>, std::__1::allocator<char> >::__short"* [ %42, %35 ], [ %45, %43 ]
  %49 = phi i8* [ %40, %35 ], [ %31, %43 ]
  call void @llvm.memset.p0i8.i64(i8* nonnull align 1 %49, i8 %5, i64 %17, i1 false) #10
  %50 = getelementptr inbounds i8, i8* %49, i64 %17
  store i8 0, i8* %50, align 1
  %51 = getelementptr inbounds %"struct.std::__1::basic_string<char, std::__1::char_traits<char>, std::__1::allocator<char> >::__short", %"struct.std::__1::basic_string<char, std::__1::char_traits<char>, std::__1::allocator<char> >::__short"* %48, i64 0, i32 1, i32 0
  %52 = load i8, i8* %51, align 1
  %53 = icmp slt i8 %52, 0
  %54 = load i8*, i8** %32, align 8
  %55 = select i1 %53, i8* %54, i8* %31
  %56 = bitcast %"class.std::__1::basic_streambuf"* %0 to i64 (%"class.std::__1::basic_streambuf"*, i8*, i64)***
  %57 = load i64 (%"class.std::__1::basic_streambuf"*, i8*, i64)**, i64 (%"class.std::__1::basic_streambuf"*, i8*, i64)*** %56, align 8
  %58 = getelementptr inbounds i64 (%"class.std::__1::basic_streambuf"*, i8*, i64)*, i64 (%"class.std::__1::basic_streambuf"*, i8*, i64)** %57, i64 12
  %59 = load i64 (%"class.std::__1::basic_streambuf"*, i8*, i64)*, i64 (%"class.std::__1::basic_streambuf"*, i8*, i64)** %58, align 8
  %60 = call i64 %59(%"class.std::__1::basic_streambuf"* nonnull %0, i8* %55, i64 %17) #10
  %61 = icmp eq i64 %60, %17
  %62 = load i8, i8* %51, align 1
  %63 = icmp slt i8 %62, 0
  br i1 %63, label %64, label %66

64:                                               ; preds = %47
  %65 = load i8*, i8** %32, align 8
  call void @_ZdlPv(i8* %65) #12
  br label %66

66:                                               ; preds = %47, %64
  call void @llvm.lifetime.end.p0i8(i64 24, i8* nonnull %31) #10
  br i1 %61, label %67, label %78

67:                                               ; preds = %66, %28
  %68 = sub i64 %10, %18
  %69 = icmp sgt i64 %68, 0
  br i1 %69, label %70, label %77

70:                                               ; preds = %67
  %71 = bitcast %"class.std::__1::basic_streambuf"* %0 to i64 (%"class.std::__1::basic_streambuf"*, i8*, i64)***
  %72 = load i64 (%"class.std::__1::basic_streambuf"*, i8*, i64)**, i64 (%"class.std::__1::basic_streambuf"*, i8*, i64)*** %71, align 8
  %73 = getelementptr inbounds i64 (%"class.std::__1::basic_streambuf"*, i8*, i64)*, i64 (%"class.std::__1::basic_streambuf"*, i8*, i64)** %72, i64 12
  %74 = load i64 (%"class.std::__1::basic_streambuf"*, i8*, i64)*, i64 (%"class.std::__1::basic_streambuf"*, i8*, i64)** %73, align 8
  %75 = call i64 %74(%"class.std::__1::basic_streambuf"* nonnull %0, i8* %2, i64 %68) #10
  %76 = icmp eq i64 %75, %68
  br i1 %76, label %77, label %78

77:                                               ; preds = %70, %67
  store i64 0, i64* %13, align 8
  br label %78

78:                                               ; preds = %77, %66, %21, %70, %6
  %79 = phi %"class.std::__1::basic_streambuf"* [ null, %6 ], [ %0, %77 ], [ null, %66 ], [ null, %21 ], [ null, %70 ]
  ret %"class.std::__1::basic_streambuf"* %79
}

; Function Attrs: nounwind
declare void @_ZNSt3__113basic_ostreamIcNS_11char_traitsIcEEE6sentryD1Ev(%"class.std::__1::basic_ostream<char, std::__1::char_traits<char> >::sentry"*) unnamed_addr #9

; Function Attrs: argmemonly nounwind
declare void @llvm.memset.p0i8.i64(i8* nocapture writeonly, i8, i64, i1 immarg) #1

declare void @_ZNKSt3__18ios_base6getlocEv(%"class.std::__1::locale"* sret, %"class.std::__1::ios_base"*) local_unnamed_addr #3

; Function Attrs: nounwind
declare void @_ZNSt3__16localeD1Ev(%"class.std::__1::locale"*) unnamed_addr #9

declare %"class.std::__1::locale::facet"* @_ZNKSt3__16locale9use_facetERNS0_2idE(%"class.std::__1::locale"*, %"class.std::__1::locale::id"* dereferenceable(16)) local_unnamed_addr #3

declare void @_ZNSt3__18ios_base5clearEj(%"class.std::__1::ios_base"*, i32) local_unnamed_addr #3

declare void @_ZN4mojo8internal32ReportNonNullableValidationErrorEPNS0_17ValidationContextENS0_15ValidationErrorEi(%"class.mojo::internal::ValidationContext"*, i32, i32) local_unnamed_addr #3

declare zeroext i1 @_ZN3url5mojom8internal8Url_Data8ValidateEPKvPN4mojo8internal17ValidationContextE(i8*, %"class.mojo::internal::ValidationContext"*) local_unnamed_addr #3

declare zeroext i1 @_ZN5blink5mojom8internal37ServiceWorkerRegistrationOptions_Data8ValidateEPKvPN4mojo8internal17ValidationContextE(i8*, %"class.mojo::internal::ValidationContext"*) local_unnamed_addr #3

declare zeroext i1 @_ZN5blink5mojom8internal30FetchClientSettingsObject_Data8ValidateEPKvPN4mojo8internal17ValidationContextE(i8*, %"class.mojo::internal::ValidationContext"*) local_unnamed_addr #3

; Function Attrs: nounwind ssp uwtable
define linkonce_odr hidden zeroext i1 @_ZN4mojo8internal10Array_DataIcE8ValidateEPKvPNS0_17ValidationContextEPKNS0_23ContainerValidateParamsE(i8*, %"class.mojo::internal::ValidationContext"*, %"class.mojo::internal::ContainerValidateParams"*) local_unnamed_addr #0 comdat align 2 {
  %4 = alloca %"class.std::__1::basic_string", align 8
  %5 = icmp eq i8* %0, null
  br i1 %5, label %87, label %6

6:                                                ; preds = %3
  %7 = ptrtoint i8* %0 to i64
  %8 = and i64 %7, 7
  %9 = icmp eq i64 %8, 0
  br i1 %9, label %11, label %10

10:                                               ; preds = %6
  tail call void @_ZN4mojo8internal21ReportValidationErrorEPNS0_17ValidationContextENS0_15ValidationErrorEPKc(%"class.mojo::internal::ValidationContext"* %1, i32 1, i8* null) #10
  br label %87

11:                                               ; preds = %6
  %12 = add i64 %7, 8
  %13 = icmp ult i8* %0, inttoptr (i64 -8 to i8*)
  br i1 %13, label %14, label %22

14:                                               ; preds = %11
  %15 = getelementptr inbounds %"class.mojo::internal::ValidationContext", %"class.mojo::internal::ValidationContext"* %1, i64 0, i32 4
  %16 = load i64, i64* %15, align 8
  %17 = icmp ugt i64 %16, %7
  br i1 %17, label %22, label %18

18:                                               ; preds = %14
  %19 = getelementptr inbounds %"class.mojo::internal::ValidationContext", %"class.mojo::internal::ValidationContext"* %1, i64 0, i32 5
  %20 = load i64, i64* %19, align 8
  %21 = icmp ult i64 %20, %12
  br i1 %21, label %22, label %23

22:                                               ; preds = %18, %11, %14
  tail call void @_ZN4mojo8internal21ReportValidationErrorEPNS0_17ValidationContextENS0_15ValidationErrorEPKc(%"class.mojo::internal::ValidationContext"* %1, i32 2, i8* null) #10
  br label %87

23:                                               ; preds = %18
  %24 = getelementptr inbounds i8, i8* %0, i64 4
  %25 = bitcast i8* %24 to i32*
  %26 = load i32, i32* %25, align 1
  %27 = icmp ugt i32 %26, -9
  br i1 %27, label %33, label %28

28:                                               ; preds = %23
  %29 = bitcast i8* %0 to i32*
  %30 = load i32, i32* %29, align 1
  %31 = add nuw i32 %26, 8
  %32 = icmp ult i32 %30, %31
  br i1 %32, label %33, label %34

33:                                               ; preds = %28, %23
  tail call void @_ZN4mojo8internal21ReportValidationErrorEPNS0_17ValidationContextENS0_15ValidationErrorEPKc(%"class.mojo::internal::ValidationContext"* %1, i32 4, i8* null) #10
  br label %87

34:                                               ; preds = %28
  %35 = getelementptr inbounds %"class.mojo::internal::ContainerValidateParams", %"class.mojo::internal::ContainerValidateParams"* %2, i64 0, i32 0
  %36 = load i32, i32* %35, align 8
  %37 = icmp eq i32 %36, 0
  %38 = icmp eq i32 %26, %36
  %39 = or i1 %37, %38
  br i1 %39, label %56, label %40

40:                                               ; preds = %34
  %41 = bitcast %"class.std::__1::basic_string"* %4 to i8*
  call void @llvm.lifetime.start.p0i8(i64 24, i8* nonnull %41) #10
  %42 = zext i32 %26 to i64
  %43 = zext i32 %36 to i64
  call void @_ZN4mojo8internal32MakeMessageWithExpectedArraySizeEPKcmm(%"class.std::__1::basic_string"* nonnull sret %4, i8* getelementptr inbounds ([46 x i8], [46 x i8]* @.str.3, i64 0, i64 0), i64 %42, i64 %43) #10
