; ModuleID = '../../content/browser/service_worker/service_worker_consts.cc'
source_filename = "../../content/browser/service_worker/service_worker_consts.cc"
target datalayout = "e-m:e-i64:64-f80:128-n8:16:32:64-S128"
target triple = "x86_64-unknown-linux-gnu"

module asm ".symver exp, exp@GLIBC_2.2.5"
module asm ".symver exp2, exp2@GLIBC_2.2.5"
module asm ".symver exp2f, exp2f@GLIBC_2.2.5"
module asm ".symver expf, expf@GLIBC_2.2.5"
module asm ".symver lgamma, lgamma@GLIBC_2.2.5"
module asm ".symver lgammaf, lgammaf@GLIBC_2.2.5"
module asm ".symver lgammal, lgammal@GLIBC_2.2.5"
module asm ".symver log, log@GLIBC_2.2.5"
module asm ".symver log2, log2@GLIBC_2.2.5"
module asm ".symver log2f, log2f@GLIBC_2.2.5"
module asm ".symver logf, logf@GLIBC_2.2.5"
module asm ".symver pow, pow@GLIBC_2.2.5"
module asm ".symver powf, powf@GLIBC_2.2.5"

%"class.base::TimeDelta" = type { i64 }

@_ZN7content19ServiceWorkerConsts24kBadMessageFromNonWindowE = hidden local_unnamed_addr constant [62 x i8] c"The request message should not come from a non-window client.\00", align 16
@_ZN7content19ServiceWorkerConsts44kBadMessageGetRegistrationForReadyDuplicatedE = hidden local_unnamed_addr constant [78 x i8] c"There's already a completed or ongoing request to get the ready registration.\00", align 16
@_ZN7content19ServiceWorkerConsts26kBadMessageImproperOriginsE = hidden local_unnamed_addr constant [64 x i8] c"Origins are not matching, or some cannot access service worker.\00", align 16
@_ZN7content19ServiceWorkerConsts21kBadMessageInvalidURLE = hidden local_unnamed_addr constant [23 x i8] c"Some URLs are invalid.\00", align 16
@_ZN7content19ServiceWorkerConsts32kBadNavigationPreloadHeaderValueE = hidden local_unnamed_addr constant [48 x i8] c"The navigation preload header value is invalid.\00", align 16
@_ZN7content19ServiceWorkerConsts21kDatabaseErrorMessageE = hidden local_unnamed_addr constant [26 x i8] c"Failed to access storage.\00", align 16
@_ZN7content19ServiceWorkerConsts35kEnableNavigationPreloadErrorPrefixE = hidden local_unnamed_addr constant [49 x i8] c"Failed to enable or disable navigation preload: \00", align 16
@_ZN7content19ServiceWorkerConsts37kGetNavigationPreloadStateErrorPrefixE = hidden local_unnamed_addr constant [41 x i8] c"Failed to get navigation preload state: \00", align 16
@_ZN7content19ServiceWorkerConsts25kInvalidStateErrorMessageE = hidden local_unnamed_addr constant [35 x i8] c"The object is in an invalid state.\00", align 16
@_ZN7content19ServiceWorkerConsts27kNoActiveWorkerErrorMessageE = hidden local_unnamed_addr constant [49 x i8] c"The registration does not have an active worker.\00", align 16
@_ZN7content19ServiceWorkerConsts26kNoDocumentURLErrorMessageE = hidden local_unnamed_addr constant [49 x i8] c"No URL is associated with the caller's document.\00", align 16
@_ZN7content19ServiceWorkerConsts38kSetNavigationPreloadHeaderErrorPrefixE = hidden local_unnamed_addr constant [42 x i8] c"Failed to set navigation preload header: \00", align 16
@_ZN7content19ServiceWorkerConsts21kShutdownErrorMessageE = hidden local_unnamed_addr constant [40 x i8] c"The Service Worker system has shutdown.\00", align 16
@_ZN7content19ServiceWorkerConsts25kUpdateTimeoutErrorMesageE = hidden local_unnamed_addr constant [43 x i8] c"Service worker self-update limit exceeded.\00", align 16
@_ZN7content19ServiceWorkerConsts28kUserDeniedPermissionMessageE = hidden local_unnamed_addr constant [50 x i8] c"The user denied permission to use Service Worker.\00", align 16
@_ZN7content19ServiceWorkerConsts33kServiceWorkerRegisterErrorPrefixE = hidden local_unnamed_addr constant [73 x i8] c"Failed to register a ServiceWorker for scope ('%s') with script ('%s'): \00", align 16
@_ZN7content19ServiceWorkerConsts31kServiceWorkerUpdateErrorPrefixE = hidden local_unnamed_addr constant [71 x i8] c"Failed to update a ServiceWorker for scope ('%s') with script ('%s'): \00", align 16
@_ZN7content19ServiceWorkerConsts35kServiceWorkerUnregisterErrorPrefixE = hidden local_unnamed_addr constant [51 x i8] c"Failed to unregister a ServiceWorkerRegistration: \00", align 16
@_ZN7content19ServiceWorkerConsts40kServiceWorkerGetRegistrationErrorPrefixE = hidden local_unnamed_addr constant [44 x i8] c"Failed to get a ServiceWorkerRegistration: \00", align 16
@_ZN7content19ServiceWorkerConsts41kServiceWorkerGetRegistrationsErrorPrefixE = hidden local_unnamed_addr constant [50 x i8] c"Failed to get ServiceWorkerRegistration objects: \00", align 16
@_ZN7content19ServiceWorkerConsts30kServiceWorkerFetchScriptErrorE = hidden local_unnamed_addr constant [52 x i8] c"An unknown error occurred when fetching the script.\00", align 16
@_ZN7content19ServiceWorkerConsts34kServiceWorkerBadHTTPResponseErrorE = hidden local_unnamed_addr constant [69 x i8] c"A bad HTTP response code (%d) was received when fetching the script.\00", align 16
@_ZN7content19ServiceWorkerConsts22kServiceWorkerSSLErrorE = hidden local_unnamed_addr constant [60 x i8] c"An SSL certificate error occurred when fetching the script.\00", align 16
@_ZN7content19ServiceWorkerConsts26kServiceWorkerBadMIMEErrorE = hidden local_unnamed_addr constant [48 x i8] c"The script has an unsupported MIME type ('%s').\00", align 16
@_ZN7content19ServiceWorkerConsts25kServiceWorkerNoMIMEErrorE = hidden local_unnamed_addr constant [38 x i8] c"The script does not have a MIME type.\00", align 16
@_ZN7content19ServiceWorkerConsts27kServiceWorkerRedirectErrorE = hidden local_unnamed_addr constant [63 x i8] c"The script resource is behind a redirect, which is disallowed.\00", align 16
@_ZN7content19ServiceWorkerConsts21kServiceWorkerAllowedE = hidden local_unnamed_addr constant [23 x i8] c"Service-Worker-Allowed\00", align 16
@_ZN7content19ServiceWorkerConsts29kServiceWorkerCopyScriptErrorE = hidden local_unnamed_addr constant [51 x i8] c"An unknown error occurred when copying the script.\00", align 16
@_ZN7content19ServiceWorkerConsts33kServiceWorkerInvalidVersionErrorE = hidden local_unnamed_addr constant [49 x i8] c"Service worker went to a bad state unexpectedly.\00", align 16
@_ZN7content19ServiceWorkerConsts30kInvalidEmbeddedWorkerThreadIdE = hidden local_unnamed_addr constant i32 -1, align 4
@_ZN7content19ServiceWorkerConsts31kServiceWorkerScriptMaxCacheAgeE = hidden local_unnamed_addr constant %"class.base::TimeDelta" { i64 86400000000 }, align 8

!llvm.module.flags = !{!0, !1}

!0 = !{i32 1, !"wchar_size", i32 4}
!1 = !{i32 7, !"PIC Level", i32 2}
