; ModuleID = '../../services/audio/service.cc'
source_filename = "../../services/audio/service.cc"
target datalayout = "e-m:e-i64:64-f80:128-n8:16:32:64-S128"
target triple = "x86_64-unknown-linux-gnu"

module asm ".symver exp, exp@GLIBC_2.2.5"
module asm ".symver exp2, exp2@GLIBC_2.2.5"
module asm ".symver exp2f, exp2f@GLIBC_2.2.5"
module asm ".symver expf, expf@GLIBC_2.2.5"
module asm ".symver lgamma, lgamma@GLIBC_2.2.5"
module asm ".symver lgammaf, lgammaf@GLIBC_2.2.5"
module asm ".symver lgammal, lgammal@GLIBC_2.2.5"
module asm ".symver log, log@GLIBC_2.2.5"
module asm ".symver log2, log2@GLIBC_2.2.5"
module asm ".symver log2f, log2f@GLIBC_2.2.5"
module asm ".symver logf, logf@GLIBC_2.2.5"
module asm ".symver pow, pow@GLIBC_2.2.5"
module asm ".symver powf, powf@GLIBC_2.2.5"

%"struct.base::trace_event::TraceCategory" = type { i8, i32, i8* }
%"class.base::NoDestructor" = type { [8 x i8] }
%"class.audio::Service" = type { %"class.audio::mojom::AudioService", %"class.base::RepeatingCallback", %"class.mojo::Receiver", %"class.std::__1::unique_ptr.163", i8, %"class.std::__1::unique_ptr.169", %"class.std::__1::unique_ptr.176", %"class.std::__1::unique_ptr.201", %"class.absl::optional.216", %"class.std::__1::unique_ptr.290", %"class.std::__1::unique_ptr.307", %"class.std::__1::unique_ptr.324" }
%"class.audio::mojom::AudioService" = type { i32 (...)** }
%"class.base::RepeatingCallback" = type { %"class.base::internal::CallbackBaseCopyable" }
%"class.base::internal::CallbackBaseCopyable" = type { %"class.base::internal::CallbackBase" }
%"class.base::internal::CallbackBase" = type { %class.scoped_refptr }
%class.scoped_refptr = type { %"class.base::internal::BindStateBase"* }
%"class.base::internal::BindStateBase" = type { %"class.base::RefCountedThreadSafe", void ()*, void (%"class.base::internal::BindStateBase"*)*, i1 (%"class.base::internal::BindStateBase"*, i32)* }
%"class.base::RefCountedThreadSafe" = type { %"class.base::subtle::RefCountedThreadSafeBase" }
%"class.base::subtle::RefCountedThreadSafeBase" = type { %"class.base::AtomicRefCount" }
%"class.base::AtomicRefCount" = type { %"struct.std::__1::atomic" }
%"struct.std::__1::atomic" = type { %"struct.std::__1::__atomic_base" }
%"struct.std::__1::__atomic_base" = type { %"struct.std::__1::__atomic_base.0" }
%"struct.std::__1::__atomic_base.0" = type { %"struct.std::__1::__cxx_atomic_impl" }
%"struct.std::__1::__cxx_atomic_impl" = type { %"struct.std::__1::__cxx_atomic_base_impl" }
%"struct.std::__1::__cxx_atomic_base_impl" = type { i32 }
%"class.mojo::Receiver" = type { %"class.mojo::internal::BindingState" }
%"class.mojo::internal::BindingState" = type { %"class.mojo::internal::BindingStateBase", %"class.audio::mojom::AudioServiceStub" }
%"class.mojo::internal::BindingStateBase" = type { %class.scoped_refptr.1, %"class.std::__1::unique_ptr.113", %"class.base::WeakPtrFactory.162" }
%class.scoped_refptr.1 = type { %"class.mojo::internal::MultiplexRouter"* }
%"class.mojo::internal::MultiplexRouter" = type <{ %"class.mojo::MessageReceiver", %"class.mojo::AssociatedGroupController.base", [4 x i8], %"class.mojo::PipeControlMessageHandlerDelegate", i32, i8, [3 x i8], %class.scoped_refptr.3, %"class.mojo::MessageHeaderValidator"*, %"class.mojo::MessageDispatcher", %"class.mojo::Connector", %"class.mojo::ScopedHandleBase", [4 x i8], %"class.absl::optional.76", %"class.absl::optional.81", %"class.absl::optional.38", %"class.mojo::PipeControlMessageHandler", %"class.mojo::PipeControlMessageProxy", %"class.base::small_map", i32, [4 x i8], %"class.base::circular_deque", %"class.std::__1::map.104", i8, [7 x i8], %class.scoped_refptr.3, i8, i8, i8, i8, i8, [3 x i8] }>
%"class.mojo::MessageReceiver" = type { i32 (...)** }
%"class.mojo::AssociatedGroupController.base" = type <{ i32 (...)**, %"class.base::RefCountedThreadSafe.2" }>
%"class.base::RefCountedThreadSafe.2" = type { %"class.base::subtle::RefCountedThreadSafeBase" }
%"class.mojo::PipeControlMessageHandlerDelegate" = type { i32 (...)** }
%"class.mojo::MessageHeaderValidator" = type { %"class.mojo::MessageReceiver", %"class.std::__1::basic_string" }
%"class.std::__1::basic_string" = type { %"class.std::__1::__compressed_pair" }
%"class.std::__1::__compressed_pair" = type { %"struct.std::__1::__compressed_pair_elem" }
%"struct.std::__1::__compressed_pair_elem" = type { %"struct.std::__1::basic_string<char, std::__1::char_traits<char>, std::__1::allocator<char> >::__rep" }
%"struct.std::__1::basic_string<char, std::__1::char_traits<char>, std::__1::allocator<char> >::__rep" = type { %union.anon }
%union.anon = type { %"struct.std::__1::basic_string<char, std::__1::char_traits<char>, std::__1::allocator<char> >::__long" }
%"struct.std::__1::basic_string<char, std::__1::char_traits<char>, std::__1::allocator<char> >::__long" = type { i8*, i64, i64 }
%"class.mojo::MessageDispatcher" = type { %"class.mojo::MessageReceiver", %"class.std::__1::unique_ptr", %"class.std::__1::unique_ptr.9", %"class.mojo::MessageReceiver"*, %"class.base::WeakPtrFactory" }
%"class.std::__1::unique_ptr" = type { %"class.std::__1::__compressed_pair.6" }
%"class.std::__1::__compressed_pair.6" = type { %"struct.std::__1::__compressed_pair_elem.7" }
%"struct.std::__1::__compressed_pair_elem.7" = type { %"class.mojo::MessageReceiver"* }
%"class.std::__1::unique_ptr.9" = type { %"class.std::__1::__compressed_pair.10" }
%"class.std::__1::__compressed_pair.10" = type { %"struct.std::__1::__compressed_pair_elem.11" }
%"struct.std::__1::__compressed_pair_elem.11" = type { %"class.mojo::MessageFilter"* }
%"class.mojo::MessageFilter" = type { i32 (...)** }
%"class.base::WeakPtrFactory" = type { %"class.base::internal::WeakPtrFactoryBase" }
%"class.base::internal::WeakPtrFactoryBase" = type { %"class.base::internal::WeakReferenceOwner", i64 }
%"class.base::internal::WeakReferenceOwner" = type { %class.scoped_refptr.15 }
%class.scoped_refptr.15 = type { %"class.base::internal::WeakReference::Flag"* }
%"class.base::internal::WeakReference::Flag" = type <{ %"class.base::RefCountedThreadSafe.16", %"class.base::AtomicFlag", [3 x i8] }>
%"class.base::RefCountedThreadSafe.16" = type { %"class.base::subtle::RefCountedThreadSafeBase" }
%"class.base::AtomicFlag" = type { %"struct.std::__1::atomic.17" }
%"struct.std::__1::atomic.17" = type { %"struct.std::__1::__atomic_base.18" }
%"struct.std::__1::__atomic_base.18" = type { %"struct.std::__1::__atomic_base.19" }
%"struct.std::__1::__atomic_base.19" = type { %"struct.std::__1::__cxx_atomic_impl.20" }
%"struct.std::__1::__cxx_atomic_impl.20" = type { %"struct.std::__1::__cxx_atomic_base_impl.21" }
%"struct.std::__1::__cxx_atomic_base_impl.21" = type { i8 }
%"class.mojo::Connector" = type { %"class.mojo::MessageReceiver", %"class.base::OnceCallback", %"class.mojo::ScopedHandleBase", %"class.mojo::MessageReceiver"*, %class.scoped_refptr.3, %"class.std::__1::unique_ptr.22", %"class.absl::optional", %"struct.std::__1::atomic.34", i8, i8, i8, i8, i32, i32, %"class.absl::optional.38", %"class.std::__1::unique_ptr.43", i8, i64, %class.scoped_refptr.72, %"class.base::Lock", i8, i8*, %"class.mojo::Connector::RunLoopNestingObserver"*, i8, i64, %"class.mojo::ConnectionGroup::Ref", %"class.base::WeakPtr", %"class.base::WeakPtrFactory.75" }
%"class.base::OnceCallback" = type { %"class.base::internal::CallbackBase" }
%"class.std::__1::unique_ptr.22" = type { %"class.std::__1::__compressed_pair.23" }
%"class.std::__1::__compressed_pair.23" = type { %"struct.std::__1::__compressed_pair_elem.24" }
%"struct.std::__1::__compressed_pair_elem.24" = type { %"class.mojo::SimpleWatcher"* }
%"class.mojo::SimpleWatcher" = type { i32, %class.scoped_refptr.3, i8, %"class.mojo::ScopedHandleBase.25", %class.scoped_refptr.26, %"class.mojo::Handle", i32, %"class.base::RepeatingCallback.27", i8*, %"class.base::WeakPtrFactory.28" }
%"class.mojo::ScopedHandleBase.25" = type { %"class.mojo::TrapHandle" }
%"class.mojo::TrapHandle" = type { %"class.mojo::Handle" }
%class.scoped_refptr.26 = type { %"class.mojo::SimpleWatcher::Context"* }
%"class.mojo::SimpleWatcher::Context" = type opaque
%"class.mojo::Handle" = type { i32 }
%"class.base::RepeatingCallback.27" = type { %"class.base::internal::CallbackBaseCopyable" }
%"class.base::WeakPtrFactory.28" = type { %"class.base::internal::WeakPtrFactoryBase" }
%"class.absl::optional" = type { %"class.absl::optional_internal::optional_data" }
%"class.absl::optional_internal::optional_data" = type { %"class.absl::optional_internal::optional_data_base" }
%"class.absl::optional_internal::optional_data_base" = type { %"class.absl::optional_internal::optional_data_dtor_base" }
%"class.absl::optional_internal::optional_data_dtor_base" = type { i8, %union.anon.32 }
%union.anon.32 = type { %"class.mojo::HandleSignalTracker" }
%"class.mojo::HandleSignalTracker" = type { %"class.base::RepeatingCallback.33", %"struct.mojo::HandleSignalsState", %"class.mojo::SimpleWatcher", %"class.mojo::SimpleWatcher" }
%"class.base::RepeatingCallback.33" = type { %"class.base::internal::CallbackBaseCopyable" }
%"struct.mojo::HandleSignalsState" = type { %struct.MojoHandleSignalsState }
%struct.MojoHandleSignalsState = type { i32, i32 }
%"struct.std::__1::atomic.34" = type { %"struct.std::__1::__atomic_base.35" }
%"struct.std::__1::__atomic_base.35" = type { %"struct.std::__1::__cxx_atomic_impl.36" }
%"struct.std::__1::__cxx_atomic_impl.36" = type { %"struct.std::__1::__cxx_atomic_base_impl.37" }
%"struct.std::__1::__cxx_atomic_base_impl.37" = type { i8 }
%"class.std::__1::unique_ptr.43" = type { %"class.std::__1::__compressed_pair.44" }
%"class.std::__1::__compressed_pair.44" = type { %"struct.std::__1::__compressed_pair_elem.45" }
%"struct.std::__1::__compressed_pair_elem.45" = type { %"class.mojo::SyncHandleWatcher"* }
%"class.mojo::SyncHandleWatcher" = type { %"class.mojo::Handle", i32, %"class.base::RepeatingCallback.46", i8, i64, %class.scoped_refptr.47, %class.scoped_refptr.68 }
%"class.base::RepeatingCallback.46" = type { %"class.base::internal::CallbackBaseCopyable" }
%class.scoped_refptr.47 = type { %"class.mojo::SyncHandleRegistry"* }
%"class.mojo::SyncHandleRegistry" = type <{ %"class.base::RefCounted", [4 x i8], %"class.mojo::WaitSet", %"class.std::__1::map", %"class.std::__1::map.57", i8, [7 x i8] }>
%"class.base::RefCounted" = type { %"class.base::subtle::RefCountedBase" }
%"class.base::subtle::RefCountedBase" = type { i32 }
%"class.mojo::WaitSet" = type { %class.scoped_refptr.48 }
%class.scoped_refptr.48 = type { %"class.mojo::WaitSet::State"* }
%"class.mojo::WaitSet::State" = type opaque
%"class.std::__1::map" = type { %"class.std::__1::__tree" }
%"class.std::__1::__tree" = type { %"class.std::__1::__tree_end_node"*, %"class.std::__1::__compressed_pair.49", %"class.std::__1::__compressed_pair.54" }
%"class.std::__1::__tree_end_node" = type { %"class.std::__1::__tree_node_base"* }
%"class.std::__1::__tree_node_base" = type <{ %"class.std::__1::__tree_end_node", %"class.std::__1::__tree_node_base"*, %"class.std::__1::__tree_end_node"*, i8, [7 x i8] }>
%"class.std::__1::__compressed_pair.49" = type { %"struct.std::__1::__compressed_pair_elem.50" }
%"struct.std::__1::__compressed_pair_elem.50" = type { %"class.std::__1::__tree_end_node" }
%"class.std::__1::__compressed_pair.54" = type { %"struct.std::__1::__compressed_pair_elem.55" }
%"struct.std::__1::__compressed_pair_elem.55" = type { i64 }
%"class.std::__1::map.57" = type { %"class.std::__1::__tree.58" }
%"class.std::__1::__tree.58" = type { %"class.std::__1::__tree_end_node"*, %"class.std::__1::__compressed_pair.59", %"class.std::__1::__compressed_pair.63" }
%"class.std::__1::__compressed_pair.59" = type { %"struct.std::__1::__compressed_pair_elem.50" }
%"class.std::__1::__compressed_pair.63" = type { %"struct.std::__1::__compressed_pair_elem.55" }
%class.scoped_refptr.68 = type { %"class.base::RefCountedData"* }
%"class.base::RefCountedData" = type opaque
%class.scoped_refptr.72 = type { %"class.mojo::internal::MessageQuotaChecker"* }
%"class.mojo::internal::MessageQuotaChecker" = type opaque
%"class.base::Lock" = type { %"class.base::internal::LockImpl" }
%"class.base::internal::LockImpl" = type { %union.pthread_mutex_t }
%union.pthread_mutex_t = type { %struct.__pthread_mutex_s }
%struct.__pthread_mutex_s = type { i32, i32, i32, i32, i32, i16, i16, %struct.__pthread_internal_list }
%struct.__pthread_internal_list = type { %struct.__pthread_internal_list*, %struct.__pthread_internal_list* }
%"class.mojo::Connector::RunLoopNestingObserver" = type opaque
%"class.mojo::ConnectionGroup::Ref" = type { i32, %class.scoped_refptr.73 }
%class.scoped_refptr.73 = type { %"class.mojo::ConnectionGroup"* }
%"class.mojo::ConnectionGroup" = type <{ i32 (...)**, %"class.base::RefCountedThreadSafe.330", [4 x i8], %"class.base::RepeatingCallback", %class.scoped_refptr.3, %"class.mojo::ConnectionGroup::Ref", %"struct.std::__1::atomic.331", [4 x i8] }>
%"class.base::RefCountedThreadSafe.330" = type { %"class.base::subtle::RefCountedThreadSafeBase" }
%"struct.std::__1::atomic.331" = type { %"struct.std::__1::__atomic_base.332" }
%"struct.std::__1::__atomic_base.332" = type { %"struct.std::__1::__atomic_base.333" }
%"struct.std::__1::__atomic_base.333" = type { %"struct.std::__1::__cxx_atomic_impl.334" }
%"struct.std::__1::__cxx_atomic_impl.334" = type { %"struct.std::__1::__cxx_atomic_base_impl.335" }
%"struct.std::__1::__cxx_atomic_base_impl.335" = type { i32 }
%"class.base::WeakPtr" = type { %"class.base::internal::WeakPtrBase" }
%"class.base::internal::WeakPtrBase" = type { %"class.base::internal::WeakReference", i64 }
%"class.base::internal::WeakReference" = type { %class.scoped_refptr.74 }
%class.scoped_refptr.74 = type { %"class.base::internal::WeakReference::Flag"* }
%"class.base::WeakPtrFactory.75" = type { %"class.base::internal::WeakPtrFactoryBase" }
%"class.mojo::ScopedHandleBase" = type { %"class.mojo::MessagePipeHandle" }
%"class.mojo::MessagePipeHandle" = type { %"class.mojo::Handle" }
%"class.absl::optional.76" = type { %"class.absl::optional_internal::optional_data.77" }
%"class.absl::optional_internal::optional_data.77" = type { %"class.absl::optional_internal::optional_data_base.78" }
%"class.absl::optional_internal::optional_data_base.78" = type { %"class.absl::optional_internal::optional_data_dtor_base.79" }
%"class.absl::optional_internal::optional_data_dtor_base.79" = type { i8, %union.anon.80 }
%union.anon.80 = type { %"class.mojo::SimpleWatcher" }
%"class.absl::optional.81" = type { %"class.absl::optional_internal::optional_data.82" }
%"class.absl::optional_internal::optional_data.82" = type { %"class.absl::optional_internal::optional_data_base.83" }
%"class.absl::optional_internal::optional_data_base.83" = type { %"class.absl::optional_internal::optional_data_dtor_base.84" }
%"class.absl::optional_internal::optional_data_dtor_base.84" = type { i8, [7 x i8], %union.anon.85 }
%union.anon.85 = type { %"struct.mojo::internal::MultiplexRouter::ExclusiveSyncWaitInfo" }
%"struct.mojo::internal::MultiplexRouter::ExclusiveSyncWaitInfo" = type <{ i32, [4 x i8], i64, i8, [7 x i8] }>
%"class.absl::optional.38" = type { %"class.absl::optional_internal::optional_data.39" }
%"class.absl::optional_internal::optional_data.39" = type { %"class.absl::optional_internal::optional_data_base.40" }
%"class.absl::optional_internal::optional_data_base.40" = type { %"class.absl::optional_internal::optional_data_dtor_base.41" }
%"class.absl::optional_internal::optional_data_dtor_base.41" = type { i8, %union.anon.42 }
%union.anon.42 = type { %"class.base::Lock" }
%"class.mojo::PipeControlMessageHandler" = type { %"class.mojo::MessageReceiver", %"class.std::__1::basic_string", %"class.mojo::PipeControlMessageHandlerDelegate"* }
%"class.mojo::PipeControlMessageProxy" = type { %"class.mojo::MessageReceiver"* }
%"class.base::small_map" = type { i64, %"class.base::internal::small_map_default_init", %union.anon.90 }
%"class.base::internal::small_map_default_init" = type { i8 }
%union.anon.90 = type { %"class.std::__1::map.92" }
%"class.std::__1::map.92" = type { %"class.std::__1::__tree.93" }
%"class.std::__1::__tree.93" = type { %"class.std::__1::__tree_end_node"*, %"class.std::__1::__compressed_pair.94", %"class.std::__1::__compressed_pair.98" }
%"class.std::__1::__compressed_pair.94" = type { %"struct.std::__1::__compressed_pair_elem.50" }
%"class.std::__1::__compressed_pair.98" = type { %"struct.std::__1::__compressed_pair_elem.55" }
%"class.base::circular_deque" = type { %"class.base::internal::VectorBuffer", i64, i64 }
%"class.base::internal::VectorBuffer" = type { %"class.std::__1::unique_ptr.103"*, i64 }
%"class.std::__1::unique_ptr.103" = type opaque
%"class.std::__1::map.104" = type { %"class.std::__1::__tree.105" }
%"class.std::__1::__tree.105" = type { %"class.std::__1::__tree_end_node"*, %"class.std::__1::__compressed_pair.106", %"class.std::__1::__compressed_pair.110" }
%"class.std::__1::__compressed_pair.106" = type { %"struct.std::__1::__compressed_pair_elem.50" }
%"class.std::__1::__compressed_pair.110" = type { %"struct.std::__1::__compressed_pair_elem.55" }
%class.scoped_refptr.3 = type { %"class.base::SequencedTaskRunner"* }
%"class.base::SequencedTaskRunner" = type { %"class.base::TaskRunner.base", [4 x i8] }
%"class.base::TaskRunner.base" = type <{ i32 (...)**, %"class.base::RefCountedThreadSafe.4" }>
%"class.base::RefCountedThreadSafe.4" = type { %"class.base::subtle::RefCountedThreadSafeBase" }
%"class.std::__1::unique_ptr.113" = type { %"class.std::__1::__compressed_pair.114" }
%"class.std::__1::__compressed_pair.114" = type { %"struct.std::__1::__compressed_pair_elem.115" }
%"struct.std::__1::__compressed_pair_elem.115" = type { %"class.mojo::InterfaceEndpointClient"* }
%"class.mojo::InterfaceEndpointClient" = type { %"class.mojo::MessageReceiverWithResponder", i8, %"class.base::RepeatingCallback", %"class.base::OnceCallback.116", %"class.absl::optional.117", %"class.absl::optional.122", %"class.mojo::ConnectionGroup::Ref", i32, %"class.mojo::ScopedInterfaceEndpointHandle", %"class.std::__1::unique_ptr.129", %"class.mojo::InterfaceEndpointController"*, %"class.mojo::MessageReceiverWithResponderStatus"*, %"class.mojo::InterfaceEndpointClient::HandleIncomingMessageThunk", %"class.mojo::MessageDispatcher", %"class.std::__1::map.137", %"class.std::__1::map.148", i64, %"class.base::OnceCallback", %"class.base::OnceCallback.157", i8, %class.scoped_refptr.3, %"class.mojo::internal::ControlMessageProxy", %"class.mojo::internal::ControlMessageHandler", i8*, %"class.base::WeakPtrFactory.158" }
%"class.mojo::MessageReceiverWithResponder" = type { %"class.mojo::MessageReceiver" }
%"class.base::OnceCallback.116" = type { %"class.base::internal::CallbackBase" }
%"class.absl::optional.117" = type { %"class.absl::optional_internal::optional_data.118" }
%"class.absl::optional_internal::optional_data.118" = type { %"class.absl::optional_internal::optional_data_base.119" }
%"class.absl::optional_internal::optional_data_base.119" = type { %"class.absl::optional_internal::optional_data_dtor_base.120" }
%"class.absl::optional_internal::optional_data_dtor_base.120" = type { i8, %union.anon.121 }
%union.anon.121 = type { %"class.base::TimeDelta" }
%"class.base::TimeDelta" = type { i64 }
%"class.absl::optional.122" = type { %"class.absl::optional_internal::optional_data.123" }
%"class.absl::optional_internal::optional_data.123" = type { %"class.absl::optional_internal::optional_data_base.124" }
%"class.absl::optional_internal::optional_data_base.124" = type { %"class.absl::optional_internal::optional_data_dtor_base.125" }
%"class.absl::optional_internal::optional_data_dtor_base.125" = type { i8, %union.anon.126 }
%union.anon.126 = type { %"class.base::OneShotTimer" }
%"class.base::OneShotTimer" = type { %"class.base::internal::TimerBase", %"class.base::OnceCallback" }
%"class.base::internal::TimerBase" = type { i32 (...)**, %class.scoped_refptr.3, %"class.base::SequenceCheckerDoNothing", %"class.base::internal::TaskDestructionDetector"*, %"class.base::Location", %"class.base::TimeDelta", %"class.base::TimeTicks", %"class.base::TimeTicks", %"class.base::TickClock"*, i8, %"class.base::WeakPtrFactory.127" }
%"class.base::SequenceCheckerDoNothing" = type { i8 }
%"class.base::internal::TaskDestructionDetector" = type opaque
%"class.base::Location" = type { i8*, i8*, i32, i8* }
%"class.base::TimeTicks" = type { %"class.base::time_internal::TimeBase" }
%"class.base::time_internal::TimeBase" = type { i64 }
%"class.base::TickClock" = type { i32 (...)** }
%"class.base::WeakPtrFactory.127" = type { %"class.base::internal::WeakPtrFactoryBase" }
%"class.mojo::ScopedInterfaceEndpointHandle" = type { %class.scoped_refptr.128 }
%class.scoped_refptr.128 = type { %"class.mojo::ScopedInterfaceEndpointHandle::State"* }
%"class.mojo::ScopedInterfaceEndpointHandle::State" = type opaque
%"class.std::__1::unique_ptr.129" = type { %"class.std::__1::__compressed_pair.130" }
%"class.std::__1::__compressed_pair.130" = type { %"struct.std::__1::__compressed_pair_elem.131" }
%"struct.std::__1::__compressed_pair_elem.131" = type { %"class.mojo::AssociatedGroup"* }
%"class.mojo::AssociatedGroup" = type { %"class.base::RepeatingCallback.132", %class.scoped_refptr.133 }
%"class.base::RepeatingCallback.132" = type { %"class.base::internal::CallbackBaseCopyable" }
%class.scoped_refptr.133 = type { %"class.mojo::AssociatedGroupController"* }
%"class.mojo::AssociatedGroupController" = type <{ i32 (...)**, %"class.base::RefCountedThreadSafe.2", [4 x i8] }>
%"class.mojo::InterfaceEndpointController" = type opaque
%"class.mojo::MessageReceiverWithResponderStatus" = type { %"class.mojo::MessageReceiver" }
%"class.mojo::InterfaceEndpointClient::HandleIncomingMessageThunk" = type { %"class.mojo::MessageReceiver", %"class.mojo::InterfaceEndpointClient"* }
%"class.std::__1::map.137" = type { %"class.std::__1::__tree.138" }
%"class.std::__1::__tree.138" = type { %"class.std::__1::__tree_end_node"*, %"class.std::__1::__compressed_pair.139", %"class.std::__1::__compressed_pair.143" }
%"class.std::__1::__compressed_pair.139" = type { %"struct.std::__1::__compressed_pair_elem.50" }
%"class.std::__1::__compressed_pair.143" = type { %"struct.std::__1::__compressed_pair_elem.55" }
%"class.std::__1::map.148" = type { %"class.std::__1::__tree.149" }
%"class.std::__1::__tree.149" = type { %"class.std::__1::__tree_end_node"*, %"class.std::__1::__compressed_pair.150", %"class.std::__1::__compressed_pair.154" }
%"class.std::__1::__compressed_pair.150" = type { %"struct.std::__1::__compressed_pair_elem.50" }
%"class.std::__1::__compressed_pair.154" = type { %"struct.std::__1::__compressed_pair_elem.55" }
%"class.base::OnceCallback.157" = type { %"class.base::internal::CallbackBase" }
%"class.mojo::internal::ControlMessageProxy" = type { %"class.mojo::InterfaceEndpointClient"*, i8, %"class.base::OnceCallback" }
%"class.mojo::internal::ControlMessageHandler" = type <{ %"class.mojo::MessageReceiverWithResponderStatus", %"class.mojo::InterfaceEndpointClient"*, i32, [4 x i8] }>
%"class.base::WeakPtrFactory.158" = type { %"class.base::internal::WeakPtrFactoryBase" }
%"class.base::WeakPtrFactory.162" = type { %"class.base::internal::WeakPtrFactoryBase" }
%"class.audio::mojom::AudioServiceStub" = type { %"class.mojo::MessageReceiverWithResponderStatus", %"class.audio::mojom::AudioService"* }
%"class.std::__1::unique_ptr.163" = type { %"class.std::__1::__compressed_pair.164" }
%"class.std::__1::__compressed_pair.164" = type { %"struct.std::__1::__compressed_pair_elem.165" }
%"struct.std::__1::__compressed_pair_elem.165" = type { %"class.audio::Service::AudioManagerAccessor"* }
%"class.std::__1::unique_ptr.169" = type { %"class.std::__1::__compressed_pair.170" }
%"class.std::__1::__compressed_pair.170" = type { %"struct.std::__1::__compressed_pair_elem.171" }
%"struct.std::__1::__compressed_pair_elem.171" = type { %"class.base::SystemMonitor"* }
%"class.base::SystemMonitor" = type { %class.scoped_refptr.172 }
%class.scoped_refptr.172 = type { %"class.base::ObserverListThreadSafe"* }
%"class.base::ObserverListThreadSafe" = type opaque
%"class.std::__1::unique_ptr.176" = type { %"class.std::__1::__compressed_pair.177" }
%"class.std::__1::__compressed_pair.177" = type { %"struct.std::__1::__compressed_pair_elem.178" }
%"struct.std::__1::__compressed_pair_elem.178" = type { %"class.audio::SystemInfo"* }
%"class.audio::SystemInfo" = type { %"class.audio::mojom::SystemInfo", %"class.media::AudioSystemHelper", %"class.mojo::ReceiverSetBase" }
%"class.audio::mojom::SystemInfo" = type { i32 (...)** }
%"class.media::AudioSystemHelper" = type { %"class.media::AudioManager"* }
%"class.media::AudioManager" = type { i32 (...)**, %"class.std::__1::unique_ptr.179", i8, %"class.base::RepeatingCallback.185", %"class.base::RepeatingCallback.186" }
%"class.std::__1::unique_ptr.179" = type { %"class.std::__1::__compressed_pair.180" }
%"class.std::__1::__compressed_pair.180" = type { %"struct.std::__1::__compressed_pair_elem.181" }
%"struct.std::__1::__compressed_pair_elem.181" = type { %"class.media::AudioThread"* }
%"class.media::AudioThread" = type { i32 (...)** }
%"class.base::RepeatingCallback.185" = type { %"class.base::internal::CallbackBaseCopyable" }
%"class.base::RepeatingCallback.186" = type { %"class.base::internal::CallbackBaseCopyable" }
%"class.mojo::ReceiverSetBase" = type { %"class.mojo::ReceiverSetState" }
%"class.mojo::ReceiverSetState" = type { %"class.base::RepeatingCallback", %"class.base::RepeatingCallback.187", i64, %"class.std::__1::map.188", i8*, i64, %"class.base::WeakPtrFactory.197" }
%"class.base::RepeatingCallback.187" = type { %"class.base::internal::CallbackBaseCopyable" }
%"class.std::__1::map.188" = type { %"class.std::__1::__tree.189" }
%"class.std::__1::__tree.189" = type { %"class.std::__1::__tree_end_node"*, %"class.std::__1::__compressed_pair.190", %"class.std::__1::__compressed_pair.194" }
%"class.std::__1::__compressed_pair.190" = type { %"struct.std::__1::__compressed_pair_elem.50" }
%"class.std::__1::__compressed_pair.194" = type { %"struct.std::__1::__compressed_pair_elem.55" }
%"class.base::WeakPtrFactory.197" = type { %"class.base::internal::WeakPtrFactoryBase" }
%"class.std::__1::unique_ptr.201" = type { %"class.std::__1::__compressed_pair.202" }
%"class.std::__1::__compressed_pair.202" = type { %"struct.std::__1::__compressed_pair_elem.203" }
%"struct.std::__1::__compressed_pair_elem.203" = type { %"class.audio::DebugRecording"* }
%"class.audio::DebugRecording" = type { %"class.audio::mojom::DebugRecording", %"class.media::AudioManager"*, %"class.mojo::Receiver.204", %"class.mojo::Remote", %"class.base::WeakPtrFactory.212" }
%"class.audio::mojom::DebugRecording" = type { i32 (...)** }
%"class.mojo::Receiver.204" = type { %"class.mojo::internal::BindingState.205" }
%"class.mojo::internal::BindingState.205" = type { %"class.mojo::internal::BindingStateBase", %"class.audio::mojom::DebugRecordingStub" }
%"class.audio::mojom::DebugRecordingStub" = type { %"class.mojo::MessageReceiverWithResponderStatus", %"class.audio::mojom::DebugRecording"* }
%"class.mojo::Remote" = type { %"class.mojo::internal::InterfacePtrState" }
%"class.mojo::internal::InterfacePtrState" = type { %"class.mojo::internal::InterfacePtrStateBase.base", %"class.std::__1::unique_ptr.206" }
%"class.mojo::internal::InterfacePtrStateBase.base" = type <{ %class.scoped_refptr.1, %"class.std::__1::unique_ptr.113", %"class.mojo::ScopedHandleBase", [4 x i8], %class.scoped_refptr.3, i32 }>
%"class.std::__1::unique_ptr.206" = type { %"class.std::__1::__compressed_pair.207" }
%"class.std::__1::__compressed_pair.207" = type { %"struct.std::__1::__compressed_pair_elem.208" }
%"struct.std::__1::__compressed_pair_elem.208" = type { %"class.audio::mojom::DebugRecordingFileProviderProxy"* }
%"class.audio::mojom::DebugRecordingFileProviderProxy" = type { %"class.audio::mojom::DebugRecordingFileProvider", %"class.mojo::MessageReceiverWithResponder"* }
%"class.audio::mojom::DebugRecordingFileProvider" = type { i32 (...)** }
%"class.base::WeakPtrFactory.212" = type { %"class.base::internal::WeakPtrFactoryBase" }
%"class.absl::optional.216" = type { %"class.absl::optional_internal::optional_data.217" }
%"class.absl::optional_internal::optional_data.217" = type { %"class.absl::optional_internal::optional_data_base.218" }
%"class.absl::optional_internal::optional_data_base.218" = type { %"class.absl::optional_internal::optional_data_dtor_base.219" }
%"class.absl::optional_internal::optional_data_dtor_base.219" = type { i8, %union.anon.220 }
%union.anon.220 = type { %"class.audio::StreamFactory" }
%"class.audio::StreamFactory" = type { %"class.media::mojom::AudioStreamFactory", %"class.media::AudioManager"*, %"class.mojo::ReceiverSetBase.221", %"class.audio::GroupCoordinator", %"class.std::__1::vector.228", %"class.base::Thread", %"class.std::__1::vector.264", %"class.base::internal::flat_tree", %"class.base::internal::flat_tree.280", %"class.base::WeakPtrFactory.289" }
%"class.media::mojom::AudioStreamFactory" = type { i32 (...)** }
%"class.mojo::ReceiverSetBase.221" = type { %"class.mojo::ReceiverSetState" }
%"class.audio::GroupCoordinator" = type { %"class.std::__1::vector" }
%"class.std::__1::vector" = type { %"class.std::__1::__vector_base" }
%"class.std::__1::__vector_base" = type { %"struct.std::__1::pair.222"*, %"struct.std::__1::pair.222"*, %"class.std::__1::__compressed_pair.223" }
%"struct.std::__1::pair.222" = type opaque
%"class.std::__1::__compressed_pair.223" = type { %"struct.std::__1::__compressed_pair_elem.224" }
%"struct.std::__1::__compressed_pair_elem.224" = type { %"struct.std::__1::pair.222"* }
%"class.std::__1::vector.228" = type { %"class.std::__1::__vector_base.229" }
%"class.std::__1::__vector_base.229" = type { %"class.std::__1::unique_ptr.230"*, %"class.std::__1::unique_ptr.230"*, %"class.std::__1::__compressed_pair.231" }
%"class.std::__1::unique_ptr.230" = type opaque
%"class.std::__1::__compressed_pair.231" = type { %"struct.std::__1::__compressed_pair_elem.232" }
%"struct.std::__1::__compressed_pair_elem.232" = type { %"class.std::__1::unique_ptr.230"* }
%"class.base::Thread" = type <{ %"class.base::PlatformThread::Delegate", i8, i8, i8, [5 x i8], %"class.base::Lock", %"class.base::PlatformThreadHandle", %"class.base::Lock", i32, [4 x i8], %"class.base::WaitableEvent", %"class.std::__1::unique_ptr.242", %"class.base::RunLoop"*, i32, [4 x i8], %"class.std::__1::basic_string", %"class.base::WaitableEvent", %"class.base::SequenceCheckerDoNothing", [7 x i8] }>
%"class.base::PlatformThread::Delegate" = type { i32 (...)** }
%"class.base::PlatformThreadHandle" = type { i64 }
%"class.std::__1::unique_ptr.242" = type { %"class.std::__1::__compressed_pair.243" }
%"class.std::__1::__compressed_pair.243" = type { %"struct.std::__1::__compressed_pair_elem.244" }
%"struct.std::__1::__compressed_pair_elem.244" = type { %"class.base::Thread::Delegate"* }
%"class.base::Thread::Delegate" = type { i32 (...)** }
%"class.base::RunLoop" = type { %"class.base::RunLoop::Delegate"*, i32, i8, i8, i8, i8, i8, %class.scoped_refptr.262, %"class.base::WeakPtrFactory.263" }
%"class.base::RunLoop::Delegate" = type <{ i32 (...)**, %"class.std::__1::stack", %"class.base::ObserverList", i8, [7 x i8] }>
%"class.std::__1::stack" = type { %"class.std::__1::vector.248" }
%"class.std::__1::vector.248" = type { %"class.std::__1::__vector_base.249" }
%"class.std::__1::__vector_base.249" = type { %"class.base::RunLoop"**, %"class.base::RunLoop"**, %"class.std::__1::__compressed_pair.250" }
%"class.std::__1::__compressed_pair.250" = type { %"struct.std::__1::__compressed_pair_elem.251" }
%"struct.std::__1::__compressed_pair_elem.251" = type { %"class.base::RunLoop"** }
%"class.base::ObserverList" = type <{ %"class.std::__1::vector.255", %"class.base::LinkedList", i64, i32, [4 x i8] }>
%"class.std::__1::vector.255" = type { %"class.std::__1::__vector_base.256" }
%"class.std::__1::__vector_base.256" = type { %"class.base::internal::UncheckedObserverAdapter"*, %"class.base::internal::UncheckedObserverAdapter"*, %"class.std::__1::__compressed_pair.257" }
%"class.base::internal::UncheckedObserverAdapter" = type { i8* }
%"class.std::__1::__compressed_pair.257" = type { %"struct.std::__1::__compressed_pair_elem.258" }
%"struct.std::__1::__compressed_pair_elem.258" = type { %"class.base::internal::UncheckedObserverAdapter"* }
%"class.base::LinkedList" = type { %"class.base::LinkNode" }
%"class.base::LinkNode" = type { %"class.base::internal::LinkNodeBase" }
%"class.base::internal::LinkNodeBase" = type { %"class.base::internal::LinkNodeBase"*, %"class.base::internal::LinkNodeBase"* }
%class.scoped_refptr.262 = type { %"class.base::SingleThreadTaskRunner"* }
%"class.base::SingleThreadTaskRunner" = type { %"class.base::SequencedTaskRunner.base", [4 x i8] }
%"class.base::SequencedTaskRunner.base" = type { %"class.base::TaskRunner.base" }
%"class.base::WeakPtrFactory.263" = type { %"class.base::internal::WeakPtrFactoryBase" }
%"class.base::WaitableEvent" = type <{ %class.scoped_refptr.236, i8, [7 x i8] }>
%class.scoped_refptr.236 = type { %"struct.base::WaitableEvent::WaitableEventKernel"* }
%"struct.base::WaitableEvent::WaitableEventKernel" = type { %"class.base::RefCountedThreadSafe.237", %"class.base::Lock", i8, i8, %"class.std::__1::list" }
%"class.base::RefCountedThreadSafe.237" = type { %"class.base::subtle::RefCountedThreadSafeBase" }
%"class.std::__1::list" = type { %"class.std::__1::__list_imp" }
%"class.std::__1::__list_imp" = type { %"struct.std::__1::__list_node_base", %"class.std::__1::__compressed_pair.238" }
%"struct.std::__1::__list_node_base" = type { %"struct.std::__1::__list_node_base"*, %"struct.std::__1::__list_node_base"* }
%"class.std::__1::__compressed_pair.238" = type { %"struct.std::__1::__compressed_pair_elem.55" }
%"class.std::__1::vector.264" = type { %"class.std::__1::__vector_base.265" }
%"class.std::__1::__vector_base.265" = type { %"class.std::__1::unique_ptr.266"*, %"class.std::__1::unique_ptr.266"*, %"class.std::__1::__compressed_pair.267" }
%"class.std::__1::unique_ptr.266" = type opaque
%"class.std::__1::__compressed_pair.267" = type { %"struct.std::__1::__compressed_pair_elem.268" }
%"struct.std::__1::__compressed_pair_elem.268" = type { %"class.std::__1::unique_ptr.266"* }
%"class.base::internal::flat_tree" = type { %"class.std::__1::vector.272" }
%"class.std::__1::vector.272" = type { %"class.std::__1::__vector_base.273" }
%"class.std::__1::__vector_base.273" = type { %"class.std::__1::unique_ptr.274"*, %"class.std::__1::unique_ptr.274"*, %"class.std::__1::__compressed_pair.275" }
%"class.std::__1::unique_ptr.274" = type opaque
%"class.std::__1::__compressed_pair.275" = type { %"struct.std::__1::__compressed_pair_elem.276" }
%"struct.std::__1::__compressed_pair_elem.276" = type { %"class.std::__1::unique_ptr.274"* }
%"class.base::internal::flat_tree.280" = type { %"class.std::__1::vector.281" }
%"class.std::__1::vector.281" = type { %"class.std::__1::__vector_base.282" }
%"class.std::__1::__vector_base.282" = type { %"class.std::__1::unique_ptr.283"*, %"class.std::__1::unique_ptr.283"*, %"class.std::__1::__compressed_pair.284" }
%"class.std::__1::unique_ptr.283" = type opaque
%"class.std::__1::__compressed_pair.284" = type { %"struct.std::__1::__compressed_pair_elem.285" }
%"struct.std::__1::__compressed_pair_elem.285" = type { %"class.std::__1::unique_ptr.283"* }
%"class.base::WeakPtrFactory.289" = type { %"class.base::internal::WeakPtrFactoryBase" }
%"class.std::__1::unique_ptr.290" = type { %"class.std::__1::__compressed_pair.291" }
%"class.std::__1::__compressed_pair.291" = type { %"struct.std::__1::__compressed_pair_elem.292" }
%"struct.std::__1::__compressed_pair_elem.292" = type { %"class.audio::DeviceNotifier"* }
%"class.audio::DeviceNotifier" = type { %"class.base::SystemMonitor::DevicesChangedObserver", %"class.audio::mojom::DeviceNotifier", i32, %"class.base::flat_map", %"class.mojo::ReceiverSetBase.302", %class.scoped_refptr.3, %"class.base::WeakPtrFactory.303" }
%"class.base::SystemMonitor::DevicesChangedObserver" = type { i32 (...)** }
%"class.audio::mojom::DeviceNotifier" = type { i32 (...)** }
%"class.base::flat_map" = type { %"class.base::internal::flat_tree.293" }
%"class.base::internal::flat_tree.293" = type { %"class.std::__1::vector.294" }
%"class.std::__1::vector.294" = type { %"class.std::__1::__vector_base.295" }
%"class.std::__1::__vector_base.295" = type { %"struct.std::__1::pair.296"*, %"struct.std::__1::pair.296"*, %"class.std::__1::__compressed_pair.297" }
%"struct.std::__1::pair.296" = type opaque
%"class.std::__1::__compressed_pair.297" = type { %"struct.std::__1::__compressed_pair_elem.298" }
%"struct.std::__1::__compressed_pair_elem.298" = type { %"struct.std::__1::pair.296"* }
%"class.mojo::ReceiverSetBase.302" = type { %"class.mojo::ReceiverSetState" }
%"class.base::WeakPtrFactory.303" = type { %"class.base::internal::WeakPtrFactoryBase" }
%"class.std::__1::unique_ptr.307" = type { %"class.std::__1::__compressed_pair.308" }
%"class.std::__1::__compressed_pair.308" = type { %"struct.std::__1::__compressed_pair_elem.309" }
%"struct.std::__1::__compressed_pair_elem.309" = type { %"class.audio::LogFactoryManager"* }
%"class.audio::LogFactoryManager" = type { %"class.audio::mojom::LogFactoryManager", %"class.mojo::ReceiverSetBase.310", %"class.audio::LogFactoryAdapter" }
%"class.audio::mojom::LogFactoryManager" = type { i32 (...)** }
%"class.mojo::ReceiverSetBase.310" = type { %"class.mojo::ReceiverSetState" }
%"class.audio::LogFactoryAdapter" = type { %"class.media::AudioLogFactory", %"class.mojo::Remote.311", %"class.std::__1::queue", %"class.media::FakeAudioLogFactory" }
%"class.media::AudioLogFactory" = type { i32 (...)** }
%"class.mojo::Remote.311" = type { %"class.mojo::internal::InterfacePtrState.312" }
%"class.mojo::internal::InterfacePtrState.312" = type { %"class.mojo::internal::InterfacePtrStateBase.base", %"class.std::__1::unique_ptr.313" }
%"class.std::__1::unique_ptr.313" = type { %"class.std::__1::__compressed_pair.314" }
%"class.std::__1::__compressed_pair.314" = type { %"struct.std::__1::__compressed_pair_elem.315" }
%"struct.std::__1::__compressed_pair_elem.315" = type { %"class.media::mojom::AudioLogFactoryProxy"* }
%"class.media::mojom::AudioLogFactoryProxy" = type { %"class.media::mojom::AudioLogFactory", %"class.mojo::MessageReceiverWithResponder"* }
%"class.media::mojom::AudioLogFactory" = type { i32 (...)** }
%"class.std::__1::queue" = type { %"class.base::circular_deque.319" }
%"class.base::circular_deque.319" = type { %"class.base::internal::VectorBuffer.320", i64, i64 }
%"class.base::internal::VectorBuffer.320" = type { %"struct.audio::LogFactoryAdapter::PendingLogRequest"*, i64 }
%"struct.audio::LogFactoryAdapter::PendingLogRequest" = type opaque
%"class.media::FakeAudioLogFactory" = type { %"class.media::AudioLogFactory" }
%"class.std::__1::unique_ptr.324" = type { %"class.std::__1::__compressed_pair.325" }
%"class.std::__1::__compressed_pair.325" = type { %"struct.std::__1::__compressed_pair_elem.326" }
%"struct.std::__1::__compressed_pair_elem.326" = type { %"class.audio::ServiceMetrics"* }
%"class.audio::ServiceMetrics" = type { %"class.base::TickClock"*, %"class.base::TimeTicks", %"class.base::TimeTicks" }
%"class.audio::Service::AudioManagerAccessor" = type { i32 (...)** }
%"class.mojo::PendingReceiver" = type { %"struct.mojo::internal::PendingReceiverState" }
%"struct.mojo::internal::PendingReceiverState" = type { %"class.mojo::ScopedHandleBase", %"class.mojo::ConnectionGroup::Ref" }
%"class.logging::CheckError" = type { %"class.logging::LogMessage"* }
%"class.logging::LogMessage" = type { i32 (...)**, i32, %"class.std::__1::basic_ostringstream", i64, i8*, i32, %"class.base::ScopedClearLastErrorBase" }
%"class.std::__1::basic_ostringstream" = type { %"class.std::__1::basic_ostream.base", %"class.std::__1::basic_stringbuf", %"class.std::__1::basic_ios.base" }
%"class.std::__1::basic_ostream.base" = type { i32 (...)** }
%"class.std::__1::basic_stringbuf" = type <{ %"class.std::__1::basic_streambuf", %"class.std::__1::basic_string", i8*, i32, [4 x i8] }>
%"class.std::__1::basic_streambuf" = type { i32 (...)**, %"class.std::__1::locale", i8*, i8*, i8*, i8*, i8*, i8* }
%"class.std::__1::locale" = type { %"class.std::__1::locale::__imp"* }
%"class.std::__1::locale::__imp" = type opaque
%"class.std::__1::basic_ios.base" = type <{ %"class.std::__1::ios_base", %"class.std::__1::basic_ostream"*, i32 }>
%"class.std::__1::ios_base" = type { i32 (...)**, i32, i64, i64, i32, i32, i8*, i8*, void (i32, %"class.std::__1::ios_base"*, i32)**, i32*, i64, i64, i64*, i64, i64, i8**, i64, i64 }
%"class.std::__1::basic_ostream" = type { i32 (...)**, %"class.std::__1::basic_ios.base" }
%"class.base::ScopedClearLastErrorBase" = type { i32 }
%"class.base::trace_event::TraceArguments" = type { i8, [2 x i8], [2 x i8*], [2 x %"union.base::trace_event::TraceValue"] }
%"union.base::trace_event::TraceValue" = type { i64 }
%"class.base::DefaultTickClock" = type { %"class.base::TickClock" }
%"class.base::DeferredSequencedTaskRunner" = type { %"class.base::SequencedTaskRunner.base", %"class.base::Lock", i32, i8, %class.scoped_refptr.3, %"class.std::__1::vector.336" }
%"class.std::__1::vector.336" = type { %"class.std::__1::__vector_base.337" }
%"class.std::__1::__vector_base.337" = type { %"struct.base::DeferredSequencedTaskRunner::DeferredTask"*, %"struct.base::DeferredSequencedTaskRunner::DeferredTask"*, %"class.std::__1::__compressed_pair.338" }
%"struct.base::DeferredSequencedTaskRunner::DeferredTask" = type <{ %"class.base::Location", %"class.base::OnceCallback", %"class.base::TimeDelta", i8, [7 x i8] }>
%"class.std::__1::__compressed_pair.338" = type { %"struct.std::__1::__compressed_pair_elem.339" }
%"struct.std::__1::__compressed_pair_elem.339" = type { %"struct.base::DeferredSequencedTaskRunner::DeferredTask"* }
%"class.base::RepeatingCallback.344" = type { %"class.base::internal::CallbackBaseCopyable" }
%"class.base::RepeatingCallback.345" = type { %"class.base::internal::CallbackBaseCopyable" }
%"class.mojo::PendingReceiver.346" = type { %"struct.mojo::internal::PendingReceiverState" }
%"class.mojo::PendingReceiver.347" = type { %"struct.mojo::internal::PendingReceiverState" }
%"class.mojo::PendingReceiver.348" = type { %"struct.mojo::internal::PendingReceiverState" }
%"class.mojo::PendingReceiver.349" = type { %"struct.mojo::internal::PendingReceiverState" }
%"class.mojo::PendingReceiver.350" = type { %"struct.mojo::internal::PendingReceiverState" }
%"class.mojo::PendingReceiver.351" = type { %"struct.mojo::internal::PendingReceiverState" }
%"class.mojo::Message" = type { %"class.mojo::ScopedHandleBase.372", %"class.mojo::internal::Buffer", %"class.std::__1::vector.373", %"class.std::__1::vector.381", %"class.mojo::ConnectionGroup::Ref"*, i8, i8, i8* }
%"class.mojo::ScopedHandleBase.372" = type { %"class.mojo::MessageHandle" }
%"class.mojo::MessageHandle" = type { i64 }
%"class.mojo::internal::Buffer" = type { %"class.mojo::MessageHandle", i64, i8*, i64, i64 }
%"class.std::__1::vector.373" = type { %"class.std::__1::__vector_base.374" }
%"class.std::__1::__vector_base.374" = type { %"class.mojo::ScopedHandleBase.375"*, %"class.mojo::ScopedHandleBase.375"*, %"class.std::__1::__compressed_pair.376" }
%"class.mojo::ScopedHandleBase.375" = type { %"class.mojo::Handle" }
%"class.std::__1::__compressed_pair.376" = type { %"struct.std::__1::__compressed_pair_elem.377" }
%"struct.std::__1::__compressed_pair_elem.377" = type { %"class.mojo::ScopedHandleBase.375"* }
%"class.std::__1::vector.381" = type { %"class.std::__1::__vector_base.382" }
%"class.std::__1::__vector_base.382" = type { %"class.mojo::ScopedInterfaceEndpointHandle"*, %"class.mojo::ScopedInterfaceEndpointHandle"*, %"class.std::__1::__compressed_pair.383" }
%"class.std::__1::__compressed_pair.383" = type { %"struct.std::__1::__compressed_pair_elem.384" }
%"struct.std::__1::__compressed_pair_elem.384" = type { %"class.mojo::ScopedInterfaceEndpointHandle"* }
%"class.mojo::MessageReceiverWithStatus" = type { %"class.mojo::MessageReceiver" }

$_ZN4mojo15MessageReceiverD2Ev = comdat any

$_ZN5audio5mojom16AudioServiceStubIN4mojo19RawPtrImplRefTraitsINS0_12AudioServiceEEEED0Ev = comdat any

$_ZN5audio5mojom16AudioServiceStubIN4mojo19RawPtrImplRefTraitsINS0_12AudioServiceEEEE6AcceptEPNS2_7MessageE = comdat any

$_ZN5audio5mojom16AudioServiceStubIN4mojo19RawPtrImplRefTraitsINS0_12AudioServiceEEEE19AcceptWithResponderEPNS2_7MessageENSt3__110unique_ptrINS2_25MessageReceiverWithStatusENS9_14default_deleteISB_EEEE = comdat any

$_ZTVN5audio5mojom16AudioServiceStubIN4mojo19RawPtrImplRefTraitsINS0_12AudioServiceEEEEE = comdat any

@_ZTVN5audio7ServiceE = hidden unnamed_addr constant { [10 x i8*] } { [10 x i8*] [i8* null, i8* null, i8* bitcast (void (%"class.audio::Service"*)* @_ZN5audio7ServiceD2Ev to i8*), i8* bitcast (void (%"class.audio::Service"*)* @_ZN5audio7ServiceD0Ev to i8*), i8* bitcast (void (%"class.audio::Service"*, %"class.mojo::PendingReceiver.346"*)* @_ZN5audio7Service14BindSystemInfoEN4mojo15PendingReceiverINS_5mojom10SystemInfoEEE to i8*), i8* bitcast (void (%"class.audio::Service"*, %"class.mojo::PendingReceiver.347"*)* @_ZN5audio7Service18BindDebugRecordingEN4mojo15PendingReceiverINS_5mojom14DebugRecordingEEE to i8*), i8* bitcast (void (%"class.audio::Service"*, %"class.mojo::PendingReceiver.348"*)* @_ZN5audio7Service17BindStreamFactoryEN4mojo15PendingReceiverIN5media5mojom18AudioStreamFactoryEEE to i8*), i8* bitcast (void (%"class.audio::Service"*, %"class.mojo::PendingReceiver.349"*)* @_ZN5audio7Service18BindDeviceNotifierEN4mojo15PendingReceiverINS_5mojom14DeviceNotifierEEE to i8*), i8* bitcast (void (%"class.audio::Service"*, %"class.mojo::PendingReceiver.350"*)* @_ZN5audio7Service21BindLogFactoryManagerEN4mojo15PendingReceiverINS_5mojom17LogFactoryManagerEEE to i8*), i8* bitcast (void (%"class.audio::Service"*, %"class.mojo::PendingReceiver.351"*)* @_ZN5audio7Service14BindTestingApiEN4mojo15PendingReceiverINS_5mojom10TestingApiEEE to i8*)] }, align 8
@.str = private unnamed_addr constant [32 x i8] c"../../services/audio/service.cc\00", align 1
@.str.1 = private unnamed_addr constant [28 x i8] c"!base::SystemMonitor::Get()\00", align 1
@_ZN4base11trace_event16CategoryRegistry11categories_E = external global [300 x %"struct.base::trace_event::TraceCategory"], align 16
@.str.2 = private unnamed_addr constant [24 x i8] c"audio::Service::OnStart\00", align 1
@.str.3 = private unnamed_addr constant [43 x i8] c"audio_manager_accessor_->GetAudioManager()\00", align 1
@.str.4 = private unnamed_addr constant [25 x i8] c"audio::Service::~Service\00", align 1
@_ZZN5audio7Service22GetInProcessTaskRunnerEvE8instance = internal global %"class.base::NoDestructor" zeroinitializer, align 8
@_ZGVZN5audio7Service22GetInProcessTaskRunnerEvE8instance = internal global i64 0, align 8
@_ZTVN5audio5mojom16AudioServiceStubIN4mojo19RawPtrImplRefTraitsINS0_12AudioServiceEEEEE = linkonce_odr hidden unnamed_addr constant { [7 x i8*] } { [7 x i8*] [i8* null, i8* null, i8* bitcast (void (%"class.mojo::MessageReceiver"*)* @_ZN4mojo15MessageReceiverD2Ev to i8*), i8* bitcast (void (%"class.audio::mojom::AudioServiceStub"*)* @_ZN5audio5mojom16AudioServiceStubIN4mojo19RawPtrImplRefTraitsINS0_12AudioServiceEEEED0Ev to i8*), i8* bitcast (i1 (%"class.mojo::MessageReceiver"*)* @_ZN4mojo15MessageReceiver25PrefersSerializedMessagesEv to i8*), i8* bitcast (i1 (%"class.audio::mojom::AudioServiceStub"*, %"class.mojo::Message"*)* @_ZN5audio5mojom16AudioServiceStubIN4mojo19RawPtrImplRefTraitsINS0_12AudioServiceEEEE6AcceptEPNS2_7MessageE to i8*), i8* bitcast (i1 (%"class.audio::mojom::AudioServiceStub"*, %"class.mojo::Message"*, %"class.mojo::MessageReceiverWithStatus"*)* @_ZN5audio5mojom16AudioServiceStubIN4mojo19RawPtrImplRefTraitsINS0_12AudioServiceEEEE19AcceptWithResponderEPNS2_7MessageENSt3__110unique_ptrINS2_25MessageReceiverWithStatusENS9_14default_deleteISB_EEEE to i8*)] }, comdat, align 8
@_ZN5audio5mojom12AudioService5Name_E = external constant [0 x i8], align 1
@_ZTVN5audio5mojom28AudioServiceRequestValidatorE = external unnamed_addr constant { [6 x i8*] }, align 8

@_ZN5audio7ServiceC1ENSt3__110unique_ptrINS0_20AudioManagerAccessorENS1_14default_deleteIS3_EEEEbN4mojo15PendingReceiverINS_5mojom12AudioServiceEEE = hidden unnamed_addr alias void (%"class.audio::Service"*, %"class.audio::Service::AudioManagerAccessor"*, i1, %"class.mojo::PendingReceiver"*), void (%"class.audio::Service"*, %"class.audio::Service::AudioManagerAccessor"*, i1, %"class.mojo::PendingReceiver"*)* @_ZN5audio7ServiceC2ENSt3__110unique_ptrINS0_20AudioManagerAccessorENS1_14default_deleteIS3_EEEEbN4mojo15PendingReceiverINS_5mojom12AudioServiceEEE
@_ZN5audio7ServiceD1Ev = hidden unnamed_addr alias void (%"class.audio::Service"*), void (%"class.audio::Service"*)* @_ZN5audio7ServiceD2Ev

; Function Attrs: nounwind ssp uwtable
define hidden void @_ZN5audio7ServiceC2ENSt3__110unique_ptrINS0_20AudioManagerAccessorENS1_14default_deleteIS3_EEEEbN4mojo15PendingReceiverINS_5mojom12AudioServiceEEE(%"class.audio::Service"*, %"class.audio::Service::AudioManagerAccessor"*, i1 zeroext, %"class.mojo::PendingReceiver"*) unnamed_addr #0 align 2 {
  %5 = alloca %"class.base::TimeTicks", align 8
  %6 = alloca %"class.mojo::PendingReceiver", align 8
  %7 = alloca %"class.mojo::PendingReceiver", align 8
  %8 = alloca %"class.mojo::PendingReceiver", align 8
  %9 = alloca %"class.logging::CheckError", align 8
  %10 = alloca %"class.logging::CheckError", align 8
  %11 = ptrtoint %"class.audio::Service::AudioManagerAccessor"* %1 to i64
  %12 = zext i1 %2 to i8
  %13 = getelementptr inbounds %"class.audio::Service", %"class.audio::Service"* %0, i64 0, i32 0, i32 0
  store i32 (...)** bitcast (i8** getelementptr inbounds ({ [10 x i8*] }, { [10 x i8*] }* @_ZTVN5audio7ServiceE, i64 0, inrange i32 0, i64 2) to i32 (...)**), i32 (...)*** %13, align 8
  %14 = getelementptr inbounds %"class.audio::Service", %"class.audio::Service"* %0, i64 0, i32 1, i32 0, i32 0, i32 0, i32 0
  store %"class.base::internal::BindStateBase"* null, %"class.base::internal::BindStateBase"** %14, align 8
  %15 = getelementptr inbounds %"class.mojo::PendingReceiver", %"class.mojo::PendingReceiver"* %8, i64 0, i32 0
  %16 = getelementptr inbounds %"class.mojo::PendingReceiver", %"class.mojo::PendingReceiver"* %3, i64 0, i32 0
  call void @_ZN4mojo8internal20PendingReceiverStateC1EOS1_(%"struct.mojo::internal::PendingReceiverState"* nonnull %15, %"struct.mojo::internal::PendingReceiverState"* dereferenceable(24) %16) #8
  %17 = bitcast %"class.mojo::PendingReceiver"* %7 to i8*
  call void @llvm.lifetime.start.p0i8(i64 24, i8* nonnull %17)
  %18 = getelementptr inbounds %"class.mojo::PendingReceiver", %"class.mojo::PendingReceiver"* %7, i64 0, i32 0
  call void @_ZN4mojo8internal20PendingReceiverStateC1EOS1_(%"struct.mojo::internal::PendingReceiverState"* nonnull %18, %"struct.mojo::internal::PendingReceiverState"* nonnull dereferenceable(24) %15) #8
  %19 = bitcast %"class.mojo::PendingReceiver"* %6 to i8*
  call void @llvm.lifetime.start.p0i8(i64 24, i8* nonnull %19)
  %20 = getelementptr inbounds %"class.audio::Service", %"class.audio::Service"* %0, i64 0, i32 2, i32 0, i32 0
  call void @_ZN4mojo8internal16BindingStateBaseC2Ev(%"class.mojo::internal::BindingStateBase"* %20) #8
  %21 = getelementptr inbounds %"class.audio::Service", %"class.audio::Service"* %0, i64 0, i32 2, i32 0, i32 1, i32 0, i32 0, i32 0
  store i32 (...)** bitcast (i8** getelementptr inbounds ({ [7 x i8*] }, { [7 x i8*] }* @_ZTVN5audio5mojom16AudioServiceStubIN4mojo19RawPtrImplRefTraitsINS0_12AudioServiceEEEEE, i64 0, inrange i32 0, i64 2) to i32 (...)**), i32 (...)*** %21, align 8
  %22 = ptrtoint %"class.audio::Service"* %0 to i64
  %23 = getelementptr inbounds %"class.audio::Service", %"class.audio::Service"* %0, i64 0, i32 2, i32 0, i32 1, i32 1
  %24 = bitcast %"class.audio::mojom::AudioService"** %23 to i64*
  store i64 %22, i64* %24, align 8
  %25 = getelementptr inbounds %"class.mojo::PendingReceiver", %"class.mojo::PendingReceiver"* %6, i64 0, i32 0
  call void @_ZN4mojo8internal20PendingReceiverStateC1EOS1_(%"struct.mojo::internal::PendingReceiverState"* nonnull %25, %"struct.mojo::internal::PendingReceiverState"* nonnull dereferenceable(24) %18) #8
  %26 = getelementptr inbounds %"class.mojo::PendingReceiver", %"class.mojo::PendingReceiver"* %6, i64 0, i32 0, i32 0, i32 0, i32 0, i32 0
  %27 = load i32, i32* %26, align 8
  %28 = icmp eq i32 %27, 0
  br i1 %28, label %34, label %29

29:                                               ; preds = %4
  %30 = call i8* @_Znwm(i64 8) #9
  %31 = bitcast i8* %30 to i32 (...)***
  store i32 (...)** bitcast (i8** getelementptr inbounds ({ [6 x i8*] }, { [6 x i8*] }* @_ZTVN5audio5mojom28AudioServiceRequestValidatorE, i64 0, inrange i32 0, i64 2) to i32 (...)**), i32 (...)*** %31, align 8
  %32 = getelementptr inbounds %"class.audio::Service", %"class.audio::Service"* %0, i64 0, i32 2, i32 0, i32 1, i32 0
  %33 = bitcast i8* %30 to %"class.mojo::MessageReceiver"*
  call void @_ZN4mojo8internal16BindingStateBase12BindInternalEPNS0_20PendingReceiverStateE13scoped_refptrIN4base19SequencedTaskRunnerEEPKcNSt3__110unique_ptrINS_15MessageReceiverENSA_14default_deleteISC_EEEEbbPNS_34MessageReceiverWithResponderStatusEj(%"class.mojo::internal::BindingStateBase"* %20, %"struct.mojo::internal::PendingReceiverState"* nonnull %25, %"class.base::SequencedTaskRunner"* null, i8* getelementptr inbounds ([0 x i8], [0 x i8]* @_ZN5audio5mojom12AudioService5Name_E, i64 0, i64 0), %"class.mojo::MessageReceiver"* nonnull %33, i1 zeroext false, i1 zeroext false, %"class.mojo::MessageReceiverWithResponderStatus"* %32, i32 0) #8
  br label %35

34:                                               ; preds = %4
  call void @_ZN4mojo8internal16BindingStateBase5CloseEv(%"class.mojo::internal::BindingStateBase"* %20) #8
  br label %35

35:                                               ; preds = %29, %34
  call void @_ZN4mojo8internal20PendingReceiverStateD1Ev(%"struct.mojo::internal::PendingReceiverState"* nonnull %25) #8
  call void @llvm.lifetime.end.p0i8(i64 24, i8* nonnull %19)
  call void @_ZN4mojo8internal20PendingReceiverStateD1Ev(%"struct.mojo::internal::PendingReceiverState"* nonnull %18) #8
  call void @llvm.lifetime.end.p0i8(i64 24, i8* nonnull %17)
  call void @_ZN4mojo8internal20PendingReceiverStateD1Ev(%"struct.mojo::internal::PendingReceiverState"* nonnull %15) #8
  %36 = getelementptr inbounds %"class.audio::Service", %"class.audio::Service"* %0, i64 0, i32 3
  %37 = bitcast %"class.std::__1::unique_ptr.163"* %36 to i64*
  store i64 %11, i64* %37, align 8
  %38 = getelementptr inbounds %"class.audio::Service", %"class.audio::Service"* %0, i64 0, i32 4
  store i8 %12, i8* %38, align 8
  %39 = getelementptr inbounds %"class.audio::Service", %"class.audio::Service"* %0, i64 0, i32 5
  %40 = bitcast %"class.std::__1::unique_ptr.169"* %39 to i64*
  %41 = getelementptr inbounds %"class.audio::Service", %"class.audio::Service"* %0, i64 0, i32 8, i32 0, i32 0, i32 0, i32 1
  %42 = getelementptr inbounds %"class.audio::Service", %"class.audio::Service"* %0, i64 0, i32 10
  %43 = bitcast %"class.std::__1::unique_ptr.307"* %42 to i64*
  %44 = getelementptr inbounds %"class.audio::Service", %"class.audio::Service"* %0, i64 0, i32 11
  %45 = bitcast %"class.std::__1::unique_ptr.324"* %44 to i64*
  %46 = bitcast %"class.std::__1::unique_ptr.169"* %39 to i8*
  call void @llvm.memset.p0i8.i64(i8* align 8 %46, i8 0, i64 25, i1 false)
  %47 = bitcast %union.anon.220* %41 to i8*
  call void @llvm.memset.p0i8.i64(i8* align 8 %47, i8 0, i64 456, i1 false)
  br i1 %2, label %48, label %86

48:                                               ; preds = %35
  %49 = call %"class.base::SystemMonitor"* @_ZN4base13SystemMonitor3GetEv() #8
  %50 = icmp eq %"class.base::SystemMonitor"* %49, null
  br i1 %50, label %54, label %51

51:                                               ; preds = %48
  %52 = bitcast %"class.logging::CheckError"* %9 to i8*
  call void @llvm.lifetime.start.p0i8(i64 8, i8* nonnull %52) #8
  call void @_ZN7logging10CheckError5CheckEPKciS2_(%"class.logging::CheckError"* nonnull sret %9, i8* getelementptr inbounds ([32 x i8], [32 x i8]* @.str, i64 0, i64 0), i32 42, i8* getelementptr inbounds ([28 x i8], [28 x i8]* @.str.1, i64 0, i64 0)) #8
  %53 = call dereferenceable(160) %"class.std::__1::basic_ostream"* @_ZN7logging10CheckError6streamEv(%"class.logging::CheckError"* nonnull %9) #8
  call void @_ZN7logging10CheckErrorD1Ev(%"class.logging::CheckError"* nonnull %9) #8
  call void @llvm.lifetime.end.p0i8(i64 8, i8* nonnull %52) #8
  br label %54

54:                                               ; preds = %48, %51
  %55 = call i8* @_Znwm(i64 8) #9
  %56 = bitcast i8* %55 to %"class.base::SystemMonitor"*
  call void @_ZN4base13SystemMonitorC1Ev(%"class.base::SystemMonitor"* nonnull %56) #8
  %57 = ptrtoint i8* %55 to i64
  %58 = getelementptr inbounds %"class.std::__1::unique_ptr.169", %"class.std::__1::unique_ptr.169"* %39, i64 0, i32 0, i32 0, i32 0
  %59 = load %"class.base::SystemMonitor"*, %"class.base::SystemMonitor"** %58, align 8
  store i64 %57, i64* %40, align 8
  %60 = icmp eq %"class.base::SystemMonitor"* %59, null
  br i1 %60, label %63, label %61

61:                                               ; preds = %54
  call void @_ZN4base13SystemMonitorD1Ev(%"class.base::SystemMonitor"* nonnull %59) #8
  %62 = bitcast %"class.base::SystemMonitor"* %59 to i8*
  call void @_ZdlPv(i8* %62) #9
  br label %63

63:                                               ; preds = %61, %54
  %64 = call i8* @_Znwm(i64 184) #9
  %65 = bitcast i8* %64 to %"class.audio::LogFactoryManager"*
  call void @_ZN5audio17LogFactoryManagerC1Ev(%"class.audio::LogFactoryManager"* nonnull %65) #8
  %66 = ptrtoint i8* %64 to i64
  %67 = getelementptr inbounds %"class.std::__1::unique_ptr.307", %"class.std::__1::unique_ptr.307"* %42, i64 0, i32 0, i32 0, i32 0
  %68 = load %"class.audio::LogFactoryManager"*, %"class.audio::LogFactoryManager"** %67, align 8
  store i64 %66, i64* %43, align 8
  %69 = icmp eq %"class.audio::LogFactoryManager"* %68, null
  %70 = bitcast i8* %64 to %"class.audio::LogFactoryManager"*
  br i1 %69, label %77, label %71

71:                                               ; preds = %63
  %72 = bitcast %"class.audio::LogFactoryManager"* %68 to void (%"class.audio::LogFactoryManager"*)***
  %73 = load void (%"class.audio::LogFactoryManager"*)**, void (%"class.audio::LogFactoryManager"*)*** %72, align 8
  %74 = getelementptr inbounds void (%"class.audio::LogFactoryManager"*)*, void (%"class.audio::LogFactoryManager"*)** %73, i64 1
  %75 = load void (%"class.audio::LogFactoryManager"*)*, void (%"class.audio::LogFactoryManager"*)** %74, align 8
  call void %75(%"class.audio::LogFactoryManager"* nonnull %68) #8
  %76 = load %"class.audio::LogFactoryManager"*, %"class.audio::LogFactoryManager"** %67, align 8
  br label %77

77:                                               ; preds = %71, %63
  %78 = phi %"class.audio::LogFactoryManager"* [ %76, %71 ], [ %70, %63 ]
  %79 = getelementptr inbounds %"class.std::__1::unique_ptr.163", %"class.std::__1::unique_ptr.163"* %36, i64 0, i32 0, i32 0, i32 0
  %80 = load %"class.audio::Service::AudioManagerAccessor"*, %"class.audio::Service::AudioManagerAccessor"** %79, align 8
  %81 = call %"class.media::AudioLogFactory"* @_ZN5audio17LogFactoryManager13GetLogFactoryEv(%"class.audio::LogFactoryManager"* %78) #8
  %82 = bitcast %"class.audio::Service::AudioManagerAccessor"* %80 to void (%"class.audio::Service::AudioManagerAccessor"*, %"class.media::AudioLogFactory"*)***
  %83 = load void (%"class.audio::Service::AudioManagerAccessor"*, %"class.media::AudioLogFactory"*)**, void (%"class.audio::Service::AudioManagerAccessor"*, %"class.media::AudioLogFactory"*)*** %82, align 8
  %84 = getelementptr inbounds void (%"class.audio::Service::AudioManagerAccessor"*, %"class.media::AudioLogFactory"*)*, void (%"class.audio::Service::AudioManagerAccessor"*, %"class.media::AudioLogFactory"*)** %83, i64 4
  %85 = load void (%"class.audio::Service::AudioManagerAccessor"*, %"class.media::AudioLogFactory"*)*, void (%"class.audio::Service::AudioManagerAccessor"*, %"class.media::AudioLogFactory"*)** %84, align 8
  call void %85(%"class.audio::Service::AudioManagerAccessor"* %80, %"class.media::AudioLogFactory"* %81) #8
  br label %86

86:                                               ; preds = %35, %77
  %87 = load i8, i8* getelementptr inbounds ([300 x %"struct.base::trace_event::TraceCategory"], [300 x %"struct.base::trace_event::TraceCategory"]* @_ZN4base11trace_event16CategoryRegistry11categories_E, i64 0, i64 7, i32 0), align 16
  %88 = and i8 %87, 25
  %89 = icmp eq i8 %88, 0
  br i1 %89, label %96, label %90, !prof !2

90:                                               ; preds = %86
  %91 = call i32 @_ZN4base14PlatformThread9CurrentIdEv() #8
  %92 = bitcast %"class.base::TimeTicks"* %5 to i8*
  call void @llvm.lifetime.start.p0i8(i64 8, i8* nonnull %92) #8
  %93 = getelementptr inbounds %"class.base::TimeTicks", %"class.base::TimeTicks"* %5, i64 0, i32 0, i32 0
  %94 = call i64 @_ZN4base6subtle28TimeTicksNowIgnoringOverrideEv() #8
  store i64 %94, i64* %93, align 8
  %95 = call i64 @_ZN20trace_event_internal37AddTraceEventWithThreadIdAndTimestampEcPKhPKcS3_yyiRKN4base9TimeTicksEPNS4_11trace_event14TraceArgumentsEj(i8 signext 88, i8* getelementptr inbounds ([300 x %"struct.base::trace_event::TraceCategory"], [300 x %"struct.base::trace_event::TraceCategory"]* @_ZN4base11trace_event16CategoryRegistry11categories_E, i64 0, i64 7, i32 0), i8* getelementptr inbounds ([24 x i8], [24 x i8]* @.str.2, i64 0, i64 0), i8* null, i64 0, i64 0, i32 %91, %"class.base::TimeTicks"* nonnull dereferenceable(8) %5, %"class.base::trace_event::TraceArguments"* null, i32 0) #8
  call void @llvm.lifetime.end.p0i8(i64 8, i8* nonnull %92) #8
  br label %96

96:                                               ; preds = %86, %90
  %97 = phi i64 [ -6148914691236517206, %86 ], [ %95, %90 ]
  %98 = phi i8* [ inttoptr (i64 -6148914691236517206 to i8*), %86 ], [ getelementptr inbounds ([24 x i8], [24 x i8]* @.str.2, i64 0, i64 0), %90 ]
  %99 = phi i8* [ null, %86 ], [ getelementptr inbounds ([300 x %"struct.base::trace_event::TraceCategory"], [300 x %"struct.base::trace_event::TraceCategory"]* @_ZN4base11trace_event16CategoryRegistry11categories_E, i64 0, i64 7, i32 0), %90 ]
  %100 = getelementptr inbounds %"class.std::__1::unique_ptr.163", %"class.std::__1::unique_ptr.163"* %36, i64 0, i32 0, i32 0, i32 0
  %101 = load %"class.audio::Service::AudioManagerAccessor"*, %"class.audio::Service::AudioManagerAccessor"** %100, align 8
  %102 = bitcast %"class.audio::Service::AudioManagerAccessor"* %101 to %"class.media::AudioManager"* (%"class.audio::Service::AudioManagerAccessor"*)***
  %103 = load %"class.media::AudioManager"* (%"class.audio::Service::AudioManagerAccessor"*)**, %"class.media::AudioManager"* (%"class.audio::Service::AudioManagerAccessor"*)*** %102, align 8
  %104 = getelementptr inbounds %"class.media::AudioManager"* (%"class.audio::Service::AudioManagerAccessor"*)*, %"class.media::AudioManager"* (%"class.audio::Service::AudioManagerAccessor"*)** %103, i64 3
  %105 = load %"class.media::AudioManager"* (%"class.audio::Service::AudioManagerAccessor"*)*, %"class.media::AudioManager"* (%"class.audio::Service::AudioManagerAccessor"*)** %104, align 8
  %106 = call %"class.media::AudioManager"* %105(%"class.audio::Service::AudioManagerAccessor"* %101) #8
  %107 = icmp eq %"class.media::AudioManager"* %106, null
  br i1 %107, label %108, label %111

108:                                              ; preds = %96
  %109 = bitcast %"class.logging::CheckError"* %10 to i8*
  call void @llvm.lifetime.start.p0i8(i64 8, i8* nonnull %109) #8
  call void @_ZN7logging10CheckError5CheckEPKciS2_(%"class.logging::CheckError"* nonnull sret %10, i8* getelementptr inbounds ([32 x i8], [32 x i8]* @.str, i64 0, i64 0), i32 55, i8* getelementptr inbounds ([43 x i8], [43 x i8]* @.str.3, i64 0, i64 0)) #8
  %110 = call dereferenceable(160) %"class.std::__1::basic_ostream"* @_ZN7logging10CheckError6streamEv(%"class.logging::CheckError"* nonnull %10) #8
  call void @_ZN7logging10CheckErrorD1Ev(%"class.logging::CheckError"* nonnull %10) #8
  call void @llvm.lifetime.end.p0i8(i64 8, i8* nonnull %109) #8
  br label %111

111:                                              ; preds = %96, %108
  %112 = call %"class.base::DefaultTickClock"* @_ZN4base16DefaultTickClock11GetInstanceEv() #8
  %113 = call i8* @_Znwm(i64 24) #9
  %114 = bitcast i8* %113 to %"class.audio::ServiceMetrics"*
  %115 = getelementptr inbounds %"class.base::DefaultTickClock", %"class.base::DefaultTickClock"* %112, i64 0, i32 0
  call void @_ZN5audio14ServiceMetricsC1EPKN4base9TickClockE(%"class.audio::ServiceMetrics"* nonnull %114, %"class.base::TickClock"* %115) #8
  %116 = ptrtoint i8* %113 to i64
  %117 = getelementptr inbounds %"class.std::__1::unique_ptr.324", %"class.std::__1::unique_ptr.324"* %44, i64 0, i32 0, i32 0, i32 0
  %118 = load %"class.audio::ServiceMetrics"*, %"class.audio::ServiceMetrics"** %117, align 8
  store i64 %116, i64* %45, align 8
  %119 = icmp eq %"class.audio::ServiceMetrics"* %118, null
  br i1 %119, label %122, label %120

120:                                              ; preds = %111
  call void @_ZN5audio14ServiceMetricsD1Ev(%"class.audio::ServiceMetrics"* nonnull %118) #8
  %121 = bitcast %"class.audio::ServiceMetrics"* %118 to i8*
  call void @_ZdlPv(i8* %121) #9
  br label %122

122:                                              ; preds = %120, %111
  %123 = icmp eq i8* %99, null
  br i1 %123, label %128, label %124

124:                                              ; preds = %122
  %125 = load i8, i8* %99, align 1
  %126 = icmp eq i8 %125, 0
  br i1 %126, label %128, label %127

127:                                              ; preds = %124
  call void @_ZN20trace_event_internal24UpdateTraceEventDurationEPKhPKcN4base11trace_event16TraceEventHandleE(i8* nonnull %99, i8* %98, i64 %97) #8
  br label %128

128:                                              ; preds = %127, %124, %122
  ret void
}

declare %"class.base::SystemMonitor"* @_ZN4base13SystemMonitor3GetEv() local_unnamed_addr #1

; Function Attrs: argmemonly nounwind
declare void @llvm.lifetime.start.p0i8(i64 immarg, i8* nocapture) #2

declare void @_ZN7logging10CheckError5CheckEPKciS2_(%"class.logging::CheckError"* sret, i8*, i32, i8*) local_unnamed_addr #1

declare dereferenceable(160) %"class.std::__1::basic_ostream"* @_ZN7logging10CheckError6streamEv(%"class.logging::CheckError"*) local_unnamed_addr #1

; Function Attrs: nounwind
declare void @_ZN7logging10CheckErrorD1Ev(%"class.logging::CheckError"*) unnamed_addr #3

; Function Attrs: argmemonly nounwind
declare void @llvm.lifetime.end.p0i8(i64 immarg, i8* nocapture) #2

declare %"class.media::AudioLogFactory"* @_ZN5audio17LogFactoryManager13GetLogFactoryEv(%"class.audio::LogFactoryManager"*) local_unnamed_addr #1

; Function Attrs: norecurse nounwind readnone ssp uwtable
define hidden void @_ZN5audio7Service23InitializeDeviceMonitorEv(%"class.audio::Service"* nocapture) local_unnamed_addr #4 align 2 {
  ret void
}

declare %"class.base::DefaultTickClock"* @_ZN4base16DefaultTickClock11GetInstanceEv() local_unnamed_addr #1

; Function Attrs: nounwind ssp uwtable
define hidden void @_ZN5audio7ServiceD2Ev(%"class.audio::Service"*) unnamed_addr #0 align 2 {
  %2 = alloca %"class.base::TimeTicks", align 8
  %3 = getelementptr inbounds %"class.audio::Service", %"class.audio::Service"* %0, i64 0, i32 0, i32 0
  store i32 (...)** bitcast (i8** getelementptr inbounds ({ [10 x i8*] }, { [10 x i8*] }* @_ZTVN5audio7ServiceE, i64 0, inrange i32 0, i64 2) to i32 (...)**), i32 (...)*** %3, align 8
  %4 = load i8, i8* getelementptr inbounds ([300 x %"struct.base::trace_event::TraceCategory"], [300 x %"struct.base::trace_event::TraceCategory"]* @_ZN4base11trace_event16CategoryRegistry11categories_E, i64 0, i64 7, i32 0), align 16
  %5 = and i8 %4, 25
  %6 = icmp eq i8 %5, 0
  br i1 %6, label %13, label %7, !prof !2

7:                                                ; preds = %1
  %8 = tail call i32 @_ZN4base14PlatformThread9CurrentIdEv() #8
  %9 = bitcast %"class.base::TimeTicks"* %2 to i8*
  call void @llvm.lifetime.start.p0i8(i64 8, i8* nonnull %9) #8
  %10 = getelementptr inbounds %"class.base::TimeTicks", %"class.base::TimeTicks"* %2, i64 0, i32 0, i32 0
  %11 = tail call i64 @_ZN4base6subtle28TimeTicksNowIgnoringOverrideEv() #8
  store i64 %11, i64* %10, align 8
  %12 = call i64 @_ZN20trace_event_internal37AddTraceEventWithThreadIdAndTimestampEcPKhPKcS3_yyiRKN4base9TimeTicksEPNS4_11trace_event14TraceArgumentsEj(i8 signext 88, i8* getelementptr inbounds ([300 x %"struct.base::trace_event::TraceCategory"], [300 x %"struct.base::trace_event::TraceCategory"]* @_ZN4base11trace_event16CategoryRegistry11categories_E, i64 0, i64 7, i32 0), i8* getelementptr inbounds ([25 x i8], [25 x i8]* @.str.4, i64 0, i64 0), i8* null, i64 0, i64 0, i32 %8, %"class.base::TimeTicks"* nonnull dereferenceable(8) %2, %"class.base::trace_event::TraceArguments"* null, i32 0) #8
  call void @llvm.lifetime.end.p0i8(i64 8, i8* nonnull %9) #8
  br label %13

13:                                               ; preds = %1, %7
  %14 = phi i64 [ -6148914691236517206, %1 ], [ %12, %7 ]
  %15 = phi i8* [ inttoptr (i64 -6148914691236517206 to i8*), %1 ], [ getelementptr inbounds ([25 x i8], [25 x i8]* @.str.4, i64 0, i64 0), %7 ]
  %16 = phi i8* [ null, %1 ], [ getelementptr inbounds ([300 x %"struct.base::trace_event::TraceCategory"], [300 x %"struct.base::trace_event::TraceCategory"]* @_ZN4base11trace_event16CategoryRegistry11categories_E, i64 0, i64 7, i32 0), %7 ]
  %17 = getelementptr inbounds %"class.audio::Service", %"class.audio::Service"* %0, i64 0, i32 11, i32 0, i32 0, i32 0
  %18 = load %"class.audio::ServiceMetrics"*, %"class.audio::ServiceMetrics"** %17, align 8
  store %"class.audio::ServiceMetrics"* null, %"class.audio::ServiceMetrics"** %17, align 8
  %19 = icmp eq %"class.audio::ServiceMetrics"* %18, null
  br i1 %19, label %22, label %20

20:                                               ; preds = %13
  call void @_ZN5audio14ServiceMetricsD1Ev(%"class.audio::ServiceMetrics"* nonnull %18) #8
  %21 = bitcast %"class.audio::ServiceMetrics"* %18 to i8*
  call void @_ZdlPv(i8* %21) #9
  br label %22

22:                                               ; preds = %13, %20
  %23 = getelementptr inbounds %"class.audio::Service", %"class.audio::Service"* %0, i64 0, i32 8, i32 0, i32 0, i32 0, i32 0
  %24 = load i8, i8* %23, align 8, !range !3
  %25 = icmp eq i8 %24, 0
  br i1 %25, label %28, label %26

26:                                               ; preds = %22
  %27 = getelementptr inbounds %"class.audio::Service", %"class.audio::Service"* %0, i64 0, i32 8, i32 0, i32 0, i32 0, i32 1, i32 0
  call void @_ZN5audio13StreamFactoryD1Ev(%"class.audio::StreamFactory"* %27) #8
  store i8 0, i8* %23, align 8
  br label %28

28:                                               ; preds = %22, %26
  %29 = getelementptr inbounds %"class.audio::Service", %"class.audio::Service"* %0, i64 0, i32 7, i32 0, i32 0, i32 0
  %30 = load %"class.audio::DebugRecording"*, %"class.audio::DebugRecording"** %29, align 8
  store %"class.audio::DebugRecording"* null, %"class.audio::DebugRecording"** %29, align 8
  %31 = icmp eq %"class.audio::DebugRecording"* %30, null
  br i1 %31, label %37, label %32

32:                                               ; preds = %28
  %33 = bitcast %"class.audio::DebugRecording"* %30 to void (%"class.audio::DebugRecording"*)***
  %34 = load void (%"class.audio::DebugRecording"*)**, void (%"class.audio::DebugRecording"*)*** %33, align 8
  %35 = getelementptr inbounds void (%"class.audio::DebugRecording"*)*, void (%"class.audio::DebugRecording"*)** %34, i64 1
  %36 = load void (%"class.audio::DebugRecording"*)*, void (%"class.audio::DebugRecording"*)** %35, align 8
  call void %36(%"class.audio::DebugRecording"* nonnull %30) #8
  br label %37

37:                                               ; preds = %28, %32
  %38 = getelementptr inbounds %"class.audio::Service", %"class.audio::Service"* %0, i64 0, i32 3, i32 0, i32 0, i32 0
  %39 = load %"class.audio::Service::AudioManagerAccessor"*, %"class.audio::Service::AudioManagerAccessor"** %38, align 8
  %40 = bitcast %"class.audio::Service::AudioManagerAccessor"* %39 to void (%"class.audio::Service::AudioManagerAccessor"*)***
  %41 = load void (%"class.audio::Service::AudioManagerAccessor"*)**, void (%"class.audio::Service::AudioManagerAccessor"*)*** %40, align 8
  %42 = getelementptr inbounds void (%"class.audio::Service::AudioManagerAccessor"*)*, void (%"class.audio::Service::AudioManagerAccessor"*)** %41, i64 2
  %43 = load void (%"class.audio::Service::AudioManagerAccessor"*)*, void (%"class.audio::Service::AudioManagerAccessor"*)** %42, align 8
  call void %43(%"class.audio::Service::AudioManagerAccessor"* %39) #8
  %44 = icmp eq i8* %16, null
  br i1 %44, label %49, label %45

45:                                               ; preds = %37
  %46 = load i8, i8* %16, align 1
  %47 = icmp eq i8 %46, 0
  br i1 %47, label %49, label %48

48:                                               ; preds = %45
  call void @_ZN20trace_event_internal24UpdateTraceEventDurationEPKhPKcN4base11trace_event16TraceEventHandleE(i8* nonnull %16, i8* %15, i64 %14) #8
  br label %49

49:                                               ; preds = %37, %45, %48
  %50 = load %"class.audio::ServiceMetrics"*, %"class.audio::ServiceMetrics"** %17, align 8
  store %"class.audio::ServiceMetrics"* null, %"class.audio::ServiceMetrics"** %17, align 8
  %51 = icmp eq %"class.audio::ServiceMetrics"* %50, null
  br i1 %51, label %54, label %52

52:                                               ; preds = %49
  call void @_ZN5audio14ServiceMetricsD1Ev(%"class.audio::ServiceMetrics"* nonnull %50) #8
  %53 = bitcast %"class.audio::ServiceMetrics"* %50 to i8*
  call void @_ZdlPv(i8* %53) #9
  br label %54

54:                                               ; preds = %49, %52
  %55 = getelementptr inbounds %"class.audio::Service", %"class.audio::Service"* %0, i64 0, i32 10, i32 0, i32 0, i32 0
  %56 = load %"class.audio::LogFactoryManager"*, %"class.audio::LogFactoryManager"** %55, align 8
  store %"class.audio::LogFactoryManager"* null, %"class.audio::LogFactoryManager"** %55, align 8
  %57 = icmp eq %"class.audio::LogFactoryManager"* %56, null
  br i1 %57, label %63, label %58

58:                                               ; preds = %54
  %59 = bitcast %"class.audio::LogFactoryManager"* %56 to void (%"class.audio::LogFactoryManager"*)***
  %60 = load void (%"class.audio::LogFactoryManager"*)**, void (%"class.audio::LogFactoryManager"*)*** %59, align 8
  %61 = getelementptr inbounds void (%"class.audio::LogFactoryManager"*)*, void (%"class.audio::LogFactoryManager"*)** %60, i64 1
  %62 = load void (%"class.audio::LogFactoryManager"*)*, void (%"class.audio::LogFactoryManager"*)** %61, align 8
  call void %62(%"class.audio::LogFactoryManager"* nonnull %56) #8
  br label %63

63:                                               ; preds = %54, %58
  %64 = getelementptr inbounds %"class.audio::Service", %"class.audio::Service"* %0, i64 0, i32 9, i32 0, i32 0, i32 0
  %65 = load %"class.audio::DeviceNotifier"*, %"class.audio::DeviceNotifier"** %64, align 8
  store %"class.audio::DeviceNotifier"* null, %"class.audio::DeviceNotifier"** %64, align 8
  %66 = icmp eq %"class.audio::DeviceNotifier"* %65, null
  br i1 %66, label %72, label %67

67:                                               ; preds = %63
  %68 = bitcast %"class.audio::DeviceNotifier"* %65 to void (%"class.audio::DeviceNotifier"*)***
  %69 = load void (%"class.audio::DeviceNotifier"*)**, void (%"class.audio::DeviceNotifier"*)*** %68, align 8
  %70 = getelementptr inbounds void (%"class.audio::DeviceNotifier"*)*, void (%"class.audio::DeviceNotifier"*)** %69, i64 2
  %71 = load void (%"class.audio::DeviceNotifier"*)*, void (%"class.audio::DeviceNotifier"*)** %70, align 8
  call void %71(%"class.audio::DeviceNotifier"* nonnull %65) #8
  br label %72

72:                                               ; preds = %63, %67
  %73 = load i8, i8* %23, align 8, !range !3
  %74 = icmp eq i8 %73, 0
  br i1 %74, label %77, label %75

75:                                               ; preds = %72
  %76 = getelementptr inbounds %"class.audio::Service", %"class.audio::Service"* %0, i64 0, i32 8, i32 0, i32 0, i32 0, i32 1, i32 0
  call void @_ZN5audio13StreamFactoryD1Ev(%"class.audio::StreamFactory"* %76) #8
  store i8 0, i8* %23, align 8
  br label %77

77:                                               ; preds = %72, %75
  %78 = load %"class.audio::DebugRecording"*, %"class.audio::DebugRecording"** %29, align 8
  store %"class.audio::DebugRecording"* null, %"class.audio::DebugRecording"** %29, align 8
  %79 = icmp eq %"class.audio::DebugRecording"* %78, null
  br i1 %79, label %85, label %80

80:                                               ; preds = %77
  %81 = bitcast %"class.audio::DebugRecording"* %78 to void (%"class.audio::DebugRecording"*)***
  %82 = load void (%"class.audio::DebugRecording"*)**, void (%"class.audio::DebugRecording"*)*** %81, align 8
  %83 = getelementptr inbounds void (%"class.audio::DebugRecording"*)*, void (%"class.audio::DebugRecording"*)** %82, i64 1
  %84 = load void (%"class.audio::DebugRecording"*)*, void (%"class.audio::DebugRecording"*)** %83, align 8
  call void %84(%"class.audio::DebugRecording"* nonnull %78) #8
  br label %85

85:                                               ; preds = %77, %80
  %86 = getelementptr inbounds %"class.audio::Service", %"class.audio::Service"* %0, i64 0, i32 6, i32 0, i32 0, i32 0
  %87 = load %"class.audio::SystemInfo"*, %"class.audio::SystemInfo"** %86, align 8
  store %"class.audio::SystemInfo"* null, %"class.audio::SystemInfo"** %86, align 8
  %88 = icmp eq %"class.audio::SystemInfo"* %87, null
  br i1 %88, label %94, label %89

89:                                               ; preds = %85
  %90 = bitcast %"class.audio::SystemInfo"* %87 to void (%"class.audio::SystemInfo"*)***
  %91 = load void (%"class.audio::SystemInfo"*)**, void (%"class.audio::SystemInfo"*)*** %90, align 8
  %92 = getelementptr inbounds void (%"class.audio::SystemInfo"*)*, void (%"class.audio::SystemInfo"*)** %91, i64 1
  %93 = load void (%"class.audio::SystemInfo"*)*, void (%"class.audio::SystemInfo"*)** %92, align 8
  call void %93(%"class.audio::SystemInfo"* nonnull %87) #8
  br label %94

94:                                               ; preds = %85, %89
  %95 = getelementptr inbounds %"class.audio::Service", %"class.audio::Service"* %0, i64 0, i32 5, i32 0, i32 0, i32 0
  %96 = load %"class.base::SystemMonitor"*, %"class.base::SystemMonitor"** %95, align 8
  store %"class.base::SystemMonitor"* null, %"class.base::SystemMonitor"** %95, align 8
  %97 = icmp eq %"class.base::SystemMonitor"* %96, null
  br i1 %97, label %100, label %98

98:                                               ; preds = %94
  call void @_ZN4base13SystemMonitorD1Ev(%"class.base::SystemMonitor"* nonnull %96) #8
  %99 = bitcast %"class.base::SystemMonitor"* %96 to i8*
  call void @_ZdlPv(i8* %99) #9
  br label %100

100:                                              ; preds = %94, %98
  %101 = load %"class.audio::Service::AudioManagerAccessor"*, %"class.audio::Service::AudioManagerAccessor"** %38, align 8
  store %"class.audio::Service::AudioManagerAccessor"* null, %"class.audio::Service::AudioManagerAccessor"** %38, align 8
  %102 = icmp eq %"class.audio::Service::AudioManagerAccessor"* %101, null
  br i1 %102, label %108, label %103

103:                                              ; preds = %100
  %104 = bitcast %"class.audio::Service::AudioManagerAccessor"* %101 to void (%"class.audio::Service::AudioManagerAccessor"*)***
  %105 = load void (%"class.audio::Service::AudioManagerAccessor"*)**, void (%"class.audio::Service::AudioManagerAccessor"*)*** %104, align 8
  %106 = getelementptr inbounds void (%"class.audio::Service::AudioManagerAccessor"*)*, void (%"class.audio::Service::AudioManagerAccessor"*)** %105, i64 1
  %107 = load void (%"class.audio::Service::AudioManagerAccessor"*)*, void (%"class.audio::Service::AudioManagerAccessor"*)** %106, align 8
  call void %107(%"class.audio::Service::AudioManagerAccessor"* nonnull %101) #8
  br label %108

108:                                              ; preds = %100, %103
  %109 = getelementptr inbounds %"class.audio::Service", %"class.audio::Service"* %0, i64 0, i32 2, i32 0, i32 0
  call void @_ZN4mojo8internal16BindingStateBase5CloseEv(%"class.mojo::internal::BindingStateBase"* %109) #8
  call void @_ZN4mojo8internal16BindingStateBaseD2Ev(%"class.mojo::internal::BindingStateBase"* %109) #8
  %110 = getelementptr inbounds %"class.audio::Service", %"class.audio::Service"* %0, i64 0, i32 1, i32 0, i32 0
  call void @_ZN4base8internal12CallbackBaseD2Ev(%"class.base::internal::CallbackBase"* %110) #8
  ret void
}

; Function Attrs: nounwind
declare void @_ZN4base8internal12CallbackBaseD2Ev(%"class.base::internal::CallbackBase"*) unnamed_addr #3

; Function Attrs: nounwind ssp uwtable
define hidden void @_ZN5audio7ServiceD0Ev(%"class.audio::Service"*) unnamed_addr #0 align 2 {
  tail call void @_ZN5audio7ServiceD2Ev(%"class.audio::Service"* %0) #8
  %2 = bitcast %"class.audio::Service"* %0 to i8*
  tail call void @_ZdlPv(i8* %2) #9
  ret void
}

; Function Attrs: nobuiltin nounwind
declare void @_ZdlPv(i8*) local_unnamed_addr #5

; Function Attrs: nounwind ssp uwtable
define hidden %"class.base::DeferredSequencedTaskRunner"* @_ZN5audio7Service22GetInProcessTaskRunnerEv() local_unnamed_addr #0 align 2 {
  %1 = load atomic i8, i8* bitcast (i64* @_ZGVZN5audio7Service22GetInProcessTaskRunnerEvE8instance to i8*) acquire, align 8
  %2 = icmp eq i8 %1, 0
  br i1 %2, label %3, label %14, !prof !4

3:                                                ; preds = %0
  %4 = tail call i32 @__cxa_guard_acquire(i64* nonnull @_ZGVZN5audio7Service22GetInProcessTaskRunnerEvE8instance) #8
  %5 = icmp eq i32 %4, 0
  br i1 %5, label %14, label %6

6:                                                ; preds = %3
  %7 = tail call i8* @_Znwm(i64 96) #9
  %8 = bitcast i8* %7 to %"class.base::DeferredSequencedTaskRunner"*
  tail call void @_ZN4base27DeferredSequencedTaskRunnerC1Ev(%"class.base::DeferredSequencedTaskRunner"* nonnull %8) #8
  %9 = getelementptr inbounds i8, i8* %7, i64 8
  %10 = bitcast i8* %9 to i32*
  %11 = atomicrmw add i32* %10, i32 1 monotonic
  %12 = ptrtoint i8* %7 to i64
  store i64 %12, i64* bitcast (%"class.base::NoDestructor"* @_ZZN5audio7Service22GetInProcessTaskRunnerEvE8instance to i64*), align 8
  %13 = tail call {}* @llvm.invariant.start.p0i8(i64 8, i8* getelementptr inbounds (%"class.base::NoDestructor", %"class.base::NoDestructor"* @_ZZN5audio7Service22GetInProcessTaskRunnerEvE8instance, i64 0, i32 0, i64 0))
  tail call void @__cxa_guard_release(i64* nonnull @_ZGVZN5audio7Service22GetInProcessTaskRunnerEvE8instance) #8
  br label %14

14:                                               ; preds = %3, %6, %0
  %15 = load %"class.base::DeferredSequencedTaskRunner"*, %"class.base::DeferredSequencedTaskRunner"** bitcast (%"class.base::NoDestructor"* @_ZZN5audio7Service22GetInProcessTaskRunnerEvE8instance to %"class.base::DeferredSequencedTaskRunner"**), align 8
  ret %"class.base::DeferredSequencedTaskRunner"* %15
}

; Function Attrs: nofree nounwind
declare i32 @__cxa_guard_acquire(i64*) local_unnamed_addr #6

; Function Attrs: argmemonly nounwind
declare {}* @llvm.invariant.start.p0i8(i64 immarg, i8* nocapture) #2

; Function Attrs: nofree nounwind
declare void @__cxa_guard_release(i64*) local_unnamed_addr #6

; Function Attrs: nounwind ssp uwtable
define hidden void @_ZN5audio7Service29SetSystemInfoBinderForTestingEN4base17RepeatingCallbackIFvN4mojo15PendingReceiverINS_5mojom10SystemInfoEEEEEE(%"class.base::RepeatingCallback.344"*) local_unnamed_addr #0 align 2 {
  %2 = tail call dereferenceable(8) %"class.base::RepeatingCallback.344"* @_ZN5audio29GetSystemInfoBinderForTestingEv() #8
  %3 = getelementptr inbounds %"class.base::RepeatingCallback.344", %"class.base::RepeatingCallback.344"* %2, i64 0, i32 0
  %4 = getelementptr inbounds %"class.base::RepeatingCallback.344", %"class.base::RepeatingCallback.344"* %0, i64 0, i32 0
  %5 = tail call dereferenceable(8) %"class.base::internal::CallbackBaseCopyable"* @_ZN4base8internal20CallbackBaseCopyableaSEOS1_(%"class.base::internal::CallbackBaseCopyable"* %3, %"class.base::internal::CallbackBaseCopyable"* dereferenceable(8) %4) #8
  ret void
}

declare dereferenceable(8) %"class.base::RepeatingCallback.344"* @_ZN5audio29GetSystemInfoBinderForTestingEv() local_unnamed_addr #1

; Function Attrs: nounwind ssp uwtable
define hidden void @_ZN5audio7Service29SetTestingApiBinderForTestingEN4base17RepeatingCallbackIFvN4mojo15PendingReceiverINS_5mojom10TestingApiEEEEEE(%"class.base::RepeatingCallback.345"*) local_unnamed_addr #0 align 2 {
  %2 = tail call dereferenceable(8) %"class.base::RepeatingCallback.345"* @_ZN5audio19GetTestingApiBinderEv() #8
  %3 = getelementptr inbounds %"class.base::RepeatingCallback.345", %"class.base::RepeatingCallback.345"* %2, i64 0, i32 0
  %4 = getelementptr inbounds %"class.base::RepeatingCallback.345", %"class.base::RepeatingCallback.345"* %0, i64 0, i32 0
  %5 = tail call dereferenceable(8) %"class.base::internal::CallbackBaseCopyable"* @_ZN4base8internal20CallbackBaseCopyableaSEOS1_(%"class.base::internal::CallbackBaseCopyable"* %3, %"class.base::internal::CallbackBaseCopyable"* dereferenceable(8) %4) #8
  ret void
}

declare dereferenceable(8) %"class.base::RepeatingCallback.345"* @_ZN5audio19GetTestingApiBinderEv() local_unnamed_addr #1

; Function Attrs: nounwind ssp uwtable
define hidden void @_ZN5audio7Service14BindSystemInfoEN4mojo15PendingReceiverINS_5mojom10SystemInfoEEE(%"class.audio::Service"* nocapture, %"class.mojo::PendingReceiver.346"*) unnamed_addr #0 align 2 {
  %3 = alloca %"class.mojo::PendingReceiver.346", align 8
  %4 = alloca %"class.mojo::PendingReceiver.346", align 8
  %5 = tail call dereferenceable(8) %"class.base::RepeatingCallback.344"* @_ZN5audio29GetSystemInfoBinderForTestingEv() #8
  %6 = getelementptr inbounds %"class.base::RepeatingCallback.344", %"class.base::RepeatingCallback.344"* %5, i64 0, i32 0, i32 0, i32 0, i32 0
  %7 = load %"class.base::internal::BindStateBase"*, %"class.base::internal::BindStateBase"** %6, align 8
  %8 = icmp eq %"class.base::internal::BindStateBase"* %7, null
  br i1 %8, label %16, label %9

9:                                                ; preds = %2
  %10 = getelementptr inbounds %"class.mojo::PendingReceiver.346", %"class.mojo::PendingReceiver.346"* %3, i64 0, i32 0
  %11 = getelementptr inbounds %"class.mojo::PendingReceiver.346", %"class.mojo::PendingReceiver.346"* %1, i64 0, i32 0
  call void @_ZN4mojo8internal20PendingReceiverStateC1EOS1_(%"struct.mojo::internal::PendingReceiverState"* nonnull %10, %"struct.mojo::internal::PendingReceiverState"* dereferenceable(24) %11) #8
  %12 = load %"class.base::internal::BindStateBase"*, %"class.base::internal::BindStateBase"** %6, align 8
  %13 = getelementptr inbounds %"class.base::internal::BindStateBase", %"class.base::internal::BindStateBase"* %12, i64 0, i32 1
  %14 = bitcast void ()** %13 to void (%"class.base::internal::BindStateBase"*, %"class.mojo::PendingReceiver.346"*)**
  %15 = load void (%"class.base::internal::BindStateBase"*, %"class.mojo::PendingReceiver.346"*)*, void (%"class.base::internal::BindStateBase"*, %"class.mojo::PendingReceiver.346"*)** %14, align 8
  call void %15(%"class.base::internal::BindStateBase"* %12, %"class.mojo::PendingReceiver.346"* nonnull dereferenceable(24) %3) #8
  br label %46

16:                                               ; preds = %2
  %17 = getelementptr inbounds %"class.audio::Service", %"class.audio::Service"* %0, i64 0, i32 6
  %18 = getelementptr inbounds %"class.std::__1::unique_ptr.176", %"class.std::__1::unique_ptr.176"* %17, i64 0, i32 0, i32 0, i32 0
  %19 = load %"class.audio::SystemInfo"*, %"class.audio::SystemInfo"** %18, align 8
  %20 = icmp eq %"class.audio::SystemInfo"* %19, null
  br i1 %20, label %21, label %42

21:                                               ; preds = %16
  %22 = getelementptr inbounds %"class.audio::Service", %"class.audio::Service"* %0, i64 0, i32 3, i32 0, i32 0, i32 0
  %23 = load %"class.audio::Service::AudioManagerAccessor"*, %"class.audio::Service::AudioManagerAccessor"** %22, align 8
  %24 = bitcast %"class.audio::Service::AudioManagerAccessor"* %23 to %"class.media::AudioManager"* (%"class.audio::Service::AudioManagerAccessor"*)***
  %25 = load %"class.media::AudioManager"* (%"class.audio::Service::AudioManagerAccessor"*)**, %"class.media::AudioManager"* (%"class.audio::Service::AudioManagerAccessor"*)*** %24, align 8
  %26 = getelementptr inbounds %"class.media::AudioManager"* (%"class.audio::Service::AudioManagerAccessor"*)*, %"class.media::AudioManager"* (%"class.audio::Service::AudioManagerAccessor"*)** %25, i64 3
  %27 = load %"class.media::AudioManager"* (%"class.audio::Service::AudioManagerAccessor"*)*, %"class.media::AudioManager"* (%"class.audio::Service::AudioManagerAccessor"*)** %26, align 8
  %28 = tail call %"class.media::AudioManager"* %27(%"class.audio::Service::AudioManagerAccessor"* %23) #8
  %29 = tail call i8* @_Znwm(i64 96) #9
  %30 = bitcast i8* %29 to %"class.audio::SystemInfo"*
  tail call void @_ZN5audio10SystemInfoC1EPN5media12AudioManagerE(%"class.audio::SystemInfo"* nonnull %30, %"class.media::AudioManager"* %28) #8
  %31 = ptrtoint i8* %29 to i64
  %32 = load %"class.audio::SystemInfo"*, %"class.audio::SystemInfo"** %18, align 8
  %33 = bitcast %"class.std::__1::unique_ptr.176"* %17 to i64*
  store i64 %31, i64* %33, align 8
  %34 = icmp eq %"class.audio::SystemInfo"* %32, null
  %35 = bitcast i8* %29 to %"class.audio::SystemInfo"*
  br i1 %34, label %42, label %36

36:                                               ; preds = %21
  %37 = bitcast %"class.audio::SystemInfo"* %32 to void (%"class.audio::SystemInfo"*)***
  %38 = load void (%"class.audio::SystemInfo"*)**, void (%"class.audio::SystemInfo"*)*** %37, align 8
  %39 = getelementptr inbounds void (%"class.audio::SystemInfo"*)*, void (%"class.audio::SystemInfo"*)** %38, i64 1
  %40 = load void (%"class.audio::SystemInfo"*)*, void (%"class.audio::SystemInfo"*)** %39, align 8
  tail call void %40(%"class.audio::SystemInfo"* nonnull %32) #8
  %41 = load %"class.audio::SystemInfo"*, %"class.audio::SystemInfo"** %18, align 8
  br label %42

42:                                               ; preds = %16, %21, %36
  %43 = phi %"class.audio::SystemInfo"* [ %19, %16 ], [ %35, %21 ], [ %41, %36 ]
  %44 = getelementptr inbounds %"class.mojo::PendingReceiver.346", %"class.mojo::PendingReceiver.346"* %4, i64 0, i32 0
  %45 = getelementptr inbounds %"class.mojo::PendingReceiver.346", %"class.mojo::PendingReceiver.346"* %1, i64 0, i32 0
  call void @_ZN4mojo8internal20PendingReceiverStateC1EOS1_(%"struct.mojo::internal::PendingReceiverState"* nonnull %44, %"struct.mojo::internal::PendingReceiverState"* dereferenceable(24) %45) #8
  call void @_ZN5audio10SystemInfo4BindEN4mojo15PendingReceiverINS_5mojom10SystemInfoEEE(%"class.audio::SystemInfo"* %43, %"class.mojo::PendingReceiver.346"* nonnull %4) #8
  br label %46

46:                                               ; preds = %42, %9
  %47 = phi %"struct.mojo::internal::PendingReceiverState"* [ %44, %42 ], [ %10, %9 ]
  call void @_ZN4mojo8internal20PendingReceiverStateD1Ev(%"struct.mojo::internal::PendingReceiverState"* nonnull %47) #8
  ret void
}

declare void @_ZN5audio10SystemInfo4BindEN4mojo15PendingReceiverINS_5mojom10SystemInfoEEE(%"class.audio::SystemInfo"*, %"class.mojo::PendingReceiver.346"*) local_unnamed_addr #1

; Function Attrs: nounwind ssp uwtable
define hidden void @_ZN5audio7Service18BindDebugRecordingEN4mojo15PendingReceiverINS_5mojom14DebugRecordingEEE(%"class.audio::Service"* nocapture, %"class.mojo::PendingReceiver.347"*) unnamed_addr #0 align 2 {
  %3 = alloca %"class.mojo::PendingReceiver.347", align 8
  %4 = getelementptr inbounds %"class.audio::Service", %"class.audio::Service"* %0, i64 0, i32 7
  %5 = getelementptr inbounds %"class.std::__1::unique_ptr.201", %"class.std::__1::unique_ptr.201"* %4, i64 0, i32 0, i32 0, i32 0
  %6 = load %"class.audio::DebugRecording"*, %"class.audio::DebugRecording"** %5, align 8
  store %"class.audio::DebugRecording"* null, %"class.audio::DebugRecording"** %5, align 8
  %7 = icmp eq %"class.audio::DebugRecording"* %6, null
  br i1 %7, label %13, label %8

8:                                                ; preds = %2
  %9 = bitcast %"class.audio::DebugRecording"* %6 to void (%"class.audio::DebugRecording"*)***
  %10 = load void (%"class.audio::DebugRecording"*)**, void (%"class.audio::DebugRecording"*)*** %9, align 8
  %11 = getelementptr inbounds void (%"class.audio::DebugRecording"*)*, void (%"class.audio::DebugRecording"*)** %10, i64 1
  %12 = load void (%"class.audio::DebugRecording"*)*, void (%"class.audio::DebugRecording"*)** %11, align 8
  tail call void %12(%"class.audio::DebugRecording"* nonnull %6) #8
  br label %13

13:                                               ; preds = %2, %8
  %14 = getelementptr inbounds %"class.audio::Service", %"class.audio::Service"* %0, i64 0, i32 3, i32 0, i32 0, i32 0
  %15 = load %"class.audio::Service::AudioManagerAccessor"*, %"class.audio::Service::AudioManagerAccessor"** %14, align 8
  %16 = bitcast %"class.audio::Service::AudioManagerAccessor"* %15 to %"class.media::AudioManager"* (%"class.audio::Service::AudioManagerAccessor"*)***
  %17 = load %"class.media::AudioManager"* (%"class.audio::Service::AudioManagerAccessor"*)**, %"class.media::AudioManager"* (%"class.audio::Service::AudioManagerAccessor"*)*** %16, align 8
  %18 = getelementptr inbounds %"class.media::AudioManager"* (%"class.audio::Service::AudioManagerAccessor"*)*, %"class.media::AudioManager"* (%"class.audio::Service::AudioManagerAccessor"*)** %17, i64 3
  %19 = load %"class.media::AudioManager"* (%"class.audio::Service::AudioManagerAccessor"*)*, %"class.media::AudioManager"* (%"class.audio::Service::AudioManagerAccessor"*)** %18, align 8
  %20 = tail call %"class.media::AudioManager"* %19(%"class.audio::Service::AudioManagerAccessor"* %15) #8
  %21 = bitcast %"class.mojo::PendingReceiver.347"* %3 to i8*
  call void @llvm.lifetime.start.p0i8(i64 24, i8* nonnull %21)
  %22 = tail call i8* @_Znwm(i64 128) #9
  %23 = bitcast i8* %22 to %"class.audio::DebugRecording"*
  %24 = getelementptr inbounds %"class.mojo::PendingReceiver.347", %"class.mojo::PendingReceiver.347"* %3, i64 0, i32 0
  %25 = getelementptr inbounds %"class.mojo::PendingReceiver.347", %"class.mojo::PendingReceiver.347"* %1, i64 0, i32 0
  call void @_ZN4mojo8internal20PendingReceiverStateC1EOS1_(%"struct.mojo::internal::PendingReceiverState"* nonnull %24, %"struct.mojo::internal::PendingReceiverState"* dereferenceable(24) %25) #8
  call void @_ZN5audio14DebugRecordingC1EN4mojo15PendingReceiverINS_5mojom14DebugRecordingEEEPN5media12AudioManagerE(%"class.audio::DebugRecording"* nonnull %23, %"class.mojo::PendingReceiver.347"* nonnull %3, %"class.media::AudioManager"* %20) #8
  call void @_ZN4mojo8internal20PendingReceiverStateD1Ev(%"struct.mojo::internal::PendingReceiverState"* nonnull %24) #8
  call void @llvm.lifetime.end.p0i8(i64 24, i8* nonnull %21)
  %26 = ptrtoint i8* %22 to i64
  %27 = load %"class.audio::DebugRecording"*, %"class.audio::DebugRecording"** %5, align 8
  %28 = bitcast %"class.std::__1::unique_ptr.201"* %4 to i64*
  store i64 %26, i64* %28, align 8
  %29 = icmp eq %"class.audio::DebugRecording"* %27, null
  br i1 %29, label %35, label %30

30:                                               ; preds = %13
  %31 = bitcast %"class.audio::DebugRecording"* %27 to void (%"class.audio::DebugRecording"*)***
  %32 = load void (%"class.audio::DebugRecording"*)**, void (%"class.audio::DebugRecording"*)*** %31, align 8
  %33 = getelementptr inbounds void (%"class.audio::DebugRecording"*)*, void (%"class.audio::DebugRecording"*)** %32, i64 1
  %34 = load void (%"class.audio::DebugRecording"*)*, void (%"class.audio::DebugRecording"*)** %33, align 8
  call void %34(%"class.audio::DebugRecording"* nonnull %27) #8
  br label %35

35:                                               ; preds = %30, %13
  ret void
}

; Function Attrs: nounwind ssp uwtable
define hidden void @_ZN5audio7Service17BindStreamFactoryEN4mojo15PendingReceiverIN5media5mojom18AudioStreamFactoryEEE(%"class.audio::Service"*, %"class.mojo::PendingReceiver.348"*) unnamed_addr #0 align 2 {
  %3 = alloca %"class.mojo::PendingReceiver.348", align 8
  %4 = getelementptr inbounds %"class.audio::Service", %"class.audio::Service"* %0, i64 0, i32 8, i32 0, i32 0, i32 0, i32 0
  %5 = load i8, i8* %4, align 8, !range !3
  %6 = icmp eq i8 %5, 0
  br i1 %6, label %7, label %21

7:                                                ; preds = %2
  %8 = getelementptr inbounds %"class.audio::Service", %"class.audio::Service"* %0, i64 0, i32 3, i32 0, i32 0, i32 0
  %9 = load %"class.audio::Service::AudioManagerAccessor"*, %"class.audio::Service::AudioManagerAccessor"** %8, align 8
  %10 = bitcast %"class.audio::Service::AudioManagerAccessor"* %9 to %"class.media::AudioManager"* (%"class.audio::Service::AudioManagerAccessor"*)***
  %11 = load %"class.media::AudioManager"* (%"class.audio::Service::AudioManagerAccessor"*)**, %"class.media::AudioManager"* (%"class.audio::Service::AudioManagerAccessor"*)*** %10, align 8
  %12 = getelementptr inbounds %"class.media::AudioManager"* (%"class.audio::Service::AudioManagerAccessor"*)*, %"class.media::AudioManager"* (%"class.audio::Service::AudioManagerAccessor"*)** %11, i64 3
  %13 = load %"class.media::AudioManager"* (%"class.audio::Service::AudioManagerAccessor"*)*, %"class.media::AudioManager"* (%"class.audio::Service::AudioManagerAccessor"*)** %12, align 8
  %14 = tail call %"class.media::AudioManager"* %13(%"class.audio::Service::AudioManagerAccessor"* %9) #8
  %15 = load i8, i8* %4, align 8, !range !3
  %16 = icmp eq i8 %15, 0
  br i1 %16, label %19, label %17

17:                                               ; preds = %7
  %18 = getelementptr inbounds %"class.audio::Service", %"class.audio::Service"* %0, i64 0, i32 8, i32 0, i32 0, i32 0, i32 1, i32 0
  tail call void @_ZN5audio13StreamFactoryD1Ev(%"class.audio::StreamFactory"* %18) #8
  store i8 0, i8* %4, align 8
  br label %19

19:                                               ; preds = %7, %17
  %20 = getelementptr inbounds %"class.audio::Service", %"class.audio::Service"* %0, i64 0, i32 8, i32 0, i32 0, i32 0, i32 1, i32 0
  tail call void @_ZN5audio13StreamFactoryC1EPN5media12AudioManagerE(%"class.audio::StreamFactory"* %20, %"class.media::AudioManager"* %14) #8
  store i8 1, i8* %4, align 8
  br label %21

21:                                               ; preds = %2, %19
  %22 = getelementptr inbounds %"class.audio::Service", %"class.audio::Service"* %0, i64 0, i32 8, i32 0, i32 0, i32 0, i32 1, i32 0
  %23 = getelementptr inbounds %"class.mojo::PendingReceiver.348", %"class.mojo::PendingReceiver.348"* %3, i64 0, i32 0
  %24 = getelementptr inbounds %"class.mojo::PendingReceiver.348", %"class.mojo::PendingReceiver.348"* %1, i64 0, i32 0
  call void @_ZN4mojo8internal20PendingReceiverStateC1EOS1_(%"struct.mojo::internal::PendingReceiverState"* nonnull %23, %"struct.mojo::internal::PendingReceiverState"* dereferenceable(24) %24) #8
  call void @_ZN5audio13StreamFactory4BindEN4mojo15PendingReceiverIN5media5mojom18AudioStreamFactoryEEE(%"class.audio::StreamFactory"* %22, %"class.mojo::PendingReceiver.348"* nonnull %3) #8
  call void @_ZN4mojo8internal20PendingReceiverStateD1Ev(%"struct.mojo::internal::PendingReceiverState"* nonnull %23) #8
  ret void
}

declare void @_ZN5audio13StreamFactory4BindEN4mojo15PendingReceiverIN5media5mojom18AudioStreamFactoryEEE(%"class.audio::StreamFactory"*, %"class.mojo::PendingReceiver.348"*) local_unnamed_addr #1

; Function Attrs: nounwind ssp uwtable
define hidden void @_ZN5audio7Service18BindDeviceNotifierEN4mojo15PendingReceiverINS_5mojom14DeviceNotifierEEE(%"class.audio::Service"* nocapture, %"class.mojo::PendingReceiver.349"*) unnamed_addr #0 align 2 {
  %3 = alloca %"class.mojo::PendingReceiver.349", align 8
  %4 = getelementptr inbounds %"class.audio::Service", %"class.audio::Service"* %0, i64 0, i32 9
  %5 = getelementptr inbounds %"class.std::__1::unique_ptr.290", %"class.std::__1::unique_ptr.290"* %4, i64 0, i32 0, i32 0, i32 0
  %6 = load %"class.audio::DeviceNotifier"*, %"class.audio::DeviceNotifier"** %5, align 8
  %7 = icmp eq %"class.audio::DeviceNotifier"* %6, null
  br i1 %7, label %8, label %22

8:                                                ; preds = %2
  %9 = tail call i8* @_Znwm(i64 152) #9
  %10 = bitcast i8* %9 to %"class.audio::DeviceNotifier"*
  tail call void @_ZN5audio14DeviceNotifierC1Ev(%"class.audio::DeviceNotifier"* nonnull %10) #8
  %11 = ptrtoint i8* %9 to i64
  %12 = load %"class.audio::DeviceNotifier"*, %"class.audio::DeviceNotifier"** %5, align 8
  %13 = bitcast %"class.std::__1::unique_ptr.290"* %4 to i64*
  store i64 %11, i64* %13, align 8
  %14 = icmp eq %"class.audio::DeviceNotifier"* %12, null
  %15 = bitcast i8* %9 to %"class.audio::DeviceNotifier"*
  br i1 %14, label %22, label %16

16:                                               ; preds = %8
  %17 = bitcast %"class.audio::DeviceNotifier"* %12 to void (%"class.audio::DeviceNotifier"*)***
  %18 = load void (%"class.audio::DeviceNotifier"*)**, void (%"class.audio::DeviceNotifier"*)*** %17, align 8
  %19 = getelementptr inbounds void (%"class.audio::DeviceNotifier"*)*, void (%"class.audio::DeviceNotifier"*)** %18, i64 2
  %20 = load void (%"class.audio::DeviceNotifier"*)*, void (%"class.audio::DeviceNotifier"*)** %19, align 8
  tail call void %20(%"class.audio::DeviceNotifier"* nonnull %12) #8
  %21 = load %"class.audio::DeviceNotifier"*, %"class.audio::DeviceNotifier"** %5, align 8
  br label %22

22:                                               ; preds = %2, %8, %16
  %23 = phi %"class.audio::DeviceNotifier"* [ %6, %2 ], [ %15, %8 ], [ %21, %16 ]
  %24 = getelementptr inbounds %"class.mojo::PendingReceiver.349", %"class.mojo::PendingReceiver.349"* %3, i64 0, i32 0
  %25 = getelementptr inbounds %"class.mojo::PendingReceiver.349", %"class.mojo::PendingReceiver.349"* %1, i64 0, i32 0
  call void @_ZN4mojo8internal20PendingReceiverStateC1EOS1_(%"struct.mojo::internal::PendingReceiverState"* nonnull %24, %"struct.mojo::internal::PendingReceiverState"* dereferenceable(24) %25) #8
  call void @_ZN5audio14DeviceNotifier4BindEN4mojo15PendingReceiverINS_5mojom14DeviceNotifierEEE(%"class.audio::DeviceNotifier"* %23, %"class.mojo::PendingReceiver.349"* nonnull %3) #8
  call void @_ZN4mojo8internal20PendingReceiverStateD1Ev(%"struct.mojo::internal::PendingReceiverState"* nonnull %24) #8
  ret void
}

declare void @_ZN5audio14DeviceNotifier4BindEN4mojo15PendingReceiverINS_5mojom14DeviceNotifierEEE(%"class.audio::DeviceNotifier"*, %"class.mojo::PendingReceiver.349"*) local_unnamed_addr #1

; Function Attrs: nounwind ssp uwtable
define hidden void @_ZN5audio7Service21BindLogFactoryManagerEN4mojo15PendingReceiverINS_5mojom17LogFactoryManagerEEE(%"class.audio::Service"* nocapture readonly, %"class.mojo::PendingReceiver.350"*) unnamed_addr #0 align 2 {
  %3 = alloca %"class.mojo::PendingReceiver.350", align 8
  %4 = getelementptr inbounds %"class.audio::Service", %"class.audio::Service"* %0, i64 0, i32 10, i32 0, i32 0, i32 0
  %5 = load %"class.audio::LogFactoryManager"*, %"class.audio::LogFactoryManager"** %4, align 8
  %6 = getelementptr inbounds %"class.mojo::PendingReceiver.350", %"class.mojo::PendingReceiver.350"* %3, i64 0, i32 0
  %7 = getelementptr inbounds %"class.mojo::PendingReceiver.350", %"class.mojo::PendingReceiver.350"* %1, i64 0, i32 0
  call void @_ZN4mojo8internal20PendingReceiverStateC1EOS1_(%"struct.mojo::internal::PendingReceiverState"* nonnull %6, %"struct.mojo::internal::PendingReceiverState"* dereferenceable(24) %7) #8
  call void @_ZN5audio17LogFactoryManager4BindEN4mojo15PendingReceiverINS_5mojom17LogFactoryManagerEEE(%"class.audio::LogFactoryManager"* %5, %"class.mojo::PendingReceiver.350"* nonnull %3) #8
  call void @_ZN4mojo8internal20PendingReceiverStateD1Ev(%"struct.mojo::internal::PendingReceiverState"* nonnull %6) #8
  ret void
}

declare void @_ZN5audio17LogFactoryManager4BindEN4mojo15PendingReceiverINS_5mojom17LogFactoryManagerEEE(%"class.audio::LogFactoryManager"*, %"class.mojo::PendingReceiver.350"*) local_unnamed_addr #1

; Function Attrs: nounwind ssp uwtable
define hidden void @_ZN5audio7Service14BindTestingApiEN4mojo15PendingReceiverINS_5mojom10TestingApiEEE(%"class.audio::Service"* nocapture readnone, %"class.mojo::PendingReceiver.351"*) unnamed_addr #0 align 2 {
  %3 = alloca %"class.mojo::PendingReceiver.351", align 8
  %4 = tail call dereferenceable(8) %"class.base::RepeatingCallback.345"* @_ZN5audio19GetTestingApiBinderEv() #8
  %5 = getelementptr inbounds %"class.base::RepeatingCallback.345", %"class.base::RepeatingCallback.345"* %4, i64 0, i32 0, i32 0, i32 0, i32 0
  %6 = load %"class.base::internal::BindStateBase"*, %"class.base::internal::BindStateBase"** %5, align 8
  %7 = icmp eq %"class.base::internal::BindStateBase"* %6, null
  br i1 %7, label %15, label %8

8:                                                ; preds = %2
  %9 = getelementptr inbounds %"class.mojo::PendingReceiver.351", %"class.mojo::PendingReceiver.351"* %3, i64 0, i32 0
  %10 = getelementptr inbounds %"class.mojo::PendingReceiver.351", %"class.mojo::PendingReceiver.351"* %1, i64 0, i32 0
  call void @_ZN4mojo8internal20PendingReceiverStateC1EOS1_(%"struct.mojo::internal::PendingReceiverState"* nonnull %9, %"struct.mojo::internal::PendingReceiverState"* dereferenceable(24) %10) #8
  %11 = load %"class.base::internal::BindStateBase"*, %"class.base::internal::BindStateBase"** %5, align 8
  %12 = getelementptr inbounds %"class.base::internal::BindStateBase", %"class.base::internal::BindStateBase"* %11, i64 0, i32 1
  %13 = bitcast void ()** %12 to void (%"class.base::internal::BindStateBase"*, %"class.mojo::PendingReceiver.351"*)**
  %14 = load void (%"class.base::internal::BindStateBase"*, %"class.mojo::PendingReceiver.351"*)*, void (%"class.base::internal::BindStateBase"*, %"class.mojo::PendingReceiver.351"*)** %13, align 8
  call void %14(%"class.base::internal::BindStateBase"* %11, %"class.mojo::PendingReceiver.351"* nonnull dereferenceable(24) %3) #8
  call void @_ZN4mojo8internal20PendingReceiverStateD1Ev(%"struct.mojo::internal::PendingReceiverState"* nonnull %9) #8
  br label %15

15:                                               ; preds = %2, %8
  ret void
}

; Function Attrs: nounwind
declare void @_ZN4mojo8internal20PendingReceiverStateC1EOS1_(%"struct.mojo::internal::PendingReceiverState"*, %"struct.mojo::internal::PendingReceiverState"* dereferenceable(24)) unnamed_addr #3

; Function Attrs: nounwind
declare void @_ZN4mojo8internal20PendingReceiverStateD1Ev(%"struct.mojo::internal::PendingReceiverState"*) unnamed_addr #3

; Function Attrs: argmemonly nounwind
declare void @llvm.memset.p0i8.i64(i8* nocapture writeonly, i8, i64, i1 immarg) #2

declare i32 @_ZN4base14PlatformThread9CurrentIdEv() local_unnamed_addr #1

declare i64 @_ZN4base6subtle28TimeTicksNowIgnoringOverrideEv() local_unnamed_addr #1

declare i64 @_ZN20trace_event_internal37AddTraceEventWithThreadIdAndTimestampEcPKhPKcS3_yyiRKN4base9TimeTicksEPNS4_11trace_event14TraceArgumentsEj(i8 signext, i8*, i8*, i8*, i64, i64, i32, %"class.base::TimeTicks"* dereferenceable(8), %"class.base::trace_event::TraceArguments"*, i32) local_unnamed_addr #1

declare void @_ZN20trace_event_internal24UpdateTraceEventDurationEPKhPKcN4base11trace_event16TraceEventHandleE(i8*, i8*, i64) local_unnamed_addr #1

; Function Attrs: nounwind
declare void @_ZN5audio13StreamFactoryD1Ev(%"class.audio::StreamFactory"*) unnamed_addr #3

declare void @_ZN4mojo8internal16BindingStateBase5CloseEv(%"class.mojo::internal::BindingStateBase"*) local_unnamed_addr #1

; Function Attrs: nounwind ssp uwtable
define linkonce_odr hidden void @_ZN4mojo15MessageReceiverD2Ev(%"class.mojo::MessageReceiver"*) unnamed_addr #0 comdat align 2 {
  ret void
}

; Function Attrs: nounwind
declare void @_ZN4mojo8internal16BindingStateBaseD2Ev(%"class.mojo::internal::BindingStateBase"*) unnamed_addr #3

; Function Attrs: nounwind
declare dereferenceable(8) %"class.base::internal::CallbackBaseCopyable"* @_ZN4base8internal20CallbackBaseCopyableaSEOS1_(%"class.base::internal::CallbackBaseCopyable"*, %"class.base::internal::CallbackBaseCopyable"* dereferenceable(8)) local_unnamed_addr #3

declare void @_ZN4mojo8internal16BindingStateBaseC2Ev(%"class.mojo::internal::BindingStateBase"*) unnamed_addr #1

; Function Attrs: nounwind ssp uwtable
define linkonce_odr hidden void @_ZN5audio5mojom16AudioServiceStubIN4mojo19RawPtrImplRefTraitsINS0_12AudioServiceEEEED0Ev(%"class.audio::mojom::AudioServiceStub"*) unnamed_addr #0 comdat align 2 {
  %2 = bitcast %"class.audio::mojom::AudioServiceStub"* %0 to i8*
  tail call void @_ZdlPv(i8* %2) #9
  ret void
}

declare zeroext i1 @_ZN4mojo15MessageReceiver25PrefersSerializedMessagesEv(%"class.mojo::MessageReceiver"*) unnamed_addr #1

; Function Attrs: nounwind ssp uwtable
define linkonce_odr hidden zeroext i1 @_ZN5audio5mojom16AudioServiceStubIN4mojo19RawPtrImplRefTraitsINS0_12AudioServiceEEEE6AcceptEPNS2_7MessageE(%"class.audio::mojom::AudioServiceStub"*, %"class.mojo::Message"*) unnamed_addr #0 comdat align 2 {
  %3 = getelementptr inbounds %"class.audio::mojom::AudioServiceStub", %"class.audio::mojom::AudioServiceStub"* %0, i64 0, i32 1
  %4 = load %"class.audio::mojom::AudioService"*, %"class.audio::mojom::AudioService"** %3, align 8
  %5 = icmp eq %"class.audio::mojom::AudioService"* %4, null
  br i1 %5, label %8, label %6

6:                                                ; preds = %2
  %7 = tail call zeroext i1 @_ZN5audio5mojom24AudioServiceStubDispatch6AcceptEPNS0_12AudioServiceEPN4mojo7MessageE(%"class.audio::mojom::AudioService"* nonnull %4, %"class.mojo::Message"* %1) #8
  br label %8

8:                                                ; preds = %2, %6
  %9 = phi i1 [ %7, %6 ], [ false, %2 ]
  ret i1 %9
}

; Function Attrs: nounwind ssp uwtable
define linkonce_odr hidden zeroext i1 @_ZN5audio5mojom16AudioServiceStubIN4mojo19RawPtrImplRefTraitsINS0_12AudioServiceEEEE19AcceptWithResponderEPNS2_7MessageENSt3__110unique_ptrINS2_25MessageReceiverWithStatusENS9_14default_deleteISB_EEEE(%"class.audio::mojom::AudioServiceStub"*, %"class.mojo::Message"*, %"class.mojo::MessageReceiverWithStatus"*) unnamed_addr #0 comdat align 2 {
  %4 = getelementptr inbounds %"class.audio::mojom::AudioServiceStub", %"class.audio::mojom::AudioServiceStub"* %0, i64 0, i32 1
  %5 = load %"class.audio::mojom::AudioService"*, %"class.audio::mojom::AudioService"** %4, align 8
  %6 = icmp eq %"class.audio::mojom::AudioService"* %5, null
  br i1 %6, label %9, label %7

7:                                                ; preds = %3
  %8 = tail call zeroext i1 @_ZN5audio5mojom24AudioServiceStubDispatch19AcceptWithResponderEPNS0_12AudioServiceEPN4mojo7MessageENSt3__110unique_ptrINS4_25MessageReceiverWithStatusENS7_14default_deleteIS9_EEEE(%"class.audio::mojom::AudioService"* nonnull %5, %"class.mojo::Message"* %1, %"class.mojo::MessageReceiverWithStatus"* %2) #8
  br label %16

9:                                                ; preds = %3
  %10 = icmp eq %"class.mojo::MessageReceiverWithStatus"* %2, null
  br i1 %10, label %16, label %11

11:                                               ; preds = %9
  %12 = bitcast %"class.mojo::MessageReceiverWithStatus"* %2 to void (%"class.mojo::MessageReceiverWithStatus"*)***
  %13 = load void (%"class.mojo::MessageReceiverWithStatus"*)**, void (%"class.mojo::MessageReceiverWithStatus"*)*** %12, align 8
  %14 = getelementptr inbounds void (%"class.mojo::MessageReceiverWithStatus"*)*, void (%"class.mojo::MessageReceiverWithStatus"*)** %13, i64 1
  %15 = load void (%"class.mojo::MessageReceiverWithStatus"*)*, void (%"class.mojo::MessageReceiverWithStatus"*)** %14, align 8
  tail call void %15(%"class.mojo::MessageReceiverWithStatus"* nonnull %2) #8
  br label %16

16:                                               ; preds = %7, %9, %11
  %17 = phi i1 [ %8, %7 ], [ false, %9 ], [ false, %11 ]
  ret i1 %17
}

declare zeroext i1 @_ZN5audio5mojom24AudioServiceStubDispatch6AcceptEPNS0_12AudioServiceEPN4mojo7MessageE(%"class.audio::mojom::AudioService"*, %"class.mojo::Message"*) local_unnamed_addr #1

declare zeroext i1 @_ZN5audio5mojom24AudioServiceStubDispatch19AcceptWithResponderEPNS0_12AudioServiceEPN4mojo7MessageENSt3__110unique_ptrINS4_25MessageReceiverWithStatusENS7_14default_deleteIS9_EEEE(%"class.audio::mojom::AudioService"*, %"class.mojo::Message"*, %"class.mojo::MessageReceiverWithStatus"*) local_unnamed_addr #1

declare void @_ZN4mojo8internal16BindingStateBase12BindInternalEPNS0_20PendingReceiverStateE13scoped_refptrIN4base19SequencedTaskRunnerEEPKcNSt3__110unique_ptrINS_15MessageReceiverENSA_14default_deleteISC_EEEEbbPNS_34MessageReceiverWithResponderStatusEj(%"class.mojo::internal::BindingStateBase"*, %"struct.mojo::internal::PendingReceiverState"*, %"class.base::SequencedTaskRunner"*, i8*, %"class.mojo::MessageReceiver"*, i1 zeroext, i1 zeroext, %"class.mojo::MessageReceiverWithResponderStatus"*, i32) local_unnamed_addr #1

; Function Attrs: nobuiltin nofree
declare noalias nonnull i8* @_Znwm(i64) local_unnamed_addr #7

; Function Attrs: nounwind
declare void @_ZN4base13SystemMonitorD1Ev(%"class.base::SystemMonitor"*) unnamed_addr #3

declare void @_ZN4base13SystemMonitorC1Ev(%"class.base::SystemMonitor"*) unnamed_addr #1

declare void @_ZN5audio17LogFactoryManagerC1Ev(%"class.audio::LogFactoryManager"*) unnamed_addr #1

declare void @_ZN5audio14ServiceMetricsC1EPKN4base9TickClockE(%"class.audio::ServiceMetrics"*, %"class.base::TickClock"*) unnamed_addr #1

; Function Attrs: nounwind
declare void @_ZN5audio14ServiceMetricsD1Ev(%"class.audio::ServiceMetrics"*) unnamed_addr #3

declare void @_ZN4base27DeferredSequencedTaskRunnerC1Ev(%"class.base::DeferredSequencedTaskRunner"*) unnamed_addr #1

declare void @_ZN5audio10SystemInfoC1EPN5media12AudioManagerE(%"class.audio::SystemInfo"*, %"class.media::AudioManager"*) unnamed_addr #1

declare void @_ZN5audio14DebugRecordingC1EN4mojo15PendingReceiverINS_5mojom14DebugRecordingEEEPN5media12AudioManagerE(%"class.audio::DebugRecording"*, %"class.mojo::PendingReceiver.347"*, %"class.media::AudioManager"*) unnamed_addr #1

declare void @_ZN5audio13StreamFactoryC1EPN5media12AudioManagerE(%"class.audio::StreamFactory"*, %"class.media::AudioManager"*) unnamed_addr #1

declare void @_ZN5audio14DeviceNotifierC1Ev(%"class.audio::DeviceNotifier"*) unnamed_addr #1

attributes #0 = { nounwind ssp uwtable "correctly-rounded-divide-sqrt-fp-math"="false" "disable-tail-calls"="false" "less-precise-fpmad"="false" "min-legal-vector-width"="0" "no-frame-pointer-elim"="false" "no-frame-pointer-elim-non-leaf" "no-infs-fp-math"="false" "no-jump-tables"="false" "no-nans-fp-math"="false" "no-signed-zeros-fp-math"="false" "no-trapping-math"="false" "null-pointer-is-valid"="true" "stack-protector-buffer-size"="4" "target-cpu"="x86-64" "target-features"="+cx8,+fxsr,+mmx,+sse,+sse2,+sse3,+x87" "unsafe-fp-math"="false" "use-soft-float"="false" }
attributes #1 = { "correctly-rounded-divide-sqrt-fp-math"="false" "disable-tail-calls"="false" "less-precise-fpmad"="false" "no-frame-pointer-elim"="false" "no-frame-pointer-elim-non-leaf" "no-infs-fp-math"="false" "no-nans-fp-math"="false" "no-signed-zeros-fp-math"="false" "no-trapping-math"="false" "null-pointer-is-valid"="true" "stack-protector-buffer-size"="4" "target-cpu"="x86-64" "target-features"="+cx8,+fxsr,+mmx,+sse,+sse2,+sse3,+x87" "unsafe-fp-math"="false" "use-soft-float"="false" }
attributes #2 = { argmemonly nounwind }
attributes #3 = { nounwind "correctly-rounded-divide-sqrt-fp-math"="false" "disable-tail-calls"="false" "less-precise-fpmad"="false" "no-frame-pointer-elim"="false" "no-frame-pointer-elim-non-leaf" "no-infs-fp-math"="false" "no-nans-fp-math"="false" "no-signed-zeros-fp-math"="false" "no-trapping-math"="false" "null-pointer-is-valid"="true" "stack-protector-buffer-size"="4" "target-cpu"="x86-64" "target-features"="+cx8,+fxsr,+mmx,+sse,+sse2,+sse3,+x87" "unsafe-fp-math"="false" "use-soft-float"="false" }
attributes #4 = { norecurse nounwind readnone ssp uwtable "correctly-rounded-divide-sqrt-fp-math"="false" "disable-tail-calls"="false" "less-precise-fpmad"="false" "min-legal-vector-width"="0" "no-frame-pointer-elim"="false" "no-frame-pointer-elim-non-leaf" "no-infs-fp-math"="false" "no-jump-tables"="false" "no-nans-fp-math"="false" "no-signed-zeros-fp-math"="false" "no-trapping-math"="false" "null-pointer-is-valid"="true" "stack-protector-buffer-size"="4" "target-cpu"="x86-64" "target-features"="+cx8,+fxsr,+mmx,+sse,+sse2,+sse3,+x87" "unsafe-fp-math"="false" "use-soft-float"="false" }
attributes #5 = { nobuiltin nounwind "correctly-rounded-divide-sqrt-fp-math"="false" "disable-tail-calls"="false" "less-precise-fpmad"="false" "no-frame-pointer-elim"="false" "no-frame-pointer-elim-non-leaf" "no-infs-fp-math"="false" "no-nans-fp-math"="false" "no-signed-zeros-fp-math"="false" "no-trapping-math"="false" "null-pointer-is-valid"="true" "stack-protector-buffer-size"="4" "target-cpu"="x86-64" "target-features"="+cx8,+fxsr,+mmx,+sse,+sse2,+sse3,+x87" "unsafe-fp-math"="false" "use-soft-float"="false" }
attributes #6 = { nofree nounwind }
attributes #7 = { nobuiltin nofree "correctly-rounded-divide-sqrt-fp-math"="false" "disable-tail-calls"="false" "less-precise-fpmad"="false" "no-frame-pointer-elim"="false" "no-frame-pointer-elim-non-leaf" "no-infs-fp-math"="false" "no-nans-fp-math"="false" "no-signed-zeros-fp-math"="false" "no-trapping-math"="false" "null-pointer-is-valid"="true" "stack-protector-buffer-size"="4" "target-cpu"="x86-64" "target-features"="+cx8,+fxsr,+mmx,+sse,+sse2,+sse3,+x87" "unsafe-fp-math"="false" "use-soft-float"="false" }
attributes #8 = { nounwind }
attributes #9 = { builtin nounwind }

!llvm.module.flags = !{!0, !1}

!0 = !{i32 1, !"wchar_size", i32 4}
!1 = !{i32 7, !"PIC Level", i32 2}
!2 = !{!"branch_weights", i32 2000, i32 1}
!3 = !{i8 0, i8 2}
!4 = !{!"branch_weights", i32 1, i32 1048575}
