; ModuleID = '../../third_party/vulkan-deps/vulkan-validation-layers/src/layers/shader_module.cpp'
source_filename = "../../third_party/vulkan-deps/vulkan-validation-layers/src/layers/shader_module.cpp"
target datalayout = "e-m:e-i64:64-f80:128-n8:16:32:64-S128"
target triple = "x86_64-unknown-linux-gnu"

module asm ".symver exp, exp@GLIBC_2.2.5"
module asm ".symver exp2, exp2@GLIBC_2.2.5"
module asm ".symver exp2f, exp2f@GLIBC_2.2.5"
module asm ".symver expf, expf@GLIBC_2.2.5"
module asm ".symver lgamma, lgamma@GLIBC_2.2.5"
module asm ".symver lgammaf, lgammaf@GLIBC_2.2.5"
module asm ".symver lgammal, lgammal@GLIBC_2.2.5"
module asm ".symver log, log@GLIBC_2.2.5"
module asm ".symver log2, log2@GLIBC_2.2.5"
module asm ".symver log2f, log2f@GLIBC_2.2.5"
module asm ".symver logf, logf@GLIBC_2.2.5"
module asm ".symver pow, pow@GLIBC_2.2.5"
module asm ".symver powf, powf@GLIBC_2.2.5"

%"class.std::__1::unordered_map" = type { %"class.std::__1::__hash_table" }
%"class.std::__1::__hash_table" = type <{ %"class.std::__1::unique_ptr", %"class.std::__1::__compressed_pair.4", %"class.std::__1::__compressed_pair.9", %"class.std::__1::__compressed_pair.11", [4 x i8] }>
%"class.std::__1::unique_ptr" = type { %"class.std::__1::__compressed_pair" }
%"class.std::__1::__compressed_pair" = type { %"struct.std::__1::__compressed_pair_elem", %"struct.std::__1::__compressed_pair_elem.0" }
%"struct.std::__1::__compressed_pair_elem" = type { %"struct.std::__1::__hash_node_base"** }
%"struct.std::__1::__hash_node_base" = type { %"struct.std::__1::__hash_node_base"* }
%"struct.std::__1::__compressed_pair_elem.0" = type { %"class.std::__1::__bucket_list_deallocator" }
%"class.std::__1::__bucket_list_deallocator" = type { %"class.std::__1::__compressed_pair.1" }
%"class.std::__1::__compressed_pair.1" = type { %"struct.std::__1::__compressed_pair_elem.2" }
%"struct.std::__1::__compressed_pair_elem.2" = type { i64 }
%"class.std::__1::__compressed_pair.4" = type { %"struct.std::__1::__compressed_pair_elem.5" }
%"struct.std::__1::__compressed_pair_elem.5" = type { %"struct.std::__1::__hash_node_base" }
%"class.std::__1::__compressed_pair.9" = type { %"struct.std::__1::__compressed_pair_elem.2" }
%"class.std::__1::__compressed_pair.11" = type { %"struct.std::__1::__compressed_pair_elem.12" }
%"struct.std::__1::__compressed_pair_elem.12" = type { float }
%"class.std::__1::set" = type { %"class.std::__1::__tree" }
%"class.std::__1::__tree" = type { %"class.std::__1::__tree_end_node"*, %"class.std::__1::__compressed_pair.172", %"class.std::__1::__compressed_pair.177" }
%"class.std::__1::__tree_end_node" = type { %"class.std::__1::__tree_node_base"* }
%"class.std::__1::__tree_node_base" = type <{ %"class.std::__1::__tree_end_node", %"class.std::__1::__tree_node_base"*, %"class.std::__1::__tree_end_node"*, i8, [7 x i8] }>
%"class.std::__1::__compressed_pair.172" = type { %"struct.std::__1::__compressed_pair_elem.173" }
%"struct.std::__1::__compressed_pair_elem.173" = type { %"class.std::__1::__tree_end_node" }
%"class.std::__1::__compressed_pair.177" = type { %"struct.std::__1::__compressed_pair_elem.2" }
%"class.std::__1::unordered_map.180" = type { %"class.std::__1::__hash_table.181" }
%"class.std::__1::__hash_table.181" = type <{ %"class.std::__1::unique_ptr.182", %"class.std::__1::__compressed_pair.192", %"class.std::__1::__compressed_pair.197", %"class.std::__1::__compressed_pair.200", [4 x i8] }>
%"class.std::__1::unique_ptr.182" = type { %"class.std::__1::__compressed_pair.183" }
%"class.std::__1::__compressed_pair.183" = type { %"struct.std::__1::__compressed_pair_elem.184", %"struct.std::__1::__compressed_pair_elem.186" }
%"struct.std::__1::__compressed_pair_elem.184" = type { %"struct.std::__1::__hash_node_base.185"** }
%"struct.std::__1::__hash_node_base.185" = type { %"struct.std::__1::__hash_node_base.185"* }
%"struct.std::__1::__compressed_pair_elem.186" = type { %"class.std::__1::__bucket_list_deallocator.187" }
%"class.std::__1::__bucket_list_deallocator.187" = type { %"class.std::__1::__compressed_pair.188" }
%"class.std::__1::__compressed_pair.188" = type { %"struct.std::__1::__compressed_pair_elem.2" }
%"class.std::__1::__compressed_pair.192" = type { %"struct.std::__1::__compressed_pair_elem.193" }
%"struct.std::__1::__compressed_pair_elem.193" = type { %"struct.std::__1::__hash_node_base.185" }
%"class.std::__1::__compressed_pair.197" = type { %"struct.std::__1::__compressed_pair_elem.2" }
%"class.std::__1::__compressed_pair.200" = type { %"struct.std::__1::__compressed_pair_elem.12" }
%"class.std::__1::vector.108" = type { %"class.std::__1::__vector_base.109" }
%"class.std::__1::__vector_base.109" = type { i32*, i32*, %"class.std::__1::__compressed_pair.110" }
%"class.std::__1::__compressed_pair.110" = type { %"struct.std::__1::__compressed_pair_elem.111" }
%"struct.std::__1::__compressed_pair_elem.111" = type { i32* }
%"class.std::__1::vector.645" = type { %"class.std::__1::__vector_base.646" }
%"class.std::__1::__vector_base.646" = type { %"struct.std::__1::pair.647"*, %"struct.std::__1::pair.647"*, %"class.std::__1::__compressed_pair.648" }
%"struct.std::__1::pair.647" = type { i32, i32 }
%"class.std::__1::__compressed_pair.648" = type { %"struct.std::__1::__compressed_pair_elem.649" }
%"struct.std::__1::__compressed_pair_elem.649" = type { %"struct.std::__1::pair.647"* }
%"class.std::__1::unordered_map.653" = type { %"class.std::__1::__hash_table.654" }
%"class.std::__1::__hash_table.654" = type <{ %"class.std::__1::unique_ptr.655", %"class.std::__1::__compressed_pair.665", %"class.std::__1::__compressed_pair.670", %"class.std::__1::__compressed_pair.673", [4 x i8] }>
%"class.std::__1::unique_ptr.655" = type { %"class.std::__1::__compressed_pair.656" }
%"class.std::__1::__compressed_pair.656" = type { %"struct.std::__1::__compressed_pair_elem.657", %"struct.std::__1::__compressed_pair_elem.659" }
%"struct.std::__1::__compressed_pair_elem.657" = type { %"struct.std::__1::__hash_node_base.658"** }
%"struct.std::__1::__hash_node_base.658" = type { %"struct.std::__1::__hash_node_base.658"* }
%"struct.std::__1::__compressed_pair_elem.659" = type { %"class.std::__1::__bucket_list_deallocator.660" }
%"class.std::__1::__bucket_list_deallocator.660" = type { %"class.std::__1::__compressed_pair.661" }
%"class.std::__1::__compressed_pair.661" = type { %"struct.std::__1::__compressed_pair_elem.2" }
%"class.std::__1::__compressed_pair.665" = type { %"struct.std::__1::__compressed_pair_elem.666" }
%"struct.std::__1::__compressed_pair_elem.666" = type { %"struct.std::__1::__hash_node_base.658" }
%"class.std::__1::__compressed_pair.670" = type { %"struct.std::__1::__compressed_pair_elem.2" }
%"class.std::__1::__compressed_pair.673" = type { %"struct.std::__1::__compressed_pair_elem.12" }
%"class.std::__1::unordered_map.245" = type { %"class.std::__1::__hash_table.246" }
%"class.std::__1::__hash_table.246" = type <{ %"class.std::__1::unique_ptr.247", %"class.std::__1::__compressed_pair.257", %"class.std::__1::__compressed_pair.262", %"class.std::__1::__compressed_pair.265", [4 x i8] }>
%"class.std::__1::unique_ptr.247" = type { %"class.std::__1::__compressed_pair.248" }
%"class.std::__1::__compressed_pair.248" = type { %"struct.std::__1::__compressed_pair_elem.249", %"struct.std::__1::__compressed_pair_elem.251" }
%"struct.std::__1::__compressed_pair_elem.249" = type { %"struct.std::__1::__hash_node_base.250"** }
%"struct.std::__1::__hash_node_base.250" = type { %"struct.std::__1::__hash_node_base.250"* }
%"struct.std::__1::__compressed_pair_elem.251" = type { %"class.std::__1::__bucket_list_deallocator.252" }
%"class.std::__1::__bucket_list_deallocator.252" = type { %"class.std::__1::__compressed_pair.253" }
%"class.std::__1::__compressed_pair.253" = type { %"struct.std::__1::__compressed_pair_elem.2" }
%"class.std::__1::__compressed_pair.257" = type { %"struct.std::__1::__compressed_pair_elem.258" }
%"struct.std::__1::__compressed_pair_elem.258" = type { %"struct.std::__1::__hash_node_base.250" }
%"class.std::__1::__compressed_pair.262" = type { %"struct.std::__1::__compressed_pair_elem.2" }
%"class.std::__1::__compressed_pair.265" = type { %"struct.std::__1::__compressed_pair_elem.12" }
%"class.std::__1::locale::id" = type <{ %"struct.std::__1::once_flag", i32, [4 x i8] }>
%"struct.std::__1::once_flag" = type { i64 }
%"struct.std::__1::piecewise_construct_t" = type { i8 }
%"struct.std::__1::basic_string<char, std::__1::char_traits<char>, std::__1::allocator<char> >::__short" = type { [23 x i8], %struct.anon }
%struct.anon = type { i8 }
%struct._debug_report_data = type <{ %"class.std::__1::vector", i32, i32, i8, i8, [6 x i8], %"class.std::__1::unordered_map.24", %"class.std::__1::unordered_map.24", %"class.std::__1::unordered_map.52", %"class.std::__1::unordered_map.80", %"class.std::__1::vector.108", %"class.std::__1::mutex", i32, [4 x i8], %"class.std::__1::unordered_map.115", i8*, i8, [7 x i8] }>
%"class.std::__1::vector" = type { %"class.std::__1::__vector_base" }
%"class.std::__1::__vector_base" = type { %struct.VkLayerDbgFunctionState*, %struct.VkLayerDbgFunctionState*, %"class.std::__1::__compressed_pair.19" }
%struct.VkLayerDbgFunctionState = type { i32, %struct.VkDebugReportCallbackEXT_T*, i32 (i32, i32, i64, i64, i32, i8*, i8*, i8*)*, i32, %struct.VkDebugUtilsMessengerEXT_T*, i32, i32, i32 (i32, i32, %struct.VkDebugUtilsMessengerCallbackDataEXT*, i8*)*, i8* }
%struct.VkDebugReportCallbackEXT_T = type opaque
%struct.VkDebugUtilsMessengerEXT_T = type opaque
%struct.VkDebugUtilsMessengerCallbackDataEXT = type { i32, i8*, i32, i8*, i32, i8*, i32, %struct.VkDebugUtilsLabelEXT*, i32, %struct.VkDebugUtilsLabelEXT*, i32, %struct.VkDebugUtilsObjectNameInfoEXT* }
%struct.VkDebugUtilsLabelEXT = type { i32, i8*, i8*, [4 x float] }
%struct.VkDebugUtilsObjectNameInfoEXT = type { i32, i8*, i32, i64, i8* }
%"class.std::__1::__compressed_pair.19" = type { %"struct.std::__1::__compressed_pair_elem.20" }
%"struct.std::__1::__compressed_pair_elem.20" = type { %struct.VkLayerDbgFunctionState* }
%"class.std::__1::unordered_map.24" = type { %"class.std::__1::__hash_table.25" }
%"class.std::__1::__hash_table.25" = type <{ %"class.std::__1::unique_ptr.26", %"class.std::__1::__compressed_pair.36", %"class.std::__1::__compressed_pair.41", %"class.std::__1::__compressed_pair.46", [4 x i8] }>
%"class.std::__1::unique_ptr.26" = type { %"class.std::__1::__compressed_pair.27" }
%"class.std::__1::__compressed_pair.27" = type { %"struct.std::__1::__compressed_pair_elem.28", %"struct.std::__1::__compressed_pair_elem.30" }
%"struct.std::__1::__compressed_pair_elem.28" = type { %"struct.std::__1::__hash_node_base.29"** }
%"struct.std::__1::__hash_node_base.29" = type { %"struct.std::__1::__hash_node_base.29"* }
%"struct.std::__1::__compressed_pair_elem.30" = type { %"class.std::__1::__bucket_list_deallocator.31" }
%"class.std::__1::__bucket_list_deallocator.31" = type { %"class.std::__1::__compressed_pair.32" }
%"class.std::__1::__compressed_pair.32" = type { %"struct.std::__1::__compressed_pair_elem.2" }
%"class.std::__1::__compressed_pair.36" = type { %"struct.std::__1::__compressed_pair_elem.37" }
%"struct.std::__1::__compressed_pair_elem.37" = type { %"struct.std::__1::__hash_node_base.29" }
%"class.std::__1::__compressed_pair.41" = type { %"struct.std::__1::__compressed_pair_elem.2" }
%"class.std::__1::__compressed_pair.46" = type { %"struct.std::__1::__compressed_pair_elem.12" }
%"class.std::__1::unordered_map.52" = type { %"class.std::__1::__hash_table.53" }
%"class.std::__1::__hash_table.53" = type <{ %"class.std::__1::unique_ptr.54", %"class.std::__1::__compressed_pair.64", %"class.std::__1::__compressed_pair.69", %"class.std::__1::__compressed_pair.74", [4 x i8] }>
%"class.std::__1::unique_ptr.54" = type { %"class.std::__1::__compressed_pair.55" }
%"class.std::__1::__compressed_pair.55" = type { %"struct.std::__1::__compressed_pair_elem.56", %"struct.std::__1::__compressed_pair_elem.58" }
%"struct.std::__1::__compressed_pair_elem.56" = type { %"struct.std::__1::__hash_node_base.57"** }
%"struct.std::__1::__hash_node_base.57" = type { %"struct.std::__1::__hash_node_base.57"* }
%"struct.std::__1::__compressed_pair_elem.58" = type { %"class.std::__1::__bucket_list_deallocator.59" }
%"class.std::__1::__bucket_list_deallocator.59" = type { %"class.std::__1::__compressed_pair.60" }
%"class.std::__1::__compressed_pair.60" = type { %"struct.std::__1::__compressed_pair_elem.2" }
%"class.std::__1::__compressed_pair.64" = type { %"struct.std::__1::__compressed_pair_elem.65" }
%"struct.std::__1::__compressed_pair_elem.65" = type { %"struct.std::__1::__hash_node_base.57" }
%"class.std::__1::__compressed_pair.69" = type { %"struct.std::__1::__compressed_pair_elem.2" }
%"class.std::__1::__compressed_pair.74" = type { %"struct.std::__1::__compressed_pair_elem.12" }
%"class.std::__1::unordered_map.80" = type { %"class.std::__1::__hash_table.81" }
%"class.std::__1::__hash_table.81" = type <{ %"class.std::__1::unique_ptr.82", %"class.std::__1::__compressed_pair.92", %"class.std::__1::__compressed_pair.97", %"class.std::__1::__compressed_pair.102", [4 x i8] }>
%"class.std::__1::unique_ptr.82" = type { %"class.std::__1::__compressed_pair.83" }
%"class.std::__1::__compressed_pair.83" = type { %"struct.std::__1::__compressed_pair_elem.84", %"struct.std::__1::__compressed_pair_elem.86" }
%"struct.std::__1::__compressed_pair_elem.84" = type { %"struct.std::__1::__hash_node_base.85"** }
%"struct.std::__1::__hash_node_base.85" = type { %"struct.std::__1::__hash_node_base.85"* }
%"struct.std::__1::__compressed_pair_elem.86" = type { %"class.std::__1::__bucket_list_deallocator.87" }
%"class.std::__1::__bucket_list_deallocator.87" = type { %"class.std::__1::__compressed_pair.88" }
%"class.std::__1::__compressed_pair.88" = type { %"struct.std::__1::__compressed_pair_elem.2" }
%"class.std::__1::__compressed_pair.92" = type { %"struct.std::__1::__compressed_pair_elem.93" }
%"struct.std::__1::__compressed_pair_elem.93" = type { %"struct.std::__1::__hash_node_base.85" }
%"class.std::__1::__compressed_pair.97" = type { %"struct.std::__1::__compressed_pair_elem.2" }
%"class.std::__1::__compressed_pair.102" = type { %"struct.std::__1::__compressed_pair_elem.12" }
%"class.std::__1::mutex" = type { %union.pthread_mutex_t }
%union.pthread_mutex_t = type { %struct.__pthread_mutex_s }
%struct.__pthread_mutex_s = type { i32, i32, i32, i32, i32, i16, i16, %struct.__pthread_internal_list }
%struct.__pthread_internal_list = type { %struct.__pthread_internal_list*, %struct.__pthread_internal_list* }
%"class.std::__1::unordered_map.115" = type { %"class.std::__1::__hash_table.116" }
%"class.std::__1::__hash_table.116" = type <{ %"class.std::__1::unique_ptr.117", %"class.std::__1::__compressed_pair.127", %"class.std::__1::__compressed_pair.132", %"class.std::__1::__compressed_pair.137", [4 x i8] }>
%"class.std::__1::unique_ptr.117" = type { %"class.std::__1::__compressed_pair.118" }
%"class.std::__1::__compressed_pair.118" = type { %"struct.std::__1::__compressed_pair_elem.119", %"struct.std::__1::__compressed_pair_elem.121" }
%"struct.std::__1::__compressed_pair_elem.119" = type { %"struct.std::__1::__hash_node_base.120"** }
%"struct.std::__1::__hash_node_base.120" = type { %"struct.std::__1::__hash_node_base.120"* }
%"struct.std::__1::__compressed_pair_elem.121" = type { %"class.std::__1::__bucket_list_deallocator.122" }
%"class.std::__1::__bucket_list_deallocator.122" = type { %"class.std::__1::__compressed_pair.123" }
%"class.std::__1::__compressed_pair.123" = type { %"struct.std::__1::__compressed_pair_elem.2" }
%"class.std::__1::__compressed_pair.127" = type { %"struct.std::__1::__compressed_pair_elem.128" }
%"struct.std::__1::__compressed_pair_elem.128" = type { %"struct.std::__1::__hash_node_base.120" }
%"class.std::__1::__compressed_pair.132" = type { %"struct.std::__1::__compressed_pair_elem.2" }
%"class.std::__1::__compressed_pair.137" = type { %"struct.std::__1::__compressed_pair_elem.12" }
%"class.std::__1::unordered_map.143" = type { %"class.std::__1::__hash_table.144" }
%"class.std::__1::__hash_table.144" = type <{ %"class.std::__1::unique_ptr.145", %"class.std::__1::__compressed_pair.155", %"class.std::__1::__compressed_pair.160", %"class.std::__1::__compressed_pair.165", [4 x i8] }>
%"class.std::__1::unique_ptr.145" = type { %"class.std::__1::__compressed_pair.146" }
%"class.std::__1::__compressed_pair.146" = type { %"struct.std::__1::__compressed_pair_elem.147", %"struct.std::__1::__compressed_pair_elem.149" }
%"struct.std::__1::__compressed_pair_elem.147" = type { %"struct.std::__1::__hash_node_base.148"** }
%"struct.std::__1::__hash_node_base.148" = type { %"struct.std::__1::__hash_node_base.148"* }
%"struct.std::__1::__compressed_pair_elem.149" = type { %"class.std::__1::__bucket_list_deallocator.150" }
%"class.std::__1::__bucket_list_deallocator.150" = type { %"class.std::__1::__compressed_pair.151" }
%"class.std::__1::__compressed_pair.151" = type { %"struct.std::__1::__compressed_pair_elem.2" }
%"class.std::__1::__compressed_pair.155" = type { %"struct.std::__1::__compressed_pair_elem.156" }
%"struct.std::__1::__compressed_pair_elem.156" = type { %"struct.std::__1::__hash_node_base.148" }
%"class.std::__1::__compressed_pair.160" = type { %"struct.std::__1::__compressed_pair_elem.2" }
%"class.std::__1::__compressed_pair.165" = type { %"struct.std::__1::__compressed_pair_elem.12" }
%"class.std::__1::tuple" = type { %"struct.std::__1::__tuple_impl" }
%"struct.std::__1::__tuple_impl" = type { %"class.std::__1::__tuple_leaf" }
%"class.std::__1::__tuple_leaf" = type { i8** }
%"class.std::__1::tuple.758" = type { i8 }
%"class.std::__1::__tree_node.771" = type { %"class.std::__1::__tree_node_base.base", %"class.std::__1::basic_string" }
%"class.std::__1::__tree_node_base.base" = type <{ %"class.std::__1::__tree_end_node", %"class.std::__1::__tree_node_base"*, %"class.std::__1::__tree_end_node"*, i8 }>
%"class.std::__1::basic_string" = type { %"class.std::__1::__compressed_pair.14" }
%"class.std::__1::__compressed_pair.14" = type { %"struct.std::__1::__compressed_pair_elem.15" }
%"struct.std::__1::__compressed_pair_elem.15" = type { %"struct.std::__1::basic_string<char, std::__1::char_traits<char>, std::__1::allocator<char> >::__rep" }
%"struct.std::__1::basic_string<char, std::__1::char_traits<char>, std::__1::allocator<char> >::__rep" = type { %union.anon }
%union.anon = type { %"struct.std::__1::basic_string<char, std::__1::char_traits<char>, std::__1::allocator<char> >::__long" }
%"struct.std::__1::basic_string<char, std::__1::char_traits<char>, std::__1::allocator<char> >::__long" = type { i8*, i64, i64 }
%"struct.std::__1::pair.205" = type { %"class.std::__1::basic_string", %"class.std::__1::basic_string" }
%"class.std::__1::__basic_string_common" = type { i8 }
%struct.decoration_set = type { i32, i32, i32, i32, i32, i32, i32 }
%struct.shader_struct_member = type { i32, i32, %"class.std::__1::vector.108", %"class.std::__1::vector.108", %"class.std::__1::vector.206", %struct.shader_struct_member*, %"class.std::__1::vector.213" }
%"class.std::__1::vector.206" = type { %"class.std::__1::__vector_base.207" }
%"class.std::__1::__vector_base.207" = type { %struct.shader_struct_member*, %struct.shader_struct_member*, %"class.std::__1::__compressed_pair.208" }
%"class.std::__1::__compressed_pair.208" = type { %"struct.std::__1::__compressed_pair_elem.209" }
%"struct.std::__1::__compressed_pair_elem.209" = type { %struct.shader_struct_member* }
%"class.std::__1::vector.213" = type { %"class.std::__1::__vector_base.214" }
%"class.std::__1::__vector_base.214" = type { i8*, i8*, %"class.std::__1::__compressed_pair.215" }
%"class.std::__1::__compressed_pair.215" = type { %"struct.std::__1::__compressed_pair_elem.216" }
%"struct.std::__1::__compressed_pair_elem.216" = type { i8* }
%"class.std::__1::unordered_set.354" = type { %"class.std::__1::__hash_table.355" }
%"class.std::__1::__hash_table.355" = type <{ %"class.std::__1::unique_ptr.356", %"class.std::__1::__compressed_pair.366", %"class.std::__1::__compressed_pair.371", %"class.std::__1::__compressed_pair.373", [4 x i8] }>
%"class.std::__1::unique_ptr.356" = type { %"class.std::__1::__compressed_pair.357" }
%"class.std::__1::__compressed_pair.357" = type { %"struct.std::__1::__compressed_pair_elem.358", %"struct.std::__1::__compressed_pair_elem.360" }
%"struct.std::__1::__compressed_pair_elem.358" = type { %"struct.std::__1::__hash_node_base.359"** }
%"struct.std::__1::__hash_node_base.359" = type { %"struct.std::__1::__hash_node_base.359"* }
%"struct.std::__1::__compressed_pair_elem.360" = type { %"class.std::__1::__bucket_list_deallocator.361" }
%"class.std::__1::__bucket_list_deallocator.361" = type { %"class.std::__1::__compressed_pair.362" }
%"class.std::__1::__compressed_pair.362" = type { %"struct.std::__1::__compressed_pair_elem.2" }
%"class.std::__1::__compressed_pair.366" = type { %"struct.std::__1::__compressed_pair_elem.367" }
%"struct.std::__1::__compressed_pair_elem.367" = type { %"struct.std::__1::__hash_node_base.359" }
%"class.std::__1::__compressed_pair.371" = type { %"struct.std::__1::__compressed_pair_elem.2" }
%"class.std::__1::__compressed_pair.373" = type { %"struct.std::__1::__compressed_pair_elem.12" }
%struct.SHADER_MODULE_STATE = type { %class.BASE_NODE, %"class.std::__1::vector.108", %"class.std::__1::unordered_map.245", %"class.std::__1::unordered_map.269", %"class.std::__1::vector.293", %"class.std::__1::vector.293", %"class.std::__1::unordered_map.300", %"class.std::__1::vector.324", %"class.std::__1::unordered_multimap", i8, i8, i8, i32 }
%class.BASE_NODE = type { i32 (...)**, %struct.VulkanTypedHandle, i8, [7 x i8], %"class.std::__1::unordered_set" }
%struct.VulkanTypedHandle = type { i64, i32, %class.BASE_NODE* }
%"class.std::__1::unordered_set" = type { %"class.std::__1::__hash_table.220" }
%"class.std::__1::__hash_table.220" = type <{ %"class.std::__1::unique_ptr.221", %"class.std::__1::__compressed_pair.231", %"class.std::__1::__compressed_pair.236", %"class.std::__1::__compressed_pair.240", [4 x i8] }>
%"class.std::__1::unique_ptr.221" = type { %"class.std::__1::__compressed_pair.222" }
%"class.std::__1::__compressed_pair.222" = type { %"struct.std::__1::__compressed_pair_elem.223", %"struct.std::__1::__compressed_pair_elem.225" }
%"struct.std::__1::__compressed_pair_elem.223" = type { %"struct.std::__1::__hash_node_base.224"** }
%"struct.std::__1::__hash_node_base.224" = type { %"struct.std::__1::__hash_node_base.224"* }
%"struct.std::__1::__compressed_pair_elem.225" = type { %"class.std::__1::__bucket_list_deallocator.226" }
%"class.std::__1::__bucket_list_deallocator.226" = type { %"class.std::__1::__compressed_pair.227" }
%"class.std::__1::__compressed_pair.227" = type { %"struct.std::__1::__compressed_pair_elem.2" }
%"class.std::__1::__compressed_pair.231" = type { %"struct.std::__1::__compressed_pair_elem.232" }
%"struct.std::__1::__compressed_pair_elem.232" = type { %"struct.std::__1::__hash_node_base.224" }
%"class.std::__1::__compressed_pair.236" = type { %"struct.std::__1::__compressed_pair_elem.2" }
%"class.std::__1::__compressed_pair.240" = type { %"struct.std::__1::__compressed_pair_elem.12" }
%"class.std::__1::unordered_map.269" = type { %"class.std::__1::__hash_table.270" }
%"class.std::__1::__hash_table.270" = type <{ %"class.std::__1::unique_ptr.271", %"class.std::__1::__compressed_pair.281", %"class.std::__1::__compressed_pair.286", %"class.std::__1::__compressed_pair.289", [4 x i8] }>
%"class.std::__1::unique_ptr.271" = type { %"class.std::__1::__compressed_pair.272" }
%"class.std::__1::__compressed_pair.272" = type { %"struct.std::__1::__compressed_pair_elem.273", %"struct.std::__1::__compressed_pair_elem.275" }
%"struct.std::__1::__compressed_pair_elem.273" = type { %"struct.std::__1::__hash_node_base.274"** }
%"struct.std::__1::__hash_node_base.274" = type { %"struct.std::__1::__hash_node_base.274"* }
%"struct.std::__1::__compressed_pair_elem.275" = type { %"class.std::__1::__bucket_list_deallocator.276" }
%"class.std::__1::__bucket_list_deallocator.276" = type { %"class.std::__1::__compressed_pair.277" }
%"class.std::__1::__compressed_pair.277" = type { %"struct.std::__1::__compressed_pair_elem.2" }
%"class.std::__1::__compressed_pair.281" = type { %"struct.std::__1::__compressed_pair_elem.282" }
%"struct.std::__1::__compressed_pair_elem.282" = type { %"struct.std::__1::__hash_node_base.274" }
%"class.std::__1::__compressed_pair.286" = type { %"struct.std::__1::__compressed_pair_elem.2" }
%"class.std::__1::__compressed_pair.289" = type { %"struct.std::__1::__compressed_pair_elem.12" }
%"class.std::__1::vector.293" = type { %"class.std::__1::__vector_base.294" }
%"class.std::__1::__vector_base.294" = type { %struct.spirv_inst_iter*, %struct.spirv_inst_iter*, %"class.std::__1::__compressed_pair.295" }
%struct.spirv_inst_iter = type { %"class.std::__1::__wrap_iter", %"class.std::__1::__wrap_iter" }
%"class.std::__1::__wrap_iter" = type { i32* }
%"class.std::__1::__compressed_pair.295" = type { %"struct.std::__1::__compressed_pair_elem.296" }
%"struct.std::__1::__compressed_pair_elem.296" = type { %struct.spirv_inst_iter* }
%"class.std::__1::unordered_map.300" = type { %"class.std::__1::__hash_table.301" }
%"class.std::__1::__hash_table.301" = type <{ %"class.std::__1::unique_ptr.302", %"class.std::__1::__compressed_pair.312", %"class.std::__1::__compressed_pair.317", %"class.std::__1::__compressed_pair.320", [4 x i8] }>
%"class.std::__1::unique_ptr.302" = type { %"class.std::__1::__compressed_pair.303" }
%"class.std::__1::__compressed_pair.303" = type { %"struct.std::__1::__compressed_pair_elem.304", %"struct.std::__1::__compressed_pair_elem.306" }
%"struct.std::__1::__compressed_pair_elem.304" = type { %"struct.std::__1::__hash_node_base.305"** }
%"struct.std::__1::__hash_node_base.305" = type { %"struct.std::__1::__hash_node_base.305"* }
%"struct.std::__1::__compressed_pair_elem.306" = type { %"class.std::__1::__bucket_list_deallocator.307" }
%"class.std::__1::__bucket_list_deallocator.307" = type { %"class.std::__1::__compressed_pair.308" }
%"class.std::__1::__compressed_pair.308" = type { %"struct.std::__1::__compressed_pair_elem.2" }
%"class.std::__1::__compressed_pair.312" = type { %"struct.std::__1::__compressed_pair_elem.313" }
%"struct.std::__1::__compressed_pair_elem.313" = type { %"struct.std::__1::__hash_node_base.305" }
%"class.std::__1::__compressed_pair.317" = type { %"struct.std::__1::__compressed_pair_elem.2" }
%"class.std::__1::__compressed_pair.320" = type { %"struct.std::__1::__compressed_pair_elem.12" }
%"class.std::__1::vector.324" = type { %"class.std::__1::__vector_base.325" }
%"class.std::__1::__vector_base.325" = type { %struct.builtin_set*, %struct.builtin_set*, %"class.std::__1::__compressed_pair.326" }
%struct.builtin_set = type { i32, i32 }
%"class.std::__1::__compressed_pair.326" = type { %"struct.std::__1::__compressed_pair_elem.327" }
%"struct.std::__1::__compressed_pair_elem.327" = type { %struct.builtin_set* }
%"class.std::__1::unordered_multimap" = type { %"class.std::__1::__hash_table.331" }
%"class.std::__1::__hash_table.331" = type <{ %"class.std::__1::unique_ptr.332", %"class.std::__1::__compressed_pair.342", %"class.std::__1::__compressed_pair.347", %"class.std::__1::__compressed_pair.350", [4 x i8] }>
%"class.std::__1::unique_ptr.332" = type { %"class.std::__1::__compressed_pair.333" }
%"class.std::__1::__compressed_pair.333" = type { %"struct.std::__1::__compressed_pair_elem.334", %"struct.std::__1::__compressed_pair_elem.336" }
%"struct.std::__1::__compressed_pair_elem.334" = type { %"struct.std::__1::__hash_node_base.335"** }
%"struct.std::__1::__hash_node_base.335" = type { %"struct.std::__1::__hash_node_base.335"* }
%"struct.std::__1::__compressed_pair_elem.336" = type { %"class.std::__1::__bucket_list_deallocator.337" }
%"class.std::__1::__bucket_list_deallocator.337" = type { %"class.std::__1::__compressed_pair.338" }
%"class.std::__1::__compressed_pair.338" = type { %"struct.std::__1::__compressed_pair_elem.2" }
%"class.std::__1::__compressed_pair.342" = type { %"struct.std::__1::__compressed_pair_elem.343" }
%"struct.std::__1::__compressed_pair_elem.343" = type { %"struct.std::__1::__hash_node_base.335" }
%"class.std::__1::__compressed_pair.347" = type { %"struct.std::__1::__compressed_pair_elem.2" }
%"class.std::__1::__compressed_pair.350" = type { %"struct.std::__1::__compressed_pair_elem.12" }
%"class.std::__1::unique_ptr.794" = type { %"class.std::__1::__compressed_pair.795" }
%"class.std::__1::__compressed_pair.795" = type { %"struct.std::__1::__compressed_pair_elem.796", %"struct.std::__1::__compressed_pair_elem.797" }
%"struct.std::__1::__compressed_pair_elem.796" = type { %"struct.std::__1::__hash_node.778"* }
%"struct.std::__1::__hash_node.778" = type <{ %"struct.std::__1::__hash_node_base.359", i64, i32, [4 x i8] }>
%"struct.std::__1::__compressed_pair_elem.797" = type { %"class.std::__1::__hash_node_destructor.798" }
%"class.std::__1::__hash_node_destructor.798" = type <{ %"class.std::__1::allocator.369"*, i8, [7 x i8] }>
%"class.std::__1::allocator.369" = type { i8 }
%"struct.std::__1::pair.635" = type { i32, i32 }
%class.PIPELINE_STATE = type { %class.BASE_NODE, %struct.safe_VkGraphicsPipelineCreateInfo, %struct.safe_VkComputePipelineCreateInfo, %class.safe_VkRayTracingPipelineCreateInfoCommon, %"class.std::__1::shared_ptr", i32, i32, %"class.std::__1::unordered_map.456", i32, %"class.std::__1::vector.480", %"class.std::__1::unordered_set.354", %"class.std::__1::vector.496", %"class.std::__1::vector.503", %"class.std::__1::vector.510", %"class.std::__1::unordered_map.245", %"class.std::__1::vector.514", %"class.std::__1::unordered_set.521", i8, %"class.std::__1::shared_ptr.545", i32, i32 }
%struct.safe_VkGraphicsPipelineCreateInfo = type <{ i32, [4 x i8], i8*, i32, i32, %struct.safe_VkPipelineShaderStageCreateInfo*, %struct.safe_VkPipelineVertexInputStateCreateInfo*, %struct.safe_VkPipelineInputAssemblyStateCreateInfo*, %struct.safe_VkPipelineTessellationStateCreateInfo*, %struct.safe_VkPipelineViewportStateCreateInfo*, %struct.safe_VkPipelineRasterizationStateCreateInfo*, %struct.safe_VkPipelineMultisampleStateCreateInfo*, %struct.safe_VkPipelineDepthStencilStateCreateInfo*, %struct.safe_VkPipelineColorBlendStateCreateInfo*, %struct.safe_VkPipelineDynamicStateCreateInfo*, %struct.VkPipelineLayout_T*, %struct.VkRenderPass_T*, i32, [4 x i8], %struct.VkPipeline_T*, i32, [4 x i8] }>
%struct.safe_VkPipelineShaderStageCreateInfo = type { i32, i8*, i32, i32, %struct.VkShaderModule_T*, i8*, %struct.safe_VkSpecializationInfo* }
%struct.VkShaderModule_T = type opaque
%struct.safe_VkSpecializationInfo = type { i32, %struct.VkSpecializationMapEntry*, i64, i8* }
%struct.VkSpecializationMapEntry = type { i32, i32, i64 }
%struct.safe_VkPipelineVertexInputStateCreateInfo = type { i32, i8*, i32, i32, %struct.VkVertexInputBindingDescription*, i32, %struct.VkVertexInputAttributeDescription* }
%struct.VkVertexInputBindingDescription = type { i32, i32, i32 }
%struct.VkVertexInputAttributeDescription = type { i32, i32, i32, i32 }
%struct.safe_VkPipelineInputAssemblyStateCreateInfo = type <{ i32, [4 x i8], i8*, i32, i32, i32, [4 x i8] }>
%struct.safe_VkPipelineTessellationStateCreateInfo = type { i32, i8*, i32, i32 }
%struct.safe_VkPipelineViewportStateCreateInfo = type { i32, i8*, i32, i32, %struct.VkViewport*, i32, %struct.VkRect2D* }
%struct.VkViewport = type { float, float, float, float, float, float }
%struct.VkRect2D = type { %struct.VkOffset2D, %struct.VkExtent2D }
%struct.VkOffset2D = type { i32, i32 }
%struct.VkExtent2D = type { i32, i32 }
%struct.safe_VkPipelineRasterizationStateCreateInfo = type <{ i32, [4 x i8], i8*, i32, i32, i32, i32, i32, i32, i32, float, float, float, float, [4 x i8] }>
%struct.safe_VkPipelineMultisampleStateCreateInfo = type { i32, i8*, i32, i32, i32, float, i32*, i32, i32 }
%struct.safe_VkPipelineDepthStencilStateCreateInfo = type { i32, i8*, i32, i32, i32, i32, i32, i32, %struct.VkStencilOpState, %struct.VkStencilOpState, float, float }
%struct.VkStencilOpState = type { i32, i32, i32, i32, i32, i32, i32 }
%struct.safe_VkPipelineColorBlendStateCreateInfo = type { i32, i8*, i32, i32, i32, i32, %struct.VkPipelineColorBlendAttachmentState*, [4 x float] }
%struct.VkPipelineColorBlendAttachmentState = type { i32, i32, i32, i32, i32, i32, i32, i32 }
%struct.safe_VkPipelineDynamicStateCreateInfo = type { i32, i8*, i32, i32, i32* }
%struct.VkPipelineLayout_T = type opaque
%struct.VkRenderPass_T = type opaque
%struct.VkPipeline_T = type opaque
%struct.safe_VkComputePipelineCreateInfo = type <{ i32, [4 x i8], i8*, i32, [4 x i8], %struct.safe_VkPipelineShaderStageCreateInfo, %struct.VkPipelineLayout_T*, %struct.VkPipeline_T*, i32, [4 x i8] }>
%class.safe_VkRayTracingPipelineCreateInfoCommon = type { %struct.safe_VkRayTracingPipelineCreateInfoKHR.base, i32 }
%struct.safe_VkRayTracingPipelineCreateInfoKHR.base = type <{ i32, [4 x i8], i8*, i32, i32, %struct.safe_VkPipelineShaderStageCreateInfo*, i32, [4 x i8], %struct.safe_VkRayTracingShaderGroupCreateInfoKHR*, i32, [4 x i8], %struct.safe_VkPipelineLibraryCreateInfoKHR*, %struct.safe_VkRayTracingPipelineInterfaceCreateInfoKHR*, %struct.safe_VkPipelineDynamicStateCreateInfo*, %struct.VkPipelineLayout_T*, %struct.VkPipeline_T*, i32 }>
%struct.safe_VkRayTracingShaderGroupCreateInfoKHR = type { i32, i8*, i32, i32, i32, i32, i32, i8* }
%struct.safe_VkPipelineLibraryCreateInfoKHR = type { i32, i8*, i32, %struct.VkPipeline_T** }
%struct.safe_VkRayTracingPipelineInterfaceCreateInfoKHR = type { i32, i8*, i32, i32 }
%"class.std::__1::shared_ptr" = type { %struct.RENDER_PASS_STATE*, %"class.std::__1::__shared_weak_count"* }
%struct.RENDER_PASS_STATE = type { %class.BASE_NODE, %struct.safe_VkRenderPassCreateInfo2, %"class.std::__1::vector.378", %"class.std::__1::vector.385", %"class.std::__1::unordered_map.392", %"class.std::__1::vector.108", %"class.std::__1::vector.108", %"class.std::__1::vector.416", %"class.std::__1::vector.421", %"class.std::__1::vector.448" }
%struct.safe_VkRenderPassCreateInfo2 = type { i32, i8*, i32, i32, %struct.safe_VkAttachmentDescription2*, i32, %struct.safe_VkSubpassDescription2*, i32, %struct.safe_VkSubpassDependency2*, i32, i32* }
%struct.safe_VkAttachmentDescription2 = type <{ i32, [4 x i8], i8*, i32, i32, i32, i32, i32, i32, i32, i32, i32, [4 x i8] }>
%struct.safe_VkSubpassDescription2 = type { i32, i8*, i32, i32, i32, i32, %struct.safe_VkAttachmentReference2*, i32, %struct.safe_VkAttachmentReference2*, %struct.safe_VkAttachmentReference2*, %struct.safe_VkAttachmentReference2*, i32, i32* }
%struct.safe_VkAttachmentReference2 = type <{ i32, [4 x i8], i8*, i32, i32, i32, [4 x i8] }>
%struct.safe_VkSubpassDependency2 = type { i32, i8*, i32, i32, i32, i32, i32, i32, i32, i32 }
%"class.std::__1::vector.378" = type { %"class.std::__1::__vector_base.379" }
%"class.std::__1::__vector_base.379" = type { %"class.std::__1::vector.108"*, %"class.std::__1::vector.108"*, %"class.std::__1::__compressed_pair.380" }
%"class.std::__1::__compressed_pair.380" = type { %"struct.std::__1::__compressed_pair_elem.381" }
%"struct.std::__1::__compressed_pair_elem.381" = type { %"class.std::__1::vector.108"* }
%"class.std::__1::vector.385" = type { %"class.std::__1::__vector_base.386" }
%"class.std::__1::__vector_base.386" = type { %struct.DAGNode*, %struct.DAGNode*, %"class.std::__1::__compressed_pair.387" }
%struct.DAGNode = type { i32, %"class.std::__1::vector.108", %"class.std::__1::vector.108" }
%"class.std::__1::__compressed_pair.387" = type { %"struct.std::__1::__compressed_pair_elem.388" }
%"struct.std::__1::__compressed_pair_elem.388" = type { %struct.DAGNode* }
%"class.std::__1::unordered_map.392" = type { %"class.std::__1::__hash_table.393" }
%"class.std::__1::__hash_table.393" = type <{ %"class.std::__1::unique_ptr.394", %"class.std::__1::__compressed_pair.404", %"class.std::__1::__compressed_pair.409", %"class.std::__1::__compressed_pair.412", [4 x i8] }>
%"class.std::__1::unique_ptr.394" = type { %"class.std::__1::__compressed_pair.395" }
%"class.std::__1::__compressed_pair.395" = type { %"struct.std::__1::__compressed_pair_elem.396", %"struct.std::__1::__compressed_pair_elem.398" }
%"struct.std::__1::__compressed_pair_elem.396" = type { %"struct.std::__1::__hash_node_base.397"** }
%"struct.std::__1::__hash_node_base.397" = type { %"struct.std::__1::__hash_node_base.397"* }
%"struct.std::__1::__compressed_pair_elem.398" = type { %"class.std::__1::__bucket_list_deallocator.399" }
%"class.std::__1::__bucket_list_deallocator.399" = type { %"class.std::__1::__compressed_pair.400" }
%"class.std::__1::__compressed_pair.400" = type { %"struct.std::__1::__compressed_pair_elem.2" }
%"class.std::__1::__compressed_pair.404" = type { %"struct.std::__1::__compressed_pair_elem.405" }
%"struct.std::__1::__compressed_pair_elem.405" = type { %"struct.std::__1::__hash_node_base.397" }
%"class.std::__1::__compressed_pair.409" = type { %"struct.std::__1::__compressed_pair_elem.2" }
%"class.std::__1::__compressed_pair.412" = type { %"struct.std::__1::__compressed_pair_elem.12" }
%"class.std::__1::vector.416" = type { i64*, i64, %"class.std::__1::__compressed_pair.417" }
%"class.std::__1::__compressed_pair.417" = type { %"struct.std::__1::__compressed_pair_elem.2" }
%"class.std::__1::vector.421" = type { %"class.std::__1::__vector_base.422" }
%"class.std::__1::__vector_base.422" = type { %struct.SubpassDependencyGraphNode*, %struct.SubpassDependencyGraphNode*, %"class.std::__1::__compressed_pair.443" }
%struct.SubpassDependencyGraphNode = type { i32, %"class.std::__1::map", %"class.std::__1::map", %"class.std::__1::vector.108", %"class.std::__1::vector.432", %"class.std::__1::vector.432", %"class.std::__1::unique_ptr.439", %"class.std::__1::unique_ptr.439" }
%"class.std::__1::map" = type { %"class.std::__1::__tree.423" }
%"class.std::__1::__tree.423" = type { %"class.std::__1::__tree_end_node"*, %"class.std::__1::__compressed_pair.424", %"class.std::__1::__compressed_pair.428" }
%"class.std::__1::__compressed_pair.424" = type { %"struct.std::__1::__compressed_pair_elem.173" }
%"class.std::__1::__compressed_pair.428" = type { %"struct.std::__1::__compressed_pair_elem.2" }
%"class.std::__1::vector.432" = type { %"class.std::__1::__vector_base.433" }
%"class.std::__1::__vector_base.433" = type { %struct.VkSubpassDependency2**, %struct.VkSubpassDependency2**, %"class.std::__1::__compressed_pair.434" }
%struct.VkSubpassDependency2 = type { i32, i8*, i32, i32, i32, i32, i32, i32, i32, i32 }
%"class.std::__1::__compressed_pair.434" = type { %"struct.std::__1::__compressed_pair_elem.435" }
%"struct.std::__1::__compressed_pair_elem.435" = type { %struct.VkSubpassDependency2** }
%"class.std::__1::unique_ptr.439" = type { %"class.std::__1::__compressed_pair.440" }
%"class.std::__1::__compressed_pair.440" = type { %"struct.std::__1::__compressed_pair_elem.441" }
%"struct.std::__1::__compressed_pair_elem.441" = type { %struct.VkSubpassDependency2* }
%"class.std::__1::__compressed_pair.443" = type { %"struct.std::__1::__compressed_pair_elem.444" }
%"struct.std::__1::__compressed_pair_elem.444" = type { %struct.SubpassDependencyGraphNode* }
%"class.std::__1::vector.448" = type { %"class.std::__1::__vector_base.449" }
%"class.std::__1::__vector_base.449" = type { %"class.std::__1::vector.450"*, %"class.std::__1::vector.450"*, %"class.std::__1::__compressed_pair.451" }
%"class.std::__1::vector.450" = type { %"class.std::__1::__vector_base.706" }
%"class.std::__1::__vector_base.706" = type { %"struct.RENDER_PASS_STATE::AttachmentTransition"*, %"struct.RENDER_PASS_STATE::AttachmentTransition"*, %"class.std::__1::__compressed_pair.707" }
%"struct.RENDER_PASS_STATE::AttachmentTransition" = type { i32, i32, i32, i32 }
%"class.std::__1::__compressed_pair.707" = type { %"struct.std::__1::__compressed_pair_elem.708" }
%"struct.std::__1::__compressed_pair_elem.708" = type { %"struct.RENDER_PASS_STATE::AttachmentTransition"* }
%"class.std::__1::__compressed_pair.451" = type { %"struct.std::__1::__compressed_pair_elem.452" }
%"struct.std::__1::__compressed_pair_elem.452" = type { %"class.std::__1::vector.450"* }
%"class.std::__1::__shared_weak_count" = type { %"class.std::__1::__shared_count", i64 }
%"class.std::__1::__shared_count" = type { i32 (...)**, i64 }
%"class.std::__1::unordered_map.456" = type { %"class.std::__1::__hash_table.457" }
%"class.std::__1::__hash_table.457" = type <{ %"class.std::__1::unique_ptr.458", %"class.std::__1::__compressed_pair.468", %"class.std::__1::__compressed_pair.473", %"class.std::__1::__compressed_pair.476", [4 x i8] }>
%"class.std::__1::unique_ptr.458" = type { %"class.std::__1::__compressed_pair.459" }
%"class.std::__1::__compressed_pair.459" = type { %"struct.std::__1::__compressed_pair_elem.460", %"struct.std::__1::__compressed_pair_elem.462" }
%"struct.std::__1::__compressed_pair_elem.460" = type { %"struct.std::__1::__hash_node_base.461"** }
%"struct.std::__1::__hash_node_base.461" = type { %"struct.std::__1::__hash_node_base.461"* }
%"struct.std::__1::__compressed_pair_elem.462" = type { %"class.std::__1::__bucket_list_deallocator.463" }
%"class.std::__1::__bucket_list_deallocator.463" = type { %"class.std::__1::__compressed_pair.464" }
%"class.std::__1::__compressed_pair.464" = type { %"struct.std::__1::__compressed_pair_elem.2" }
%"class.std::__1::__compressed_pair.468" = type { %"struct.std::__1::__compressed_pair_elem.469" }
%"struct.std::__1::__compressed_pair_elem.469" = type { %"struct.std::__1::__hash_node_base.461" }
%"class.std::__1::__compressed_pair.473" = type { %"struct.std::__1::__compressed_pair_elem.2" }
%"class.std::__1::__compressed_pair.476" = type { %"struct.std::__1::__compressed_pair_elem.12" }
%"class.std::__1::vector.480" = type { %"class.std::__1::__vector_base.481" }
%"class.std::__1::__vector_base.481" = type { %"struct.PIPELINE_STATE::StageState"*, %"struct.PIPELINE_STATE::StageState"*, %"class.std::__1::__compressed_pair.491" }
%"struct.PIPELINE_STATE::StageState" = type { %"class.std::__1::unordered_set.354", %"class.std::__1::vector.482", i8, i8, i32, %"class.std::__1::basic_string", %"class.std::__1::shared_ptr.490" }
%"class.std::__1::vector.482" = type { %"class.std::__1::__vector_base.483" }
%"class.std::__1::__vector_base.483" = type { %"struct.std::__1::pair.484"*, %"struct.std::__1::pair.484"*, %"class.std::__1::__compressed_pair.485" }
%"struct.std::__1::pair.484" = type { %"struct.std::__1::pair.647", %struct.interface_var }
%struct.interface_var = type <{ i32, i32, i32, [4 x i8], %"class.std::__1::vector.623", i8, i8, i8, i8, i8, i8, i8, i8 }>
%"class.std::__1::vector.623" = type { %"class.std::__1::__vector_base.624" }
%"class.std::__1::__vector_base.624" = type { %"class.std::__1::set.625"*, %"class.std::__1::set.625"*, %"class.std::__1::__compressed_pair.626" }
%"class.std::__1::set.625" = type { %"class.std::__1::__tree.637" }
%"class.std::__1::__tree.637" = type { %"class.std::__1::__tree_end_node"*, %"class.std::__1::__compressed_pair.638", %"class.std::__1::__compressed_pair.642" }
%"class.std::__1::__compressed_pair.638" = type { %"struct.std::__1::__compressed_pair_elem.173" }
%"class.std::__1::__compressed_pair.642" = type { %"struct.std::__1::__compressed_pair_elem.2" }
%"class.std::__1::__compressed_pair.626" = type { %"struct.std::__1::__compressed_pair_elem.627" }
%"struct.std::__1::__compressed_pair_elem.627" = type { %"class.std::__1::set.625"* }
%"class.std::__1::__compressed_pair.485" = type { %"struct.std::__1::__compressed_pair_elem.486" }
%"struct.std::__1::__compressed_pair_elem.486" = type { %"struct.std::__1::pair.484"* }
%"class.std::__1::shared_ptr.490" = type { %struct.SHADER_MODULE_STATE*, %"class.std::__1::__shared_weak_count"* }
%"class.std::__1::__compressed_pair.491" = type { %"struct.std::__1::__compressed_pair_elem.492" }
%"struct.std::__1::__compressed_pair_elem.492" = type { %"struct.PIPELINE_STATE::StageState"* }
%"class.std::__1::vector.496" = type { %"class.std::__1::__vector_base.497" }
%"class.std::__1::__vector_base.497" = type { %struct.VkVertexInputBindingDescription*, %struct.VkVertexInputBindingDescription*, %"class.std::__1::__compressed_pair.498" }
%"class.std::__1::__compressed_pair.498" = type { %"struct.std::__1::__compressed_pair_elem.499" }
%"struct.std::__1::__compressed_pair_elem.499" = type { %struct.VkVertexInputBindingDescription* }
%"class.std::__1::vector.503" = type { %"class.std::__1::__vector_base.504" }
%"class.std::__1::__vector_base.504" = type { %struct.VkVertexInputAttributeDescription*, %struct.VkVertexInputAttributeDescription*, %"class.std::__1::__compressed_pair.505" }
%"class.std::__1::__compressed_pair.505" = type { %"struct.std::__1::__compressed_pair_elem.506" }
%"struct.std::__1::__compressed_pair_elem.506" = type { %struct.VkVertexInputAttributeDescription* }
%"class.std::__1::vector.510" = type { %"class.std::__1::__vector_base.511" }
%"class.std::__1::__vector_base.511" = type { i64*, i64*, %"class.std::__1::__compressed_pair.512" }
%"class.std::__1::__compressed_pair.512" = type { %"struct.std::__1::__compressed_pair_elem.513" }
%"struct.std::__1::__compressed_pair_elem.513" = type { i64* }
%"class.std::__1::vector.514" = type { %"class.std::__1::__vector_base.515" }
%"class.std::__1::__vector_base.515" = type { %struct.VkPipelineColorBlendAttachmentState*, %struct.VkPipelineColorBlendAttachmentState*, %"class.std::__1::__compressed_pair.516" }
%"class.std::__1::__compressed_pair.516" = type { %"struct.std::__1::__compressed_pair_elem.517" }
%"struct.std::__1::__compressed_pair_elem.517" = type { %struct.VkPipelineColorBlendAttachmentState* }
%"class.std::__1::unordered_set.521" = type { %"class.std::__1::__hash_table.522" }
%"class.std::__1::__hash_table.522" = type <{ %"class.std::__1::unique_ptr.523", %"class.std::__1::__compressed_pair.533", %"class.std::__1::__compressed_pair.538", %"class.std::__1::__compressed_pair.540", [4 x i8] }>
%"class.std::__1::unique_ptr.523" = type { %"class.std::__1::__compressed_pair.524" }
%"class.std::__1::__compressed_pair.524" = type { %"struct.std::__1::__compressed_pair_elem.525", %"struct.std::__1::__compressed_pair_elem.527" }
%"struct.std::__1::__compressed_pair_elem.525" = type { %"struct.std::__1::__hash_node_base.526"** }
%"struct.std::__1::__hash_node_base.526" = type { %"struct.std::__1::__hash_node_base.526"* }
%"struct.std::__1::__compressed_pair_elem.527" = type { %"class.std::__1::__bucket_list_deallocator.528" }
%"class.std::__1::__bucket_list_deallocator.528" = type { %"class.std::__1::__compressed_pair.529" }
%"class.std::__1::__compressed_pair.529" = type { %"struct.std::__1::__compressed_pair_elem.2" }
%"class.std::__1::__compressed_pair.533" = type { %"struct.std::__1::__compressed_pair_elem.534" }
%"struct.std::__1::__compressed_pair_elem.534" = type { %"struct.std::__1::__hash_node_base.526" }
%"class.std::__1::__compressed_pair.538" = type { %"struct.std::__1::__compressed_pair_elem.2" }
%"class.std::__1::__compressed_pair.540" = type { %"struct.std::__1::__compressed_pair_elem.12" }
%"class.std::__1::shared_ptr.545" = type { %struct.PIPELINE_LAYOUT_STATE*, %"class.std::__1::__shared_weak_count"* }
%struct.PIPELINE_LAYOUT_STATE = type { %class.BASE_NODE, %"class.std::__1::vector.546", %"class.std::__1::shared_ptr.578", %"class.std::__1::vector.580" }
%"class.std::__1::vector.546" = type { %"class.std::__1::__vector_base.547" }
%"class.std::__1::__vector_base.547" = type { %"class.std::__1::shared_ptr.548"*, %"class.std::__1::shared_ptr.548"*, %"class.std::__1::__compressed_pair.573" }
%"class.std::__1::shared_ptr.548" = type { %"class.cvdescriptorset::DescriptorSetLayout"*, %"class.std::__1::__shared_weak_count"* }
%"class.cvdescriptorset::DescriptorSetLayout" = type { %class.BASE_NODE, %"class.std::__1::shared_ptr.549" }
%"class.std::__1::shared_ptr.549" = type { %"class.cvdescriptorset::DescriptorSetLayoutDef"*, %"class.std::__1::__shared_weak_count"* }
%"class.cvdescriptorset::DescriptorSetLayoutDef" = type <{ i32, [4 x i8], %"class.std::__1::vector.550", %"class.std::__1::vector.108", %"class.std::__1::set.557", %"class.std::__1::unordered_map.245", %"class.std::__1::vector.566", i32, i32, i32, %"struct.cvdescriptorset::DescriptorSetLayoutDef::BindingTypeStats", [4 x i8] }>
%"class.std::__1::vector.550" = type { %"class.std::__1::__vector_base.551" }
%"class.std::__1::__vector_base.551" = type { %struct.safe_VkDescriptorSetLayoutBinding*, %struct.safe_VkDescriptorSetLayoutBinding*, %"class.std::__1::__compressed_pair.552" }
%struct.safe_VkDescriptorSetLayoutBinding = type { i32, i32, i32, i32, %struct.VkSampler_T** }
%struct.VkSampler_T = type opaque
%"class.std::__1::__compressed_pair.552" = type { %"struct.std::__1::__compressed_pair_elem.553" }
%"struct.std::__1::__compressed_pair_elem.553" = type { %struct.safe_VkDescriptorSetLayoutBinding* }
%"class.std::__1::set.557" = type { %"class.std::__1::__tree.558" }
%"class.std::__1::__tree.558" = type { %"class.std::__1::__tree_end_node"*, %"class.std::__1::__compressed_pair.559", %"class.std::__1::__compressed_pair.563" }
%"class.std::__1::__compressed_pair.559" = type { %"struct.std::__1::__compressed_pair_elem.173" }
%"class.std::__1::__compressed_pair.563" = type { %"struct.std::__1::__compressed_pair_elem.2" }
%"class.std::__1::vector.566" = type { %"class.std::__1::__vector_base.567" }
%"class.std::__1::__vector_base.567" = type { %"struct.cvdescriptorset::IndexRange"*, %"struct.cvdescriptorset::IndexRange"*, %"class.std::__1::__compressed_pair.568" }
%"struct.cvdescriptorset::IndexRange" = type { i32, i32 }
%"class.std::__1::__compressed_pair.568" = type { %"struct.std::__1::__compressed_pair_elem.569" }
%"struct.std::__1::__compressed_pair_elem.569" = type { %"struct.cvdescriptorset::IndexRange"* }
%"struct.cvdescriptorset::DescriptorSetLayoutDef::BindingTypeStats" = type { i32, i32 }
%"class.std::__1::__compressed_pair.573" = type { %"struct.std::__1::__compressed_pair_elem.574" }
%"struct.std::__1::__compressed_pair_elem.574" = type { %"class.std::__1::shared_ptr.548"* }
%"class.std::__1::shared_ptr.578" = type { %"class.std::__1::vector.579"*, %"class.std::__1::__shared_weak_count"* }
%"class.std::__1::vector.579" = type opaque
%"class.std::__1::vector.580" = type { %"class.std::__1::__vector_base.581" }
%"class.std::__1::__vector_base.581" = type { %"class.std::__1::shared_ptr.582"*, %"class.std::__1::shared_ptr.582"*, %"class.std::__1::__compressed_pair.585" }
%"class.std::__1::shared_ptr.582" = type { %struct.PipelineLayoutCompatDef*, %"class.std::__1::__shared_weak_count"* }
%struct.PipelineLayoutCompatDef = type { i32, %"class.std::__1::shared_ptr.578", %"class.std::__1::shared_ptr.583" }
%"class.std::__1::shared_ptr.583" = type { %"class.std::__1::vector.584"*, %"class.std::__1::__shared_weak_count"* }
%"class.std::__1::vector.584" = type opaque
%"class.std::__1::__compressed_pair.585" = type { %"struct.std::__1::__compressed_pair_elem.586" }
%"struct.std::__1::__compressed_pair_elem.586" = type { %"class.std::__1::shared_ptr.582"* }
%"class.std::__1::tuple.810" = type { %"struct.std::__1::__tuple_impl.811" }
%"struct.std::__1::__tuple_impl.811" = type { %"class.std::__1::__tuple_leaf.812" }
%"class.std::__1::__tuple_leaf.812" = type { i32* }
%struct.function_set = type { i32, i32, i32, [4 x i8], %"class.std::__1::unordered_multimap.593" }
%"class.std::__1::unordered_multimap.593" = type { %"class.std::__1::__hash_table.246" }
%"struct.SHADER_MODULE_STATE::EntryPoint" = type { i32, i32, %"class.std::__1::unordered_multimap.593", %"class.std::__1::vector.594", %struct.shader_struct_member }
%"class.std::__1::vector.594" = type { %"class.std::__1::__vector_base.595" }
%"class.std::__1::__vector_base.595" = type { %struct.function_set*, %struct.function_set*, %"class.std::__1::__compressed_pair.596" }
%"class.std::__1::__compressed_pair.596" = type { %"struct.std::__1::__compressed_pair_elem.597" }
%"struct.std::__1::__compressed_pair_elem.597" = type { %struct.function_set* }
%"struct.std::__1::__hash_node" = type { %"struct.std::__1::__hash_node_base.250", i64, %"struct.std::__1::__hash_value_type" }
%"struct.std::__1::__hash_value_type" = type { %"struct.std::__1::pair.635" }
%"struct.std::__1::pair.732" = type { i32, %struct.decoration_set }
%"class.std::__1::__vector_base_common" = type { i8 }
%"struct.std::__1::__hash_node.832" = type { %"struct.std::__1::__hash_node_base.335", i64, %"struct.std::__1::__hash_value_type.833" }
%"struct.std::__1::__hash_value_type.833" = type { %"struct.std::__1::pair.606" }
%"struct.std::__1::pair.606" = type { %"class.std::__1::basic_string", %"struct.SHADER_MODULE_STATE::EntryPoint" }
%"class.std::__1::allocator.211" = type { i8 }
%"class.spvtools::Optimizer" = type { %"class.std::__1::unique_ptr.608" }
%"class.std::__1::unique_ptr.608" = type { %"class.std::__1::__compressed_pair.609" }
%"class.std::__1::__compressed_pair.609" = type { %"struct.std::__1::__compressed_pair_elem.610" }
%"struct.std::__1::__compressed_pair_elem.610" = type { %"struct.spvtools::Optimizer::Impl"* }
%"struct.spvtools::Optimizer::Impl" = type opaque
%"struct.spvtools::Optimizer::PassToken" = type { %"class.std::__1::unique_ptr.614" }
%"class.std::__1::unique_ptr.614" = type { %"class.std::__1::__compressed_pair.615" }
%"class.std::__1::__compressed_pair.615" = type { %"struct.std::__1::__compressed_pair_elem.616" }
%"struct.std::__1::__compressed_pair_elem.616" = type { %"struct.spvtools::Optimizer::PassToken::Impl"* }
%"struct.spvtools::Optimizer::PassToken::Impl" = type opaque
%"class.spvtools::ValidatorOptions" = type { %struct.spv_validator_options_t* }
%struct.spv_validator_options_t = type opaque
%"class.std::__1::basic_ostringstream" = type { %"class.std::__1::basic_ostream.base", %"class.std::__1::basic_stringbuf", %"class.std::__1::basic_ios.base" }
%"class.std::__1::basic_ostream.base" = type { i32 (...)** }
%"class.std::__1::basic_stringbuf" = type <{ %"class.std::__1::basic_streambuf", %"class.std::__1::basic_string", i8*, i32, [4 x i8] }>
%"class.std::__1::basic_streambuf" = type { i32 (...)**, %"class.std::__1::locale", i8*, i8*, i8*, i8*, i8*, i8* }
%"class.std::__1::locale" = type { %"class.std::__1::locale::__imp"* }
%"class.std::__1::locale::__imp" = type opaque
%"class.std::__1::basic_ios.base" = type <{ %"class.std::__1::ios_base", %"class.std::__1::basic_ostream"*, i32 }>
%"class.std::__1::ios_base" = type { i32 (...)**, i32, i64, i64, i32, i32, i8*, i8*, void (i32, %"class.std::__1::ios_base"*, i32)**, i32*, i64, i64, i64*, i64, i64, i8**, i64, i64 }
%"class.std::__1::basic_ostream" = type { i32 (...)**, %"class.std::__1::basic_ios.base" }
%"class.std::__1::basic_ios" = type <{ %"class.std::__1::ios_base", %"class.std::__1::basic_ostream"*, i32, [4 x i8] }>
%struct.shader_module_used_operators = type { i8, %"class.std::__1::vector.108", %"class.std::__1::vector.108", %"class.std::__1::vector.108", %"class.std::__1::vector.108", %"class.std::__1::vector.108", %"class.std::__1::vector.108", %"class.std::__1::vector.645", %"class.std::__1::unordered_map.245", %"class.std::__1::unordered_map.653", %"class.std::__1::unordered_map.245" }
%"struct.std::__1::pair.680" = type { i32, %"struct.std::__1::pair.647" }
%"class.std::__1::__tree_node" = type { %"class.std::__1::__tree_node_base.base", %struct.SamplerUsedByImage }
%struct.SamplerUsedByImage = type { %"struct.std::__1::pair.647", i32 }
%struct.VkPipelineShaderStageCreateInfo = type { i32, i8*, i32, i32, %struct.VkShaderModule_T*, i8*, %struct.VkSpecializationInfo* }
%struct.VkSpecializationInfo = type { i32, %struct.VkSpecializationMapEntry*, i64, i8* }
%"class.std::__1::unique_ptr.802" = type { %"class.std::__1::__compressed_pair.803" }
%"class.std::__1::__compressed_pair.803" = type { %"struct.std::__1::__compressed_pair_elem.804", %"struct.std::__1::__compressed_pair_elem.805" }
%"struct.std::__1::__compressed_pair_elem.804" = type { %"struct.std::__1::__hash_node"* }
%"struct.std::__1::__compressed_pair_elem.805" = type { %"class.std::__1::__hash_node_destructor.806" }
%"class.std::__1::__hash_node_destructor.806" = type <{ %"class.std::__1::allocator.260"*, i8, [7 x i8] }>
%"class.std::__1::allocator.260" = type { i8 }
%"class.std::__1::map.683" = type { %"class.std::__1::__tree.684" }
%"class.std::__1::__tree.684" = type { %"class.std::__1::__tree_end_node"*, %"class.std::__1::__compressed_pair.685", %"class.std::__1::__compressed_pair.689" }
%"class.std::__1::__compressed_pair.685" = type { %"struct.std::__1::__compressed_pair_elem.173" }
%"class.std::__1::__compressed_pair.689" = type { %"struct.std::__1::__compressed_pair_elem.2" }
%"struct.std::__1::pair.697" = type { %"struct.std::__1::pair.647", %struct.interface_var }
%"class.std::__1::__tree_node.865" = type { %"class.std::__1::__tree_node_base.base", [7 x i8], %"struct.std::__1::__value_type" }
%"struct.std::__1::__value_type" = type { %"struct.std::__1::pair.697" }
%"class.std::__1::tuple.869" = type { %"struct.std::__1::__tuple_impl.870" }
%"struct.std::__1::__tuple_impl.870" = type { %"class.std::__1::__tuple_leaf.871" }
%"class.std::__1::__tuple_leaf.871" = type { %"struct.std::__1::pair.647"* }
%"class.std::__1::vector.698" = type { %"class.std::__1::__vector_base.699" }
%"class.std::__1::__vector_base.699" = type { %"struct.std::__1::pair.700"*, %"struct.std::__1::pair.700"*, %"class.std::__1::__compressed_pair.701" }
%"struct.std::__1::pair.700" = type { i32, [4 x i8], %struct.interface_var }
%"class.std::__1::__compressed_pair.701" = type { %"struct.std::__1::__compressed_pair_elem.702" }
%"struct.std::__1::__compressed_pair_elem.702" = type { %"struct.std::__1::pair.700"* }
%"struct.std::__1::pair" = type <{ %"class.std::__1::basic_string", i32, [4 x i8] }>
%"struct.std::__1::__murmur2_or_cityhash" = type { i8 }
%"class.std::__1::basic_ostream<char, std::__1::char_traits<char> >::sentry" = type { i8, %"class.std::__1::basic_ostream"* }
%"class.std::__1::locale::facet" = type { %"class.std::__1::__shared_count" }
%"class.std::__1::ctype" = type <{ %"class.std::__1::locale::facet", i16*, i8, [7 x i8] }>
%"class.std::__1::unique_ptr.829" = type { %"class.std::__1::__compressed_pair.830" }
%"class.std::__1::__compressed_pair.830" = type { %"struct.std::__1::__compressed_pair_elem.831", %"struct.std::__1::__compressed_pair_elem.834" }
%"struct.std::__1::__compressed_pair_elem.831" = type { %"struct.std::__1::__hash_node.832"* }
%"struct.std::__1::__compressed_pair_elem.834" = type { %"class.std::__1::__hash_node_destructor.835" }
%"class.std::__1::__hash_node_destructor.835" = type <{ %"class.std::__1::allocator.345"*, i8, [7 x i8] }>
%"class.std::__1::allocator.345" = type { i8 }

$_ZNSt3__113unordered_mapINS_12basic_stringIcNS_11char_traitsIcEENS_9allocatorIcEEEEjNS_4hashIS6_EENS_8equal_toIS6_EENS4_INS_4pairIKS6_jEEEEED2Ev = comdat any

$_Z15GetLayerDataPtrI18_debug_report_dataEPT_PvRNSt3__113unordered_mapIS3_S2_NS4_4hashIS3_EENS4_8equal_toIS3_EENS4_9allocatorINS4_4pairIKS3_S2_EEEEEE = comdat any

$_ZNSt3__13setINS_12basic_stringIcNS_11char_traitsIcEENS_9allocatorIcEEEENS_4lessIS6_EENS4_IS6_EEED2Ev = comdat any

$_ZNSt3__14pairIKNS_12basic_stringIcNS_11char_traitsIcEENS_9allocatorIcEEEES6_EC2IRA36_KcRA29_SA_Lb0EEEOT_OT0_ = comdat any

$_ZNSt3__14pairIKNS_12basic_stringIcNS_11char_traitsIcEENS_9allocatorIcEEEES6_EC2IRA23_KcRA17_SA_Lb0EEEOT_OT0_ = comdat any

$_ZNSt3__14pairIKNS_12basic_stringIcNS_11char_traitsIcEENS_9allocatorIcEEEES6_EC2IRA22_KcRA17_SA_Lb0EEEOT_OT0_ = comdat any

$_ZNSt3__14pairIKNS_12basic_stringIcNS_11char_traitsIcEENS_9allocatorIcEEEES6_EC2IRA39_KcRA27_SA_Lb0EEEOT_OT0_ = comdat any

$_ZNSt3__14pairIKNS_12basic_stringIcNS_11char_traitsIcEENS_9allocatorIcEEEES6_EC2IRA26_KcRA25_SA_Lb0EEEOT_OT0_ = comdat any

$_ZNSt3__14pairIKNS_12basic_stringIcNS_11char_traitsIcEENS_9allocatorIcEEEES6_EC2IRA36_KcRA18_SA_Lb0EEEOT_OT0_ = comdat any

$_ZNSt3__14pairIKNS_12basic_stringIcNS_11char_traitsIcEENS_9allocatorIcEEEES6_EC2IRA20_KcRA15_SA_Lb0EEEOT_OT0_ = comdat any

$_ZNSt3__14pairIKNS_12basic_stringIcNS_11char_traitsIcEENS_9allocatorIcEEEES6_EC2IRA23_KcRA20_SA_Lb0EEEOT_OT0_ = comdat any

$_ZNSt3__14pairIKNS_12basic_stringIcNS_11char_traitsIcEENS_9allocatorIcEEEES6_EC2IRA19_KcRA15_SA_Lb0EEEOT_OT0_ = comdat any

$_ZNSt3__14pairIKNS_12basic_stringIcNS_11char_traitsIcEENS_9allocatorIcEEEES6_EC2IRA22_KcRA20_SA_Lb0EEEOT_OT0_ = comdat any

$_ZNSt3__14pairIKNS_12basic_stringIcNS_11char_traitsIcEENS_9allocatorIcEEEES6_EC2IRA28_KcRA19_SA_Lb0EEEOT_OT0_ = comdat any

$_ZNSt3__14pairIKNS_12basic_stringIcNS_11char_traitsIcEENS_9allocatorIcEEEES6_EC2IRA33_KcRA30_SA_Lb0EEEOT_OT0_ = comdat any

$_ZNSt3__14pairIKNS_12basic_stringIcNS_11char_traitsIcEENS_9allocatorIcEEEES6_EC2IRA34_KcRA29_SA_Lb0EEEOT_OT0_ = comdat any

$_ZNSt3__14pairIKNS_12basic_stringIcNS_11char_traitsIcEENS_9allocatorIcEEEES6_EC2IRA29_KcRA19_SA_Lb0EEEOT_OT0_ = comdat any

$_ZNSt3__14pairIKNS_12basic_stringIcNS_11char_traitsIcEENS_9allocatorIcEEEES6_EC2IRA26_KcSC_Lb0EEEOT_OT0_ = comdat any

$_ZNSt3__14pairIKNS_12basic_stringIcNS_11char_traitsIcEENS_9allocatorIcEEEES6_EC2IRA22_KcRA15_SA_Lb0EEEOT_OT0_ = comdat any

$_ZNSt3__14pairIKNS_12basic_stringIcNS_11char_traitsIcEENS_9allocatorIcEEEES6_EC2IRA25_KcRA26_SA_Lb0EEEOT_OT0_ = comdat any

$_ZNSt3__14pairIKNS_12basic_stringIcNS_11char_traitsIcEENS_9allocatorIcEEEES6_EC2IRA31_KcRA26_SA_Lb0EEEOT_OT0_ = comdat any

$_ZNSt3__14pairIKNS_12basic_stringIcNS_11char_traitsIcEENS_9allocatorIcEEEES6_EC2IRA25_KcRA19_SA_Lb0EEEOT_OT0_ = comdat any

$_ZNSt3__14pairIKNS_12basic_stringIcNS_11char_traitsIcEENS_9allocatorIcEEEES6_EC2IRA31_KcRA32_SA_Lb0EEEOT_OT0_ = comdat any

$_ZNSt3__14pairIKNS_12basic_stringIcNS_11char_traitsIcEENS_9allocatorIcEEEES6_EC2IRA28_KcRA25_SA_Lb0EEEOT_OT0_ = comdat any

$_ZNSt3__14pairIKNS_12basic_stringIcNS_11char_traitsIcEENS_9allocatorIcEEEES6_EC2IRA37_KcRA26_SA_Lb0EEEOT_OT0_ = comdat any

$_ZNSt3__14pairIKNS_12basic_stringIcNS_11char_traitsIcEENS_9allocatorIcEEEES6_EC2IRA27_KcRA30_SA_Lb0EEEOT_OT0_ = comdat any

$_ZNSt3__14pairIKNS_12basic_stringIcNS_11char_traitsIcEENS_9allocatorIcEEEES6_EC2IRA19_KcRA22_SA_Lb0EEEOT_OT0_ = comdat any

$_ZNSt3__14pairIKNS_12basic_stringIcNS_11char_traitsIcEENS_9allocatorIcEEEES6_EC2IRA34_KcRA18_SA_Lb0EEEOT_OT0_ = comdat any

$_ZNSt3__14pairIKNS_12basic_stringIcNS_11char_traitsIcEENS_9allocatorIcEEEES6_EC2IRA44_KcRA30_SA_Lb0EEEOT_OT0_ = comdat any

$_ZNSt3__14pairIKNS_12basic_stringIcNS_11char_traitsIcEENS_9allocatorIcEEEES6_EC2IRA36_KcRA30_SA_Lb0EEEOT_OT0_ = comdat any

$_ZNSt3__14pairIKNS_12basic_stringIcNS_11char_traitsIcEENS_9allocatorIcEEEES6_EC2IRA27_KcRA19_SA_Lb0EEEOT_OT0_ = comdat any

$_ZNSt3__14pairIKNS_12basic_stringIcNS_11char_traitsIcEENS_9allocatorIcEEEES6_EC2IRA34_KcRA30_SA_Lb0EEEOT_OT0_ = comdat any

$_ZNSt3__14pairIKNS_12basic_stringIcNS_11char_traitsIcEENS_9allocatorIcEEEES6_EC2IRA33_KcRA18_SA_Lb0EEEOT_OT0_ = comdat any

$_ZNSt3__14pairIKNS_12basic_stringIcNS_11char_traitsIcEENS_9allocatorIcEEEES6_EC2IRA42_KcRA30_SA_Lb0EEEOT_OT0_ = comdat any

$_ZNSt3__14pairIKNS_12basic_stringIcNS_11char_traitsIcEENS_9allocatorIcEEEES6_EC2IRA20_KcRA22_SA_Lb0EEEOT_OT0_ = comdat any

$_ZNSt3__14pairIKNS_12basic_stringIcNS_11char_traitsIcEENS_9allocatorIcEEEES6_EC2IRA27_KcRA22_SA_Lb0EEEOT_OT0_ = comdat any

$_ZNSt3__14pairIKNS_12basic_stringIcNS_11char_traitsIcEENS_9allocatorIcEEEES6_EC2IRA23_KcRA21_SA_Lb0EEEOT_OT0_ = comdat any

$_ZNSt3__14pairIKNS_12basic_stringIcNS_11char_traitsIcEENS_9allocatorIcEEEES6_EC2IRA25_KcRA20_SA_Lb0EEEOT_OT0_ = comdat any

$_ZNSt3__14pairIKNS_12basic_stringIcNS_11char_traitsIcEENS_9allocatorIcEEEES6_EC2IRA26_KcRA20_SA_Lb0EEEOT_OT0_ = comdat any

$_ZNSt3__14pairIKNS_12basic_stringIcNS_11char_traitsIcEENS_9allocatorIcEEEES6_EC2IRA20_KcRA26_SA_Lb0EEEOT_OT0_ = comdat any

$_ZNSt3__14pairIKNS_12basic_stringIcNS_11char_traitsIcEENS_9allocatorIcEEEES6_EC2IRA18_KcRA15_SA_Lb0EEEOT_OT0_ = comdat any

$_ZNSt3__14pairIKNS_12basic_stringIcNS_11char_traitsIcEENS_9allocatorIcEEEES6_EC2IRA21_KcRA20_SA_Lb0EEEOT_OT0_ = comdat any

$_ZNSt3__14pairIKNS_12basic_stringIcNS_11char_traitsIcEENS_9allocatorIcEEEES6_EC2IRA30_KcRA15_SA_Lb0EEEOT_OT0_ = comdat any

$_ZNSt3__14pairIKNS_12basic_stringIcNS_11char_traitsIcEENS_9allocatorIcEEEES6_EC2IRA33_KcRA27_SA_Lb0EEEOT_OT0_ = comdat any

$_ZNSt3__14pairIKNS_12basic_stringIcNS_11char_traitsIcEENS_9allocatorIcEEEES6_EC2IRA30_KcRA26_SA_Lb0EEEOT_OT0_ = comdat any

$_ZNSt3__14pairIKNS_12basic_stringIcNS_11char_traitsIcEENS_9allocatorIcEEEES6_EC2IRA23_KcRA15_SA_Lb0EEEOT_OT0_ = comdat any

$_ZNSt3__14pairIKNS_12basic_stringIcNS_11char_traitsIcEENS_9allocatorIcEEEES6_EC2IRA26_KcRA27_SA_Lb0EEEOT_OT0_ = comdat any

$_ZNSt3__14pairIKNS_12basic_stringIcNS_11char_traitsIcEENS_9allocatorIcEEEES6_EC2IRA29_KcRA18_SA_Lb0EEEOT_OT0_ = comdat any

$_ZNSt3__14pairIKNS_12basic_stringIcNS_11char_traitsIcEENS_9allocatorIcEEEES6_EC2IRA21_KcRA18_SA_Lb0EEEOT_OT0_ = comdat any

$_ZNSt3__14pairIKNS_12basic_stringIcNS_11char_traitsIcEENS_9allocatorIcEEEES6_EC2IRA32_KcRA29_SA_Lb0EEEOT_OT0_ = comdat any

$_ZNSt3__14pairIKNS_12basic_stringIcNS_11char_traitsIcEENS_9allocatorIcEEEES6_EC2IRA24_KcRA26_SA_Lb0EEEOT_OT0_ = comdat any

$_ZNSt3__14pairIKNS_12basic_stringIcNS_11char_traitsIcEENS_9allocatorIcEEEES6_EC2IRA23_KcRA26_SA_Lb0EEEOT_OT0_ = comdat any

$_ZNSt3__14pairIKNS_12basic_stringIcNS_11char_traitsIcEENS_9allocatorIcEEEES6_EC2IRA29_KcRA26_SA_Lb0EEEOT_OT0_ = comdat any

$_ZNSt3__14pairIKNS_12basic_stringIcNS_11char_traitsIcEENS_9allocatorIcEEEES6_EC2IRA23_KcRA19_SA_Lb0EEEOT_OT0_ = comdat any

$_ZNSt3__14pairIKNS_12basic_stringIcNS_11char_traitsIcEENS_9allocatorIcEEEES6_EC2IRA32_KcSC_Lb0EEEOT_OT0_ = comdat any

$_ZNSt3__14pairIKNS_12basic_stringIcNS_11char_traitsIcEENS_9allocatorIcEEEES6_EC2IRA30_KcRA19_SA_Lb0EEEOT_OT0_ = comdat any

$_ZNSt3__14pairIKNS_12basic_stringIcNS_11char_traitsIcEENS_9allocatorIcEEEES6_EC2IRA21_KcRA26_SA_Lb0EEEOT_OT0_ = comdat any

$_ZNSt3__14pairIKNS_12basic_stringIcNS_11char_traitsIcEENS_9allocatorIcEEEES6_EC2IRA25_KcRA24_SA_Lb0EEEOT_OT0_ = comdat any

$_ZNSt3__14pairIKNS_12basic_stringIcNS_11char_traitsIcEENS_9allocatorIcEEEES6_EC2IRA35_KcRA32_SA_Lb0EEEOT_OT0_ = comdat any

$_ZNSt3__14pairIKNS_12basic_stringIcNS_11char_traitsIcEENS_9allocatorIcEEEES6_EC2IRA26_KcRA23_SA_Lb0EEEOT_OT0_ = comdat any

$_ZNSt3__14pairIKNS_12basic_stringIcNS_11char_traitsIcEENS_9allocatorIcEEEES6_EC2IRA38_KcRA23_SA_Lb0EEEOT_OT0_ = comdat any

$_ZNSt3__14pairIKNS_12basic_stringIcNS_11char_traitsIcEENS_9allocatorIcEEEES6_EC2IRA20_KcRA24_SA_Lb0EEEOT_OT0_ = comdat any

$_ZNSt3__14pairIKNS_12basic_stringIcNS_11char_traitsIcEENS_9allocatorIcEEEES6_EC2IRA22_KcSC_Lb0EEEOT_OT0_ = comdat any

$_ZNSt3__14pairIKNS_12basic_stringIcNS_11char_traitsIcEENS_9allocatorIcEEEES6_EC2IRA21_KcRA36_SA_Lb0EEEOT_OT0_ = comdat any

$_ZNSt3__14pairIKNS_12basic_stringIcNS_11char_traitsIcEENS_9allocatorIcEEEES6_EC2IRA28_KcRA26_SA_Lb0EEEOT_OT0_ = comdat any

$_ZNSt3__14pairIKNS_12basic_stringIcNS_11char_traitsIcEENS_9allocatorIcEEEES6_EC2IRA20_KcRA30_SA_Lb0EEEOT_OT0_ = comdat any

$_ZNSt3__14pairIKNS_12basic_stringIcNS_11char_traitsIcEENS_9allocatorIcEEEES6_EC2IRA27_KcRA31_SA_Lb0EEEOT_OT0_ = comdat any

$_ZNSt3__14pairIKNS_12basic_stringIcNS_11char_traitsIcEENS_9allocatorIcEEEES6_EC2IRA26_KcRA30_SA_Lb0EEEOT_OT0_ = comdat any

$_ZNSt3__14pairIKNS_12basic_stringIcNS_11char_traitsIcEENS_9allocatorIcEEEES6_EC2IRA28_KcRA30_SA_Lb0EEEOT_OT0_ = comdat any

$_ZNSt3__14pairIKNS_12basic_stringIcNS_11char_traitsIcEENS_9allocatorIcEEEES6_EC2IRA18_KcRA24_SA_Lb0EEEOT_OT0_ = comdat any

$_ZNSt3__14pairIKNS_12basic_stringIcNS_11char_traitsIcEENS_9allocatorIcEEEES6_EC2IRA27_KcRA24_SA_Lb0EEEOT_OT0_ = comdat any

$_ZNSt3__14pairIKNS_12basic_stringIcNS_11char_traitsIcEENS_9allocatorIcEEEES6_EC2IRA34_KcSC_Lb0EEEOT_OT0_ = comdat any

$_ZNSt3__14pairIKNS_12basic_stringIcNS_11char_traitsIcEENS_9allocatorIcEEEES6_EC2IRA31_KcRA29_SA_Lb0EEEOT_OT0_ = comdat any

$_ZNSt3__14pairIKNS_12basic_stringIcNS_11char_traitsIcEENS_9allocatorIcEEEES6_EC2IRA21_KcRA30_SA_Lb0EEEOT_OT0_ = comdat any

$_ZNSt3__14pairIKNS_12basic_stringIcNS_11char_traitsIcEENS_9allocatorIcEEEES6_EC2IRA19_KcRA31_SA_Lb0EEEOT_OT0_ = comdat any

$_ZNSt3__14pairIKNS_12basic_stringIcNS_11char_traitsIcEENS_9allocatorIcEEEES6_EC2IRA30_KcRA31_SA_Lb0EEEOT_OT0_ = comdat any

$_ZNSt3__14pairIKNS_12basic_stringIcNS_11char_traitsIcEENS_9allocatorIcEEEES6_EC2IRA31_KcRA27_SA_Lb0EEEOT_OT0_ = comdat any

$_ZNSt3__14pairIKNS_12basic_stringIcNS_11char_traitsIcEENS_9allocatorIcEEEES6_EC2IRA37_KcRA27_SA_Lb0EEEOT_OT0_ = comdat any

$_ZNSt3__14pairIKNS_12basic_stringIcNS_11char_traitsIcEENS_9allocatorIcEEEES6_EC2IRA34_KcRA31_SA_Lb0EEEOT_OT0_ = comdat any

$_ZNSt3__14pairIKNS_12basic_stringIcNS_11char_traitsIcEENS_9allocatorIcEEEES6_EC2IRA29_KcRA30_SA_Lb0EEEOT_OT0_ = comdat any

$_ZNSt3__14pairIKNS_12basic_stringIcNS_11char_traitsIcEENS_9allocatorIcEEEES6_EC2IRA35_KcRA31_SA_Lb0EEEOT_OT0_ = comdat any

$_ZNSt3__14pairIKNS_12basic_stringIcNS_11char_traitsIcEENS_9allocatorIcEEEES6_EC2IRA39_KcRA28_SA_Lb0EEEOT_OT0_ = comdat any

$_ZNSt3__14pairIKNS_12basic_stringIcNS_11char_traitsIcEENS_9allocatorIcEEEES6_EC2IRA23_KcRA34_SA_Lb0EEEOT_OT0_ = comdat any

$_ZNSt3__14pairIKNS_12basic_stringIcNS_11char_traitsIcEENS_9allocatorIcEEEES6_EC2IRA37_KcRA25_SA_Lb0EEEOT_OT0_ = comdat any

$_ZNSt3__14pairIKNS_12basic_stringIcNS_11char_traitsIcEENS_9allocatorIcEEEES6_EC2IRA27_KcSC_Lb0EEEOT_OT0_ = comdat any

$_ZNSt3__14pairIKNS_12basic_stringIcNS_11char_traitsIcEENS_9allocatorIcEEEES6_EC2IRA26_KcRA28_SA_Lb0EEEOT_OT0_ = comdat any

$_ZNSt3__14pairIKNS_12basic_stringIcNS_11char_traitsIcEENS_9allocatorIcEEEES6_EC2IRA18_KcRA28_SA_Lb0EEEOT_OT0_ = comdat any

$_ZNSt3__14pairIKNS_12basic_stringIcNS_11char_traitsIcEENS_9allocatorIcEEEES6_EC2IRA17_KcRA18_SA_Lb0EEEOT_OT0_ = comdat any

$_ZNSt3__14pairIKNS_12basic_stringIcNS_11char_traitsIcEENS_9allocatorIcEEEES6_EC2IRA46_KcRA30_SA_Lb0EEEOT_OT0_ = comdat any

$_ZNSt3__14pairIKNS_12basic_stringIcNS_11char_traitsIcEENS_9allocatorIcEEEES6_EC2IRA45_KcRA18_SA_Lb0EEEOT_OT0_ = comdat any

$_ZNSt3__14pairIKNS_12basic_stringIcNS_11char_traitsIcEENS_9allocatorIcEEEES6_EC2IRA26_KcRA21_SA_Lb0EEEOT_OT0_ = comdat any

$_ZNSt3__14pairIKNS_12basic_stringIcNS_11char_traitsIcEENS_9allocatorIcEEEES6_EC2IRA24_KcSC_Lb0EEEOT_OT0_ = comdat any

$_ZNSt3__14pairIKNS_12basic_stringIcNS_11char_traitsIcEENS_9allocatorIcEEEES6_EC2IRA20_KcRA18_SA_Lb0EEEOT_OT0_ = comdat any

$_ZNSt3__14pairIKNS_12basic_stringIcNS_11char_traitsIcEENS_9allocatorIcEEEES6_EC2IRA31_KcRA30_SA_Lb0EEEOT_OT0_ = comdat any

$_ZNSt3__14pairIKNS_12basic_stringIcNS_11char_traitsIcEENS_9allocatorIcEEEES6_EC2IRA39_KcRA30_SA_Lb0EEEOT_OT0_ = comdat any

$_ZNSt3__14pairIKNS_12basic_stringIcNS_11char_traitsIcEENS_9allocatorIcEEEES6_EC2IRA32_KcRA18_SA_Lb0EEEOT_OT0_ = comdat any

$_ZNSt3__14pairIKNS_12basic_stringIcNS_11char_traitsIcEENS_9allocatorIcEEEES6_EC2IRA22_KcRA21_SA_Lb0EEEOT_OT0_ = comdat any

$_ZNSt3__14pairIKNS_12basic_stringIcNS_11char_traitsIcEENS_9allocatorIcEEEES6_EC2IRA20_KcRA21_SA_Lb0EEEOT_OT0_ = comdat any

$_ZNSt3__14pairIKNS_12basic_stringIcNS_11char_traitsIcEENS_9allocatorIcEEEES6_EC2IRA29_KcRA32_SA_Lb0EEEOT_OT0_ = comdat any

$_ZNSt3__14pairIKNS_12basic_stringIcNS_11char_traitsIcEENS_9allocatorIcEEEES6_EC2IRA33_KcRA15_SA_Lb0EEEOT_OT0_ = comdat any

$_ZNSt3__14pairIKNS_12basic_stringIcNS_11char_traitsIcEENS_9allocatorIcEEEES6_EC2IRA36_KcRA34_SA_Lb0EEEOT_OT0_ = comdat any

$_ZNSt3__14pairIKNS_12basic_stringIcNS_11char_traitsIcEENS_9allocatorIcEEEES6_EC2IRA33_KcRA32_SA_Lb0EEEOT_OT0_ = comdat any

$_ZNSt3__14pairIKNS_12basic_stringIcNS_11char_traitsIcEENS_9allocatorIcEEEES6_EC2IRA27_KcRA20_SA_Lb0EEEOT_OT0_ = comdat any

$_ZNSt3__14pairIKNS_12basic_stringIcNS_11char_traitsIcEENS_9allocatorIcEEEES6_EC2IRA31_KcRA28_SA_Lb0EEEOT_OT0_ = comdat any

$_ZNSt3__14pairIKNS_12basic_stringIcNS_11char_traitsIcEENS_9allocatorIcEEEES6_EC2IRA30_KcRA18_SA_Lb0EEEOT_OT0_ = comdat any

$_ZNSt3__14pairIKNS_12basic_stringIcNS_11char_traitsIcEENS_9allocatorIcEEEES6_EC2IRA31_KcRA15_SA_Lb0EEEOT_OT0_ = comdat any

$_ZNSt3__14pairIKNS_12basic_stringIcNS_11char_traitsIcEENS_9allocatorIcEEEES6_EC2IRA34_KcRA32_SA_Lb0EEEOT_OT0_ = comdat any

$_ZNSt3__14pairIKNS_12basic_stringIcNS_11char_traitsIcEENS_9allocatorIcEEEES6_EC2IRA21_KcRA17_SA_Lb0EEEOT_OT0_ = comdat any

$_ZNSt3__14pairIKNS_12basic_stringIcNS_11char_traitsIcEENS_9allocatorIcEEEES6_EC2IRA24_KcRA19_SA_Lb0EEEOT_OT0_ = comdat any

$_ZNSt3__14pairIKNS_12basic_stringIcNS_11char_traitsIcEENS_9allocatorIcEEEES6_EC2IRA34_KcRA19_SA_Lb0EEEOT_OT0_ = comdat any

$_ZNSt3__14pairIKNS_12basic_stringIcNS_11char_traitsIcEENS_9allocatorIcEEEES6_EC2IRA30_KcRA20_SA_Lb0EEEOT_OT0_ = comdat any

$_ZNSt3__14pairIKNS_12basic_stringIcNS_11char_traitsIcEENS_9allocatorIcEEEES6_EC2IRA29_KcRA20_SA_Lb0EEEOT_OT0_ = comdat any

$_ZNSt3__14pairIKNS_12basic_stringIcNS_11char_traitsIcEENS_9allocatorIcEEEES6_EC2IRA27_KcRA32_SA_Lb0EEEOT_OT0_ = comdat any

$_ZNSt3__14pairIKNS_12basic_stringIcNS_11char_traitsIcEENS_9allocatorIcEEEES6_EC2IRA21_KcSC_Lb0EEEOT_OT0_ = comdat any

$_ZNSt3__14pairIKNS_12basic_stringIcNS_11char_traitsIcEENS_9allocatorIcEEEES6_EC2IRA30_KcRA32_SA_Lb0EEEOT_OT0_ = comdat any

$_ZNSt3__14pairIKNS_12basic_stringIcNS_11char_traitsIcEENS_9allocatorIcEEEES6_EC2IRA34_KcRA15_SA_Lb0EEEOT_OT0_ = comdat any

$_ZNSt3__14pairIKNS_12basic_stringIcNS_11char_traitsIcEENS_9allocatorIcEEEES6_EC2IRA37_KcRA34_SA_Lb0EEEOT_OT0_ = comdat any

$_ZNSt3__14pairIKNS_12basic_stringIcNS_11char_traitsIcEENS_9allocatorIcEEEES6_EC2IRA28_KcRA20_SA_Lb0EEEOT_OT0_ = comdat any

$_ZNSt3__14pairIKNS_12basic_stringIcNS_11char_traitsIcEENS_9allocatorIcEEEES6_EC2IRA32_KcRA15_SA_Lb0EEEOT_OT0_ = comdat any

$_ZNSt3__14pairIKNS_12basic_stringIcNS_11char_traitsIcEENS_9allocatorIcEEEES6_EC2IRA28_KcRA24_SA_Lb0EEEOT_OT0_ = comdat any

$_ZNSt3__14pairIKNS_12basic_stringIcNS_11char_traitsIcEENS_9allocatorIcEEEES6_EC2IRA35_KcRA19_SA_Lb0EEEOT_OT0_ = comdat any

$_ZNSt3__14pairIKNS_12basic_stringIcNS_11char_traitsIcEENS_9allocatorIcEEEES6_EC2IRA25_KcRA23_SA_Lb0EEEOT_OT0_ = comdat any

$_ZNSt3__14pairIKNS_12basic_stringIcNS_11char_traitsIcEENS_9allocatorIcEEEES6_EC2IRA40_KcRA30_SA_Lb0EEEOT_OT0_ = comdat any

$_ZNSt3__14pairIKNS_12basic_stringIcNS_11char_traitsIcEENS_9allocatorIcEEEES6_EC2IRA43_KcRA30_SA_Lb0EEEOT_OT0_ = comdat any

$_ZNSt3__14pairIKNS_12basic_stringIcNS_11char_traitsIcEENS_9allocatorIcEEEES6_EC2IRA35_KcRA18_SA_Lb0EEEOT_OT0_ = comdat any

$_ZNSt3__14pairIKNS_12basic_stringIcNS_11char_traitsIcEENS_9allocatorIcEEEES6_EC2IRA47_KcRA18_SA_Lb0EEEOT_OT0_ = comdat any

$_ZNSt3__14pairIKNS_12basic_stringIcNS_11char_traitsIcEENS_9allocatorIcEEEES6_EC2IRA44_KcRA51_SA_Lb0EEEOT_OT0_ = comdat any

$_ZNSt3__14pairIKNS_12basic_stringIcNS_11char_traitsIcEENS_9allocatorIcEEEES6_EC2IRA25_KcRA15_SA_Lb0EEEOT_OT0_ = comdat any

$_ZNSt3__14pairIKNS_12basic_stringIcNS_11char_traitsIcEENS_9allocatorIcEEEES6_EC2IRA28_KcRA29_SA_Lb0EEEOT_OT0_ = comdat any

$_ZNSt3__14pairIKNS_12basic_stringIcNS_11char_traitsIcEENS_9allocatorIcEEEES6_EC2IRA35_KcRA29_SA_Lb0EEEOT_OT0_ = comdat any

$_ZNSt3__14pairIKNS_12basic_stringIcNS_11char_traitsIcEENS_9allocatorIcEEEES6_EC2IRA29_KcSC_Lb0EEEOT_OT0_ = comdat any

$_ZNSt3__14pairIKNS_12basic_stringIcNS_11char_traitsIcEENS_9allocatorIcEEEES6_EC2IRA40_KcRA32_SA_Lb0EEEOT_OT0_ = comdat any

$_ZNSt3__14pairIKNS_12basic_stringIcNS_11char_traitsIcEENS_9allocatorIcEEEES6_EC2IRA35_KcRA20_SA_Lb0EEEOT_OT0_ = comdat any

$_ZNSt3__14pairIKNS_12basic_stringIcNS_11char_traitsIcEENS_9allocatorIcEEEES6_EC2IRA49_KcRA30_SA_Lb0EEEOT_OT0_ = comdat any

$_ZNSt3__14pairIKNS_12basic_stringIcNS_11char_traitsIcEENS_9allocatorIcEEEES6_EC2IRA35_KcRA15_SA_Lb0EEEOT_OT0_ = comdat any

$_ZNSt3__14pairIKNS_12basic_stringIcNS_11char_traitsIcEENS_9allocatorIcEEEES6_EC2IRA38_KcRA20_SA_Lb0EEEOT_OT0_ = comdat any

$_ZNSt3__14pairIKNS_12basic_stringIcNS_11char_traitsIcEENS_9allocatorIcEEEES6_EC2IRA39_KcRA17_SA_Lb0EEEOT_OT0_ = comdat any

$_ZNSt3__14pairIKNS_12basic_stringIcNS_11char_traitsIcEENS_9allocatorIcEEEES6_EC2IRA40_KcRA29_SA_Lb0EEEOT_OT0_ = comdat any

$_ZNSt3__14pairIKNS_12basic_stringIcNS_11char_traitsIcEENS_9allocatorIcEEEES6_EC2IRA38_KcRA15_SA_Lb0EEEOT_OT0_ = comdat any

$_ZNSt3__14pairIKNS_12basic_stringIcNS_11char_traitsIcEENS_9allocatorIcEEEES6_EC2IRA41_KcRA29_SA_Lb0EEEOT_OT0_ = comdat any

$_ZNSt3__14pairIKNS_12basic_stringIcNS_11char_traitsIcEENS_9allocatorIcEEEES6_EC2IRA16_KcRA25_SA_Lb0EEEOT_OT0_ = comdat any

$_ZNSt3__14pairIKNS_12basic_stringIcNS_11char_traitsIcEENS_9allocatorIcEEEES6_EC2IRA25_KcRA28_SA_Lb0EEEOT_OT0_ = comdat any

$_ZNSt3__14pairIKNS_12basic_stringIcNS_11char_traitsIcEENS_9allocatorIcEEEES6_EC2IRA43_KcRA32_SA_Lb0EEEOT_OT0_ = comdat any

$_ZNSt3__14pairIKNS_12basic_stringIcNS_11char_traitsIcEENS_9allocatorIcEEEES6_EC2IRA41_KcRA33_SA_Lb0EEEOT_OT0_ = comdat any

$_ZNSt3__14pairIKNS_12basic_stringIcNS_11char_traitsIcEENS_9allocatorIcEEEES6_EC2IRA36_KcRA15_SA_Lb0EEEOT_OT0_ = comdat any

$_ZNSt3__14pairIKNS_12basic_stringIcNS_11char_traitsIcEENS_9allocatorIcEEEES6_EC2IRA39_KcRA32_SA_Lb0EEEOT_OT0_ = comdat any

$_ZNSt3__14pairIKNS_12basic_stringIcNS_11char_traitsIcEENS_9allocatorIcEEEES6_EC2IRA25_KcSC_Lb0EEEOT_OT0_ = comdat any

$_ZNSt3__14pairIKNS_12basic_stringIcNS_11char_traitsIcEENS_9allocatorIcEEEES6_EC2IRA24_KcRA25_SA_Lb0EEEOT_OT0_ = comdat any

$_ZNSt3__14pairIKNS_12basic_stringIcNS_11char_traitsIcEENS_9allocatorIcEEEES6_EC2IRA40_KcRA51_SA_Lb0EEEOT_OT0_ = comdat any

$_ZNSt3__14pairIKNS_12basic_stringIcNS_11char_traitsIcEENS_9allocatorIcEEEES6_EC2IRA17_KcRA26_SA_Lb0EEEOT_OT0_ = comdat any

$_ZNSt3__14pairIKNS_12basic_stringIcNS_11char_traitsIcEENS_9allocatorIcEEEES6_EC2IRA27_KcRA26_SA_Lb0EEEOT_OT0_ = comdat any

$_ZNSt3__14pairIKNS_12basic_stringIcNS_11char_traitsIcEENS_9allocatorIcEEEES6_EC2IRA36_KcRA28_SA_Lb0EEEOT_OT0_ = comdat any

$_ZNSt3__14pairIKNS_12basic_stringIcNS_11char_traitsIcEENS_9allocatorIcEEEES6_EC2IRA26_KcRA29_SA_Lb0EEEOT_OT0_ = comdat any

$_ZNSt3__14pairIKNS_12basic_stringIcNS_11char_traitsIcEENS_9allocatorIcEEEES6_EC2IRA41_KcRA27_SA_Lb0EEEOT_OT0_ = comdat any

$_ZNSt3__14pairIKNS_12basic_stringIcNS_11char_traitsIcEENS_9allocatorIcEEEES6_EC2IRA34_KcRA25_SA_Lb0EEEOT_OT0_ = comdat any

$_ZNSt3__14pairIKNS_12basic_stringIcNS_11char_traitsIcEENS_9allocatorIcEEEES6_EC2IRA50_KcRA38_SA_Lb0EEEOT_OT0_ = comdat any

$_ZNSt3__14pairIKNS_12basic_stringIcNS_11char_traitsIcEENS_9allocatorIcEEEES6_EC2IRA37_KcRA38_SA_Lb0EEEOT_OT0_ = comdat any

$_ZNSt3__14pairIKNS_12basic_stringIcNS_11char_traitsIcEENS_9allocatorIcEEEES6_EC2IRA20_KcSC_Lb0EEEOT_OT0_ = comdat any

$_ZNSt3__14pairIKNS_12basic_stringIcNS_11char_traitsIcEENS_9allocatorIcEEEES6_EC2IRA27_KcRA36_SA_Lb0EEEOT_OT0_ = comdat any

$_ZNSt3__14pairIKNS_12basic_stringIcNS_11char_traitsIcEENS_9allocatorIcEEEES6_EC2IRA50_KcRA28_SA_Lb0EEEOT_OT0_ = comdat any

$_ZNSt3__14pairIKNS_12basic_stringIcNS_11char_traitsIcEENS_9allocatorIcEEEES6_EC2IRA37_KcRA28_SA_Lb0EEEOT_OT0_ = comdat any

$_ZNSt3__14pairIKNS_12basic_stringIcNS_11char_traitsIcEENS_9allocatorIcEEEES6_EC2IRA32_KcRA25_SA_Lb0EEEOT_OT0_ = comdat any

$_ZNSt3__14pairIKNS_12basic_stringIcNS_11char_traitsIcEENS_9allocatorIcEEEES6_EC2IRA27_KcRA15_SA_Lb0EEEOT_OT0_ = comdat any

$_ZNSt3__14pairIKNS_12basic_stringIcNS_11char_traitsIcEENS_9allocatorIcEEEES6_EC2IRA20_KcRA29_SA_Lb0EEEOT_OT0_ = comdat any

$_ZNSt3__14pairIKNS_12basic_stringIcNS_11char_traitsIcEENS_9allocatorIcEEEES6_EC2IRA19_KcSC_Lb0EEEOT_OT0_ = comdat any

$_ZNSt3__14pairIKNS_12basic_stringIcNS_11char_traitsIcEENS_9allocatorIcEEEES6_EC2IRA24_KcRA17_SA_Lb0EEEOT_OT0_ = comdat any

$_ZNSt3__14pairIKNS_12basic_stringIcNS_11char_traitsIcEENS_9allocatorIcEEEES6_EC2IRA24_KcRA32_SA_Lb0EEEOT_OT0_ = comdat any

$_ZNSt3__14pairIKNS_12basic_stringIcNS_11char_traitsIcEENS_9allocatorIcEEEES6_EC2IRA39_KcRA19_SA_Lb0EEEOT_OT0_ = comdat any

$_ZNSt3__14pairIKNS_12basic_stringIcNS_11char_traitsIcEENS_9allocatorIcEEEES6_EC2IRA19_KcRA25_SA_Lb0EEEOT_OT0_ = comdat any

$_ZNSt3__14pairIKNS_12basic_stringIcNS_11char_traitsIcEENS_9allocatorIcEEEES6_EC2IRA28_KcSC_Lb0EEEOT_OT0_ = comdat any

$_ZNSt3__14pairIKNS_12basic_stringIcNS_11char_traitsIcEENS_9allocatorIcEEEES6_EC2IRA23_KcRA29_SA_Lb0EEEOT_OT0_ = comdat any

$_ZNSt3__14pairIKNS_12basic_stringIcNS_11char_traitsIcEENS_9allocatorIcEEEES6_EC2IRA37_KcRA30_SA_Lb0EEEOT_OT0_ = comdat any

$_ZNSt3__14pairIKNS_12basic_stringIcNS_11char_traitsIcEENS_9allocatorIcEEEES6_EC2IRA32_KcRA27_SA_Lb0EEEOT_OT0_ = comdat any

$_ZNSt3__14pairIKNS_12basic_stringIcNS_11char_traitsIcEENS_9allocatorIcEEEES6_EC2IRA31_KcRA19_SA_Lb0EEEOT_OT0_ = comdat any

$_ZNSt3__14pairIKNS_12basic_stringIcNS_11char_traitsIcEENS_9allocatorIcEEEES6_EC2IRA32_KcRA19_SA_Lb0EEEOT_OT0_ = comdat any

$_ZNSt3__14pairIKNS_12basic_stringIcNS_11char_traitsIcEENS_9allocatorIcEEEES6_EC2IRA18_KcRA17_SA_Lb0EEEOT_OT0_ = comdat any

$_ZNSt3__14pairIKNS_12basic_stringIcNS_11char_traitsIcEENS_9allocatorIcEEEES6_EC2IRA40_KcRA27_SA_Lb0EEEOT_OT0_ = comdat any

$_ZNSt3__14pairIKNS_12basic_stringIcNS_11char_traitsIcEENS_9allocatorIcEEEES6_EC2IRA17_KcRA15_SA_Lb0EEEOT_OT0_ = comdat any

$_ZNSt3__14pairIKNS_12basic_stringIcNS_11char_traitsIcEENS_9allocatorIcEEEES6_EC2IRA34_KcRA27_SA_Lb0EEEOT_OT0_ = comdat any

$_ZNSt3__113unordered_mapINS_12basic_stringIcNS_11char_traitsIcEENS_9allocatorIcEEEES6_NS_4hashIS6_EENS_8equal_toIS6_EENS4_INS_4pairIKS6_S6_EEEEED2Ev = comdat any

$_ZN19SHADER_MODULE_STATE10EntryPointD2Ev = comdat any

$_ZN20shader_struct_memberC2ERKS_ = comdat any

$_ZN28shader_module_used_operators6updateEPK19SHADER_MODULE_STATE = comdat any

$_ZN28shader_module_used_operatorsD2Ev = comdat any

$_ZNSt3__16vectorI20shader_struct_memberNS_9allocatorIS1_EEE13__move_assignERS4_NS_17integral_constantIbLb1EEE = comdat any

$_ZNSt3__116allocator_traitsINS_9allocatorI20shader_struct_memberEEE7destroyIS2_vEEvRS3_PT_ = comdat any

$_ZNSt3__19allocatorI20shader_struct_memberE7destroyEPS1_ = comdat any

$_ZNSt3__16vectorIhNS_9allocatorIhEEE8__appendEmRKh = comdat any

$_ZNSt3__112__hash_tableINS_17__hash_value_typeIjNS_4pairIjjEEEENS_22__unordered_map_hasherIjS4_NS_4hashIjEENS_8equal_toIjEELb1EEENS_21__unordered_map_equalIjS4_S9_S7_Lb1EEENS_9allocatorIS4_EEE25__emplace_unique_key_argsIjJRKjS3_EEENS2_INS_15__hash_iteratorIPNS_11__hash_nodeIS4_PvEEEEbEERKT_DpOT0_ = comdat any

$_ZNSt3__112__hash_tableINS_17__hash_value_typeIjNS_4pairIjjEEEENS_22__unordered_map_hasherIjS4_NS_4hashIjEENS_8equal_toIjEELb1EEENS_21__unordered_map_equalIjS4_S9_S7_Lb1EEENS_9allocatorIS4_EEE6rehashEm = comdat any

$_ZNSt3__112__hash_tableINS_17__hash_value_typeIjNS_4pairIjjEEEENS_22__unordered_map_hasherIjS4_NS_4hashIjEENS_8equal_toIjEELb1EEENS_21__unordered_map_equalIjS4_S9_S7_Lb1EEENS_9allocatorIS4_EEE8__rehashEm = comdat any

$_ZNSt3__16__treeI18SamplerUsedByImageNS_4lessIS1_EENS_9allocatorIS1_EEE7destroyEPNS_11__tree_nodeIS1_PvEE = comdat any

$_ZNSt3__16vectorINS_3setI18SamplerUsedByImageNS_4lessIS2_EENS_9allocatorIS2_EEEENS5_IS7_EEE18__construct_at_endIPS7_EENS_9enable_ifIXsr27__is_cpp17_forward_iteratorIT_EE5valueEvE4typeESD_SD_m = comdat any

$_ZNSt3__127__tree_balance_after_insertIPNS_16__tree_node_baseIPvEEEEvT_S5_ = comdat any

$_ZNSt3__16vectorINS_3setI18SamplerUsedByImageNS_4lessIS2_EENS_9allocatorIS2_EEEENS5_IS7_EEE6assignIPS7_EENS_9enable_ifIXaasr27__is_cpp17_forward_iteratorIT_EE5valuesr16is_constructibleIS7_NS_15iterator_traitsISD_E9referenceEEE5valueEvE4typeESD_SD_ = comdat any

$_ZNSt3__16__treeI18SamplerUsedByImageNS_4lessIS1_EENS_9allocatorIS1_EEE14__assign_multiINS_21__tree_const_iteratorIS1_PNS_11__tree_nodeIS1_PvEElEEEEvT_SE_ = comdat any

$_ZNSt3__112__hash_tableINS_17__hash_value_typeINS_12basic_stringIcNS_11char_traitsIcEENS_9allocatorIcEEEEjEENS_22__unordered_map_hasherIS7_S8_NS_4hashIS7_EENS_8equal_toIS7_EELb1EEENS_21__unordered_map_equalIS7_S8_SD_SB_Lb1EEENS5_IS8_EEE25__emplace_unique_key_argsIS7_JRKNS_4pairIKS7_jEEEEENSK_INS_15__hash_iteratorIPNS_11__hash_nodeIS8_PvEEEEbEERKT_DpOT0_ = comdat any

$_ZNSt3__112__hash_tableINS_17__hash_value_typeINS_12basic_stringIcNS_11char_traitsIcEENS_9allocatorIcEEEEjEENS_22__unordered_map_hasherIS7_S8_NS_4hashIS7_EENS_8equal_toIS7_EELb1EEENS_21__unordered_map_equalIS7_S8_SD_SB_Lb1EEENS5_IS8_EEE6rehashEm = comdat any

$_ZNSt3__121__murmur2_or_cityhashImLm64EEclEPKvm = comdat any

$_ZNSt3__121__murmur2_or_cityhashImLm64EE18__hash_len_0_to_16EPKcm = comdat any

$_ZNSt3__112__hash_tableINS_17__hash_value_typeINS_12basic_stringIcNS_11char_traitsIcEENS_9allocatorIcEEEEjEENS_22__unordered_map_hasherIS7_S8_NS_4hashIS7_EENS_8equal_toIS7_EELb1EEENS_21__unordered_map_equalIS7_S8_SD_SB_Lb1EEENS5_IS8_EEE8__rehashEm = comdat any

$_ZNSt3__124__put_character_sequenceIcNS_11char_traitsIcEEEERNS_13basic_ostreamIT_T0_EES7_PKS4_m = comdat any

$_ZNSt3__116__pad_and_outputIcNS_11char_traitsIcEEEENS_19ostreambuf_iteratorIT_T0_EES6_PKS4_S8_S8_RNS_8ios_baseES4_ = comdat any

$_ZNSt3__112__hash_tableINS_17__hash_value_typeIPvP18_debug_report_dataEENS_22__unordered_map_hasherIS2_S5_NS_4hashIS2_EENS_8equal_toIS2_EELb1EEENS_21__unordered_map_equalIS2_S5_SA_S8_Lb1EEENS_9allocatorIS5_EEE25__emplace_unique_key_argsIS2_JRKNS_21piecewise_construct_tENS_5tupleIJOS2_EEENSL_IJEEEEEENS_4pairINS_15__hash_iteratorIPNS_11__hash_nodeIS5_S2_EEEEbEERKT_DpOT0_ = comdat any

$_ZNSt3__112__hash_tableINS_17__hash_value_typeIPvP18_debug_report_dataEENS_22__unordered_map_hasherIS2_S5_NS_4hashIS2_EENS_8equal_toIS2_EELb1EEENS_21__unordered_map_equalIS2_S5_SA_S8_Lb1EEENS_9allocatorIS5_EEE6rehashEm = comdat any

$_ZNSt3__112__hash_tableINS_17__hash_value_typeIPvP18_debug_report_dataEENS_22__unordered_map_hasherIS2_S5_NS_4hashIS2_EENS_8equal_toIS2_EELb1EEENS_21__unordered_map_equalIS2_S5_SA_S8_Lb1EEENS_9allocatorIS5_EEE8__rehashEm = comdat any

$_ZNSt3__16__treeINS_12basic_stringIcNS_11char_traitsIcEENS_9allocatorIcEEEENS_4lessIS6_EENS4_IS6_EEE30__emplace_hint_unique_key_argsIS6_JRKS6_EEENS_4pairINS_15__tree_iteratorIS6_PNS_11__tree_nodeIS6_PvEElEEbEENS_21__tree_const_iteratorIS6_SJ_lEERKT_DpOT0_ = comdat any

$_ZNSt3__16__treeINS_12basic_stringIcNS_11char_traitsIcEENS_9allocatorIcEEEENS_4lessIS6_EENS4_IS6_EEE12__find_equalIS6_EERPNS_16__tree_node_baseIPvEENS_21__tree_const_iteratorIS6_PNS_11__tree_nodeIS6_SD_EElEERPNS_15__tree_end_nodeISF_EESG_RKT_ = comdat any

$_ZNSt3__16__treeINS_12basic_stringIcNS_11char_traitsIcEENS_9allocatorIcEEEENS_4lessIS6_EENS4_IS6_EEE12__find_equalIS6_EERPNS_16__tree_node_baseIPvEERPNS_15__tree_end_nodeISF_EERKT_ = comdat any

$_ZNSt3__16__treeINS_12basic_stringIcNS_11char_traitsIcEENS_9allocatorIcEEEENS_4lessIS6_EENS4_IS6_EEE7destroyEPNS_11__tree_nodeIS6_PvEE = comdat any

$_ZNSt3__112__hash_tableINS_17__hash_value_typeINS_12basic_stringIcNS_11char_traitsIcEENS_9allocatorIcEEEES7_EENS_22__unordered_map_hasherIS7_S8_NS_4hashIS7_EENS_8equal_toIS7_EELb1EEENS_21__unordered_map_equalIS7_S8_SD_SB_Lb1EEENS5_IS8_EEE25__emplace_unique_key_argsIS7_JRKNS_4pairIKS7_S7_EEEEENSK_INS_15__hash_iteratorIPNS_11__hash_nodeIS8_PvEEEEbEERKT_DpOT0_ = comdat any

$_ZNSt3__112__hash_tableINS_17__hash_value_typeINS_12basic_stringIcNS_11char_traitsIcEENS_9allocatorIcEEEES7_EENS_22__unordered_map_hasherIS7_S8_NS_4hashIS7_EENS_8equal_toIS7_EELb1EEENS_21__unordered_map_equalIS7_S8_SD_SB_Lb1EEENS5_IS8_EEE6rehashEm = comdat any

$_ZNSt3__112__hash_tableINS_17__hash_value_typeINS_12basic_stringIcNS_11char_traitsIcEENS_9allocatorIcEEEES7_EENS_22__unordered_map_hasherIS7_S8_NS_4hashIS7_EENS_8equal_toIS7_EELb1EEENS_21__unordered_map_equalIS7_S8_SD_SB_Lb1EEENS5_IS8_EEE8__rehashEm = comdat any

$_ZNSt3__112__hash_tableIjNS_4hashIjEENS_8equal_toIjEENS_9allocatorIjEEE25__emplace_unique_key_argsIjJRKjEEENS_4pairINS_15__hash_iteratorIPNS_11__hash_nodeIjPvEEEEbEERKT_DpOT0_ = comdat any

$_ZNSt3__112__hash_tableIjNS_4hashIjEENS_8equal_toIjEENS_9allocatorIjEEE6rehashEm = comdat any

$_ZNSt3__112__hash_tableIjNS_4hashIjEENS_8equal_toIjEENS_9allocatorIjEEE8__rehashEm = comdat any

$_ZNSt3__112__hash_tableIjNS_4hashIjEENS_8equal_toIjEENS_9allocatorIjEEE6removeENS_21__hash_const_iteratorIPNS_11__hash_nodeIjPvEEEE = comdat any

$_ZNSt3__112__hash_tableINS_17__hash_value_typeIjjEENS_22__unordered_map_hasherIjS2_NS_4hashIjEENS_8equal_toIjEELb1EEENS_21__unordered_map_equalIjS2_S7_S5_Lb1EEENS_9allocatorIS2_EEE19__node_insert_multiEPNS_11__hash_nodeIS2_PvEE = comdat any

$_ZNSt3__112__hash_tableINS_17__hash_value_typeIjjEENS_22__unordered_map_hasherIjS2_NS_4hashIjEENS_8equal_toIjEELb1EEENS_21__unordered_map_equalIjS2_S7_S5_Lb1EEENS_9allocatorIS2_EEE27__node_insert_multi_prepareEmRS2_ = comdat any

$_ZNSt3__112__hash_tableINS_17__hash_value_typeIjjEENS_22__unordered_map_hasherIjS2_NS_4hashIjEENS_8equal_toIjEELb1EEENS_21__unordered_map_equalIjS2_S7_S5_Lb1EEENS_9allocatorIS2_EEE6rehashEm = comdat any

$_ZNSt3__112__hash_tableINS_17__hash_value_typeIjjEENS_22__unordered_map_hasherIjS2_NS_4hashIjEENS_8equal_toIjEELb1EEENS_21__unordered_map_equalIjS2_S7_S5_Lb1EEENS_9allocatorIS2_EEE8__rehashEm = comdat any

$_ZNSt3__112__hash_tableINS_17__hash_value_typeIjjEENS_22__unordered_map_hasherIjS2_NS_4hashIjEENS_8equal_toIjEELb1EEENS_21__unordered_map_equalIjS2_S7_S5_Lb1EEENS_9allocatorIS2_EEE25__emplace_unique_key_argsIjJRKNS_21piecewise_construct_tENS_5tupleIJRKjEEENSI_IJEEEEEENS_4pairINS_15__hash_iteratorIPNS_11__hash_nodeIS2_PvEEEEbEERKT_DpOT0_ = comdat any

$_ZNSt3__112__hash_tableINS_17__hash_value_typeIj14decoration_setEENS_22__unordered_map_hasherIjS3_NS_4hashIjEENS_8equal_toIjEELb1EEENS_21__unordered_map_equalIjS3_S8_S6_Lb1EEENS_9allocatorIS3_EEE25__emplace_unique_key_argsIjJRKNS_21piecewise_construct_tENS_5tupleIJRKjEEENSJ_IJEEEEEENS_4pairINS_15__hash_iteratorIPNS_11__hash_nodeIS3_PvEEEEbEERKT_DpOT0_ = comdat any

$_ZNSt3__112__hash_tableINS_17__hash_value_typeIj14decoration_setEENS_22__unordered_map_hasherIjS3_NS_4hashIjEENS_8equal_toIjEELb1EEENS_21__unordered_map_equalIjS3_S8_S6_Lb1EEENS_9allocatorIS3_EEE6rehashEm = comdat any

$_ZNSt3__112__hash_tableINS_17__hash_value_typeIj14decoration_setEENS_22__unordered_map_hasherIjS3_NS_4hashIjEENS_8equal_toIjEELb1EEENS_21__unordered_map_equalIjS3_S8_S6_Lb1EEENS_9allocatorIS3_EEE8__rehashEm = comdat any

$_ZNSt3__112__hash_tableINS_17__hash_value_typeINS_12basic_stringIcNS_11char_traitsIcEENS_9allocatorIcEEEEN19SHADER_MODULE_STATE10EntryPointEEENS_22__unordered_map_hasherIS7_SA_NS_4hashIS7_EENS_8equal_toIS7_EELb1EEENS_21__unordered_map_equalIS7_SA_SF_SD_Lb1EEENS5_ISA_EEE15__emplace_multiIJRPKcS9_EEENS_15__hash_iteratorIPNS_11__hash_nodeISA_PvEEEEDpOT_ = comdat any

$_ZNSt3__112__hash_tableINS_17__hash_value_typeINS_12basic_stringIcNS_11char_traitsIcEENS_9allocatorIcEEEEN19SHADER_MODULE_STATE10EntryPointEEENS_22__unordered_map_hasherIS7_SA_NS_4hashIS7_EENS_8equal_toIS7_EELb1EEENS_21__unordered_map_equalIS7_SA_SF_SD_Lb1EEENS5_ISA_EEE16__construct_nodeIJRPKcS9_EEENS_10unique_ptrINS_11__hash_nodeISA_PvEENS_22__hash_node_destructorINS5_ISS_EEEEEEDpOT_ = comdat any

$_ZN19SHADER_MODULE_STATE10EntryPointC2EOS0_ = comdat any

$_ZNSt3__112__hash_tableINS_17__hash_value_typeINS_12basic_stringIcNS_11char_traitsIcEENS_9allocatorIcEEEEN19SHADER_MODULE_STATE10EntryPointEEENS_22__unordered_map_hasherIS7_SA_NS_4hashIS7_EENS_8equal_toIS7_EELb1EEENS_21__unordered_map_equalIS7_SA_SF_SD_Lb1EEENS5_ISA_EEE27__node_insert_multi_prepareEmRSA_ = comdat any

$_ZNSt3__112__hash_tableINS_17__hash_value_typeINS_12basic_stringIcNS_11char_traitsIcEENS_9allocatorIcEEEEN19SHADER_MODULE_STATE10EntryPointEEENS_22__unordered_map_hasherIS7_SA_NS_4hashIS7_EENS_8equal_toIS7_EELb1EEENS_21__unordered_map_equalIS7_SA_SF_SD_Lb1EEENS5_ISA_EEE6rehashEm = comdat any

$_ZNSt3__112__hash_tableINS_17__hash_value_typeINS_12basic_stringIcNS_11char_traitsIcEENS_9allocatorIcEEEEN19SHADER_MODULE_STATE10EntryPointEEENS_22__unordered_map_hasherIS7_SA_NS_4hashIS7_EENS_8equal_toIS7_EELb1EEENS_21__unordered_map_equalIS7_SA_SF_SD_Lb1EEENS5_ISA_EEE8__rehashEm = comdat any

$_ZNSt3__112__hash_tableINS_17__hash_value_typeINS_12basic_stringIcNS_11char_traitsIcEENS_9allocatorIcEEEEN19SHADER_MODULE_STATE10EntryPointEEENS_22__unordered_map_hasherIS7_SA_NS_4hashIS7_EENS_8equal_toIS7_EELb1EEENS_21__unordered_map_equalIS7_SA_SF_SD_Lb1EEENS5_ISA_EEE19__equal_range_multiIS7_EENS_4pairINS_15__hash_iteratorIPNS_11__hash_nodeISA_PvEEEESS_EERKT_ = comdat any

$_ZNSt3__112__hash_tableINS_17__hash_value_typeINS_12basic_stringIcNS_11char_traitsIcEENS_9allocatorIcEEEEN19SHADER_MODULE_STATE10EntryPointEEENS_22__unordered_map_hasherIS7_SA_NS_4hashIS7_EENS_8equal_toIS7_EELb1EEENS_21__unordered_map_equalIS7_SA_SF_SD_Lb1EEENS5_ISA_EEE4findIS7_EENS_15__hash_iteratorIPNS_11__hash_nodeISA_PvEEEERKT_ = comdat any

$_ZNSt3__16vectorI12function_setNS_9allocatorIS1_EEE24__emplace_back_slow_pathIJRS1_EEEvDpOT_ = comdat any

$_ZNSt3__112__hash_tableINS_17__hash_value_typeIjNS_6vectorI15spirv_inst_iterNS_9allocatorIS3_EEEEEENS_22__unordered_map_hasherIjS7_NS_4hashIjEENS_8equal_toIjEELb1EEENS_21__unordered_map_equalIjS7_SC_SA_Lb1EEENS4_IS7_EEE25__emplace_unique_key_argsIjJRKNS_21piecewise_construct_tENS_5tupleIJRKjEEENSM_IJEEEEEENS_4pairINS_15__hash_iteratorIPNS_11__hash_nodeIS7_PvEEEEbEERKT_DpOT0_ = comdat any

$_ZNSt3__112__hash_tableINS_17__hash_value_typeIjNS_6vectorI15spirv_inst_iterNS_9allocatorIS3_EEEEEENS_22__unordered_map_hasherIjS7_NS_4hashIjEENS_8equal_toIjEELb1EEENS_21__unordered_map_equalIjS7_SC_SA_Lb1EEENS4_IS7_EEE6rehashEm = comdat any

$_ZNSt3__112__hash_tableINS_17__hash_value_typeIjNS_6vectorI15spirv_inst_iterNS_9allocatorIS3_EEEEEENS_22__unordered_map_hasherIjS7_NS_4hashIjEENS_8equal_toIjEELb1EEENS_21__unordered_map_equalIjS7_SC_SA_Lb1EEENS4_IS7_EEE8__rehashEm = comdat any

$_ZNKSt3__112__hash_tableINS_17__hash_value_typeINS_12basic_stringIcNS_11char_traitsIcEENS_9allocatorIcEEEEN19SHADER_MODULE_STATE10EntryPointEEENS_22__unordered_map_hasherIS7_SA_NS_4hashIS7_EENS_8equal_toIS7_EELb1EEENS_21__unordered_map_equalIS7_SA_SF_SD_Lb1EEENS5_ISA_EEE19__equal_range_multiIS7_EENS_4pairINS_21__hash_const_iteratorIPNS_11__hash_nodeISA_PvEEEESS_EERKT_ = comdat any

$_ZNKSt3__112__hash_tableINS_17__hash_value_typeINS_12basic_stringIcNS_11char_traitsIcEENS_9allocatorIcEEEEN19SHADER_MODULE_STATE10EntryPointEEENS_22__unordered_map_hasherIS7_SA_NS_4hashIS7_EENS_8equal_toIS7_EELb1EEENS_21__unordered_map_equalIS7_SA_SF_SD_Lb1EEENS5_ISA_EEE4findIS7_EENS_21__hash_const_iteratorIPNS_11__hash_nodeISA_PvEEEERKT_ = comdat any

$_ZNSt3__16vectorIjNS_9allocatorIjEEE8__appendEm = comdat any

$_ZNSt3__16vectorIjNS_9allocatorIjEEE8__appendEmRKj = comdat any

$_ZNSt3__16vectorI20shader_struct_memberNS_9allocatorIS1_EEE24__emplace_back_slow_pathIJRS1_EEEvDpOT_ = comdat any

$_ZNSt3__112__hash_tableINS_17__hash_value_typeIjjEENS_22__unordered_map_hasherIjS2_NS_4hashIjEENS_8equal_toIjEELb1EEENS_21__unordered_map_equalIjS2_S7_S5_Lb1EEENS_9allocatorIS2_EEE25__emplace_unique_key_argsIjJRKjSG_EEENS_4pairINS_15__hash_iteratorIPNS_11__hash_nodeIS2_PvEEEEbEERKT_DpOT0_ = comdat any

$_ZNSt3__16vectorINS_3setI18SamplerUsedByImageNS_4lessIS2_EENS_9allocatorIS2_EEEENS5_IS7_EEE8__appendEm = comdat any

$_ZNSt3__16vectorINS_4pairINS1_IjjEE13interface_varEENS_9allocatorIS4_EEE24__emplace_back_slow_pathIJS2_RS3_EEEvDpOT_ = comdat any

$_ZNSt3__16__treeINS_12__value_typeINS_4pairIjjEE13interface_varEENS_19__map_value_compareIS3_S5_NS_4lessIS3_EELb1EEENS_9allocatorIS5_EEE7destroyEPNS_11__tree_nodeIS5_PvEE = comdat any

$_ZNSt3__112__hash_tableINS_17__hash_value_typeIjjEENS_22__unordered_map_hasherIjS2_NS_4hashIjEENS_8equal_toIjEELb1EEENS_21__unordered_map_equalIjS2_S7_S5_Lb1EEENS_9allocatorIS2_EEE6removeENS_21__hash_const_iteratorIPNS_11__hash_nodeIS2_PvEEEE = comdat any

$_ZNSt3__16__treeINS_12__value_typeINS_4pairIjjEE13interface_varEENS_19__map_value_compareIS3_S5_NS_4lessIS3_EELb1EEENS_9allocatorIS5_EEE25__emplace_unique_key_argsIS3_JRKNS_21piecewise_construct_tENS_5tupleIJOS3_EEENSH_IJEEEEEENS2_INS_15__tree_iteratorIS5_PNS_11__tree_nodeIS5_PvEElEEbEERKT_DpOT0_ = comdat any

$_ZNSt3__16vectorINS_4pairIj13interface_varEENS_9allocatorIS3_EEE24__emplace_back_slow_pathIJjRS2_EEEvDpOT_ = comdat any

@_ZL32debug_actions_option_definitions = internal global %"class.std::__1::unordered_map" zeroinitializer, align 8
@.str = private unnamed_addr constant [27 x i8] c"VK_DBG_LAYER_ACTION_IGNORE\00", align 1
@.str.1 = private unnamed_addr constant [29 x i8] c"VK_DBG_LAYER_ACTION_CALLBACK\00", align 1
@.str.2 = private unnamed_addr constant [28 x i8] c"VK_DBG_LAYER_ACTION_LOG_MSG\00", align 1
@.str.3 = private unnamed_addr constant [26 x i8] c"VK_DBG_LAYER_ACTION_BREAK\00", align 1
@.str.4 = private unnamed_addr constant [28 x i8] c"VK_DBG_LAYER_ACTION_DEFAULT\00", align 1
@__dso_handle = external hidden global i8
@_ZL31report_flags_option_definitions = internal global %"class.std::__1::unordered_map" zeroinitializer, align 8
@.str.9 = private unnamed_addr constant [6 x i8] c"error\00", align 1
@.str.10 = private unnamed_addr constant [6 x i8] c"debug\00", align 1
@_ZL31log_msg_type_option_definitions = internal global %"class.std::__1::unordered_map" zeroinitializer, align 8
@_ZL23kInstanceExtensionNames = internal global %"class.std::__1::set" zeroinitializer, align 8
@.str.13 = private unnamed_addr constant [20 x i8] c"VK_EXT_debug_report\00", align 1
@.str.14 = private unnamed_addr constant [19 x i8] c"VK_EXT_debug_utils\00", align 1
@.str.15 = private unnamed_addr constant [27 x i8] c"VK_EXT_direct_mode_display\00", align 1
@.str.16 = private unnamed_addr constant [31 x i8] c"VK_EXT_display_surface_counter\00", align 1
@.str.17 = private unnamed_addr constant [24 x i8] c"VK_EXT_headless_surface\00", align 1
@.str.18 = private unnamed_addr constant [28 x i8] c"VK_EXT_swapchain_colorspace\00", align 1
@.str.19 = private unnamed_addr constant [27 x i8] c"VK_EXT_validation_features\00", align 1
@.str.20 = private unnamed_addr constant [24 x i8] c"VK_EXT_validation_flags\00", align 1
@.str.21 = private unnamed_addr constant [29 x i8] c"VK_KHR_device_group_creation\00", align 1
@.str.22 = private unnamed_addr constant [15 x i8] c"VK_KHR_display\00", align 1
@.str.23 = private unnamed_addr constant [35 x i8] c"VK_KHR_external_fence_capabilities\00", align 1
@.str.24 = private unnamed_addr constant [36 x i8] c"VK_KHR_external_memory_capabilities\00", align 1
@.str.25 = private unnamed_addr constant [39 x i8] c"VK_KHR_external_semaphore_capabilities\00", align 1
@.str.26 = private unnamed_addr constant [31 x i8] c"VK_KHR_get_display_properties2\00", align 1
@.str.27 = private unnamed_addr constant [39 x i8] c"VK_KHR_get_physical_device_properties2\00", align 1
@.str.28 = private unnamed_addr constant [33 x i8] c"VK_KHR_get_surface_capabilities2\00", align 1
@.str.29 = private unnamed_addr constant [15 x i8] c"VK_KHR_surface\00", align 1
@.str.30 = private unnamed_addr constant [38 x i8] c"VK_KHR_surface_protected_capabilities\00", align 1
@.str.31 = private unnamed_addr constant [19 x i8] c"VK_KHR_xcb_surface\00", align 1
@.str.32 = private unnamed_addr constant [20 x i8] c"VK_KHR_xlib_surface\00", align 1
@.str.33 = private unnamed_addr constant [35 x i8] c"VK_NV_external_memory_capabilities\00", align 1
@_ZL21kDeviceExtensionNames = internal global %"class.std::__1::set" zeroinitializer, align 8
@.str.35 = private unnamed_addr constant [21 x i8] c"VK_AMD_buffer_marker\00", align 1
@.str.36 = private unnamed_addr constant [30 x i8] c"VK_AMD_device_coherent_memory\00", align 1
@.str.37 = private unnamed_addr constant [26 x i8] c"VK_AMD_display_native_hdr\00", align 1
@.str.38 = private unnamed_addr constant [27 x i8] c"VK_AMD_draw_indirect_count\00", align 1
@.str.39 = private unnamed_addr constant [18 x i8] c"VK_AMD_gcn_shader\00", align 1
@.str.40 = private unnamed_addr constant [29 x i8] c"VK_AMD_gpu_shader_half_float\00", align 1
@.str.41 = private unnamed_addr constant [24 x i8] c"VK_AMD_gpu_shader_int16\00", align 1
@.str.42 = private unnamed_addr constant [38 x i8] c"VK_AMD_memory_overallocation_behavior\00", align 1
@.str.43 = private unnamed_addr constant [32 x i8] c"VK_AMD_mixed_attachment_samples\00", align 1
@.str.44 = private unnamed_addr constant [32 x i8] c"VK_AMD_negative_viewport_height\00", align 1
@.str.45 = private unnamed_addr constant [33 x i8] c"VK_AMD_pipeline_compiler_control\00", align 1
@.str.46 = private unnamed_addr constant [27 x i8] c"VK_AMD_rasterization_order\00", align 1
@.str.47 = private unnamed_addr constant [21 x i8] c"VK_AMD_shader_ballot\00", align 1
@.str.48 = private unnamed_addr constant [30 x i8] c"VK_AMD_shader_core_properties\00", align 1
@.str.49 = private unnamed_addr constant [31 x i8] c"VK_AMD_shader_core_properties2\00", align 1
@.str.50 = private unnamed_addr constant [40 x i8] c"VK_AMD_shader_explicit_vertex_parameter\00", align 1
@.str.51 = private unnamed_addr constant [28 x i8] c"VK_AMD_shader_fragment_mask\00", align 1
@.str.52 = private unnamed_addr constant [35 x i8] c"VK_AMD_shader_image_load_store_lod\00", align 1
@.str.53 = private unnamed_addr constant [19 x i8] c"VK_AMD_shader_info\00", align 1
@.str.54 = private unnamed_addr constant [29 x i8] c"VK_AMD_shader_trinary_minmax\00", align 1
@.str.55 = private unnamed_addr constant [31 x i8] c"VK_AMD_texture_gather_bias_lod\00", align 1
@.str.56 = private unnamed_addr constant [20 x i8] c"VK_EXT_4444_formats\00", align 1
@.str.57 = private unnamed_addr constant [24 x i8] c"VK_EXT_astc_decode_mode\00", align 1
@.str.58 = private unnamed_addr constant [32 x i8] c"VK_EXT_blend_operation_advanced\00", align 1
@.str.59 = private unnamed_addr constant [29 x i8] c"VK_EXT_buffer_device_address\00", align 1
@.str.60 = private unnamed_addr constant [29 x i8] c"VK_EXT_calibrated_timestamps\00", align 1
@.str.61 = private unnamed_addr constant [26 x i8] c"VK_EXT_color_write_enable\00", align 1
@.str.62 = private unnamed_addr constant [29 x i8] c"VK_EXT_conditional_rendering\00", align 1
@.str.63 = private unnamed_addr constant [34 x i8] c"VK_EXT_conservative_rasterization\00", align 1
@.str.64 = private unnamed_addr constant [27 x i8] c"VK_EXT_custom_border_color\00", align 1
@.str.65 = private unnamed_addr constant [20 x i8] c"VK_EXT_debug_marker\00", align 1
@.str.66 = private unnamed_addr constant [25 x i8] c"VK_EXT_depth_clip_enable\00", align 1
@.str.67 = private unnamed_addr constant [32 x i8] c"VK_EXT_depth_range_unrestricted\00", align 1
@.str.68 = private unnamed_addr constant [27 x i8] c"VK_EXT_descriptor_indexing\00", align 1
@.str.69 = private unnamed_addr constant [28 x i8] c"VK_EXT_device_memory_report\00", align 1
@.str.70 = private unnamed_addr constant [26 x i8] c"VK_EXT_discard_rectangles\00", align 1
@.str.71 = private unnamed_addr constant [23 x i8] c"VK_EXT_display_control\00", align 1
@.str.72 = private unnamed_addr constant [30 x i8] c"VK_EXT_extended_dynamic_state\00", align 1
@.str.73 = private unnamed_addr constant [31 x i8] c"VK_EXT_extended_dynamic_state2\00", align 1
@.str.74 = private unnamed_addr constant [31 x i8] c"VK_EXT_external_memory_dma_buf\00", align 1
@.str.75 = private unnamed_addr constant [28 x i8] c"VK_EXT_external_memory_host\00", align 1
@.str.76 = private unnamed_addr constant [20 x i8] c"VK_EXT_filter_cubic\00", align 1
@.str.77 = private unnamed_addr constant [28 x i8] c"VK_EXT_fragment_density_map\00", align 1
@.str.78 = private unnamed_addr constant [29 x i8] c"VK_EXT_fragment_density_map2\00", align 1
@.str.79 = private unnamed_addr constant [33 x i8] c"VK_EXT_fragment_shader_interlock\00", align 1
@.str.80 = private unnamed_addr constant [23 x i8] c"VK_EXT_global_priority\00", align 1
@.str.81 = private unnamed_addr constant [20 x i8] c"VK_EXT_hdr_metadata\00", align 1
@.str.82 = private unnamed_addr constant [24 x i8] c"VK_EXT_host_query_reset\00", align 1
@.str.83 = private unnamed_addr constant [33 x i8] c"VK_EXT_image_drm_format_modifier\00", align 1
@.str.84 = private unnamed_addr constant [24 x i8] c"VK_EXT_image_robustness\00", align 1
@.str.85 = private unnamed_addr constant [24 x i8] c"VK_EXT_index_type_uint8\00", align 1
@.str.86 = private unnamed_addr constant [28 x i8] c"VK_EXT_inline_uniform_block\00", align 1
@.str.87 = private unnamed_addr constant [26 x i8] c"VK_EXT_line_rasterization\00", align 1
@.str.88 = private unnamed_addr constant [21 x i8] c"VK_EXT_memory_budget\00", align 1
@.str.89 = private unnamed_addr constant [23 x i8] c"VK_EXT_memory_priority\00", align 1
@.str.90 = private unnamed_addr constant [20 x i8] c"VK_EXT_pci_bus_info\00", align 1
@.str.91 = private unnamed_addr constant [39 x i8] c"VK_EXT_pipeline_creation_cache_control\00", align 1
@.str.92 = private unnamed_addr constant [34 x i8] c"VK_EXT_pipeline_creation_feedback\00", align 1
@.str.93 = private unnamed_addr constant [27 x i8] c"VK_EXT_post_depth_coverage\00", align 1
@.str.94 = private unnamed_addr constant [20 x i8] c"VK_EXT_private_data\00", align 1
@.str.95 = private unnamed_addr constant [24 x i8] c"VK_EXT_provoking_vertex\00", align 1
@.str.96 = private unnamed_addr constant [28 x i8] c"VK_EXT_queue_family_foreign\00", align 1
@.str.97 = private unnamed_addr constant [19 x i8] c"VK_EXT_robustness2\00", align 1
@.str.98 = private unnamed_addr constant [24 x i8] c"VK_EXT_sample_locations\00", align 1
@.str.99 = private unnamed_addr constant [29 x i8] c"VK_EXT_sampler_filter_minmax\00", align 1
@.str.100 = private unnamed_addr constant [27 x i8] c"VK_EXT_scalar_block_layout\00", align 1
@.str.101 = private unnamed_addr constant [30 x i8] c"VK_EXT_separate_stencil_usage\00", align 1
@.str.102 = private unnamed_addr constant [27 x i8] c"VK_EXT_shader_atomic_float\00", align 1
@.str.103 = private unnamed_addr constant [42 x i8] c"VK_EXT_shader_demote_to_helper_invocation\00", align 1
@.str.104 = private unnamed_addr constant [33 x i8] c"VK_EXT_shader_image_atomic_int64\00", align 1
@.str.105 = private unnamed_addr constant [29 x i8] c"VK_EXT_shader_stencil_export\00", align 1
@.str.106 = private unnamed_addr constant [30 x i8] c"VK_EXT_shader_subgroup_ballot\00", align 1
@.str.107 = private unnamed_addr constant [28 x i8] c"VK_EXT_shader_subgroup_vote\00", align 1
@.str.108 = private unnamed_addr constant [35 x i8] c"VK_EXT_shader_viewport_index_layer\00", align 1
@.str.109 = private unnamed_addr constant [29 x i8] c"VK_EXT_subgroup_size_control\00", align 1
@.str.110 = private unnamed_addr constant [30 x i8] c"VK_EXT_texel_buffer_alignment\00", align 1
@.str.111 = private unnamed_addr constant [36 x i8] c"VK_EXT_texture_compression_astc_hdr\00", align 1
@.str.112 = private unnamed_addr constant [20 x i8] c"VK_EXT_tooling_info\00", align 1
@.str.113 = private unnamed_addr constant [26 x i8] c"VK_EXT_transform_feedback\00", align 1
@.str.114 = private unnamed_addr constant [24 x i8] c"VK_EXT_validation_cache\00", align 1
@.str.115 = private unnamed_addr constant [32 x i8] c"VK_EXT_vertex_attribute_divisor\00", align 1
@.str.116 = private unnamed_addr constant [34 x i8] c"VK_EXT_vertex_input_dynamic_state\00", align 1
@.str.117 = private unnamed_addr constant [25 x i8] c"VK_EXT_video_decode_h264\00", align 1
@.str.118 = private unnamed_addr constant [25 x i8] c"VK_EXT_video_decode_h265\00", align 1
@.str.119 = private unnamed_addr constant [25 x i8] c"VK_EXT_video_encode_h264\00", align 1
@.str.120 = private unnamed_addr constant [32 x i8] c"VK_EXT_ycbcr_2plane_444_formats\00", align 1
@.str.121 = private unnamed_addr constant [26 x i8] c"VK_EXT_ycbcr_image_arrays\00", align 1
@.str.122 = private unnamed_addr constant [26 x i8] c"VK_GOOGLE_decorate_string\00", align 1
@.str.123 = private unnamed_addr constant [25 x i8] c"VK_GOOGLE_display_timing\00", align 1
@.str.124 = private unnamed_addr constant [30 x i8] c"VK_GOOGLE_hlsl_functionality1\00", align 1
@.str.125 = private unnamed_addr constant [20 x i8] c"VK_GOOGLE_user_type\00", align 1
@.str.126 = private unnamed_addr constant [20 x i8] c"VK_IMG_filter_cubic\00", align 1
@.str.127 = private unnamed_addr constant [20 x i8] c"VK_IMG_format_pvrtc\00", align 1
@.str.128 = private unnamed_addr constant [27 x i8] c"VK_INTEL_performance_query\00", align 1
@.str.129 = private unnamed_addr constant [35 x i8] c"VK_INTEL_shader_integer_functions2\00", align 1
@.str.130 = private unnamed_addr constant [21 x i8] c"VK_KHR_16bit_storage\00", align 1
@.str.131 = private unnamed_addr constant [20 x i8] c"VK_KHR_8bit_storage\00", align 1
@.str.132 = private unnamed_addr constant [30 x i8] c"VK_KHR_acceleration_structure\00", align 1
@.str.133 = private unnamed_addr constant [20 x i8] c"VK_KHR_bind_memory2\00", align 1
@.str.134 = private unnamed_addr constant [29 x i8] c"VK_KHR_buffer_device_address\00", align 1
@.str.135 = private unnamed_addr constant [22 x i8] c"VK_KHR_copy_commands2\00", align 1
@.str.136 = private unnamed_addr constant [26 x i8] c"VK_KHR_create_renderpass2\00", align 1
@.str.137 = private unnamed_addr constant [28 x i8] c"VK_KHR_dedicated_allocation\00", align 1
@.str.138 = private unnamed_addr constant [32 x i8] c"VK_KHR_deferred_host_operations\00", align 1
@.str.139 = private unnamed_addr constant [29 x i8] c"VK_KHR_depth_stencil_resolve\00", align 1
@.str.140 = private unnamed_addr constant [34 x i8] c"VK_KHR_descriptor_update_template\00", align 1
@.str.141 = private unnamed_addr constant [20 x i8] c"VK_KHR_device_group\00", align 1
@.str.142 = private unnamed_addr constant [25 x i8] c"VK_KHR_display_swapchain\00", align 1
@.str.143 = private unnamed_addr constant [27 x i8] c"VK_KHR_draw_indirect_count\00", align 1
@.str.144 = private unnamed_addr constant [25 x i8] c"VK_KHR_driver_properties\00", align 1
@.str.145 = private unnamed_addr constant [22 x i8] c"VK_KHR_external_fence\00", align 1
@.str.146 = private unnamed_addr constant [25 x i8] c"VK_KHR_external_fence_fd\00", align 1
@.str.147 = private unnamed_addr constant [23 x i8] c"VK_KHR_external_memory\00", align 1
@.str.148 = private unnamed_addr constant [26 x i8] c"VK_KHR_external_memory_fd\00", align 1
@.str.149 = private unnamed_addr constant [26 x i8] c"VK_KHR_external_semaphore\00", align 1
@.str.150 = private unnamed_addr constant [29 x i8] c"VK_KHR_external_semaphore_fd\00", align 1
@.str.151 = private unnamed_addr constant [29 x i8] c"VK_KHR_fragment_shading_rate\00", align 1
@.str.152 = private unnamed_addr constant [32 x i8] c"VK_KHR_get_memory_requirements2\00", align 1
@.str.153 = private unnamed_addr constant [25 x i8] c"VK_KHR_image_format_list\00", align 1
@.str.154 = private unnamed_addr constant [29 x i8] c"VK_KHR_imageless_framebuffer\00", align 1
@.str.155 = private unnamed_addr constant [27 x i8] c"VK_KHR_incremental_present\00", align 1
@.str.156 = private unnamed_addr constant [20 x i8] c"VK_KHR_maintenance1\00", align 1
@.str.157 = private unnamed_addr constant [20 x i8] c"VK_KHR_maintenance2\00", align 1
@.str.158 = private unnamed_addr constant [20 x i8] c"VK_KHR_maintenance3\00", align 1
@.str.159 = private unnamed_addr constant [17 x i8] c"VK_KHR_multiview\00", align 1
@.str.160 = private unnamed_addr constant [25 x i8] c"VK_KHR_performance_query\00", align 1
@.str.161 = private unnamed_addr constant [38 x i8] c"VK_KHR_pipeline_executable_properties\00", align 1
@.str.162 = private unnamed_addr constant [24 x i8] c"VK_KHR_pipeline_library\00", align 1
@.str.163 = private unnamed_addr constant [26 x i8] c"VK_KHR_portability_subset\00", align 1
@.str.164 = private unnamed_addr constant [23 x i8] c"VK_KHR_push_descriptor\00", align 1
@.str.165 = private unnamed_addr constant [17 x i8] c"VK_KHR_ray_query\00", align 1
@.str.166 = private unnamed_addr constant [28 x i8] c"VK_KHR_ray_tracing_pipeline\00", align 1
@.str.167 = private unnamed_addr constant [28 x i8] c"VK_KHR_relaxed_block_layout\00", align 1
@.str.168 = private unnamed_addr constant [36 x i8] c"VK_KHR_sampler_mirror_clamp_to_edge\00", align 1
@.str.169 = private unnamed_addr constant [32 x i8] c"VK_KHR_sampler_ycbcr_conversion\00", align 1
@.str.170 = private unnamed_addr constant [38 x i8] c"VK_KHR_separate_depth_stencil_layouts\00", align 1
@.str.171 = private unnamed_addr constant [27 x i8] c"VK_KHR_shader_atomic_int64\00", align 1
@.str.172 = private unnamed_addr constant [20 x i8] c"VK_KHR_shader_clock\00", align 1
@.str.173 = private unnamed_addr constant [30 x i8] c"VK_KHR_shader_draw_parameters\00", align 1
@.str.174 = private unnamed_addr constant [27 x i8] c"VK_KHR_shader_float16_int8\00", align 1
@.str.175 = private unnamed_addr constant [29 x i8] c"VK_KHR_shader_float_controls\00", align 1
@.str.176 = private unnamed_addr constant [32 x i8] c"VK_KHR_shader_non_semantic_info\00", align 1
@.str.177 = private unnamed_addr constant [38 x i8] c"VK_KHR_shader_subgroup_extended_types\00", align 1
@.str.178 = private unnamed_addr constant [35 x i8] c"VK_KHR_shader_terminate_invocation\00", align 1
@.str.179 = private unnamed_addr constant [32 x i8] c"VK_KHR_shared_presentable_image\00", align 1
@.str.180 = private unnamed_addr constant [17 x i8] c"VK_KHR_spirv_1_4\00", align 1
@.str.181 = private unnamed_addr constant [36 x i8] c"VK_KHR_storage_buffer_storage_class\00", align 1
@.str.182 = private unnamed_addr constant [17 x i8] c"VK_KHR_swapchain\00", align 1
@.str.183 = private unnamed_addr constant [32 x i8] c"VK_KHR_swapchain_mutable_format\00", align 1
@.str.184 = private unnamed_addr constant [24 x i8] c"VK_KHR_synchronization2\00", align 1
@.str.185 = private unnamed_addr constant [26 x i8] c"VK_KHR_timeline_semaphore\00", align 1
@.str.186 = private unnamed_addr constant [38 x i8] c"VK_KHR_uniform_buffer_standard_layout\00", align 1
@.str.187 = private unnamed_addr constant [25 x i8] c"VK_KHR_variable_pointers\00", align 1
@.str.188 = private unnamed_addr constant [26 x i8] c"VK_KHR_video_decode_queue\00", align 1
@.str.189 = private unnamed_addr constant [26 x i8] c"VK_KHR_video_encode_queue\00", align 1
@.str.190 = private unnamed_addr constant [19 x i8] c"VK_KHR_video_queue\00", align 1
@.str.191 = private unnamed_addr constant [27 x i8] c"VK_KHR_vulkan_memory_model\00", align 1
@.str.192 = private unnamed_addr constant [40 x i8] c"VK_KHR_workgroup_memory_explicit_layout\00", align 1
@.str.193 = private unnamed_addr constant [40 x i8] c"VK_KHR_zero_initialize_workgroup_memory\00", align 1
@.str.194 = private unnamed_addr constant [21 x i8] c"VK_NVX_binary_import\00", align 1
@.str.195 = private unnamed_addr constant [25 x i8] c"VK_NVX_image_view_handle\00", align 1
@.str.196 = private unnamed_addr constant [37 x i8] c"VK_NVX_multiview_per_view_attributes\00", align 1
@.str.197 = private unnamed_addr constant [27 x i8] c"VK_NV_clip_space_w_scaling\00", align 1
@.str.198 = private unnamed_addr constant [33 x i8] c"VK_NV_compute_shader_derivatives\00", align 1
@.str.199 = private unnamed_addr constant [25 x i8] c"VK_NV_cooperative_matrix\00", align 1
@.str.200 = private unnamed_addr constant [27 x i8] c"VK_NV_corner_sampled_image\00", align 1
@.str.201 = private unnamed_addr constant [30 x i8] c"VK_NV_coverage_reduction_mode\00", align 1
@.str.202 = private unnamed_addr constant [27 x i8] c"VK_NV_dedicated_allocation\00", align 1
@.str.203 = private unnamed_addr constant [42 x i8] c"VK_NV_dedicated_allocation_image_aliasing\00", align 1
@.str.204 = private unnamed_addr constant [36 x i8] c"VK_NV_device_diagnostic_checkpoints\00", align 1
@.str.205 = private unnamed_addr constant [32 x i8] c"VK_NV_device_diagnostics_config\00", align 1
@.str.206 = private unnamed_addr constant [32 x i8] c"VK_NV_device_generated_commands\00", align 1
@.str.207 = private unnamed_addr constant [22 x i8] c"VK_NV_external_memory\00", align 1
@.str.208 = private unnamed_addr constant [21 x i8] c"VK_NV_fill_rectangle\00", align 1
@.str.209 = private unnamed_addr constant [33 x i8] c"VK_NV_fragment_coverage_to_color\00", align 1
@.str.210 = private unnamed_addr constant [34 x i8] c"VK_NV_fragment_shader_barycentric\00", align 1
@.str.211 = private unnamed_addr constant [34 x i8] c"VK_NV_fragment_shading_rate_enums\00", align 1
@.str.212 = private unnamed_addr constant [32 x i8] c"VK_NV_framebuffer_mixed_samples\00", align 1
@.str.213 = private unnamed_addr constant [34 x i8] c"VK_NV_geometry_shader_passthrough\00", align 1
@.str.214 = private unnamed_addr constant [18 x i8] c"VK_NV_glsl_shader\00", align 1
@.str.215 = private unnamed_addr constant [33 x i8] c"VK_NV_inherited_viewport_scissor\00", align 1
@.str.216 = private unnamed_addr constant [18 x i8] c"VK_NV_mesh_shader\00", align 1
@.str.217 = private unnamed_addr constant [18 x i8] c"VK_NV_ray_tracing\00", align 1
@.str.218 = private unnamed_addr constant [35 x i8] c"VK_NV_representative_fragment_test\00", align 1
@.str.219 = private unnamed_addr constant [36 x i8] c"VK_NV_sample_mask_override_coverage\00", align 1
@.str.220 = private unnamed_addr constant [24 x i8] c"VK_NV_scissor_exclusive\00", align 1
@.str.221 = private unnamed_addr constant [29 x i8] c"VK_NV_shader_image_footprint\00", align 1
@.str.222 = private unnamed_addr constant [25 x i8] c"VK_NV_shader_sm_builtins\00", align 1
@.str.223 = private unnamed_addr constant [34 x i8] c"VK_NV_shader_subgroup_partitioned\00", align 1
@.str.224 = private unnamed_addr constant [25 x i8] c"VK_NV_shading_rate_image\00", align 1
@.str.225 = private unnamed_addr constant [22 x i8] c"VK_NV_viewport_array2\00", align 1
@.str.226 = private unnamed_addr constant [23 x i8] c"VK_NV_viewport_swizzle\00", align 1
@.str.227 = private unnamed_addr constant [35 x i8] c"VK_QCOM_render_pass_shader_resolve\00", align 1
@.str.228 = private unnamed_addr constant [30 x i8] c"VK_QCOM_render_pass_store_ops\00", align 1
@.str.229 = private unnamed_addr constant [30 x i8] c"VK_QCOM_render_pass_transform\00", align 1
@.str.230 = private unnamed_addr constant [30 x i8] c"VK_QCOM_rotated_copy_commands\00", align 1
@.str.231 = private unnamed_addr constant [33 x i8] c"VK_VALVE_mutable_descriptor_type\00", align 1
@_ZL17api_extension_map = internal global %"class.std::__1::unordered_map.180" zeroinitializer, align 8
@.str.233 = private unnamed_addr constant [36 x i8] c"vkAcquireFullScreenExclusiveModeEXT\00", align 1
@.str.234 = private unnamed_addr constant [29 x i8] c"VK_EXT_full_screen_exclusive\00", align 1
@.str.235 = private unnamed_addr constant [23 x i8] c"vkAcquireNextImage2KHR\00", align 1
@.str.236 = private unnamed_addr constant [22 x i8] c"vkAcquireNextImageKHR\00", align 1
@.str.237 = private unnamed_addr constant [39 x i8] c"vkAcquirePerformanceConfigurationINTEL\00", align 1
@.str.238 = private unnamed_addr constant [26 x i8] c"vkAcquireProfilingLockKHR\00", align 1
@.str.239 = private unnamed_addr constant [36 x i8] c"vkBindAccelerationStructureMemoryNV\00", align 1
@.str.240 = private unnamed_addr constant [20 x i8] c"vkBindBufferMemory2\00", align 1
@.str.241 = private unnamed_addr constant [15 x i8] c"VK_VERSION_1_1\00", align 1
@.str.242 = private unnamed_addr constant [23 x i8] c"vkBindBufferMemory2KHR\00", align 1
@.str.243 = private unnamed_addr constant [19 x i8] c"vkBindImageMemory2\00", align 1
@.str.244 = private unnamed_addr constant [22 x i8] c"vkBindImageMemory2KHR\00", align 1
@.str.245 = private unnamed_addr constant [28 x i8] c"vkBindVideoSessionMemoryKHR\00", align 1
@.str.246 = private unnamed_addr constant [33 x i8] c"vkBuildAccelerationStructuresKHR\00", align 1
@.str.247 = private unnamed_addr constant [34 x i8] c"vkCmdBeginConditionalRenderingEXT\00", align 1
@.str.248 = private unnamed_addr constant [29 x i8] c"vkCmdBeginDebugUtilsLabelEXT\00", align 1
@.str.249 = private unnamed_addr constant [26 x i8] c"vkCmdBeginQueryIndexedEXT\00", align 1
@.str.250 = private unnamed_addr constant [22 x i8] c"vkCmdBeginRenderPass2\00", align 1
@.str.251 = private unnamed_addr constant [15 x i8] c"VK_VERSION_1_2\00", align 1
@.str.252 = private unnamed_addr constant [25 x i8] c"vkCmdBeginRenderPass2KHR\00", align 1
@.str.253 = private unnamed_addr constant [31 x i8] c"vkCmdBeginTransformFeedbackEXT\00", align 1
@.str.254 = private unnamed_addr constant [25 x i8] c"vkCmdBeginVideoCodingKHR\00", align 1
@.str.255 = private unnamed_addr constant [31 x i8] c"vkCmdBindPipelineShaderGroupNV\00", align 1
@.str.256 = private unnamed_addr constant [28 x i8] c"vkCmdBindShadingRateImageNV\00", align 1
@.str.257 = private unnamed_addr constant [37 x i8] c"vkCmdBindTransformFeedbackBuffersEXT\00", align 1
@.str.258 = private unnamed_addr constant [27 x i8] c"vkCmdBindVertexBuffers2EXT\00", align 1
@.str.259 = private unnamed_addr constant [19 x i8] c"vkCmdBlitImage2KHR\00", align 1
@.str.260 = private unnamed_addr constant [34 x i8] c"vkCmdBuildAccelerationStructureNV\00", align 1
@.str.261 = private unnamed_addr constant [44 x i8] c"vkCmdBuildAccelerationStructuresIndirectKHR\00", align 1
@.str.262 = private unnamed_addr constant [36 x i8] c"vkCmdBuildAccelerationStructuresKHR\00", align 1
@.str.263 = private unnamed_addr constant [27 x i8] c"vkCmdControlVideoCodingKHR\00", align 1
@.str.264 = private unnamed_addr constant [34 x i8] c"vkCmdCopyAccelerationStructureKHR\00", align 1
@.str.265 = private unnamed_addr constant [33 x i8] c"vkCmdCopyAccelerationStructureNV\00", align 1
@.str.266 = private unnamed_addr constant [42 x i8] c"vkCmdCopyAccelerationStructureToMemoryKHR\00", align 1
@.str.267 = private unnamed_addr constant [20 x i8] c"vkCmdCopyBuffer2KHR\00", align 1
@.str.268 = private unnamed_addr constant [27 x i8] c"vkCmdCopyBufferToImage2KHR\00", align 1
@.str.269 = private unnamed_addr constant [19 x i8] c"vkCmdCopyImage2KHR\00", align 1
@.str.270 = private unnamed_addr constant [27 x i8] c"vkCmdCopyImageToBuffer2KHR\00", align 1
@.str.271 = private unnamed_addr constant [42 x i8] c"vkCmdCopyMemoryToAccelerationStructureKHR\00", align 1
@.str.272 = private unnamed_addr constant [23 x i8] c"vkCmdCuLaunchKernelNVX\00", align 1
@.str.273 = private unnamed_addr constant [25 x i8] c"vkCmdDebugMarkerBeginEXT\00", align 1
@.str.274 = private unnamed_addr constant [23 x i8] c"vkCmdDebugMarkerEndEXT\00", align 1
@.str.275 = private unnamed_addr constant [26 x i8] c"vkCmdDebugMarkerInsertEXT\00", align 1
@.str.276 = private unnamed_addr constant [20 x i8] c"vkCmdDecodeVideoKHR\00", align 1
@.str.277 = private unnamed_addr constant [18 x i8] c"vkCmdDispatchBase\00", align 1
@.str.278 = private unnamed_addr constant [21 x i8] c"vkCmdDispatchBaseKHR\00", align 1
@.str.279 = private unnamed_addr constant [30 x i8] c"vkCmdDrawIndexedIndirectCount\00", align 1
@.str.280 = private unnamed_addr constant [33 x i8] c"vkCmdDrawIndexedIndirectCountAMD\00", align 1
@.str.281 = private unnamed_addr constant [33 x i8] c"vkCmdDrawIndexedIndirectCountKHR\00", align 1
@.str.282 = private unnamed_addr constant [30 x i8] c"vkCmdDrawIndirectByteCountEXT\00", align 1
@.str.283 = private unnamed_addr constant [23 x i8] c"vkCmdDrawIndirectCount\00", align 1
@.str.284 = private unnamed_addr constant [26 x i8] c"vkCmdDrawIndirectCountAMD\00", align 1
@.str.285 = private unnamed_addr constant [26 x i8] c"vkCmdDrawIndirectCountKHR\00", align 1
@.str.286 = private unnamed_addr constant [34 x i8] c"vkCmdDrawMeshTasksIndirectCountNV\00", align 1
@.str.287 = private unnamed_addr constant [29 x i8] c"vkCmdDrawMeshTasksIndirectNV\00", align 1
@.str.288 = private unnamed_addr constant [21 x i8] c"vkCmdDrawMeshTasksNV\00", align 1
@.str.289 = private unnamed_addr constant [20 x i8] c"vkCmdEncodeVideoKHR\00", align 1
@.str.290 = private unnamed_addr constant [32 x i8] c"vkCmdEndConditionalRenderingEXT\00", align 1
@.str.291 = private unnamed_addr constant [27 x i8] c"vkCmdEndDebugUtilsLabelEXT\00", align 1
@.str.292 = private unnamed_addr constant [24 x i8] c"vkCmdEndQueryIndexedEXT\00", align 1
@.str.293 = private unnamed_addr constant [20 x i8] c"vkCmdEndRenderPass2\00", align 1
@.str.294 = private unnamed_addr constant [23 x i8] c"vkCmdEndRenderPass2KHR\00", align 1
@.str.295 = private unnamed_addr constant [29 x i8] c"vkCmdEndTransformFeedbackEXT\00", align 1
@.str.296 = private unnamed_addr constant [23 x i8] c"vkCmdEndVideoCodingKHR\00", align 1
@.str.297 = private unnamed_addr constant [32 x i8] c"vkCmdExecuteGeneratedCommandsNV\00", align 1
@.str.298 = private unnamed_addr constant [30 x i8] c"vkCmdInsertDebugUtilsLabelEXT\00", align 1
@.str.299 = private unnamed_addr constant [18 x i8] c"vkCmdNextSubpass2\00", align 1
@.str.300 = private unnamed_addr constant [21 x i8] c"vkCmdNextSubpass2KHR\00", align 1
@.str.301 = private unnamed_addr constant [25 x i8] c"vkCmdPipelineBarrier2KHR\00", align 1
@.str.302 = private unnamed_addr constant [35 x i8] c"vkCmdPreprocessGeneratedCommandsNV\00", align 1
@.str.303 = private unnamed_addr constant [26 x i8] c"vkCmdPushDescriptorSetKHR\00", align 1
@.str.304 = private unnamed_addr constant [38 x i8] c"vkCmdPushDescriptorSetWithTemplateKHR\00", align 1
@.str.305 = private unnamed_addr constant [20 x i8] c"vkCmdResetEvent2KHR\00", align 1
@.str.306 = private unnamed_addr constant [22 x i8] c"vkCmdResolveImage2KHR\00", align 1
@.str.307 = private unnamed_addr constant [21 x i8] c"vkCmdSetCheckpointNV\00", align 1
@.str.308 = private unnamed_addr constant [28 x i8] c"vkCmdSetCoarseSampleOrderNV\00", align 1
@.str.309 = private unnamed_addr constant [28 x i8] c"vkCmdSetColorWriteEnableEXT\00", align 1
@.str.310 = private unnamed_addr constant [20 x i8] c"vkCmdSetCullModeEXT\00", align 1
@.str.311 = private unnamed_addr constant [27 x i8] c"vkCmdSetDepthBiasEnableEXT\00", align 1
@.str.312 = private unnamed_addr constant [33 x i8] c"vkCmdSetDepthBoundsTestEnableEXT\00", align 1
@.str.313 = private unnamed_addr constant [26 x i8] c"vkCmdSetDepthCompareOpEXT\00", align 1
@.str.314 = private unnamed_addr constant [27 x i8] c"vkCmdSetDepthTestEnableEXT\00", align 1
@.str.315 = private unnamed_addr constant [28 x i8] c"vkCmdSetDepthWriteEnableEXT\00", align 1
@.str.316 = private unnamed_addr constant [19 x i8] c"vkCmdSetDeviceMask\00", align 1
@.str.317 = private unnamed_addr constant [22 x i8] c"vkCmdSetDeviceMaskKHR\00", align 1
@.str.318 = private unnamed_addr constant [28 x i8] c"vkCmdSetDiscardRectangleEXT\00", align 1
@.str.319 = private unnamed_addr constant [18 x i8] c"vkCmdSetEvent2KHR\00", align 1
@.str.320 = private unnamed_addr constant [27 x i8] c"vkCmdSetExclusiveScissorNV\00", align 1
@.str.321 = private unnamed_addr constant [34 x i8] c"vkCmdSetFragmentShadingRateEnumNV\00", align 1
@.str.322 = private unnamed_addr constant [31 x i8] c"vkCmdSetFragmentShadingRateKHR\00", align 1
@.str.323 = private unnamed_addr constant [21 x i8] c"vkCmdSetFrontFaceEXT\00", align 1
@.str.324 = private unnamed_addr constant [23 x i8] c"vkCmdSetLineStippleEXT\00", align 1
@.str.325 = private unnamed_addr constant [19 x i8] c"vkCmdSetLogicOpEXT\00", align 1
@.str.326 = private unnamed_addr constant [30 x i8] c"vkCmdSetPatchControlPointsEXT\00", align 1
@.str.327 = private unnamed_addr constant [31 x i8] c"vkCmdSetPerformanceMarkerINTEL\00", align 1
@.str.328 = private unnamed_addr constant [33 x i8] c"vkCmdSetPerformanceOverrideINTEL\00", align 1
@.str.329 = private unnamed_addr constant [37 x i8] c"vkCmdSetPerformanceStreamMarkerINTEL\00", align 1
@.str.330 = private unnamed_addr constant [34 x i8] c"vkCmdSetPrimitiveRestartEnableEXT\00", align 1
@.str.331 = private unnamed_addr constant [29 x i8] c"vkCmdSetPrimitiveTopologyEXT\00", align 1
@.str.332 = private unnamed_addr constant [35 x i8] c"vkCmdSetRasterizerDiscardEnableEXT\00", align 1
@.str.333 = private unnamed_addr constant [39 x i8] c"vkCmdSetRayTracingPipelineStackSizeKHR\00", align 1
@.str.334 = private unnamed_addr constant [27 x i8] c"vkCmdSetSampleLocationsEXT\00", align 1
@.str.335 = private unnamed_addr constant [28 x i8] c"vkCmdSetScissorWithCountEXT\00", align 1
@.str.336 = private unnamed_addr constant [21 x i8] c"vkCmdSetStencilOpEXT\00", align 1
@.str.337 = private unnamed_addr constant [29 x i8] c"vkCmdSetStencilTestEnableEXT\00", align 1
@.str.338 = private unnamed_addr constant [23 x i8] c"vkCmdSetVertexInputEXT\00", align 1
@.str.339 = private unnamed_addr constant [37 x i8] c"vkCmdSetViewportShadingRatePaletteNV\00", align 1
@.str.340 = private unnamed_addr constant [27 x i8] c"vkCmdSetViewportWScalingNV\00", align 1
@.str.341 = private unnamed_addr constant [29 x i8] c"vkCmdSetViewportWithCountEXT\00", align 1
@.str.342 = private unnamed_addr constant [26 x i8] c"vkCmdTraceRaysIndirectKHR\00", align 1
@.str.343 = private unnamed_addr constant [18 x i8] c"vkCmdTraceRaysKHR\00", align 1
@.str.344 = private unnamed_addr constant [17 x i8] c"vkCmdTraceRaysNV\00", align 1
@.str.345 = private unnamed_addr constant [20 x i8] c"vkCmdWaitEvents2KHR\00", align 1
@.str.346 = private unnamed_addr constant [46 x i8] c"vkCmdWriteAccelerationStructuresPropertiesKHR\00", align 1
@.str.347 = private unnamed_addr constant [45 x i8] c"vkCmdWriteAccelerationStructuresPropertiesNV\00", align 1
@.str.348 = private unnamed_addr constant [27 x i8] c"vkCmdWriteBufferMarker2AMD\00", align 1
@.str.349 = private unnamed_addr constant [26 x i8] c"vkCmdWriteBufferMarkerAMD\00", align 1
@.str.350 = private unnamed_addr constant [24 x i8] c"vkCmdWriteTimestamp2KHR\00", align 1
@.str.351 = private unnamed_addr constant [20 x i8] c"vkCompileDeferredNV\00", align 1
@.str.352 = private unnamed_addr constant [31 x i8] c"vkCopyAccelerationStructureKHR\00", align 1
@.str.353 = private unnamed_addr constant [39 x i8] c"vkCopyAccelerationStructureToMemoryKHR\00", align 1
@.str.354 = private unnamed_addr constant [39 x i8] c"vkCopyMemoryToAccelerationStructureKHR\00", align 1
@.str.355 = private unnamed_addr constant [33 x i8] c"vkCreateAccelerationStructureKHR\00", align 1
@.str.356 = private unnamed_addr constant [32 x i8] c"vkCreateAccelerationStructureNV\00", align 1
@.str.357 = private unnamed_addr constant [22 x i8] c"vkCreateCuFunctionNVX\00", align 1
@.str.358 = private unnamed_addr constant [20 x i8] c"vkCreateCuModuleNVX\00", align 1
@.str.359 = private unnamed_addr constant [29 x i8] c"vkCreateDeferredOperationKHR\00", align 1
@.str.360 = private unnamed_addr constant [33 x i8] c"vkCreateDescriptorUpdateTemplate\00", align 1
@.str.361 = private unnamed_addr constant [36 x i8] c"vkCreateDescriptorUpdateTemplateKHR\00", align 1
@.str.362 = private unnamed_addr constant [33 x i8] c"vkCreateIndirectCommandsLayoutNV\00", align 1
@.str.363 = private unnamed_addr constant [27 x i8] c"vkCreatePrivateDataSlotEXT\00", align 1
@.str.364 = private unnamed_addr constant [31 x i8] c"vkCreateRayTracingPipelinesKHR\00", align 1
@.str.365 = private unnamed_addr constant [30 x i8] c"vkCreateRayTracingPipelinesNV\00", align 1
@.str.366 = private unnamed_addr constant [20 x i8] c"vkCreateRenderPass2\00", align 1
@.str.367 = private unnamed_addr constant [23 x i8] c"vkCreateRenderPass2KHR\00", align 1
@.str.368 = private unnamed_addr constant [31 x i8] c"vkCreateSamplerYcbcrConversion\00", align 1
@.str.369 = private unnamed_addr constant [34 x i8] c"vkCreateSamplerYcbcrConversionKHR\00", align 1
@.str.370 = private unnamed_addr constant [28 x i8] c"vkCreateSharedSwapchainsKHR\00", align 1
@.str.371 = private unnamed_addr constant [21 x i8] c"vkCreateSwapchainKHR\00", align 1
@.str.372 = private unnamed_addr constant [27 x i8] c"vkCreateValidationCacheEXT\00", align 1
@.str.373 = private unnamed_addr constant [24 x i8] c"vkCreateVideoSessionKHR\00", align 1
@.str.374 = private unnamed_addr constant [34 x i8] c"vkCreateVideoSessionParametersKHR\00", align 1
@.str.375 = private unnamed_addr constant [30 x i8] c"vkDebugMarkerSetObjectNameEXT\00", align 1
@.str.376 = private unnamed_addr constant [29 x i8] c"vkDebugMarkerSetObjectTagEXT\00", align 1
@.str.377 = private unnamed_addr constant [27 x i8] c"vkDeferredOperationJoinKHR\00", align 1
@.str.378 = private unnamed_addr constant [34 x i8] c"vkDestroyAccelerationStructureKHR\00", align 1
@.str.379 = private unnamed_addr constant [33 x i8] c"vkDestroyAccelerationStructureNV\00", align 1
@.str.380 = private unnamed_addr constant [23 x i8] c"vkDestroyCuFunctionNVX\00", align 1
@.str.381 = private unnamed_addr constant [21 x i8] c"vkDestroyCuModuleNVX\00", align 1
@.str.382 = private unnamed_addr constant [30 x i8] c"vkDestroyDeferredOperationKHR\00", align 1
@.str.383 = private unnamed_addr constant [34 x i8] c"vkDestroyDescriptorUpdateTemplate\00", align 1
@.str.384 = private unnamed_addr constant [37 x i8] c"vkDestroyDescriptorUpdateTemplateKHR\00", align 1
@.str.385 = private unnamed_addr constant [34 x i8] c"vkDestroyIndirectCommandsLayoutNV\00", align 1
@.str.386 = private unnamed_addr constant [28 x i8] c"vkDestroyPrivateDataSlotEXT\00", align 1
@.str.387 = private unnamed_addr constant [32 x i8] c"vkDestroySamplerYcbcrConversion\00", align 1
@.str.388 = private unnamed_addr constant [35 x i8] c"vkDestroySamplerYcbcrConversionKHR\00", align 1
@.str.389 = private unnamed_addr constant [22 x i8] c"vkDestroySwapchainKHR\00", align 1
@.str.390 = private unnamed_addr constant [28 x i8] c"vkDestroyValidationCacheEXT\00", align 1
@.str.391 = private unnamed_addr constant [25 x i8] c"vkDestroyVideoSessionKHR\00", align 1
@.str.392 = private unnamed_addr constant [35 x i8] c"vkDestroyVideoSessionParametersKHR\00", align 1
@.str.393 = private unnamed_addr constant [25 x i8] c"vkDisplayPowerControlEXT\00", align 1
@.str.394 = private unnamed_addr constant [40 x i8] c"vkGetAccelerationStructureBuildSizesKHR\00", align 1
@.str.395 = private unnamed_addr constant [43 x i8] c"vkGetAccelerationStructureDeviceAddressKHR\00", align 1
@.str.396 = private unnamed_addr constant [35 x i8] c"vkGetAccelerationStructureHandleNV\00", align 1
@.str.397 = private unnamed_addr constant [47 x i8] c"vkGetAccelerationStructureMemoryRequirementsNV\00", align 1
@.str.398 = private unnamed_addr constant [44 x i8] c"vkGetAndroidHardwareBufferPropertiesANDROID\00", align 1
@.str.399 = private unnamed_addr constant [51 x i8] c"VK_ANDROID_external_memory_android_hardware_buffer\00", align 1
@.str.400 = private unnamed_addr constant [25 x i8] c"vkGetBufferDeviceAddress\00", align 1
@.str.401 = private unnamed_addr constant [28 x i8] c"vkGetBufferDeviceAddressEXT\00", align 1
@.str.402 = private unnamed_addr constant [28 x i8] c"vkGetBufferDeviceAddressKHR\00", align 1
@.str.403 = private unnamed_addr constant [31 x i8] c"vkGetBufferMemoryRequirements2\00", align 1
@.str.404 = private unnamed_addr constant [34 x i8] c"vkGetBufferMemoryRequirements2KHR\00", align 1
@.str.405 = private unnamed_addr constant [32 x i8] c"vkGetBufferOpaqueCaptureAddress\00", align 1
@.str.406 = private unnamed_addr constant [35 x i8] c"vkGetBufferOpaqueCaptureAddressKHR\00", align 1
@.str.407 = private unnamed_addr constant [29 x i8] c"vkGetCalibratedTimestampsEXT\00", align 1
@.str.408 = private unnamed_addr constant [40 x i8] c"vkGetDeferredOperationMaxConcurrencyKHR\00", align 1
@.str.409 = private unnamed_addr constant [32 x i8] c"vkGetDeferredOperationResultKHR\00", align 1
@.str.410 = private unnamed_addr constant [32 x i8] c"vkGetDescriptorSetLayoutSupport\00", align 1
@.str.411 = private unnamed_addr constant [35 x i8] c"vkGetDescriptorSetLayoutSupportKHR\00", align 1
@.str.412 = private unnamed_addr constant [49 x i8] c"vkGetDeviceAccelerationStructureCompatibilityKHR\00", align 1
@.str.413 = private unnamed_addr constant [35 x i8] c"vkGetDeviceGroupPeerMemoryFeatures\00", align 1
@.str.414 = private unnamed_addr constant [38 x i8] c"vkGetDeviceGroupPeerMemoryFeaturesKHR\00", align 1
@.str.415 = private unnamed_addr constant [39 x i8] c"vkGetDeviceGroupPresentCapabilitiesKHR\00", align 1
@.str.416 = private unnamed_addr constant [40 x i8] c"vkGetDeviceGroupSurfacePresentModes2EXT\00", align 1
@.str.417 = private unnamed_addr constant [39 x i8] c"vkGetDeviceGroupSurfacePresentModesKHR\00", align 1
@.str.418 = private unnamed_addr constant [38 x i8] c"vkGetDeviceMemoryOpaqueCaptureAddress\00", align 1
@.str.419 = private unnamed_addr constant [41 x i8] c"vkGetDeviceMemoryOpaqueCaptureAddressKHR\00", align 1
@.str.420 = private unnamed_addr constant [18 x i8] c"vkGetDeviceQueue2\00", align 1
@.str.421 = private unnamed_addr constant [16 x i8] c"vkGetFenceFdKHR\00", align 1
@.str.422 = private unnamed_addr constant [25 x i8] c"vkGetFenceWin32HandleKHR\00", align 1
@.str.423 = private unnamed_addr constant [28 x i8] c"VK_KHR_external_fence_win32\00", align 1
@.str.424 = private unnamed_addr constant [43 x i8] c"vkGetGeneratedCommandsMemoryRequirementsNV\00", align 1
@.str.425 = private unnamed_addr constant [41 x i8] c"vkGetImageDrmFormatModifierPropertiesEXT\00", align 1
@.str.426 = private unnamed_addr constant [30 x i8] c"vkGetImageMemoryRequirements2\00", align 1
@.str.427 = private unnamed_addr constant [33 x i8] c"vkGetImageMemoryRequirements2KHR\00", align 1
@.str.428 = private unnamed_addr constant [36 x i8] c"vkGetImageSparseMemoryRequirements2\00", align 1
@.str.429 = private unnamed_addr constant [39 x i8] c"vkGetImageSparseMemoryRequirements2KHR\00", align 1
@.str.430 = private unnamed_addr constant [25 x i8] c"vkGetImageViewAddressNVX\00", align 1
@.str.431 = private unnamed_addr constant [24 x i8] c"vkGetImageViewHandleNVX\00", align 1
@.str.432 = private unnamed_addr constant [40 x i8] c"vkGetMemoryAndroidHardwareBufferANDROID\00", align 1
@.str.433 = private unnamed_addr constant [17 x i8] c"vkGetMemoryFdKHR\00", align 1
@.str.434 = private unnamed_addr constant [27 x i8] c"vkGetMemoryFdPropertiesKHR\00", align 1
@.str.435 = private unnamed_addr constant [36 x i8] c"vkGetMemoryHostPointerPropertiesEXT\00", align 1
@.str.436 = private unnamed_addr constant [26 x i8] c"vkGetMemoryWin32HandleKHR\00", align 1
@.str.437 = private unnamed_addr constant [29 x i8] c"VK_KHR_external_memory_win32\00", align 1
@.str.438 = private unnamed_addr constant [25 x i8] c"vkGetMemoryWin32HandleNV\00", align 1
@.str.439 = private unnamed_addr constant [28 x i8] c"VK_NV_external_memory_win32\00", align 1
@.str.440 = private unnamed_addr constant [36 x i8] c"vkGetMemoryWin32HandlePropertiesKHR\00", align 1
@.str.441 = private unnamed_addr constant [31 x i8] c"vkGetMemoryZirconHandleFUCHSIA\00", align 1
@.str.442 = private unnamed_addr constant [27 x i8] c"VK_FUCHSIA_external_memory\00", align 1
@.str.443 = private unnamed_addr constant [41 x i8] c"vkGetMemoryZirconHandlePropertiesFUCHSIA\00", align 1
@.str.444 = private unnamed_addr constant [34 x i8] c"vkGetPastPresentationTimingGOOGLE\00", align 1
@.str.445 = private unnamed_addr constant [31 x i8] c"vkGetPerformanceParameterINTEL\00", align 1
@.str.446 = private unnamed_addr constant [50 x i8] c"vkGetPipelineExecutableInternalRepresentationsKHR\00", align 1
@.str.447 = private unnamed_addr constant [37 x i8] c"vkGetPipelineExecutablePropertiesKHR\00", align 1
@.str.448 = private unnamed_addr constant [37 x i8] c"vkGetPipelineExecutableStatisticsKHR\00", align 1
@.str.449 = private unnamed_addr constant [20 x i8] c"vkGetPrivateDataEXT\00", align 1
@.str.450 = private unnamed_addr constant [28 x i8] c"vkGetQueueCheckpointData2NV\00", align 1
@.str.451 = private unnamed_addr constant [27 x i8] c"vkGetQueueCheckpointDataNV\00", align 1
@.str.452 = private unnamed_addr constant [50 x i8] c"vkGetRayTracingCaptureReplayShaderGroupHandlesKHR\00", align 1
@.str.453 = private unnamed_addr constant [37 x i8] c"vkGetRayTracingShaderGroupHandlesKHR\00", align 1
@.str.454 = private unnamed_addr constant [36 x i8] c"vkGetRayTracingShaderGroupHandlesNV\00", align 1
@.str.455 = private unnamed_addr constant [39 x i8] c"vkGetRayTracingShaderGroupStackSizeKHR\00", align 1
@.str.456 = private unnamed_addr constant [32 x i8] c"vkGetRefreshCycleDurationGOOGLE\00", align 1
@.str.457 = private unnamed_addr constant [27 x i8] c"vkGetSemaphoreCounterValue\00", align 1
@.str.458 = private unnamed_addr constant [30 x i8] c"vkGetSemaphoreCounterValueKHR\00", align 1
@.str.459 = private unnamed_addr constant [20 x i8] c"vkGetSemaphoreFdKHR\00", align 1
@.str.460 = private unnamed_addr constant [29 x i8] c"vkGetSemaphoreWin32HandleKHR\00", align 1
@.str.461 = private unnamed_addr constant [32 x i8] c"VK_KHR_external_semaphore_win32\00", align 1
@.str.462 = private unnamed_addr constant [34 x i8] c"vkGetSemaphoreZirconHandleFUCHSIA\00", align 1
@.str.463 = private unnamed_addr constant [30 x i8] c"VK_FUCHSIA_external_semaphore\00", align 1
@.str.464 = private unnamed_addr constant [19 x i8] c"vkGetShaderInfoAMD\00", align 1
@.str.465 = private unnamed_addr constant [25 x i8] c"vkGetSwapchainCounterEXT\00", align 1
@.str.466 = private unnamed_addr constant [24 x i8] c"vkGetSwapchainImagesKHR\00", align 1
@.str.467 = private unnamed_addr constant [24 x i8] c"vkGetSwapchainStatusKHR\00", align 1
@.str.468 = private unnamed_addr constant [28 x i8] c"vkGetValidationCacheDataEXT\00", align 1
@.str.469 = private unnamed_addr constant [39 x i8] c"vkGetVideoSessionMemoryRequirementsKHR\00", align 1
@.str.470 = private unnamed_addr constant [19 x i8] c"vkImportFenceFdKHR\00", align 1
@.str.471 = private unnamed_addr constant [28 x i8] c"vkImportFenceWin32HandleKHR\00", align 1
@.str.472 = private unnamed_addr constant [23 x i8] c"vkImportSemaphoreFdKHR\00", align 1
@.str.473 = private unnamed_addr constant [32 x i8] c"vkImportSemaphoreWin32HandleKHR\00", align 1
@.str.474 = private unnamed_addr constant [37 x i8] c"vkImportSemaphoreZirconHandleFUCHSIA\00", align 1
@.str.475 = private unnamed_addr constant [32 x i8] c"vkInitializePerformanceApiINTEL\00", align 1
@.str.476 = private unnamed_addr constant [27 x i8] c"vkMergeValidationCachesEXT\00", align 1
@.str.477 = private unnamed_addr constant [31 x i8] c"vkQueueBeginDebugUtilsLabelEXT\00", align 1
@.str.478 = private unnamed_addr constant [29 x i8] c"vkQueueEndDebugUtilsLabelEXT\00", align 1
@.str.479 = private unnamed_addr constant [32 x i8] c"vkQueueInsertDebugUtilsLabelEXT\00", align 1
@.str.480 = private unnamed_addr constant [18 x i8] c"vkQueuePresentKHR\00", align 1
@.str.481 = private unnamed_addr constant [40 x i8] c"vkQueueSetPerformanceConfigurationINTEL\00", align 1
@.str.482 = private unnamed_addr constant [18 x i8] c"vkQueueSubmit2KHR\00", align 1
@.str.483 = private unnamed_addr constant [25 x i8] c"vkRegisterDeviceEventEXT\00", align 1
@.str.484 = private unnamed_addr constant [26 x i8] c"vkRegisterDisplayEventEXT\00", align 1
@.str.485 = private unnamed_addr constant [36 x i8] c"vkReleaseFullScreenExclusiveModeEXT\00", align 1
@.str.486 = private unnamed_addr constant [39 x i8] c"vkReleasePerformanceConfigurationINTEL\00", align 1
@.str.487 = private unnamed_addr constant [26 x i8] c"vkReleaseProfilingLockKHR\00", align 1
@.str.488 = private unnamed_addr constant [17 x i8] c"vkResetQueryPool\00", align 1
@.str.489 = private unnamed_addr constant [20 x i8] c"vkResetQueryPoolEXT\00", align 1
@.str.490 = private unnamed_addr constant [29 x i8] c"vkSetDebugUtilsObjectNameEXT\00", align 1
@.str.491 = private unnamed_addr constant [28 x i8] c"vkSetDebugUtilsObjectTagEXT\00", align 1
@.str.492 = private unnamed_addr constant [20 x i8] c"vkSetHdrMetadataEXT\00", align 1
@.str.493 = private unnamed_addr constant [21 x i8] c"vkSetLocalDimmingAMD\00", align 1
@.str.494 = private unnamed_addr constant [20 x i8] c"vkSetPrivateDataEXT\00", align 1
@.str.495 = private unnamed_addr constant [18 x i8] c"vkSignalSemaphore\00", align 1
@.str.496 = private unnamed_addr constant [21 x i8] c"vkSignalSemaphoreKHR\00", align 1
@.str.497 = private unnamed_addr constant [18 x i8] c"vkTrimCommandPool\00", align 1
@.str.498 = private unnamed_addr constant [21 x i8] c"vkTrimCommandPoolKHR\00", align 1
@.str.499 = private unnamed_addr constant [34 x i8] c"vkUninitializePerformanceApiINTEL\00", align 1
@.str.500 = private unnamed_addr constant [34 x i8] c"vkUpdateDescriptorSetWithTemplate\00", align 1
@.str.501 = private unnamed_addr constant [37 x i8] c"vkUpdateDescriptorSetWithTemplateKHR\00", align 1
@.str.502 = private unnamed_addr constant [34 x i8] c"vkUpdateVideoSessionParametersKHR\00", align 1
@.str.503 = private unnamed_addr constant [17 x i8] c"vkWaitSemaphores\00", align 1
@.str.504 = private unnamed_addr constant [20 x i8] c"vkWaitSemaphoresKHR\00", align 1
@.str.505 = private unnamed_addr constant [43 x i8] c"vkWriteAccelerationStructuresPropertiesKHR\00", align 1
@.str.507 = private unnamed_addr constant [8 x i8] c" index:\00", align 1
@.str.508 = private unnamed_addr constant [2 x i8] c"[\00", align 1
@.str.509 = private unnamed_addr constant [2 x i8] c"]\00", align 1
@.str.510 = private unnamed_addr constant [9 x i8] c" member:\00", align 1
@.str.511 = private unnamed_addr constant [9 x i8] c" offset:\00", align 1
@.str.512 = private unnamed_addr constant [5 x i8] c"bool\00", align 1
@.str.513 = private unnamed_addr constant [4 x i8] c"int\00", align 1
@.str.514 = private unnamed_addr constant [6 x i8] c"float\00", align 1
@.str.515 = private unnamed_addr constant [4 x i8] c"vec\00", align 1
@.str.516 = private unnamed_addr constant [5 x i8] c" of \00", align 1
@.str.517 = private unnamed_addr constant [4 x i8] c"mat\00", align 1
@.str.518 = private unnamed_addr constant [5 x i8] c"arr[\00", align 1
@.str.519 = private unnamed_addr constant [6 x i8] c"] of \00", align 1
@.str.520 = private unnamed_addr constant [18 x i8] c"runtime arr[] of \00", align 1
@.str.521 = private unnamed_addr constant [8 x i8] c"ptr to \00", align 1
@.str.522 = private unnamed_addr constant [2 x i8] c" \00", align 1
@.str.523 = private unnamed_addr constant [12 x i8] c"struct of (\00", align 1
@.str.524 = private unnamed_addr constant [2 x i8] c")\00", align 1
@.str.525 = private unnamed_addr constant [3 x i8] c", \00", align 1
@.str.526 = private unnamed_addr constant [8 x i8] c"sampler\00", align 1
@.str.527 = private unnamed_addr constant [9 x i8] c"sampler+\00", align 1
@.str.528 = private unnamed_addr constant [11 x i8] c"image(dim=\00", align 1
@.str.529 = private unnamed_addr constant [11 x i8] c", sampled=\00", align 1
@.str.530 = private unnamed_addr constant [21 x i8] c"accelerationStruture\00", align 1
@.str.531 = private unnamed_addr constant [8 x i8] c"oddtype\00", align 1
@__const._ZNK19SHADER_MODULE_STATE32CollectInterfaceByDescriptorSlotERKNSt3__113unordered_setIjNS0_4hashIjEENS0_8equal_toIjEENS0_9allocatorIjEEEEPbSB_.operators = private unnamed_addr constant { i8, [7 x i8], %"class.std::__1::vector.108", %"class.std::__1::vector.108", %"class.std::__1::vector.108", %"class.std::__1::vector.108", %"class.std::__1::vector.108", %"class.std::__1::vector.108", %"class.std::__1::vector.645", %"class.std::__1::unordered_map.245", %"class.std::__1::unordered_map.653", %"class.std::__1::unordered_map.245" } { i8 -86, [7 x i8] c"\AA\AA\AA\AA\AA\AA\AA", %"class.std::__1::vector.108" { %"class.std::__1::__vector_base.109" { i32* inttoptr (i64 -6148914691236517206 to i32*), i32* inttoptr (i64 -6148914691236517206 to i32*), %"class.std::__1::__compressed_pair.110" { %"struct.std::__1::__compressed_pair_elem.111" { i32* inttoptr (i64 -6148914691236517206 to i32*) } } } }, %"class.std::__1::vector.108" { %"class.std::__1::__vector_base.109" { i32* inttoptr (i64 -6148914691236517206 to i32*), i32* inttoptr (i64 -6148914691236517206 to i32*), %"class.std::__1::__compressed_pair.110" { %"struct.std::__1::__compressed_pair_elem.111" { i32* inttoptr (i64 -6148914691236517206 to i32*) } } } }, %"class.std::__1::vector.108" { %"class.std::__1::__vector_base.109" { i32* inttoptr (i64 -6148914691236517206 to i32*), i32* inttoptr (i64 -6148914691236517206 to i32*), %"class.std::__1::__compressed_pair.110" { %"struct.std::__1::__compressed_pair_elem.111" { i32* inttoptr (i64 -6148914691236517206 to i32*) } } } }, %"class.std::__1::vector.108" { %"class.std::__1::__vector_base.109" { i32* inttoptr (i64 -6148914691236517206 to i32*), i32* inttoptr (i64 -6148914691236517206 to i32*), %"class.std::__1::__compressed_pair.110" { %"struct.std::__1::__compressed_pair_elem.111" { i32* inttoptr (i64 -6148914691236517206 to i32*) } } } }, %"class.std::__1::vector.108" { %"class.std::__1::__vector_base.109" { i32* inttoptr (i64 -6148914691236517206 to i32*), i32* inttoptr (i64 -6148914691236517206 to i32*), %"class.std::__1::__compressed_pair.110" { %"struct.std::__1::__compressed_pair_elem.111" { i32* inttoptr (i64 -6148914691236517206 to i32*) } } } }, %"class.std::__1::vector.108" { %"class.std::__1::__vector_base.109" { i32* inttoptr (i64 -6148914691236517206 to i32*), i32* inttoptr (i64 -6148914691236517206 to i32*), %"class.std::__1::__compressed_pair.110" { %"struct.std::__1::__compressed_pair_elem.111" { i32* inttoptr (i64 -6148914691236517206 to i32*) } } } }, %"class.std::__1::vector.645" { %"class.std::__1::__vector_base.646" { %"struct.std::__1::pair.647"* inttoptr (i64 -6148914691236517206 to %"struct.std::__1::pair.647"*), %"struct.std::__1::pair.647"* inttoptr (i64 -6148914691236517206 to %"struct.std::__1::pair.647"*), %"class.std::__1::__compressed_pair.648" { %"struct.std::__1::__compressed_pair_elem.649" { %"struct.std::__1::pair.647"* inttoptr (i64 -6148914691236517206 to %"struct.std::__1::pair.647"*) } } } }, %"class.std::__1::unordered_map.245" { %"class.std::__1::__hash_table.246" <{ %"class.std::__1::unique_ptr.247" { %"class.std::__1::__compressed_pair.248" { %"struct.std::__1::__compressed_pair_elem.249" { %"struct.std::__1::__hash_node_base.250"** inttoptr (i64 -6148914691236517206 to %"struct.std::__1::__hash_node_base.250"**) }, %"struct.std::__1::__compressed_pair_elem.251" { %"class.std::__1::__bucket_list_deallocator.252" { %"class.std::__1::__compressed_pair.253" { %"struct.std::__1::__compressed_pair_elem.2" { i64 -6148914691236517206 } } } } } }, %"class.std::__1::__compressed_pair.257" { %"struct.std::__1::__compressed_pair_elem.258" { %"struct.std::__1::__hash_node_base.250" { %"struct.std::__1::__hash_node_base.250"* inttoptr (i64 -6148914691236517206 to %"struct.std::__1::__hash_node_base.250"*) } } }, %"class.std::__1::__compressed_pair.262" { %"struct.std::__1::__compressed_pair_elem.2" { i64 -6148914691236517206 } }, %"class.std::__1::__compressed_pair.265" { %"struct.std::__1::__compressed_pair_elem.12" { float 0xFFFFFFFFE0000000 } }, [4 x i8] c"\AA\AA\AA\AA" }> }, %"class.std::__1::unordered_map.653" { %"class.std::__1::__hash_table.654" <{ %"class.std::__1::unique_ptr.655" { %"class.std::__1::__compressed_pair.656" { %"struct.std::__1::__compressed_pair_elem.657" { %"struct.std::__1::__hash_node_base.658"** inttoptr (i64 -6148914691236517206 to %"struct.std::__1::__hash_node_base.658"**) }, %"struct.std::__1::__compressed_pair_elem.659" { %"class.std::__1::__bucket_list_deallocator.660" { %"class.std::__1::__compressed_pair.661" { %"struct.std::__1::__compressed_pair_elem.2" { i64 -6148914691236517206 } } } } } }, %"class.std::__1::__compressed_pair.665" { %"struct.std::__1::__compressed_pair_elem.666" { %"struct.std::__1::__hash_node_base.658" { %"struct.std::__1::__hash_node_base.658"* inttoptr (i64 -6148914691236517206 to %"struct.std::__1::__hash_node_base.658"*) } } }, %"class.std::__1::__compressed_pair.670" { %"struct.std::__1::__compressed_pair_elem.2" { i64 -6148914691236517206 } }, %"class.std::__1::__compressed_pair.673" { %"struct.std::__1::__compressed_pair_elem.12" { float 0xFFFFFFFFE0000000 } }, [4 x i8] c"\AA\AA\AA\AA" }> }, %"class.std::__1::unordered_map.245" { %"class.std::__1::__hash_table.246" <{ %"class.std::__1::unique_ptr.247" { %"class.std::__1::__compressed_pair.248" { %"struct.std::__1::__compressed_pair_elem.249" { %"struct.std::__1::__hash_node_base.250"** inttoptr (i64 -6148914691236517206 to %"struct.std::__1::__hash_node_base.250"**) }, %"struct.std::__1::__compressed_pair_elem.251" { %"class.std::__1::__bucket_list_deallocator.252" { %"class.std::__1::__compressed_pair.253" { %"struct.std::__1::__compressed_pair_elem.2" { i64 -6148914691236517206 } } } } } }, %"class.std::__1::__compressed_pair.257" { %"struct.std::__1::__compressed_pair_elem.258" { %"struct.std::__1::__hash_node_base.250" { %"struct.std::__1::__hash_node_base.250"* inttoptr (i64 -6148914691236517206 to %"struct.std::__1::__hash_node_base.250"*) } } }, %"class.std::__1::__compressed_pair.262" { %"struct.std::__1::__compressed_pair_elem.2" { i64 -6148914691236517206 } }, %"class.std::__1::__compressed_pair.265" { %"struct.std::__1::__compressed_pair_elem.12" { float 0xFFFFFFFFE0000000 } }, [4 x i8] c"\AA\AA\AA\AA" }> } }, align 8
@.str.532 = private unnamed_addr constant [6 x i8] c"input\00", align 1
@.str.533 = private unnamed_addr constant [7 x i8] c"output\00", align 1
@.str.534 = private unnamed_addr constant [14 x i8] c"const uniform\00", align 1
@.str.535 = private unnamed_addr constant [8 x i8] c"uniform\00", align 1
@.str.536 = private unnamed_addr constant [16 x i8] c"workgroup local\00", align 1
@.str.537 = private unnamed_addr constant [17 x i8] c"workgroup global\00", align 1
@.str.538 = private unnamed_addr constant [15 x i8] c"private global\00", align 1
@.str.539 = private unnamed_addr constant [9 x i8] c"function\00", align 1
@.str.540 = private unnamed_addr constant [8 x i8] c"generic\00", align 1
@.str.541 = private unnamed_addr constant [15 x i8] c"atomic counter\00", align 1
@.str.542 = private unnamed_addr constant [6 x i8] c"image\00", align 1
@.str.543 = private unnamed_addr constant [14 x i8] c"push constant\00", align 1
@.str.544 = private unnamed_addr constant [15 x i8] c"storage buffer\00", align 1
@.str.545 = private unnamed_addr constant [8 x i8] c"unknown\00", align 1
@_ZTVNSt3__119basic_ostringstreamIcNS_11char_traitsIcEENS_9allocatorIcEEEE = external unnamed_addr constant { [5 x i8*], [5 x i8*] }, align 8
@_ZTTNSt3__119basic_ostringstreamIcNS_11char_traitsIcEENS_9allocatorIcEEEE = external unnamed_addr constant [4 x i8*], align 8
@_ZTVNSt3__115basic_stringbufIcNS_11char_traitsIcEENS_9allocatorIcEEEE = external unnamed_addr constant { [16 x i8*] }, align 8
@_ZNSt3__15ctypeIcE2idE = external global %"class.std::__1::locale::id", align 8
@_ZNSt3__1L19piecewise_constructE = internal constant %"struct.std::__1::piecewise_construct_t" undef, align 1
@llvm.global_ctors = appending global [1 x { i32, void ()*, i8* }] [{ i32, void ()*, i8* } { i32 65535, void ()* @_GLOBAL__sub_I_shader_module.cpp, i8* null }]
@switch.table._ZNK19SHADER_MODULE_STATE17DescribeTypeInnerERNSt3__119basic_ostringstreamIcNS0_11char_traitsIcEENS0_9allocatorIcEEEEj = private unnamed_addr constant [13 x i8*] [i8* getelementptr inbounds ([14 x i8], [14 x i8]* @.str.534, i64 0, i64 0), i8* getelementptr inbounds ([6 x i8], [6 x i8]* @.str.532, i64 0, i64 0), i8* getelementptr inbounds ([8 x i8], [8 x i8]* @.str.535, i64 0, i64 0), i8* getelementptr inbounds ([7 x i8], [7 x i8]* @.str.533, i64 0, i64 0), i8* getelementptr inbounds ([16 x i8], [16 x i8]* @.str.536, i64 0, i64 0), i8* getelementptr inbounds ([17 x i8], [17 x i8]* @.str.537, i64 0, i64 0), i8* getelementptr inbounds ([15 x i8], [15 x i8]* @.str.538, i64 0, i64 0), i8* getelementptr inbounds ([9 x i8], [9 x i8]* @.str.539, i64 0, i64 0), i8* getelementptr inbounds ([8 x i8], [8 x i8]* @.str.540, i64 0, i64 0), i8* getelementptr inbounds ([14 x i8], [14 x i8]* @.str.543, i64 0, i64 0), i8* getelementptr inbounds ([15 x i8], [15 x i8]* @.str.541, i64 0, i64 0), i8* getelementptr inbounds ([6 x i8], [6 x i8]* @.str.542, i64 0, i64 0), i8* getelementptr inbounds ([15 x i8], [15 x i8]* @.str.544, i64 0, i64 0)], align 8
@switch.table._ZNK19SHADER_MODULE_STATE20DescriptorTypeToReqsEj = private unnamed_addr constant [4 x i32] [i32 512, i32 1024, i32 0, i32 2048], align 4

; Function Attrs: argmemonly nounwind
declare void @llvm.lifetime.start.p0i8(i64 immarg, i8* nocapture) #0

; Function Attrs: argmemonly nounwind
declare void @llvm.lifetime.end.p0i8(i64 immarg, i8* nocapture) #0

; Function Attrs: nounwind ssp uwtable
define linkonce_odr hidden void @_ZNSt3__113unordered_mapINS_12basic_stringIcNS_11char_traitsIcEENS_9allocatorIcEEEEjNS_4hashIS6_EENS_8equal_toIS6_EENS4_INS_4pairIKS6_jEEEEED2Ev(%"class.std::__1::unordered_map"*) unnamed_addr #1 comdat align 2 {
  %2 = getelementptr inbounds %"class.std::__1::unordered_map", %"class.std::__1::unordered_map"* %0, i64 0, i32 0, i32 1, i32 0, i32 0, i32 0
  %3 = load %"struct.std::__1::__hash_node_base"*, %"struct.std::__1::__hash_node_base"** %2, align 8
  %4 = icmp eq %"struct.std::__1::__hash_node_base"* %3, null
  br i1 %4, label %20, label %5

5:                                                ; preds = %1, %17
  %6 = phi %"struct.std::__1::__hash_node_base"* [ %8, %17 ], [ %3, %1 ]
  %7 = getelementptr inbounds %"struct.std::__1::__hash_node_base", %"struct.std::__1::__hash_node_base"* %6, i64 0, i32 0
  %8 = load %"struct.std::__1::__hash_node_base"*, %"struct.std::__1::__hash_node_base"** %7, align 8
  %9 = getelementptr inbounds %"struct.std::__1::__hash_node_base", %"struct.std::__1::__hash_node_base"* %6, i64 2
  %10 = bitcast %"struct.std::__1::__hash_node_base"* %9 to %"struct.std::__1::basic_string<char, std::__1::char_traits<char>, std::__1::allocator<char> >::__short"*
  %11 = getelementptr inbounds %"struct.std::__1::basic_string<char, std::__1::char_traits<char>, std::__1::allocator<char> >::__short", %"struct.std::__1::basic_string<char, std::__1::char_traits<char>, std::__1::allocator<char> >::__short"* %10, i64 0, i32 1, i32 0
  %12 = load i8, i8* %11, align 1
  %13 = icmp slt i8 %12, 0
  br i1 %13, label %14, label %17

14:                                               ; preds = %5
  %15 = bitcast %"struct.std::__1::__hash_node_base"* %9 to i8**
  %16 = load i8*, i8** %15, align 8
  tail call void @_ZdlPv(i8* %16) #18
  br label %17

17:                                               ; preds = %14, %5
  %18 = bitcast %"struct.std::__1::__hash_node_base"* %6 to i8*
  tail call void @_ZdlPv(i8* %18) #18
  %19 = icmp eq %"struct.std::__1::__hash_node_base"* %8, null
  br i1 %19, label %20, label %5

20:                                               ; preds = %17, %1
  %21 = getelementptr inbounds %"class.std::__1::unordered_map", %"class.std::__1::unordered_map"* %0, i64 0, i32 0, i32 0, i32 0, i32 0, i32 0
  %22 = load %"struct.std::__1::__hash_node_base"**, %"struct.std::__1::__hash_node_base"*** %21, align 8
  store %"struct.std::__1::__hash_node_base"** null, %"struct.std::__1::__hash_node_base"*** %21, align 8
  %23 = icmp eq %"struct.std::__1::__hash_node_base"** %22, null
  br i1 %23, label %26, label %24

24:                                               ; preds = %20
  %25 = bitcast %"struct.std::__1::__hash_node_base"** %22 to i8*
  tail call void @_ZdlPv(i8* %25) #18
  br label %26

26:                                               ; preds = %20, %24
  ret void
}

; Function Attrs: nofree nounwind
declare i32 @__cxa_atexit(void (i8*)*, i8*, i8*) local_unnamed_addr #2

; Function Attrs: nounwind ssp uwtable
define weak_odr hidden %struct._debug_report_data* @_Z15GetLayerDataPtrI18_debug_report_dataEPT_PvRNSt3__113unordered_mapIS3_S2_NS4_4hashIS3_EENS4_8equal_toIS3_EENS4_9allocatorINS4_4pairIKS3_S2_EEEEEE(i8*, %"class.std::__1::unordered_map.143"* dereferenceable(40)) local_unnamed_addr #1 comdat {
  %3 = alloca %"class.std::__1::tuple", align 8
  %4 = alloca %"class.std::__1::tuple.758", align 1
  %5 = alloca i8*, align 8
  %6 = ptrtoint i8* %0 to i64
  %7 = lshr i64 %6, 32
  %8 = shl i64 %6, 3
  %9 = and i64 %8, 4294967288
  %10 = add nuw nsw i64 %9, 8
  %11 = xor i64 %10, %7
  %12 = mul i64 %11, -7070675565921424023
  %13 = lshr i64 %12, 47
  %14 = xor i64 %12, %7
  %15 = xor i64 %14, %13
  %16 = mul i64 %15, -7070675565921424023
  %17 = lshr i64 %16, 47
  %18 = xor i64 %17, %16
  %19 = mul i64 %18, -7070675565921424023
  %20 = getelementptr inbounds %"class.std::__1::unordered_map.143", %"class.std::__1::unordered_map.143"* %1, i64 0, i32 0, i32 0, i32 0, i32 1, i32 0, i32 0, i32 0, i32 0
  %21 = load i64, i64* %20, align 8
  %22 = icmp eq i64 %21, 0
  br i1 %22, label %71, label %23

23:                                               ; preds = %2
  %24 = tail call i64 @llvm.ctpop.i64(i64 %21) #19, !range !2
  %25 = icmp ugt i64 %24, 1
  br i1 %25, label %29, label %26

26:                                               ; preds = %23
  %27 = add i64 %21, -1
  %28 = and i64 %27, %19
  br label %33

29:                                               ; preds = %23
  %30 = icmp ult i64 %19, %21
  br i1 %30, label %33, label %31

31:                                               ; preds = %29
  %32 = urem i64 %19, %21
  br label %33

33:                                               ; preds = %31, %29, %26
  %34 = phi i64 [ %28, %26 ], [ %32, %31 ], [ %19, %29 ]
  %35 = getelementptr inbounds %"class.std::__1::unordered_map.143", %"class.std::__1::unordered_map.143"* %1, i64 0, i32 0, i32 0, i32 0, i32 0, i32 0
  %36 = load %"struct.std::__1::__hash_node_base.148"**, %"struct.std::__1::__hash_node_base.148"*** %35, align 8
  %37 = getelementptr inbounds %"struct.std::__1::__hash_node_base.148"*, %"struct.std::__1::__hash_node_base.148"** %36, i64 %34
  %38 = load %"struct.std::__1::__hash_node_base.148"*, %"struct.std::__1::__hash_node_base.148"** %37, align 8
  %39 = icmp eq %"struct.std::__1::__hash_node_base.148"* %38, null
  br i1 %39, label %71, label %40

40:                                               ; preds = %33
  %41 = getelementptr inbounds %"struct.std::__1::__hash_node_base.148", %"struct.std::__1::__hash_node_base.148"* %38, i64 0, i32 0
  %42 = load %"struct.std::__1::__hash_node_base.148"*, %"struct.std::__1::__hash_node_base.148"** %41, align 8
  %43 = icmp eq %"struct.std::__1::__hash_node_base.148"* %42, null
  br i1 %43, label %71, label %44

44:                                               ; preds = %40
  %45 = add i64 %21, -1
  br label %46

46:                                               ; preds = %67, %44
  %47 = phi %"struct.std::__1::__hash_node_base.148"* [ %42, %44 ], [ %69, %67 ]
  %48 = getelementptr inbounds %"struct.std::__1::__hash_node_base.148", %"struct.std::__1::__hash_node_base.148"* %47, i64 1
  %49 = bitcast %"struct.std::__1::__hash_node_base.148"* %48 to i64*
  %50 = load i64, i64* %49, align 8
  %51 = icmp eq i64 %50, %19
  br i1 %51, label %62, label %52

52:                                               ; preds = %46
  br i1 %25, label %55, label %53

53:                                               ; preds = %52
  %54 = and i64 %50, %45
  br label %59

55:                                               ; preds = %52
  %56 = icmp ult i64 %50, %21
  br i1 %56, label %59, label %57

57:                                               ; preds = %55
  %58 = urem i64 %50, %21
  br label %59

59:                                               ; preds = %57, %55, %53
  %60 = phi i64 [ %54, %53 ], [ %58, %57 ], [ %50, %55 ]
  %61 = icmp eq i64 %60, %34
  br i1 %61, label %67, label %71

62:                                               ; preds = %46
  %63 = getelementptr inbounds %"struct.std::__1::__hash_node_base.148", %"struct.std::__1::__hash_node_base.148"* %47, i64 2
  %64 = bitcast %"struct.std::__1::__hash_node_base.148"* %63 to i8**
  %65 = load i8*, i8** %64, align 8
  %66 = icmp eq i8* %65, %0
  br i1 %66, label %103, label %67

67:                                               ; preds = %62, %59
  %68 = getelementptr inbounds %"struct.std::__1::__hash_node_base.148", %"struct.std::__1::__hash_node_base.148"* %47, i64 0, i32 0
  %69 = load %"struct.std::__1::__hash_node_base.148"*, %"struct.std::__1::__hash_node_base.148"** %68, align 8
  %70 = icmp eq %"struct.std::__1::__hash_node_base.148"* %69, null
  br i1 %70, label %71, label %46

71:                                               ; preds = %59, %67, %33, %2, %40
  %72 = tail call i8* @_Znwm(i64 328) #18
  %73 = bitcast i8* %72 to %struct._debug_report_data*
  %74 = getelementptr inbounds i8, i8* %72, i64 40
  %75 = getelementptr inbounds i8, i8* %72, i64 72
  %76 = bitcast i8* %75 to i32*
  tail call void @llvm.memset.p0i8.i64(i8* align 8 %74, i8 0, i64 32, i1 false) #19
  tail call void @llvm.memset.p0i8.i64(i8* nonnull align 8 %72, i8 0, i64 34, i1 false) #19
  store i32 1065353216, i32* %76, align 4
  %77 = getelementptr inbounds i8, i8* %72, i64 80
  %78 = getelementptr inbounds i8, i8* %72, i64 112
  %79 = bitcast i8* %78 to i32*
  tail call void @llvm.memset.p0i8.i64(i8* align 8 %77, i8 0, i64 32, i1 false) #19
  store i32 1065353216, i32* %79, align 4
  %80 = getelementptr inbounds i8, i8* %72, i64 120
  %81 = getelementptr inbounds i8, i8* %72, i64 152
  %82 = bitcast i8* %81 to i32*
  tail call void @llvm.memset.p0i8.i64(i8* align 8 %80, i8 0, i64 32, i1 false) #19
  store i32 1065353216, i32* %82, align 4
  %83 = getelementptr inbounds i8, i8* %72, i64 160
  %84 = getelementptr inbounds i8, i8* %72, i64 192
  %85 = bitcast i8* %84 to i32*
  tail call void @llvm.memset.p0i8.i64(i8* align 8 %83, i8 0, i64 32, i1 false) #19
  store i32 1065353216, i32* %85, align 4
  %86 = getelementptr inbounds i8, i8* %72, i64 200
  %87 = getelementptr inbounds i8, i8* %72, i64 272
  %88 = getelementptr inbounds i8, i8* %72, i64 304
  %89 = bitcast i8* %88 to i32*
  tail call void @llvm.memset.p0i8.i64(i8* align 8 %87, i8 0, i64 32, i1 false) #19
  tail call void @llvm.memset.p0i8.i64(i8* align 8 %86, i8 0, i64 68, i1 false) #19
  store i32 1065353216, i32* %89, align 4
  %90 = getelementptr inbounds i8, i8* %72, i64 312
  %91 = bitcast i8* %90 to i8**
  store i8* null, i8** %91, align 8
  %92 = getelementptr inbounds i8, i8* %72, i64 320
  store i8 0, i8* %92, align 8
  %93 = bitcast i8** %5 to i8*
  call void @llvm.lifetime.start.p0i8(i64 8, i8* nonnull %93) #19
  %94 = bitcast i8** %5 to i64*
  store i64 %6, i64* %94, align 8
  %95 = getelementptr inbounds %"class.std::__1::unordered_map.143", %"class.std::__1::unordered_map.143"* %1, i64 0, i32 0
  %96 = bitcast %"class.std::__1::tuple"* %3 to i8*
  call void @llvm.lifetime.start.p0i8(i64 8, i8* nonnull %96) #19
  %97 = getelementptr inbounds %"class.std::__1::tuple", %"class.std::__1::tuple"* %3, i64 0, i32 0, i32 0, i32 0
  store i8** %5, i8*** %97, align 8
  %98 = getelementptr inbounds %"class.std::__1::tuple.758", %"class.std::__1::tuple.758"* %4, i64 0, i32 0
  call void @llvm.lifetime.start.p0i8(i64 1, i8* nonnull %98) #19
  %99 = call { %"struct.std::__1::__hash_node_base.148"*, i8 } @_ZNSt3__112__hash_tableINS_17__hash_value_typeIPvP18_debug_report_dataEENS_22__unordered_map_hasherIS2_S5_NS_4hashIS2_EENS_8equal_toIS2_EELb1EEENS_21__unordered_map_equalIS2_S5_SA_S8_Lb1EEENS_9allocatorIS5_EEE25__emplace_unique_key_argsIS2_JRKNS_21piecewise_construct_tENS_5tupleIJOS2_EEENSL_IJEEEEEENS_4pairINS_15__hash_iteratorIPNS_11__hash_nodeIS5_S2_EEEEbEERKT_DpOT0_(%"class.std::__1::__hash_table.144"* %95, i8** nonnull dereferenceable(8) %5, %"struct.std::__1::piecewise_construct_t"* nonnull dereferenceable(1) @_ZNSt3__1L19piecewise_constructE, %"class.std::__1::tuple"* nonnull dereferenceable(8) %3, %"class.std::__1::tuple.758"* nonnull dereferenceable(1) %4) #19
  %100 = extractvalue { %"struct.std::__1::__hash_node_base.148"*, i8 } %99, 0
  %101 = getelementptr inbounds %"struct.std::__1::__hash_node_base.148", %"struct.std::__1::__hash_node_base.148"* %100, i64 3
  call void @llvm.lifetime.end.p0i8(i64 1, i8* nonnull %98) #19
  call void @llvm.lifetime.end.p0i8(i64 8, i8* nonnull %96) #19
  %102 = bitcast %"struct.std::__1::__hash_node_base.148"* %101 to i8**
  store i8* %72, i8** %102, align 8
  call void @llvm.lifetime.end.p0i8(i64 8, i8* nonnull %93) #19
  br label %107

103:                                              ; preds = %62
  %104 = getelementptr inbounds %"struct.std::__1::__hash_node_base.148", %"struct.std::__1::__hash_node_base.148"* %47, i64 3
  %105 = bitcast %"struct.std::__1::__hash_node_base.148"* %104 to %struct._debug_report_data**
  %106 = load %struct._debug_report_data*, %struct._debug_report_data** %105, align 8
  br label %107

107:                                              ; preds = %103, %71
  %108 = phi %struct._debug_report_data* [ %73, %71 ], [ %106, %103 ]
  ret %struct._debug_report_data* %108
}

; Function Attrs: nobuiltin nofree
declare noalias nonnull i8* @_Znwm(i64) local_unnamed_addr #3

; Function Attrs: nounwind ssp uwtable
define linkonce_odr hidden void @_ZNSt3__13setINS_12basic_stringIcNS_11char_traitsIcEENS_9allocatorIcEEEENS_4lessIS6_EENS4_IS6_EEED2Ev(%"class.std::__1::set"*) unnamed_addr #1 comdat align 2 {
  %2 = getelementptr inbounds %"class.std::__1::set", %"class.std::__1::set"* %0, i64 0, i32 0
  %3 = getelementptr inbounds %"class.std::__1::set", %"class.std::__1::set"* %0, i64 0, i32 0, i32 1, i32 0, i32 0
  %4 = bitcast %"class.std::__1::__tree_end_node"* %3 to %"class.std::__1::__tree_node.771"**
  %5 = load %"class.std::__1::__tree_node.771"*, %"class.std::__1::__tree_node.771"** %4, align 8
  tail call void @_ZNSt3__16__treeINS_12basic_stringIcNS_11char_traitsIcEENS_9allocatorIcEEEENS_4lessIS6_EENS4_IS6_EEE7destroyEPNS_11__tree_nodeIS6_PvEE(%"class.std::__1::__tree"* %2, %"class.std::__1::__tree_node.771"* %5) #19
  ret void
}

; Function Attrs: nounwind ssp uwtable
define linkonce_odr hidden void @_ZNSt3__14pairIKNS_12basic_stringIcNS_11char_traitsIcEENS_9allocatorIcEEEES6_EC2IRA36_KcRA29_SA_Lb0EEEOT_OT0_(%"struct.std::__1::pair.205"*, [36 x i8]* dereferenceable(36), [29 x i8]* dereferenceable(29)) unnamed_addr #1 comdat align 2 {
  %4 = getelementptr inbounds [36 x i8], [36 x i8]* %1, i64 0, i64 0
  %5 = tail call i64 @strlen(i8* %4) #19
  %6 = icmp ugt i64 %5, -17
  br i1 %6, label %7, label %9

7:                                                ; preds = %3
  %8 = bitcast %"struct.std::__1::pair.205"* %0 to %"class.std::__1::__basic_string_common"*
  tail call void @_ZNKSt3__121__basic_string_commonILb1EE20__throw_length_errorEv(%"class.std::__1::__basic_string_common"* %8) #20
  unreachable

9:                                                ; preds = %3
  %10 = icmp ult i64 %5, 23
  br i1 %10, label %19, label %11

11:                                               ; preds = %9
  %12 = add nuw i64 %5, 16
  %13 = and i64 %12, -16
  %14 = tail call i8* @_Znwm(i64 %13) #18
  %15 = getelementptr inbounds %"struct.std::__1::pair.205", %"struct.std::__1::pair.205"* %0, i64 0, i32 0, i32 0, i32 0, i32 0, i32 0, i32 0, i32 0
  store i8* %14, i8** %15, align 8
  %16 = or i64 %13, -9223372036854775808
  %17 = getelementptr inbounds %"struct.std::__1::pair.205", %"struct.std::__1::pair.205"* %0, i64 0, i32 0, i32 0, i32 0, i32 0, i32 0, i32 0, i32 2
  store i64 %16, i64* %17, align 8
  %18 = getelementptr inbounds %"struct.std::__1::pair.205", %"struct.std::__1::pair.205"* %0, i64 0, i32 0, i32 0, i32 0, i32 0, i32 0, i32 0, i32 1
  store i64 %5, i64* %18, align 8
  br label %25

19:                                               ; preds = %9
  %20 = trunc i64 %5 to i8
  %21 = bitcast %"struct.std::__1::pair.205"* %0 to %"struct.std::__1::basic_string<char, std::__1::char_traits<char>, std::__1::allocator<char> >::__short"*
  %22 = getelementptr inbounds %"struct.std::__1::basic_string<char, std::__1::char_traits<char>, std::__1::allocator<char> >::__short", %"struct.std::__1::basic_string<char, std::__1::char_traits<char>, std::__1::allocator<char> >::__short"* %21, i64 0, i32 1, i32 0
  store i8 %20, i8* %22, align 1
  %23 = bitcast %"struct.std::__1::pair.205"* %0 to i8*
  %24 = icmp eq i64 %5, 0
  br i1 %24, label %27, label %25

25:                                               ; preds = %19, %11
  %26 = phi i8* [ %14, %11 ], [ %23, %19 ]
  tail call void @llvm.memcpy.p0i8.p0i8.i64(i8* align 1 %26, i8* align 1 %4, i64 %5, i1 false) #19
  br label %27

27:                                               ; preds = %19, %25
  %28 = phi i8* [ %23, %19 ], [ %26, %25 ]
  %29 = getelementptr inbounds i8, i8* %28, i64 %5
  store i8 0, i8* %29, align 1
  %30 = getelementptr inbounds %"struct.std::__1::pair.205", %"struct.std::__1::pair.205"* %0, i64 0, i32 1
  %31 = getelementptr inbounds [29 x i8], [29 x i8]* %2, i64 0, i64 0
  %32 = tail call i64 @strlen(i8* %31) #19
  %33 = icmp ugt i64 %32, -17
  br i1 %33, label %34, label %36

34:                                               ; preds = %27
  %35 = bitcast %"class.std::__1::basic_string"* %30 to %"class.std::__1::__basic_string_common"*
  tail call void @_ZNKSt3__121__basic_string_commonILb1EE20__throw_length_errorEv(%"class.std::__1::__basic_string_common"* %35) #20
  unreachable

36:                                               ; preds = %27
  %37 = icmp ult i64 %32, 23
  br i1 %37, label %46, label %38

38:                                               ; preds = %36
  %39 = add nuw i64 %32, 16
  %40 = and i64 %39, -16
  %41 = tail call i8* @_Znwm(i64 %40) #18
  %42 = getelementptr inbounds %"class.std::__1::basic_string", %"class.std::__1::basic_string"* %30, i64 0, i32 0, i32 0, i32 0, i32 0, i32 0, i32 0
  store i8* %41, i8** %42, align 8
  %43 = or i64 %40, -9223372036854775808
  %44 = getelementptr inbounds %"struct.std::__1::pair.205", %"struct.std::__1::pair.205"* %0, i64 0, i32 1, i32 0, i32 0, i32 0, i32 0, i32 0, i32 2
  store i64 %43, i64* %44, align 8
  %45 = getelementptr inbounds %"struct.std::__1::pair.205", %"struct.std::__1::pair.205"* %0, i64 0, i32 1, i32 0, i32 0, i32 0, i32 0, i32 0, i32 1
  store i64 %32, i64* %45, align 8
  br label %52

46:                                               ; preds = %36
  %47 = trunc i64 %32 to i8
  %48 = bitcast %"class.std::__1::basic_string"* %30 to %"struct.std::__1::basic_string<char, std::__1::char_traits<char>, std::__1::allocator<char> >::__short"*
  %49 = getelementptr inbounds %"struct.std::__1::basic_string<char, std::__1::char_traits<char>, std::__1::allocator<char> >::__short", %"struct.std::__1::basic_string<char, std::__1::char_traits<char>, std::__1::allocator<char> >::__short"* %48, i64 0, i32 1, i32 0
  store i8 %47, i8* %49, align 1
  %50 = bitcast %"class.std::__1::basic_string"* %30 to i8*
  %51 = icmp eq i64 %32, 0
  br i1 %51, label %54, label %52

52:                                               ; preds = %46, %38
  %53 = phi i8* [ %41, %38 ], [ %50, %46 ]
  tail call void @llvm.memcpy.p0i8.p0i8.i64(i8* align 1 %53, i8* align 1 %31, i64 %32, i1 false) #19
  br label %54

54:                                               ; preds = %46, %52
  %55 = phi i8* [ %50, %46 ], [ %53, %52 ]
  %56 = getelementptr inbounds i8, i8* %55, i64 %32
  store i8 0, i8* %56, align 1
  ret void
}

; Function Attrs: nounwind ssp uwtable
define linkonce_odr hidden void @_ZNSt3__14pairIKNS_12basic_stringIcNS_11char_traitsIcEENS_9allocatorIcEEEES6_EC2IRA23_KcRA17_SA_Lb0EEEOT_OT0_(%"struct.std::__1::pair.205"*, [23 x i8]* dereferenceable(23), [17 x i8]* dereferenceable(17)) unnamed_addr #1 comdat align 2 {
  %4 = getelementptr inbounds [23 x i8], [23 x i8]* %1, i64 0, i64 0
  %5 = tail call i64 @strlen(i8* %4) #19
  %6 = icmp ugt i64 %5, -17
  br i1 %6, label %7, label %9

7:                                                ; preds = %3
  %8 = bitcast %"struct.std::__1::pair.205"* %0 to %"class.std::__1::__basic_string_common"*
  tail call void @_ZNKSt3__121__basic_string_commonILb1EE20__throw_length_errorEv(%"class.std::__1::__basic_string_common"* %8) #20
  unreachable

9:                                                ; preds = %3
  %10 = icmp ult i64 %5, 23
  br i1 %10, label %19, label %11

11:                                               ; preds = %9
  %12 = add nuw i64 %5, 16
  %13 = and i64 %12, -16
  %14 = tail call i8* @_Znwm(i64 %13) #18
  %15 = getelementptr inbounds %"struct.std::__1::pair.205", %"struct.std::__1::pair.205"* %0, i64 0, i32 0, i32 0, i32 0, i32 0, i32 0, i32 0, i32 0
  store i8* %14, i8** %15, align 8
  %16 = or i64 %13, -9223372036854775808
  %17 = getelementptr inbounds %"struct.std::__1::pair.205", %"struct.std::__1::pair.205"* %0, i64 0, i32 0, i32 0, i32 0, i32 0, i32 0, i32 0, i32 2
  store i64 %16, i64* %17, align 8
  %18 = getelementptr inbounds %"struct.std::__1::pair.205", %"struct.std::__1::pair.205"* %0, i64 0, i32 0, i32 0, i32 0, i32 0, i32 0, i32 0, i32 1
  store i64 %5, i64* %18, align 8
  br label %25

19:                                               ; preds = %9
  %20 = trunc i64 %5 to i8
  %21 = bitcast %"struct.std::__1::pair.205"* %0 to %"struct.std::__1::basic_string<char, std::__1::char_traits<char>, std::__1::allocator<char> >::__short"*
  %22 = getelementptr inbounds %"struct.std::__1::basic_string<char, std::__1::char_traits<char>, std::__1::allocator<char> >::__short", %"struct.std::__1::basic_string<char, std::__1::char_traits<char>, std::__1::allocator<char> >::__short"* %21, i64 0, i32 1, i32 0
  store i8 %20, i8* %22, align 1
  %23 = bitcast %"struct.std::__1::pair.205"* %0 to i8*
  %24 = icmp eq i64 %5, 0
  br i1 %24, label %27, label %25

25:                                               ; preds = %19, %11
  %26 = phi i8* [ %14, %11 ], [ %23, %19 ]
  tail call void @llvm.memcpy.p0i8.p0i8.i64(i8* align 1 %26, i8* align 1 %4, i64 %5, i1 false) #19
  br label %27

27:                                               ; preds = %19, %25
  %28 = phi i8* [ %23, %19 ], [ %26, %25 ]
  %29 = getelementptr inbounds i8, i8* %28, i64 %5
  store i8 0, i8* %29, align 1
  %30 = getelementptr inbounds %"struct.std::__1::pair.205", %"struct.std::__1::pair.205"* %0, i64 0, i32 1
  %31 = getelementptr inbounds [17 x i8], [17 x i8]* %2, i64 0, i64 0
  %32 = tail call i64 @strlen(i8* %31) #19
  %33 = icmp ugt i64 %32, -17
  br i1 %33, label %34, label %36

34:                                               ; preds = %27
  %35 = bitcast %"class.std::__1::basic_string"* %30 to %"class.std::__1::__basic_string_common"*
  tail call void @_ZNKSt3__121__basic_string_commonILb1EE20__throw_length_errorEv(%"class.std::__1::__basic_string_common"* %35) #20
  unreachable

36:                                               ; preds = %27
  %37 = icmp ult i64 %32, 23
  br i1 %37, label %46, label %38

38:                                               ; preds = %36
  %39 = add nuw i64 %32, 16
  %40 = and i64 %39, -16
  %41 = tail call i8* @_Znwm(i64 %40) #18
  %42 = getelementptr inbounds %"class.std::__1::basic_string", %"class.std::__1::basic_string"* %30, i64 0, i32 0, i32 0, i32 0, i32 0, i32 0, i32 0
  store i8* %41, i8** %42, align 8
  %43 = or i64 %40, -9223372036854775808
  %44 = getelementptr inbounds %"struct.std::__1::pair.205", %"struct.std::__1::pair.205"* %0, i64 0, i32 1, i32 0, i32 0, i32 0, i32 0, i32 0, i32 2
  store i64 %43, i64* %44, align 8
  %45 = getelementptr inbounds %"struct.std::__1::pair.205", %"struct.std::__1::pair.205"* %0, i64 0, i32 1, i32 0, i32 0, i32 0, i32 0, i32 0, i32 1
  store i64 %32, i64* %45, align 8
  br label %52

46:                                               ; preds = %36
  %47 = trunc i64 %32 to i8
  %48 = bitcast %"class.std::__1::basic_string"* %30 to %"struct.std::__1::basic_string<char, std::__1::char_traits<char>, std::__1::allocator<char> >::__short"*
  %49 = getelementptr inbounds %"struct.std::__1::basic_string<char, std::__1::char_traits<char>, std::__1::allocator<char> >::__short", %"struct.std::__1::basic_string<char, std::__1::char_traits<char>, std::__1::allocator<char> >::__short"* %48, i64 0, i32 1, i32 0
  store i8 %47, i8* %49, align 1
  %50 = bitcast %"class.std::__1::basic_string"* %30 to i8*
  %51 = icmp eq i64 %32, 0
  br i1 %51, label %54, label %52

52:                                               ; preds = %46, %38
  %53 = phi i8* [ %41, %38 ], [ %50, %46 ]
  tail call void @llvm.memcpy.p0i8.p0i8.i64(i8* align 1 %53, i8* align 1 %31, i64 %32, i1 false) #19
  br label %54

54:                                               ; preds = %46, %52
  %55 = phi i8* [ %50, %46 ], [ %53, %52 ]
  %56 = getelementptr inbounds i8, i8* %55, i64 %32
  store i8 0, i8* %56, align 1
  ret void
}

; Function Attrs: nounwind ssp uwtable
define linkonce_odr hidden void @_ZNSt3__14pairIKNS_12basic_stringIcNS_11char_traitsIcEENS_9allocatorIcEEEES6_EC2IRA22_KcRA17_SA_Lb0EEEOT_OT0_(%"struct.std::__1::pair.205"*, [22 x i8]* dereferenceable(22), [17 x i8]* dereferenceable(17)) unnamed_addr #1 comdat align 2 {
  %4 = getelementptr inbounds [22 x i8], [22 x i8]* %1, i64 0, i64 0
  %5 = tail call i64 @strlen(i8* %4) #19
  %6 = icmp ugt i64 %5, -17
  br i1 %6, label %7, label %9

7:                                                ; preds = %3
  %8 = bitcast %"struct.std::__1::pair.205"* %0 to %"class.std::__1::__basic_string_common"*
  tail call void @_ZNKSt3__121__basic_string_commonILb1EE20__throw_length_errorEv(%"class.std::__1::__basic_string_common"* %8) #20
  unreachable

9:                                                ; preds = %3
  %10 = icmp ult i64 %5, 23
  br i1 %10, label %19, label %11

11:                                               ; preds = %9
  %12 = add nuw i64 %5, 16
  %13 = and i64 %12, -16
  %14 = tail call i8* @_Znwm(i64 %13) #18
  %15 = getelementptr inbounds %"struct.std::__1::pair.205", %"struct.std::__1::pair.205"* %0, i64 0, i32 0, i32 0, i32 0, i32 0, i32 0, i32 0, i32 0
  store i8* %14, i8** %15, align 8
  %16 = or i64 %13, -9223372036854775808
  %17 = getelementptr inbounds %"struct.std::__1::pair.205", %"struct.std::__1::pair.205"* %0, i64 0, i32 0, i32 0, i32 0, i32 0, i32 0, i32 0, i32 2
  store i64 %16, i64* %17, align 8
  %18 = getelementptr inbounds %"struct.std::__1::pair.205", %"struct.std::__1::pair.205"* %0, i64 0, i32 0, i32 0, i32 0, i32 0, i32 0, i32 0, i32 1
  store i64 %5, i64* %18, align 8
  br label %25

19:                                               ; preds = %9
  %20 = trunc i64 %5 to i8
  %21 = bitcast %"struct.std::__1::pair.205"* %0 to %"struct.std::__1::basic_string<char, std::__1::char_traits<char>, std::__1::allocator<char> >::__short"*
  %22 = getelementptr inbounds %"struct.std::__1::basic_string<char, std::__1::char_traits<char>, std::__1::allocator<char> >::__short", %"struct.std::__1::basic_string<char, std::__1::char_traits<char>, std::__1::allocator<char> >::__short"* %21, i64 0, i32 1, i32 0
  store i8 %20, i8* %22, align 1
  %23 = bitcast %"struct.std::__1::pair.205"* %0 to i8*
  %24 = icmp eq i64 %5, 0
  br i1 %24, label %27, label %25

25:                                               ; preds = %19, %11
  %26 = phi i8* [ %14, %11 ], [ %23, %19 ]
  tail call void @llvm.memcpy.p0i8.p0i8.i64(i8* align 1 %26, i8* align 1 %4, i64 %5, i1 false) #19
  br label %27

27:                                               ; preds = %19, %25
  %28 = phi i8* [ %23, %19 ], [ %26, %25 ]
  %29 = getelementptr inbounds i8, i8* %28, i64 %5
  store i8 0, i8* %29, align 1
  %30 = getelementptr inbounds %"struct.std::__1::pair.205", %"struct.std::__1::pair.205"* %0, i64 0, i32 1
  %31 = getelementptr inbounds [17 x i8], [17 x i8]* %2, i64 0, i64 0
  %32 = tail call i64 @strlen(i8* %31) #19
  %33 = icmp ugt i64 %32, -17
  br i1 %33, label %34, label %36

34:                                               ; preds = %27
  %35 = bitcast %"class.std::__1::basic_string"* %30 to %"class.std::__1::__basic_string_common"*
  tail call void @_ZNKSt3__121__basic_string_commonILb1EE20__throw_length_errorEv(%"class.std::__1::__basic_string_common"* %35) #20
  unreachable

36:                                               ; preds = %27
  %37 = icmp ult i64 %32, 23
  br i1 %37, label %46, label %38

38:                                               ; preds = %36
  %39 = add nuw i64 %32, 16
  %40 = and i64 %39, -16
  %41 = tail call i8* @_Znwm(i64 %40) #18
  %42 = getelementptr inbounds %"class.std::__1::basic_string", %"class.std::__1::basic_string"* %30, i64 0, i32 0, i32 0, i32 0, i32 0, i32 0, i32 0
  store i8* %41, i8** %42, align 8
  %43 = or i64 %40, -9223372036854775808
  %44 = getelementptr inbounds %"struct.std::__1::pair.205", %"struct.std::__1::pair.205"* %0, i64 0, i32 1, i32 0, i32 0, i32 0, i32 0, i32 0, i32 2
  store i64 %43, i64* %44, align 8
  %45 = getelementptr inbounds %"struct.std::__1::pair.205", %"struct.std::__1::pair.205"* %0, i64 0, i32 1, i32 0, i32 0, i32 0, i32 0, i32 0, i32 1
  store i64 %32, i64* %45, align 8
  br label %52

46:                                               ; preds = %36
  %47 = trunc i64 %32 to i8
  %48 = bitcast %"class.std::__1::basic_string"* %30 to %"struct.std::__1::basic_string<char, std::__1::char_traits<char>, std::__1::allocator<char> >::__short"*
  %49 = getelementptr inbounds %"struct.std::__1::basic_string<char, std::__1::char_traits<char>, std::__1::allocator<char> >::__short", %"struct.std::__1::basic_string<char, std::__1::char_traits<char>, std::__1::allocator<char> >::__short"* %48, i64 0, i32 1, i32 0
  store i8 %47, i8* %49, align 1
  %50 = bitcast %"class.std::__1::basic_string"* %30 to i8*
  %51 = icmp eq i64 %32, 0
  br i1 %51, label %54, label %52

52:                                               ; preds = %46, %38
  %53 = phi i8* [ %41, %38 ], [ %50, %46 ]
  tail call void @llvm.memcpy.p0i8.p0i8.i64(i8* align 1 %53, i8* align 1 %31, i64 %32, i1 false) #19
  br label %54

54:                                               ; preds = %46, %52
  %55 = phi i8* [ %50, %46 ], [ %53, %52 ]
  %56 = getelementptr inbounds i8, i8* %55, i64 %32
  store i8 0, i8* %56, align 1
  ret void
}

; Function Attrs: nounwind ssp uwtable
define linkonce_odr hidden void @_ZNSt3__14pairIKNS_12basic_stringIcNS_11char_traitsIcEENS_9allocatorIcEEEES6_EC2IRA39_KcRA27_SA_Lb0EEEOT_OT0_(%"struct.std::__1::pair.205"*, [39 x i8]* dereferenceable(39), [27 x i8]* dereferenceable(27)) unnamed_addr #1 comdat align 2 {
  %4 = getelementptr inbounds [39 x i8], [39 x i8]* %1, i64 0, i64 0
  %5 = tail call i64 @strlen(i8* %4) #19
  %6 = icmp ugt i64 %5, -17
  br i1 %6, label %7, label %9

7:                                                ; preds = %3
  %8 = bitcast %"struct.std::__1::pair.205"* %0 to %"class.std::__1::__basic_string_common"*
  tail call void @_ZNKSt3__121__basic_string_commonILb1EE20__throw_length_errorEv(%"class.std::__1::__basic_string_common"* %8) #20
  unreachable

9:                                                ; preds = %3
  %10 = icmp ult i64 %5, 23
  br i1 %10, label %19, label %11

11:                                               ; preds = %9
  %12 = add nuw i64 %5, 16
  %13 = and i64 %12, -16
  %14 = tail call i8* @_Znwm(i64 %13) #18
  %15 = getelementptr inbounds %"struct.std::__1::pair.205", %"struct.std::__1::pair.205"* %0, i64 0, i32 0, i32 0, i32 0, i32 0, i32 0, i32 0, i32 0
  store i8* %14, i8** %15, align 8
  %16 = or i64 %13, -9223372036854775808
  %17 = getelementptr inbounds %"struct.std::__1::pair.205", %"struct.std::__1::pair.205"* %0, i64 0, i32 0, i32 0, i32 0, i32 0, i32 0, i32 0, i32 2
  store i64 %16, i64* %17, align 8
  %18 = getelementptr inbounds %"struct.std::__1::pair.205", %"struct.std::__1::pair.205"* %0, i64 0, i32 0, i32 0, i32 0, i32 0, i32 0, i32 0, i32 1
  store i64 %5, i64* %18, align 8
  br label %25

19:                                               ; preds = %9
  %20 = trunc i64 %5 to i8
  %21 = bitcast %"struct.std::__1::pair.205"* %0 to %"struct.std::__1::basic_string<char, std::__1::char_traits<char>, std::__1::allocator<char> >::__short"*
  %22 = getelementptr inbounds %"struct.std::__1::basic_string<char, std::__1::char_traits<char>, std::__1::allocator<char> >::__short", %"struct.std::__1::basic_string<char, std::__1::char_traits<char>, std::__1::allocator<char> >::__short"* %21, i64 0, i32 1, i32 0
  store i8 %20, i8* %22, align 1
  %23 = bitcast %"struct.std::__1::pair.205"* %0 to i8*
  %24 = icmp eq i64 %5, 0
  br i1 %24, label %27, label %25

25:                                               ; preds = %19, %11
  %26 = phi i8* [ %14, %11 ], [ %23, %19 ]
  tail call void @llvm.memcpy.p0i8.p0i8.i64(i8* align 1 %26, i8* align 1 %4, i64 %5, i1 false) #19
  br label %27

27:                                               ; preds = %19, %25
  %28 = phi i8* [ %23, %19 ], [ %26, %25 ]
  %29 = getelementptr inbounds i8, i8* %28, i64 %5
  store i8 0, i8* %29, align 1
  %30 = getelementptr inbounds %"struct.std::__1::pair.205", %"struct.std::__1::pair.205"* %0, i64 0, i32 1
  %31 = getelementptr inbounds [27 x i8], [27 x i8]* %2, i64 0, i64 0
  %32 = tail call i64 @strlen(i8* %31) #19
  %33 = icmp ugt i64 %32, -17
  br i1 %33, label %34, label %36

34:                                               ; preds = %27
  %35 = bitcast %"class.std::__1::basic_string"* %30 to %"class.std::__1::__basic_string_common"*
  tail call void @_ZNKSt3__121__basic_string_commonILb1EE20__throw_length_errorEv(%"class.std::__1::__basic_string_common"* %35) #20
  unreachable

36:                                               ; preds = %27
  %37 = icmp ult i64 %32, 23
  br i1 %37, label %46, label %38

38:                                               ; preds = %36
  %39 = add nuw i64 %32, 16
  %40 = and i64 %39, -16
  %41 = tail call i8* @_Znwm(i64 %40) #18
  %42 = getelementptr inbounds %"class.std::__1::basic_string", %"class.std::__1::basic_string"* %30, i64 0, i32 0, i32 0, i32 0, i32 0, i32 0, i32 0
  store i8* %41, i8** %42, align 8
  %43 = or i64 %40, -9223372036854775808
  %44 = getelementptr inbounds %"struct.std::__1::pair.205", %"struct.std::__1::pair.205"* %0, i64 0, i32 1, i32 0, i32 0, i32 0, i32 0, i32 0, i32 2
  store i64 %43, i64* %44, align 8
  %45 = getelementptr inbounds %"struct.std::__1::pair.205", %"struct.std::__1::pair.205"* %0, i64 0, i32 1, i32 0, i32 0, i32 0, i32 0, i32 0, i32 1
  store i64 %32, i64* %45, align 8
  br label %52

46:                                               ; preds = %36
  %47 = trunc i64 %32 to i8
  %48 = bitcast %"class.std::__1::basic_string"* %30 to %"struct.std::__1::basic_string<char, std::__1::char_traits<char>, std::__1::allocator<char> >::__short"*
  %49 = getelementptr inbounds %"struct.std::__1::basic_string<char, std::__1::char_traits<char>, std::__1::allocator<char> >::__short", %"struct.std::__1::basic_string<char, std::__1::char_traits<char>, std::__1::allocator<char> >::__short"* %48, i64 0, i32 1, i32 0
  store i8 %47, i8* %49, align 1
  %50 = bitcast %"class.std::__1::basic_string"* %30 to i8*
  %51 = icmp eq i64 %32, 0
  br i1 %51, label %54, label %52

52:                                               ; preds = %46, %38
  %53 = phi i8* [ %41, %38 ], [ %50, %46 ]
  tail call void @llvm.memcpy.p0i8.p0i8.i64(i8* align 1 %53, i8* align 1 %31, i64 %32, i1 false) #19
  br label %54

54:                                               ; preds = %46, %52
  %55 = phi i8* [ %50, %46 ], [ %53, %52 ]
  %56 = getelementptr inbounds i8, i8* %55, i64 %32
  store i8 0, i8* %56, align 1
  ret void
}

; Function Attrs: nounwind ssp uwtable
define linkonce_odr hidden void @_ZNSt3__14pairIKNS_12basic_stringIcNS_11char_traitsIcEENS_9allocatorIcEEEES6_EC2IRA26_KcRA25_SA_Lb0EEEOT_OT0_(%"struct.std::__1::pair.205"*, [26 x i8]* dereferenceable(26), [25 x i8]* dereferenceable(25)) unnamed_addr #1 comdat align 2 {
  %4 = getelementptr inbounds [26 x i8], [26 x i8]* %1, i64 0, i64 0
  %5 = tail call i64 @strlen(i8* %4) #19
  %6 = icmp ugt i64 %5, -17
  br i1 %6, label %7, label %9

7:                                                ; preds = %3
  %8 = bitcast %"struct.std::__1::pair.205"* %0 to %"class.std::__1::__basic_string_common"*
  tail call void @_ZNKSt3__121__basic_string_commonILb1EE20__throw_length_errorEv(%"class.std::__1::__basic_string_common"* %8) #20
  unreachable

9:                                                ; preds = %3
  %10 = icmp ult i64 %5, 23
  br i1 %10, label %19, label %11

11:                                               ; preds = %9
  %12 = add nuw i64 %5, 16
  %13 = and i64 %12, -16
  %14 = tail call i8* @_Znwm(i64 %13) #18
  %15 = getelementptr inbounds %"struct.std::__1::pair.205", %"struct.std::__1::pair.205"* %0, i64 0, i32 0, i32 0, i32 0, i32 0, i32 0, i32 0, i32 0
  store i8* %14, i8** %15, align 8
  %16 = or i64 %13, -9223372036854775808
  %17 = getelementptr inbounds %"struct.std::__1::pair.205", %"struct.std::__1::pair.205"* %0, i64 0, i32 0, i32 0, i32 0, i32 0, i32 0, i32 0, i32 2
  store i64 %16, i64* %17, align 8
  %18 = getelementptr inbounds %"struct.std::__1::pair.205", %"struct.std::__1::pair.205"* %0, i64 0, i32 0, i32 0, i32 0, i32 0, i32 0, i32 0, i32 1
  store i64 %5, i64* %18, align 8
  br label %25

19:                                               ; preds = %9
  %20 = trunc i64 %5 to i8
  %21 = bitcast %"struct.std::__1::pair.205"* %0 to %"struct.std::__1::basic_string<char, std::__1::char_traits<char>, std::__1::allocator<char> >::__short"*
  %22 = getelementptr inbounds %"struct.std::__1::basic_string<char, std::__1::char_traits<char>, std::__1::allocator<char> >::__short", %"struct.std::__1::basic_string<char, std::__1::char_traits<char>, std::__1::allocator<char> >::__short"* %21, i64 0, i32 1, i32 0
  store i8 %20, i8* %22, align 1
  %23 = bitcast %"struct.std::__1::pair.205"* %0 to i8*
  %24 = icmp eq i64 %5, 0
  br i1 %24, label %27, label %25

25:                                               ; preds = %19, %11
  %26 = phi i8* [ %14, %11 ], [ %23, %19 ]
  tail call void @llvm.memcpy.p0i8.p0i8.i64(i8* align 1 %26, i8* align 1 %4, i64 %5, i1 false) #19
  br label %27

27:                                               ; preds = %19, %25
  %28 = phi i8* [ %23, %19 ], [ %26, %25 ]
  %29 = getelementptr inbounds i8, i8* %28, i64 %5
  store i8 0, i8* %29, align 1
  %30 = getelementptr inbounds %"struct.std::__1::pair.205", %"struct.std::__1::pair.205"* %0, i64 0, i32 1
  %31 = getelementptr inbounds [25 x i8], [25 x i8]* %2, i64 0, i64 0
  %32 = tail call i64 @strlen(i8* %31) #19
  %33 = icmp ugt i64 %32, -17
  br i1 %33, label %34, label %36

34:                                               ; preds = %27
  %35 = bitcast %"class.std::__1::basic_string"* %30 to %"class.std::__1::__basic_string_common"*
  tail call void @_ZNKSt3__121__basic_string_commonILb1EE20__throw_length_errorEv(%"class.std::__1::__basic_string_common"* %35) #20
  unreachable

36:                                               ; preds = %27
  %37 = icmp ult i64 %32, 23
  br i1 %37, label %46, label %38

38:                                               ; preds = %36
  %39 = add nuw i64 %32, 16
  %40 = and i64 %39, -16
  %41 = tail call i8* @_Znwm(i64 %40) #18
  %42 = getelementptr inbounds %"class.std::__1::basic_string", %"class.std::__1::basic_string"* %30, i64 0, i32 0, i32 0, i32 0, i32 0, i32 0, i32 0
  store i8* %41, i8** %42, align 8
  %43 = or i64 %40, -9223372036854775808
  %44 = getelementptr inbounds %"struct.std::__1::pair.205", %"struct.std::__1::pair.205"* %0, i64 0, i32 1, i32 0, i32 0, i32 0, i32 0, i32 0, i32 2
  store i64 %43, i64* %44, align 8
  %45 = getelementptr inbounds %"struct.std::__1::pair.205", %"struct.std::__1::pair.205"* %0, i64 0, i32 1, i32 0, i32 0, i32 0, i32 0, i32 0, i32 1
  store i64 %32, i64* %45, align 8
  br label %52

46:                                               ; preds = %36
  %47 = trunc i64 %32 to i8
  %48 = bitcast %"class.std::__1::basic_string"* %30 to %"struct.std::__1::basic_string<char, std::__1::char_traits<char>, std::__1::allocator<char> >::__short"*
  %49 = getelementptr inbounds %"struct.std::__1::basic_string<char, std::__1::char_traits<char>, std::__1::allocator<char> >::__short", %"struct.std::__1::basic_string<char, std::__1::char_traits<char>, std::__1::allocator<char> >::__short"* %48, i64 0, i32 1, i32 0
  store i8 %47, i8* %49, align 1
  %50 = bitcast %"class.std::__1::basic_string"* %30 to i8*
  %51 = icmp eq i64 %32, 0
  br i1 %51, label %54, label %52

52:                                               ; preds = %46, %38
  %53 = phi i8* [ %41, %38 ], [ %50, %46 ]
  tail call void @llvm.memcpy.p0i8.p0i8.i64(i8* align 1 %53, i8* align 1 %31, i64 %32, i1 false) #19
  br label %54

54:                                               ; preds = %46, %52
  %55 = phi i8* [ %50, %46 ], [ %53, %52 ]
  %56 = getelementptr inbounds i8, i8* %55, i64 %32
  store i8 0, i8* %56, align 1
  ret void
}

; Function Attrs: nounwind ssp uwtable
define linkonce_odr hidden void @_ZNSt3__14pairIKNS_12basic_stringIcNS_11char_traitsIcEENS_9allocatorIcEEEES6_EC2IRA36_KcRA18_SA_Lb0EEEOT_OT0_(%"struct.std::__1::pair.205"*, [36 x i8]* dereferenceable(36), [18 x i8]* dereferenceable(18)) unnamed_addr #1 comdat align 2 {
  %4 = getelementptr inbounds [36 x i8], [36 x i8]* %1, i64 0, i64 0
  %5 = tail call i64 @strlen(i8* %4) #19
  %6 = icmp ugt i64 %5, -17
  br i1 %6, label %7, label %9

7:                                                ; preds = %3
  %8 = bitcast %"struct.std::__1::pair.205"* %0 to %"class.std::__1::__basic_string_common"*
  tail call void @_ZNKSt3__121__basic_string_commonILb1EE20__throw_length_errorEv(%"class.std::__1::__basic_string_common"* %8) #20
  unreachable

9:                                                ; preds = %3
  %10 = icmp ult i64 %5, 23
  br i1 %10, label %19, label %11

11:                                               ; preds = %9
  %12 = add nuw i64 %5, 16
  %13 = and i64 %12, -16
  %14 = tail call i8* @_Znwm(i64 %13) #18
  %15 = getelementptr inbounds %"struct.std::__1::pair.205", %"struct.std::__1::pair.205"* %0, i64 0, i32 0, i32 0, i32 0, i32 0, i32 0, i32 0, i32 0
  store i8* %14, i8** %15, align 8
  %16 = or i64 %13, -9223372036854775808
  %17 = getelementptr inbounds %"struct.std::__1::pair.205", %"struct.std::__1::pair.205"* %0, i64 0, i32 0, i32 0, i32 0, i32 0, i32 0, i32 0, i32 2
  store i64 %16, i64* %17, align 8
  %18 = getelementptr inbounds %"struct.std::__1::pair.205", %"struct.std::__1::pair.205"* %0, i64 0, i32 0, i32 0, i32 0, i32 0, i32 0, i32 0, i32 1
  store i64 %5, i64* %18, align 8
  br label %25

19:                                               ; preds = %9
  %20 = trunc i64 %5 to i8
  %21 = bitcast %"struct.std::__1::pair.205"* %0 to %"struct.std::__1::basic_string<char, std::__1::char_traits<char>, std::__1::allocator<char> >::__short"*
  %22 = getelementptr inbounds %"struct.std::__1::basic_string<char, std::__1::char_traits<char>, std::__1::allocator<char> >::__short", %"struct.std::__1::basic_string<char, std::__1::char_traits<char>, std::__1::allocator<char> >::__short"* %21, i64 0, i32 1, i32 0
  store i8 %20, i8* %22, align 1
  %23 = bitcast %"struct.std::__1::pair.205"* %0 to i8*
  %24 = icmp eq i64 %5, 0
  br i1 %24, label %27, label %25

25:                                               ; preds = %19, %11
  %26 = phi i8* [ %14, %11 ], [ %23, %19 ]
  tail call void @llvm.memcpy.p0i8.p0i8.i64(i8* align 1 %26, i8* align 1 %4, i64 %5, i1 false) #19
  br label %27

27:                                               ; preds = %19, %25
  %28 = phi i8* [ %23, %19 ], [ %26, %25 ]
  %29 = getelementptr inbounds i8, i8* %28, i64 %5
  store i8 0, i8* %29, align 1
  %30 = getelementptr inbounds %"struct.std::__1::pair.205", %"struct.std::__1::pair.205"* %0, i64 0, i32 1
  %31 = getelementptr inbounds [18 x i8], [18 x i8]* %2, i64 0, i64 0
  %32 = tail call i64 @strlen(i8* %31) #19
  %33 = icmp ugt i64 %32, -17
  br i1 %33, label %34, label %36

34:                                               ; preds = %27
  %35 = bitcast %"class.std::__1::basic_string"* %30 to %"class.std::__1::__basic_string_common"*
  tail call void @_ZNKSt3__121__basic_string_commonILb1EE20__throw_length_errorEv(%"class.std::__1::__basic_string_common"* %35) #20
  unreachable

36:                                               ; preds = %27
  %37 = icmp ult i64 %32, 23
  br i1 %37, label %46, label %38

38:                                               ; preds = %36
  %39 = add nuw i64 %32, 16
  %40 = and i64 %39, -16
  %41 = tail call i8* @_Znwm(i64 %40) #18
  %42 = getelementptr inbounds %"class.std::__1::basic_string", %"class.std::__1::basic_string"* %30, i64 0, i32 0, i32 0, i32 0, i32 0, i32 0, i32 0
  store i8* %41, i8** %42, align 8
  %43 = or i64 %40, -9223372036854775808
  %44 = getelementptr inbounds %"struct.std::__1::pair.205", %"struct.std::__1::pair.205"* %0, i64 0, i32 1, i32 0, i32 0, i32 0, i32 0, i32 0, i32 2
  store i64 %43, i64* %44, align 8
  %45 = getelementptr inbounds %"struct.std::__1::pair.205", %"struct.std::__1::pair.205"* %0, i64 0, i32 1, i32 0, i32 0, i32 0, i32 0, i32 0, i32 1
  store i64 %32, i64* %45, align 8
  br label %52

46:                                               ; preds = %36
  %47 = trunc i64 %32 to i8
  %48 = bitcast %"class.std::__1::basic_string"* %30 to %"struct.std::__1::basic_string<char, std::__1::char_traits<char>, std::__1::allocator<char> >::__short"*
  %49 = getelementptr inbounds %"struct.std::__1::basic_string<char, std::__1::char_traits<char>, std::__1::allocator<char> >::__short", %"struct.std::__1::basic_string<char, std::__1::char_traits<char>, std::__1::allocator<char> >::__short"* %48, i64 0, i32 1, i32 0
  store i8 %47, i8* %49, align 1
  %50 = bitcast %"class.std::__1::basic_string"* %30 to i8*
  %51 = icmp eq i64 %32, 0
  br i1 %51, label %54, label %52

52:                                               ; preds = %46, %38
  %53 = phi i8* [ %41, %38 ], [ %50, %46 ]
  tail call void @llvm.memcpy.p0i8.p0i8.i64(i8* align 1 %53, i8* align 1 %31, i64 %32, i1 false) #19
  br label %54

54:                                               ; preds = %46, %52
  %55 = phi i8* [ %50, %46 ], [ %53, %52 ]
  %56 = getelementptr inbounds i8, i8* %55, i64 %32
  store i8 0, i8* %56, align 1
  ret void
}

; Function Attrs: nounwind ssp uwtable
define linkonce_odr hidden void @_ZNSt3__14pairIKNS_12basic_stringIcNS_11char_traitsIcEENS_9allocatorIcEEEES6_EC2IRA20_KcRA15_SA_Lb0EEEOT_OT0_(%"struct.std::__1::pair.205"*, [20 x i8]* dereferenceable(20), [15 x i8]* dereferenceable(15)) unnamed_addr #1 comdat align 2 {
  %4 = getelementptr inbounds [20 x i8], [20 x i8]* %1, i64 0, i64 0
  %5 = tail call i64 @strlen(i8* %4) #19
  %6 = icmp ugt i64 %5, -17
  br i1 %6, label %7, label %9

7:                                                ; preds = %3
  %8 = bitcast %"struct.std::__1::pair.205"* %0 to %"class.std::__1::__basic_string_common"*
  tail call void @_ZNKSt3__121__basic_string_commonILb1EE20__throw_length_errorEv(%"class.std::__1::__basic_string_common"* %8) #20
  unreachable

9:                                                ; preds = %3
  %10 = icmp ult i64 %5, 23
  br i1 %10, label %19, label %11

11:                                               ; preds = %9
  %12 = add nuw i64 %5, 16
  %13 = and i64 %12, -16
  %14 = tail call i8* @_Znwm(i64 %13) #18
  %15 = getelementptr inbounds %"struct.std::__1::pair.205", %"struct.std::__1::pair.205"* %0, i64 0, i32 0, i32 0, i32 0, i32 0, i32 0, i32 0, i32 0
  store i8* %14, i8** %15, align 8
  %16 = or i64 %13, -9223372036854775808
  %17 = getelementptr inbounds %"struct.std::__1::pair.205", %"struct.std::__1::pair.205"* %0, i64 0, i32 0, i32 0, i32 0, i32 0, i32 0, i32 0, i32 2
  store i64 %16, i64* %17, align 8
  %18 = getelementptr inbounds %"struct.std::__1::pair.205", %"struct.std::__1::pair.205"* %0, i64 0, i32 0, i32 0, i32 0, i32 0, i32 0, i32 0, i32 1
  store i64 %5, i64* %18, align 8
  br label %25

19:                                               ; preds = %9
  %20 = trunc i64 %5 to i8
  %21 = bitcast %"struct.std::__1::pair.205"* %0 to %"struct.std::__1::basic_string<char, std::__1::char_traits<char>, std::__1::allocator<char> >::__short"*
  %22 = getelementptr inbounds %"struct.std::__1::basic_string<char, std::__1::char_traits<char>, std::__1::allocator<char> >::__short", %"struct.std::__1::basic_string<char, std::__1::char_traits<char>, std::__1::allocator<char> >::__short"* %21, i64 0, i32 1, i32 0
  store i8 %20, i8* %22, align 1
  %23 = bitcast %"struct.std::__1::pair.205"* %0 to i8*
  %24 = icmp eq i64 %5, 0
  br i1 %24, label %27, label %25

25:                                               ; preds = %19, %11
  %26 = phi i8* [ %14, %11 ], [ %23, %19 ]
  tail call void @llvm.memcpy.p0i8.p0i8.i64(i8* align 1 %26, i8* align 1 %4, i64 %5, i1 false) #19
  br label %27

27:                                               ; preds = %19, %25
  %28 = phi i8* [ %23, %19 ], [ %26, %25 ]
  %29 = getelementptr inbounds i8, i8* %28, i64 %5
  store i8 0, i8* %29, align 1
  %30 = getelementptr inbounds %"struct.std::__1::pair.205", %"struct.std::__1::pair.205"* %0, i64 0, i32 1
  %31 = getelementptr inbounds [15 x i8], [15 x i8]* %2, i64 0, i64 0
  %32 = tail call i64 @strlen(i8* %31) #19
  %33 = icmp ugt i64 %32, -17
  br i1 %33, label %34, label %36

34:                                               ; preds = %27
  %35 = bitcast %"class.std::__1::basic_string"* %30 to %"class.std::__1::__basic_string_common"*
  tail call void @_ZNKSt3__121__basic_string_commonILb1EE20__throw_length_errorEv(%"class.std::__1::__basic_string_common"* %35) #20
  unreachable

36:                                               ; preds = %27
  %37 = icmp ult i64 %32, 23
  br i1 %37, label %46, label %38

38:                                               ; preds = %36
  %39 = add nuw i64 %32, 16
  %40 = and i64 %39, -16
  %41 = tail call i8* @_Znwm(i64 %40) #18
  %42 = getelementptr inbounds %"class.std::__1::basic_string", %"class.std::__1::basic_string"* %30, i64 0, i32 0, i32 0, i32 0, i32 0, i32 0, i32 0
  store i8* %41, i8** %42, align 8
  %43 = or i64 %40, -9223372036854775808
  %44 = getelementptr inbounds %"struct.std::__1::pair.205", %"struct.std::__1::pair.205"* %0, i64 0, i32 1, i32 0, i32 0, i32 0, i32 0, i32 0, i32 2
  store i64 %43, i64* %44, align 8
  %45 = getelementptr inbounds %"struct.std::__1::pair.205", %"struct.std::__1::pair.205"* %0, i64 0, i32 1, i32 0, i32 0, i32 0, i32 0, i32 0, i32 1
  store i64 %32, i64* %45, align 8
  br label %52

46:                                               ; preds = %36
  %47 = trunc i64 %32 to i8
  %48 = bitcast %"class.std::__1::basic_string"* %30 to %"struct.std::__1::basic_string<char, std::__1::char_traits<char>, std::__1::allocator<char> >::__short"*
  %49 = getelementptr inbounds %"struct.std::__1::basic_string<char, std::__1::char_traits<char>, std::__1::allocator<char> >::__short", %"struct.std::__1::basic_string<char, std::__1::char_traits<char>, std::__1::allocator<char> >::__short"* %48, i64 0, i32 1, i32 0
  store i8 %47, i8* %49, align 1
  %50 = bitcast %"class.std::__1::basic_string"* %30 to i8*
  %51 = icmp eq i64 %32, 0
  br i1 %51, label %54, label %52

52:                                               ; preds = %46, %38
  %53 = phi i8* [ %41, %38 ], [ %50, %46 ]
  tail call void @llvm.memcpy.p0i8.p0i8.i64(i8* align 1 %53, i8* align 1 %31, i64 %32, i1 false) #19
  br label %54

54:                                               ; preds = %46, %52
  %55 = phi i8* [ %50, %46 ], [ %53, %52 ]
  %56 = getelementptr inbounds i8, i8* %55, i64 %32
  store i8 0, i8* %56, align 1
  ret void
}

; Function Attrs: nounwind ssp uwtable
define linkonce_odr hidden void @_ZNSt3__14pairIKNS_12basic_stringIcNS_11char_traitsIcEENS_9allocatorIcEEEES6_EC2IRA23_KcRA20_SA_Lb0EEEOT_OT0_(%"struct.std::__1::pair.205"*, [23 x i8]* dereferenceable(23), [20 x i8]* dereferenceable(20)) unnamed_addr #1 comdat align 2 {
  %4 = getelementptr inbounds [23 x i8], [23 x i8]* %1, i64 0, i64 0
  %5 = tail call i64 @strlen(i8* %4) #19
  %6 = icmp ugt i64 %5, -17
  br i1 %6, label %7, label %9

7:                                                ; preds = %3
  %8 = bitcast %"struct.std::__1::pair.205"* %0 to %"class.std::__1::__basic_string_common"*
  tail call void @_ZNKSt3__121__basic_string_commonILb1EE20__throw_length_errorEv(%"class.std::__1::__basic_string_common"* %8) #20
  unreachable

9:                                                ; preds = %3
  %10 = icmp ult i64 %5, 23
  br i1 %10, label %19, label %11

11:                                               ; preds = %9
  %12 = add nuw i64 %5, 16
  %13 = and i64 %12, -16
  %14 = tail call i8* @_Znwm(i64 %13) #18
  %15 = getelementptr inbounds %"struct.std::__1::pair.205", %"struct.std::__1::pair.205"* %0, i64 0, i32 0, i32 0, i32 0, i32 0, i32 0, i32 0, i32 0
  store i8* %14, i8** %15, align 8
  %16 = or i64 %13, -9223372036854775808
  %17 = getelementptr inbounds %"struct.std::__1::pair.205", %"struct.std::__1::pair.205"* %0, i64 0, i32 0, i32 0, i32 0, i32 0, i32 0, i32 0, i32 2
  store i64 %16, i64* %17, align 8
  %18 = getelementptr inbounds %"struct.std::__1::pair.205", %"struct.std::__1::pair.205"* %0, i64 0, i32 0, i32 0, i32 0, i32 0, i32 0, i32 0, i32 1
  store i64 %5, i64* %18, align 8
  br label %25

19:                                               ; preds = %9
  %20 = trunc i64 %5 to i8
  %21 = bitcast %"struct.std::__1::pair.205"* %0 to %"struct.std::__1::basic_string<char, std::__1::char_traits<char>, std::__1::allocator<char> >::__short"*
  %22 = getelementptr inbounds %"struct.std::__1::basic_string<char, std::__1::char_traits<char>, std::__1::allocator<char> >::__short", %"struct.std::__1::basic_string<char, std::__1::char_traits<char>, std::__1::allocator<char> >::__short"* %21, i64 0, i32 1, i32 0
  store i8 %20, i8* %22, align 1
  %23 = bitcast %"struct.std::__1::pair.205"* %0 to i8*
  %24 = icmp eq i64 %5, 0
  br i1 %24, label %27, label %25

25:                                               ; preds = %19, %11
  %26 = phi i8* [ %14, %11 ], [ %23, %19 ]
  tail call void @llvm.memcpy.p0i8.p0i8.i64(i8* align 1 %26, i8* align 1 %4, i64 %5, i1 false) #19
  br label %27

27:                                               ; preds = %19, %25
  %28 = phi i8* [ %23, %19 ], [ %26, %25 ]
  %29 = getelementptr inbounds i8, i8* %28, i64 %5
  store i8 0, i8* %29, align 1
  %30 = getelementptr inbounds %"struct.std::__1::pair.205", %"struct.std::__1::pair.205"* %0, i64 0, i32 1
  %31 = getelementptr inbounds [20 x i8], [20 x i8]* %2, i64 0, i64 0
  %32 = tail call i64 @strlen(i8* %31) #19
  %33 = icmp ugt i64 %32, -17
  br i1 %33, label %34, label %36

34:                                               ; preds = %27
  %35 = bitcast %"class.std::__1::basic_string"* %30 to %"class.std::__1::__basic_string_common"*
  tail call void @_ZNKSt3__121__basic_string_commonILb1EE20__throw_length_errorEv(%"class.std::__1::__basic_string_common"* %35) #20
  unreachable

36:                                               ; preds = %27
  %37 = icmp ult i64 %32, 23
  br i1 %37, label %46, label %38

38:                                               ; preds = %36
  %39 = add nuw i64 %32, 16
  %40 = and i64 %39, -16
  %41 = tail call i8* @_Znwm(i64 %40) #18
  %42 = getelementptr inbounds %"class.std::__1::basic_string", %"class.std::__1::basic_string"* %30, i64 0, i32 0, i32 0, i32 0, i32 0, i32 0, i32 0
  store i8* %41, i8** %42, align 8
  %43 = or i64 %40, -9223372036854775808
  %44 = getelementptr inbounds %"struct.std::__1::pair.205", %"struct.std::__1::pair.205"* %0, i64 0, i32 1, i32 0, i32 0, i32 0, i32 0, i32 0, i32 2
  store i64 %43, i64* %44, align 8
  %45 = getelementptr inbounds %"struct.std::__1::pair.205", %"struct.std::__1::pair.205"* %0, i64 0, i32 1, i32 0, i32 0, i32 0, i32 0, i32 0, i32 1
  store i64 %32, i64* %45, align 8
  br label %52

46:                                               ; preds = %36
  %47 = trunc i64 %32 to i8
  %48 = bitcast %"class.std::__1::basic_string"* %30 to %"struct.std::__1::basic_string<char, std::__1::char_traits<char>, std::__1::allocator<char> >::__short"*
  %49 = getelementptr inbounds %"struct.std::__1::basic_string<char, std::__1::char_traits<char>, std::__1::allocator<char> >::__short", %"struct.std::__1::basic_string<char, std::__1::char_traits<char>, std::__1::allocator<char> >::__short"* %48, i64 0, i32 1, i32 0
  store i8 %47, i8* %49, align 1
  %50 = bitcast %"class.std::__1::basic_string"* %30 to i8*
  %51 = icmp eq i64 %32, 0
  br i1 %51, label %54, label %52

52:                                               ; preds = %46, %38
  %53 = phi i8* [ %41, %38 ], [ %50, %46 ]
  tail call void @llvm.memcpy.p0i8.p0i8.i64(i8* align 1 %53, i8* align 1 %31, i64 %32, i1 false) #19
  br label %54

54:                                               ; preds = %46, %52
  %55 = phi i8* [ %50, %46 ], [ %53, %52 ]
  %56 = getelementptr inbounds i8, i8* %55, i64 %32
  store i8 0, i8* %56, align 1
  ret void
}

; Function Attrs: nounwind ssp uwtable
define linkonce_odr hidden void @_ZNSt3__14pairIKNS_12basic_stringIcNS_11char_traitsIcEENS_9allocatorIcEEEES6_EC2IRA19_KcRA15_SA_Lb0EEEOT_OT0_(%"struct.std::__1::pair.205"*, [19 x i8]* dereferenceable(19), [15 x i8]* dereferenceable(15)) unnamed_addr #1 comdat align 2 {
  %4 = getelementptr inbounds [19 x i8], [19 x i8]* %1, i64 0, i64 0
  %5 = tail call i64 @strlen(i8* %4) #19
  %6 = icmp ugt i64 %5, -17
  br i1 %6, label %7, label %9

7:                                                ; preds = %3
  %8 = bitcast %"struct.std::__1::pair.205"* %0 to %"class.std::__1::__basic_string_common"*
  tail call void @_ZNKSt3__121__basic_string_commonILb1EE20__throw_length_errorEv(%"class.std::__1::__basic_string_common"* %8) #20
  unreachable

9:                                                ; preds = %3
  %10 = icmp ult i64 %5, 23
  br i1 %10, label %19, label %11

11:                                               ; preds = %9
  %12 = add nuw i64 %5, 16
  %13 = and i64 %12, -16
  %14 = tail call i8* @_Znwm(i64 %13) #18
  %15 = getelementptr inbounds %"struct.std::__1::pair.205", %"struct.std::__1::pair.205"* %0, i64 0, i32 0, i32 0, i32 0, i32 0, i32 0, i32 0, i32 0
  store i8* %14, i8** %15, align 8
  %16 = or i64 %13, -9223372036854775808
  %17 = getelementptr inbounds %"struct.std::__1::pair.205", %"struct.std::__1::pair.205"* %0, i64 0, i32 0, i32 0, i32 0, i32 0, i32 0, i32 0, i32 2
  store i64 %16, i64* %17, align 8
  %18 = getelementptr inbounds %"struct.std::__1::pair.205", %"struct.std::__1::pair.205"* %0, i64 0, i32 0, i32 0, i32 0, i32 0, i32 0, i32 0, i32 1
  store i64 %5, i64* %18, align 8
  br label %25

19:                                               ; preds = %9
  %20 = trunc i64 %5 to i8
  %21 = bitcast %"struct.std::__1::pair.205"* %0 to %"struct.std::__1::basic_string<char, std::__1::char_traits<char>, std::__1::allocator<char> >::__short"*
  %22 = getelementptr inbounds %"struct.std::__1::basic_string<char, std::__1::char_traits<char>, std::__1::allocator<char> >::__short", %"struct.std::__1::basic_string<char, std::__1::char_traits<char>, std::__1::allocator<char> >::__short"* %21, i64 0, i32 1, i32 0
  store i8 %20, i8* %22, align 1
  %23 = bitcast %"struct.std::__1::pair.205"* %0 to i8*
  %24 = icmp eq i64 %5, 0
  br i1 %24, label %27, label %25

25:                                               ; preds = %19, %11
  %26 = phi i8* [ %14, %11 ], [ %23, %19 ]
  tail call void @llvm.memcpy.p0i8.p0i8.i64(i8* align 1 %26, i8* align 1 %4, i64 %5, i1 false) #19
  br label %27

27:                                               ; preds = %19, %25
  %28 = phi i8* [ %23, %19 ], [ %26, %25 ]
  %29 = getelementptr inbounds i8, i8* %28, i64 %5
  store i8 0, i8* %29, align 1
  %30 = getelementptr inbounds %"struct.std::__1::pair.205", %"struct.std::__1::pair.205"* %0, i64 0, i32 1
  %31 = getelementptr inbounds [15 x i8], [15 x i8]* %2, i64 0, i64 0
  %32 = tail call i64 @strlen(i8* %31) #19
  %33 = icmp ugt i64 %32, -17
  br i1 %33, label %34, label %36

34:                                               ; preds = %27
  %35 = bitcast %"class.std::__1::basic_string"* %30 to %"class.std::__1::__basic_string_common"*
  tail call void @_ZNKSt3__121__basic_string_commonILb1EE20__throw_length_errorEv(%"class.std::__1::__basic_string_common"* %35) #20
  unreachable

36:                                               ; preds = %27
  %37 = icmp ult i64 %32, 23
  br i1 %37, label %46, label %38

38:                                               ; preds = %36
  %39 = add nuw i64 %32, 16
  %40 = and i64 %39, -16
  %41 = tail call i8* @_Znwm(i64 %40) #18
  %42 = getelementptr inbounds %"class.std::__1::basic_string", %"class.std::__1::basic_string"* %30, i64 0, i32 0, i32 0, i32 0, i32 0, i32 0, i32 0
  store i8* %41, i8** %42, align 8
  %43 = or i64 %40, -9223372036854775808
  %44 = getelementptr inbounds %"struct.std::__1::pair.205", %"struct.std::__1::pair.205"* %0, i64 0, i32 1, i32 0, i32 0, i32 0, i32 0, i32 0, i32 2
  store i64 %43, i64* %44, align 8
  %45 = getelementptr inbounds %"struct.std::__1::pair.205", %"struct.std::__1::pair.205"* %0, i64 0, i32 1, i32 0, i32 0, i32 0, i32 0, i32 0, i32 1
  store i64 %32, i64* %45, align 8
  br label %52

46:                                               ; preds = %36
  %47 = trunc i64 %32 to i8
  %48 = bitcast %"class.std::__1::basic_string"* %30 to %"struct.std::__1::basic_string<char, std::__1::char_traits<char>, std::__1::allocator<char> >::__short"*
  %49 = getelementptr inbounds %"struct.std::__1::basic_string<char, std::__1::char_traits<char>, std::__1::allocator<char> >::__short", %"struct.std::__1::basic_string<char, std::__1::char_traits<char>, std::__1::allocator<char> >::__short"* %48, i64 0, i32 1, i32 0
  store i8 %47, i8* %49, align 1
  %50 = bitcast %"class.std::__1::basic_string"* %30 to i8*
  %51 = icmp eq i64 %32, 0
  br i1 %51, label %54, label %52

52:                                               ; preds = %46, %38
  %53 = phi i8* [ %41, %38 ], [ %50, %46 ]
  tail call void @llvm.memcpy.p0i8.p0i8.i64(i8* align 1 %53, i8* align 1 %31, i64 %32, i1 false) #19
  br label %54

54:                                               ; preds = %46, %52
  %55 = phi i8* [ %50, %46 ], [ %53, %52 ]
  %56 = getelementptr inbounds i8, i8* %55, i64 %32
  store i8 0, i8* %56, align 1
  ret void
}

; Function Attrs: nounwind ssp uwtable
define linkonce_odr hidden void @_ZNSt3__14pairIKNS_12basic_stringIcNS_11char_traitsIcEENS_9allocatorIcEEEES6_EC2IRA22_KcRA20_SA_Lb0EEEOT_OT0_(%"struct.std::__1::pair.205"*, [22 x i8]* dereferenceable(22), [20 x i8]* dereferenceable(20)) unnamed_addr #1 comdat align 2 {
  %4 = getelementptr inbounds [22 x i8], [22 x i8]* %1, i64 0, i64 0
  %5 = tail call i64 @strlen(i8* %4) #19
  %6 = icmp ugt i64 %5, -17
  br i1 %6, label %7, label %9

7:                                                ; preds = %3
  %8 = bitcast %"struct.std::__1::pair.205"* %0 to %"class.std::__1::__basic_string_common"*
  tail call void @_ZNKSt3__121__basic_string_commonILb1EE20__throw_length_errorEv(%"class.std::__1::__basic_string_common"* %8) #20
  unreachable

9:                                                ; preds = %3
  %10 = icmp ult i64 %5, 23
  br i1 %10, label %19, label %11

11:                                               ; preds = %9
  %12 = add nuw i64 %5, 16
  %13 = and i64 %12, -16
  %14 = tail call i8* @_Znwm(i64 %13) #18
  %15 = getelementptr inbounds %"struct.std::__1::pair.205", %"struct.std::__1::pair.205"* %0, i64 0, i32 0, i32 0, i32 0, i32 0, i32 0, i32 0, i32 0
  store i8* %14, i8** %15, align 8
  %16 = or i64 %13, -9223372036854775808
  %17 = getelementptr inbounds %"struct.std::__1::pair.205", %"struct.std::__1::pair.205"* %0, i64 0, i32 0, i32 0, i32 0, i32 0, i32 0, i32 0, i32 2
  store i64 %16, i64* %17, align 8
  %18 = getelementptr inbounds %"struct.std::__1::pair.205", %"struct.std::__1::pair.205"* %0, i64 0, i32 0, i32 0, i32 0, i32 0, i32 0, i32 0, i32 1
  store i64 %5, i64* %18, align 8
  br label %25

19:                                               ; preds = %9
  %20 = trunc i64 %5 to i8
  %21 = bitcast %"struct.std::__1::pair.205"* %0 to %"struct.std::__1::basic_string<char, std::__1::char_traits<char>, std::__1::allocator<char> >::__short"*
  %22 = getelementptr inbounds %"struct.std::__1::basic_string<char, std::__1::char_traits<char>, std::__1::allocator<char> >::__short", %"struct.std::__1::basic_string<char, std::__1::char_traits<char>, std::__1::allocator<char> >::__short"* %21, i64 0, i32 1, i32 0
  store i8 %20, i8* %22, align 1
  %23 = bitcast %"struct.std::__1::pair.205"* %0 to i8*
  %24 = icmp eq i64 %5, 0
  br i1 %24, label %27, label %25

25:                                               ; preds = %19, %11
  %26 = phi i8* [ %14, %11 ], [ %23, %19 ]
  tail call void @llvm.memcpy.p0i8.p0i8.i64(i8* align 1 %26, i8* align 1 %4, i64 %5, i1 false) #19
  br label %27

27:                                               ; preds = %19, %25
  %28 = phi i8* [ %23, %19 ], [ %26, %25 ]
  %29 = getelementptr inbounds i8, i8* %28, i64 %5
  store i8 0, i8* %29, align 1
  %30 = getelementptr inbounds %"struct.std::__1::pair.205", %"struct.std::__1::pair.205"* %0, i64 0, i32 1
  %31 = getelementptr inbounds [20 x i8], [20 x i8]* %2, i64 0, i64 0
  %32 = tail call i64 @strlen(i8* %31) #19
  %33 = icmp ugt i64 %32, -17
  br i1 %33, label %34, label %36

34:                                               ; preds = %27
  %35 = bitcast %"class.std::__1::basic_string"* %30 to %"class.std::__1::__basic_string_common"*
  tail call void @_ZNKSt3__121__basic_string_commonILb1EE20__throw_length_errorEv(%"class.std::__1::__basic_string_common"* %35) #20
  unreachable

36:                                               ; preds = %27
  %37 = icmp ult i64 %32, 23
  br i1 %37, label %46, label %38

38:                                               ; preds = %36
  %39 = add nuw i64 %32, 16
  %40 = and i64 %39, -16
  %41 = tail call i8* @_Znwm(i64 %40) #18
  %42 = getelementptr inbounds %"class.std::__1::basic_string", %"class.std::__1::basic_string"* %30, i64 0, i32 0, i32 0, i32 0, i32 0, i32 0, i32 0
  store i8* %41, i8** %42, align 8
  %43 = or i64 %40, -9223372036854775808
  %44 = getelementptr inbounds %"struct.std::__1::pair.205", %"struct.std::__1::pair.205"* %0, i64 0, i32 1, i32 0, i32 0, i32 0, i32 0, i32 0, i32 2
  store i64 %43, i64* %44, align 8
  %45 = getelementptr inbounds %"struct.std::__1::pair.205", %"struct.std::__1::pair.205"* %0, i64 0, i32 1, i32 0, i32 0, i32 0, i32 0, i32 0, i32 1
  store i64 %32, i64* %45, align 8
  br label %52

46:                                               ; preds = %36
  %47 = trunc i64 %32 to i8
  %48 = bitcast %"class.std::__1::basic_string"* %30 to %"struct.std::__1::basic_string<char, std::__1::char_traits<char>, std::__1::allocator<char> >::__short"*
  %49 = getelementptr inbounds %"struct.std::__1::basic_string<char, std::__1::char_traits<char>, std::__1::allocator<char> >::__short", %"struct.std::__1::basic_string<char, std::__1::char_traits<char>, std::__1::allocator<char> >::__short"* %48, i64 0, i32 1, i32 0
  store i8 %47, i8* %49, align 1
  %50 = bitcast %"class.std::__1::basic_string"* %30 to i8*
  %51 = icmp eq i64 %32, 0
  br i1 %51, label %54, label %52

52:                                               ; preds = %46, %38
  %53 = phi i8* [ %41, %38 ], [ %50, %46 ]
  tail call void @llvm.memcpy.p0i8.p0i8.i64(i8* align 1 %53, i8* align 1 %31, i64 %32, i1 false) #19
  br label %54

54:                                               ; preds = %46, %52
  %55 = phi i8* [ %50, %46 ], [ %53, %52 ]
  %56 = getelementptr inbounds i8, i8* %55, i64 %32
  store i8 0, i8* %56, align 1
  ret void
}

; Function Attrs: nounwind ssp uwtable
define linkonce_odr hidden void @_ZNSt3__14pairIKNS_12basic_stringIcNS_11char_traitsIcEENS_9allocatorIcEEEES6_EC2IRA28_KcRA19_SA_Lb0EEEOT_OT0_(%"struct.std::__1::pair.205"*, [28 x i8]* dereferenceable(28), [19 x i8]* dereferenceable(19)) unnamed_addr #1 comdat align 2 {
  %4 = getelementptr inbounds [28 x i8], [28 x i8]* %1, i64 0, i64 0
  %5 = tail call i64 @strlen(i8* %4) #19
  %6 = icmp ugt i64 %5, -17
  br i1 %6, label %7, label %9

7:                                                ; preds = %3
  %8 = bitcast %"struct.std::__1::pair.205"* %0 to %"class.std::__1::__basic_string_common"*
  tail call void @_ZNKSt3__121__basic_string_commonILb1EE20__throw_length_errorEv(%"class.std::__1::__basic_string_common"* %8) #20
  unreachable

9:                                                ; preds = %3
  %10 = icmp ult i64 %5, 23
  br i1 %10, label %19, label %11

11:                                               ; preds = %9
  %12 = add nuw i64 %5, 16
  %13 = and i64 %12, -16
  %14 = tail call i8* @_Znwm(i64 %13) #18
  %15 = getelementptr inbounds %"struct.std::__1::pair.205", %"struct.std::__1::pair.205"* %0, i64 0, i32 0, i32 0, i32 0, i32 0, i32 0, i32 0, i32 0
  store i8* %14, i8** %15, align 8
  %16 = or i64 %13, -9223372036854775808
  %17 = getelementptr inbounds %"struct.std::__1::pair.205", %"struct.std::__1::pair.205"* %0, i64 0, i32 0, i32 0, i32 0, i32 0, i32 0, i32 0, i32 2
  store i64 %16, i64* %17, align 8
  %18 = getelementptr inbounds %"struct.std::__1::pair.205", %"struct.std::__1::pair.205"* %0, i64 0, i32 0, i32 0, i32 0, i32 0, i32 0, i32 0, i32 1
  store i64 %5, i64* %18, align 8
  br label %25

19:                                               ; preds = %9
  %20 = trunc i64 %5 to i8
  %21 = bitcast %"struct.std::__1::pair.205"* %0 to %"struct.std::__1::basic_string<char, std::__1::char_traits<char>, std::__1::allocator<char> >::__short"*
  %22 = getelementptr inbounds %"struct.std::__1::basic_string<char, std::__1::char_traits<char>, std::__1::allocator<char> >::__short", %"struct.std::__1::basic_string<char, std::__1::char_traits<char>, std::__1::allocator<char> >::__short"* %21, i64 0, i32 1, i32 0
  store i8 %20, i8* %22, align 1
  %23 = bitcast %"struct.std::__1::pair.205"* %0 to i8*
  %24 = icmp eq i64 %5, 0
  br i1 %24, label %27, label %25

25:                                               ; preds = %19, %11
  %26 = phi i8* [ %14, %11 ], [ %23, %19 ]
  tail call void @llvm.memcpy.p0i8.p0i8.i64(i8* align 1 %26, i8* align 1 %4, i64 %5, i1 false) #19
  br label %27

27:                                               ; preds = %19, %25
  %28 = phi i8* [ %23, %19 ], [ %26, %25 ]
  %29 = getelementptr inbounds i8, i8* %28, i64 %5
  store i8 0, i8* %29, align 1
  %30 = getelementptr inbounds %"struct.std::__1::pair.205", %"struct.std::__1::pair.205"* %0, i64 0, i32 1
  %31 = getelementptr inbounds [19 x i8], [19 x i8]* %2, i64 0, i64 0
  %32 = tail call i64 @strlen(i8* %31) #19
  %33 = icmp ugt i64 %32, -17
  br i1 %33, label %34, label %36

34:                                               ; preds = %27
  %35 = bitcast %"class.std::__1::basic_string"* %30 to %"class.std::__1::__basic_string_common"*
  tail call void @_ZNKSt3__121__basic_string_commonILb1EE20__throw_length_errorEv(%"class.std::__1::__basic_string_common"* %35) #20
  unreachable

36:                                               ; preds = %27
  %37 = icmp ult i64 %32, 23
  br i1 %37, label %46, label %38

38:                                               ; preds = %36
  %39 = add nuw i64 %32, 16
  %40 = and i64 %39, -16
  %41 = tail call i8* @_Znwm(i64 %40) #18
  %42 = getelementptr inbounds %"class.std::__1::basic_string", %"class.std::__1::basic_string"* %30, i64 0, i32 0, i32 0, i32 0, i32 0, i32 0, i32 0
  store i8* %41, i8** %42, align 8
  %43 = or i64 %40, -9223372036854775808
  %44 = getelementptr inbounds %"struct.std::__1::pair.205", %"struct.std::__1::pair.205"* %0, i64 0, i32 1, i32 0, i32 0, i32 0, i32 0, i32 0, i32 2
  store i64 %43, i64* %44, align 8
  %45 = getelementptr inbounds %"struct.std::__1::pair.205", %"struct.std::__1::pair.205"* %0, i64 0, i32 1, i32 0, i32 0, i32 0, i32 0, i32 0, i32 1
  store i64 %32, i64* %45, align 8
  br label %52

46:                                               ; preds = %36
  %47 = trunc i64 %32 to i8
  %48 = bitcast %"class.std::__1::basic_string"* %30 to %"struct.std::__1::basic_string<char, std::__1::char_traits<char>, std::__1::allocator<char> >::__short"*
  %49 = getelementptr inbounds %"struct.std::__1::basic_string<char, std::__1::char_traits<char>, std::__1::allocator<char> >::__short", %"struct.std::__1::basic_string<char, std::__1::char_traits<char>, std::__1::allocator<char> >::__short"* %48, i64 0, i32 1, i32 0
  store i8 %47, i8* %49, align 1
  %50 = bitcast %"class.std::__1::basic_string"* %30 to i8*
  %51 = icmp eq i64 %32, 0
  br i1 %51, label %54, label %52

52:                                               ; preds = %46, %38
  %53 = phi i8* [ %41, %38 ], [ %50, %46 ]
  tail call void @llvm.memcpy.p0i8.p0i8.i64(i8* align 1 %53, i8* align 1 %31, i64 %32, i1 false) #19
  br label %54

54:                                               ; preds = %46, %52
  %55 = phi i8* [ %50, %46 ], [ %53, %52 ]
  %56 = getelementptr inbounds i8, i8* %55, i64 %32
  store i8 0, i8* %56, align 1
  ret void
}

; Function Attrs: nounwind ssp uwtable
define linkonce_odr hidden void @_ZNSt3__14pairIKNS_12basic_stringIcNS_11char_traitsIcEENS_9allocatorIcEEEES6_EC2IRA33_KcRA30_SA_Lb0EEEOT_OT0_(%"struct.std::__1::pair.205"*, [33 x i8]* dereferenceable(33), [30 x i8]* dereferenceable(30)) unnamed_addr #1 comdat align 2 {
  %4 = getelementptr inbounds [33 x i8], [33 x i8]* %1, i64 0, i64 0
  %5 = tail call i64 @strlen(i8* %4) #19
  %6 = icmp ugt i64 %5, -17
  br i1 %6, label %7, label %9

7:                                                ; preds = %3
  %8 = bitcast %"struct.std::__1::pair.205"* %0 to %"class.std::__1::__basic_string_common"*
  tail call void @_ZNKSt3__121__basic_string_commonILb1EE20__throw_length_errorEv(%"class.std::__1::__basic_string_common"* %8) #20
  unreachable

9:                                                ; preds = %3
  %10 = icmp ult i64 %5, 23
  br i1 %10, label %19, label %11

11:                                               ; preds = %9
  %12 = add nuw i64 %5, 16
  %13 = and i64 %12, -16
  %14 = tail call i8* @_Znwm(i64 %13) #18
  %15 = getelementptr inbounds %"struct.std::__1::pair.205", %"struct.std::__1::pair.205"* %0, i64 0, i32 0, i32 0, i32 0, i32 0, i32 0, i32 0, i32 0
  store i8* %14, i8** %15, align 8
  %16 = or i64 %13, -9223372036854775808
  %17 = getelementptr inbounds %"struct.std::__1::pair.205", %"struct.std::__1::pair.205"* %0, i64 0, i32 0, i32 0, i32 0, i32 0, i32 0, i32 0, i32 2
  store i64 %16, i64* %17, align 8
  %18 = getelementptr inbounds %"struct.std::__1::pair.205", %"struct.std::__1::pair.205"* %0, i64 0, i32 0, i32 0, i32 0, i32 0, i32 0, i32 0, i32 1
  store i64 %5, i64* %18, align 8
  br label %25

19:                                               ; preds = %9
  %20 = trunc i64 %5 to i8
  %21 = bitcast %"struct.std::__1::pair.205"* %0 to %"struct.std::__1::basic_string<char, std::__1::char_traits<char>, std::__1::allocator<char> >::__short"*
  %22 = getelementptr inbounds %"struct.std::__1::basic_string<char, std::__1::char_traits<char>, std::__1::allocator<char> >::__short", %"struct.std::__1::basic_string<char, std::__1::char_traits<char>, std::__1::allocator<char> >::__short"* %21, i64 0, i32 1, i32 0
  store i8 %20, i8* %22, align 1
  %23 = bitcast %"struct.std::__1::pair.205"* %0 to i8*
  %24 = icmp eq i64 %5, 0
  br i1 %24, label %27, label %25

25:                                               ; preds = %19, %11
  %26 = phi i8* [ %14, %11 ], [ %23, %19 ]
  tail call void @llvm.memcpy.p0i8.p0i8.i64(i8* align 1 %26, i8* align 1 %4, i64 %5, i1 false) #19
  br label %27

27:                                               ; preds = %19, %25
  %28 = phi i8* [ %23, %19 ], [ %26, %25 ]
  %29 = getelementptr inbounds i8, i8* %28, i64 %5
  store i8 0, i8* %29, align 1
  %30 = getelementptr inbounds %"struct.std::__1::pair.205", %"struct.std::__1::pair.205"* %0, i64 0, i32 1
  %31 = getelementptr inbounds [30 x i8], [30 x i8]* %2, i64 0, i64 0
  %32 = tail call i64 @strlen(i8* %31) #19
  %33 = icmp ugt i64 %32, -17
  br i1 %33, label %34, label %36

34:                                               ; preds = %27
  %35 = bitcast %"class.std::__1::basic_string"* %30 to %"class.std::__1::__basic_string_common"*
  tail call void @_ZNKSt3__121__basic_string_commonILb1EE20__throw_length_errorEv(%"class.std::__1::__basic_string_common"* %35) #20
  unreachable

36:                                               ; preds = %27
  %37 = icmp ult i64 %32, 23
  br i1 %37, label %46, label %38

38:                                               ; preds = %36
  %39 = add nuw i64 %32, 16
  %40 = and i64 %39, -16
  %41 = tail call i8* @_Znwm(i64 %40) #18
  %42 = getelementptr inbounds %"class.std::__1::basic_string", %"class.std::__1::basic_string"* %30, i64 0, i32 0, i32 0, i32 0, i32 0, i32 0, i32 0
  store i8* %41, i8** %42, align 8
  %43 = or i64 %40, -9223372036854775808
  %44 = getelementptr inbounds %"struct.std::__1::pair.205", %"struct.std::__1::pair.205"* %0, i64 0, i32 1, i32 0, i32 0, i32 0, i32 0, i32 0, i32 2
  store i64 %43, i64* %44, align 8
  %45 = getelementptr inbounds %"struct.std::__1::pair.205", %"struct.std::__1::pair.205"* %0, i64 0, i32 1, i32 0, i32 0, i32 0, i32 0, i32 0, i32 1
  store i64 %32, i64* %45, align 8
  br label %52

46:                                               ; preds = %36
  %47 = trunc i64 %32 to i8
  %48 = bitcast %"class.std::__1::basic_string"* %30 to %"struct.std::__1::basic_string<char, std::__1::char_traits<char>, std::__1::allocator<char> >::__short"*
  %49 = getelementptr inbounds %"struct.std::__1::basic_string<char, std::__1::char_traits<char>, std::__1::allocator<char> >::__short", %"struct.std::__1::basic_string<char, std::__1::char_traits<char>, std::__1::allocator<char> >::__short"* %48, i64 0, i32 1, i32 0
  store i8 %47, i8* %49, align 1
  %50 = bitcast %"class.std::__1::basic_string"* %30 to i8*
  %51 = icmp eq i64 %32, 0
  br i1 %51, label %54, label %52

52:                                               ; preds = %46, %38
  %53 = phi i8* [ %41, %38 ], [ %50, %46 ]
  tail call void @llvm.memcpy.p0i8.p0i8.i64(i8* align 1 %53, i8* align 1 %31, i64 %32, i1 false) #19
  br label %54

54:                                               ; preds = %46, %52
  %55 = phi i8* [ %50, %46 ], [ %53, %52 ]
  %56 = getelementptr inbounds i8, i8* %55, i64 %32
  store i8 0, i8* %56, align 1
  ret void
}

; Function Attrs: nounwind ssp uwtable
define linkonce_odr hidden void @_ZNSt3__14pairIKNS_12basic_stringIcNS_11char_traitsIcEENS_9allocatorIcEEEES6_EC2IRA34_KcRA29_SA_Lb0EEEOT_OT0_(%"struct.std::__1::pair.205"*, [34 x i8]* dereferenceable(34), [29 x i8]* dereferenceable(29)) unnamed_addr #1 comdat align 2 {
  %4 = getelementptr inbounds [34 x i8], [34 x i8]* %1, i64 0, i64 0
  %5 = tail call i64 @strlen(i8* %4) #19
  %6 = icmp ugt i64 %5, -17
  br i1 %6, label %7, label %9

7:                                                ; preds = %3
  %8 = bitcast %"struct.std::__1::pair.205"* %0 to %"class.std::__1::__basic_string_common"*
  tail call void @_ZNKSt3__121__basic_string_commonILb1EE20__throw_length_errorEv(%"class.std::__1::__basic_string_common"* %8) #20
  unreachable

9:                                                ; preds = %3
  %10 = icmp ult i64 %5, 23
  br i1 %10, label %19, label %11

11:                                               ; preds = %9
  %12 = add nuw i64 %5, 16
  %13 = and i64 %12, -16
  %14 = tail call i8* @_Znwm(i64 %13) #18
  %15 = getelementptr inbounds %"struct.std::__1::pair.205", %"struct.std::__1::pair.205"* %0, i64 0, i32 0, i32 0, i32 0, i32 0, i32 0, i32 0, i32 0
  store i8* %14, i8** %15, align 8
  %16 = or i64 %13, -9223372036854775808
  %17 = getelementptr inbounds %"struct.std::__1::pair.205", %"struct.std::__1::pair.205"* %0, i64 0, i32 0, i32 0, i32 0, i32 0, i32 0, i32 0, i32 2
  store i64 %16, i64* %17, align 8
  %18 = getelementptr inbounds %"struct.std::__1::pair.205", %"struct.std::__1::pair.205"* %0, i64 0, i32 0, i32 0, i32 0, i32 0, i32 0, i32 0, i32 1
  store i64 %5, i64* %18, align 8
  br label %25

19:                                               ; preds = %9
  %20 = trunc i64 %5 to i8
  %21 = bitcast %"struct.std::__1::pair.205"* %0 to %"struct.std::__1::basic_string<char, std::__1::char_traits<char>, std::__1::allocator<char> >::__short"*
  %22 = getelementptr inbounds %"struct.std::__1::basic_string<char, std::__1::char_traits<char>, std::__1::allocator<char> >::__short", %"struct.std::__1::basic_string<char, std::__1::char_traits<char>, std::__1::allocator<char> >::__short"* %21, i64 0, i32 1, i32 0
  store i8 %20, i8* %22, align 1
  %23 = bitcast %"struct.std::__1::pair.205"* %0 to i8*
  %24 = icmp eq i64 %5, 0
  br i1 %24, label %27, label %25

25:                                               ; preds = %19, %11
  %26 = phi i8* [ %14, %11 ], [ %23, %19 ]
  tail call void @llvm.memcpy.p0i8.p0i8.i64(i8* align 1 %26, i8* align 1 %4, i64 %5, i1 false) #19
  br label %27

27:                                               ; preds = %19, %25
  %28 = phi i8* [ %23, %19 ], [ %26, %25 ]
  %29 = getelementptr inbounds i8, i8* %28, i64 %5
  store i8 0, i8* %29, align 1
  %30 = getelementptr inbounds %"struct.std::__1::pair.205", %"struct.std::__1::pair.205"* %0, i64 0, i32 1
  %31 = getelementptr inbounds [29 x i8], [29 x i8]* %2, i64 0, i64 0
  %32 = tail call i64 @strlen(i8* %31) #19
  %33 = icmp ugt i64 %32, -17
  br i1 %33, label %34, label %36

34:                                               ; preds = %27
  %35 = bitcast %"class.std::__1::basic_string"* %30 to %"class.std::__1::__basic_string_common"*
  tail call void @_ZNKSt3__121__basic_string_commonILb1EE20__throw_length_errorEv(%"class.std::__1::__basic_string_common"* %35) #20
  unreachable

36:                                               ; preds = %27
  %37 = icmp ult i64 %32, 23
  br i1 %37, label %46, label %38

38:                                               ; preds = %36
  %39 = add nuw i64 %32, 16
  %40 = and i64 %39, -16
  %41 = tail call i8* @_Znwm(i64 %40) #18
  %42 = getelementptr inbounds %"class.std::__1::basic_string", %"class.std::__1::basic_string"* %30, i64 0, i32 0, i32 0, i32 0, i32 0, i32 0, i32 0
  store i8* %41, i8** %42, align 8
  %43 = or i64 %40, -9223372036854775808
  %44 = getelementptr inbounds %"struct.std::__1::pair.205", %"struct.std::__1::pair.205"* %0, i64 0, i32 1, i32 0, i32 0, i32 0, i32 0, i32 0, i32 2
  store i64 %43, i64* %44, align 8
  %45 = getelementptr inbounds %"struct.std::__1::pair.205", %"struct.std::__1::pair.205"* %0, i64 0, i32 1, i32 0, i32 0, i32 0, i32 0, i32 0, i32 1
  store i64 %32, i64* %45, align 8
  br label %52

46:                                               ; preds = %36
  %47 = trunc i64 %32 to i8
  %48 = bitcast %"class.std::__1::basic_string"* %30 to %"struct.std::__1::basic_string<char, std::__1::char_traits<char>, std::__1::allocator<char> >::__short"*
  %49 = getelementptr inbounds %"struct.std::__1::basic_string<char, std::__1::char_traits<char>, std::__1::allocator<char> >::__short", %"struct.std::__1::basic_string<char, std::__1::char_traits<char>, std::__1::allocator<char> >::__short"* %48, i64 0, i32 1, i32 0
  store i8 %47, i8* %49, align 1
  %50 = bitcast %"class.std::__1::basic_string"* %30 to i8*
  %51 = icmp eq i64 %32, 0
  br i1 %51, label %54, label %52

52:                                               ; preds = %46, %38
  %53 = phi i8* [ %41, %38 ], [ %50, %46 ]
  tail call void @llvm.memcpy.p0i8.p0i8.i64(i8* align 1 %53, i8* align 1 %31, i64 %32, i1 false) #19
  br label %54

54:                                               ; preds = %46, %52
  %55 = phi i8* [ %50, %46 ], [ %53, %52 ]
  %56 = getelementptr inbounds i8, i8* %55, i64 %32
  store i8 0, i8* %56, align 1
  ret void
}

; Function Attrs: nounwind ssp uwtable
define linkonce_odr hidden void @_ZNSt3__14pairIKNS_12basic_stringIcNS_11char_traitsIcEENS_9allocatorIcEEEES6_EC2IRA29_KcRA19_SA_Lb0EEEOT_OT0_(%"struct.std::__1::pair.205"*, [29 x i8]* dereferenceable(29), [19 x i8]* dereferenceable(19)) unnamed_addr #1 comdat align 2 {
  %4 = getelementptr inbounds [29 x i8], [29 x i8]* %1, i64 0, i64 0
  %5 = tail call i64 @strlen(i8* %4) #19
  %6 = icmp ugt i64 %5, -17
  br i1 %6, label %7, label %9

7:                                                ; preds = %3
  %8 = bitcast %"struct.std::__1::pair.205"* %0 to %"class.std::__1::__basic_string_common"*
  tail call void @_ZNKSt3__121__basic_string_commonILb1EE20__throw_length_errorEv(%"class.std::__1::__basic_string_common"* %8) #20
  unreachable

9:                                                ; preds = %3
  %10 = icmp ult i64 %5, 23
  br i1 %10, label %19, label %11

11:                                               ; preds = %9
  %12 = add nuw i64 %5, 16
  %13 = and i64 %12, -16
  %14 = tail call i8* @_Znwm(i64 %13) #18
  %15 = getelementptr inbounds %"struct.std::__1::pair.205", %"struct.std::__1::pair.205"* %0, i64 0, i32 0, i32 0, i32 0, i32 0, i32 0, i32 0, i32 0
  store i8* %14, i8** %15, align 8
  %16 = or i64 %13, -9223372036854775808
  %17 = getelementptr inbounds %"struct.std::__1::pair.205", %"struct.std::__1::pair.205"* %0, i64 0, i32 0, i32 0, i32 0, i32 0, i32 0, i32 0, i32 2
  store i64 %16, i64* %17, align 8
  %18 = getelementptr inbounds %"struct.std::__1::pair.205", %"struct.std::__1::pair.205"* %0, i64 0, i32 0, i32 0, i32 0, i32 0, i32 0, i32 0, i32 1
  store i64 %5, i64* %18, align 8
  br label %25

19:                                               ; preds = %9
  %20 = trunc i64 %5 to i8
  %21 = bitcast %"struct.std::__1::pair.205"* %0 to %"struct.std::__1::basic_string<char, std::__1::char_traits<char>, std::__1::allocator<char> >::__short"*
  %22 = getelementptr inbounds %"struct.std::__1::basic_string<char, std::__1::char_traits<char>, std::__1::allocator<char> >::__short", %"struct.std::__1::basic_string<char, std::__1::char_traits<char>, std::__1::allocator<char> >::__short"* %21, i64 0, i32 1, i32 0
  store i8 %20, i8* %22, align 1
  %23 = bitcast %"struct.std::__1::pair.205"* %0 to i8*
  %24 = icmp eq i64 %5, 0
  br i1 %24, label %27, label %25

25:                                               ; preds = %19, %11
  %26 = phi i8* [ %14, %11 ], [ %23, %19 ]
  tail call void @llvm.memcpy.p0i8.p0i8.i64(i8* align 1 %26, i8* align 1 %4, i64 %5, i1 false) #19
  br label %27

27:                                               ; preds = %19, %25
  %28 = phi i8* [ %23, %19 ], [ %26, %25 ]
  %29 = getelementptr inbounds i8, i8* %28, i64 %5
  store i8 0, i8* %29, align 1
  %30 = getelementptr inbounds %"struct.std::__1::pair.205", %"struct.std::__1::pair.205"* %0, i64 0, i32 1
  %31 = getelementptr inbounds [19 x i8], [19 x i8]* %2, i64 0, i64 0
  %32 = tail call i64 @strlen(i8* %31) #19
  %33 = icmp ugt i64 %32, -17
  br i1 %33, label %34, label %36

34:                                               ; preds = %27
  %35 = bitcast %"class.std::__1::basic_string"* %30 to %"class.std::__1::__basic_string_common"*
  tail call void @_ZNKSt3__121__basic_string_commonILb1EE20__throw_length_errorEv(%"class.std::__1::__basic_string_common"* %35) #20
  unreachable

36:                                               ; preds = %27
  %37 = icmp ult i64 %32, 23
  br i1 %37, label %46, label %38

38:                                               ; preds = %36
  %39 = add nuw i64 %32, 16
  %40 = and i64 %39, -16
  %41 = tail call i8* @_Znwm(i64 %40) #18
  %42 = getelementptr inbounds %"class.std::__1::basic_string", %"class.std::__1::basic_string"* %30, i64 0, i32 0, i32 0, i32 0, i32 0, i32 0, i32 0
  store i8* %41, i8** %42, align 8
  %43 = or i64 %40, -9223372036854775808
  %44 = getelementptr inbounds %"struct.std::__1::pair.205", %"struct.std::__1::pair.205"* %0, i64 0, i32 1, i32 0, i32 0, i32 0, i32 0, i32 0, i32 2
  store i64 %43, i64* %44, align 8
  %45 = getelementptr inbounds %"struct.std::__1::pair.205", %"struct.std::__1::pair.205"* %0, i64 0, i32 1, i32 0, i32 0, i32 0, i32 0, i32 0, i32 1
  store i64 %32, i64* %45, align 8
  br label %52

46:                                               ; preds = %36
  %47 = trunc i64 %32 to i8
  %48 = bitcast %"class.std::__1::basic_string"* %30 to %"struct.std::__1::basic_string<char, std::__1::char_traits<char>, std::__1::allocator<char> >::__short"*
  %49 = getelementptr inbounds %"struct.std::__1::basic_string<char, std::__1::char_traits<char>, std::__1::allocator<char> >::__short", %"struct.std::__1::basic_string<char, std::__1::char_traits<char>, std::__1::allocator<char> >::__short"* %48, i64 0, i32 1, i32 0
  store i8 %47, i8* %49, align 1
  %50 = bitcast %"class.std::__1::basic_string"* %30 to i8*
  %51 = icmp eq i64 %32, 0
  br i1 %51, label %54, label %52

52:                                               ; preds = %46, %38
  %53 = phi i8* [ %41, %38 ], [ %50, %46 ]
  tail call void @llvm.memcpy.p0i8.p0i8.i64(i8* align 1 %53, i8* align 1 %31, i64 %32, i1 false) #19
  br label %54

54:                                               ; preds = %46, %52
  %55 = phi i8* [ %50, %46 ], [ %53, %52 ]
  %56 = getelementptr inbounds i8, i8* %55, i64 %32
  store i8 0, i8* %56, align 1
  ret void
}

; Function Attrs: nounwind ssp uwtable
define linkonce_odr hidden void @_ZNSt3__14pairIKNS_12basic_stringIcNS_11char_traitsIcEENS_9allocatorIcEEEES6_EC2IRA26_KcSC_Lb0EEEOT_OT0_(%"struct.std::__1::pair.205"*, [26 x i8]* dereferenceable(26), [26 x i8]* dereferenceable(26)) unnamed_addr #1 comdat align 2 {
  %4 = getelementptr inbounds [26 x i8], [26 x i8]* %1, i64 0, i64 0
  %5 = tail call i64 @strlen(i8* %4) #19
  %6 = icmp ugt i64 %5, -17
  br i1 %6, label %7, label %9

7:                                                ; preds = %3
  %8 = bitcast %"struct.std::__1::pair.205"* %0 to %"class.std::__1::__basic_string_common"*
  tail call void @_ZNKSt3__121__basic_string_commonILb1EE20__throw_length_errorEv(%"class.std::__1::__basic_string_common"* %8) #20
  unreachable

9:                                                ; preds = %3
  %10 = icmp ult i64 %5, 23
  br i1 %10, label %19, label %11

11:                                               ; preds = %9
  %12 = add nuw i64 %5, 16
  %13 = and i64 %12, -16
  %14 = tail call i8* @_Znwm(i64 %13) #18
  %15 = getelementptr inbounds %"struct.std::__1::pair.205", %"struct.std::__1::pair.205"* %0, i64 0, i32 0, i32 0, i32 0, i32 0, i32 0, i32 0, i32 0
  store i8* %14, i8** %15, align 8
  %16 = or i64 %13, -9223372036854775808
  %17 = getelementptr inbounds %"struct.std::__1::pair.205", %"struct.std::__1::pair.205"* %0, i64 0, i32 0, i32 0, i32 0, i32 0, i32 0, i32 0, i32 2
  store i64 %16, i64* %17, align 8
  %18 = getelementptr inbounds %"struct.std::__1::pair.205", %"struct.std::__1::pair.205"* %0, i64 0, i32 0, i32 0, i32 0, i32 0, i32 0, i32 0, i32 1
  store i64 %5, i64* %18, align 8
  br label %25

19:                                               ; preds = %9
  %20 = trunc i64 %5 to i8
  %21 = bitcast %"struct.std::__1::pair.205"* %0 to %"struct.std::__1::basic_string<char, std::__1::char_traits<char>, std::__1::allocator<char> >::__short"*
  %22 = getelementptr inbounds %"struct.std::__1::basic_string<char, std::__1::char_traits<char>, std::__1::allocator<char> >::__short", %"struct.std::__1::basic_string<char, std::__1::char_traits<char>, std::__1::allocator<char> >::__short"* %21, i64 0, i32 1, i32 0
  store i8 %20, i8* %22, align 1
  %23 = bitcast %"struct.std::__1::pair.205"* %0 to i8*
  %24 = icmp eq i64 %5, 0
  br i1 %24, label %27, label %25

25:                                               ; preds = %19, %11
  %26 = phi i8* [ %14, %11 ], [ %23, %19 ]
  tail call void @llvm.memcpy.p0i8.p0i8.i64(i8* align 1 %26, i8* align 1 %4, i64 %5, i1 false) #19
  br label %27

27:                                               ; preds = %19, %25
  %28 = phi i8* [ %23, %19 ], [ %26, %25 ]
  %29 = getelementptr inbounds i8, i8* %28, i64 %5
  store i8 0, i8* %29, align 1
  %30 = getelementptr inbounds %"struct.std::__1::pair.205", %"struct.std::__1::pair.205"* %0, i64 0, i32 1
  %31 = getelementptr inbounds [26 x i8], [26 x i8]* %2, i64 0, i64 0
  %32 = tail call i64 @strlen(i8* %31) #19
  %33 = icmp ugt i64 %32, -17
  br i1 %33, label %34, label %36

34:                                               ; preds = %27
  %35 = bitcast %"class.std::__1::basic_string"* %30 to %"class.std::__1::__basic_string_common"*
  tail call void @_ZNKSt3__121__basic_string_commonILb1EE20__throw_length_errorEv(%"class.std::__1::__basic_string_common"* %35) #20
  unreachable

36:                                               ; preds = %27
  %37 = icmp ult i64 %32, 23
  br i1 %37, label %46, label %38

38:                                               ; preds = %36
  %39 = add nuw i64 %32, 16
  %40 = and i64 %39, -16
  %41 = tail call i8* @_Znwm(i64 %40) #18
  %42 = getelementptr inbounds %"class.std::__1::basic_string", %"class.std::__1::basic_string"* %30, i64 0, i32 0, i32 0, i32 0, i32 0, i32 0, i32 0
  store i8* %41, i8** %42, align 8
  %43 = or i64 %40, -9223372036854775808
  %44 = getelementptr inbounds %"struct.std::__1::pair.205", %"struct.std::__1::pair.205"* %0, i64 0, i32 1, i32 0, i32 0, i32 0, i32 0, i32 0, i32 2
  store i64 %43, i64* %44, align 8
  %45 = getelementptr inbounds %"struct.std::__1::pair.205", %"struct.std::__1::pair.205"* %0, i64 0, i32 1, i32 0, i32 0, i32 0, i32 0, i32 0, i32 1
  store i64 %32, i64* %45, align 8
  br label %52

46:                                               ; preds = %36
  %47 = trunc i64 %32 to i8
  %48 = bitcast %"class.std::__1::basic_string"* %30 to %"struct.std::__1::basic_string<char, std::__1::char_traits<char>, std::__1::allocator<char> >::__short"*
  %49 = getelementptr inbounds %"struct.std::__1::basic_string<char, std::__1::char_traits<char>, std::__1::allocator<char> >::__short", %"struct.std::__1::basic_string<char, std::__1::char_traits<char>, std::__1::allocator<char> >::__short"* %48, i64 0, i32 1, i32 0
  store i8 %47, i8* %49, align 1
  %50 = bitcast %"class.std::__1::basic_string"* %30 to i8*
  %51 = icmp eq i64 %32, 0
  br i1 %51, label %54, label %52

52:                                               ; preds = %46, %38
  %53 = phi i8* [ %41, %38 ], [ %50, %46 ]
  tail call void @llvm.memcpy.p0i8.p0i8.i64(i8* align 1 %53, i8* align 1 %31, i64 %32, i1 false) #19
  br label %54

54:                                               ; preds = %46, %52
  %55 = phi i8* [ %50, %46 ], [ %53, %52 ]
  %56 = getelementptr inbounds i8, i8* %55, i64 %32
  store i8 0, i8* %56, align 1
  ret void
}

; Function Attrs: nounwind ssp uwtable
define linkonce_odr hidden void @_ZNSt3__14pairIKNS_12basic_stringIcNS_11char_traitsIcEENS_9allocatorIcEEEES6_EC2IRA22_KcRA15_SA_Lb0EEEOT_OT0_(%"struct.std::__1::pair.205"*, [22 x i8]* dereferenceable(22), [15 x i8]* dereferenceable(15)) unnamed_addr #1 comdat align 2 {
  %4 = getelementptr inbounds [22 x i8], [22 x i8]* %1, i64 0, i64 0
  %5 = tail call i64 @strlen(i8* %4) #19
  %6 = icmp ugt i64 %5, -17
  br i1 %6, label %7, label %9

7:                                                ; preds = %3
  %8 = bitcast %"struct.std::__1::pair.205"* %0 to %"class.std::__1::__basic_string_common"*
  tail call void @_ZNKSt3__121__basic_string_commonILb1EE20__throw_length_errorEv(%"class.std::__1::__basic_string_common"* %8) #20
  unreachable

9:                                                ; preds = %3
  %10 = icmp ult i64 %5, 23
  br i1 %10, label %19, label %11

11:                                               ; preds = %9
  %12 = add nuw i64 %5, 16
  %13 = and i64 %12, -16
  %14 = tail call i8* @_Znwm(i64 %13) #18
  %15 = getelementptr inbounds %"struct.std::__1::pair.205", %"struct.std::__1::pair.205"* %0, i64 0, i32 0, i32 0, i32 0, i32 0, i32 0, i32 0, i32 0
  store i8* %14, i8** %15, align 8
  %16 = or i64 %13, -9223372036854775808
  %17 = getelementptr inbounds %"struct.std::__1::pair.205", %"struct.std::__1::pair.205"* %0, i64 0, i32 0, i32 0, i32 0, i32 0, i32 0, i32 0, i32 2
  store i64 %16, i64* %17, align 8
  %18 = getelementptr inbounds %"struct.std::__1::pair.205", %"struct.std::__1::pair.205"* %0, i64 0, i32 0, i32 0, i32 0, i32 0, i32 0, i32 0, i32 1
  store i64 %5, i64* %18, align 8
  br label %25

19:                                               ; preds = %9
  %20 = trunc i64 %5 to i8
  %21 = bitcast %"struct.std::__1::pair.205"* %0 to %"struct.std::__1::basic_string<char, std::__1::char_traits<char>, std::__1::allocator<char> >::__short"*
  %22 = getelementptr inbounds %"struct.std::__1::basic_string<char, std::__1::char_traits<char>, std::__1::allocator<char> >::__short", %"struct.std::__1::basic_string<char, std::__1::char_traits<char>, std::__1::allocator<char> >::__short"* %21, i64 0, i32 1, i32 0
  store i8 %20, i8* %22, align 1
  %23 = bitcast %"struct.std::__1::pair.205"* %0 to i8*
  %24 = icmp eq i64 %5, 0
  br i1 %24, label %27, label %25

25:                                               ; preds = %19, %11
  %26 = phi i8* [ %14, %11 ], [ %23, %19 ]
  tail call void @llvm.memcpy.p0i8.p0i8.i64(i8* align 1 %26, i8* align 1 %4, i64 %5, i1 false) #19
  br label %27

27:                                               ; preds = %19, %25
  %28 = phi i8* [ %23, %19 ], [ %26, %25 ]
  %29 = getelementptr inbounds i8, i8* %28, i64 %5
  store i8 0, i8* %29, align 1
  %30 = getelementptr inbounds %"struct.std::__1::pair.205", %"struct.std::__1::pair.205"* %0, i64 0, i32 1
  %31 = getelementptr inbounds [15 x i8], [15 x i8]* %2, i64 0, i64 0
  %32 = tail call i64 @strlen(i8* %31) #19
  %33 = icmp ugt i64 %32, -17
  br i1 %33, label %34, label %36

34:                                               ; preds = %27
  %35 = bitcast %"class.std::__1::basic_string"* %30 to %"class.std::__1::__basic_string_common"*
  tail call void @_ZNKSt3__121__basic_string_commonILb1EE20__throw_length_errorEv(%"class.std::__1::__basic_string_common"* %35) #20
  unreachable

36:                                               ; preds = %27
  %37 = icmp ult i64 %32, 23
  br i1 %37, label %46, label %38

38:                                               ; preds = %36
  %39 = add nuw i64 %32, 16
  %40 = and i64 %39, -16
  %41 = tail call i8* @_Znwm(i64 %40) #18
  %42 = getelementptr inbounds %"class.std::__1::basic_string", %"class.std::__1::basic_string"* %30, i64 0, i32 0, i32 0, i32 0, i32 0, i32 0, i32 0
  store i8* %41, i8** %42, align 8
  %43 = or i64 %40, -9223372036854775808
  %44 = getelementptr inbounds %"struct.std::__1::pair.205", %"struct.std::__1::pair.205"* %0, i64 0, i32 1, i32 0, i32 0, i32 0, i32 0, i32 0, i32 2
  store i64 %43, i64* %44, align 8
  %45 = getelementptr inbounds %"struct.std::__1::pair.205", %"struct.std::__1::pair.205"* %0, i64 0, i32 1, i32 0, i32 0, i32 0, i32 0, i32 0, i32 1
  store i64 %32, i64* %45, align 8
  br label %52

46:                                               ; preds = %36
  %47 = trunc i64 %32 to i8
  %48 = bitcast %"class.std::__1::basic_string"* %30 to %"struct.std::__1::basic_string<char, std::__1::char_traits<char>, std::__1::allocator<char> >::__short"*
  %49 = getelementptr inbounds %"struct.std::__1::basic_string<char, std::__1::char_traits<char>, std::__1::allocator<char> >::__short", %"struct.std::__1::basic_string<char, std::__1::char_traits<char>, std::__1::allocator<char> >::__short"* %48, i64 0, i32 1, i32 0
  store i8 %47, i8* %49, align 1
  %50 = bitcast %"class.std::__1::basic_string"* %30 to i8*
  %51 = icmp eq i64 %32, 0
  br i1 %51, label %54, label %52

52:                                               ; preds = %46, %38
  %53 = phi i8* [ %41, %38 ], [ %50, %46 ]
  tail call void @llvm.memcpy.p0i8.p0i8.i64(i8* align 1 %53, i8* align 1 %31, i64 %32, i1 false) #19
  br label %54

54:                                               ; preds = %46, %52
  %55 = phi i8* [ %50, %46 ], [ %53, %52 ]
  %56 = getelementptr inbounds i8, i8* %55, i64 %32
  store i8 0, i8* %56, align 1
  ret void
}

; Function Attrs: nounwind ssp uwtable
define linkonce_odr hidden void @_ZNSt3__14pairIKNS_12basic_stringIcNS_11char_traitsIcEENS_9allocatorIcEEEES6_EC2IRA25_KcRA26_SA_Lb0EEEOT_OT0_(%"struct.std::__1::pair.205"*, [25 x i8]* dereferenceable(25), [26 x i8]* dereferenceable(26)) unnamed_addr #1 comdat align 2 {
  %4 = getelementptr inbounds [25 x i8], [25 x i8]* %1, i64 0, i64 0
  %5 = tail call i64 @strlen(i8* %4) #19
  %6 = icmp ugt i64 %5, -17
  br i1 %6, label %7, label %9

7:                                                ; preds = %3
  %8 = bitcast %"struct.std::__1::pair.205"* %0 to %"class.std::__1::__basic_string_common"*
  tail call void @_ZNKSt3__121__basic_string_commonILb1EE20__throw_length_errorEv(%"class.std::__1::__basic_string_common"* %8) #20
  unreachable

9:                                                ; preds = %3
  %10 = icmp ult i64 %5, 23
  br i1 %10, label %19, label %11

11:                                               ; preds = %9
  %12 = add nuw i64 %5, 16
  %13 = and i64 %12, -16
  %14 = tail call i8* @_Znwm(i64 %13) #18
  %15 = getelementptr inbounds %"struct.std::__1::pair.205", %"struct.std::__1::pair.205"* %0, i64 0, i32 0, i32 0, i32 0, i32 0, i32 0, i32 0, i32 0
  store i8* %14, i8** %15, align 8
  %16 = or i64 %13, -9223372036854775808
  %17 = getelementptr inbounds %"struct.std::__1::pair.205", %"struct.std::__1::pair.205"* %0, i64 0, i32 0, i32 0, i32 0, i32 0, i32 0, i32 0, i32 2
  store i64 %16, i64* %17, align 8
  %18 = getelementptr inbounds %"struct.std::__1::pair.205", %"struct.std::__1::pair.205"* %0, i64 0, i32 0, i32 0, i32 0, i32 0, i32 0, i32 0, i32 1
  store i64 %5, i64* %18, align 8
  br label %25

19:                                               ; preds = %9
  %20 = trunc i64 %5 to i8
  %21 = bitcast %"struct.std::__1::pair.205"* %0 to %"struct.std::__1::basic_string<char, std::__1::char_traits<char>, std::__1::allocator<char> >::__short"*
  %22 = getelementptr inbounds %"struct.std::__1::basic_string<char, std::__1::char_traits<char>, std::__1::allocator<char> >::__short", %"struct.std::__1::basic_string<char, std::__1::char_traits<char>, std::__1::allocator<char> >::__short"* %21, i64 0, i32 1, i32 0
  store i8 %20, i8* %22, align 1
  %23 = bitcast %"struct.std::__1::pair.205"* %0 to i8*
  %24 = icmp eq i64 %5, 0
  br i1 %24, label %27, label %25

25:                                               ; preds = %19, %11
  %26 = phi i8* [ %14, %11 ], [ %23, %19 ]
  tail call void @llvm.memcpy.p0i8.p0i8.i64(i8* align 1 %26, i8* align 1 %4, i64 %5, i1 false) #19
  br label %27

27:                                               ; preds = %19, %25
  %28 = phi i8* [ %23, %19 ], [ %26, %25 ]
  %29 = getelementptr inbounds i8, i8* %28, i64 %5
  store i8 0, i8* %29, align 1
  %30 = getelementptr inbounds %"struct.std::__1::pair.205", %"struct.std::__1::pair.205"* %0, i64 0, i32 1
  %31 = getelementptr inbounds [26 x i8], [26 x i8]* %2, i64 0, i64 0
  %32 = tail call i64 @strlen(i8* %31) #19
  %33 = icmp ugt i64 %32, -17
  br i1 %33, label %34, label %36

34:                                               ; preds = %27
  %35 = bitcast %"class.std::__1::basic_string"* %30 to %"class.std::__1::__basic_string_common"*
  tail call void @_ZNKSt3__121__basic_string_commonILb1EE20__throw_length_errorEv(%"class.std::__1::__basic_string_common"* %35) #20
  unreachable

36:                                               ; preds = %27
  %37 = icmp ult i64 %32, 23
  br i1 %37, label %46, label %38

38:                                               ; preds = %36
  %39 = add nuw i64 %32, 16
  %40 = and i64 %39, -16
  %41 = tail call i8* @_Znwm(i64 %40) #18
  %42 = getelementptr inbounds %"class.std::__1::basic_string", %"class.std::__1::basic_string"* %30, i64 0, i32 0, i32 0, i32 0, i32 0, i32 0, i32 0
  store i8* %41, i8** %42, align 8
  %43 = or i64 %40, -9223372036854775808
  %44 = getelementptr inbounds %"struct.std::__1::pair.205", %"struct.std::__1::pair.205"* %0, i64 0, i32 1, i32 0, i32 0, i32 0, i32 0, i32 0, i32 2
  store i64 %43, i64* %44, align 8
  %45 = getelementptr inbounds %"struct.std::__1::pair.205", %"struct.std::__1::pair.205"* %0, i64 0, i32 1, i32 0, i32 0, i32 0, i32 0, i32 0, i32 1
  store i64 %32, i64* %45, align 8
  br label %52

46:                                               ; preds = %36
  %47 = trunc i64 %32 to i8
  %48 = bitcast %"class.std::__1::basic_string"* %30 to %"struct.std::__1::basic_string<char, std::__1::char_traits<char>, std::__1::allocator<char> >::__short"*
  %49 = getelementptr inbounds %"struct.std::__1::basic_string<char, std::__1::char_traits<char>, std::__1::allocator<char> >::__short", %"struct.std::__1::basic_string<char, std::__1::char_traits<char>, std::__1::allocator<char> >::__short"* %48, i64 0, i32 1, i32 0
  store i8 %47, i8* %49, align 1
  %50 = bitcast %"class.std::__1::basic_string"* %30 to i8*
  %51 = icmp eq i64 %32, 0
  br i1 %51, label %54, label %52

52:                                               ; preds = %46, %38
  %53 = phi i8* [ %41, %38 ], [ %50, %46 ]
  tail call void @llvm.memcpy.p0i8.p0i8.i64(i8* align 1 %53, i8* align 1 %31, i64 %32, i1 false) #19
  br label %54

54:                                               ; preds = %46, %52
  %55 = phi i8* [ %50, %46 ], [ %53, %52 ]
  %56 = getelementptr inbounds i8, i8* %55, i64 %32
  store i8 0, i8* %56, align 1
  ret void
}

; Function Attrs: nounwind ssp uwtable
define linkonce_odr hidden void @_ZNSt3__14pairIKNS_12basic_stringIcNS_11char_traitsIcEENS_9allocatorIcEEEES6_EC2IRA31_KcRA26_SA_Lb0EEEOT_OT0_(%"struct.std::__1::pair.205"*, [31 x i8]* dereferenceable(31), [26 x i8]* dereferenceable(26)) unnamed_addr #1 comdat align 2 {
  %4 = getelementptr inbounds [31 x i8], [31 x i8]* %1, i64 0, i64 0
  %5 = tail call i64 @strlen(i8* %4) #19
  %6 = icmp ugt i64 %5, -17
  br i1 %6, label %7, label %9

7:                                                ; preds = %3
  %8 = bitcast %"struct.std::__1::pair.205"* %0 to %"class.std::__1::__basic_string_common"*
  tail call void @_ZNKSt3__121__basic_string_commonILb1EE20__throw_length_errorEv(%"class.std::__1::__basic_string_common"* %8) #20
  unreachable

9:                                                ; preds = %3
  %10 = icmp ult i64 %5, 23
  br i1 %10, label %19, label %11

11:                                               ; preds = %9
  %12 = add nuw i64 %5, 16
  %13 = and i64 %12, -16
  %14 = tail call i8* @_Znwm(i64 %13) #18
  %15 = getelementptr inbounds %"struct.std::__1::pair.205", %"struct.std::__1::pair.205"* %0, i64 0, i32 0, i32 0, i32 0, i32 0, i32 0, i32 0, i32 0
  store i8* %14, i8** %15, align 8
  %16 = or i64 %13, -9223372036854775808
  %17 = getelementptr inbounds %"struct.std::__1::pair.205", %"struct.std::__1::pair.205"* %0, i64 0, i32 0, i32 0, i32 0, i32 0, i32 0, i32 0, i32 2
  store i64 %16, i64* %17, align 8
  %18 = getelementptr inbounds %"struct.std::__1::pair.205", %"struct.std::__1::pair.205"* %0, i64 0, i32 0, i32 0, i32 0, i32 0, i32 0, i32 0, i32 1
  store i64 %5, i64* %18, align 8
  br label %25

19:                                               ; preds = %9
  %20 = trunc i64 %5 to i8
  %21 = bitcast %"struct.std::__1::pair.205"* %0 to %"struct.std::__1::basic_string<char, std::__1::char_traits<char>, std::__1::allocator<char> >::__short"*
  %22 = getelementptr inbounds %"struct.std::__1::basic_string<char, std::__1::char_traits<char>, std::__1::allocator<char> >::__short", %"struct.std::__1::basic_string<char, std::__1::char_traits<char>, std::__1::allocator<char> >::__short"* %21, i64 0, i32 1, i32 0
  store i8 %20, i8* %22, align 1
  %23 = bitcast %"struct.std::__1::pair.205"* %0 to i8*
  %24 = icmp eq i64 %5, 0
  br i1 %24, label %27, label %25

25:                                               ; preds = %19, %11
  %26 = phi i8* [ %14, %11 ], [ %23, %19 ]
  tail call void @llvm.memcpy.p0i8.p0i8.i64(i8* align 1 %26, i8* align 1 %4, i64 %5, i1 false) #19
  br label %27

27:                                               ; preds = %19, %25
  %28 = phi i8* [ %23, %19 ], [ %26, %25 ]
  %29 = getelementptr inbounds i8, i8* %28, i64 %5
  store i8 0, i8* %29, align 1
  %30 = getelementptr inbounds %"struct.std::__1::pair.205", %"struct.std::__1::pair.205"* %0, i64 0, i32 1
  %31 = getelementptr inbounds [26 x i8], [26 x i8]* %2, i64 0, i64 0
  %32 = tail call i64 @strlen(i8* %31) #19
  %33 = icmp ugt i64 %32, -17
  br i1 %33, label %34, label %36

34:                                               ; preds = %27
  %35 = bitcast %"class.std::__1::basic_string"* %30 to %"class.std::__1::__basic_string_common"*
  tail call void @_ZNKSt3__121__basic_string_commonILb1EE20__throw_length_errorEv(%"class.std::__1::__basic_string_common"* %35) #20
  unreachable

36:                                               ; preds = %27
  %37 = icmp ult i64 %32, 23
  br i1 %37, label %46, label %38

38:                                               ; preds = %36
  %39 = add nuw i64 %32, 16
  %40 = and i64 %39, -16
  %41 = tail call i8* @_Znwm(i64 %40) #18
  %42 = getelementptr inbounds %"class.std::__1::basic_string", %"class.std::__1::basic_string"* %30, i64 0, i32 0, i32 0, i32 0, i32 0, i32 0, i32 0
  store i8* %41, i8** %42, align 8
  %43 = or i64 %40, -9223372036854775808
  %44 = getelementptr inbounds %"struct.std::__1::pair.205", %"struct.std::__1::pair.205"* %0, i64 0, i32 1, i32 0, i32 0, i32 0, i32 0, i32 0, i32 2
  store i64 %43, i64* %44, align 8
  %45 = getelementptr inbounds %"struct.std::__1::pair.205", %"struct.std::__1::pair.205"* %0, i64 0, i32 1, i32 0, i32 0, i32 0, i32 0, i32 0, i32 1
  store i64 %32, i64* %45, align 8
  br label %52

46:                                               ; preds = %36
  %47 = trunc i64 %32 to i8
  %48 = bitcast %"class.std::__1::basic_string"* %30 to %"struct.std::__1::basic_string<char, std::__1::char_traits<char>, std::__1::allocator<char> >::__short"*
  %49 = getelementptr inbounds %"struct.std::__1::basic_string<char, std::__1::char_traits<char>, std::__1::allocator<char> >::__short", %"struct.std::__1::basic_string<char, std::__1::char_traits<char>, std::__1::allocator<char> >::__short"* %48, i64 0, i32 1, i32 0
  store i8 %47, i8* %49, align 1
  %50 = bitcast %"class.std::__1::basic_string"* %30 to i8*
  %51 = icmp eq i64 %32, 0
  br i1 %51, label %54, label %52

52:                                               ; preds = %46, %38
  %53 = phi i8* [ %41, %38 ], [ %50, %46 ]
  tail call void @llvm.memcpy.p0i8.p0i8.i64(i8* align 1 %53, i8* align 1 %31, i64 %32, i1 false) #19
  br label %54

54:                                               ; preds = %46, %52
  %55 = phi i8* [ %50, %46 ], [ %53, %52 ]
  %56 = getelementptr inbounds i8, i8* %55, i64 %32
  store i8 0, i8* %56, align 1
  ret void
}

; Function Attrs: nounwind ssp uwtable
define linkonce_odr hidden void @_ZNSt3__14pairIKNS_12basic_stringIcNS_11char_traitsIcEENS_9allocatorIcEEEES6_EC2IRA25_KcRA19_SA_Lb0EEEOT_OT0_(%"struct.std::__1::pair.205"*, [25 x i8]* dereferenceable(25), [19 x i8]* dereferenceable(19)) unnamed_addr #1 comdat align 2 {
  %4 = getelementptr inbounds [25 x i8], [25 x i8]* %1, i64 0, i64 0
  %5 = tail call i64 @strlen(i8* %4) #19
  %6 = icmp ugt i64 %5, -17
  br i1 %6, label %7, label %9

7:                                                ; preds = %3
  %8 = bitcast %"struct.std::__1::pair.205"* %0 to %"class.std::__1::__basic_string_common"*
  tail call void @_ZNKSt3__121__basic_string_commonILb1EE20__throw_length_errorEv(%"class.std::__1::__basic_string_common"* %8) #20
  unreachable

9:                                                ; preds = %3
  %10 = icmp ult i64 %5, 23
  br i1 %10, label %19, label %11

11:                                               ; preds = %9
  %12 = add nuw i64 %5, 16
  %13 = and i64 %12, -16
  %14 = tail call i8* @_Znwm(i64 %13) #18
  %15 = getelementptr inbounds %"struct.std::__1::pair.205", %"struct.std::__1::pair.205"* %0, i64 0, i32 0, i32 0, i32 0, i32 0, i32 0, i32 0, i32 0
  store i8* %14, i8** %15, align 8
  %16 = or i64 %13, -9223372036854775808
  %17 = getelementptr inbounds %"struct.std::__1::pair.205", %"struct.std::__1::pair.205"* %0, i64 0, i32 0, i32 0, i32 0, i32 0, i32 0, i32 0, i32 2
  store i64 %16, i64* %17, align 8
  %18 = getelementptr inbounds %"struct.std::__1::pair.205", %"struct.std::__1::pair.205"* %0, i64 0, i32 0, i32 0, i32 0, i32 0, i32 0, i32 0, i32 1
  store i64 %5, i64* %18, align 8
  br label %25

19:                                               ; preds = %9
  %20 = trunc i64 %5 to i8
  %21 = bitcast %"struct.std::__1::pair.205"* %0 to %"struct.std::__1::basic_string<char, std::__1::char_traits<char>, std::__1::allocator<char> >::__short"*
  %22 = getelementptr inbounds %"struct.std::__1::basic_string<char, std::__1::char_traits<char>, std::__1::allocator<char> >::__short", %"struct.std::__1::basic_string<char, std::__1::char_traits<char>, std::__1::allocator<char> >::__short"* %21, i64 0, i32 1, i32 0
  store i8 %20, i8* %22, align 1
  %23 = bitcast %"struct.std::__1::pair.205"* %0 to i8*
  %24 = icmp eq i64 %5, 0
  br i1 %24, label %27, label %25

25:                                               ; preds = %19, %11
  %26 = phi i8* [ %14, %11 ], [ %23, %19 ]
  tail call void @llvm.memcpy.p0i8.p0i8.i64(i8* align 1 %26, i8* align 1 %4, i64 %5, i1 false) #19
  br label %27

27:                                               ; preds = %19, %25
  %28 = phi i8* [ %23, %19 ], [ %26, %25 ]
  %29 = getelementptr inbounds i8, i8* %28, i64 %5
  store i8 0, i8* %29, align 1
  %30 = getelementptr inbounds %"struct.std::__1::pair.205", %"struct.std::__1::pair.205"* %0, i64 0, i32 1
  %31 = getelementptr inbounds [19 x i8], [19 x i8]* %2, i64 0, i64 0
  %32 = tail call i64 @strlen(i8* %31) #19
  %33 = icmp ugt i64 %32, -17
  br i1 %33, label %34, label %36

34:                                               ; preds = %27
  %35 = bitcast %"class.std::__1::basic_string"* %30 to %"class.std::__1::__basic_string_common"*
  tail call void @_ZNKSt3__121__basic_string_commonILb1EE20__throw_length_errorEv(%"class.std::__1::__basic_string_common"* %35) #20
  unreachable

36:                                               ; preds = %27
  %37 = icmp ult i64 %32, 23
  br i1 %37, label %46, label %38

38:                                               ; preds = %36
  %39 = add nuw i64 %32, 16
  %40 = and i64 %39, -16
  %41 = tail call i8* @_Znwm(i64 %40) #18
  %42 = getelementptr inbounds %"class.std::__1::basic_string", %"class.std::__1::basic_string"* %30, i64 0, i32 0, i32 0, i32 0, i32 0, i32 0, i32 0
  store i8* %41, i8** %42, align 8
  %43 = or i64 %40, -9223372036854775808
  %44 = getelementptr inbounds %"struct.std::__1::pair.205", %"struct.std::__1::pair.205"* %0, i64 0, i32 1, i32 0, i32 0, i32 0, i32 0, i32 0, i32 2
  store i64 %43, i64* %44, align 8
  %45 = getelementptr inbounds %"struct.std::__1::pair.205", %"struct.std::__1::pair.205"* %0, i64 0, i32 1, i32 0, i32 0, i32 0, i32 0, i32 0, i32 1
  store i64 %32, i64* %45, align 8
  br label %52

46:                                               ; preds = %36
  %47 = trunc i64 %32 to i8
  %48 = bitcast %"class.std::__1::basic_string"* %30 to %"struct.std::__1::basic_string<char, std::__1::char_traits<char>, std::__1::allocator<char> >::__short"*
  %49 = getelementptr inbounds %"struct.std::__1::basic_string<char, std::__1::char_traits<char>, std::__1::allocator<char> >::__short", %"struct.std::__1::basic_string<char, std::__1::char_traits<char>, std::__1::allocator<char> >::__short"* %48, i64 0, i32 1, i32 0
  store i8 %47, i8* %49, align 1
  %50 = bitcast %"class.std::__1::basic_string"* %30 to i8*
  %51 = icmp eq i64 %32, 0
  br i1 %51, label %54, label %52

52:                                               ; preds = %46, %38
  %53 = phi i8* [ %41, %38 ], [ %50, %46 ]
  tail call void @llvm.memcpy.p0i8.p0i8.i64(i8* align 1 %53, i8* align 1 %31, i64 %32, i1 false) #19
  br label %54

54:                                               ; preds = %46, %52
  %55 = phi i8* [ %50, %46 ], [ %53, %52 ]
  %56 = getelementptr inbounds i8, i8* %55, i64 %32
  store i8 0, i8* %56, align 1
  ret void
}

; Function Attrs: nounwind ssp uwtable
define linkonce_odr hidden void @_ZNSt3__14pairIKNS_12basic_stringIcNS_11char_traitsIcEENS_9allocatorIcEEEES6_EC2IRA31_KcRA32_SA_Lb0EEEOT_OT0_(%"struct.std::__1::pair.205"*, [31 x i8]* dereferenceable(31), [32 x i8]* dereferenceable(32)) unnamed_addr #1 comdat align 2 {
  %4 = getelementptr inbounds [31 x i8], [31 x i8]* %1, i64 0, i64 0
  %5 = tail call i64 @strlen(i8* %4) #19
  %6 = icmp ugt i64 %5, -17
  br i1 %6, label %7, label %9

7:                                                ; preds = %3
  %8 = bitcast %"struct.std::__1::pair.205"* %0 to %"class.std::__1::__basic_string_common"*
  tail call void @_ZNKSt3__121__basic_string_commonILb1EE20__throw_length_errorEv(%"class.std::__1::__basic_string_common"* %8) #20
  unreachable

9:                                                ; preds = %3
  %10 = icmp ult i64 %5, 23
  br i1 %10, label %19, label %11

11:                                               ; preds = %9
  %12 = add nuw i64 %5, 16
  %13 = and i64 %12, -16
  %14 = tail call i8* @_Znwm(i64 %13) #18
  %15 = getelementptr inbounds %"struct.std::__1::pair.205", %"struct.std::__1::pair.205"* %0, i64 0, i32 0, i32 0, i32 0, i32 0, i32 0, i32 0, i32 0
  store i8* %14, i8** %15, align 8
  %16 = or i64 %13, -9223372036854775808
  %17 = getelementptr inbounds %"struct.std::__1::pair.205", %"struct.std::__1::pair.205"* %0, i64 0, i32 0, i32 0, i32 0, i32 0, i32 0, i32 0, i32 2
  store i64 %16, i64* %17, align 8
  %18 = getelementptr inbounds %"struct.std::__1::pair.205", %"struct.std::__1::pair.205"* %0, i64 0, i32 0, i32 0, i32 0, i32 0, i32 0, i32 0, i32 1
  store i64 %5, i64* %18, align 8
  br label %25

19:                                               ; preds = %9
  %20 = trunc i64 %5 to i8
  %21 = bitcast %"struct.std::__1::pair.205"* %0 to %"struct.std::__1::basic_string<char, std::__1::char_traits<char>, std::__1::allocator<char> >::__short"*
  %22 = getelementptr inbounds %"struct.std::__1::basic_string<char, std::__1::char_traits<char>, std::__1::allocator<char> >::__short", %"struct.std::__1::basic_string<char, std::__1::char_traits<char>, std::__1::allocator<char> >::__short"* %21, i64 0, i32 1, i32 0
  store i8 %20, i8* %22, align 1
  %23 = bitcast %"struct.std::__1::pair.205"* %0 to i8*
  %24 = icmp eq i64 %5, 0
  br i1 %24, label %27, label %25

25:                                               ; preds = %19, %11
  %26 = phi i8* [ %14, %11 ], [ %23, %19 ]
  tail call void @llvm.memcpy.p0i8.p0i8.i64(i8* align 1 %26, i8* align 1 %4, i64 %5, i1 false) #19
  br label %27

27:                                               ; preds = %19, %25
  %28 = phi i8* [ %23, %19 ], [ %26, %25 ]
  %29 = getelementptr inbounds i8, i8* %28, i64 %5
  store i8 0, i8* %29, align 1
  %30 = getelementptr inbounds %"struct.std::__1::pair.205", %"struct.std::__1::pair.205"* %0, i64 0, i32 1
  %31 = getelementptr inbounds [32 x i8], [32 x i8]* %2, i64 0, i64 0
  %32 = tail call i64 @strlen(i8* %31) #19
  %33 = icmp ugt i64 %32, -17
  br i1 %33, label %34, label %36

34:                                               ; preds = %27
  %35 = bitcast %"class.std::__1::basic_string"* %30 to %"class.std::__1::__basic_string_common"*
  tail call void @_ZNKSt3__121__basic_string_commonILb1EE20__throw_length_errorEv(%"class.std::__1::__basic_string_common"* %35) #20
  unreachable

36:                                               ; preds = %27
  %37 = icmp ult i64 %32, 23
  br i1 %37, label %46, label %38

38:                                               ; preds = %36
  %39 = add nuw i64 %32, 16
  %40 = and i64 %39, -16
  %41 = tail call i8* @_Znwm(i64 %40) #18
  %42 = getelementptr inbounds %"class.std::__1::basic_string", %"class.std::__1::basic_string"* %30, i64 0, i32 0, i32 0, i32 0, i32 0, i32 0, i32 0
  store i8* %41, i8** %42, align 8
  %43 = or i64 %40, -9223372036854775808
  %44 = getelementptr inbounds %"struct.std::__1::pair.205", %"struct.std::__1::pair.205"* %0, i64 0, i32 1, i32 0, i32 0, i32 0, i32 0, i32 0, i32 2
  store i64 %43, i64* %44, align 8
  %45 = getelementptr inbounds %"struct.std::__1::pair.205", %"struct.std::__1::pair.205"* %0, i64 0, i32 1, i32 0, i32 0, i32 0, i32 0, i32 0, i32 1
  store i64 %32, i64* %45, align 8
  br label %52

46:                                               ; preds = %36
  %47 = trunc i64 %32 to i8
  %48 = bitcast %"class.std::__1::basic_string"* %30 to %"struct.std::__1::basic_string<char, std::__1::char_traits<char>, std::__1::allocator<char> >::__short"*
  %49 = getelementptr inbounds %"struct.std::__1::basic_string<char, std::__1::char_traits<char>, std::__1::allocator<char> >::__short", %"struct.std::__1::basic_string<char, std::__1::char_traits<char>, std::__1::allocator<char> >::__short"* %48, i64 0, i32 1, i32 0
  store i8 %47, i8* %49, align 1
  %50 = bitcast %"class.std::__1::basic_string"* %30 to i8*
  %51 = icmp eq i64 %32, 0
  br i1 %51, label %54, label %52

52:                                               ; preds = %46, %38
  %53 = phi i8* [ %41, %38 ], [ %50, %46 ]
  tail call void @llvm.memcpy.p0i8.p0i8.i64(i8* align 1 %53, i8* align 1 %31, i64 %32, i1 false) #19
  br label %54

54:                                               ; preds = %46, %52
  %55 = phi i8* [ %50, %46 ], [ %53, %52 ]
  %56 = getelementptr inbounds i8, i8* %55, i64 %32
  store i8 0, i8* %56, align 1
  ret void
}

; Function Attrs: nounwind ssp uwtable
define linkonce_odr hidden void @_ZNSt3__14pairIKNS_12basic_stringIcNS_11char_traitsIcEENS_9allocatorIcEEEES6_EC2IRA28_KcRA25_SA_Lb0EEEOT_OT0_(%"struct.std::__1::pair.205"*, [28 x i8]* dereferenceable(28), [25 x i8]* dereferenceable(25)) unnamed_addr #1 comdat align 2 {
  %4 = getelementptr inbounds [28 x i8], [28 x i8]* %1, i64 0, i64 0
  %5 = tail call i64 @strlen(i8* %4) #19
  %6 = icmp ugt i64 %5, -17
  br i1 %6, label %7, label %9

7:                                                ; preds = %3
  %8 = bitcast %"struct.std::__1::pair.205"* %0 to %"class.std::__1::__basic_string_common"*
  tail call void @_ZNKSt3__121__basic_string_commonILb1EE20__throw_length_errorEv(%"class.std::__1::__basic_string_common"* %8) #20
  unreachable

9:                                                ; preds = %3
  %10 = icmp ult i64 %5, 23
  br i1 %10, label %19, label %11

11:                                               ; preds = %9
  %12 = add nuw i64 %5, 16
  %13 = and i64 %12, -16
  %14 = tail call i8* @_Znwm(i64 %13) #18
  %15 = getelementptr inbounds %"struct.std::__1::pair.205", %"struct.std::__1::pair.205"* %0, i64 0, i32 0, i32 0, i32 0, i32 0, i32 0, i32 0, i32 0
  store i8* %14, i8** %15, align 8
  %16 = or i64 %13, -9223372036854775808
  %17 = getelementptr inbounds %"struct.std::__1::pair.205", %"struct.std::__1::pair.205"* %0, i64 0, i32 0, i32 0, i32 0, i32 0, i32 0, i32 0, i32 2
  store i64 %16, i64* %17, align 8
  %18 = getelementptr inbounds %"struct.std::__1::pair.205", %"struct.std::__1::pair.205"* %0, i64 0, i32 0, i32 0, i32 0, i32 0, i32 0, i32 0, i32 1
  store i64 %5, i64* %18, align 8
  br label %25

19:                                               ; preds = %9
  %20 = trunc i64 %5 to i8
  %21 = bitcast %"struct.std::__1::pair.205"* %0 to %"struct.std::__1::basic_string<char, std::__1::char_traits<char>, std::__1::allocator<char> >::__short"*
  %22 = getelementptr inbounds %"struct.std::__1::basic_string<char, std::__1::char_traits<char>, std::__1::allocator<char> >::__short", %"struct.std::__1::basic_string<char, std::__1::char_traits<char>, std::__1::allocator<char> >::__short"* %21, i64 0, i32 1, i32 0
  store i8 %20, i8* %22, align 1
  %23 = bitcast %"struct.std::__1::pair.205"* %0 to i8*
  %24 = icmp eq i64 %5, 0
  br i1 %24, label %27, label %25

25:                                               ; preds = %19, %11
  %26 = phi i8* [ %14, %11 ], [ %23, %19 ]
  tail call void @llvm.memcpy.p0i8.p0i8.i64(i8* align 1 %26, i8* align 1 %4, i64 %5, i1 false) #19
  br label %27

27:                                               ; preds = %19, %25
  %28 = phi i8* [ %23, %19 ], [ %26, %25 ]
  %29 = getelementptr inbounds i8, i8* %28, i64 %5
  store i8 0, i8* %29, align 1
  %30 = getelementptr inbounds %"struct.std::__1::pair.205", %"struct.std::__1::pair.205"* %0, i64 0, i32 1
  %31 = getelementptr inbounds [25 x i8], [25 x i8]* %2, i64 0, i64 0
  %32 = tail call i64 @strlen(i8* %31) #19
  %33 = icmp ugt i64 %32, -17
  br i1 %33, label %34, label %36

34:                                               ; preds = %27
  %35 = bitcast %"class.std::__1::basic_string"* %30 to %"class.std::__1::__basic_string_common"*
  tail call void @_ZNKSt3__121__basic_string_commonILb1EE20__throw_length_errorEv(%"class.std::__1::__basic_string_common"* %35) #20
  unreachable

36:                                               ; preds = %27
  %37 = icmp ult i64 %32, 23
  br i1 %37, label %46, label %38

38:                                               ; preds = %36
  %39 = add nuw i64 %32, 16
  %40 = and i64 %39, -16
  %41 = tail call i8* @_Znwm(i64 %40) #18
  %42 = getelementptr inbounds %"class.std::__1::basic_string", %"class.std::__1::basic_string"* %30, i64 0, i32 0, i32 0, i32 0, i32 0, i32 0, i32 0
  store i8* %41, i8** %42, align 8
  %43 = or i64 %40, -9223372036854775808
  %44 = getelementptr inbounds %"struct.std::__1::pair.205", %"struct.std::__1::pair.205"* %0, i64 0, i32 1, i32 0, i32 0, i32 0, i32 0, i32 0, i32 2
  store i64 %43, i64* %44, align 8
  %45 = getelementptr inbounds %"struct.std::__1::pair.205", %"struct.std::__1::pair.205"* %0, i64 0, i32 1, i32 0, i32 0, i32 0, i32 0, i32 0, i32 1
  store i64 %32, i64* %45, align 8
  br label %52

46:                                               ; preds = %36
  %47 = trunc i64 %32 to i8
  %48 = bitcast %"class.std::__1::basic_string"* %30 to %"struct.std::__1::basic_string<char, std::__1::char_traits<char>, std::__1::allocator<char> >::__short"*
  %49 = getelementptr inbounds %"struct.std::__1::basic_string<char, std::__1::char_traits<char>, std::__1::allocator<char> >::__short", %"struct.std::__1::basic_string<char, std::__1::char_traits<char>, std::__1::allocator<char> >::__short"* %48, i64 0, i32 1, i32 0
  store i8 %47, i8* %49, align 1
  %50 = bitcast %"class.std::__1::basic_string"* %30 to i8*
  %51 = icmp eq i64 %32, 0
  br i1 %51, label %54, label %52

52:                                               ; preds = %46, %38
  %53 = phi i8* [ %41, %38 ], [ %50, %46 ]
  tail call void @llvm.memcpy.p0i8.p0i8.i64(i8* align 1 %53, i8* align 1 %31, i64 %32, i1 false) #19
  br label %54

54:                                               ; preds = %46, %52
  %55 = phi i8* [ %50, %46 ], [ %53, %52 ]
  %56 = getelementptr inbounds i8, i8* %55, i64 %32
  store i8 0, i8* %56, align 1
  ret void
}

; Function Attrs: nounwind ssp uwtable
define linkonce_odr hidden void @_ZNSt3__14pairIKNS_12basic_stringIcNS_11char_traitsIcEENS_9allocatorIcEEEES6_EC2IRA37_KcRA26_SA_Lb0EEEOT_OT0_(%"struct.std::__1::pair.205"*, [37 x i8]* dereferenceable(37), [26 x i8]* dereferenceable(26)) unnamed_addr #1 comdat align 2 {
  %4 = getelementptr inbounds [37 x i8], [37 x i8]* %1, i64 0, i64 0
  %5 = tail call i64 @strlen(i8* %4) #19
  %6 = icmp ugt i64 %5, -17
  br i1 %6, label %7, label %9

7:                                                ; preds = %3
  %8 = bitcast %"struct.std::__1::pair.205"* %0 to %"class.std::__1::__basic_string_common"*
  tail call void @_ZNKSt3__121__basic_string_commonILb1EE20__throw_length_errorEv(%"class.std::__1::__basic_string_common"* %8) #20
  unreachable

9:                                                ; preds = %3
  %10 = icmp ult i64 %5, 23
  br i1 %10, label %19, label %11

11:                                               ; preds = %9
  %12 = add nuw i64 %5, 16
  %13 = and i64 %12, -16
  %14 = tail call i8* @_Znwm(i64 %13) #18
  %15 = getelementptr inbounds %"struct.std::__1::pair.205", %"struct.std::__1::pair.205"* %0, i64 0, i32 0, i32 0, i32 0, i32 0, i32 0, i32 0, i32 0
  store i8* %14, i8** %15, align 8
  %16 = or i64 %13, -9223372036854775808
  %17 = getelementptr inbounds %"struct.std::__1::pair.205", %"struct.std::__1::pair.205"* %0, i64 0, i32 0, i32 0, i32 0, i32 0, i32 0, i32 0, i32 2
  store i64 %16, i64* %17, align 8
  %18 = getelementptr inbounds %"struct.std::__1::pair.205", %"struct.std::__1::pair.205"* %0, i64 0, i32 0, i32 0, i32 0, i32 0, i32 0, i32 0, i32 1
  store i64 %5, i64* %18, align 8
  br label %25

19:                                               ; preds = %9
  %20 = trunc i64 %5 to i8
  %21 = bitcast %"struct.std::__1::pair.205"* %0 to %"struct.std::__1::basic_string<char, std::__1::char_traits<char>, std::__1::allocator<char> >::__short"*
  %22 = getelementptr inbounds %"struct.std::__1::basic_string<char, std::__1::char_traits<char>, std::__1::allocator<char> >::__short", %"struct.std::__1::basic_string<char, std::__1::char_traits<char>, std::__1::allocator<char> >::__short"* %21, i64 0, i32 1, i32 0
  store i8 %20, i8* %22, align 1
  %23 = bitcast %"struct.std::__1::pair.205"* %0 to i8*
  %24 = icmp eq i64 %5, 0
  br i1 %24, label %27, label %25

25:                                               ; preds = %19, %11
  %26 = phi i8* [ %14, %11 ], [ %23, %19 ]
  tail call void @llvm.memcpy.p0i8.p0i8.i64(i8* align 1 %26, i8* align 1 %4, i64 %5, i1 false) #19
  br label %27

27:                                               ; preds = %19, %25
  %28 = phi i8* [ %23, %19 ], [ %26, %25 ]
  %29 = getelementptr inbounds i8, i8* %28, i64 %5
  store i8 0, i8* %29, align 1
  %30 = getelementptr inbounds %"struct.std::__1::pair.205", %"struct.std::__1::pair.205"* %0, i64 0, i32 1
  %31 = getelementptr inbounds [26 x i8], [26 x i8]* %2, i64 0, i64 0
  %32 = tail call i64 @strlen(i8* %31) #19
  %33 = icmp ugt i64 %32, -17
  br i1 %33, label %34, label %36

34:                                               ; preds = %27
  %35 = bitcast %"class.std::__1::basic_string"* %30 to %"class.std::__1::__basic_string_common"*
  tail call void @_ZNKSt3__121__basic_string_commonILb1EE20__throw_length_errorEv(%"class.std::__1::__basic_string_common"* %35) #20
  unreachable

36:                                               ; preds = %27
  %37 = icmp ult i64 %32, 23
  br i1 %37, label %46, label %38

38:                                               ; preds = %36
  %39 = add nuw i64 %32, 16
  %40 = and i64 %39, -16
  %41 = tail call i8* @_Znwm(i64 %40) #18
  %42 = getelementptr inbounds %"class.std::__1::basic_string", %"class.std::__1::basic_string"* %30, i64 0, i32 0, i32 0, i32 0, i32 0, i32 0, i32 0
  store i8* %41, i8** %42, align 8
  %43 = or i64 %40, -9223372036854775808
  %44 = getelementptr inbounds %"struct.std::__1::pair.205", %"struct.std::__1::pair.205"* %0, i64 0, i32 1, i32 0, i32 0, i32 0, i32 0, i32 0, i32 2
  store i64 %43, i64* %44, align 8
  %45 = getelementptr inbounds %"struct.std::__1::pair.205", %"struct.std::__1::pair.205"* %0, i64 0, i32 1, i32 0, i32 0, i32 0, i32 0, i32 0, i32 1
  store i64 %32, i64* %45, align 8
  br label %52

46:                                               ; preds = %36
  %47 = trunc i64 %32 to i8
  %48 = bitcast %"class.std::__1::basic_string"* %30 to %"struct.std::__1::basic_string<char, std::__1::char_traits<char>, std::__1::allocator<char> >::__short"*
  %49 = getelementptr inbounds %"struct.std::__1::basic_string<char, std::__1::char_traits<char>, std::__1::allocator<char> >::__short", %"struct.std::__1::basic_string<char, std::__1::char_traits<char>, std::__1::allocator<char> >::__short"* %48, i64 0, i32 1, i32 0
  store i8 %47, i8* %49, align 1
  %50 = bitcast %"class.std::__1::basic_string"* %30 to i8*
  %51 = icmp eq i64 %32, 0
  br i1 %51, label %54, label %52

52:                                               ; preds = %46, %38
  %53 = phi i8* [ %41, %38 ], [ %50, %46 ]
  tail call void @llvm.memcpy.p0i8.p0i8.i64(i8* align 1 %53, i8* align 1 %31, i64 %32, i1 false) #19
  br label %54

54:                                               ; preds = %46, %52
  %55 = phi i8* [ %50, %46 ], [ %53, %52 ]
  %56 = getelementptr inbounds i8, i8* %55, i64 %32
  store i8 0, i8* %56, align 1
  ret void
}

; Function Attrs: nounwind ssp uwtable
define linkonce_odr hidden void @_ZNSt3__14pairIKNS_12basic_stringIcNS_11char_traitsIcEENS_9allocatorIcEEEES6_EC2IRA27_KcRA30_SA_Lb0EEEOT_OT0_(%"struct.std::__1::pair.205"*, [27 x i8]* dereferenceable(27), [30 x i8]* dereferenceable(30)) unnamed_addr #1 comdat align 2 {
  %4 = getelementptr inbounds [27 x i8], [27 x i8]* %1, i64 0, i64 0
  %5 = tail call i64 @strlen(i8* %4) #19
  %6 = icmp ugt i64 %5, -17
  br i1 %6, label %7, label %9

7:                                                ; preds = %3
  %8 = bitcast %"struct.std::__1::pair.205"* %0 to %"class.std::__1::__basic_string_common"*
  tail call void @_ZNKSt3__121__basic_string_commonILb1EE20__throw_length_errorEv(%"class.std::__1::__basic_string_common"* %8) #20
  unreachable

9:                                                ; preds = %3
  %10 = icmp ult i64 %5, 23
  br i1 %10, label %19, label %11

11:                                               ; preds = %9
  %12 = add nuw i64 %5, 16
  %13 = and i64 %12, -16
  %14 = tail call i8* @_Znwm(i64 %13) #18
  %15 = getelementptr inbounds %"struct.std::__1::pair.205", %"struct.std::__1::pair.205"* %0, i64 0, i32 0, i32 0, i32 0, i32 0, i32 0, i32 0, i32 0
  store i8* %14, i8** %15, align 8
  %16 = or i64 %13, -9223372036854775808
  %17 = getelementptr inbounds %"struct.std::__1::pair.205", %"struct.std::__1::pair.205"* %0, i64 0, i32 0, i32 0, i32 0, i32 0, i32 0, i32 0, i32 2
  store i64 %16, i64* %17, align 8
  %18 = getelementptr inbounds %"struct.std::__1::pair.205", %"struct.std::__1::pair.205"* %0, i64 0, i32 0, i32 0, i32 0, i32 0, i32 0, i32 0, i32 1
  store i64 %5, i64* %18, align 8
  br label %25

19:                                               ; preds = %9
  %20 = trunc i64 %5 to i8
  %21 = bitcast %"struct.std::__1::pair.205"* %0 to %"struct.std::__1::basic_string<char, std::__1::char_traits<char>, std::__1::allocator<char> >::__short"*
  %22 = getelementptr inbounds %"struct.std::__1::basic_string<char, std::__1::char_traits<char>, std::__1::allocator<char> >::__short", %"struct.std::__1::basic_string<char, std::__1::char_traits<char>, std::__1::allocator<char> >::__short"* %21, i64 0, i32 1, i32 0
  store i8 %20, i8* %22, align 1
  %23 = bitcast %"struct.std::__1::pair.205"* %0 to i8*
  %24 = icmp eq i64 %5, 0
  br i1 %24, label %27, label %25

25:                                               ; preds = %19, %11
  %26 = phi i8* [ %14, %11 ], [ %23, %19 ]
  tail call void @llvm.memcpy.p0i8.p0i8.i64(i8* align 1 %26, i8* align 1 %4, i64 %5, i1 false) #19
  br label %27

27:                                               ; preds = %19, %25
  %28 = phi i8* [ %23, %19 ], [ %26, %25 ]
  %29 = getelementptr inbounds i8, i8* %28, i64 %5
  store i8 0, i8* %29, align 1
  %30 = getelementptr inbounds %"struct.std::__1::pair.205", %"struct.std::__1::pair.205"* %0, i64 0, i32 1
  %31 = getelementptr inbounds [30 x i8], [30 x i8]* %2, i64 0, i64 0
  %32 = tail call i64 @strlen(i8* %31) #19
  %33 = icmp ugt i64 %32, -17
  br i1 %33, label %34, label %36

34:                                               ; preds = %27
  %35 = bitcast %"class.std::__1::basic_string"* %30 to %"class.std::__1::__basic_string_common"*
  tail call void @_ZNKSt3__121__basic_string_commonILb1EE20__throw_length_errorEv(%"class.std::__1::__basic_string_common"* %35) #20
  unreachable

36:                                               ; preds = %27
  %37 = icmp ult i64 %32, 23
  br i1 %37, label %46, label %38

38:                                               ; preds = %36
  %39 = add nuw i64 %32, 16
  %40 = and i64 %39, -16
  %41 = tail call i8* @_Znwm(i64 %40) #18
  %42 = getelementptr inbounds %"class.std::__1::basic_string", %"class.std::__1::basic_string"* %30, i64 0, i32 0, i32 0, i32 0, i32 0, i32 0, i32 0
  store i8* %41, i8** %42, align 8
  %43 = or i64 %40, -9223372036854775808
  %44 = getelementptr inbounds %"struct.std::__1::pair.205", %"struct.std::__1::pair.205"* %0, i64 0, i32 1, i32 0, i32 0, i32 0, i32 0, i32 0, i32 2
  store i64 %43, i64* %44, align 8
  %45 = getelementptr inbounds %"struct.std::__1::pair.205", %"struct.std::__1::pair.205"* %0, i64 0, i32 1, i32 0, i32 0, i32 0, i32 0, i32 0, i32 1
  store i64 %32, i64* %45, align 8
  br label %52

46:                                               ; preds = %36
  %47 = trunc i64 %32 to i8
  %48 = bitcast %"class.std::__1::basic_string"* %30 to %"struct.std::__1::basic_string<char, std::__1::char_traits<char>, std::__1::allocator<char> >::__short"*
  %49 = getelementptr inbounds %"struct.std::__1::basic_string<char, std::__1::char_traits<char>, std::__1::allocator<char> >::__short", %"struct.std::__1::basic_string<char, std::__1::char_traits<char>, std::__1::allocator<char> >::__short"* %48, i64 0, i32 1, i32 0
  store i8 %47, i8* %49, align 1
  %50 = bitcast %"class.std::__1::basic_string"* %30 to i8*
  %51 = icmp eq i64 %32, 0
  br i1 %51, label %54, label %52

52:                                               ; preds = %46, %38
  %53 = phi i8* [ %41, %38 ], [ %50, %46 ]
  tail call void @llvm.memcpy.p0i8.p0i8.i64(i8* align 1 %53, i8* align 1 %31, i64 %32, i1 false) #19
  br label %54

54:                                               ; preds = %46, %52
  %55 = phi i8* [ %50, %46 ], [ %53, %52 ]
  %56 = getelementptr inbounds i8, i8* %55, i64 %32
  store i8 0, i8* %56, align 1
  ret void
}

; Function Attrs: nounwind ssp uwtable
define linkonce_odr hidden void @_ZNSt3__14pairIKNS_12basic_stringIcNS_11char_traitsIcEENS_9allocatorIcEEEES6_EC2IRA19_KcRA22_SA_Lb0EEEOT_OT0_(%"struct.std::__1::pair.205"*, [19 x i8]* dereferenceable(19), [22 x i8]* dereferenceable(22)) unnamed_addr #1 comdat align 2 {
  %4 = getelementptr inbounds [19 x i8], [19 x i8]* %1, i64 0, i64 0
  %5 = tail call i64 @strlen(i8* %4) #19
  %6 = icmp ugt i64 %5, -17
  br i1 %6, label %7, label %9

7:                                                ; preds = %3
  %8 = bitcast %"struct.std::__1::pair.205"* %0 to %"class.std::__1::__basic_string_common"*
  tail call void @_ZNKSt3__121__basic_string_commonILb1EE20__throw_length_errorEv(%"class.std::__1::__basic_string_common"* %8) #20
  unreachable

9:                                                ; preds = %3
  %10 = icmp ult i64 %5, 23
  br i1 %10, label %19, label %11

11:                                               ; preds = %9
  %12 = add nuw i64 %5, 16
  %13 = and i64 %12, -16
  %14 = tail call i8* @_Znwm(i64 %13) #18
  %15 = getelementptr inbounds %"struct.std::__1::pair.205", %"struct.std::__1::pair.205"* %0, i64 0, i32 0, i32 0, i32 0, i32 0, i32 0, i32 0, i32 0
  store i8* %14, i8** %15, align 8
  %16 = or i64 %13, -9223372036854775808
  %17 = getelementptr inbounds %"struct.std::__1::pair.205", %"struct.std::__1::pair.205"* %0, i64 0, i32 0, i32 0, i32 0, i32 0, i32 0, i32 0, i32 2
  store i64 %16, i64* %17, align 8
  %18 = getelementptr inbounds %"struct.std::__1::pair.205", %"struct.std::__1::pair.205"* %0, i64 0, i32 0, i32 0, i32 0, i32 0, i32 0, i32 0, i32 1
  store i64 %5, i64* %18, align 8
  br label %25

19:                                               ; preds = %9
  %20 = trunc i64 %5 to i8
  %21 = bitcast %"struct.std::__1::pair.205"* %0 to %"struct.std::__1::basic_string<char, std::__1::char_traits<char>, std::__1::allocator<char> >::__short"*
  %22 = getelementptr inbounds %"struct.std::__1::basic_string<char, std::__1::char_traits<char>, std::__1::allocator<char> >::__short", %"struct.std::__1::basic_string<char, std::__1::char_traits<char>, std::__1::allocator<char> >::__short"* %21, i64 0, i32 1, i32 0
  store i8 %20, i8* %22, align 1
  %23 = bitcast %"struct.std::__1::pair.205"* %0 to i8*
  %24 = icmp eq i64 %5, 0
  br i1 %24, label %27, label %25

25:                                               ; preds = %19, %11
  %26 = phi i8* [ %14, %11 ], [ %23, %19 ]
  tail call void @llvm.memcpy.p0i8.p0i8.i64(i8* align 1 %26, i8* align 1 %4, i64 %5, i1 false) #19
  br label %27

27:                                               ; preds = %19, %25
  %28 = phi i8* [ %23, %19 ], [ %26, %25 ]
  %29 = getelementptr inbounds i8, i8* %28, i64 %5
  store i8 0, i8* %29, align 1
  %30 = getelementptr inbounds %"struct.std::__1::pair.205", %"struct.std::__1::pair.205"* %0, i64 0, i32 1
  %31 = getelementptr inbounds [22 x i8], [22 x i8]* %2, i64 0, i64 0
  %32 = tail call i64 @strlen(i8* %31) #19
  %33 = icmp ugt i64 %32, -17
  br i1 %33, label %34, label %36

34:                                               ; preds = %27
  %35 = bitcast %"class.std::__1::basic_string"* %30 to %"class.std::__1::__basic_string_common"*
  tail call void @_ZNKSt3__121__basic_string_commonILb1EE20__throw_length_errorEv(%"class.std::__1::__basic_string_common"* %35) #20
  unreachable

36:                                               ; preds = %27
  %37 = icmp ult i64 %32, 23
  br i1 %37, label %46, label %38

38:                                               ; preds = %36
  %39 = add nuw i64 %32, 16
  %40 = and i64 %39, -16
  %41 = tail call i8* @_Znwm(i64 %40) #18
  %42 = getelementptr inbounds %"class.std::__1::basic_string", %"class.std::__1::basic_string"* %30, i64 0, i32 0, i32 0, i32 0, i32 0, i32 0, i32 0
  store i8* %41, i8** %42, align 8
  %43 = or i64 %40, -9223372036854775808
  %44 = getelementptr inbounds %"struct.std::__1::pair.205", %"struct.std::__1::pair.205"* %0, i64 0, i32 1, i32 0, i32 0, i32 0, i32 0, i32 0, i32 2
  store i64 %43, i64* %44, align 8
  %45 = getelementptr inbounds %"struct.std::__1::pair.205", %"struct.std::__1::pair.205"* %0, i64 0, i32 1, i32 0, i32 0, i32 0, i32 0, i32 0, i32 1
  store i64 %32, i64* %45, align 8
  br label %52

46:                                               ; preds = %36
  %47 = trunc i64 %32 to i8
  %48 = bitcast %"class.std::__1::basic_string"* %30 to %"struct.std::__1::basic_string<char, std::__1::char_traits<char>, std::__1::allocator<char> >::__short"*
  %49 = getelementptr inbounds %"struct.std::__1::basic_string<char, std::__1::char_traits<char>, std::__1::allocator<char> >::__short", %"struct.std::__1::basic_string<char, std::__1::char_traits<char>, std::__1::allocator<char> >::__short"* %48, i64 0, i32 1, i32 0
  store i8 %47, i8* %49, align 1
  %50 = bitcast %"class.std::__1::basic_string"* %30 to i8*
  %51 = icmp eq i64 %32, 0
  br i1 %51, label %54, label %52

52:                                               ; preds = %46, %38
  %53 = phi i8* [ %41, %38 ], [ %50, %46 ]
  tail call void @llvm.memcpy.p0i8.p0i8.i64(i8* align 1 %53, i8* align 1 %31, i64 %32, i1 false) #19
  br label %54

54:                                               ; preds = %46, %52
  %55 = phi i8* [ %50, %46 ], [ %53, %52 ]
  %56 = getelementptr inbounds i8, i8* %55, i64 %32
  store i8 0, i8* %56, align 1
  ret void
}

; Function Attrs: nounwind ssp uwtable
define linkonce_odr hidden void @_ZNSt3__14pairIKNS_12basic_stringIcNS_11char_traitsIcEENS_9allocatorIcEEEES6_EC2IRA34_KcRA18_SA_Lb0EEEOT_OT0_(%"struct.std::__1::pair.205"*, [34 x i8]* dereferenceable(34), [18 x i8]* dereferenceable(18)) unnamed_addr #1 comdat align 2 {
  %4 = getelementptr inbounds [34 x i8], [34 x i8]* %1, i64 0, i64 0
  %5 = tail call i64 @strlen(i8* %4) #19
  %6 = icmp ugt i64 %5, -17
  br i1 %6, label %7, label %9

7:                                                ; preds = %3
  %8 = bitcast %"struct.std::__1::pair.205"* %0 to %"class.std::__1::__basic_string_common"*
  tail call void @_ZNKSt3__121__basic_string_commonILb1EE20__throw_length_errorEv(%"class.std::__1::__basic_string_common"* %8) #20
  unreachable

9:                                                ; preds = %3
  %10 = icmp ult i64 %5, 23
  br i1 %10, label %19, label %11

11:                                               ; preds = %9
  %12 = add nuw i64 %5, 16
  %13 = and i64 %12, -16
  %14 = tail call i8* @_Znwm(i64 %13) #18
  %15 = getelementptr inbounds %"struct.std::__1::pair.205", %"struct.std::__1::pair.205"* %0, i64 0, i32 0, i32 0, i32 0, i32 0, i32 0, i32 0, i32 0
  store i8* %14, i8** %15, align 8
  %16 = or i64 %13, -9223372036854775808
  %17 = getelementptr inbounds %"struct.std::__1::pair.205", %"struct.std::__1::pair.205"* %0, i64 0, i32 0, i32 0, i32 0, i32 0, i32 0, i32 0, i32 2
  store i64 %16, i64* %17, align 8
  %18 = getelementptr inbounds %"struct.std::__1::pair.205", %"struct.std::__1::pair.205"* %0, i64 0, i32 0, i32 0, i32 0, i32 0, i32 0, i32 0, i32 1
  store i64 %5, i64* %18, align 8
  br label %25

19:                                               ; preds = %9
  %20 = trunc i64 %5 to i8
  %21 = bitcast %"struct.std::__1::pair.205"* %0 to %"struct.std::__1::basic_string<char, std::__1::char_traits<char>, std::__1::allocator<char> >::__short"*
  %22 = getelementptr inbounds %"struct.std::__1::basic_string<char, std::__1::char_traits<char>, std::__1::allocator<char> >::__short", %"struct.std::__1::basic_string<char, std::__1::char_traits<char>, std::__1::allocator<char> >::__short"* %21, i64 0, i32 1, i32 0
  store i8 %20, i8* %22, align 1
  %23 = bitcast %"struct.std::__1::pair.205"* %0 to i8*
  %24 = icmp eq i64 %5, 0
  br i1 %24, label %27, label %25

25:                                               ; preds = %19, %11
  %26 = phi i8* [ %14, %11 ], [ %23, %19 ]
  tail call void @llvm.memcpy.p0i8.p0i8.i64(i8* align 1 %26, i8* align 1 %4, i64 %5, i1 false) #19
  br label %27

27:                                               ; preds = %19, %25
  %28 = phi i8* [ %23, %19 ], [ %26, %25 ]
  %29 = getelementptr inbounds i8, i8* %28, i64 %5
  store i8 0, i8* %29, align 1
  %30 = getelementptr inbounds %"struct.std::__1::pair.205", %"struct.std::__1::pair.205"* %0, i64 0, i32 1
  %31 = getelementptr inbounds [18 x i8], [18 x i8]* %2, i64 0, i64 0
  %32 = tail call i64 @strlen(i8* %31) #19
  %33 = icmp ugt i64 %32, -17
  br i1 %33, label %34, label %36

34:                                               ; preds = %27
  %35 = bitcast %"class.std::__1::basic_string"* %30 to %"class.std::__1::__basic_string_common"*
  tail call void @_ZNKSt3__121__basic_string_commonILb1EE20__throw_length_errorEv(%"class.std::__1::__basic_string_common"* %35) #20
  unreachable

36:                                               ; preds = %27
  %37 = icmp ult i64 %32, 23
  br i1 %37, label %46, label %38

38:                                               ; preds = %36
  %39 = add nuw i64 %32, 16
  %40 = and i64 %39, -16
  %41 = tail call i8* @_Znwm(i64 %40) #18
  %42 = getelementptr inbounds %"class.std::__1::basic_string", %"class.std::__1::basic_string"* %30, i64 0, i32 0, i32 0, i32 0, i32 0, i32 0, i32 0
  store i8* %41, i8** %42, align 8
  %43 = or i64 %40, -9223372036854775808
  %44 = getelementptr inbounds %"struct.std::__1::pair.205", %"struct.std::__1::pair.205"* %0, i64 0, i32 1, i32 0, i32 0, i32 0, i32 0, i32 0, i32 2
  store i64 %43, i64* %44, align 8
  %45 = getelementptr inbounds %"struct.std::__1::pair.205", %"struct.std::__1::pair.205"* %0, i64 0, i32 1, i32 0, i32 0, i32 0, i32 0, i32 0, i32 1
  store i64 %32, i64* %45, align 8
  br label %52

46:                                               ; preds = %36
  %47 = trunc i64 %32 to i8
  %48 = bitcast %"class.std::__1::basic_string"* %30 to %"struct.std::__1::basic_string<char, std::__1::char_traits<char>, std::__1::allocator<char> >::__short"*
  %49 = getelementptr inbounds %"struct.std::__1::basic_string<char, std::__1::char_traits<char>, std::__1::allocator<char> >::__short", %"struct.std::__1::basic_string<char, std::__1::char_traits<char>, std::__1::allocator<char> >::__short"* %48, i64 0, i32 1, i32 0
  store i8 %47, i8* %49, align 1
  %50 = bitcast %"class.std::__1::basic_string"* %30 to i8*
  %51 = icmp eq i64 %32, 0
  br i1 %51, label %54, label %52

52:                                               ; preds = %46, %38
  %53 = phi i8* [ %41, %38 ], [ %50, %46 ]
  tail call void @llvm.memcpy.p0i8.p0i8.i64(i8* align 1 %53, i8* align 1 %31, i64 %32, i1 false) #19
  br label %54

54:                                               ; preds = %46, %52
  %55 = phi i8* [ %50, %46 ], [ %53, %52 ]
  %56 = getelementptr inbounds i8, i8* %55, i64 %32
  store i8 0, i8* %56, align 1
  ret void
}

; Function Attrs: nounwind ssp uwtable
define linkonce_odr hidden void @_ZNSt3__14pairIKNS_12basic_stringIcNS_11char_traitsIcEENS_9allocatorIcEEEES6_EC2IRA44_KcRA30_SA_Lb0EEEOT_OT0_(%"struct.std::__1::pair.205"*, [44 x i8]* dereferenceable(44), [30 x i8]* dereferenceable(30)) unnamed_addr #1 comdat align 2 {
  %4 = getelementptr inbounds [44 x i8], [44 x i8]* %1, i64 0, i64 0
  %5 = tail call i64 @strlen(i8* %4) #19
  %6 = icmp ugt i64 %5, -17
  br i1 %6, label %7, label %9

7:                                                ; preds = %3
  %8 = bitcast %"struct.std::__1::pair.205"* %0 to %"class.std::__1::__basic_string_common"*
  tail call void @_ZNKSt3__121__basic_string_commonILb1EE20__throw_length_errorEv(%"class.std::__1::__basic_string_common"* %8) #20
  unreachable

9:                                                ; preds = %3
  %10 = icmp ult i64 %5, 23
  br i1 %10, label %19, label %11

11:                                               ; preds = %9
  %12 = add nuw i64 %5, 16
  %13 = and i64 %12, -16
  %14 = tail call i8* @_Znwm(i64 %13) #18
  %15 = getelementptr inbounds %"struct.std::__1::pair.205", %"struct.std::__1::pair.205"* %0, i64 0, i32 0, i32 0, i32 0, i32 0, i32 0, i32 0, i32 0
  store i8* %14, i8** %15, align 8
  %16 = or i64 %13, -9223372036854775808
  %17 = getelementptr inbounds %"struct.std::__1::pair.205", %"struct.std::__1::pair.205"* %0, i64 0, i32 0, i32 0, i32 0, i32 0, i32 0, i32 0, i32 2
  store i64 %16, i64* %17, align 8
  %18 = getelementptr inbounds %"struct.std::__1::pair.205", %"struct.std::__1::pair.205"* %0, i64 0, i32 0, i32 0, i32 0, i32 0, i32 0, i32 0, i32 1
  store i64 %5, i64* %18, align 8
  br label %25

19:                                               ; preds = %9
  %20 = trunc i64 %5 to i8
  %21 = bitcast %"struct.std::__1::pair.205"* %0 to %"struct.std::__1::basic_string<char, std::__1::char_traits<char>, std::__1::allocator<char> >::__short"*
  %22 = getelementptr inbounds %"struct.std::__1::basic_string<char, std::__1::char_traits<char>, std::__1::allocator<char> >::__short", %"struct.std::__1::basic_string<char, std::__1::char_traits<char>, std::__1::allocator<char> >::__short"* %21, i64 0, i32 1, i32 0
  store i8 %20, i8* %22, align 1
  %23 = bitcast %"struct.std::__1::pair.205"* %0 to i8*
  %24 = icmp eq i64 %5, 0
  br i1 %24, label %27, label %25

25:                                               ; preds = %19, %11
  %26 = phi i8* [ %14, %11 ], [ %23, %19 ]
  tail call void @llvm.memcpy.p0i8.p0i8.i64(i8* align 1 %26, i8* align 1 %4, i64 %5, i1 false) #19
  br label %27

27:                                               ; preds = %19, %25
  %28 = phi i8* [ %23, %19 ], [ %26, %25 ]
  %29 = getelementptr inbounds i8, i8* %28, i64 %5
  store i8 0, i8* %29, align 1
  %30 = getelementptr inbounds %"struct.std::__1::pair.205", %"struct.std::__1::pair.205"* %0, i64 0, i32 1
  %31 = getelementptr inbounds [30 x i8], [30 x i8]* %2, i64 0, i64 0
  %32 = tail call i64 @strlen(i8* %31) #19
  %33 = icmp ugt i64 %32, -17
  br i1 %33, label %34, label %36

34:                                               ; preds = %27
  %35 = bitcast %"class.std::__1::basic_string"* %30 to %"class.std::__1::__basic_string_common"*
  tail call void @_ZNKSt3__121__basic_string_commonILb1EE20__throw_length_errorEv(%"class.std::__1::__basic_string_common"* %35) #20
  unreachable

36:                                               ; preds = %27
  %37 = icmp ult i64 %32, 23
  br i1 %37, label %46, label %38

38:                                               ; preds = %36
  %39 = add nuw i64 %32, 16
  %40 = and i64 %39, -16
  %41 = tail call i8* @_Znwm(i64 %40) #18
  %42 = getelementptr inbounds %"class.std::__1::basic_string", %"class.std::__1::basic_string"* %30, i64 0, i32 0, i32 0, i32 0, i32 0, i32 0, i32 0
  store i8* %41, i8** %42, align 8
  %43 = or i64 %40, -9223372036854775808
  %44 = getelementptr inbounds %"struct.std::__1::pair.205", %"struct.std::__1::pair.205"* %0, i64 0, i32 1, i32 0, i32 0, i32 0, i32 0, i32 0, i32 2
  store i64 %43, i64* %44, align 8
  %45 = getelementptr inbounds %"struct.std::__1::pair.205", %"struct.std::__1::pair.205"* %0, i64 0, i32 1, i32 0, i32 0, i32 0, i32 0, i32 0, i32 1
  store i64 %32, i64* %45, align 8
  br label %52

46:                                               ; preds = %36
  %47 = trunc i64 %32 to i8
  %48 = bitcast %"class.std::__1::basic_string"* %30 to %"struct.std::__1::basic_string<char, std::__1::char_traits<char>, std::__1::allocator<char> >::__short"*
  %49 = getelementptr inbounds %"struct.std::__1::basic_string<char, std::__1::char_traits<char>, std::__1::allocator<char> >::__short", %"struct.std::__1::basic_string<char, std::__1::char_traits<char>, std::__1::allocator<char> >::__short"* %48, i64 0, i32 1, i32 0
  store i8 %47, i8* %49, align 1
  %50 = bitcast %"class.std::__1::basic_string"* %30 to i8*
  %51 = icmp eq i64 %32, 0
  br i1 %51, label %54, label %52

52:                                               ; preds = %46, %38
  %53 = phi i8* [ %41, %38 ], [ %50, %46 ]
  tail call void @llvm.memcpy.p0i8.p0i8.i64(i8* align 1 %53, i8* align 1 %31, i64 %32, i1 false) #19
  br label %54

54:                                               ; preds = %46, %52
  %55 = phi i8* [ %50, %46 ], [ %53, %52 ]
  %56 = getelementptr inbounds i8, i8* %55, i64 %32
  store i8 0, i8* %56, align 1
  ret void
}

; Function Attrs: nounwind ssp uwtable
define linkonce_odr hidden void @_ZNSt3__14pairIKNS_12basic_stringIcNS_11char_traitsIcEENS_9allocatorIcEEEES6_EC2IRA36_KcRA30_SA_Lb0EEEOT_OT0_(%"struct.std::__1::pair.205"*, [36 x i8]* dereferenceable(36), [30 x i8]* dereferenceable(30)) unnamed_addr #1 comdat align 2 {
  %4 = getelementptr inbounds [36 x i8], [36 x i8]* %1, i64 0, i64 0
  %5 = tail call i64 @strlen(i8* %4) #19
  %6 = icmp ugt i64 %5, -17
  br i1 %6, label %7, label %9

7:                                                ; preds = %3
  %8 = bitcast %"struct.std::__1::pair.205"* %0 to %"class.std::__1::__basic_string_common"*
  tail call void @_ZNKSt3__121__basic_string_commonILb1EE20__throw_length_errorEv(%"class.std::__1::__basic_string_common"* %8) #20
  unreachable

9:                                                ; preds = %3
  %10 = icmp ult i64 %5, 23
  br i1 %10, label %19, label %11

11:                                               ; preds = %9
  %12 = add nuw i64 %5, 16
  %13 = and i64 %12, -16
  %14 = tail call i8* @_Znwm(i64 %13) #18
  %15 = getelementptr inbounds %"struct.std::__1::pair.205", %"struct.std::__1::pair.205"* %0, i64 0, i32 0, i32 0, i32 0, i32 0, i32 0, i32 0, i32 0
  store i8* %14, i8** %15, align 8
  %16 = or i64 %13, -9223372036854775808
  %17 = getelementptr inbounds %"struct.std::__1::pair.205", %"struct.std::__1::pair.205"* %0, i64 0, i32 0, i32 0, i32 0, i32 0, i32 0, i32 0, i32 2
  store i64 %16, i64* %17, align 8
  %18 = getelementptr inbounds %"struct.std::__1::pair.205", %"struct.std::__1::pair.205"* %0, i64 0, i32 0, i32 0, i32 0, i32 0, i32 0, i32 0, i32 1
  store i64 %5, i64* %18, align 8
  br label %25

19:                                               ; preds = %9
  %20 = trunc i64 %5 to i8
  %21 = bitcast %"struct.std::__1::pair.205"* %0 to %"struct.std::__1::basic_string<char, std::__1::char_traits<char>, std::__1::allocator<char> >::__short"*
  %22 = getelementptr inbounds %"struct.std::__1::basic_string<char, std::__1::char_traits<char>, std::__1::allocator<char> >::__short", %"struct.std::__1::basic_string<char, std::__1::char_traits<char>, std::__1::allocator<char> >::__short"* %21, i64 0, i32 1, i32 0
  store i8 %20, i8* %22, align 1
  %23 = bitcast %"struct.std::__1::pair.205"* %0 to i8*
  %24 = icmp eq i64 %5, 0
  br i1 %24, label %27, label %25

25:                                               ; preds = %19, %11
  %26 = phi i8* [ %14, %11 ], [ %23, %19 ]
  tail call void @llvm.memcpy.p0i8.p0i8.i64(i8* align 1 %26, i8* align 1 %4, i64 %5, i1 false) #19
  br label %27

27:                                               ; preds = %19, %25
  %28 = phi i8* [ %23, %19 ], [ %26, %25 ]
  %29 = getelementptr inbounds i8, i8* %28, i64 %5
  store i8 0, i8* %29, align 1
  %30 = getelementptr inbounds %"struct.std::__1::pair.205", %"struct.std::__1::pair.205"* %0, i64 0, i32 1
  %31 = getelementptr inbounds [30 x i8], [30 x i8]* %2, i64 0, i64 0
  %32 = tail call i64 @strlen(i8* %31) #19
  %33 = icmp ugt i64 %32, -17
  br i1 %33, label %34, label %36

34:                                               ; preds = %27
  %35 = bitcast %"class.std::__1::basic_string"* %30 to %"class.std::__1::__basic_string_common"*
  tail call void @_ZNKSt3__121__basic_string_commonILb1EE20__throw_length_errorEv(%"class.std::__1::__basic_string_common"* %35) #20
  unreachable

36:                                               ; preds = %27
  %37 = icmp ult i64 %32, 23
  br i1 %37, label %46, label %38

38:                                               ; preds = %36
  %39 = add nuw i64 %32, 16
  %40 = and i64 %39, -16
  %41 = tail call i8* @_Znwm(i64 %40) #18
  %42 = getelementptr inbounds %"class.std::__1::basic_string", %"class.std::__1::basic_string"* %30, i64 0, i32 0, i32 0, i32 0, i32 0, i32 0, i32 0
  store i8* %41, i8** %42, align 8
  %43 = or i64 %40, -9223372036854775808
  %44 = getelementptr inbounds %"struct.std::__1::pair.205", %"struct.std::__1::pair.205"* %0, i64 0, i32 1, i32 0, i32 0, i32 0, i32 0, i32 0, i32 2
  store i64 %43, i64* %44, align 8
  %45 = getelementptr inbounds %"struct.std::__1::pair.205", %"struct.std::__1::pair.205"* %0, i64 0, i32 1, i32 0, i32 0, i32 0, i32 0, i32 0, i32 1
  store i64 %32, i64* %45, align 8
  br label %52

46:                                               ; preds = %36
  %47 = trunc i64 %32 to i8
  %48 = bitcast %"class.std::__1::basic_string"* %30 to %"struct.std::__1::basic_string<char, std::__1::char_traits<char>, std::__1::allocator<char> >::__short"*
  %49 = getelementptr inbounds %"struct.std::__1::basic_string<char, std::__1::char_traits<char>, std::__1::allocator<char> >::__short", %"struct.std::__1::basic_string<char, std::__1::char_traits<char>, std::__1::allocator<char> >::__short"* %48, i64 0, i32 1, i32 0
  store i8 %47, i8* %49, align 1
  %50 = bitcast %"class.std::__1::basic_string"* %30 to i8*
  %51 = icmp eq i64 %32, 0
  br i1 %51, label %54, label %52

52:                                               ; preds = %46, %38
  %53 = phi i8* [ %41, %38 ], [ %50, %46 ]
  tail call void @llvm.memcpy.p0i8.p0i8.i64(i8* align 1 %53, i8* align 1 %31, i64 %32, i1 false) #19
  br label %54

54:                                               ; preds = %46, %52
  %55 = phi i8* [ %50, %46 ], [ %53, %52 ]
  %56 = getelementptr inbounds i8, i8* %55, i64 %32
  store i8 0, i8* %56, align 1
  ret void
}

; Function Attrs: nounwind ssp uwtable
define linkonce_odr hidden void @_ZNSt3__14pairIKNS_12basic_stringIcNS_11char_traitsIcEENS_9allocatorIcEEEES6_EC2IRA27_KcRA19_SA_Lb0EEEOT_OT0_(%"struct.std::__1::pair.205"*, [27 x i8]* dereferenceable(27), [19 x i8]* dereferenceable(19)) unnamed_addr #1 comdat align 2 {
  %4 = getelementptr inbounds [27 x i8], [27 x i8]* %1, i64 0, i64 0
  %5 = tail call i64 @strlen(i8* %4) #19
  %6 = icmp ugt i64 %5, -17
  br i1 %6, label %7, label %9

7:                                                ; preds = %3
  %8 = bitcast %"struct.std::__1::pair.205"* %0 to %"class.std::__1::__basic_string_common"*
  tail call void @_ZNKSt3__121__basic_string_commonILb1EE20__throw_length_errorEv(%"class.std::__1::__basic_string_common"* %8) #20
  unreachable

9:                                                ; preds = %3
  %10 = icmp ult i64 %5, 23
  br i1 %10, label %19, label %11

11:                                               ; preds = %9
  %12 = add nuw i64 %5, 16
  %13 = and i64 %12, -16
  %14 = tail call i8* @_Znwm(i64 %13) #18
  %15 = getelementptr inbounds %"struct.std::__1::pair.205", %"struct.std::__1::pair.205"* %0, i64 0, i32 0, i32 0, i32 0, i32 0, i32 0, i32 0, i32 0
  store i8* %14, i8** %15, align 8
  %16 = or i64 %13, -9223372036854775808
  %17 = getelementptr inbounds %"struct.std::__1::pair.205", %"struct.std::__1::pair.205"* %0, i64 0, i32 0, i32 0, i32 0, i32 0, i32 0, i32 0, i32 2
  store i64 %16, i64* %17, align 8
  %18 = getelementptr inbounds %"struct.std::__1::pair.205", %"struct.std::__1::pair.205"* %0, i64 0, i32 0, i32 0, i32 0, i32 0, i32 0, i32 0, i32 1
  store i64 %5, i64* %18, align 8
  br label %25

19:                                               ; preds = %9
  %20 = trunc i64 %5 to i8
  %21 = bitcast %"struct.std::__1::pair.205"* %0 to %"struct.std::__1::basic_string<char, std::__1::char_traits<char>, std::__1::allocator<char> >::__short"*
  %22 = getelementptr inbounds %"struct.std::__1::basic_string<char, std::__1::char_traits<char>, std::__1::allocator<char> >::__short", %"struct.std::__1::basic_string<char, std::__1::char_traits<char>, std::__1::allocator<char> >::__short"* %21, i64 0, i32 1, i32 0
  store i8 %20, i8* %22, align 1
  %23 = bitcast %"struct.std::__1::pair.205"* %0 to i8*
  %24 = icmp eq i64 %5, 0
  br i1 %24, label %27, label %25

25:                                               ; preds = %19, %11
  %26 = phi i8* [ %14, %11 ], [ %23, %19 ]
  tail call void @llvm.memcpy.p0i8.p0i8.i64(i8* align 1 %26, i8* align 1 %4, i64 %5, i1 false) #19
  br label %27

27:                                               ; preds = %19, %25
  %28 = phi i8* [ %23, %19 ], [ %26, %25 ]
  %29 = getelementptr inbounds i8, i8* %28, i64 %5
  store i8 0, i8* %29, align 1
  %30 = getelementptr inbounds %"struct.std::__1::pair.205", %"struct.std::__1::pair.205"* %0, i64 0, i32 1
  %31 = getelementptr inbounds [19 x i8], [19 x i8]* %2, i64 0, i64 0
  %32 = tail call i64 @strlen(i8* %31) #19
  %33 = icmp ugt i64 %32, -17
  br i1 %33, label %34, label %36

34:                                               ; preds = %27
  %35 = bitcast %"class.std::__1::basic_string"* %30 to %"class.std::__1::__basic_string_common"*
  tail call void @_ZNKSt3__121__basic_string_commonILb1EE20__throw_length_errorEv(%"class.std::__1::__basic_string_common"* %35) #20
  unreachable

36:                                               ; preds = %27
  %37 = icmp ult i64 %32, 23
  br i1 %37, label %46, label %38

38:                                               ; preds = %36
  %39 = add nuw i64 %32, 16
  %40 = and i64 %39, -16
  %41 = tail call i8* @_Znwm(i64 %40) #18
  %42 = getelementptr inbounds %"class.std::__1::basic_string", %"class.std::__1::basic_string"* %30, i64 0, i32 0, i32 0, i32 0, i32 0, i32 0, i32 0
  store i8* %41, i8** %42, align 8
  %43 = or i64 %40, -9223372036854775808
  %44 = getelementptr inbounds %"struct.std::__1::pair.205", %"struct.std::__1::pair.205"* %0, i64 0, i32 1, i32 0, i32 0, i32 0, i32 0, i32 0, i32 2
  store i64 %43, i64* %44, align 8
  %45 = getelementptr inbounds %"struct.std::__1::pair.205", %"struct.std::__1::pair.205"* %0, i64 0, i32 1, i32 0, i32 0, i32 0, i32 0, i32 0, i32 1
  store i64 %32, i64* %45, align 8
  br label %52

46:                                               ; preds = %36
  %47 = trunc i64 %32 to i8
  %48 = bitcast %"class.std::__1::basic_string"* %30 to %"struct.std::__1::basic_string<char, std::__1::char_traits<char>, std::__1::allocator<char> >::__short"*
  %49 = getelementptr inbounds %"struct.std::__1::basic_string<char, std::__1::char_traits<char>, std::__1::allocator<char> >::__short", %"struct.std::__1::basic_string<char, std::__1::char_traits<char>, std::__1::allocator<char> >::__short"* %48, i64 0, i32 1, i32 0
  store i8 %47, i8* %49, align 1
  %50 = bitcast %"class.std::__1::basic_string"* %30 to i8*
  %51 = icmp eq i64 %32, 0
  br i1 %51, label %54, label %52

52:                                               ; preds = %46, %38
  %53 = phi i8* [ %41, %38 ], [ %50, %46 ]
  tail call void @llvm.memcpy.p0i8.p0i8.i64(i8* align 1 %53, i8* align 1 %31, i64 %32, i1 false) #19
  br label %54

54:                                               ; preds = %46, %52
  %55 = phi i8* [ %50, %46 ], [ %53, %52 ]
  %56 = getelementptr inbounds i8, i8* %55, i64 %32
  store i8 0, i8* %56, align 1
  ret void
}

; Function Attrs: nounwind ssp uwtable
define linkonce_odr hidden void @_ZNSt3__14pairIKNS_12basic_stringIcNS_11char_traitsIcEENS_9allocatorIcEEEES6_EC2IRA34_KcRA30_SA_Lb0EEEOT_OT0_(%"struct.std::__1::pair.205"*, [34 x i8]* dereferenceable(34), [30 x i8]* dereferenceable(30)) unnamed_addr #1 comdat align 2 {
  %4 = getelementptr inbounds [34 x i8], [34 x i8]* %1, i64 0, i64 0
  %5 = tail call i64 @strlen(i8* %4) #19
  %6 = icmp ugt i64 %5, -17
  br i1 %6, label %7, label %9

7:                                                ; preds = %3
  %8 = bitcast %"struct.std::__1::pair.205"* %0 to %"class.std::__1::__basic_string_common"*
  tail call void @_ZNKSt3__121__basic_string_commonILb1EE20__throw_length_errorEv(%"class.std::__1::__basic_string_common"* %8) #20
  unreachable

9:                                                ; preds = %3
  %10 = icmp ult i64 %5, 23
  br i1 %10, label %19, label %11

11:                                               ; preds = %9
  %12 = add nuw i64 %5, 16
  %13 = and i64 %12, -16
  %14 = tail call i8* @_Znwm(i64 %13) #18
  %15 = getelementptr inbounds %"struct.std::__1::pair.205", %"struct.std::__1::pair.205"* %0, i64 0, i32 0, i32 0, i32 0, i32 0, i32 0, i32 0, i32 0
  store i8* %14, i8** %15, align 8
  %16 = or i64 %13, -9223372036854775808
  %17 = getelementptr inbounds %"struct.std::__1::pair.205", %"struct.std::__1::pair.205"* %0, i64 0, i32 0, i32 0, i32 0, i32 0, i32 0, i32 0, i32 2
  store i64 %16, i64* %17, align 8
  %18 = getelementptr inbounds %"struct.std::__1::pair.205", %"struct.std::__1::pair.205"* %0, i64 0, i32 0, i32 0, i32 0, i32 0, i32 0, i32 0, i32 1
  store i64 %5, i64* %18, align 8
  br label %25

19:                                               ; preds = %9
  %20 = trunc i64 %5 to i8
  %21 = bitcast %"struct.std::__1::pair.205"* %0 to %"struct.std::__1::basic_string<char, std::__1::char_traits<char>, std::__1::allocator<char> >::__short"*
  %22 = getelementptr inbounds %"struct.std::__1::basic_string<char, std::__1::char_traits<char>, std::__1::allocator<char> >::__short", %"struct.std::__1::basic_string<char, std::__1::char_traits<char>, std::__1::allocator<char> >::__short"* %21, i64 0, i32 1, i32 0
  store i8 %20, i8* %22, align 1
  %23 = bitcast %"struct.std::__1::pair.205"* %0 to i8*
  %24 = icmp eq i64 %5, 0
  br i1 %24, label %27, label %25

25:                                               ; preds = %19, %11
  %26 = phi i8* [ %14, %11 ], [ %23, %19 ]
  tail call void @llvm.memcpy.p0i8.p0i8.i64(i8* align 1 %26, i8* align 1 %4, i64 %5, i1 false) #19
  br label %27

27:                                               ; preds = %19, %25
  %28 = phi i8* [ %23, %19 ], [ %26, %25 ]
  %29 = getelementptr inbounds i8, i8* %28, i64 %5
  store i8 0, i8* %29, align 1
  %30 = getelementptr inbounds %"struct.std::__1::pair.205", %"struct.std::__1::pair.205"* %0, i64 0, i32 1
  %31 = getelementptr inbounds [30 x i8], [30 x i8]* %2, i64 0, i64 0
  %32 = tail call i64 @strlen(i8* %31) #19
  %33 = icmp ugt i64 %32, -17
  br i1 %33, label %34, label %36

34:                                               ; preds = %27
  %35 = bitcast %"class.std::__1::basic_string"* %30 to %"class.std::__1::__basic_string_common"*
  tail call void @_ZNKSt3__121__basic_string_commonILb1EE20__throw_length_errorEv(%"class.std::__1::__basic_string_common"* %35) #20
  unreachable

36:                                               ; preds = %27
  %37 = icmp ult i64 %32, 23
  br i1 %37, label %46, label %38

38:                                               ; preds = %36
  %39 = add nuw i64 %32, 16
  %40 = and i64 %39, -16
  %41 = tail call i8* @_Znwm(i64 %40) #18
  %42 = getelementptr inbounds %"class.std::__1::basic_string", %"class.std::__1::basic_string"* %30, i64 0, i32 0, i32 0, i32 0, i32 0, i32 0, i32 0
  store i8* %41, i8** %42, align 8
  %43 = or i64 %40, -9223372036854775808
  %44 = getelementptr inbounds %"struct.std::__1::pair.205", %"struct.std::__1::pair.205"* %0, i64 0, i32 1, i32 0, i32 0, i32 0, i32 0, i32 0, i32 2
  store i64 %43, i64* %44, align 8
  %45 = getelementptr inbounds %"struct.std::__1::pair.205", %"struct.std::__1::pair.205"* %0, i64 0, i32 1, i32 0, i32 0, i32 0, i32 0, i32 0, i32 1
  store i64 %32, i64* %45, align 8
  br label %52

46:                                               ; preds = %36
  %47 = trunc i64 %32 to i8
  %48 = bitcast %"class.std::__1::basic_string"* %30 to %"struct.std::__1::basic_string<char, std::__1::char_traits<char>, std::__1::allocator<char> >::__short"*
  %49 = getelementptr inbounds %"struct.std::__1::basic_string<char, std::__1::char_traits<char>, std::__1::allocator<char> >::__short", %"struct.std::__1::basic_string<char, std::__1::char_traits<char>, std::__1::allocator<char> >::__short"* %48, i64 0, i32 1, i32 0
  store i8 %47, i8* %49, align 1
  %50 = bitcast %"class.std::__1::basic_string"* %30 to i8*
  %51 = icmp eq i64 %32, 0
  br i1 %51, label %54, label %52

52:                                               ; preds = %46, %38
  %53 = phi i8* [ %41, %38 ], [ %50, %46 ]
  tail call void @llvm.memcpy.p0i8.p0i8.i64(i8* align 1 %53, i8* align 1 %31, i64 %32, i1 false) #19
  br label %54

54:                                               ; preds = %46, %52
  %55 = phi i8* [ %50, %46 ], [ %53, %52 ]
  %56 = getelementptr inbounds i8, i8* %55, i64 %32
  store i8 0, i8* %56, align 1
  ret void
}

; Function Attrs: nounwind ssp uwtable
define linkonce_odr hidden void @_ZNSt3__14pairIKNS_12basic_stringIcNS_11char_traitsIcEENS_9allocatorIcEEEES6_EC2IRA33_KcRA18_SA_Lb0EEEOT_OT0_(%"struct.std::__1::pair.205"*, [33 x i8]* dereferenceable(33), [18 x i8]* dereferenceable(18)) unnamed_addr #1 comdat align 2 {
  %4 = getelementptr inbounds [33 x i8], [33 x i8]* %1, i64 0, i64 0
  %5 = tail call i64 @strlen(i8* %4) #19
  %6 = icmp ugt i64 %5, -17
  br i1 %6, label %7, label %9

7:                                                ; preds = %3
  %8 = bitcast %"struct.std::__1::pair.205"* %0 to %"class.std::__1::__basic_string_common"*
  tail call void @_ZNKSt3__121__basic_string_commonILb1EE20__throw_length_errorEv(%"class.std::__1::__basic_string_common"* %8) #20
  unreachable

9:                                                ; preds = %3
  %10 = icmp ult i64 %5, 23
  br i1 %10, label %19, label %11

11:                                               ; preds = %9
  %12 = add nuw i64 %5, 16
  %13 = and i64 %12, -16
  %14 = tail call i8* @_Znwm(i64 %13) #18
  %15 = getelementptr inbounds %"struct.std::__1::pair.205", %"struct.std::__1::pair.205"* %0, i64 0, i32 0, i32 0, i32 0, i32 0, i32 0, i32 0, i32 0
  store i8* %14, i8** %15, align 8
  %16 = or i64 %13, -9223372036854775808
  %17 = getelementptr inbounds %"struct.std::__1::pair.205", %"struct.std::__1::pair.205"* %0, i64 0, i32 0, i32 0, i32 0, i32 0, i32 0, i32 0, i32 2
  store i64 %16, i64* %17, align 8
  %18 = getelementptr inbounds %"struct.std::__1::pair.205", %"struct.std::__1::pair.205"* %0, i64 0, i32 0, i32 0, i32 0, i32 0, i32 0, i32 0, i32 1
  store i64 %5, i64* %18, align 8
  br label %25

19:                                               ; preds = %9
  %20 = trunc i64 %5 to i8
  %21 = bitcast %"struct.std::__1::pair.205"* %0 to %"struct.std::__1::basic_string<char, std::__1::char_traits<char>, std::__1::allocator<char> >::__short"*
  %22 = getelementptr inbounds %"struct.std::__1::basic_string<char, std::__1::char_traits<char>, std::__1::allocator<char> >::__short", %"struct.std::__1::basic_string<char, std::__1::char_traits<char>, std::__1::allocator<char> >::__short"* %21, i64 0, i32 1, i32 0
  store i8 %20, i8* %22, align 1
  %23 = bitcast %"struct.std::__1::pair.205"* %0 to i8*
  %24 = icmp eq i64 %5, 0
  br i1 %24, label %27, label %25

25:                                               ; preds = %19, %11
  %26 = phi i8* [ %14, %11 ], [ %23, %19 ]
  tail call void @llvm.memcpy.p0i8.p0i8.i64(i8* align 1 %26, i8* align 1 %4, i64 %5, i1 false) #19
  br label %27

27:                                               ; preds = %19, %25
  %28 = phi i8* [ %23, %19 ], [ %26, %25 ]
  %29 = getelementptr inbounds i8, i8* %28, i64 %5
  store i8 0, i8* %29, align 1
  %30 = getelementptr inbounds %"struct.std::__1::pair.205", %"struct.std::__1::pair.205"* %0, i64 0, i32 1
  %31 = getelementptr inbounds [18 x i8], [18 x i8]* %2, i64 0, i64 0
  %32 = tail call i64 @strlen(i8* %31) #19
  %33 = icmp ugt i64 %32, -17
  br i1 %33, label %34, label %36

34:                                               ; preds = %27
  %35 = bitcast %"class.std::__1::basic_string"* %30 to %"class.std::__1::__basic_string_common"*
  tail call void @_ZNKSt3__121__basic_string_commonILb1EE20__throw_length_errorEv(%"class.std::__1::__basic_string_common"* %35) #20
  unreachable

36:                                               ; preds = %27
  %37 = icmp ult i64 %32, 23
  br i1 %37, label %46, label %38

38:                                               ; preds = %36
  %39 = add nuw i64 %32, 16
  %40 = and i64 %39, -16
  %41 = tail call i8* @_Znwm(i64 %40) #18
  %42 = getelementptr inbounds %"class.std::__1::basic_string", %"class.std::__1::basic_string"* %30, i64 0, i32 0, i32 0, i32 0, i32 0, i32 0, i32 0
  store i8* %41, i8** %42, align 8
  %43 = or i64 %40, -9223372036854775808
  %44 = getelementptr inbounds %"struct.std::__1::pair.205", %"struct.std::__1::pair.205"* %0, i64 0, i32 1, i32 0, i32 0, i32 0, i32 0, i32 0, i32 2
  store i64 %43, i64* %44, align 8
  %45 = getelementptr inbounds %"struct.std::__1::pair.205", %"struct.std::__1::pair.205"* %0, i64 0, i32 1, i32 0, i32 0, i32 0, i32 0, i32 0, i32 1
  store i64 %32, i64* %45, align 8
  br label %52

46:                                               ; preds = %36
  %47 = trunc i64 %32 to i8
  %48 = bitcast %"class.std::__1::basic_string"* %30 to %"struct.std::__1::basic_string<char, std::__1::char_traits<char>, std::__1::allocator<char> >::__short"*
  %49 = getelementptr inbounds %"struct.std::__1::basic_string<char, std::__1::char_traits<char>, std::__1::allocator<char> >::__short", %"struct.std::__1::basic_string<char, std::__1::char_traits<char>, std::__1::allocator<char> >::__short"* %48, i64 0, i32 1, i32 0
  store i8 %47, i8* %49, align 1
  %50 = bitcast %"class.std::__1::basic_string"* %30 to i8*
  %51 = icmp eq i64 %32, 0
  br i1 %51, label %54, label %52

52:                                               ; preds = %46, %38
  %53 = phi i8* [ %41, %38 ], [ %50, %46 ]
  tail call void @llvm.memcpy.p0i8.p0i8.i64(i8* align 1 %53, i8* align 1 %31, i64 %32, i1 false) #19
  br label %54

54:                                               ; preds = %46, %52
  %55 = phi i8* [ %50, %46 ], [ %53, %52 ]
  %56 = getelementptr inbounds i8, i8* %55, i64 %32
  store i8 0, i8* %56, align 1
  ret void
}

; Function Attrs: nounwind ssp uwtable
define linkonce_odr hidden void @_ZNSt3__14pairIKNS_12basic_stringIcNS_11char_traitsIcEENS_9allocatorIcEEEES6_EC2IRA42_KcRA30_SA_Lb0EEEOT_OT0_(%"struct.std::__1::pair.205"*, [42 x i8]* dereferenceable(42), [30 x i8]* dereferenceable(30)) unnamed_addr #1 comdat align 2 {
  %4 = getelementptr inbounds [42 x i8], [42 x i8]* %1, i64 0, i64 0
  %5 = tail call i64 @strlen(i8* %4) #19
  %6 = icmp ugt i64 %5, -17
  br i1 %6, label %7, label %9

7:                                                ; preds = %3
  %8 = bitcast %"struct.std::__1::pair.205"* %0 to %"class.std::__1::__basic_string_common"*
  tail call void @_ZNKSt3__121__basic_string_commonILb1EE20__throw_length_errorEv(%"class.std::__1::__basic_string_common"* %8) #20
  unreachable

9:                                                ; preds = %3
  %10 = icmp ult i64 %5, 23
  br i1 %10, label %19, label %11

11:                                               ; preds = %9
  %12 = add nuw i64 %5, 16
  %13 = and i64 %12, -16
  %14 = tail call i8* @_Znwm(i64 %13) #18
  %15 = getelementptr inbounds %"struct.std::__1::pair.205", %"struct.std::__1::pair.205"* %0, i64 0, i32 0, i32 0, i32 0, i32 0, i32 0, i32 0, i32 0
  store i8* %14, i8** %15, align 8
  %16 = or i64 %13, -9223372036854775808
  %17 = getelementptr inbounds %"struct.std::__1::pair.205", %"struct.std::__1::pair.205"* %0, i64 0, i32 0, i32 0, i32 0, i32 0, i32 0, i32 0, i32 2
  store i64 %16, i64* %17, align 8
  %18 = getelementptr inbounds %"struct.std::__1::pair.205", %"struct.std::__1::pair.205"* %0, i64 0, i32 0, i32 0, i32 0, i32 0, i32 0, i32 0, i32 1
  store i64 %5, i64* %18, align 8
  br label %25

19:                                               ; preds = %9
  %20 = trunc i64 %5 to i8
  %21 = bitcast %"struct.std::__1::pair.205"* %0 to %"struct.std::__1::basic_string<char, std::__1::char_traits<char>, std::__1::allocator<char> >::__short"*
  %22 = getelementptr inbounds %"struct.std::__1::basic_string<char, std::__1::char_traits<char>, std::__1::allocator<char> >::__short", %"struct.std::__1::basic_string<char, std::__1::char_traits<char>, std::__1::allocator<char> >::__short"* %21, i64 0, i32 1, i32 0
  store i8 %20, i8* %22, align 1
  %23 = bitcast %"struct.std::__1::pair.205"* %0 to i8*
  %24 = icmp eq i64 %5, 0
  br i1 %24, label %27, label %25

25:                                               ; preds = %19, %11
  %26 = phi i8* [ %14, %11 ], [ %23, %19 ]
  tail call void @llvm.memcpy.p0i8.p0i8.i64(i8* align 1 %26, i8* align 1 %4, i64 %5, i1 false) #19
  br label %27

27:                                               ; preds = %19, %25
  %28 = phi i8* [ %23, %19 ], [ %26, %25 ]
  %29 = getelementptr inbounds i8, i8* %28, i64 %5
  store i8 0, i8* %29, align 1
  %30 = getelementptr inbounds %"struct.std::__1::pair.205", %"struct.std::__1::pair.205"* %0, i64 0, i32 1
  %31 = getelementptr inbounds [30 x i8], [30 x i8]* %2, i64 0, i64 0
  %32 = tail call i64 @strlen(i8* %31) #19
  %33 = icmp ugt i64 %32, -17
  br i1 %33, label %34, label %36

34:                                               ; preds = %27
  %35 = bitcast %"class.std::__1::basic_string"* %30 to %"class.std::__1::__basic_string_common"*
  tail call void @_ZNKSt3__121__basic_string_commonILb1EE20__throw_length_errorEv(%"class.std::__1::__basic_string_common"* %35) #20
  unreachable

36:                                               ; preds = %27
  %37 = icmp ult i64 %32, 23
  br i1 %37, label %46, label %38

38:                                               ; preds = %36
  %39 = add nuw i64 %32, 16
  %40 = and i64 %39, -16
  %41 = tail call i8* @_Znwm(i64 %40) #18
  %42 = getelementptr inbounds %"class.std::__1::basic_string", %"class.std::__1::basic_string"* %30, i64 0, i32 0, i32 0, i32 0, i32 0, i32 0, i32 0
  store i8* %41, i8** %42, align 8
  %43 = or i64 %40, -9223372036854775808
  %44 = getelementptr inbounds %"struct.std::__1::pair.205", %"struct.std::__1::pair.205"* %0, i64 0, i32 1, i32 0, i32 0, i32 0, i32 0, i32 0, i32 2
  store i64 %43, i64* %44, align 8
  %45 = getelementptr inbounds %"struct.std::__1::pair.205", %"struct.std::__1::pair.205"* %0, i64 0, i32 1, i32 0, i32 0, i32 0, i32 0, i32 0, i32 1
  store i64 %32, i64* %45, align 8
  br label %52

46:                                               ; preds = %36
  %47 = trunc i64 %32 to i8
  %48 = bitcast %"class.std::__1::basic_string"* %30 to %"struct.std::__1::basic_string<char, std::__1::char_traits<char>, std::__1::allocator<char> >::__short"*
  %49 = getelementptr inbounds %"struct.std::__1::basic_string<char, std::__1::char_traits<char>, std::__1::allocator<char> >::__short", %"struct.std::__1::basic_string<char, std::__1::char_traits<char>, std::__1::allocator<char> >::__short"* %48, i64 0, i32 1, i32 0
  store i8 %47, i8* %49, align 1
  %50 = bitcast %"class.std::__1::basic_string"* %30 to i8*
  %51 = icmp eq i64 %32, 0
  br i1 %51, label %54, label %52

52:                                               ; preds = %46, %38
  %53 = phi i8* [ %41, %38 ], [ %50, %46 ]
  tail call void @llvm.memcpy.p0i8.p0i8.i64(i8* align 1 %53, i8* align 1 %31, i64 %32, i1 false) #19
  br label %54

54:                                               ; preds = %46, %52
  %55 = phi i8* [ %50, %46 ], [ %53, %52 ]
  %56 = getelementptr inbounds i8, i8* %55, i64 %32
  store i8 0, i8* %56, align 1
  ret void
}

; Function Attrs: nounwind ssp uwtable
define linkonce_odr hidden void @_ZNSt3__14pairIKNS_12basic_stringIcNS_11char_traitsIcEENS_9allocatorIcEEEES6_EC2IRA20_KcRA22_SA_Lb0EEEOT_OT0_(%"struct.std::__1::pair.205"*, [20 x i8]* dereferenceable(20), [22 x i8]* dereferenceable(22)) unnamed_addr #1 comdat align 2 {
  %4 = getelementptr inbounds [20 x i8], [20 x i8]* %1, i64 0, i64 0
  %5 = tail call i64 @strlen(i8* %4) #19
  %6 = icmp ugt i64 %5, -17
  br i1 %6, label %7, label %9

7:                                                ; preds = %3
  %8 = bitcast %"struct.std::__1::pair.205"* %0 to %"class.std::__1::__basic_string_common"*
  tail call void @_ZNKSt3__121__basic_string_commonILb1EE20__throw_length_errorEv(%"class.std::__1::__basic_string_common"* %8) #20
  unreachable

9:                                                ; preds = %3
  %10 = icmp ult i64 %5, 23
  br i1 %10, label %19, label %11

11:                                               ; preds = %9
  %12 = add nuw i64 %5, 16
  %13 = and i64 %12, -16
  %14 = tail call i8* @_Znwm(i64 %13) #18
  %15 = getelementptr inbounds %"struct.std::__1::pair.205", %"struct.std::__1::pair.205"* %0, i64 0, i32 0, i32 0, i32 0, i32 0, i32 0, i32 0, i32 0
  store i8* %14, i8** %15, align 8
  %16 = or i64 %13, -9223372036854775808
  %17 = getelementptr inbounds %"struct.std::__1::pair.205", %"struct.std::__1::pair.205"* %0, i64 0, i32 0, i32 0, i32 0, i32 0, i32 0, i32 0, i32 2
  store i64 %16, i64* %17, align 8
  %18 = getelementptr inbounds %"struct.std::__1::pair.205", %"struct.std::__1::pair.205"* %0, i64 0, i32 0, i32 0, i32 0, i32 0, i32 0, i32 0, i32 1
  store i64 %5, i64* %18, align 8
  br label %25

19:                                               ; preds = %9
  %20 = trunc i64 %5 to i8
  %21 = bitcast %"struct.std::__1::pair.205"* %0 to %"struct.std::__1::basic_string<char, std::__1::char_traits<char>, std::__1::allocator<char> >::__short"*
  %22 = getelementptr inbounds %"struct.std::__1::basic_string<char, std::__1::char_traits<char>, std::__1::allocator<char> >::__short", %"struct.std::__1::basic_string<char, std::__1::char_traits<char>, std::__1::allocator<char> >::__short"* %21, i64 0, i32 1, i32 0
  store i8 %20, i8* %22, align 1
  %23 = bitcast %"struct.std::__1::pair.205"* %0 to i8*
  %24 = icmp eq i64 %5, 0
  br i1 %24, label %27, label %25

25:                                               ; preds = %19, %11
  %26 = phi i8* [ %14, %11 ], [ %23, %19 ]
  tail call void @llvm.memcpy.p0i8.p0i8.i64(i8* align 1 %26, i8* align 1 %4, i64 %5, i1 false) #19
  br label %27

27:                                               ; preds = %19, %25
  %28 = phi i8* [ %23, %19 ], [ %26, %25 ]
  %29 = getelementptr inbounds i8, i8* %28, i64 %5
  store i8 0, i8* %29, align 1
  %30 = getelementptr inbounds %"struct.std::__1::pair.205", %"struct.std::__1::pair.205"* %0, i64 0, i32 1
  %31 = getelementptr inbounds [22 x i8], [22 x i8]* %2, i64 0, i64 0
  %32 = tail call i64 @strlen(i8* %31) #19
  %33 = icmp ugt i64 %32, -17
  br i1 %33, label %34, label %36

34:                                               ; preds = %27
  %35 = bitcast %"class.std::__1::basic_string"* %30 to %"class.std::__1::__basic_string_common"*
  tail call void @_ZNKSt3__121__basic_string_commonILb1EE20__throw_length_errorEv(%"class.std::__1::__basic_string_common"* %35) #20
  unreachable

36:                                               ; preds = %27
  %37 = icmp ult i64 %32, 23
  br i1 %37, label %46, label %38

38:                                               ; preds = %36
  %39 = add nuw i64 %32, 16
  %40 = and i64 %39, -16
  %41 = tail call i8* @_Znwm(i64 %40) #18
  %42 = getelementptr inbounds %"class.std::__1::basic_string", %"class.std::__1::basic_string"* %30, i64 0, i32 0, i32 0, i32 0, i32 0, i32 0, i32 0
  store i8* %41, i8** %42, align 8
  %43 = or i64 %40, -9223372036854775808
  %44 = getelementptr inbounds %"struct.std::__1::pair.205", %"struct.std::__1::pair.205"* %0, i64 0, i32 1, i32 0, i32 0, i32 0, i32 0, i32 0, i32 2
  store i64 %43, i64* %44, align 8
  %45 = getelementptr inbounds %"struct.std::__1::pair.205", %"struct.std::__1::pair.205"* %0, i64 0, i32 1, i32 0, i32 0, i32 0, i32 0, i32 0, i32 1
  store i64 %32, i64* %45, align 8
  br label %52

46:                                               ; preds = %36
  %47 = trunc i64 %32 to i8
  %48 = bitcast %"class.std::__1::basic_string"* %30 to %"struct.std::__1::basic_string<char, std::__1::char_traits<char>, std::__1::allocator<char> >::__short"*
  %49 = getelementptr inbounds %"struct.std::__1::basic_string<char, std::__1::char_traits<char>, std::__1::allocator<char> >::__short", %"struct.std::__1::basic_string<char, std::__1::char_traits<char>, std::__1::allocator<char> >::__short"* %48, i64 0, i32 1, i32 0
  store i8 %47, i8* %49, align 1
  %50 = bitcast %"class.std::__1::basic_string"* %30 to i8*
  %51 = icmp eq i64 %32, 0
  br i1 %51, label %54, label %52

52:                                               ; preds = %46, %38
  %53 = phi i8* [ %41, %38 ], [ %50, %46 ]
  tail call void @llvm.memcpy.p0i8.p0i8.i64(i8* align 1 %53, i8* align 1 %31, i64 %32, i1 false) #19
  br label %54

54:                                               ; preds = %46, %52
  %55 = phi i8* [ %50, %46 ], [ %53, %52 ]
  %56 = getelementptr inbounds i8, i8* %55, i64 %32
  store i8 0, i8* %56, align 1
  ret void
}

; Function Attrs: nounwind ssp uwtable
define linkonce_odr hidden void @_ZNSt3__14pairIKNS_12basic_stringIcNS_11char_traitsIcEENS_9allocatorIcEEEES6_EC2IRA27_KcRA22_SA_Lb0EEEOT_OT0_(%"struct.std::__1::pair.205"*, [27 x i8]* dereferenceable(27), [22 x i8]* dereferenceable(22)) unnamed_addr #1 comdat align 2 {
  %4 = getelementptr inbounds [27 x i8], [27 x i8]* %1, i64 0, i64 0
  %5 = tail call i64 @strlen(i8* %4) #19
  %6 = icmp ugt i64 %5, -17
  br i1 %6, label %7, label %9

7:                                                ; preds = %3
  %8 = bitcast %"struct.std::__1::pair.205"* %0 to %"class.std::__1::__basic_string_common"*
  tail call void @_ZNKSt3__121__basic_string_commonILb1EE20__throw_length_errorEv(%"class.std::__1::__basic_string_common"* %8) #20
  unreachable

9:                                                ; preds = %3
  %10 = icmp ult i64 %5, 23
  br i1 %10, label %19, label %11

11:                                               ; preds = %9
  %12 = add nuw i64 %5, 16
  %13 = and i64 %12, -16
  %14 = tail call i8* @_Znwm(i64 %13) #18
  %15 = getelementptr inbounds %"struct.std::__1::pair.205", %"struct.std::__1::pair.205"* %0, i64 0, i32 0, i32 0, i32 0, i32 0, i32 0, i32 0, i32 0
  store i8* %14, i8** %15, align 8
  %16 = or i64 %13, -9223372036854775808
  %17 = getelementptr inbounds %"struct.std::__1::pair.205", %"struct.std::__1::pair.205"* %0, i64 0, i32 0, i32 0, i32 0, i32 0, i32 0, i32 0, i32 2
  store i64 %16, i64* %17, align 8
  %18 = getelementptr inbounds %"struct.std::__1::pair.205", %"struct.std::__1::pair.205"* %0, i64 0, i32 0, i32 0, i32 0, i32 0, i32 0, i32 0, i32 1
  store i64 %5, i64* %18, align 8
  br label %25

19:                                               ; preds = %9
  %20 = trunc i64 %5 to i8
  %21 = bitcast %"struct.std::__1::pair.205"* %0 to %"struct.std::__1::basic_string<char, std::__1::char_traits<char>, std::__1::allocator<char> >::__short"*
  %22 = getelementptr inbounds %"struct.std::__1::basic_string<char, std::__1::char_traits<char>, std::__1::allocator<char> >::__short", %"struct.std::__1::basic_string<char, std::__1::char_traits<char>, std::__1::allocator<char> >::__short"* %21, i64 0, i32 1, i32 0
  store i8 %20, i8* %22, align 1
  %23 = bitcast %"struct.std::__1::pair.205"* %0 to i8*
  %24 = icmp eq i64 %5, 0
  br i1 %24, label %27, label %25

25:                                               ; preds = %19, %11
  %26 = phi i8* [ %14, %11 ], [ %23, %19 ]
  tail call void @llvm.memcpy.p0i8.p0i8.i64(i8* align 1 %26, i8* align 1 %4, i64 %5, i1 false) #19
  br label %27

27:                                               ; preds = %19, %25
  %28 = phi i8* [ %23, %19 ], [ %26, %25 ]
  %29 = getelementptr inbounds i8, i8* %28, i64 %5
  store i8 0, i8* %29, align 1
  %30 = getelementptr inbounds %"struct.std::__1::pair.205", %"struct.std::__1::pair.205"* %0, i64 0, i32 1
  %31 = getelementptr inbounds [22 x i8], [22 x i8]* %2, i64 0, i64 0
  %32 = tail call i64 @strlen(i8* %31) #19
  %33 = icmp ugt i64 %32, -17
  br i1 %33, label %34, label %36

34:                                               ; preds = %27
  %35 = bitcast %"class.std::__1::basic_string"* %30 to %"class.std::__1::__basic_string_common"*
  tail call void @_ZNKSt3__121__basic_string_commonILb1EE20__throw_length_errorEv(%"class.std::__1::__basic_string_common"* %35) #20
  unreachable

36:                                               ; preds = %27
  %37 = icmp ult i64 %32, 23
  br i1 %37, label %46, label %38

38:                                               ; preds = %36
  %39 = add nuw i64 %32, 16
  %40 = and i64 %39, -16
  %41 = tail call i8* @_Znwm(i64 %40) #18
  %42 = getelementptr inbounds %"class.std::__1::basic_string", %"class.std::__1::basic_string"* %30, i64 0, i32 0, i32 0, i32 0, i32 0, i32 0, i32 0
  store i8* %41, i8** %42, align 8
  %43 = or i64 %40, -9223372036854775808
  %44 = getelementptr inbounds %"struct.std::__1::pair.205", %"struct.std::__1::pair.205"* %0, i64 0, i32 1, i32 0, i32 0, i32 0, i32 0, i32 0, i32 2
  store i64 %43, i64* %44, align 8
  %45 = getelementptr inbounds %"struct.std::__1::pair.205", %"struct.std::__1::pair.205"* %0, i64 0, i32 1, i32 0, i32 0, i32 0, i32 0, i32 0, i32 1
  store i64 %32, i64* %45, align 8
  br label %52

46:                                               ; preds = %36
  %47 = trunc i64 %32 to i8
  %48 = bitcast %"class.std::__1::basic_string"* %30 to %"struct.std::__1::basic_string<char, std::__1::char_traits<char>, std::__1::allocator<char> >::__short"*
  %49 = getelementptr inbounds %"struct.std::__1::basic_string<char, std::__1::char_traits<char>, std::__1::allocator<char> >::__short", %"struct.std::__1::basic_string<char, std::__1::char_traits<char>, std::__1::allocator<char> >::__short"* %48, i64 0, i32 1, i32 0
  store i8 %47, i8* %49, align 1
  %50 = bitcast %"class.std::__1::basic_string"* %30 to i8*
  %51 = icmp eq i64 %32, 0
  br i1 %51, label %54, label %52

52:                                               ; preds = %46, %38
  %53 = phi i8* [ %41, %38 ], [ %50, %46 ]
  tail call void @llvm.memcpy.p0i8.p0i8.i64(i8* align 1 %53, i8* align 1 %31, i64 %32, i1 false) #19
  br label %54

54:                                               ; preds = %46, %52
  %55 = phi i8* [ %50, %46 ], [ %53, %52 ]
  %56 = getelementptr inbounds i8, i8* %55, i64 %32
  store i8 0, i8* %56, align 1
  ret void
}

; Function Attrs: nounwind ssp uwtable
define linkonce_odr hidden void @_ZNSt3__14pairIKNS_12basic_stringIcNS_11char_traitsIcEENS_9allocatorIcEEEES6_EC2IRA23_KcRA21_SA_Lb0EEEOT_OT0_(%"struct.std::__1::pair.205"*, [23 x i8]* dereferenceable(23), [21 x i8]* dereferenceable(21)) unnamed_addr #1 comdat align 2 {
  %4 = getelementptr inbounds [23 x i8], [23 x i8]* %1, i64 0, i64 0
  %5 = tail call i64 @strlen(i8* %4) #19
  %6 = icmp ugt i64 %5, -17
  br i1 %6, label %7, label %9

7:                                                ; preds = %3
  %8 = bitcast %"struct.std::__1::pair.205"* %0 to %"class.std::__1::__basic_string_common"*
  tail call void @_ZNKSt3__121__basic_string_commonILb1EE20__throw_length_errorEv(%"class.std::__1::__basic_string_common"* %8) #20
  unreachable

9:                                                ; preds = %3
  %10 = icmp ult i64 %5, 23
  br i1 %10, label %19, label %11

11:                                               ; preds = %9
  %12 = add nuw i64 %5, 16
  %13 = and i64 %12, -16
  %14 = tail call i8* @_Znwm(i64 %13) #18
  %15 = getelementptr inbounds %"struct.std::__1::pair.205", %"struct.std::__1::pair.205"* %0, i64 0, i32 0, i32 0, i32 0, i32 0, i32 0, i32 0, i32 0
  store i8* %14, i8** %15, align 8
  %16 = or i64 %13, -9223372036854775808
  %17 = getelementptr inbounds %"struct.std::__1::pair.205", %"struct.std::__1::pair.205"* %0, i64 0, i32 0, i32 0, i32 0, i32 0, i32 0, i32 0, i32 2
  store i64 %16, i64* %17, align 8
  %18 = getelementptr inbounds %"struct.std::__1::pair.205", %"struct.std::__1::pair.205"* %0, i64 0, i32 0, i32 0, i32 0, i32 0, i32 0, i32 0, i32 1
  store i64 %5, i64* %18, align 8
  br label %25

19:                                               ; preds = %9
  %20 = trunc i64 %5 to i8
  %21 = bitcast %"struct.std::__1::pair.205"* %0 to %"struct.std::__1::basic_string<char, std::__1::char_traits<char>, std::__1::allocator<char> >::__short"*
  %22 = getelementptr inbounds %"struct.std::__1::basic_string<char, std::__1::char_traits<char>, std::__1::allocator<char> >::__short", %"struct.std::__1::basic_string<char, std::__1::char_traits<char>, std::__1::allocator<char> >::__short"* %21, i64 0, i32 1, i32 0
  store i8 %20, i8* %22, align 1
  %23 = bitcast %"struct.std::__1::pair.205"* %0 to i8*
  %24 = icmp eq i64 %5, 0
  br i1 %24, label %27, label %25

25:                                               ; preds = %19, %11
  %26 = phi i8* [ %14, %11 ], [ %23, %19 ]
  tail call void @llvm.memcpy.p0i8.p0i8.i64(i8* align 1 %26, i8* align 1 %4, i64 %5, i1 false) #19
  br label %27

27:                                               ; preds = %19, %25
  %28 = phi i8* [ %23, %19 ], [ %26, %25 ]
  %29 = getelementptr inbounds i8, i8* %28, i64 %5
  store i8 0, i8* %29, align 1
  %30 = getelementptr inbounds %"struct.std::__1::pair.205", %"struct.std::__1::pair.205"* %0, i64 0, i32 1
  %31 = getelementptr inbounds [21 x i8], [21 x i8]* %2, i64 0, i64 0
  %32 = tail call i64 @strlen(i8* %31) #19
  %33 = icmp ugt i64 %32, -17
  br i1 %33, label %34, label %36

34:                                               ; preds = %27
  %35 = bitcast %"class.std::__1::basic_string"* %30 to %"class.std::__1::__basic_string_common"*
  tail call void @_ZNKSt3__121__basic_string_commonILb1EE20__throw_length_errorEv(%"class.std::__1::__basic_string_common"* %35) #20
  unreachable

36:                                               ; preds = %27
  %37 = icmp ult i64 %32, 23
  br i1 %37, label %46, label %38

38:                                               ; preds = %36
  %39 = add nuw i64 %32, 16
  %40 = and i64 %39, -16
  %41 = tail call i8* @_Znwm(i64 %40) #18
  %42 = getelementptr inbounds %"class.std::__1::basic_string", %"class.std::__1::basic_string"* %30, i64 0, i32 0, i32 0, i32 0, i32 0, i32 0, i32 0
  store i8* %41, i8** %42, align 8
  %43 = or i64 %40, -9223372036854775808
  %44 = getelementptr inbounds %"struct.std::__1::pair.205", %"struct.std::__1::pair.205"* %0, i64 0, i32 1, i32 0, i32 0, i32 0, i32 0, i32 0, i32 2
  store i64 %43, i64* %44, align 8
  %45 = getelementptr inbounds %"struct.std::__1::pair.205", %"struct.std::__1::pair.205"* %0, i64 0, i32 1, i32 0, i32 0, i32 0, i32 0, i32 0, i32 1
  store i64 %32, i64* %45, align 8
  br label %52

46:                                               ; preds = %36
  %47 = trunc i64 %32 to i8
  %48 = bitcast %"class.std::__1::basic_string"* %30 to %"struct.std::__1::basic_string<char, std::__1::char_traits<char>, std::__1::allocator<char> >::__short"*
  %49 = getelementptr inbounds %"struct.std::__1::basic_string<char, std::__1::char_traits<char>, std::__1::allocator<char> >::__short", %"struct.std::__1::basic_string<char, std::__1::char_traits<char>, std::__1::allocator<char> >::__short"* %48, i64 0, i32 1, i32 0
  store i8 %47, i8* %49, align 1
  %50 = bitcast %"class.std::__1::basic_string"* %30 to i8*
  %51 = icmp eq i64 %32, 0
  br i1 %51, label %54, label %52

52:                                               ; preds = %46, %38
  %53 = phi i8* [ %41, %38 ], [ %50, %46 ]
  tail call void @llvm.memcpy.p0i8.p0i8.i64(i8* align 1 %53, i8* align 1 %31, i64 %32, i1 false) #19
  br label %54

54:                                               ; preds = %46, %52
  %55 = phi i8* [ %50, %46 ], [ %53, %52 ]
  %56 = getelementptr inbounds i8, i8* %55, i64 %32
  store i8 0, i8* %56, align 1
  ret void
}

; Function Attrs: nounwind ssp uwtable
define linkonce_odr hidden void @_ZNSt3__14pairIKNS_12basic_stringIcNS_11char_traitsIcEENS_9allocatorIcEEEES6_EC2IRA25_KcRA20_SA_Lb0EEEOT_OT0_(%"struct.std::__1::pair.205"*, [25 x i8]* dereferenceable(25), [20 x i8]* dereferenceable(20)) unnamed_addr #1 comdat align 2 {
  %4 = getelementptr inbounds [25 x i8], [25 x i8]* %1, i64 0, i64 0
  %5 = tail call i64 @strlen(i8* %4) #19
  %6 = icmp ugt i64 %5, -17
  br i1 %6, label %7, label %9

7:                                                ; preds = %3
  %8 = bitcast %"struct.std::__1::pair.205"* %0 to %"class.std::__1::__basic_string_common"*
  tail call void @_ZNKSt3__121__basic_string_commonILb1EE20__throw_length_errorEv(%"class.std::__1::__basic_string_common"* %8) #20
  unreachable

9:                                                ; preds = %3
  %10 = icmp ult i64 %5, 23
  br i1 %10, label %19, label %11

11:                                               ; preds = %9
  %12 = add nuw i64 %5, 16
  %13 = and i64 %12, -16
  %14 = tail call i8* @_Znwm(i64 %13) #18
  %15 = getelementptr inbounds %"struct.std::__1::pair.205", %"struct.std::__1::pair.205"* %0, i64 0, i32 0, i32 0, i32 0, i32 0, i32 0, i32 0, i32 0
  store i8* %14, i8** %15, align 8
  %16 = or i64 %13, -9223372036854775808
  %17 = getelementptr inbounds %"struct.std::__1::pair.205", %"struct.std::__1::pair.205"* %0, i64 0, i32 0, i32 0, i32 0, i32 0, i32 0, i32 0, i32 2
  store i64 %16, i64* %17, align 8
  %18 = getelementptr inbounds %"struct.std::__1::pair.205", %"struct.std::__1::pair.205"* %0, i64 0, i32 0, i32 0, i32 0, i32 0, i32 0, i32 0, i32 1
  store i64 %5, i64* %18, align 8
  br label %25

19:                                               ; preds = %9
  %20 = trunc i64 %5 to i8
  %21 = bitcast %"struct.std::__1::pair.205"* %0 to %"struct.std::__1::basic_string<char, std::__1::char_traits<char>, std::__1::allocator<char> >::__short"*
  %22 = getelementptr inbounds %"struct.std::__1::basic_string<char, std::__1::char_traits<char>, std::__1::allocator<char> >::__short", %"struct.std::__1::basic_string<char, std::__1::char_traits<char>, std::__1::allocator<char> >::__short"* %21, i64 0, i32 1, i32 0
  store i8 %20, i8* %22, align 1
  %23 = bitcast %"struct.std::__1::pair.205"* %0 to i8*
  %24 = icmp eq i64 %5, 0
  br i1 %24, label %27, label %25

25:                                               ; preds = %19, %11
  %26 = phi i8* [ %14, %11 ], [ %23, %19 ]
  tail call void @llvm.memcpy.p0i8.p0i8.i64(i8* align 1 %26, i8* align 1 %4, i64 %5, i1 false) #19
  br label %27

27:                                               ; preds = %19, %25
  %28 = phi i8* [ %23, %19 ], [ %26, %25 ]
  %29 = getelementptr inbounds i8, i8* %28, i64 %5
  store i8 0, i8* %29, align 1
  %30 = getelementptr inbounds %"struct.std::__1::pair.205", %"struct.std::__1::pair.205"* %0, i64 0, i32 1
  %31 = getelementptr inbounds [20 x i8], [20 x i8]* %2, i64 0, i64 0
  %32 = tail call i64 @strlen(i8* %31) #19
  %33 = icmp ugt i64 %32, -17
  br i1 %33, label %34, label %36

34:                                               ; preds = %27
  %35 = bitcast %"class.std::__1::basic_string"* %30 to %"class.std::__1::__basic_string_common"*
  tail call void @_ZNKSt3__121__basic_string_commonILb1EE20__throw_length_errorEv(%"class.std::__1::__basic_string_common"* %35) #20
  unreachable

36:                                               ; preds = %27
  %37 = icmp ult i64 %32, 23
  br i1 %37, label %46, label %38

38:                                               ; preds = %36
  %39 = add nuw i64 %32, 16
  %40 = and i64 %39, -16
  %41 = tail call i8* @_Znwm(i64 %40) #18
  %42 = getelementptr inbounds %"class.std::__1::basic_string", %"class.std::__1::basic_string"* %30, i64 0, i32 0, i32 0, i32 0, i32 0, i32 0, i32 0
  store i8* %41, i8** %42, align 8
  %43 = or i64 %40, -9223372036854775808
  %44 = getelementptr inbounds %"struct.std::__1::pair.205", %"struct.std::__1::pair.205"* %0, i64 0, i32 1, i32 0, i32 0, i32 0, i32 0, i32 0, i32 2
  store i64 %43, i64* %44, align 8
  %45 = getelementptr inbounds %"struct.std::__1::pair.205", %"struct.std::__1::pair.205"* %0, i64 0, i32 1, i32 0, i32 0, i32 0, i32 0, i32 0, i32 1
  store i64 %32, i64* %45, align 8
  br label %52

46:                                               ; preds = %36
  %47 = trunc i64 %32 to i8
  %48 = bitcast %"class.std::__1::basic_string"* %30 to %"struct.std::__1::basic_string<char, std::__1::char_traits<char>, std::__1::allocator<char> >::__short"*
  %49 = getelementptr inbounds %"struct.std::__1::basic_string<char, std::__1::char_traits<char>, std::__1::allocator<char> >::__short", %"struct.std::__1::basic_string<char, std::__1::char_traits<char>, std::__1::allocator<char> >::__short"* %48, i64 0, i32 1, i32 0
  store i8 %47, i8* %49, align 1
  %50 = bitcast %"class.std::__1::basic_string"* %30 to i8*
  %51 = icmp eq i64 %32, 0
  br i1 %51, label %54, label %52

52:                                               ; preds = %46, %38
  %53 = phi i8* [ %41, %38 ], [ %50, %46 ]
  tail call void @llvm.memcpy.p0i8.p0i8.i64(i8* align 1 %53, i8* align 1 %31, i64 %32, i1 false) #19
  br label %54

54:                                               ; preds = %46, %52
  %55 = phi i8* [ %50, %46 ], [ %53, %52 ]
  %56 = getelementptr inbounds i8, i8* %55, i64 %32
  store i8 0, i8* %56, align 1
  ret void
}

; Function Attrs: nounwind ssp uwtable
define linkonce_odr hidden void @_ZNSt3__14pairIKNS_12basic_stringIcNS_11char_traitsIcEENS_9allocatorIcEEEES6_EC2IRA26_KcRA20_SA_Lb0EEEOT_OT0_(%"struct.std::__1::pair.205"*, [26 x i8]* dereferenceable(26), [20 x i8]* dereferenceable(20)) unnamed_addr #1 comdat align 2 {
  %4 = getelementptr inbounds [26 x i8], [26 x i8]* %1, i64 0, i64 0
  %5 = tail call i64 @strlen(i8* %4) #19
  %6 = icmp ugt i64 %5, -17
  br i1 %6, label %7, label %9

7:                                                ; preds = %3
  %8 = bitcast %"struct.std::__1::pair.205"* %0 to %"class.std::__1::__basic_string_common"*
  tail call void @_ZNKSt3__121__basic_string_commonILb1EE20__throw_length_errorEv(%"class.std::__1::__basic_string_common"* %8) #20
  unreachable

9:                                                ; preds = %3
  %10 = icmp ult i64 %5, 23
  br i1 %10, label %19, label %11

11:                                               ; preds = %9
  %12 = add nuw i64 %5, 16
  %13 = and i64 %12, -16
  %14 = tail call i8* @_Znwm(i64 %13) #18
  %15 = getelementptr inbounds %"struct.std::__1::pair.205", %"struct.std::__1::pair.205"* %0, i64 0, i32 0, i32 0, i32 0, i32 0, i32 0, i32 0, i32 0
  store i8* %14, i8** %15, align 8
  %16 = or i64 %13, -9223372036854775808
  %17 = getelementptr inbounds %"struct.std::__1::pair.205", %"struct.std::__1::pair.205"* %0, i64 0, i32 0, i32 0, i32 0, i32 0, i32 0, i32 0, i32 2
  store i64 %16, i64* %17, align 8
  %18 = getelementptr inbounds %"struct.std::__1::pair.205", %"struct.std::__1::pair.205"* %0, i64 0, i32 0, i32 0, i32 0, i32 0, i32 0, i32 0, i32 1
  store i64 %5, i64* %18, align 8
  br label %25

19:                                               ; preds = %9
  %20 = trunc i64 %5 to i8
  %21 = bitcast %"struct.std::__1::pair.205"* %0 to %"struct.std::__1::basic_string<char, std::__1::char_traits<char>, std::__1::allocator<char> >::__short"*
  %22 = getelementptr inbounds %"struct.std::__1::basic_string<char, std::__1::char_traits<char>, std::__1::allocator<char> >::__short", %"struct.std::__1::basic_string<char, std::__1::char_traits<char>, std::__1::allocator<char> >::__short"* %21, i64 0, i32 1, i32 0
  store i8 %20, i8* %22, align 1
  %23 = bitcast %"struct.std::__1::pair.205"* %0 to i8*
  %24 = icmp eq i64 %5, 0
  br i1 %24, label %27, label %25

25:                                               ; preds = %19, %11
  %26 = phi i8* [ %14, %11 ], [ %23, %19 ]
  tail call void @llvm.memcpy.p0i8.p0i8.i64(i8* align 1 %26, i8* align 1 %4, i64 %5, i1 false) #19
  br label %27

27:                                               ; preds = %19, %25
  %28 = phi i8* [ %23, %19 ], [ %26, %25 ]
  %29 = getelementptr inbounds i8, i8* %28, i64 %5
  store i8 0, i8* %29, align 1
  %30 = getelementptr inbounds %"struct.std::__1::pair.205", %"struct.std::__1::pair.205"* %0, i64 0, i32 1
  %31 = getelementptr inbounds [20 x i8], [20 x i8]* %2, i64 0, i64 0
  %32 = tail call i64 @strlen(i8* %31) #19
  %33 = icmp ugt i64 %32, -17
  br i1 %33, label %34, label %36

34:                                               ; preds = %27
  %35 = bitcast %"class.std::__1::basic_string"* %30 to %"class.std::__1::__basic_string_common"*
  tail call void @_ZNKSt3__121__basic_string_commonILb1EE20__throw_length_errorEv(%"class.std::__1::__basic_string_common"* %35) #20
  unreachable

36:                                               ; preds = %27
  %37 = icmp ult i64 %32, 23
  br i1 %37, label %46, label %38

38:                                               ; preds = %36
  %39 = add nuw i64 %32, 16
  %40 = and i64 %39, -16
  %41 = tail call i8* @_Znwm(i64 %40) #18
  %42 = getelementptr inbounds %"class.std::__1::basic_string", %"class.std::__1::basic_string"* %30, i64 0, i32 0, i32 0, i32 0, i32 0, i32 0, i32 0
  store i8* %41, i8** %42, align 8
  %43 = or i64 %40, -9223372036854775808
  %44 = getelementptr inbounds %"struct.std::__1::pair.205", %"struct.std::__1::pair.205"* %0, i64 0, i32 1, i32 0, i32 0, i32 0, i32 0, i32 0, i32 2
  store i64 %43, i64* %44, align 8
  %45 = getelementptr inbounds %"struct.std::__1::pair.205", %"struct.std::__1::pair.205"* %0, i64 0, i32 1, i32 0, i32 0, i32 0, i32 0, i32 0, i32 1
  store i64 %32, i64* %45, align 8
  br label %52

46:                                               ; preds = %36
  %47 = trunc i64 %32 to i8
  %48 = bitcast %"class.std::__1::basic_string"* %30 to %"struct.std::__1::basic_string<char, std::__1::char_traits<char>, std::__1::allocator<char> >::__short"*
  %49 = getelementptr inbounds %"struct.std::__1::basic_string<char, std::__1::char_traits<char>, std::__1::allocator<char> >::__short", %"struct.std::__1::basic_string<char, std::__1::char_traits<char>, std::__1::allocator<char> >::__short"* %48, i64 0, i32 1, i32 0
  store i8 %47, i8* %49, align 1
  %50 = bitcast %"class.std::__1::basic_string"* %30 to i8*
  %51 = icmp eq i64 %32, 0
  br i1 %51, label %54, label %52

52:                                               ; preds = %46, %38
  %53 = phi i8* [ %41, %38 ], [ %50, %46 ]
  tail call void @llvm.memcpy.p0i8.p0i8.i64(i8* align 1 %53, i8* align 1 %31, i64 %32, i1 false) #19
  br label %54

54:                                               ; preds = %46, %52
  %55 = phi i8* [ %50, %46 ], [ %53, %52 ]
  %56 = getelementptr inbounds i8, i8* %55, i64 %32
  store i8 0, i8* %56, align 1
  ret void
}

; Function Attrs: nounwind ssp uwtable
define linkonce_odr hidden void @_ZNSt3__14pairIKNS_12basic_stringIcNS_11char_traitsIcEENS_9allocatorIcEEEES6_EC2IRA20_KcRA26_SA_Lb0EEEOT_OT0_(%"struct.std::__1::pair.205"*, [20 x i8]* dereferenceable(20), [26 x i8]* dereferenceable(26)) unnamed_addr #1 comdat align 2 {
  %4 = getelementptr inbounds [20 x i8], [20 x i8]* %1, i64 0, i64 0
  %5 = tail call i64 @strlen(i8* %4) #19
  %6 = icmp ugt i64 %5, -17
  br i1 %6, label %7, label %9

7:                                                ; preds = %3
  %8 = bitcast %"struct.std::__1::pair.205"* %0 to %"class.std::__1::__basic_string_common"*
  tail call void @_ZNKSt3__121__basic_string_commonILb1EE20__throw_length_errorEv(%"class.std::__1::__basic_string_common"* %8) #20
  unreachable

9:                                                ; preds = %3
  %10 = icmp ult i64 %5, 23
  br i1 %10, label %19, label %11

11:                                               ; preds = %9
  %12 = add nuw i64 %5, 16
  %13 = and i64 %12, -16
  %14 = tail call i8* @_Znwm(i64 %13) #18
  %15 = getelementptr inbounds %"struct.std::__1::pair.205", %"struct.std::__1::pair.205"* %0, i64 0, i32 0, i32 0, i32 0, i32 0, i32 0, i32 0, i32 0
  store i8* %14, i8** %15, align 8
  %16 = or i64 %13, -9223372036854775808
  %17 = getelementptr inbounds %"struct.std::__1::pair.205", %"struct.std::__1::pair.205"* %0, i64 0, i32 0, i32 0, i32 0, i32 0, i32 0, i32 0, i32 2
  store i64 %16, i64* %17, align 8
  %18 = getelementptr inbounds %"struct.std::__1::pair.205", %"struct.std::__1::pair.205"* %0, i64 0, i32 0, i32 0, i32 0, i32 0, i32 0, i32 0, i32 1
  store i64 %5, i64* %18, align 8
  br label %25

19:                                               ; preds = %9
  %20 = trunc i64 %5 to i8
  %21 = bitcast %"struct.std::__1::pair.205"* %0 to %"struct.std::__1::basic_string<char, std::__1::char_traits<char>, std::__1::allocator<char> >::__short"*
  %22 = getelementptr inbounds %"struct.std::__1::basic_string<char, std::__1::char_traits<char>, std::__1::allocator<char> >::__short", %"struct.std::__1::basic_string<char, std::__1::char_traits<char>, std::__1::allocator<char> >::__short"* %21, i64 0, i32 1, i32 0
  store i8 %20, i8* %22, align 1
  %23 = bitcast %"struct.std::__1::pair.205"* %0 to i8*
  %24 = icmp eq i64 %5, 0
  br i1 %24, label %27, label %25

25:                                               ; preds = %19, %11
  %26 = phi i8* [ %14, %11 ], [ %23, %19 ]
  tail call void @llvm.memcpy.p0i8.p0i8.i64(i8* align 1 %26, i8* align 1 %4, i64 %5, i1 false) #19
  br label %27

27:                                               ; preds = %19, %25
  %28 = phi i8* [ %23, %19 ], [ %26, %25 ]
  %29 = getelementptr inbounds i8, i8* %28, i64 %5
  store i8 0, i8* %29, align 1
  %30 = getelementptr inbounds %"struct.std::__1::pair.205", %"struct.std::__1::pair.205"* %0, i64 0, i32 1
  %31 = getelementptr inbounds [26 x i8], [26 x i8]* %2, i64 0, i64 0
  %32 = tail call i64 @strlen(i8* %31) #19
  %33 = icmp ugt i64 %32, -17
  br i1 %33, label %34, label %36

34:                                               ; preds = %27
  %35 = bitcast %"class.std::__1::basic_string"* %30 to %"class.std::__1::__basic_string_common"*
  tail call void @_ZNKSt3__121__basic_string_commonILb1EE20__throw_length_errorEv(%"class.std::__1::__basic_string_common"* %35) #20
  unreachable

36:                                               ; preds = %27
  %37 = icmp ult i64 %32, 23
  br i1 %37, label %46, label %38

38:                                               ; preds = %36
  %39 = add nuw i64 %32, 16
  %40 = and i64 %39, -16
  %41 = tail call i8* @_Znwm(i64 %40) #18
  %42 = getelementptr inbounds %"class.std::__1::basic_string", %"class.std::__1::basic_string"* %30, i64 0, i32 0, i32 0, i32 0, i32 0, i32 0, i32 0
  store i8* %41, i8** %42, align 8
  %43 = or i64 %40, -9223372036854775808
  %44 = getelementptr inbounds %"struct.std::__1::pair.205", %"struct.std::__1::pair.205"* %0, i64 0, i32 1, i32 0, i32 0, i32 0, i32 0, i32 0, i32 2
  store i64 %43, i64* %44, align 8
  %45 = getelementptr inbounds %"struct.std::__1::pair.205", %"struct.std::__1::pair.205"* %0, i64 0, i32 1, i32 0, i32 0, i32 0, i32 0, i32 0, i32 1
  store i64 %32, i64* %45, align 8
  br label %52

46:                                               ; preds = %36
  %47 = trunc i64 %32 to i8
  %48 = bitcast %"class.std::__1::basic_string"* %30 to %"struct.std::__1::basic_string<char, std::__1::char_traits<char>, std::__1::allocator<char> >::__short"*
  %49 = getelementptr inbounds %"struct.std::__1::basic_string<char, std::__1::char_traits<char>, std::__1::allocator<char> >::__short", %"struct.std::__1::basic_string<char, std::__1::char_traits<char>, std::__1::allocator<char> >::__short"* %48, i64 0, i32 1, i32 0
  store i8 %47, i8* %49, align 1
  %50 = bitcast %"class.std::__1::basic_string"* %30 to i8*
  %51 = icmp eq i64 %32, 0
  br i1 %51, label %54, label %52

52:                                               ; preds = %46, %38
  %53 = phi i8* [ %41, %38 ], [ %50, %46 ]
  tail call void @llvm.memcpy.p0i8.p0i8.i64(i8* align 1 %53, i8* align 1 %31, i64 %32, i1 false) #19
  br label %54

54:                                               ; preds = %46, %52
  %55 = phi i8* [ %50, %46 ], [ %53, %52 ]
  %56 = getelementptr inbounds i8, i8* %55, i64 %32
  store i8 0, i8* %56, align 1
  ret void
}

; Function Attrs: nounwind ssp uwtable
define linkonce_odr hidden void @_ZNSt3__14pairIKNS_12basic_stringIcNS_11char_traitsIcEENS_9allocatorIcEEEES6_EC2IRA18_KcRA15_SA_Lb0EEEOT_OT0_(%"struct.std::__1::pair.205"*, [18 x i8]* dereferenceable(18), [15 x i8]* dereferenceable(15)) unnamed_addr #1 comdat align 2 {
  %4 = getelementptr inbounds [18 x i8], [18 x i8]* %1, i64 0, i64 0
  %5 = tail call i64 @strlen(i8* %4) #19
  %6 = icmp ugt i64 %5, -17
  br i1 %6, label %7, label %9

7:                                                ; preds = %3
  %8 = bitcast %"struct.std::__1::pair.205"* %0 to %"class.std::__1::__basic_string_common"*
  tail call void @_ZNKSt3__121__basic_string_commonILb1EE20__throw_length_errorEv(%"class.std::__1::__basic_string_common"* %8) #20
  unreachable

9:                                                ; preds = %3
  %10 = icmp ult i64 %5, 23
  br i1 %10, label %19, label %11

11:                                               ; preds = %9
  %12 = add nuw i64 %5, 16
  %13 = and i64 %12, -16
  %14 = tail call i8* @_Znwm(i64 %13) #18
  %15 = getelementptr inbounds %"struct.std::__1::pair.205", %"struct.std::__1::pair.205"* %0, i64 0, i32 0, i32 0, i32 0, i32 0, i32 0, i32 0, i32 0
  store i8* %14, i8** %15, align 8
  %16 = or i64 %13, -9223372036854775808
  %17 = getelementptr inbounds %"struct.std::__1::pair.205", %"struct.std::__1::pair.205"* %0, i64 0, i32 0, i32 0, i32 0, i32 0, i32 0, i32 0, i32 2
  store i64 %16, i64* %17, align 8
  %18 = getelementptr inbounds %"struct.std::__1::pair.205", %"struct.std::__1::pair.205"* %0, i64 0, i32 0, i32 0, i32 0, i32 0, i32 0, i32 0, i32 1
  store i64 %5, i64* %18, align 8
  br label %25

19:                                               ; preds = %9
  %20 = trunc i64 %5 to i8
  %21 = bitcast %"struct.std::__1::pair.205"* %0 to %"struct.std::__1::basic_string<char, std::__1::char_traits<char>, std::__1::allocator<char> >::__short"*
  %22 = getelementptr inbounds %"struct.std::__1::basic_string<char, std::__1::char_traits<char>, std::__1::allocator<char> >::__short", %"struct.std::__1::basic_string<char, std::__1::char_traits<char>, std::__1::allocator<char> >::__short"* %21, i64 0, i32 1, i32 0
  store i8 %20, i8* %22, align 1
  %23 = bitcast %"struct.std::__1::pair.205"* %0 to i8*
  %24 = icmp eq i64 %5, 0
  br i1 %24, label %27, label %25

25:                                               ; preds = %19, %11
  %26 = phi i8* [ %14, %11 ], [ %23, %19 ]
  tail call void @llvm.memcpy.p0i8.p0i8.i64(i8* align 1 %26, i8* align 1 %4, i64 %5, i1 false) #19
  br label %27

27:                                               ; preds = %19, %25
  %28 = phi i8* [ %23, %19 ], [ %26, %25 ]
  %29 = getelementptr inbounds i8, i8* %28, i64 %5
  store i8 0, i8* %29, align 1
  %30 = getelementptr inbounds %"struct.std::__1::pair.205", %"struct.std::__1::pair.205"* %0, i64 0, i32 1
  %31 = getelementptr inbounds [15 x i8], [15 x i8]* %2, i64 0, i64 0
  %32 = tail call i64 @strlen(i8* %31) #19
  %33 = icmp ugt i64 %32, -17
  br i1 %33, label %34, label %36

34:                                               ; preds = %27
  %35 = bitcast %"class.std::__1::basic_string"* %30 to %"class.std::__1::__basic_string_common"*
  tail call void @_ZNKSt3__121__basic_string_commonILb1EE20__throw_length_errorEv(%"class.std::__1::__basic_string_common"* %35) #20
  unreachable

36:                                               ; preds = %27
  %37 = icmp ult i64 %32, 23
  br i1 %37, label %46, label %38

38:                                               ; preds = %36
  %39 = add nuw i64 %32, 16
  %40 = and i64 %39, -16
  %41 = tail call i8* @_Znwm(i64 %40) #18
  %42 = getelementptr inbounds %"class.std::__1::basic_string", %"class.std::__1::basic_string"* %30, i64 0, i32 0, i32 0, i32 0, i32 0, i32 0, i32 0
  store i8* %41, i8** %42, align 8
  %43 = or i64 %40, -9223372036854775808
  %44 = getelementptr inbounds %"struct.std::__1::pair.205", %"struct.std::__1::pair.205"* %0, i64 0, i32 1, i32 0, i32 0, i32 0, i32 0, i32 0, i32 2
  store i64 %43, i64* %44, align 8
  %45 = getelementptr inbounds %"struct.std::__1::pair.205", %"struct.std::__1::pair.205"* %0, i64 0, i32 1, i32 0, i32 0, i32 0, i32 0, i32 0, i32 1
  store i64 %32, i64* %45, align 8
  br label %52

46:                                               ; preds = %36
  %47 = trunc i64 %32 to i8
  %48 = bitcast %"class.std::__1::basic_string"* %30 to %"struct.std::__1::basic_string<char, std::__1::char_traits<char>, std::__1::allocator<char> >::__short"*
  %49 = getelementptr inbounds %"struct.std::__1::basic_string<char, std::__1::char_traits<char>, std::__1::allocator<char> >::__short", %"struct.std::__1::basic_string<char, std::__1::char_traits<char>, std::__1::allocator<char> >::__short"* %48, i64 0, i32 1, i32 0
  store i8 %47, i8* %49, align 1
  %50 = bitcast %"class.std::__1::basic_string"* %30 to i8*
  %51 = icmp eq i64 %32, 0
  br i1 %51, label %54, label %52

52:                                               ; preds = %46, %38
  %53 = phi i8* [ %41, %38 ], [ %50, %46 ]
  tail call void @llvm.memcpy.p0i8.p0i8.i64(i8* align 1 %53, i8* align 1 %31, i64 %32, i1 false) #19
  br label %54

54:                                               ; preds = %46, %52
  %55 = phi i8* [ %50, %46 ], [ %53, %52 ]
  %56 = getelementptr inbounds i8, i8* %55, i64 %32
  store i8 0, i8* %56, align 1
  ret void
}

; Function Attrs: nounwind ssp uwtable
define linkonce_odr hidden void @_ZNSt3__14pairIKNS_12basic_stringIcNS_11char_traitsIcEENS_9allocatorIcEEEES6_EC2IRA21_KcRA20_SA_Lb0EEEOT_OT0_(%"struct.std::__1::pair.205"*, [21 x i8]* dereferenceable(21), [20 x i8]* dereferenceable(20)) unnamed_addr #1 comdat align 2 {
  %4 = getelementptr inbounds [21 x i8], [21 x i8]* %1, i64 0, i64 0
  %5 = tail call i64 @strlen(i8* %4) #19
  %6 = icmp ugt i64 %5, -17
  br i1 %6, label %7, label %9

7:                                                ; preds = %3
  %8 = bitcast %"struct.std::__1::pair.205"* %0 to %"class.std::__1::__basic_string_common"*
  tail call void @_ZNKSt3__121__basic_string_commonILb1EE20__throw_length_errorEv(%"class.std::__1::__basic_string_common"* %8) #20
  unreachable

9:                                                ; preds = %3
  %10 = icmp ult i64 %5, 23
  br i1 %10, label %19, label %11

11:                                               ; preds = %9
  %12 = add nuw i64 %5, 16
  %13 = and i64 %12, -16
  %14 = tail call i8* @_Znwm(i64 %13) #18
  %15 = getelementptr inbounds %"struct.std::__1::pair.205", %"struct.std::__1::pair.205"* %0, i64 0, i32 0, i32 0, i32 0, i32 0, i32 0, i32 0, i32 0
  store i8* %14, i8** %15, align 8
  %16 = or i64 %13, -9223372036854775808
  %17 = getelementptr inbounds %"struct.std::__1::pair.205", %"struct.std::__1::pair.205"* %0, i64 0, i32 0, i32 0, i32 0, i32 0, i32 0, i32 0, i32 2
  store i64 %16, i64* %17, align 8
  %18 = getelementptr inbounds %"struct.std::__1::pair.205", %"struct.std::__1::pair.205"* %0, i64 0, i32 0, i32 0, i32 0, i32 0, i32 0, i32 0, i32 1
  store i64 %5, i64* %18, align 8
  br label %25

19:                                               ; preds = %9
  %20 = trunc i64 %5 to i8
  %21 = bitcast %"struct.std::__1::pair.205"* %0 to %"struct.std::__1::basic_string<char, std::__1::char_traits<char>, std::__1::allocator<char> >::__short"*
  %22 = getelementptr inbounds %"struct.std::__1::basic_string<char, std::__1::char_traits<char>, std::__1::allocator<char> >::__short", %"struct.std::__1::basic_string<char, std::__1::char_traits<char>, std::__1::allocator<char> >::__short"* %21, i64 0, i32 1, i32 0
  store i8 %20, i8* %22, align 1
  %23 = bitcast %"struct.std::__1::pair.205"* %0 to i8*
  %24 = icmp eq i64 %5, 0
  br i1 %24, label %27, label %25

25:                                               ; preds = %19, %11
  %26 = phi i8* [ %14, %11 ], [ %23, %19 ]
  tail call void @llvm.memcpy.p0i8.p0i8.i64(i8* align 1 %26, i8* align 1 %4, i64 %5, i1 false) #19
  br label %27

27:                                               ; preds = %19, %25
  %28 = phi i8* [ %23, %19 ], [ %26, %25 ]
  %29 = getelementptr inbounds i8, i8* %28, i64 %5
  store i8 0, i8* %29, align 1
  %30 = getelementptr inbounds %"struct.std::__1::pair.205", %"struct.std::__1::pair.205"* %0, i64 0, i32 1
  %31 = getelementptr inbounds [20 x i8], [20 x i8]* %2, i64 0, i64 0
  %32 = tail call i64 @strlen(i8* %31) #19
  %33 = icmp ugt i64 %32, -17
  br i1 %33, label %34, label %36

34:                                               ; preds = %27
  %35 = bitcast %"class.std::__1::basic_string"* %30 to %"class.std::__1::__basic_string_common"*
  tail call void @_ZNKSt3__121__basic_string_commonILb1EE20__throw_length_errorEv(%"class.std::__1::__basic_string_common"* %35) #20
  unreachable

36:                                               ; preds = %27
  %37 = icmp ult i64 %32, 23
  br i1 %37, label %46, label %38

38:                                               ; preds = %36
  %39 = add nuw i64 %32, 16
  %40 = and i64 %39, -16
  %41 = tail call i8* @_Znwm(i64 %40) #18
  %42 = getelementptr inbounds %"class.std::__1::basic_string", %"class.std::__1::basic_string"* %30, i64 0, i32 0, i32 0, i32 0, i32 0, i32 0, i32 0
  store i8* %41, i8** %42, align 8
  %43 = or i64 %40, -9223372036854775808
  %44 = getelementptr inbounds %"struct.std::__1::pair.205", %"struct.std::__1::pair.205"* %0, i64 0, i32 1, i32 0, i32 0, i32 0, i32 0, i32 0, i32 2
  store i64 %43, i64* %44, align 8
  %45 = getelementptr inbounds %"struct.std::__1::pair.205", %"struct.std::__1::pair.205"* %0, i64 0, i32 1, i32 0, i32 0, i32 0, i32 0, i32 0, i32 1
  store i64 %32, i64* %45, align 8
  br label %52

46:                                               ; preds = %36
  %47 = trunc i64 %32 to i8
  %48 = bitcast %"class.std::__1::basic_string"* %30 to %"struct.std::__1::basic_string<char, std::__1::char_traits<char>, std::__1::allocator<char> >::__short"*
  %49 = getelementptr inbounds %"struct.std::__1::basic_string<char, std::__1::char_traits<char>, std::__1::allocator<char> >::__short", %"struct.std::__1::basic_string<char, std::__1::char_traits<char>, std::__1::allocator<char> >::__short"* %48, i64 0, i32 1, i32 0
  store i8 %47, i8* %49, align 1
  %50 = bitcast %"class.std::__1::basic_string"* %30 to i8*
  %51 = icmp eq i64 %32, 0
  br i1 %51, label %54, label %52

52:                                               ; preds = %46, %38
  %53 = phi i8* [ %41, %38 ], [ %50, %46 ]
  tail call void @llvm.memcpy.p0i8.p0i8.i64(i8* align 1 %53, i8* align 1 %31, i64 %32, i1 false) #19
  br label %54

54:                                               ; preds = %46, %52
  %55 = phi i8* [ %50, %46 ], [ %53, %52 ]
  %56 = getelementptr inbounds i8, i8* %55, i64 %32
  store i8 0, i8* %56, align 1
  ret void
}

; Function Attrs: nounwind ssp uwtable
define linkonce_odr hidden void @_ZNSt3__14pairIKNS_12basic_stringIcNS_11char_traitsIcEENS_9allocatorIcEEEES6_EC2IRA30_KcRA15_SA_Lb0EEEOT_OT0_(%"struct.std::__1::pair.205"*, [30 x i8]* dereferenceable(30), [15 x i8]* dereferenceable(15)) unnamed_addr #1 comdat align 2 {
  %4 = getelementptr inbounds [30 x i8], [30 x i8]* %1, i64 0, i64 0
  %5 = tail call i64 @strlen(i8* %4) #19
  %6 = icmp ugt i64 %5, -17
  br i1 %6, label %7, label %9

7:                                                ; preds = %3
  %8 = bitcast %"struct.std::__1::pair.205"* %0 to %"class.std::__1::__basic_string_common"*
  tail call void @_ZNKSt3__121__basic_string_commonILb1EE20__throw_length_errorEv(%"class.std::__1::__basic_string_common"* %8) #20
  unreachable

9:                                                ; preds = %3
  %10 = icmp ult i64 %5, 23
  br i1 %10, label %19, label %11

11:                                               ; preds = %9
  %12 = add nuw i64 %5, 16
  %13 = and i64 %12, -16
  %14 = tail call i8* @_Znwm(i64 %13) #18
  %15 = getelementptr inbounds %"struct.std::__1::pair.205", %"struct.std::__1::pair.205"* %0, i64 0, i32 0, i32 0, i32 0, i32 0, i32 0, i32 0, i32 0
  store i8* %14, i8** %15, align 8
  %16 = or i64 %13, -9223372036854775808
  %17 = getelementptr inbounds %"struct.std::__1::pair.205", %"struct.std::__1::pair.205"* %0, i64 0, i32 0, i32 0, i32 0, i32 0, i32 0, i32 0, i32 2
  store i64 %16, i64* %17, align 8
  %18 = getelementptr inbounds %"struct.std::__1::pair.205", %"struct.std::__1::pair.205"* %0, i64 0, i32 0, i32 0, i32 0, i32 0, i32 0, i32 0, i32 1
  store i64 %5, i64* %18, align 8
  br label %25

19:                                               ; preds = %9
  %20 = trunc i64 %5 to i8
  %21 = bitcast %"struct.std::__1::pair.205"* %0 to %"struct.std::__1::basic_string<char, std::__1::char_traits<char>, std::__1::allocator<char> >::__short"*
  %22 = getelementptr inbounds %"struct.std::__1::basic_string<char, std::__1::char_traits<char>, std::__1::allocator<char> >::__short", %"struct.std::__1::basic_string<char, std::__1::char_traits<char>, std::__1::allocator<char> >::__short"* %21, i64 0, i32 1, i32 0
  store i8 %20, i8* %22, align 1
  %23 = bitcast %"struct.std::__1::pair.205"* %0 to i8*
  %24 = icmp eq i64 %5, 0
  br i1 %24, label %27, label %25

25:                                               ; preds = %19, %11
  %26 = phi i8* [ %14, %11 ], [ %23, %19 ]
  tail call void @llvm.memcpy.p0i8.p0i8.i64(i8* align 1 %26, i8* align 1 %4, i64 %5, i1 false) #19
  br label %27

27:                                               ; preds = %19, %25
  %28 = phi i8* [ %23, %19 ], [ %26, %25 ]
  %29 = getelementptr inbounds i8, i8* %28, i64 %5
  store i8 0, i8* %29, align 1
  %30 = getelementptr inbounds %"struct.std::__1::pair.205", %"struct.std::__1::pair.205"* %0, i64 0, i32 1
  %31 = getelementptr inbounds [15 x i8], [15 x i8]* %2, i64 0, i64 0
  %32 = tail call i64 @strlen(i8* %31) #19
  %33 = icmp ugt i64 %32, -17
  br i1 %33, label %34, label %36

34:                                               ; preds = %27
  %35 = bitcast %"class.std::__1::basic_string"* %30 to %"class.std::__1::__basic_string_common"*
  tail call void @_ZNKSt3__121__basic_string_commonILb1EE20__throw_length_errorEv(%"class.std::__1::__basic_string_common"* %35) #20
  unreachable

36:                                               ; preds = %27
  %37 = icmp ult i64 %32, 23
  br i1 %37, label %46, label %38

38:                                               ; preds = %36
  %39 = add nuw i64 %32, 16
  %40 = and i64 %39, -16
  %41 = tail call i8* @_Znwm(i64 %40) #18
  %42 = getelementptr inbounds %"class.std::__1::basic_string", %"class.std::__1::basic_string"* %30, i64 0, i32 0, i32 0, i32 0, i32 0, i32 0, i32 0
  store i8* %41, i8** %42, align 8
  %43 = or i64 %40, -9223372036854775808
  %44 = getelementptr inbounds %"struct.std::__1::pair.205", %"struct.std::__1::pair.205"* %0, i64 0, i32 1, i32 0, i32 0, i32 0, i32 0, i32 0, i32 2
  store i64 %43, i64* %44, align 8
  %45 = getelementptr inbounds %"struct.std::__1::pair.205", %"struct.std::__1::pair.205"* %0, i64 0, i32 1, i32 0, i32 0, i32 0, i32 0, i32 0, i32 1
  store i64 %32, i64* %45, align 8
  br label %52

46:                                               ; preds = %36
  %47 = trunc i64 %32 to i8
  %48 = bitcast %"class.std::__1::basic_string"* %30 to %"struct.std::__1::basic_string<char, std::__1::char_traits<char>, std::__1::allocator<char> >::__short"*
  %49 = getelementptr inbounds %"struct.std::__1::basic_string<char, std::__1::char_traits<char>, std::__1::allocator<char> >::__short", %"struct.std::__1::basic_string<char, std::__1::char_traits<char>, std::__1::allocator<char> >::__short"* %48, i64 0, i32 1, i32 0
  store i8 %47, i8* %49, align 1
  %50 = bitcast %"class.std::__1::basic_string"* %30 to i8*
  %51 = icmp eq i64 %32, 0
  br i1 %51, label %54, label %52

52:                                               ; preds = %46, %38
  %53 = phi i8* [ %41, %38 ], [ %50, %46 ]
  tail call void @llvm.memcpy.p0i8.p0i8.i64(i8* align 1 %53, i8* align 1 %31, i64 %32, i1 false) #19
  br label %54

54:                                               ; preds = %46, %52
  %55 = phi i8* [ %50, %46 ], [ %53, %52 ]
  %56 = getelementptr inbounds i8, i8* %55, i64 %32
  store i8 0, i8* %56, align 1
  ret void
}

; Function Attrs: nounwind ssp uwtable
define linkonce_odr hidden void @_ZNSt3__14pairIKNS_12basic_stringIcNS_11char_traitsIcEENS_9allocatorIcEEEES6_EC2IRA33_KcRA27_SA_Lb0EEEOT_OT0_(%"struct.std::__1::pair.205"*, [33 x i8]* dereferenceable(33), [27 x i8]* dereferenceable(27)) unnamed_addr #1 comdat align 2 {
  %4 = getelementptr inbounds [33 x i8], [33 x i8]* %1, i64 0, i64 0
  %5 = tail call i64 @strlen(i8* %4) #19
  %6 = icmp ugt i64 %5, -17
  br i1 %6, label %7, label %9

7:                                                ; preds = %3
  %8 = bitcast %"struct.std::__1::pair.205"* %0 to %"class.std::__1::__basic_string_common"*
  tail call void @_ZNKSt3__121__basic_string_commonILb1EE20__throw_length_errorEv(%"class.std::__1::__basic_string_common"* %8) #20
  unreachable

9:                                                ; preds = %3
  %10 = icmp ult i64 %5, 23
  br i1 %10, label %19, label %11

11:                                               ; preds = %9
  %12 = add nuw i64 %5, 16
  %13 = and i64 %12, -16
  %14 = tail call i8* @_Znwm(i64 %13) #18
  %15 = getelementptr inbounds %"struct.std::__1::pair.205", %"struct.std::__1::pair.205"* %0, i64 0, i32 0, i32 0, i32 0, i32 0, i32 0, i32 0, i32 0
  store i8* %14, i8** %15, align 8
  %16 = or i64 %13, -9223372036854775808
  %17 = getelementptr inbounds %"struct.std::__1::pair.205", %"struct.std::__1::pair.205"* %0, i64 0, i32 0, i32 0, i32 0, i32 0, i32 0, i32 0, i32 2
  store i64 %16, i64* %17, align 8
  %18 = getelementptr inbounds %"struct.std::__1::pair.205", %"struct.std::__1::pair.205"* %0, i64 0, i32 0, i32 0, i32 0, i32 0, i32 0, i32 0, i32 1
  store i64 %5, i64* %18, align 8
  br label %25

19:                                               ; preds = %9
  %20 = trunc i64 %5 to i8
  %21 = bitcast %"struct.std::__1::pair.205"* %0 to %"struct.std::__1::basic_string<char, std::__1::char_traits<char>, std::__1::allocator<char> >::__short"*
  %22 = getelementptr inbounds %"struct.std::__1::basic_string<char, std::__1::char_traits<char>, std::__1::allocator<char> >::__short", %"struct.std::__1::basic_string<char, std::__1::char_traits<char>, std::__1::allocator<char> >::__short"* %21, i64 0, i32 1, i32 0
  store i8 %20, i8* %22, align 1
  %23 = bitcast %"struct.std::__1::pair.205"* %0 to i8*
  %24 = icmp eq i64 %5, 0
  br i1 %24, label %27, label %25

25:                                               ; preds = %19, %11
  %26 = phi i8* [ %14, %11 ], [ %23, %19 ]
  tail call void @llvm.memcpy.p0i8.p0i8.i64(i8* align 1 %26, i8* align 1 %4, i64 %5, i1 false) #19
  br label %27

27:                                               ; preds = %19, %25
  %28 = phi i8* [ %23, %19 ], [ %26, %25 ]
  %29 = getelementptr inbounds i8, i8* %28, i64 %5
  store i8 0, i8* %29, align 1
  %30 = getelementptr inbounds %"struct.std::__1::pair.205", %"struct.std::__1::pair.205"* %0, i64 0, i32 1
  %31 = getelementptr inbounds [27 x i8], [27 x i8]* %2, i64 0, i64 0
  %32 = tail call i64 @strlen(i8* %31) #19
  %33 = icmp ugt i64 %32, -17
  br i1 %33, label %34, label %36

34:                                               ; preds = %27
  %35 = bitcast %"class.std::__1::basic_string"* %30 to %"class.std::__1::__basic_string_common"*
  tail call void @_ZNKSt3__121__basic_string_commonILb1EE20__throw_length_errorEv(%"class.std::__1::__basic_string_common"* %35) #20
  unreachable

36:                                               ; preds = %27
  %37 = icmp ult i64 %32, 23
  br i1 %37, label %46, label %38

38:                                               ; preds = %36
  %39 = add nuw i64 %32, 16
  %40 = and i64 %39, -16
  %41 = tail call i8* @_Znwm(i64 %40) #18
  %42 = getelementptr inbounds %"class.std::__1::basic_string", %"class.std::__1::basic_string"* %30, i64 0, i32 0, i32 0, i32 0, i32 0, i32 0, i32 0
  store i8* %41, i8** %42, align 8
  %43 = or i64 %40, -9223372036854775808
  %44 = getelementptr inbounds %"struct.std::__1::pair.205", %"struct.std::__1::pair.205"* %0, i64 0, i32 1, i32 0, i32 0, i32 0, i32 0, i32 0, i32 2
  store i64 %43, i64* %44, align 8
  %45 = getelementptr inbounds %"struct.std::__1::pair.205", %"struct.std::__1::pair.205"* %0, i64 0, i32 1, i32 0, i32 0, i32 0, i32 0, i32 0, i32 1
  store i64 %32, i64* %45, align 8
  br label %52

46:                                               ; preds = %36
  %47 = trunc i64 %32 to i8
  %48 = bitcast %"class.std::__1::basic_string"* %30 to %"struct.std::__1::basic_string<char, std::__1::char_traits<char>, std::__1::allocator<char> >::__short"*
  %49 = getelementptr inbounds %"struct.std::__1::basic_string<char, std::__1::char_traits<char>, std::__1::allocator<char> >::__short", %"struct.std::__1::basic_string<char, std::__1::char_traits<char>, std::__1::allocator<char> >::__short"* %48, i64 0, i32 1, i32 0
  store i8 %47, i8* %49, align 1
  %50 = bitcast %"class.std::__1::basic_string"* %30 to i8*
  %51 = icmp eq i64 %32, 0
  br i1 %51, label %54, label %52

52:                                               ; preds = %46, %38
  %53 = phi i8* [ %41, %38 ], [ %50, %46 ]
  tail call void @llvm.memcpy.p0i8.p0i8.i64(i8* align 1 %53, i8* align 1 %31, i64 %32, i1 false) #19
  br label %54

54:                                               ; preds = %46, %52
  %55 = phi i8* [ %50, %46 ], [ %53, %52 ]
  %56 = getelementptr inbounds i8, i8* %55, i64 %32
  store i8 0, i8* %56, align 1
  ret void
}

; Function Attrs: nounwind ssp uwtable
define linkonce_odr hidden void @_ZNSt3__14pairIKNS_12basic_stringIcNS_11char_traitsIcEENS_9allocatorIcEEEES6_EC2IRA30_KcRA26_SA_Lb0EEEOT_OT0_(%"struct.std::__1::pair.205"*, [30 x i8]* dereferenceable(30), [26 x i8]* dereferenceable(26)) unnamed_addr #1 comdat align 2 {
  %4 = getelementptr inbounds [30 x i8], [30 x i8]* %1, i64 0, i64 0
  %5 = tail call i64 @strlen(i8* %4) #19
  %6 = icmp ugt i64 %5, -17
  br i1 %6, label %7, label %9

7:                                                ; preds = %3
  %8 = bitcast %"struct.std::__1::pair.205"* %0 to %"class.std::__1::__basic_string_common"*
  tail call void @_ZNKSt3__121__basic_string_commonILb1EE20__throw_length_errorEv(%"class.std::__1::__basic_string_common"* %8) #20
  unreachable

9:                                                ; preds = %3
  %10 = icmp ult i64 %5, 23
  br i1 %10, label %19, label %11

11:                                               ; preds = %9
  %12 = add nuw i64 %5, 16
  %13 = and i64 %12, -16
  %14 = tail call i8* @_Znwm(i64 %13) #18
  %15 = getelementptr inbounds %"struct.std::__1::pair.205", %"struct.std::__1::pair.205"* %0, i64 0, i32 0, i32 0, i32 0, i32 0, i32 0, i32 0, i32 0
  store i8* %14, i8** %15, align 8
  %16 = or i64 %13, -9223372036854775808
  %17 = getelementptr inbounds %"struct.std::__1::pair.205", %"struct.std::__1::pair.205"* %0, i64 0, i32 0, i32 0, i32 0, i32 0, i32 0, i32 0, i32 2
  store i64 %16, i64* %17, align 8
  %18 = getelementptr inbounds %"struct.std::__1::pair.205", %"struct.std::__1::pair.205"* %0, i64 0, i32 0, i32 0, i32 0, i32 0, i32 0, i32 0, i32 1
  store i64 %5, i64* %18, align 8
  br label %25

19:                                               ; preds = %9
  %20 = trunc i64 %5 to i8
  %21 = bitcast %"struct.std::__1::pair.205"* %0 to %"struct.std::__1::basic_string<char, std::__1::char_traits<char>, std::__1::allocator<char> >::__short"*
  %22 = getelementptr inbounds %"struct.std::__1::basic_string<char, std::__1::char_traits<char>, std::__1::allocator<char> >::__short", %"struct.std::__1::basic_string<char, std::__1::char_traits<char>, std::__1::allocator<char> >::__short"* %21, i64 0, i32 1, i32 0
  store i8 %20, i8* %22, align 1
  %23 = bitcast %"struct.std::__1::pair.205"* %0 to i8*
  %24 = icmp eq i64 %5, 0
  br i1 %24, label %27, label %25

25:                                               ; preds = %19, %11
  %26 = phi i8* [ %14, %11 ], [ %23, %19 ]
  tail call void @llvm.memcpy.p0i8.p0i8.i64(i8* align 1 %26, i8* align 1 %4, i64 %5, i1 false) #19
  br label %27

27:                                               ; preds = %19, %25
  %28 = phi i8* [ %23, %19 ], [ %26, %25 ]
  %29 = getelementptr inbounds i8, i8* %28, i64 %5
  store i8 0, i8* %29, align 1
  %30 = getelementptr inbounds %"struct.std::__1::pair.205", %"struct.std::__1::pair.205"* %0, i64 0, i32 1
  %31 = getelementptr inbounds [26 x i8], [26 x i8]* %2, i64 0, i64 0
  %32 = tail call i64 @strlen(i8* %31) #19
  %33 = icmp ugt i64 %32, -17
  br i1 %33, label %34, label %36

34:                                               ; preds = %27
  %35 = bitcast %"class.std::__1::basic_string"* %30 to %"class.std::__1::__basic_string_common"*
  tail call void @_ZNKSt3__121__basic_string_commonILb1EE20__throw_length_errorEv(%"class.std::__1::__basic_string_common"* %35) #20
  unreachable

36:                                               ; preds = %27
  %37 = icmp ult i64 %32, 23
  br i1 %37, label %46, label %38

38:                                               ; preds = %36
  %39 = add nuw i64 %32, 16
  %40 = and i64 %39, -16
  %41 = tail call i8* @_Znwm(i64 %40) #18
  %42 = getelementptr inbounds %"class.std::__1::basic_string", %"class.std::__1::basic_string"* %30, i64 0, i32 0, i32 0, i32 0, i32 0, i32 0, i32 0
  store i8* %41, i8** %42, align 8
  %43 = or i64 %40, -9223372036854775808
  %44 = getelementptr inbounds %"struct.std::__1::pair.205", %"struct.std::__1::pair.205"* %0, i64 0, i32 1, i32 0, i32 0, i32 0, i32 0, i32 0, i32 2
  store i64 %43, i64* %44, align 8
  %45 = getelementptr inbounds %"struct.std::__1::pair.205", %"struct.std::__1::pair.205"* %0, i64 0, i32 1, i32 0, i32 0, i32 0, i32 0, i32 0, i32 1
  store i64 %32, i64* %45, align 8
  br label %52

46:                                               ; preds = %36
  %47 = trunc i64 %32 to i8
  %48 = bitcast %"class.std::__1::basic_string"* %30 to %"struct.std::__1::basic_string<char, std::__1::char_traits<char>, std::__1::allocator<char> >::__short"*
  %49 = getelementptr inbounds %"struct.std::__1::basic_string<char, std::__1::char_traits<char>, std::__1::allocator<char> >::__short", %"struct.std::__1::basic_string<char, std::__1::char_traits<char>, std::__1::allocator<char> >::__short"* %48, i64 0, i32 1, i32 0
  store i8 %47, i8* %49, align 1
  %50 = bitcast %"class.std::__1::basic_string"* %30 to i8*
  %51 = icmp eq i64 %32, 0
  br i1 %51, label %54, label %52

52:                                               ; preds = %46, %38
  %53 = phi i8* [ %41, %38 ], [ %50, %46 ]
  tail call void @llvm.memcpy.p0i8.p0i8.i64(i8* align 1 %53, i8* align 1 %31, i64 %32, i1 false) #19
  br label %54

54:                                               ; preds = %46, %52
  %55 = phi i8* [ %50, %46 ], [ %53, %52 ]
  %56 = getelementptr inbounds i8, i8* %55, i64 %32
  store i8 0, i8* %56, align 1
  ret void
}

; Function Attrs: nounwind ssp uwtable
define linkonce_odr hidden void @_ZNSt3__14pairIKNS_12basic_stringIcNS_11char_traitsIcEENS_9allocatorIcEEEES6_EC2IRA23_KcRA15_SA_Lb0EEEOT_OT0_(%"struct.std::__1::pair.205"*, [23 x i8]* dereferenceable(23), [15 x i8]* dereferenceable(15)) unnamed_addr #1 comdat align 2 {
  %4 = getelementptr inbounds [23 x i8], [23 x i8]* %1, i64 0, i64 0
  %5 = tail call i64 @strlen(i8* %4) #19
  %6 = icmp ugt i64 %5, -17
  br i1 %6, label %7, label %9

7:                                                ; preds = %3
  %8 = bitcast %"struct.std::__1::pair.205"* %0 to %"class.std::__1::__basic_string_common"*
  tail call void @_ZNKSt3__121__basic_string_commonILb1EE20__throw_length_errorEv(%"class.std::__1::__basic_string_common"* %8) #20
  unreachable

9:                                                ; preds = %3
  %10 = icmp ult i64 %5, 23
  br i1 %10, label %19, label %11

11:                                               ; preds = %9
  %12 = add nuw i64 %5, 16
  %13 = and i64 %12, -16
  %14 = tail call i8* @_Znwm(i64 %13) #18
  %15 = getelementptr inbounds %"struct.std::__1::pair.205", %"struct.std::__1::pair.205"* %0, i64 0, i32 0, i32 0, i32 0, i32 0, i32 0, i32 0, i32 0
  store i8* %14, i8** %15, align 8
  %16 = or i64 %13, -9223372036854775808
  %17 = getelementptr inbounds %"struct.std::__1::pair.205", %"struct.std::__1::pair.205"* %0, i64 0, i32 0, i32 0, i32 0, i32 0, i32 0, i32 0, i32 2
  store i64 %16, i64* %17, align 8
  %18 = getelementptr inbounds %"struct.std::__1::pair.205", %"struct.std::__1::pair.205"* %0, i64 0, i32 0, i32 0, i32 0, i32 0, i32 0, i32 0, i32 1
  store i64 %5, i64* %18, align 8
  br label %25

19:                                               ; preds = %9
  %20 = trunc i64 %5 to i8
  %21 = bitcast %"struct.std::__1::pair.205"* %0 to %"struct.std::__1::basic_string<char, std::__1::char_traits<char>, std::__1::allocator<char> >::__short"*
  %22 = getelementptr inbounds %"struct.std::__1::basic_string<char, std::__1::char_traits<char>, std::__1::allocator<char> >::__short", %"struct.std::__1::basic_string<char, std::__1::char_traits<char>, std::__1::allocator<char> >::__short"* %21, i64 0, i32 1, i32 0
  store i8 %20, i8* %22, align 1
  %23 = bitcast %"struct.std::__1::pair.205"* %0 to i8*
  %24 = icmp eq i64 %5, 0
  br i1 %24, label %27, label %25

25:                                               ; preds = %19, %11
  %26 = phi i8* [ %14, %11 ], [ %23, %19 ]
  tail call void @llvm.memcpy.p0i8.p0i8.i64(i8* align 1 %26, i8* align 1 %4, i64 %5, i1 false) #19
  br label %27

27:                                               ; preds = %19, %25
  %28 = phi i8* [ %23, %19 ], [ %26, %25 ]
  %29 = getelementptr inbounds i8, i8* %28, i64 %5
  store i8 0, i8* %29, align 1
  %30 = getelementptr inbounds %"struct.std::__1::pair.205", %"struct.std::__1::pair.205"* %0, i64 0, i32 1
  %31 = getelementptr inbounds [15 x i8], [15 x i8]* %2, i64 0, i64 0
  %32 = tail call i64 @strlen(i8* %31) #19
  %33 = icmp ugt i64 %32, -17
  br i1 %33, label %34, label %36

34:                                               ; preds = %27
  %35 = bitcast %"class.std::__1::basic_string"* %30 to %"class.std::__1::__basic_string_common"*
  tail call void @_ZNKSt3__121__basic_string_commonILb1EE20__throw_length_errorEv(%"class.std::__1::__basic_string_common"* %35) #20
  unreachable

36:                                               ; preds = %27
  %37 = icmp ult i64 %32, 23
  br i1 %37, label %46, label %38

38:                                               ; preds = %36
  %39 = add nuw i64 %32, 16
  %40 = and i64 %39, -16
  %41 = tail call i8* @_Znwm(i64 %40) #18
  %42 = getelementptr inbounds %"class.std::__1::basic_string", %"class.std::__1::basic_string"* %30, i64 0, i32 0, i32 0, i32 0, i32 0, i32 0, i32 0
  store i8* %41, i8** %42, align 8
  %43 = or i64 %40, -9223372036854775808
  %44 = getelementptr inbounds %"struct.std::__1::pair.205", %"struct.std::__1::pair.205"* %0, i64 0, i32 1, i32 0, i32 0, i32 0, i32 0, i32 0, i32 2
  store i64 %43, i64* %44, align 8
  %45 = getelementptr inbounds %"struct.std::__1::pair.205", %"struct.std::__1::pair.205"* %0, i64 0, i32 1, i32 0, i32 0, i32 0, i32 0, i32 0, i32 1
  store i64 %32, i64* %45, align 8
  br label %52

46:                                               ; preds = %36
  %47 = trunc i64 %32 to i8
  %48 = bitcast %"class.std::__1::basic_string"* %30 to %"struct.std::__1::basic_string<char, std::__1::char_traits<char>, std::__1::allocator<char> >::__short"*
  %49 = getelementptr inbounds %"struct.std::__1::basic_string<char, std::__1::char_traits<char>, std::__1::allocator<char> >::__short", %"struct.std::__1::basic_string<char, std::__1::char_traits<char>, std::__1::allocator<char> >::__short"* %48, i64 0, i32 1, i32 0
  store i8 %47, i8* %49, align 1
  %50 = bitcast %"class.std::__1::basic_string"* %30 to i8*
  %51 = icmp eq i64 %32, 0
  br i1 %51, label %54, label %52

52:                                               ; preds = %46, %38
  %53 = phi i8* [ %41, %38 ], [ %50, %46 ]
  tail call void @llvm.memcpy.p0i8.p0i8.i64(i8* align 1 %53, i8* align 1 %31, i64 %32, i1 false) #19
  br label %54

54:                                               ; preds = %46, %52
  %55 = phi i8* [ %50, %46 ], [ %53, %52 ]
  %56 = getelementptr inbounds i8, i8* %55, i64 %32
  store i8 0, i8* %56, align 1
  ret void
}

; Function Attrs: nounwind ssp uwtable
define linkonce_odr hidden void @_ZNSt3__14pairIKNS_12basic_stringIcNS_11char_traitsIcEENS_9allocatorIcEEEES6_EC2IRA26_KcRA27_SA_Lb0EEEOT_OT0_(%"struct.std::__1::pair.205"*, [26 x i8]* dereferenceable(26), [27 x i8]* dereferenceable(27)) unnamed_addr #1 comdat align 2 {
  %4 = getelementptr inbounds [26 x i8], [26 x i8]* %1, i64 0, i64 0
  %5 = tail call i64 @strlen(i8* %4) #19
  %6 = icmp ugt i64 %5, -17
  br i1 %6, label %7, label %9

7:                                                ; preds = %3
  %8 = bitcast %"struct.std::__1::pair.205"* %0 to %"class.std::__1::__basic_string_common"*
  tail call void @_ZNKSt3__121__basic_string_commonILb1EE20__throw_length_errorEv(%"class.std::__1::__basic_string_common"* %8) #20
  unreachable

9:                                                ; preds = %3
  %10 = icmp ult i64 %5, 23
  br i1 %10, label %19, label %11

11:                                               ; preds = %9
  %12 = add nuw i64 %5, 16
  %13 = and i64 %12, -16
  %14 = tail call i8* @_Znwm(i64 %13) #18
  %15 = getelementptr inbounds %"struct.std::__1::pair.205", %"struct.std::__1::pair.205"* %0, i64 0, i32 0, i32 0, i32 0, i32 0, i32 0, i32 0, i32 0
  store i8* %14, i8** %15, align 8
  %16 = or i64 %13, -9223372036854775808
  %17 = getelementptr inbounds %"struct.std::__1::pair.205", %"struct.std::__1::pair.205"* %0, i64 0, i32 0, i32 0, i32 0, i32 0, i32 0, i32 0, i32 2
  store i64 %16, i64* %17, align 8
  %18 = getelementptr inbounds %"struct.std::__1::pair.205", %"struct.std::__1::pair.205"* %0, i64 0, i32 0, i32 0, i32 0, i32 0, i32 0, i32 0, i32 1
  store i64 %5, i64* %18, align 8
  br label %25

19:                                               ; preds = %9
  %20 = trunc i64 %5 to i8
  %21 = bitcast %"struct.std::__1::pair.205"* %0 to %"struct.std::__1::basic_string<char, std::__1::char_traits<char>, std::__1::allocator<char> >::__short"*
  %22 = getelementptr inbounds %"struct.std::__1::basic_string<char, std::__1::char_traits<char>, std::__1::allocator<char> >::__short", %"struct.std::__1::basic_string<char, std::__1::char_traits<char>, std::__1::allocator<char> >::__short"* %21, i64 0, i32 1, i32 0
  store i8 %20, i8* %22, align 1
  %23 = bitcast %"struct.std::__1::pair.205"* %0 to i8*
  %24 = icmp eq i64 %5, 0
  br i1 %24, label %27, label %25

25:                                               ; preds = %19, %11
  %26 = phi i8* [ %14, %11 ], [ %23, %19 ]
  tail call void @llvm.memcpy.p0i8.p0i8.i64(i8* align 1 %26, i8* align 1 %4, i64 %5, i1 false) #19
  br label %27

27:                                               ; preds = %19, %25
  %28 = phi i8* [ %23, %19 ], [ %26, %25 ]
  %29 = getelementptr inbounds i8, i8* %28, i64 %5
  store i8 0, i8* %29, align 1
  %30 = getelementptr inbounds %"struct.std::__1::pair.205", %"struct.std::__1::pair.205"* %0, i64 0, i32 1
  %31 = getelementptr inbounds [27 x i8], [27 x i8]* %2, i64 0, i64 0
  %32 = tail call i64 @strlen(i8* %31) #19
  %33 = icmp ugt i64 %32, -17
  br i1 %33, label %34, label %36

34:                                               ; preds = %27
  %35 = bitcast %"class.std::__1::basic_string"* %30 to %"class.std::__1::__basic_string_common"*
  tail call void @_ZNKSt3__121__basic_string_commonILb1EE20__throw_length_errorEv(%"class.std::__1::__basic_string_common"* %35) #20
  unreachable

36:                                               ; preds = %27
  %37 = icmp ult i64 %32, 23
  br i1 %37, label %46, label %38

38:                                               ; preds = %36
  %39 = add nuw i64 %32, 16
  %40 = and i64 %39, -16
  %41 = tail call i8* @_Znwm(i64 %40) #18
  %42 = getelementptr inbounds %"class.std::__1::basic_string", %"class.std::__1::basic_string"* %30, i64 0, i32 0, i32 0, i32 0, i32 0, i32 0, i32 0
  store i8* %41, i8** %42, align 8
  %43 = or i64 %40, -9223372036854775808
  %44 = getelementptr inbounds %"struct.std::__1::pair.205", %"struct.std::__1::pair.205"* %0, i64 0, i32 1, i32 0, i32 0, i32 0, i32 0, i32 0, i32 2
  store i64 %43, i64* %44, align 8
  %45 = getelementptr inbounds %"struct.std::__1::pair.205", %"struct.std::__1::pair.205"* %0, i64 0, i32 1, i32 0, i32 0, i32 0, i32 0, i32 0, i32 1
  store i64 %32, i64* %45, align 8
  br label %52

46:                                               ; preds = %36
  %47 = trunc i64 %32 to i8
  %48 = bitcast %"class.std::__1::basic_string"* %30 to %"struct.std::__1::basic_string<char, std::__1::char_traits<char>, std::__1::allocator<char> >::__short"*
  %49 = getelementptr inbounds %"struct.std::__1::basic_string<char, std::__1::char_traits<char>, std::__1::allocator<char> >::__short", %"struct.std::__1::basic_string<char, std::__1::char_traits<char>, std::__1::allocator<char> >::__short"* %48, i64 0, i32 1, i32 0
  store i8 %47, i8* %49, align 1
  %50 = bitcast %"class.std::__1::basic_string"* %30 to i8*
  %51 = icmp eq i64 %32, 0
  br i1 %51, label %54, label %52

52:                                               ; preds = %46, %38
  %53 = phi i8* [ %41, %38 ], [ %50, %46 ]
  tail call void @llvm.memcpy.p0i8.p0i8.i64(i8* align 1 %53, i8* align 1 %31, i64 %32, i1 false) #19
  br label %54

54:                                               ; preds = %46, %52
  %55 = phi i8* [ %50, %46 ], [ %53, %52 ]
  %56 = getelementptr inbounds i8, i8* %55, i64 %32
  store i8 0, i8* %56, align 1
  ret void
}

; Function Attrs: nounwind ssp uwtable
define linkonce_odr hidden void @_ZNSt3__14pairIKNS_12basic_stringIcNS_11char_traitsIcEENS_9allocatorIcEEEES6_EC2IRA29_KcRA18_SA_Lb0EEEOT_OT0_(%"struct.std::__1::pair.205"*, [29 x i8]* dereferenceable(29), [18 x i8]* dereferenceable(18)) unnamed_addr #1 comdat align 2 {
  %4 = getelementptr inbounds [29 x i8], [29 x i8]* %1, i64 0, i64 0
  %5 = tail call i64 @strlen(i8* %4) #19
  %6 = icmp ugt i64 %5, -17
  br i1 %6, label %7, label %9

7:                                                ; preds = %3
  %8 = bitcast %"struct.std::__1::pair.205"* %0 to %"class.std::__1::__basic_string_common"*
  tail call void @_ZNKSt3__121__basic_string_commonILb1EE20__throw_length_errorEv(%"class.std::__1::__basic_string_common"* %8) #20
  unreachable

9:                                                ; preds = %3
  %10 = icmp ult i64 %5, 23
  br i1 %10, label %19, label %11

11:                                               ; preds = %9
  %12 = add nuw i64 %5, 16
  %13 = and i64 %12, -16
  %14 = tail call i8* @_Znwm(i64 %13) #18
  %15 = getelementptr inbounds %"struct.std::__1::pair.205", %"struct.std::__1::pair.205"* %0, i64 0, i32 0, i32 0, i32 0, i32 0, i32 0, i32 0, i32 0
  store i8* %14, i8** %15, align 8
  %16 = or i64 %13, -9223372036854775808
  %17 = getelementptr inbounds %"struct.std::__1::pair.205", %"struct.std::__1::pair.205"* %0, i64 0, i32 0, i32 0, i32 0, i32 0, i32 0, i32 0, i32 2
  store i64 %16, i64* %17, align 8
  %18 = getelementptr inbounds %"struct.std::__1::pair.205", %"struct.std::__1::pair.205"* %0, i64 0, i32 0, i32 0, i32 0, i32 0, i32 0, i32 0, i32 1
  store i64 %5, i64* %18, align 8
  br label %25

19:                                               ; preds = %9
  %20 = trunc i64 %5 to i8
  %21 = bitcast %"struct.std::__1::pair.205"* %0 to %"struct.std::__1::basic_string<char, std::__1::char_traits<char>, std::__1::allocator<char> >::__short"*
  %22 = getelementptr inbounds %"struct.std::__1::basic_string<char, std::__1::char_traits<char>, std::__1::allocator<char> >::__short", %"struct.std::__1::basic_string<char, std::__1::char_traits<char>, std::__1::allocator<char> >::__short"* %21, i64 0, i32 1, i32 0
  store i8 %20, i8* %22, align 1
  %23 = bitcast %"struct.std::__1::pair.205"* %0 to i8*
  %24 = icmp eq i64 %5, 0
  br i1 %24, label %27, label %25

25:                                               ; preds = %19, %11
  %26 = phi i8* [ %14, %11 ], [ %23, %19 ]
  tail call void @llvm.memcpy.p0i8.p0i8.i64(i8* align 1 %26, i8* align 1 %4, i64 %5, i1 false) #19
  br label %27

27:                                               ; preds = %19, %25
  %28 = phi i8* [ %23, %19 ], [ %26, %25 ]
  %29 = getelementptr inbounds i8, i8* %28, i64 %5
  store i8 0, i8* %29, align 1
  %30 = getelementptr inbounds %"struct.std::__1::pair.205", %"struct.std::__1::pair.205"* %0, i64 0, i32 1
  %31 = getelementptr inbounds [18 x i8], [18 x i8]* %2, i64 0, i64 0
  %32 = tail call i64 @strlen(i8* %31) #19
  %33 = icmp ugt i64 %32, -17
  br i1 %33, label %34, label %36

34:                                               ; preds = %27
  %35 = bitcast %"class.std::__1::basic_string"* %30 to %"class.std::__1::__basic_string_common"*
  tail call void @_ZNKSt3__121__basic_string_commonILb1EE20__throw_length_errorEv(%"class.std::__1::__basic_string_common"* %35) #20
  unreachable

36:                                               ; preds = %27
  %37 = icmp ult i64 %32, 23
  br i1 %37, label %46, label %38

38:                                               ; preds = %36
  %39 = add nuw i64 %32, 16
  %40 = and i64 %39, -16
  %41 = tail call i8* @_Znwm(i64 %40) #18
  %42 = getelementptr inbounds %"class.std::__1::basic_string", %"class.std::__1::basic_string"* %30, i64 0, i32 0, i32 0, i32 0, i32 0, i32 0, i32 0
  store i8* %41, i8** %42, align 8
  %43 = or i64 %40, -9223372036854775808
  %44 = getelementptr inbounds %"struct.std::__1::pair.205", %"struct.std::__1::pair.205"* %0, i64 0, i32 1, i32 0, i32 0, i32 0, i32 0, i32 0, i32 2
  store i64 %43, i64* %44, align 8
  %45 = getelementptr inbounds %"struct.std::__1::pair.205", %"struct.std::__1::pair.205"* %0, i64 0, i32 1, i32 0, i32 0, i32 0, i32 0, i32 0, i32 1
  store i64 %32, i64* %45, align 8
  br label %52

46:                                               ; preds = %36
  %47 = trunc i64 %32 to i8
  %48 = bitcast %"class.std::__1::basic_string"* %30 to %"struct.std::__1::basic_string<char, std::__1::char_traits<char>, std::__1::allocator<char> >::__short"*
  %49 = getelementptr inbounds %"struct.std::__1::basic_string<char, std::__1::char_traits<char>, std::__1::allocator<char> >::__short", %"struct.std::__1::basic_string<char, std::__1::char_traits<char>, std::__1::allocator<char> >::__short"* %48, i64 0, i32 1, i32 0
  store i8 %47, i8* %49, align 1
  %50 = bitcast %"class.std::__1::basic_string"* %30 to i8*
  %51 = icmp eq i64 %32, 0
  br i1 %51, label %54, label %52

52:                                               ; preds = %46, %38
  %53 = phi i8* [ %41, %38 ], [ %50, %46 ]
  tail call void @llvm.memcpy.p0i8.p0i8.i64(i8* align 1 %53, i8* align 1 %31, i64 %32, i1 false) #19
  br label %54

54:                                               ; preds = %46, %52
  %55 = phi i8* [ %50, %46 ], [ %53, %52 ]
  %56 = getelementptr inbounds i8, i8* %55, i64 %32
  store i8 0, i8* %56, align 1
  ret void
}

; Function Attrs: nounwind ssp uwtable
define linkonce_odr hidden void @_ZNSt3__14pairIKNS_12basic_stringIcNS_11char_traitsIcEENS_9allocatorIcEEEES6_EC2IRA21_KcRA18_SA_Lb0EEEOT_OT0_(%"struct.std::__1::pair.205"*, [21 x i8]* dereferenceable(21), [18 x i8]* dereferenceable(18)) unnamed_addr #1 comdat align 2 {
  %4 = getelementptr inbounds [21 x i8], [21 x i8]* %1, i64 0, i64 0
  %5 = tail call i64 @strlen(i8* %4) #19
  %6 = icmp ugt i64 %5, -17
  br i1 %6, label %7, label %9

7:                                                ; preds = %3
  %8 = bitcast %"struct.std::__1::pair.205"* %0 to %"class.std::__1::__basic_string_common"*
  tail call void @_ZNKSt3__121__basic_string_commonILb1EE20__throw_length_errorEv(%"class.std::__1::__basic_string_common"* %8) #20
  unreachable

9:                                                ; preds = %3
  %10 = icmp ult i64 %5, 23
  br i1 %10, label %19, label %11

11:                                               ; preds = %9
  %12 = add nuw i64 %5, 16
  %13 = and i64 %12, -16
  %14 = tail call i8* @_Znwm(i64 %13) #18
  %15 = getelementptr inbounds %"struct.std::__1::pair.205", %"struct.std::__1::pair.205"* %0, i64 0, i32 0, i32 0, i32 0, i32 0, i32 0, i32 0, i32 0
  store i8* %14, i8** %15, align 8
  %16 = or i64 %13, -9223372036854775808
  %17 = getelementptr inbounds %"struct.std::__1::pair.205", %"struct.std::__1::pair.205"* %0, i64 0, i32 0, i32 0, i32 0, i32 0, i32 0, i32 0, i32 2
  store i64 %16, i64* %17, align 8
  %18 = getelementptr inbounds %"struct.std::__1::pair.205", %"struct.std::__1::pair.205"* %0, i64 0, i32 0, i32 0, i32 0, i32 0, i32 0, i32 0, i32 1
  store i64 %5, i64* %18, align 8
  br label %25

19:                                               ; preds = %9
  %20 = trunc i64 %5 to i8
  %21 = bitcast %"struct.std::__1::pair.205"* %0 to %"struct.std::__1::basic_string<char, std::__1::char_traits<char>, std::__1::allocator<char> >::__short"*
  %22 = getelementptr inbounds %"struct.std::__1::basic_string<char, std::__1::char_traits<char>, std::__1::allocator<char> >::__short", %"struct.std::__1::basic_string<char, std::__1::char_traits<char>, std::__1::allocator<char> >::__short"* %21, i64 0, i32 1, i32 0
  store i8 %20, i8* %22, align 1
  %23 = bitcast %"struct.std::__1::pair.205"* %0 to i8*
  %24 = icmp eq i64 %5, 0
  br i1 %24, label %27, label %25

25:                                               ; preds = %19, %11
  %26 = phi i8* [ %14, %11 ], [ %23, %19 ]
  tail call void @llvm.memcpy.p0i8.p0i8.i64(i8* align 1 %26, i8* align 1 %4, i64 %5, i1 false) #19
  br label %27

27:                                               ; preds = %19, %25
  %28 = phi i8* [ %23, %19 ], [ %26, %25 ]
  %29 = getelementptr inbounds i8, i8* %28, i64 %5
  store i8 0, i8* %29, align 1
  %30 = getelementptr inbounds %"struct.std::__1::pair.205", %"struct.std::__1::pair.205"* %0, i64 0, i32 1
  %31 = getelementptr inbounds [18 x i8], [18 x i8]* %2, i64 0, i64 0
  %32 = tail call i64 @strlen(i8* %31) #19
  %33 = icmp ugt i64 %32, -17
  br i1 %33, label %34, label %36

34:                                               ; preds = %27
  %35 = bitcast %"class.std::__1::basic_string"* %30 to %"class.std::__1::__basic_string_common"*
  tail call void @_ZNKSt3__121__basic_string_commonILb1EE20__throw_length_errorEv(%"class.std::__1::__basic_string_common"* %35) #20
  unreachable

36:                                               ; preds = %27
  %37 = icmp ult i64 %32, 23
  br i1 %37, label %46, label %38

38:                                               ; preds = %36
  %39 = add nuw i64 %32, 16
  %40 = and i64 %39, -16
  %41 = tail call i8* @_Znwm(i64 %40) #18
  %42 = getelementptr inbounds %"class.std::__1::basic_string", %"class.std::__1::basic_string"* %30, i64 0, i32 0, i32 0, i32 0, i32 0, i32 0, i32 0
  store i8* %41, i8** %42, align 8
  %43 = or i64 %40, -9223372036854775808
  %44 = getelementptr inbounds %"struct.std::__1::pair.205", %"struct.std::__1::pair.205"* %0, i64 0, i32 1, i32 0, i32 0, i32 0, i32 0, i32 0, i32 2
  store i64 %43, i64* %44, align 8
  %45 = getelementptr inbounds %"struct.std::__1::pair.205", %"struct.std::__1::pair.205"* %0, i64 0, i32 1, i32 0, i32 0, i32 0, i32 0, i32 0, i32 1
  store i64 %32, i64* %45, align 8
  br label %52

46:                                               ; preds = %36
  %47 = trunc i64 %32 to i8
  %48 = bitcast %"class.std::__1::basic_string"* %30 to %"struct.std::__1::basic_string<char, std::__1::char_traits<char>, std::__1::allocator<char> >::__short"*
  %49 = getelementptr inbounds %"struct.std::__1::basic_string<char, std::__1::char_traits<char>, std::__1::allocator<char> >::__short", %"struct.std::__1::basic_string<char, std::__1::char_traits<char>, std::__1::allocator<char> >::__short"* %48, i64 0, i32 1, i32 0
  store i8 %47, i8* %49, align 1
  %50 = bitcast %"class.std::__1::basic_string"* %30 to i8*
  %51 = icmp eq i64 %32, 0
  br i1 %51, label %54, label %52

52:                                               ; preds = %46, %38
  %53 = phi i8* [ %41, %38 ], [ %50, %46 ]
  tail call void @llvm.memcpy.p0i8.p0i8.i64(i8* align 1 %53, i8* align 1 %31, i64 %32, i1 false) #19
  br label %54

54:                                               ; preds = %46, %52
  %55 = phi i8* [ %50, %46 ], [ %53, %52 ]
  %56 = getelementptr inbounds i8, i8* %55, i64 %32
  store i8 0, i8* %56, align 1
  ret void
}

; Function Attrs: nounwind ssp uwtable
define linkonce_odr hidden void @_ZNSt3__14pairIKNS_12basic_stringIcNS_11char_traitsIcEENS_9allocatorIcEEEES6_EC2IRA32_KcRA29_SA_Lb0EEEOT_OT0_(%"struct.std::__1::pair.205"*, [32 x i8]* dereferenceable(32), [29 x i8]* dereferenceable(29)) unnamed_addr #1 comdat align 2 {
  %4 = getelementptr inbounds [32 x i8], [32 x i8]* %1, i64 0, i64 0
  %5 = tail call i64 @strlen(i8* %4) #19
  %6 = icmp ugt i64 %5, -17
  br i1 %6, label %7, label %9

7:                                                ; preds = %3
  %8 = bitcast %"struct.std::__1::pair.205"* %0 to %"class.std::__1::__basic_string_common"*
  tail call void @_ZNKSt3__121__basic_string_commonILb1EE20__throw_length_errorEv(%"class.std::__1::__basic_string_common"* %8) #20
  unreachable

9:                                                ; preds = %3
  %10 = icmp ult i64 %5, 23
  br i1 %10, label %19, label %11

11:                                               ; preds = %9
  %12 = add nuw i64 %5, 16
  %13 = and i64 %12, -16
  %14 = tail call i8* @_Znwm(i64 %13) #18
  %15 = getelementptr inbounds %"struct.std::__1::pair.205", %"struct.std::__1::pair.205"* %0, i64 0, i32 0, i32 0, i32 0, i32 0, i32 0, i32 0, i32 0
  store i8* %14, i8** %15, align 8
  %16 = or i64 %13, -9223372036854775808
  %17 = getelementptr inbounds %"struct.std::__1::pair.205", %"struct.std::__1::pair.205"* %0, i64 0, i32 0, i32 0, i32 0, i32 0, i32 0, i32 0, i32 2
  store i64 %16, i64* %17, align 8
  %18 = getelementptr inbounds %"struct.std::__1::pair.205", %"struct.std::__1::pair.205"* %0, i64 0, i32 0, i32 0, i32 0, i32 0, i32 0, i32 0, i32 1
  store i64 %5, i64* %18, align 8
  br label %25

19:                                               ; preds = %9
  %20 = trunc i64 %5 to i8
  %21 = bitcast %"struct.std::__1::pair.205"* %0 to %"struct.std::__1::basic_string<char, std::__1::char_traits<char>, std::__1::allocator<char> >::__short"*
  %22 = getelementptr inbounds %"struct.std::__1::basic_string<char, std::__1::char_traits<char>, std::__1::allocator<char> >::__short", %"struct.std::__1::basic_string<char, std::__1::char_traits<char>, std::__1::allocator<char> >::__short"* %21, i64 0, i32 1, i32 0
  store i8 %20, i8* %22, align 1
  %23 = bitcast %"struct.std::__1::pair.205"* %0 to i8*
  %24 = icmp eq i64 %5, 0
  br i1 %24, label %27, label %25

25:                                               ; preds = %19, %11
  %26 = phi i8* [ %14, %11 ], [ %23, %19 ]
  tail call void @llvm.memcpy.p0i8.p0i8.i64(i8* align 1 %26, i8* align 1 %4, i64 %5, i1 false) #19
  br label %27

27:                                               ; preds = %19, %25
  %28 = phi i8* [ %23, %19 ], [ %26, %25 ]
  %29 = getelementptr inbounds i8, i8* %28, i64 %5
  store i8 0, i8* %29, align 1
  %30 = getelementptr inbounds %"struct.std::__1::pair.205", %"struct.std::__1::pair.205"* %0, i64 0, i32 1
  %31 = getelementptr inbounds [29 x i8], [29 x i8]* %2, i64 0, i64 0
  %32 = tail call i64 @strlen(i8* %31) #19
  %33 = icmp ugt i64 %32, -17
  br i1 %33, label %34, label %36

34:                                               ; preds = %27
  %35 = bitcast %"class.std::__1::basic_string"* %30 to %"class.std::__1::__basic_string_common"*
  tail call void @_ZNKSt3__121__basic_string_commonILb1EE20__throw_length_errorEv(%"class.std::__1::__basic_string_common"* %35) #20
  unreachable

36:                                               ; preds = %27
  %37 = icmp ult i64 %32, 23
  br i1 %37, label %46, label %38

38:                                               ; preds = %36
  %39 = add nuw i64 %32, 16
  %40 = and i64 %39, -16
  %41 = tail call i8* @_Znwm(i64 %40) #18
  %42 = getelementptr inbounds %"class.std::__1::basic_string", %"class.std::__1::basic_string"* %30, i64 0, i32 0, i32 0, i32 0, i32 0, i32 0, i32 0
  store i8* %41, i8** %42, align 8
  %43 = or i64 %40, -9223372036854775808
  %44 = getelementptr inbounds %"struct.std::__1::pair.205", %"struct.std::__1::pair.205"* %0, i64 0, i32 1, i32 0, i32 0, i32 0, i32 0, i32 0, i32 2
  store i64 %43, i64* %44, align 8
  %45 = getelementptr inbounds %"struct.std::__1::pair.205", %"struct.std::__1::pair.205"* %0, i64 0, i32 1, i32 0, i32 0, i32 0, i32 0, i32 0, i32 1
  store i64 %32, i64* %45, align 8
  br label %52

46:                                               ; preds = %36
  %47 = trunc i64 %32 to i8
  %48 = bitcast %"class.std::__1::basic_string"* %30 to %"struct.std::__1::basic_string<char, std::__1::char_traits<char>, std::__1::allocator<char> >::__short"*
  %49 = getelementptr inbounds %"struct.std::__1::basic_string<char, std::__1::char_traits<char>, std::__1::allocator<char> >::__short", %"struct.std::__1::basic_string<char, std::__1::char_traits<char>, std::__1::allocator<char> >::__short"* %48, i64 0, i32 1, i32 0
  store i8 %47, i8* %49, align 1
  %50 = bitcast %"class.std::__1::basic_string"* %30 to i8*
  %51 = icmp eq i64 %32, 0
  br i1 %51, label %54, label %52

52:                                               ; preds = %46, %38
  %53 = phi i8* [ %41, %38 ], [ %50, %46 ]
  tail call void @llvm.memcpy.p0i8.p0i8.i64(i8* align 1 %53, i8* align 1 %31, i64 %32, i1 false) #19
  br label %54

54:                                               ; preds = %46, %52
  %55 = phi i8* [ %50, %46 ], [ %53, %52 ]
  %56 = getelementptr inbounds i8, i8* %55, i64 %32
  store i8 0, i8* %56, align 1
  ret void
}

; Function Attrs: nounwind ssp uwtable
define linkonce_odr hidden void @_ZNSt3__14pairIKNS_12basic_stringIcNS_11char_traitsIcEENS_9allocatorIcEEEES6_EC2IRA24_KcRA26_SA_Lb0EEEOT_OT0_(%"struct.std::__1::pair.205"*, [24 x i8]* dereferenceable(24), [26 x i8]* dereferenceable(26)) unnamed_addr #1 comdat align 2 {
  %4 = getelementptr inbounds [24 x i8], [24 x i8]* %1, i64 0, i64 0
  %5 = tail call i64 @strlen(i8* %4) #19
  %6 = icmp ugt i64 %5, -17
  br i1 %6, label %7, label %9

7:                                                ; preds = %3
  %8 = bitcast %"struct.std::__1::pair.205"* %0 to %"class.std::__1::__basic_string_common"*
  tail call void @_ZNKSt3__121__basic_string_commonILb1EE20__throw_length_errorEv(%"class.std::__1::__basic_string_common"* %8) #20
  unreachable

9:                                                ; preds = %3
  %10 = icmp ult i64 %5, 23
  br i1 %10, label %19, label %11

11:                                               ; preds = %9
  %12 = add nuw i64 %5, 16
  %13 = and i64 %12, -16
  %14 = tail call i8* @_Znwm(i64 %13) #18
  %15 = getelementptr inbounds %"struct.std::__1::pair.205", %"struct.std::__1::pair.205"* %0, i64 0, i32 0, i32 0, i32 0, i32 0, i32 0, i32 0, i32 0
  store i8* %14, i8** %15, align 8
  %16 = or i64 %13, -9223372036854775808
  %17 = getelementptr inbounds %"struct.std::__1::pair.205", %"struct.std::__1::pair.205"* %0, i64 0, i32 0, i32 0, i32 0, i32 0, i32 0, i32 0, i32 2
  store i64 %16, i64* %17, align 8
  %18 = getelementptr inbounds %"struct.std::__1::pair.205", %"struct.std::__1::pair.205"* %0, i64 0, i32 0, i32 0, i32 0, i32 0, i32 0, i32 0, i32 1
  store i64 %5, i64* %18, align 8
  br label %25

19:                                               ; preds = %9
  %20 = trunc i64 %5 to i8
  %21 = bitcast %"struct.std::__1::pair.205"* %0 to %"struct.std::__1::basic_string<char, std::__1::char_traits<char>, std::__1::allocator<char> >::__short"*
  %22 = getelementptr inbounds %"struct.std::__1::basic_string<char, std::__1::char_traits<char>, std::__1::allocator<char> >::__short", %"struct.std::__1::basic_string<char, std::__1::char_traits<char>, std::__1::allocator<char> >::__short"* %21, i64 0, i32 1, i32 0
  store i8 %20, i8* %22, align 1
  %23 = bitcast %"struct.std::__1::pair.205"* %0 to i8*
  %24 = icmp eq i64 %5, 0
  br i1 %24, label %27, label %25

25:                                               ; preds = %19, %11
  %26 = phi i8* [ %14, %11 ], [ %23, %19 ]
  tail call void @llvm.memcpy.p0i8.p0i8.i64(i8* align 1 %26, i8* align 1 %4, i64 %5, i1 false) #19
  br label %27

27:                                               ; preds = %19, %25
  %28 = phi i8* [ %23, %19 ], [ %26, %25 ]
  %29 = getelementptr inbounds i8, i8* %28, i64 %5
  store i8 0, i8* %29, align 1
  %30 = getelementptr inbounds %"struct.std::__1::pair.205", %"struct.std::__1::pair.205"* %0, i64 0, i32 1
  %31 = getelementptr inbounds [26 x i8], [26 x i8]* %2, i64 0, i64 0
  %32 = tail call i64 @strlen(i8* %31) #19
  %33 = icmp ugt i64 %32, -17
  br i1 %33, label %34, label %36

34:                                               ; preds = %27
  %35 = bitcast %"class.std::__1::basic_string"* %30 to %"class.std::__1::__basic_string_common"*
  tail call void @_ZNKSt3__121__basic_string_commonILb1EE20__throw_length_errorEv(%"class.std::__1::__basic_string_common"* %35) #20
  unreachable

36:                                               ; preds = %27
  %37 = icmp ult i64 %32, 23
  br i1 %37, label %46, label %38

38:                                               ; preds = %36
  %39 = add nuw i64 %32, 16
  %40 = and i64 %39, -16
  %41 = tail call i8* @_Znwm(i64 %40) #18
  %42 = getelementptr inbounds %"class.std::__1::basic_string", %"class.std::__1::basic_string"* %30, i64 0, i32 0, i32 0, i32 0, i32 0, i32 0, i32 0
  store i8* %41, i8** %42, align 8
  %43 = or i64 %40, -9223372036854775808
  %44 = getelementptr inbounds %"struct.std::__1::pair.205", %"struct.std::__1::pair.205"* %0, i64 0, i32 1, i32 0, i32 0, i32 0, i32 0, i32 0, i32 2
  store i64 %43, i64* %44, align 8
  %45 = getelementptr inbounds %"struct.std::__1::pair.205", %"struct.std::__1::pair.205"* %0, i64 0, i32 1, i32 0, i32 0, i32 0, i32 0, i32 0, i32 1
  store i64 %32, i64* %45, align 8
  br label %52

46:                                               ; preds = %36
  %47 = trunc i64 %32 to i8
  %48 = bitcast %"class.std::__1::basic_string"* %30 to %"struct.std::__1::basic_string<char, std::__1::char_traits<char>, std::__1::allocator<char> >::__short"*
  %49 = getelementptr inbounds %"struct.std::__1::basic_string<char, std::__1::char_traits<char>, std::__1::allocator<char> >::__short", %"struct.std::__1::basic_string<char, std::__1::char_traits<char>, std::__1::allocator<char> >::__short"* %48, i64 0, i32 1, i32 0
  store i8 %47, i8* %49, align 1
  %50 = bitcast %"class.std::__1::basic_string"* %30 to i8*
  %51 = icmp eq i64 %32, 0
  br i1 %51, label %54, label %52

52:                                               ; preds = %46, %38
  %53 = phi i8* [ %41, %38 ], [ %50, %46 ]
  tail call void @llvm.memcpy.p0i8.p0i8.i64(i8* align 1 %53, i8* align 1 %31, i64 %32, i1 false) #19
  br label %54

54:                                               ; preds = %46, %52
  %55 = phi i8* [ %50, %46 ], [ %53, %52 ]
  %56 = getelementptr inbounds i8, i8* %55, i64 %32
  store i8 0, i8* %56, align 1
  ret void
}

; Function Attrs: nounwind ssp uwtable
define linkonce_odr hidden void @_ZNSt3__14pairIKNS_12basic_stringIcNS_11char_traitsIcEENS_9allocatorIcEEEES6_EC2IRA23_KcRA26_SA_Lb0EEEOT_OT0_(%"struct.std::__1::pair.205"*, [23 x i8]* dereferenceable(23), [26 x i8]* dereferenceable(26)) unnamed_addr #1 comdat align 2 {
  %4 = getelementptr inbounds [23 x i8], [23 x i8]* %1, i64 0, i64 0
  %5 = tail call i64 @strlen(i8* %4) #19
  %6 = icmp ugt i64 %5, -17
  br i1 %6, label %7, label %9

7:                                                ; preds = %3
  %8 = bitcast %"struct.std::__1::pair.205"* %0 to %"class.std::__1::__basic_string_common"*
  tail call void @_ZNKSt3__121__basic_string_commonILb1EE20__throw_length_errorEv(%"class.std::__1::__basic_string_common"* %8) #20
  unreachable

9:                                                ; preds = %3
  %10 = icmp ult i64 %5, 23
  br i1 %10, label %19, label %11

11:                                               ; preds = %9
  %12 = add nuw i64 %5, 16
  %13 = and i64 %12, -16
  %14 = tail call i8* @_Znwm(i64 %13) #18
  %15 = getelementptr inbounds %"struct.std::__1::pair.205", %"struct.std::__1::pair.205"* %0, i64 0, i32 0, i32 0, i32 0, i32 0, i32 0, i32 0, i32 0
  store i8* %14, i8** %15, align 8
  %16 = or i64 %13, -9223372036854775808
  %17 = getelementptr inbounds %"struct.std::__1::pair.205", %"struct.std::__1::pair.205"* %0, i64 0, i32 0, i32 0, i32 0, i32 0, i32 0, i32 0, i32 2
  store i64 %16, i64* %17, align 8
  %18 = getelementptr inbounds %"struct.std::__1::pair.205", %"struct.std::__1::pair.205"* %0, i64 0, i32 0, i32 0, i32 0, i32 0, i32 0, i32 0, i32 1
  store i64 %5, i64* %18, align 8
  br label %25

19:                                               ; preds = %9
  %20 = trunc i64 %5 to i8
  %21 = bitcast %"struct.std::__1::pair.205"* %0 to %"struct.std::__1::basic_string<char, std::__1::char_traits<char>, std::__1::allocator<char> >::__short"*
  %22 = getelementptr inbounds %"struct.std::__1::basic_string<char, std::__1::char_traits<char>, std::__1::allocator<char> >::__short", %"struct.std::__1::basic_string<char, std::__1::char_traits<char>, std::__1::allocator<char> >::__short"* %21, i64 0, i32 1, i32 0
  store i8 %20, i8* %22, align 1
  %23 = bitcast %"struct.std::__1::pair.205"* %0 to i8*
  %24 = icmp eq i64 %5, 0
  br i1 %24, label %27, label %25

25:                                               ; preds = %19, %11
  %26 = phi i8* [ %14, %11 ], [ %23, %19 ]
  tail call void @llvm.memcpy.p0i8.p0i8.i64(i8* align 1 %26, i8* align 1 %4, i64 %5, i1 false) #19
  br label %27

27:                                               ; preds = %19, %25
  %28 = phi i8* [ %23, %19 ], [ %26, %25 ]
  %29 = getelementptr inbounds i8, i8* %28, i64 %5
  store i8 0, i8* %29, align 1
  %30 = getelementptr inbounds %"struct.std::__1::pair.205", %"struct.std::__1::pair.205"* %0, i64 0, i32 1
  %31 = getelementptr inbounds [26 x i8], [26 x i8]* %2, i64 0, i64 0
  %32 = tail call i64 @strlen(i8* %31) #19
  %33 = icmp ugt i64 %32, -17
  br i1 %33, label %34, label %36

34:                                               ; preds = %27
  %35 = bitcast %"class.std::__1::basic_string"* %30 to %"class.std::__1::__basic_string_common"*
  tail call void @_ZNKSt3__121__basic_string_commonILb1EE20__throw_length_errorEv(%"class.std::__1::__basic_string_common"* %35) #20
  unreachable

36:                                               ; preds = %27
  %37 = icmp ult i64 %32, 23
  br i1 %37, label %46, label %38

38:                                               ; preds = %36
  %39 = add nuw i64 %32, 16
  %40 = and i64 %39, -16
  %41 = tail call i8* @_Znwm(i64 %40) #18
  %42 = getelementptr inbounds %"class.std::__1::basic_string", %"class.std::__1::basic_string"* %30, i64 0, i32 0, i32 0, i32 0, i32 0, i32 0, i32 0
  store i8* %41, i8** %42, align 8
  %43 = or i64 %40, -9223372036854775808
  %44 = getelementptr inbounds %"struct.std::__1::pair.205", %"struct.std::__1::pair.205"* %0, i64 0, i32 1, i32 0, i32 0, i32 0, i32 0, i32 0, i32 2
  store i64 %43, i64* %44, align 8
  %45 = getelementptr inbounds %"struct.std::__1::pair.205", %"struct.std::__1::pair.205"* %0, i64 0, i32 1, i32 0, i32 0, i32 0, i32 0, i32 0, i32 1
  store i64 %32, i64* %45, align 8
  br label %52

46:                                               ; preds = %36
  %47 = trunc i64 %32 to i8
  %48 = bitcast %"class.std::__1::basic_string"* %30 to %"struct.std::__1::basic_string<char, std::__1::char_traits<char>, std::__1::allocator<char> >::__short"*
  %49 = getelementptr inbounds %"struct.std::__1::basic_string<char, std::__1::char_traits<char>, std::__1::allocator<char> >::__short", %"struct.std::__1::basic_string<char, std::__1::char_traits<char>, std::__1::allocator<char> >::__short"* %48, i64 0, i32 1, i32 0
  store i8 %47, i8* %49, align 1
  %50 = bitcast %"class.std::__1::basic_string"* %30 to i8*
  %51 = icmp eq i64 %32, 0
  br i1 %51, label %54, label %52

52:                                               ; preds = %46, %38
  %53 = phi i8* [ %41, %38 ], [ %50, %46 ]
  tail call void @llvm.memcpy.p0i8.p0i8.i64(i8* align 1 %53, i8* align 1 %31, i64 %32, i1 false) #19
  br label %54

54:                                               ; preds = %46, %52
  %55 = phi i8* [ %50, %46 ], [ %53, %52 ]
  %56 = getelementptr inbounds i8, i8* %55, i64 %32
  store i8 0, i8* %56, align 1
  ret void
}

; Function Attrs: nounwind ssp uwtable
define linkonce_odr hidden void @_ZNSt3__14pairIKNS_12basic_stringIcNS_11char_traitsIcEENS_9allocatorIcEEEES6_EC2IRA29_KcRA26_SA_Lb0EEEOT_OT0_(%"struct.std::__1::pair.205"*, [29 x i8]* dereferenceable(29), [26 x i8]* dereferenceable(26)) unnamed_addr #1 comdat align 2 {
  %4 = getelementptr inbounds [29 x i8], [29 x i8]* %1, i64 0, i64 0
  %5 = tail call i64 @strlen(i8* %4) #19
  %6 = icmp ugt i64 %5, -17
  br i1 %6, label %7, label %9

7:                                                ; preds = %3
  %8 = bitcast %"struct.std::__1::pair.205"* %0 to %"class.std::__1::__basic_string_common"*
  tail call void @_ZNKSt3__121__basic_string_commonILb1EE20__throw_length_errorEv(%"class.std::__1::__basic_string_common"* %8) #20
  unreachable

9:                                                ; preds = %3
  %10 = icmp ult i64 %5, 23
  br i1 %10, label %19, label %11

11:                                               ; preds = %9
  %12 = add nuw i64 %5, 16
  %13 = and i64 %12, -16
  %14 = tail call i8* @_Znwm(i64 %13) #18
  %15 = getelementptr inbounds %"struct.std::__1::pair.205", %"struct.std::__1::pair.205"* %0, i64 0, i32 0, i32 0, i32 0, i32 0, i32 0, i32 0, i32 0
  store i8* %14, i8** %15, align 8
  %16 = or i64 %13, -9223372036854775808
  %17 = getelementptr inbounds %"struct.std::__1::pair.205", %"struct.std::__1::pair.205"* %0, i64 0, i32 0, i32 0, i32 0, i32 0, i32 0, i32 0, i32 2
  store i64 %16, i64* %17, align 8
  %18 = getelementptr inbounds %"struct.std::__1::pair.205", %"struct.std::__1::pair.205"* %0, i64 0, i32 0, i32 0, i32 0, i32 0, i32 0, i32 0, i32 1
  store i64 %5, i64* %18, align 8
  br label %25

19:                                               ; preds = %9
  %20 = trunc i64 %5 to i8
  %21 = bitcast %"struct.std::__1::pair.205"* %0 to %"struct.std::__1::basic_string<char, std::__1::char_traits<char>, std::__1::allocator<char> >::__short"*
  %22 = getelementptr inbounds %"struct.std::__1::basic_string<char, std::__1::char_traits<char>, std::__1::allocator<char> >::__short", %"struct.std::__1::basic_string<char, std::__1::char_traits<char>, std::__1::allocator<char> >::__short"* %21, i64 0, i32 1, i32 0
  store i8 %20, i8* %22, align 1
  %23 = bitcast %"struct.std::__1::pair.205"* %0 to i8*
  %24 = icmp eq i64 %5, 0
  br i1 %24, label %27, label %25

25:                                               ; preds = %19, %11
  %26 = phi i8* [ %14, %11 ], [ %23, %19 ]
  tail call void @llvm.memcpy.p0i8.p0i8.i64(i8* align 1 %26, i8* align 1 %4, i64 %5, i1 false) #19
  br label %27

27:                                               ; preds = %19, %25
  %28 = phi i8* [ %23, %19 ], [ %26, %25 ]
  %29 = getelementptr inbounds i8, i8* %28, i64 %5
  store i8 0, i8* %29, align 1
  %30 = getelementptr inbounds %"struct.std::__1::pair.205", %"struct.std::__1::pair.205"* %0, i64 0, i32 1
  %31 = getelementptr inbounds [26 x i8], [26 x i8]* %2, i64 0, i64 0
  %32 = tail call i64 @strlen(i8* %31) #19
  %33 = icmp ugt i64 %32, -17
  br i1 %33, label %34, label %36

34:                                               ; preds = %27
  %35 = bitcast %"class.std::__1::basic_string"* %30 to %"class.std::__1::__basic_string_common"*
  tail call void @_ZNKSt3__121__basic_string_commonILb1EE20__throw_length_errorEv(%"class.std::__1::__basic_string_common"* %35) #20
  unreachable

36:                                               ; preds = %27
  %37 = icmp ult i64 %32, 23
  br i1 %37, label %46, label %38

38:                                               ; preds = %36
  %39 = add nuw i64 %32, 16
  %40 = and i64 %39, -16
  %41 = tail call i8* @_Znwm(i64 %40) #18
  %42 = getelementptr inbounds %"class.std::__1::basic_string", %"class.std::__1::basic_string"* %30, i64 0, i32 0, i32 0, i32 0, i32 0, i32 0, i32 0
  store i8* %41, i8** %42, align 8
  %43 = or i64 %40, -9223372036854775808
  %44 = getelementptr inbounds %"struct.std::__1::pair.205", %"struct.std::__1::pair.205"* %0, i64 0, i32 1, i32 0, i32 0, i32 0, i32 0, i32 0, i32 2
  store i64 %43, i64* %44, align 8
  %45 = getelementptr inbounds %"struct.std::__1::pair.205", %"struct.std::__1::pair.205"* %0, i64 0, i32 1, i32 0, i32 0, i32 0, i32 0, i32 0, i32 1
  store i64 %32, i64* %45, align 8
  br label %52

46:                                               ; preds = %36
  %47 = trunc i64 %32 to i8
  %48 = bitcast %"class.std::__1::basic_string"* %30 to %"struct.std::__1::basic_string<char, std::__1::char_traits<char>, std::__1::allocator<char> >::__short"*
  %49 = getelementptr inbounds %"struct.std::__1::basic_string<char, std::__1::char_traits<char>, std::__1::allocator<char> >::__short", %"struct.std::__1::basic_string<char, std::__1::char_traits<char>, std::__1::allocator<char> >::__short"* %48, i64 0, i32 1, i32 0
  store i8 %47, i8* %49, align 1
  %50 = bitcast %"class.std::__1::basic_string"* %30 to i8*
  %51 = icmp eq i64 %32, 0
  br i1 %51, label %54, label %52

52:                                               ; preds = %46, %38
  %53 = phi i8* [ %41, %38 ], [ %50, %46 ]
  tail call void @llvm.memcpy.p0i8.p0i8.i64(i8* align 1 %53, i8* align 1 %31, i64 %32, i1 false) #19
  br label %54

54:                                               ; preds = %46, %52
  %55 = phi i8* [ %50, %46 ], [ %53, %52 ]
  %56 = getelementptr inbounds i8, i8* %55, i64 %32
  store i8 0, i8* %56, align 1
  ret void
}

; Function Attrs: nounwind ssp uwtable
define linkonce_odr hidden void @_ZNSt3__14pairIKNS_12basic_stringIcNS_11char_traitsIcEENS_9allocatorIcEEEES6_EC2IRA23_KcRA19_SA_Lb0EEEOT_OT0_(%"struct.std::__1::pair.205"*, [23 x i8]* dereferenceable(23), [19 x i8]* dereferenceable(19)) unnamed_addr #1 comdat align 2 {
  %4 = getelementptr inbounds [23 x i8], [23 x i8]* %1, i64 0, i64 0
  %5 = tail call i64 @strlen(i8* %4) #19
  %6 = icmp ugt i64 %5, -17
  br i1 %6, label %7, label %9

7:                                                ; preds = %3
  %8 = bitcast %"struct.std::__1::pair.205"* %0 to %"class.std::__1::__basic_string_common"*
  tail call void @_ZNKSt3__121__basic_string_commonILb1EE20__throw_length_errorEv(%"class.std::__1::__basic_string_common"* %8) #20
  unreachable

9:                                                ; preds = %3
  %10 = icmp ult i64 %5, 23
  br i1 %10, label %19, label %11

11:                                               ; preds = %9
  %12 = add nuw i64 %5, 16
  %13 = and i64 %12, -16
  %14 = tail call i8* @_Znwm(i64 %13) #18
  %15 = getelementptr inbounds %"struct.std::__1::pair.205", %"struct.std::__1::pair.205"* %0, i64 0, i32 0, i32 0, i32 0, i32 0, i32 0, i32 0, i32 0
  store i8* %14, i8** %15, align 8
  %16 = or i64 %13, -9223372036854775808
  %17 = getelementptr inbounds %"struct.std::__1::pair.205", %"struct.std::__1::pair.205"* %0, i64 0, i32 0, i32 0, i32 0, i32 0, i32 0, i32 0, i32 2
  store i64 %16, i64* %17, align 8
  %18 = getelementptr inbounds %"struct.std::__1::pair.205", %"struct.std::__1::pair.205"* %0, i64 0, i32 0, i32 0, i32 0, i32 0, i32 0, i32 0, i32 1
  store i64 %5, i64* %18, align 8
  br label %25

19:                                               ; preds = %9
  %20 = trunc i64 %5 to i8
  %21 = bitcast %"struct.std::__1::pair.205"* %0 to %"struct.std::__1::basic_string<char, std::__1::char_traits<char>, std::__1::allocator<char> >::__short"*
  %22 = getelementptr inbounds %"struct.std::__1::basic_string<char, std::__1::char_traits<char>, std::__1::allocator<char> >::__short", %"struct.std::__1::basic_string<char, std::__1::char_traits<char>, std::__1::allocator<char> >::__short"* %21, i64 0, i32 1, i32 0
  store i8 %20, i8* %22, align 1
  %23 = bitcast %"struct.std::__1::pair.205"* %0 to i8*
  %24 = icmp eq i64 %5, 0
  br i1 %24, label %27, label %25

25:                                               ; preds = %19, %11
  %26 = phi i8* [ %14, %11 ], [ %23, %19 ]
  tail call void @llvm.memcpy.p0i8.p0i8.i64(i8* align 1 %26, i8* align 1 %4, i64 %5, i1 false) #19
  br label %27

27:                                               ; preds = %19, %25
  %28 = phi i8* [ %23, %19 ], [ %26, %25 ]
  %29 = getelementptr inbounds i8, i8* %28, i64 %5
  store i8 0, i8* %29, align 1
  %30 = getelementptr inbounds %"struct.std::__1::pair.205", %"struct.std::__1::pair.205"* %0, i64 0, i32 1
  %31 = getelementptr inbounds [19 x i8], [19 x i8]* %2, i64 0, i64 0
  %32 = tail call i64 @strlen(i8* %31) #19
  %33 = icmp ugt i64 %32, -17
  br i1 %33, label %34, label %36

34:                                               ; preds = %27
  %35 = bitcast %"class.std::__1::basic_string"* %30 to %"class.std::__1::__basic_string_common"*
  tail call void @_ZNKSt3__121__basic_string_commonILb1EE20__throw_length_errorEv(%"class.std::__1::__basic_string_common"* %35) #20
  unreachable

36:                                               ; preds = %27
  %37 = icmp ult i64 %32, 23
  br i1 %37, label %46, label %38

38:                                               ; preds = %36
  %39 = add nuw i64 %32, 16
  %40 = and i64 %39, -16
  %41 = tail call i8* @_Znwm(i64 %40) #18
  %42 = getelementptr inbounds %"class.std::__1::basic_string", %"class.std::__1::basic_string"* %30, i64 0, i32 0, i32 0, i32 0, i32 0, i32 0, i32 0
  store i8* %41, i8** %42, align 8
  %43 = or i64 %40, -9223372036854775808
  %44 = getelementptr inbounds %"struct.std::__1::pair.205", %"struct.std::__1::pair.205"* %0, i64 0, i32 1, i32 0, i32 0, i32 0, i32 0, i32 0, i32 2
  store i64 %43, i64* %44, align 8
  %45 = getelementptr inbounds %"struct.std::__1::pair.205", %"struct.std::__1::pair.205"* %0, i64 0, i32 1, i32 0, i32 0, i32 0, i32 0, i32 0, i32 1
  store i64 %32, i64* %45, align 8
  br label %52

46:                                               ; preds = %36
  %47 = trunc i64 %32 to i8
  %48 = bitcast %"class.std::__1::basic_string"* %30 to %"struct.std::__1::basic_string<char, std::__1::char_traits<char>, std::__1::allocator<char> >::__short"*
  %49 = getelementptr inbounds %"struct.std::__1::basic_string<char, std::__1::char_traits<char>, std::__1::allocator<char> >::__short", %"struct.std::__1::basic_string<char, std::__1::char_traits<char>, std::__1::allocator<char> >::__short"* %48, i64 0, i32 1, i32 0
  store i8 %47, i8* %49, align 1
  %50 = bitcast %"class.std::__1::basic_string"* %30 to i8*
  %51 = icmp eq i64 %32, 0
  br i1 %51, label %54, label %52

52:                                               ; preds = %46, %38
  %53 = phi i8* [ %41, %38 ], [ %50, %46 ]
  tail call void @llvm.memcpy.p0i8.p0i8.i64(i8* align 1 %53, i8* align 1 %31, i64 %32, i1 false) #19
  br label %54

54:                                               ; preds = %46, %52
  %55 = phi i8* [ %50, %46 ], [ %53, %52 ]
  %56 = getelementptr inbounds i8, i8* %55, i64 %32
  store i8 0, i8* %56, align 1
  ret void
}

; Function Attrs: nounwind ssp uwtable
define linkonce_odr hidden void @_ZNSt3__14pairIKNS_12basic_stringIcNS_11char_traitsIcEENS_9allocatorIcEEEES6_EC2IRA32_KcSC_Lb0EEEOT_OT0_(%"struct.std::__1::pair.205"*, [32 x i8]* dereferenceable(32), [32 x i8]* dereferenceable(32)) unnamed_addr #1 comdat align 2 {
  %4 = getelementptr inbounds [32 x i8], [32 x i8]* %1, i64 0, i64 0
  %5 = tail call i64 @strlen(i8* %4) #19
  %6 = icmp ugt i64 %5, -17
  br i1 %6, label %7, label %9

7:                                                ; preds = %3
  %8 = bitcast %"struct.std::__1::pair.205"* %0 to %"class.std::__1::__basic_string_common"*
  tail call void @_ZNKSt3__121__basic_string_commonILb1EE20__throw_length_errorEv(%"class.std::__1::__basic_string_common"* %8) #20
  unreachable

9:                                                ; preds = %3
  %10 = icmp ult i64 %5, 23
  br i1 %10, label %19, label %11

11:                                               ; preds = %9
  %12 = add nuw i64 %5, 16
  %13 = and i64 %12, -16
  %14 = tail call i8* @_Znwm(i64 %13) #18
  %15 = getelementptr inbounds %"struct.std::__1::pair.205", %"struct.std::__1::pair.205"* %0, i64 0, i32 0, i32 0, i32 0, i32 0, i32 0, i32 0, i32 0
  store i8* %14, i8** %15, align 8
  %16 = or i64 %13, -9223372036854775808
  %17 = getelementptr inbounds %"struct.std::__1::pair.205", %"struct.std::__1::pair.205"* %0, i64 0, i32 0, i32 0, i32 0, i32 0, i32 0, i32 0, i32 2
  store i64 %16, i64* %17, align 8
  %18 = getelementptr inbounds %"struct.std::__1::pair.205", %"struct.std::__1::pair.205"* %0, i64 0, i32 0, i32 0, i32 0, i32 0, i32 0, i32 0, i32 1
  store i64 %5, i64* %18, align 8
  br label %25

19:                                               ; preds = %9
  %20 = trunc i64 %5 to i8
  %21 = bitcast %"struct.std::__1::pair.205"* %0 to %"struct.std::__1::basic_string<char, std::__1::char_traits<char>, std::__1::allocator<char> >::__short"*
  %22 = getelementptr inbounds %"struct.std::__1::basic_string<char, std::__1::char_traits<char>, std::__1::allocator<char> >::__short", %"struct.std::__1::basic_string<char, std::__1::char_traits<char>, std::__1::allocator<char> >::__short"* %21, i64 0, i32 1, i32 0
  store i8 %20, i8* %22, align 1
  %23 = bitcast %"struct.std::__1::pair.205"* %0 to i8*
  %24 = icmp eq i64 %5, 0
  br i1 %24, label %27, label %25

25:                                               ; preds = %19, %11
  %26 = phi i8* [ %14, %11 ], [ %23, %19 ]
  tail call void @llvm.memcpy.p0i8.p0i8.i64(i8* align 1 %26, i8* align 1 %4, i64 %5, i1 false) #19
  br label %27

27:                                               ; preds = %19, %25
  %28 = phi i8* [ %23, %19 ], [ %26, %25 ]
  %29 = getelementptr inbounds i8, i8* %28, i64 %5
  store i8 0, i8* %29, align 1
  %30 = getelementptr inbounds %"struct.std::__1::pair.205", %"struct.std::__1::pair.205"* %0, i64 0, i32 1
  %31 = getelementptr inbounds [32 x i8], [32 x i8]* %2, i64 0, i64 0
  %32 = tail call i64 @strlen(i8* %31) #19
  %33 = icmp ugt i64 %32, -17
  br i1 %33, label %34, label %36

34:                                               ; preds = %27
  %35 = bitcast %"class.std::__1::basic_string"* %30 to %"class.std::__1::__basic_string_common"*
  tail call void @_ZNKSt3__121__basic_string_commonILb1EE20__throw_length_errorEv(%"class.std::__1::__basic_string_common"* %35) #20
  unreachable

36:                                               ; preds = %27
  %37 = icmp ult i64 %32, 23
  br i1 %37, label %46, label %38

38:                                               ; preds = %36
  %39 = add nuw i64 %32, 16
  %40 = and i64 %39, -16
  %41 = tail call i8* @_Znwm(i64 %40) #18
  %42 = getelementptr inbounds %"class.std::__1::basic_string", %"class.std::__1::basic_string"* %30, i64 0, i32 0, i32 0, i32 0, i32 0, i32 0, i32 0
  store i8* %41, i8** %42, align 8
  %43 = or i64 %40, -9223372036854775808
  %44 = getelementptr inbounds %"struct.std::__1::pair.205", %"struct.std::__1::pair.205"* %0, i64 0, i32 1, i32 0, i32 0, i32 0, i32 0, i32 0, i32 2
  store i64 %43, i64* %44, align 8
  %45 = getelementptr inbounds %"struct.std::__1::pair.205", %"struct.std::__1::pair.205"* %0, i64 0, i32 1, i32 0, i32 0, i32 0, i32 0, i32 0, i32 1
  store i64 %32, i64* %45, align 8
  br label %52

46:                                               ; preds = %36
  %47 = trunc i64 %32 to i8
  %48 = bitcast %"class.std::__1::basic_string"* %30 to %"struct.std::__1::basic_string<char, std::__1::char_traits<char>, std::__1::allocator<char> >::__short"*
  %49 = getelementptr inbounds %"struct.std::__1::basic_string<char, std::__1::char_traits<char>, std::__1::allocator<char> >::__short", %"struct.std::__1::basic_string<char, std::__1::char_traits<char>, std::__1::allocator<char> >::__short"* %48, i64 0, i32 1, i32 0
  store i8 %47, i8* %49, align 1
  %50 = bitcast %"class.std::__1::basic_string"* %30 to i8*
  %51 = icmp eq i64 %32, 0
  br i1 %51, label %54, label %52

52:                                               ; preds = %46, %38
  %53 = phi i8* [ %41, %38 ], [ %50, %46 ]
  tail call void @llvm.memcpy.p0i8.p0i8.i64(i8* align 1 %53, i8* align 1 %31, i64 %32, i1 false) #19
  br label %54

54:                                               ; preds = %46, %52
  %55 = phi i8* [ %50, %46 ], [ %53, %52 ]
  %56 = getelementptr inbounds i8, i8* %55, i64 %32
  store i8 0, i8* %56, align 1
  ret void
}

; Function Attrs: nounwind ssp uwtable
define linkonce_odr hidden void @_ZNSt3__14pairIKNS_12basic_stringIcNS_11char_traitsIcEENS_9allocatorIcEEEES6_EC2IRA30_KcRA19_SA_Lb0EEEOT_OT0_(%"struct.std::__1::pair.205"*, [30 x i8]* dereferenceable(30), [19 x i8]* dereferenceable(19)) unnamed_addr #1 comdat align 2 {
  %4 = getelementptr inbounds [30 x i8], [30 x i8]* %1, i64 0, i64 0
  %5 = tail call i64 @strlen(i8* %4) #19
  %6 = icmp ugt i64 %5, -17
  br i1 %6, label %7, label %9

7:                                                ; preds = %3
  %8 = bitcast %"struct.std::__1::pair.205"* %0 to %"class.std::__1::__basic_string_common"*
  tail call void @_ZNKSt3__121__basic_string_commonILb1EE20__throw_length_errorEv(%"class.std::__1::__basic_string_common"* %8) #20
  unreachable

9:                                                ; preds = %3
  %10 = icmp ult i64 %5, 23
  br i1 %10, label %19, label %11

11:                                               ; preds = %9
  %12 = add nuw i64 %5, 16
  %13 = and i64 %12, -16
  %14 = tail call i8* @_Znwm(i64 %13) #18
  %15 = getelementptr inbounds %"struct.std::__1::pair.205", %"struct.std::__1::pair.205"* %0, i64 0, i32 0, i32 0, i32 0, i32 0, i32 0, i32 0, i32 0
  store i8* %14, i8** %15, align 8
  %16 = or i64 %13, -9223372036854775808
  %17 = getelementptr inbounds %"struct.std::__1::pair.205", %"struct.std::__1::pair.205"* %0, i64 0, i32 0, i32 0, i32 0, i32 0, i32 0, i32 0, i32 2
  store i64 %16, i64* %17, align 8
  %18 = getelementptr inbounds %"struct.std::__1::pair.205", %"struct.std::__1::pair.205"* %0, i64 0, i32 0, i32 0, i32 0, i32 0, i32 0, i32 0, i32 1
  store i64 %5, i64* %18, align 8
  br label %25

19:                                               ; preds = %9
  %20 = trunc i64 %5 to i8
  %21 = bitcast %"struct.std::__1::pair.205"* %0 to %"struct.std::__1::basic_string<char, std::__1::char_traits<char>, std::__1::allocator<char> >::__short"*
  %22 = getelementptr inbounds %"struct.std::__1::basic_string<char, std::__1::char_traits<char>, std::__1::allocator<char> >::__short", %"struct.std::__1::basic_string<char, std::__1::char_traits<char>, std::__1::allocator<char> >::__short"* %21, i64 0, i32 1, i32 0
  store i8 %20, i8* %22, align 1
  %23 = bitcast %"struct.std::__1::pair.205"* %0 to i8*
  %24 = icmp eq i64 %5, 0
  br i1 %24, label %27, label %25

25:                                               ; preds = %19, %11
  %26 = phi i8* [ %14, %11 ], [ %23, %19 ]
  tail call void @llvm.memcpy.p0i8.p0i8.i64(i8* align 1 %26, i8* align 1 %4, i64 %5, i1 false) #19
  br label %27

27:                                               ; preds = %19, %25
  %28 = phi i8* [ %23, %19 ], [ %26, %25 ]
  %29 = getelementptr inbounds i8, i8* %28, i64 %5
  store i8 0, i8* %29, align 1
  %30 = getelementptr inbounds %"struct.std::__1::pair.205", %"struct.std::__1::pair.205"* %0, i64 0, i32 1
  %31 = getelementptr inbounds [19 x i8], [19 x i8]* %2, i64 0, i64 0
  %32 = tail call i64 @strlen(i8* %31) #19
  %33 = icmp ugt i64 %32, -17
  br i1 %33, label %34, label %36

34:                                               ; preds = %27
  %35 = bitcast %"class.std::__1::basic_string"* %30 to %"class.std::__1::__basic_string_common"*
  tail call void @_ZNKSt3__121__basic_string_commonILb1EE20__throw_length_errorEv(%"class.std::__1::__basic_string_common"* %35) #20
  unreachable

36:                                               ; preds = %27
  %37 = icmp ult i64 %32, 23
  br i1 %37, label %46, label %38

38:                                               ; preds = %36
  %39 = add nuw i64 %32, 16
  %40 = and i64 %39, -16
  %41 = tail call i8* @_Znwm(i64 %40) #18
  %42 = getelementptr inbounds %"class.std::__1::basic_string", %"class.std::__1::basic_string"* %30, i64 0, i32 0, i32 0, i32 0, i32 0, i32 0, i32 0
  store i8* %41, i8** %42, align 8
  %43 = or i64 %40, -9223372036854775808
  %44 = getelementptr inbounds %"struct.std::__1::pair.205", %"struct.std::__1::pair.205"* %0, i64 0, i32 1, i32 0, i32 0, i32 0, i32 0, i32 0, i32 2
  store i64 %43, i64* %44, align 8
  %45 = getelementptr inbounds %"struct.std::__1::pair.205", %"struct.std::__1::pair.205"* %0, i64 0, i32 1, i32 0, i32 0, i32 0, i32 0, i32 0, i32 1
  store i64 %32, i64* %45, align 8
  br label %52

46:                                               ; preds = %36
  %47 = trunc i64 %32 to i8
  %48 = bitcast %"class.std::__1::basic_string"* %30 to %"struct.std::__1::basic_string<char, std::__1::char_traits<char>, std::__1::allocator<char> >::__short"*
  %49 = getelementptr inbounds %"struct.std::__1::basic_string<char, std::__1::char_traits<char>, std::__1::allocator<char> >::__short", %"struct.std::__1::basic_string<char, std::__1::char_traits<char>, std::__1::allocator<char> >::__short"* %48, i64 0, i32 1, i32 0
  store i8 %47, i8* %49, align 1
  %50 = bitcast %"class.std::__1::basic_string"* %30 to i8*
  %51 = icmp eq i64 %32, 0
  br i1 %51, label %54, label %52

52:                                               ; preds = %46, %38
  %53 = phi i8* [ %41, %38 ], [ %50, %46 ]
  tail call void @llvm.memcpy.p0i8.p0i8.i64(i8* align 1 %53, i8* align 1 %31, i64 %32, i1 false) #19
  br label %54

54:                                               ; preds = %46, %52
  %55 = phi i8* [ %50, %46 ], [ %53, %52 ]
  %56 = getelementptr inbounds i8, i8* %55, i64 %32
  store i8 0, i8* %56, align 1
  ret void
}

; Function Attrs: nounwind ssp uwtable
define linkonce_odr hidden void @_ZNSt3__14pairIKNS_12basic_stringIcNS_11char_traitsIcEENS_9allocatorIcEEEES6_EC2IRA21_KcRA26_SA_Lb0EEEOT_OT0_(%"struct.std::__1::pair.205"*, [21 x i8]* dereferenceable(21), [26 x i8]* dereferenceable(26)) unnamed_addr #1 comdat align 2 {
  %4 = getelementptr inbounds [21 x i8], [21 x i8]* %1, i64 0, i64 0
  %5 = tail call i64 @strlen(i8* %4) #19
  %6 = icmp ugt i64 %5, -17
  br i1 %6, label %7, label %9

7:                                                ; preds = %3
  %8 = bitcast %"struct.std::__1::pair.205"* %0 to %"class.std::__1::__basic_string_common"*
  tail call void @_ZNKSt3__121__basic_string_commonILb1EE20__throw_length_errorEv(%"class.std::__1::__basic_string_common"* %8) #20
  unreachable

9:                                                ; preds = %3
  %10 = icmp ult i64 %5, 23
  br i1 %10, label %19, label %11

11:                                               ; preds = %9
  %12 = add nuw i64 %5, 16
  %13 = and i64 %12, -16
  %14 = tail call i8* @_Znwm(i64 %13) #18
  %15 = getelementptr inbounds %"struct.std::__1::pair.205", %"struct.std::__1::pair.205"* %0, i64 0, i32 0, i32 0, i32 0, i32 0, i32 0, i32 0, i32 0
  store i8* %14, i8** %15, align 8
  %16 = or i64 %13, -9223372036854775808
  %17 = getelementptr inbounds %"struct.std::__1::pair.205", %"struct.std::__1::pair.205"* %0, i64 0, i32 0, i32 0, i32 0, i32 0, i32 0, i32 0, i32 2
  store i64 %16, i64* %17, align 8
  %18 = getelementptr inbounds %"struct.std::__1::pair.205", %"struct.std::__1::pair.205"* %0, i64 0, i32 0, i32 0, i32 0, i32 0, i32 0, i32 0, i32 1
  store i64 %5, i64* %18, align 8
  br label %25

19:                                               ; preds = %9
  %20 = trunc i64 %5 to i8
  %21 = bitcast %"struct.std::__1::pair.205"* %0 to %"struct.std::__1::basic_string<char, std::__1::char_traits<char>, std::__1::allocator<char> >::__short"*
  %22 = getelementptr inbounds %"struct.std::__1::basic_string<char, std::__1::char_traits<char>, std::__1::allocator<char> >::__short", %"struct.std::__1::basic_string<char, std::__1::char_traits<char>, std::__1::allocator<char> >::__short"* %21, i64 0, i32 1, i32 0
  store i8 %20, i8* %22, align 1
  %23 = bitcast %"struct.std::__1::pair.205"* %0 to i8*
  %24 = icmp eq i64 %5, 0
  br i1 %24, label %27, label %25

25:                                               ; preds = %19, %11
  %26 = phi i8* [ %14, %11 ], [ %23, %19 ]
  tail call void @llvm.memcpy.p0i8.p0i8.i64(i8* align 1 %26, i8* align 1 %4, i64 %5, i1 false) #19
  br label %27

27:                                               ; preds = %19, %25
  %28 = phi i8* [ %23, %19 ], [ %26, %25 ]
  %29 = getelementptr inbounds i8, i8* %28, i64 %5
  store i8 0, i8* %29, align 1
  %30 = getelementptr inbounds %"struct.std::__1::pair.205", %"struct.std::__1::pair.205"* %0, i64 0, i32 1
  %31 = getelementptr inbounds [26 x i8], [26 x i8]* %2, i64 0, i64 0
  %32 = tail call i64 @strlen(i8* %31) #19
  %33 = icmp ugt i64 %32, -17
  br i1 %33, label %34, label %36

34:                                               ; preds = %27
  %35 = bitcast %"class.std::__1::basic_string"* %30 to %"class.std::__1::__basic_string_common"*
  tail call void @_ZNKSt3__121__basic_string_commonILb1EE20__throw_length_errorEv(%"class.std::__1::__basic_string_common"* %35) #20
  unreachable

36:                                               ; preds = %27
  %37 = icmp ult i64 %32, 23
  br i1 %37, label %46, label %38

38:                                               ; preds = %36
  %39 = add nuw i64 %32, 16
  %40 = and i64 %39, -16
  %41 = tail call i8* @_Znwm(i64 %40) #18
  %42 = getelementptr inbounds %"class.std::__1::basic_string", %"class.std::__1::basic_string"* %30, i64 0, i32 0, i32 0, i32 0, i32 0, i32 0, i32 0
  store i8* %41, i8** %42, align 8
  %43 = or i64 %40, -9223372036854775808
  %44 = getelementptr inbounds %"struct.std::__1::pair.205", %"struct.std::__1::pair.205"* %0, i64 0, i32 1, i32 0, i32 0, i32 0, i32 0, i32 0, i32 2
  store i64 %43, i64* %44, align 8
  %45 = getelementptr inbounds %"struct.std::__1::pair.205", %"struct.std::__1::pair.205"* %0, i64 0, i32 1, i32 0, i32 0, i32 0, i32 0, i32 0, i32 1
  store i64 %32, i64* %45, align 8
  br label %52

46:                                               ; preds = %36
  %47 = trunc i64 %32 to i8
  %48 = bitcast %"class.std::__1::basic_string"* %30 to %"struct.std::__1::basic_string<char, std::__1::char_traits<char>, std::__1::allocator<char> >::__short"*
  %49 = getelementptr inbounds %"struct.std::__1::basic_string<char, std::__1::char_traits<char>, std::__1::allocator<char> >::__short", %"struct.std::__1::basic_string<char, std::__1::char_traits<char>, std::__1::allocator<char> >::__short"* %48, i64 0, i32 1, i32 0
  store i8 %47, i8* %49, align 1
  %50 = bitcast %"class.std::__1::basic_string"* %30 to i8*
  %51 = icmp eq i64 %32, 0
  br i1 %51, label %54, label %52

52:                                               ; preds = %46, %38
  %53 = phi i8* [ %41, %38 ], [ %50, %46 ]
  tail call void @llvm.memcpy.p0i8.p0i8.i64(i8* align 1 %53, i8* align 1 %31, i64 %32, i1 false) #19
  br label %54

54:                                               ; preds = %46, %52
  %55 = phi i8* [ %50, %46 ], [ %53, %52 ]
  %56 = getelementptr inbounds i8, i8* %55, i64 %32
  store i8 0, i8* %56, align 1
  ret void
}

; Function Attrs: nounwind ssp uwtable
define linkonce_odr hidden void @_ZNSt3__14pairIKNS_12basic_stringIcNS_11char_traitsIcEENS_9allocatorIcEEEES6_EC2IRA25_KcRA24_SA_Lb0EEEOT_OT0_(%"struct.std::__1::pair.205"*, [25 x i8]* dereferenceable(25), [24 x i8]* dereferenceable(24)) unnamed_addr #1 comdat align 2 {
  %4 = getelementptr inbounds [25 x i8], [25 x i8]* %1, i64 0, i64 0
  %5 = tail call i64 @strlen(i8* %4) #19
  %6 = icmp ugt i64 %5, -17
  br i1 %6, label %7, label %9

7:                                                ; preds = %3
  %8 = bitcast %"struct.std::__1::pair.205"* %0 to %"class.std::__1::__basic_string_common"*
  tail call void @_ZNKSt3__121__basic_string_commonILb1EE20__throw_length_errorEv(%"class.std::__1::__basic_string_common"* %8) #20
  unreachable

9:                                                ; preds = %3
  %10 = icmp ult i64 %5, 23
  br i1 %10, label %19, label %11

11:                                               ; preds = %9
  %12 = add nuw i64 %5, 16
  %13 = and i64 %12, -16
  %14 = tail call i8* @_Znwm(i64 %13) #18
  %15 = getelementptr inbounds %"struct.std::__1::pair.205", %"struct.std::__1::pair.205"* %0, i64 0, i32 0, i32 0, i32 0, i32 0, i32 0, i32 0, i32 0
  store i8* %14, i8** %15, align 8
  %16 = or i64 %13, -9223372036854775808
  %17 = getelementptr inbounds %"struct.std::__1::pair.205", %"struct.std::__1::pair.205"* %0, i64 0, i32 0, i32 0, i32 0, i32 0, i32 0, i32 0, i32 2
  store i64 %16, i64* %17, align 8
  %18 = getelementptr inbounds %"struct.std::__1::pair.205", %"struct.std::__1::pair.205"* %0, i64 0, i32 0, i32 0, i32 0, i32 0, i32 0, i32 0, i32 1
  store i64 %5, i64* %18, align 8
  br label %25

19:                                               ; preds = %9
  %20 = trunc i64 %5 to i8
  %21 = bitcast %"struct.std::__1::pair.205"* %0 to %"struct.std::__1::basic_string<char, std::__1::char_traits<char>, std::__1::allocator<char> >::__short"*
  %22 = getelementptr inbounds %"struct.std::__1::basic_string<char, std::__1::char_traits<char>, std::__1::allocator<char> >::__short", %"struct.std::__1::basic_string<char, std::__1::char_traits<char>, std::__1::allocator<char> >::__short"* %21, i64 0, i32 1, i32 0
  store i8 %20, i8* %22, align 1
  %23 = bitcast %"struct.std::__1::pair.205"* %0 to i8*
  %24 = icmp eq i64 %5, 0
  br i1 %24, label %27, label %25

25:                                               ; preds = %19, %11
  %26 = phi i8* [ %14, %11 ], [ %23, %19 ]
  tail call void @llvm.memcpy.p0i8.p0i8.i64(i8* align 1 %26, i8* align 1 %4, i64 %5, i1 false) #19
  br label %27

27:                                               ; preds = %19, %25
  %28 = phi i8* [ %23, %19 ], [ %26, %25 ]
  %29 = getelementptr inbounds i8, i8* %28, i64 %5
  store i8 0, i8* %29, align 1
  %30 = getelementptr inbounds %"struct.std::__1::pair.205", %"struct.std::__1::pair.205"* %0, i64 0, i32 1
  %31 = getelementptr inbounds [24 x i8], [24 x i8]* %2, i64 0, i64 0
  %32 = tail call i64 @strlen(i8* %31) #19
  %33 = icmp ugt i64 %32, -17
  br i1 %33, label %34, label %36

34:                                               ; preds = %27
  %35 = bitcast %"class.std::__1::basic_string"* %30 to %"class.std::__1::__basic_string_common"*
  tail call void @_ZNKSt3__121__basic_string_commonILb1EE20__throw_length_errorEv(%"class.std::__1::__basic_string_common"* %35) #20
  unreachable

36:                                               ; preds = %27
  %37 = icmp ult i64 %32, 23
  br i1 %37, label %46, label %38

38:                                               ; preds = %36
  %39 = add nuw i64 %32, 16
  %40 = and i64 %39, -16
  %41 = tail call i8* @_Znwm(i64 %40) #18
  %42 = getelementptr inbounds %"class.std::__1::basic_string", %"class.std::__1::basic_string"* %30, i64 0, i32 0, i32 0, i32 0, i32 0, i32 0, i32 0
  store i8* %41, i8** %42, align 8
  %43 = or i64 %40, -9223372036854775808
  %44 = getelementptr inbounds %"struct.std::__1::pair.205", %"struct.std::__1::pair.205"* %0, i64 0, i32 1, i32 0, i32 0, i32 0, i32 0, i32 0, i32 2
  store i64 %43, i64* %44, align 8
  %45 = getelementptr inbounds %"struct.std::__1::pair.205", %"struct.std::__1::pair.205"* %0, i64 0, i32 1, i32 0, i32 0, i32 0, i32 0, i32 0, i32 1
  store i64 %32, i64* %45, align 8
  br label %52

46:                                               ; preds = %36
  %47 = trunc i64 %32 to i8
  %48 = bitcast %"class.std::__1::basic_string"* %30 to %"struct.std::__1::basic_string<char, std::__1::char_traits<char>, std::__1::allocator<char> >::__short"*
  %49 = getelementptr inbounds %"struct.std::__1::basic_string<char, std::__1::char_traits<char>, std::__1::allocator<char> >::__short", %"struct.std::__1::basic_string<char, std::__1::char_traits<char>, std::__1::allocator<char> >::__short"* %48, i64 0, i32 1, i32 0
  store i8 %47, i8* %49, align 1
  %50 = bitcast %"class.std::__1::basic_string"* %30 to i8*
  %51 = icmp eq i64 %32, 0
  br i1 %51, label %54, label %52

52:                                               ; preds = %46, %38
  %53 = phi i8* [ %41, %38 ], [ %50, %46 ]
  tail call void @llvm.memcpy.p0i8.p0i8.i64(i8* align 1 %53, i8* align 1 %31, i64 %32, i1 false) #19
  br label %54

54:                                               ; preds = %46, %52
  %55 = phi i8* [ %50, %46 ], [ %53, %52 ]
  %56 = getelementptr inbounds i8, i8* %55, i64 %32
  store i8 0, i8* %56, align 1
  ret void
}

; Function Attrs: nounwind ssp uwtable
define linkonce_odr hidden void @_ZNSt3__14pairIKNS_12basic_stringIcNS_11char_traitsIcEENS_9allocatorIcEEEES6_EC2IRA35_KcRA32_SA_Lb0EEEOT_OT0_(%"struct.std::__1::pair.205"*, [35 x i8]* dereferenceable(35), [32 x i8]* dereferenceable(32)) unnamed_addr #1 comdat align 2 {
  %4 = getelementptr inbounds [35 x i8], [35 x i8]* %1, i64 0, i64 0
  %5 = tail call i64 @strlen(i8* %4) #19
  %6 = icmp ugt i64 %5, -17
  br i1 %6, label %7, label %9

7:                                                ; preds = %3
  %8 = bitcast %"struct.std::__1::pair.205"* %0 to %"class.std::__1::__basic_string_common"*
  tail call void @_ZNKSt3__121__basic_string_commonILb1EE20__throw_length_errorEv(%"class.std::__1::__basic_string_common"* %8) #20
  unreachable

9:                                                ; preds = %3
  %10 = icmp ult i64 %5, 23
  br i1 %10, label %19, label %11

11:                                               ; preds = %9
  %12 = add nuw i64 %5, 16
  %13 = and i64 %12, -16
  %14 = tail call i8* @_Znwm(i64 %13) #18
  %15 = getelementptr inbounds %"struct.std::__1::pair.205", %"struct.std::__1::pair.205"* %0, i64 0, i32 0, i32 0, i32 0, i32 0, i32 0, i32 0, i32 0
  store i8* %14, i8** %15, align 8
  %16 = or i64 %13, -9223372036854775808
  %17 = getelementptr inbounds %"struct.std::__1::pair.205", %"struct.std::__1::pair.205"* %0, i64 0, i32 0, i32 0, i32 0, i32 0, i32 0, i32 0, i32 2
  store i64 %16, i64* %17, align 8
  %18 = getelementptr inbounds %"struct.std::__1::pair.205", %"struct.std::__1::pair.205"* %0, i64 0, i32 0, i32 0, i32 0, i32 0, i32 0, i32 0, i32 1
  store i64 %5, i64* %18, align 8
  br label %25

19:                                               ; preds = %9
  %20 = trunc i64 %5 to i8
  %21 = bitcast %"struct.std::__1::pair.205"* %0 to %"struct.std::__1::basic_string<char, std::__1::char_traits<char>, std::__1::allocator<char> >::__short"*
  %22 = getelementptr inbounds %"struct.std::__1::basic_string<char, std::__1::char_traits<char>, std::__1::allocator<char> >::__short", %"struct.std::__1::basic_string<char, std::__1::char_traits<char>, std::__1::allocator<char> >::__short"* %21, i64 0, i32 1, i32 0
  store i8 %20, i8* %22, align 1
  %23 = bitcast %"struct.std::__1::pair.205"* %0 to i8*
  %24 = icmp eq i64 %5, 0
  br i1 %24, label %27, label %25

25:                                               ; preds = %19, %11
  %26 = phi i8* [ %14, %11 ], [ %23, %19 ]
  tail call void @llvm.memcpy.p0i8.p0i8.i64(i8* align 1 %26, i8* align 1 %4, i64 %5, i1 false) #19
  br label %27

27:                                               ; preds = %19, %25
  %28 = phi i8* [ %23, %19 ], [ %26, %25 ]
  %29 = getelementptr inbounds i8, i8* %28, i64 %5
  store i8 0, i8* %29, align 1
  %30 = getelementptr inbounds %"struct.std::__1::pair.205", %"struct.std::__1::pair.205"* %0, i64 0, i32 1
  %31 = getelementptr inbounds [32 x i8], [32 x i8]* %2, i64 0, i64 0
  %32 = tail call i64 @strlen(i8* %31) #19
  %33 = icmp ugt i64 %32, -17
  br i1 %33, label %34, label %36

34:                                               ; preds = %27
  %35 = bitcast %"class.std::__1::basic_string"* %30 to %"class.std::__1::__basic_string_common"*
  tail call void @_ZNKSt3__121__basic_string_commonILb1EE20__throw_length_errorEv(%"class.std::__1::__basic_string_common"* %35) #20
  unreachable

36:                                               ; preds = %27
  %37 = icmp ult i64 %32, 23
  br i1 %37, label %46, label %38

38:                                               ; preds = %36
  %39 = add nuw i64 %32, 16
  %40 = and i64 %39, -16
  %41 = tail call i8* @_Znwm(i64 %40) #18
  %42 = getelementptr inbounds %"class.std::__1::basic_string", %"class.std::__1::basic_string"* %30, i64 0, i32 0, i32 0, i32 0, i32 0, i32 0, i32 0
  store i8* %41, i8** %42, align 8
  %43 = or i64 %40, -9223372036854775808
  %44 = getelementptr inbounds %"struct.std::__1::pair.205", %"struct.std::__1::pair.205"* %0, i64 0, i32 1, i32 0, i32 0, i32 0, i32 0, i32 0, i32 2
  store i64 %43, i64* %44, align 8
  %45 = getelementptr inbounds %"struct.std::__1::pair.205", %"struct.std::__1::pair.205"* %0, i64 0, i32 1, i32 0, i32 0, i32 0, i32 0, i32 0, i32 1
  store i64 %32, i64* %45, align 8
  br label %52

46:                                               ; preds = %36
  %47 = trunc i64 %32 to i8
  %48 = bitcast %"class.std::__1::basic_string"* %30 to %"struct.std::__1::basic_string<char, std::__1::char_traits<char>, std::__1::allocator<char> >::__short"*
  %49 = getelementptr inbounds %"struct.std::__1::basic_string<char, std::__1::char_traits<char>, std::__1::allocator<char> >::__short", %"struct.std::__1::basic_string<char, std::__1::char_traits<char>, std::__1::allocator<char> >::__short"* %48, i64 0, i32 1, i32 0
  store i8 %47, i8* %49, align 1
  %50 = bitcast %"class.std::__1::basic_string"* %30 to i8*
  %51 = icmp eq i64 %32, 0
  br i1 %51, label %54, label %52

52:                                               ; preds = %46, %38
  %53 = phi i8* [ %41, %38 ], [ %50, %46 ]
  tail call void @llvm.memcpy.p0i8.p0i8.i64(i8* align 1 %53, i8* align 1 %31, i64 %32, i1 false) #19
  br label %54

54:                                               ; preds = %46, %52
  %55 = phi i8* [ %50, %46 ], [ %53, %52 ]
  %56 = getelementptr inbounds i8, i8* %55, i64 %32
  store i8 0, i8* %56, align 1
  ret void
}

; Function Attrs: nounwind ssp uwtable
define linkonce_odr hidden void @_ZNSt3__14pairIKNS_12basic_stringIcNS_11char_traitsIcEENS_9allocatorIcEEEES6_EC2IRA26_KcRA23_SA_Lb0EEEOT_OT0_(%"struct.std::__1::pair.205"*, [26 x i8]* dereferenceable(26), [23 x i8]* dereferenceable(23)) unnamed_addr #1 comdat align 2 {
  %4 = getelementptr inbounds [26 x i8], [26 x i8]* %1, i64 0, i64 0
  %5 = tail call i64 @strlen(i8* %4) #19
  %6 = icmp ugt i64 %5, -17
  br i1 %6, label %7, label %9

7:                                                ; preds = %3
  %8 = bitcast %"struct.std::__1::pair.205"* %0 to %"class.std::__1::__basic_string_common"*
  tail call void @_ZNKSt3__121__basic_string_commonILb1EE20__throw_length_errorEv(%"class.std::__1::__basic_string_common"* %8) #20
  unreachable

9:                                                ; preds = %3
  %10 = icmp ult i64 %5, 23
  br i1 %10, label %19, label %11

11:                                               ; preds = %9
  %12 = add nuw i64 %5, 16
  %13 = and i64 %12, -16
  %14 = tail call i8* @_Znwm(i64 %13) #18
  %15 = getelementptr inbounds %"struct.std::__1::pair.205", %"struct.std::__1::pair.205"* %0, i64 0, i32 0, i32 0, i32 0, i32 0, i32 0, i32 0, i32 0
  store i8* %14, i8** %15, align 8
  %16 = or i64 %13, -9223372036854775808
  %17 = getelementptr inbounds %"struct.std::__1::pair.205", %"struct.std::__1::pair.205"* %0, i64 0, i32 0, i32 0, i32 0, i32 0, i32 0, i32 0, i32 2
  store i64 %16, i64* %17, align 8
  %18 = getelementptr inbounds %"struct.std::__1::pair.205", %"struct.std::__1::pair.205"* %0, i64 0, i32 0, i32 0, i32 0, i32 0, i32 0, i32 0, i32 1
  store i64 %5, i64* %18, align 8
  br label %25

19:                                               ; preds = %9
  %20 = trunc i64 %5 to i8
  %21 = bitcast %"struct.std::__1::pair.205"* %0 to %"struct.std::__1::basic_string<char, std::__1::char_traits<char>, std::__1::allocator<char> >::__short"*
  %22 = getelementptr inbounds %"struct.std::__1::basic_string<char, std::__1::char_traits<char>, std::__1::allocator<char> >::__short", %"struct.std::__1::basic_string<char, std::__1::char_traits<char>, std::__1::allocator<char> >::__short"* %21, i64 0, i32 1, i32 0
  store i8 %20, i8* %22, align 1
  %23 = bitcast %"struct.std::__1::pair.205"* %0 to i8*
  %24 = icmp eq i64 %5, 0
  br i1 %24, label %27, label %25

25:                                               ; preds = %19, %11
  %26 = phi i8* [ %14, %11 ], [ %23, %19 ]
  tail call void @llvm.memcpy.p0i8.p0i8.i64(i8* align 1 %26, i8* align 1 %4, i64 %5, i1 false) #19
  br label %27

27:                                               ; preds = %19, %25
  %28 = phi i8* [ %23, %19 ], [ %26, %25 ]
  %29 = getelementptr inbounds i8, i8* %28, i64 %5
  store i8 0, i8* %29, align 1
  %30 = getelementptr inbounds %"struct.std::__1::pair.205", %"struct.std::__1::pair.205"* %0, i64 0, i32 1
  %31 = getelementptr inbounds [23 x i8], [23 x i8]* %2, i64 0, i64 0
  %32 = tail call i64 @strlen(i8* %31) #19
  %33 = icmp ugt i64 %32, -17
  br i1 %33, label %34, label %36

34:                                               ; preds = %27
  %35 = bitcast %"class.std::__1::basic_string"* %30 to %"class.std::__1::__basic_string_common"*
  tail call void @_ZNKSt3__121__basic_string_commonILb1EE20__throw_length_errorEv(%"class.std::__1::__basic_string_common"* %35) #20
  unreachable

36:                                               ; preds = %27
  %37 = icmp ult i64 %32, 23
  br i1 %37, label %46, label %38

38:                                               ; preds = %36
  %39 = add nuw i64 %32, 16
  %40 = and i64 %39, -16
  %41 = tail call i8* @_Znwm(i64 %40) #18
  %42 = getelementptr inbounds %"class.std::__1::basic_string", %"class.std::__1::basic_string"* %30, i64 0, i32 0, i32 0, i32 0, i32 0, i32 0, i32 0
  store i8* %41, i8** %42, align 8
  %43 = or i64 %40, -9223372036854775808
  %44 = getelementptr inbounds %"struct.std::__1::pair.205", %"struct.std::__1::pair.205"* %0, i64 0, i32 1, i32 0, i32 0, i32 0, i32 0, i32 0, i32 2
  store i64 %43, i64* %44, align 8
  %45 = getelementptr inbounds %"struct.std::__1::pair.205", %"struct.std::__1::pair.205"* %0, i64 0, i32 1, i32 0, i32 0, i32 0, i32 0, i32 0, i32 1
  store i64 %32, i64* %45, align 8
  br label %52

46:                                               ; preds = %36
  %47 = trunc i64 %32 to i8
  %48 = bitcast %"class.std::__1::basic_string"* %30 to %"struct.std::__1::basic_string<char, std::__1::char_traits<char>, std::__1::allocator<char> >::__short"*
  %49 = getelementptr inbounds %"struct.std::__1::basic_string<char, std::__1::char_traits<char>, std::__1::allocator<char> >::__short", %"struct.std::__1::basic_string<char, std::__1::char_traits<char>, std::__1::allocator<char> >::__short"* %48, i64 0, i32 1, i32 0
  store i8 %47, i8* %49, align 1
  %50 = bitcast %"class.std::__1::basic_string"* %30 to i8*
  %51 = icmp eq i64 %32, 0
  br i1 %51, label %54, label %52

52:                                               ; preds = %46, %38
  %53 = phi i8* [ %41, %38 ], [ %50, %46 ]
  tail call void @llvm.memcpy.p0i8.p0i8.i64(i8* align 1 %53, i8* align 1 %31, i64 %32, i1 false) #19
  br label %54

54:                                               ; preds = %46, %52
  %55 = phi i8* [ %50, %46 ], [ %53, %52 ]
  %56 = getelementptr inbounds i8, i8* %55, i64 %32
  store i8 0, i8* %56, align 1
  ret void
}

; Function Attrs: nounwind ssp uwtable
define linkonce_odr hidden void @_ZNSt3__14pairIKNS_12basic_stringIcNS_11char_traitsIcEENS_9allocatorIcEEEES6_EC2IRA38_KcRA23_SA_Lb0EEEOT_OT0_(%"struct.std::__1::pair.205"*, [38 x i8]* dereferenceable(38), [23 x i8]* dereferenceable(23)) unnamed_addr #1 comdat align 2 {
  %4 = getelementptr inbounds [38 x i8], [38 x i8]* %1, i64 0, i64 0
  %5 = tail call i64 @strlen(i8* %4) #19
  %6 = icmp ugt i64 %5, -17
  br i1 %6, label %7, label %9

7:                                                ; preds = %3
  %8 = bitcast %"struct.std::__1::pair.205"* %0 to %"class.std::__1::__basic_string_common"*
  tail call void @_ZNKSt3__121__basic_string_commonILb1EE20__throw_length_errorEv(%"class.std::__1::__basic_string_common"* %8) #20
  unreachable

9:                                                ; preds = %3
  %10 = icmp ult i64 %5, 23
  br i1 %10, label %19, label %11

11:                                               ; preds = %9
  %12 = add nuw i64 %5, 16
  %13 = and i64 %12, -16
  %14 = tail call i8* @_Znwm(i64 %13) #18
  %15 = getelementptr inbounds %"struct.std::__1::pair.205", %"struct.std::__1::pair.205"* %0, i64 0, i32 0, i32 0, i32 0, i32 0, i32 0, i32 0, i32 0
  store i8* %14, i8** %15, align 8
  %16 = or i64 %13, -9223372036854775808
  %17 = getelementptr inbounds %"struct.std::__1::pair.205", %"struct.std::__1::pair.205"* %0, i64 0, i32 0, i32 0, i32 0, i32 0, i32 0, i32 0, i32 2
  store i64 %16, i64* %17, align 8
  %18 = getelementptr inbounds %"struct.std::__1::pair.205", %"struct.std::__1::pair.205"* %0, i64 0, i32 0, i32 0, i32 0, i32 0, i32 0, i32 0, i32 1
  store i64 %5, i64* %18, align 8
  br label %25

19:                                               ; preds = %9
  %20 = trunc i64 %5 to i8
  %21 = bitcast %"struct.std::__1::pair.205"* %0 to %"struct.std::__1::basic_string<char, std::__1::char_traits<char>, std::__1::allocator<char> >::__short"*
  %22 = getelementptr inbounds %"struct.std::__1::basic_string<char, std::__1::char_traits<char>, std::__1::allocator<char> >::__short", %"struct.std::__1::basic_string<char, std::__1::char_traits<char>, std::__1::allocator<char> >::__short"* %21, i64 0, i32 1, i32 0
  store i8 %20, i8* %22, align 1
  %23 = bitcast %"struct.std::__1::pair.205"* %0 to i8*
  %24 = icmp eq i64 %5, 0
  br i1 %24, label %27, label %25

25:                                               ; preds = %19, %11
  %26 = phi i8* [ %14, %11 ], [ %23, %19 ]
  tail call void @llvm.memcpy.p0i8.p0i8.i64(i8* align 1 %26, i8* align 1 %4, i64 %5, i1 false) #19
  br label %27

27:                                               ; preds = %19, %25
  %28 = phi i8* [ %23, %19 ], [ %26, %25 ]
  %29 = getelementptr inbounds i8, i8* %28, i64 %5
  store i8 0, i8* %29, align 1
  %30 = getelementptr inbounds %"struct.std::__1::pair.205", %"struct.std::__1::pair.205"* %0, i64 0, i32 1
  %31 = getelementptr inbounds [23 x i8], [23 x i8]* %2, i64 0, i64 0
  %32 = tail call i64 @strlen(i8* %31) #19
  %33 = icmp ugt i64 %32, -17
  br i1 %33, label %34, label %36

34:                                               ; preds = %27
  %35 = bitcast %"class.std::__1::basic_string"* %30 to %"class.std::__1::__basic_string_common"*
  tail call void @_ZNKSt3__121__basic_string_commonILb1EE20__throw_length_errorEv(%"class.std::__1::__basic_string_common"* %35) #20
  unreachable

36:                                               ; preds = %27
  %37 = icmp ult i64 %32, 23
  br i1 %37, label %46, label %38

38:                                               ; preds = %36
  %39 = add nuw i64 %32, 16
  %40 = and i64 %39, -16
  %41 = tail call i8* @_Znwm(i64 %40) #18
  %42 = getelementptr inbounds %"class.std::__1::basic_string", %"class.std::__1::basic_string"* %30, i64 0, i32 0, i32 0, i32 0, i32 0, i32 0, i32 0
  store i8* %41, i8** %42, align 8
  %43 = or i64 %40, -9223372036854775808
  %44 = getelementptr inbounds %"struct.std::__1::pair.205", %"struct.std::__1::pair.205"* %0, i64 0, i32 1, i32 0, i32 0, i32 0, i32 0, i32 0, i32 2
  store i64 %43, i64* %44, align 8
  %45 = getelementptr inbounds %"struct.std::__1::pair.205", %"struct.std::__1::pair.205"* %0, i64 0, i32 1, i32 0, i32 0, i32 0, i32 0, i32 0, i32 1
  store i64 %32, i64* %45, align 8
  br label %52

46:                                               ; preds = %36
  %47 = trunc i64 %32 to i8
  %48 = bitcast %"class.std::__1::basic_string"* %30 to %"struct.std::__1::basic_string<char, std::__1::char_traits<char>, std::__1::allocator<char> >::__short"*
  %49 = getelementptr inbounds %"struct.std::__1::basic_string<char, std::__1::char_traits<char>, std::__1::allocator<char> >::__short", %"struct.std::__1::basic_string<char, std::__1::char_traits<char>, std::__1::allocator<char> >::__short"* %48, i64 0, i32 1, i32 0
  store i8 %47, i8* %49, align 1
  %50 = bitcast %"class.std::__1::basic_string"* %30 to i8*
  %51 = icmp eq i64 %32, 0
  br i1 %51, label %54, label %52

52:                                               ; preds = %46, %38
  %53 = phi i8* [ %41, %38 ], [ %50, %46 ]
  tail call void @llvm.memcpy.p0i8.p0i8.i64(i8* align 1 %53, i8* align 1 %31, i64 %32, i1 false) #19
  br label %54

54:                                               ; preds = %46, %52
  %55 = phi i8* [ %50, %46 ], [ %53, %52 ]
  %56 = getelementptr inbounds i8, i8* %55, i64 %32
  store i8 0, i8* %56, align 1
  ret void
}

; Function Attrs: nounwind ssp uwtable
define linkonce_odr hidden void @_ZNSt3__14pairIKNS_12basic_stringIcNS_11char_traitsIcEENS_9allocatorIcEEEES6_EC2IRA20_KcRA24_SA_Lb0EEEOT_OT0_(%"struct.std::__1::pair.205"*, [20 x i8]* dereferenceable(20), [24 x i8]* dereferenceable(24)) unnamed_addr #1 comdat align 2 {
  %4 = getelementptr inbounds [20 x i8], [20 x i8]* %1, i64 0, i64 0
  %5 = tail call i64 @strlen(i8* %4) #19
  %6 = icmp ugt i64 %5, -17
  br i1 %6, label %7, label %9

7:                                                ; preds = %3
  %8 = bitcast %"struct.std::__1::pair.205"* %0 to %"class.std::__1::__basic_string_common"*
  tail call void @_ZNKSt3__121__basic_string_commonILb1EE20__throw_length_errorEv(%"class.std::__1::__basic_string_common"* %8) #20
  unreachable

9:                                                ; preds = %3
  %10 = icmp ult i64 %5, 23
  br i1 %10, label %19, label %11

11:                                               ; preds = %9
  %12 = add nuw i64 %5, 16
  %13 = and i64 %12, -16
  %14 = tail call i8* @_Znwm(i64 %13) #18
  %15 = getelementptr inbounds %"struct.std::__1::pair.205", %"struct.std::__1::pair.205"* %0, i64 0, i32 0, i32 0, i32 0, i32 0, i32 0, i32 0, i32 0
  store i8* %14, i8** %15, align 8
  %16 = or i64 %13, -9223372036854775808
  %17 = getelementptr inbounds %"struct.std::__1::pair.205", %"struct.std::__1::pair.205"* %0, i64 0, i32 0, i32 0, i32 0, i32 0, i32 0, i32 0, i32 2
  store i64 %16, i64* %17, align 8
  %18 = getelementptr inbounds %"struct.std::__1::pair.205", %"struct.std::__1::pair.205"* %0, i64 0, i32 0, i32 0, i32 0, i32 0, i32 0, i32 0, i32 1
  store i64 %5, i64* %18, align 8
  br label %25

19:                                               ; preds = %9
  %20 = trunc i64 %5 to i8
  %21 = bitcast %"struct.std::__1::pair.205"* %0 to %"struct.std::__1::basic_string<char, std::__1::char_traits<char>, std::__1::allocator<char> >::__short"*
  %22 = getelementptr inbounds %"struct.std::__1::basic_string<char, std::__1::char_traits<char>, std::__1::allocator<char> >::__short", %"struct.std::__1::basic_string<char, std::__1::char_traits<char>, std::__1::allocator<char> >::__short"* %21, i64 0, i32 1, i32 0
  store i8 %20, i8* %22, align 1
  %23 = bitcast %"struct.std::__1::pair.205"* %0 to i8*
  %24 = icmp eq i64 %5, 0
  br i1 %24, label %27, label %25

25:                                               ; preds = %19, %11
  %26 = phi i8* [ %14, %11 ], [ %23, %19 ]
  tail call void @llvm.memcpy.p0i8.p0i8.i64(i8* align 1 %26, i8* align 1 %4, i64 %5, i1 false) #19
  br label %27

27:                                               ; preds = %19, %25
  %28 = phi i8* [ %23, %19 ], [ %26, %25 ]
  %29 = getelementptr inbounds i8, i8* %28, i64 %5
  store i8 0, i8* %29, align 1
  %30 = getelementptr inbounds %"struct.std::__1::pair.205", %"struct.std::__1::pair.205"* %0, i64 0, i32 1
  %31 = getelementptr inbounds [24 x i8], [24 x i8]* %2, i64 0, i64 0
  %32 = tail call i64 @strlen(i8* %31) #19
  %33 = icmp ugt i64 %32, -17
  br i1 %33, label %34, label %36

34:                                               ; preds = %27
  %35 = bitcast %"class.std::__1::basic_string"* %30 to %"class.std::__1::__basic_string_common"*
  tail call void @_ZNKSt3__121__basic_string_commonILb1EE20__throw_length_errorEv(%"class.std::__1::__basic_string_common"* %35) #20
  unreachable

36:                                               ; preds = %27
  %37 = icmp ult i64 %32, 23
  br i1 %37, label %46, label %38

38:                                               ; preds = %36
  %39 = add nuw i64 %32, 16
  %40 = and i64 %39, -16
  %41 = tail call i8* @_Znwm(i64 %40) #18
  %42 = getelementptr inbounds %"class.std::__1::basic_string", %"class.std::__1::basic_string"* %30, i64 0, i32 0, i32 0, i32 0, i32 0, i32 0, i32 0
  store i8* %41, i8** %42, align 8
  %43 = or i64 %40, -9223372036854775808
  %44 = getelementptr inbounds %"struct.std::__1::pair.205", %"struct.std::__1::pair.205"* %0, i64 0, i32 1, i32 0, i32 0, i32 0, i32 0, i32 0, i32 2
  store i64 %43, i64* %44, align 8
  %45 = getelementptr inbounds %"struct.std::__1::pair.205", %"struct.std::__1::pair.205"* %0, i64 0, i32 1, i32 0, i32 0, i32 0, i32 0, i32 0, i32 1
  store i64 %32, i64* %45, align 8
  br label %52

46:                                               ; preds = %36
  %47 = trunc i64 %32 to i8
  %48 = bitcast %"class.std::__1::basic_string"* %30 to %"struct.std::__1::basic_string<char, std::__1::char_traits<char>, std::__1::allocator<char> >::__short"*
  %49 = getelementptr inbounds %"struct.std::__1::basic_string<char, std::__1::char_traits<char>, std::__1::allocator<char> >::__short", %"struct.std::__1::basic_string<char, std::__1::char_traits<char>, std::__1::allocator<char> >::__short"* %48, i64 0, i32 1, i32 0
  store i8 %47, i8* %49, align 1
  %50 = bitcast %"class.std::__1::basic_string"* %30 to i8*
  %51 = icmp eq i64 %32, 0
  br i1 %51, label %54, label %52

52:                                               ; preds = %46, %38
  %53 = phi i8* [ %41, %38 ], [ %50, %46 ]
  tail call void @llvm.memcpy.p0i8.p0i8.i64(i8* align 1 %53, i8* align 1 %31, i64 %32, i1 false) #19
  br label %54

54:                                               ; preds = %46, %52
  %55 = phi i8* [ %50, %46 ], [ %53, %52 ]
  %56 = getelementptr inbounds i8, i8* %55, i64 %32
  store i8 0, i8* %56, align 1
  ret void
}

; Function Attrs: nounwind ssp uwtable
define linkonce_odr hidden void @_ZNSt3__14pairIKNS_12basic_stringIcNS_11char_traitsIcEENS_9allocatorIcEEEES6_EC2IRA22_KcSC_Lb0EEEOT_OT0_(%"struct.std::__1::pair.205"*, [22 x i8]* dereferenceable(22), [22 x i8]* dereferenceable(22)) unnamed_addr #1 comdat align 2 {
  %4 = getelementptr inbounds [22 x i8], [22 x i8]* %1, i64 0, i64 0
  %5 = tail call i64 @strlen(i8* %4) #19
  %6 = icmp ugt i64 %5, -17
  br i1 %6, label %7, label %9

7:                                                ; preds = %3
  %8 = bitcast %"struct.std::__1::pair.205"* %0 to %"class.std::__1::__basic_string_common"*
  tail call void @_ZNKSt3__121__basic_string_commonILb1EE20__throw_length_errorEv(%"class.std::__1::__basic_string_common"* %8) #20
  unreachable

9:                                                ; preds = %3
  %10 = icmp ult i64 %5, 23
  br i1 %10, label %19, label %11

11:                                               ; preds = %9
  %12 = add nuw i64 %5, 16
  %13 = and i64 %12, -16
  %14 = tail call i8* @_Znwm(i64 %13) #18
  %15 = getelementptr inbounds %"struct.std::__1::pair.205", %"struct.std::__1::pair.205"* %0, i64 0, i32 0, i32 0, i32 0, i32 0, i32 0, i32 0, i32 0
  store i8* %14, i8** %15, align 8
  %16 = or i64 %13, -9223372036854775808
  %17 = getelementptr inbounds %"struct.std::__1::pair.205", %"struct.std::__1::pair.205"* %0, i64 0, i32 0, i32 0, i32 0, i32 0, i32 0, i32 0, i32 2
  store i64 %16, i64* %17, align 8
  %18 = getelementptr inbounds %"struct.std::__1::pair.205", %"struct.std::__1::pair.205"* %0, i64 0, i32 0, i32 0, i32 0, i32 0, i32 0, i32 0, i32 1
  store i64 %5, i64* %18, align 8
  br label %25

19:                                               ; preds = %9
  %20 = trunc i64 %5 to i8
  %21 = bitcast %"struct.std::__1::pair.205"* %0 to %"struct.std::__1::basic_string<char, std::__1::char_traits<char>, std::__1::allocator<char> >::__short"*
  %22 = getelementptr inbounds %"struct.std::__1::basic_string<char, std::__1::char_traits<char>, std::__1::allocator<char> >::__short", %"struct.std::__1::basic_string<char, std::__1::char_traits<char>, std::__1::allocator<char> >::__short"* %21, i64 0, i32 1, i32 0
  store i8 %20, i8* %22, align 1
  %23 = bitcast %"struct.std::__1::pair.205"* %0 to i8*
  %24 = icmp eq i64 %5, 0
  br i1 %24, label %27, label %25

25:                                               ; preds = %19, %11
  %26 = phi i8* [ %14, %11 ], [ %23, %19 ]
  tail call void @llvm.memcpy.p0i8.p0i8.i64(i8* align 1 %26, i8* align 1 %4, i64 %5, i1 false) #19
  br label %27

27:                                               ; preds = %19, %25
  %28 = phi i8* [ %23, %19 ], [ %26, %25 ]
  %29 = getelementptr inbounds i8, i8* %28, i64 %5
  store i8 0, i8* %29, align 1
  %30 = getelementptr inbounds %"struct.std::__1::pair.205", %"struct.std::__1::pair.205"* %0, i64 0, i32 1
  %31 = getelementptr inbounds [22 x i8], [22 x i8]* %2, i64 0, i64 0
  %32 = tail call i64 @strlen(i8* %31) #19
  %33 = icmp ugt i64 %32, -17
  br i1 %33, label %34, label %36

34:                                               ; preds = %27
  %35 = bitcast %"class.std::__1::basic_string"* %30 to %"class.std::__1::__basic_string_common"*
  tail call void @_ZNKSt3__121__basic_string_commonILb1EE20__throw_length_errorEv(%"class.std::__1::__basic_string_common"* %35) #20
  unreachable

36:                                               ; preds = %27
  %37 = icmp ult i64 %32, 23
  br i1 %37, label %46, label %38

38:                                               ; preds = %36
  %39 = add nuw i64 %32, 16
  %40 = and i64 %39, -16
  %41 = tail call i8* @_Znwm(i64 %40) #18
  %42 = getelementptr inbounds %"class.std::__1::basic_string", %"class.std::__1::basic_string"* %30, i64 0, i32 0, i32 0, i32 0, i32 0, i32 0, i32 0
  store i8* %41, i8** %42, align 8
  %43 = or i64 %40, -9223372036854775808
  %44 = getelementptr inbounds %"struct.std::__1::pair.205", %"struct.std::__1::pair.205"* %0, i64 0, i32 1, i32 0, i32 0, i32 0, i32 0, i32 0, i32 2
  store i64 %43, i64* %44, align 8
  %45 = getelementptr inbounds %"struct.std::__1::pair.205", %"struct.std::__1::pair.205"* %0, i64 0, i32 1, i32 0, i32 0, i32 0, i32 0, i32 0, i32 1
  store i64 %32, i64* %45, align 8
  br label %52

46:                                               ; preds = %36
  %47 = trunc i64 %32 to i8
  %48 = bitcast %"class.std::__1::basic_string"* %30 to %"struct.std::__1::basic_string<char, std::__1::char_traits<char>, std::__1::allocator<char> >::__short"*
  %49 = getelementptr inbounds %"struct.std::__1::basic_string<char, std::__1::char_traits<char>, std::__1::allocator<char> >::__short", %"struct.std::__1::basic_string<char, std::__1::char_traits<char>, std::__1::allocator<char> >::__short"* %48, i64 0, i32 1, i32 0
  store i8 %47, i8* %49, align 1
  %50 = bitcast %"class.std::__1::basic_string"* %30 to i8*
  %51 = icmp eq i64 %32, 0
  br i1 %51, label %54, label %52

52:                                               ; preds = %46, %38
  %53 = phi i8* [ %41, %38 ], [ %50, %46 ]
  tail call void @llvm.memcpy.p0i8.p0i8.i64(i8* align 1 %53, i8* align 1 %31, i64 %32, i1 false) #19
  br label %54

54:                                               ; preds = %46, %52
  %55 = phi i8* [ %50, %46 ], [ %53, %52 ]
  %56 = getelementptr inbounds i8, i8* %55, i64 %32
  store i8 0, i8* %56, align 1
  ret void
}

; Function Attrs: nounwind ssp uwtable
define linkonce_odr hidden void @_ZNSt3__14pairIKNS_12basic_stringIcNS_11char_traitsIcEENS_9allocatorIcEEEES6_EC2IRA21_KcRA36_SA_Lb0EEEOT_OT0_(%"struct.std::__1::pair.205"*, [21 x i8]* dereferenceable(21), [36 x i8]* dereferenceable(36)) unnamed_addr #1 comdat align 2 {
  %4 = getelementptr inbounds [21 x i8], [21 x i8]* %1, i64 0, i64 0
  %5 = tail call i64 @strlen(i8* %4) #19
  %6 = icmp ugt i64 %5, -17
  br i1 %6, label %7, label %9

7:                                                ; preds = %3
  %8 = bitcast %"struct.std::__1::pair.205"* %0 to %"class.std::__1::__basic_string_common"*
  tail call void @_ZNKSt3__121__basic_string_commonILb1EE20__throw_length_errorEv(%"class.std::__1::__basic_string_common"* %8) #20
  unreachable

9:                                                ; preds = %3
  %10 = icmp ult i64 %5, 23
  br i1 %10, label %19, label %11

11:                                               ; preds = %9
  %12 = add nuw i64 %5, 16
  %13 = and i64 %12, -16
  %14 = tail call i8* @_Znwm(i64 %13) #18
  %15 = getelementptr inbounds %"struct.std::__1::pair.205", %"struct.std::__1::pair.205"* %0, i64 0, i32 0, i32 0, i32 0, i32 0, i32 0, i32 0, i32 0
  store i8* %14, i8** %15, align 8
  %16 = or i64 %13, -9223372036854775808
  %17 = getelementptr inbounds %"struct.std::__1::pair.205", %"struct.std::__1::pair.205"* %0, i64 0, i32 0, i32 0, i32 0, i32 0, i32 0, i32 0, i32 2
  store i64 %16, i64* %17, align 8
  %18 = getelementptr inbounds %"struct.std::__1::pair.205", %"struct.std::__1::pair.205"* %0, i64 0, i32 0, i32 0, i32 0, i32 0, i32 0, i32 0, i32 1
  store i64 %5, i64* %18, align 8
  br label %25

19:                                               ; preds = %9
  %20 = trunc i64 %5 to i8
  %21 = bitcast %"struct.std::__1::pair.205"* %0 to %"struct.std::__1::basic_string<char, std::__1::char_traits<char>, std::__1::allocator<char> >::__short"*
  %22 = getelementptr inbounds %"struct.std::__1::basic_string<char, std::__1::char_traits<char>, std::__1::allocator<char> >::__short", %"struct.std::__1::basic_string<char, std::__1::char_traits<char>, std::__1::allocator<char> >::__short"* %21, i64 0, i32 1, i32 0
  store i8 %20, i8* %22, align 1
  %23 = bitcast %"struct.std::__1::pair.205"* %0 to i8*
  %24 = icmp eq i64 %5, 0
  br i1 %24, label %27, label %25

25:                                               ; preds = %19, %11
  %26 = phi i8* [ %14, %11 ], [ %23, %19 ]
  tail call void @llvm.memcpy.p0i8.p0i8.i64(i8* align 1 %26, i8* align 1 %4, i64 %5, i1 false) #19
  br label %27

27:                                               ; preds = %19, %25
  %28 = phi i8* [ %23, %19 ], [ %26, %25 ]
  %29 = getelementptr inbounds i8, i8* %28, i64 %5
  store i8 0, i8* %29, align 1
  %30 = getelementptr inbounds %"struct.std::__1::pair.205", %"struct.std::__1::pair.205"* %0, i64 0, i32 1
  %31 = getelementptr inbounds [36 x i8], [36 x i8]* %2, i64 0, i64 0
  %32 = tail call i64 @strlen(i8* %31) #19
  %33 = icmp ugt i64 %32, -17
  br i1 %33, label %34, label %36

34:                                               ; preds = %27
  %35 = bitcast %"class.std::__1::basic_string"* %30 to %"class.std::__1::__basic_string_common"*
  tail call void @_ZNKSt3__121__basic_string_commonILb1EE20__throw_length_errorEv(%"class.std::__1::__basic_string_common"* %35) #20
  unreachable

36:                                               ; preds = %27
  %37 = icmp ult i64 %32, 23
  br i1 %37, label %46, label %38

38:                                               ; preds = %36
  %39 = add nuw i64 %32, 16
  %40 = and i64 %39, -16
  %41 = tail call i8* @_Znwm(i64 %40) #18
  %42 = getelementptr inbounds %"class.std::__1::basic_string", %"class.std::__1::basic_string"* %30, i64 0, i32 0, i32 0, i32 0, i32 0, i32 0, i32 0
  store i8* %41, i8** %42, align 8
  %43 = or i64 %40, -9223372036854775808
  %44 = getelementptr inbounds %"struct.std::__1::pair.205", %"struct.std::__1::pair.205"* %0, i64 0, i32 1, i32 0, i32 0, i32 0, i32 0, i32 0, i32 2
  store i64 %43, i64* %44, align 8
  %45 = getelementptr inbounds %"struct.std::__1::pair.205", %"struct.std::__1::pair.205"* %0, i64 0, i32 1, i32 0, i32 0, i32 0, i32 0, i32 0, i32 1
  store i64 %32, i64* %45, align 8
  br label %52

46:                                               ; preds = %36
  %47 = trunc i64 %32 to i8
  %48 = bitcast %"class.std::__1::basic_string"* %30 to %"struct.std::__1::basic_string<char, std::__1::char_traits<char>, std::__1::allocator<char> >::__short"*
  %49 = getelementptr inbounds %"struct.std::__1::basic_string<char, std::__1::char_traits<char>, std::__1::allocator<char> >::__short", %"struct.std::__1::basic_string<char, std::__1::char_traits<char>, std::__1::allocator<char> >::__short"* %48, i64 0, i32 1, i32 0
  store i8 %47, i8* %49, align 1
  %50 = bitcast %"class.std::__1::basic_string"* %30 to i8*
  %51 = icmp eq i64 %32, 0
  br i1 %51, label %54, label %52

52:                                               ; preds = %46, %38
  %53 = phi i8* [ %41, %38 ], [ %50, %46 ]
  tail call void @llvm.memcpy.p0i8.p0i8.i64(i8* align 1 %53, i8* align 1 %31, i64 %32, i1 false) #19
  br label %54

54:                                               ; preds = %46, %52
  %55 = phi i8* [ %50, %46 ], [ %53, %52 ]
  %56 = getelementptr inbounds i8, i8* %55, i64 %32
  store i8 0, i8* %56, align 1
  ret void
}

; Function Attrs: nounwind ssp uwtable
define linkonce_odr hidden void @_ZNSt3__14pairIKNS_12basic_stringIcNS_11char_traitsIcEENS_9allocatorIcEEEES6_EC2IRA28_KcRA26_SA_Lb0EEEOT_OT0_(%"struct.std::__1::pair.205"*, [28 x i8]* dereferenceable(28), [26 x i8]* dereferenceable(26)) unnamed_addr #1 comdat align 2 {
  %4 = getelementptr inbounds [28 x i8], [28 x i8]* %1, i64 0, i64 0
  %5 = tail call i64 @strlen(i8* %4) #19
  %6 = icmp ugt i64 %5, -17
  br i1 %6, label %7, label %9

7:                                                ; preds = %3
  %8 = bitcast %"struct.std::__1::pair.205"* %0 to %"class.std::__1::__basic_string_common"*
  tail call void @_ZNKSt3__121__basic_string_commonILb1EE20__throw_length_errorEv(%"class.std::__1::__basic_string_common"* %8) #20
  unreachable

9:                                                ; preds = %3
  %10 = icmp ult i64 %5, 23
  br i1 %10, label %19, label %11

11:                                               ; preds = %9
  %12 = add nuw i64 %5, 16
  %13 = and i64 %12, -16
  %14 = tail call i8* @_Znwm(i64 %13) #18
  %15 = getelementptr inbounds %"struct.std::__1::pair.205", %"struct.std::__1::pair.205"* %0, i64 0, i32 0, i32 0, i32 0, i32 0, i32 0, i32 0, i32 0
  store i8* %14, i8** %15, align 8
  %16 = or i64 %13, -9223372036854775808
  %17 = getelementptr inbounds %"struct.std::__1::pair.205", %"struct.std::__1::pair.205"* %0, i64 0, i32 0, i32 0, i32 0, i32 0, i32 0, i32 0, i32 2
  store i64 %16, i64* %17, align 8
  %18 = getelementptr inbounds %"struct.std::__1::pair.205", %"struct.std::__1::pair.205"* %0, i64 0, i32 0, i32 0, i32 0, i32 0, i32 0, i32 0, i32 1
  store i64 %5, i64* %18, align 8
  br label %25

19:                                               ; preds = %9
  %20 = trunc i64 %5 to i8
  %21 = bitcast %"struct.std::__1::pair.205"* %0 to %"struct.std::__1::basic_string<char, std::__1::char_traits<char>, std::__1::allocator<char> >::__short"*
  %22 = getelementptr inbounds %"struct.std::__1::basic_string<char, std::__1::char_traits<char>, std::__1::allocator<char> >::__short", %"struct.std::__1::basic_string<char, std::__1::char_traits<char>, std::__1::allocator<char> >::__short"* %21, i64 0, i32 1, i32 0
  store i8 %20, i8* %22, align 1
  %23 = bitcast %"struct.std::__1::pair.205"* %0 to i8*
  %24 = icmp eq i64 %5, 0
  br i1 %24, label %27, label %25

25:                                               ; preds = %19, %11
  %26 = phi i8* [ %14, %11 ], [ %23, %19 ]
  tail call void @llvm.memcpy.p0i8.p0i8.i64(i8* align 1 %26, i8* align 1 %4, i64 %5, i1 false) #19
  br label %27

27:                                               ; preds = %19, %25
  %28 = phi i8* [ %23, %19 ], [ %26, %25 ]
  %29 = getelementptr inbounds i8, i8* %28, i64 %5
  store i8 0, i8* %29, align 1
  %30 = getelementptr inbounds %"struct.std::__1::pair.205", %"struct.std::__1::pair.205"* %0, i64 0, i32 1
  %31 = getelementptr inbounds [26 x i8], [26 x i8]* %2, i64 0, i64 0
  %32 = tail call i64 @strlen(i8* %31) #19
  %33 = icmp ugt i64 %32, -17
  br i1 %33, label %34, label %36

34:                                               ; preds = %27
  %35 = bitcast %"class.std::__1::basic_string"* %30 to %"class.std::__1::__basic_string_common"*
