; ModuleID = '../../chrome/browser/engagement/site_engagement_helper.cc'
source_filename = "../../chrome/browser/engagement/site_engagement_helper.cc"
target datalayout = "e-m:e-i64:64-f80:128-n8:16:32:64-S128"
target triple = "x86_64-unknown-linux-gnu"

module asm ".symver exp, exp@GLIBC_2.2.5"
module asm ".symver exp2, exp2@GLIBC_2.2.5"
module asm ".symver exp2f, exp2f@GLIBC_2.2.5"
module asm ".symver expf, expf@GLIBC_2.2.5"
module asm ".symver lgamma, lgamma@GLIBC_2.2.5"
module asm ".symver lgammaf, lgammaf@GLIBC_2.2.5"
module asm ".symver lgammal, lgammal@GLIBC_2.2.5"
module asm ".symver log, log@GLIBC_2.2.5"
module asm ".symver log2, log2@GLIBC_2.2.5"
module asm ".symver log2f, log2f@GLIBC_2.2.5"
module asm ".symver logf, logf@GLIBC_2.2.5"
module asm ".symver pow, pow@GLIBC_2.2.5"
module asm ".symver powf, powf@GLIBC_2.2.5"

%"struct.base::trace_event::TraceCategory" = type { i8, i32, i8* }
%"class.site_engagement::SiteEngagementService::Helper" = type { %"class.content::WebContentsObserver", %"class.content::WebContentsUserData", %"class.site_engagement::SiteEngagementService::Helper::InputTracker", %"class.site_engagement::SiteEngagementService::Helper::MediaTracker", %"class.site_engagement::SiteEngagementService"* }
%"class.content::WebContentsObserver" = type { %"class.IPC::Listener", %"class.content::WebContents"* }
%"class.IPC::Listener" = type { i32 (...)** }
%"class.content::WebContents" = type <{ %"class.content::PageNavigator", %"class.base::SupportsUserData.base", [7 x i8] }>
%"class.content::PageNavigator" = type { i32 (...)** }
%"class.base::SupportsUserData.base" = type <{ i32 (...)**, %"class.std::__1::map", %"class.base::SequenceCheckerDoNothing" }>
%"class.std::__1::map" = type { %"class.std::__1::__tree" }
%"class.std::__1::__tree" = type { %"class.std::__1::__tree_end_node"*, %"class.std::__1::__compressed_pair", %"class.std::__1::__compressed_pair.1" }
%"class.std::__1::__tree_end_node" = type { %"class.std::__1::__tree_node_base"* }
%"class.std::__1::__tree_node_base" = type <{ %"class.std::__1::__tree_end_node", %"class.std::__1::__tree_node_base"*, %"class.std::__1::__tree_end_node"*, i8, [7 x i8] }>
%"class.std::__1::__compressed_pair" = type { %"struct.std::__1::__compressed_pair_elem" }
%"struct.std::__1::__compressed_pair_elem" = type { %"class.std::__1::__tree_end_node" }
%"class.std::__1::__compressed_pair.1" = type { %"struct.std::__1::__compressed_pair_elem.2" }
%"struct.std::__1::__compressed_pair_elem.2" = type { i64 }
%"class.base::SequenceCheckerDoNothing" = type { i8 }
%"class.content::WebContentsUserData" = type { %"class.base::SupportsUserData::Data" }
%"class.base::SupportsUserData::Data" = type { i32 (...)** }
%"class.site_engagement::SiteEngagementService::Helper::InputTracker" = type <{ %"class.site_engagement::SiteEngagementService::Helper::PeriodicTracker", %"class.content::WebContentsObserver", i8, [7 x i8] }>
%"class.site_engagement::SiteEngagementService::Helper::PeriodicTracker" = type { i32 (...)**, %"class.site_engagement::SiteEngagementService::Helper"*, %"class.std::__1::unique_ptr" }
%"class.std::__1::unique_ptr" = type { %"class.std::__1::__compressed_pair.4" }
%"class.std::__1::__compressed_pair.4" = type { %"struct.std::__1::__compressed_pair_elem.5" }
%"struct.std::__1::__compressed_pair_elem.5" = type { %"class.base::OneShotTimer"* }
%"class.base::OneShotTimer" = type { %"class.base::internal::TimerBase", %"class.base::OnceCallback" }
%"class.base::internal::TimerBase" = type { i32 (...)**, %class.scoped_refptr, %"class.base::SequenceCheckerDoNothing", %"class.base::internal::TaskDestructionDetector"*, %"class.base::Location", %"class.base::TimeDelta", %"class.base::TimeTicks", %"class.base::TimeTicks", %"class.base::TickClock"*, i8, %"class.base::WeakPtrFactory" }
%class.scoped_refptr = type { %"class.base::SequencedTaskRunner"* }
%"class.base::SequencedTaskRunner" = type { %"class.base::TaskRunner.base", [4 x i8] }
%"class.base::TaskRunner.base" = type <{ i32 (...)**, %"class.base::RefCountedThreadSafe" }>
%"class.base::RefCountedThreadSafe" = type { %"class.base::subtle::RefCountedThreadSafeBase" }
%"class.base::subtle::RefCountedThreadSafeBase" = type { %"class.base::AtomicRefCount" }
%"class.base::AtomicRefCount" = type { %"struct.std::__1::atomic" }
%"struct.std::__1::atomic" = type { %"struct.std::__1::__atomic_base" }
%"struct.std::__1::__atomic_base" = type { %"struct.std::__1::__atomic_base.6" }
%"struct.std::__1::__atomic_base.6" = type { %"struct.std::__1::__cxx_atomic_impl" }
%"struct.std::__1::__cxx_atomic_impl" = type { %"struct.std::__1::__cxx_atomic_base_impl" }
%"struct.std::__1::__cxx_atomic_base_impl" = type { i32 }
%"class.base::internal::TaskDestructionDetector" = type opaque
%"class.base::Location" = type { i8*, i8*, i32, i8* }
%"class.base::TimeDelta" = type { i64 }
%"class.base::TimeTicks" = type { %"class.base::time_internal::TimeBase" }
%"class.base::time_internal::TimeBase" = type { i64 }
%"class.base::TickClock" = type { i32 (...)** }
%"class.base::WeakPtrFactory" = type { %"class.base::internal::WeakPtrFactoryBase" }
%"class.base::internal::WeakPtrFactoryBase" = type { %"class.base::internal::WeakReferenceOwner", i64 }
%"class.base::internal::WeakReferenceOwner" = type { %class.scoped_refptr.7 }
%class.scoped_refptr.7 = type { %"class.base::internal::WeakReference::Flag"* }
%"class.base::internal::WeakReference::Flag" = type <{ %"class.base::RefCountedThreadSafe.8", %"class.base::AtomicFlag", [3 x i8] }>
%"class.base::RefCountedThreadSafe.8" = type { %"class.base::subtle::RefCountedThreadSafeBase" }
%"class.base::AtomicFlag" = type { %"struct.std::__1::atomic.9" }
%"struct.std::__1::atomic.9" = type { %"struct.std::__1::__atomic_base.10" }
%"struct.std::__1::__atomic_base.10" = type { %"struct.std::__1::__atomic_base.11" }
%"struct.std::__1::__atomic_base.11" = type { %"struct.std::__1::__cxx_atomic_impl.12" }
%"struct.std::__1::__cxx_atomic_impl.12" = type { %"struct.std::__1::__cxx_atomic_base_impl.13" }
%"struct.std::__1::__cxx_atomic_base_impl.13" = type { i8 }
%"class.base::OnceCallback" = type { %"class.base::internal::CallbackBase" }
%"class.base::internal::CallbackBase" = type { %class.scoped_refptr.14 }
%class.scoped_refptr.14 = type { %"class.base::internal::BindStateBase"* }
%"class.base::internal::BindStateBase" = type { %"class.base::RefCountedThreadSafe.15", void ()*, void (%"class.base::internal::BindStateBase"*)*, i1 (%"class.base::internal::BindStateBase"*, i32)* }
%"class.base::RefCountedThreadSafe.15" = type { %"class.base::subtle::RefCountedThreadSafeBase" }
%"class.site_engagement::SiteEngagementService::Helper::MediaTracker" = type { %"class.site_engagement::SiteEngagementService::Helper::PeriodicTracker", %"class.content::WebContentsObserver", %"class.std::__1::vector" }
%"class.std::__1::vector" = type { %"class.std::__1::__vector_base" }
%"class.std::__1::__vector_base" = type { %"struct.content::MediaPlayerId"*, %"struct.content::MediaPlayerId"*, %"class.std::__1::__compressed_pair.17" }
%"struct.content::MediaPlayerId" = type { %"struct.content::GlobalFrameRoutingId", i32 }
%"struct.content::GlobalFrameRoutingId" = type { i32, i32 }
%"class.std::__1::__compressed_pair.17" = type { %"struct.std::__1::__compressed_pair_elem.18" }
%"struct.std::__1::__compressed_pair_elem.18" = type { %"struct.content::MediaPlayerId"* }
%"class.site_engagement::SiteEngagementService" = type { %class.KeyedService, %"class.site_engagement::SiteEngagementScoreProvider", %"class.content::BrowserContext"*, %"class.base::Clock"*, %"class.base::Time", %"class.base::ObserverList", %"class.base::WeakPtrFactory.36" }
%class.KeyedService = type { i32 (...)** }
%"class.site_engagement::SiteEngagementScoreProvider" = type { i32 (...)** }
%"class.content::BrowserContext" = type { %"class.base::SupportsUserData.base", %"class.std::__1::unique_ptr.22" }
%"class.std::__1::unique_ptr.22" = type { %"class.std::__1::__compressed_pair.23" }
%"class.std::__1::__compressed_pair.23" = type { %"struct.std::__1::__compressed_pair_elem.24" }
%"struct.std::__1::__compressed_pair_elem.24" = type { %"class.content::BrowserContext::Impl"* }
%"class.content::BrowserContext::Impl" = type opaque
%"class.base::Clock" = type opaque
%"class.base::Time" = type { %"class.base::time_internal::TimeBase.28" }
%"class.base::time_internal::TimeBase.28" = type { i64 }
%"class.base::ObserverList" = type <{ %"class.std::__1::vector.29", %"class.base::LinkedList", i64, i32, [4 x i8] }>
%"class.std::__1::vector.29" = type { %"class.std::__1::__vector_base.30" }
%"class.std::__1::__vector_base.30" = type { %"class.base::internal::UncheckedObserverAdapter"*, %"class.base::internal::UncheckedObserverAdapter"*, %"class.std::__1::__compressed_pair.31" }
%"class.base::internal::UncheckedObserverAdapter" = type { i8* }
%"class.std::__1::__compressed_pair.31" = type { %"struct.std::__1::__compressed_pair_elem.32" }
%"struct.std::__1::__compressed_pair_elem.32" = type { %"class.base::internal::UncheckedObserverAdapter"* }
%"class.base::LinkedList" = type { %"class.base::LinkNode" }
%"class.base::LinkNode" = type { %"class.base::internal::LinkNodeBase" }
%"class.base::internal::LinkNodeBase" = type { %"class.base::internal::LinkNodeBase"*, %"class.base::internal::LinkNodeBase"* }
%"class.base::WeakPtrFactory.36" = type { %"class.base::internal::WeakPtrFactoryBase" }
%"class.blink::WebInputEvent" = type { i32 (...)**, float, %"class.gfx::Vector2dF", %"class.base::TimeTicks", i32, i32 }
%"class.gfx::Vector2dF" = type { float, float }
%"class.base::trace_event::TraceArguments" = type { i8, [2 x i8], [2 x i8*], [2 x %"union.base::trace_event::TraceValue"] }
%"union.base::trace_event::TraceValue" = type { i64 }
%"class.content::NavigationHandle" = type { %"class.base::SupportsUserData.base", [7 x i8] }
%"struct.content::WebContentsObserver::MediaPlayerInfo" = type { i8, i8 }
%"class.std::__1::__vector_base_common" = type { i8 }
%class.Profile = type { %"class.content::BrowserContext", %"class.std::__1::unique_ptr.37", i8, i8, i32, %"class.base::ObserverList.43", %"class.std::__1::unique_ptr.55" }
%"class.std::__1::unique_ptr.37" = type { %"class.std::__1::__compressed_pair.38" }
%"class.std::__1::__compressed_pair.38" = type { %"struct.std::__1::__compressed_pair_elem.39" }
%"struct.std::__1::__compressed_pair_elem.39" = type { %"class.content::ResourceContext"* }
%"class.content::ResourceContext" = type opaque
%"class.base::ObserverList.43" = type <{ %"class.std::__1::vector.44", %"class.base::LinkedList.52", i64, i32, [4 x i8] }>
%"class.std::__1::vector.44" = type { %"class.std::__1::__vector_base.45" }
%"class.std::__1::__vector_base.45" = type { %"class.base::internal::CheckedObserverAdapter"*, %"class.base::internal::CheckedObserverAdapter"*, %"class.std::__1::__compressed_pair.47" }
%"class.base::internal::CheckedObserverAdapter" = type { %"class.base::WeakPtr" }
%"class.base::WeakPtr" = type { %"class.base::internal::WeakPtrBase" }
%"class.base::internal::WeakPtrBase" = type { %"class.base::internal::WeakReference", i64 }
%"class.base::internal::WeakReference" = type { %class.scoped_refptr.46 }
%class.scoped_refptr.46 = type { %"class.base::internal::WeakReference::Flag"* }
%"class.std::__1::__compressed_pair.47" = type { %"struct.std::__1::__compressed_pair_elem.48" }
%"struct.std::__1::__compressed_pair_elem.48" = type { %"class.base::internal::CheckedObserverAdapter"* }
%"class.base::LinkedList.52" = type { %"class.base::LinkNode.53" }
%"class.base::LinkNode.53" = type { %"class.base::internal::LinkNodeBase" }
%"class.std::__1::unique_ptr.55" = type { %"class.std::__1::__compressed_pair.56" }
%"class.std::__1::__compressed_pair.56" = type { %"struct.std::__1::__compressed_pair_elem.57" }
%"struct.std::__1::__compressed_pair_elem.57" = type { %"class.variations::VariationsClient"* }
%"class.variations::VariationsClient" = type opaque
%"class.prerender::NoStatePrefetchContents" = type { %"class.content::WebContentsObserver", %"class.prerender::mojom::PrerenderCanceler", i8, %"class.base::TimeTicks", %"class.std::__1::unique_ptr.61", %"class.std::__1::basic_string", %"class.mojo::ReceiverSetBase", %"class.base::ObserverList.85", %"class.prerender::NoStatePrefetchManager"*, %"class.std::__1::unique_ptr.89", %class.GURL, %"struct.content::Referrer", %"class.absl::optional", %"class.content::BrowserContext"*, %"class.std::__1::vector.107", i8, i32, i8, i32, %"class.std::__1::unique_ptr.113", i32, %"class.gfx::Rect", i64, %"class.base::WeakPtrFactory.119" }
%"class.prerender::mojom::PrerenderCanceler" = type { i32 (...)** }
%"class.std::__1::unique_ptr.61" = type { %"class.std::__1::__compressed_pair.62" }
%"class.std::__1::__compressed_pair.62" = type { %"struct.std::__1::__compressed_pair_elem.63" }
%"struct.std::__1::__compressed_pair_elem.63" = type { %"class.content::WebContents"* }
%"class.std::__1::basic_string" = type { %"class.std::__1::__compressed_pair.67" }
%"class.std::__1::__compressed_pair.67" = type { %"struct.std::__1::__compressed_pair_elem.68" }
%"struct.std::__1::__compressed_pair_elem.68" = type { %"struct.std::__1::basic_string<char, std::__1::char_traits<char>, std::__1::allocator<char> >::__rep" }
%"struct.std::__1::basic_string<char, std::__1::char_traits<char>, std::__1::allocator<char> >::__rep" = type { %union.anon }
%union.anon = type { %"struct.std::__1::basic_string<char, std::__1::char_traits<char>, std::__1::allocator<char> >::__long" }
%"struct.std::__1::basic_string<char, std::__1::char_traits<char>, std::__1::allocator<char> >::__long" = type { i8*, i64, i64 }
%"class.mojo::ReceiverSetBase" = type { %"class.mojo::ReceiverSetState" }
%"class.mojo::ReceiverSetState" = type { %"class.base::RepeatingCallback", %"class.base::RepeatingCallback.72", i64, %"class.std::__1::map.73", i8*, i64, %"class.base::WeakPtrFactory.84" }
%"class.base::RepeatingCallback" = type { %"class.base::internal::CallbackBaseCopyable" }
%"class.base::internal::CallbackBaseCopyable" = type { %"class.base::internal::CallbackBase" }
%"class.base::RepeatingCallback.72" = type { %"class.base::internal::CallbackBaseCopyable" }
%"class.std::__1::map.73" = type { %"class.std::__1::__tree.74" }
%"class.std::__1::__tree.74" = type { %"class.std::__1::__tree_end_node"*, %"class.std::__1::__compressed_pair.75", %"class.std::__1::__compressed_pair.79" }
%"class.std::__1::__compressed_pair.75" = type { %"struct.std::__1::__compressed_pair_elem" }
%"class.std::__1::__compressed_pair.79" = type { %"struct.std::__1::__compressed_pair_elem.2" }
%"class.base::WeakPtrFactory.84" = type { %"class.base::internal::WeakPtrFactoryBase" }
%"class.base::ObserverList.85" = type <{ %"class.std::__1::vector.29", %"class.base::LinkedList.86", i64, i32, [4 x i8] }>
%"class.base::LinkedList.86" = type { %"class.base::LinkNode.87" }
%"class.base::LinkNode.87" = type { %"class.base::internal::LinkNodeBase" }
%"class.prerender::NoStatePrefetchManager" = type opaque
%"class.std::__1::unique_ptr.89" = type { %"class.std::__1::__compressed_pair.90" }
%"class.std::__1::__compressed_pair.90" = type { %"struct.std::__1::__compressed_pair_elem.91" }
%"struct.std::__1::__compressed_pair_elem.91" = type { %"class.prerender::NoStatePrefetchContentsDelegate"* }
%"class.prerender::NoStatePrefetchContentsDelegate" = type { i32 (...)** }
%class.GURL = type { %"class.std::__1::basic_string", i8, %"struct.url::Parsed", %"class.std::__1::unique_ptr.95" }
%"struct.url::Parsed" = type { %"struct.url::Component", %"struct.url::Component", %"struct.url::Component", %"struct.url::Component", %"struct.url::Component", %"struct.url::Component", %"struct.url::Component", %"struct.url::Component", i8, %"struct.url::Parsed"* }
%"struct.url::Component" = type { i32, i32 }
%"class.std::__1::unique_ptr.95" = type { %"class.std::__1::__compressed_pair.96" }
%"class.std::__1::__compressed_pair.96" = type { %"struct.std::__1::__compressed_pair_elem.97" }
%"struct.std::__1::__compressed_pair_elem.97" = type { %class.GURL* }
%"struct.content::Referrer" = type <{ %class.GURL, i32, [4 x i8] }>
%"class.absl::optional" = type { %"class.absl::optional_internal::optional_data" }
%"class.absl::optional_internal::optional_data" = type { %"class.absl::optional_internal::optional_data_base" }
%"class.absl::optional_internal::optional_data_base" = type { %"class.absl::optional_internal::optional_data_dtor_base" }
%"class.absl::optional_internal::optional_data_dtor_base" = type { i8, %union.anon.101 }
%union.anon.101 = type { %"class.url::Origin" }
%"class.url::Origin" = type { %"class.url::SchemeHostPort", %"class.absl::optional.102" }
%"class.url::SchemeHostPort" = type <{ %"class.std::__1::basic_string", %"class.std::__1::basic_string", i16, [6 x i8] }>
%"class.absl::optional.102" = type { %"class.absl::optional_internal::optional_data.103" }
%"class.absl::optional_internal::optional_data.103" = type { %"class.absl::optional_internal::optional_data_base.104" }
%"class.absl::optional_internal::optional_data_base.104" = type { %"class.absl::optional_internal::optional_data_dtor_base.105" }
%"class.absl::optional_internal::optional_data_dtor_base.105" = type { i8, %union.anon.106 }
%union.anon.106 = type { %"class.url::Origin::Nonce" }
%"class.url::Origin::Nonce" = type { %"class.base::UnguessableToken" }
%"class.base::UnguessableToken" = type { %"class.base::Token" }
%"class.base::Token" = type { i64, i64 }
%"class.std::__1::vector.107" = type { %"class.std::__1::__vector_base.108" }
%"class.std::__1::__vector_base.108" = type { %class.GURL*, %class.GURL*, %"class.std::__1::__compressed_pair.109" }
%"class.std::__1::__compressed_pair.109" = type { %"struct.std::__1::__compressed_pair_elem.97" }
%"class.std::__1::unique_ptr.113" = type { %"class.std::__1::__compressed_pair.114" }
%"class.std::__1::__compressed_pair.114" = type { %"struct.std::__1::__compressed_pair_elem.115" }
%"struct.std::__1::__compressed_pair_elem.115" = type { %"class.prerender::NoStatePrefetchContents::WebContentsDelegateImpl"* }
%"class.prerender::NoStatePrefetchContents::WebContentsDelegateImpl" = type opaque
%"class.gfx::Rect" = type { %"class.gfx::Point", %"class.gfx::Size" }
%"class.gfx::Point" = type { i32, i32 }
%"class.gfx::Size" = type { i32, i32 }
%"class.base::WeakPtrFactory.119" = type { %"class.base::internal::WeakPtrFactoryBase" }
%"class.IPC::Message" = type { %"class.base::Pickle", i8, %class.scoped_refptr.120 }
%"class.base::Pickle" = type { i32 (...)**, %"struct.base::Pickle::Header"*, i64, i64, i64 }
%"struct.base::Pickle::Header" = type { i32 }
%class.scoped_refptr.120 = type { %"class.IPC::MessageAttachmentSet"* }
%"class.IPC::MessageAttachmentSet" = type opaque
%"class.mojo::ScopedInterfaceEndpointHandle" = type { %class.scoped_refptr.121 }
%class.scoped_refptr.121 = type { %"class.mojo::ScopedInterfaceEndpointHandle::State"* }
%"class.mojo::ScopedInterfaceEndpointHandle::State" = type opaque
%"class.content::RenderFrameHost" = type { %"class.IPC::Listener", %"class.IPC::Sender" }
%"class.IPC::Sender" = type { i32 (...)** }
%"class.blink::mojom::CaptureHandleConfig" = type opaque
%"class.content::RenderViewHost" = type opaque
%"class.content::RenderProcessHost" = type opaque
%"struct.content::GlobalRequestID" = type { i32, i32 }
%"class.blink::mojom::ResourceLoadInfo" = type opaque
%"struct.content::CookieAccessDetails" = type <{ i32, [4 x i8], %class.GURL, %class.GURL, %"class.std::__1::vector.122", i8, [7 x i8] }>
%"class.std::__1::vector.122" = type { %"class.std::__1::__vector_base.123" }
%"class.std::__1::__vector_base.123" = type { %"class.net::CanonicalCookie"*, %"class.net::CanonicalCookie"*, %"class.std::__1::__compressed_pair.124" }
%"class.net::CanonicalCookie" = type { %"class.std::__1::basic_string", %"class.std::__1::basic_string", %"class.std::__1::basic_string", %"class.std::__1::basic_string", %"class.base::Time", %"class.base::Time", %"class.base::Time", i8, i8, i32, i32, i8, i32, i32 }
%"class.std::__1::__compressed_pair.124" = type { %"struct.std::__1::__compressed_pair_elem.125" }
%"struct.std::__1::__compressed_pair_elem.125" = type { %"class.net::CanonicalCookie"* }
%"struct.content::LoadCommittedDetails" = type opaque
%"struct.content::PrunedDetails" = type opaque
%"struct.content::EntryChangedDetails" = type opaque
%"class.content::NavigationEntry" = type opaque
%"class.base::FilePath" = type { %"class.std::__1::basic_string" }
%"struct.blink::UserAgentOverride" = type { %"class.std::__1::basic_string", %"class.absl::optional.129" }
%"class.absl::optional.129" = type { %"class.absl::optional_internal::optional_data.130" }
%"class.absl::optional_internal::optional_data.130" = type { %"class.absl::optional_internal::optional_data_base.131" }
%"class.absl::optional_internal::optional_data_base.131" = type { %"class.absl::optional_internal::optional_data_dtor_base.132" }
%"class.absl::optional_internal::optional_data_dtor_base.132" = type { i8, [7 x i8], %union.anon.133 }
%union.anon.133 = type { %"struct.blink::UserAgentMetadata" }
%"struct.blink::UserAgentMetadata" = type <{ %"class.std::__1::vector.134", %"class.std::__1::basic_string", %"class.std::__1::basic_string", %"class.std::__1::basic_string", %"class.std::__1::basic_string", %"class.std::__1::basic_string", i8, [7 x i8] }>
%"class.std::__1::vector.134" = type { %"class.std::__1::__vector_base.135" }
%"class.std::__1::__vector_base.135" = type { %"struct.blink::UserAgentBrandVersion"*, %"struct.blink::UserAgentBrandVersion"*, %"class.std::__1::__compressed_pair.136" }
%"struct.blink::UserAgentBrandVersion" = type { %"class.std::__1::basic_string", %"class.std::__1::basic_string" }
%"class.std::__1::__compressed_pair.136" = type { %"struct.std::__1::__compressed_pair_elem.137" }
%"struct.std::__1::__compressed_pair_elem.137" = type { %"struct.blink::UserAgentBrandVersion"* }
%"class.std::__1::vector.141" = type opaque
%"struct.content::AXEventNotificationDetails" = type opaque
%"class.std::__1::vector.142" = type opaque
%"class.std::__1::basic_string.143" = type { %"class.std::__1::__compressed_pair.144" }
%"class.std::__1::__compressed_pair.144" = type { %"struct.std::__1::__compressed_pair_elem.145" }
%"struct.std::__1::__compressed_pair_elem.145" = type { %"struct.std::__1::basic_string<char16_t, std::__1::char_traits<char16_t>, std::__1::allocator<char16_t> >::__rep" }
%"struct.std::__1::basic_string<char16_t, std::__1::char_traits<char16_t>, std::__1::allocator<char16_t> >::__rep" = type { %union.anon.146 }
%union.anon.146 = type { %"struct.std::__1::basic_string<char16_t, std::__1::char_traits<char16_t>, std::__1::allocator<char16_t> >::__long" }
%"struct.std::__1::basic_string<char16_t, std::__1::char_traits<char16_t>, std::__1::allocator<char16_t> >::__long" = type { i16*, i64, i64 }
%"class.absl::optional.152" = type opaque
%"class.content::RenderWidgetHost" = type opaque
%"struct.content::FocusedNodeDetails" = type opaque
%"class.absl::optional.153" = type { %"class.absl::optional_internal::optional_data.154" }
%"class.absl::optional_internal::optional_data.154" = type { %"class.absl::optional_internal::optional_data_base.155" }
%"class.absl::optional_internal::optional_data_base.155" = type { %"class.absl::optional_internal::optional_data_dtor_base.156" }
%"class.absl::optional_internal::optional_data_dtor_base.156" = type { i8, %union.anon.157 }
%union.anon.157 = type { %class.GURL }
%"class.mojo::ScopedHandleBase" = type { %"class.mojo::MessagePipeHandle" }
%"class.mojo::MessagePipeHandle" = type { %"class.mojo::Handle" }
%"class.mojo::Handle" = type { i32 }
%"struct.std::__1::pair" = type opaque

$_ZN15site_engagement21SiteEngagementService6Helper12InputTrackerD2Ev = comdat any

$_ZN3IPC8Listener18OnChannelConnectedEi = comdat any

$_ZN3IPC8Listener14OnChannelErrorEv = comdat any

$_ZN3IPC8Listener20OnBadMessageReceivedERKNS_7MessageE = comdat any

$_ZN3IPC8Listener28OnAssociatedInterfaceRequestERKNSt3__112basic_stringIcNS1_11char_traitsIcEENS1_9allocatorIcEEEEN4mojo29ScopedInterfaceEndpointHandleE = comdat any

$_ZN3IPC8Listener15OnChannelDeniedEv = comdat any

$_ZN3IPC8Listener20OnChannelListenErrorEv = comdat any

$_ZN7content19WebContentsObserver18RenderFrameCreatedEPNS_15RenderFrameHostE = comdat any

$_ZN7content19WebContentsObserver18RenderFrameDeletedEPNS_15RenderFrameHostE = comdat any

$_ZN7content19WebContentsObserver22RenderFrameHostChangedEPNS_15RenderFrameHostES2_ = comdat any

$_ZN7content19WebContentsObserver12FrameDeletedEi = comdat any

$_ZN7content19WebContentsObserver27RenderFrameHostStateChangedEPNS_15RenderFrameHostENS1_14LifecycleStateES3_ = comdat any

$_ZN7content19WebContentsObserver20CaptureTargetChangedEv = comdat any

$_ZN7content19WebContentsObserver27OnCaptureHandleConfigUpdateERKN5blink5mojom19CaptureHandleConfigE = comdat any

$_ZN7content19WebContentsObserver15RenderViewReadyEv = comdat any

$_ZN7content19WebContentsObserver17RenderViewDeletedEPNS_14RenderViewHostE = comdat any

$_ZN7content19WebContentsObserver17RenderProcessGoneEN4base17TerminationStatusE = comdat any

$_ZN7content19WebContentsObserver21RenderViewHostChangedEPNS_14RenderViewHostES2_ = comdat any

$_ZN7content19WebContentsObserver22OnRendererUnresponsiveEPNS_17RenderProcessHostE = comdat any

$_ZN7content19WebContentsObserver20OnRendererResponsiveEPNS_17RenderProcessHostE = comdat any

$_ZN7content19WebContentsObserver18DidStartNavigationEPNS_16NavigationHandleE = comdat any

$_ZN7content19WebContentsObserver21DidRedirectNavigationEPNS_16NavigationHandleE = comdat any

$_ZN7content19WebContentsObserver23ReadyToCommitNavigationEPNS_16NavigationHandleE = comdat any

$_ZN7content19WebContentsObserver17DidActivatePortalEPNS_11WebContentsEN4base9TimeTicksE = comdat any

$_ZN7content19WebContentsObserver15DidStartLoadingEv = comdat any

$_ZN7content19WebContentsObserver18DidReceiveResponseEv = comdat any

$_ZN7content19WebContentsObserver14DidStopLoadingEv = comdat any

$_ZN7content19WebContentsObserver19LoadProgressChangedEd = comdat any

$_ZN7content19WebContentsObserver28DocumentAvailableInMainFrameEPNS_15RenderFrameHostE = comdat any

$_ZN7content19WebContentsObserver34DocumentOnLoadCompletedInMainFrameEPNS_15RenderFrameHostE = comdat any

$_ZN7content19WebContentsObserver16DOMContentLoadedEPNS_15RenderFrameHostE = comdat any

$_ZN7content19WebContentsObserver13DidFinishLoadEPNS_15RenderFrameHostERK4GURL = comdat any

$_ZN7content19WebContentsObserver11DidFailLoadEPNS_15RenderFrameHostERK4GURLi = comdat any

$_ZN7content19WebContentsObserver29DidChangeVisibleSecurityStateEv = comdat any

$_ZN7content19WebContentsObserver30DidLoadResourceFromMemoryCacheEPNS_15RenderFrameHostERK4GURLRKNSt3__112basic_stringIcNS6_11char_traitsIcEENS6_9allocatorIcEEEEN7network5mojom18RequestDestinationE = comdat any

$_ZN7content19WebContentsObserver20ResourceLoadCompleteEPNS_15RenderFrameHostERKNS_15GlobalRequestIDERKN5blink5mojom16ResourceLoadInfoE = comdat any

$_ZN7content19WebContentsObserver17OnCookiesAccessedEPNS_15RenderFrameHostERKNS_19CookieAccessDetailsE = comdat any

$_ZN7content19WebContentsObserver17OnCookiesAccessedEPNS_16NavigationHandleERKNS_19CookieAccessDetailsE = comdat any

$_ZN7content19WebContentsObserver24NavigationEntryCommittedERKNS_20LoadCommittedDetailsE = comdat any

$_ZN7content19WebContentsObserver20NavigationListPrunedERKNS_13PrunedDetailsE = comdat any

$_ZN7content19WebContentsObserver24NavigationEntriesDeletedEv = comdat any

$_ZN7content19WebContentsObserver22NavigationEntryChangedERKNS_19EntryChangedDetailsE = comdat any

$_ZN7content19WebContentsObserver19DidOpenRequestedURLEPNS_11WebContentsEPNS_15RenderFrameHostERK4GURLRKNS_8ReferrerE21WindowOpenDispositionN2ui14PageTransitionEbb = comdat any

$_ZN7content19WebContentsObserver29DidFirstVisuallyNonEmptyPaintEv = comdat any

$_ZN7content19WebContentsObserver17NavigationStoppedEv = comdat any

$_ZN7content19WebContentsObserver21DidGetUserInteractionERKN5blink13WebInputEventE = comdat any

$_ZN7content19WebContentsObserver20DidGetIgnoredUIEventEv = comdat any

$_ZN7content19WebContentsObserver19MainFrameWasResizedEb = comdat any

$_ZN7content19WebContentsObserver16FrameNameChangedEPNS_15RenderFrameHostERKNSt3__112basic_stringIcNS3_11char_traitsIcEENS3_9allocatorIcEEEE = comdat any

$_ZN7content19WebContentsObserver27FrameReceivedUserActivationEPNS_15RenderFrameHostE = comdat any

$_ZN7content19WebContentsObserver24FrameDisplayStateChangedEPNS_15RenderFrameHostEb = comdat any

$_ZN7content19WebContentsObserver16FrameSizeChangedEPNS_15RenderFrameHostERKN3gfx4SizeE = comdat any

$_ZN7content19WebContentsObserver11TitleWasSetEPNS_15NavigationEntryE = comdat any

$_ZN7content19WebContentsObserver16AppCacheAccessedERK4GURLb = comdat any

$_ZN7content19WebContentsObserver21PepperInstanceCreatedEv = comdat any

$_ZN7content19WebContentsObserver21PepperInstanceDeletedEv = comdat any

$_ZN7content19WebContentsObserver18ViewportFitChangedEN5blink5mojom11ViewportFitE = comdat any

$_ZN7content19WebContentsObserver13PluginCrashedERKN4base8FilePathEi = comdat any

$_ZN7content19WebContentsObserver23PluginHungStatusChangedEiRKN4base8FilePathEb = comdat any

$_ZN7content19WebContentsObserver23InnerWebContentsCreatedEPNS_11WebContentsE = comdat any

$_ZN7content19WebContentsObserver24InnerWebContentsAttachedEPNS_11WebContentsEPNS_15RenderFrameHostEb = comdat any

$_ZN7content19WebContentsObserver24InnerWebContentsDetachedEPNS_11WebContentsE = comdat any

$_ZN7content19WebContentsObserver24DidCloneToNewWebContentsEPNS_11WebContentsES2_ = comdat any

$_ZN7content19WebContentsObserver20WebContentsDestroyedEv = comdat any

$_ZN7content19WebContentsObserver20UserAgentOverrideSetERKN5blink17UserAgentOverrideE = comdat any

$_ZN7content19WebContentsObserver19DidUpdateFaviconURLEPNS_15RenderFrameHostERKNSt3__16vectorIN4mojo9StructPtrIN5blink5mojom10FaviconURLEEENS3_9allocatorISA_EEEE = comdat any

$_ZN7content19WebContentsObserver19OnAudioStateChangedEb = comdat any

$_ZN7content19WebContentsObserver24OnFrameAudioStateChangedEPNS_15RenderFrameHostEb = comdat any

$_ZN7content19WebContentsObserver37OnIsConnectedToBluetoothDeviceChangedEb = comdat any

$_ZN7content19WebContentsObserver25DidUpdateAudioMutingStateEb = comdat any

$_ZN7content19WebContentsObserver29DidToggleFullscreenModeForTabEbb = comdat any

$_ZN7content19WebContentsObserver20DidAcquireFullscreenEPNS_15RenderFrameHostE = comdat any

$_ZN7content19WebContentsObserver32DidChangeVerticalScrollDirectionEN3viz23VerticalScrollDirectionE = comdat any

$_ZN7content19WebContentsObserver27BeforeFormRepostWarningShowEv = comdat any

$_ZN7content19WebContentsObserver17BeforeUnloadFiredEbRKN4base9TimeTicksE = comdat any

$_ZN7content19WebContentsObserver27BeforeUnloadDialogCancelledEv = comdat any

$_ZN7content19WebContentsObserver30AXTreeIDForMainFrameHasChangedEv = comdat any

$_ZN7content19WebContentsObserver26AccessibilityEventReceivedERKNS_26AXEventNotificationDetailsE = comdat any

$_ZN7content19WebContentsObserver36AccessibilityLocationChangesReceivedERKNSt3__16vectorINS_35AXLocationChangeNotificationDetailsENS1_9allocatorIS3_EEEE = comdat any

$_ZN7content19WebContentsObserver19DidChangeThemeColorEv = comdat any

$_ZN7content19WebContentsObserver24OnBackgroundColorChangedEv = comdat any

$_ZN7content19WebContentsObserver24OnDidAddMessageToConsoleEPNS_15RenderFrameHostEN5blink5mojom19ConsoleMessageLevelERKNSt3__112basic_stringIDsNS6_11char_traitsIDsEENS6_9allocatorIDsEEEEiSE_RKN4absl8optionalISC_EE = comdat any

$_ZN7content19WebContentsObserver19MediaStartedPlayingERKNS0_15MediaPlayerInfoERKNS_13MediaPlayerIdE = comdat any

$_ZN7content19WebContentsObserver19MediaStoppedPlayingERKNS0_15MediaPlayerInfoERKNS_13MediaPlayerIdENS0_18MediaStoppedReasonE = comdat any

$_ZN7content19WebContentsObserver12MediaResizedERKN3gfx4SizeERKNS_13MediaPlayerIdE = comdat any

$_ZN7content19WebContentsObserver33MediaEffectivelyFullscreenChangedEb = comdat any

$_ZN7content19WebContentsObserver28MediaPictureInPictureChangedEb = comdat any

$_ZN7content19WebContentsObserver23MediaMutedStatusChangedERKNS_13MediaPlayerIdEb = comdat any

$_ZN7content19WebContentsObserver20MediaBufferUnderflowERKNS_13MediaPlayerIdE = comdat any

$_ZN7content19WebContentsObserver15MediaPlayerSeekERKNS_13MediaPlayerIdE = comdat any

$_ZN7content19WebContentsObserver14MediaDestroyedERKNS_13MediaPlayerIdE = comdat any

$_ZN7content19WebContentsObserver24OnPageScaleFactorChangedEf = comdat any

$_ZN7content19WebContentsObserver7OnPasteEv = comdat any

$_ZN7content19WebContentsObserver20OnWebContentsFocusedEPNS_16RenderWidgetHostE = comdat any

$_ZN7content19WebContentsObserver22OnWebContentsLostFocusEPNS_16RenderWidgetHostE = comdat any

$_ZN7content19WebContentsObserver20OnFocusChangedInPageEPNS_18FocusedNodeDetailsE = comdat any

$_ZN7content19WebContentsObserver23DidUpdateWebManifestURLEPNS_15RenderFrameHostERKN4absl8optionalI4GURLEE = comdat any

$_ZN7content19WebContentsObserver27OnInterfaceRequestFromFrameEPNS_15RenderFrameHostERKNSt3__112basic_stringIcNS3_11char_traitsIcEENS3_9allocatorIcEEEEPN4mojo16ScopedHandleBaseINSC_17MessagePipeHandleEEE = comdat any

$_ZN7content19WebContentsObserver27AudioContextPlaybackStartedERKNSt3__14pairIPNS_15RenderFrameHostEiEE = comdat any

$_ZN7content19WebContentsObserver27AudioContextPlaybackStoppedERKNSt3__14pairIPNS_15RenderFrameHostEiEE = comdat any

$_ZN7content19WebContentsObserver23OnServiceWorkerAccessedEPNS_15RenderFrameHostERK4GURLNS_24AllowServiceWorkerResultE = comdat any

$_ZN7content19WebContentsObserver23OnServiceWorkerAccessedEPNS_16NavigationHandleERK4GURLNS_24AllowServiceWorkerResultE = comdat any

$_ZN15site_engagement21SiteEngagementService6Helper12InputTrackerD0Ev = comdat any

$_ZThn24_N15site_engagement21SiteEngagementService6Helper12InputTrackerD1Ev = comdat any

$_ZThn24_N15site_engagement21SiteEngagementService6Helper12InputTrackerD0Ev = comdat any

$_ZN7content19WebContentsObserver19DidFinishNavigationEPNS_16NavigationHandleE = comdat any

$_ZN7content19WebContentsObserver19OnVisibilityChangedENS_10VisibilityE = comdat any

$_ZN15site_engagement21SiteEngagementService6Helper15PeriodicTracker15TrackingStartedEv = comdat any

$_ZN15site_engagement21SiteEngagementService6Helper15PeriodicTracker15TrackingStoppedEv = comdat any

$_ZN4base8internal7InvokerINS0_9BindStateIMN15site_engagement21SiteEngagementService6Helper15PeriodicTrackerEFvvEJNS0_17UnretainedWrapperIS6_EEEEEFvvEE7RunOnceEPNS0_13BindStateBaseE = comdat any

$_ZN4base8internal9BindStateIMN15site_engagement21SiteEngagementService6Helper15PeriodicTrackerEFvvEJNS0_17UnretainedWrapperIS5_EEEE7DestroyEPKNS0_13BindStateBaseE = comdat any

@_ZN15site_engagement12_GLOBAL__N_139g_seconds_to_pause_engagement_detectionE = internal unnamed_addr global i32 10, align 4
@_ZN15site_engagement12_GLOBAL__N_132g_seconds_delay_after_navigationE = internal unnamed_addr global i32 10, align 4
@_ZN15site_engagement12_GLOBAL__N_126g_seconds_delay_after_showE = internal unnamed_addr global i32 5, align 4
@_ZTVN15site_engagement21SiteEngagementService6HelperE = hidden unnamed_addr constant { [109 x i8*], [5 x i8*] } { [109 x i8*] [i8* null, i8* null, i8* bitcast (i1 (%"class.content::WebContentsObserver"*, %"class.IPC::Message"*)* @_ZN7content19WebContentsObserver17OnMessageReceivedERKN3IPC7MessageE to i8*), i8* bitcast (void (%"class.IPC::Listener"*, i32)* @_ZN3IPC8Listener18OnChannelConnectedEi to i8*), i8* bitcast (void (%"class.IPC::Listener"*)* @_ZN3IPC8Listener14OnChannelErrorEv to i8*), i8* bitcast (void (%"class.IPC::Listener"*, %"class.IPC::Message"*)* @_ZN3IPC8Listener20OnBadMessageReceivedERKNS_7MessageE to i8*), i8* bitcast (void (%"class.IPC::Listener"*, %"class.std::__1::basic_string"*, %"class.mojo::ScopedInterfaceEndpointHandle"*)* @_ZN3IPC8Listener28OnAssociatedInterfaceRequestERKNSt3__112basic_stringIcNS1_11char_traitsIcEENS1_9allocatorIcEEEEN4mojo29ScopedInterfaceEndpointHandleE to i8*), i8* bitcast (void (%"class.IPC::Listener"*)* @_ZN3IPC8Listener15OnChannelDeniedEv to i8*), i8* bitcast (void (%"class.IPC::Listener"*)* @_ZN3IPC8Listener20OnChannelListenErrorEv to i8*), i8* bitcast (void (%"class.site_engagement::SiteEngagementService::Helper"*)* @_ZN15site_engagement21SiteEngagementService6HelperD2Ev to i8*), i8* bitcast (void (%"class.site_engagement::SiteEngagementService::Helper"*)* @_ZN15site_engagement21SiteEngagementService6HelperD0Ev to i8*), i8* bitcast (void (%"class.content::WebContentsObserver"*, %"class.content::RenderFrameHost"*)* @_ZN7content19WebContentsObserver18RenderFrameCreatedEPNS_15RenderFrameHostE to i8*), i8* bitcast (void (%"class.content::WebContentsObserver"*, %"class.content::RenderFrameHost"*)* @_ZN7content19WebContentsObserver18RenderFrameDeletedEPNS_15RenderFrameHostE to i8*), i8* bitcast (void (%"class.content::WebContentsObserver"*, %"class.content::RenderFrameHost"*, %"class.content::RenderFrameHost"*)* @_ZN7content19WebContentsObserver22RenderFrameHostChangedEPNS_15RenderFrameHostES2_ to i8*), i8* bitcast (void (%"class.content::WebContentsObserver"*, i32)* @_ZN7content19WebContentsObserver12FrameDeletedEi to i8*), i8* bitcast (void (%"class.content::WebContentsObserver"*, %"class.content::RenderFrameHost"*, i32, i32)* @_ZN7content19WebContentsObserver27RenderFrameHostStateChangedEPNS_15RenderFrameHostENS1_14LifecycleStateES3_ to i8*), i8* bitcast (void (%"class.content::WebContentsObserver"*)* @_ZN7content19WebContentsObserver20CaptureTargetChangedEv to i8*), i8* bitcast (void (%"class.content::WebContentsObserver"*, %"class.blink::mojom::CaptureHandleConfig"*)* @_ZN7content19WebContentsObserver27OnCaptureHandleConfigUpdateERKN5blink5mojom19CaptureHandleConfigE to i8*), i8* bitcast (void (%"class.content::WebContentsObserver"*)* @_ZN7content19WebContentsObserver15RenderViewReadyEv to i8*), i8* bitcast (void (%"class.content::WebContentsObserver"*, %"class.content::RenderViewHost"*)* @_ZN7content19WebContentsObserver17RenderViewDeletedEPNS_14RenderViewHostE to i8*), i8* bitcast (void (%"class.content::WebContentsObserver"*, i32)* @_ZN7content19WebContentsObserver17RenderProcessGoneEN4base17TerminationStatusE to i8*), i8* bitcast (void (%"class.content::WebContentsObserver"*, %"class.content::RenderViewHost"*, %"class.content::RenderViewHost"*)* @_ZN7content19WebContentsObserver21RenderViewHostChangedEPNS_14RenderViewHostES2_ to i8*), i8* bitcast (void (%"class.content::WebContentsObserver"*, %"class.content::RenderProcessHost"*)* @_ZN7content19WebContentsObserver22OnRendererUnresponsiveEPNS_17RenderProcessHostE to i8*), i8* bitcast (void (%"class.content::WebContentsObserver"*, %"class.content::RenderProcessHost"*)* @_ZN7content19WebContentsObserver20OnRendererResponsiveEPNS_17RenderProcessHostE to i8*), i8* bitcast (void (%"class.content::WebContentsObserver"*, %"class.content::NavigationHandle"*)* @_ZN7content19WebContentsObserver18DidStartNavigationEPNS_16NavigationHandleE to i8*), i8* bitcast (void (%"class.content::WebContentsObserver"*, %"class.content::NavigationHandle"*)* @_ZN7content19WebContentsObserver21DidRedirectNavigationEPNS_16NavigationHandleE to i8*), i8* bitcast (void (%"class.content::WebContentsObserver"*, %"class.content::NavigationHandle"*)* @_ZN7content19WebContentsObserver23ReadyToCommitNavigationEPNS_16NavigationHandleE to i8*), i8* bitcast (void (%"class.site_engagement::SiteEngagementService::Helper"*, %"class.content::NavigationHandle"*)* @_ZN15site_engagement21SiteEngagementService6Helper19DidFinishNavigationEPN7content16NavigationHandleE to i8*), i8* bitcast (void (%"class.content::WebContentsObserver"*, %"class.content::WebContents"*, i64)* @_ZN7content19WebContentsObserver17DidActivatePortalEPNS_11WebContentsEN4base9TimeTicksE to i8*), i8* bitcast (void (%"class.content::WebContentsObserver"*)* @_ZN7content19WebContentsObserver15DidStartLoadingEv to i8*), i8* bitcast (void (%"class.content::WebContentsObserver"*)* @_ZN7content19WebContentsObserver18DidReceiveResponseEv to i8*), i8* bitcast (void (%"class.content::WebContentsObserver"*)* @_ZN7content19WebContentsObserver14DidStopLoadingEv to i8*), i8* bitcast (void (%"class.content::WebContentsObserver"*, double)* @_ZN7content19WebContentsObserver19LoadProgressChangedEd to i8*), i8* bitcast (void (%"class.content::WebContentsObserver"*, %"class.content::RenderFrameHost"*)* @_ZN7content19WebContentsObserver28DocumentAvailableInMainFrameEPNS_15RenderFrameHostE to i8*), i8* bitcast (void (%"class.content::WebContentsObserver"*, %"class.content::RenderFrameHost"*)* @_ZN7content19WebContentsObserver34DocumentOnLoadCompletedInMainFrameEPNS_15RenderFrameHostE to i8*), i8* bitcast (void (%"class.content::WebContentsObserver"*, %"class.content::RenderFrameHost"*)* @_ZN7content19WebContentsObserver16DOMContentLoadedEPNS_15RenderFrameHostE to i8*), i8* bitcast (void (%"class.content::WebContentsObserver"*, %"class.content::RenderFrameHost"*, %class.GURL*)* @_ZN7content19WebContentsObserver13DidFinishLoadEPNS_15RenderFrameHostERK4GURL to i8*), i8* bitcast (void (%"class.content::WebContentsObserver"*, %"class.content::RenderFrameHost"*, %class.GURL*, i32)* @_ZN7content19WebContentsObserver11DidFailLoadEPNS_15RenderFrameHostERK4GURLi to i8*), i8* bitcast (void (%"class.content::WebContentsObserver"*)* @_ZN7content19WebContentsObserver29DidChangeVisibleSecurityStateEv to i8*), i8* bitcast (void (%"class.content::WebContentsObserver"*, %"class.content::RenderFrameHost"*, %class.GURL*, %"class.std::__1::basic_string"*, i32)* @_ZN7content19WebContentsObserver30DidLoadResourceFromMemoryCacheEPNS_15RenderFrameHostERK4GURLRKNSt3__112basic_stringIcNS6_11char_traitsIcEENS6_9allocatorIcEEEEN7network5mojom18RequestDestinationE to i8*), i8* bitcast (void (%"class.content::WebContentsObserver"*, %"class.content::RenderFrameHost"*, %"struct.content::GlobalRequestID"*, %"class.blink::mojom::ResourceLoadInfo"*)* @_ZN7content19WebContentsObserver20ResourceLoadCompleteEPNS_15RenderFrameHostERKNS_15GlobalRequestIDERKN5blink5mojom16ResourceLoadInfoE to i8*), i8* bitcast (void (%"class.content::WebContentsObserver"*, %"class.content::RenderFrameHost"*, %"struct.content::CookieAccessDetails"*)* @_ZN7content19WebContentsObserver17OnCookiesAccessedEPNS_15RenderFrameHostERKNS_19CookieAccessDetailsE to i8*), i8* bitcast (void (%"class.content::WebContentsObserver"*, %"class.content::NavigationHandle"*, %"struct.content::CookieAccessDetails"*)* @_ZN7content19WebContentsObserver17OnCookiesAccessedEPNS_16NavigationHandleERKNS_19CookieAccessDetailsE to i8*), i8* bitcast (void (%"class.content::WebContentsObserver"*, %"struct.content::LoadCommittedDetails"*)* @_ZN7content19WebContentsObserver24NavigationEntryCommittedERKNS_20LoadCommittedDetailsE to i8*), i8* bitcast (void (%"class.content::WebContentsObserver"*, %"struct.content::PrunedDetails"*)* @_ZN7content19WebContentsObserver20NavigationListPrunedERKNS_13PrunedDetailsE to i8*), i8* bitcast (void (%"class.content::WebContentsObserver"*)* @_ZN7content19WebContentsObserver24NavigationEntriesDeletedEv to i8*), i8* bitcast (void (%"class.content::WebContentsObserver"*, %"struct.content::EntryChangedDetails"*)* @_ZN7content19WebContentsObserver22NavigationEntryChangedERKNS_19EntryChangedDetailsE to i8*), i8* bitcast (void (%"class.content::WebContentsObserver"*, %"class.content::WebContents"*, %"class.content::RenderFrameHost"*, %class.GURL*, %"struct.content::Referrer"*, i32, i32, i1, i1)* @_ZN7content19WebContentsObserver19DidOpenRequestedURLEPNS_11WebContentsEPNS_15RenderFrameHostERK4GURLRKNS_8ReferrerE21WindowOpenDispositionN2ui14PageTransitionEbb to i8*), i8* bitcast (void (%"class.content::WebContentsObserver"*)* @_ZN7content19WebContentsObserver29DidFirstVisuallyNonEmptyPaintEv to i8*), i8* bitcast (void (%"class.content::WebContentsObserver"*)* @_ZN7content19WebContentsObserver17NavigationStoppedEv to i8*), i8* bitcast (void (%"class.content::WebContentsObserver"*, %"class.blink::WebInputEvent"*)* @_ZN7content19WebContentsObserver21DidGetUserInteractionERKN5blink13WebInputEventE to i8*), i8* bitcast (void (%"class.content::WebContentsObserver"*)* @_ZN7content19WebContentsObserver20DidGetIgnoredUIEventEv to i8*), i8* bitcast (void (%"class.site_engagement::SiteEngagementService::Helper"*, i32)* @_ZN15site_engagement21SiteEngagementService6Helper19OnVisibilityChangedEN7content10VisibilityE to i8*), i8* bitcast (void (%"class.content::WebContentsObserver"*, i1)* @_ZN7content19WebContentsObserver19MainFrameWasResizedEb to i8*), i8* bitcast (void (%"class.content::WebContentsObserver"*, %"class.content::RenderFrameHost"*, %"class.std::__1::basic_string"*)* @_ZN7content19WebContentsObserver16FrameNameChangedEPNS_15RenderFrameHostERKNSt3__112basic_stringIcNS3_11char_traitsIcEENS3_9allocatorIcEEEE to i8*), i8* bitcast (void (%"class.content::WebContentsObserver"*, %"class.content::RenderFrameHost"*)* @_ZN7content19WebContentsObserver27FrameReceivedUserActivationEPNS_15RenderFrameHostE to i8*), i8* bitcast (void (%"class.content::WebContentsObserver"*, %"class.content::RenderFrameHost"*, i1)* @_ZN7content19WebContentsObserver24FrameDisplayStateChangedEPNS_15RenderFrameHostEb to i8*), i8* bitcast (void (%"class.content::WebContentsObserver"*, %"class.content::RenderFrameHost"*, %"class.gfx::Size"*)* @_ZN7content19WebContentsObserver16FrameSizeChangedEPNS_15RenderFrameHostERKN3gfx4SizeE to i8*), i8* bitcast (void (%"class.content::WebContentsObserver"*, %"class.content::NavigationEntry"*)* @_ZN7content19WebContentsObserver11TitleWasSetEPNS_15NavigationEntryE to i8*), i8* bitcast (void (%"class.content::WebContentsObserver"*, %class.GURL*, i1)* @_ZN7content19WebContentsObserver16AppCacheAccessedERK4GURLb to i8*), i8* bitcast (void (%"class.content::WebContentsObserver"*)* @_ZN7content19WebContentsObserver21PepperInstanceCreatedEv to i8*), i8* bitcast (void (%"class.content::WebContentsObserver"*)* @_ZN7content19WebContentsObserver21PepperInstanceDeletedEv to i8*), i8* bitcast (void (%"class.content::WebContentsObserver"*, i32)* @_ZN7content19WebContentsObserver18ViewportFitChangedEN5blink5mojom11ViewportFitE to i8*), i8* bitcast (void (%"class.content::WebContentsObserver"*, %"class.base::FilePath"*, i32)* @_ZN7content19WebContentsObserver13PluginCrashedERKN4base8FilePathEi to i8*), i8* bitcast (void (%"class.content::WebContentsObserver"*, i32, %"class.base::FilePath"*, i1)* @_ZN7content19WebContentsObserver23PluginHungStatusChangedEiRKN4base8FilePathEb to i8*), i8* bitcast (void (%"class.content::WebContentsObserver"*, %"class.content::WebContents"*)* @_ZN7content19WebContentsObserver23InnerWebContentsCreatedEPNS_11WebContentsE to i8*), i8* bitcast (void (%"class.content::WebContentsObserver"*, %"class.content::WebContents"*, %"class.content::RenderFrameHost"*, i1)* @_ZN7content19WebContentsObserver24InnerWebContentsAttachedEPNS_11WebContentsEPNS_15RenderFrameHostEb to i8*), i8* bitcast (void (%"class.content::WebContentsObserver"*, %"class.content::WebContents"*)* @_ZN7content19WebContentsObserver24InnerWebContentsDetachedEPNS_11WebContentsE to i8*), i8* bitcast (void (%"class.content::WebContentsObserver"*, %"class.content::WebContents"*, %"class.content::WebContents"*)* @_ZN7content19WebContentsObserver24DidCloneToNewWebContentsEPNS_11WebContentsES2_ to i8*), i8* bitcast (void (%"class.content::WebContentsObserver"*)* @_ZN7content19WebContentsObserver20WebContentsDestroyedEv to i8*), i8* bitcast (void (%"class.content::WebContentsObserver"*, %"struct.blink::UserAgentOverride"*)* @_ZN7content19WebContentsObserver20UserAgentOverrideSetERKN5blink17UserAgentOverrideE to i8*), i8* bitcast (void (%"class.content::WebContentsObserver"*, %"class.content::RenderFrameHost"*, %"class.std::__1::vector.141"*)* @_ZN7content19WebContentsObserver19DidUpdateFaviconURLEPNS_15RenderFrameHostERKNSt3__16vectorIN4mojo9StructPtrIN5blink5mojom10FaviconURLEEENS3_9allocatorISA_EEEE to i8*), i8* bitcast (void (%"class.content::WebContentsObserver"*, i1)* @_ZN7content19WebContentsObserver19OnAudioStateChangedEb to i8*), i8* bitcast (void (%"class.content::WebContentsObserver"*, %"class.content::RenderFrameHost"*, i1)* @_ZN7content19WebContentsObserver24OnFrameAudioStateChangedEPNS_15RenderFrameHostEb to i8*), i8* bitcast (void (%"class.content::WebContentsObserver"*, i1)* @_ZN7content19WebContentsObserver37OnIsConnectedToBluetoothDeviceChangedEb to i8*), i8* bitcast (void (%"class.content::WebContentsObserver"*, i1)* @_ZN7content19WebContentsObserver25DidUpdateAudioMutingStateEb to i8*), i8* bitcast (void (%"class.content::WebContentsObserver"*, i1, i1)* @_ZN7content19WebContentsObserver29DidToggleFullscreenModeForTabEbb to i8*), i8* bitcast (void (%"class.content::WebContentsObserver"*, %"class.content::RenderFrameHost"*)* @_ZN7content19WebContentsObserver20DidAcquireFullscreenEPNS_15RenderFrameHostE to i8*), i8* bitcast (void (%"class.content::WebContentsObserver"*, i32)* @_ZN7content19WebContentsObserver32DidChangeVerticalScrollDirectionEN3viz23VerticalScrollDirectionE to i8*), i8* bitcast (void (%"class.content::WebContentsObserver"*)* @_ZN7content19WebContentsObserver27BeforeFormRepostWarningShowEv to i8*), i8* bitcast (void (%"class.content::WebContentsObserver"*, i1, %"class.base::TimeTicks"*)* @_ZN7content19WebContentsObserver17BeforeUnloadFiredEbRKN4base9TimeTicksE to i8*), i8* bitcast (void (%"class.content::WebContentsObserver"*)* @_ZN7content19WebContentsObserver27BeforeUnloadDialogCancelledEv to i8*), i8* bitcast (void (%"class.content::WebContentsObserver"*)* @_ZN7content19WebContentsObserver30AXTreeIDForMainFrameHasChangedEv to i8*), i8* bitcast (void (%"class.content::WebContentsObserver"*, %"struct.content::AXEventNotificationDetails"*)* @_ZN7content19WebContentsObserver26AccessibilityEventReceivedERKNS_26AXEventNotificationDetailsE to i8*), i8* bitcast (void (%"class.content::WebContentsObserver"*, %"class.std::__1::vector.142"*)* @_ZN7content19WebContentsObserver36AccessibilityLocationChangesReceivedERKNSt3__16vectorINS_35AXLocationChangeNotificationDetailsENS1_9allocatorIS3_EEEE to i8*), i8* bitcast (void (%"class.content::WebContentsObserver"*)* @_ZN7content19WebContentsObserver19DidChangeThemeColorEv to i8*), i8* bitcast (void (%"class.content::WebContentsObserver"*)* @_ZN7content19WebContentsObserver24OnBackgroundColorChangedEv to i8*), i8* bitcast (void (%"class.content::WebContentsObserver"*, %"class.content::RenderFrameHost"*, i32, %"class.std::__1::basic_string.143"*, i32, %"class.std::__1::basic_string.143"*, %"class.absl::optional.152"*)* @_ZN7content19WebContentsObserver24OnDidAddMessageToConsoleEPNS_15RenderFrameHostEN5blink5mojom19ConsoleMessageLevelERKNSt3__112basic_stringIDsNS6_11char_traitsIDsEENS6_9allocatorIDsEEEEiSE_RKN4absl8optionalISC_EE to i8*), i8* bitcast (void (%"class.content::WebContentsObserver"*, %"struct.content::WebContentsObserver::MediaPlayerInfo"*, %"struct.content::MediaPlayerId"*)* @_ZN7content19WebContentsObserver19MediaStartedPlayingERKNS0_15MediaPlayerInfoERKNS_13MediaPlayerIdE to i8*), i8* bitcast (void (%"class.content::WebContentsObserver"*, %"struct.content::WebContentsObserver::MediaPlayerInfo"*, %"struct.content::MediaPlayerId"*, i32)* @_ZN7content19WebContentsObserver19MediaStoppedPlayingERKNS0_15MediaPlayerInfoERKNS_13MediaPlayerIdENS0_18MediaStoppedReasonE to i8*), i8* bitcast (void (%"class.content::WebContentsObserver"*, %"class.gfx::Size"*, %"struct.content::MediaPlayerId"*)* @_ZN7content19WebContentsObserver12MediaResizedERKN3gfx4SizeERKNS_13MediaPlayerIdE to i8*), i8* bitcast (void (%"class.content::WebContentsObserver"*, i1)* @_ZN7content19WebContentsObserver33MediaEffectivelyFullscreenChangedEb to i8*), i8* bitcast (void (%"class.content::WebContentsObserver"*, i1)* @_ZN7content19WebContentsObserver28MediaPictureInPictureChangedEb to i8*), i8* bitcast (void (%"class.content::WebContentsObserver"*, %"struct.content::MediaPlayerId"*, i1)* @_ZN7content19WebContentsObserver23MediaMutedStatusChangedERKNS_13MediaPlayerIdEb to i8*), i8* bitcast (void (%"class.content::WebContentsObserver"*, %"struct.content::MediaPlayerId"*)* @_ZN7content19WebContentsObserver20MediaBufferUnderflowERKNS_13MediaPlayerIdE to i8*), i8* bitcast (void (%"class.content::WebContentsObserver"*, %"struct.content::MediaPlayerId"*)* @_ZN7content19WebContentsObserver15MediaPlayerSeekERKNS_13MediaPlayerIdE to i8*), i8* bitcast (void (%"class.content::WebContentsObserver"*, %"struct.content::MediaPlayerId"*)* @_ZN7content19WebContentsObserver14MediaDestroyedERKNS_13MediaPlayerIdE to i8*), i8* bitcast (void (%"class.content::WebContentsObserver"*, float)* @_ZN7content19WebContentsObserver24OnPageScaleFactorChangedEf to i8*), i8* bitcast (void (%"class.content::WebContentsObserver"*)* @_ZN7content19WebContentsObserver7OnPasteEv to i8*), i8* bitcast (i1 (%"class.content::WebContentsObserver"*, %"class.IPC::Message"*, %"class.content::RenderFrameHost"*)* @_ZN7content19WebContentsObserver17OnMessageReceivedERKN3IPC7MessageEPNS_15RenderFrameHostE to i8*), i8* bitcast (void (%"class.content::WebContentsObserver"*, %"class.content::RenderWidgetHost"*)* @_ZN7content19WebContentsObserver20OnWebContentsFocusedEPNS_16RenderWidgetHostE to i8*), i8* bitcast (void (%"class.content::WebContentsObserver"*, %"class.content::RenderWidgetHost"*)* @_ZN7content19WebContentsObserver22OnWebContentsLostFocusEPNS_16RenderWidgetHostE to i8*), i8* bitcast (void (%"class.content::WebContentsObserver"*, %"struct.content::FocusedNodeDetails"*)* @_ZN7content19WebContentsObserver20OnFocusChangedInPageEPNS_18FocusedNodeDetailsE to i8*), i8* bitcast (void (%"class.content::WebContentsObserver"*, %"class.content::RenderFrameHost"*, %"class.absl::optional.153"*)* @_ZN7content19WebContentsObserver23DidUpdateWebManifestURLEPNS_15RenderFrameHostERKN4absl8optionalI4GURLEE to i8*), i8* bitcast (void (%"class.content::WebContentsObserver"*, %"class.content::RenderFrameHost"*, %"class.std::__1::basic_string"*, %"class.mojo::ScopedHandleBase"*)* @_ZN7content19WebContentsObserver27OnInterfaceRequestFromFrameEPNS_15RenderFrameHostERKNSt3__112basic_stringIcNS3_11char_traitsIcEENS3_9allocatorIcEEEEPN4mojo16ScopedHandleBaseINSC_17MessagePipeHandleEEE to i8*), i8* bitcast (void (%"class.content::WebContentsObserver"*, %"struct.std::__1::pair"*)* @_ZN7content19WebContentsObserver27AudioContextPlaybackStartedERKNSt3__14pairIPNS_15RenderFrameHostEiEE to i8*), i8* bitcast (void (%"class.content::WebContentsObserver"*, %"struct.std::__1::pair"*)* @_ZN7content19WebContentsObserver27AudioContextPlaybackStoppedERKNSt3__14pairIPNS_15RenderFrameHostEiEE to i8*), i8* bitcast (void (%"class.content::WebContentsObserver"*, %"class.content::RenderFrameHost"*, %class.GURL*, i24)* @_ZN7content19WebContentsObserver23OnServiceWorkerAccessedEPNS_15RenderFrameHostERK4GURLNS_24AllowServiceWorkerResultE to i8*), i8* bitcast (void (%"class.content::WebContentsObserver"*, %"class.content::NavigationHandle"*, %class.GURL*, i24)* @_ZN7content19WebContentsObserver23OnServiceWorkerAccessedEPNS_16NavigationHandleERK4GURLNS_24AllowServiceWorkerResultE to i8*)], [5 x i8*] [i8* inttoptr (i64 -16 to i8*), i8* null, i8* bitcast (void (%"class.site_engagement::SiteEngagementService::Helper"*)* @_ZThn16_N15site_engagement21SiteEngagementService6HelperD1Ev to i8*), i8* bitcast (void (%"class.site_engagement::SiteEngagementService::Helper"*)* @_ZThn16_N15site_engagement21SiteEngagementService6HelperD0Ev to i8*), i8* bitcast (void ()* @_ZN4base16SupportsUserData4Data5CloneEv to i8*)] }, align 8
@_ZTVN15site_engagement21SiteEngagementService6Helper15PeriodicTrackerE = hidden unnamed_addr constant { [6 x i8*] } { [6 x i8*] [i8* null, i8* null, i8* bitcast (void (%"class.site_engagement::SiteEngagementService::Helper::PeriodicTracker"*)* @_ZN15site_engagement21SiteEngagementService6Helper15PeriodicTrackerD2Ev to i8*), i8* bitcast (void (%"class.site_engagement::SiteEngagementService::Helper::PeriodicTracker"*)* @_ZN15site_engagement21SiteEngagementService6Helper15PeriodicTrackerD0Ev to i8*), i8* bitcast (void (%"class.site_engagement::SiteEngagementService::Helper::PeriodicTracker"*)* @_ZN15site_engagement21SiteEngagementService6Helper15PeriodicTracker15TrackingStartedEv to i8*), i8* bitcast (void (%"class.site_engagement::SiteEngagementService::Helper::PeriodicTracker"*)* @_ZN15site_engagement21SiteEngagementService6Helper15PeriodicTracker15TrackingStoppedEv to i8*)] }, align 8
@.str = private unnamed_addr constant [11 x i8] c"StartTimer\00", align 1
@.str.1 = private unnamed_addr constant [58 x i8] c"../../chrome/browser/engagement/site_engagement_helper.cc\00", align 1
@_ZTVN15site_engagement21SiteEngagementService6Helper12InputTrackerE = hidden unnamed_addr constant { [7 x i8*], [109 x i8*] } { [7 x i8*] [i8* null, i8* null, i8* bitcast (void (%"class.site_engagement::SiteEngagementService::Helper::InputTracker"*)* @_ZN15site_engagement21SiteEngagementService6Helper12InputTrackerD2Ev to i8*), i8* bitcast (void (%"class.site_engagement::SiteEngagementService::Helper::InputTracker"*)* @_ZN15site_engagement21SiteEngagementService6Helper12InputTrackerD0Ev to i8*), i8* bitcast (void (%"class.site_engagement::SiteEngagementService::Helper::InputTracker"*)* @_ZN15site_engagement21SiteEngagementService6Helper12InputTracker15TrackingStartedEv to i8*), i8* bitcast (void (%"class.site_engagement::SiteEngagementService::Helper::InputTracker"*)* @_ZN15site_engagement21SiteEngagementService6Helper12InputTracker15TrackingStoppedEv to i8*), i8* bitcast (void (%"class.site_engagement::SiteEngagementService::Helper::InputTracker"*, %"class.blink::WebInputEvent"*)* @_ZN15site_engagement21SiteEngagementService6Helper12InputTracker21DidGetUserInteractionERKN5blink13WebInputEventE to i8*)], [109 x i8*] [i8* inttoptr (i64 -24 to i8*), i8* null, i8* bitcast (i1 (%"class.content::WebContentsObserver"*, %"class.IPC::Message"*)* @_ZN7content19WebContentsObserver17OnMessageReceivedERKN3IPC7MessageE to i8*), i8* bitcast (void (%"class.IPC::Listener"*, i32)* @_ZN3IPC8Listener18OnChannelConnectedEi to i8*), i8* bitcast (void (%"class.IPC::Listener"*)* @_ZN3IPC8Listener14OnChannelErrorEv to i8*), i8* bitcast (void (%"class.IPC::Listener"*, %"class.IPC::Message"*)* @_ZN3IPC8Listener20OnBadMessageReceivedERKNS_7MessageE to i8*), i8* bitcast (void (%"class.IPC::Listener"*, %"class.std::__1::basic_string"*, %"class.mojo::ScopedInterfaceEndpointHandle"*)* @_ZN3IPC8Listener28OnAssociatedInterfaceRequestERKNSt3__112basic_stringIcNS1_11char_traitsIcEENS1_9allocatorIcEEEEN4mojo29ScopedInterfaceEndpointHandleE to i8*), i8* bitcast (void (%"class.IPC::Listener"*)* @_ZN3IPC8Listener15OnChannelDeniedEv to i8*), i8* bitcast (void (%"class.IPC::Listener"*)* @_ZN3IPC8Listener20OnChannelListenErrorEv to i8*), i8* bitcast (void (%"class.site_engagement::SiteEngagementService::Helper::InputTracker"*)* @_ZThn24_N15site_engagement21SiteEngagementService6Helper12InputTrackerD1Ev to i8*), i8* bitcast (void (%"class.site_engagement::SiteEngagementService::Helper::InputTracker"*)* @_ZThn24_N15site_engagement21SiteEngagementService6Helper12InputTrackerD0Ev to i8*), i8* bitcast (void (%"class.content::WebContentsObserver"*, %"class.content::RenderFrameHost"*)* @_ZN7content19WebContentsObserver18RenderFrameCreatedEPNS_15RenderFrameHostE to i8*), i8* bitcast (void (%"class.content::WebContentsObserver"*, %"class.content::RenderFrameHost"*)* @_ZN7content19WebContentsObserver18RenderFrameDeletedEPNS_15RenderFrameHostE to i8*), i8* bitcast (void (%"class.content::WebContentsObserver"*, %"class.content::RenderFrameHost"*, %"class.content::RenderFrameHost"*)* @_ZN7content19WebContentsObserver22RenderFrameHostChangedEPNS_15RenderFrameHostES2_ to i8*), i8* bitcast (void (%"class.content::WebContentsObserver"*, i32)* @_ZN7content19WebContentsObserver12FrameDeletedEi to i8*), i8* bitcast (void (%"class.content::WebContentsObserver"*, %"class.content::RenderFrameHost"*, i32, i32)* @_ZN7content19WebContentsObserver27RenderFrameHostStateChangedEPNS_15RenderFrameHostENS1_14LifecycleStateES3_ to i8*), i8* bitcast (void (%"class.content::WebContentsObserver"*)* @_ZN7content19WebContentsObserver20CaptureTargetChangedEv to i8*), i8* bitcast (void (%"class.content::WebContentsObserver"*, %"class.blink::mojom::CaptureHandleConfig"*)* @_ZN7content19WebContentsObserver27OnCaptureHandleConfigUpdateERKN5blink5mojom19CaptureHandleConfigE to i8*), i8* bitcast (void (%"class.content::WebContentsObserver"*)* @_ZN7content19WebContentsObserver15RenderViewReadyEv to i8*), i8* bitcast (void (%"class.content::WebContentsObserver"*, %"class.content::RenderViewHost"*)* @_ZN7content19WebContentsObserver17RenderViewDeletedEPNS_14RenderViewHostE to i8*), i8* bitcast (void (%"class.content::WebContentsObserver"*, i32)* @_ZN7content19WebContentsObserver17RenderProcessGoneEN4base17TerminationStatusE to i8*), i8* bitcast (void (%"class.content::WebContentsObserver"*, %"class.content::RenderViewHost"*, %"class.content::RenderViewHost"*)* @_ZN7content19WebContentsObserver21RenderViewHostChangedEPNS_14RenderViewHostES2_ to i8*), i8* bitcast (void (%"class.content::WebContentsObserver"*, %"class.content::RenderProcessHost"*)* @_ZN7content19WebContentsObserver22OnRendererUnresponsiveEPNS_17RenderProcessHostE to i8*), i8* bitcast (void (%"class.content::WebContentsObserver"*, %"class.content::RenderProcessHost"*)* @_ZN7content19WebContentsObserver20OnRendererResponsiveEPNS_17RenderProcessHostE to i8*), i8* bitcast (void (%"class.content::WebContentsObserver"*, %"class.content::NavigationHandle"*)* @_ZN7content19WebContentsObserver18DidStartNavigationEPNS_16NavigationHandleE to i8*), i8* bitcast (void (%"class.content::WebContentsObserver"*, %"class.content::NavigationHandle"*)* @_ZN7content19WebContentsObserver21DidRedirectNavigationEPNS_16NavigationHandleE to i8*), i8* bitcast (void (%"class.content::WebContentsObserver"*, %"class.content::NavigationHandle"*)* @_ZN7content19WebContentsObserver23ReadyToCommitNavigationEPNS_16NavigationHandleE to i8*), i8* bitcast (void (%"class.content::WebContentsObserver"*, %"class.content::NavigationHandle"*)* @_ZN7content19WebContentsObserver19DidFinishNavigationEPNS_16NavigationHandleE to i8*), i8* bitcast (void (%"class.content::WebContentsObserver"*, %"class.content::WebContents"*, i64)* @_ZN7content19WebContentsObserver17DidActivatePortalEPNS_11WebContentsEN4base9TimeTicksE to i8*), i8* bitcast (void (%"class.content::WebContentsObserver"*)* @_ZN7content19WebContentsObserver15DidStartLoadingEv to i8*), i8* bitcast (void (%"class.content::WebContentsObserver"*)* @_ZN7content19WebContentsObserver18DidReceiveResponseEv to i8*), i8* bitcast (void (%"class.content::WebContentsObserver"*)* @_ZN7content19WebContentsObserver14DidStopLoadingEv to i8*), i8* bitcast (void (%"class.content::WebContentsObserver"*, double)* @_ZN7content19WebContentsObserver19LoadProgressChangedEd to i8*), i8* bitcast (void (%"class.content::WebContentsObserver"*, %"class.content::RenderFrameHost"*)* @_ZN7content19WebContentsObserver28DocumentAvailableInMainFrameEPNS_15RenderFrameHostE to i8*), i8* bitcast (void (%"class.content::WebContentsObserver"*, %"class.content::RenderFrameHost"*)* @_ZN7content19WebContentsObserver34DocumentOnLoadCompletedInMainFrameEPNS_15RenderFrameHostE to i8*), i8* bitcast (void (%"class.content::WebContentsObserver"*, %"class.content::RenderFrameHost"*)* @_ZN7content19WebContentsObserver16DOMContentLoadedEPNS_15RenderFrameHostE to i8*), i8* bitcast (void (%"class.content::WebContentsObserver"*, %"class.content::RenderFrameHost"*, %class.GURL*)* @_ZN7content19WebContentsObserver13DidFinishLoadEPNS_15RenderFrameHostERK4GURL to i8*), i8* bitcast (void (%"class.content::WebContentsObserver"*, %"class.content::RenderFrameHost"*, %class.GURL*, i32)* @_ZN7content19WebContentsObserver11DidFailLoadEPNS_15RenderFrameHostERK4GURLi to i8*), i8* bitcast (void (%"class.content::WebContentsObserver"*)* @_ZN7content19WebContentsObserver29DidChangeVisibleSecurityStateEv to i8*), i8* bitcast (void (%"class.content::WebContentsObserver"*, %"class.content::RenderFrameHost"*, %class.GURL*, %"class.std::__1::basic_string"*, i32)* @_ZN7content19WebContentsObserver30DidLoadResourceFromMemoryCacheEPNS_15RenderFrameHostERK4GURLRKNSt3__112basic_stringIcNS6_11char_traitsIcEENS6_9allocatorIcEEEEN7network5mojom18RequestDestinationE to i8*), i8* bitcast (void (%"class.content::WebContentsObserver"*, %"class.content::RenderFrameHost"*, %"struct.content::GlobalRequestID"*, %"class.blink::mojom::ResourceLoadInfo"*)* @_ZN7content19WebContentsObserver20ResourceLoadCompleteEPNS_15RenderFrameHostERKNS_15GlobalRequestIDERKN5blink5mojom16ResourceLoadInfoE to i8*), i8* bitcast (void (%"class.content::WebContentsObserver"*, %"class.content::RenderFrameHost"*, %"struct.content::CookieAccessDetails"*)* @_ZN7content19WebContentsObserver17OnCookiesAccessedEPNS_15RenderFrameHostERKNS_19CookieAccessDetailsE to i8*), i8* bitcast (void (%"class.content::WebContentsObserver"*, %"class.content::NavigationHandle"*, %"struct.content::CookieAccessDetails"*)* @_ZN7content19WebContentsObserver17OnCookiesAccessedEPNS_16NavigationHandleERKNS_19CookieAccessDetailsE to i8*), i8* bitcast (void (%"class.content::WebContentsObserver"*, %"struct.content::LoadCommittedDetails"*)* @_ZN7content19WebContentsObserver24NavigationEntryCommittedERKNS_20LoadCommittedDetailsE to i8*), i8* bitcast (void (%"class.content::WebContentsObserver"*, %"struct.content::PrunedDetails"*)* @_ZN7content19WebContentsObserver20NavigationListPrunedERKNS_13PrunedDetailsE to i8*), i8* bitcast (void (%"class.content::WebContentsObserver"*)* @_ZN7content19WebContentsObserver24NavigationEntriesDeletedEv to i8*), i8* bitcast (void (%"class.content::WebContentsObserver"*, %"struct.content::EntryChangedDetails"*)* @_ZN7content19WebContentsObserver22NavigationEntryChangedERKNS_19EntryChangedDetailsE to i8*), i8* bitcast (void (%"class.content::WebContentsObserver"*, %"class.content::WebContents"*, %"class.content::RenderFrameHost"*, %class.GURL*, %"struct.content::Referrer"*, i32, i32, i1, i1)* @_ZN7content19WebContentsObserver19DidOpenRequestedURLEPNS_11WebContentsEPNS_15RenderFrameHostERK4GURLRKNS_8ReferrerE21WindowOpenDispositionN2ui14PageTransitionEbb to i8*), i8* bitcast (void (%"class.content::WebContentsObserver"*)* @_ZN7content19WebContentsObserver29DidFirstVisuallyNonEmptyPaintEv to i8*), i8* bitcast (void (%"class.content::WebContentsObserver"*)* @_ZN7content19WebContentsObserver17NavigationStoppedEv to i8*), i8* bitcast (void (%"class.site_engagement::SiteEngagementService::Helper::InputTracker"*, %"class.blink::WebInputEvent"*)* @_ZThn24_N15site_engagement21SiteEngagementService6Helper12InputTracker21DidGetUserInteractionERKN5blink13WebInputEventE to i8*), i8* bitcast (void (%"class.content::WebContentsObserver"*)* @_ZN7content19WebContentsObserver20DidGetIgnoredUIEventEv to i8*), i8* bitcast (void (%"class.content::WebContentsObserver"*, i32)* @_ZN7content19WebContentsObserver19OnVisibilityChangedENS_10VisibilityE to i8*), i8* bitcast (void (%"class.content::WebContentsObserver"*, i1)* @_ZN7content19WebContentsObserver19MainFrameWasResizedEb to i8*), i8* bitcast (void (%"class.content::WebContentsObserver"*, %"class.content::RenderFrameHost"*, %"class.std::__1::basic_string"*)* @_ZN7content19WebContentsObserver16FrameNameChangedEPNS_15RenderFrameHostERKNSt3__112basic_stringIcNS3_11char_traitsIcEENS3_9allocatorIcEEEE to i8*), i8* bitcast (void (%"class.content::WebContentsObserver"*, %"class.content::RenderFrameHost"*)* @_ZN7content19WebContentsObserver27FrameReceivedUserActivationEPNS_15RenderFrameHostE to i8*), i8* bitcast (void (%"class.content::WebContentsObserver"*, %"class.content::RenderFrameHost"*, i1)* @_ZN7content19WebContentsObserver24FrameDisplayStateChangedEPNS_15RenderFrameHostEb to i8*), i8* bitcast (void (%"class.content::WebContentsObserver"*, %"class.content::RenderFrameHost"*, %"class.gfx::Size"*)* @_ZN7content19WebContentsObserver16FrameSizeChangedEPNS_15RenderFrameHostERKN3gfx4SizeE to i8*), i8* bitcast (void (%"class.content::WebContentsObserver"*, %"class.content::NavigationEntry"*)* @_ZN7content19WebContentsObserver11TitleWasSetEPNS_15NavigationEntryE to i8*), i8* bitcast (void (%"class.content::WebContentsObserver"*, %class.GURL*, i1)* @_ZN7content19WebContentsObserver16AppCacheAccessedERK4GURLb to i8*), i8* bitcast (void (%"class.content::WebContentsObserver"*)* @_ZN7content19WebContentsObserver21PepperInstanceCreatedEv to i8*), i8* bitcast (void (%"class.content::WebContentsObserver"*)* @_ZN7content19WebContentsObserver21PepperInstanceDeletedEv to i8*), i8* bitcast (void (%"class.content::WebContentsObserver"*, i32)* @_ZN7content19WebContentsObserver18ViewportFitChangedEN5blink5mojom11ViewportFitE to i8*), i8* bitcast (void (%"class.content::WebContentsObserver"*, %"class.base::FilePath"*, i32)* @_ZN7content19WebContentsObserver13PluginCrashedERKN4base8FilePathEi to i8*), i8* bitcast (void (%"class.content::WebContentsObserver"*, i32, %"class.base::FilePath"*, i1)* @_ZN7content19WebContentsObserver23PluginHungStatusChangedEiRKN4base8FilePathEb to i8*), i8* bitcast (void (%"class.content::WebContentsObserver"*, %"class.content::WebContents"*)* @_ZN7content19WebContentsObserver23InnerWebContentsCreatedEPNS_11WebContentsE to i8*), i8* bitcast (void (%"class.content::WebContentsObserver"*, %"class.content::WebContents"*, %"class.content::RenderFrameHost"*, i1)* @_ZN7content19WebContentsObserver24InnerWebContentsAttachedEPNS_11WebContentsEPNS_15RenderFrameHostEb to i8*), i8* bitcast (void (%"class.content::WebContentsObserver"*, %"class.content::WebContents"*)* @_ZN7content19WebContentsObserver24InnerWebContentsDetachedEPNS_11WebContentsE to i8*), i8* bitcast (void (%"class.content::WebContentsObserver"*, %"class.content::WebContents"*, %"class.content::WebContents"*)* @_ZN7content19WebContentsObserver24DidCloneToNewWebContentsEPNS_11WebContentsES2_ to i8*), i8* bitcast (void (%"class.content::WebContentsObserver"*)* @_ZN7content19WebContentsObserver20WebContentsDestroyedEv to i8*), i8* bitcast (void (%"class.content::WebContentsObserver"*, %"struct.blink::UserAgentOverride"*)* @_ZN7content19WebContentsObserver20UserAgentOverrideSetERKN5blink17UserAgentOverrideE to i8*), i8* bitcast (void (%"class.content::WebContentsObserver"*, %"class.content::RenderFrameHost"*, %"class.std::__1::vector.141"*)* @_ZN7content19WebContentsObserver19DidUpdateFaviconURLEPNS_15RenderFrameHostERKNSt3__16vectorIN4mojo9StructPtrIN5blink5mojom10FaviconURLEEENS3_9allocatorISA_EEEE to i8*), i8* bitcast (void (%"class.content::WebContentsObserver"*, i1)* @_ZN7content19WebContentsObserver19OnAudioStateChangedEb to i8*), i8* bitcast (void (%"class.content::WebContentsObserver"*, %"class.content::RenderFrameHost"*, i1)* @_ZN7content19WebContentsObserver24OnFrameAudioStateChangedEPNS_15RenderFrameHostEb to i8*), i8* bitcast (void (%"class.content::WebContentsObserver"*, i1)* @_ZN7content19WebContentsObserver37OnIsConnectedToBluetoothDeviceChangedEb to i8*), i8* bitcast (void (%"class.content::WebContentsObserver"*, i1)* @_ZN7content19WebContentsObserver25DidUpdateAudioMutingStateEb to i8*), i8* bitcast (void (%"class.content::WebContentsObserver"*, i1, i1)* @_ZN7content19WebContentsObserver29DidToggleFullscreenModeForTabEbb to i8*), i8* bitcast (void (%"class.content::WebContentsObserver"*, %"class.content::RenderFrameHost"*)* @_ZN7content19WebContentsObserver20DidAcquireFullscreenEPNS_15RenderFrameHostE to i8*), i8* bitcast (void (%"class.content::WebContentsObserver"*, i32)* @_ZN7content19WebContentsObserver32DidChangeVerticalScrollDirectionEN3viz23VerticalScrollDirectionE to i8*), i8* bitcast (void (%"class.content::WebContentsObserver"*)* @_ZN7content19WebContentsObserver27BeforeFormRepostWarningShowEv to i8*), i8* bitcast (void (%"class.content::WebContentsObserver"*, i1, %"class.base::TimeTicks"*)* @_ZN7content19WebContentsObserver17BeforeUnloadFiredEbRKN4base9TimeTicksE to i8*), i8* bitcast (void (%"class.content::WebContentsObserver"*)* @_ZN7content19WebContentsObserver27BeforeUnloadDialogCancelledEv to i8*), i8* bitcast (void (%"class.content::WebContentsObserver"*)* @_ZN7content19WebContentsObserver30AXTreeIDForMainFrameHasChangedEv to i8*), i8* bitcast (void (%"class.content::WebContentsObserver"*, %"struct.content::AXEventNotificationDetails"*)* @_ZN7content19WebContentsObserver26AccessibilityEventReceivedERKNS_26AXEventNotificationDetailsE to i8*), i8* bitcast (void (%"class.content::WebContentsObserver"*, %"class.std::__1::vector.142"*)* @_ZN7content19WebContentsObserver36AccessibilityLocationChangesReceivedERKNSt3__16vectorINS_35AXLocationChangeNotificationDetailsENS1_9allocatorIS3_EEEE to i8*), i8* bitcast (void (%"class.content::WebContentsObserver"*)* @_ZN7content19WebContentsObserver19DidChangeThemeColorEv to i8*), i8* bitcast (void (%"class.content::WebContentsObserver"*)* @_ZN7content19WebContentsObserver24OnBackgroundColorChangedEv to i8*), i8* bitcast (void (%"class.content::WebContentsObserver"*, %"class.content::RenderFrameHost"*, i32, %"class.std::__1::basic_string.143"*, i32, %"class.std::__1::basic_string.143"*, %"class.absl::optional.152"*)* @_ZN7content19WebContentsObserver24OnDidAddMessageToConsoleEPNS_15RenderFrameHostEN5blink5mojom19ConsoleMessageLevelERKNSt3__112basic_stringIDsNS6_11char_traitsIDsEENS6_9allocatorIDsEEEEiSE_RKN4absl8optionalISC_EE to i8*), i8* bitcast (void (%"class.content::WebContentsObserver"*, %"struct.content::WebContentsObserver::MediaPlayerInfo"*, %"struct.content::MediaPlayerId"*)* @_ZN7content19WebContentsObserver19MediaStartedPlayingERKNS0_15MediaPlayerInfoERKNS_13MediaPlayerIdE to i8*), i8* bitcast (void (%"class.content::WebContentsObserver"*, %"struct.content::WebContentsObserver::MediaPlayerInfo"*, %"struct.content::MediaPlayerId"*, i32)* @_ZN7content19WebContentsObserver19MediaStoppedPlayingERKNS0_15MediaPlayerInfoERKNS_13MediaPlayerIdENS0_18MediaStoppedReasonE to i8*), i8* bitcast (void (%"class.content::WebContentsObserver"*, %"class.gfx::Size"*, %"struct.content::MediaPlayerId"*)* @_ZN7content19WebContentsObserver12MediaResizedERKN3gfx4SizeERKNS_13MediaPlayerIdE to i8*), i8* bitcast (void (%"class.content::WebContentsObserver"*, i1)* @_ZN7content19WebContentsObserver33MediaEffectivelyFullscreenChangedEb to i8*), i8* bitcast (void (%"class.content::WebContentsObserver"*, i1)* @_ZN7content19WebContentsObserver28MediaPictureInPictureChangedEb to i8*), i8* bitcast (void (%"class.content::WebContentsObserver"*, %"struct.content::MediaPlayerId"*, i1)* @_ZN7content19WebContentsObserver23MediaMutedStatusChangedERKNS_13MediaPlayerIdEb to i8*), i8* bitcast (void (%"class.content::WebContentsObserver"*, %"struct.content::MediaPlayerId"*)* @_ZN7content19WebContentsObserver20MediaBufferUnderflowERKNS_13MediaPlayerIdE to i8*), i8* bitcast (void (%"class.content::WebContentsObserver"*, %"struct.content::MediaPlayerId"*)* @_ZN7content19WebContentsObserver15MediaPlayerSeekERKNS_13MediaPlayerIdE to i8*), i8* bitcast (void (%"class.content::WebContentsObserver"*, %"struct.content::MediaPlayerId"*)* @_ZN7content19WebContentsObserver14MediaDestroyedERKNS_13MediaPlayerIdE to i8*), i8* bitcast (void (%"class.content::WebContentsObserver"*, float)* @_ZN7content19WebContentsObserver24OnPageScaleFactorChangedEf to i8*), i8* bitcast (void (%"class.content::WebContentsObserver"*)* @_ZN7content19WebContentsObserver7OnPasteEv to i8*), i8* bitcast (i1 (%"class.content::WebContentsObserver"*, %"class.IPC::Message"*, %"class.content::RenderFrameHost"*)* @_ZN7content19WebContentsObserver17OnMessageReceivedERKN3IPC7MessageEPNS_15RenderFrameHostE to i8*), i8* bitcast (void (%"class.content::WebContentsObserver"*, %"class.content::RenderWidgetHost"*)* @_ZN7content19WebContentsObserver20OnWebContentsFocusedEPNS_16RenderWidgetHostE to i8*), i8* bitcast (void (%"class.content::WebContentsObserver"*, %"class.content::RenderWidgetHost"*)* @_ZN7content19WebContentsObserver22OnWebContentsLostFocusEPNS_16RenderWidgetHostE to i8*), i8* bitcast (void (%"class.content::WebContentsObserver"*, %"struct.content::FocusedNodeDetails"*)* @_ZN7content19WebContentsObserver20OnFocusChangedInPageEPNS_18FocusedNodeDetailsE to i8*), i8* bitcast (void (%"class.content::WebContentsObserver"*, %"class.content::RenderFrameHost"*, %"class.absl::optional.153"*)* @_ZN7content19WebContentsObserver23DidUpdateWebManifestURLEPNS_15RenderFrameHostERKN4absl8optionalI4GURLEE to i8*), i8* bitcast (void (%"class.content::WebContentsObserver"*, %"class.content::RenderFrameHost"*, %"class.std::__1::basic_string"*, %"class.mojo::ScopedHandleBase"*)* @_ZN7content19WebContentsObserver27OnInterfaceRequestFromFrameEPNS_15RenderFrameHostERKNSt3__112basic_stringIcNS3_11char_traitsIcEENS3_9allocatorIcEEEEPN4mojo16ScopedHandleBaseINSC_17MessagePipeHandleEEE to i8*), i8* bitcast (void (%"class.content::WebContentsObserver"*, %"struct.std::__1::pair"*)* @_ZN7content19WebContentsObserver27AudioContextPlaybackStartedERKNSt3__14pairIPNS_15RenderFrameHostEiEE to i8*), i8* bitcast (void (%"class.content::WebContentsObserver"*, %"struct.std::__1::pair"*)* @_ZN7content19WebContentsObserver27AudioContextPlaybackStoppedERKNSt3__14pairIPNS_15RenderFrameHostEiEE to i8*), i8* bitcast (void (%"class.content::WebContentsObserver"*, %"class.content::RenderFrameHost"*, %class.GURL*, i24)* @_ZN7content19WebContentsObserver23OnServiceWorkerAccessedEPNS_15RenderFrameHostERK4GURLNS_24AllowServiceWorkerResultE to i8*), i8* bitcast (void (%"class.content::WebContentsObserver"*, %"class.content::NavigationHandle"*, %class.GURL*, i24)* @_ZN7content19WebContentsObserver23OnServiceWorkerAccessedEPNS_16NavigationHandleERK4GURLNS_24AllowServiceWorkerResultE to i8*)] }, align 8
@_ZTVN15site_engagement21SiteEngagementService6Helper12MediaTrackerE = hidden unnamed_addr constant { [9 x i8*], [109 x i8*] } { [9 x i8*] [i8* null, i8* null, i8* bitcast (void (%"class.site_engagement::SiteEngagementService::Helper::MediaTracker"*)* @_ZN15site_engagement21SiteEngagementService6Helper12MediaTrackerD2Ev to i8*), i8* bitcast (void (%"class.site_engagement::SiteEngagementService::Helper::MediaTracker"*)* @_ZN15site_engagement21SiteEngagementService6Helper12MediaTrackerD0Ev to i8*), i8* bitcast (void (%"class.site_engagement::SiteEngagementService::Helper::MediaTracker"*)* @_ZN15site_engagement21SiteEngagementService6Helper12MediaTracker15TrackingStartedEv to i8*), i8* bitcast (void (%"class.site_engagement::SiteEngagementService::Helper::PeriodicTracker"*)* @_ZN15site_engagement21SiteEngagementService6Helper15PeriodicTracker15TrackingStoppedEv to i8*), i8* bitcast (void (%"class.site_engagement::SiteEngagementService::Helper::MediaTracker"*, %"class.content::NavigationHandle"*)* @_ZN15site_engagement21SiteEngagementService6Helper12MediaTracker19DidFinishNavigationEPN7content16NavigationHandleE to i8*), i8* bitcast (void (%"class.site_engagement::SiteEngagementService::Helper::MediaTracker"*, %"struct.content::WebContentsObserver::MediaPlayerInfo"*, %"struct.content::MediaPlayerId"*)* @_ZN15site_engagement21SiteEngagementService6Helper12MediaTracker19MediaStartedPlayingERKN7content19WebContentsObserver15MediaPlayerInfoERKNS3_13MediaPlayerIdE to i8*), i8* bitcast (void (%"class.site_engagement::SiteEngagementService::Helper::MediaTracker"*, %"struct.content::WebContentsObserver::MediaPlayerInfo"*, %"struct.content::MediaPlayerId"*, i32)* @_ZN15site_engagement21SiteEngagementService6Helper12MediaTracker19MediaStoppedPlayingERKN7content19WebContentsObserver15MediaPlayerInfoERKNS3_13MediaPlayerIdENS4_18MediaStoppedReasonE to i8*)], [109 x i8*] [i8* inttoptr (i64 -24 to i8*), i8* null, i8* bitcast (i1 (%"class.content::WebContentsObserver"*, %"class.IPC::Message"*)* @_ZN7content19WebContentsObserver17OnMessageReceivedERKN3IPC7MessageE to i8*), i8* bitcast (void (%"class.IPC::Listener"*, i32)* @_ZN3IPC8Listener18OnChannelConnectedEi to i8*), i8* bitcast (void (%"class.IPC::Listener"*)* @_ZN3IPC8Listener14OnChannelErrorEv to i8*), i8* bitcast (void (%"class.IPC::Listener"*, %"class.IPC::Message"*)* @_ZN3IPC8Listener20OnBadMessageReceivedERKNS_7MessageE to i8*), i8* bitcast (void (%"class.IPC::Listener"*, %"class.std::__1::basic_string"*, %"class.mojo::ScopedInterfaceEndpointHandle"*)* @_ZN3IPC8Listener28OnAssociatedInterfaceRequestERKNSt3__112basic_stringIcNS1_11char_traitsIcEENS1_9allocatorIcEEEEN4mojo29ScopedInterfaceEndpointHandleE to i8*), i8* bitcast (void (%"class.IPC::Listener"*)* @_ZN3IPC8Listener15OnChannelDeniedEv to i8*), i8* bitcast (void (%"class.IPC::Listener"*)* @_ZN3IPC8Listener20OnChannelListenErrorEv to i8*), i8* bitcast (void (%"class.site_engagement::SiteEngagementService::Helper::MediaTracker"*)* @_ZThn24_N15site_engagement21SiteEngagementService6Helper12MediaTrackerD1Ev to i8*), i8* bitcast (void (%"class.site_engagement::SiteEngagementService::Helper::MediaTracker"*)* @_ZThn24_N15site_engagement21SiteEngagementService6Helper12MediaTrackerD0Ev to i8*), i8* bitcast (void (%"class.content::WebContentsObserver"*, %"class.content::RenderFrameHost"*)* @_ZN7content19WebContentsObserver18RenderFrameCreatedEPNS_15RenderFrameHostE to i8*), i8* bitcast (void (%"class.content::WebContentsObserver"*, %"class.content::RenderFrameHost"*)* @_ZN7content19WebContentsObserver18RenderFrameDeletedEPNS_15RenderFrameHostE to i8*), i8* bitcast (void (%"class.content::WebContentsObserver"*, %"class.content::RenderFrameHost"*, %"class.content::RenderFrameHost"*)* @_ZN7content19WebContentsObserver22RenderFrameHostChangedEPNS_15RenderFrameHostES2_ to i8*), i8* bitcast (void (%"class.content::WebContentsObserver"*, i32)* @_ZN7content19WebContentsObserver12FrameDeletedEi to i8*), i8* bitcast (void (%"class.content::WebContentsObserver"*, %"class.content::RenderFrameHost"*, i32, i32)* @_ZN7content19WebContentsObserver27RenderFrameHostStateChangedEPNS_15RenderFrameHostENS1_14LifecycleStateES3_ to i8*), i8* bitcast (void (%"class.content::WebContentsObserver"*)* @_ZN7content19WebContentsObserver20CaptureTargetChangedEv to i8*), i8* bitcast (void (%"class.content::WebContentsObserver"*, %"class.blink::mojom::CaptureHandleConfig"*)* @_ZN7content19WebContentsObserver27OnCaptureHandleConfigUpdateERKN5blink5mojom19CaptureHandleConfigE to i8*), i8* bitcast (void (%"class.content::WebContentsObserver"*)* @_ZN7content19WebContentsObserver15RenderViewReadyEv to i8*), i8* bitcast (void (%"class.content::WebContentsObserver"*, %"class.content::RenderViewHost"*)* @_ZN7content19WebContentsObserver17RenderViewDeletedEPNS_14RenderViewHostE to i8*), i8* bitcast (void (%"class.content::WebContentsObserver"*, i32)* @_ZN7content19WebContentsObserver17RenderProcessGoneEN4base17TerminationStatusE to i8*), i8* bitcast (void (%"class.content::WebContentsObserver"*, %"class.content::RenderViewHost"*, %"class.content::RenderViewHost"*)* @_ZN7content19WebContentsObserver21RenderViewHostChangedEPNS_14RenderViewHostES2_ to i8*), i8* bitcast (void (%"class.content::WebContentsObserver"*, %"class.content::RenderProcessHost"*)* @_ZN7content19WebContentsObserver22OnRendererUnresponsiveEPNS_17RenderProcessHostE to i8*), i8* bitcast (void (%"class.content::WebContentsObserver"*, %"class.content::RenderProcessHost"*)* @_ZN7content19WebContentsObserver20OnRendererResponsiveEPNS_17RenderProcessHostE to i8*), i8* bitcast (void (%"class.content::WebContentsObserver"*, %"class.content::NavigationHandle"*)* @_ZN7content19WebContentsObserver18DidStartNavigationEPNS_16NavigationHandleE to i8*), i8* bitcast (void (%"class.content::WebContentsObserver"*, %"class.content::NavigationHandle"*)* @_ZN7content19WebContentsObserver21DidRedirectNavigationEPNS_16NavigationHandleE to i8*), i8* bitcast (void (%"class.content::WebContentsObserver"*, %"class.content::NavigationHandle"*)* @_ZN7content19WebContentsObserver23ReadyToCommitNavigationEPNS_16NavigationHandleE to i8*), i8* bitcast (void (%"class.site_engagement::SiteEngagementService::Helper::MediaTracker"*, %"class.content::NavigationHandle"*)* @_ZThn24_N15site_engagement21SiteEngagementService6Helper12MediaTracker19DidFinishNavigationEPN7content16NavigationHandleE to i8*), i8* bitcast (void (%"class.content::WebContentsObserver"*, %"class.content::WebContents"*, i64)* @_ZN7content19WebContentsObserver17DidActivatePortalEPNS_11WebContentsEN4base9TimeTicksE to i8*), i8* bitcast (void (%"class.content::WebContentsObserver"*)* @_ZN7content19WebContentsObserver15DidStartLoadingEv to i8*), i8* bitcast (void (%"class.content::WebContentsObserver"*)* @_ZN7content19WebContentsObserver18DidReceiveResponseEv to i8*), i8* bitcast (void (%"class.content::WebContentsObserver"*)* @_ZN7content19WebContentsObserver14DidStopLoadingEv to i8*), i8* bitcast (void (%"class.content::WebContentsObserver"*, double)* @_ZN7content19WebContentsObserver19LoadProgressChangedEd to i8*), i8* bitcast (void (%"class.content::WebContentsObserver"*, %"class.content::RenderFrameHost"*)* @_ZN7content19WebContentsObserver28DocumentAvailableInMainFrameEPNS_15RenderFrameHostE to i8*), i8* bitcast (void (%"class.content::WebContentsObserver"*, %"class.content::RenderFrameHost"*)* @_ZN7content19WebContentsObserver34DocumentOnLoadCompletedInMainFrameEPNS_15RenderFrameHostE to i8*), i8* bitcast (void (%"class.content::WebContentsObserver"*, %"class.content::RenderFrameHost"*)* @_ZN7content19WebContentsObserver16DOMContentLoadedEPNS_15RenderFrameHostE to i8*), i8* bitcast (void (%"class.content::WebContentsObserver"*, %"class.content::RenderFrameHost"*, %class.GURL*)* @_ZN7content19WebContentsObserver13DidFinishLoadEPNS_15RenderFrameHostERK4GURL to i8*), i8* bitcast (void (%"class.content::WebContentsObserver"*, %"class.content::RenderFrameHost"*, %class.GURL*, i32)* @_ZN7content19WebContentsObserver11DidFailLoadEPNS_15RenderFrameHostERK4GURLi to i8*), i8* bitcast (void (%"class.content::WebContentsObserver"*)* @_ZN7content19WebContentsObserver29DidChangeVisibleSecurityStateEv to i8*), i8* bitcast (void (%"class.content::WebContentsObserver"*, %"class.content::RenderFrameHost"*, %class.GURL*, %"class.std::__1::basic_string"*, i32)* @_ZN7content19WebContentsObserver30DidLoadResourceFromMemoryCacheEPNS_15RenderFrameHostERK4GURLRKNSt3__112basic_stringIcNS6_11char_traitsIcEENS6_9allocatorIcEEEEN7network5mojom18RequestDestinationE to i8*), i8* bitcast (void (%"class.content::WebContentsObserver"*, %"class.content::RenderFrameHost"*, %"struct.content::GlobalRequestID"*, %"class.blink::mojom::ResourceLoadInfo"*)* @_ZN7content19WebContentsObserver20ResourceLoadCompleteEPNS_15RenderFrameHostERKNS_15GlobalRequestIDERKN5blink5mojom16ResourceLoadInfoE to i8*), i8* bitcast (void (%"class.content::WebContentsObserver"*, %"class.content::RenderFrameHost"*, %"struct.content::CookieAccessDetails"*)* @_ZN7content19WebContentsObserver17OnCookiesAccessedEPNS_15RenderFrameHostERKNS_19CookieAccessDetailsE to i8*), i8* bitcast (void (%"class.content::WebContentsObserver"*, %"class.content::NavigationHandle"*, %"struct.content::CookieAccessDetails"*)* @_ZN7content19WebContentsObserver17OnCookiesAccessedEPNS_16NavigationHandleERKNS_19CookieAccessDetailsE to i8*), i8* bitcast (void (%"class.content::WebContentsObserver"*, %"struct.content::LoadCommittedDetails"*)* @_ZN7content19WebContentsObserver24NavigationEntryCommittedERKNS_20LoadCommittedDetailsE to i8*), i8* bitcast (void (%"class.content::WebContentsObserver"*, %"struct.content::PrunedDetails"*)* @_ZN7content19WebContentsObserver20NavigationListPrunedERKNS_13PrunedDetailsE to i8*), i8* bitcast (void (%"class.content::WebContentsObserver"*)* @_ZN7content19WebContentsObserver24NavigationEntriesDeletedEv to i8*), i8* bitcast (void (%"class.content::WebContentsObserver"*, %"struct.content::EntryChangedDetails"*)* @_ZN7content19WebContentsObserver22NavigationEntryChangedERKNS_19EntryChangedDetailsE to i8*), i8* bitcast (void (%"class.content::WebContentsObserver"*, %"class.content::WebContents"*, %"class.content::RenderFrameHost"*, %class.GURL*, %"struct.content::Referrer"*, i32, i32, i1, i1)* @_ZN7content19WebContentsObserver19DidOpenRequestedURLEPNS_11WebContentsEPNS_15RenderFrameHostERK4GURLRKNS_8ReferrerE21WindowOpenDispositionN2ui14PageTransitionEbb to i8*), i8* bitcast (void (%"class.content::WebContentsObserver"*)* @_ZN7content19WebContentsObserver29DidFirstVisuallyNonEmptyPaintEv to i8*), i8* bitcast (void (%"class.content::WebContentsObserver"*)* @_ZN7content19WebContentsObserver17NavigationStoppedEv to i8*), i8* bitcast (void (%"class.content::WebContentsObserver"*, %"class.blink::WebInputEvent"*)* @_ZN7content19WebContentsObserver21DidGetUserInteractionERKN5blink13WebInputEventE to i8*), i8* bitcast (void (%"class.content::WebContentsObserver"*)* @_ZN7content19WebContentsObserver20DidGetIgnoredUIEventEv to i8*), i8* bitcast (void (%"class.content::WebContentsObserver"*, i32)* @_ZN7content19WebContentsObserver19OnVisibilityChangedENS_10VisibilityE to i8*), i8* bitcast (void (%"class.content::WebContentsObserver"*, i1)* @_ZN7content19WebContentsObserver19MainFrameWasResizedEb to i8*), i8* bitcast (void (%"class.content::WebContentsObserver"*, %"class.content::RenderFrameHost"*, %"class.std::__1::basic_string"*)* @_ZN7content19WebContentsObserver16FrameNameChangedEPNS_15RenderFrameHostERKNSt3__112basic_stringIcNS3_11char_traitsIcEENS3_9allocatorIcEEEE to i8*), i8* bitcast (void (%"class.content::WebContentsObserver"*, %"class.content::RenderFrameHost"*)* @_ZN7content19WebContentsObserver27FrameReceivedUserActivationEPNS_15RenderFrameHostE to i8*), i8* bitcast (void (%"class.content::WebContentsObserver"*, %"class.content::RenderFrameHost"*, i1)* @_ZN7content19WebContentsObserver24FrameDisplayStateChangedEPNS_15RenderFrameHostEb to i8*), i8* bitcast (void (%"class.content::WebContentsObserver"*, %"class.content::RenderFrameHost"*, %"class.gfx::Size"*)* @_ZN7content19WebContentsObserver16FrameSizeChangedEPNS_15RenderFrameHostERKN3gfx4SizeE to i8*), i8* bitcast (void (%"class.content::WebContentsObserver"*, %"class.content::NavigationEntry"*)* @_ZN7content19WebContentsObserver11TitleWasSetEPNS_15NavigationEntryE to i8*), i8* bitcast (void (%"class.content::WebContentsObserver"*, %class.GURL*, i1)* @_ZN7content19WebContentsObserver16AppCacheAccessedERK4GURLb to i8*), i8* bitcast (void (%"class.content::WebContentsObserver"*)* @_ZN7content19WebContentsObserver21PepperInstanceCreatedEv to i8*), i8* bitcast (void (%"class.content::WebContentsObserver"*)* @_ZN7content19WebContentsObserver21PepperInstanceDeletedEv to i8*), i8* bitcast (void (%"class.content::WebContentsObserver"*, i32)* @_ZN7content19WebContentsObserver18ViewportFitChangedEN5blink5mojom11ViewportFitE to i8*), i8* bitcast (void (%"class.content::WebContentsObserver"*, %"class.base::FilePath"*, i32)* @_ZN7content19WebContentsObserver13PluginCrashedERKN4base8FilePathEi to i8*), i8* bitcast (void (%"class.content::WebContentsObserver"*, i32, %"class.base::FilePath"*, i1)* @_ZN7content19WebContentsObserver23PluginHungStatusChangedEiRKN4base8FilePathEb to i8*), i8* bitcast (void (%"class.content::WebContentsObserver"*, %"class.content::WebContents"*)* @_ZN7content19WebContentsObserver23InnerWebContentsCreatedEPNS_11WebContentsE to i8*), i8* bitcast (void (%"class.content::WebContentsObserver"*, %"class.content::WebContents"*, %"class.content::RenderFrameHost"*, i1)* @_ZN7content19WebContentsObserver24InnerWebContentsAttachedEPNS_11WebContentsEPNS_15RenderFrameHostEb to i8*), i8* bitcast (void (%"class.content::WebContentsObserver"*, %"class.content::WebContents"*)* @_ZN7content19WebContentsObserver24InnerWebContentsDetachedEPNS_11WebContentsE to i8*), i8* bitcast (void (%"class.content::WebContentsObserver"*, %"class.content::WebContents"*, %"class.content::WebContents"*)* @_ZN7content19WebContentsObserver24DidCloneToNewWebContentsEPNS_11WebContentsES2_ to i8*), i8* bitcast (void (%"class.content::WebContentsObserver"*)* @_ZN7content19WebContentsObserver20WebContentsDestroyedEv to i8*), i8* bitcast (void (%"class.content::WebContentsObserver"*, %"struct.blink::UserAgentOverride"*)* @_ZN7content19WebContentsObserver20UserAgentOverrideSetERKN5blink17UserAgentOverrideE to i8*), i8* bitcast (void (%"class.content::WebContentsObserver"*, %"class.content::RenderFrameHost"*, %"class.std::__1::vector.141"*)* @_ZN7content19WebContentsObserver19DidUpdateFaviconURLEPNS_15RenderFrameHostERKNSt3__16vectorIN4mojo9StructPtrIN5blink5mojom10FaviconURLEEENS3_9allocatorISA_EEEE to i8*), i8* bitcast (void (%"class.content::WebContentsObserver"*, i1)* @_ZN7content19WebContentsObserver19OnAudioStateChangedEb to i8*), i8* bitcast (void (%"class.content::WebContentsObserver"*, %"class.content::RenderFrameHost"*, i1)* @_ZN7content19WebContentsObserver24OnFrameAudioStateChangedEPNS_15RenderFrameHostEb to i8*), i8* bitcast (void (%"class.content::WebContentsObserver"*, i1)* @_ZN7content19WebContentsObserver37OnIsConnectedToBluetoothDeviceChangedEb to i8*), i8* bitcast (void (%"class.content::WebContentsObserver"*, i1)* @_ZN7content19WebContentsObserver25DidUpdateAudioMutingStateEb to i8*), i8* bitcast (void (%"class.content::WebContentsObserver"*, i1, i1)* @_ZN7content19WebContentsObserver29DidToggleFullscreenModeForTabEbb to i8*), i8* bitcast (void (%"class.content::WebContentsObserver"*, %"class.content::RenderFrameHost"*)* @_ZN7content19WebContentsObserver20DidAcquireFullscreenEPNS_15RenderFrameHostE to i8*), i8* bitcast (void (%"class.content::WebContentsObserver"*, i32)* @_ZN7content19WebContentsObserver32DidChangeVerticalScrollDirectionEN3viz23VerticalScrollDirectionE to i8*), i8* bitcast (void (%"class.content::WebContentsObserver"*)* @_ZN7content19WebContentsObserver27BeforeFormRepostWarningShowEv to i8*), i8* bitcast (void (%"class.content::WebContentsObserver"*, i1, %"class.base::TimeTicks"*)* @_ZN7content19WebContentsObserver17BeforeUnloadFiredEbRKN4base9TimeTicksE to i8*), i8* bitcast (void (%"class.content::WebContentsObserver"*)* @_ZN7content19WebContentsObserver27BeforeUnloadDialogCancelledEv to i8*), i8* bitcast (void (%"class.content::WebContentsObserver"*)* @_ZN7content19WebContentsObserver30AXTreeIDForMainFrameHasChangedEv to i8*), i8* bitcast (void (%"class.content::WebContentsObserver"*, %"struct.content::AXEventNotificationDetails"*)* @_ZN7content19WebContentsObserver26AccessibilityEventReceivedERKNS_26AXEventNotificationDetailsE to i8*), i8* bitcast (void (%"class.content::WebContentsObserver"*, %"class.std::__1::vector.142"*)* @_ZN7content19WebContentsObserver36AccessibilityLocationChangesReceivedERKNSt3__16vectorINS_35AXLocationChangeNotificationDetailsENS1_9allocatorIS3_EEEE to i8*), i8* bitcast (void (%"class.content::WebContentsObserver"*)* @_ZN7content19WebContentsObserver19DidChangeThemeColorEv to i8*), i8* bitcast (void (%"class.content::WebContentsObserver"*)* @_ZN7content19WebContentsObserver24OnBackgroundColorChangedEv to i8*), i8* bitcast (void (%"class.content::WebContentsObserver"*, %"class.content::RenderFrameHost"*, i32, %"class.std::__1::basic_string.143"*, i32, %"class.std::__1::basic_string.143"*, %"class.absl::optional.152"*)* @_ZN7content19WebContentsObserver24OnDidAddMessageToConsoleEPNS_15RenderFrameHostEN5blink5mojom19ConsoleMessageLevelERKNSt3__112basic_stringIDsNS6_11char_traitsIDsEENS6_9allocatorIDsEEEEiSE_RKN4absl8optionalISC_EE to i8*), i8* bitcast (void (%"class.site_engagement::SiteEngagementService::Helper::MediaTracker"*, %"struct.content::WebContentsObserver::MediaPlayerInfo"*, %"struct.content::MediaPlayerId"*)* @_ZThn24_N15site_engagement21SiteEngagementService6Helper12MediaTracker19MediaStartedPlayingERKN7content19WebContentsObserver15MediaPlayerInfoERKNS3_13MediaPlayerIdE to i8*), i8* bitcast (void (%"class.site_engagement::SiteEngagementService::Helper::MediaTracker"*, %"struct.content::WebContentsObserver::MediaPlayerInfo"*, %"struct.content::MediaPlayerId"*, i32)* @_ZThn24_N15site_engagement21SiteEngagementService6Helper12MediaTracker19MediaStoppedPlayingERKN7content19WebContentsObserver15MediaPlayerInfoERKNS3_13MediaPlayerIdENS4_18MediaStoppedReasonE to i8*), i8* bitcast (void (%"class.content::WebContentsObserver"*, %"class.gfx::Size"*, %"struct.content::MediaPlayerId"*)* @_ZN7content19WebContentsObserver12MediaResizedERKN3gfx4SizeERKNS_13MediaPlayerIdE to i8*), i8* bitcast (void (%"class.content::WebContentsObserver"*, i1)* @_ZN7content19WebContentsObserver33MediaEffectivelyFullscreenChangedEb to i8*), i8* bitcast (void (%"class.content::WebContentsObserver"*, i1)* @_ZN7content19WebContentsObserver28MediaPictureInPictureChangedEb to i8*), i8* bitcast (void (%"class.content::WebContentsObserver"*, %"struct.content::MediaPlayerId"*, i1)* @_ZN7content19WebContentsObserver23MediaMutedStatusChangedERKNS_13MediaPlayerIdEb to i8*), i8* bitcast (void (%"class.content::WebContentsObserver"*, %"struct.content::MediaPlayerId"*)* @_ZN7content19WebContentsObserver20MediaBufferUnderflowERKNS_13MediaPlayerIdE to i8*), i8* bitcast (void (%"class.content::WebContentsObserver"*, %"struct.content::MediaPlayerId"*)* @_ZN7content19WebContentsObserver15MediaPlayerSeekERKNS_13MediaPlayerIdE to i8*), i8* bitcast (void (%"class.content::WebContentsObserver"*, %"struct.content::MediaPlayerId"*)* @_ZN7content19WebContentsObserver14MediaDestroyedERKNS_13MediaPlayerIdE to i8*), i8* bitcast (void (%"class.content::WebContentsObserver"*, float)* @_ZN7content19WebContentsObserver24OnPageScaleFactorChangedEf to i8*), i8* bitcast (void (%"class.content::WebContentsObserver"*)* @_ZN7content19WebContentsObserver7OnPasteEv to i8*), i8* bitcast (i1 (%"class.content::WebContentsObserver"*, %"class.IPC::Message"*, %"class.content::RenderFrameHost"*)* @_ZN7content19WebContentsObserver17OnMessageReceivedERKN3IPC7MessageEPNS_15RenderFrameHostE to i8*), i8* bitcast (void (%"class.content::WebContentsObserver"*, %"class.content::RenderWidgetHost"*)* @_ZN7content19WebContentsObserver20OnWebContentsFocusedEPNS_16RenderWidgetHostE to i8*), i8* bitcast (void (%"class.content::WebContentsObserver"*, %"class.content::RenderWidgetHost"*)* @_ZN7content19WebContentsObserver22OnWebContentsLostFocusEPNS_16RenderWidgetHostE to i8*), i8* bitcast (void (%"class.content::WebContentsObserver"*, %"struct.content::FocusedNodeDetails"*)* @_ZN7content19WebContentsObserver20OnFocusChangedInPageEPNS_18FocusedNodeDetailsE to i8*), i8* bitcast (void (%"class.content::WebContentsObserver"*, %"class.content::RenderFrameHost"*, %"class.absl::optional.153"*)* @_ZN7content19WebContentsObserver23DidUpdateWebManifestURLEPNS_15RenderFrameHostERKN4absl8optionalI4GURLEE to i8*), i8* bitcast (void (%"class.content::WebContentsObserver"*, %"class.content::RenderFrameHost"*, %"class.std::__1::basic_string"*, %"class.mojo::ScopedHandleBase"*)* @_ZN7content19WebContentsObserver27OnInterfaceRequestFromFrameEPNS_15RenderFrameHostERKNSt3__112basic_stringIcNS3_11char_traitsIcEENS3_9allocatorIcEEEEPN4mojo16ScopedHandleBaseINSC_17MessagePipeHandleEEE to i8*), i8* bitcast (void (%"class.content::WebContentsObserver"*, %"struct.std::__1::pair"*)* @_ZN7content19WebContentsObserver27AudioContextPlaybackStartedERKNSt3__14pairIPNS_15RenderFrameHostEiEE to i8*), i8* bitcast (void (%"class.content::WebContentsObserver"*, %"struct.std::__1::pair"*)* @_ZN7content19WebContentsObserver27AudioContextPlaybackStoppedERKNSt3__14pairIPNS_15RenderFrameHostEiEE to i8*), i8* bitcast (void (%"class.content::WebContentsObserver"*, %"class.content::RenderFrameHost"*, %class.GURL*, i24)* @_ZN7content19WebContentsObserver23OnServiceWorkerAccessedEPNS_15RenderFrameHostERK4GURLNS_24AllowServiceWorkerResultE to i8*), i8* bitcast (void (%"class.content::WebContentsObserver"*, %"class.content::NavigationHandle"*, %class.GURL*, i24)* @_ZN7content19WebContentsObserver23OnServiceWorkerAccessedEPNS_16NavigationHandleERK4GURLNS_24AllowServiceWorkerResultE to i8*)] }, align 8
@_ZN4base11trace_event16CategoryRegistry11categories_E = external global [300 x %"struct.base::trace_event::TraceCategory"], align 16
@.str.2 = private unnamed_addr constant [16 x i8] c"RecordUserInput\00", align 1
@_ZN15site_engagement21SiteEngagementService6Helper12kUserDataKeyE = hidden local_unnamed_addr constant i32 0, align 4

@_ZN15site_engagement21SiteEngagementService6HelperD1Ev = hidden unnamed_addr alias void (%"class.site_engagement::SiteEngagementService::Helper"*), void (%"class.site_engagement::SiteEngagementService::Helper"*)* @_ZN15site_engagement21SiteEngagementService6HelperD2Ev
@_ZN15site_engagement21SiteEngagementService6Helper15PeriodicTrackerC1EPS1_ = hidden unnamed_addr alias void (%"class.site_engagement::SiteEngagementService::Helper::PeriodicTracker"*, %"class.site_engagement::SiteEngagementService::Helper"*), void (%"class.site_engagement::SiteEngagementService::Helper::PeriodicTracker"*, %"class.site_engagement::SiteEngagementService::Helper"*)* @_ZN15site_engagement21SiteEngagementService6Helper15PeriodicTrackerC2EPS1_
@_ZN15site_engagement21SiteEngagementService6Helper15PeriodicTrackerD1Ev = hidden unnamed_addr alias void (%"class.site_engagement::SiteEngagementService::Helper::PeriodicTracker"*), void (%"class.site_engagement::SiteEngagementService::Helper::PeriodicTracker"*)* @_ZN15site_engagement21SiteEngagementService6Helper15PeriodicTrackerD2Ev
@_ZN15site_engagement21SiteEngagementService6Helper12InputTrackerC1EPS1_PN7content11WebContentsE = hidden unnamed_addr alias void (%"class.site_engagement::SiteEngagementService::Helper::InputTracker"*, %"class.site_engagement::SiteEngagementService::Helper"*, %"class.content::WebContents"*), void (%"class.site_engagement::SiteEngagementService::Helper::InputTracker"*, %"class.site_engagement::SiteEngagementService::Helper"*, %"class.content::WebContents"*)* @_ZN15site_engagement21SiteEngagementService6Helper12InputTrackerC2EPS1_PN7content11WebContentsE
@_ZN15site_engagement21SiteEngagementService6Helper12MediaTrackerC1EPS1_PN7content11WebContentsE = hidden unnamed_addr alias void (%"class.site_engagement::SiteEngagementService::Helper::MediaTracker"*, %"class.site_engagement::SiteEngagementService::Helper"*, %"class.content::WebContents"*), void (%"class.site_engagement::SiteEngagementService::Helper::MediaTracker"*, %"class.site_engagement::SiteEngagementService::Helper"*, %"class.content::WebContents"*)* @_ZN15site_engagement21SiteEngagementService6Helper12MediaTrackerC2EPS1_PN7content11WebContentsE
@_ZN15site_engagement21SiteEngagementService6Helper12MediaTrackerD1Ev = hidden unnamed_addr alias void (%"class.site_engagement::SiteEngagementService::Helper::MediaTracker"*), void (%"class.site_engagement::SiteEngagementService::Helper::MediaTracker"*)* @_ZN15site_engagement21SiteEngagementService6Helper12MediaTrackerD2Ev
@_ZN15site_engagement21SiteEngagementService6HelperC1EPN7content11WebContentsE = hidden unnamed_addr alias void (%"class.site_engagement::SiteEngagementService::Helper"*, %"class.content::WebContents"*), void (%"class.site_engagement::SiteEngagementService::Helper"*, %"class.content::WebContents"*)* @_ZN15site_engagement21SiteEngagementService6HelperC2EPN7content11WebContentsE

; Function Attrs: nofree norecurse nounwind ssp uwtable writeonly
define hidden void @_ZN15site_engagement21SiteEngagementService6Helper31SetSecondsBetweenUserInputCheckEi(i32) local_unnamed_addr #0 align 2 {
  store i32 %0, i32* @_ZN15site_engagement12_GLOBAL__N_139g_seconds_to_pause_engagement_detectionE, align 4
  ret void
}

; Function Attrs: nofree norecurse nounwind ssp uwtable writeonly
define hidden void @_ZN15site_engagement21SiteEngagementService6Helper38SetSecondsTrackingDelayAfterNavigationEi(i32) local_unnamed_addr #0 align 2 {
  store i32 %0, i32* @_ZN15site_engagement12_GLOBAL__N_132g_seconds_delay_after_navigationE, align 4
  ret void
}

; Function Attrs: nofree norecurse nounwind ssp uwtable writeonly
define hidden void @_ZN15site_engagement21SiteEngagementService6Helper32SetSecondsTrackingDelayAfterShowEi(i32) local_unnamed_addr #0 align 2 {
  store i32 %0, i32* @_ZN15site_engagement12_GLOBAL__N_126g_seconds_delay_after_showE, align 4
  ret void
}

; Function Attrs: nounwind ssp uwtable
define hidden void @_ZN15site_engagement21SiteEngagementService6HelperD2Ev(%"class.site_engagement::SiteEngagementService::Helper"*) unnamed_addr #1 align 2 {
  %2 = getelementptr inbounds %"class.site_engagement::SiteEngagementService::Helper", %"class.site_engagement::SiteEngagementService::Helper"* %0, i64 0, i32 0, i32 0, i32 0
  store i32 (...)** bitcast (i8** getelementptr inbounds ({ [109 x i8*], [5 x i8*] }, { [109 x i8*], [5 x i8*] }* @_ZTVN15site_engagement21SiteEngagementService6HelperE, i64 0, inrange i32 0, i64 2) to i32 (...)**), i32 (...)*** %2, align 8
  %3 = getelementptr inbounds %"class.site_engagement::SiteEngagementService::Helper", %"class.site_engagement::SiteEngagementService::Helper"* %0, i64 0, i32 1, i32 0, i32 0
  store i32 (...)** bitcast (i8** getelementptr inbounds ({ [109 x i8*], [5 x i8*] }, { [109 x i8*], [5 x i8*] }* @_ZTVN15site_engagement21SiteEngagementService6HelperE, i64 0, inrange i32 1, i64 2) to i32 (...)**), i32 (...)*** %3, align 8
  %4 = getelementptr inbounds %"class.site_engagement::SiteEngagementService::Helper", %"class.site_engagement::SiteEngagementService::Helper"* %0, i64 0, i32 0
  %5 = tail call %"class.content::WebContents"* @_ZNK7content19WebContentsObserver12web_contentsEv(%"class.content::WebContentsObserver"* %4) #9
  %6 = icmp eq %"class.content::WebContents"* %5, null
  br i1 %6, label %32, label %7

7:                                                ; preds = %1
  %8 = getelementptr inbounds %"class.site_engagement::SiteEngagementService::Helper", %"class.site_engagement::SiteEngagementService::Helper"* %0, i64 0, i32 2, i32 0
  %9 = bitcast %"class.site_engagement::SiteEngagementService::Helper::PeriodicTracker"* %8 to void (%"class.site_engagement::SiteEngagementService::Helper::PeriodicTracker"*)***
  %10 = load void (%"class.site_engagement::SiteEngagementService::Helper::PeriodicTracker"*)**, void (%"class.site_engagement::SiteEngagementService::Helper::PeriodicTracker"*)*** %9, align 8
  %11 = getelementptr inbounds void (%"class.site_engagement::SiteEngagementService::Helper::PeriodicTracker"*)*, void (%"class.site_engagement::SiteEngagementService::Helper::PeriodicTracker"*)** %10, i64 3
  %12 = load void (%"class.site_engagement::SiteEngagementService::Helper::PeriodicTracker"*)*, void (%"class.site_engagement::SiteEngagementService::Helper::PeriodicTracker"*)** %11, align 8
  tail call void %12(%"class.site_engagement::SiteEngagementService::Helper::PeriodicTracker"* %8) #9
  %13 = getelementptr inbounds %"class.site_engagement::SiteEngagementService::Helper", %"class.site_engagement::SiteEngagementService::Helper"* %0, i64 0, i32 2, i32 0, i32 2, i32 0, i32 0, i32 0
  %14 = load %"class.base::OneShotTimer"*, %"class.base::OneShotTimer"** %13, align 8
  %15 = getelementptr inbounds %"class.base::OneShotTimer", %"class.base::OneShotTimer"* %14, i64 0, i32 0
  %16 = bitcast %"class.base::OneShotTimer"* %14 to void (%"class.base::internal::TimerBase"*)***
  %17 = load void (%"class.base::internal::TimerBase"*)**, void (%"class.base::internal::TimerBase"*)*** %16, align 8
  %18 = getelementptr inbounds void (%"class.base::internal::TimerBase"*)*, void (%"class.base::internal::TimerBase"*)** %17, i64 3
  %19 = load void (%"class.base::internal::TimerBase"*)*, void (%"class.base::internal::TimerBase"*)** %18, align 8
  tail call void %19(%"class.base::internal::TimerBase"* %15) #9
  %20 = getelementptr inbounds %"class.site_engagement::SiteEngagementService::Helper", %"class.site_engagement::SiteEngagementService::Helper"* %0, i64 0, i32 3, i32 0
  %21 = bitcast %"class.site_engagement::SiteEngagementService::Helper::PeriodicTracker"* %20 to void (%"class.site_engagement::SiteEngagementService::Helper::PeriodicTracker"*)***
  %22 = load void (%"class.site_engagement::SiteEngagementService::Helper::PeriodicTracker"*)**, void (%"class.site_engagement::SiteEngagementService::Helper::PeriodicTracker"*)*** %21, align 8
  %23 = getelementptr inbounds void (%"class.site_engagement::SiteEngagementService::Helper::PeriodicTracker"*)*, void (%"class.site_engagement::SiteEngagementService::Helper::PeriodicTracker"*)** %22, i64 3
  %24 = load void (%"class.site_engagement::SiteEngagementService::Helper::PeriodicTracker"*)*, void (%"class.site_engagement::SiteEngagementService::Helper::PeriodicTracker"*)** %23, align 8
  tail call void %24(%"class.site_engagement::SiteEngagementService::Helper::PeriodicTracker"* %20) #9
  %25 = getelementptr inbounds %"class.site_engagement::SiteEngagementService::Helper", %"class.site_engagement::SiteEngagementService::Helper"* %0, i64 0, i32 3, i32 0, i32 2, i32 0, i32 0, i32 0
  %26 = load %"class.base::OneShotTimer"*, %"class.base::OneShotTimer"** %25, align 8
  %27 = getelementptr inbounds %"class.base::OneShotTimer", %"class.base::OneShotTimer"* %26, i64 0, i32 0
  %28 = bitcast %"class.base::OneShotTimer"* %26 to void (%"class.base::internal::TimerBase"*)***
  %29 = load void (%"class.base::internal::TimerBase"*)**, void (%"class.base::internal::TimerBase"*)*** %28, align 8
  %30 = getelementptr inbounds void (%"class.base::internal::TimerBase"*)*, void (%"class.base::internal::TimerBase"*)** %29, i64 3
  %31 = load void (%"class.base::internal::TimerBase"*)*, void (%"class.base::internal::TimerBase"*)** %30, align 8
  tail call void %31(%"class.base::internal::TimerBase"* %27) #9
  br label %32

32:                                               ; preds = %1, %7
  %33 = getelementptr inbounds %"class.site_engagement::SiteEngagementService::Helper", %"class.site_engagement::SiteEngagementService::Helper"* %0, i64 0, i32 3, i32 0, i32 0
  store i32 (...)** bitcast (i8** getelementptr inbounds ({ [9 x i8*], [109 x i8*] }, { [9 x i8*], [109 x i8*] }* @_ZTVN15site_engagement21SiteEngagementService6Helper12MediaTrackerE, i64 0, inrange i32 0, i64 2) to i32 (...)**), i32 (...)*** %33, align 8
  %34 = getelementptr inbounds %"class.site_engagement::SiteEngagementService::Helper", %"class.site_engagement::SiteEngagementService::Helper"* %0, i64 0, i32 3, i32 1
  %35 = getelementptr inbounds %"class.content::WebContentsObserver", %"class.content::WebContentsObserver"* %34, i64 0, i32 0, i32 0
  store i32 (...)** bitcast (i8** getelementptr inbounds ({ [9 x i8*], [109 x i8*] }, { [9 x i8*], [109 x i8*] }* @_ZTVN15site_engagement21SiteEngagementService6Helper12MediaTrackerE, i64 0, inrange i32 1, i64 2) to i32 (...)**), i32 (...)*** %35, align 8
  %36 = getelementptr inbounds %"class.site_engagement::SiteEngagementService::Helper", %"class.site_engagement::SiteEngagementService::Helper"* %0, i64 0, i32 3, i32 2, i32 0, i32 0
  %37 = load %"struct.content::MediaPlayerId"*, %"struct.content::MediaPlayerId"** %36, align 8
  %38 = icmp eq %"struct.content::MediaPlayerId"* %37, null
  br i1 %38, label %44, label %39

39:                                               ; preds = %32
  %40 = ptrtoint %"struct.content::MediaPlayerId"* %37 to i64
  %41 = getelementptr inbounds %"class.site_engagement::SiteEngagementService::Helper", %"class.site_engagement::SiteEngagementService::Helper"* %0, i64 0, i32 3, i32 2, i32 0, i32 1
  %42 = bitcast %"struct.content::MediaPlayerId"** %41 to i64*
  store i64 %40, i64* %42, align 8
  %43 = bitcast %"struct.content::MediaPlayerId"* %37 to i8*
  tail call void @_ZdlPv(i8* %43) #10
  br label %44

44:                                               ; preds = %39, %32
  tail call void @_ZN7content19WebContentsObserverD2Ev(%"class.content::WebContentsObserver"* %34) #9
  store i32 (...)** bitcast (i8** getelementptr inbounds ({ [6 x i8*] }, { [6 x i8*] }* @_ZTVN15site_engagement21SiteEngagementService6Helper15PeriodicTrackerE, i64 0, inrange i32 0, i64 2) to i32 (...)**), i32 (...)*** %33, align 8
  %45 = getelementptr inbounds %"class.site_engagement::SiteEngagementService::Helper", %"class.site_engagement::SiteEngagementService::Helper"* %0, i64 0, i32 3, i32 0, i32 2, i32 0, i32 0, i32 0
  %46 = load %"class.base::OneShotTimer"*, %"class.base::OneShotTimer"** %45, align 8
  store %"class.base::OneShotTimer"* null, %"class.base::OneShotTimer"** %45, align 8
  %47 = icmp eq %"class.base::OneShotTimer"* %46, null
  br i1 %47, label %53, label %48

48:                                               ; preds = %44
  %49 = bitcast %"class.base::OneShotTimer"* %46 to void (%"class.base::OneShotTimer"*)***
  %50 = load void (%"class.base::OneShotTimer"*)**, void (%"class.base::OneShotTimer"*)*** %49, align 8
  %51 = getelementptr inbounds void (%"class.base::OneShotTimer"*)*, void (%"class.base::OneShotTimer"*)** %50, i64 1
  %52 = load void (%"class.base::OneShotTimer"*)*, void (%"class.base::OneShotTimer"*)** %51, align 8
  tail call void %52(%"class.base::OneShotTimer"* nonnull %46) #9
  br label %53

53:                                               ; preds = %44, %48
  %54 = getelementptr inbounds %"class.site_engagement::SiteEngagementService::Helper", %"class.site_engagement::SiteEngagementService::Helper"* %0, i64 0, i32 2, i32 1
  tail call void @_ZN7content19WebContentsObserverD2Ev(%"class.content::WebContentsObserver"* %54) #9
  %55 = getelementptr inbounds %"class.site_engagement::SiteEngagementService::Helper", %"class.site_engagement::SiteEngagementService::Helper"* %0, i64 0, i32 2, i32 0, i32 0
  store i32 (...)** bitcast (i8** getelementptr inbounds ({ [6 x i8*] }, { [6 x i8*] }* @_ZTVN15site_engagement21SiteEngagementService6Helper15PeriodicTrackerE, i64 0, inrange i32 0, i64 2) to i32 (...)**), i32 (...)*** %55, align 8
  %56 = getelementptr inbounds %"class.site_engagement::SiteEngagementService::Helper", %"class.site_engagement::SiteEngagementService::Helper"* %0, i64 0, i32 2, i32 0, i32 2, i32 0, i32 0, i32 0
  %57 = load %"class.base::OneShotTimer"*, %"class.base::OneShotTimer"** %56, align 8
  store %"class.base::OneShotTimer"* null, %"class.base::OneShotTimer"** %56, align 8
  %58 = icmp eq %"class.base::OneShotTimer"* %57, null
  br i1 %58, label %64, label %59

59:                                               ; preds = %53
  %60 = bitcast %"class.base::OneShotTimer"* %57 to void (%"class.base::OneShotTimer"*)***
  %61 = load void (%"class.base::OneShotTimer"*)**, void (%"class.base::OneShotTimer"*)*** %60, align 8
  %62 = getelementptr inbounds void (%"class.base::OneShotTimer"*)*, void (%"class.base::OneShotTimer"*)** %61, i64 1
  %63 = load void (%"class.base::OneShotTimer"*)*, void (%"class.base::OneShotTimer"*)** %62, align 8
  tail call void %63(%"class.base::OneShotTimer"* nonnull %57) #9
  br label %64

64:                                               ; preds = %53, %59
  tail call void @_ZN7content19WebContentsObserverD2Ev(%"class.content::WebContentsObserver"* %4) #9
  ret void
}

declare %"class.content::WebContents"* @_ZNK7content19WebContentsObserver12web_contentsEv(%"class.content::WebContentsObserver"*) local_unnamed_addr #2

; Function Attrs: nounwind ssp uwtable
define hidden void @_ZN15site_engagement21SiteEngagementService6Helper15PeriodicTracker4StopEv(%"class.site_engagement::SiteEngagementService::Helper::PeriodicTracker"*) local_unnamed_addr #1 align 2 {
  %2 = bitcast %"class.site_engagement::SiteEngagementService::Helper::PeriodicTracker"* %0 to void (%"class.site_engagement::SiteEngagementService::Helper::PeriodicTracker"*)***
  %3 = load void (%"class.site_engagement::SiteEngagementService::Helper::PeriodicTracker"*)**, void (%"class.site_engagement::SiteEngagementService::Helper::PeriodicTracker"*)*** %2, align 8
  %4 = getelementptr inbounds void (%"class.site_engagement::SiteEngagementService::Helper::PeriodicTracker"*)*, void (%"class.site_engagement::SiteEngagementService::Helper::PeriodicTracker"*)** %3, i64 3
  %5 = load void (%"class.site_engagement::SiteEngagementService::Helper::PeriodicTracker"*)*, void (%"class.site_engagement::SiteEngagementService::Helper::PeriodicTracker"*)** %4, align 8
  tail call void %5(%"class.site_engagement::SiteEngagementService::Helper::PeriodicTracker"* %0) #9
  %6 = getelementptr inbounds %"class.site_engagement::SiteEngagementService::Helper::PeriodicTracker", %"class.site_engagement::SiteEngagementService::Helper::PeriodicTracker"* %0, i64 0, i32 2, i32 0, i32 0, i32 0
  %7 = load %"class.base::OneShotTimer"*, %"class.base::OneShotTimer"** %6, align 8
  %8 = getelementptr inbounds %"class.base::OneShotTimer", %"class.base::OneShotTimer"* %7, i64 0, i32 0
  %9 = bitcast %"class.base::OneShotTimer"* %7 to void (%"class.base::internal::TimerBase"*)***
  %10 = load void (%"class.base::internal::TimerBase"*)**, void (%"class.base::internal::TimerBase"*)*** %9, align 8
  %11 = getelementptr inbounds void (%"class.base::internal::TimerBase"*)*, void (%"class.base::internal::TimerBase"*)** %10, i64 3
  %12 = load void (%"class.base::internal::TimerBase"*)*, void (%"class.base::internal::TimerBase"*)** %11, align 8
  tail call void %12(%"class.base::internal::TimerBase"* %8) #9
  ret void
}

; Function Attrs: inlinehint nounwind ssp uwtable
define linkonce_odr hidden void @_ZN15site_engagement21SiteEngagementService6Helper12InputTrackerD2Ev(%"class.site_engagement::SiteEngagementService::Helper::InputTracker"*) unnamed_addr #3 comdat align 2 {
  %2 = getelementptr inbounds %"class.site_engagement::SiteEngagementService::Helper::InputTracker", %"class.site_engagement::SiteEngagementService::Helper::InputTracker"* %0, i64 0, i32 1
  tail call void @_ZN7content19WebContentsObserverD2Ev(%"class.content::WebContentsObserver"* %2) #9
  %3 = getelementptr inbounds %"class.site_engagement::SiteEngagementService::Helper::InputTracker", %"class.site_engagement::SiteEngagementService::Helper::InputTracker"* %0, i64 0, i32 0, i32 0
  store i32 (...)** bitcast (i8** getelementptr inbounds ({ [6 x i8*] }, { [6 x i8*] }* @_ZTVN15site_engagement21SiteEngagementService6Helper15PeriodicTrackerE, i64 0, inrange i32 0, i64 2) to i32 (...)**), i32 (...)*** %3, align 8
  %4 = getelementptr inbounds %"class.site_engagement::SiteEngagementService::Helper::InputTracker", %"class.site_engagement::SiteEngagementService::Helper::InputTracker"* %0, i64 0, i32 0, i32 2, i32 0, i32 0, i32 0
  %5 = load %"class.base::OneShotTimer"*, %"class.base::OneShotTimer"** %4, align 8
  store %"class.base::OneShotTimer"* null, %"class.base::OneShotTimer"** %4, align 8
  %6 = icmp eq %"class.base::OneShotTimer"* %5, null
  br i1 %6, label %12, label %7

7:                                                ; preds = %1
  %8 = bitcast %"class.base::OneShotTimer"* %5 to void (%"class.base::OneShotTimer"*)***
  %9 = load void (%"class.base::OneShotTimer"*)**, void (%"class.base::OneShotTimer"*)*** %8, align 8
  %10 = getelementptr inbounds void (%"class.base::OneShotTimer"*)*, void (%"class.base::OneShotTimer"*)** %9, i64 1
  %11 = load void (%"class.base::OneShotTimer"*)*, void (%"class.base::OneShotTimer"*)** %10, align 8
  tail call void %11(%"class.base::OneShotTimer"* nonnull %5) #9
  br label %12

12:                                               ; preds = %1, %7
  ret void
}

; Function Attrs: nounwind
declare void @_ZN7content19WebContentsObserverD2Ev(%"class.content::WebContentsObserver"*) unnamed_addr #4

; Function Attrs: nounwind ssp uwtable
define hidden void @_ZThn16_N15site_engagement21SiteEngagementService6HelperD1Ev(%"class.site_engagement::SiteEngagementService::Helper"*) unnamed_addr #1 align 2 {
  %2 = getelementptr inbounds %"class.site_engagement::SiteEngagementService::Helper", %"class.site_engagement::SiteEngagementService::Helper"* %0, i64 -1, i32 3, i32 2, i32 0, i32 2
  %3 = bitcast %"class.std::__1::__compressed_pair.17"* %2 to %"class.site_engagement::SiteEngagementService::Helper"*
  tail call void @_ZN15site_engagement21SiteEngagementService6HelperD2Ev(%"class.site_engagement::SiteEngagementService::Helper"* %3) #9
  ret void
}

; Function Attrs: nounwind ssp uwtable
define hidden void @_ZN15site_engagement21SiteEngagementService6HelperD0Ev(%"class.site_engagement::SiteEngagementService::Helper"*) unnamed_addr #1 align 2 {
  tail call void @_ZN15site_engagement21SiteEngagementService6HelperD2Ev(%"class.site_engagement::SiteEngagementService::Helper"* %0) #9
  %2 = bitcast %"class.site_engagement::SiteEngagementService::Helper"* %0 to i8*
  tail call void @_ZdlPv(i8* %2) #10
  ret void
}

; Function Attrs: nobuiltin nounwind
declare void @_ZdlPv(i8*) local_unnamed_addr #5

; Function Attrs: nounwind ssp uwtable
define hidden void @_ZThn16_N15site_engagement21SiteEngagementService6HelperD0Ev(%"class.site_engagement::SiteEngagementService::Helper"*) unnamed_addr #1 align 2 {
  %2 = getelementptr inbounds %"class.site_engagement::SiteEngagementService::Helper", %"class.site_engagement::SiteEngagementService::Helper"* %0, i64 -1, i32 3, i32 2, i32 0, i32 2
  %3 = bitcast %"class.std::__1::__compressed_pair.17"* %2 to %"class.site_engagement::SiteEngagementService::Helper"*
  tail call void @_ZN15site_engagement21SiteEngagementService6HelperD2Ev(%"class.site_engagement::SiteEngagementService::Helper"* %3) #9
  %4 = bitcast %"class.std::__1::__compressed_pair.17"* %2 to i8*
  tail call void @_ZdlPv(i8* %4) #10
  ret void
}

; Function Attrs: nounwind ssp uwtable
define hidden void @_ZN15site_engagement21SiteEngagementService6Helper15PeriodicTrackerC2EPS1_(%"class.site_engagement::SiteEngagementService::Helper::PeriodicTracker"* nocapture, %"class.site_engagement::SiteEngagementService::Helper"*) unnamed_addr #1 align 2 {
  %3 = getelementptr inbounds %"class.site_engagement::SiteEngagementService::Helper::PeriodicTracker", %"class.site_engagement::SiteEngagementService::Helper::PeriodicTracker"* %0, i64 0, i32 0
  store i32 (...)** bitcast (i8** getelementptr inbounds ({ [6 x i8*] }, { [6 x i8*] }* @_ZTVN15site_engagement21SiteEngagementService6Helper15PeriodicTrackerE, i64 0, inrange i32 0, i64 2) to i32 (...)**), i32 (...)*** %3, align 8
  %4 = getelementptr inbounds %"class.site_engagement::SiteEngagementService::Helper::PeriodicTracker", %"class.site_engagement::SiteEngagementService::Helper::PeriodicTracker"* %0, i64 0, i32 1
  store %"class.site_engagement::SiteEngagementService::Helper"* %1, %"class.site_engagement::SiteEngagementService::Helper"** %4, align 8
  %5 = tail call i8* @_Znwm(i64 128) #10
  %6 = bitcast i8* %5 to %"class.base::OneShotTimer"*
  tail call void @_ZN4base12OneShotTimerC1Ev(%"class.base::OneShotTimer"* nonnull %6) #9
  %7 = getelementptr inbounds %"class.site_engagement::SiteEngagementService::Helper::PeriodicTracker", %"class.site_engagement::SiteEngagementService::Helper::PeriodicTracker"* %0, i64 0, i32 2, i32 0, i32 0, i32 0
  %8 = bitcast %"class.base::OneShotTimer"** %7 to i8**
  store i8* %5, i8** %8, align 8
  ret void
}

; Function Attrs: nounwind ssp uwtable
define hidden void @_ZN15site_engagement21SiteEngagementService6Helper15PeriodicTrackerD2Ev(%"class.site_engagement::SiteEngagementService::Helper::PeriodicTracker"* nocapture) unnamed_addr #1 align 2 {
  %2 = getelementptr inbounds %"class.site_engagement::SiteEngagementService::Helper::PeriodicTracker", %"class.site_engagement::SiteEngagementService::Helper::PeriodicTracker"* %0, i64 0, i32 0
  store i32 (...)** bitcast (i8** getelementptr inbounds ({ [6 x i8*] }, { [6 x i8*] }* @_ZTVN15site_engagement21SiteEngagementService6Helper15PeriodicTrackerE, i64 0, inrange i32 0, i64 2) to i32 (...)**), i32 (...)*** %2, align 8
  %3 = getelementptr inbounds %"class.site_engagement::SiteEngagementService::Helper::PeriodicTracker", %"class.site_engagement::SiteEngagementService::Helper::PeriodicTracker"* %0, i64 0, i32 2, i32 0, i32 0, i32 0
  %4 = load %"class.base::OneShotTimer"*, %"class.base::OneShotTimer"** %3, align 8
  store %"class.base::OneShotTimer"* null, %"class.base::OneShotTimer"** %3, align 8
  %5 = icmp eq %"class.base::OneShotTimer"* %4, null
  br i1 %5, label %11, label %6

6:                                                ; preds = %1
  %7 = bitcast %"class.base::OneShotTimer"* %4 to void (%"class.base::OneShotTimer"*)***
  %8 = load void (%"class.base::OneShotTimer"*)**, void (%"class.base::OneShotTimer"*)*** %7, align 8
  %9 = getelementptr inbounds void (%"class.base::OneShotTimer"*)*, void (%"class.base::OneShotTimer"*)** %8, i64 1
  %10 = load void (%"class.base::OneShotTimer"*)*, void (%"class.base::OneShotTimer"*)** %9, align 8
  tail call void %10(%"class.base::OneShotTimer"* nonnull %4) #9
  br label %11

11:                                               ; preds = %1, %6
  ret void
}

; Function Attrs: nounwind ssp uwtable
define hidden void @_ZN15site_engagement21SiteEngagementService6Helper15PeriodicTrackerD0Ev(%"class.site_engagement::SiteEngagementService::Helper::PeriodicTracker"*) unnamed_addr #1 align 2 {
  %2 = getelementptr inbounds %"class.site_engagement::SiteEngagementService::Helper::PeriodicTracker", %"class.site_engagement::SiteEngagementService::Helper::PeriodicTracker"* %0, i64 0, i32 0
  store i32 (...)** bitcast (i8** getelementptr inbounds ({ [6 x i8*] }, { [6 x i8*] }* @_ZTVN15site_engagement21SiteEngagementService6Helper15PeriodicTrackerE, i64 0, inrange i32 0, i64 2) to i32 (...)**), i32 (...)*** %2, align 8
  %3 = getelementptr inbounds %"class.site_engagement::SiteEngagementService::Helper::PeriodicTracker", %"class.site_engagement::SiteEngagementService::Helper::PeriodicTracker"* %0, i64 0, i32 2, i32 0, i32 0, i32 0
  %4 = load %"class.base::OneShotTimer"*, %"class.base::OneShotTimer"** %3, align 8
  store %"class.base::OneShotTimer"* null, %"class.base::OneShotTimer"** %3, align 8
  %5 = icmp eq %"class.base::OneShotTimer"* %4, null
  br i1 %5, label %11, label %6

6:                                                ; preds = %1
  %7 = bitcast %"class.base::OneShotTimer"* %4 to void (%"class.base::OneShotTimer"*)***
  %8 = load void (%"class.base::OneShotTimer"*)**, void (%"class.base::OneShotTimer"*)*** %7, align 8
  %9 = getelementptr inbounds void (%"class.base::OneShotTimer"*)*, void (%"class.base::OneShotTimer"*)** %8, i64 1
  %10 = load void (%"class.base::OneShotTimer"*)*, void (%"class.base::OneShotTimer"*)** %9, align 8
  tail call void %10(%"class.base::OneShotTimer"* nonnull %4) #9
  br label %11

11:                                               ; preds = %1, %6
  %12 = bitcast %"class.site_engagement::SiteEngagementService::Helper::PeriodicTracker"* %0 to i8*
  tail call void @_ZdlPv(i8* %12) #10
  ret void
}

; Function Attrs: nounwind ssp uwtable
define hidden void @_ZN15site_engagement21SiteEngagementService6Helper15PeriodicTracker5StartEN4base9TimeDeltaE(%"class.site_engagement::SiteEngagementService::Helper::PeriodicTracker"*, i64) local_unnamed_addr #1 align 2 {
  %3 = alloca %"class.base::Location", align 8
  %4 = alloca %"class.base::OnceCallback", align 8
  %5 = bitcast %"class.base::OnceCallback"* %4 to i8*
  call void @llvm.lifetime.start.p0i8(i64 8, i8* nonnull %5)
  %6 = getelementptr inbounds %"class.site_engagement::SiteEngagementService::Helper::PeriodicTracker", %"class.site_engagement::SiteEngagementService::Helper::PeriodicTracker"* %0, i64 0, i32 2, i32 0, i32 0, i32 0
  %7 = load %"class.base::OneShotTimer"*, %"class.base::OneShotTimer"** %6, align 8
  %8 = bitcast %"class.base::Location"* %3 to i8*
  call void @llvm.lifetime.start.p0i8(i64 32, i8* nonnull %8) #9
  call void @_ZN4base8Location7CurrentEPKcS2_i(%"class.base::Location"* nonnull sret %3, i8* getelementptr inbounds ([11 x i8], [11 x i8]* @.str, i64 0, i64 0), i8* getelementptr inbounds ([58 x i8], [58 x i8]* @.str.1, i64 0, i64 0), i32 90) #9
  %9 = ptrtoint %"class.site_engagement::SiteEngagementService::Helper::PeriodicTracker"* %0 to i64
  %10 = call i8* @_Znwm(i64 56) #10, !noalias !2
  %11 = bitcast i8* %10 to %"class.base::internal::BindStateBase"*
  call void @_ZN4base8internal13BindStateBaseC2EPFvvEPFvPKS1_E(%"class.base::internal::BindStateBase"* nonnull %11, void ()* bitcast (void (%"class.base::internal::BindStateBase"*)* @_ZN4base8internal7InvokerINS0_9BindStateIMN15site_engagement21SiteEngagementService6Helper15PeriodicTrackerEFvvEJNS0_17UnretainedWrapperIS6_EEEEEFvvEE7RunOnceEPNS0_13BindStateBaseE to void ()*), void (%"class.base::internal::BindStateBase"*)* nonnull @_ZN4base8internal9BindStateIMN15site_engagement21SiteEngagementService6Helper15PeriodicTrackerEFvvEJNS0_17UnretainedWrapperIS5_EEEE7DestroyEPKNS0_13BindStateBaseE) #9, !noalias !2
  %12 = getelementptr inbounds i8, i8* %10, i64 32
  %13 = bitcast i8* %12 to <2 x i64>*
  store <2 x i64> <i64 17, i64 0>, <2 x i64>* %13, align 8, !noalias !2
  %14 = getelementptr inbounds i8, i8* %10, i64 48
  %15 = bitcast i8* %14 to i64*
  store i64 %9, i64* %15, align 8, !noalias !2
  %16 = bitcast %"class.base::OnceCallback"* %4 to i8**
  store i8* %10, i8** %16, align 8, !alias.scope !2
  %17 = bitcast %"class.base::OneShotTimer"* %7 to void (%"class.base::OneShotTimer"*, %"class.base::Location"*, i64, %"class.base::OnceCallback"*)***
  %18 = load void (%"class.base::OneShotTimer"*, %"class.base::Location"*, i64, %"class.base::OnceCallback"*)**, void (%"class.base::OneShotTimer"*, %"class.base::Location"*, i64, %"class.base::OnceCallback"*)*** %17, align 8
  %19 = getelementptr inbounds void (%"class.base::OneShotTimer"*, %"class.base::Location"*, i64, %"class.base::OnceCallback"*)*, void (%"class.base::OneShotTimer"*, %"class.base::Location"*, i64, %"class.base::OnceCallback"*)** %18, i64 7
  %20 = load void (%"class.base::OneShotTimer"*, %"class.base::Location"*, i64, %"class.base::OnceCallback"*)*, void (%"class.base::OneShotTimer"*, %"class.base::Location"*, i64, %"class.base::OnceCallback"*)** %19, align 8
  call void %20(%"class.base::OneShotTimer"* %7, %"class.base::Location"* nonnull dereferenceable(32) %3, i64 %1, %"class.base::OnceCallback"* nonnull %4) #9
  %21 = getelementptr inbounds %"class.base::OnceCallback", %"class.base::OnceCallback"* %4, i64 0, i32 0
  call void @_ZN4base8internal12CallbackBaseD2Ev(%"class.base::internal::CallbackBase"* nonnull %21) #9
  call void @llvm.lifetime.end.p0i8(i64 32, i8* nonnull %8) #9
  call void @llvm.lifetime.end.p0i8(i64 8, i8* nonnull %5)
  ret void
}

; Function Attrs: nounwind ssp uwtable
define hidden void @_ZN15site_engagement21SiteEngagementService6Helper15PeriodicTracker10StartTimerEN4base9TimeDeltaE(%"class.site_engagement::SiteEngagementService::Helper::PeriodicTracker"*, i64) local_unnamed_addr #1 align 2 {
  %3 = alloca %"class.base::Location", align 8
  %4 = alloca %"class.base::OnceCallback", align 8
  %5 = getelementptr inbounds %"class.site_engagement::SiteEngagementService::Helper::PeriodicTracker", %"class.site_engagement::SiteEngagementService::Helper::PeriodicTracker"* %0, i64 0, i32 2, i32 0, i32 0, i32 0
  %6 = load %"class.base::OneShotTimer"*, %"class.base::OneShotTimer"** %5, align 8
  %7 = bitcast %"class.base::Location"* %3 to i8*
  call void @llvm.lifetime.start.p0i8(i64 32, i8* nonnull %7) #9
  call void @_ZN4base8Location7CurrentEPKcS2_i(%"class.base::Location"* nonnull sret %3, i8* getelementptr inbounds ([11 x i8], [11 x i8]* @.str, i64 0, i64 0), i8* getelementptr inbounds ([58 x i8], [58 x i8]* @.str.1, i64 0, i64 0), i32 90) #9
  %8 = ptrtoint %"class.site_engagement::SiteEngagementService::Helper::PeriodicTracker"* %0 to i64
  %9 = call i8* @_Znwm(i64 56) #10, !noalias !7
  %10 = bitcast i8* %9 to %"class.base::internal::BindStateBase"*
  call void @_ZN4base8internal13BindStateBaseC2EPFvvEPFvPKS1_E(%"class.base::internal::BindStateBase"* nonnull %10, void ()* bitcast (void (%"class.base::internal::BindStateBase"*)* @_ZN4base8internal7InvokerINS0_9BindStateIMN15site_engagement21SiteEngagementService6Helper15PeriodicTrackerEFvvEJNS0_17UnretainedWrapperIS6_EEEEEFvvEE7RunOnceEPNS0_13BindStateBaseE to void ()*), void (%"class.base::internal::BindStateBase"*)* nonnull @_ZN4base8internal9BindStateIMN15site_engagement21SiteEngagementService6Helper15PeriodicTrackerEFvvEJNS0_17UnretainedWrapperIS5_EEEE7DestroyEPKNS0_13BindStateBaseE) #9, !noalias !7
  %11 = getelementptr inbounds i8, i8* %9, i64 32
  %12 = bitcast i8* %11 to <2 x i64>*
  store <2 x i64> <i64 17, i64 0>, <2 x i64>* %12, align 8, !noalias !7
  %13 = getelementptr inbounds i8, i8* %9, i64 48
  %14 = bitcast i8* %13 to i64*
  store i64 %8, i64* %14, align 8, !noalias !7
  %15 = bitcast %"class.base::OnceCallback"* %4 to i8**
  store i8* %9, i8** %15, align 8, !alias.scope !7
  %16 = bitcast %"class.base::OneShotTimer"* %6 to void (%"class.base::OneShotTimer"*, %"class.base::Location"*, i64, %"class.base::OnceCallback"*)***
  %17 = load void (%"class.base::OneShotTimer"*, %"class.base::Location"*, i64, %"class.base::OnceCallback"*)**, void (%"class.base::OneShotTimer"*, %"class.base::Location"*, i64, %"class.base::OnceCallback"*)*** %16, align 8
  %18 = getelementptr inbounds void (%"class.base::OneShotTimer"*, %"class.base::Location"*, i64, %"class.base::OnceCallback"*)*, void (%"class.base::OneShotTimer"*, %"class.base::Location"*, i64, %"class.base::OnceCallback"*)** %17, i64 7
  %19 = load void (%"class.base::OneShotTimer"*, %"class.base::Location"*, i64, %"class.base::OnceCallback"*)*, void (%"class.base::OneShotTimer"*, %"class.base::Location"*, i64, %"class.base::OnceCallback"*)** %18, align 8
  call void %19(%"class.base::OneShotTimer"* %6, %"class.base::Location"* nonnull dereferenceable(32) %3, i64 %1, %"class.base::OnceCallback"* nonnull %4) #9
  %20 = getelementptr inbounds %"class.base::OnceCallback", %"class.base::OnceCallback"* %4, i64 0, i32 0
  call void @_ZN4base8internal12CallbackBaseD2Ev(%"class.base::internal::CallbackBase"* nonnull %20) #9
  call void @llvm.lifetime.end.p0i8(i64 32, i8* nonnull %7) #9
  ret void
}

; Function Attrs: argmemonly nounwind
declare void @llvm.memcpy.p0i8.p0i8.i64(i8* nocapture writeonly, i8* nocapture readonly, i64, i1 immarg) #6

; Function Attrs: nounwind ssp uwtable
define hidden void @_ZN15site_engagement21SiteEngagementService6Helper15PeriodicTracker5PauseEv(%"class.site_engagement::SiteEngagementService::Helper::PeriodicTracker"*) local_unnamed_addr #1 align 2 {
  %2 = alloca %"class.base::Location", align 8
  %3 = alloca %"class.base::OnceCallback", align 8
  %4 = bitcast %"class.site_engagement::SiteEngagementService::Helper::PeriodicTracker"* %0 to void (%"class.site_engagement::SiteEngagementService::Helper::PeriodicTracker"*)***
  %5 = load void (%"class.site_engagement::SiteEngagementService::Helper::PeriodicTracker"*)**, void (%"class.site_engagement::SiteEngagementService::Helper::PeriodicTracker"*)*** %4, align 8
  %6 = getelementptr inbounds void (%"class.site_engagement::SiteEngagementService::Helper::PeriodicTracker"*)*, void (%"class.site_engagement::SiteEngagementService::Helper::PeriodicTracker"*)** %5, i64 3
  %7 = load void (%"class.site_engagement::SiteEngagementService::Helper::PeriodicTracker"*)*, void (%"class.site_engagement::SiteEngagementService::Helper::PeriodicTracker"*)** %6, align 8
  tail call void %7(%"class.site_engagement::SiteEngagementService::Helper::PeriodicTracker"* %0) #9
  %8 = load i32, i32* @_ZN15site_engagement12_GLOBAL__N_139g_seconds_to_pause_engagement_detectionE, align 4
  %9 = sext i32 %8 to i64
  %10 = mul nsw i64 %9, 1000000
  %11 = bitcast %"class.base::OnceCallback"* %3 to i8*
  call void @llvm.lifetime.start.p0i8(i64 8, i8* nonnull %11)
  %12 = getelementptr inbounds %"class.site_engagement::SiteEngagementService::Helper::PeriodicTracker", %"class.site_engagement::SiteEngagementService::Helper::PeriodicTracker"* %0, i64 0, i32 2, i32 0, i32 0, i32 0
  %13 = load %"class.base::OneShotTimer"*, %"class.base::OneShotTimer"** %12, align 8
  %14 = bitcast %"class.base::Location"* %2 to i8*
  call void @llvm.lifetime.start.p0i8(i64 32, i8* nonnull %14) #9
  call void @_ZN4base8Location7CurrentEPKcS2_i(%"class.base::Location"* nonnull sret %2, i8* getelementptr inbounds ([11 x i8], [11 x i8]* @.str, i64 0, i64 0), i8* getelementptr inbounds ([58 x i8], [58 x i8]* @.str.1, i64 0, i64 0), i32 90) #9
  %15 = ptrtoint %"class.site_engagement::SiteEngagementService::Helper::PeriodicTracker"* %0 to i64
  %16 = call i8* @_Znwm(i64 56) #10, !noalias !12
  %17 = bitcast i8* %16 to %"class.base::internal::BindStateBase"*
  call void @_ZN4base8internal13BindStateBaseC2EPFvvEPFvPKS1_E(%"class.base::internal::BindStateBase"* nonnull %17, void ()* bitcast (void (%"class.base::internal::BindStateBase"*)* @_ZN4base8internal7InvokerINS0_9BindStateIMN15site_engagement21SiteEngagementService6Helper15PeriodicTrackerEFvvEJNS0_17UnretainedWrapperIS6_EEEEEFvvEE7RunOnceEPNS0_13BindStateBaseE to void ()*), void (%"class.base::internal::BindStateBase"*)* nonnull @_ZN4base8internal9BindStateIMN15site_engagement21SiteEngagementService6Helper15PeriodicTrackerEFvvEJNS0_17UnretainedWrapperIS5_EEEE7DestroyEPKNS0_13BindStateBaseE) #9, !noalias !12
  %18 = getelementptr inbounds i8, i8* %16, i64 32
  %19 = bitcast i8* %18 to <2 x i64>*
  store <2 x i64> <i64 17, i64 0>, <2 x i64>* %19, align 8, !noalias !12
  %20 = getelementptr inbounds i8, i8* %16, i64 48
  %21 = bitcast i8* %20 to i64*
  store i64 %15, i64* %21, align 8, !noalias !12
  %22 = bitcast %"class.base::OnceCallback"* %3 to i8**
  store i8* %16, i8** %22, align 8, !alias.scope !12
  %23 = bitcast %"class.base::OneShotTimer"* %13 to void (%"class.base::OneShotTimer"*, %"class.base::Location"*, i64, %"class.base::OnceCallback"*)***
  %24 = load void (%"class.base::OneShotTimer"*, %"class.base::Location"*, i64, %"class.base::OnceCallback"*)**, void (%"class.base::OneShotTimer"*, %"class.base::Location"*, i64, %"class.base::OnceCallback"*)*** %23, align 8
  %25 = getelementptr inbounds void (%"class.base::OneShotTimer"*, %"class.base::Location"*, i64, %"class.base::OnceCallback"*)*, void (%"class.base::OneShotTimer"*, %"class.base::Location"*, i64, %"class.base::OnceCallback"*)** %24, i64 7
  %26 = load void (%"class.base::OneShotTimer"*, %"class.base::Location"*, i64, %"class.base::OnceCallback"*)*, void (%"class.base::OneShotTimer"*, %"class.base::Location"*, i64, %"class.base::OnceCallback"*)** %25, align 8
  call void %26(%"class.base::OneShotTimer"* %13, %"class.base::Location"* nonnull dereferenceable(32) %2, i64 %10, %"class.base::OnceCallback"* nonnull %3) #9
  %27 = getelementptr inbounds %"class.base::OnceCallback", %"class.base::OnceCallback"* %3, i64 0, i32 0
  call void @_ZN4base8internal12CallbackBaseD2Ev(%"class.base::internal::CallbackBase"* nonnull %27) #9
  call void @llvm.lifetime.end.p0i8(i64 32, i8* nonnull %14) #9
  call void @llvm.lifetime.end.p0i8(i64 8, i8* nonnull %11)
  ret void
}

; Function Attrs: nounwind ssp uwtable
define hidden zeroext i1 @_ZN15site_engagement21SiteEngagementService6Helper15PeriodicTracker14IsTimerRunningEv(%"class.site_engagement::SiteEngagementService::Helper::PeriodicTracker"* nocapture readonly) local_unnamed_addr #1 align 2 {
  %2 = getelementptr inbounds %"class.site_engagement::SiteEngagementService::Helper::PeriodicTracker", %"class.site_engagement::SiteEngagementService::Helper::PeriodicTracker"* %0, i64 0, i32 2, i32 0, i32 0, i32 0
  %3 = load %"class.base::OneShotTimer"*, %"class.base::OneShotTimer"** %2, align 8
  %4 = getelementptr inbounds %"class.base::OneShotTimer", %"class.base::OneShotTimer"* %3, i64 0, i32 0
  %5 = tail call zeroext i1 @_ZNK4base8internal9TimerBase9IsRunningEv(%"class.base::internal::TimerBase"* %4) #9
  ret i1 %5
}

declare zeroext i1 @_ZNK4base8internal9TimerBase9IsRunningEv(%"class.base::internal::TimerBase"*) local_unnamed_addr #2

; Function Attrs: nounwind ssp uwtable
define hidden void @_ZN15site_engagement21SiteEngagementService6Helper15PeriodicTracker23SetPauseTimerForTestingENSt3__110unique_ptrIN4base12OneShotTimerENS3_14default_deleteIS6_EEEE(%"class.site_engagement::SiteEngagementService::Helper::PeriodicTracker"* nocapture, %"class.base::OneShotTimer"*) local_unnamed_addr #1 align 2 {
  %3 = ptrtoint %"class.base::OneShotTimer"* %1 to i64
  %4 = getelementptr inbounds %"class.site_engagement::SiteEngagementService::Helper::PeriodicTracker", %"class.site_engagement::SiteEngagementService::Helper::PeriodicTracker"* %0, i64 0, i32 2
  %5 = getelementptr inbounds %"class.std::__1::unique_ptr", %"class.std::__1::unique_ptr"* %4, i64 0, i32 0, i32 0, i32 0
  %6 = load %"class.base::OneShotTimer"*, %"class.base::OneShotTimer"** %5, align 8
  %7 = bitcast %"class.std::__1::unique_ptr"* %4 to i64*
  store i64 %3, i64* %7, align 8
  %8 = icmp eq %"class.base::OneShotTimer"* %6, null
  br i1 %8, label %14, label %9

9:                                                ; preds = %2
  %10 = bitcast %"class.base::OneShotTimer"* %6 to void (%"class.base::OneShotTimer"*)***
  %11 = load void (%"class.base::OneShotTimer"*)**, void (%"class.base::OneShotTimer"*)*** %10, align 8
  %12 = getelementptr inbounds void (%"class.base::OneShotTimer"*)*, void (%"class.base::OneShotTimer"*)** %11, i64 1
  %13 = load void (%"class.base::OneShotTimer"*)*, void (%"class.base::OneShotTimer"*)** %12, align 8
  tail call void %13(%"class.base::OneShotTimer"* nonnull %6) #9
  br label %14

14:                                               ; preds = %9, %2
  ret void
}

; Function Attrs: argmemonly nounwind
declare void @llvm.lifetime.start.p0i8(i64 immarg, i8* nocapture) #6

declare void @_ZN4base8Location7CurrentEPKcS2_i(%"class.base::Location"* sret, i8*, i8*, i32) local_unnamed_addr #2

; Function Attrs: nounwind
declare void @_ZN4base8internal12CallbackBaseD2Ev(%"class.base::internal::CallbackBase"*) unnamed_addr #4

; Function Attrs: argmemonly nounwind
declare void @llvm.lifetime.end.p0i8(i64 immarg, i8* nocapture) #6

; Function Attrs: nounwind ssp uwtable
define hidden void @_ZN15site_engagement21SiteEngagementService6Helper12InputTrackerC2EPS1_PN7content11WebContentsE(%"class.site_engagement::SiteEngagementService::Helper::InputTracker"*, %"class.site_engagement::SiteEngagementService::Helper"*, %"class.content::WebContents"*) unnamed_addr #1 align 2 {
  %4 = getelementptr inbounds %"class.site_engagement::SiteEngagementService::Helper::InputTracker", %"class.site_engagement::SiteEngagementService::Helper::InputTracker"* %0, i64 0, i32 0, i32 0
  store i32 (...)** bitcast (i8** getelementptr inbounds ({ [6 x i8*] }, { [6 x i8*] }* @_ZTVN15site_engagement21SiteEngagementService6Helper15PeriodicTrackerE, i64 0, inrange i32 0, i64 2) to i32 (...)**), i32 (...)*** %4, align 8
  %5 = getelementptr inbounds %"class.site_engagement::SiteEngagementService::Helper::InputTracker", %"class.site_engagement::SiteEngagementService::Helper::InputTracker"* %0, i64 0, i32 0, i32 1
  store %"class.site_engagement::SiteEngagementService::Helper"* %1, %"class.site_engagement::SiteEngagementService::Helper"** %5, align 8
  %6 = tail call i8* @_Znwm(i64 128) #10
  %7 = bitcast i8* %6 to %"class.base::OneShotTimer"*
  tail call void @_ZN4base12OneShotTimerC1Ev(%"class.base::OneShotTimer"* nonnull %7) #9
  %8 = getelementptr inbounds %"class.site_engagement::SiteEngagementService::Helper::InputTracker", %"class.site_engagement::SiteEngagementService::Helper::InputTracker"* %0, i64 0, i32 0, i32 2, i32 0, i32 0, i32 0
  %9 = bitcast %"class.base::OneShotTimer"** %8 to i8**
  store i8* %6, i8** %9, align 8
  %10 = getelementptr inbounds %"class.site_engagement::SiteEngagementService::Helper::InputTracker", %"class.site_engagement::SiteEngagementService::Helper::InputTracker"* %0, i64 0, i32 1
  tail call void @_ZN7content19WebContentsObserverC2EPNS_11WebContentsE(%"class.content::WebContentsObserver"* %10, %"class.content::WebContents"* %2) #9
  store i32 (...)** bitcast (i8** getelementptr inbounds ({ [7 x i8*], [109 x i8*] }, { [7 x i8*], [109 x i8*] }* @_ZTVN15site_engagement21SiteEngagementService6Helper12InputTrackerE, i64 0, inrange i32 0, i64 2) to i32 (...)**), i32 (...)*** %4, align 8
  %11 = getelementptr inbounds %"class.content::WebContentsObserver", %"class.content::WebContentsObserver"* %10, i64 0, i32 0, i32 0
  store i32 (...)** bitcast (i8** getelementptr inbounds ({ [7 x i8*], [109 x i8*] }, { [7 x i8*], [109 x i8*] }* @_ZTVN15site_engagement21SiteEngagementService6Helper12InputTrackerE, i64 0, inrange i32 1, i64 2) to i32 (...)**), i32 (...)*** %11, align 8
  %12 = getelementptr inbounds %"class.site_engagement::SiteEngagementService::Helper::InputTracker", %"class.site_engagement::SiteEngagementService::Helper::InputTracker"* %0, i64 0, i32 2
  store i8 0, i8* %12, align 8
  ret void
}

declare void @_ZN7content19WebContentsObserverC2EPNS_11WebContentsE(%"class.content::WebContentsObserver"*, %"class.content::WebContents"*) unnamed_addr #2

; Function Attrs: nofree norecurse nounwind ssp uwtable writeonly
define hidden void @_ZN15site_engagement21SiteEngagementService6Helper12InputTracker15TrackingStartedEv(%"class.site_engagement::SiteEngagementService::Helper::InputTracker"* nocapture) unnamed_addr #0 align 2 {
  %2 = getelementptr inbounds %"class.site_engagement::SiteEngagementService::Helper::InputTracker", %"class.site_engagement::SiteEngagementService::Helper::InputTracker"* %0, i64 0, i32 2
  store i8 1, i8* %2, align 8
  ret void
}

; Function Attrs: nofree norecurse nounwind ssp uwtable writeonly
define hidden void @_ZN15site_engagement21SiteEngagementService6Helper12InputTracker15TrackingStoppedEv(%"class.site_engagement::SiteEngagementService::Helper::InputTracker"* nocapture) unnamed_addr #0 align 2 {
  %2 = getelementptr inbounds %"class.site_engagement::SiteEngagementService::Helper::InputTracker", %"class.site_engagement::SiteEngagementService::Helper::InputTracker"* %0, i64 0, i32 2
  store i8 0, i8* %2, align 8
  ret void
}

; Function Attrs: nounwind ssp uwtable
define hidden void @_ZN15site_engagement21SiteEngagementService6Helper12InputTracker21DidGetUserInteractionERKN5blink13WebInputEventE(%"class.site_engagement::SiteEngagementService::Helper::InputTracker"*, %"class.blink::WebInputEvent"* nocapture readonly dereferenceable(40)) unnamed_addr #1 align 2 {
  %3 = alloca %"class.base::Location", align 8
  %4 = alloca %"class.base::OnceCallback", align 8
  %5 = getelementptr inbounds %"class.site_engagement::SiteEngagementService::Helper::InputTracker", %"class.site_engagement::SiteEngagementService::Helper::InputTracker"* %0, i64 0, i32 2
  %6 = load i8, i8* %5, align 8, !range !17
  %7 = icmp eq i8 %6, 0
  br i1 %7, label %44, label %8

8:                                                ; preds = %2
  %9 = getelementptr inbounds %"class.blink::WebInputEvent", %"class.blink::WebInputEvent"* %1, i64 0, i32 4
  %10 = load i32, i32* %9, align 8
  switch i32 %10, label %18 [
    i32 7, label %14
    i32 0, label %11
    i32 28, label %12
    i32 11, label %13
  ]

11:                                               ; preds = %8
  br label %14

12:                                               ; preds = %8
  br label %14

13:                                               ; preds = %8
  br label %14

14:                                               ; preds = %8, %11, %12, %13
  %15 = phi i32 [ 4, %13 ], [ 3, %12 ], [ 2, %11 ], [ 1, %8 ]
  %16 = getelementptr inbounds %"class.site_engagement::SiteEngagementService::Helper::InputTracker", %"class.site_engagement::SiteEngagementService::Helper::InputTracker"* %0, i64 0, i32 0, i32 1
  %17 = load %"class.site_engagement::SiteEngagementService::Helper"*, %"class.site_engagement::SiteEngagementService::Helper"** %16, align 8
  tail call void @_ZN15site_engagement21SiteEngagementService6Helper15RecordUserInputENS_14EngagementTypeE(%"class.site_engagement::SiteEngagementService::Helper"* %17, i32 %15)
  br label %18

18:                                               ; preds = %14, %8
  %19 = getelementptr inbounds %"class.site_engagement::SiteEngagementService::Helper::InputTracker", %"class.site_engagement::SiteEngagementService::Helper::InputTracker"* %0, i64 0, i32 0
  %20 = bitcast %"class.site_engagement::SiteEngagementService::Helper::InputTracker"* %0 to void (%"class.site_engagement::SiteEngagementService::Helper::PeriodicTracker"*)***
  %21 = load void (%"class.site_engagement::SiteEngagementService::Helper::PeriodicTracker"*)**, void (%"class.site_engagement::SiteEngagementService::Helper::PeriodicTracker"*)*** %20, align 8
  %22 = getelementptr inbounds void (%"class.site_engagement::SiteEngagementService::Helper::PeriodicTracker"*)*, void (%"class.site_engagement::SiteEngagementService::Helper::PeriodicTracker"*)** %21, i64 3
  %23 = load void (%"class.site_engagement::SiteEngagementService::Helper::PeriodicTracker"*)*, void (%"class.site_engagement::SiteEngagementService::Helper::PeriodicTracker"*)** %22, align 8
  tail call void %23(%"class.site_engagement::SiteEngagementService::Helper::PeriodicTracker"* %19) #9
  %24 = load i32, i32* @_ZN15site_engagement12_GLOBAL__N_139g_seconds_to_pause_engagement_detectionE, align 4
  %25 = sext i32 %24 to i64
  %26 = mul nsw i64 %25, 1000000
  %27 = bitcast %"class.base::OnceCallback"* %4 to i8*
  call void @llvm.lifetime.start.p0i8(i64 8, i8* nonnull %27) #9
  %28 = getelementptr inbounds %"class.site_engagement::SiteEngagementService::Helper::InputTracker", %"class.site_engagement::SiteEngagementService::Helper::InputTracker"* %0, i64 0, i32 0, i32 2, i32 0, i32 0, i32 0
  %29 = load %"class.base::OneShotTimer"*, %"class.base::OneShotTimer"** %28, align 8
  %30 = bitcast %"class.base::Location"* %3 to i8*
  call void @llvm.lifetime.start.p0i8(i64 32, i8* nonnull %30) #9
  call void @_ZN4base8Location7CurrentEPKcS2_i(%"class.base::Location"* nonnull sret %3, i8* getelementptr inbounds ([11 x i8], [11 x i8]* @.str, i64 0, i64 0), i8* getelementptr inbounds ([58 x i8], [58 x i8]* @.str.1, i64 0, i64 0), i32 90) #9
  %31 = ptrtoint %"class.site_engagement::SiteEngagementService::Helper::InputTracker"* %0 to i64
  %32 = call i8* @_Znwm(i64 56) #10, !noalias !18
  %33 = bitcast i8* %32 to %"class.base::internal::BindStateBase"*
  call void @_ZN4base8internal13BindStateBaseC2EPFvvEPFvPKS1_E(%"class.base::internal::BindStateBase"* nonnull %33, void ()* bitcast (void (%"class.base::internal::BindStateBase"*)* @_ZN4base8internal7InvokerINS0_9BindStateIMN15site_engagement21SiteEngagementService6Helper15PeriodicTrackerEFvvEJNS0_17UnretainedWrapperIS6_EEEEEFvvEE7RunOnceEPNS0_13BindStateBaseE to void ()*), void (%"class.base::internal::BindStateBase"*)* nonnull @_ZN4base8internal9BindStateIMN15site_engagement21SiteEngagementService6Helper15PeriodicTrackerEFvvEJNS0_17UnretainedWrapperIS5_EEEE7DestroyEPKNS0_13BindStateBaseE) #9, !noalias !18
  %34 = getelementptr inbounds i8, i8* %32, i64 32
  %35 = bitcast i8* %34 to <2 x i64>*
  store <2 x i64> <i64 17, i64 0>, <2 x i64>* %35, align 8, !noalias !18
  %36 = getelementptr inbounds i8, i8* %32, i64 48
  %37 = bitcast i8* %36 to i64*
  store i64 %31, i64* %37, align 8, !noalias !18
  %38 = bitcast %"class.base::OnceCallback"* %4 to i8**
  store i8* %32, i8** %38, align 8, !alias.scope !18
  %39 = bitcast %"class.base::OneShotTimer"* %29 to void (%"class.base::OneShotTimer"*, %"class.base::Location"*, i64, %"class.base::OnceCallback"*)***
  %40 = load void (%"class.base::OneShotTimer"*, %"class.base::Location"*, i64, %"class.base::OnceCallback"*)**, void (%"class.base::OneShotTimer"*, %"class.base::Location"*, i64, %"class.base::OnceCallback"*)*** %39, align 8
  %41 = getelementptr inbounds void (%"class.base::OneShotTimer"*, %"class.base::Location"*, i64, %"class.base::OnceCallback"*)*, void (%"class.base::OneShotTimer"*, %"class.base::Location"*, i64, %"class.base::OnceCallback"*)** %40, i64 7
  %42 = load void (%"class.base::OneShotTimer"*, %"class.base::Location"*, i64, %"class.base::OnceCallback"*)*, void (%"class.base::OneShotTimer"*, %"class.base::Location"*, i64, %"class.base::OnceCallback"*)** %41, align 8
  call void %42(%"class.base::OneShotTimer"* %29, %"class.base::Location"* nonnull dereferenceable(32) %3, i64 %26, %"class.base::OnceCallback"* nonnull %4) #9
  %43 = getelementptr inbounds %"class.base::OnceCallback", %"class.base::OnceCallback"* %4, i64 0, i32 0
  call void @_ZN4base8internal12CallbackBaseD2Ev(%"class.base::internal::CallbackBase"* nonnull %43) #9
  call void @llvm.lifetime.end.p0i8(i64 32, i8* nonnull %30) #9
  call void @llvm.lifetime.end.p0i8(i64 8, i8* nonnull %27) #9
  br label %44

44:                                               ; preds = %2, %18
  ret void
}

; Function Attrs: nounwind ssp uwtable
define hidden void @_ZN15site_engagement21SiteEngagementService6Helper15RecordUserInputENS_14EngagementTypeE(%"class.site_engagement::SiteEngagementService::Helper"*, i32) local_unnamed_addr #1 align 2 {
  %3 = alloca %"class.base::TimeTicks", align 8
  %4 = load i8, i8* getelementptr inbounds ([300 x %"struct.base::trace_event::TraceCategory"], [300 x %"struct.base::trace_event::TraceCategory"]* @_ZN4base11trace_event16CategoryRegistry11categories_E, i64 0, i64 118, i32 0), align 16
  %5 = and i8 %4, 25
  %6 = icmp eq i8 %5, 0
  br i1 %6, label %13, label %7, !prof !23

7:                                                ; preds = %2
  %8 = tail call i32 @_ZN4base14PlatformThread9CurrentIdEv() #9
  %9 = bitcast %"class.base::TimeTicks"* %3 to i8*
  call void @llvm.lifetime.start.p0i8(i64 8, i8* nonnull %9) #9
  %10 = getelementptr inbounds %"class.base::TimeTicks", %"class.base::TimeTicks"* %3, i64 0, i32 0, i32 0
  %11 = tail call i64 @_ZN4base6subtle28TimeTicksNowIgnoringOverrideEv() #9
  store i64 %11, i64* %10, align 8
  %12 = call i64 @_ZN20trace_event_internal37AddTraceEventWithThreadIdAndTimestampEcPKhPKcS3_yyiRKN4base9TimeTicksEPNS4_11trace_event14TraceArgumentsEj(i8 signext 88, i8* getelementptr inbounds ([300 x %"struct.base::trace_event::TraceCategory"], [300 x %"struct.base::trace_event::TraceCategory"]* @_ZN4base11trace_event16CategoryRegistry11categories_E, i64 0, i64 118, i32 0), i8* getelementptr inbounds ([16 x i8], [16 x i8]* @.str.2, i64 0, i64 0), i8* null, i64 0, i64 0, i32 %8, %"class.base::TimeTicks"* nonnull dereferenceable(8) %3, %"class.base::trace_event::TraceArguments"* null, i32 0) #9
  call void @llvm.lifetime.end.p0i8(i64 8, i8* nonnull %9) #9
  br label %13

13:                                               ; preds = %2, %7
  %14 = phi i64 [ -6148914691236517206, %2 ], [ %12, %7 ]
  %15 = phi i8* [ inttoptr (i64 -6148914691236517206 to i8*), %2 ], [ getelementptr inbounds ([16 x i8], [16 x i8]* @.str.2, i64 0, i64 0), %7 ]
  %16 = phi i8* [ null, %2 ], [ getelementptr inbounds ([300 x %"struct.base::trace_event::TraceCategory"], [300 x %"struct.base::trace_event::TraceCategory"]* @_ZN4base11trace_event16CategoryRegistry11categories_E, i64 0, i64 118, i32 0), %7 ]
  %17 = getelementptr inbounds %"class.site_engagement::SiteEngagementService::Helper", %"class.site_engagement::SiteEngagementService::Helper"* %0, i64 0, i32 0
  %18 = call %"class.content::WebContents"* @_ZNK7content19WebContentsObserver12web_contentsEv(%"class.content::WebContentsObserver"* %17) #9
  %19 = icmp eq %"class.content::WebContents"* %18, null
  br i1 %19, label %23, label %20

20:                                               ; preds = %13
  %21 = getelementptr inbounds %"class.site_engagement::SiteEngagementService::Helper", %"class.site_engagement::SiteEngagementService::Helper"* %0, i64 0, i32 4
  %22 = load %"class.site_engagement::SiteEngagementService"*, %"class.site_engagement::SiteEngagementService"** %21, align 8
  call void @_ZN15site_engagement21SiteEngagementService15HandleUserInputEPN7content11WebContentsENS_14EngagementTypeE(%"class.site_engagement::SiteEngagementService"* %22, %"class.content::WebContents"* nonnull %18, i32 %1) #9
  br label %23

23:                                               ; preds = %13, %20
  %24 = icmp eq i8* %16, null
  br i1 %24, label %29, label %25

25:                                               ; preds = %23
  %26 = load i8, i8* %16, align 1
  %27 = icmp eq i8 %26, 0
  br i1 %27, label %29, label %28

28:                                               ; preds = %25
  call void @_ZN20trace_event_internal24UpdateTraceEventDurationEPKhPKcN4base11trace_event16TraceEventHandleE(i8* nonnull %16, i8* %15, i64 %14) #9
  br label %29

29:                                               ; preds = %23, %25, %28
  ret void
}

; Function Attrs: nounwind ssp uwtable
define hidden void @_ZThn24_N15site_engagement21SiteEngagementService6Helper12InputTracker21DidGetUserInteractionERKN5blink13WebInputEventE(%"class.site_engagement::SiteEngagementService::Helper::InputTracker"*, %"class.blink::WebInputEvent"* nocapture readonly dereferenceable(40)) unnamed_addr #1 align 2 {
  %3 = getelementptr inbounds %"class.site_engagement::SiteEngagementService::Helper::InputTracker", %"class.site_engagement::SiteEngagementService::Helper::InputTracker"* %0, i64 -1, i32 1
  %4 = bitcast %"class.content::WebContentsObserver"* %3 to %"class.site_engagement::SiteEngagementService::Helper::InputTracker"*
  tail call void @_ZN15site_engagement21SiteEngagementService6Helper12InputTracker21DidGetUserInteractionERKN5blink13WebInputEventE(%"class.site_engagement::SiteEngagementService::Helper::InputTracker"* %4, %"class.blink::WebInputEvent"* dereferenceable(40) %1)
  ret void
}

; Function Attrs: nounwind ssp uwtable
define hidden void @_ZN15site_engagement21SiteEngagementService6Helper12MediaTrackerC2EPS1_PN7content11WebContentsE(%"class.site_engagement::SiteEngagementService::Helper::MediaTracker"*, %"class.site_engagement::SiteEngagementService::Helper"*, %"class.content::WebContents"*) unnamed_addr #1 align 2 {
  %4 = getelementptr inbounds %"class.site_engagement::SiteEngagementService::Helper::MediaTracker", %"class.site_engagement::SiteEngagementService::Helper::MediaTracker"* %0, i64 0, i32 0, i32 0
  store i32 (...)** bitcast (i8** getelementptr inbounds ({ [6 x i8*] }, { [6 x i8*] }* @_ZTVN15site_engagement21SiteEngagementService6Helper15PeriodicTrackerE, i64 0, inrange i32 0, i64 2) to i32 (...)**), i32 (...)*** %4, align 8
  %5 = getelementptr inbounds %"class.site_engagement::SiteEngagementService::Helper::MediaTracker", %"class.site_engagement::SiteEngagementService::Helper::MediaTracker"* %0, i64 0, i32 0, i32 1
  store %"class.site_engagement::SiteEngagementService::Helper"* %1, %"class.site_engagement::SiteEngagementService::Helper"** %5, align 8
  %6 = tail call i8* @_Znwm(i64 128) #10
  %7 = bitcast i8* %6 to %"class.base::OneShotTimer"*
  tail call void @_ZN4base12OneShotTimerC1Ev(%"class.base::OneShotTimer"* nonnull %7) #9
  %8 = getelementptr inbounds %"class.site_engagement::SiteEngagementService::Helper::MediaTracker", %"class.site_engagement::SiteEngagementService::Helper::MediaTracker"* %0, i64 0, i32 0, i32 2, i32 0, i32 0, i32 0
  %9 = bitcast %"class.base::OneShotTimer"** %8 to i8**
  store i8* %6, i8** %9, align 8
  %10 = getelementptr inbounds %"class.site_engagement::SiteEngagementService::Helper::MediaTracker", %"class.site_engagement::SiteEngagementService::Helper::MediaTracker"* %0, i64 0, i32 1
  tail call void @_ZN7content19WebContentsObserverC2EPNS_11WebContentsE(%"class.content::WebContentsObserver"* %10, %"class.content::WebContents"* %2) #9
  store i32 (...)** bitcast (i8** getelementptr inbounds ({ [9 x i8*], [109 x i8*] }, { [9 x i8*], [109 x i8*] }* @_ZTVN15site_engagement21SiteEngagementService6Helper12MediaTrackerE, i64 0, inrange i32 0, i64 2) to i32 (...)**), i32 (...)*** %4, align 8
  %11 = getelementptr inbounds %"class.content::WebContentsObserver", %"class.content::WebContentsObserver"* %10, i64 0, i32 0, i32 0
  store i32 (...)** bitcast (i8** getelementptr inbounds ({ [9 x i8*], [109 x i8*] }, { [9 x i8*], [109 x i8*] }* @_ZTVN15site_engagement21SiteEngagementService6Helper12MediaTrackerE, i64 0, inrange i32 1, i64 2) to i32 (...)**), i32 (...)*** %11, align 8
  %12 = getelementptr inbounds %"class.site_engagement::SiteEngagementService::Helper::MediaTracker", %"class.site_engagement::SiteEngagementService::Helper::MediaTracker"* %0, i64 0, i32 2
  %13 = bitcast %"class.std::__1::vector"* %12 to i8*
  tail call void @llvm.memset.p0i8.i64(i8* align 8 %13, i8 0, i64 24, i1 false) #9
  ret void
}

; Function Attrs: nounwind ssp uwtable
define hidden void @_ZN15site_engagement21SiteEngagementService6Helper12MediaTrackerD2Ev(%"class.site_engagement::SiteEngagementService::Helper::MediaTracker"*) unnamed_addr #1 align 2 {
  %2 = getelementptr inbounds %"class.site_engagement::SiteEngagementService::Helper::MediaTracker", %"class.site_engagement::SiteEngagementService::Helper::MediaTracker"* %0, i64 0, i32 0, i32 0
  store i32 (...)** bitcast (i8** getelementptr inbounds ({ [9 x i8*], [109 x i8*] }, { [9 x i8*], [109 x i8*] }* @_ZTVN15site_engagement21SiteEngagementService6Helper12MediaTrackerE, i64 0, inrange i32 0, i64 2) to i32 (...)**), i32 (...)*** %2, align 8
  %3 = getelementptr inbounds %"class.site_engagement::SiteEngagementService::Helper::MediaTracker", %"class.site_engagement::SiteEngagementService::Helper::MediaTracker"* %0, i64 0, i32 1
  %4 = getelementptr inbounds %"class.content::WebContentsObserver", %"class.content::WebContentsObserver"* %3, i64 0, i32 0, i32 0
  store i32 (...)** bitcast (i8** getelementptr inbounds ({ [9 x i8*], [109 x i8*] }, { [9 x i8*], [109 x i8*] }* @_ZTVN15site_engagement21SiteEngagementService6Helper12MediaTrackerE, i64 0, inrange i32 1, i64 2) to i32 (...)**), i32 (...)*** %4, align 8
  %5 = getelementptr inbounds %"class.site_engagement::SiteEngagementService::Helper::MediaTracker", %"class.site_engagement::SiteEngagementService::Helper::MediaTracker"* %0, i64 0, i32 2, i32 0, i32 0
  %6 = load %"struct.content::MediaPlayerId"*, %"struct.content::MediaPlayerId"** %5, align 8
  %7 = icmp eq %"struct.content::MediaPlayerId"* %6, null
  br i1 %7, label %13, label %8

8:                                                ; preds = %1
  %9 = ptrtoint %"struct.content::MediaPlayerId"* %6 to i64
  %10 = getelementptr inbounds %"class.site_engagement::SiteEngagementService::Helper::MediaTracker", %"class.site_engagement::SiteEngagementService::Helper::MediaTracker"* %0, i64 0, i32 2, i32 0, i32 1
  %11 = bitcast %"struct.content::MediaPlayerId"** %10 to i64*
  store i64 %9, i64* %11, align 8
  %12 = bitcast %"struct.content::MediaPlayerId"* %6 to i8*
  tail call void @_ZdlPv(i8* %12) #10
  br label %13

13:                                               ; preds = %1, %8
  tail call void @_ZN7content19WebContentsObserverD2Ev(%"class.content::WebContentsObserver"* %3) #9
  store i32 (...)** bitcast (i8** getelementptr inbounds ({ [6 x i8*] }, { [6 x i8*] }* @_ZTVN15site_engagement21SiteEngagementService6Helper15PeriodicTrackerE, i64 0, inrange i32 0, i64 2) to i32 (...)**), i32 (...)*** %2, align 8
  %14 = getelementptr inbounds %"class.site_engagement::SiteEngagementService::Helper::MediaTracker", %"class.site_engagement::SiteEngagementService::Helper::MediaTracker"* %0, i64 0, i32 0, i32 2, i32 0, i32 0, i32 0
  %15 = load %"class.base::OneShotTimer"*, %"class.base::OneShotTimer"** %14, align 8
  store %"class.base::OneShotTimer"* null, %"class.base::OneShotTimer"** %14, align 8
  %16 = icmp eq %"class.base::OneShotTimer"* %15, null
  br i1 %16, label %22, label %17

17:                                               ; preds = %13
  %18 = bitcast %"class.base::OneShotTimer"* %15 to void (%"class.base::OneShotTimer"*)***
  %19 = load void (%"class.base::OneShotTimer"*)**, void (%"class.base::OneShotTimer"*)*** %18, align 8
  %20 = getelementptr inbounds void (%"class.base::OneShotTimer"*)*, void (%"class.base::OneShotTimer"*)** %19, i64 1
  %21 = load void (%"class.base::OneShotTimer"*)*, void (%"class.base::OneShotTimer"*)** %20, align 8
  tail call void %21(%"class.base::OneShotTimer"* nonnull %15) #9
  br label %22

22:                                               ; preds = %13, %17
  ret void
}

; Function Attrs: nounwind ssp uwtable
define hidden void @_ZThn24_N15site_engagement21SiteEngagementService6Helper12MediaTrackerD1Ev(%"class.site_engagement::SiteEngagementService::Helper::MediaTracker"*) unnamed_addr #1 align 2 {
  %2 = getelementptr inbounds %"class.site_engagement::SiteEngagementService::Helper::MediaTracker", %"class.site_engagement::SiteEngagementService::Helper::MediaTracker"* %0, i64 -1, i32 2
  %3 = bitcast %"class.std::__1::vector"* %2 to i32 (...)***
  store i32 (...)** bitcast (i8** getelementptr inbounds ({ [9 x i8*], [109 x i8*] }, { [9 x i8*], [109 x i8*] }* @_ZTVN15site_engagement21SiteEngagementService6Helper12MediaTrackerE, i64 0, inrange i32 0, i64 2) to i32 (...)**), i32 (...)*** %3, align 8
  %4 = getelementptr inbounds %"class.std::__1::vector", %"class.std::__1::vector"* %2, i64 1
  %5 = bitcast %"class.std::__1::vector"* %4 to %"class.content::WebContentsObserver"*
  %6 = bitcast %"class.std::__1::vector"* %4 to i32 (...)***
  store i32 (...)** bitcast (i8** getelementptr inbounds ({ [9 x i8*], [109 x i8*] }, { [9 x i8*], [109 x i8*] }* @_ZTVN15site_engagement21SiteEngagementService6Helper12MediaTrackerE, i64 0, inrange i32 1, i64 2) to i32 (...)**), i32 (...)*** %6, align 8
  %7 = getelementptr inbounds %"class.std::__1::vector", %"class.std::__1::vector"* %2, i64 1, i32 0, i32 2, i32 0, i32 0
  %8 = load %"struct.content::MediaPlayerId"*, %"struct.content::MediaPlayerId"** %7, align 8
  %9 = icmp eq %"struct.content::MediaPlayerId"* %8, null
  br i1 %9, label %15, label %10

10:                                               ; preds = %1
  %11 = ptrtoint %"struct.content::MediaPlayerId"* %8 to i64
  %12 = getelementptr inbounds %"class.std::__1::vector", %"class.std::__1::vector"* %2, i64 2, i32 0, i32 0
  %13 = bitcast %"struct.content::MediaPlayerId"** %12 to i64*
  store i64 %11, i64* %13, align 8
  %14 = bitcast %"struct.content::MediaPlayerId"* %8 to i8*
  tail call void @_ZdlPv(i8* %14) #10
  br label %15

15:                                               ; preds = %10, %1
  tail call void @_ZN7content19WebContentsObserverD2Ev(%"class.content::WebContentsObserver"* %5) #9
  store i32 (...)** bitcast (i8** getelementptr inbounds ({ [6 x i8*] }, { [6 x i8*] }* @_ZTVN15site_engagement21SiteEngagementService6Helper15PeriodicTrackerE, i64 0, inrange i32 0, i64 2) to i32 (...)**), i32 (...)*** %3, align 8
  %16 = getelementptr inbounds %"class.site_engagement::SiteEngagementService::Helper::MediaTracker", %"class.site_engagement::SiteEngagementService::Helper::MediaTracker"* %0, i64 -1, i32 2, i32 0, i32 2
  %17 = bitcast %"class.std::__1::__compressed_pair.17"* %16 to %"class.base::OneShotTimer"**
  %18 = load %"class.base::OneShotTimer"*, %"class.base::OneShotTimer"** %17, align 8
  store %"class.base::OneShotTimer"* null, %"class.base::OneShotTimer"** %17, align 8
  %19 = icmp eq %"class.base::OneShotTimer"* %18, null
  br i1 %19, label %25, label %20

20:                                               ; preds = %15
  %21 = bitcast %"class.base::OneShotTimer"* %18 to void (%"class.base::OneShotTimer"*)***
  %22 = load void (%"class.base::OneShotTimer"*)**, void (%"class.base::OneShotTimer"*)*** %21, align 8
  %23 = getelementptr inbounds void (%"class.base::OneShotTimer"*)*, void (%"class.base::OneShotTimer"*)** %22, i64 1
  %24 = load void (%"class.base::OneShotTimer"*)*, void (%"class.base::OneShotTimer"*)** %23, align 8
  tail call void %24(%"class.base::OneShotTimer"* nonnull %18) #9
  br label %25

25:                                               ; preds = %15, %20
  ret void
}

; Function Attrs: nounwind ssp uwtable
define hidden void @_ZN15site_engagement21SiteEngagementService6Helper12MediaTrackerD0Ev(%"class.site_engagement::SiteEngagementService::Helper::MediaTracker"*) unnamed_addr #1 align 2 {
  %2 = getelementptr inbounds %"class.site_engagement::SiteEngagementService::Helper::MediaTracker", %"class.site_engagement::SiteEngagementService::Helper::MediaTracker"* %0, i64 0, i32 0, i32 0
  store i32 (...)** bitcast (i8** getelementptr inbounds ({ [9 x i8*], [109 x i8*] }, { [9 x i8*], [109 x i8*] }* @_ZTVN15site_engagement21SiteEngagementService6Helper12MediaTrackerE, i64 0, inrange i32 0, i64 2) to i32 (...)**), i32 (...)*** %2, align 8
  %3 = getelementptr inbounds %"class.site_engagement::SiteEngagementService::Helper::MediaTracker", %"class.site_engagement::SiteEngagementService::Helper::MediaTracker"* %0, i64 0, i32 1
  %4 = getelementptr inbounds %"class.content::WebContentsObserver", %"class.content::WebContentsObserver"* %3, i64 0, i32 0, i32 0
  store i32 (...)** bitcast (i8** getelementptr inbounds ({ [9 x i8*], [109 x i8*] }, { [9 x i8*], [109 x i8*] }* @_ZTVN15site_engagement21SiteEngagementService6Helper12MediaTrackerE, i64 0, inrange i32 1, i64 2) to i32 (...)**), i32 (...)*** %4, align 8
  %5 = getelementptr inbounds %"class.site_engagement::SiteEngagementService::Helper::MediaTracker", %"class.site_engagement::SiteEngagementService::Helper::MediaTracker"* %0, i64 0, i32 2, i32 0, i32 0
  %6 = load %"struct.content::MediaPlayerId"*, %"struct.content::MediaPlayerId"** %5, align 8
  %7 = icmp eq %"struct.content::MediaPlayerId"* %6, null
  br i1 %7, label %13, label %8

8:                                                ; preds = %1
  %9 = ptrtoint %"struct.content::MediaPlayerId"* %6 to i64
  %10 = getelementptr inbounds %"class.site_engagement::SiteEngagementService::Helper::MediaTracker", %"class.site_engagement::SiteEngagementService::Helper::MediaTracker"* %0, i64 0, i32 2, i32 0, i32 1
  %11 = bitcast %"struct.content::MediaPlayerId"** %10 to i64*
  store i64 %9, i64* %11, align 8
  %12 = bitcast %"struct.content::MediaPlayerId"* %6 to i8*
  tail call void @_ZdlPv(i8* %12) #10
  br label %13

13:                                               ; preds = %8, %1
  tail call void @_ZN7content19WebContentsObserverD2Ev(%"class.content::WebContentsObserver"* %3) #9
  store i32 (...)** bitcast (i8** getelementptr inbounds ({ [6 x i8*] }, { [6 x i8*] }* @_ZTVN15site_engagement21SiteEngagementService6Helper15PeriodicTrackerE, i64 0, inrange i32 0, i64 2) to i32 (...)**), i32 (...)*** %2, align 8
  %14 = getelementptr inbounds %"class.site_engagement::SiteEngagementService::Helper::MediaTracker", %"class.site_engagement::SiteEngagementService::Helper::MediaTracker"* %0, i64 0, i32 0, i32 2, i32 0, i32 0, i32 0
  %15 = load %"class.base::OneShotTimer"*, %"class.base::OneShotTimer"** %14, align 8
  store %"class.base::OneShotTimer"* null, %"class.base::OneShotTimer"** %14, align 8
  %16 = icmp eq %"class.base::OneShotTimer"* %15, null
  br i1 %16, label %22, label %17

17:                                               ; preds = %13
  %18 = bitcast %"class.base::OneShotTimer"* %15 to void (%"class.base::OneShotTimer"*)***
  %19 = load void (%"class.base::OneShotTimer"*)**, void (%"class.base::OneShotTimer"*)*** %18, align 8
  %20 = getelementptr inbounds void (%"class.base::OneShotTimer"*)*, void (%"class.base::OneShotTimer"*)** %19, i64 1
  %21 = load void (%"class.base::OneShotTimer"*)*, void (%"class.base::OneShotTimer"*)** %20, align 8
  tail call void %21(%"class.base::OneShotTimer"* nonnull %15) #9
  br label %22

22:                                               ; preds = %13, %17
  %23 = bitcast %"class.site_engagement::SiteEngagementService::Helper::MediaTracker"* %0 to i8*
  tail call void @_ZdlPv(i8* %23) #10
  ret void
}

; Function Attrs: nounwind ssp uwtable
define hidden void @_ZThn24_N15site_engagement21SiteEngagementService6Helper12MediaTrackerD0Ev(%"class.site_engagement::SiteEngagementService::Helper::MediaTracker"*) unnamed_addr #1 align 2 {
  %2 = getelementptr inbounds %"class.site_engagement::SiteEngagementService::Helper::MediaTracker", %"class.site_engagement::SiteEngagementService::Helper::MediaTracker"* %0, i64 -1, i32 2
  %3 = bitcast %"class.std::__1::vector"* %2 to i32 (...)***
  store i32 (...)** bitcast (i8** getelementptr inbounds ({ [9 x i8*], [109 x i8*] }, { [9 x i8*], [109 x i8*] }* @_ZTVN15site_engagement21SiteEngagementService6Helper12MediaTrackerE, i64 0, inrange i32 0, i64 2) to i32 (...)**), i32 (...)*** %3, align 8
  %4 = getelementptr inbounds %"class.std::__1::vector", %"class.std::__1::vector"* %2, i64 1
  %5 = bitcast %"class.std::__1::vector"* %4 to %"class.content::WebContentsObserver"*
  %6 = bitcast %"class.std::__1::vector"* %4 to i32 (...)***
  store i32 (...)** bitcast (i8** getelementptr inbounds ({ [9 x i8*], [109 x i8*] }, { [9 x i8*], [109 x i8*] }* @_ZTVN15site_engagement21SiteEngagementService6Helper12MediaTrackerE, i64 0, inrange i32 1, i64 2) to i32 (...)**), i32 (...)*** %6, align 8
  %7 = getelementptr inbounds %"class.std::__1::vector", %"class.std::__1::vector"* %2, i64 1, i32 0, i32 2, i32 0, i32 0
  %8 = load %"struct.content::MediaPlayerId"*, %"struct.content::MediaPlayerId"** %7, align 8
  %9 = icmp eq %"struct.content::MediaPlayerId"* %8, null
  br i1 %9, label %15, label %10

10:                                               ; preds = %1
  %11 = ptrtoint %"struct.content::MediaPlayerId"* %8 to i64
  %12 = getelementptr inbounds %"class.std::__1::vector", %"class.std::__1::vector"* %2, i64 2, i32 0, i32 0
  %13 = bitcast %"struct.content::MediaPlayerId"** %12 to i64*
  store i64 %11, i64* %13, align 8
  %14 = bitcast %"struct.content::MediaPlayerId"* %8 to i8*
  tail call void @_ZdlPv(i8* %14) #10
  br label %15

15:                                               ; preds = %10, %1
  tail call void @_ZN7content19WebContentsObserverD2Ev(%"class.content::WebContentsObserver"* %5) #9
  store i32 (...)** bitcast (i8** getelementptr inbounds ({ [6 x i8*] }, { [6 x i8*] }* @_ZTVN15site_engagement21SiteEngagementService6Helper15PeriodicTrackerE, i64 0, inrange i32 0, i64 2) to i32 (...)**), i32 (...)*** %3, align 8
  %16 = getelementptr inbounds %"class.site_engagement::SiteEngagementService::Helper::MediaTracker", %"class.site_engagement::SiteEngagementService::Helper::MediaTracker"* %0, i64 -1, i32 2, i32 0, i32 2
  %17 = bitcast %"class.std::__1::__compressed_pair.17"* %16 to %"class.base::OneShotTimer"**
  %18 = load %"class.base::OneShotTimer"*, %"class.base::OneShotTimer"** %17, align 8
  store %"class.base::OneShotTimer"* null, %"class.base::OneShotTimer"** %17, align 8
  %19 = icmp eq %"class.base::OneShotTimer"* %18, null
  br i1 %19, label %25, label %20

20:                                               ; preds = %15
  %21 = bitcast %"class.base::OneShotTimer"* %18 to void (%"class.base::OneShotTimer"*)***
  %22 = load void (%"class.base::OneShotTimer"*)**, void (%"class.base::OneShotTimer"*)*** %21, align 8
  %23 = getelementptr inbounds void (%"class.base::OneShotTimer"*)*, void (%"class.base::OneShotTimer"*)** %22, i64 1
  %24 = load void (%"class.base::OneShotTimer"*)*, void (%"class.base::OneShotTimer"*)** %23, align 8
  tail call void %24(%"class.base::OneShotTimer"* nonnull %18) #9
  br label %25

25:                                               ; preds = %15, %20
  %26 = bitcast %"class.std::__1::vector"* %2 to i8*
  tail call void @_ZdlPv(i8* %26) #10
  ret void
}

; Function Attrs: nounwind ssp uwtable
define hidden void @_ZN15site_engagement21SiteEngagementService6Helper12MediaTracker15TrackingStartedEv(%"class.site_engagement::SiteEngagementService::Helper::MediaTracker"*) unnamed_addr #1 align 2 {
  %2 = alloca %"class.base::Location", align 8
  %3 = alloca %"class.base::OnceCallback", align 8
  %4 = getelementptr inbounds %"class.site_engagement::SiteEngagementService::Helper::MediaTracker", %"class.site_engagement::SiteEngagementService::Helper::MediaTracker"* %0, i64 0, i32 2, i32 0, i32 0
  %5 = load %"struct.content::MediaPlayerId"*, %"struct.content::MediaPlayerId"** %4, align 8
  %6 = getelementptr inbounds %"class.site_engagement::SiteEngagementService::Helper::MediaTracker", %"class.site_engagement::SiteEngagementService::Helper::MediaTracker"* %0, i64 0, i32 2, i32 0, i32 1
  %7 = load %"struct.content::MediaPlayerId"*, %"struct.content::MediaPlayerId"** %6, align 8
  %8 = icmp eq %"struct.content::MediaPlayerId"* %5, %7
  br i1 %8, label %26, label %9

9:                                                ; preds = %1
  %10 = getelementptr inbounds %"class.site_engagement::SiteEngagementService::Helper::MediaTracker", %"class.site_engagement::SiteEngagementService::Helper::MediaTracker"* %0, i64 0, i32 0, i32 1
  %11 = load %"class.site_engagement::SiteEngagementService::Helper"*, %"class.site_engagement::SiteEngagementService::Helper"** %10, align 8
  %12 = getelementptr inbounds %"class.site_engagement::SiteEngagementService::Helper::MediaTracker", %"class.site_engagement::SiteEngagementService::Helper::MediaTracker"* %0, i64 0, i32 1
  %13 = tail call %"class.content::WebContents"* @_ZNK7content19WebContentsObserver12web_contentsEv(%"class.content::WebContentsObserver"* %12) #9
  %14 = bitcast %"class.content::WebContents"* %13 to i32 (%"class.content::WebContents"*)***
  %15 = load i32 (%"class.content::WebContents"*)**, i32 (%"class.content::WebContents"*)*** %14, align 8
  %16 = getelementptr inbounds i32 (%"class.content::WebContents"*)*, i32 (%"class.content::WebContents"*)** %15, i64 76
  %17 = load i32 (%"class.content::WebContents"*)*, i32 (%"class.content::WebContents"*)** %16, align 8
  %18 = tail call i32 %17(%"class.content::WebContents"* %13) #9
  %19 = getelementptr inbounds %"class.site_engagement::SiteEngagementService::Helper", %"class.site_engagement::SiteEngagementService::Helper"* %11, i64 0, i32 0
  %20 = tail call %"class.content::WebContents"* @_ZNK7content19WebContentsObserver12web_contentsEv(%"class.content::WebContentsObserver"* %19) #9
  %21 = icmp eq %"class.content::WebContents"* %20, null
  br i1 %21, label %26, label %22

22:                                               ; preds = %9
  %23 = icmp eq i32 %18, 0
  %24 = getelementptr inbounds %"class.site_engagement::SiteEngagementService::Helper", %"class.site_engagement::SiteEngagementService::Helper"* %11, i64 0, i32 4
  %25 = load %"class.site_engagement::SiteEngagementService"*, %"class.site_engagement::SiteEngagementService"** %24, align 8
  tail call void @_ZN15site_engagement21SiteEngagementService18HandleMediaPlayingEPN7content11WebContentsEb(%"class.site_engagement::SiteEngagementService"* %25, %"class.content::WebContents"* nonnull %20, i1 zeroext %23) #9
  br label %26

26:                                               ; preds = %22, %9, %1
  %27 = getelementptr inbounds %"class.site_engagement::SiteEngagementService::Helper::MediaTracker", %"class.site_engagement::SiteEngagementService::Helper::MediaTracker"* %0, i64 0, i32 0
  %28 = bitcast %"class.site_engagement::SiteEngagementService::Helper::MediaTracker"* %0 to void (%"class.site_engagement::SiteEngagementService::Helper::PeriodicTracker"*)***
  %29 = load void (%"class.site_engagement::SiteEngagementService::Helper::PeriodicTracker"*)**, void (%"class.site_engagement::SiteEngagementService::Helper::PeriodicTracker"*)*** %28, align 8
  %30 = getelementptr inbounds void (%"class.site_engagement::SiteEngagementService::Helper::PeriodicTracker"*)*, void (%"class.site_engagement::SiteEngagementService::Helper::PeriodicTracker"*)** %29, i64 3
  %31 = load void (%"class.site_engagement::SiteEngagementService::Helper::PeriodicTracker"*)*, void (%"class.site_engagement::SiteEngagementService::Helper::PeriodicTracker"*)** %30, align 8
  tail call void %31(%"class.site_engagement::SiteEngagementService::Helper::PeriodicTracker"* %27) #9
  %32 = load i32, i32* @_ZN15site_engagement12_GLOBAL__N_139g_seconds_to_pause_engagement_detectionE, align 4
  %33 = sext i32 %32 to i64
  %34 = mul nsw i64 %33, 1000000
  %35 = bitcast %"class.base::OnceCallback"* %3 to i8*
  call void @llvm.lifetime.start.p0i8(i64 8, i8* nonnull %35) #9
  %36 = getelementptr inbounds %"class.site_engagement::SiteEngagementService::Helper::MediaTracker", %"class.site_engagement::SiteEngagementService::Helper::MediaTracker"* %0, i64 0, i32 0, i32 2, i32 0, i32 0, i32 0
  %37 = load %"class.base::OneShotTimer"*, %"class.base::OneShotTimer"** %36, align 8
  %38 = bitcast %"class.base::Location"* %2 to i8*
  call void @llvm.lifetime.start.p0i8(i64 32, i8* nonnull %38) #9
  call void @_ZN4base8Location7CurrentEPKcS2_i(%"class.base::Location"* nonnull sret %2, i8* getelementptr inbounds ([11 x i8], [11 x i8]* @.str, i64 0, i64 0), i8* getelementptr inbounds ([58 x i8], [58 x i8]* @.str.1, i64 0, i64 0), i32 90) #9
  %39 = ptrtoint %"class.site_engagement::SiteEngagementService::Helper::MediaTracker"* %0 to i64
  %40 = call i8* @_Znwm(i64 56) #10, !noalias !24
  %41 = bitcast i8* %40 to %"class.base::internal::BindStateBase"*
  call void @_ZN4base8internal13BindStateBaseC2EPFvvEPFvPKS1_E(%"class.base::internal::BindStateBase"* nonnull %41, void ()* bitcast (void (%"class.base::internal::BindStateBase"*)* @_ZN4base8internal7InvokerINS0_9BindStateIMN15site_engagement21SiteEngagementService6Helper15PeriodicTrackerEFvvEJNS0_17UnretainedWrapperIS6_EEEEEFvvEE7RunOnceEPNS0_13BindStateBaseE to void ()*), void (%"class.base::internal::BindStateBase"*)* nonnull @_ZN4base8internal9BindStateIMN15site_engagement21SiteEngagementService6Helper15PeriodicTrackerEFvvEJNS0_17UnretainedWrapperIS5_EEEE7DestroyEPKNS0_13BindStateBaseE) #9, !noalias !24
  %42 = getelementptr inbounds i8, i8* %40, i64 32
  %43 = bitcast i8* %42 to <2 x i64>*
  store <2 x i64> <i64 17, i64 0>, <2 x i64>* %43, align 8, !noalias !24
  %44 = getelementptr inbounds i8, i8* %40, i64 48
  %45 = bitcast i8* %44 to i64*
  store i64 %39, i64* %45, align 8, !noalias !24
  %46 = bitcast %"class.base::OnceCallback"* %3 to i8**
  store i8* %40, i8** %46, align 8, !alias.scope !24
  %47 = bitcast %"class.base::OneShotTimer"* %37 to void (%"class.base::OneShotTimer"*, %"class.base::Location"*, i64, %"class.base::OnceCallback"*)***
  %48 = load void (%"class.base::OneShotTimer"*, %"class.base::Location"*, i64, %"class.base::OnceCallback"*)**, void (%"class.base::OneShotTimer"*, %"class.base::Location"*, i64, %"class.base::OnceCallback"*)*** %47, align 8
  %49 = getelementptr inbounds void (%"class.base::OneShotTimer"*, %"class.base::Location"*, i64, %"class.base::OnceCallback"*)*, void (%"class.base::OneShotTimer"*, %"class.base::Location"*, i64, %"class.base::OnceCallback"*)** %48, i64 7
  %50 = load void (%"class.base::OneShotTimer"*, %"class.base::Location"*, i64, %"class.base::OnceCallback"*)*, void (%"class.base::OneShotTimer"*, %"class.base::Location"*, i64, %"class.base::OnceCallback"*)** %49, align 8
  call void %50(%"class.base::OneShotTimer"* %37, %"class.base::Location"* nonnull dereferenceable(32) %2, i64 %34, %"class.base::OnceCallback"* nonnull %3) #9
  %51 = getelementptr inbounds %"class.base::OnceCallback", %"class.base::OnceCallback"* %3, i64 0, i32 0
  call void @_ZN4base8internal12CallbackBaseD2Ev(%"class.base::internal::CallbackBase"* nonnull %51) #9
  call void @llvm.lifetime.end.p0i8(i64 32, i8* nonnull %38) #9
  call void @llvm.lifetime.end.p0i8(i64 8, i8* nonnull %35) #9
  ret void
}

; Function Attrs: nounwind ssp uwtable
define hidden void @_ZN15site_engagement21SiteEngagementService6Helper18RecordMediaPlayingEb(%"class.site_engagement::SiteEngagementService::Helper"*, i1 zeroext) local_unnamed_addr #1 align 2 {
  %3 = getelementptr inbounds %"class.site_engagement::SiteEngagementService::Helper", %"class.site_engagement::SiteEngagementService::Helper"* %0, i64 0, i32 0
  %4 = tail call %"class.content::WebContents"* @_ZNK7content19WebContentsObserver12web_contentsEv(%"class.content::WebContentsObserver"* %3) #9
  %5 = icmp eq %"class.content::WebContents"* %4, null
  br i1 %5, label %9, label %6

6:                                                ; preds = %2
  %7 = getelementptr inbounds %"class.site_engagement::SiteEngagementService::Helper", %"class.site_engagement::SiteEngagementService::Helper"* %0, i64 0, i32 4
  %8 = load %"class.site_engagement::SiteEngagementService"*, %"class.site_engagement::SiteEngagementService"** %7, align 8
  tail call void @_ZN15site_engagement21SiteEngagementService18HandleMediaPlayingEPN7content11WebContentsEb(%"class.site_engagement::SiteEngagementService"* %8, %"class.content::WebContents"* nonnull %4, i1 zeroext %1) #9
  br label %9

9:                                                ; preds = %2, %6
  ret void
}

; Function Attrs: nounwind ssp uwtable
define hidden void @_ZN15site_engagement21SiteEngagementService6Helper12MediaTracker19DidFinishNavigationEPN7content16NavigationHandleE(%"class.site_engagement::SiteEngagementService::Helper::MediaTracker"* nocapture, %"class.content::NavigationHandle"*) unnamed_addr #1 align 2 {
  %3 = bitcast %"class.content::NavigationHandle"* %1 to i1 (%"class.content::NavigationHandle"*)***
  %4 = load i1 (%"class.content::NavigationHandle"*)**, i1 (%"class.content::NavigationHandle"*)*** %3, align 8
  %5 = getelementptr inbounds i1 (%"class.content::NavigationHandle"*)*, i1 (%"class.content::NavigationHandle"*)** %4, i64 38
  %6 = load i1 (%"class.content::NavigationHandle"*)*, i1 (%"class.content::NavigationHandle"*)** %5, align 8
  %7 = tail call zeroext i1 %6(%"class.content::NavigationHandle"* %1) #9
  br i1 %7, label %8, label %24

8:                                                ; preds = %2
  %9 = load i1 (%"class.content::NavigationHandle"*)**, i1 (%"class.content::NavigationHandle"*)*** %3, align 8
  %10 = getelementptr inbounds i1 (%"class.content::NavigationHandle"*)*, i1 (%"class.content::NavigationHandle"*)** %9, i64 7
  %11 = load i1 (%"class.content::NavigationHandle"*)*, i1 (%"class.content::NavigationHandle"*)** %10, align 8
  %12 = tail call zeroext i1 %11(%"class.content::NavigationHandle"* %1) #9
  br i1 %12, label %13, label %24

13:                                               ; preds = %8
  %14 = load i1 (%"class.content::NavigationHandle"*)**, i1 (%"class.content::NavigationHandle"*)*** %3, align 8
  %15 = getelementptr inbounds i1 (%"class.content::NavigationHandle"*)*, i1 (%"class.content::NavigationHandle"*)** %14, i64 35
  %16 = load i1 (%"class.content::NavigationHandle"*)*, i1 (%"class.content::NavigationHandle"*)** %15, align 8
  %17 = tail call zeroext i1 %16(%"class.content::NavigationHandle"* %1) #9
  br i1 %17, label %24, label %18

18:                                               ; preds = %13
  %19 = getelementptr inbounds %"class.site_engagement::SiteEngagementService::Helper::MediaTracker", %"class.site_engagement::SiteEngagementService::Helper::MediaTracker"* %0, i64 0, i32 2
  %20 = bitcast %"class.std::__1::vector"* %19 to i64*
  %21 = load i64, i64* %20, align 8
  %22 = getelementptr inbounds %"class.site_engagement::SiteEngagementService::Helper::MediaTracker", %"class.site_engagement::SiteEngagementService::Helper::MediaTracker"* %0, i64 0, i32 2, i32 0, i32 1
  %23 = bitcast %"struct.content::MediaPlayerId"** %22 to i64*
  store i64 %21, i64* %23, align 8
  br label %24

24:                                               ; preds = %2, %8, %13, %18
  ret void
}

; Function Attrs: nounwind ssp uwtable
define hidden void @_ZThn24_N15site_engagement21SiteEngagementService6Helper12MediaTracker19DidFinishNavigationEPN7content16NavigationHandleE(%"class.site_engagement::SiteEngagementService::Helper::MediaTracker"* nocapture, %"class.content::NavigationHandle"*) unnamed_addr #1 align 2 {
  %3 = getelementptr inbounds %"class.site_engagement::SiteEngagementService::Helper::MediaTracker", %"class.site_engagement::SiteEngagementService::Helper::MediaTracker"* %0, i64 -1, i32 2
  %4 = bitcast %"class.content::NavigationHandle"* %1 to i1 (%"class.content::NavigationHandle"*)***
  %5 = load i1 (%"class.content::NavigationHandle"*)**, i1 (%"class.content::NavigationHandle"*)*** %4, align 8
  %6 = getelementptr inbounds i1 (%"class.content::NavigationHandle"*)*, i1 (%"class.content::NavigationHandle"*)** %5, i64 38
  %7 = load i1 (%"class.content::NavigationHandle"*)*, i1 (%"class.content::NavigationHandle"*)** %6, align 8
  %8 = tail call zeroext i1 %7(%"class.content::NavigationHandle"* %1) #9
  br i1 %8, label %9, label %25

9:                                                ; preds = %2
  %10 = load i1 (%"class.content::NavigationHandle"*)**, i1 (%"class.content::NavigationHandle"*)*** %4, align 8
  %11 = getelementptr inbounds i1 (%"class.content::NavigationHandle"*)*, i1 (%"class.content::NavigationHandle"*)** %10, i64 7
  %12 = load i1 (%"class.content::NavigationHandle"*)*, i1 (%"class.content::NavigationHandle"*)** %11, align 8
  %13 = tail call zeroext i1 %12(%"class.content::NavigationHandle"* %1) #9
  br i1 %13, label %14, label %25

14:                                               ; preds = %9
  %15 = load i1 (%"class.content::NavigationHandle"*)**, i1 (%"class.content::NavigationHandle"*)*** %4, align 8
  %16 = getelementptr inbounds i1 (%"class.content::NavigationHandle"*)*, i1 (%"class.content::NavigationHandle"*)** %15, i64 35
  %17 = load i1 (%"class.content::NavigationHandle"*)*, i1 (%"class.content::NavigationHandle"*)** %16, align 8
  %18 = tail call zeroext i1 %17(%"class.content::NavigationHandle"* %1) #9
  br i1 %18, label %25, label %19

19:                                               ; preds = %14
  %20 = getelementptr inbounds %"class.std::__1::vector", %"class.std::__1::vector"* %3, i64 1, i32 0, i32 2
  %21 = bitcast %"class.std::__1::__compressed_pair.17"* %20 to i64*
  %22 = load i64, i64* %21, align 8
  %23 = getelementptr inbounds %"class.std::__1::vector", %"class.std::__1::vector"* %3, i64 2, i32 0, i32 0
  %24 = bitcast %"struct.content::MediaPlayerId"** %23 to i64*
  store i64 %22, i64* %24, align 8
  br label %25

25:                                               ; preds = %2, %9, %14, %19
  ret void
}

; Function Attrs: nounwind ssp uwtable
define hidden void @_ZN15site_engagement21SiteEngagementService6Helper12MediaTracker19MediaStartedPlayingERKN7content19WebContentsObserver15MediaPlayerInfoERKNS3_13MediaPlayerIdE(%"class.site_engagement::SiteEngagementService::Helper::MediaTracker"*, %"struct.content::WebContentsObserver::MediaPlayerInfo"* nocapture readnone dereferenceable(2), %"struct.content::MediaPlayerId"* nocapture readonly dereferenceable(12)) unnamed_addr #1 align 2 {
  %4 = alloca %"class.base::Location", align 8
  %5 = alloca %"class.base::OnceCallback", align 8
  %6 = getelementptr inbounds %"class.site_engagement::SiteEngagementService::Helper::MediaTracker", %"class.site_engagement::SiteEngagementService::Helper::MediaTracker"* %0, i64 0, i32 2
  %7 = getelementptr inbounds %"class.site_engagement::SiteEngagementService::Helper::MediaTracker", %"class.site_engagement::SiteEngagementService::Helper::MediaTracker"* %0, i64 0, i32 2, i32 0, i32 1
  %8 = load %"struct.content::MediaPlayerId"*, %"struct.content::MediaPlayerId"** %7, align 8
  %9 = getelementptr inbounds %"class.site_engagement::SiteEngagementService::Helper::MediaTracker", %"class.site_engagement::SiteEngagementService::Helper::MediaTracker"* %0, i64 0, i32 2, i32 0, i32 2, i32 0, i32 0
  %10 = load %"struct.content::MediaPlayerId"*, %"struct.content::MediaPlayerId"** %9, align 8
  %11 = icmp eq %"struct.content::MediaPlayerId"* %8, %10
  %12 = ptrtoint %"struct.content::MediaPlayerId"* %10 to i64
  br i1 %11, label %19, label %13

13:                                               ; preds = %3
  %14 = bitcast %"struct.content::MediaPlayerId"* %8 to i8*
  %15 = bitcast %"struct.content::MediaPlayerId"* %2 to i8*
  tail call void @llvm.memcpy.p0i8.p0i8.i64(i8* align 4 %14, i8* align 4 %15, i64 12, i1 false) #9
  %16 = getelementptr inbounds %"struct.content::MediaPlayerId", %"struct.content::MediaPlayerId"* %8, i64 1
  %17 = ptrtoint %"struct.content::MediaPlayerId"* %16 to i64
  %18 = bitcast %"struct.content::MediaPlayerId"** %7 to i64*
  store i64 %17, i64* %18, align 8
  br label %73

19:                                               ; preds = %3
  %20 = ptrtoint %"struct.content::MediaPlayerId"* %8 to i64
  %21 = bitcast %"struct.content::MediaPlayerId"** %7 to i64*
  %22 = bitcast %"class.std::__1::vector"* %6 to i64*
  %23 = load i64, i64* %22, align 8
  %24 = sub i64 %20, %23
  %25 = sdiv exact i64 %24, 12
  %26 = add nsw i64 %25, 1
  %27 = icmp ugt i64 %26, 1537228672809129301
  br i1 %27, label %28, label %30

28:                                               ; preds = %19
  %29 = bitcast %"class.std::__1::vector"* %6 to %"class.std::__1::__vector_base_common"*
  tail call void @_ZNKSt3__120__vector_base_commonILb1EE20__throw_length_errorEv(%"class.std::__1::__vector_base_common"* %29) #11
  unreachable

30:                                               ; preds = %19
  %31 = bitcast %"struct.content::MediaPlayerId"** %9 to i64*
  %32 = sub i64 %12, %23
  %33 = sdiv exact i64 %32, 12
  %34 = icmp ult i64 %33, 768614336404564650
  br i1 %34, label %35, label %40

35:                                               ; preds = %30
  %36 = shl nsw i64 %33, 1
  %37 = icmp ult i64 %36, %26
  %38 = select i1 %37, i64 %26, i64 %36
  %39 = icmp eq i64 %38, 0
  br i1 %39, label %45, label %40

40:                                               ; preds = %35, %30
  %41 = phi i64 [ %38, %35 ], [ 1537228672809129301, %30 ]
  %42 = mul i64 %41, 12
  %43 = tail call i8* @_Znwm(i64 %42) #10
  %44 = bitcast i8* %43 to %"struct.content::MediaPlayerId"*
  br label %45

45:                                               ; preds = %40, %35
  %46 = phi i64 [ %41, %40 ], [ 0, %35 ]
  %47 = phi %"struct.content::MediaPlayerId"* [ %44, %40 ], [ null, %35 ]
  %48 = getelementptr inbounds %"struct.content::MediaPlayerId", %"struct.content::MediaPlayerId"* %47, i64 %25
  %49 = getelementptr inbounds %"struct.content::MediaPlayerId", %"struct.content::MediaPlayerId"* %47, i64 %46
  %50 = ptrtoint %"struct.content::MediaPlayerId"* %49 to i64
  %51 = bitcast %"struct.content::MediaPlayerId"* %48 to i8*
  %52 = bitcast %"struct.content::MediaPlayerId"* %2 to i8*
  tail call void @llvm.memcpy.p0i8.p0i8.i64(i8* align 4 %51, i8* align 4 %52, i64 12, i1 false) #9
  %53 = getelementptr inbounds %"struct.content::MediaPlayerId", %"struct.content::MediaPlayerId"* %48, i64 1
  %54 = ptrtoint %"struct.content::MediaPlayerId"* %53 to i64
  %55 = getelementptr inbounds %"class.std::__1::vector", %"class.std::__1::vector"* %6, i64 0, i32 0, i32 0
  %56 = load %"struct.content::MediaPlayerId"*, %"struct.content::MediaPlayerId"** %55, align 8
  %57 = load i64, i64* %21, align 8
  %58 = ptrtoint %"struct.content::MediaPlayerId"* %56 to i64
  %59 = sub i64 %57, %58
  %60 = sdiv exact i64 %59, -12
  %61 = getelementptr inbounds %"struct.content::MediaPlayerId", %"struct.content::MediaPlayerId"* %48, i64 %60
  %62 = ptrtoint %"struct.content::MediaPlayerId"* %61 to i64
  %63 = icmp sgt i64 %59, 0
  br i1 %63, label %64, label %68

64:                                               ; preds = %45
  %65 = bitcast %"struct.content::MediaPlayerId"* %61 to i8*
  %66 = bitcast %"struct.content::MediaPlayerId"* %56 to i8*
  tail call void @llvm.memcpy.p0i8.p0i8.i64(i8* align 4 %65, i8* align 4 %66, i64 %59, i1 false) #9
  %67 = load %"struct.content::MediaPlayerId"*, %"struct.content::MediaPlayerId"** %55, align 8
  br label %68

68:                                               ; preds = %64, %45
  %69 = phi %"struct.content::MediaPlayerId"* [ %56, %45 ], [ %67, %64 ]
  store i64 %62, i64* %22, align 8
  store i64 %54, i64* %21, align 8
  store i64 %50, i64* %31, align 8
  %70 = icmp eq %"struct.content::MediaPlayerId"* %69, null
  br i1 %70, label %73, label %71

71:                                               ; preds = %68
  %72 = bitcast %"struct.content::MediaPlayerId"* %69 to i8*
  tail call void @_ZdlPv(i8* %72) #10
  br label %73

73:                                               ; preds = %13, %68, %71
  %74 = getelementptr inbounds %"class.site_engagement::SiteEngagementService::Helper::MediaTracker", %"class.site_engagement::SiteEngagementService::Helper::MediaTracker"* %0, i64 0, i32 0, i32 2, i32 0, i32 0, i32 0
  %75 = load %"class.base::OneShotTimer"*, %"class.base::OneShotTimer"** %74, align 8
  %76 = getelementptr inbounds %"class.base::OneShotTimer", %"class.base::OneShotTimer"* %75, i64 0, i32 0
  %77 = tail call zeroext i1 @_ZNK4base8internal9TimerBase9IsRunningEv(%"class.base::internal::TimerBase"* %76) #9
  br i1 %77, label %95, label %78

78:                                               ; preds = %73
  %79 = bitcast %"class.base::OnceCallback"* %5 to i8*
  call void @llvm.lifetime.start.p0i8(i64 8, i8* nonnull %79) #9
  %80 = load %"class.base::OneShotTimer"*, %"class.base::OneShotTimer"** %74, align 8
  %81 = bitcast %"class.base::Location"* %4 to i8*
  call void @llvm.lifetime.start.p0i8(i64 32, i8* nonnull %81) #9
  call void @_ZN4base8Location7CurrentEPKcS2_i(%"class.base::Location"* nonnull sret %4, i8* getelementptr inbounds ([11 x i8], [11 x i8]* @.str, i64 0, i64 0), i8* getelementptr inbounds ([58 x i8], [58 x i8]* @.str.1, i64 0, i64 0), i32 90) #9
  %82 = ptrtoint %"class.site_engagement::SiteEngagementService::Helper::MediaTracker"* %0 to i64
  %83 = call i8* @_Znwm(i64 56) #10, !noalias !29
  %84 = bitcast i8* %83 to %"class.base::internal::BindStateBase"*
  call void @_ZN4base8internal13BindStateBaseC2EPFvvEPFvPKS1_E(%"class.base::internal::BindStateBase"* nonnull %84, void ()* bitcast (void (%"class.base::internal::BindStateBase"*)* @_ZN4base8internal7InvokerINS0_9BindStateIMN15site_engagement21SiteEngagementService6Helper15PeriodicTrackerEFvvEJNS0_17UnretainedWrapperIS6_EEEEEFvvEE7RunOnceEPNS0_13BindStateBaseE to void ()*), void (%"class.base::internal::BindStateBase"*)* nonnull @_ZN4base8internal9BindStateIMN15site_engagement21SiteEngagementService6Helper15PeriodicTrackerEFvvEJNS0_17UnretainedWrapperIS5_EEEE7DestroyEPKNS0_13BindStateBaseE) #9, !noalias !29
  %85 = getelementptr inbounds i8, i8* %83, i64 32
  %86 = bitcast i8* %85 to <2 x i64>*
  store <2 x i64> <i64 17, i64 0>, <2 x i64>* %86, align 8, !noalias !29
  %87 = getelementptr inbounds i8, i8* %83, i64 48
  %88 = bitcast i8* %87 to i64*
  store i64 %82, i64* %88, align 8, !noalias !29
  %89 = bitcast %"class.base::OnceCallback"* %5 to i8**
  store i8* %83, i8** %89, align 8, !alias.scope !29
  %90 = bitcast %"class.base::OneShotTimer"* %80 to void (%"class.base::OneShotTimer"*, %"class.base::Location"*, i64, %"class.base::OnceCallback"*)***
  %91 = load void (%"class.base::OneShotTimer"*, %"class.base::Location"*, i64, %"class.base::OnceCallback"*)**, void (%"class.base::OneShotTimer"*, %"class.base::Location"*, i64, %"class.base::OnceCallback"*)*** %90, align 8
  %92 = getelementptr inbounds void (%"class.base::OneShotTimer"*, %"class.base::Location"*, i64, %"class.base::OnceCallback"*)*, void (%"class.base::OneShotTimer"*, %"class.base::Location"*, i64, %"class.base::OnceCallback"*)** %91, i64 7
  %93 = load void (%"class.base::OneShotTimer"*, %"class.base::Location"*, i64, %"class.base::OnceCallback"*)*, void (%"class.base::OneShotTimer"*, %"class.base::Location"*, i64, %"class.base::OnceCallback"*)** %92, align 8
  call void %93(%"class.base::OneShotTimer"* %80, %"class.base::Location"* nonnull dereferenceable(32) %4, i64 10000000, %"class.base::OnceCallback"* nonnull %5) #9
  %94 = getelementptr inbounds %"class.base::OnceCallback", %"class.base::OnceCallback"* %5, i64 0, i32 0
  call void @_ZN4base8internal12CallbackBaseD2Ev(%"class.base::internal::CallbackBase"* nonnull %94) #9
  call void @llvm.lifetime.end.p0i8(i64 32, i8* nonnull %81) #9
  call void @llvm.lifetime.end.p0i8(i64 8, i8* nonnull %79) #9
  br label %95

95:                                               ; preds = %78, %73
  ret void
}

; Function Attrs: nounwind ssp uwtable
define hidden void @_ZThn24_N15site_engagement21SiteEngagementService6Helper12MediaTracker19MediaStartedPlayingERKN7content19WebContentsObserver15MediaPlayerInfoERKNS3_13MediaPlayerIdE(%"class.site_engagement::SiteEngagementService::Helper::MediaTracker"*, %"struct.content::WebContentsObserver::MediaPlayerInfo"* nocapture readnone dereferenceable(2), %"struct.content::MediaPlayerId"* nocapture readonly dereferenceable(12)) unnamed_addr #1 align 2 {
  %4 = getelementptr inbounds %"class.site_engagement::SiteEngagementService::Helper::MediaTracker", %"class.site_engagement::SiteEngagementService::Helper::MediaTracker"* %0, i64 -1, i32 2
  %5 = bitcast %"class.std::__1::vector"* %4 to %"class.site_engagement::SiteEngagementService::Helper::MediaTracker"*
  tail call void @_ZN15site_engagement21SiteEngagementService6Helper12MediaTracker19MediaStartedPlayingERKN7content19WebContentsObserver15MediaPlayerInfoERKNS3_13MediaPlayerIdE(%"class.site_engagement::SiteEngagementService::Helper::MediaTracker"* %5, %"struct.content::WebContentsObserver::MediaPlayerInfo"* dereferenceable(2) undef, %"struct.content::MediaPlayerId"* dereferenceable(12) %2)
  ret void
}

; Function Attrs: nounwind ssp uwtable
define hidden void @_ZN15site_engagement21SiteEngagementService6Helper12MediaTracker19MediaStoppedPlayingERKN7content19WebContentsObserver15MediaPlayerInfoERKNS3_13MediaPlayerIdENS4_18MediaStoppedReasonE(%"class.site_engagement::SiteEngagementService::Helper::MediaTracker"* nocapture, %"struct.content::WebContentsObserver::MediaPlayerInfo"* nocapture readnone dereferenceable(2), %"struct.content::MediaPlayerId"* dereferenceable(12), i32) unnamed_addr #1 align 2 {
  %5 = getelementptr inbounds %"class.site_engagement::SiteEngagementService::Helper::MediaTracker", %"class.site_engagement::SiteEngagementService::Helper::MediaTracker"* %0, i64 0, i32 2, i32 0, i32 0
  %6 = load %"struct.content::MediaPlayerId"*, %"struct.content::MediaPlayerId"** %5, align 8
  %7 = getelementptr inbounds %"class.site_engagement::SiteEngagementService::Helper::MediaTracker", %"class.site_engagement::SiteEngagementService::Helper::MediaTracker"* %0, i64 0, i32 2, i32 0, i32 1
  %8 = load %"struct.content::MediaPlayerId"*, %"struct.content::MediaPlayerId"** %7, align 8
  %9 = icmp eq %"struct.content::MediaPlayerId"* %6, %8
  br i1 %9, label %18, label %10

10:                                               ; preds = %4, %13
  %11 = phi %"struct.content::MediaPlayerId"* [ %14, %13 ], [ %6, %4 ]
  %12 = tail call zeroext i1 @_ZNK7content13MediaPlayerIdeqERKS0_(%"struct.content::MediaPlayerId"* %11, %"struct.content::MediaPlayerId"* dereferenceable(12) %2) #9
  br i1 %12, label %18, label %13

13:                                               ; preds = %10
  %14 = getelementptr inbounds %"struct.content::MediaPlayerId", %"struct.content::MediaPlayerId"* %11, i64 1
  %15 = icmp eq %"struct.content::MediaPlayerId"* %14, %8
  br i1 %15, label %16, label %10

16:                                               ; preds = %13
  %17 = ptrtoint %"struct.content::MediaPlayerId"* %8 to i64
  br label %39

18:                                               ; preds = %10, %4
  %19 = phi %"struct.content::MediaPlayerId"* [ %6, %4 ], [ %11, %10 ]
  %20 = ptrtoint %"struct.content::MediaPlayerId"* %19 to i64
  %21 = icmp eq %"struct.content::MediaPlayerId"* %19, %8
  br i1 %21, label %39, label %22

22:                                               ; preds = %18
  %23 = getelementptr inbounds %"struct.content::MediaPlayerId", %"struct.content::MediaPlayerId"* %19, i64 1
  %24 = icmp eq %"struct.content::MediaPlayerId"* %23, %8
  br i1 %24, label %39, label %25

25:                                               ; preds = %22, %35
  %26 = phi %"struct.content::MediaPlayerId"* [ %37, %35 ], [ %23, %22 ]
  %27 = phi i64 [ %36, %35 ], [ %20, %22 ]
  %28 = tail call zeroext i1 @_ZNK7content13MediaPlayerIdeqERKS0_(%"struct.content::MediaPlayerId"* %26, %"struct.content::MediaPlayerId"* dereferenceable(12) %2) #9
  br i1 %28, label %35, label %29

29:                                               ; preds = %25
  %30 = inttoptr i64 %27 to %"struct.content::MediaPlayerId"*
  %31 = inttoptr i64 %27 to i8*
  %32 = bitcast %"struct.content::MediaPlayerId"* %26 to i8*
  tail call void @llvm.memcpy.p0i8.p0i8.i64(i8* align 4 %31, i8* align 4 %32, i64 12, i1 false) #9
  %33 = getelementptr inbounds %"struct.content::MediaPlayerId", %"struct.content::MediaPlayerId"* %30, i64 1
  %34 = ptrtoint %"struct.content::MediaPlayerId"* %33 to i64
  br label %35

35:                                               ; preds = %29, %25
  %36 = phi i64 [ %27, %25 ], [ %34, %29 ]
  %37 = getelementptr inbounds %"struct.content::MediaPlayerId", %"struct.content::MediaPlayerId"* %26, i64 1
  %38 = icmp eq %"struct.content::MediaPlayerId"* %37, %8
  br i1 %38, label %39, label %25

39:                                               ; preds = %35, %22, %18, %16
  %40 = phi i64 [ %20, %18 ], [ %17, %16 ], [ %20, %22 ], [ %36, %35 ]
  %41 = inttoptr i64 %40 to %"struct.content::MediaPlayerId"*
  %42 = load %"struct.content::MediaPlayerId"*, %"struct.content::MediaPlayerId"** %7, align 8
  %43 = icmp eq %"struct.content::MediaPlayerId"* %42, %41
  br i1 %43, label %45, label %44

44:                                               ; preds = %39
  store %"struct.content::MediaPlayerId"* %41, %"struct.content::MediaPlayerId"** %7, align 8
  br label %45

45:                                               ; preds = %39, %44
  ret void
}

; Function Attrs: nounwind ssp uwtable
define hidden void @_ZThn24_N15site_engagement21SiteEngagementService6Helper12MediaTracker19MediaStoppedPlayingERKN7content19WebContentsObserver15MediaPlayerInfoERKNS3_13MediaPlayerIdENS4_18MediaStoppedReasonE(%"class.site_engagement::SiteEngagementService::Helper::MediaTracker"* nocapture, %"struct.content::WebContentsObserver::MediaPlayerInfo"* nocapture readnone dereferenceable(2), %"struct.content::MediaPlayerId"* dereferenceable(12), i32) unnamed_addr #1 align 2 {
  %5 = getelementptr inbounds %"class.site_engagement::SiteEngagementService::Helper::MediaTracker", %"class.site_engagement::SiteEngagementService::Helper::MediaTracker"* %0, i64 -1, i32 2
  %6 = getelementptr inbounds %"class.std::__1::vector", %"class.std::__1::vector"* %5, i64 1, i32 0, i32 2, i32 0, i32 0
  %7 = load %"struct.content::MediaPlayerId"*, %"struct.content::MediaPlayerId"** %6, align 8
  %8 = getelementptr inbounds %"class.std::__1::vector", %"class.std::__1::vector"* %5, i64 2, i32 0, i32 0
  %9 = load %"struct.content::MediaPlayerId"*, %"struct.content::MediaPlayerId"** %8, align 8
  %10 = icmp eq %"struct.content::MediaPlayerId"* %7, %9
  br i1 %10, label %19, label %11

11:                                               ; preds = %4, %14
  %12 = phi %"struct.content::MediaPlayerId"* [ %15, %14 ], [ %7, %4 ]
  %13 = tail call zeroext i1 @_ZNK7content13MediaPlayerIdeqERKS0_(%"struct.content::MediaPlayerId"* %12, %"struct.content::MediaPlayerId"* dereferenceable(12) %2) #9
  br i1 %13, label %19, label %14

14:                                               ; preds = %11
  %15 = getelementptr inbounds %"struct.content::MediaPlayerId", %"struct.content::MediaPlayerId"* %12, i64 1
  %16 = icmp eq %"struct.content::MediaPlayerId"* %15, %9
  br i1 %16, label %17, label %11

17:                                               ; preds = %14
  %18 = ptrtoint %"struct.content::MediaPlayerId"* %9 to i64
  br label %40

19:                                               ; preds = %11, %4
  %20 = phi %"struct.content::MediaPlayerId"* [ %7, %4 ], [ %12, %11 ]
  %21 = ptrtoint %"struct.content::MediaPlayerId"* %20 to i64
  %22 = icmp eq %"struct.content::MediaPlayerId"* %20, %9
  br i1 %22, label %40, label %23

23:                                               ; preds = %19
  %24 = getelementptr inbounds %"struct.content::MediaPlayerId", %"struct.content::MediaPlayerId"* %20, i64 1
  %25 = icmp eq %"struct.content::MediaPlayerId"* %24, %9
  br i1 %25, label %40, label %26

26:                                               ; preds = %23, %36
  %27 = phi %"struct.content::MediaPlayerId"* [ %38, %36 ], [ %24, %23 ]
  %28 = phi i64 [ %37, %36 ], [ %21, %23 ]
  %29 = tail call zeroext i1 @_ZNK7content13MediaPlayerIdeqERKS0_(%"struct.content::MediaPlayerId"* %27, %"struct.content::MediaPlayerId"* dereferenceable(12) %2) #9
  br i1 %29, label %36, label %30

30:                                               ; preds = %26
  %31 = inttoptr i64 %28 to %"struct.content::MediaPlayerId"*
  %32 = inttoptr i64 %28 to i8*
  %33 = bitcast %"struct.content::MediaPlayerId"* %27 to i8*
  tail call void @llvm.memcpy.p0i8.p0i8.i64(i8* align 4 %32, i8* align 4 %33, i64 12, i1 false) #9
  %34 = getelementptr inbounds %"struct.content::MediaPlayerId", %"struct.content::MediaPlayerId"* %31, i64 1
  %35 = ptrtoint %"struct.content::MediaPlayerId"* %34 to i64
  br label %36

36:                                               ; preds = %30, %26
  %37 = phi i64 [ %28, %26 ], [ %35, %30 ]
  %38 = getelementptr inbounds %"struct.content::MediaPlayerId", %"struct.content::MediaPlayerId"* %27, i64 1
  %39 = icmp eq %"struct.content::MediaPlayerId"* %38, %9
  br i1 %39, label %40, label %26

40:                                               ; preds = %36, %23, %19, %17
  %41 = phi i64 [ %21, %19 ], [ %18, %17 ], [ %21, %23 ], [ %37, %36 ]
  %42 = inttoptr i64 %41 to %"struct.content::MediaPlayerId"*
  %43 = load %"struct.content::MediaPlayerId"*, %"struct.content::MediaPlayerId"** %8, align 8
  %44 = icmp eq %"struct.content::MediaPlayerId"* %43, %42
  br i1 %44, label %46, label %45

45:                                               ; preds = %40
  store %"struct.content::MediaPlayerId"* %42, %"struct.content::MediaPlayerId"** %8, align 8
  br label %46

46:                                               ; preds = %40, %45
  ret void
}

; Function Attrs: nounwind ssp uwtable
define hidden void @_ZN15site_engagement21SiteEngagementService6HelperC2EPN7content11WebContentsE(%"class.site_engagement::SiteEngagementService::Helper"*, %"class.content::WebContents"*) unnamed_addr #1 align 2 {
  %3 = getelementptr inbounds %"class.site_engagement::SiteEngagementService::Helper", %"class.site_engagement::SiteEngagementService::Helper"* %0, i64 0, i32 0
  tail call void @_ZN7content19WebContentsObserverC2EPNS_11WebContentsE(%"class.content::WebContentsObserver"* %3, %"class.content::WebContents"* %1) #9
  %4 = getelementptr inbounds %"class.site_engagement::SiteEngagementService::Helper", %"class.site_engagement::SiteEngagementService::Helper"* %0, i64 0, i32 1, i32 0, i32 0
  %5 = getelementptr inbounds %"class.site_engagement::SiteEngagementService::Helper", %"class.site_engagement::SiteEngagementService::Helper"* %0, i64 0, i32 0, i32 0, i32 0
  store i32 (...)** bitcast (i8** getelementptr inbounds ({ [109 x i8*], [5 x i8*] }, { [109 x i8*], [5 x i8*] }* @_ZTVN15site_engagement21SiteEngagementService6HelperE, i64 0, inrange i32 0, i64 2) to i32 (...)**), i32 (...)*** %5, align 8
  %6 = getelementptr inbounds %"class.site_engagement::SiteEngagementService::Helper", %"class.site_engagement::SiteEngagementService::Helper"* %0, i64 0, i32 2, i32 0, i32 0
  %7 = bitcast i32 (...)*** %4 to <2 x i32 (...)**>*
  store <2 x i32 (...)**> <i32 (...)** bitcast (i8** getelementptr inbounds ({ [109 x i8*], [5 x i8*] }, { [109 x i8*], [5 x i8*] }* @_ZTVN15site_engagement21SiteEngagementService6HelperE, i64 0, inrange i32 1, i64 2) to i32 (...)**), i32 (...)** bitcast (i8** getelementptr inbounds ({ [6 x i8*] }, { [6 x i8*] }* @_ZTVN15site_engagement21SiteEngagementService6Helper15PeriodicTrackerE, i64 0, inrange i32 0, i64 2) to i32 (...)**)>, <2 x i32 (...)**>* %7, align 8
  %8 = getelementptr inbounds %"class.site_engagement::SiteEngagementService::Helper", %"class.site_engagement::SiteEngagementService::Helper"* %0, i64 0, i32 2, i32 0, i32 1
  store %"class.site_engagement::SiteEngagementService::Helper"* %0, %"class.site_engagement::SiteEngagementService::Helper"** %8, align 8
  %9 = tail call i8* @_Znwm(i64 128) #10
  %10 = bitcast i8* %9 to %"class.base::OneShotTimer"*
  tail call void @_ZN4base12OneShotTimerC1Ev(%"class.base::OneShotTimer"* nonnull %10) #9
  %11 = getelementptr inbounds %"class.site_engagement::SiteEngagementService::Helper", %"class.site_engagement::SiteEngagementService::Helper"* %0, i64 0, i32 2, i32 0, i32 2, i32 0, i32 0, i32 0
  %12 = bitcast %"class.base::OneShotTimer"** %11 to i8**
  store i8* %9, i8** %12, align 8
  %13 = getelementptr inbounds %"class.site_engagement::SiteEngagementService::Helper", %"class.site_engagement::SiteEngagementService::Helper"* %0, i64 0, i32 2, i32 1
  tail call void @_ZN7content19WebContentsObserverC2EPNS_11WebContentsE(%"class.content::WebContentsObserver"* %13, %"class.content::WebContents"* %1) #9
  store i32 (...)** bitcast (i8** getelementptr inbounds ({ [7 x i8*], [109 x i8*] }, { [7 x i8*], [109 x i8*] }* @_ZTVN15site_engagement21SiteEngagementService6Helper12InputTrackerE, i64 0, inrange i32 0, i64 2) to i32 (...)**), i32 (...)*** %6, align 8
  %14 = getelementptr inbounds %"class.content::WebContentsObserver", %"class.content::WebContentsObserver"* %13, i64 0, i32 0, i32 0
  store i32 (...)** bitcast (i8** getelementptr inbounds ({ [7 x i8*], [109 x i8*] }, { [7 x i8*], [109 x i8*] }* @_ZTVN15site_engagement21SiteEngagementService6Helper12InputTrackerE, i64 0, inrange i32 1, i64 2) to i32 (...)**), i32 (...)*** %14, align 8
  %15 = getelementptr inbounds %"class.site_engagement::SiteEngagementService::Helper", %"class.site_engagement::SiteEngagementService::Helper"* %0, i64 0, i32 2, i32 2
  store i8 0, i8* %15, align 8
  %16 = getelementptr inbounds %"class.site_engagement::SiteEngagementService::Helper", %"class.site_engagement::SiteEngagementService::Helper"* %0, i64 0, i32 3, i32 0, i32 0
  store i32 (...)** bitcast (i8** getelementptr inbounds ({ [6 x i8*] }, { [6 x i8*] }* @_ZTVN15site_engagement21SiteEngagementService6Helper15PeriodicTrackerE, i64 0, inrange i32 0, i64 2) to i32 (...)**), i32 (...)*** %16, align 8
  %17 = getelementptr inbounds %"class.site_engagement::SiteEngagementService::Helper", %"class.site_engagement::SiteEngagementService::Helper"* %0, i64 0, i32 3, i32 0, i32 1
  store %"class.site_engagement::SiteEngagementService::Helper"* %0, %"class.site_engagement::SiteEngagementService::Helper"** %17, align 8
  %18 = tail call i8* @_Znwm(i64 128) #10
  %19 = bitcast i8* %18 to %"class.base::OneShotTimer"*
  tail call void @_ZN4base12OneShotTimerC1Ev(%"class.base::OneShotTimer"* nonnull %19) #9
  %20 = getelementptr inbounds %"class.site_engagement::SiteEngagementService::Helper", %"class.site_engagement::SiteEngagementService::Helper"* %0, i64 0, i32 3, i32 0, i32 2, i32 0, i32 0, i32 0
  %21 = bitcast %"class.base::OneShotTimer"** %20 to i8**
  store i8* %18, i8** %21, align 8
  %22 = getelementptr inbounds %"class.site_engagement::SiteEngagementService::Helper", %"class.site_engagement::SiteEngagementService::Helper"* %0, i64 0, i32 3, i32 1
  tail call void @_ZN7content19WebContentsObserverC2EPNS_11WebContentsE(%"class.content::WebContentsObserver"* %22, %"class.content::WebContents"* %1) #9
  store i32 (...)** bitcast (i8** getelementptr inbounds ({ [9 x i8*], [109 x i8*] }, { [9 x i8*], [109 x i8*] }* @_ZTVN15site_engagement21SiteEngagementService6Helper12MediaTrackerE, i64 0, inrange i32 0, i64 2) to i32 (...)**), i32 (...)*** %16, align 8
  %23 = getelementptr inbounds %"class.content::WebContentsObserver", %"class.content::WebContentsObserver"* %22, i64 0, i32 0, i32 0
  store i32 (...)** bitcast (i8** getelementptr inbounds ({ [9 x i8*], [109 x i8*] }, { [9 x i8*], [109 x i8*] }* @_ZTVN15site_engagement21SiteEngagementService6Helper12MediaTrackerE, i64 0, inrange i32 1, i64 2) to i32 (...)**), i32 (...)*** %23, align 8
  %24 = getelementptr inbounds %"class.site_engagement::SiteEngagementService::Helper", %"class.site_engagement::SiteEngagementService::Helper"* %0, i64 0, i32 3, i32 2
  %25 = bitcast %"class.std::__1::vector"* %24 to i8*
  tail call void @llvm.memset.p0i8.i64(i8* align 8 %25, i8 0, i64 24, i1 false) #9
  %26 = getelementptr inbounds %"class.site_engagement::SiteEngagementService::Helper", %"class.site_engagement::SiteEngagementService::Helper"* %0, i64 0, i32 4
  %27 = bitcast %"class.content::WebContents"* %1 to %"class.content::BrowserContext"* (%"class.content::WebContents"*)***
  %28 = load %"class.content::BrowserContext"* (%"class.content::WebContents"*)**, %"class.content::BrowserContext"* (%"class.content::WebContents"*)*** %27, align 8
  %29 = getelementptr inbounds %"class.content::BrowserContext"* (%"class.content::WebContents"*)*, %"class.content::BrowserContext"* (%"class.content::WebContents"*)** %28, i64 6
  %30 = load %"class.content::BrowserContext"* (%"class.content::WebContents"*)*, %"class.content::BrowserContext"* (%"class.content::WebContents"*)** %29, align 8
  %31 = tail call %"class.content::BrowserContext"* %30(%"class.content::WebContents"* %1) #9
  %32 = tail call %class.Profile* @_ZN7Profile18FromBrowserContextEPN7content14BrowserContextE(%"class.content::BrowserContext"* %31) #9
  %33 = getelementptr inbounds %class.Profile, %class.Profile* %32, i64 0, i32 0
  %34 = tail call %"class.site_engagement::SiteEngagementService"* @_ZN15site_engagement21SiteEngagementService3GetEPN7content14BrowserContextE(%"class.content::BrowserContext"* %33) #9
  store %"class.site_engagement::SiteEngagementService"* %34, %"class.site_engagement::SiteEngagementService"** %26, align 8
  ret void
}

declare %"class.site_engagement::SiteEngagementService"* @_ZN15site_engagement21SiteEngagementService3GetEPN7content14BrowserContextE(%"class.content::BrowserContext"*) local_unnamed_addr #2

declare %class.Profile* @_ZN7Profile18FromBrowserContextEPN7content14BrowserContextE(%"class.content::BrowserContext"*) local_unnamed_addr #2

declare void @_ZN15site_engagement21SiteEngagementService15HandleUserInputEPN7content11WebContentsENS_14EngagementTypeE(%"class.site_engagement::SiteEngagementService"*, %"class.content::WebContents"*, i32) local_unnamed_addr #2

declare void @_ZN15site_engagement21SiteEngagementService18HandleMediaPlayingEPN7content11WebContentsEb(%"class.site_engagement::SiteEngagementService"*, %"class.content::WebContents"*, i1 zeroext) local_unnamed_addr #2

; Function Attrs: nounwind ssp uwtable
define hidden void @_ZN15site_engagement21SiteEngagementService6Helper19DidFinishNavigationEPN7content16NavigationHandleE(%"class.site_engagement::SiteEngagementService::Helper"*, %"class.content::NavigationHandle"*) unnamed_addr #1 align 2 {
  %3 = alloca %"class.base::Location", align 8
  %4 = alloca %"class.base::OnceCallback", align 8
  %5 = bitcast %"class.content::NavigationHandle"* %1 to i1 (%"class.content::NavigationHandle"*)***
  %6 = load i1 (%"class.content::NavigationHandle"*)**, i1 (%"class.content::NavigationHandle"*)*** %5, align 8
  %7 = getelementptr inbounds i1 (%"class.content::NavigationHandle"*)*, i1 (%"class.content::NavigationHandle"*)** %6, i64 38
  %8 = load i1 (%"class.content::NavigationHandle"*)*, i1 (%"class.content::NavigationHandle"*)** %7, align 8
  %9 = tail call zeroext i1 %8(%"class.content::NavigationHandle"* %1) #9
  br i1 %9, label %10, label %82

10:                                               ; preds = %2
  %11 = load i1 (%"class.content::NavigationHandle"*)**, i1 (%"class.content::NavigationHandle"*)*** %5, align 8
  %12 = getelementptr inbounds i1 (%"class.content::NavigationHandle"*)*, i1 (%"class.content::NavigationHandle"*)** %11, i64 7
  %13 = load i1 (%"class.content::NavigationHandle"*)*, i1 (%"class.content::NavigationHandle"*)** %12, align 8
  %14 = tail call zeroext i1 %13(%"class.content::NavigationHandle"* %1) #9
  br i1 %14, label %15, label %82

15:                                               ; preds = %10
  %16 = load i1 (%"class.content::NavigationHandle"*)**, i1 (%"class.content::NavigationHandle"*)*** %5, align 8
  %17 = getelementptr inbounds i1 (%"class.content::NavigationHandle"*)*, i1 (%"class.content::NavigationHandle"*)** %16, i64 35
  %18 = load i1 (%"class.content::NavigationHandle"*)*, i1 (%"class.content::NavigationHandle"*)** %17, align 8
  %19 = tail call zeroext i1 %18(%"class.content::NavigationHandle"* %1) #9
  br i1 %19, label %82, label %20

20:                                               ; preds = %15
  %21 = load i1 (%"class.content::NavigationHandle"*)**, i1 (%"class.content::NavigationHandle"*)*** %5, align 8
  %22 = getelementptr inbounds i1 (%"class.content::NavigationHandle"*)*, i1 (%"class.content::NavigationHandle"*)** %21, i64 39
  %23 = load i1 (%"class.content::NavigationHandle"*)*, i1 (%"class.content::NavigationHandle"*)** %22, align 8
  %24 = tail call zeroext i1 %23(%"class.content::NavigationHandle"* %1) #9
  br i1 %24, label %82, label %25

25:                                               ; preds = %20
  %26 = getelementptr inbounds %"class.site_engagement::SiteEngagementService::Helper", %"class.site_engagement::SiteEngagementService::Helper"* %0, i64 0, i32 2, i32 0
  %27 = bitcast %"class.site_engagement::SiteEngagementService::Helper::PeriodicTracker"* %26 to void (%"class.site_engagement::SiteEngagementService::Helper::PeriodicTracker"*)***
  %28 = load void (%"class.site_engagement::SiteEngagementService::Helper::PeriodicTracker"*)**, void (%"class.site_engagement::SiteEngagementService::Helper::PeriodicTracker"*)*** %27, align 8
  %29 = getelementptr inbounds void (%"class.site_engagement::SiteEngagementService::Helper::PeriodicTracker"*)*, void (%"class.site_engagement::SiteEngagementService::Helper::PeriodicTracker"*)** %28, i64 3
  %30 = load void (%"class.site_engagement::SiteEngagementService::Helper::PeriodicTracker"*)*, void (%"class.site_engagement::SiteEngagementService::Helper::PeriodicTracker"*)** %29, align 8
  tail call void %30(%"class.site_engagement::SiteEngagementService::Helper::PeriodicTracker"* %26) #9
  %31 = getelementptr inbounds %"class.site_engagement::SiteEngagementService::Helper", %"class.site_engagement::SiteEngagementService::Helper"* %0, i64 0, i32 2, i32 0, i32 2, i32 0, i32 0, i32 0
  %32 = load %"class.base::OneShotTimer"*, %"class.base::OneShotTimer"** %31, align 8
  %33 = getelementptr inbounds %"class.base::OneShotTimer", %"class.base::OneShotTimer"* %32, i64 0, i32 0
  %34 = bitcast %"class.base::OneShotTimer"* %32 to void (%"class.base::internal::TimerBase"*)***
  %35 = load void (%"class.base::internal::TimerBase"*)**, void (%"class.base::internal::TimerBase"*)*** %34, align 8
  %36 = getelementptr inbounds void (%"class.base::internal::TimerBase"*)*, void (%"class.base::internal::TimerBase"*)** %35, i64 3
  %37 = load void (%"class.base::internal::TimerBase"*)*, void (%"class.base::internal::TimerBase"*)** %36, align 8
  tail call void %37(%"class.base::internal::TimerBase"* %33) #9
  %38 = getelementptr inbounds %"class.site_engagement::SiteEngagementService::Helper", %"class.site_engagement::SiteEngagementService::Helper"* %0, i64 0, i32 3, i32 0
  %39 = bitcast %"class.site_engagement::SiteEngagementService::Helper::PeriodicTracker"* %38 to void (%"class.site_engagement::SiteEngagementService::Helper::PeriodicTracker"*)***
  %40 = load void (%"class.site_engagement::SiteEngagementService::Helper::PeriodicTracker"*)**, void (%"class.site_engagement::SiteEngagementService::Helper::PeriodicTracker"*)*** %39, align 8
  %41 = getelementptr inbounds void (%"class.site_engagement::SiteEngagementService::Helper::PeriodicTracker"*)*, void (%"class.site_engagement::SiteEngagementService::Helper::PeriodicTracker"*)** %40, i64 3
  %42 = load void (%"class.site_engagement::SiteEngagementService::Helper::PeriodicTracker"*)*, void (%"class.site_engagement::SiteEngagementService::Helper::PeriodicTracker"*)** %41, align 8
  tail call void %42(%"class.site_engagement::SiteEngagementService::Helper::PeriodicTracker"* %38) #9
  %43 = getelementptr inbounds %"class.site_engagement::SiteEngagementService::Helper", %"class.site_engagement::SiteEngagementService::Helper"* %0, i64 0, i32 3, i32 0, i32 2, i32 0, i32 0, i32 0
  %44 = load %"class.base::OneShotTimer"*, %"class.base::OneShotTimer"** %43, align 8
  %45 = getelementptr inbounds %"class.base::OneShotTimer", %"class.base::OneShotTimer"* %44, i64 0, i32 0
  %46 = bitcast %"class.base::OneShotTimer"* %44 to void (%"class.base::internal::TimerBase"*)***
  %47 = load void (%"class.base::internal::TimerBase"*)**, void (%"class.base::internal::TimerBase"*)*** %46, align 8
  %48 = getelementptr inbounds void (%"class.base::internal::TimerBase"*)*, void (%"class.base::internal::TimerBase"*)** %47, i64 3
  %49 = load void (%"class.base::internal::TimerBase"*)*, void (%"class.base::internal::TimerBase"*)** %48, align 8
  tail call void %49(%"class.base::internal::TimerBase"* %45) #9
  %50 = getelementptr inbounds %"class.site_engagement::SiteEngagementService::Helper", %"class.site_engagement::SiteEngagementService::Helper"* %0, i64 0, i32 0
  %51 = tail call %"class.content::WebContents"* @_ZNK7content19WebContentsObserver12web_contentsEv(%"class.content::WebContentsObserver"* %50) #9
  %52 = tail call %"class.prerender::NoStatePrefetchContents"* @_ZN9prerender37ChromeNoStatePrefetchContentsDelegate15FromWebContentsEPN7content11WebContentsE(%"class.content::WebContents"* %51) #9
  %53 = icmp eq %"class.prerender::NoStatePrefetchContents"* %52, null
  br i1 %53, label %54, label %82

54:                                               ; preds = %25
  %55 = getelementptr inbounds %"class.site_engagement::SiteEngagementService::Helper", %"class.site_engagement::SiteEngagementService::Helper"* %0, i64 0, i32 4
  %56 = load %"class.site_engagement::SiteEngagementService"*, %"class.site_engagement::SiteEngagementService"** %55, align 8
  %57 = tail call %"class.content::WebContents"* @_ZNK7content19WebContentsObserver12web_contentsEv(%"class.content::WebContentsObserver"* %50) #9
  %58 = bitcast %"class.content::NavigationHandle"* %1 to i32 (%"class.content::NavigationHandle"*)***
  %59 = load i32 (%"class.content::NavigationHandle"*)**, i32 (%"class.content::NavigationHandle"*)*** %58, align 8
  %60 = getelementptr inbounds i32 (%"class.content::NavigationHandle"*)*, i32 (%"class.content::NavigationHandle"*)** %59, i64 28
  %61 = load i32 (%"class.content::NavigationHandle"*)*, i32 (%"class.content::NavigationHandle"*)** %60, align 8
  %62 = tail call i32 %61(%"class.content::NavigationHandle"* %1) #9
  tail call void @_ZN15site_engagement21SiteEngagementService16HandleNavigationEPN7content11WebContentsEN2ui14PageTransitionE(%"class.site_engagement::SiteEngagementService"* %56, %"class.content::WebContents"* %57, i32 %62) #9
  %63 = load i32, i32* @_ZN15site_engagement12_GLOBAL__N_132g_seconds_delay_after_navigationE, align 4
  %64 = sext i32 %63 to i64
  %65 = mul nsw i64 %64, 1000000
  %66 = bitcast %"class.base::OnceCallback"* %4 to i8*
  call void @llvm.lifetime.start.p0i8(i64 8, i8* nonnull %66) #9
  %67 = load %"class.base::OneShotTimer"*, %"class.base::OneShotTimer"** %31, align 8
  %68 = bitcast %"class.base::Location"* %3 to i8*
  call void @llvm.lifetime.start.p0i8(i64 32, i8* nonnull %68) #9
  call void @_ZN4base8Location7CurrentEPKcS2_i(%"class.base::Location"* nonnull sret %3, i8* getelementptr inbounds ([11 x i8], [11 x i8]* @.str, i64 0, i64 0), i8* getelementptr inbounds ([58 x i8], [58 x i8]* @.str.1, i64 0, i64 0), i32 90) #9
  %69 = ptrtoint %"class.site_engagement::SiteEngagementService::Helper::PeriodicTracker"* %26 to i64
  %70 = call i8* @_Znwm(i64 56) #10, !noalias !34
  %71 = bitcast i8* %70 to %"class.base::internal::BindStateBase"*
  call void @_ZN4base8internal13BindStateBaseC2EPFvvEPFvPKS1_E(%"class.base::internal::BindStateBase"* nonnull %71, void ()* bitcast (void (%"class.base::internal::BindStateBase"*)* @_ZN4base8internal7InvokerINS0_9BindStateIMN15site_engagement21SiteEngagementService6Helper15PeriodicTrackerEFvvEJNS0_17UnretainedWrapperIS6_EEEEEFvvEE7RunOnceEPNS0_13BindStateBaseE to void ()*), void (%"class.base::internal::BindStateBase"*)* nonnull @_ZN4base8internal9BindStateIMN15site_engagement21SiteEngagementService6Helper15PeriodicTrackerEFvvEJNS0_17UnretainedWrapperIS5_EEEE7DestroyEPKNS0_13BindStateBaseE) #9, !noalias !34
  %72 = getelementptr inbounds i8, i8* %70, i64 32
  %73 = bitcast i8* %72 to <2 x i64>*
  store <2 x i64> <i64 17, i64 0>, <2 x i64>* %73, align 8, !noalias !34
  %74 = getelementptr inbounds i8, i8* %70, i64 48
  %75 = bitcast i8* %74 to i64*
  store i64 %69, i64* %75, align 8, !noalias !34
  %76 = bitcast %"class.base::OnceCallback"* %4 to i8**
  store i8* %70, i8** %76, align 8, !alias.scope !34
  %77 = bitcast %"class.base::OneShotTimer"* %67 to void (%"class.base::OneShotTimer"*, %"class.base::Location"*, i64, %"class.base::OnceCallback"*)***
  %78 = load void (%"class.base::OneShotTimer"*, %"class.base::Location"*, i64, %"class.base::OnceCallback"*)**, void (%"class.base::OneShotTimer"*, %"class.base::Location"*, i64, %"class.base::OnceCallback"*)*** %77, align 8
  %79 = getelementptr inbounds void (%"class.base::OneShotTimer"*, %"class.base::Location"*, i64, %"class.base::OnceCallback"*)*, void (%"class.base::OneShotTimer"*, %"class.base::Location"*, i64, %"class.base::OnceCallback"*)** %78, i64 7
  %80 = load void (%"class.base::OneShotTimer"*, %"class.base::Location"*, i64, %"class.base::OnceCallback"*)*, void (%"class.base::OneShotTimer"*, %"class.base::Location"*, i64, %"class.base::OnceCallback"*)** %79, align 8
  call void %80(%"class.base::OneShotTimer"* %67, %"class.base::Location"* nonnull dereferenceable(32) %3, i64 %65, %"class.base::OnceCallback"* nonnull %4) #9
  %81 = getelementptr inbounds %"class.base::OnceCallback", %"class.base::OnceCallback"* %4, i64 0, i32 0
  call void @_ZN4base8internal12CallbackBaseD2Ev(%"class.base::internal::CallbackBase"* nonnull %81) #9
  call void @llvm.lifetime.end.p0i8(i64 32, i8* nonnull %68) #9
  call void @llvm.lifetime.end.p0i8(i64 8, i8* nonnull %66) #9
  br label %82

82:                                               ; preds = %25, %2, %10, %15, %20, %54
  ret void
}

declare %"class.prerender::NoStatePrefetchContents"* @_ZN9prerender37ChromeNoStatePrefetchContentsDelegate15FromWebContentsEPN7content11WebContentsE(%"class.content::WebContents"*) local_unnamed_addr #2

declare void @_ZN15site_engagement21SiteEngagementService16HandleNavigationEPN7content11WebContentsEN2ui14PageTransitionE(%"class.site_engagement::SiteEngagementService"*, %"class.content::WebContents"*, i32) local_unnamed_addr #2

; Function Attrs: nounwind ssp uwtable
define hidden void @_ZN15site_engagement21SiteEngagementService6Helper19OnVisibilityChangedEN7content10VisibilityE(%"class.site_engagement::SiteEngagementService::Helper"*, i32) unnamed_addr #1 align 2 {
  %3 = alloca %"class.base::Location", align 8
  %4 = alloca %"class.base::OnceCallback", align 8
  %5 = icmp eq i32 %1, 0
  %6 = getelementptr inbounds %"class.site_engagement::SiteEngagementService::Helper", %"class.site_engagement::SiteEngagementService::Helper"* %0, i64 0, i32 2
  br i1 %5, label %7, label %20

7:                                                ; preds = %2
  %8 = getelementptr inbounds %"class.site_engagement::SiteEngagementService::Helper::InputTracker", %"class.site_engagement::SiteEngagementService::Helper::InputTracker"* %6, i64 0, i32 0
  %9 = bitcast %"class.site_engagement::SiteEngagementService::Helper::InputTracker"* %6 to void (%"class.site_engagement::SiteEngagementService::Helper::PeriodicTracker"*)***
  %10 = load void (%"class.site_engagement::SiteEngagementService::Helper::PeriodicTracker"*)**, void (%"class.site_engagement::SiteEngagementService::Helper::PeriodicTracker"*)*** %9, align 8
  %11 = getelementptr inbounds void (%"class.site_engagement::SiteEngagementService::Helper::PeriodicTracker"*)*, void (%"class.site_engagement::SiteEngagementService::Helper::PeriodicTracker"*)** %10, i64 3
  %12 = load void (%"class.site_engagement::SiteEngagementService::Helper::PeriodicTracker"*)*, void (%"class.site_engagement::SiteEngagementService::Helper::PeriodicTracker"*)** %11, align 8
  tail call void %12(%"class.site_engagement::SiteEngagementService::Helper::PeriodicTracker"* %8) #9
  %13 = getelementptr inbounds %"class.site_engagement::SiteEngagementService::Helper", %"class.site_engagement::SiteEngagementService::Helper"* %0, i64 0, i32 2, i32 0, i32 2, i32 0, i32 0, i32 0
  %14 = load %"class.base::OneShotTimer"*, %"class.base::OneShotTimer"** %13, align 8
  %15 = getelementptr inbounds %"class.base::OneShotTimer", %"class.base::OneShotTimer"* %14, i64 0, i32 0
  %16 = bitcast %"class.base::OneShotTimer"* %14 to void (%"class.base::internal::TimerBase"*)***
  %17 = load void (%"class.base::internal::TimerBase"*)**, void (%"class.base::internal::TimerBase"*)*** %16, align 8
  %18 = getelementptr inbounds void (%"class.base::internal::TimerBase"*)*, void (%"class.base::internal::TimerBase"*)** %17, i64 3
  %19 = load void (%"class.base::internal::TimerBase"*)*, void (%"class.base::internal::TimerBase"*)** %18, align 8
  tail call void %19(%"class.base::internal::TimerBase"* %15) #9
  br label %49

20:                                               ; preds = %2
  %21 = getelementptr inbounds %"class.site_engagement::SiteEngagementService::Helper", %"class.site_engagement::SiteEngagementService::Helper"* %0, i64 0, i32 2, i32 0, i32 2, i32 0, i32 0, i32 0
  %22 = load %"class.base::OneShotTimer"*, %"class.base::OneShotTimer"** %21, align 8
  %23 = getelementptr inbounds %"class.base::OneShotTimer", %"class.base::OneShotTimer"* %22, i64 0, i32 0
  %24 = tail call zeroext i1 @_ZNK4base8internal9TimerBase9IsRunningEv(%"class.base::internal::TimerBase"* %23) #9
  br i1 %24, label %49, label %25

25:                                               ; preds = %20
  %26 = getelementptr inbounds %"class.site_engagement::SiteEngagementService::Helper", %"class.site_engagement::SiteEngagementService::Helper"* %0, i64 0, i32 2, i32 2
  %27 = load i8, i8* %26, align 8, !range !17
  %28 = icmp eq i8 %27, 0
  br i1 %28, label %29, label %49

29:                                               ; preds = %25
  %30 = load i32, i32* @_ZN15site_engagement12_GLOBAL__N_126g_seconds_delay_after_showE, align 4
  %31 = sext i32 %30 to i64
  %32 = mul nsw i64 %31, 1000000
  %33 = bitcast %"class.base::OnceCallback"* %4 to i8*
  call void @llvm.lifetime.start.p0i8(i64 8, i8* nonnull %33) #9
  %34 = load %"class.base::OneShotTimer"*, %"class.base::OneShotTimer"** %21, align 8
  %35 = bitcast %"class.base::Location"* %3 to i8*
  call void @llvm.lifetime.start.p0i8(i64 32, i8* nonnull %35) #9
  call void @_ZN4base8Location7CurrentEPKcS2_i(%"class.base::Location"* nonnull sret %3, i8* getelementptr inbounds ([11 x i8], [11 x i8]* @.str, i64 0, i64 0), i8* getelementptr inbounds ([58 x i8], [58 x i8]* @.str.1, i64 0, i64 0), i32 90) #9
  %36 = ptrtoint %"class.site_engagement::SiteEngagementService::Helper::InputTracker"* %6 to i64
  %37 = call i8* @_Znwm(i64 56) #10, !noalias !39
  %38 = bitcast i8* %37 to %"class.base::internal::BindStateBase"*
  call void @_ZN4base8internal13BindStateBaseC2EPFvvEPFvPKS1_E(%"class.base::internal::BindStateBase"* nonnull %38, void ()* bitcast (void (%"class.base::internal::BindStateBase"*)* @_ZN4base8internal7InvokerINS0_9BindStateIMN15site_engagement21SiteEngagementService6Helper15PeriodicTrackerEFvvEJNS0_17UnretainedWrapperIS6_EEEEEFvvEE7RunOnceEPNS0_13BindStateBaseE to void ()*), void (%"class.base::internal::BindStateBase"*)* nonnull @_ZN4base8internal9BindStateIMN15site_engagement21SiteEngagementService6Helper15PeriodicTrackerEFvvEJNS0_17UnretainedWrapperIS5_EEEE7DestroyEPKNS0_13BindStateBaseE) #9, !noalias !39
  %39 = getelementptr inbounds i8, i8* %37, i64 32
  %40 = bitcast i8* %39 to <2 x i64>*
  store <2 x i64> <i64 17, i64 0>, <2 x i64>* %40, align 8, !noalias !39
  %41 = getelementptr inbounds i8, i8* %37, i64 48
  %42 = bitcast i8* %41 to i64*
  store i64 %36, i64* %42, align 8, !noalias !39
  %43 = bitcast %"class.base::OnceCallback"* %4 to i8**
  store i8* %37, i8** %43, align 8, !alias.scope !39
  %44 = bitcast %"class.base::OneShotTimer"* %34 to void (%"class.base::OneShotTimer"*, %"class.base::Location"*, i64, %"class.base::OnceCallback"*)***
  %45 = load void (%"class.base::OneShotTimer"*, %"class.base::Location"*, i64, %"class.base::OnceCallback"*)**, void (%"class.base::OneShotTimer"*, %"class.base::Location"*, i64, %"class.base::OnceCallback"*)*** %44, align 8
  %46 = getelementptr inbounds void (%"class.base::OneShotTimer"*, %"class.base::Location"*, i64, %"class.base::OnceCallback"*)*, void (%"class.base::OneShotTimer"*, %"class.base::Location"*, i64, %"class.base::OnceCallback"*)** %45, i64 7
  %47 = load void (%"class.base::OneShotTimer"*, %"class.base::Location"*, i64, %"class.base::OnceCallback"*)*, void (%"class.base::OneShotTimer"*, %"class.base::Location"*, i64, %"class.base::OnceCallback"*)** %46, align 8
  call void %47(%"class.base::OneShotTimer"* %34, %"class.base::Location"* nonnull dereferenceable(32) %3, i64 %32, %"class.base::OnceCallback"* nonnull %4) #9
  %48 = getelementptr inbounds %"class.base::OnceCallback", %"class.base::OnceCallback"* %4, i64 0, i32 0
  call void @_ZN4base8internal12CallbackBaseD2Ev(%"class.base::internal::CallbackBase"* nonnull %48) #9
  call void @llvm.lifetime.end.p0i8(i64 32, i8* nonnull %35) #9
  call void @llvm.lifetime.end.p0i8(i64 8, i8* nonnull %33) #9
  br label %49

49:                                               ; preds = %25, %20, %29, %7
  ret void
}

declare zeroext i1 @_ZN7content19WebContentsObserver17OnMessageReceivedERKN3IPC7MessageE(%"class.content::WebContentsObserver"*, %"class.IPC::Message"* dereferenceable(56)) unnamed_addr #2

; Function Attrs: nounwind ssp uwtable
define linkonce_odr hidden void @_ZN3IPC8Listener18OnChannelConnectedEi(%"class.IPC::Listener"*, i32) unnamed_addr #1 comdat align 2 {
  ret void
}

; Function Attrs: nounwind ssp uwtable
define linkonce_odr hidden void @_ZN3IPC8Listener14OnChannelErrorEv(%"class.IPC::Listener"*) unnamed_addr #1 comdat align 2 {
  ret void
}

; Function Attrs: nounwind ssp uwtable
define linkonce_odr hidden void @_ZN3IPC8Listener20OnBadMessageReceivedERKNS_7MessageE(%"class.IPC::Listener"*, %"class.IPC::Message"* dereferenceable(56)) unnamed_addr #1 comdat align 2 {
  ret void
}

; Function Attrs: nounwind ssp uwtable
define linkonce_odr hidden void @_ZN3IPC8Listener28OnAssociatedInterfaceRequestERKNSt3__112basic_stringIcNS1_11char_traitsIcEENS1_9allocatorIcEEEEN4mojo29ScopedInterfaceEndpointHandleE(%"class.IPC::Listener"*, %"class.std::__1::basic_string"* dereferenceable(24), %"class.mojo::ScopedInterfaceEndpointHandle"*) unnamed_addr #1 comdat align 2 {
  ret void
}

; Function Attrs: nounwind ssp uwtable
define linkonce_odr hidden void @_ZN3IPC8Listener15OnChannelDeniedEv(%"class.IPC::Listener"*) unnamed_addr #1 comdat align 2 {
  ret void
}

; Function Attrs: nounwind ssp uwtable
define linkonce_odr hidden void @_ZN3IPC8Listener20OnChannelListenErrorEv(%"class.IPC::Listener"*) unnamed_addr #1 comdat align 2 {
  ret void
}

; Function Attrs: nounwind ssp uwtable
define linkonce_odr hidden void @_ZN7content19WebContentsObserver18RenderFrameCreatedEPNS_15RenderFrameHostE(%"class.content::WebContentsObserver"*, %"class.content::RenderFrameHost"*) unnamed_addr #1 comdat align 2 {
  ret void
}

; Function Attrs: nounwind ssp uwtable
define linkonce_odr hidden void @_ZN7content19WebContentsObserver18RenderFrameDeletedEPNS_15RenderFrameHostE(%"class.content::WebContentsObserver"*, %"class.content::RenderFrameHost"*) unnamed_addr #1 comdat align 2 {
  ret void
}

; Function Attrs: nounwind ssp uwtable
define linkonce_odr hidden void @_ZN7content19WebContentsObserver22RenderFrameHostChangedEPNS_15RenderFrameHostES2_(%"class.content::WebContentsObserver"*, %"class.content::RenderFrameHost"*, %"class.content::RenderFrameHost"*) unnamed_addr #1 comdat align 2 {
  ret void
}

; Function Attrs: nounwind ssp uwtable
define linkonce_odr hidden void @_ZN7content19WebContentsObserver12FrameDeletedEi(%"class.content::WebContentsObserver"*, i32) unnamed_addr #1 comdat align 2 {
  ret void
}

; Function Attrs: nounwind ssp uwtable
define linkonce_odr hidden void @_ZN7content19WebContentsObserver27RenderFrameHostStateChangedEPNS_15RenderFrameHostENS1_14LifecycleStateES3_(%"class.content::WebContentsObserver"*, %"class.content::RenderFrameHost"*, i32, i32) unnamed_addr #1 comdat align 2 {
  ret void
}

; Function Attrs: nounwind ssp uwtable
define linkonce_odr hidden void @_ZN7content19WebContentsObserver20CaptureTargetChangedEv(%"class.content::WebContentsObserver"*) unnamed_addr #1 comdat align 2 {
  ret void
}

; Function Attrs: nounwind ssp uwtable
define linkonce_odr hidden void @_ZN7content19WebContentsObserver27OnCaptureHandleConfigUpdateERKN5blink5mojom19CaptureHandleConfigE(%"class.content::WebContentsObserver"*, %"class.blink::mojom::CaptureHandleConfig"*) unnamed_addr #1 comdat align 2 {
  ret void
}

; Function Attrs: nounwind ssp uwtable
define linkonce_odr hidden void @_ZN7content19WebContentsObserver15RenderViewReadyEv(%"class.content::WebContentsObserver"*) unnamed_addr #1 comdat align 2 {
  ret void
}

; Function Attrs: nounwind ssp uwtable
define linkonce_odr hidden void @_ZN7content19WebContentsObserver17RenderViewDeletedEPNS_14RenderViewHostE(%"class.content::WebContentsObserver"*, %"class.content::RenderViewHost"*) unnamed_addr #1 comdat align 2 {
  ret void
}

; Function Attrs: nounwind ssp uwtable
define linkonce_odr hidden void @_ZN7content19WebContentsObserver17RenderProcessGoneEN4base17TerminationStatusE(%"class.content::WebContentsObserver"*, i32) unnamed_addr #1 comdat align 2 {
  ret void
}

; Function Attrs: nounwind ssp uwtable
define linkonce_odr hidden void @_ZN7content19WebContentsObserver21RenderViewHostChangedEPNS_14RenderViewHostES2_(%"class.content::WebContentsObserver"*, %"class.content::RenderViewHost"*, %"class.content::RenderViewHost"*) unnamed_addr #1 comdat align 2 {
  ret void
}

; Function Attrs: nounwind ssp uwtable
define linkonce_odr hidden void @_ZN7content19WebContentsObserver22OnRendererUnresponsiveEPNS_17RenderProcessHostE(%"class.content::WebContentsObserver"*, %"class.content::RenderProcessHost"*) unnamed_addr #1 comdat align 2 {
  ret void
}

; Function Attrs: nounwind ssp uwtable
define linkonce_odr hidden void @_ZN7content19WebContentsObserver20OnRendererResponsiveEPNS_17RenderProcessHostE(%"class.content::WebContentsObserver"*, %"class.content::RenderProcessHost"*) unnamed_addr #1 comdat align 2 {
  ret void
}

; Function Attrs: nounwind ssp uwtable
define linkonce_odr hidden void @_ZN7content19WebContentsObserver18DidStartNavigationEPNS_16NavigationHandleE(%"class.content::WebContentsObserver"*, %"class.content::NavigationHandle"*) unnamed_addr #1 comdat align 2 {
  ret void
}

; Function Attrs: nounwind ssp uwtable
define linkonce_odr hidden void @_ZN7content19WebContentsObserver21DidRedirectNavigationEPNS_16NavigationHandleE(%"class.content::WebContentsObserver"*, %"class.content::NavigationHandle"*) unnamed_addr #1 comdat align 2 {
  ret void
}

; Function Attrs: nounwind ssp uwtable
define linkonce_odr hidden void @_ZN7content19WebContentsObserver23ReadyToCommitNavigationEPNS_16NavigationHandleE(%"class.content::WebContentsObserver"*, %"class.content::NavigationHandle"*) unnamed_addr #1 comdat align 2 {
  ret void
}

; Function Attrs: nounwind ssp uwtable
define linkonce_odr hidden void @_ZN7content19WebContentsObserver17DidActivatePortalEPNS_11WebContentsEN4base9TimeTicksE(%"class.content::WebContentsObserver"*, %"class.content::WebContents"*, i64) unnamed_addr #1 comdat align 2 {
  ret void
}

; Function Attrs: nounwind ssp uwtable
define linkonce_odr hidden void @_ZN7content19WebContentsObserver15DidStartLoadingEv(%"class.content::WebContentsObserver"*) unnamed_addr #1 comdat align 2 {
  ret void
}

; Function Attrs: nounwind ssp uwtable
define linkonce_odr hidden void @_ZN7content19WebContentsObserver18DidReceiveResponseEv(%"class.content::WebContentsObserver"*) unnamed_addr #1 comdat align 2 {
  ret void
}

; Function Attrs: nounwind ssp uwtable
define linkonce_odr hidden void @_ZN7content19WebContentsObserver14DidStopLoadingEv(%"class.content::WebContentsObserver"*) unnamed_addr #1 comdat align 2 {
  ret void
}

; Function Attrs: nounwind ssp uwtable
define linkonce_odr hidden void @_ZN7content19WebContentsObserver19LoadProgressChangedEd(%"class.content::WebContentsObserver"*, double) unnamed_addr #1 comdat align 2 {
  ret void
}

; Function Attrs: nounwind ssp uwtable
define linkonce_odr hidden void @_ZN7content19WebContentsObserver28DocumentAvailableInMainFrameEPNS_15RenderFrameHostE(%"class.content::WebContentsObserver"*, %"class.content::RenderFrameHost"*) unnamed_addr #1 comdat align 2 {
  ret void
}

; Function Attrs: nounwind ssp uwtable
define linkonce_odr hidden void @_ZN7content19WebContentsObserver34DocumentOnLoadCompletedInMainFrameEPNS_15RenderFrameHostE(%"class.content::WebContentsObserver"*, %"class.content::RenderFrameHost"*) unnamed_addr #1 comdat align 2 {
  ret void
}

; Function Attrs: nounwind ssp uwtable
define linkonce_odr hidden void @_ZN7content19WebContentsObserver16DOMContentLoadedEPNS_15RenderFrameHostE(%"class.content::WebContentsObserver"*, %"class.content::RenderFrameHost"*) unnamed_addr #1 comdat align 2 {
  ret void
}

; Function Attrs: nounwind ssp uwtable
define linkonce_odr hidden void @_ZN7content19WebContentsObserver13DidFinishLoadEPNS_15RenderFrameHostERK4GURL(%"class.content::WebContentsObserver"*, %"class.content::RenderFrameHost"*, %class.GURL* dereferenceable(120)) unnamed_addr #1 comdat align 2 {
  ret void
}

; Function Attrs: nounwind ssp uwtable
define linkonce_odr hidden void @_ZN7content19WebContentsObserver11DidFailLoadEPNS_15RenderFrameHostERK4GURLi(%"class.content::WebContentsObserver"*, %"class.content::RenderFrameHost"*, %class.GURL* dereferenceable(120), i32) unnamed_addr #1 comdat align 2 {
  ret void
}

; Function Attrs: nounwind ssp uwtable
define linkonce_odr hidden void @_ZN7content19WebContentsObserver29DidChangeVisibleSecurityStateEv(%"class.content::WebContentsObserver"*) unnamed_addr #1 comdat align 2 {
  ret void
}

; Function Attrs: nounwind ssp uwtable
define linkonce_odr hidden void @_ZN7content19WebContentsObserver30DidLoadResourceFromMemoryCacheEPNS_15RenderFrameHostERK4GURLRKNSt3__112basic_stringIcNS6_11char_traitsIcEENS6_9allocatorIcEEEEN7network5mojom18RequestDestinationE(%"class.content::WebContentsObserver"*, %"class.content::RenderFrameHost"*, %class.GURL* dereferenceable(120), %"class.std::__1::basic_string"* dereferenceable(24), i32) unnamed_addr #1 comdat align 2 {
  ret void
}

; Function Attrs: nounwind ssp uwtable
define linkonce_odr hidden void @_ZN7content19WebContentsObserver20ResourceLoadCompleteEPNS_15RenderFrameHostERKNS_15GlobalRequestIDERKN5blink5mojom16ResourceLoadInfoE(%"class.content::WebContentsObserver"*, %"class.content::RenderFrameHost"*, %"struct.content::GlobalRequestID"* dereferenceable(8), %"class.blink::mojom::ResourceLoadInfo"*) unnamed_addr #1 comdat align 2 {
  ret void
}

; Function Attrs: nounwind ssp uwtable
define linkonce_odr hidden void @_ZN7content19WebContentsObserver17OnCookiesAccessedEPNS_15RenderFrameHostERKNS_19CookieAccessDetailsE(%"class.content::WebContentsObserver"*, %"class.content::RenderFrameHost"*, %"struct.content::CookieAccessDetails"* dereferenceable(280)) unnamed_addr #1 comdat align 2 {
  ret void
}

; Function Attrs: nounwind ssp uwtable
define linkonce_odr hidden void @_ZN7content19WebContentsObserver17OnCookiesAccessedEPNS_16NavigationHandleERKNS_19CookieAccessDetailsE(%"class.content::WebContentsObserver"*, %"class.content::NavigationHandle"*, %"struct.content::CookieAccessDetails"* dereferenceable(280)) unnamed_addr #1 comdat align 2 {
  ret void
}

; Function Attrs: nounwind ssp uwtable
define linkonce_odr hidden void @_ZN7content19WebContentsObserver24NavigationEntryCommittedERKNS_20LoadCommittedDetailsE(%"class.content::WebContentsObserver"*, %"struct.content::LoadCommittedDetails"*) unnamed_addr #1 comdat align 2 {
  ret void
}

; Function Attrs: nounwind ssp uwtable
define linkonce_odr hidden void @_ZN7content19WebContentsObserver20NavigationListPrunedERKNS_13PrunedDetailsE(%"class.content::WebContentsObserver"*, %"struct.content::PrunedDetails"*) unnamed_addr #1 comdat align 2 {
  ret void
}

; Function Attrs: nounwind ssp uwtable
define linkonce_odr hidden void @_ZN7content19WebContentsObserver24NavigationEntriesDeletedEv(%"class.content::WebContentsObserver"*) unnamed_addr #1 comdat align 2 {
  ret void
}

; Function Attrs: nounwind ssp uwtable
define linkonce_odr hidden void @_ZN7content19WebContentsObserver22NavigationEntryChangedERKNS_19EntryChangedDetailsE(%"class.content::WebContentsObserver"*, %"struct.content::EntryChangedDetails"*) unnamed_addr #1 comdat align 2 {
  ret void
}

; Function Attrs: nounwind ssp uwtable
define linkonce_odr hidden void @_ZN7content19WebContentsObserver19DidOpenRequestedURLEPNS_11WebContentsEPNS_15RenderFrameHostERK4GURLRKNS_8ReferrerE21WindowOpenDispositionN2ui14PageTransitionEbb(%"class.content::WebContentsObserver"*, %"class.content::WebContents"*, %"class.content::RenderFrameHost"*, %class.GURL* dereferenceable(120), %"struct.content::Referrer"* dereferenceable(128), i32, i32, i1 zeroext, i1 zeroext) unnamed_addr #1 comdat align 2 {
  ret void
}

; Function Attrs: nounwind ssp uwtable
define linkonce_odr hidden void @_ZN7content19WebContentsObserver29DidFirstVisuallyNonEmptyPaintEv(%"class.content::WebContentsObserver"*) unnamed_addr #1 comdat align 2 {
  ret void
}

; Function Attrs: nounwind ssp uwtable
define linkonce_odr hidden void @_ZN7content19WebContentsObserver17NavigationStoppedEv(%"class.content::WebContentsObserver"*) unnamed_addr #1 comdat align 2 {
  ret void
}

; Function Attrs: nounwind ssp uwtable
define linkonce_odr hidden void @_ZN7content19WebContentsObserver21DidGetUserInteractionERKN5blink13WebInputEventE(%"class.content::WebContentsObserver"*, %"class.blink::WebInputEvent"* dereferenceable(40)) unnamed_addr #1 comdat align 2 {
  ret void
}

; Function Attrs: nounwind ssp uwtable
define linkonce_odr hidden void @_ZN7content19WebContentsObserver20DidGetIgnoredUIEventEv(%"class.content::WebContentsObserver"*) unnamed_addr #1 comdat align 2 {
  ret void
}

; Function Attrs: nounwind ssp uwtable
define linkonce_odr hidden void @_ZN7content19WebContentsObserver19MainFrameWasResizedEb(%"class.content::WebContentsObserver"*, i1 zeroext) unnamed_addr #1 comdat align 2 {
  ret void
}

; Function Attrs: nounwind ssp uwtable
define linkonce_odr hidden void @_ZN7content19WebContentsObserver16FrameNameChangedEPNS_15RenderFrameHostERKNSt3__112basic_stringIcNS3_11char_traitsIcEENS3_9allocatorIcEEEE(%"class.content::WebContentsObserver"*, %"class.content::RenderFrameHost"*, %"class.std::__1::basic_string"* dereferenceable(24)) unnamed_addr #1 comdat align 2 {
  ret void
}

; Function Attrs: nounwind ssp uwtable
define linkonce_odr hidden void @_ZN7content19WebContentsObserver27FrameReceivedUserActivationEPNS_15RenderFrameHostE(%"class.content::WebContentsObserver"*, %"class.content::RenderFrameHost"*) unnamed_addr #1 comdat align 2 {
  ret void
}

; Function Attrs: nounwind ssp uwtable
define linkonce_odr hidden void @_ZN7content19WebContentsObserver24FrameDisplayStateChangedEPNS_15RenderFrameHostEb(%"class.content::WebContentsObserver"*, %"class.content::RenderFrameHost"*, i1 zeroext) unnamed_addr #1 comdat align 2 {
  ret void
}

; Function Attrs: nounwind ssp uwtable
define linkonce_odr hidden void @_ZN7content19WebContentsObserver16FrameSizeChangedEPNS_15RenderFrameHostERKN3gfx4SizeE(%"class.content::WebContentsObserver"*, %"class.content::RenderFrameHost"*, %"class.gfx::Size"* dereferenceable(8)) unnamed_addr #1 comdat align 2 {
  ret void
}

; Function Attrs: nounwind ssp uwtable
define linkonce_odr hidden void @_ZN7content19WebContentsObserver11TitleWasSetEPNS_15NavigationEntryE(%"class.content::WebContentsObserver"*, %"class.content::NavigationEntry"*) unnamed_addr #1 comdat align 2 {
  ret void
}

; Function Attrs: nounwind ssp uwtable
define linkonce_odr hidden void @_ZN7content19WebContentsObserver16AppCacheAccessedERK4GURLb(%"class.content::WebContentsObserver"*, %class.GURL* dereferenceable(120), i1 zeroext) unnamed_addr #1 comdat align 2 {
  ret void
}

; Function Attrs: nounwind ssp uwtable
define linkonce_odr hidden void @_ZN7content19WebContentsObserver21PepperInstanceCreatedEv(%"class.content::WebContentsObserver"*) unnamed_addr #1 comdat align 2 {
  ret void
}

; Function Attrs: nounwind ssp uwtable
define linkonce_odr hidden void @_ZN7content19WebContentsObserver21PepperInstanceDeletedEv(%"class.content::WebContentsObserver"*) unnamed_addr #1 comdat align 2 {
  ret void
}

; Function Attrs: nounwind ssp uwtable
define linkonce_odr hidden void @_ZN7content19WebContentsObserver18ViewportFitChangedEN5blink5mojom11ViewportFitE(%"class.content::WebContentsObserver"*, i32) unnamed_addr #1 comdat align 2 {
  ret void
}

; Function Attrs: nounwind ssp uwtable
define linkonce_odr hidden void @_ZN7content19WebContentsObserver13PluginCrashedERKN4base8FilePathEi(%"class.content::WebContentsObserver"*, %"class.base::FilePath"* dereferenceable(24), i32) unnamed_addr #1 comdat align 2 {
  ret void
}

; Function Attrs: nounwind ssp uwtable
define linkonce_odr hidden void @_ZN7content19WebContentsObserver23PluginHungStatusChangedEiRKN4base8FilePathEb(%"class.content::WebContentsObserver"*, i32, %"class.base::FilePath"* dereferenceable(24), i1 zeroext) unnamed_addr #1 comdat align 2 {
  ret void
}

; Function Attrs: nounwind ssp uwtable
define linkonce_odr hidden void @_ZN7content19WebContentsObserver23InnerWebContentsCreatedEPNS_11WebContentsE(%"class.content::WebContentsObserver"*, %"class.content::WebContents"*) unnamed_addr #1 comdat align 2 {
  ret void
}

; Function Attrs: nounwind ssp uwtable
define linkonce_odr hidden void @_ZN7content19WebContentsObserver24InnerWebContentsAttachedEPNS_11WebContentsEPNS_15RenderFrameHostEb(%"class.content::WebContentsObserver"*, %"class.content::WebContents"*, %"class.content::RenderFrameHost"*, i1 zeroext) unnamed_addr #1 comdat align 2 {
  ret void
}

; Function Attrs: nounwind ssp uwtable
define linkonce_odr hidden void @_ZN7content19WebContentsObserver24InnerWebContentsDetachedEPNS_11WebContentsE(%"class.content::WebContentsObserver"*, %"class.content::WebContents"*) unnamed_addr #1 comdat align 2 {
  ret void
}

; Function Attrs: nounwind ssp uwtable
define linkonce_odr hidden void @_ZN7content19WebContentsObserver24DidCloneToNewWebContentsEPNS_11WebContentsES2_(%"class.content::WebContentsObserver"*, %"class.content::WebContents"*, %"class.content::WebContents"*) unnamed_addr #1 comdat align 2 {
  ret void
}

; Function Attrs: nounwind ssp uwtable
define linkonce_odr hidden void @_ZN7content19WebContentsObserver20WebContentsDestroyedEv(%"class.content::WebContentsObserver"*) unnamed_addr #1 comdat align 2 {
  ret void
}

; Function Attrs: nounwind ssp uwtable
define linkonce_odr hidden void @_ZN7content19WebContentsObserver20UserAgentOverrideSetERKN5blink17UserAgentOverrideE(%"class.content::WebContentsObserver"*, %"struct.blink::UserAgentOverride"* dereferenceable(184)) unnamed_addr #1 comdat align 2 {
  ret void
}

; Function Attrs: nounwind ssp uwtable
define linkonce_odr hidden void @_ZN7content19WebContentsObserver19DidUpdateFaviconURLEPNS_15RenderFrameHostERKNSt3__16vectorIN4mojo9StructPtrIN5blink5mojom10FaviconURLEEENS3_9allocatorISA_EEEE(%"class.content::WebContentsObserver"*, %"class.content::RenderFrameHost"*, %"class.std::__1::vector.141"*) unnamed_addr #1 comdat align 2 {
  ret void
}

; Function Attrs: nounwind ssp uwtable
define linkonce_odr hidden void @_ZN7content19WebContentsObserver19OnAudioStateChangedEb(%"class.content::WebContentsObserver"*, i1 zeroext) unnamed_addr #1 comdat align 2 {
  ret void
}

; Function Attrs: nounwind ssp uwtable
define linkonce_odr hidden void @_ZN7content19WebContentsObserver24OnFrameAudioStateChangedEPNS_15RenderFrameHostEb(%"class.content::WebContentsObserver"*, %"class.content::RenderFrameHost"*, i1 zeroext) unnamed_addr #1 comdat align 2 {
  ret void
}

; Function Attrs: nounwind ssp uwtable
define linkonce_odr hidden void @_ZN7content19WebContentsObserver37OnIsConnectedToBluetoothDeviceChangedEb(%"class.content::WebContentsObserver"*, i1 zeroext) unnamed_addr #1 comdat align 2 {
  ret void
}

; Function Attrs: nounwind ssp uwtable
define linkonce_odr hidden void @_ZN7content19WebContentsObserver25DidUpdateAudioMutingStateEb(%"class.content::WebContentsObserver"*, i1 zeroext) unnamed_addr #1 comdat align 2 {
  ret void
}

; Function Attrs: nounwind ssp uwtable
define linkonce_odr hidden void @_ZN7content19WebContentsObserver29DidToggleFullscreenModeForTabEbb(%"class.content::WebContentsObserver"*, i1 zeroext, i1 zeroext) unnamed_addr #1 comdat align 2 {
  ret void
}

; Function Attrs: nounwind ssp uwtable
define linkonce_odr hidden void @_ZN7content19WebContentsObserver20DidAcquireFullscreenEPNS_15RenderFrameHostE(%"class.content::WebContentsObserver"*, %"class.content::RenderFrameHost"*) unnamed_addr #1 comdat align 2 {
  ret void
}

; Function Attrs: nounwind ssp uwtable
define linkonce_odr hidden void @_ZN7content19WebContentsObserver32DidChangeVerticalScrollDirectionEN3viz23VerticalScrollDirectionE(%"class.content::WebContentsObserver"*, i32) unnamed_addr #1 comdat align 2 {
  ret void
}

; Function Attrs: nounwind ssp uwtable
define linkonce_odr hidden void @_ZN7content19WebContentsObserver27BeforeFormRepostWarningShowEv(%"class.content::WebContentsObserver"*) unnamed_addr #1 comdat align 2 {
  ret void
}

; Function Attrs: nounwind ssp uwtable
define linkonce_odr hidden void @_ZN7content19WebContentsObserver17BeforeUnloadFiredEbRKN4base9TimeTicksE(%"class.content::WebContentsObserver"*, i1 zeroext, %"class.base::TimeTicks"* dereferenceable(8)) unnamed_addr #1 comdat align 2 {
  ret void
}

; Function Attrs: nounwind ssp uwtable
define linkonce_odr hidden void @_ZN7content19WebContentsObserver27BeforeUnloadDialogCancelledEv(%"class.content::WebContentsObserver"*) unnamed_addr #1 comdat align 2 {
  ret void
}

; Function Attrs: nounwind ssp uwtable
define linkonce_odr hidden void @_ZN7content19WebContentsObserver30AXTreeIDForMainFrameHasChangedEv(%"class.content::WebContentsObserver"*) unnamed_addr #1 comdat align 2 {
  ret void
}

; Function Attrs: nounwind ssp uwtable
define linkonce_odr hidden void @_ZN7content19WebContentsObserver26AccessibilityEventReceivedERKNS_26AXEventNotificationDetailsE(%"class.content::WebContentsObserver"*, %"struct.content::AXEventNotificationDetails"*) unnamed_addr #1 comdat align 2 {
  ret void
}

; Function Attrs: nounwind ssp uwtable
define linkonce_odr hidden void @_ZN7content19WebContentsObserver36AccessibilityLocationChangesReceivedERKNSt3__16vectorINS_35AXLocationChangeNotificationDetailsENS1_9allocatorIS3_EEEE(%"class.content::WebContentsObserver"*, %"class.std::__1::vector.142"*) unnamed_addr #1 comdat align 2 {
  ret void
}

; Function Attrs: nounwind ssp uwtable
define linkonce_odr hidden void @_ZN7content19WebContentsObserver19DidChangeThemeColorEv(%"class.content::WebContentsObserver"*) unnamed_addr #1 comdat align 2 {
  ret void
}

; Function Attrs: nounwind ssp uwtable
define linkonce_odr hidden void @_ZN7content19WebContentsObserver24OnBackgroundColorChangedEv(%"class.content::WebContentsObserver"*) unnamed_addr #1 comdat align 2 {
  ret void
}

; Function Attrs: nounwind ssp uwtable
define linkonce_odr hidden void @_ZN7content19WebContentsObserver24OnDidAddMessageToConsoleEPNS_15RenderFrameHostEN5blink5mojom19ConsoleMessageLevelERKNSt3__112basic_stringIDsNS6_11char_traitsIDsEENS6_9allocatorIDsEEEEiSE_RKN4absl8optionalISC_EE(%"class.content::WebContentsObserver"*, %"class.content::RenderFrameHost"*, i32, %"class.std::__1::basic_string.143"* dereferenceable(24), i32, %"class.std::__1::basic_string.143"* dereferenceable(24), %"class.absl::optional.152"*) unnamed_addr #1 comdat align 2 {
  ret void
}

; Function Attrs: nounwind ssp uwtable
define linkonce_odr hidden void @_ZN7content19WebContentsObserver19MediaStartedPlayingERKNS0_15MediaPlayerInfoERKNS_13MediaPlayerIdE(%"class.content::WebContentsObserver"*, %"struct.content::WebContentsObserver::MediaPlayerInfo"* dereferenceable(2), %"struct.content::MediaPlayerId"* dereferenceable(12)) unnamed_addr #1 comdat align 2 {
  ret void
}

; Function Attrs: nounwind ssp uwtable
define linkonce_odr hidden void @_ZN7content19WebContentsObserver19MediaStoppedPlayingERKNS0_15MediaPlayerInfoERKNS_13MediaPlayerIdENS0_18MediaStoppedReasonE(%"class.content::WebContentsObserver"*, %"struct.content::WebContentsObserver::MediaPlayerInfo"* dereferenceable(2), %"struct.content::MediaPlayerId"* dereferenceable(12), i32) unnamed_addr #1 comdat align 2 {
  ret void
}

; Function Attrs: nounwind ssp uwtable
define linkonce_odr hidden void @_ZN7content19WebContentsObserver12MediaResizedERKN3gfx4SizeERKNS_13MediaPlayerIdE(%"class.content::WebContentsObserver"*, %"class.gfx::Size"* dereferenceable(8), %"struct.content::MediaPlayerId"* dereferenceable(12)) unnamed_addr #1 comdat align 2 {
  ret void
}

; Function Attrs: nounwind ssp uwtable
define linkonce_odr hidden void @_ZN7content19WebContentsObserver33MediaEffectivelyFullscreenChangedEb(%"class.content::WebContentsObserver"*, i1 zeroext) unnamed_addr #1 comdat align 2 {
  ret void
}

; Function Attrs: nounwind ssp uwtable
define linkonce_odr hidden void @_ZN7content19WebContentsObserver28MediaPictureInPictureChangedEb(%"class.content::WebContentsObserver"*, i1 zeroext) unnamed_addr #1 comdat align 2 {
  ret void
}

; Function Attrs: nounwind ssp uwtable
define linkonce_odr hidden void @_ZN7content19WebContentsObserver23MediaMutedStatusChangedERKNS_13MediaPlayerIdEb(%"class.content::WebContentsObserver"*, %"struct.content::MediaPlayerId"* dereferenceable(12), i1 zeroext) unnamed_addr #1 comdat align 2 {
  ret void
}

; Function Attrs: nounwind ssp uwtable
define linkonce_odr hidden void @_ZN7content19WebContentsObserver20MediaBufferUnderflowERKNS_13MediaPlayerIdE(%"class.content::WebContentsObserver"*, %"struct.content::MediaPlayerId"* dereferenceable(12)) unnamed_addr #1 comdat align 2 {
  ret void
}

; Function Attrs: nounwind ssp uwtable
define linkonce_odr hidden void @_ZN7content19WebContentsObserver15MediaPlayerSeekERKNS_13MediaPlayerIdE(%"class.content::WebContentsObserver"*, %"struct.content::MediaPlayerId"* dereferenceable(12)) unnamed_addr #1 comdat align 2 {
  ret void
}

; Function Attrs: nounwind ssp uwtable
define linkonce_odr hidden void @_ZN7content19WebContentsObserver14MediaDestroyedERKNS_13MediaPlayerIdE(%"class.content::WebContentsObserver"*, %"struct.content::MediaPlayerId"* dereferenceable(12)) unnamed_addr #1 comdat align 2 {
  ret void
}

; Function Attrs: nounwind ssp uwtable
define linkonce_odr hidden void @_ZN7content19WebContentsObserver24OnPageScaleFactorChangedEf(%"class.content::WebContentsObserver"*, float) unnamed_addr #1 comdat align 2 {
  ret void
}

; Function Attrs: nounwind ssp uwtable
define linkonce_odr hidden void @_ZN7content19WebContentsObserver7OnPasteEv(%"class.content::WebContentsObserver"*) unnamed_addr #1 comdat align 2 {
  ret void
}

declare zeroext i1 @_ZN7content19WebContentsObserver17OnMessageReceivedERKN3IPC7MessageEPNS_15RenderFrameHostE(%"class.content::WebContentsObserver"*, %"class.IPC::Message"* dereferenceable(56), %"class.content::RenderFrameHost"*) unnamed_addr #2

; Function Attrs: nounwind ssp uwtable
define linkonce_odr hidden void @_ZN7content19WebContentsObserver20OnWebContentsFocusedEPNS_16RenderWidgetHostE(%"class.content::WebContentsObserver"*, %"class.content::RenderWidgetHost"*) unnamed_addr #1 comdat align 2 {
  ret void
}

; Function Attrs: nounwind ssp uwtable
define linkonce_odr hidden void @_ZN7content19WebContentsObserver22OnWebContentsLostFocusEPNS_16RenderWidgetHostE(%"class.content::WebContentsObserver"*, %"class.content::RenderWidgetHost"*) unnamed_addr #1 comdat align 2 {
  ret void
}

; Function Attrs: nounwind ssp uwtable
define linkonce_odr hidden void @_ZN7content19WebContentsObserver20OnFocusChangedInPageEPNS_18FocusedNodeDetailsE(%"class.content::WebContentsObserver"*, %"struct.content::FocusedNodeDetails"*) unnamed_addr #1 comdat align 2 {
  ret void
}

; Function Attrs: nounwind ssp uwtable
define linkonce_odr hidden void @_ZN7content19WebContentsObserver23DidUpdateWebManifestURLEPNS_15RenderFrameHostERKN4absl8optionalI4GURLEE(%"class.content::WebContentsObserver"*, %"class.content::RenderFrameHost"*, %"class.absl::optional.153"* dereferenceable(128)) unnamed_addr #1 comdat align 2 {
  ret void
}

; Function Attrs: nounwind ssp uwtable
define linkonce_odr hidden void @_ZN7content19WebContentsObserver27OnInterfaceRequestFromFrameEPNS_15RenderFrameHostERKNSt3__112basic_stringIcNS3_11char_traitsIcEENS3_9allocatorIcEEEEPN4mojo16ScopedHandleBaseINSC_17MessagePipeHandleEEE(%"class.content::WebContentsObserver"*, %"class.content::RenderFrameHost"*, %"class.std::__1::basic_string"* dereferenceable(24), %"class.mojo::ScopedHandleBase"*) unnamed_addr #1 comdat align 2 {
  ret void
}

; Function Attrs: nounwind ssp uwtable
define linkonce_odr hidden void @_ZN7content19WebContentsObserver27AudioContextPlaybackStartedERKNSt3__14pairIPNS_15RenderFrameHostEiEE(%"class.content::WebContentsObserver"*, %"struct.std::__1::pair"*) unnamed_addr #1 comdat align 2 {
  ret void
}

; Function Attrs: nounwind ssp uwtable
define linkonce_odr hidden void @_ZN7content19WebContentsObserver27AudioContextPlaybackStoppedERKNSt3__14pairIPNS_15RenderFrameHostEiEE(%"class.content::WebContentsObserver"*, %"struct.std::__1::pair"*) unnamed_addr #1 comdat align 2 {
  ret void
}

; Function Attrs: nounwind ssp uwtable
define linkonce_odr hidden void @_ZN7content19WebContentsObserver23OnServiceWorkerAccessedEPNS_15RenderFrameHostERK4GURLNS_24AllowServiceWorkerResultE(%"class.content::WebContentsObserver"*, %"class.content::RenderFrameHost"*, %class.GURL* dereferenceable(120), i24) unnamed_addr #1 comdat align 2 {
  ret void
}

; Function Attrs: nounwind ssp uwtable
define linkonce_odr hidden void @_ZN7content19WebContentsObserver23OnServiceWorkerAccessedEPNS_16NavigationHandleERK4GURLNS_24AllowServiceWorkerResultE(%"class.content::WebContentsObserver"*, %"class.content::NavigationHandle"*, %class.GURL* dereferenceable(120), i24) unnamed_addr #1 comdat align 2 {
  ret void
}

declare void @_ZN4base16SupportsUserData4Data5CloneEv() unnamed_addr

; Function Attrs: inlinehint nounwind ssp uwtable
define linkonce_odr hidden void @_ZN15site_engagement21SiteEngagementService6Helper12InputTrackerD0Ev(%"class.site_engagement::SiteEngagementService::Helper::InputTracker"*) unnamed_addr #3 comdat align 2 {
  %2 = getelementptr inbounds %"class.site_engagement::SiteEngagementService::Helper::InputTracker", %"class.site_engagement::SiteEngagementService::Helper::InputTracker"* %0, i64 0, i32 1
  tail call void @_ZN7content19WebContentsObserverD2Ev(%"class.content::WebContentsObserver"* %2) #9
  %3 = getelementptr inbounds %"class.site_engagement::SiteEngagementService::Helper::InputTracker", %"class.site_engagement::SiteEngagementService::Helper::InputTracker"* %0, i64 0, i32 0, i32 0
  store i32 (...)** bitcast (i8** getelementptr inbounds ({ [6 x i8*] }, { [6 x i8*] }* @_ZTVN15site_engagement21SiteEngagementService6Helper15PeriodicTrackerE, i64 0, inrange i32 0, i64 2) to i32 (...)**), i32 (...)*** %3, align 8
  %4 = getelementptr inbounds %"class.site_engagement::SiteEngagementService::Helper::InputTracker", %"class.site_engagement::SiteEngagementService::Helper::InputTracker"* %0, i64 0, i32 0, i32 2, i32 0, i32 0, i32 0
  %5 = load %"class.base::OneShotTimer"*, %"class.base::OneShotTimer"** %4, align 8
  store %"class.base::OneShotTimer"* null, %"class.base::OneShotTimer"** %4, align 8
  %6 = icmp eq %"class.base::OneShotTimer"* %5, null
  br i1 %6, label %12, label %7

7:                                                ; preds = %1
  %8 = bitcast %"class.base::OneShotTimer"* %5 to void (%"class.base::OneShotTimer"*)***
  %9 = load void (%"class.base::OneShotTimer"*)**, void (%"class.base::OneShotTimer"*)*** %8, align 8
  %10 = getelementptr inbounds void (%"class.base::OneShotTimer"*)*, void (%"class.base::OneShotTimer"*)** %9, i64 1
  %11 = load void (%"class.base::OneShotTimer"*)*, void (%"class.base::OneShotTimer"*)** %10, align 8
  tail call void %11(%"class.base::OneShotTimer"* nonnull %5) #9
  br label %12

12:                                               ; preds = %1, %7
  %13 = bitcast %"class.site_engagement::SiteEngagementService::Helper::InputTracker"* %0 to i8*
  tail call void @_ZdlPv(i8* %13) #10
  ret void
}

; Function Attrs: inlinehint nounwind ssp uwtable
define linkonce_odr hidden void @_ZThn24_N15site_engagement21SiteEngagementService6Helper12InputTrackerD1Ev(%"class.site_engagement::SiteEngagementService::Helper::InputTracker"*) unnamed_addr #3 comdat align 2 {
  %2 = getelementptr inbounds %"class.site_engagement::SiteEngagementService::Helper::InputTracker", %"class.site_engagement::SiteEngagementService::Helper::InputTracker"* %0, i64 -1, i32 1
  %3 = getelementptr inbounds %"class.content::WebContentsObserver", %"class.content::WebContentsObserver"* %2, i64 1, i32 1
  %4 = bitcast %"class.content::WebContents"** %3 to %"class.content::WebContentsObserver"*
  tail call void @_ZN7content19WebContentsObserverD2Ev(%"class.content::WebContentsObserver"* %4) #9
  %5 = getelementptr inbounds %"class.content::WebContentsObserver", %"class.content::WebContentsObserver"* %2, i64 0, i32 0, i32 0
  store i32 (...)** bitcast (i8** getelementptr inbounds ({ [6 x i8*] }, { [6 x i8*] }* @_ZTVN15site_engagement21SiteEngagementService6Helper15PeriodicTrackerE, i64 0, inrange i32 0, i64 2) to i32 (...)**), i32 (...)*** %5, align 8
  %6 = getelementptr inbounds %"class.content::WebContentsObserver", %"class.content::WebContentsObserver"* %2, i64 1
  %7 = bitcast %"class.content::WebContentsObserver"* %6 to %"class.base::OneShotTimer"**
  %8 = load %"class.base::OneShotTimer"*, %"class.base::OneShotTimer"** %7, align 8
  store %"class.base::OneShotTimer"* null, %"class.base::OneShotTimer"** %7, align 8
  %9 = icmp eq %"class.base::OneShotTimer"* %8, null
  br i1 %9, label %15, label %10

10:                                               ; preds = %1
  %11 = bitcast %"class.base::OneShotTimer"* %8 to void (%"class.base::OneShotTimer"*)***
  %12 = load void (%"class.base::OneShotTimer"*)**, void (%"class.base::OneShotTimer"*)*** %11, align 8
  %13 = getelementptr inbounds void (%"class.base::OneShotTimer"*)*, void (%"class.base::OneShotTimer"*)** %12, i64 1
  %14 = load void (%"class.base::OneShotTimer"*)*, void (%"class.base::OneShotTimer"*)** %13, align 8
  tail call void %14(%"class.base::OneShotTimer"* nonnull %8) #9
  br label %15

15:                                               ; preds = %1, %10
  ret void
}

; Function Attrs: inlinehint nounwind ssp uwtable
define linkonce_odr hidden void @_ZThn24_N15site_engagement21SiteEngagementService6Helper12InputTrackerD0Ev(%"class.site_engagement::SiteEngagementService::Helper::InputTracker"*) unnamed_addr #3 comdat align 2 {
  %2 = getelementptr inbounds %"class.site_engagement::SiteEngagementService::Helper::InputTracker", %"class.site_engagement::SiteEngagementService::Helper::InputTracker"* %0, i64 -1, i32 1
  %3 = getelementptr inbounds %"class.content::WebContentsObserver", %"class.content::WebContentsObserver"* %2, i64 1, i32 1
  %4 = bitcast %"class.content::WebContents"** %3 to %"class.content::WebContentsObserver"*
  tail call void @_ZN7content19WebContentsObserverD2Ev(%"class.content::WebContentsObserver"* %4) #9
  %5 = getelementptr inbounds %"class.content::WebContentsObserver", %"class.content::WebContentsObserver"* %2, i64 0, i32 0, i32 0
  store i32 (...)** bitcast (i8** getelementptr inbounds ({ [6 x i8*] }, { [6 x i8*] }* @_ZTVN15site_engagement21SiteEngagementService6Helper15PeriodicTrackerE, i64 0, inrange i32 0, i64 2) to i32 (...)**), i32 (...)*** %5, align 8
  %6 = getelementptr inbounds %"class.content::WebContentsObserver", %"class.content::WebContentsObserver"* %2, i64 1
  %7 = bitcast %"class.content::WebContentsObserver"* %6 to %"class.base::OneShotTimer"**
  %8 = load %"class.base::OneShotTimer"*, %"class.base::OneShotTimer"** %7, align 8
  store %"class.base::OneShotTimer"* null, %"class.base::OneShotTimer"** %7, align 8
  %9 = icmp eq %"class.base::OneShotTimer"* %8, null
  br i1 %9, label %15, label %10

10:                                               ; preds = %1
  %11 = bitcast %"class.base::OneShotTimer"* %8 to void (%"class.base::OneShotTimer"*)***
  %12 = load void (%"class.base::OneShotTimer"*)**, void (%"class.base::OneShotTimer"*)*** %11, align 8
  %13 = getelementptr inbounds void (%"class.base::OneShotTimer"*)*, void (%"class.base::OneShotTimer"*)** %12, i64 1
  %14 = load void (%"class.base::OneShotTimer"*)*, void (%"class.base::OneShotTimer"*)** %13, align 8
  tail call void %14(%"class.base::OneShotTimer"* nonnull %8) #9
  br label %15

15:                                               ; preds = %1, %10
  %16 = bitcast %"class.content::WebContentsObserver"* %2 to i8*
  tail call void @_ZdlPv(i8* %16) #10
  ret void
}

; Function Attrs: nounwind ssp uwtable
define linkonce_odr hidden void @_ZN7content19WebContentsObserver19DidFinishNavigationEPNS_16NavigationHandleE(%"class.content::WebContentsObserver"*, %"class.content::NavigationHandle"*) unnamed_addr #1 comdat align 2 {
  ret void
}

; Function Attrs: nounwind ssp uwtable
define linkonce_odr hidden void @_ZN7content19WebContentsObserver19OnVisibilityChangedENS_10VisibilityE(%"class.content::WebContentsObserver"*, i32) unnamed_addr #1 comdat align 2 {
  ret void
}

; Function Attrs: nounwind ssp uwtable
define linkonce_odr hidden void @_ZN15site_engagement21SiteEngagementService6Helper15PeriodicTracker15TrackingStartedEv(%"class.site_engagement::SiteEngagementService::Helper::PeriodicTracker"*) unnamed_addr #1 comdat align 2 {
  ret void
}

; Function Attrs: nounwind ssp uwtable
define linkonce_odr hidden void @_ZN15site_engagement21SiteEngagementService6Helper15PeriodicTracker15TrackingStoppedEv(%"class.site_engagement::SiteEngagementService::Helper::PeriodicTracker"*) unnamed_addr #1 comdat align 2 {
  ret void
}

declare i32 @_ZN4base14PlatformThread9CurrentIdEv() local_unnamed_addr #2

declare i64 @_ZN4base6subtle28TimeTicksNowIgnoringOverrideEv() local_unnamed_addr #2

declare i64 @_ZN20trace_event_internal37AddTraceEventWithThreadIdAndTimestampEcPKhPKcS3_yyiRKN4base9TimeTicksEPNS4_11trace_event14TraceArgumentsEj(i8 signext, i8*, i8*, i8*, i64, i64, i32, %"class.base::TimeTicks"* dereferenceable(8), %"class.base::trace_event::TraceArguments"*, i32) local_unnamed_addr #2

declare void @_ZN20trace_event_internal24UpdateTraceEventDurationEPKhPKcN4base11trace_event16TraceEventHandleE(i8*, i8*, i64) local_unnamed_addr #2

; Function Attrs: nobuiltin nofree
declare noalias nonnull i8* @_Znwm(i64) local_unnamed_addr #7

declare void @_ZN4base12OneShotTimerC1Ev(%"class.base::OneShotTimer"*) unnamed_addr #2

; Function Attrs: nounwind ssp uwtable
define linkonce_odr hidden void @_ZN4base8internal7InvokerINS0_9BindStateIMN15site_engagement21SiteEngagementService6Helper15PeriodicTrackerEFvvEJNS0_17UnretainedWrapperIS6_EEEEEFvvEE7RunOnceEPNS0_13BindStateBaseE(%"class.base::internal::BindStateBase"*) #1 comdat align 2 {
  %2 = getelementptr inbounds %"class.base::internal::BindStateBase", %"class.base::internal::BindStateBase"* %0, i64 1
  %3 = getelementptr inbounds %"class.base::internal::BindStateBase", %"class.base::internal::BindStateBase"* %0, i64 1, i32 2
  %4 = bitcast void (%"class.base::internal::BindStateBase"*)** %3 to i8**
  %5 = load i8*, i8** %4, align 8
  %6 = bitcast %"class.base::internal::BindStateBase"* %2 to i64*
  %7 = load i64, i64* %6, align 8
  %8 = getelementptr inbounds %"class.base::internal::BindStateBase", %"class.base::internal::BindStateBase"* %0, i64 1, i32 1
  %9 = bitcast void ()** %8 to i64*
  %10 = load i64, i64* %9, align 8
  %11 = getelementptr inbounds i8, i8* %5, i64 %10
  %12 = bitcast i8* %11 to %"class.site_engagement::SiteEngagementService::Helper::PeriodicTracker"*
  %13 = and i64 %7, 1
  %14 = icmp eq i64 %13, 0
  br i1 %14, label %22, label %15

15:                                               ; preds = %1
  %16 = bitcast i8* %11 to i8**
  %17 = load i8*, i8** %16, align 8
  %18 = add i64 %7, -1
  %19 = getelementptr i8, i8* %17, i64 %18
  %20 = bitcast i8* %19 to void (%"class.site_engagement::SiteEngagementService::Helper::PeriodicTracker"*)**
  %21 = load void (%"class.site_engagement::SiteEngagementService::Helper::PeriodicTracker"*)*, void (%"class.site_engagement::SiteEngagementService::Helper::PeriodicTracker"*)** %20, align 8
  br label %24

22:                                               ; preds = %1
  %23 = inttoptr i64 %7 to void (%"class.site_engagement::SiteEngagementService::Helper::PeriodicTracker"*)*
  br label %24

24:                                               ; preds = %15, %22
  %25 = phi void (%"class.site_engagement::SiteEngagementService::Helper::PeriodicTracker"*)* [ %21, %15 ], [ %23, %22 ]
  tail call void %25(%"class.site_engagement::SiteEngagementService::Helper::PeriodicTracker"* %12) #9
  ret void
}

; Function Attrs: nounwind ssp uwtable
define linkonce_odr hidden void @_ZN4base8internal9BindStateIMN15site_engagement21SiteEngagementService6Helper15PeriodicTrackerEFvvEJNS0_17UnretainedWrapperIS5_EEEE7DestroyEPKNS0_13BindStateBaseE(%"class.base::internal::BindStateBase"*) #1 comdat align 2 {
  %2 = icmp eq %"class.base::internal::BindStateBase"* %0, null
  br i1 %2, label %5, label %3

3:                                                ; preds = %1
  %4 = bitcast %"class.base::internal::BindStateBase"* %0 to i8*
  tail call void @_ZdlPv(i8* %4) #10
  br label %5

5:                                                ; preds = %3, %1
  ret void
}

declare void @_ZN4base8internal13BindStateBaseC2EPFvvEPFvPKS1_E(%"class.base::internal::BindStateBase"*, void ()*, void (%"class.base::internal::BindStateBase"*)*) unnamed_addr #2

; Function Attrs: argmemonly nounwind
declare void @llvm.memset.p0i8.i64(i8* nocapture writeonly, i8, i64, i1 immarg) #6

; Function Attrs: noreturn
declare void @_ZNKSt3__120__vector_base_commonILb1EE20__throw_length_errorEv(%"class.std::__1::__vector_base_common"*) local_unnamed_addr #8

declare zeroext i1 @_ZNK7content13MediaPlayerIdeqERKS0_(%"struct.content::MediaPlayerId"*, %"struct.content::MediaPlayerId"* dereferenceable(12)) local_unnamed_addr #2

attributes #0 = { nofree norecurse nounwind ssp uwtable writeonly "correctly-rounded-divide-sqrt-fp-math"="false" "disable-tail-calls"="false" "less-precise-fpmad"="false" "min-legal-vector-width"="0" "no-frame-pointer-elim"="false" "no-frame-pointer-elim-non-leaf" "no-infs-fp-math"="false" "no-jump-tables"="false" "no-nans-fp-math"="false" "no-signed-zeros-fp-math"="false" "no-trapping-math"="false" "null-pointer-is-valid"="true" "stack-protector-buffer-size"="4" "target-cpu"="x86-64" "target-features"="+cx8,+fxsr,+mmx,+sse,+sse2,+sse3,+x87" "unsafe-fp-math"="false" "use-soft-float"="false" }
attributes #1 = { nounwind ssp uwtable "correctly-rounded-divide-sqrt-fp-math"="false" "disable-tail-calls"="false" "less-precise-fpmad"="false" "min-legal-vector-width"="0" "no-frame-pointer-elim"="false" "no-frame-pointer-elim-non-leaf" "no-infs-fp-math"="false" "no-jump-tables"="false" "no-nans-fp-math"="false" "no-signed-zeros-fp-math"="false" "no-trapping-math"="false" "null-pointer-is-valid"="true" "stack-protector-buffer-size"="4" "target-cpu"="x86-64" "target-features"="+cx8,+fxsr,+mmx,+sse,+sse2,+sse3,+x87" "unsafe-fp-math"="false" "use-soft-float"="false" }
attributes #2 = { "correctly-rounded-divide-sqrt-fp-math"="false" "disable-tail-calls"="false" "less-precise-fpmad"="false" "no-frame-pointer-elim"="false" "no-frame-pointer-elim-non-leaf" "no-infs-fp-math"="false" "no-nans-fp-math"="false" "no-signed-zeros-fp-math"="false" "no-trapping-math"="false" "null-pointer-is-valid"="true" "stack-protector-buffer-size"="4" "target-cpu"="x86-64" "target-features"="+cx8,+fxsr,+mmx,+sse,+sse2,+sse3,+x87" "unsafe-fp-math"="false" "use-soft-float"="false" }
attributes #3 = { inlinehint nounwind ssp uwtable "correctly-rounded-divide-sqrt-fp-math"="false" "disable-tail-calls"="false" "less-precise-fpmad"="false" "min-legal-vector-width"="0" "no-frame-pointer-elim"="false" "no-frame-pointer-elim-non-leaf" "no-infs-fp-math"="false" "no-jump-tables"="false" "no-nans-fp-math"="false" "no-signed-zeros-fp-math"="false" "no-trapping-math"="false" "null-pointer-is-valid"="true" "stack-protector-buffer-size"="4" "target-cpu"="x86-64" "target-features"="+cx8,+fxsr,+mmx,+sse,+sse2,+sse3,+x87" "unsafe-fp-math"="false" "use-soft-float"="false" }
attributes #4 = { nounwind "correctly-rounded-divide-sqrt-fp-math"="false" "disable-tail-calls"="false" "less-precise-fpmad"="false" "no-frame-pointer-elim"="false" "no-frame-pointer-elim-non-leaf" "no-infs-fp-math"="false" "no-nans-fp-math"="false" "no-signed-zeros-fp-math"="false" "no-trapping-math"="false" "null-pointer-is-valid"="true" "stack-protector-buffer-size"="4" "target-cpu"="x86-64" "target-features"="+cx8,+fxsr,+mmx,+sse,+sse2,+sse3,+x87" "unsafe-fp-math"="false" "use-soft-float"="false" }
attributes #5 = { nobuiltin nounwind "correctly-rounded-divide-sqrt-fp-math"="false" "disable-tail-calls"="false" "less-precise-fpmad"="false" "no-frame-pointer-elim"="false" "no-frame-pointer-elim-non-leaf" "no-infs-fp-math"="false" "no-nans-fp-math"="false" "no-signed-zeros-fp-math"="false" "no-trapping-math"="false" "null-pointer-is-valid"="true" "stack-protector-buffer-size"="4" "target-cpu"="x86-64" "target-features"="+cx8,+fxsr,+mmx,+sse,+sse2,+sse3,+x87" "unsafe-fp-math"="false" "use-soft-float"="false" }
attributes #6 = { argmemonly nounwind }
attributes #7 = { nobuiltin nofree "correctly-rounded-divide-sqrt-fp-math"="false" "disable-tail-calls"="false" "less-precise-fpmad"="false" "no-frame-pointer-elim"="false" "no-frame-pointer-elim-non-leaf" "no-infs-fp-math"="false" "no-nans-fp-math"="false" "no-signed-zeros-fp-math"="false" "no-trapping-math"="false" "null-pointer-is-valid"="true" "stack-protector-buffer-size"="4" "target-cpu"="x86-64" "target-features"="+cx8,+fxsr,+mmx,+sse,+sse2,+sse3,+x87" "unsafe-fp-math"="false" "use-soft-float"="false" }
attributes #8 = { noreturn "correctly-rounded-divide-sqrt-fp-math"="false" "disable-tail-calls"="false" "less-precise-fpmad"="false" "no-frame-pointer-elim"="false" "no-frame-pointer-elim-non-leaf" "no-infs-fp-math"="false" "no-nans-fp-math"="false" "no-signed-zeros-fp-math"="false" "no-trapping-math"="false" "null-pointer-is-valid"="true" "stack-protector-buffer-size"="4" "target-cpu"="x86-64" "target-features"="+cx8,+fxsr,+mmx,+sse,+sse2,+sse3,+x87" "unsafe-fp-math"="false" "use-soft-float"="false" }
attributes #9 = { nounwind }
attributes #10 = { builtin nounwind }
attributes #11 = { noreturn nounwind }

!llvm.module.flags = !{!0, !1}

!0 = !{i32 1, !"wchar_size", i32 4}
!1 = !{i32 7, !"PIC Level", i32 2}
!2 = !{!3, !5}
!3 = distinct !{!3, !4, !"_ZN4base8internal8BindImplINS_12OnceCallbackEMN15site_engagement21SiteEngagementService6Helper15PeriodicTrackerEFvvEJNS0_17UnretainedWrapperIS6_EEEEEDcOT0_DpOT1_: argument 0"}
!4 = distinct !{!4, !"_ZN4base8internal8BindImplINS_12OnceCallbackEMN15site_engagement21SiteEngagementService6Helper15PeriodicTrackerEFvvEJNS0_17UnretainedWrapperIS6_EEEEEDcOT0_DpOT1_"}
!5 = distinct !{!5, !6, !"_ZN4base8BindOnceIMN15site_engagement21SiteEngagementService6Helper15PeriodicTrackerEFvvEJNS_8internal17UnretainedWrapperIS4_EEEEENS_12OnceCallbackINS7_14BindTypeHelperIT_JDpT0_EE14UnboundRunTypeEEEOSC_DpOSD_: argument 0"}
!6 = distinct !{!6, !"_ZN4base8BindOnceIMN15site_engagement21SiteEngagementService6Helper15PeriodicTrackerEFvvEJNS_8internal17UnretainedWrapperIS4_EEEEENS_12OnceCallbackINS7_14BindTypeHelperIT_JDpT0_EE14UnboundRunTypeEEEOSC_DpOSD_"}
!7 = !{!8, !10}
!8 = distinct !{!8, !9, !"_ZN4base8internal8BindImplINS_12OnceCallbackEMN15site_engagement21SiteEngagementService6Helper15PeriodicTrackerEFvvEJNS0_17UnretainedWrapperIS6_EEEEEDcOT0_DpOT1_: argument 0"}
!9 = distinct !{!9, !"_ZN4base8internal8BindImplINS_12OnceCallbackEMN15site_engagement21SiteEngagementService6Helper15PeriodicTrackerEFvvEJNS0_17UnretainedWrapperIS6_EEEEEDcOT0_DpOT1_"}
!10 = distinct !{!10, !11, !"_ZN4base8BindOnceIMN15site_engagement21SiteEngagementService6Helper15PeriodicTrackerEFvvEJNS_8internal17UnretainedWrapperIS4_EEEEENS_12OnceCallbackINS7_14BindTypeHelperIT_JDpT0_EE14UnboundRunTypeEEEOSC_DpOSD_: argument 0"}
!11 = distinct !{!11, !"_ZN4base8BindOnceIMN15site_engagement21SiteEngagementService6Helper15PeriodicTrackerEFvvEJNS_8internal17UnretainedWrapperIS4_EEEEENS_12OnceCallbackINS7_14BindTypeHelperIT_JDpT0_EE14UnboundRunTypeEEEOSC_DpOSD_"}
!12 = !{!13, !15}
!13 = distinct !{!13, !14, !"_ZN4base8internal8BindImplINS_12OnceCallbackEMN15site_engagement21SiteEngagementService6Helper15PeriodicTrackerEFvvEJNS0_17UnretainedWrapperIS6_EEEEEDcOT0_DpOT1_: argument 0"}
!14 = distinct !{!14, !"_ZN4base8internal8BindImplINS_12OnceCallbackEMN15site_engagement21SiteEngagementService6Helper15PeriodicTrackerEFvvEJNS0_17UnretainedWrapperIS6_EEEEEDcOT0_DpOT1_"}
!15 = distinct !{!15, !16, !"_ZN4base8BindOnceIMN15site_engagement21SiteEngagementService6Helper15PeriodicTrackerEFvvEJNS_8internal17UnretainedWrapperIS4_EEEEENS_12OnceCallbackINS7_14BindTypeHelperIT_JDpT0_EE14UnboundRunTypeEEEOSC_DpOSD_: argument 0"}
!16 = distinct !{!16, !"_ZN4base8BindOnceIMN15site_engagement21SiteEngagementService6Helper15PeriodicTrackerEFvvEJNS_8internal17UnretainedWrapperIS4_EEEEENS_12OnceCallbackINS7_14BindTypeHelperIT_JDpT0_EE14UnboundRunTypeEEEOSC_DpOSD_"}
!17 = !{i8 0, i8 2}
!18 = !{!19, !21}
!19 = distinct !{!19, !20, !"_ZN4base8internal8BindImplINS_12OnceCallbackEMN15site_engagement21SiteEngagementService6Helper15PeriodicTrackerEFvvEJNS0_17UnretainedWrapperIS6_EEEEEDcOT0_DpOT1_: argument 0"}
!20 = distinct !{!20, !"_ZN4base8internal8BindImplINS_12OnceCallbackEMN15site_engagement21SiteEngagementService6Helper15PeriodicTrackerEFvvEJNS0_17UnretainedWrapperIS6_EEEEEDcOT0_DpOT1_"}
!21 = distinct !{!21, !22, !"_ZN4base8BindOnceIMN15site_engagement21SiteEngagementService6Helper15PeriodicTrackerEFvvEJNS_8internal17UnretainedWrapperIS4_EEEEENS_12OnceCallbackINS7_14BindTypeHelperIT_JDpT0_EE14UnboundRunTypeEEEOSC_DpOSD_: argument 0"}
!22 = distinct !{!22, !"_ZN4base8BindOnceIMN15site_engagement21SiteEngagementService6Helper15PeriodicTrackerEFvvEJNS_8internal17UnretainedWrapperIS4_EEEEENS_12OnceCallbackINS7_14BindTypeHelperIT_JDpT0_EE14UnboundRunTypeEEEOSC_DpOSD_"}
!23 = !{!"branch_weights", i32 2000, i32 1}
!24 = !{!25, !27}
!25 = distinct !{!25, !26, !"_ZN4base8internal8BindImplINS_12OnceCallbackEMN15site_engagement21SiteEngagementService6Helper15PeriodicTrackerEFvvEJNS0_17UnretainedWrapperIS6_EEEEEDcOT0_DpOT1_: argument 0"}
!26 = distinct !{!26, !"_ZN4base8internal8BindImplINS_12OnceCallbackEMN15site_engagement21SiteEngagementService6Helper15PeriodicTrackerEFvvEJNS0_17UnretainedWrapperIS6_EEEEEDcOT0_DpOT1_"}
!27 = distinct !{!27, !28, !"_ZN4base8BindOnceIMN15site_engagement21SiteEngagementService6Helper15PeriodicTrackerEFvvEJNS_8internal17UnretainedWrapperIS4_EEEEENS_12OnceCallbackINS7_14BindTypeHelperIT_JDpT0_EE14UnboundRunTypeEEEOSC_DpOSD_: argument 0"}
!28 = distinct !{!28, !"_ZN4base8BindOnceIMN15site_engagement21SiteEngagementService6Helper15PeriodicTrackerEFvvEJNS_8internal17UnretainedWrapperIS4_EEEEENS_12OnceCallbackINS7_14BindTypeHelperIT_JDpT0_EE14UnboundRunTypeEEEOSC_DpOSD_"}
!29 = !{!30, !32}
!30 = distinct !{!30, !31, !"_ZN4base8internal8BindImplINS_12OnceCallbackEMN15site_engagement21SiteEngagementService6Helper15PeriodicTrackerEFvvEJNS0_17UnretainedWrapperIS6_EEEEEDcOT0_DpOT1_: argument 0"}
!31 = distinct !{!31, !"_ZN4base8internal8BindImplINS_12OnceCallbackEMN15site_engagement21SiteEngagementService6Helper15PeriodicTrackerEFvvEJNS0_17UnretainedWrapperIS6_EEEEEDcOT0_DpOT1_"}
!32 = distinct !{!32, !33, !"_ZN4base8BindOnceIMN15site_engagement21SiteEngagementService6Helper15PeriodicTrackerEFvvEJNS_8internal17UnretainedWrapperIS4_EEEEENS_12OnceCallbackINS7_14BindTypeHelperIT_JDpT0_EE14UnboundRunTypeEEEOSC_DpOSD_: argument 0"}
!33 = distinct !{!33, !"_ZN4base8BindOnceIMN15site_engagement21SiteEngagementService6Helper15PeriodicTrackerEFvvEJNS_8internal17UnretainedWrapperIS4_EEEEENS_12OnceCallbackINS7_14BindTypeHelperIT_JDpT0_EE14UnboundRunTypeEEEOSC_DpOSD_"}
!34 = !{!35, !37}
!35 = distinct !{!35, !36, !"_ZN4base8internal8BindImplINS_12OnceCallbackEMN15site_engagement21SiteEngagementService6Helper15PeriodicTrackerEFvvEJNS0_17UnretainedWrapperIS6_EEEEEDcOT0_DpOT1_: argument 0"}
!36 = distinct !{!36, !"_ZN4base8internal8BindImplINS_12OnceCallbackEMN15site_engagement21SiteEngagementService6Helper15PeriodicTrackerEFvvEJNS0_17UnretainedWrapperIS6_EEEEEDcOT0_DpOT1_"}
!37 = distinct !{!37, !38, !"_ZN4base8BindOnceIMN15site_engagement21SiteEngagementService6Helper15PeriodicTrackerEFvvEJNS_8internal17UnretainedWrapperIS4_EEEEENS_12OnceCallbackINS7_14BindTypeHelperIT_JDpT0_EE14UnboundRunTypeEEEOSC_DpOSD_: argument 0"}
!38 = distinct !{!38, !"_ZN4base8BindOnceIMN15site_engagement21SiteEngagementService6Helper15PeriodicTrackerEFvvEJNS_8internal17UnretainedWrapperIS4_EEEEENS_12OnceCallbackINS7_14BindTypeHelperIT_JDpT0_EE14UnboundRunTypeEEEOSC_DpOSD_"}
!39 = !{!40, !42}
!40 = distinct !{!40, !41, !"_ZN4base8internal8BindImplINS_12OnceCallbackEMN15site_engagement21SiteEngagementService6Helper15PeriodicTrackerEFvvEJNS0_17UnretainedWrapperIS6_EEEEEDcOT0_DpOT1_: argument 0"}
!41 = distinct !{!41, !"_ZN4base8internal8BindImplINS_12OnceCallbackEMN15site_engagement21SiteEngagementService6Helper15PeriodicTrackerEFvvEJNS0_17UnretainedWrapperIS6_EEEEEDcOT0_DpOT1_"}
!42 = distinct !{!42, !43, !"_ZN4base8BindOnceIMN15site_engagement21SiteEngagementService6Helper15PeriodicTrackerEFvvEJNS_8internal17UnretainedWrapperIS4_EEEEENS_12OnceCallbackINS7_14BindTypeHelperIT_JDpT0_EE14UnboundRunTypeEEEOSC_DpOSD_: argument 0"}
!43 = distinct !{!43, !"_ZN4base8BindOnceIMN15site_engagement21SiteEngagementService6Helper15PeriodicTrackerEFvvEJNS_8internal17UnretainedWrapperIS4_EEEEENS_12OnceCallbackINS7_14BindTypeHelperIT_JDpT0_EE14UnboundRunTypeEEEOSC_DpOSD_"}
