; ModuleID = '../../third_party/skia/src/pdf/SkPDFGraphicState.cpp'
source_filename = "../../third_party/skia/src/pdf/SkPDFGraphicState.cpp"
target datalayout = "e-m:e-i64:64-f80:128-n8:16:32:64-S128"
target triple = "x86_64-unknown-linux-gnu"

module asm ".symver exp, exp@GLIBC_2.2.5"
module asm ".symver exp2, exp2@GLIBC_2.2.5"
module asm ".symver exp2f, exp2f@GLIBC_2.2.5"
module asm ".symver expf, expf@GLIBC_2.2.5"
module asm ".symver lgamma, lgamma@GLIBC_2.2.5"
module asm ".symver lgammaf, lgammaf@GLIBC_2.2.5"
module asm ".symver lgammal, lgammal@GLIBC_2.2.5"
module asm ".symver log, log@GLIBC_2.2.5"
module asm ".symver log2, log2@GLIBC_2.2.5"
module asm ".symver log2f, log2f@GLIBC_2.2.5"
module asm ".symver logf, logf@GLIBC_2.2.5"
module asm ".symver pow, pow@GLIBC_2.2.5"
module asm ".symver powf, powf@GLIBC_2.2.5"

%class.SkPDFDocument = type { %class.SkDocument.base, %class.SkTHashMap, %class.SkTHashMap.2, %class.SkTHashMap.11, %class.SkTHashMap.20, %class.SkTHashMap.29, %class.SkTHashMap.38, %class.SkTHashMap.47, %class.SkTHashMap.47, %class.SkTHashMap.56, %class.SkTHashMap.65, %class.SkTHashMap.74, %struct.SkPDFIndirectReference, %struct.SkPDFIndirectReference, %"class.std::__1::vector", %"class.std::__1::vector.87", %class.SkPDFOffsetMap, %class.SkCanvas, %"class.std::__1::vector.122", %"class.std::__1::vector.142", %class.sk_sp.149, %"struct.std::__1::atomic", %"struct.std::__1::atomic", %struct.SkUUID, %struct.SkPDFIndirectReference, %struct.SkPDFIndirectReference, %"struct.SkPDF::Metadata", float, float, %class.SkExecutor*, %class.SkPDFTagTree, %class.SkMutex, %class.SkSemaphore }
%class.SkDocument.base = type <{ %class.SkRefCnt.base, [4 x i8], %class.SkWStream*, i32 }>
%class.SkRefCnt.base = type { %class.SkRefCntBase.base }
%class.SkRefCntBase.base = type <{ i32 (...)**, %"struct.std::__1::atomic" }>
%class.SkWStream = type { i32 (...)** }
%class.SkTHashMap = type { %class.SkTHashTable }
%class.SkTHashTable = type { i32, i32, %class.SkAutoTArray }
%class.SkAutoTArray = type { %"class.std::__1::unique_ptr" }
%"class.std::__1::unique_ptr" = type { %"class.std::__1::__compressed_pair" }
%"class.std::__1::__compressed_pair" = type { %"struct.std::__1::__compressed_pair_elem" }
%"struct.std::__1::__compressed_pair_elem" = type { %"struct.SkTHashTable<SkTHashMap<SkPDFImageShaderKey, SkPDFIndirectReference, SkGoodHash>::Pair, SkPDFImageShaderKey, SkTHashMap<SkPDFImageShaderKey, SkPDFIndirectReference, SkGoodHash>::Pair>::Slot"* }
%"struct.SkTHashTable<SkTHashMap<SkPDFImageShaderKey, SkPDFIndirectReference, SkGoodHash>::Pair, SkPDFImageShaderKey, SkTHashMap<SkPDFImageShaderKey, SkPDFIndirectReference, SkGoodHash>::Pair>::Slot" = type opaque
%class.SkTHashMap.2 = type { %class.SkTHashTable.3 }
%class.SkTHashTable.3 = type { i32, i32, %class.SkAutoTArray.4 }
%class.SkAutoTArray.4 = type { %"class.std::__1::unique_ptr.5" }
%"class.std::__1::unique_ptr.5" = type { %"class.std::__1::__compressed_pair.6" }
%"class.std::__1::__compressed_pair.6" = type { %"struct.std::__1::__compressed_pair_elem.7" }
%"struct.std::__1::__compressed_pair_elem.7" = type { %"struct.SkTHashTable<SkTHashMap<SkPDFGradientShader::Key, SkPDFIndirectReference, SkPDFGradientShader::KeyHash>::Pair, SkPDFGradientShader::Key, SkTHashMap<SkPDFGradientShader::Key, SkPDFIndirectReference, SkPDFGradientShader::KeyHash>::Pair>::Slot"* }
%"struct.SkTHashTable<SkTHashMap<SkPDFGradientShader::Key, SkPDFIndirectReference, SkPDFGradientShader::KeyHash>::Pair, SkPDFGradientShader::Key, SkTHashMap<SkPDFGradientShader::Key, SkPDFIndirectReference, SkPDFGradientShader::KeyHash>::Pair>::Slot" = type opaque
%class.SkTHashMap.11 = type { %class.SkTHashTable.12 }
%class.SkTHashTable.12 = type { i32, i32, %class.SkAutoTArray.13 }
%class.SkAutoTArray.13 = type { %"class.std::__1::unique_ptr.14" }
%"class.std::__1::unique_ptr.14" = type { %"class.std::__1::__compressed_pair.15" }
%"class.std::__1::__compressed_pair.15" = type { %"struct.std::__1::__compressed_pair_elem.16" }
%"struct.std::__1::__compressed_pair_elem.16" = type { %"struct.SkTHashTable<SkTHashMap<SkBitmapKey, SkPDFIndirectReference, SkGoodHash>::Pair, SkBitmapKey, SkTHashMap<SkBitmapKey, SkPDFIndirectReference, SkGoodHash>::Pair>::Slot"* }
%"struct.SkTHashTable<SkTHashMap<SkBitmapKey, SkPDFIndirectReference, SkGoodHash>::Pair, SkBitmapKey, SkTHashMap<SkBitmapKey, SkPDFIndirectReference, SkGoodHash>::Pair>::Slot" = type opaque
%class.SkTHashMap.20 = type { %class.SkTHashTable.21 }
%class.SkTHashTable.21 = type { i32, i32, %class.SkAutoTArray.22 }
%class.SkAutoTArray.22 = type { %"class.std::__1::unique_ptr.23" }
%"class.std::__1::unique_ptr.23" = type { %"class.std::__1::__compressed_pair.24" }
%"class.std::__1::__compressed_pair.24" = type { %"struct.std::__1::__compressed_pair_elem.25" }
%"struct.std::__1::__compressed_pair_elem.25" = type { %"struct.SkTHashTable<SkTHashMap<unsigned int, std::__1::unique_ptr<SkAdvancedTypefaceMetrics, std::__1::default_delete<SkAdvancedTypefaceMetrics> >, SkGoodHash>::Pair, unsigned int, SkTHashMap<unsigned int, std::__1::unique_ptr<SkAdvancedTypefaceMetrics, std::__1::default_delete<SkAdvancedTypefaceMetrics> >, SkGoodHash>::Pair>::Slot"* }
%"struct.SkTHashTable<SkTHashMap<unsigned int, std::__1::unique_ptr<SkAdvancedTypefaceMetrics, std::__1::default_delete<SkAdvancedTypefaceMetrics> >, SkGoodHash>::Pair, unsigned int, SkTHashMap<unsigned int, std::__1::unique_ptr<SkAdvancedTypefaceMetrics, std::__1::default_delete<SkAdvancedTypefaceMetrics> >, SkGoodHash>::Pair>::Slot" = type opaque
%class.SkTHashMap.29 = type { %class.SkTHashTable.30 }
%class.SkTHashTable.30 = type { i32, i32, %class.SkAutoTArray.31 }
%class.SkAutoTArray.31 = type { %"class.std::__1::unique_ptr.32" }
%"class.std::__1::unique_ptr.32" = type { %"class.std::__1::__compressed_pair.33" }
%"class.std::__1::__compressed_pair.33" = type { %"struct.std::__1::__compressed_pair_elem.34" }
%"struct.std::__1::__compressed_pair_elem.34" = type { %"struct.SkTHashTable<SkTHashMap<unsigned int, std::__1::vector<SkString, std::__1::allocator<SkString> >, SkGoodHash>::Pair, unsigned int, SkTHashMap<unsigned int, std::__1::vector<SkString, std::__1::allocator<SkString> >, SkGoodHash>::Pair>::Slot"* }
%"struct.SkTHashTable<SkTHashMap<unsigned int, std::__1::vector<SkString, std::__1::allocator<SkString> >, SkGoodHash>::Pair, unsigned int, SkTHashMap<unsigned int, std::__1::vector<SkString, std::__1::allocator<SkString> >, SkGoodHash>::Pair>::Slot" = type opaque
%class.SkTHashMap.38 = type { %class.SkTHashTable.39 }
%class.SkTHashTable.39 = type { i32, i32, %class.SkAutoTArray.40 }
%class.SkAutoTArray.40 = type { %"class.std::__1::unique_ptr.41" }
%"class.std::__1::unique_ptr.41" = type { %"class.std::__1::__compressed_pair.42" }
%"class.std::__1::__compressed_pair.42" = type { %"struct.std::__1::__compressed_pair_elem.43" }
%"struct.std::__1::__compressed_pair_elem.43" = type { %"struct.SkTHashTable<SkTHashMap<unsigned int, std::__1::vector<int, std::__1::allocator<int> >, SkGoodHash>::Pair, unsigned int, SkTHashMap<unsigned int, std::__1::vector<int, std::__1::allocator<int> >, SkGoodHash>::Pair>::Slot"* }
%"struct.SkTHashTable<SkTHashMap<unsigned int, std::__1::vector<int, std::__1::allocator<int> >, SkGoodHash>::Pair, unsigned int, SkTHashMap<unsigned int, std::__1::vector<int, std::__1::allocator<int> >, SkGoodHash>::Pair>::Slot" = type opaque
%class.SkTHashMap.47 = type { %class.SkTHashTable.48 }
%class.SkTHashTable.48 = type { i32, i32, %class.SkAutoTArray.49 }
%class.SkAutoTArray.49 = type { %"class.std::__1::unique_ptr.50" }
%"class.std::__1::unique_ptr.50" = type { %"class.std::__1::__compressed_pair.51" }
%"class.std::__1::__compressed_pair.51" = type { %"struct.std::__1::__compressed_pair_elem.52" }
%"struct.std::__1::__compressed_pair_elem.52" = type { %"struct.SkTHashTable<SkTHashMap<unsigned int, SkPDFIndirectReference, SkGoodHash>::Pair, unsigned int, SkTHashMap<unsigned int, SkPDFIndirectReference, SkGoodHash>::Pair>::Slot"* }
%"struct.SkTHashTable<SkTHashMap<unsigned int, SkPDFIndirectReference, SkGoodHash>::Pair, unsigned int, SkTHashMap<unsigned int, SkPDFIndirectReference, SkGoodHash>::Pair>::Slot" = type opaque
%class.SkTHashMap.56 = type { %class.SkTHashTable.57 }
%class.SkTHashTable.57 = type { i32, i32, %class.SkAutoTArray.58 }
%class.SkAutoTArray.58 = type { %"class.std::__1::unique_ptr.59" }
%"class.std::__1::unique_ptr.59" = type { %"class.std::__1::__compressed_pair.60" }
%"class.std::__1::__compressed_pair.60" = type { %"struct.std::__1::__compressed_pair_elem.61" }
%"struct.std::__1::__compressed_pair_elem.61" = type { %"struct.SkTHashTable<SkTHashMap<unsigned long, SkPDFFont, SkGoodHash>::Pair, unsigned long, SkTHashMap<unsigned long, SkPDFFont, SkGoodHash>::Pair>::Slot"* }
%"struct.SkTHashTable<SkTHashMap<unsigned long, SkPDFFont, SkGoodHash>::Pair, unsigned long, SkTHashMap<unsigned long, SkPDFFont, SkGoodHash>::Pair>::Slot" = type opaque
%class.SkTHashMap.65 = type { %class.SkTHashTable.66 }
%class.SkTHashTable.66 = type { i32, i32, %class.SkAutoTArray.67 }
%class.SkAutoTArray.67 = type { %"class.std::__1::unique_ptr.68" }
%"class.std::__1::unique_ptr.68" = type { %"class.std::__1::__compressed_pair.69" }
%"class.std::__1::__compressed_pair.69" = type { %"struct.std::__1::__compressed_pair_elem.70" }
%"struct.std::__1::__compressed_pair_elem.70" = type { %"struct.SkTHashTable<SkTHashMap<SkPDFStrokeGraphicState, SkPDFIndirectReference, SkGoodHash>::Pair, SkPDFStrokeGraphicState, SkTHashMap<SkPDFStrokeGraphicState, SkPDFIndirectReference, SkGoodHash>::Pair>::Slot"* }
%"struct.SkTHashTable<SkTHashMap<SkPDFStrokeGraphicState, SkPDFIndirectReference, SkGoodHash>::Pair, SkPDFStrokeGraphicState, SkTHashMap<SkPDFStrokeGraphicState, SkPDFIndirectReference, SkGoodHash>::Pair>::Slot" = type { %"struct.SkTHashMap<SkPDFStrokeGraphicState, SkPDFIndirectReference, SkGoodHash>::Pair", i32 }
%"struct.SkTHashMap<SkPDFStrokeGraphicState, SkPDFIndirectReference, SkGoodHash>::Pair" = type { %"struct.std::__1::pair.209" }
%"struct.std::__1::pair.209" = type { %struct.SkPDFStrokeGraphicState, %struct.SkPDFIndirectReference }
%struct.SkPDFStrokeGraphicState = type { float, float, float, i8, i8, i8, i8 }
%class.SkTHashMap.74 = type { %class.SkTHashTable.75 }
%class.SkTHashTable.75 = type { i32, i32, %class.SkAutoTArray.76 }
%class.SkAutoTArray.76 = type { %"class.std::__1::unique_ptr.77" }
%"class.std::__1::unique_ptr.77" = type { %"class.std::__1::__compressed_pair.78" }
%"class.std::__1::__compressed_pair.78" = type { %"struct.std::__1::__compressed_pair_elem.79" }
%"struct.std::__1::__compressed_pair_elem.79" = type { %"struct.SkTHashTable<SkTHashMap<SkPDFFillGraphicState, SkPDFIndirectReference, SkGoodHash>::Pair, SkPDFFillGraphicState, SkTHashMap<SkPDFFillGraphicState, SkPDFIndirectReference, SkGoodHash>::Pair>::Slot"* }
%"struct.SkTHashTable<SkTHashMap<SkPDFFillGraphicState, SkPDFIndirectReference, SkGoodHash>::Pair, SkPDFFillGraphicState, SkTHashMap<SkPDFFillGraphicState, SkPDFIndirectReference, SkGoodHash>::Pair>::Slot" = type { %"struct.SkTHashMap<SkPDFFillGraphicState, SkPDFIndirectReference, SkGoodHash>::Pair", i32 }
%"struct.SkTHashMap<SkPDFFillGraphicState, SkPDFIndirectReference, SkGoodHash>::Pair" = type { %"struct.std::__1::pair.208" }
%"struct.std::__1::pair.208" = type { %struct.SkPDFFillGraphicState, %struct.SkPDFIndirectReference }
%struct.SkPDFFillGraphicState = type { float, i8, [3 x i8] }
%"class.std::__1::vector" = type { %"class.std::__1::__vector_base" }
%"class.std::__1::__vector_base" = type { %"class.std::__1::unique_ptr.83"*, %"class.std::__1::unique_ptr.83"*, %"class.std::__1::__compressed_pair.84" }
%"class.std::__1::unique_ptr.83" = type opaque
%"class.std::__1::__compressed_pair.84" = type { %"struct.std::__1::__compressed_pair_elem.85" }
%"struct.std::__1::__compressed_pair_elem.85" = type { %"class.std::__1::unique_ptr.83"* }
%"class.std::__1::vector.87" = type { %"class.std::__1::__vector_base.88" }
%"class.std::__1::__vector_base.88" = type { %struct.SkPDFNamedDestination*, %struct.SkPDFNamedDestination*, %"class.std::__1::__compressed_pair.89" }
%struct.SkPDFNamedDestination = type <{ %class.sk_sp, %struct.SkPoint, %struct.SkPDFIndirectReference, [4 x i8] }>
%class.sk_sp = type { %class.SkData* }
%class.SkData = type { %class.SkNVRefCnt, void (i8*, i8*)*, i8*, i8*, i64 }
%class.SkNVRefCnt = type { %"struct.std::__1::atomic" }
%struct.SkPoint = type { float, float }
%"class.std::__1::__compressed_pair.89" = type { %"struct.std::__1::__compressed_pair_elem.90" }
%"struct.std::__1::__compressed_pair_elem.90" = type { %struct.SkPDFNamedDestination* }
%class.SkPDFOffsetMap = type { %"class.std::__1::vector.94", i64 }
%"class.std::__1::vector.94" = type { %"class.std::__1::__vector_base.95" }
%"class.std::__1::__vector_base.95" = type { i32*, i32*, %"class.std::__1::__compressed_pair.96" }
%"class.std::__1::__compressed_pair.96" = type { %"struct.std::__1::__compressed_pair_elem.97" }
%"struct.std::__1::__compressed_pair_elem.97" = type { i32* }
%class.SkCanvas = type { i32 (...)**, %class.SkDeque, %"class.SkCanvas::MCRec"*, %class.sk_sp.101, [384 x i64], %class.sk_sp.102, %class.SkSurfaceProps, i32, %"class.std::__1::unique_ptr.110", %class.SkSurface_Base*, %struct.SkIRect, %struct.SkRect, %"class.std::__1::unique_ptr.116" }
%class.SkDeque = type { i8*, i8*, %"struct.SkDeque::Block"*, %"struct.SkDeque::Block"*, i64, i8*, i32, i32 }
%"struct.SkDeque::Block" = type opaque
%"class.SkCanvas::MCRec" = type opaque
%class.sk_sp.101 = type { %class.SkMarkerStack* }
%class.SkMarkerStack = type opaque
%class.sk_sp.102 = type { %class.SkBaseDevice* }
%class.SkBaseDevice = type { %class.SkRefCnt.base, %class.SkMatrixProvider, %class.SkMarkerStack*, %struct.SkImageInfo, %class.SkSurfaceProps, %class.SkM44, %class.SkM44 }
%class.SkMatrixProvider = type { i32 (...)**, %class.SkM44, %class.SkMatrix }
%class.SkMatrix = type { [9 x float], i32 }
%struct.SkImageInfo = type { %class.SkColorInfo, %struct.SkISize }
%class.SkColorInfo = type { %class.sk_sp.103, i32, i32 }
%class.sk_sp.103 = type { %class.SkColorSpace* }
%class.SkColorSpace = type <{ %class.SkNVRefCnt.104, i32, i32, %struct.skcms_TransferFunction, %struct.skcms_Matrix3x3, %struct.skcms_TransferFunction, %struct.skcms_Matrix3x3, %class.SkOnce, [3 x i8] }>
%class.SkNVRefCnt.104 = type { %"struct.std::__1::atomic" }
%struct.skcms_TransferFunction = type { float, float, float, float, float, float, float }
%struct.skcms_Matrix3x3 = type { [3 x [3 x float]] }
%class.SkOnce = type { %"struct.std::__1::atomic.105" }
%"struct.std::__1::atomic.105" = type { %"struct.std::__1::__atomic_base.106" }
%"struct.std::__1::__atomic_base.106" = type { %"struct.std::__1::__atomic_base.107" }
%"struct.std::__1::__atomic_base.107" = type { %"struct.std::__1::__cxx_atomic_impl.108" }
%"struct.std::__1::__cxx_atomic_impl.108" = type { %"struct.std::__1::__cxx_atomic_base_impl.109" }
%"struct.std::__1::__cxx_atomic_base_impl.109" = type { i8 }
%struct.SkISize = type { i32, i32 }
%class.SkM44 = type { [16 x float] }
%class.SkSurfaceProps = type { i32, i32 }
%"class.std::__1::unique_ptr.110" = type { %"class.std::__1::__compressed_pair.111" }
%"class.std::__1::__compressed_pair.111" = type { %"struct.std::__1::__compressed_pair_elem.112" }
%"struct.std::__1::__compressed_pair_elem.112" = type { %class.SkRasterHandleAllocator* }
%class.SkRasterHandleAllocator = type { i32 (...)** }
%class.SkSurface_Base = type opaque
%struct.SkIRect = type { i32, i32, i32, i32 }
%struct.SkRect = type { float, float, float, float }
%"class.std::__1::unique_ptr.116" = type { %"class.std::__1::__compressed_pair.117" }
%"class.std::__1::__compressed_pair.117" = type { %"struct.std::__1::__compressed_pair_elem.118" }
%"struct.std::__1::__compressed_pair_elem.118" = type { %class.SkGlyphRunBuilder* }
%class.SkGlyphRunBuilder = type opaque
%"class.std::__1::vector.122" = type { %"class.std::__1::__vector_base.123" }
%"class.std::__1::__vector_base.123" = type { %"class.std::__1::unique_ptr.124"*, %"class.std::__1::unique_ptr.124"*, %"class.std::__1::__compressed_pair.137" }
%"class.std::__1::unique_ptr.124" = type { %"class.std::__1::__compressed_pair.125" }
%"class.std::__1::__compressed_pair.125" = type { %"struct.std::__1::__compressed_pair_elem.126" }
%"struct.std::__1::__compressed_pair_elem.126" = type { %class.SkPDFDict* }
%class.SkPDFDict = type { %class.SkPDFObject, %"class.std::__1::vector.127" }
%class.SkPDFObject = type { i32 (...)** }
%"class.std::__1::vector.127" = type { %"class.std::__1::__vector_base.128" }
%"class.std::__1::__vector_base.128" = type { %"struct.std::__1::pair"*, %"struct.std::__1::pair"*, %"class.std::__1::__compressed_pair.129" }
%"struct.std::__1::pair" = type opaque
%"class.std::__1::__compressed_pair.129" = type { %"struct.std::__1::__compressed_pair_elem.130" }
%"struct.std::__1::__compressed_pair_elem.130" = type { %"struct.std::__1::pair"* }
%"class.std::__1::__compressed_pair.137" = type { %"struct.std::__1::__compressed_pair_elem.138" }
%"struct.std::__1::__compressed_pair_elem.138" = type { %"class.std::__1::unique_ptr.124"* }
%"class.std::__1::vector.142" = type { %"class.std::__1::__vector_base.143" }
%"class.std::__1::__vector_base.143" = type { %struct.SkPDFIndirectReference*, %struct.SkPDFIndirectReference*, %"class.std::__1::__compressed_pair.144" }
%"class.std::__1::__compressed_pair.144" = type { %"struct.std::__1::__compressed_pair_elem.145" }
%"struct.std::__1::__compressed_pair_elem.145" = type { %struct.SkPDFIndirectReference* }
%class.sk_sp.149 = type { %class.SkPDFDevice* }
%class.SkPDFDevice = type { %class.SkClipStackDevice, %class.SkMatrix, %class.SkTHashSet, %class.SkTHashSet, %class.SkTHashSet, %class.SkTHashSet, i32, %class.SkDynamicMemoryWStream, %class.SkDynamicMemoryWStream, i8, %struct.SkPDFGraphicStackState, %class.SkPDFDocument* }
%class.SkClipStackDevice = type { %class.SkBaseDevice, [320 x i64], %class.SkClipStack }
%class.SkClipStack = type <{ %class.SkDeque, i32, %struct.SkRect, [4 x i8] }>
%class.SkTHashSet = type { %class.SkTHashTable.150 }
%class.SkTHashTable.150 = type { i32, i32, %class.SkAutoTArray.151 }
%class.SkAutoTArray.151 = type { %"class.std::__1::unique_ptr.152" }
%"class.std::__1::unique_ptr.152" = type { %"class.std::__1::__compressed_pair.153" }
%"class.std::__1::__compressed_pair.153" = type { %"struct.std::__1::__compressed_pair_elem.154" }
%"struct.std::__1::__compressed_pair_elem.154" = type { %"struct.SkTHashTable<SkPDFIndirectReference, SkPDFIndirectReference, SkTHashSet<SkPDFIndirectReference, SkGoodHash>::Traits>::Slot"* }
%"struct.SkTHashTable<SkPDFIndirectReference, SkPDFIndirectReference, SkTHashSet<SkPDFIndirectReference, SkGoodHash>::Traits>::Slot" = type opaque
%class.SkDynamicMemoryWStream = type { %class.SkWStream, %"struct.SkDynamicMemoryWStream::Block"*, %"struct.SkDynamicMemoryWStream::Block"*, i64 }
%"struct.SkDynamicMemoryWStream::Block" = type opaque
%struct.SkPDFGraphicStackState = type { [3 x %"struct.SkPDFGraphicStackState::Entry"], i32, %class.SkDynamicMemoryWStream* }
%"struct.SkPDFGraphicStackState::Entry" = type { %class.SkMatrix, i32, %struct.SkRGBA4f, float, i32, i32 }
%struct.SkRGBA4f = type { float, float, float, float }
%"struct.std::__1::atomic" = type { %"struct.std::__1::__atomic_base" }
%"struct.std::__1::__atomic_base" = type { %"struct.std::__1::__atomic_base.0" }
%"struct.std::__1::__atomic_base.0" = type { %"struct.std::__1::__cxx_atomic_impl" }
%"struct.std::__1::__cxx_atomic_impl" = type { %"struct.std::__1::__cxx_atomic_base_impl" }
%"struct.std::__1::__cxx_atomic_base_impl" = type { i32 }
%struct.SkUUID = type { [16 x i8] }
%struct.SkPDFIndirectReference = type { i32 }
%"struct.SkPDF::Metadata" = type <{ %class.SkString, %class.SkString, %class.SkString, %class.SkString, %class.SkString, %class.SkString, %"struct.SkTime::DateTime", %"struct.SkTime::DateTime", float, i8, [3 x i8], i32, %"struct.SkPDF::StructureElementNode"*, %class.SkExecutor*, i32, [4 x i8] }>
%class.SkString = type { %class.sk_sp.158 }
%class.sk_sp.158 = type { %"struct.SkString::Rec"* }
%"struct.SkString::Rec" = type <{ i32, %"struct.std::__1::atomic", i8, [3 x i8] }>
%"struct.SkTime::DateTime" = type { i16, i16, i8, i8, i8, i8, i8, i8 }
%"struct.SkPDF::StructureElementNode" = type <{ %class.SkString, %"class.std::__1::vector.159", i32, [4 x i8], %"class.std::__1::vector.94", %"class.SkPDF::AttributeList", %class.SkString, %class.SkString, i32, [4 x i8] }>
%"class.std::__1::vector.159" = type { %"class.std::__1::__vector_base.160" }
%"class.std::__1::__vector_base.160" = type { %"class.std::__1::unique_ptr.161"*, %"class.std::__1::unique_ptr.161"*, %"class.std::__1::__compressed_pair.162" }
%"class.std::__1::unique_ptr.161" = type opaque
%"class.std::__1::__compressed_pair.162" = type { %"struct.std::__1::__compressed_pair_elem.163" }
%"struct.std::__1::__compressed_pair_elem.163" = type { %"class.std::__1::unique_ptr.161"* }
%"class.SkPDF::AttributeList" = type { %"class.std::__1::unique_ptr.167" }
%"class.std::__1::unique_ptr.167" = type { %"class.std::__1::__compressed_pair.168" }
%"class.std::__1::__compressed_pair.168" = type { %"struct.std::__1::__compressed_pair_elem.169" }
%"struct.std::__1::__compressed_pair_elem.169" = type { %class.SkPDFArray* }
%class.SkPDFArray = type { %class.SkPDFObject, %"class.std::__1::vector.170" }
%"class.std::__1::vector.170" = type { %"class.std::__1::__vector_base.171" }
%"class.std::__1::__vector_base.171" = type { %class.SkPDFUnion*, %class.SkPDFUnion*, %"class.std::__1::__compressed_pair.172" }
%class.SkPDFUnion = type opaque
%"class.std::__1::__compressed_pair.172" = type { %"struct.std::__1::__compressed_pair_elem.173" }
%"struct.std::__1::__compressed_pair_elem.173" = type { %class.SkPDFUnion* }
%class.SkExecutor = type opaque
%class.SkPDFTagTree = type { %class.SkArenaAlloc, %class.SkTHashMap.180, %struct.SkPDFTagNode*, %class.SkTArray, %"class.std::__1::vector.190", %"class.std::__1::vector.94" }
%class.SkArenaAlloc = type <{ i8*, i8*, i8*, %class.SkFibBlockSizes, [4 x i8] }>
%class.SkFibBlockSizes = type { i32 }
%class.SkTHashMap.180 = type { %class.SkTHashTable.181 }
%class.SkTHashTable.181 = type { i32, i32, %class.SkAutoTArray.182 }
%class.SkAutoTArray.182 = type { %"class.std::__1::unique_ptr.183" }
%"class.std::__1::unique_ptr.183" = type { %"class.std::__1::__compressed_pair.184" }
%"class.std::__1::__compressed_pair.184" = type { %"struct.std::__1::__compressed_pair_elem.185" }
%"struct.std::__1::__compressed_pair_elem.185" = type { %"struct.SkTHashTable<SkTHashMap<int, SkPDFTagNode *, SkGoodHash>::Pair, int, SkTHashMap<int, SkPDFTagNode *, SkGoodHash>::Pair>::Slot"* }
%"struct.SkTHashTable<SkTHashMap<int, SkPDFTagNode *, SkGoodHash>::Pair, int, SkTHashMap<int, SkPDFTagNode *, SkGoodHash>::Pair>::Slot" = type opaque
%struct.SkPDFTagNode = type opaque
%class.SkTArray = type { %class.SkTArray.189*, i64 }
%class.SkTArray.189 = type opaque
%"class.std::__1::vector.190" = type { %"class.std::__1::__vector_base.191" }
%"class.std::__1::__vector_base.191" = type { %"struct.SkPDFTagTree::IDTreeEntry"*, %"struct.SkPDFTagTree::IDTreeEntry"*, %"class.std::__1::__compressed_pair.192" }
%"struct.SkPDFTagTree::IDTreeEntry" = type { i32, %struct.SkPDFIndirectReference }
%"class.std::__1::__compressed_pair.192" = type { %"struct.std::__1::__compressed_pair_elem.193" }
%"struct.std::__1::__compressed_pair_elem.193" = type { %"struct.SkPDFTagTree::IDTreeEntry"* }
%class.SkMutex = type { %class.SkSemaphore }
%class.SkSemaphore = type { %"struct.std::__1::atomic", %class.SkOnce, %"struct.SkSemaphore::OSSemaphore"* }
%"struct.SkSemaphore::OSSemaphore" = type opaque
%class.SkPaint = type <{ %class.sk_sp.197, %class.sk_sp.198, %class.sk_sp.199, %class.sk_sp.200, %class.sk_sp.201, %struct.SkRGBA4f, float, float, %union.anon, [4 x i8] }>
%class.sk_sp.197 = type { %class.SkPathEffect* }
%class.SkPathEffect = type { %class.SkFlattenable.base, [4 x i8] }
%class.SkFlattenable.base = type { %class.SkRefCnt.base }
%class.sk_sp.198 = type { %class.SkShader* }
%class.SkShader = type { %class.SkFlattenable.base, [4 x i8] }
%class.sk_sp.199 = type { %class.SkMaskFilter* }
%class.SkMaskFilter = type { %class.SkFlattenable.base, [4 x i8] }
%class.sk_sp.200 = type { %class.SkColorFilter* }
%class.SkColorFilter = type { %class.SkFlattenable.base, [4 x i8] }
%class.sk_sp.201 = type { %class.SkImageFilter* }
%class.SkImageFilter = type { %class.SkFlattenable.base, [4 x i8] }
%union.anon = type { %struct.anon }
%struct.anon = type { i32 }
%"class.std::__1::unique_ptr.202" = type { %"class.std::__1::__compressed_pair.203" }
%"class.std::__1::__compressed_pair.203" = type { %"struct.std::__1::__compressed_pair_elem.204" }
%"struct.std::__1::__compressed_pair_elem.204" = type { %class.SkPDFObject* }
%class.SkMemoryStream = type { %class.SkStreamMemory, %class.sk_sp, i64 }
%class.SkStreamMemory = type { %class.SkStreamAsset }
%class.SkStreamAsset = type { %class.SkStreamSeekable }
%class.SkStreamSeekable = type { %class.SkStreamRewindable }
%class.SkStreamRewindable = type { %class.SkStream }
%class.SkStream = type { i32 (...)** }

$_ZN12SkTHashTableIN10SkTHashMapI21SkPDFFillGraphicState22SkPDFIndirectReference10SkGoodHashE4PairES1_S5_E6resizeEi = comdat any

$_ZN12SkTHashTableIN10SkTHashMapI21SkPDFFillGraphicState22SkPDFIndirectReference10SkGoodHashE4PairES1_S5_E12uncheckedSetEOS5_ = comdat any

$_ZN12SkTHashTableIN10SkTHashMapI23SkPDFStrokeGraphicState22SkPDFIndirectReference10SkGoodHashE4PairES1_S5_E6resizeEi = comdat any

@.str = private unnamed_addr constant [3 x i8] c"ca\00", align 1
@.str.1 = private unnamed_addr constant [3 x i8] c"BM\00", align 1
@.str.2 = private unnamed_addr constant [3 x i8] c"CA\00", align 1
@.str.3 = private unnamed_addr constant [3 x i8] c"LC\00", align 1
@.str.4 = private unnamed_addr constant [3 x i8] c"LJ\00", align 1
@.str.5 = private unnamed_addr constant [3 x i8] c"LW\00", align 1
@.str.6 = private unnamed_addr constant [3 x i8] c"ML\00", align 1
@.str.7 = private unnamed_addr constant [3 x i8] c"SA\00", align 1
@.str.8 = private unnamed_addr constant [5 x i8] c"Mask\00", align 1
@.str.9 = private unnamed_addr constant [2 x i8] c"S\00", align 1
@.str.10 = private unnamed_addr constant [6 x i8] c"Alpha\00", align 1
@.str.11 = private unnamed_addr constant [11 x i8] c"Luminosity\00", align 1
@.str.12 = private unnamed_addr constant [2 x i8] c"G\00", align 1
@.str.13 = private unnamed_addr constant [3 x i8] c"TR\00", align 1
@.str.14 = private unnamed_addr constant [10 x i8] c"ExtGState\00", align 1
@.str.15 = private unnamed_addr constant [6 x i8] c"SMask\00", align 1
@_ZZL20make_invert_functionP13SkPDFDocumentE8psInvert = internal constant [13 x i8] c"{1 exch sub}\00", align 1
@.str.16 = private unnamed_addr constant [13 x i8] c"FunctionType\00", align 1
@.str.17 = private unnamed_addr constant [7 x i8] c"Domain\00", align 1
@.str.18 = private unnamed_addr constant [6 x i8] c"Range\00", align 1
@_ZN6SkOpts7hash_fnE = external local_unnamed_addr global i32 (i8*, i64, i32)*, align 8

; Function Attrs: nounwind ssp uwtable
define hidden i32 @_ZN17SkPDFGraphicState23GetGraphicStateForPaintEP13SkPDFDocumentRK7SkPaint(%class.SkPDFDocument*, %class.SkPaint* nocapture readonly dereferenceable(72)) local_unnamed_addr #0 {
  %3 = alloca %"struct.SkTHashMap<SkPDFFillGraphicState, SkPDFIndirectReference, SkGoodHash>::Pair", align 8
  %4 = alloca %"struct.SkTHashMap<SkPDFStrokeGraphicState, SkPDFIndirectReference, SkGoodHash>::Pair", align 16
  %5 = alloca i64, align 8
  %6 = alloca %class.SkPDFDict, align 8
  %7 = alloca <2 x i64>, align 16
  %8 = bitcast <2 x i64>* %7 to %struct.SkPDFStrokeGraphicState*
  %9 = alloca %class.SkPDFDict, align 8
  %10 = getelementptr inbounds %class.SkPaint, %class.SkPaint* %1, i64 0, i32 8, i32 0, i32 0
  %11 = load i32, i32* %10, align 8
  %12 = and i32 %11, 192
  %13 = icmp eq i32 %12, 0
  br i1 %13, label %14, label %105

14:                                               ; preds = %2
  %15 = bitcast i64* %5 to %struct.SkPDFFillGraphicState*
  %16 = bitcast i64* %5 to i8*
  call void @llvm.lifetime.start.p0i8(i64 8, i8* nonnull %16) #9
  %17 = bitcast i64* %5 to float*
  %18 = getelementptr inbounds %struct.SkPDFFillGraphicState, %struct.SkPDFFillGraphicState* %15, i64 0, i32 1
  %19 = getelementptr inbounds %class.SkPaint, %class.SkPaint* %1, i64 0, i32 5, i32 2
  %20 = bitcast float* %19 to <2 x float>*
  %21 = bitcast i8* %18 to i32*
  store i32 170, i32* %21, align 4
  %22 = load <2 x float>, <2 x float>* %20, align 8
  %23 = extractelement <2 x float> %22, i32 1
  store float %23, float* %17, align 8
  %24 = lshr i32 %11, 10
  %25 = and i32 %24, 255
  %26 = tail call i8* @_ZN10SkPDFUtils13BlendModeNameE11SkBlendMode(i32 %25) #9
  %27 = icmp eq i8* %26, null
  %28 = add nsw i32 %25, -11
  %29 = icmp ult i32 %28, 2
  %30 = or i1 %29, %27
  %31 = trunc i32 %24 to i8
  %32 = select i1 %30, i8 3, i8 %31
  store i8 %32, i8* %18, align 4
  %33 = getelementptr inbounds %class.SkPDFDocument, %class.SkPDFDocument* %0, i64 0, i32 11
  %34 = load i32 (i8*, i64, i32)*, i32 (i8*, i64, i32)** @_ZN6SkOpts7hash_fnE, align 8
  %35 = call i32 %34(i8* nonnull %16, i64 8, i32 0) #9
  %36 = icmp eq i32 %35, 0
  %37 = select i1 %36, i32 1, i32 %35
  %38 = getelementptr inbounds %class.SkPDFDocument, %class.SkPDFDocument* %0, i64 0, i32 11, i32 0, i32 1
  %39 = load i32, i32* %38, align 4
  %40 = icmp sgt i32 %39, 0
  br i1 %40, label %41, label %75

41:                                               ; preds = %14
  %42 = add nsw i32 %39, -1
  %43 = and i32 %37, %42
  %44 = getelementptr inbounds %class.SkPDFDocument, %class.SkPDFDocument* %0, i64 0, i32 11, i32 0, i32 2, i32 0, i32 0, i32 0, i32 0
  %45 = load %"struct.SkTHashTable<SkTHashMap<SkPDFFillGraphicState, SkPDFIndirectReference, SkGoodHash>::Pair, SkPDFFillGraphicState, SkTHashMap<SkPDFFillGraphicState, SkPDFIndirectReference, SkGoodHash>::Pair>::Slot"*, %"struct.SkTHashTable<SkTHashMap<SkPDFFillGraphicState, SkPDFIndirectReference, SkGoodHash>::Pair, SkPDFFillGraphicState, SkTHashMap<SkPDFFillGraphicState, SkPDFIndirectReference, SkGoodHash>::Pair>::Slot"** %44, align 8
  br label %46

46:                                               ; preds = %60, %41
  %47 = phi i32 [ 0, %41 ], [ %65, %60 ]
  %48 = phi i32 [ %43, %41 ], [ %64, %60 ]
  %49 = sext i32 %48 to i64
  %50 = getelementptr inbounds %"struct.SkTHashTable<SkTHashMap<SkPDFFillGraphicState, SkPDFIndirectReference, SkGoodHash>::Pair, SkPDFFillGraphicState, SkTHashMap<SkPDFFillGraphicState, SkPDFIndirectReference, SkGoodHash>::Pair>::Slot", %"struct.SkTHashTable<SkTHashMap<SkPDFFillGraphicState, SkPDFIndirectReference, SkGoodHash>::Pair, SkPDFFillGraphicState, SkTHashMap<SkPDFFillGraphicState, SkPDFIndirectReference, SkGoodHash>::Pair>::Slot"* %45, i64 %49, i32 1
  %51 = load i32, i32* %50, align 4
  %52 = icmp eq i32 %51, 0
  br i1 %52, label %75, label %53

53:                                               ; preds = %46
  %54 = icmp eq i32 %37, %51
  br i1 %54, label %55, label %60

55:                                               ; preds = %53
  %56 = getelementptr inbounds %"struct.SkTHashTable<SkTHashMap<SkPDFFillGraphicState, SkPDFIndirectReference, SkGoodHash>::Pair, SkPDFFillGraphicState, SkTHashMap<SkPDFFillGraphicState, SkPDFIndirectReference, SkGoodHash>::Pair>::Slot", %"struct.SkTHashTable<SkTHashMap<SkPDFFillGraphicState, SkPDFIndirectReference, SkGoodHash>::Pair, SkPDFFillGraphicState, SkTHashMap<SkPDFFillGraphicState, SkPDFIndirectReference, SkGoodHash>::Pair>::Slot"* %45, i64 %49, i32 0
  %57 = bitcast %"struct.SkTHashMap<SkPDFFillGraphicState, SkPDFIndirectReference, SkGoodHash>::Pair"* %56 to i8*
  %58 = call i32 @bcmp(i8* nonnull %16, i8* %57, i64 8) #9
  %59 = icmp eq i32 %58, 0
  br i1 %59, label %67, label %60

60:                                               ; preds = %55, %53
  %61 = add nsw i32 %48, -1
  %62 = icmp slt i32 %48, 1
  %63 = select i1 %62, i32 %39, i32 0
  %64 = add nsw i32 %61, %63
  %65 = add nuw nsw i32 %47, 1
  %66 = icmp eq i32 %65, %39
  br i1 %66, label %75, label %46

67:                                               ; preds = %55
  %68 = icmp eq %"struct.SkTHashMap<SkPDFFillGraphicState, SkPDFIndirectReference, SkGoodHash>::Pair"* %56, null
  %69 = getelementptr inbounds %"struct.SkTHashTable<SkTHashMap<SkPDFFillGraphicState, SkPDFIndirectReference, SkGoodHash>::Pair, SkPDFFillGraphicState, SkTHashMap<SkPDFFillGraphicState, SkPDFIndirectReference, SkGoodHash>::Pair>::Slot", %"struct.SkTHashTable<SkTHashMap<SkPDFFillGraphicState, SkPDFIndirectReference, SkGoodHash>::Pair, SkPDFFillGraphicState, SkTHashMap<SkPDFFillGraphicState, SkPDFIndirectReference, SkGoodHash>::Pair>::Slot"* %45, i64 %49, i32 0, i32 0, i32 1
  %70 = icmp eq %struct.SkPDFIndirectReference* %69, null
  %71 = or i1 %68, %70
  br i1 %71, label %75, label %72

72:                                               ; preds = %67
  %73 = getelementptr inbounds %struct.SkPDFIndirectReference, %struct.SkPDFIndirectReference* %69, i64 0, i32 0
  %74 = load i32, i32* %73, align 4
  br label %103

75:                                               ; preds = %46, %60, %14, %67
  %76 = bitcast %class.SkPDFDict* %6 to i8*
  call void @llvm.lifetime.start.p0i8(i64 32, i8* nonnull %76) #9
  %77 = bitcast %class.SkPDFDict* %6 to i8*
  call void @llvm.memset.p0i8.i64(i8* nonnull align 8 %77, i8 -86, i64 32, i1 false)
  call void @_ZN9SkPDFDictC1EPKc(%class.SkPDFDict* nonnull %6, i8* null) #9
  call void @_ZN9SkPDFDict7reserveEi(%class.SkPDFDict* nonnull %6, i32 2) #9
  %78 = load float, float* %17, align 8
  call void @_ZN9SkPDFDict21insertColorComponentFEPKcf(%class.SkPDFDict* nonnull %6, i8* getelementptr inbounds ([3 x i8], [3 x i8]* @.str, i64 0, i64 0), float %78) #9
  %79 = load i8, i8* %18, align 4
  %80 = zext i8 %79 to i32
  %81 = call i8* @_ZN10SkPDFUtils13BlendModeNameE11SkBlendMode(i32 %80) #9
  call void @_ZN9SkPDFDict10insertNameEPKcS1_(%class.SkPDFDict* nonnull %6, i8* getelementptr inbounds ([3 x i8], [3 x i8]* @.str.1, i64 0, i64 0), i8* %81) #9
  %82 = getelementptr inbounds %class.SkPDFDict, %class.SkPDFDict* %6, i64 0, i32 0
  %83 = getelementptr inbounds %class.SkPDFDocument, %class.SkPDFDocument* %0, i64 0, i32 21, i32 0, i32 0, i32 0, i32 0, i32 0
  %84 = atomicrmw add i32* %83, i32 1 seq_cst
  %85 = call i32 @_ZN13SkPDFDocument4emitERK11SkPDFObject22SkPDFIndirectReference(%class.SkPDFDocument* %0, %class.SkPDFObject* nonnull dereferenceable(8) %82, i32 %84) #9
  %86 = load i64, i64* %5, align 8
  %87 = getelementptr inbounds %class.SkTHashMap.74, %class.SkTHashMap.74* %33, i64 0, i32 0
  %88 = bitcast %"struct.SkTHashMap<SkPDFFillGraphicState, SkPDFIndirectReference, SkGoodHash>::Pair"* %3 to i8*
  call void @llvm.lifetime.start.p0i8(i64 12, i8* nonnull %88) #9
  %89 = bitcast %"struct.SkTHashMap<SkPDFFillGraphicState, SkPDFIndirectReference, SkGoodHash>::Pair"* %3 to i64*
  store i64 %86, i64* %89, align 8
  %90 = getelementptr inbounds %"struct.SkTHashMap<SkPDFFillGraphicState, SkPDFIndirectReference, SkGoodHash>::Pair", %"struct.SkTHashMap<SkPDFFillGraphicState, SkPDFIndirectReference, SkGoodHash>::Pair"* %3, i64 0, i32 0, i32 1, i32 0
  store i32 %85, i32* %90, align 8
  %91 = getelementptr inbounds %class.SkTHashMap.74, %class.SkTHashMap.74* %33, i64 0, i32 0, i32 0
  %92 = load i32, i32* %91, align 8
  %93 = shl nsw i32 %92, 2
  %94 = load i32, i32* %38, align 4
  %95 = mul nsw i32 %94, 3
  %96 = icmp slt i32 %93, %95
  br i1 %96, label %101, label %97

97:                                               ; preds = %75
  %98 = icmp sgt i32 %94, 0
  %99 = shl nsw i32 %94, 1
  %100 = select i1 %98, i32 %99, i32 4
  call void @_ZN12SkTHashTableIN10SkTHashMapI21SkPDFFillGraphicState22SkPDFIndirectReference10SkGoodHashE4PairES1_S5_E6resizeEi(%class.SkTHashTable.75* %87, i32 %100) #9
  br label %101

101:                                              ; preds = %75, %97
  %102 = call %"struct.SkTHashMap<SkPDFFillGraphicState, SkPDFIndirectReference, SkGoodHash>::Pair"* @_ZN12SkTHashTableIN10SkTHashMapI21SkPDFFillGraphicState22SkPDFIndirectReference10SkGoodHashE4PairES1_S5_E12uncheckedSetEOS5_(%class.SkTHashTable.75* %87, %"struct.SkTHashMap<SkPDFFillGraphicState, SkPDFIndirectReference, SkGoodHash>::Pair"* nonnull dereferenceable(12) %3) #9
  call void @llvm.lifetime.end.p0i8(i64 12, i8* nonnull %88) #9
  call void @_ZN9SkPDFDictD1Ev(%class.SkPDFDict* nonnull %6) #9
  call void @llvm.lifetime.end.p0i8(i64 32, i8* nonnull %76) #9
  br label %103

103:                                              ; preds = %72, %101
  %104 = phi i32 [ %85, %101 ], [ %74, %72 ]
  call void @llvm.lifetime.end.p0i8(i64 8, i8* nonnull %16) #9
  br label %268

105:                                              ; preds = %2
  %106 = bitcast <2 x i64>* %7 to i8*
  call void @llvm.lifetime.start.p0i8(i64 16, i8* nonnull %106) #9
  %107 = bitcast <2 x i64>* %7 to float*
  %108 = getelementptr inbounds %struct.SkPDFStrokeGraphicState, %struct.SkPDFStrokeGraphicState* %8, i64 0, i32 1
  %109 = getelementptr inbounds %struct.SkPDFStrokeGraphicState, %struct.SkPDFStrokeGraphicState* %8, i64 0, i32 2
  %110 = getelementptr inbounds %struct.SkPDFStrokeGraphicState, %struct.SkPDFStrokeGraphicState* %8, i64 0, i32 3
  %111 = getelementptr inbounds %struct.SkPDFStrokeGraphicState, %struct.SkPDFStrokeGraphicState* %8, i64 0, i32 4
  %112 = getelementptr inbounds %struct.SkPDFStrokeGraphicState, %struct.SkPDFStrokeGraphicState* %8, i64 0, i32 5
  %113 = getelementptr inbounds %struct.SkPDFStrokeGraphicState, %struct.SkPDFStrokeGraphicState* %8, i64 0, i32 6
  %114 = getelementptr inbounds %class.SkPaint, %class.SkPaint* %1, i64 0, i32 6
  %115 = bitcast float* %114 to i32*
  %116 = load i32, i32* %115, align 8
  %117 = bitcast <2 x i64>* %7 to i32*
  store i32 %116, i32* %117, align 16
  %118 = getelementptr inbounds %class.SkPaint, %class.SkPaint* %1, i64 0, i32 7
  %119 = bitcast float* %118 to i32*
  %120 = load i32, i32* %119, align 4
  %121 = bitcast float* %108 to i32*
  store i32 %120, i32* %121, align 4
  %122 = getelementptr inbounds %class.SkPaint, %class.SkPaint* %1, i64 0, i32 5, i32 2
  %123 = bitcast float* %122 to <2 x float>*
  %124 = load <2 x float>, <2 x float>* %123, align 8
  %125 = extractelement <2 x float> %124, i32 1
  store float %125, float* %109, align 8
  %126 = lshr i32 %11, 2
  %127 = trunc i32 %126 to i8
  %128 = and i8 %127, 3
  store i8 %128, i8* %110, align 4
  %129 = lshr i32 %11, 4
  %130 = trunc i32 %129 to i8
  %131 = and i8 %130, 3
  store i8 %131, i8* %111, align 1
  %132 = lshr i32 %11, 10
  %133 = and i32 %132, 255
  %134 = tail call i8* @_ZN10SkPDFUtils13BlendModeNameE11SkBlendMode(i32 %133) #9
  %135 = icmp eq i8* %134, null
  %136 = add nsw i32 %133, -11
  %137 = icmp ult i32 %136, 2
  %138 = or i1 %137, %135
  %139 = trunc i32 %132 to i8
  %140 = select i1 %138, i8 3, i8 %139
  store i8 %140, i8* %112, align 2
  store i8 0, i8* %113, align 1
  %141 = getelementptr inbounds %class.SkPDFDocument, %class.SkPDFDocument* %0, i64 0, i32 10
  %142 = load i32 (i8*, i64, i32)*, i32 (i8*, i64, i32)** @_ZN6SkOpts7hash_fnE, align 8
  %143 = call i32 %142(i8* nonnull %106, i64 16, i32 0) #9
  %144 = icmp eq i32 %143, 0
  %145 = select i1 %144, i32 1, i32 %143
  %146 = getelementptr inbounds %class.SkPDFDocument, %class.SkPDFDocument* %0, i64 0, i32 10, i32 0, i32 1
  %147 = load i32, i32* %146, align 4
  %148 = icmp sgt i32 %147, 0
  br i1 %148, label %149, label %183

149:                                              ; preds = %105
  %150 = add nsw i32 %147, -1
  %151 = and i32 %145, %150
  %152 = getelementptr inbounds %class.SkPDFDocument, %class.SkPDFDocument* %0, i64 0, i32 10, i32 0, i32 2, i32 0, i32 0, i32 0, i32 0
  %153 = load %"struct.SkTHashTable<SkTHashMap<SkPDFStrokeGraphicState, SkPDFIndirectReference, SkGoodHash>::Pair, SkPDFStrokeGraphicState, SkTHashMap<SkPDFStrokeGraphicState, SkPDFIndirectReference, SkGoodHash>::Pair>::Slot"*, %"struct.SkTHashTable<SkTHashMap<SkPDFStrokeGraphicState, SkPDFIndirectReference, SkGoodHash>::Pair, SkPDFStrokeGraphicState, SkTHashMap<SkPDFStrokeGraphicState, SkPDFIndirectReference, SkGoodHash>::Pair>::Slot"** %152, align 8
  br label %154

154:                                              ; preds = %168, %149
  %155 = phi i32 [ 0, %149 ], [ %173, %168 ]
  %156 = phi i32 [ %151, %149 ], [ %172, %168 ]
  %157 = sext i32 %156 to i64
  %158 = getelementptr inbounds %"struct.SkTHashTable<SkTHashMap<SkPDFStrokeGraphicState, SkPDFIndirectReference, SkGoodHash>::Pair, SkPDFStrokeGraphicState, SkTHashMap<SkPDFStrokeGraphicState, SkPDFIndirectReference, SkGoodHash>::Pair>::Slot", %"struct.SkTHashTable<SkTHashMap<SkPDFStrokeGraphicState, SkPDFIndirectReference, SkGoodHash>::Pair, SkPDFStrokeGraphicState, SkTHashMap<SkPDFStrokeGraphicState, SkPDFIndirectReference, SkGoodHash>::Pair>::Slot"* %153, i64 %157, i32 1
  %159 = load i32, i32* %158, align 4
  %160 = icmp eq i32 %159, 0
  br i1 %160, label %183, label %161

161:                                              ; preds = %154
  %162 = icmp eq i32 %145, %159
  br i1 %162, label %163, label %168

163:                                              ; preds = %161
  %164 = getelementptr inbounds %"struct.SkTHashTable<SkTHashMap<SkPDFStrokeGraphicState, SkPDFIndirectReference, SkGoodHash>::Pair, SkPDFStrokeGraphicState, SkTHashMap<SkPDFStrokeGraphicState, SkPDFIndirectReference, SkGoodHash>::Pair>::Slot", %"struct.SkTHashTable<SkTHashMap<SkPDFStrokeGraphicState, SkPDFIndirectReference, SkGoodHash>::Pair, SkPDFStrokeGraphicState, SkTHashMap<SkPDFStrokeGraphicState, SkPDFIndirectReference, SkGoodHash>::Pair>::Slot"* %153, i64 %157, i32 0
  %165 = bitcast %"struct.SkTHashMap<SkPDFStrokeGraphicState, SkPDFIndirectReference, SkGoodHash>::Pair"* %164 to i8*
  %166 = call i32 @bcmp(i8* nonnull %106, i8* %165, i64 16) #9
  %167 = icmp eq i32 %166, 0
  br i1 %167, label %175, label %168

168:                                              ; preds = %163, %161
  %169 = add nsw i32 %156, -1
  %170 = icmp slt i32 %156, 1
  %171 = select i1 %170, i32 %147, i32 0
  %172 = add nsw i32 %169, %171
  %173 = add nuw nsw i32 %155, 1
  %174 = icmp eq i32 %173, %147
  br i1 %174, label %183, label %154

175:                                              ; preds = %163
  %176 = icmp eq %"struct.SkTHashMap<SkPDFStrokeGraphicState, SkPDFIndirectReference, SkGoodHash>::Pair"* %164, null
  %177 = getelementptr inbounds %"struct.SkTHashTable<SkTHashMap<SkPDFStrokeGraphicState, SkPDFIndirectReference, SkGoodHash>::Pair, SkPDFStrokeGraphicState, SkTHashMap<SkPDFStrokeGraphicState, SkPDFIndirectReference, SkGoodHash>::Pair>::Slot", %"struct.SkTHashTable<SkTHashMap<SkPDFStrokeGraphicState, SkPDFIndirectReference, SkGoodHash>::Pair, SkPDFStrokeGraphicState, SkTHashMap<SkPDFStrokeGraphicState, SkPDFIndirectReference, SkGoodHash>::Pair>::Slot"* %153, i64 %157, i32 0, i32 0, i32 1
  %178 = icmp eq %struct.SkPDFIndirectReference* %177, null
  %179 = or i1 %176, %178
  br i1 %179, label %183, label %180

180:                                              ; preds = %175
  %181 = getelementptr inbounds %struct.SkPDFIndirectReference, %struct.SkPDFIndirectReference* %177, i64 0, i32 0
  %182 = load i32, i32* %181, align 4
  br label %266

183:                                              ; preds = %154, %168, %105, %175
  %184 = bitcast %class.SkPDFDict* %9 to i8*
  call void @llvm.lifetime.start.p0i8(i64 32, i8* nonnull %184) #9
  %185 = bitcast %class.SkPDFDict* %9 to i8*
  call void @llvm.memset.p0i8.i64(i8* nonnull align 8 %185, i8 -86, i64 32, i1 false)
  call void @_ZN9SkPDFDictC1EPKc(%class.SkPDFDict* nonnull %9, i8* null) #9
  call void @_ZN9SkPDFDict7reserveEi(%class.SkPDFDict* nonnull %9, i32 8) #9
  %186 = load float, float* %109, align 8
  call void @_ZN9SkPDFDict21insertColorComponentFEPKcf(%class.SkPDFDict* nonnull %9, i8* getelementptr inbounds ([3 x i8], [3 x i8]* @.str.2, i64 0, i64 0), float %186) #9
  %187 = load float, float* %109, align 8
  call void @_ZN9SkPDFDict21insertColorComponentFEPKcf(%class.SkPDFDict* nonnull %9, i8* getelementptr inbounds ([3 x i8], [3 x i8]* @.str, i64 0, i64 0), float %187) #9
  %188 = load i8, i8* %110, align 4
  %189 = icmp eq i8 %188, 1
  %190 = zext i1 %189 to i32
  %191 = icmp eq i8 %188, 2
  %192 = select i1 %191, i32 2, i32 %190
  call void @_ZN9SkPDFDict9insertIntEPKci(%class.SkPDFDict* nonnull %9, i8* getelementptr inbounds ([3 x i8], [3 x i8]* @.str.3, i64 0, i64 0), i32 %192) #9
  %193 = load i8, i8* %111, align 1
  %194 = icmp eq i8 %193, 1
  %195 = zext i1 %194 to i32
  %196 = icmp eq i8 %193, 2
  %197 = select i1 %196, i32 2, i32 %195
  call void @_ZN9SkPDFDict9insertIntEPKci(%class.SkPDFDict* nonnull %9, i8* getelementptr inbounds ([3 x i8], [3 x i8]* @.str.4, i64 0, i64 0), i32 %197) #9
  %198 = load float, float* %107, align 16
  call void @_ZN9SkPDFDict12insertScalarEPKcf(%class.SkPDFDict* nonnull %9, i8* getelementptr inbounds ([3 x i8], [3 x i8]* @.str.5, i64 0, i64 0), float %198) #9
  %199 = load float, float* %108, align 4
  call void @_ZN9SkPDFDict12insertScalarEPKcf(%class.SkPDFDict* nonnull %9, i8* getelementptr inbounds ([3 x i8], [3 x i8]* @.str.6, i64 0, i64 0), float %199) #9
  call void @_ZN9SkPDFDict10insertBoolEPKcb(%class.SkPDFDict* nonnull %9, i8* getelementptr inbounds ([3 x i8], [3 x i8]* @.str.7, i64 0, i64 0), i1 zeroext true) #9
  %200 = load i8, i8* %112, align 2
  %201 = zext i8 %200 to i32
  %202 = call i8* @_ZN10SkPDFUtils13BlendModeNameE11SkBlendMode(i32 %201) #9
  call void @_ZN9SkPDFDict10insertNameEPKcS1_(%class.SkPDFDict* nonnull %9, i8* getelementptr inbounds ([3 x i8], [3 x i8]* @.str.1, i64 0, i64 0), i8* %202) #9
  %203 = getelementptr inbounds %class.SkPDFDict, %class.SkPDFDict* %9, i64 0, i32 0
  %204 = getelementptr inbounds %class.SkPDFDocument, %class.SkPDFDocument* %0, i64 0, i32 21, i32 0, i32 0, i32 0, i32 0, i32 0
  %205 = atomicrmw add i32* %204, i32 1 seq_cst
  %206 = call i32 @_ZN13SkPDFDocument4emitERK11SkPDFObject22SkPDFIndirectReference(%class.SkPDFDocument* %0, %class.SkPDFObject* nonnull dereferenceable(8) %203, i32 %205) #9
  %207 = load <2 x i64>, <2 x i64>* %7, align 16
  %208 = bitcast %"struct.SkTHashMap<SkPDFStrokeGraphicState, SkPDFIndirectReference, SkGoodHash>::Pair"* %4 to i8*
  call void @llvm.lifetime.start.p0i8(i64 20, i8* nonnull %208) #9
  %209 = bitcast %"struct.SkTHashMap<SkPDFStrokeGraphicState, SkPDFIndirectReference, SkGoodHash>::Pair"* %4 to <2 x i64>*
  store <2 x i64> %207, <2 x i64>* %209, align 16
  %210 = getelementptr inbounds %"struct.SkTHashMap<SkPDFStrokeGraphicState, SkPDFIndirectReference, SkGoodHash>::Pair", %"struct.SkTHashMap<SkPDFStrokeGraphicState, SkPDFIndirectReference, SkGoodHash>::Pair"* %4, i64 0, i32 0, i32 1, i32 0
  store i32 %206, i32* %210, align 16
  %211 = getelementptr inbounds %class.SkTHashMap.65, %class.SkTHashMap.65* %141, i64 0, i32 0, i32 0
  %212 = load i32, i32* %211, align 8
  %213 = shl nsw i32 %212, 2
  %214 = load i32, i32* %146, align 4
  %215 = mul nsw i32 %214, 3
  %216 = icmp slt i32 %213, %215
  br i1 %216, label %222, label %217

217:                                              ; preds = %183
  %218 = getelementptr inbounds %class.SkTHashMap.65, %class.SkTHashMap.65* %141, i64 0, i32 0
  %219 = icmp sgt i32 %214, 0
  %220 = shl nsw i32 %214, 1
  %221 = select i1 %219, i32 %220, i32 4
  call void @_ZN12SkTHashTableIN10SkTHashMapI23SkPDFStrokeGraphicState22SkPDFIndirectReference10SkGoodHashE4PairES1_S5_E6resizeEi(%class.SkTHashTable.66* %218, i32 %221) #9
  br label %222

222:                                              ; preds = %183, %217
  %223 = load i32 (i8*, i64, i32)*, i32 (i8*, i64, i32)** @_ZN6SkOpts7hash_fnE, align 8
  %224 = call i32 %223(i8* nonnull %208, i64 16, i32 0) #9
  %225 = icmp eq i32 %224, 0
  %226 = select i1 %225, i32 1, i32 %224
  %227 = load i32, i32* %146, align 4
  %228 = icmp sgt i32 %227, 0
  br i1 %228, label %229, label %265

229:                                              ; preds = %222
  %230 = add nsw i32 %227, -1
  %231 = and i32 %226, %230
  %232 = getelementptr inbounds %class.SkPDFDocument, %class.SkPDFDocument* %0, i64 0, i32 10, i32 0, i32 2, i32 0, i32 0, i32 0, i32 0
  %233 = load %"struct.SkTHashTable<SkTHashMap<SkPDFStrokeGraphicState, SkPDFIndirectReference, SkGoodHash>::Pair, SkPDFStrokeGraphicState, SkTHashMap<SkPDFStrokeGraphicState, SkPDFIndirectReference, SkGoodHash>::Pair>::Slot"*, %"struct.SkTHashTable<SkTHashMap<SkPDFStrokeGraphicState, SkPDFIndirectReference, SkGoodHash>::Pair, SkPDFStrokeGraphicState, SkTHashMap<SkPDFStrokeGraphicState, SkPDFIndirectReference, SkGoodHash>::Pair>::Slot"** %232, align 8
  br label %234

234:                                              ; preds = %258, %229
  %235 = phi i32 [ 0, %229 ], [ %263, %258 ]
  %236 = phi i32 [ %231, %229 ], [ %262, %258 ]
  %237 = sext i32 %236 to i64
  %238 = getelementptr inbounds %"struct.SkTHashTable<SkTHashMap<SkPDFStrokeGraphicState, SkPDFIndirectReference, SkGoodHash>::Pair, SkPDFStrokeGraphicState, SkTHashMap<SkPDFStrokeGraphicState, SkPDFIndirectReference, SkGoodHash>::Pair>::Slot", %"struct.SkTHashTable<SkTHashMap<SkPDFStrokeGraphicState, SkPDFIndirectReference, SkGoodHash>::Pair, SkPDFStrokeGraphicState, SkTHashMap<SkPDFStrokeGraphicState, SkPDFIndirectReference, SkGoodHash>::Pair>::Slot"* %233, i64 %237
  %239 = getelementptr inbounds %"struct.SkTHashTable<SkTHashMap<SkPDFStrokeGraphicState, SkPDFIndirectReference, SkGoodHash>::Pair, SkPDFStrokeGraphicState, SkTHashMap<SkPDFStrokeGraphicState, SkPDFIndirectReference, SkGoodHash>::Pair>::Slot", %"struct.SkTHashTable<SkTHashMap<SkPDFStrokeGraphicState, SkPDFIndirectReference, SkGoodHash>::Pair, SkPDFStrokeGraphicState, SkTHashMap<SkPDFStrokeGraphicState, SkPDFIndirectReference, SkGoodHash>::Pair>::Slot"* %233, i64 %237, i32 1
  %240 = load i32, i32* %239, align 4
  %241 = icmp eq i32 %240, 0
  br i1 %241, label %242, label %248

242:                                              ; preds = %234
  %243 = bitcast %"struct.SkTHashTable<SkTHashMap<SkPDFStrokeGraphicState, SkPDFIndirectReference, SkGoodHash>::Pair, SkPDFStrokeGraphicState, SkTHashMap<SkPDFStrokeGraphicState, SkPDFIndirectReference, SkGoodHash>::Pair>::Slot"* %238 to i8*
  call void @llvm.memcpy.p0i8.p0i8.i64(i8* align 4 %243, i8* nonnull align 16 %208, i64 16, i1 false) #9
  %244 = getelementptr inbounds %"struct.SkTHashTable<SkTHashMap<SkPDFStrokeGraphicState, SkPDFIndirectReference, SkGoodHash>::Pair, SkPDFStrokeGraphicState, SkTHashMap<SkPDFStrokeGraphicState, SkPDFIndirectReference, SkGoodHash>::Pair>::Slot", %"struct.SkTHashTable<SkTHashMap<SkPDFStrokeGraphicState, SkPDFIndirectReference, SkGoodHash>::Pair, SkPDFStrokeGraphicState, SkTHashMap<SkPDFStrokeGraphicState, SkPDFIndirectReference, SkGoodHash>::Pair>::Slot"* %233, i64 %237, i32 0, i32 0, i32 1, i32 0
  %245 = load i32, i32* %210, align 16
  store i32 %245, i32* %244, align 4
  store i32 %226, i32* %239, align 4
  %246 = load i32, i32* %211, align 8
  %247 = add nsw i32 %246, 1
  store i32 %247, i32* %211, align 8
  br label %265

248:                                              ; preds = %234
  %249 = icmp eq i32 %226, %240
  br i1 %249, label %250, label %258

250:                                              ; preds = %248
  %251 = bitcast %"struct.SkTHashTable<SkTHashMap<SkPDFStrokeGraphicState, SkPDFIndirectReference, SkGoodHash>::Pair, SkPDFStrokeGraphicState, SkTHashMap<SkPDFStrokeGraphicState, SkPDFIndirectReference, SkGoodHash>::Pair>::Slot"* %238 to i8*
  %252 = call i32 @bcmp(i8* nonnull %208, i8* %251, i64 16) #9
  %253 = icmp eq i32 %252, 0
  br i1 %253, label %254, label %258

254:                                              ; preds = %250
  %255 = bitcast %"struct.SkTHashTable<SkTHashMap<SkPDFStrokeGraphicState, SkPDFIndirectReference, SkGoodHash>::Pair, SkPDFStrokeGraphicState, SkTHashMap<SkPDFStrokeGraphicState, SkPDFIndirectReference, SkGoodHash>::Pair>::Slot"* %238 to i8*
  call void @llvm.memcpy.p0i8.p0i8.i64(i8* align 4 %255, i8* nonnull align 16 %208, i64 16, i1 false) #9
  %256 = getelementptr inbounds %"struct.SkTHashTable<SkTHashMap<SkPDFStrokeGraphicState, SkPDFIndirectReference, SkGoodHash>::Pair, SkPDFStrokeGraphicState, SkTHashMap<SkPDFStrokeGraphicState, SkPDFIndirectReference, SkGoodHash>::Pair>::Slot", %"struct.SkTHashTable<SkTHashMap<SkPDFStrokeGraphicState, SkPDFIndirectReference, SkGoodHash>::Pair, SkPDFStrokeGraphicState, SkTHashMap<SkPDFStrokeGraphicState, SkPDFIndirectReference, SkGoodHash>::Pair>::Slot"* %233, i64 %237, i32 0, i32 0, i32 1, i32 0
  %257 = load i32, i32* %210, align 16
  store i32 %257, i32* %256, align 4
  br label %265

258:                                              ; preds = %250, %248
  %259 = add nsw i32 %236, -1
  %260 = icmp slt i32 %236, 1
  %261 = select i1 %260, i32 %227, i32 0
  %262 = add nsw i32 %259, %261
  %263 = add nuw nsw i32 %235, 1
  %264 = icmp eq i32 %263, %227
  br i1 %264, label %265, label %234

265:                                              ; preds = %258, %222, %242, %254
  call void @llvm.lifetime.end.p0i8(i64 20, i8* nonnull %208) #9
  call void @_ZN9SkPDFDictD1Ev(%class.SkPDFDict* nonnull %9) #9
  call void @llvm.lifetime.end.p0i8(i64 32, i8* nonnull %184) #9
  br label %266

266:                                              ; preds = %180, %265
  %267 = phi i32 [ %206, %265 ], [ %182, %180 ]
  call void @llvm.lifetime.end.p0i8(i64 16, i8* nonnull %106) #9
  br label %268

268:                                              ; preds = %266, %103
  %269 = phi i32 [ %104, %103 ], [ %267, %266 ]
  ret i32 %269
}

; Function Attrs: argmemonly nounwind
declare void @llvm.lifetime.start.p0i8(i64 immarg, i8* nocapture) #1

; Function Attrs: argmemonly nounwind
declare void @llvm.lifetime.end.p0i8(i64 immarg, i8* nocapture) #1

; Function Attrs: argmemonly nounwind
declare void @llvm.memcpy.p0i8.p0i8.i64(i8* nocapture writeonly, i8* nocapture readonly, i64, i1 immarg) #1

declare void @_ZN9SkPDFDictC1EPKc(%class.SkPDFDict*, i8*) unnamed_addr #2

declare void @_ZN9SkPDFDict7reserveEi(%class.SkPDFDict*, i32) local_unnamed_addr #2

declare void @_ZN9SkPDFDict21insertColorComponentFEPKcf(%class.SkPDFDict*, i8*, float) local_unnamed_addr #2

declare void @_ZN9SkPDFDict10insertNameEPKcS1_(%class.SkPDFDict*, i8*, i8*) local_unnamed_addr #2

; Function Attrs: nounwind
declare void @_ZN9SkPDFDictD1Ev(%class.SkPDFDict*) unnamed_addr #3

declare void @_ZN9SkPDFDict9insertIntEPKci(%class.SkPDFDict*, i8*, i32) local_unnamed_addr #2

declare void @_ZN9SkPDFDict12insertScalarEPKcf(%class.SkPDFDict*, i8*, float) local_unnamed_addr #2

declare void @_ZN9SkPDFDict10insertBoolEPKcb(%class.SkPDFDict*, i8*, i1 zeroext) local_unnamed_addr #2

; Function Attrs: nounwind ssp uwtable
define hidden i32 @_ZN17SkPDFGraphicState20GetSMaskGraphicStateE22SkPDFIndirectReferencebNS_14SkPDFSMaskModeEP13SkPDFDocument(i32, i1 zeroext, i32, %class.SkPDFDocument*) local_unnamed_addr #4 {
  %5 = alloca %class.sk_sp, align 8
  %6 = alloca %"class.std::__1::unique_ptr.202", align 8
  %7 = alloca %"class.std::__1::unique_ptr.202", align 8
  %8 = alloca %class.sk_sp, align 8
  %9 = alloca %class.SkPDFDict, align 8
  %10 = alloca %"class.std::__1::unique_ptr.202", align 8
  %11 = tail call i8* @_Znwm(i64 32) #10
  %12 = bitcast i8* %11 to %class.SkPDFDict*
  tail call void @_ZN9SkPDFDictC1EPKc(%class.SkPDFDict* nonnull %12, i8* getelementptr inbounds ([5 x i8], [5 x i8]* @.str.8, i64 0, i64 0)) #9
  %13 = ptrtoint i8* %11 to i64
  switch i32 %2, label %17 [
    i32 0, label %15
    i32 1, label %14
  ]

14:                                               ; preds = %4
  br label %15

15:                                               ; preds = %4, %14
  %16 = phi i8* [ getelementptr inbounds ([11 x i8], [11 x i8]* @.str.11, i64 0, i64 0), %14 ], [ getelementptr inbounds ([6 x i8], [6 x i8]* @.str.10, i64 0, i64 0), %4 ]
  tail call void @_ZN9SkPDFDict10insertNameEPKcS1_(%class.SkPDFDict* nonnull %12, i8* getelementptr inbounds ([2 x i8], [2 x i8]* @.str.9, i64 0, i64 0), i8* %16) #9
  br label %17

17:                                               ; preds = %15, %4
  tail call void @_ZN9SkPDFDict9insertRefEPKc22SkPDFIndirectReference(%class.SkPDFDict* nonnull %12, i8* getelementptr inbounds ([2 x i8], [2 x i8]* @.str.12, i64 0, i64 0), i32 %0) #9
  br i1 %1, label %18, label %83

18:                                               ; preds = %17
  %19 = getelementptr inbounds %class.SkPDFDocument, %class.SkPDFDocument* %3, i64 0, i32 12, i32 0
  %20 = load i32, i32* %19, align 8
  %21 = icmp eq i32 %20, -1
  br i1 %21, label %22, label %81

22:                                               ; preds = %18
  %23 = bitcast %class.sk_sp* %8 to i8*
  call void @llvm.lifetime.start.p0i8(i64 8, i8* nonnull %23)
  %24 = bitcast %class.sk_sp* %5 to i8*
  call void @llvm.lifetime.start.p0i8(i64 8, i8* nonnull %24) #9
  %25 = getelementptr inbounds %class.sk_sp, %class.sk_sp* %5, i64 0, i32 0
  store %class.SkData* inttoptr (i64 -6148914691236517206 to %class.SkData*), %class.SkData** %25, align 8
  call void @_ZN6SkData12MakeWithProcEPKvmPFvS1_PvES2_(%class.sk_sp* nonnull sret %5, i8* getelementptr inbounds ([13 x i8], [13 x i8]* @_ZZL20make_invert_functionP13SkPDFDocumentE8psInvert, i64 0, i64 0), i64 12, void (i8*, i8*)* nonnull @_ZN6SkData16DummyReleaseProcEPKvPv, i8* null) #9
  %26 = call i8* @_Znwm(i64 32) #10
  %27 = bitcast i8* %26 to %class.SkPDFDict*
  call void @_ZN9SkPDFDictC1EPKc(%class.SkPDFDict* nonnull %27, i8* null) #9
  call void @_ZN9SkPDFDict9insertIntEPKci(%class.SkPDFDict* nonnull %27, i8* getelementptr inbounds ([13 x i8], [13 x i8]* @.str.16, i64 0, i64 0), i32 4) #9
  %28 = bitcast %"class.std::__1::unique_ptr.202"* %6 to i8*
  call void @llvm.lifetime.start.p0i8(i64 8, i8* nonnull %28) #9
  %29 = call i8* @_Znwm(i64 32) #10
  %30 = bitcast i8* %29 to %class.SkPDFArray*
  call void @_ZN10SkPDFArrayC1Ev(%class.SkPDFArray* nonnull %30) #9
  call void @_ZN10SkPDFArray7reserveEi(%class.SkPDFArray* nonnull %30, i32 2) #9
  call void @_ZN10SkPDFArray9appendIntEi(%class.SkPDFArray* nonnull %30, i32 0) #9
  call void @_ZN10SkPDFArray9appendIntEi(%class.SkPDFArray* nonnull %30, i32 1) #9
  %31 = ptrtoint i8* %29 to i64
  %32 = bitcast %"class.std::__1::unique_ptr.202"* %6 to i64*
  store i64 %31, i64* %32, align 8
  call void @_ZN9SkPDFDict12insertObjectEPKcONSt3__110unique_ptrI11SkPDFObjectNS2_14default_deleteIS4_EEEE(%class.SkPDFDict* nonnull %27, i8* getelementptr inbounds ([7 x i8], [7 x i8]* @.str.17, i64 0, i64 0), %"class.std::__1::unique_ptr.202"* nonnull dereferenceable(8) %6) #9
  %33 = getelementptr inbounds %"class.std::__1::unique_ptr.202", %"class.std::__1::unique_ptr.202"* %6, i64 0, i32 0, i32 0, i32 0
  %34 = load %class.SkPDFObject*, %class.SkPDFObject** %33, align 8
  store %class.SkPDFObject* null, %class.SkPDFObject** %33, align 8
  %35 = icmp eq %class.SkPDFObject* %34, null
  br i1 %35, label %41, label %36

36:                                               ; preds = %22
  %37 = bitcast %class.SkPDFObject* %34 to void (%class.SkPDFObject*)***
  %38 = load void (%class.SkPDFObject*)**, void (%class.SkPDFObject*)*** %37, align 8
  %39 = getelementptr inbounds void (%class.SkPDFObject*)*, void (%class.SkPDFObject*)** %38, i64 2
  %40 = load void (%class.SkPDFObject*)*, void (%class.SkPDFObject*)** %39, align 8
  call void %40(%class.SkPDFObject* nonnull %34) #9
  br label %41

41:                                               ; preds = %36, %22
  call void @llvm.lifetime.end.p0i8(i64 8, i8* nonnull %28) #9
  %42 = bitcast %"class.std::__1::unique_ptr.202"* %7 to i8*
  call void @llvm.lifetime.start.p0i8(i64 8, i8* nonnull %42) #9
  %43 = call i8* @_Znwm(i64 32) #10
  %44 = bitcast i8* %43 to %class.SkPDFArray*
  call void @_ZN10SkPDFArrayC1Ev(%class.SkPDFArray* nonnull %44) #9
  call void @_ZN10SkPDFArray7reserveEi(%class.SkPDFArray* nonnull %44, i32 2) #9
  call void @_ZN10SkPDFArray9appendIntEi(%class.SkPDFArray* nonnull %44, i32 0) #9
  call void @_ZN10SkPDFArray9appendIntEi(%class.SkPDFArray* nonnull %44, i32 1) #9
  %45 = ptrtoint i8* %43 to i64
  %46 = bitcast %"class.std::__1::unique_ptr.202"* %7 to i64*
  store i64 %45, i64* %46, align 8
  call void @_ZN9SkPDFDict12insertObjectEPKcONSt3__110unique_ptrI11SkPDFObjectNS2_14default_deleteIS4_EEEE(%class.SkPDFDict* nonnull %27, i8* getelementptr inbounds ([6 x i8], [6 x i8]* @.str.18, i64 0, i64 0), %"class.std::__1::unique_ptr.202"* nonnull dereferenceable(8) %7) #9
  %47 = getelementptr inbounds %"class.std::__1::unique_ptr.202", %"class.std::__1::unique_ptr.202"* %7, i64 0, i32 0, i32 0, i32 0
  %48 = load %class.SkPDFObject*, %class.SkPDFObject** %47, align 8
  store %class.SkPDFObject* null, %class.SkPDFObject** %47, align 8
  %49 = icmp eq %class.SkPDFObject* %48, null
  br i1 %49, label %55, label %50

50:                                               ; preds = %41
  %51 = bitcast %class.SkPDFObject* %48 to void (%class.SkPDFObject*)***
  %52 = load void (%class.SkPDFObject*)**, void (%class.SkPDFObject*)*** %51, align 8
  %53 = getelementptr inbounds void (%class.SkPDFObject*)*, void (%class.SkPDFObject*)** %52, i64 2
  %54 = load void (%class.SkPDFObject*)*, void (%class.SkPDFObject*)** %53, align 8
  call void %54(%class.SkPDFObject* nonnull %48) #9
  br label %55

55:                                               ; preds = %50, %41
  call void @llvm.lifetime.end.p0i8(i64 8, i8* nonnull %42) #9
  %56 = bitcast %class.sk_sp* %5 to i64*
  %57 = load i64, i64* %56, align 8
  store %class.SkData* null, %class.SkData** %25, align 8
  %58 = bitcast %class.sk_sp* %8 to i64*
  store i64 %57, i64* %58, align 8
  %59 = call %class.SkMemoryStream* @_ZN14SkMemoryStream4MakeE5sk_spI6SkDataE(%class.sk_sp* nonnull %8) #9
  %60 = getelementptr inbounds %class.SkMemoryStream, %class.SkMemoryStream* %59, i64 0, i32 0, i32 0
  %61 = call i32 @_Z14SkPDFStreamOutNSt3__110unique_ptrI9SkPDFDictNS_14default_deleteIS1_EEEENS0_I13SkStreamAssetNS2_IS5_EEEEP13SkPDFDocumentb(%class.SkPDFDict* nonnull %27, %class.SkStreamAsset* %60, %class.SkPDFDocument* %3, i1 zeroext true) #9
  %62 = getelementptr inbounds %class.sk_sp, %class.sk_sp* %8, i64 0, i32 0
  %63 = load %class.SkData*, %class.SkData** %62, align 8
  %64 = icmp eq %class.SkData* %63, null
  br i1 %64, label %71, label %65

65:                                               ; preds = %55
  %66 = getelementptr inbounds %class.SkData, %class.SkData* %63, i64 0, i32 0, i32 0, i32 0, i32 0, i32 0, i32 0, i32 0
  %67 = atomicrmw add i32* %66, i32 -1 acq_rel
  %68 = icmp eq i32 %67, 1
  br i1 %68, label %69, label %71

69:                                               ; preds = %65
  call void @_ZN6SkDataD1Ev(%class.SkData* nonnull %63) #9
  %70 = bitcast %class.SkData* %63 to i8*
  call void @_ZN6SkDatadlEPv(i8* nonnull %70) #9
  br label %71

71:                                               ; preds = %69, %65, %55
  %72 = load %class.SkData*, %class.SkData** %25, align 8
  %73 = icmp eq %class.SkData* %72, null
  br i1 %73, label %80, label %74

74:                                               ; preds = %71
  %75 = getelementptr inbounds %class.SkData, %class.SkData* %72, i64 0, i32 0, i32 0, i32 0, i32 0, i32 0, i32 0, i32 0
  %76 = atomicrmw add i32* %75, i32 -1 acq_rel
  %77 = icmp eq i32 %76, 1
  br i1 %77, label %78, label %80

78:                                               ; preds = %74
  call void @_ZN6SkDataD1Ev(%class.SkData* nonnull %72) #9
  %79 = bitcast %class.SkData* %72 to i8*
  call void @_ZN6SkDatadlEPv(i8* nonnull %79) #9
  br label %80

80:                                               ; preds = %71, %74, %78
  call void @llvm.lifetime.end.p0i8(i64 8, i8* nonnull %24) #9
  call void @llvm.lifetime.end.p0i8(i64 8, i8* nonnull %23)
  store i32 %61, i32* %19, align 8
  br label %81

81:                                               ; preds = %80, %18
  %82 = phi i32 [ %61, %80 ], [ %20, %18 ]
  call void @_ZN9SkPDFDict9insertRefEPKc22SkPDFIndirectReference(%class.SkPDFDict* nonnull %12, i8* getelementptr inbounds ([3 x i8], [3 x i8]* @.str.13, i64 0, i64 0), i32 %82) #9
  br label %83

83:                                               ; preds = %81, %17
  %84 = bitcast %class.SkPDFDict* %9 to i8*
  call void @llvm.lifetime.start.p0i8(i64 32, i8* nonnull %84) #9
  %85 = bitcast %class.SkPDFDict* %9 to i8*
  call void @llvm.memset.p0i8.i64(i8* nonnull align 8 %85, i8 -86, i64 32, i1 false)
  call void @_ZN9SkPDFDictC1EPKc(%class.SkPDFDict* nonnull %9, i8* getelementptr inbounds ([10 x i8], [10 x i8]* @.str.14, i64 0, i64 0)) #9
  %86 = bitcast %"class.std::__1::unique_ptr.202"* %10 to i8*
  call void @llvm.lifetime.start.p0i8(i64 8, i8* nonnull %86) #9
  %87 = bitcast %"class.std::__1::unique_ptr.202"* %10 to i64*
  store i64 %13, i64* %87, align 8
  call void @_ZN9SkPDFDict12insertObjectEPKcONSt3__110unique_ptrI11SkPDFObjectNS2_14default_deleteIS4_EEEE(%class.SkPDFDict* nonnull %9, i8* getelementptr inbounds ([6 x i8], [6 x i8]* @.str.15, i64 0, i64 0), %"class.std::__1::unique_ptr.202"* nonnull dereferenceable(8) %10) #9
  %88 = getelementptr inbounds %"class.std::__1::unique_ptr.202", %"class.std::__1::unique_ptr.202"* %10, i64 0, i32 0, i32 0, i32 0
  %89 = load %class.SkPDFObject*, %class.SkPDFObject** %88, align 8
  store %class.SkPDFObject* null, %class.SkPDFObject** %88, align 8
  %90 = icmp eq %class.SkPDFObject* %89, null
  br i1 %90, label %96, label %91

91:                                               ; preds = %83
  %92 = bitcast %class.SkPDFObject* %89 to void (%class.SkPDFObject*)***
  %93 = load void (%class.SkPDFObject*)**, void (%class.SkPDFObject*)*** %92, align 8
  %94 = getelementptr inbounds void (%class.SkPDFObject*)*, void (%class.SkPDFObject*)** %93, i64 2
  %95 = load void (%class.SkPDFObject*)*, void (%class.SkPDFObject*)** %94, align 8
  call void %95(%class.SkPDFObject* nonnull %89) #9
  br label %96

96:                                               ; preds = %91, %83
  call void @llvm.lifetime.end.p0i8(i64 8, i8* nonnull %86) #9
  %97 = getelementptr inbounds %class.SkPDFDict, %class.SkPDFDict* %9, i64 0, i32 0
  %98 = getelementptr inbounds %class.SkPDFDocument, %class.SkPDFDocument* %3, i64 0, i32 21, i32 0, i32 0, i32 0, i32 0, i32 0
  %99 = atomicrmw add i32* %98, i32 1 seq_cst
  %100 = call i32 @_ZN13SkPDFDocument4emitERK11SkPDFObject22SkPDFIndirectReference(%class.SkPDFDocument* %3, %class.SkPDFObject* nonnull dereferenceable(8) %97, i32 %99) #9
  call void @_ZN9SkPDFDictD1Ev(%class.SkPDFDict* nonnull %9) #9
  call void @llvm.lifetime.end.p0i8(i64 32, i8* nonnull %84) #9
  ret i32 %100
}

declare void @_ZN9SkPDFDict9insertRefEPKc22SkPDFIndirectReference(%class.SkPDFDict*, i8*, i32) local_unnamed_addr #2

; Function Attrs: argmemonly nounwind
declare void @llvm.memset.p0i8.i64(i8* nocapture writeonly, i8, i64, i1 immarg) #1

declare void @_ZN9SkPDFDict12insertObjectEPKcONSt3__110unique_ptrI11SkPDFObjectNS2_14default_deleteIS4_EEEE(%class.SkPDFDict*, i8*, %"class.std::__1::unique_ptr.202"* dereferenceable(8)) local_unnamed_addr #2

declare i8* @_ZN10SkPDFUtils13BlendModeNameE11SkBlendMode(i32) local_unnamed_addr #2

declare i32 @_ZN13SkPDFDocument4emitERK11SkPDFObject22SkPDFIndirectReference(%class.SkPDFDocument*, %class.SkPDFObject* dereferenceable(8), i32) local_unnamed_addr #2

; Function Attrs: nobuiltin nofree
declare noalias nonnull i8* @_Znwm(i64) local_unnamed_addr #5

declare i32 @_Z14SkPDFStreamOutNSt3__110unique_ptrI9SkPDFDictNS_14default_deleteIS1_EEEENS0_I13SkStreamAssetNS2_IS5_EEEEP13SkPDFDocumentb(%class.SkPDFDict*, %class.SkStreamAsset*, %class.SkPDFDocument*, i1 zeroext) local_unnamed_addr #2

declare %class.SkMemoryStream* @_ZN14SkMemoryStream4MakeE5sk_spI6SkDataE(%class.sk_sp*) local_unnamed_addr #2

declare void @_ZN6SkData12MakeWithProcEPKvmPFvS1_PvES2_(%class.sk_sp* sret, i8*, i64, void (i8*, i8*)*, i8*) local_unnamed_addr #2

declare void @_ZN6SkData16DummyReleaseProcEPKvPv(i8*, i8*) #2

declare void @_ZN10SkPDFArrayC1Ev(%class.SkPDFArray*) unnamed_addr #2

declare void @_ZN10SkPDFArray7reserveEi(%class.SkPDFArray*, i32) local_unnamed_addr #2

declare void @_ZN10SkPDFArray9appendIntEi(%class.SkPDFArray*, i32) local_unnamed_addr #2

; Function Attrs: nounwind
declare void @_ZN6SkDataD1Ev(%class.SkData*) unnamed_addr #3

; Function Attrs: nounwind
declare void @_ZN6SkDatadlEPv(i8*) local_unnamed_addr #3

; Function Attrs: nounwind ssp uwtable
define linkonce_odr hidden void @_ZN12SkTHashTableIN10SkTHashMapI21SkPDFFillGraphicState22SkPDFIndirectReference10SkGoodHashE4PairES1_S5_E6resizeEi(%class.SkTHashTable.75*, i32) local_unnamed_addr #4 comdat align 2 {
  %3 = getelementptr inbounds %class.SkTHashTable.75, %class.SkTHashTable.75* %0, i64 0, i32 1
  %4 = load i32, i32* %3, align 4
  %5 = getelementptr inbounds %class.SkTHashTable.75, %class.SkTHashTable.75* %0, i64 0, i32 0
  store i32 0, i32* %5, align 8
  store i32 %1, i32* %3, align 4
  %6 = getelementptr inbounds %class.SkTHashTable.75, %class.SkTHashTable.75* %0, i64 0, i32 2
  %7 = getelementptr inbounds %class.SkAutoTArray.76, %class.SkAutoTArray.76* %6, i64 0, i32 0, i32 0, i32 0, i32 0
  %8 = bitcast %class.SkAutoTArray.76* %6 to i64*
  %9 = load i64, i64* %8, align 8
  store %"struct.SkTHashTable<SkTHashMap<SkPDFFillGraphicState, SkPDFIndirectReference, SkGoodHash>::Pair, SkPDFFillGraphicState, SkTHashMap<SkPDFFillGraphicState, SkPDFIndirectReference, SkGoodHash>::Pair>::Slot"* null, %"struct.SkTHashTable<SkTHashMap<SkPDFFillGraphicState, SkPDFIndirectReference, SkGoodHash>::Pair, SkPDFFillGraphicState, SkTHashMap<SkPDFFillGraphicState, SkPDFIndirectReference, SkGoodHash>::Pair>::Slot"** %7, align 8
  %10 = icmp eq i32 %1, 0
  br i1 %10, label %11, label %12

11:                                               ; preds = %2
  store i64 0, i64* %8, align 8
  br label %80

12:                                               ; preds = %2
  %13 = sext i32 %1 to i64
  %14 = tail call { i64, i1 } @llvm.umul.with.overflow.i64(i64 %13, i64 16) #9
  %15 = extractvalue { i64, i1 } %14, 1
  %16 = extractvalue { i64, i1 } %14, 0
  %17 = select i1 %15, i64 -1, i64 %16
  %18 = tail call i8* @_Znam(i64 %17) #10
  %19 = bitcast i8* %18 to %"struct.SkTHashTable<SkTHashMap<SkPDFFillGraphicState, SkPDFIndirectReference, SkGoodHash>::Pair, SkPDFFillGraphicState, SkTHashMap<SkPDFFillGraphicState, SkPDFIndirectReference, SkGoodHash>::Pair>::Slot"*
  %20 = getelementptr inbounds %"struct.SkTHashTable<SkTHashMap<SkPDFFillGraphicState, SkPDFIndirectReference, SkGoodHash>::Pair, SkPDFFillGraphicState, SkTHashMap<SkPDFFillGraphicState, SkPDFIndirectReference, SkGoodHash>::Pair>::Slot", %"struct.SkTHashTable<SkTHashMap<SkPDFFillGraphicState, SkPDFIndirectReference, SkGoodHash>::Pair, SkPDFFillGraphicState, SkTHashMap<SkPDFFillGraphicState, SkPDFIndirectReference, SkGoodHash>::Pair>::Slot"* %19, i64 %13
  %21 = shl nsw i64 %13, 4
  %22 = add nsw i64 %21, -16
  %23 = lshr exact i64 %22, 4
  %24 = add nuw nsw i64 %23, 1
  %25 = and i64 %24, 7
  %26 = icmp eq i64 %25, 0
  br i1 %26, label %36, label %27

27:                                               ; preds = %12, %27
  %28 = phi %"struct.SkTHashTable<SkTHashMap<SkPDFFillGraphicState, SkPDFIndirectReference, SkGoodHash>::Pair, SkPDFFillGraphicState, SkTHashMap<SkPDFFillGraphicState, SkPDFIndirectReference, SkGoodHash>::Pair>::Slot"* [ %33, %27 ], [ %19, %12 ]
  %29 = phi i64 [ %34, %27 ], [ %25, %12 ]
  %30 = getelementptr inbounds %"struct.SkTHashTable<SkTHashMap<SkPDFFillGraphicState, SkPDFIndirectReference, SkGoodHash>::Pair, SkPDFFillGraphicState, SkTHashMap<SkPDFFillGraphicState, SkPDFIndirectReference, SkGoodHash>::Pair>::Slot", %"struct.SkTHashTable<SkTHashMap<SkPDFFillGraphicState, SkPDFIndirectReference, SkGoodHash>::Pair, SkPDFFillGraphicState, SkTHashMap<SkPDFFillGraphicState, SkPDFIndirectReference, SkGoodHash>::Pair>::Slot"* %28, i64 0, i32 0, i32 0, i32 1, i32 0
  %31 = bitcast %"struct.SkTHashTable<SkTHashMap<SkPDFFillGraphicState, SkPDFIndirectReference, SkGoodHash>::Pair, SkPDFFillGraphicState, SkTHashMap<SkPDFFillGraphicState, SkPDFIndirectReference, SkGoodHash>::Pair>::Slot"* %28 to i64*
  store i64 0, i64* %31, align 4
  store i32 -1, i32* %30, align 4
  %32 = getelementptr inbounds %"struct.SkTHashTable<SkTHashMap<SkPDFFillGraphicState, SkPDFIndirectReference, SkGoodHash>::Pair, SkPDFFillGraphicState, SkTHashMap<SkPDFFillGraphicState, SkPDFIndirectReference, SkGoodHash>::Pair>::Slot", %"struct.SkTHashTable<SkTHashMap<SkPDFFillGraphicState, SkPDFIndirectReference, SkGoodHash>::Pair, SkPDFFillGraphicState, SkTHashMap<SkPDFFillGraphicState, SkPDFIndirectReference, SkGoodHash>::Pair>::Slot"* %28, i64 0, i32 1
  store i32 0, i32* %32, align 4
  %33 = getelementptr inbounds %"struct.SkTHashTable<SkTHashMap<SkPDFFillGraphicState, SkPDFIndirectReference, SkGoodHash>::Pair, SkPDFFillGraphicState, SkTHashMap<SkPDFFillGraphicState, SkPDFIndirectReference, SkGoodHash>::Pair>::Slot", %"struct.SkTHashTable<SkTHashMap<SkPDFFillGraphicState, SkPDFIndirectReference, SkGoodHash>::Pair, SkPDFFillGraphicState, SkTHashMap<SkPDFFillGraphicState, SkPDFIndirectReference, SkGoodHash>::Pair>::Slot"* %28, i64 1
  %34 = add i64 %29, -1
  %35 = icmp eq i64 %34, 0
  br i1 %35, label %36, label %27, !llvm.loop !2

36:                                               ; preds = %27, %12
  %37 = phi %"struct.SkTHashTable<SkTHashMap<SkPDFFillGraphicState, SkPDFIndirectReference, SkGoodHash>::Pair, SkPDFFillGraphicState, SkTHashMap<SkPDFFillGraphicState, SkPDFIndirectReference, SkGoodHash>::Pair>::Slot"* [ %19, %12 ], [ %33, %27 ]
  %38 = icmp ult i64 %22, 112
  br i1 %38, label %74, label %39

39:                                               ; preds = %36, %39
  %40 = phi %"struct.SkTHashTable<SkTHashMap<SkPDFFillGraphicState, SkPDFIndirectReference, SkGoodHash>::Pair, SkPDFFillGraphicState, SkTHashMap<SkPDFFillGraphicState, SkPDFIndirectReference, SkGoodHash>::Pair>::Slot"* [ %72, %39 ], [ %37, %36 ]
  %41 = getelementptr inbounds %"struct.SkTHashTable<SkTHashMap<SkPDFFillGraphicState, SkPDFIndirectReference, SkGoodHash>::Pair, SkPDFFillGraphicState, SkTHashMap<SkPDFFillGraphicState, SkPDFIndirectReference, SkGoodHash>::Pair>::Slot", %"struct.SkTHashTable<SkTHashMap<SkPDFFillGraphicState, SkPDFIndirectReference, SkGoodHash>::Pair, SkPDFFillGraphicState, SkTHashMap<SkPDFFillGraphicState, SkPDFIndirectReference, SkGoodHash>::Pair>::Slot"* %40, i64 0, i32 0, i32 0, i32 1, i32 0
  %42 = bitcast %"struct.SkTHashTable<SkTHashMap<SkPDFFillGraphicState, SkPDFIndirectReference, SkGoodHash>::Pair, SkPDFFillGraphicState, SkTHashMap<SkPDFFillGraphicState, SkPDFIndirectReference, SkGoodHash>::Pair>::Slot"* %40 to i64*
  store i64 0, i64* %42, align 4
  store i32 -1, i32* %41, align 4
  %43 = getelementptr inbounds %"struct.SkTHashTable<SkTHashMap<SkPDFFillGraphicState, SkPDFIndirectReference, SkGoodHash>::Pair, SkPDFFillGraphicState, SkTHashMap<SkPDFFillGraphicState, SkPDFIndirectReference, SkGoodHash>::Pair>::Slot", %"struct.SkTHashTable<SkTHashMap<SkPDFFillGraphicState, SkPDFIndirectReference, SkGoodHash>::Pair, SkPDFFillGraphicState, SkTHashMap<SkPDFFillGraphicState, SkPDFIndirectReference, SkGoodHash>::Pair>::Slot"* %40, i64 0, i32 1
  store i32 0, i32* %43, align 4
  %44 = getelementptr inbounds %"struct.SkTHashTable<SkTHashMap<SkPDFFillGraphicState, SkPDFIndirectReference, SkGoodHash>::Pair, SkPDFFillGraphicState, SkTHashMap<SkPDFFillGraphicState, SkPDFIndirectReference, SkGoodHash>::Pair>::Slot", %"struct.SkTHashTable<SkTHashMap<SkPDFFillGraphicState, SkPDFIndirectReference, SkGoodHash>::Pair, SkPDFFillGraphicState, SkTHashMap<SkPDFFillGraphicState, SkPDFIndirectReference, SkGoodHash>::Pair>::Slot"* %40, i64 1
  %45 = getelementptr inbounds %"struct.SkTHashTable<SkTHashMap<SkPDFFillGraphicState, SkPDFIndirectReference, SkGoodHash>::Pair, SkPDFFillGraphicState, SkTHashMap<SkPDFFillGraphicState, SkPDFIndirectReference, SkGoodHash>::Pair>::Slot", %"struct.SkTHashTable<SkTHashMap<SkPDFFillGraphicState, SkPDFIndirectReference, SkGoodHash>::Pair, SkPDFFillGraphicState, SkTHashMap<SkPDFFillGraphicState, SkPDFIndirectReference, SkGoodHash>::Pair>::Slot"* %40, i64 1, i32 0, i32 0, i32 1, i32 0
  %46 = bitcast %"struct.SkTHashTable<SkTHashMap<SkPDFFillGraphicState, SkPDFIndirectReference, SkGoodHash>::Pair, SkPDFFillGraphicState, SkTHashMap<SkPDFFillGraphicState, SkPDFIndirectReference, SkGoodHash>::Pair>::Slot"* %44 to i64*
  store i64 0, i64* %46, align 4
  store i32 -1, i32* %45, align 4
  %47 = getelementptr inbounds %"struct.SkTHashTable<SkTHashMap<SkPDFFillGraphicState, SkPDFIndirectReference, SkGoodHash>::Pair, SkPDFFillGraphicState, SkTHashMap<SkPDFFillGraphicState, SkPDFIndirectReference, SkGoodHash>::Pair>::Slot", %"struct.SkTHashTable<SkTHashMap<SkPDFFillGraphicState, SkPDFIndirectReference, SkGoodHash>::Pair, SkPDFFillGraphicState, SkTHashMap<SkPDFFillGraphicState, SkPDFIndirectReference, SkGoodHash>::Pair>::Slot"* %40, i64 1, i32 1
  store i32 0, i32* %47, align 4
  %48 = getelementptr inbounds %"struct.SkTHashTable<SkTHashMap<SkPDFFillGraphicState, SkPDFIndirectReference, SkGoodHash>::Pair, SkPDFFillGraphicState, SkTHashMap<SkPDFFillGraphicState, SkPDFIndirectReference, SkGoodHash>::Pair>::Slot", %"struct.SkTHashTable<SkTHashMap<SkPDFFillGraphicState, SkPDFIndirectReference, SkGoodHash>::Pair, SkPDFFillGraphicState, SkTHashMap<SkPDFFillGraphicState, SkPDFIndirectReference, SkGoodHash>::Pair>::Slot"* %40, i64 2
  %49 = getelementptr inbounds %"struct.SkTHashTable<SkTHashMap<SkPDFFillGraphicState, SkPDFIndirectReference, SkGoodHash>::Pair, SkPDFFillGraphicState, SkTHashMap<SkPDFFillGraphicState, SkPDFIndirectReference, SkGoodHash>::Pair>::Slot", %"struct.SkTHashTable<SkTHashMap<SkPDFFillGraphicState, SkPDFIndirectReference, SkGoodHash>::Pair, SkPDFFillGraphicState, SkTHashMap<SkPDFFillGraphicState, SkPDFIndirectReference, SkGoodHash>::Pair>::Slot"* %40, i64 2, i32 0, i32 0, i32 1, i32 0
  %50 = bitcast %"struct.SkTHashTable<SkTHashMap<SkPDFFillGraphicState, SkPDFIndirectReference, SkGoodHash>::Pair, SkPDFFillGraphicState, SkTHashMap<SkPDFFillGraphicState, SkPDFIndirectReference, SkGoodHash>::Pair>::Slot"* %48 to i64*
  store i64 0, i64* %50, align 4
  store i32 -1, i32* %49, align 4
  %51 = getelementptr inbounds %"struct.SkTHashTable<SkTHashMap<SkPDFFillGraphicState, SkPDFIndirectReference, SkGoodHash>::Pair, SkPDFFillGraphicState, SkTHashMap<SkPDFFillGraphicState, SkPDFIndirectReference, SkGoodHash>::Pair>::Slot", %"struct.SkTHashTable<SkTHashMap<SkPDFFillGraphicState, SkPDFIndirectReference, SkGoodHash>::Pair, SkPDFFillGraphicState, SkTHashMap<SkPDFFillGraphicState, SkPDFIndirectReference, SkGoodHash>::Pair>::Slot"* %40, i64 2, i32 1
  store i32 0, i32* %51, align 4
  %52 = getelementptr inbounds %"struct.SkTHashTable<SkTHashMap<SkPDFFillGraphicState, SkPDFIndirectReference, SkGoodHash>::Pair, SkPDFFillGraphicState, SkTHashMap<SkPDFFillGraphicState, SkPDFIndirectReference, SkGoodHash>::Pair>::Slot", %"struct.SkTHashTable<SkTHashMap<SkPDFFillGraphicState, SkPDFIndirectReference, SkGoodHash>::Pair, SkPDFFillGraphicState, SkTHashMap<SkPDFFillGraphicState, SkPDFIndirectReference, SkGoodHash>::Pair>::Slot"* %40, i64 3
  %53 = getelementptr inbounds %"struct.SkTHashTable<SkTHashMap<SkPDFFillGraphicState, SkPDFIndirectReference, SkGoodHash>::Pair, SkPDFFillGraphicState, SkTHashMap<SkPDFFillGraphicState, SkPDFIndirectReference, SkGoodHash>::Pair>::Slot", %"struct.SkTHashTable<SkTHashMap<SkPDFFillGraphicState, SkPDFIndirectReference, SkGoodHash>::Pair, SkPDFFillGraphicState, SkTHashMap<SkPDFFillGraphicState, SkPDFIndirectReference, SkGoodHash>::Pair>::Slot"* %40, i64 3, i32 0, i32 0, i32 1, i32 0
  %54 = bitcast %"struct.SkTHashTable<SkTHashMap<SkPDFFillGraphicState, SkPDFIndirectReference, SkGoodHash>::Pair, SkPDFFillGraphicState, SkTHashMap<SkPDFFillGraphicState, SkPDFIndirectReference, SkGoodHash>::Pair>::Slot"* %52 to i64*
  store i64 0, i64* %54, align 4
  store i32 -1, i32* %53, align 4
  %55 = getelementptr inbounds %"struct.SkTHashTable<SkTHashMap<SkPDFFillGraphicState, SkPDFIndirectReference, SkGoodHash>::Pair, SkPDFFillGraphicState, SkTHashMap<SkPDFFillGraphicState, SkPDFIndirectReference, SkGoodHash>::Pair>::Slot", %"struct.SkTHashTable<SkTHashMap<SkPDFFillGraphicState, SkPDFIndirectReference, SkGoodHash>::Pair, SkPDFFillGraphicState, SkTHashMap<SkPDFFillGraphicState, SkPDFIndirectReference, SkGoodHash>::Pair>::Slot"* %40, i64 3, i32 1
  store i32 0, i32* %55, align 4
  %56 = getelementptr inbounds %"struct.SkTHashTable<SkTHashMap<SkPDFFillGraphicState, SkPDFIndirectReference, SkGoodHash>::Pair, SkPDFFillGraphicState, SkTHashMap<SkPDFFillGraphicState, SkPDFIndirectReference, SkGoodHash>::Pair>::Slot", %"struct.SkTHashTable<SkTHashMap<SkPDFFillGraphicState, SkPDFIndirectReference, SkGoodHash>::Pair, SkPDFFillGraphicState, SkTHashMap<SkPDFFillGraphicState, SkPDFIndirectReference, SkGoodHash>::Pair>::Slot"* %40, i64 4
  %57 = getelementptr inbounds %"struct.SkTHashTable<SkTHashMap<SkPDFFillGraphicState, SkPDFIndirectReference, SkGoodHash>::Pair, SkPDFFillGraphicState, SkTHashMap<SkPDFFillGraphicState, SkPDFIndirectReference, SkGoodHash>::Pair>::Slot", %"struct.SkTHashTable<SkTHashMap<SkPDFFillGraphicState, SkPDFIndirectReference, SkGoodHash>::Pair, SkPDFFillGraphicState, SkTHashMap<SkPDFFillGraphicState, SkPDFIndirectReference, SkGoodHash>::Pair>::Slot"* %40, i64 4, i32 0, i32 0, i32 1, i32 0
  %58 = bitcast %"struct.SkTHashTable<SkTHashMap<SkPDFFillGraphicState, SkPDFIndirectReference, SkGoodHash>::Pair, SkPDFFillGraphicState, SkTHashMap<SkPDFFillGraphicState, SkPDFIndirectReference, SkGoodHash>::Pair>::Slot"* %56 to i64*
  store i64 0, i64* %58, align 4
  store i32 -1, i32* %57, align 4
  %59 = getelementptr inbounds %"struct.SkTHashTable<SkTHashMap<SkPDFFillGraphicState, SkPDFIndirectReference, SkGoodHash>::Pair, SkPDFFillGraphicState, SkTHashMap<SkPDFFillGraphicState, SkPDFIndirectReference, SkGoodHash>::Pair>::Slot", %"struct.SkTHashTable<SkTHashMap<SkPDFFillGraphicState, SkPDFIndirectReference, SkGoodHash>::Pair, SkPDFFillGraphicState, SkTHashMap<SkPDFFillGraphicState, SkPDFIndirectReference, SkGoodHash>::Pair>::Slot"* %40, i64 4, i32 1
  store i32 0, i32* %59, align 4
  %60 = getelementptr inbounds %"struct.SkTHashTable<SkTHashMap<SkPDFFillGraphicState, SkPDFIndirectReference, SkGoodHash>::Pair, SkPDFFillGraphicState, SkTHashMap<SkPDFFillGraphicState, SkPDFIndirectReference, SkGoodHash>::Pair>::Slot", %"struct.SkTHashTable<SkTHashMap<SkPDFFillGraphicState, SkPDFIndirectReference, SkGoodHash>::Pair, SkPDFFillGraphicState, SkTHashMap<SkPDFFillGraphicState, SkPDFIndirectReference, SkGoodHash>::Pair>::Slot"* %40, i64 5
  %61 = getelementptr inbounds %"struct.SkTHashTable<SkTHashMap<SkPDFFillGraphicState, SkPDFIndirectReference, SkGoodHash>::Pair, SkPDFFillGraphicState, SkTHashMap<SkPDFFillGraphicState, SkPDFIndirectReference, SkGoodHash>::Pair>::Slot", %"struct.SkTHashTable<SkTHashMap<SkPDFFillGraphicState, SkPDFIndirectReference, SkGoodHash>::Pair, SkPDFFillGraphicState, SkTHashMap<SkPDFFillGraphicState, SkPDFIndirectReference, SkGoodHash>::Pair>::Slot"* %40, i64 5, i32 0, i32 0, i32 1, i32 0
  %62 = bitcast %"struct.SkTHashTable<SkTHashMap<SkPDFFillGraphicState, SkPDFIndirectReference, SkGoodHash>::Pair, SkPDFFillGraphicState, SkTHashMap<SkPDFFillGraphicState, SkPDFIndirectReference, SkGoodHash>::Pair>::Slot"* %60 to i64*
  store i64 0, i64* %62, align 4
  store i32 -1, i32* %61, align 4
  %63 = getelementptr inbounds %"struct.SkTHashTable<SkTHashMap<SkPDFFillGraphicState, SkPDFIndirectReference, SkGoodHash>::Pair, SkPDFFillGraphicState, SkTHashMap<SkPDFFillGraphicState, SkPDFIndirectReference, SkGoodHash>::Pair>::Slot", %"struct.SkTHashTable<SkTHashMap<SkPDFFillGraphicState, SkPDFIndirectReference, SkGoodHash>::Pair, SkPDFFillGraphicState, SkTHashMap<SkPDFFillGraphicState, SkPDFIndirectReference, SkGoodHash>::Pair>::Slot"* %40, i64 5, i32 1
  store i32 0, i32* %63, align 4
  %64 = getelementptr inbounds %"struct.SkTHashTable<SkTHashMap<SkPDFFillGraphicState, SkPDFIndirectReference, SkGoodHash>::Pair, SkPDFFillGraphicState, SkTHashMap<SkPDFFillGraphicState, SkPDFIndirectReference, SkGoodHash>::Pair>::Slot", %"struct.SkTHashTable<SkTHashMap<SkPDFFillGraphicState, SkPDFIndirectReference, SkGoodHash>::Pair, SkPDFFillGraphicState, SkTHashMap<SkPDFFillGraphicState, SkPDFIndirectReference, SkGoodHash>::Pair>::Slot"* %40, i64 6
  %65 = getelementptr inbounds %"struct.SkTHashTable<SkTHashMap<SkPDFFillGraphicState, SkPDFIndirectReference, SkGoodHash>::Pair, SkPDFFillGraphicState, SkTHashMap<SkPDFFillGraphicState, SkPDFIndirectReference, SkGoodHash>::Pair>::Slot", %"struct.SkTHashTable<SkTHashMap<SkPDFFillGraphicState, SkPDFIndirectReference, SkGoodHash>::Pair, SkPDFFillGraphicState, SkTHashMap<SkPDFFillGraphicState, SkPDFIndirectReference, SkGoodHash>::Pair>::Slot"* %40, i64 6, i32 0, i32 0, i32 1, i32 0
  %66 = bitcast %"struct.SkTHashTable<SkTHashMap<SkPDFFillGraphicState, SkPDFIndirectReference, SkGoodHash>::Pair, SkPDFFillGraphicState, SkTHashMap<SkPDFFillGraphicState, SkPDFIndirectReference, SkGoodHash>::Pair>::Slot"* %64 to i64*
  store i64 0, i64* %66, align 4
  store i32 -1, i32* %65, align 4
  %67 = getelementptr inbounds %"struct.SkTHashTable<SkTHashMap<SkPDFFillGraphicState, SkPDFIndirectReference, SkGoodHash>::Pair, SkPDFFillGraphicState, SkTHashMap<SkPDFFillGraphicState, SkPDFIndirectReference, SkGoodHash>::Pair>::Slot", %"struct.SkTHashTable<SkTHashMap<SkPDFFillGraphicState, SkPDFIndirectReference, SkGoodHash>::Pair, SkPDFFillGraphicState, SkTHashMap<SkPDFFillGraphicState, SkPDFIndirectReference, SkGoodHash>::Pair>::Slot"* %40, i64 6, i32 1
  store i32 0, i32* %67, align 4
  %68 = getelementptr inbounds %"struct.SkTHashTable<SkTHashMap<SkPDFFillGraphicState, SkPDFIndirectReference, SkGoodHash>::Pair, SkPDFFillGraphicState, SkTHashMap<SkPDFFillGraphicState, SkPDFIndirectReference, SkGoodHash>::Pair>::Slot", %"struct.SkTHashTable<SkTHashMap<SkPDFFillGraphicState, SkPDFIndirectReference, SkGoodHash>::Pair, SkPDFFillGraphicState, SkTHashMap<SkPDFFillGraphicState, SkPDFIndirectReference, SkGoodHash>::Pair>::Slot"* %40, i64 7
  %69 = getelementptr inbounds %"struct.SkTHashTable<SkTHashMap<SkPDFFillGraphicState, SkPDFIndirectReference, SkGoodHash>::Pair, SkPDFFillGraphicState, SkTHashMap<SkPDFFillGraphicState, SkPDFIndirectReference, SkGoodHash>::Pair>::Slot", %"struct.SkTHashTable<SkTHashMap<SkPDFFillGraphicState, SkPDFIndirectReference, SkGoodHash>::Pair, SkPDFFillGraphicState, SkTHashMap<SkPDFFillGraphicState, SkPDFIndirectReference, SkGoodHash>::Pair>::Slot"* %40, i64 7, i32 0, i32 0, i32 1, i32 0
  %70 = bitcast %"struct.SkTHashTable<SkTHashMap<SkPDFFillGraphicState, SkPDFIndirectReference, SkGoodHash>::Pair, SkPDFFillGraphicState, SkTHashMap<SkPDFFillGraphicState, SkPDFIndirectReference, SkGoodHash>::Pair>::Slot"* %68 to i64*
  store i64 0, i64* %70, align 4
  store i32 -1, i32* %69, align 4
  %71 = getelementptr inbounds %"struct.SkTHashTable<SkTHashMap<SkPDFFillGraphicState, SkPDFIndirectReference, SkGoodHash>::Pair, SkPDFFillGraphicState, SkTHashMap<SkPDFFillGraphicState, SkPDFIndirectReference, SkGoodHash>::Pair>::Slot", %"struct.SkTHashTable<SkTHashMap<SkPDFFillGraphicState, SkPDFIndirectReference, SkGoodHash>::Pair, SkPDFFillGraphicState, SkTHashMap<SkPDFFillGraphicState, SkPDFIndirectReference, SkGoodHash>::Pair>::Slot"* %40, i64 7, i32 1
  store i32 0, i32* %71, align 4
  %72 = getelementptr inbounds %"struct.SkTHashTable<SkTHashMap<SkPDFFillGraphicState, SkPDFIndirectReference, SkGoodHash>::Pair, SkPDFFillGraphicState, SkTHashMap<SkPDFFillGraphicState, SkPDFIndirectReference, SkGoodHash>::Pair>::Slot", %"struct.SkTHashTable<SkTHashMap<SkPDFFillGraphicState, SkPDFIndirectReference, SkGoodHash>::Pair, SkPDFFillGraphicState, SkTHashMap<SkPDFFillGraphicState, SkPDFIndirectReference, SkGoodHash>::Pair>::Slot"* %40, i64 8
  %73 = icmp eq %"struct.SkTHashTable<SkTHashMap<SkPDFFillGraphicState, SkPDFIndirectReference, SkGoodHash>::Pair, SkPDFFillGraphicState, SkTHashMap<SkPDFFillGraphicState, SkPDFIndirectReference, SkGoodHash>::Pair>::Slot"* %72, %20
  br i1 %73, label %74, label %39

74:                                               ; preds = %39, %36
  %75 = ptrtoint i8* %18 to i64
  %76 = load %"struct.SkTHashTable<SkTHashMap<SkPDFFillGraphicState, SkPDFIndirectReference, SkGoodHash>::Pair, SkPDFFillGraphicState, SkTHashMap<SkPDFFillGraphicState, SkPDFIndirectReference, SkGoodHash>::Pair>::Slot"*, %"struct.SkTHashTable<SkTHashMap<SkPDFFillGraphicState, SkPDFIndirectReference, SkGoodHash>::Pair, SkPDFFillGraphicState, SkTHashMap<SkPDFFillGraphicState, SkPDFIndirectReference, SkGoodHash>::Pair>::Slot"** %7, align 8
  %77 = icmp eq %"struct.SkTHashTable<SkTHashMap<SkPDFFillGraphicState, SkPDFIndirectReference, SkGoodHash>::Pair, SkPDFFillGraphicState, SkTHashMap<SkPDFFillGraphicState, SkPDFIndirectReference, SkGoodHash>::Pair>::Slot"* %76, null
  store i64 %75, i64* %8, align 8
  br i1 %77, label %80, label %78

78:                                               ; preds = %74
  %79 = bitcast %"struct.SkTHashTable<SkTHashMap<SkPDFFillGraphicState, SkPDFIndirectReference, SkGoodHash>::Pair, SkPDFFillGraphicState, SkTHashMap<SkPDFFillGraphicState, SkPDFIndirectReference, SkGoodHash>::Pair>::Slot"* %76 to i8*
  tail call void @_ZdaPv(i8* %79) #10
  br label %80

80:                                               ; preds = %78, %74, %11
  %81 = icmp sgt i32 %4, 0
  br i1 %81, label %82, label %85

82:                                               ; preds = %80
  %83 = inttoptr i64 %9 to %"struct.SkTHashTable<SkTHashMap<SkPDFFillGraphicState, SkPDFIndirectReference, SkGoodHash>::Pair, SkPDFFillGraphicState, SkTHashMap<SkPDFFillGraphicState, SkPDFIndirectReference, SkGoodHash>::Pair>::Slot"*
  %84 = zext i32 %4 to i64
  br label %90

85:                                               ; preds = %98, %80
  %86 = icmp eq i64 %9, 0
  br i1 %86, label %89, label %87

87:                                               ; preds = %85
  %88 = inttoptr i64 %9 to i8*
  tail call void @_ZdaPv(i8* %88) #10
  br label %89

89:                                               ; preds = %85, %87
  ret void

90:                                               ; preds = %98, %82
  %91 = phi i64 [ 0, %82 ], [ %99, %98 ]
  %92 = getelementptr inbounds %"struct.SkTHashTable<SkTHashMap<SkPDFFillGraphicState, SkPDFIndirectReference, SkGoodHash>::Pair, SkPDFFillGraphicState, SkTHashMap<SkPDFFillGraphicState, SkPDFIndirectReference, SkGoodHash>::Pair>::Slot", %"struct.SkTHashTable<SkTHashMap<SkPDFFillGraphicState, SkPDFIndirectReference, SkGoodHash>::Pair, SkPDFFillGraphicState, SkTHashMap<SkPDFFillGraphicState, SkPDFIndirectReference, SkGoodHash>::Pair>::Slot"* %83, i64 %91, i32 1
  %93 = load i32, i32* %92, align 4
  %94 = icmp eq i32 %93, 0
  br i1 %94, label %98, label %95

95:                                               ; preds = %90
  %96 = getelementptr inbounds %"struct.SkTHashTable<SkTHashMap<SkPDFFillGraphicState, SkPDFIndirectReference, SkGoodHash>::Pair, SkPDFFillGraphicState, SkTHashMap<SkPDFFillGraphicState, SkPDFIndirectReference, SkGoodHash>::Pair>::Slot", %"struct.SkTHashTable<SkTHashMap<SkPDFFillGraphicState, SkPDFIndirectReference, SkGoodHash>::Pair, SkPDFFillGraphicState, SkTHashMap<SkPDFFillGraphicState, SkPDFIndirectReference, SkGoodHash>::Pair>::Slot"* %83, i64 %91, i32 0
  %97 = tail call %"struct.SkTHashMap<SkPDFFillGraphicState, SkPDFIndirectReference, SkGoodHash>::Pair"* @_ZN12SkTHashTableIN10SkTHashMapI21SkPDFFillGraphicState22SkPDFIndirectReference10SkGoodHashE4PairES1_S5_E12uncheckedSetEOS5_(%class.SkTHashTable.75* %0, %"struct.SkTHashMap<SkPDFFillGraphicState, SkPDFIndirectReference, SkGoodHash>::Pair"* dereferenceable(12) %96)
  br label %98

98:                                               ; preds = %95, %90
  %99 = add nuw nsw i64 %91, 1
  %100 = icmp eq i64 %99, %84
  br i1 %100, label %85, label %90
}

; Function Attrs: nounwind ssp uwtable
define linkonce_odr hidden %"struct.SkTHashMap<SkPDFFillGraphicState, SkPDFIndirectReference, SkGoodHash>::Pair"* @_ZN12SkTHashTableIN10SkTHashMapI21SkPDFFillGraphicState22SkPDFIndirectReference10SkGoodHashE4PairES1_S5_E12uncheckedSetEOS5_(%class.SkTHashTable.75*, %"struct.SkTHashMap<SkPDFFillGraphicState, SkPDFIndirectReference, SkGoodHash>::Pair"* dereferenceable(12)) local_unnamed_addr #4 comdat align 2 {
  %3 = load i32 (i8*, i64, i32)*, i32 (i8*, i64, i32)** @_ZN6SkOpts7hash_fnE, align 8
  %4 = bitcast %"struct.SkTHashMap<SkPDFFillGraphicState, SkPDFIndirectReference, SkGoodHash>::Pair"* %1 to i8*
  %5 = tail call i32 %3(i8* %4, i64 8, i32 0) #9
  %6 = icmp eq i32 %5, 0
  %7 = select i1 %6, i32 1, i32 %5
  %8 = getelementptr inbounds %class.SkTHashTable.75, %class.SkTHashTable.75* %0, i64 0, i32 1
  %9 = load i32, i32* %8, align 4
  %10 = icmp sgt i32 %9, 0
  br i1 %10, label %11, label %56

11:                                               ; preds = %2
  %12 = add nsw i32 %9, -1
  %13 = and i32 %7, %12
  %14 = getelementptr inbounds %class.SkTHashTable.75, %class.SkTHashTable.75* %0, i64 0, i32 2, i32 0, i32 0, i32 0, i32 0
  %15 = load %"struct.SkTHashTable<SkTHashMap<SkPDFFillGraphicState, SkPDFIndirectReference, SkGoodHash>::Pair, SkPDFFillGraphicState, SkTHashMap<SkPDFFillGraphicState, SkPDFIndirectReference, SkGoodHash>::Pair>::Slot"*, %"struct.SkTHashTable<SkTHashMap<SkPDFFillGraphicState, SkPDFIndirectReference, SkGoodHash>::Pair, SkPDFFillGraphicState, SkTHashMap<SkPDFFillGraphicState, SkPDFIndirectReference, SkGoodHash>::Pair>::Slot"** %14, align 8
  br label %16

16:                                               ; preds = %11, %49
  %17 = phi i32 [ 0, %11 ], [ %54, %49 ]
  %18 = phi i32 [ %13, %11 ], [ %53, %49 ]
  %19 = sext i32 %18 to i64
  %20 = getelementptr inbounds %"struct.SkTHashTable<SkTHashMap<SkPDFFillGraphicState, SkPDFIndirectReference, SkGoodHash>::Pair, SkPDFFillGraphicState, SkTHashMap<SkPDFFillGraphicState, SkPDFIndirectReference, SkGoodHash>::Pair>::Slot", %"struct.SkTHashTable<SkTHashMap<SkPDFFillGraphicState, SkPDFIndirectReference, SkGoodHash>::Pair, SkPDFFillGraphicState, SkTHashMap<SkPDFFillGraphicState, SkPDFIndirectReference, SkGoodHash>::Pair>::Slot"* %15, i64 %19
  %21 = getelementptr inbounds %"struct.SkTHashTable<SkTHashMap<SkPDFFillGraphicState, SkPDFIndirectReference, SkGoodHash>::Pair, SkPDFFillGraphicState, SkTHashMap<SkPDFFillGraphicState, SkPDFIndirectReference, SkGoodHash>::Pair>::Slot", %"struct.SkTHashTable<SkTHashMap<SkPDFFillGraphicState, SkPDFIndirectReference, SkGoodHash>::Pair, SkPDFFillGraphicState, SkTHashMap<SkPDFFillGraphicState, SkPDFIndirectReference, SkGoodHash>::Pair>::Slot"* %15, i64 %19, i32 1
  %22 = load i32, i32* %21, align 4
  %23 = icmp eq i32 %22, 0
  br i1 %23, label %24, label %35

24:                                               ; preds = %16
  %25 = getelementptr inbounds %"struct.SkTHashTable<SkTHashMap<SkPDFFillGraphicState, SkPDFIndirectReference, SkGoodHash>::Pair, SkPDFFillGraphicState, SkTHashMap<SkPDFFillGraphicState, SkPDFIndirectReference, SkGoodHash>::Pair>::Slot", %"struct.SkTHashTable<SkTHashMap<SkPDFFillGraphicState, SkPDFIndirectReference, SkGoodHash>::Pair, SkPDFFillGraphicState, SkTHashMap<SkPDFFillGraphicState, SkPDFIndirectReference, SkGoodHash>::Pair>::Slot"* %20, i64 0, i32 0
  %26 = bitcast %"struct.SkTHashMap<SkPDFFillGraphicState, SkPDFIndirectReference, SkGoodHash>::Pair"* %1 to i64*
  %27 = bitcast %"struct.SkTHashTable<SkTHashMap<SkPDFFillGraphicState, SkPDFIndirectReference, SkGoodHash>::Pair, SkPDFFillGraphicState, SkTHashMap<SkPDFFillGraphicState, SkPDFIndirectReference, SkGoodHash>::Pair>::Slot"* %20 to i64*
  %28 = load i64, i64* %26, align 4
  store i64 %28, i64* %27, align 4
  %29 = getelementptr inbounds %"struct.SkTHashMap<SkPDFFillGraphicState, SkPDFIndirectReference, SkGoodHash>::Pair", %"struct.SkTHashMap<SkPDFFillGraphicState, SkPDFIndirectReference, SkGoodHash>::Pair"* %1, i64 0, i32 0, i32 1, i32 0
  %30 = getelementptr inbounds %"struct.SkTHashTable<SkTHashMap<SkPDFFillGraphicState, SkPDFIndirectReference, SkGoodHash>::Pair, SkPDFFillGraphicState, SkTHashMap<SkPDFFillGraphicState, SkPDFIndirectReference, SkGoodHash>::Pair>::Slot", %"struct.SkTHashTable<SkTHashMap<SkPDFFillGraphicState, SkPDFIndirectReference, SkGoodHash>::Pair, SkPDFFillGraphicState, SkTHashMap<SkPDFFillGraphicState, SkPDFIndirectReference, SkGoodHash>::Pair>::Slot"* %15, i64 %19, i32 0, i32 0, i32 1, i32 0
  %31 = load i32, i32* %29, align 4
  store i32 %31, i32* %30, align 4
  store i32 %7, i32* %21, align 4
  %32 = getelementptr inbounds %class.SkTHashTable.75, %class.SkTHashTable.75* %0, i64 0, i32 0
  %33 = load i32, i32* %32, align 8
  %34 = add nsw i32 %33, 1
  store i32 %34, i32* %32, align 8
  br label %56

35:                                               ; preds = %16
  %36 = icmp eq i32 %7, %22
  br i1 %36, label %37, label %49

37:                                               ; preds = %35
  %38 = bitcast %"struct.SkTHashTable<SkTHashMap<SkPDFFillGraphicState, SkPDFIndirectReference, SkGoodHash>::Pair, SkPDFFillGraphicState, SkTHashMap<SkPDFFillGraphicState, SkPDFIndirectReference, SkGoodHash>::Pair>::Slot"* %20 to i8*
  %39 = tail call i32 @bcmp(i8* %4, i8* %38, i64 8) #9
  %40 = icmp eq i32 %39, 0
  br i1 %40, label %41, label %49

41:                                               ; preds = %37
  %42 = getelementptr inbounds %"struct.SkTHashTable<SkTHashMap<SkPDFFillGraphicState, SkPDFIndirectReference, SkGoodHash>::Pair, SkPDFFillGraphicState, SkTHashMap<SkPDFFillGraphicState, SkPDFIndirectReference, SkGoodHash>::Pair>::Slot", %"struct.SkTHashTable<SkTHashMap<SkPDFFillGraphicState, SkPDFIndirectReference, SkGoodHash>::Pair, SkPDFFillGraphicState, SkTHashMap<SkPDFFillGraphicState, SkPDFIndirectReference, SkGoodHash>::Pair>::Slot"* %20, i64 0, i32 0
  %43 = bitcast %"struct.SkTHashMap<SkPDFFillGraphicState, SkPDFIndirectReference, SkGoodHash>::Pair"* %1 to i64*
  %44 = bitcast %"struct.SkTHashTable<SkTHashMap<SkPDFFillGraphicState, SkPDFIndirectReference, SkGoodHash>::Pair, SkPDFFillGraphicState, SkTHashMap<SkPDFFillGraphicState, SkPDFIndirectReference, SkGoodHash>::Pair>::Slot"* %20 to i64*
  %45 = load i64, i64* %43, align 4
  store i64 %45, i64* %44, align 4
  %46 = getelementptr inbounds %"struct.SkTHashMap<SkPDFFillGraphicState, SkPDFIndirectReference, SkGoodHash>::Pair", %"struct.SkTHashMap<SkPDFFillGraphicState, SkPDFIndirectReference, SkGoodHash>::Pair"* %1, i64 0, i32 0, i32 1, i32 0
  %47 = getelementptr inbounds %"struct.SkTHashTable<SkTHashMap<SkPDFFillGraphicState, SkPDFIndirectReference, SkGoodHash>::Pair, SkPDFFillGraphicState, SkTHashMap<SkPDFFillGraphicState, SkPDFIndirectReference, SkGoodHash>::Pair>::Slot", %"struct.SkTHashTable<SkTHashMap<SkPDFFillGraphicState, SkPDFIndirectReference, SkGoodHash>::Pair, SkPDFFillGraphicState, SkTHashMap<SkPDFFillGraphicState, SkPDFIndirectReference, SkGoodHash>::Pair>::Slot"* %15, i64 %19, i32 0, i32 0, i32 1, i32 0
  %48 = load i32, i32* %46, align 4
  store i32 %48, i32* %47, align 4
  br label %56

49:                                               ; preds = %37, %35
  %50 = add nsw i32 %18, -1
  %51 = icmp slt i32 %18, 1
  %52 = select i1 %51, i32 %9, i32 0
  %53 = add nsw i32 %50, %52
  %54 = add nuw nsw i32 %17, 1
  %55 = icmp slt i32 %54, %9
  br i1 %55, label %16, label %56

56:                                               ; preds = %49, %2, %41, %24
  %57 = phi %"struct.SkTHashMap<SkPDFFillGraphicState, SkPDFIndirectReference, SkGoodHash>::Pair"* [ %42, %41 ], [ %25, %24 ], [ null, %2 ], [ null, %49 ]
  ret %"struct.SkTHashMap<SkPDFFillGraphicState, SkPDFIndirectReference, SkGoodHash>::Pair"* %57
}

; Function Attrs: nounwind readnone speculatable
declare { i64, i1 } @llvm.umul.with.overflow.i64(i64, i64) #6

; Function Attrs: nobuiltin nofree
declare noalias nonnull i8* @_Znam(i64) local_unnamed_addr #5

; Function Attrs: nobuiltin nounwind
declare void @_ZdaPv(i8*) local_unnamed_addr #7

; Function Attrs: nounwind ssp uwtable
define linkonce_odr hidden void @_ZN12SkTHashTableIN10SkTHashMapI23SkPDFStrokeGraphicState22SkPDFIndirectReference10SkGoodHashE4PairES1_S5_E6resizeEi(%class.SkTHashTable.66*, i32) local_unnamed_addr #4 comdat align 2 {
  %3 = getelementptr inbounds %class.SkTHashTable.66, %class.SkTHashTable.66* %0, i64 0, i32 1
  %4 = load i32, i32* %3, align 4
  %5 = getelementptr inbounds %class.SkTHashTable.66, %class.SkTHashTable.66* %0, i64 0, i32 0
  store i32 0, i32* %5, align 8
  store i32 %1, i32* %3, align 4
  %6 = getelementptr inbounds %class.SkTHashTable.66, %class.SkTHashTable.66* %0, i64 0, i32 2
  %7 = getelementptr inbounds %class.SkAutoTArray.67, %class.SkAutoTArray.67* %6, i64 0, i32 0, i32 0, i32 0, i32 0
  %8 = bitcast %class.SkAutoTArray.67* %6 to i64*
  %9 = load i64, i64* %8, align 8
  store %"struct.SkTHashTable<SkTHashMap<SkPDFStrokeGraphicState, SkPDFIndirectReference, SkGoodHash>::Pair, SkPDFStrokeGraphicState, SkTHashMap<SkPDFStrokeGraphicState, SkPDFIndirectReference, SkGoodHash>::Pair>::Slot"* null, %"struct.SkTHashTable<SkTHashMap<SkPDFStrokeGraphicState, SkPDFIndirectReference, SkGoodHash>::Pair, SkPDFStrokeGraphicState, SkTHashMap<SkPDFStrokeGraphicState, SkPDFIndirectReference, SkGoodHash>::Pair>::Slot"** %7, align 8
  %10 = icmp eq i32 %1, 0
  br i1 %10, label %11, label %12

11:                                               ; preds = %2
  store i64 0, i64* %8, align 8
  br label %34

12:                                               ; preds = %2
  %13 = sext i32 %1 to i64
  %14 = tail call { i64, i1 } @llvm.umul.with.overflow.i64(i64 %13, i64 24) #9
  %15 = extractvalue { i64, i1 } %14, 1
  %16 = extractvalue { i64, i1 } %14, 0
  %17 = select i1 %15, i64 -1, i64 %16
  %18 = tail call i8* @_Znam(i64 %17) #10
  %19 = bitcast i8* %18 to %"struct.SkTHashTable<SkTHashMap<SkPDFStrokeGraphicState, SkPDFIndirectReference, SkGoodHash>::Pair, SkPDFStrokeGraphicState, SkTHashMap<SkPDFStrokeGraphicState, SkPDFIndirectReference, SkGoodHash>::Pair>::Slot"*
  %20 = getelementptr inbounds %"struct.SkTHashTable<SkTHashMap<SkPDFStrokeGraphicState, SkPDFIndirectReference, SkGoodHash>::Pair, SkPDFStrokeGraphicState, SkTHashMap<SkPDFStrokeGraphicState, SkPDFIndirectReference, SkGoodHash>::Pair>::Slot", %"struct.SkTHashTable<SkTHashMap<SkPDFStrokeGraphicState, SkPDFIndirectReference, SkGoodHash>::Pair, SkPDFStrokeGraphicState, SkTHashMap<SkPDFStrokeGraphicState, SkPDFIndirectReference, SkGoodHash>::Pair>::Slot"* %19, i64 %13
  br label %21

21:                                               ; preds = %21, %12
  %22 = phi %"struct.SkTHashTable<SkTHashMap<SkPDFStrokeGraphicState, SkPDFIndirectReference, SkGoodHash>::Pair, SkPDFStrokeGraphicState, SkTHashMap<SkPDFStrokeGraphicState, SkPDFIndirectReference, SkGoodHash>::Pair>::Slot"* [ %19, %12 ], [ %26, %21 ]
  %23 = getelementptr inbounds %"struct.SkTHashTable<SkTHashMap<SkPDFStrokeGraphicState, SkPDFIndirectReference, SkGoodHash>::Pair, SkPDFStrokeGraphicState, SkTHashMap<SkPDFStrokeGraphicState, SkPDFIndirectReference, SkGoodHash>::Pair>::Slot", %"struct.SkTHashTable<SkTHashMap<SkPDFStrokeGraphicState, SkPDFIndirectReference, SkGoodHash>::Pair, SkPDFStrokeGraphicState, SkTHashMap<SkPDFStrokeGraphicState, SkPDFIndirectReference, SkGoodHash>::Pair>::Slot"* %22, i64 0, i32 0, i32 0, i32 1, i32 0
  %24 = bitcast %"struct.SkTHashTable<SkTHashMap<SkPDFStrokeGraphicState, SkPDFIndirectReference, SkGoodHash>::Pair, SkPDFStrokeGraphicState, SkTHashMap<SkPDFStrokeGraphicState, SkPDFIndirectReference, SkGoodHash>::Pair>::Slot"* %22 to i8*
  tail call void @llvm.memset.p0i8.i64(i8* align 4 %24, i8 0, i64 16, i1 false) #9
  store i32 -1, i32* %23, align 4
  %25 = getelementptr inbounds %"struct.SkTHashTable<SkTHashMap<SkPDFStrokeGraphicState, SkPDFIndirectReference, SkGoodHash>::Pair, SkPDFStrokeGraphicState, SkTHashMap<SkPDFStrokeGraphicState, SkPDFIndirectReference, SkGoodHash>::Pair>::Slot", %"struct.SkTHashTable<SkTHashMap<SkPDFStrokeGraphicState, SkPDFIndirectReference, SkGoodHash>::Pair, SkPDFStrokeGraphicState, SkTHashMap<SkPDFStrokeGraphicState, SkPDFIndirectReference, SkGoodHash>::Pair>::Slot"* %22, i64 0, i32 1
  store i32 0, i32* %25, align 4
  %26 = getelementptr inbounds %"struct.SkTHashTable<SkTHashMap<SkPDFStrokeGraphicState, SkPDFIndirectReference, SkGoodHash>::Pair, SkPDFStrokeGraphicState, SkTHashMap<SkPDFStrokeGraphicState, SkPDFIndirectReference, SkGoodHash>::Pair>::Slot", %"struct.SkTHashTable<SkTHashMap<SkPDFStrokeGraphicState, SkPDFIndirectReference, SkGoodHash>::Pair, SkPDFStrokeGraphicState, SkTHashMap<SkPDFStrokeGraphicState, SkPDFIndirectReference, SkGoodHash>::Pair>::Slot"* %22, i64 1
  %27 = icmp eq %"struct.SkTHashTable<SkTHashMap<SkPDFStrokeGraphicState, SkPDFIndirectReference, SkGoodHash>::Pair, SkPDFStrokeGraphicState, SkTHashMap<SkPDFStrokeGraphicState, SkPDFIndirectReference, SkGoodHash>::Pair>::Slot"* %26, %20
  br i1 %27, label %28, label %21

28:                                               ; preds = %21
  %29 = ptrtoint i8* %18 to i64
  %30 = load %"struct.SkTHashTable<SkTHashMap<SkPDFStrokeGraphicState, SkPDFIndirectReference, SkGoodHash>::Pair, SkPDFStrokeGraphicState, SkTHashMap<SkPDFStrokeGraphicState, SkPDFIndirectReference, SkGoodHash>::Pair>::Slot"*, %"struct.SkTHashTable<SkTHashMap<SkPDFStrokeGraphicState, SkPDFIndirectReference, SkGoodHash>::Pair, SkPDFStrokeGraphicState, SkTHashMap<SkPDFStrokeGraphicState, SkPDFIndirectReference, SkGoodHash>::Pair>::Slot"** %7, align 8
  %31 = icmp eq %"struct.SkTHashTable<SkTHashMap<SkPDFStrokeGraphicState, SkPDFIndirectReference, SkGoodHash>::Pair, SkPDFStrokeGraphicState, SkTHashMap<SkPDFStrokeGraphicState, SkPDFIndirectReference, SkGoodHash>::Pair>::Slot"* %30, null
  store i64 %29, i64* %8, align 8
  br i1 %31, label %34, label %32

32:                                               ; preds = %28
  %33 = bitcast %"struct.SkTHashTable<SkTHashMap<SkPDFStrokeGraphicState, SkPDFIndirectReference, SkGoodHash>::Pair, SkPDFStrokeGraphicState, SkTHashMap<SkPDFStrokeGraphicState, SkPDFIndirectReference, SkGoodHash>::Pair>::Slot"* %30 to i8*
  tail call void @_ZdaPv(i8* %33) #10
  br label %34

34:                                               ; preds = %32, %28, %11
  %35 = icmp sgt i32 %4, 0
  br i1 %35, label %36, label %40

36:                                               ; preds = %34
  %37 = inttoptr i64 %9 to %"struct.SkTHashTable<SkTHashMap<SkPDFStrokeGraphicState, SkPDFIndirectReference, SkGoodHash>::Pair, SkPDFStrokeGraphicState, SkTHashMap<SkPDFStrokeGraphicState, SkPDFIndirectReference, SkGoodHash>::Pair>::Slot"*
  %38 = getelementptr inbounds %class.SkTHashTable.66, %class.SkTHashTable.66* %0, i64 0, i32 2, i32 0, i32 0, i32 0, i32 0
  %39 = zext i32 %4 to i64
  br label %45

40:                                               ; preds = %96, %34
  %41 = icmp eq i64 %9, 0
  br i1 %41, label %44, label %42

42:                                               ; preds = %40
  %43 = inttoptr i64 %9 to i8*
  tail call void @_ZdaPv(i8* %43) #10
  br label %44

44:                                               ; preds = %40, %42
  ret void

45:                                               ; preds = %96, %36
  %46 = phi i64 [ 0, %36 ], [ %97, %96 ]
  %47 = getelementptr inbounds %"struct.SkTHashTable<SkTHashMap<SkPDFStrokeGraphicState, SkPDFIndirectReference, SkGoodHash>::Pair, SkPDFStrokeGraphicState, SkTHashMap<SkPDFStrokeGraphicState, SkPDFIndirectReference, SkGoodHash>::Pair>::Slot", %"struct.SkTHashTable<SkTHashMap<SkPDFStrokeGraphicState, SkPDFIndirectReference, SkGoodHash>::Pair, SkPDFStrokeGraphicState, SkTHashMap<SkPDFStrokeGraphicState, SkPDFIndirectReference, SkGoodHash>::Pair>::Slot"* %37, i64 %46, i32 1
  %48 = load i32, i32* %47, align 4
  %49 = icmp eq i32 %48, 0
  br i1 %49, label %96, label %50

50:                                               ; preds = %45
  %51 = getelementptr inbounds %"struct.SkTHashTable<SkTHashMap<SkPDFStrokeGraphicState, SkPDFIndirectReference, SkGoodHash>::Pair, SkPDFStrokeGraphicState, SkTHashMap<SkPDFStrokeGraphicState, SkPDFIndirectReference, SkGoodHash>::Pair>::Slot", %"struct.SkTHashTable<SkTHashMap<SkPDFStrokeGraphicState, SkPDFIndirectReference, SkGoodHash>::Pair, SkPDFStrokeGraphicState, SkTHashMap<SkPDFStrokeGraphicState, SkPDFIndirectReference, SkGoodHash>::Pair>::Slot"* %37, i64 %46, i32 0
  %52 = load i32 (i8*, i64, i32)*, i32 (i8*, i64, i32)** @_ZN6SkOpts7hash_fnE, align 8
  %53 = bitcast %"struct.SkTHashMap<SkPDFStrokeGraphicState, SkPDFIndirectReference, SkGoodHash>::Pair"* %51 to i8*
  %54 = tail call i32 %52(i8* %53, i64 16, i32 0) #9
  %55 = icmp eq i32 %54, 0
  %56 = select i1 %55, i32 1, i32 %54
  %57 = load i32, i32* %3, align 4
  %58 = icmp sgt i32 %57, 0
  br i1 %58, label %59, label %96

59:                                               ; preds = %50
  %60 = add nsw i32 %57, -1
  %61 = and i32 %56, %60
  %62 = load %"struct.SkTHashTable<SkTHashMap<SkPDFStrokeGraphicState, SkPDFIndirectReference, SkGoodHash>::Pair, SkPDFStrokeGraphicState, SkTHashMap<SkPDFStrokeGraphicState, SkPDFIndirectReference, SkGoodHash>::Pair>::Slot"*, %"struct.SkTHashTable<SkTHashMap<SkPDFStrokeGraphicState, SkPDFIndirectReference, SkGoodHash>::Pair, SkPDFStrokeGraphicState, SkTHashMap<SkPDFStrokeGraphicState, SkPDFIndirectReference, SkGoodHash>::Pair>::Slot"** %38, align 8
  br label %63

63:                                               ; preds = %89, %59
  %64 = phi i32 [ 0, %59 ], [ %94, %89 ]
  %65 = phi i32 [ %61, %59 ], [ %93, %89 ]
  %66 = sext i32 %65 to i64
  %67 = getelementptr inbounds %"struct.SkTHashTable<SkTHashMap<SkPDFStrokeGraphicState, SkPDFIndirectReference, SkGoodHash>::Pair, SkPDFStrokeGraphicState, SkTHashMap<SkPDFStrokeGraphicState, SkPDFIndirectReference, SkGoodHash>::Pair>::Slot", %"struct.SkTHashTable<SkTHashMap<SkPDFStrokeGraphicState, SkPDFIndirectReference, SkGoodHash>::Pair, SkPDFStrokeGraphicState, SkTHashMap<SkPDFStrokeGraphicState, SkPDFIndirectReference, SkGoodHash>::Pair>::Slot"* %62, i64 %66
  %68 = getelementptr inbounds %"struct.SkTHashTable<SkTHashMap<SkPDFStrokeGraphicState, SkPDFIndirectReference, SkGoodHash>::Pair, SkPDFStrokeGraphicState, SkTHashMap<SkPDFStrokeGraphicState, SkPDFIndirectReference, SkGoodHash>::Pair>::Slot", %"struct.SkTHashTable<SkTHashMap<SkPDFStrokeGraphicState, SkPDFIndirectReference, SkGoodHash>::Pair, SkPDFStrokeGraphicState, SkTHashMap<SkPDFStrokeGraphicState, SkPDFIndirectReference, SkGoodHash>::Pair>::Slot"* %62, i64 %66, i32 1
  %69 = load i32, i32* %68, align 4
  %70 = icmp eq i32 %69, 0
  br i1 %70, label %71, label %78

71:                                               ; preds = %63
  %72 = bitcast %"struct.SkTHashTable<SkTHashMap<SkPDFStrokeGraphicState, SkPDFIndirectReference, SkGoodHash>::Pair, SkPDFStrokeGraphicState, SkTHashMap<SkPDFStrokeGraphicState, SkPDFIndirectReference, SkGoodHash>::Pair>::Slot"* %67 to i8*
  tail call void @llvm.memcpy.p0i8.p0i8.i64(i8* align 4 %72, i8* align 4 %53, i64 16, i1 false) #9
  %73 = getelementptr inbounds %"struct.SkTHashTable<SkTHashMap<SkPDFStrokeGraphicState, SkPDFIndirectReference, SkGoodHash>::Pair, SkPDFStrokeGraphicState, SkTHashMap<SkPDFStrokeGraphicState, SkPDFIndirectReference, SkGoodHash>::Pair>::Slot", %"struct.SkTHashTable<SkTHashMap<SkPDFStrokeGraphicState, SkPDFIndirectReference, SkGoodHash>::Pair, SkPDFStrokeGraphicState, SkTHashMap<SkPDFStrokeGraphicState, SkPDFIndirectReference, SkGoodHash>::Pair>::Slot"* %37, i64 %46, i32 0, i32 0, i32 1, i32 0
  %74 = getelementptr inbounds %"struct.SkTHashTable<SkTHashMap<SkPDFStrokeGraphicState, SkPDFIndirectReference, SkGoodHash>::Pair, SkPDFStrokeGraphicState, SkTHashMap<SkPDFStrokeGraphicState, SkPDFIndirectReference, SkGoodHash>::Pair>::Slot", %"struct.SkTHashTable<SkTHashMap<SkPDFStrokeGraphicState, SkPDFIndirectReference, SkGoodHash>::Pair, SkPDFStrokeGraphicState, SkTHashMap<SkPDFStrokeGraphicState, SkPDFIndirectReference, SkGoodHash>::Pair>::Slot"* %62, i64 %66, i32 0, i32 0, i32 1, i32 0
  %75 = load i32, i32* %73, align 4
  store i32 %75, i32* %74, align 4
  store i32 %56, i32* %68, align 4
  %76 = load i32, i32* %5, align 8
  %77 = add nsw i32 %76, 1
  store i32 %77, i32* %5, align 8
  br label %96

78:                                               ; preds = %63
  %79 = icmp eq i32 %56, %69
  br i1 %79, label %80, label %89

80:                                               ; preds = %78
  %81 = bitcast %"struct.SkTHashTable<SkTHashMap<SkPDFStrokeGraphicState, SkPDFIndirectReference, SkGoodHash>::Pair, SkPDFStrokeGraphicState, SkTHashMap<SkPDFStrokeGraphicState, SkPDFIndirectReference, SkGoodHash>::Pair>::Slot"* %67 to i8*
  %82 = tail call i32 @bcmp(i8* %53, i8* %81, i64 16) #9
  %83 = icmp eq i32 %82, 0
  br i1 %83, label %84, label %89

84:                                               ; preds = %80
  %85 = bitcast %"struct.SkTHashTable<SkTHashMap<SkPDFStrokeGraphicState, SkPDFIndirectReference, SkGoodHash>::Pair, SkPDFStrokeGraphicState, SkTHashMap<SkPDFStrokeGraphicState, SkPDFIndirectReference, SkGoodHash>::Pair>::Slot"* %67 to i8*
  tail call void @llvm.memcpy.p0i8.p0i8.i64(i8* align 4 %85, i8* align 4 %53, i64 16, i1 false) #9
  %86 = getelementptr inbounds %"struct.SkTHashTable<SkTHashMap<SkPDFStrokeGraphicState, SkPDFIndirectReference, SkGoodHash>::Pair, SkPDFStrokeGraphicState, SkTHashMap<SkPDFStrokeGraphicState, SkPDFIndirectReference, SkGoodHash>::Pair>::Slot", %"struct.SkTHashTable<SkTHashMap<SkPDFStrokeGraphicState, SkPDFIndirectReference, SkGoodHash>::Pair, SkPDFStrokeGraphicState, SkTHashMap<SkPDFStrokeGraphicState, SkPDFIndirectReference, SkGoodHash>::Pair>::Slot"* %37, i64 %46, i32 0, i32 0, i32 1, i32 0
  %87 = getelementptr inbounds %"struct.SkTHashTable<SkTHashMap<SkPDFStrokeGraphicState, SkPDFIndirectReference, SkGoodHash>::Pair, SkPDFStrokeGraphicState, SkTHashMap<SkPDFStrokeGraphicState, SkPDFIndirectReference, SkGoodHash>::Pair>::Slot", %"struct.SkTHashTable<SkTHashMap<SkPDFStrokeGraphicState, SkPDFIndirectReference, SkGoodHash>::Pair, SkPDFStrokeGraphicState, SkTHashMap<SkPDFStrokeGraphicState, SkPDFIndirectReference, SkGoodHash>::Pair>::Slot"* %62, i64 %66, i32 0, i32 0, i32 1, i32 0
  %88 = load i32, i32* %86, align 4
  store i32 %88, i32* %87, align 4
  br label %96

89:                                               ; preds = %80, %78
  %90 = add nsw i32 %65, -1
  %91 = icmp slt i32 %65, 1
  %92 = select i1 %91, i32 %57, i32 0
  %93 = add nsw i32 %90, %92
  %94 = add nuw nsw i32 %64, 1
  %95 = icmp eq i32 %94, %57
  br i1 %95, label %96, label %63

96:                                               ; preds = %89, %84, %71, %50, %45
  %97 = add nuw nsw i64 %46, 1
  %98 = icmp eq i64 %97, %39
  br i1 %98, label %40, label %45
}

; Function Attrs: nofree nounwind readonly
declare i32 @bcmp(i8* nocapture, i8* nocapture, i64) local_unnamed_addr #8

attributes #0 = { nounwind ssp uwtable "correctly-rounded-divide-sqrt-fp-math"="false" "disable-tail-calls"="false" "less-precise-fpmad"="false" "min-legal-vector-width"="64" "no-frame-pointer-elim"="false" "no-frame-pointer-elim-non-leaf" "no-infs-fp-math"="false" "no-jump-tables"="false" "no-nans-fp-math"="false" "no-signed-zeros-fp-math"="false" "no-trapping-math"="false" "null-pointer-is-valid"="true" "stack-protector-buffer-size"="4" "target-cpu"="x86-64" "target-features"="+cx8,+fxsr,+mmx,+sse,+sse2,+sse3,+x87" "unsafe-fp-math"="false" "use-soft-float"="false" }
attributes #1 = { argmemonly nounwind }
attributes #2 = { "correctly-rounded-divide-sqrt-fp-math"="false" "disable-tail-calls"="false" "less-precise-fpmad"="false" "no-frame-pointer-elim"="false" "no-frame-pointer-elim-non-leaf" "no-infs-fp-math"="false" "no-nans-fp-math"="false" "no-signed-zeros-fp-math"="false" "no-trapping-math"="false" "null-pointer-is-valid"="true" "stack-protector-buffer-size"="4" "target-cpu"="x86-64" "target-features"="+cx8,+fxsr,+mmx,+sse,+sse2,+sse3,+x87" "unsafe-fp-math"="false" "use-soft-float"="false" }
attributes #3 = { nounwind "correctly-rounded-divide-sqrt-fp-math"="false" "disable-tail-calls"="false" "less-precise-fpmad"="false" "no-frame-pointer-elim"="false" "no-frame-pointer-elim-non-leaf" "no-infs-fp-math"="false" "no-nans-fp-math"="false" "no-signed-zeros-fp-math"="false" "no-trapping-math"="false" "null-pointer-is-valid"="true" "stack-protector-buffer-size"="4" "target-cpu"="x86-64" "target-features"="+cx8,+fxsr,+mmx,+sse,+sse2,+sse3,+x87" "unsafe-fp-math"="false" "use-soft-float"="false" }
attributes #4 = { nounwind ssp uwtable "correctly-rounded-divide-sqrt-fp-math"="false" "disable-tail-calls"="false" "less-precise-fpmad"="false" "min-legal-vector-width"="0" "no-frame-pointer-elim"="false" "no-frame-pointer-elim-non-leaf" "no-infs-fp-math"="false" "no-jump-tables"="false" "no-nans-fp-math"="false" "no-signed-zeros-fp-math"="false" "no-trapping-math"="false" "null-pointer-is-valid"="true" "stack-protector-buffer-size"="4" "target-cpu"="x86-64" "target-features"="+cx8,+fxsr,+mmx,+sse,+sse2,+sse3,+x87" "unsafe-fp-math"="false" "use-soft-float"="false" }
attributes #5 = { nobuiltin nofree "correctly-rounded-divide-sqrt-fp-math"="false" "disable-tail-calls"="false" "less-precise-fpmad"="false" "no-frame-pointer-elim"="false" "no-frame-pointer-elim-non-leaf" "no-infs-fp-math"="false" "no-nans-fp-math"="false" "no-signed-zeros-fp-math"="false" "no-trapping-math"="false" "null-pointer-is-valid"="true" "stack-protector-buffer-size"="4" "target-cpu"="x86-64" "target-features"="+cx8,+fxsr,+mmx,+sse,+sse2,+sse3,+x87" "unsafe-fp-math"="false" "use-soft-float"="false" }
attributes #6 = { nounwind readnone speculatable }
attributes #7 = { nobuiltin nounwind "correctly-rounded-divide-sqrt-fp-math"="false" "disable-tail-calls"="false" "less-precise-fpmad"="false" "no-frame-pointer-elim"="false" "no-frame-pointer-elim-non-leaf" "no-infs-fp-math"="false" "no-nans-fp-math"="false" "no-signed-zeros-fp-math"="false" "no-trapping-math"="false" "null-pointer-is-valid"="true" "stack-protector-buffer-size"="4" "target-cpu"="x86-64" "target-features"="+cx8,+fxsr,+mmx,+sse,+sse2,+sse3,+x87" "unsafe-fp-math"="false" "use-soft-float"="false" }
attributes #8 = { nofree nounwind readonly }
attributes #9 = { nounwind }
attributes #10 = { builtin nounwind }

!llvm.module.flags = !{!0, !1}

!0 = !{i32 1, !"wchar_size", i32 4}
!1 = !{i32 7, !"PIC Level", i32 2}
!2 = distinct !{!2, !3}
!3 = !{!"llvm.loop.unroll.disable"}
