; ModuleID = '../../third_party/swiftshader/src/Pipeline/SpirvShader.cpp'
source_filename = "../../third_party/swiftshader/src/Pipeline/SpirvShader.cpp"
target datalayout = "e-m:e-i64:64-f80:128-n8:16:32:64-S128"
target triple = "x86_64-unknown-linux-gnu"

module asm ".symver exp, exp@GLIBC_2.2.5"
module asm ".symver exp2, exp2@GLIBC_2.2.5"
module asm ".symver exp2f, exp2f@GLIBC_2.2.5"
module asm ".symver expf, expf@GLIBC_2.2.5"
module asm ".symver lgamma, lgamma@GLIBC_2.2.5"
module asm ".symver lgammaf, lgammaf@GLIBC_2.2.5"
module asm ".symver lgammal, lgammal@GLIBC_2.2.5"
module asm ".symver log, log@GLIBC_2.2.5"
module asm ".symver log2, log2@GLIBC_2.2.5"
module asm ".symver log2f, log2f@GLIBC_2.2.5"
module asm ".symver logf, logf@GLIBC_2.2.5"
module asm ".symver pow, pow@GLIBC_2.2.5"
module asm ".symver powf, powf@GLIBC_2.2.5"

%"class.sw::SpirvShader::EmitState" = type <{ %"class.sw::SpirvRoutine"*, %"class.sw::SpirvID", %"class.sw::SpirvID.326", %"class.rr::Value"*, %"class.rr::Value"*, %"class.std::__1::unordered_set.337", %"class.std::__1::unordered_map.1029", %"class.std::__1::deque"*, %"struct.std::__1::array.1055"*, %"class.std::__1::unordered_map.1056", %"class.std::__1::unordered_map.1080", i8, [3 x i8], i32, i32, [4 x i8] }>
%"class.sw::SpirvRoutine" = type { %"class.vk::PipelineLayout"*, %"class.std::__1::unordered_map.412", %"class.std::__1::unordered_map.436", %"class.rr::Array", %"class.rr::Array", %"struct.sw::SpirvRoutine::InterpolationData", %"class.rr::Pointer", %"class.rr::Pointer.737", %"class.rr::Pointer.740", %"class.rr::Pointer", %"class.rr::Pointer", %"class.rr::Int", %"struct.std::__1::array", %"class.rr::Int", %"class.rr::Int", %"class.rr::Int4", %"struct.std::__1::array.1027", %"struct.std::__1::array.1027", %"class.rr::Int4", %"class.rr::Int4", %"class.rr::Int4", %"class.rr::Int4", %"class.rr::Int", %"class.rr::Int", %"class.rr::Int", %"class.rr::Int4", %"struct.std::__1::array.1028", %"struct.std::__1::array.1028", %"class.rr::Pointer", %"class.std::__1::unordered_map.412" }
%"class.vk::PipelineLayout" = type <{ i32, [4 x i8], [4 x %"struct.vk::PipelineLayout::DescriptorSet"], i32, i32, %struct.VkPushConstantRange*, %"struct.std::__1::atomic", [4 x i8] }>
%"struct.vk::PipelineLayout::DescriptorSet" = type { %"struct.vk::PipelineLayout::Binding"*, i32 }
%"struct.vk::PipelineLayout::Binding" = type { i32, i32, i32, i32 }
%struct.VkPushConstantRange = type { i32, i32, i32 }
%"struct.std::__1::atomic" = type { %"struct.std::__1::__atomic_base" }
%"struct.std::__1::__atomic_base" = type { %"struct.std::__1::__atomic_base.411" }
%"struct.std::__1::__atomic_base.411" = type { %"struct.std::__1::__cxx_atomic_impl" }
%"struct.std::__1::__cxx_atomic_impl" = type { %"struct.std::__1::__cxx_atomic_base_impl" }
%"struct.std::__1::__cxx_atomic_base_impl" = type { i32 }
%"class.std::__1::unordered_map.436" = type { %"class.std::__1::__hash_table.437" }
%"class.std::__1::__hash_table.437" = type <{ %"class.std::__1::unique_ptr.438", %"class.std::__1::__compressed_pair.448", %"class.std::__1::__compressed_pair.453", %"class.std::__1::__compressed_pair.456", [4 x i8] }>
%"class.std::__1::unique_ptr.438" = type { %"class.std::__1::__compressed_pair.439" }
%"class.std::__1::__compressed_pair.439" = type { %"struct.std::__1::__compressed_pair_elem.440", %"struct.std::__1::__compressed_pair_elem.442" }
%"struct.std::__1::__compressed_pair_elem.440" = type { %"struct.std::__1::__hash_node_base.441"** }
%"struct.std::__1::__hash_node_base.441" = type { %"struct.std::__1::__hash_node_base.441"* }
%"struct.std::__1::__compressed_pair_elem.442" = type { %"class.std::__1::__bucket_list_deallocator.443" }
%"class.std::__1::__bucket_list_deallocator.443" = type { %"class.std::__1::__compressed_pair.444" }
%"class.std::__1::__compressed_pair.444" = type { %"struct.std::__1::__compressed_pair_elem.41" }
%"struct.std::__1::__compressed_pair_elem.41" = type { i64 }
%"class.std::__1::__compressed_pair.448" = type { %"struct.std::__1::__compressed_pair_elem.449" }
%"struct.std::__1::__compressed_pair_elem.449" = type { %"struct.std::__1::__hash_node_base.441" }
%"class.std::__1::__compressed_pair.453" = type { %"struct.std::__1::__compressed_pair_elem.41" }
%"class.std::__1::__compressed_pair.456" = type { %"struct.std::__1::__compressed_pair_elem.53" }
%"struct.std::__1::__compressed_pair_elem.53" = type { float }
%"class.rr::Array" = type { %"class.rr::LValue" }
%"class.rr::LValue" = type { %"class.rr::Variable" }
%"class.rr::Variable" = type { i32 (...)**, %"class.rr::Type"*, i32, %"class.rr::Value"*, %"class.rr::Value"* }
%"class.rr::Type" = type opaque
%"struct.sw::SpirvRoutine::InterpolationData" = type { %"class.rr::Pointer", %"class.rr::Float4", %"class.rr::Float4", %"class.rr::Float4", %"class.rr::Float4", %"class.rr::Float4", %"class.rr::Float4" }
%"class.rr::Float4" = type { %"class.rr::LValue", %"struct.rr::XYZW" }
%"struct.rr::XYZW" = type { %union.anon.461 }
%union.anon.461 = type { %"class.rr::SwizzleMask1" }
%"class.rr::SwizzleMask1" = type { %"class.rr::Float4"* }
%"class.rr::Pointer.737" = type <{ %"class.rr::LValue.738", i32, [4 x i8] }>
%"class.rr::LValue.738" = type { %"class.rr::Variable" }
%"class.rr::Pointer.740" = type <{ %"class.rr::LValue.741", i32, [4 x i8] }>
%"class.rr::LValue.741" = type { %"class.rr::Variable" }
%"struct.std::__1::array" = type { [2 x %"class.rr::Int4"] }
%"struct.std::__1::array.1027" = type { [4 x %"class.rr::Float4"] }
%"class.rr::Int" = type { %"class.rr::LValue.743" }
%"class.rr::LValue.743" = type { %"class.rr::Variable" }
%"class.rr::Int4" = type { %"class.rr::LValue.744", %"struct.rr::XYZW.745" }
%"class.rr::LValue.744" = type { %"class.rr::Variable" }
%"struct.rr::XYZW.745" = type { %union.anon.746 }
%union.anon.746 = type { %"class.rr::SwizzleMask1.747" }
%"class.rr::SwizzleMask1.747" = type { %"class.rr::Int4"* }
%"struct.std::__1::array.1028" = type { [3 x %"class.rr::Int4"] }
%"class.rr::Pointer" = type <{ %"class.rr::LValue.460", i32, [4 x i8] }>
%"class.rr::LValue.460" = type { %"class.rr::Variable" }
%"class.std::__1::unordered_map.412" = type { %"class.std::__1::__hash_table.413" }
%"class.std::__1::__hash_table.413" = type <{ %"class.std::__1::unique_ptr.414", %"class.std::__1::__compressed_pair.424", %"class.std::__1::__compressed_pair.429", %"class.std::__1::__compressed_pair.432", [4 x i8] }>
%"class.std::__1::unique_ptr.414" = type { %"class.std::__1::__compressed_pair.415" }
%"class.std::__1::__compressed_pair.415" = type { %"struct.std::__1::__compressed_pair_elem.416", %"struct.std::__1::__compressed_pair_elem.418" }
%"struct.std::__1::__compressed_pair_elem.416" = type { %"struct.std::__1::__hash_node_base.417"** }
%"struct.std::__1::__hash_node_base.417" = type { %"struct.std::__1::__hash_node_base.417"* }
%"struct.std::__1::__compressed_pair_elem.418" = type { %"class.std::__1::__bucket_list_deallocator.419" }
%"class.std::__1::__bucket_list_deallocator.419" = type { %"class.std::__1::__compressed_pair.420" }
%"class.std::__1::__compressed_pair.420" = type { %"struct.std::__1::__compressed_pair_elem.41" }
%"class.std::__1::__compressed_pair.424" = type { %"struct.std::__1::__compressed_pair_elem.425" }
%"struct.std::__1::__compressed_pair_elem.425" = type { %"struct.std::__1::__hash_node_base.417" }
%"class.std::__1::__compressed_pair.429" = type { %"struct.std::__1::__compressed_pair_elem.41" }
%"class.std::__1::__compressed_pair.432" = type { %"struct.std::__1::__compressed_pair_elem.53" }
%"class.sw::SpirvID" = type { i32 }
%"class.sw::SpirvID.326" = type { i32 }
%"class.rr::Value" = type opaque
%"class.std::__1::unordered_set.337" = type { %"class.std::__1::__hash_table.338" }
%"class.std::__1::__hash_table.338" = type <{ %"class.std::__1::unique_ptr.339", %"class.std::__1::__compressed_pair.349", %"class.std::__1::__compressed_pair.354", %"class.std::__1::__compressed_pair.357", [4 x i8] }>
%"class.std::__1::unique_ptr.339" = type { %"class.std::__1::__compressed_pair.340" }
%"class.std::__1::__compressed_pair.340" = type { %"struct.std::__1::__compressed_pair_elem.341", %"struct.std::__1::__compressed_pair_elem.343" }
%"struct.std::__1::__compressed_pair_elem.341" = type { %"struct.std::__1::__hash_node_base.342"** }
%"struct.std::__1::__hash_node_base.342" = type { %"struct.std::__1::__hash_node_base.342"* }
%"struct.std::__1::__compressed_pair_elem.343" = type { %"class.std::__1::__bucket_list_deallocator.344" }
%"class.std::__1::__bucket_list_deallocator.344" = type { %"class.std::__1::__compressed_pair.345" }
%"class.std::__1::__compressed_pair.345" = type { %"struct.std::__1::__compressed_pair_elem.41" }
%"class.std::__1::__compressed_pair.349" = type { %"struct.std::__1::__compressed_pair_elem.350" }
%"struct.std::__1::__compressed_pair_elem.350" = type { %"struct.std::__1::__hash_node_base.342" }
%"class.std::__1::__compressed_pair.354" = type { %"struct.std::__1::__compressed_pair_elem.41" }
%"class.std::__1::__compressed_pair.357" = type { %"struct.std::__1::__compressed_pair_elem.53" }
%"class.std::__1::unordered_map.1029" = type { %"class.std::__1::__hash_table.1030" }
%"class.std::__1::__hash_table.1030" = type <{ %"class.std::__1::unique_ptr.1031", %"class.std::__1::__compressed_pair.1041", %"class.std::__1::__compressed_pair.1046", %"class.std::__1::__compressed_pair.1049", [4 x i8] }>
%"class.std::__1::unique_ptr.1031" = type { %"class.std::__1::__compressed_pair.1032" }
%"class.std::__1::__compressed_pair.1032" = type { %"struct.std::__1::__compressed_pair_elem.1033", %"struct.std::__1::__compressed_pair_elem.1035" }
%"struct.std::__1::__compressed_pair_elem.1033" = type { %"struct.std::__1::__hash_node_base.1034"** }
%"struct.std::__1::__hash_node_base.1034" = type { %"struct.std::__1::__hash_node_base.1034"* }
%"struct.std::__1::__compressed_pair_elem.1035" = type { %"class.std::__1::__bucket_list_deallocator.1036" }
%"class.std::__1::__bucket_list_deallocator.1036" = type { %"class.std::__1::__compressed_pair.1037" }
%"class.std::__1::__compressed_pair.1037" = type { %"struct.std::__1::__compressed_pair_elem.41" }
%"class.std::__1::__compressed_pair.1041" = type { %"struct.std::__1::__compressed_pair_elem.1042" }
%"struct.std::__1::__compressed_pair_elem.1042" = type { %"struct.std::__1::__hash_node_base.1034" }
%"class.std::__1::__compressed_pair.1046" = type { %"struct.std::__1::__compressed_pair_elem.41" }
%"class.std::__1::__compressed_pair.1049" = type { %"struct.std::__1::__compressed_pair_elem.53" }
%"class.std::__1::deque" = type opaque
%"struct.std::__1::array.1055" = type opaque
%"class.std::__1::unordered_map.1056" = type { %"class.std::__1::__hash_table.1057" }
%"class.std::__1::__hash_table.1057" = type <{ %"class.std::__1::unique_ptr.1058", %"class.std::__1::__compressed_pair.1068", %"class.std::__1::__compressed_pair.1073", %"class.std::__1::__compressed_pair.1076", [4 x i8] }>
%"class.std::__1::unique_ptr.1058" = type { %"class.std::__1::__compressed_pair.1059" }
%"class.std::__1::__compressed_pair.1059" = type { %"struct.std::__1::__compressed_pair_elem.1060", %"struct.std::__1::__compressed_pair_elem.1062" }
%"struct.std::__1::__compressed_pair_elem.1060" = type { %"struct.std::__1::__hash_node_base.1061"** }
%"struct.std::__1::__hash_node_base.1061" = type { %"struct.std::__1::__hash_node_base.1061"* }
%"struct.std::__1::__compressed_pair_elem.1062" = type { %"class.std::__1::__bucket_list_deallocator.1063" }
%"class.std::__1::__bucket_list_deallocator.1063" = type { %"class.std::__1::__compressed_pair.1064" }
%"class.std::__1::__compressed_pair.1064" = type { %"struct.std::__1::__compressed_pair_elem.41" }
%"class.std::__1::__compressed_pair.1068" = type { %"struct.std::__1::__compressed_pair_elem.1069" }
%"struct.std::__1::__compressed_pair_elem.1069" = type { %"struct.std::__1::__hash_node_base.1061" }
%"class.std::__1::__compressed_pair.1073" = type { %"struct.std::__1::__compressed_pair_elem.41" }
%"class.std::__1::__compressed_pair.1076" = type { %"struct.std::__1::__compressed_pair_elem.53" }
%"class.std::__1::unordered_map.1080" = type { %"class.std::__1::__hash_table.1081" }
%"class.std::__1::__hash_table.1081" = type <{ %"class.std::__1::unique_ptr.1082", %"class.std::__1::__compressed_pair.1092", %"class.std::__1::__compressed_pair.1097", %"class.std::__1::__compressed_pair.1100", [4 x i8] }>
%"class.std::__1::unique_ptr.1082" = type { %"class.std::__1::__compressed_pair.1083" }
%"class.std::__1::__compressed_pair.1083" = type { %"struct.std::__1::__compressed_pair_elem.1084", %"struct.std::__1::__compressed_pair_elem.1086" }
%"struct.std::__1::__compressed_pair_elem.1084" = type { %"struct.std::__1::__hash_node_base.1085"** }
%"struct.std::__1::__hash_node_base.1085" = type { %"struct.std::__1::__hash_node_base.1085"* }
%"struct.std::__1::__compressed_pair_elem.1086" = type { %"class.std::__1::__bucket_list_deallocator.1087" }
%"class.std::__1::__bucket_list_deallocator.1087" = type { %"class.std::__1::__compressed_pair.1088" }
%"class.std::__1::__compressed_pair.1088" = type { %"struct.std::__1::__compressed_pair_elem.41" }
%"class.std::__1::__compressed_pair.1092" = type { %"struct.std::__1::__compressed_pair_elem.1093" }
%"struct.std::__1::__compressed_pair_elem.1093" = type { %"struct.std::__1::__hash_node_base.1085" }
%"class.std::__1::__compressed_pair.1097" = type { %"struct.std::__1::__compressed_pair_elem.41" }
%"class.std::__1::__compressed_pair.1100" = type { %"struct.std::__1::__compressed_pair_elem.53" }
%"struct.std::__1::piecewise_construct_t" = type { i8 }
%"struct.std::__1::__function::__policy" = type { i8* (i8*)*, void (i8*)*, i8, %"class.std::type_info"* }
%"class.std::type_info" = type { i32 (...)**, i8* }
%"class.sw::SpirvShader" = type { %"class.std::__1::vector", %"class.std::__1::unordered_map", %"class.std::__1::unordered_map.55", %"class.std::__1::unordered_map.82", %"class.std::__1::vector.109", %"class.std::__1::vector.116", %"class.std::__1::vector.116", %"class.std::__1::unordered_map.123", %"class.std::__1::unordered_map.123", %"struct.sw::SpirvShader::WorkgroupMemory", i32, %"struct.sw::SpirvShader::Modes", %"struct.sw::SpirvShader::Capabilities", %"class.std::__1::unordered_map.174", %"class.std::__1::unordered_map.198", %"class.std::__1::unordered_map.222", %"class.std::__1::unordered_map.249", %"class.std::__1::unordered_map.276", %"class.std::__1::unordered_set", %"class.sw::SpirvID", i8, i8, i32, %"struct.sw::SpirvShader::Impl" }
%"class.std::__1::vector" = type { %"class.std::__1::__vector_base" }
%"class.std::__1::__vector_base" = type { i32*, i32*, %"class.std::__1::__compressed_pair" }
%"class.std::__1::__compressed_pair" = type { %"struct.std::__1::__compressed_pair_elem" }
%"struct.std::__1::__compressed_pair_elem" = type { i32* }
%"class.std::__1::unordered_map" = type { %"class.std::__1::__hash_table" }
%"class.std::__1::__hash_table" = type <{ %"class.std::__1::unique_ptr", %"class.std::__1::__compressed_pair.45", %"class.std::__1::__compressed_pair.50", %"class.std::__1::__compressed_pair.52", [4 x i8] }>
%"class.std::__1::unique_ptr" = type { %"class.std::__1::__compressed_pair.37" }
%"class.std::__1::__compressed_pair.37" = type { %"struct.std::__1::__compressed_pair_elem.38", %"struct.std::__1::__compressed_pair_elem.39" }
%"struct.std::__1::__compressed_pair_elem.38" = type { %"struct.std::__1::__hash_node_base"** }
%"struct.std::__1::__hash_node_base" = type { %"struct.std::__1::__hash_node_base"* }
%"struct.std::__1::__compressed_pair_elem.39" = type { %"class.std::__1::__bucket_list_deallocator" }
%"class.std::__1::__bucket_list_deallocator" = type { %"class.std::__1::__compressed_pair.40" }
%"class.std::__1::__compressed_pair.40" = type { %"struct.std::__1::__compressed_pair_elem.41" }
%"class.std::__1::__compressed_pair.45" = type { %"struct.std::__1::__compressed_pair_elem.46" }
%"struct.std::__1::__compressed_pair_elem.46" = type { %"struct.std::__1::__hash_node_base" }
%"class.std::__1::__compressed_pair.50" = type { %"struct.std::__1::__compressed_pair_elem.41" }
%"class.std::__1::__compressed_pair.52" = type { %"struct.std::__1::__compressed_pair_elem.53" }
%"class.std::__1::unordered_map.55" = type { %"class.std::__1::__hash_table.56" }
%"class.std::__1::__hash_table.56" = type <{ %"class.std::__1::unique_ptr.57", %"class.std::__1::__compressed_pair.67", %"class.std::__1::__compressed_pair.72", %"class.std::__1::__compressed_pair.76", [4 x i8] }>
%"class.std::__1::unique_ptr.57" = type { %"class.std::__1::__compressed_pair.58" }
%"class.std::__1::__compressed_pair.58" = type { %"struct.std::__1::__compressed_pair_elem.59", %"struct.std::__1::__compressed_pair_elem.61" }
%"struct.std::__1::__compressed_pair_elem.59" = type { %"struct.std::__1::__hash_node_base.60"** }
%"struct.std::__1::__hash_node_base.60" = type { %"struct.std::__1::__hash_node_base.60"* }
%"struct.std::__1::__compressed_pair_elem.61" = type { %"class.std::__1::__bucket_list_deallocator.62" }
%"class.std::__1::__bucket_list_deallocator.62" = type { %"class.std::__1::__compressed_pair.63" }
%"class.std::__1::__compressed_pair.63" = type { %"struct.std::__1::__compressed_pair_elem.41" }
%"class.std::__1::__compressed_pair.67" = type { %"struct.std::__1::__compressed_pair_elem.68" }
%"struct.std::__1::__compressed_pair_elem.68" = type { %"struct.std::__1::__hash_node_base.60" }
%"class.std::__1::__compressed_pair.72" = type { %"struct.std::__1::__compressed_pair_elem.41" }
%"class.std::__1::__compressed_pair.76" = type { %"struct.std::__1::__compressed_pair_elem.53" }
%"class.std::__1::unordered_map.82" = type { %"class.std::__1::__hash_table.83" }
%"class.std::__1::__hash_table.83" = type <{ %"class.std::__1::unique_ptr.84", %"class.std::__1::__compressed_pair.94", %"class.std::__1::__compressed_pair.99", %"class.std::__1::__compressed_pair.103", [4 x i8] }>
%"class.std::__1::unique_ptr.84" = type { %"class.std::__1::__compressed_pair.85" }
%"class.std::__1::__compressed_pair.85" = type { %"struct.std::__1::__compressed_pair_elem.86", %"struct.std::__1::__compressed_pair_elem.88" }
%"struct.std::__1::__compressed_pair_elem.86" = type { %"struct.std::__1::__hash_node_base.87"** }
%"struct.std::__1::__hash_node_base.87" = type { %"struct.std::__1::__hash_node_base.87"* }
%"struct.std::__1::__compressed_pair_elem.88" = type { %"class.std::__1::__bucket_list_deallocator.89" }
%"class.std::__1::__bucket_list_deallocator.89" = type { %"class.std::__1::__compressed_pair.90" }
%"class.std::__1::__compressed_pair.90" = type { %"struct.std::__1::__compressed_pair_elem.41" }
%"class.std::__1::__compressed_pair.94" = type { %"struct.std::__1::__compressed_pair_elem.95" }
%"struct.std::__1::__compressed_pair_elem.95" = type { %"struct.std::__1::__hash_node_base.87" }
%"class.std::__1::__compressed_pair.99" = type { %"struct.std::__1::__compressed_pair_elem.41" }
%"class.std::__1::__compressed_pair.103" = type { %"struct.std::__1::__compressed_pair_elem.53" }
%"class.std::__1::vector.109" = type { %"class.std::__1::__vector_base.110" }
%"class.std::__1::__vector_base.110" = type { i32*, i32*, %"class.std::__1::__compressed_pair.111" }
%"class.std::__1::__compressed_pair.111" = type { %"struct.std::__1::__compressed_pair_elem.112" }
%"struct.std::__1::__compressed_pair_elem.112" = type { i32* }
%"class.std::__1::vector.116" = type { %"class.std::__1::__vector_base.117" }
%"class.std::__1::__vector_base.117" = type { %"struct.sw::SpirvShader::InterfaceComponent"*, %"struct.sw::SpirvShader::InterfaceComponent"*, %"class.std::__1::__compressed_pair.118" }
%"struct.sw::SpirvShader::InterfaceComponent" = type { i8, %union.anon }
%union.anon = type { %struct.anon }
%struct.anon = type { i8 }
%"class.std::__1::__compressed_pair.118" = type { %"struct.std::__1::__compressed_pair_elem.119" }
%"struct.std::__1::__compressed_pair_elem.119" = type { %"struct.sw::SpirvShader::InterfaceComponent"* }
%"class.std::__1::unordered_map.123" = type { %"class.std::__1::__hash_table.124" }
%"class.std::__1::__hash_table.124" = type <{ %"class.std::__1::unique_ptr.125", %"class.std::__1::__compressed_pair.135", %"class.std::__1::__compressed_pair.140", %"class.std::__1::__compressed_pair.144", [4 x i8] }>
%"class.std::__1::unique_ptr.125" = type { %"class.std::__1::__compressed_pair.126" }
%"class.std::__1::__compressed_pair.126" = type { %"struct.std::__1::__compressed_pair_elem.127", %"struct.std::__1::__compressed_pair_elem.129" }
%"struct.std::__1::__compressed_pair_elem.127" = type { %"struct.std::__1::__hash_node_base.128"** }
%"struct.std::__1::__hash_node_base.128" = type { %"struct.std::__1::__hash_node_base.128"* }
%"struct.std::__1::__compressed_pair_elem.129" = type { %"class.std::__1::__bucket_list_deallocator.130" }
%"class.std::__1::__bucket_list_deallocator.130" = type { %"class.std::__1::__compressed_pair.131" }
%"class.std::__1::__compressed_pair.131" = type { %"struct.std::__1::__compressed_pair_elem.41" }
%"class.std::__1::__compressed_pair.135" = type { %"struct.std::__1::__compressed_pair_elem.136" }
%"struct.std::__1::__compressed_pair_elem.136" = type { %"struct.std::__1::__hash_node_base.128" }
%"class.std::__1::__compressed_pair.140" = type { %"struct.std::__1::__compressed_pair_elem.41" }
%"class.std::__1::__compressed_pair.144" = type { %"struct.std::__1::__compressed_pair_elem.53" }
%"struct.sw::SpirvShader::WorkgroupMemory" = type { i32, [4 x i8], %"class.std::__1::unordered_map.150" }
%"class.std::__1::unordered_map.150" = type { %"class.std::__1::__hash_table.151" }
%"class.std::__1::__hash_table.151" = type <{ %"class.std::__1::unique_ptr.152", %"class.std::__1::__compressed_pair.162", %"class.std::__1::__compressed_pair.167", %"class.std::__1::__compressed_pair.170", [4 x i8] }>
%"class.std::__1::unique_ptr.152" = type { %"class.std::__1::__compressed_pair.153" }
%"class.std::__1::__compressed_pair.153" = type { %"struct.std::__1::__compressed_pair_elem.154", %"struct.std::__1::__compressed_pair_elem.156" }
%"struct.std::__1::__compressed_pair_elem.154" = type { %"struct.std::__1::__hash_node_base.155"** }
%"struct.std::__1::__hash_node_base.155" = type { %"struct.std::__1::__hash_node_base.155"* }
%"struct.std::__1::__compressed_pair_elem.156" = type { %"class.std::__1::__bucket_list_deallocator.157" }
%"class.std::__1::__bucket_list_deallocator.157" = type { %"class.std::__1::__compressed_pair.158" }
%"class.std::__1::__compressed_pair.158" = type { %"struct.std::__1::__compressed_pair_elem.41" }
%"class.std::__1::__compressed_pair.162" = type { %"struct.std::__1::__compressed_pair_elem.163" }
%"struct.std::__1::__compressed_pair_elem.163" = type { %"struct.std::__1::__hash_node_base.155" }
%"class.std::__1::__compressed_pair.167" = type { %"struct.std::__1::__compressed_pair_elem.41" }
%"class.std::__1::__compressed_pair.170" = type { %"struct.std::__1::__compressed_pair_elem.53" }
%"struct.sw::SpirvShader::Modes" = type { i16, i32, i32, i32 }
%"struct.sw::SpirvShader::Capabilities" = type { i32 }
%"class.std::__1::unordered_map.174" = type { %"class.std::__1::__hash_table.175" }
%"class.std::__1::__hash_table.175" = type <{ %"class.std::__1::unique_ptr.176", %"class.std::__1::__compressed_pair.186", %"class.std::__1::__compressed_pair.191", %"class.std::__1::__compressed_pair.194", [4 x i8] }>
%"class.std::__1::unique_ptr.176" = type { %"class.std::__1::__compressed_pair.177" }
%"class.std::__1::__compressed_pair.177" = type { %"struct.std::__1::__compressed_pair_elem.178", %"struct.std::__1::__compressed_pair_elem.180" }
%"struct.std::__1::__compressed_pair_elem.178" = type { %"struct.std::__1::__hash_node_base.179"** }
%"struct.std::__1::__hash_node_base.179" = type { %"struct.std::__1::__hash_node_base.179"* }
%"struct.std::__1::__compressed_pair_elem.180" = type { %"class.std::__1::__bucket_list_deallocator.181" }
%"class.std::__1::__bucket_list_deallocator.181" = type { %"class.std::__1::__compressed_pair.182" }
%"class.std::__1::__compressed_pair.182" = type { %"struct.std::__1::__compressed_pair_elem.41" }
%"class.std::__1::__compressed_pair.186" = type { %"struct.std::__1::__compressed_pair_elem.187" }
%"struct.std::__1::__compressed_pair_elem.187" = type { %"struct.std::__1::__hash_node_base.179" }
%"class.std::__1::__compressed_pair.191" = type { %"struct.std::__1::__compressed_pair_elem.41" }
%"class.std::__1::__compressed_pair.194" = type { %"struct.std::__1::__compressed_pair_elem.53" }
%"class.std::__1::unordered_map.198" = type { %"class.std::__1::__hash_table.199" }
%"class.std::__1::__hash_table.199" = type <{ %"class.std::__1::unique_ptr.200", %"class.std::__1::__compressed_pair.210", %"class.std::__1::__compressed_pair.215", %"class.std::__1::__compressed_pair.218", [4 x i8] }>
%"class.std::__1::unique_ptr.200" = type { %"class.std::__1::__compressed_pair.201" }
%"class.std::__1::__compressed_pair.201" = type { %"struct.std::__1::__compressed_pair_elem.202", %"struct.std::__1::__compressed_pair_elem.204" }
%"struct.std::__1::__compressed_pair_elem.202" = type { %"struct.std::__1::__hash_node_base.203"** }
%"struct.std::__1::__hash_node_base.203" = type { %"struct.std::__1::__hash_node_base.203"* }
%"struct.std::__1::__compressed_pair_elem.204" = type { %"class.std::__1::__bucket_list_deallocator.205" }
%"class.std::__1::__bucket_list_deallocator.205" = type { %"class.std::__1::__compressed_pair.206" }
%"class.std::__1::__compressed_pair.206" = type { %"struct.std::__1::__compressed_pair_elem.41" }
%"class.std::__1::__compressed_pair.210" = type { %"struct.std::__1::__compressed_pair_elem.211" }
%"struct.std::__1::__compressed_pair_elem.211" = type { %"struct.std::__1::__hash_node_base.203" }
%"class.std::__1::__compressed_pair.215" = type { %"struct.std::__1::__compressed_pair_elem.41" }
%"class.std::__1::__compressed_pair.218" = type { %"struct.std::__1::__compressed_pair_elem.53" }
%"class.std::__1::unordered_map.222" = type { %"class.std::__1::__hash_table.223" }
%"class.std::__1::__hash_table.223" = type <{ %"class.std::__1::unique_ptr.224", %"class.std::__1::__compressed_pair.234", %"class.std::__1::__compressed_pair.239", %"class.std::__1::__compressed_pair.243", [4 x i8] }>
%"class.std::__1::unique_ptr.224" = type { %"class.std::__1::__compressed_pair.225" }
%"class.std::__1::__compressed_pair.225" = type { %"struct.std::__1::__compressed_pair_elem.226", %"struct.std::__1::__compressed_pair_elem.228" }
%"struct.std::__1::__compressed_pair_elem.226" = type { %"struct.std::__1::__hash_node_base.227"** }
%"struct.std::__1::__hash_node_base.227" = type { %"struct.std::__1::__hash_node_base.227"* }
%"struct.std::__1::__compressed_pair_elem.228" = type { %"class.std::__1::__bucket_list_deallocator.229" }
%"class.std::__1::__bucket_list_deallocator.229" = type { %"class.std::__1::__compressed_pair.230" }
%"class.std::__1::__compressed_pair.230" = type { %"struct.std::__1::__compressed_pair_elem.41" }
%"class.std::__1::__compressed_pair.234" = type { %"struct.std::__1::__compressed_pair_elem.235" }
%"struct.std::__1::__compressed_pair_elem.235" = type { %"struct.std::__1::__hash_node_base.227" }
%"class.std::__1::__compressed_pair.239" = type { %"struct.std::__1::__compressed_pair_elem.41" }
%"class.std::__1::__compressed_pair.243" = type { %"struct.std::__1::__compressed_pair_elem.53" }
%"class.std::__1::unordered_map.249" = type { %"class.std::__1::__hash_table.250" }
%"class.std::__1::__hash_table.250" = type <{ %"class.std::__1::unique_ptr.251", %"class.std::__1::__compressed_pair.261", %"class.std::__1::__compressed_pair.266", %"class.std::__1::__compressed_pair.270", [4 x i8] }>
%"class.std::__1::unique_ptr.251" = type { %"class.std::__1::__compressed_pair.252" }
%"class.std::__1::__compressed_pair.252" = type { %"struct.std::__1::__compressed_pair_elem.253", %"struct.std::__1::__compressed_pair_elem.255" }
%"struct.std::__1::__compressed_pair_elem.253" = type { %"struct.std::__1::__hash_node_base.254"** }
%"struct.std::__1::__hash_node_base.254" = type { %"struct.std::__1::__hash_node_base.254"* }
%"struct.std::__1::__compressed_pair_elem.255" = type { %"class.std::__1::__bucket_list_deallocator.256" }
%"class.std::__1::__bucket_list_deallocator.256" = type { %"class.std::__1::__compressed_pair.257" }
%"class.std::__1::__compressed_pair.257" = type { %"struct.std::__1::__compressed_pair_elem.41" }
%"class.std::__1::__compressed_pair.261" = type { %"struct.std::__1::__compressed_pair_elem.262" }
%"struct.std::__1::__compressed_pair_elem.262" = type { %"struct.std::__1::__hash_node_base.254" }
%"class.std::__1::__compressed_pair.266" = type { %"struct.std::__1::__compressed_pair_elem.41" }
%"class.std::__1::__compressed_pair.270" = type { %"struct.std::__1::__compressed_pair_elem.53" }
%"class.std::__1::unordered_map.276" = type { %"class.std::__1::__hash_table.277" }
%"class.std::__1::__hash_table.277" = type <{ %"class.std::__1::unique_ptr.278", %"class.std::__1::__compressed_pair.288", %"class.std::__1::__compressed_pair.293", %"class.std::__1::__compressed_pair.297", [4 x i8] }>
%"class.std::__1::unique_ptr.278" = type { %"class.std::__1::__compressed_pair.279" }
%"class.std::__1::__compressed_pair.279" = type { %"struct.std::__1::__compressed_pair_elem.280", %"struct.std::__1::__compressed_pair_elem.282" }
%"struct.std::__1::__compressed_pair_elem.280" = type { %"struct.std::__1::__hash_node_base.281"** }
%"struct.std::__1::__hash_node_base.281" = type { %"struct.std::__1::__hash_node_base.281"* }
%"struct.std::__1::__compressed_pair_elem.282" = type { %"class.std::__1::__bucket_list_deallocator.283" }
%"class.std::__1::__bucket_list_deallocator.283" = type { %"class.std::__1::__compressed_pair.284" }
%"class.std::__1::__compressed_pair.284" = type { %"struct.std::__1::__compressed_pair_elem.41" }
%"class.std::__1::__compressed_pair.288" = type { %"struct.std::__1::__compressed_pair_elem.289" }
%"struct.std::__1::__compressed_pair_elem.289" = type { %"struct.std::__1::__hash_node_base.281" }
%"class.std::__1::__compressed_pair.293" = type { %"struct.std::__1::__compressed_pair_elem.41" }
%"class.std::__1::__compressed_pair.297" = type { %"struct.std::__1::__compressed_pair_elem.53" }
%"class.std::__1::unordered_set" = type { %"class.std::__1::__hash_table.303" }
%"class.std::__1::__hash_table.303" = type <{ %"class.std::__1::unique_ptr.304", %"class.std::__1::__compressed_pair.314", %"class.std::__1::__compressed_pair.319", %"class.std::__1::__compressed_pair.321", [4 x i8] }>
%"class.std::__1::unique_ptr.304" = type { %"class.std::__1::__compressed_pair.305" }
%"class.std::__1::__compressed_pair.305" = type { %"struct.std::__1::__compressed_pair_elem.306", %"struct.std::__1::__compressed_pair_elem.308" }
%"struct.std::__1::__compressed_pair_elem.306" = type { %"struct.std::__1::__hash_node_base.307"** }
%"struct.std::__1::__hash_node_base.307" = type { %"struct.std::__1::__hash_node_base.307"* }
%"struct.std::__1::__compressed_pair_elem.308" = type { %"class.std::__1::__bucket_list_deallocator.309" }
%"class.std::__1::__bucket_list_deallocator.309" = type { %"class.std::__1::__compressed_pair.310" }
%"class.std::__1::__compressed_pair.310" = type { %"struct.std::__1::__compressed_pair_elem.41" }
%"class.std::__1::__compressed_pair.314" = type { %"struct.std::__1::__compressed_pair_elem.315" }
%"struct.std::__1::__compressed_pair_elem.315" = type { %"struct.std::__1::__hash_node_base.307" }
%"class.std::__1::__compressed_pair.319" = type { %"struct.std::__1::__compressed_pair_elem.41" }
%"class.std::__1::__compressed_pair.321" = type { %"struct.std::__1::__compressed_pair_elem.53" }
%"struct.sw::SpirvShader::Impl" = type { %"struct.sw::SpirvShader::Impl::Debugger"* }
%"struct.sw::SpirvShader::Impl::Debugger" = type opaque
%"class.vk::RenderPass" = type { i32, %struct.VkAttachmentDescription*, i32, %struct.VkSubpassDescription*, %struct.VkSubpassDescriptionDepthStencilResolve*, i32, %struct.VkSubpassDependency*, i32*, i32*, i32* }
%struct.VkAttachmentDescription = type { i32, i32, i32, i32, i32, i32, i32, i32, i32 }
%struct.VkSubpassDescription = type { i32, i32, i32, %struct.VkAttachmentReference*, i32, %struct.VkAttachmentReference*, %struct.VkAttachmentReference*, %struct.VkAttachmentReference*, i32, i32* }
%struct.VkAttachmentReference = type { i32, i32 }
%struct.VkSubpassDescriptionDepthStencilResolve = type { i32, i8*, i32, i32, %struct.VkAttachmentReference2* }
%struct.VkAttachmentReference2 = type { i32, i8*, i32, i32, i32 }
%struct.VkSubpassDependency = type { i32, i32, i32, i32, i32, i32, i32 }
%"class.std::__1::shared_ptr" = type { %"class.vk::dbg::Context"*, %"class.std::__1::__shared_weak_count"* }
%"class.vk::dbg::Context" = type opaque
%"class.std::__1::__shared_weak_count" = type { %"class.std::__1::__shared_count", i64 }
%"class.std::__1::__shared_count" = type { i32 (...)**, i64 }
%"class.sw::SpirvShader::Operand" = type <{ i32*, %"class.sw::Intermediate"*, i32, [4 x i8] }>
%"class.sw::Intermediate" = type { i32, %"class.rr::Value"** }
%"class.sw::SpirvShader::Object" = type <{ %"class.sw::SpirvShader::InsnIterator", %"class.std::__1::vector", i32, [4 x i8] }>
%"class.sw::SpirvShader::InsnIterator" = type { %"class.std::__1::__wrap_iter" }
%"class.std::__1::__wrap_iter" = type { i32* }
%class.VkNonDispatchableHandle = type { i64 }
%class.VkNonDispatchableHandle.0 = type { i64 }
%class.VkNonDispatchableHandle.1 = type { i64 }
%class.VkNonDispatchableHandle.2 = type { i64 }
%class.VkNonDispatchableHandle.3 = type { i64 }
%class.VkNonDispatchableHandle.4 = type { i64 }
%class.VkNonDispatchableHandle.5 = type { i64 }
%class.VkNonDispatchableHandle.6 = type { i64 }
%class.VkNonDispatchableHandle.7 = type { i64 }
%class.VkNonDispatchableHandle.8 = type { i64 }
%class.VkNonDispatchableHandle.9 = type { i64 }
%class.VkNonDispatchableHandle.10 = type { i64 }
%class.VkNonDispatchableHandle.11 = type { i64 }
%class.VkNonDispatchableHandle.12 = type { i64 }
%class.VkNonDispatchableHandle.13 = type { i64 }
%class.VkNonDispatchableHandle.14 = type { i64 }
%class.VkNonDispatchableHandle.15 = type { i64 }
%class.VkNonDispatchableHandle.16 = type { i64 }
%class.VkNonDispatchableHandle.17 = type { i64 }
%class.VkNonDispatchableHandle.18 = type { i64 }
%class.VkNonDispatchableHandle.19 = type { i64 }
%class.VkNonDispatchableHandle.20 = type { i64 }
%class.VkNonDispatchableHandle.21 = type { i64 }
%class.VkNonDispatchableHandle.22 = type { i64 }
%class.VkNonDispatchableHandle.23 = type { i64 }
%class.VkNonDispatchableHandle.24 = type { i64 }
%class.VkNonDispatchableHandle.25 = type { i64 }
%class.VkNonDispatchableHandle.26 = type { i64 }
%class.VkNonDispatchableHandle.27 = type { i64 }
%class.VkNonDispatchableHandle.28 = type { i64 }
%class.VkNonDispatchableHandle.29 = type { i64 }
%class.VkNonDispatchableHandle.30 = type { i64 }
%class.VkNonDispatchableHandle.31 = type { i64 }
%class.VkNonDispatchableHandle.32 = type { i64 }
%class.VkNonDispatchableHandle.33 = type { i64 }
%class.VkNonDispatchableHandle.34 = type { i64 }
%class.VkNonDispatchableHandle.35 = type { i64 }
%"class.std::__1::tuple.1589" = type { %"struct.std::__1::__tuple_impl.1590" }
%"struct.std::__1::__tuple_impl.1590" = type { %"class.std::__1::__tuple_leaf.1591" }
%"class.std::__1::__tuple_leaf.1591" = type { %"class.sw::SpirvShader::TypeOrObjectID"* }
%"class.sw::SpirvShader::TypeOrObjectID" = type { %"class.sw::SpirvID.327" }
%"class.sw::SpirvID.327" = type { i32 }
%"class.std::__1::tuple.1554" = type { i8 }
%"class.std::__1::tuple.1564" = type { %"struct.std::__1::__tuple_impl.1565" }
%"struct.std::__1::__tuple_impl.1565" = type { %"class.std::__1::__tuple_leaf.1566" }
%"class.std::__1::__tuple_leaf.1566" = type { %"class.sw::SpirvID.328"* }
%"class.sw::SpirvID.328" = type { i32 }
%"class.std::__1::tuple.1576" = type { %"struct.std::__1::__tuple_impl.1577" }
%"struct.std::__1::__tuple_impl.1577" = type { %"class.std::__1::__tuple_leaf.1578" }
%"class.std::__1::__tuple_leaf.1578" = type { %"class.sw::SpirvID.329"* }
%"class.sw::SpirvID.329" = type { i32 }
%"class.std::__1::tuple.1593" = type { %"struct.std::__1::__tuple_impl.1594" }
%"struct.std::__1::__tuple_impl.1594" = type { %"class.std::__1::__tuple_leaf.1595" }
%"class.std::__1::__tuple_leaf.1595" = type { %"class.sw::SpirvID.329"* }
%"class.std::__1::tuple.1599" = type { %"struct.std::__1::__tuple_impl.1600" }
%"struct.std::__1::__tuple_impl.1600" = type { %"class.std::__1::__tuple_leaf.1601" }
%"class.std::__1::__tuple_leaf.1601" = type { %"class.sw::SpirvID"* }
%"class.std::__1::tuple.1612" = type { %"struct.std::__1::__tuple_impl.1613" }
%"struct.std::__1::__tuple_impl.1613" = type { %"class.std::__1::__tuple_leaf.1614" }
%"class.std::__1::__tuple_leaf.1614" = type { %"class.sw::SpirvID.326"* }
%"class.std::__1::tuple.1551" = type { %"struct.std::__1::__tuple_impl.1552" }
%"struct.std::__1::__tuple_impl.1552" = type { %"class.std::__1::__tuple_leaf.1553" }
%"class.std::__1::__tuple_leaf.1553" = type { %"class.sw::SpirvShader::TypeOrObjectID"* }
%"class.std::__1::tuple.1625" = type { %"struct.std::__1::__tuple_impl.1626" }
%"struct.std::__1::__tuple_impl.1626" = type { %"class.std::__1::__tuple_leaf.1627" }
%"class.std::__1::__tuple_leaf.1627" = type { %"class.sw::SpirvID.328"* }
%"class.sw::SpirvID.387" = type { i32 }
%"class.sw::SpirvShader::Block" = type { i32, %"class.sw::SpirvShader::InsnIterator", %"class.sw::SpirvShader::InsnIterator", %"class.sw::SpirvID.326", %"class.sw::SpirvID.326", %"class.std::__1::unordered_set.337", %"class.std::__1::unordered_set.337", i8, %"class.sw::SpirvShader::InsnIterator", %"class.sw::SpirvShader::InsnIterator" }
%"class.sw::SpirvShader::Extension" = type { i32 }
%"struct.sw::SpirvShader::Decorations" = type <{ i32, i32, i32, i32, i32, i32, i16, [2 x i8] }>
%"class.std::__1::__vector_base_common" = type { i8 }
%"struct.std::__1::pair" = type { %"class.sw::SpirvShader::TypeOrObjectID", %"struct.sw::SpirvShader::Decorations" }
%"struct.std::__1::pair.400" = type { %"class.sw::SpirvID.328", %"struct.sw::SpirvShader::DescriptorDecorations" }
%"struct.sw::SpirvShader::DescriptorDecorations" = type { i32, i32, i32 }
%"class.std::__1::vector.330" = type { %"class.std::__1::__vector_base.331" }
%"class.std::__1::__vector_base.331" = type { %"struct.sw::SpirvShader::Decorations"*, %"struct.sw::SpirvShader::Decorations"*, %"class.std::__1::__compressed_pair.332" }
%"class.std::__1::__compressed_pair.332" = type { %"struct.std::__1::__compressed_pair_elem.333" }
%"struct.std::__1::__compressed_pair_elem.333" = type { %"struct.sw::SpirvShader::Decorations"* }
%"class.std::__1::__hash_table.363" = type <{ %"class.std::__1::unique_ptr.364", %"class.std::__1::__compressed_pair.374", %"class.std::__1::__compressed_pair.379", %"class.std::__1::__compressed_pair.382", [4 x i8] }>
%"class.std::__1::unique_ptr.364" = type { %"class.std::__1::__compressed_pair.365" }
%"class.std::__1::__compressed_pair.365" = type { %"struct.std::__1::__compressed_pair_elem.366", %"struct.std::__1::__compressed_pair_elem.368" }
%"struct.std::__1::__compressed_pair_elem.366" = type { %"struct.std::__1::__hash_node_base.367"** }
%"struct.std::__1::__hash_node_base.367" = type { %"struct.std::__1::__hash_node_base.367"* }
%"struct.std::__1::__compressed_pair_elem.368" = type { %"class.std::__1::__bucket_list_deallocator.369" }
%"class.std::__1::__bucket_list_deallocator.369" = type { %"class.std::__1::__compressed_pair.370" }
%"class.std::__1::__compressed_pair.370" = type { %"struct.std::__1::__compressed_pair_elem.41" }
%"class.std::__1::__compressed_pair.374" = type { %"struct.std::__1::__compressed_pair_elem.375" }
%"struct.std::__1::__compressed_pair_elem.375" = type { %"struct.std::__1::__hash_node_base.367" }
%"class.std::__1::__compressed_pair.379" = type { %"struct.std::__1::__compressed_pair_elem.41" }
%"class.std::__1::__compressed_pair.382" = type { %"struct.std::__1::__compressed_pair_elem.53" }
%"class.sw::SpirvShader::Type" = type { %"class.sw::SpirvShader::InsnIterator", i32, i32, i8, %"class.sw::SpirvID.329" }
%"class.sw::SpirvShader::Function" = type { %"class.sw::SpirvID.326", [4 x i8], %"class.std::__1::unordered_map.362", %"class.sw::SpirvID.329", %"class.sw::SpirvID.329" }
%"class.std::__1::unordered_map.362" = type { %"class.std::__1::__hash_table.363" }
%"struct.std::__1::pair.386" = type <{ i8*, i32, [4 x i8] }>
%"struct.std::__1::pair.1461" = type { %"class.sw::SpirvID.387", %"class.sw::SpirvShader::Extension" }
%"struct.std::__1::__hash_node.1488" = type { %"struct.std::__1::__hash_node_base.227", i64, %"struct.std::__1::__hash_value_type.1487" }
%"struct.std::__1::__hash_value_type.1487" = type { %"struct.std::__1::pair.403" }
%"struct.std::__1::pair.403" = type { %"class.sw::SpirvID", [4 x i8], %"class.sw::SpirvShader::Function" }
%"class.std::__1::tuple.1675" = type { %"struct.std::__1::__tuple_impl.1676" }
%"struct.std::__1::__tuple_impl.1676" = type { %"class.std::__1::__tuple_leaf.1677" }
%"class.std::__1::__tuple_leaf.1677" = type { i32* }
%"class.std::__1::function" = type { %"class.std::__1::__function::__policy_func" }
%"class.std::__1::__function::__policy_func" = type { %"union.std::__1::__function::__policy_storage", %"struct.std::__1::__function::__policy_invoker", %"struct.std::__1::__function::__policy"* }
%"union.std::__1::__function::__policy_storage" = type { i8*, [8 x i8] }
%"struct.std::__1::__function::__policy_invoker" = type { void (%"union.std::__1::__function::__policy_storage"*, %"struct.sw::SpirvShader::Decorations"*, i8)* }
%"struct.std::__1::pair.1530" = type { i32, %"struct.sw::SpirvShader::BuiltinMapping" }
%"struct.sw::SpirvShader::BuiltinMapping" = type { %"class.sw::SpirvID.328", i32, i32 }
%"struct.sw::SIMD::Pointer" = type <{ %"class.rr::Pointer", %"class.rr::Int", i32, [4 x i8], %"class.rr::Int4", %"struct.std::__1::array.1104", i8, i8, [6 x i8] }>
%"struct.std::__1::array.1104" = type { [4 x i32] }
%"class.rr::RValue" = type { %"class.rr::Value"* }
%"class.rr::RValue.1105" = type { %"class.rr::Value"* }
%"class.rr::RValue.1106" = type { %"class.rr::Value"* }
%"struct.sw::SpirvRoutine::SamplerCache" = type { %"class.rr::Pointer", %"class.rr::Int", %"class.rr::Pointer" }
%"class.std::__1::tuple" = type { %"struct.std::__1::__tuple_impl" }
%"struct.std::__1::__tuple_impl" = type { %"class.std::__1::__tuple_leaf" }
%"class.std::__1::__tuple_leaf" = type { %"class.sw::SpirvID.328"* }
%"class.std::__1::tuple.1508" = type { %"struct.std::__1::__tuple_impl.1509" }
%"struct.std::__1::__tuple_impl.1509" = type { %"class.std::__1::__tuple_leaf.1510" }
%"class.std::__1::__tuple_leaf.1510" = type { i32* }
%"class.rr::RValue.1406" = type { %"class.rr::Value"* }
%"class.rr::UInt4" = type { %"class.rr::LValue.1123", %"struct.rr::XYZW.1124" }
%"class.rr::LValue.1123" = type { %"class.rr::Variable" }
%"struct.rr::XYZW.1124" = type { %union.anon.1125 }
%union.anon.1125 = type { %"class.rr::SwizzleMask1.1126" }
%"class.rr::SwizzleMask1.1126" = type { %"class.rr::UInt4"* }
%"class.rr::IfElseData" = type <{ %"class.rr::BasicBlock"*, %"class.rr::BasicBlock"*, %"class.rr::BasicBlock"*, i32, [4 x i8] }>
%"class.rr::BasicBlock" = type opaque
%"class.rr::RValue.1407" = type { %"class.rr::Value"* }
%"class.rr::RValue.1408" = type { %"class.rr::Value"* }
%"class.rr::UInt" = type { %"class.rr::LValue.1409" }
%"class.rr::LValue.1409" = type { %"class.rr::Variable" }
%"class.rr::RValue.1410" = type { %"class.rr::Value"* }
%"class.rr::Pointer.1411" = type <{ %"class.rr::LValue.1412", i32, [4 x i8] }>
%"class.rr::LValue.1412" = type { %"class.rr::Variable" }
%"class.rr::RValue.1414" = type { %"class.rr::Value"* }
%"class.rr::RValue.1122" = type { %"class.rr::Value"* }
%"struct.std::__1::__hash_node" = type <{ %"struct.std::__1::__hash_node_base.342", i64, %"class.sw::SpirvID.326", [4 x i8] }>
%"class.std::__1::unique_ptr.1479" = type { %"class.std::__1::__compressed_pair.1480" }
%"class.std::__1::__compressed_pair.1480" = type { %"struct.std::__1::__compressed_pair_elem.1481", %"struct.std::__1::__compressed_pair_elem.1482" }
%"struct.std::__1::__compressed_pair_elem.1481" = type { %"struct.std::__1::__hash_node.1478"* }
%"struct.std::__1::__hash_node.1478" = type { %"struct.std::__1::__hash_node_base.417", i64, %"struct.std::__1::__hash_value_type.1476" }
%"struct.std::__1::__hash_value_type.1476" = type { %"struct.std::__1::pair.1477" }
%"struct.std::__1::pair.1477" = type { %"class.sw::SpirvID.328", %"class.rr::Array" }
%"struct.std::__1::__compressed_pair_elem.1482" = type { %"class.std::__1::__hash_node_destructor.1483" }
%"class.std::__1::__hash_node_destructor.1483" = type <{ %"class.std::__1::allocator.427"*, i8, [7 x i8] }>
%"class.std::__1::allocator.427" = type { i8 }
%"class.std::__1::unique_ptr.1498" = type { %"class.std::__1::__compressed_pair.1499" }
%"class.std::__1::__compressed_pair.1499" = type { %"struct.std::__1::__compressed_pair_elem.1500", %"struct.std::__1::__compressed_pair_elem.1501" }
%"struct.std::__1::__compressed_pair_elem.1500" = type { %"struct.std::__1::__hash_node.1473"* }
%"struct.std::__1::__hash_node.1473" = type { %"struct.std::__1::__hash_node_base.1085", i64, %"struct.std::__1::__hash_value_type.1472" }
%"struct.std::__1::__hash_value_type.1472" = type { %"struct.std::__1::pair.1471" }
%"struct.std::__1::pair.1471" = type { %"class.sw::SpirvID.328", [4 x i8], %"struct.sw::SIMD::Pointer" }
%"struct.std::__1::__compressed_pair_elem.1501" = type { %"class.std::__1::__hash_node_destructor.1502" }
%"class.std::__1::__hash_node_destructor.1502" = type <{ %"class.std::__1::allocator.1095"*, i8, [7 x i8] }>
%"class.std::__1::allocator.1095" = type { i8 }
%"class.std::__1::unique_ptr.1513" = type { %"class.std::__1::__compressed_pair.1514" }
%"class.std::__1::__compressed_pair.1514" = type { %"struct.std::__1::__compressed_pair_elem.1515", %"struct.std::__1::__compressed_pair_elem.1516" }
%"struct.std::__1::__compressed_pair_elem.1515" = type { %"struct.std::__1::__hash_node.1468"* }
%"struct.std::__1::__hash_node.1468" = type { %"struct.std::__1::__hash_node_base.1061", i64, %"struct.std::__1::__hash_value_type.1467" }
%"struct.std::__1::__hash_value_type.1467" = type { %"struct.std::__1::pair.1466" }
%"struct.std::__1::pair.1466" = type { %"class.sw::SpirvID.328", %"class.sw::Intermediate" }
%"struct.std::__1::__compressed_pair_elem.1516" = type { %"class.std::__1::__hash_node_destructor.1517" }
%"class.std::__1::__hash_node_destructor.1517" = type <{ %"class.std::__1::allocator.1071"*, i8, [7 x i8] }>
%"class.std::__1::allocator.1071" = type { i8 }
%"struct.std::__1::basic_string<char, std::__1::char_traits<char>, std::__1::allocator<char> >::__short" = type { [23 x i8], %struct.anon.1541 }
%struct.anon.1541 = type { i8 }
%"class.std::__1::unique_ptr.1579" = type { %"class.std::__1::__compressed_pair.1580" }
%"class.std::__1::__compressed_pair.1580" = type { %"struct.std::__1::__compressed_pair_elem.1581", %"struct.std::__1::__compressed_pair_elem.1582" }
%"struct.std::__1::__compressed_pair_elem.1581" = type { %"struct.std::__1::__hash_node.1524"* }
%"struct.std::__1::__hash_node.1524" = type { %"struct.std::__1::__hash_node_base.60", i64, %"struct.std::__1::__hash_value_type.1525" }
%"struct.std::__1::__hash_value_type.1525" = type { %"struct.std::__1::pair.406" }
%"struct.std::__1::pair.406" = type { %"class.sw::SpirvID.329", %"class.std::__1::vector.330" }
%"struct.std::__1::__compressed_pair_elem.1582" = type { %"class.std::__1::__hash_node_destructor.1583" }
%"class.std::__1::__hash_node_destructor.1583" = type <{ %"class.std::__1::allocator.70"*, i8, [7 x i8] }>
%"class.std::__1::allocator.70" = type { i8 }
%"struct.std::__1::__split_buffer.1586" = type { %"struct.sw::SpirvShader::Decorations"*, %"struct.sw::SpirvShader::Decorations"*, %"struct.sw::SpirvShader::Decorations"*, %"class.std::__1::__compressed_pair.1587" }
%"class.std::__1::__compressed_pair.1587" = type { %"struct.std::__1::__compressed_pair_elem.333", %"struct.std::__1::__compressed_pair_elem.1588" }
%"struct.std::__1::__compressed_pair_elem.1588" = type { %"class.std::__1::allocator.335"* }
%"class.std::__1::allocator.335" = type { i8 }
%"class.std::__1::unique_ptr.1602" = type { %"class.std::__1::__compressed_pair.1603" }
%"class.std::__1::__compressed_pair.1603" = type { %"struct.std::__1::__compressed_pair_elem.1604", %"struct.std::__1::__compressed_pair_elem.1605" }
%"struct.std::__1::__compressed_pair_elem.1604" = type { %"struct.std::__1::__hash_node.1488"* }
%"struct.std::__1::__compressed_pair_elem.1605" = type { %"class.std::__1::__hash_node_destructor.1606" }
%"class.std::__1::__hash_node_destructor.1606" = type <{ %"class.std::__1::allocator.237"*, i8, [7 x i8] }>
%"class.std::__1::allocator.237" = type { i8 }
%"class.std::__1::unique_ptr.1615" = type { %"class.std::__1::__compressed_pair.1616" }
%"class.std::__1::__compressed_pair.1616" = type { %"struct.std::__1::__compressed_pair_elem.1617", %"struct.std::__1::__compressed_pair_elem.1618" }
%"struct.std::__1::__compressed_pair_elem.1617" = type { %"struct.std::__1::__hash_node.1531"* }
%"struct.std::__1::__hash_node.1531" = type { %"struct.std::__1::__hash_node_base.367", i64, %"struct.std::__1::__hash_value_type.1532" }
%"struct.std::__1::__hash_value_type.1532" = type { %"struct.std::__1::pair.1533" }
%"struct.std::__1::pair.1533" = type { %"class.sw::SpirvID.326", %"class.sw::SpirvShader::Block" }
%"struct.std::__1::__compressed_pair_elem.1618" = type { %"class.std::__1::__hash_node_destructor.1619" }
%"class.std::__1::__hash_node_destructor.1619" = type <{ %"class.std::__1::allocator.377"*, i8, [7 x i8] }>
%"class.std::__1::allocator.377" = type { i8 }
%"class.std::__1::unique_ptr.1628" = type { %"class.std::__1::__compressed_pair.1629" }
%"class.std::__1::__compressed_pair.1629" = type { %"struct.std::__1::__compressed_pair_elem.1630", %"struct.std::__1::__compressed_pair_elem.1631" }
%"struct.std::__1::__compressed_pair_elem.1630" = type { %"struct.std::__1::__hash_node.1458"* }
%"struct.std::__1::__hash_node.1458" = type { %"struct.std::__1::__hash_node_base.203", i64, %"struct.std::__1::__hash_value_type.1457" }
%"struct.std::__1::__hash_value_type.1457" = type { %"struct.std::__1::pair.1456" }
%"struct.std::__1::pair.1456" = type { %"class.sw::SpirvID.328", [4 x i8], %"class.sw::SpirvShader::Object" }
%"struct.std::__1::__compressed_pair_elem.1631" = type { %"class.std::__1::__hash_node_destructor.1632" }
%"class.std::__1::__hash_node_destructor.1632" = type <{ %"class.std::__1::allocator.213"*, i8, [7 x i8] }>
%"class.std::__1::allocator.213" = type { i8 }
%"struct.std::__1::__hash_node.1545" = type <{ %"struct.std::__1::__hash_node_base.307", i64, i32, [4 x i8] }>
%"class.std::__1::unique_ptr.1654" = type { %"class.std::__1::__compressed_pair.1655" }
%"class.std::__1::__compressed_pair.1655" = type { %"struct.std::__1::__compressed_pair_elem.1656", %"struct.std::__1::__compressed_pair_elem.1657" }
%"struct.std::__1::__compressed_pair_elem.1656" = type { %"struct.std::__1::__hash_node.1534"* }
%"struct.std::__1::__hash_node.1534" = type { %"struct.std::__1::__hash_node_base.254", i64, %"struct.std::__1::__hash_value_type.1535" }
%"struct.std::__1::__hash_value_type.1535" = type { %"struct.std::__1::pair.1536" }
%"struct.std::__1::pair.1536" = type { %"class.sw::SpirvID.1537", %"class.std::__1::basic_string" }
%"class.sw::SpirvID.1537" = type { i32 }
%"class.std::__1::basic_string" = type { %"class.std::__1::__compressed_pair.1538" }
%"class.std::__1::__compressed_pair.1538" = type { %"struct.std::__1::__compressed_pair_elem.1539" }
%"struct.std::__1::__compressed_pair_elem.1539" = type { %"struct.std::__1::basic_string<char, std::__1::char_traits<char>, std::__1::allocator<char> >::__rep" }
%"struct.std::__1::basic_string<char, std::__1::char_traits<char>, std::__1::allocator<char> >::__rep" = type { %union.anon.1540 }
%union.anon.1540 = type { %"struct.std::__1::basic_string<char, std::__1::char_traits<char>, std::__1::allocator<char> >::__long" }
%"struct.std::__1::basic_string<char, std::__1::char_traits<char>, std::__1::allocator<char> >::__long" = type { i8*, i64, i64 }
%"struct.std::__1::__compressed_pair_elem.1657" = type { %"class.std::__1::__hash_node_destructor.1658" }
%"class.std::__1::__hash_node_destructor.1658" = type <{ %"class.std::__1::allocator.264"*, i8, [7 x i8] }>
%"class.std::__1::allocator.264" = type { i8 }
%"class.std::__1::__basic_string_common" = type { i8 }
%"class.std::__1::unique_ptr.1693" = type { %"class.std::__1::__compressed_pair.1694" }
%"class.std::__1::__compressed_pair.1694" = type { %"struct.std::__1::__compressed_pair_elem.1695", %"struct.std::__1::__compressed_pair_elem.1696" }
%"struct.std::__1::__compressed_pair_elem.1695" = type { %"struct.std::__1::__hash_node.1692"* }
%"struct.std::__1::__hash_node.1692" = type { %"struct.std::__1::__hash_node_base.441", i64, %"struct.std::__1::__hash_value_type.1690" }
%"struct.std::__1::__hash_value_type.1690" = type { %"struct.std::__1::pair.1691" }
%"struct.std::__1::pair.1691" = type { %"class.sw::SpirvID.328", %"struct.sw::SpirvRoutine::SamplerCache" }
%"struct.std::__1::__compressed_pair_elem.1696" = type { %"class.std::__1::__hash_node_destructor.1697" }
%"class.std::__1::__hash_node_destructor.1697" = type <{ %"class.std::__1::allocator.451"*, i8, [7 x i8] }>
%"class.std::__1::allocator.451" = type { i8 }
%"class.std::__1::__function::__default_alloc_func.1703" = type { %class.anon.1415 }
%class.anon.1415 = type { %"class.sw::SpirvRoutine"**, %"class.rr::Array"*, i32* }
%"class.rr::Reference.1704" = type <{ %"class.rr::Value"*, i32, [4 x i8] }>

$_ZNK23VkNonDispatchableHandleIP10VkBuffer_TEcvPvEv = comdat any

$_ZN23VkNonDispatchableHandleIP10VkBuffer_TEaSEm = comdat any

$_ZNK23VkNonDispatchableHandleIP9VkImage_TEcvPvEv = comdat any

$_ZN23VkNonDispatchableHandleIP9VkImage_TEaSEm = comdat any

$_ZNK23VkNonDispatchableHandleIP13VkSemaphore_TEcvPvEv = comdat any

$_ZN23VkNonDispatchableHandleIP13VkSemaphore_TEaSEm = comdat any

$_ZNK23VkNonDispatchableHandleIP9VkFence_TEcvPvEv = comdat any

$_ZN23VkNonDispatchableHandleIP9VkFence_TEaSEm = comdat any

$_ZNK23VkNonDispatchableHandleIP16VkDeviceMemory_TEcvPvEv = comdat any

$_ZN23VkNonDispatchableHandleIP16VkDeviceMemory_TEaSEm = comdat any

$_ZNK23VkNonDispatchableHandleIP9VkEvent_TEcvPvEv = comdat any

$_ZN23VkNonDispatchableHandleIP9VkEvent_TEaSEm = comdat any

$_ZNK23VkNonDispatchableHandleIP13VkQueryPool_TEcvPvEv = comdat any

$_ZN23VkNonDispatchableHandleIP13VkQueryPool_TEaSEm = comdat any

$_ZNK23VkNonDispatchableHandleIP14VkBufferView_TEcvPvEv = comdat any

$_ZN23VkNonDispatchableHandleIP14VkBufferView_TEaSEm = comdat any

$_ZNK23VkNonDispatchableHandleIP13VkImageView_TEcvPvEv = comdat any

$_ZN23VkNonDispatchableHandleIP13VkImageView_TEaSEm = comdat any

$_ZNK23VkNonDispatchableHandleIP16VkShaderModule_TEcvPvEv = comdat any

$_ZN23VkNonDispatchableHandleIP16VkShaderModule_TEaSEm = comdat any

$_ZNK23VkNonDispatchableHandleIP17VkPipelineCache_TEcvPvEv = comdat any

$_ZN23VkNonDispatchableHandleIP17VkPipelineCache_TEaSEm = comdat any

$_ZNK23VkNonDispatchableHandleIP18VkPipelineLayout_TEcvPvEv = comdat any

$_ZN23VkNonDispatchableHandleIP18VkPipelineLayout_TEaSEm = comdat any

$_ZNK23VkNonDispatchableHandleIP12VkPipeline_TEcvPvEv = comdat any

$_ZN23VkNonDispatchableHandleIP12VkPipeline_TEaSEm = comdat any

$_ZNK23VkNonDispatchableHandleIP14VkRenderPass_TEcvPvEv = comdat any

$_ZN23VkNonDispatchableHandleIP14VkRenderPass_TEaSEm = comdat any

$_ZNK23VkNonDispatchableHandleIP23VkDescriptorSetLayout_TEcvPvEv = comdat any

$_ZN23VkNonDispatchableHandleIP23VkDescriptorSetLayout_TEaSEm = comdat any

$_ZNK23VkNonDispatchableHandleIP11VkSampler_TEcvPvEv = comdat any

$_ZN23VkNonDispatchableHandleIP11VkSampler_TEaSEm = comdat any

$_ZNK23VkNonDispatchableHandleIP17VkDescriptorSet_TEcvPvEv = comdat any

$_ZN23VkNonDispatchableHandleIP17VkDescriptorSet_TEaSEm = comdat any

$_ZNK23VkNonDispatchableHandleIP18VkDescriptorPool_TEcvPvEv = comdat any

$_ZN23VkNonDispatchableHandleIP18VkDescriptorPool_TEaSEm = comdat any

$_ZNK23VkNonDispatchableHandleIP15VkFramebuffer_TEcvPvEv = comdat any

$_ZN23VkNonDispatchableHandleIP15VkFramebuffer_TEaSEm = comdat any

$_ZNK23VkNonDispatchableHandleIP15VkCommandPool_TEcvPvEv = comdat any

$_ZN23VkNonDispatchableHandleIP15VkCommandPool_TEaSEm = comdat any

$_ZNK23VkNonDispatchableHandleIP26VkSamplerYcbcrConversion_TEcvPvEv = comdat any

$_ZN23VkNonDispatchableHandleIP26VkSamplerYcbcrConversion_TEaSEm = comdat any

$_ZNK23VkNonDispatchableHandleIP28VkDescriptorUpdateTemplate_TEcvPvEv = comdat any

$_ZN23VkNonDispatchableHandleIP28VkDescriptorUpdateTemplate_TEaSEm = comdat any

$_ZNK23VkNonDispatchableHandleIP14VkSurfaceKHR_TEcvPvEv = comdat any

$_ZN23VkNonDispatchableHandleIP14VkSurfaceKHR_TEaSEm = comdat any

$_ZNK23VkNonDispatchableHandleIP16VkSwapchainKHR_TEcvPvEv = comdat any

$_ZN23VkNonDispatchableHandleIP16VkSwapchainKHR_TEaSEm = comdat any

$_ZNK23VkNonDispatchableHandleIP14VkDisplayKHR_TEcvPvEv = comdat any

$_ZN23VkNonDispatchableHandleIP14VkDisplayKHR_TEaSEm = comdat any

$_ZNK23VkNonDispatchableHandleIP18VkDisplayModeKHR_TEcvPvEv = comdat any

$_ZN23VkNonDispatchableHandleIP18VkDisplayModeKHR_TEaSEm = comdat any

$_ZNK23VkNonDispatchableHandleIP24VkDeferredOperationKHR_TEcvPvEv = comdat any

$_ZN23VkNonDispatchableHandleIP24VkDeferredOperationKHR_TEaSEm = comdat any

$_ZNK23VkNonDispatchableHandleIP26VkDebugReportCallbackEXT_TEcvPvEv = comdat any

$_ZN23VkNonDispatchableHandleIP26VkDebugReportCallbackEXT_TEaSEm = comdat any

$_ZNK23VkNonDispatchableHandleIP15VkCuModuleNVX_TEcvPvEv = comdat any

$_ZN23VkNonDispatchableHandleIP15VkCuModuleNVX_TEaSEm = comdat any

$_ZNK23VkNonDispatchableHandleIP17VkCuFunctionNVX_TEcvPvEv = comdat any

$_ZN23VkNonDispatchableHandleIP17VkCuFunctionNVX_TEaSEm = comdat any

$_ZNK23VkNonDispatchableHandleIP26VkDebugUtilsMessengerEXT_TEcvPvEv = comdat any

$_ZN23VkNonDispatchableHandleIP26VkDebugUtilsMessengerEXT_TEaSEm = comdat any

$_ZNK23VkNonDispatchableHandleIP22VkValidationCacheEXT_TEcvPvEv = comdat any

$_ZN23VkNonDispatchableHandleIP22VkValidationCacheEXT_TEaSEm = comdat any

$_ZNK23VkNonDispatchableHandleIP27VkAccelerationStructureNV_TEcvPvEv = comdat any

$_ZN23VkNonDispatchableHandleIP27VkAccelerationStructureNV_TEaSEm = comdat any

$_ZNK23VkNonDispatchableHandleIP33VkPerformanceConfigurationINTEL_TEcvPvEv = comdat any

$_ZN23VkNonDispatchableHandleIP33VkPerformanceConfigurationINTEL_TEaSEm = comdat any

$_ZNK23VkNonDispatchableHandleIP28VkIndirectCommandsLayoutNV_TEcvPvEv = comdat any

$_ZN23VkNonDispatchableHandleIP28VkIndirectCommandsLayoutNV_TEaSEm = comdat any

$_ZNK23VkNonDispatchableHandleIP22VkPrivateDataSlotEXT_TEcvPvEv = comdat any

$_ZN23VkNonDispatchableHandleIP22VkPrivateDataSlotEXT_TEaSEm = comdat any

$_ZNK23VkNonDispatchableHandleIP28VkAccelerationStructureKHR_TEcvPvEv = comdat any

$_ZN23VkNonDispatchableHandleIP28VkAccelerationStructureKHR_TEaSEm = comdat any

$_ZNSt3__16vectorIjNS_9allocatorIjEEEC2ERKS3_ = comdat any

$_ZNSt3__16vectorI8VkFormatNS_9allocatorIS1_EEE7reserveEm = comdat any

$_ZNSt3__16vectorIN2sw11SpirvShader11DecorationsENS_9allocatorIS3_EEE6resizeEm = comdat any

$_ZNSt3__16vectorIjNS_9allocatorIjEEE6resizeEm = comdat any

$_ZN2sw12SpirvRoutine14createVariableENS_7SpirvIDINS_11SpirvShader6ObjectEEEj = comdat any

$_ZN2rr7PointerINS_4ByteEEC2EDn = comdat any

$_ZNK2sw11SpirvShader7Operand5FloatEj = comdat any

$_ZNK2sw11SpirvShader7Operand4UIntEj = comdat any

$_ZNK2sw11SpirvShader7Operand3IntEj = comdat any

$_ZN2rr10IfElseDataC2ENS_6RValueINS_4BoolEEE = comdat any

$_ZN2rr7PointerINS_4ByteEEixENS_6RValueINS_3IntEEE = comdat any

$_ZN2rr7PointerINS_4UIntEEC2INS_4ByteEEENS_6RValueINS0_IT_EEEEi = comdat any

$_ZN2rr7PointerINS_3IntEEC2INS_4ByteEEENS_6RValueINS0_IT_EEEEi = comdat any

$_ZNSt3__112__hash_tableIN2sw7SpirvIDINS1_11SpirvShader5BlockEEENS_4hashIS5_EENS_8equal_toIS5_EENS_9allocatorIS5_EEE14__assign_multiINS_21__hash_const_iteratorIPNS_11__hash_nodeIS5_PvEEEEEEvT_SK_ = comdat any

$_ZNSt3__112__hash_tableIN2sw7SpirvIDINS1_11SpirvShader5BlockEEENS_4hashIS5_EENS_8equal_toIS5_EENS_9allocatorIS5_EEE27__node_insert_multi_prepareEmRS5_ = comdat any

$_ZNSt3__112__hash_tableIN2sw7SpirvIDINS1_11SpirvShader5BlockEEENS_4hashIS5_EENS_8equal_toIS5_EENS_9allocatorIS5_EEE27__node_insert_multi_performEPNS_11__hash_nodeIS5_PvEEPNS_16__hash_node_baseISG_EE = comdat any

$_ZNSt3__112__hash_tableIN2sw7SpirvIDINS1_11SpirvShader5BlockEEENS_4hashIS5_EENS_8equal_toIS5_EENS_9allocatorIS5_EEE6rehashEm = comdat any

$_ZNSt3__112__hash_tableIN2sw7SpirvIDINS1_11SpirvShader5BlockEEENS_4hashIS5_EENS_8equal_toIS5_EENS_9allocatorIS5_EEE8__rehashEm = comdat any

$_ZNSt3__112__hash_tableIN2sw7SpirvIDINS1_11SpirvShader5BlockEEENS_4hashIS5_EENS_8equal_toIS5_EENS_9allocatorIS5_EEE15__emplace_multiIJRKS5_EEENS_15__hash_iteratorIPNS_11__hash_nodeIS5_PvEEEEDpOT_ = comdat any

$_ZNSt3__112__hash_tableIN2sw7SpirvIDINS1_11SpirvShader5BlockEEENS_4hashIS5_EENS_8equal_toIS5_EENS_9allocatorIS5_EEED2Ev = comdat any

$_ZNKSt3__112__hash_tableINS_17__hash_value_typeIN2sw7SpirvIDINS2_11SpirvShader4TypeEEES5_EENS_22__unordered_map_hasherIS6_S7_NS_4hashIS6_EENS_8equal_toIS6_EELb1EEENS_21__unordered_map_equalIS6_S7_SC_SA_Lb1EEENS_9allocatorIS7_EEE4findIS6_EENS_21__hash_const_iteratorIPNS_11__hash_nodeIS7_PvEEEERKT_ = comdat any

$_ZNSt3__112__hash_tableINS_17__hash_value_typeIN2sw7SpirvIDINS2_11SpirvShader6ObjectEEEjEENS_22__unordered_map_hasherIS6_S7_NS_4hashIS6_EENS_8equal_toIS6_EELb1EEENS_21__unordered_map_equalIS6_S7_SC_SA_Lb1EEENS_9allocatorIS7_EEE25__emplace_unique_key_argsIS6_JRS6_RjEEENS_4pairINS_15__hash_iteratorIPNS_11__hash_nodeIS7_PvEEEEbEERKT_DpOT0_ = comdat any

$_ZNSt3__112__hash_tableINS_17__hash_value_typeIN2sw7SpirvIDINS2_11SpirvShader6ObjectEEEjEENS_22__unordered_map_hasherIS6_S7_NS_4hashIS6_EENS_8equal_toIS6_EELb1EEENS_21__unordered_map_equalIS6_S7_SC_SA_Lb1EEENS_9allocatorIS7_EEE6rehashEm = comdat any

$_ZNSt3__112__hash_tableINS_17__hash_value_typeIN2sw7SpirvIDINS2_11SpirvShader6ObjectEEEjEENS_22__unordered_map_hasherIS6_S7_NS_4hashIS6_EENS_8equal_toIS6_EELb1EEENS_21__unordered_map_equalIS6_S7_SC_SA_Lb1EEENS_9allocatorIS7_EEE8__rehashEm = comdat any

$_ZNKSt3__112__hash_tableINS_17__hash_value_typeIN2sw7SpirvIDINS2_11SpirvShader6ObjectEEES5_EENS_22__unordered_map_hasherIS6_S7_NS_4hashIS6_EENS_8equal_toIS6_EELb1EEENS_21__unordered_map_equalIS6_S7_SC_SA_Lb1EEENS_9allocatorIS7_EEE4findIS6_EENS_21__hash_const_iteratorIPNS_11__hash_nodeIS7_PvEEEERKT_ = comdat any

$_ZNKSt3__112__hash_tableINS_17__hash_value_typeIN2sw7SpirvIDINS2_11SpirvShader9ExtensionEEES5_EENS_22__unordered_map_hasherIS6_S7_NS_4hashIS6_EENS_8equal_toIS6_EELb1EEENS_21__unordered_map_equalIS6_S7_SC_SA_Lb1EEENS_9allocatorIS7_EEE4findIS6_EENS_21__hash_const_iteratorIPNS_11__hash_nodeIS7_PvEEEERKT_ = comdat any

$_ZNSt3__112__hash_tableINS_17__hash_value_typeIN2sw7SpirvIDINS2_11SpirvShader6ObjectEEEjEENS_22__unordered_map_hasherIS6_S7_NS_4hashIS6_EENS_8equal_toIS6_EELb1EEENS_21__unordered_map_equalIS6_S7_SC_SA_Lb1EEENS_9allocatorIS7_EEED2Ev = comdat any

$_ZNKSt3__112__hash_tableINS_17__hash_value_typeIN2sw7SpirvIDINS2_11SpirvShader6ObjectEEENS2_12IntermediateEEENS_22__unordered_map_hasherIS6_S8_NS_4hashIS6_EENS_8equal_toIS6_EELb1EEENS_21__unordered_map_equalIS6_S8_SD_SB_Lb1EEENS_9allocatorIS8_EEE4findIS6_EENS_21__hash_const_iteratorIPNS_11__hash_nodeIS8_PvEEEERKT_ = comdat any

$_ZNKSt3__112__hash_tableINS_17__hash_value_typeIN2sw7SpirvIDINS2_11SpirvShader6ObjectEEENS2_4SIMD7PointerEEENS_22__unordered_map_hasherIS6_S9_NS_4hashIS6_EENS_8equal_toIS6_EELb1EEENS_21__unordered_map_equalIS6_S9_SE_SC_Lb1EEENS_9allocatorIS9_EEE4findIS6_EENS_21__hash_const_iteratorIPNS_11__hash_nodeIS9_PvEEEERKT_ = comdat any

$_ZN2rr7PointerINS_4ByteEEC2ERKS2_ = comdat any

$_ZN2rr6LValueINS_7PointerINS_4ByteEEEEC2Ei = comdat any

$_ZN2rr7PointerINS_4ByteEED0Ev = comdat any

$_ZN2rr6LValueINS_7PointerINS_4ByteEEEED0Ev = comdat any

$_ZNSt3__112__hash_tableINS_17__hash_value_typeIN2sw7SpirvIDINS2_11SpirvShader6ObjectEEEN2rr5ArrayINS7_6Float4ELi1EEEEENS_22__unordered_map_hasherIS6_SB_NS_4hashIS6_EENS_8equal_toIS6_EELb1EEENS_21__unordered_map_equalIS6_SB_SG_SE_Lb1EEENS_9allocatorISB_EEE25__emplace_unique_key_argsIS6_JRS6_SA_EEENS_4pairINS_15__hash_iteratorIPNS_11__hash_nodeISB_PvEEEEbEERKT_DpOT0_ = comdat any

$_ZNSt3__112__hash_tableINS_17__hash_value_typeIN2sw7SpirvIDINS2_11SpirvShader6ObjectEEEN2rr5ArrayINS7_6Float4ELi1EEEEENS_22__unordered_map_hasherIS6_SB_NS_4hashIS6_EENS_8equal_toIS6_EELb1EEENS_21__unordered_map_equalIS6_SB_SG_SE_Lb1EEENS_9allocatorISB_EEE6rehashEm = comdat any

$_ZN2rr5ArrayINS_6Float4ELi1EED0Ev = comdat any

$_ZNSt3__112__hash_tableINS_17__hash_value_typeIN2sw7SpirvIDINS2_11SpirvShader6ObjectEEEN2rr5ArrayINS7_6Float4ELi1EEEEENS_22__unordered_map_hasherIS6_SB_NS_4hashIS6_EENS_8equal_toIS6_EELb1EEENS_21__unordered_map_equalIS6_SB_SG_SE_Lb1EEENS_9allocatorISB_EEE8__rehashEm = comdat any

$_ZNSt3__110unique_ptrINS_11__hash_nodeINS_17__hash_value_typeIN2sw7SpirvIDINS3_11SpirvShader6ObjectEEEN2rr5ArrayINS8_6Float4ELi1EEEEEPvEENS_22__hash_node_destructorINS_9allocatorISE_EEEEE5resetEPSE_ = comdat any

$_ZN2rr3IntD0Ev = comdat any

$_ZNKSt3__112__hash_tableINS_17__hash_value_typeIN2sw7SpirvIDINS2_11SpirvShader8FunctionEEES5_EENS_22__unordered_map_hasherIS6_S7_NS_4hashIS6_EENS_8equal_toIS6_EELb1EEENS_21__unordered_map_equalIS6_S7_SC_SA_Lb1EEENS_9allocatorIS7_EEE4findIS6_EENS_21__hash_const_iteratorIPNS_11__hash_nodeIS7_PvEEEERKT_ = comdat any

$_ZNSt3__112__hash_tableINS_17__hash_value_typeIN2sw7SpirvIDINS2_11SpirvShader6ObjectEEENS2_4SIMD7PointerEEENS_22__unordered_map_hasherIS6_S9_NS_4hashIS6_EENS_8equal_toIS6_EELb1EEENS_21__unordered_map_equalIS6_S9_SE_SC_Lb1EEENS_9allocatorIS9_EEED2Ev = comdat any

$_ZNSt3__112__hash_tableINS_17__hash_value_typeIN2sw7SpirvIDINS2_11SpirvShader6ObjectEEENS2_4SIMD7PointerEEENS_22__unordered_map_hasherIS6_S9_NS_4hashIS6_EENS_8equal_toIS6_EELb1EEENS_21__unordered_map_equalIS6_S9_SE_SC_Lb1EEENS_9allocatorIS9_EEE17__deallocate_nodeEPNS_16__hash_node_baseIPNS_11__hash_nodeIS9_PvEEEE = comdat any

$_ZNSt3__112__hash_tableINS_17__hash_value_typeIN2sw7SpirvIDINS2_11SpirvShader6ObjectEEENS2_12IntermediateEEENS_22__unordered_map_hasherIS6_S8_NS_4hashIS6_EENS_8equal_toIS6_EELb1EEENS_21__unordered_map_equalIS6_S8_SD_SB_Lb1EEENS_9allocatorIS8_EEED2Ev = comdat any

$_ZNSt3__112__hash_tableINS_17__hash_value_typeIN2sw7SpirvIDINS2_11SpirvShader6ObjectEEENS2_12IntermediateEEENS_22__unordered_map_hasherIS6_S8_NS_4hashIS6_EENS_8equal_toIS6_EELb1EEENS_21__unordered_map_equalIS6_S8_SD_SB_Lb1EEENS_9allocatorIS8_EEE17__deallocate_nodeEPNS_16__hash_node_baseIPNS_11__hash_nodeIS8_PvEEEE = comdat any

$_ZNSt3__112__hash_tableINS_17__hash_value_typeIN2sw11SpirvShader5Block4EdgeEN2rr6RValueINS6_4Int4EEEEENS_22__unordered_map_hasherIS5_SA_NS5_4HashENS_8equal_toIS5_EELb1EEENS_21__unordered_map_equalIS5_SA_SE_SC_Lb1EEENS_9allocatorISA_EEED2Ev = comdat any

$_ZNSt3__112__hash_tableINS_17__hash_value_typeIN2sw7SpirvIDINS2_11SpirvShader6ObjectEEENS2_4SIMD7PointerEEENS_22__unordered_map_hasherIS6_S9_NS_4hashIS6_EENS_8equal_toIS6_EELb1EEENS_21__unordered_map_equalIS6_S9_SE_SC_Lb1EEENS_9allocatorIS9_EEE25__emplace_unique_key_argsIS6_JRS6_RS8_EEENS_4pairINS_15__hash_iteratorIPNS_11__hash_nodeIS9_PvEEEEbEERKT_DpOT0_ = comdat any

$_ZNSt3__112__hash_tableINS_17__hash_value_typeIN2sw7SpirvIDINS2_11SpirvShader6ObjectEEENS2_4SIMD7PointerEEENS_22__unordered_map_hasherIS6_S9_NS_4hashIS6_EENS_8equal_toIS6_EELb1EEENS_21__unordered_map_equalIS6_S9_SE_SC_Lb1EEENS_9allocatorIS9_EEE21__construct_node_hashIRS6_JRS8_EEENS_10unique_ptrINS_11__hash_nodeIS9_PvEENS_22__hash_node_destructorINSI_ISR_EEEEEEmOT_DpOT0_ = comdat any

$_ZNSt3__112__hash_tableINS_17__hash_value_typeIN2sw7SpirvIDINS2_11SpirvShader6ObjectEEENS2_4SIMD7PointerEEENS_22__unordered_map_hasherIS6_S9_NS_4hashIS6_EENS_8equal_toIS6_EELb1EEENS_21__unordered_map_equalIS6_S9_SE_SC_Lb1EEENS_9allocatorIS9_EEE6rehashEm = comdat any

$_ZNSt3__112__hash_tableINS_17__hash_value_typeIN2sw7SpirvIDINS2_11SpirvShader6ObjectEEENS2_4SIMD7PointerEEENS_22__unordered_map_hasherIS6_S9_NS_4hashIS6_EENS_8equal_toIS6_EELb1EEENS_21__unordered_map_equalIS6_S9_SE_SC_Lb1EEENS_9allocatorIS9_EEE8__rehashEm = comdat any

$_ZNSt3__112__hash_tableINS_17__hash_value_typeIN2sw7SpirvIDINS2_11SpirvShader6ObjectEEENS2_12IntermediateEEENS_22__unordered_map_hasherIS6_S8_NS_4hashIS6_EENS_8equal_toIS6_EELb1EEENS_21__unordered_map_equalIS6_S8_SD_SB_Lb1EEENS_9allocatorIS8_EEE21__emplace_unique_implIJRKNS_21piecewise_construct_tENS_5tupleIJRS6_EEENSO_IJRjEEEEEENS_4pairINS_15__hash_iteratorIPNS_11__hash_nodeIS8_PvEEEEbEEDpOT_ = comdat any

$_ZNSt3__112__hash_tableINS_17__hash_value_typeIN2sw7SpirvIDINS2_11SpirvShader6ObjectEEENS2_12IntermediateEEENS_22__unordered_map_hasherIS6_S8_NS_4hashIS6_EENS_8equal_toIS6_EELb1EEENS_21__unordered_map_equalIS6_S8_SD_SB_Lb1EEENS_9allocatorIS8_EEE20__node_insert_uniqueEPNS_11__hash_nodeIS8_PvEE = comdat any

$_ZNSt3__19allocatorINS_11__hash_nodeINS_17__hash_value_typeIN2sw7SpirvIDINS3_11SpirvShader6ObjectEEENS3_12IntermediateEEEPvEEE9constructINS_4pairIKS7_S8_EEJRKNS_21piecewise_construct_tENS_5tupleIJRS7_EEENSK_IJRjEEEEEEvPT_DpOT0_ = comdat any

$_ZNSt3__112__hash_tableINS_17__hash_value_typeIN2sw7SpirvIDINS2_11SpirvShader6ObjectEEENS2_12IntermediateEEENS_22__unordered_map_hasherIS6_S8_NS_4hashIS6_EENS_8equal_toIS6_EELb1EEENS_21__unordered_map_equalIS6_S8_SD_SB_Lb1EEENS_9allocatorIS8_EEE28__node_insert_unique_prepareEmRS8_ = comdat any

$_ZNSt3__112__hash_tableINS_17__hash_value_typeIN2sw7SpirvIDINS2_11SpirvShader6ObjectEEENS2_12IntermediateEEENS_22__unordered_map_hasherIS6_S8_NS_4hashIS6_EENS_8equal_toIS6_EELb1EEENS_21__unordered_map_equalIS6_S8_SD_SB_Lb1EEENS_9allocatorIS8_EEE28__node_insert_unique_performEPNS_11__hash_nodeIS8_PvEE = comdat any

$_ZNSt3__112__hash_tableINS_17__hash_value_typeIN2sw7SpirvIDINS2_11SpirvShader6ObjectEEENS2_12IntermediateEEENS_22__unordered_map_hasherIS6_S8_NS_4hashIS6_EENS_8equal_toIS6_EELb1EEENS_21__unordered_map_equalIS6_S8_SD_SB_Lb1EEENS_9allocatorIS8_EEE6rehashEm = comdat any

$_ZNSt3__112__hash_tableINS_17__hash_value_typeIN2sw7SpirvIDINS2_11SpirvShader6ObjectEEENS2_12IntermediateEEENS_22__unordered_map_hasherIS6_S8_NS_4hashIS6_EENS_8equal_toIS6_EELb1EEENS_21__unordered_map_equalIS6_S8_SD_SB_Lb1EEENS_9allocatorIS8_EEE8__rehashEm = comdat any

$_ZNSt3__122__hash_node_destructorINS_9allocatorINS_11__hash_nodeINS_17__hash_value_typeIN2sw7SpirvIDINS4_11SpirvShader6ObjectEEENS4_12IntermediateEEEPvEEEEEclEPSC_ = comdat any

$_ZN2rr4UIntD0Ev = comdat any

$_ZNSt3__112__hash_tableINS_17__hash_value_typeIN2sw7SpirvIDINS2_11SpirvShader6ObjectEEEN2rr5ArrayINS7_6Float4ELi1EEEEENS_22__unordered_map_hasherIS6_SB_NS_4hashIS6_EENS_8equal_toIS6_EELb1EEENS_21__unordered_map_equalIS6_SB_SG_SE_Lb1EEENS_9allocatorISB_EEE4findIS6_EENS_15__hash_iteratorIPNS_11__hash_nodeISB_PvEEEERKT_ = comdat any

$_ZNSt3__16vectorIjNS_9allocatorIjEEE11__vallocateEm = comdat any

$_ZNSt3__112__hash_tableINS_17__hash_value_typeIN2sw11SpirvShader14TypeOrObjectIDENS3_11DecorationsEEENS_22__unordered_map_hasherIS4_S6_NS_4hashINS2_7SpirvIDINS3_12TypeOrObjectEEEEENS_8equal_toIS4_EELb1EEENS_21__unordered_map_equalIS4_S6_SE_SC_Lb1EEENS_9allocatorIS6_EEED2Ev = comdat any

$_ZNSt3__112__hash_tableINS_17__hash_value_typeIN2sw7SpirvIDINS2_11SpirvShader4TypeEEENS_6vectorINS4_11DecorationsENS_9allocatorIS8_EEEEEENS_22__unordered_map_hasherIS6_SC_NS_4hashIS6_EENS_8equal_toIS6_EELb1EEENS_21__unordered_map_equalIS6_SC_SH_SF_Lb1EEENS9_ISC_EEED2Ev = comdat any

$_ZNSt3__112__hash_tableINS_17__hash_value_typeIN2sw7SpirvIDINS2_11SpirvShader4TypeEEENS_6vectorINS4_11DecorationsENS_9allocatorIS8_EEEEEENS_22__unordered_map_hasherIS6_SC_NS_4hashIS6_EENS_8equal_toIS6_EELb1EEENS_21__unordered_map_equalIS6_SC_SH_SF_Lb1EEENS9_ISC_EEE17__deallocate_nodeEPNS_16__hash_node_baseIPNS_11__hash_nodeISC_PvEEEE = comdat any

$_ZNSt3__112__hash_tableINS_17__hash_value_typeIN2sw7SpirvIDINS2_11SpirvShader6ObjectEEENS4_21DescriptorDecorationsEEENS_22__unordered_map_hasherIS6_S8_NS_4hashIS6_EENS_8equal_toIS6_EELb1EEENS_21__unordered_map_equalIS6_S8_SD_SB_Lb1EEENS_9allocatorIS8_EEED2Ev = comdat any

$_ZNSt3__112__hash_tableINS_17__hash_value_typeIN3spv7BuiltInEN2sw11SpirvShader14BuiltinMappingEEENS_22__unordered_map_hasherIS3_S7_NS_4hashIjEENS_8equal_toIS3_EELb1EEENS_21__unordered_map_equalIS3_S7_SC_SA_Lb1EEENS_9allocatorIS7_EEED2Ev = comdat any

$_ZNSt3__112__hash_tableINS_17__hash_value_typeIN2sw7SpirvIDINS2_11SpirvShader4TypeEEES5_EENS_22__unordered_map_hasherIS6_S7_NS_4hashIS6_EENS_8equal_toIS6_EELb1EEENS_21__unordered_map_equalIS6_S7_SC_SA_Lb1EEENS_9allocatorIS7_EEED2Ev = comdat any

$_ZNSt3__112__hash_tableINS_17__hash_value_typeIN2sw7SpirvIDINS2_11SpirvShader6ObjectEEES5_EENS_22__unordered_map_hasherIS6_S7_NS_4hashIS6_EENS_8equal_toIS6_EELb1EEENS_21__unordered_map_equalIS6_S7_SC_SA_Lb1EEENS_9allocatorIS7_EEED2Ev = comdat any

$_ZNSt3__112__hash_tableINS_17__hash_value_typeIN2sw7SpirvIDINS2_11SpirvShader6ObjectEEES5_EENS_22__unordered_map_hasherIS6_S7_NS_4hashIS6_EENS_8equal_toIS6_EELb1EEENS_21__unordered_map_equalIS6_S7_SC_SA_Lb1EEENS_9allocatorIS7_EEE17__deallocate_nodeEPNS_16__hash_node_baseIPNS_11__hash_nodeIS7_PvEEEE = comdat any

$_ZNSt3__112__hash_tableINS_17__hash_value_typeIN2sw7SpirvIDINS2_11SpirvShader8FunctionEEES5_EENS_22__unordered_map_hasherIS6_S7_NS_4hashIS6_EENS_8equal_toIS6_EELb1EEENS_21__unordered_map_equalIS6_S7_SC_SA_Lb1EEENS_9allocatorIS7_EEED2Ev = comdat any

$_ZNSt3__112__hash_tableINS_17__hash_value_typeIN2sw7SpirvIDINS2_11SpirvShader8FunctionEEES5_EENS_22__unordered_map_hasherIS6_S7_NS_4hashIS6_EENS_8equal_toIS6_EELb1EEENS_21__unordered_map_equalIS6_S7_SC_SA_Lb1EEENS_9allocatorIS7_EEE17__deallocate_nodeEPNS_16__hash_node_baseIPNS_11__hash_nodeIS7_PvEEEE = comdat any

$_ZNSt3__112__hash_tableINS_17__hash_value_typeIN2sw7SpirvIDINS2_11SpirvShader5BlockEEES5_EENS_22__unordered_map_hasherIS6_S7_NS_4hashIS6_EENS_8equal_toIS6_EELb1EEENS_21__unordered_map_equalIS6_S7_SC_SA_Lb1EEENS_9allocatorIS7_EEED2Ev = comdat any

$_ZNSt3__112__hash_tableINS_17__hash_value_typeIN2sw7SpirvIDINS2_11SpirvShader5BlockEEES5_EENS_22__unordered_map_hasherIS6_S7_NS_4hashIS6_EENS_8equal_toIS6_EELb1EEENS_21__unordered_map_equalIS6_S7_SC_SA_Lb1EEENS_9allocatorIS7_EEE17__deallocate_nodeEPNS_16__hash_node_baseIPNS_11__hash_nodeIS7_PvEEEE = comdat any

$_ZNSt3__112__hash_tableINS_17__hash_value_typeIN2sw7SpirvIDINS_12basic_stringIcNS_11char_traitsIcEENS_9allocatorIcEEEEEES9_EENS_22__unordered_map_hasherISA_SB_NS_4hashISA_EENS_8equal_toISA_EELb1EEENS_21__unordered_map_equalISA_SB_SG_SE_Lb1EEENS7_ISB_EEED2Ev = comdat any

$_ZNSt3__112__hash_tableINS_17__hash_value_typeIN2sw7SpirvIDINS_12basic_stringIcNS_11char_traitsIcEENS_9allocatorIcEEEEEES9_EENS_22__unordered_map_hasherISA_SB_NS_4hashISA_EENS_8equal_toISA_EELb1EEENS_21__unordered_map_equalISA_SB_SG_SE_Lb1EEENS7_ISB_EEE17__deallocate_nodeEPNS_16__hash_node_baseIPNS_11__hash_nodeISB_PvEEEE = comdat any

$_ZNSt3__112__hash_tableINS_17__hash_value_typeIN2sw7SpirvIDINS2_11SpirvShader9ExtensionEEES5_EENS_22__unordered_map_hasherIS6_S7_NS_4hashIS6_EENS_8equal_toIS6_EELb1EEENS_21__unordered_map_equalIS6_S7_SC_SA_Lb1EEENS_9allocatorIS7_EEED2Ev = comdat any

$_ZNSt3__112__hash_tableIjNS_4hashIjEENS_8equal_toIjEENS_9allocatorIjEEED2Ev = comdat any

$_ZNSt3__112__hash_tableINS_17__hash_value_typeIN2sw11SpirvShader14TypeOrObjectIDENS3_11DecorationsEEENS_22__unordered_map_hasherIS4_S6_NS_4hashINS2_7SpirvIDINS3_12TypeOrObjectEEEEENS_8equal_toIS4_EELb1EEENS_21__unordered_map_equalIS4_S6_SE_SC_Lb1EEENS_9allocatorIS6_EEE25__emplace_unique_key_argsIS4_JRKNS_21piecewise_construct_tENS_5tupleIJRKS4_EEENSP_IJEEEEEENS_4pairINS_15__hash_iteratorIPNS_11__hash_nodeIS6_PvEEEEbEERKT_DpOT0_ = comdat any

$_ZNSt3__112__hash_tableINS_17__hash_value_typeIN2sw11SpirvShader14TypeOrObjectIDENS3_11DecorationsEEENS_22__unordered_map_hasherIS4_S6_NS_4hashINS2_7SpirvIDINS3_12TypeOrObjectEEEEENS_8equal_toIS4_EELb1EEENS_21__unordered_map_equalIS4_S6_SE_SC_Lb1EEENS_9allocatorIS6_EEE6rehashEm = comdat any

$_ZNSt3__112__hash_tableINS_17__hash_value_typeIN2sw11SpirvShader14TypeOrObjectIDENS3_11DecorationsEEENS_22__unordered_map_hasherIS4_S6_NS_4hashINS2_7SpirvIDINS3_12TypeOrObjectEEEEENS_8equal_toIS4_EELb1EEENS_21__unordered_map_equalIS4_S6_SE_SC_Lb1EEENS_9allocatorIS6_EEE8__rehashEm = comdat any

$_ZNSt3__112__hash_tableINS_17__hash_value_typeIN2sw7SpirvIDINS2_11SpirvShader6ObjectEEENS4_21DescriptorDecorationsEEENS_22__unordered_map_hasherIS6_S8_NS_4hashIS6_EENS_8equal_toIS6_EELb1EEENS_21__unordered_map_equalIS6_S8_SD_SB_Lb1EEENS_9allocatorIS8_EEE25__emplace_unique_key_argsIS6_JRKNS_21piecewise_construct_tENS_5tupleIJOS6_EEENSO_IJEEEEEENS_4pairINS_15__hash_iteratorIPNS_11__hash_nodeIS8_PvEEEEbEERKT_DpOT0_ = comdat any

$_ZNSt3__112__hash_tableINS_17__hash_value_typeIN2sw7SpirvIDINS2_11SpirvShader6ObjectEEENS4_21DescriptorDecorationsEEENS_22__unordered_map_hasherIS6_S8_NS_4hashIS6_EENS_8equal_toIS6_EELb1EEENS_21__unordered_map_equalIS6_S8_SD_SB_Lb1EEENS_9allocatorIS8_EEE6rehashEm = comdat any

$_ZNSt3__112__hash_tableINS_17__hash_value_typeIN2sw7SpirvIDINS2_11SpirvShader6ObjectEEENS4_21DescriptorDecorationsEEENS_22__unordered_map_hasherIS6_S8_NS_4hashIS6_EENS_8equal_toIS6_EELb1EEENS_21__unordered_map_equalIS6_S8_SD_SB_Lb1EEENS_9allocatorIS8_EEE8__rehashEm = comdat any

$_ZNSt3__112__hash_tableINS_17__hash_value_typeIN2sw7SpirvIDINS2_11SpirvShader4TypeEEENS_6vectorINS4_11DecorationsENS_9allocatorIS8_EEEEEENS_22__unordered_map_hasherIS6_SC_NS_4hashIS6_EENS_8equal_toIS6_EELb1EEENS_21__unordered_map_equalIS6_SC_SH_SF_Lb1EEENS9_ISC_EEE25__emplace_unique_key_argsIS6_JRKNS_21piecewise_construct_tENS_5tupleIJRKS6_EEENSR_IJEEEEEENS_4pairINS_15__hash_iteratorIPNS_11__hash_nodeISC_PvEEEEbEERKT_DpOT0_ = comdat any

$_ZNSt3__112__hash_tableINS_17__hash_value_typeIN2sw7SpirvIDINS2_11SpirvShader4TypeEEENS_6vectorINS4_11DecorationsENS_9allocatorIS8_EEEEEENS_22__unordered_map_hasherIS6_SC_NS_4hashIS6_EENS_8equal_toIS6_EELb1EEENS_21__unordered_map_equalIS6_SC_SH_SF_Lb1EEENS9_ISC_EEE6rehashEm = comdat any

$_ZNSt3__112__hash_tableINS_17__hash_value_typeIN2sw7SpirvIDINS2_11SpirvShader4TypeEEENS_6vectorINS4_11DecorationsENS_9allocatorIS8_EEEEEENS_22__unordered_map_hasherIS6_SC_NS_4hashIS6_EENS_8equal_toIS6_EELb1EEENS_21__unordered_map_equalIS6_SC_SH_SF_Lb1EEENS9_ISC_EEE8__rehashEm = comdat any

$_ZNSt3__16vectorIN2sw11SpirvShader11DecorationsENS_9allocatorIS3_EEE8__appendEm = comdat any

$_ZNSt3__114__split_bufferIN2sw11SpirvShader11DecorationsERNS_9allocatorIS3_EEEC2EmmS6_ = comdat any

$_ZNSt3__112__hash_tableINS_17__hash_value_typeIN2sw11SpirvShader14TypeOrObjectIDENS3_11DecorationsEEENS_22__unordered_map_hasherIS4_S6_NS_4hashINS2_7SpirvIDINS3_12TypeOrObjectEEEEENS_8equal_toIS4_EELb1EEENS_21__unordered_map_equalIS4_S6_SE_SC_Lb1EEENS_9allocatorIS6_EEE25__emplace_unique_key_argsIS4_JRKNS_21piecewise_construct_tENS_5tupleIJOS4_EEENSP_IJEEEEEENS_4pairINS_15__hash_iteratorIPNS_11__hash_nodeIS6_PvEEEEbEERKT_DpOT0_ = comdat any

$_ZNSt3__112__hash_tableINS_17__hash_value_typeIN2sw7SpirvIDINS2_11SpirvShader4TypeEEENS_6vectorINS4_11DecorationsENS_9allocatorIS8_EEEEEENS_22__unordered_map_hasherIS6_SC_NS_4hashIS6_EENS_8equal_toIS6_EELb1EEENS_21__unordered_map_equalIS6_SC_SH_SF_Lb1EEENS9_ISC_EEE25__emplace_unique_key_argsIS6_JRKNS_21piecewise_construct_tENS_5tupleIJOS6_EEENSR_IJEEEEEENS_4pairINS_15__hash_iteratorIPNS_11__hash_nodeISC_PvEEEEbEERKT_DpOT0_ = comdat any

$_ZNSt3__112__hash_tableINS_17__hash_value_typeIN2sw7SpirvIDINS2_11SpirvShader8FunctionEEES5_EENS_22__unordered_map_hasherIS6_S7_NS_4hashIS6_EENS_8equal_toIS6_EELb1EEENS_21__unordered_map_equalIS6_S7_SC_SA_Lb1EEENS_9allocatorIS7_EEE25__emplace_unique_key_argsIS6_JRKNS_21piecewise_construct_tENS_5tupleIJRKS6_EEENSN_IJEEEEEENS_4pairINS_15__hash_iteratorIPNS_11__hash_nodeIS7_PvEEEEbEERKT_DpOT0_ = comdat any

$_ZNSt3__112__hash_tableINS_17__hash_value_typeIN2sw7SpirvIDINS2_11SpirvShader8FunctionEEES5_EENS_22__unordered_map_hasherIS6_S7_NS_4hashIS6_EENS_8equal_toIS6_EELb1EEENS_21__unordered_map_equalIS6_S7_SC_SA_Lb1EEENS_9allocatorIS7_EEE6rehashEm = comdat any

$_ZNSt3__112__hash_tableINS_17__hash_value_typeIN2sw7SpirvIDINS2_11SpirvShader8FunctionEEES5_EENS_22__unordered_map_hasherIS6_S7_NS_4hashIS6_EENS_8equal_toIS6_EELb1EEENS_21__unordered_map_equalIS6_S7_SC_SA_Lb1EEENS_9allocatorIS7_EEE8__rehashEm = comdat any

$_ZNSt3__110unique_ptrINS_11__hash_nodeINS_17__hash_value_typeIN2sw7SpirvIDINS3_11SpirvShader8FunctionEEES6_EEPvEENS_22__hash_node_destructorINS_9allocatorISA_EEEEE5resetEPSA_ = comdat any

$_ZNSt3__112__hash_tableINS_17__hash_value_typeIN2sw7SpirvIDINS2_11SpirvShader5BlockEEES5_EENS_22__unordered_map_hasherIS6_S7_NS_4hashIS6_EENS_8equal_toIS6_EELb1EEENS_21__unordered_map_equalIS6_S7_SC_SA_Lb1EEENS_9allocatorIS7_EEE25__emplace_unique_key_argsIS6_JRKNS_21piecewise_construct_tENS_5tupleIJRKS6_EEENSN_IJEEEEEENS_4pairINS_15__hash_iteratorIPNS_11__hash_nodeIS7_PvEEEEbEERKT_DpOT0_ = comdat any

$_ZNSt3__112__hash_tableINS_17__hash_value_typeIN2sw7SpirvIDINS2_11SpirvShader5BlockEEES5_EENS_22__unordered_map_hasherIS6_S7_NS_4hashIS6_EENS_8equal_toIS6_EELb1EEENS_21__unordered_map_equalIS6_S7_SC_SA_Lb1EEENS_9allocatorIS7_EEE6rehashEm = comdat any

$_ZNSt3__112__hash_tableINS_17__hash_value_typeIN2sw7SpirvIDINS2_11SpirvShader5BlockEEES5_EENS_22__unordered_map_hasherIS6_S7_NS_4hashIS6_EENS_8equal_toIS6_EELb1EEENS_21__unordered_map_equalIS6_S7_SC_SA_Lb1EEENS_9allocatorIS7_EEE8__rehashEm = comdat any

$_ZNSt3__112__hash_tableINS_17__hash_value_typeIN2sw7SpirvIDINS2_11SpirvShader6ObjectEEES5_EENS_22__unordered_map_hasherIS6_S7_NS_4hashIS6_EENS_8equal_toIS6_EELb1EEENS_21__unordered_map_equalIS6_S7_SC_SA_Lb1EEENS_9allocatorIS7_EEE25__emplace_unique_key_argsIS6_JRKNS_21piecewise_construct_tENS_5tupleIJRKS6_EEENSN_IJEEEEEENS_4pairINS_15__hash_iteratorIPNS_11__hash_nodeIS7_PvEEEEbEERKT_DpOT0_ = comdat any

$_ZNSt3__112__hash_tableINS_17__hash_value_typeIN2sw7SpirvIDINS2_11SpirvShader6ObjectEEES5_EENS_22__unordered_map_hasherIS6_S7_NS_4hashIS6_EENS_8equal_toIS6_EELb1EEENS_21__unordered_map_equalIS6_S7_SC_SA_Lb1EEENS_9allocatorIS7_EEE6rehashEm = comdat any

$_ZNSt3__112__hash_tableINS_17__hash_value_typeIN2sw7SpirvIDINS2_11SpirvShader6ObjectEEES5_EENS_22__unordered_map_hasherIS6_S7_NS_4hashIS6_EENS_8equal_toIS6_EELb1EEENS_21__unordered_map_equalIS6_S7_SC_SA_Lb1EEENS_9allocatorIS7_EEE8__rehashEm = comdat any

$_ZNSt3__112__hash_tableINS_17__hash_value_typeIN2sw11SpirvShader14TypeOrObjectIDENS3_11DecorationsEEENS_22__unordered_map_hasherIS4_S6_NS_4hashINS2_7SpirvIDINS3_12TypeOrObjectEEEEENS_8equal_toIS4_EELb1EEENS_21__unordered_map_equalIS4_S6_SE_SC_Lb1EEENS_9allocatorIS6_EEE4findIS4_EENS_15__hash_iteratorIPNS_11__hash_nodeIS6_PvEEEERKT_ = comdat any

$_ZNSt3__112__hash_tableINS_17__hash_value_typeIN2sw7SpirvIDINS2_11SpirvShader9ExtensionEEES5_EENS_22__unordered_map_hasherIS6_S7_NS_4hashIS6_EENS_8equal_toIS6_EELb1EEENS_21__unordered_map_equalIS6_S7_SC_SA_Lb1EEENS_9allocatorIS7_EEE25__emplace_unique_key_argsIS6_JRS6_RS5_EEENS_4pairINS_15__hash_iteratorIPNS_11__hash_nodeIS7_PvEEEEbEERKT_DpOT0_ = comdat any

$_ZNSt3__112__hash_tableINS_17__hash_value_typeIN2sw7SpirvIDINS2_11SpirvShader9ExtensionEEES5_EENS_22__unordered_map_hasherIS6_S7_NS_4hashIS6_EENS_8equal_toIS6_EELb1EEENS_21__unordered_map_equalIS6_S7_SC_SA_Lb1EEENS_9allocatorIS7_EEE6rehashEm = comdat any

$_ZNSt3__112__hash_tableINS_17__hash_value_typeIN2sw7SpirvIDINS2_11SpirvShader9ExtensionEEES5_EENS_22__unordered_map_hasherIS6_S7_NS_4hashIS6_EENS_8equal_toIS6_EELb1EEENS_21__unordered_map_equalIS6_S7_SC_SA_Lb1EEENS_9allocatorIS7_EEE8__rehashEm = comdat any

$_ZNSt3__112__hash_tableIjNS_4hashIjEENS_8equal_toIjEENS_9allocatorIjEEE21__emplace_unique_implIJRN2sw11SpirvShader9Extension4NameEEEENS_4pairINS_15__hash_iteratorIPNS_11__hash_nodeIjPvEEEEbEEDpOT_ = comdat any

$_ZNSt3__112__hash_tableIjNS_4hashIjEENS_8equal_toIjEENS_9allocatorIjEEE20__node_insert_uniqueEPNS_11__hash_nodeIjPvEE = comdat any

$_ZNSt3__112__hash_tableIjNS_4hashIjEENS_8equal_toIjEENS_9allocatorIjEEE28__node_insert_unique_prepareEmRj = comdat any

$_ZNSt3__112__hash_tableIjNS_4hashIjEENS_8equal_toIjEENS_9allocatorIjEEE28__node_insert_unique_performEPNS_11__hash_nodeIjPvEE = comdat any

$_ZNSt3__112__hash_tableIjNS_4hashIjEENS_8equal_toIjEENS_9allocatorIjEEE6rehashEm = comdat any

$_ZNSt3__112__hash_tableIjNS_4hashIjEENS_8equal_toIjEENS_9allocatorIjEEE8__rehashEm = comdat any

$_ZNSt3__112__hash_tableINS_17__hash_value_typeIN2sw7SpirvIDINS_12basic_stringIcNS_11char_traitsIcEENS_9allocatorIcEEEEEES9_EENS_22__unordered_map_hasherISA_SB_NS_4hashISA_EENS_8equal_toISA_EELb1EEENS_21__unordered_map_equalISA_SB_SG_SE_Lb1EEENS7_ISB_EEE21__emplace_unique_implIJjPKcEEENS_4pairINS_15__hash_iteratorIPNS_11__hash_nodeISB_PvEEEEbEEDpOT_ = comdat any

$_ZNSt3__112__hash_tableINS_17__hash_value_typeIN2sw7SpirvIDINS_12basic_stringIcNS_11char_traitsIcEENS_9allocatorIcEEEEEES9_EENS_22__unordered_map_hasherISA_SB_NS_4hashISA_EENS_8equal_toISA_EELb1EEENS_21__unordered_map_equalISA_SB_SG_SE_Lb1EEENS7_ISB_EEE20__node_insert_uniqueEPNS_11__hash_nodeISB_PvEE = comdat any

$_ZNSt3__14pairIKN2sw7SpirvIDINS_12basic_stringIcNS_11char_traitsIcEENS_9allocatorIcEEEEEES8_EC2IjPKcLb0EEEOT_OT0_ = comdat any

$_ZNSt3__112__hash_tableINS_17__hash_value_typeIN2sw7SpirvIDINS_12basic_stringIcNS_11char_traitsIcEENS_9allocatorIcEEEEEES9_EENS_22__unordered_map_hasherISA_SB_NS_4hashISA_EENS_8equal_toISA_EELb1EEENS_21__unordered_map_equalISA_SB_SG_SE_Lb1EEENS7_ISB_EEE28__node_insert_unique_prepareEmRSB_ = comdat any

$_ZNSt3__112__hash_tableINS_17__hash_value_typeIN2sw7SpirvIDINS_12basic_stringIcNS_11char_traitsIcEENS_9allocatorIcEEEEEES9_EENS_22__unordered_map_hasherISA_SB_NS_4hashISA_EENS_8equal_toISA_EELb1EEENS_21__unordered_map_equalISA_SB_SG_SE_Lb1EEENS7_ISB_EEE28__node_insert_unique_performEPNS_11__hash_nodeISB_PvEE = comdat any

$_ZNSt3__112__hash_tableINS_17__hash_value_typeIN2sw7SpirvIDINS_12basic_stringIcNS_11char_traitsIcEENS_9allocatorIcEEEEEES9_EENS_22__unordered_map_hasherISA_SB_NS_4hashISA_EENS_8equal_toISA_EELb1EEENS_21__unordered_map_equalISA_SB_SG_SE_Lb1EEENS7_ISB_EEE6rehashEm = comdat any

$_ZNSt3__112__hash_tableINS_17__hash_value_typeIN2sw7SpirvIDINS_12basic_stringIcNS_11char_traitsIcEENS_9allocatorIcEEEEEES9_EENS_22__unordered_map_hasherISA_SB_NS_4hashISA_EENS_8equal_toISA_EELb1EEENS_21__unordered_map_equalISA_SB_SG_SE_Lb1EEENS7_ISB_EEE8__rehashEm = comdat any

$_ZNSt3__122__hash_node_destructorINS_9allocatorINS_11__hash_nodeINS_17__hash_value_typeIN2sw7SpirvIDINS_12basic_stringIcNS_11char_traitsIcEENS1_IcEEEEEESA_EEPvEEEEEclEPSE_ = comdat any

$_ZNSt3__112__hash_tableINS_17__hash_value_typeIN2sw7SpirvIDINS2_11SpirvShader6ObjectEEENS4_21DescriptorDecorationsEEENS_22__unordered_map_hasherIS6_S8_NS_4hashIS6_EENS_8equal_toIS6_EELb1EEENS_21__unordered_map_equalIS6_S8_SD_SB_Lb1EEENS_9allocatorIS8_EEE4findIS6_EENS_15__hash_iteratorIPNS_11__hash_nodeIS8_PvEEEERKT_ = comdat any

$_ZNSt3__112__hash_tableINS_17__hash_value_typeIN2sw7SpirvIDINS2_11SpirvShader6ObjectEEENS4_21DescriptorDecorationsEEENS_22__unordered_map_hasherIS6_S8_NS_4hashIS6_EENS_8equal_toIS6_EELb1EEENS_21__unordered_map_equalIS6_S8_SD_SB_Lb1EEENS_9allocatorIS8_EEE25__emplace_unique_key_argsIS6_JRKNS_21piecewise_construct_tENS_5tupleIJRKS6_EEENSO_IJEEEEEENS_4pairINS_15__hash_iteratorIPNS_11__hash_nodeIS8_PvEEEEbEERKT_DpOT0_ = comdat any

$_ZNSt3__112__hash_tableINS_17__hash_value_typeIN2sw7SpirvIDINS2_11SpirvShader4TypeEEES5_EENS_22__unordered_map_hasherIS6_S7_NS_4hashIS6_EENS_8equal_toIS6_EELb1EEENS_21__unordered_map_equalIS6_S7_SC_SA_Lb1EEENS_9allocatorIS7_EEE25__emplace_unique_key_argsIS6_JRKNS_21piecewise_construct_tENS_5tupleIJRKS6_EEENSN_IJEEEEEENS_4pairINS_15__hash_iteratorIPNS_11__hash_nodeIS7_PvEEEEbEERKT_DpOT0_ = comdat any

$_ZNSt3__112__hash_tableINS_17__hash_value_typeIN2sw7SpirvIDINS2_11SpirvShader4TypeEEES5_EENS_22__unordered_map_hasherIS6_S7_NS_4hashIS6_EENS_8equal_toIS6_EELb1EEENS_21__unordered_map_equalIS6_S7_SC_SA_Lb1EEENS_9allocatorIS7_EEE6rehashEm = comdat any

$_ZNSt3__112__hash_tableINS_17__hash_value_typeIN2sw7SpirvIDINS2_11SpirvShader4TypeEEES5_EENS_22__unordered_map_hasherIS6_S7_NS_4hashIS6_EENS_8equal_toIS6_EELb1EEENS_21__unordered_map_equalIS6_S7_SC_SA_Lb1EEENS_9allocatorIS7_EEE8__rehashEm = comdat any

$_ZNSt3__112__hash_tableINS_17__hash_value_typeIN2sw7SpirvIDINS2_11SpirvShader4TypeEEENS_6vectorINS4_11DecorationsENS_9allocatorIS8_EEEEEENS_22__unordered_map_hasherIS6_SC_NS_4hashIS6_EENS_8equal_toIS6_EELb1EEENS_21__unordered_map_equalIS6_SC_SH_SF_Lb1EEENS9_ISC_EEE4findIS6_EENS_15__hash_iteratorIPNS_11__hash_nodeISC_PvEEEERKT_ = comdat any

$_ZNSt3__16vectorIjNS_9allocatorIjEEE8__appendEm = comdat any

$_ZNSt3__112__hash_tableINS_17__hash_value_typeIN3spv7BuiltInEN2sw11SpirvShader14BuiltinMappingEEENS_22__unordered_map_hasherIS3_S7_NS_4hashIjEENS_8equal_toIS3_EELb1EEENS_21__unordered_map_equalIS3_S7_SC_SA_Lb1EEENS_9allocatorIS7_EEE25__emplace_unique_key_argsIS3_JRKNS_21piecewise_construct_tENS_5tupleIJRKS3_EEENSN_IJEEEEEENS_4pairINS_15__hash_iteratorIPNS_11__hash_nodeIS7_PvEEEEbEERKT_DpOT0_ = comdat any

$_ZNSt3__112__hash_tableINS_17__hash_value_typeIN3spv7BuiltInEN2sw11SpirvShader14BuiltinMappingEEENS_22__unordered_map_hasherIS3_S7_NS_4hashIjEENS_8equal_toIS3_EELb1EEENS_21__unordered_map_equalIS3_S7_SC_SA_Lb1EEENS_9allocatorIS7_EEE6rehashEm = comdat any

$_ZNSt3__112__hash_tableINS_17__hash_value_typeIN3spv7BuiltInEN2sw11SpirvShader14BuiltinMappingEEENS_22__unordered_map_hasherIS3_S7_NS_4hashIjEENS_8equal_toIS3_EELb1EEENS_21__unordered_map_equalIS3_S7_SC_SA_Lb1EEENS_9allocatorIS7_EEE8__rehashEm = comdat any

$_ZNKSt3__112__hash_tableINS_17__hash_value_typeIN2sw7SpirvIDINS2_11SpirvShader6ObjectEEENS4_21DescriptorDecorationsEEENS_22__unordered_map_hasherIS6_S8_NS_4hashIS6_EENS_8equal_toIS6_EELb1EEENS_21__unordered_map_equalIS6_S8_SD_SB_Lb1EEENS_9allocatorIS8_EEE4findIS6_EENS_21__hash_const_iteratorIPNS_11__hash_nodeIS8_PvEEEERKT_ = comdat any

$_ZNKSt3__112__hash_tableINS_17__hash_value_typeIN2sw11SpirvShader14TypeOrObjectIDENS3_11DecorationsEEENS_22__unordered_map_hasherIS4_S6_NS_4hashINS2_7SpirvIDINS3_12TypeOrObjectEEEEENS_8equal_toIS4_EELb1EEENS_21__unordered_map_equalIS4_S6_SE_SC_Lb1EEENS_9allocatorIS6_EEE4findIS4_EENS_21__hash_const_iteratorIPNS_11__hash_nodeIS6_PvEEEERKT_ = comdat any

$_ZNKSt3__112__hash_tableINS_17__hash_value_typeIN2sw7SpirvIDINS2_11SpirvShader4TypeEEENS_6vectorINS4_11DecorationsENS_9allocatorIS8_EEEEEENS_22__unordered_map_hasherIS6_SC_NS_4hashIS6_EENS_8equal_toIS6_EELb1EEENS_21__unordered_map_equalIS6_SC_SH_SF_Lb1EEENS9_ISC_EEE4findIS6_EENS_21__hash_const_iteratorIPNS_11__hash_nodeISC_PvEEEERKT_ = comdat any

$_ZNSt3__112__hash_tableINS_17__hash_value_typeIN2sw7SpirvIDINS2_11SpirvShader6ObjectEEEN2rr5ArrayINS7_6Float4ELi1EEEEENS_22__unordered_map_hasherIS6_SB_NS_4hashIS6_EENS_8equal_toIS6_EELb1EEENS_21__unordered_map_equalIS6_SB_SG_SE_Lb1EEENS_9allocatorISB_EEE25__emplace_unique_key_argsIS6_JS6_SA_EEENS_4pairINS_15__hash_iteratorIPNS_11__hash_nodeISB_PvEEEEbEERKT_DpOT0_ = comdat any

$_ZNSt3__112__hash_tableINS_17__hash_value_typeIN2sw7SpirvIDINS2_11SpirvShader6ObjectEEENS2_12SpirvRoutine12SamplerCacheEEENS_22__unordered_map_hasherIS6_S9_NS_4hashIS6_EENS_8equal_toIS6_EELb1EEENS_21__unordered_map_equalIS6_S9_SE_SC_Lb1EEENS_9allocatorIS9_EEE25__emplace_unique_key_argsIS6_JS6_S8_EEENS_4pairINS_15__hash_iteratorIPNS_11__hash_nodeIS9_PvEEEEbEERKT_DpOT0_ = comdat any

$_ZNSt3__112__hash_tableINS_17__hash_value_typeIN2sw7SpirvIDINS2_11SpirvShader6ObjectEEENS2_12SpirvRoutine12SamplerCacheEEENS_22__unordered_map_hasherIS6_S9_NS_4hashIS6_EENS_8equal_toIS6_EELb1EEENS_21__unordered_map_equalIS6_S9_SE_SC_Lb1EEENS_9allocatorIS9_EEE21__construct_node_hashIS6_JS8_EEENS_10unique_ptrINS_11__hash_nodeIS9_PvEENS_22__hash_node_destructorINSI_ISP_EEEEEEmOT_DpOT0_ = comdat any

$_ZNSt3__112__hash_tableINS_17__hash_value_typeIN2sw7SpirvIDINS2_11SpirvShader6ObjectEEENS2_12SpirvRoutine12SamplerCacheEEENS_22__unordered_map_hasherIS6_S9_NS_4hashIS6_EENS_8equal_toIS6_EELb1EEENS_21__unordered_map_equalIS6_S9_SE_SC_Lb1EEENS_9allocatorIS9_EEE6rehashEm = comdat any

$_ZNSt3__112__hash_tableINS_17__hash_value_typeIN2sw7SpirvIDINS2_11SpirvShader6ObjectEEENS2_12SpirvRoutine12SamplerCacheEEENS_22__unordered_map_hasherIS6_S9_NS_4hashIS6_EENS_8equal_toIS6_EELb1EEENS_21__unordered_map_equalIS6_S9_SE_SC_Lb1EEENS_9allocatorIS9_EEE8__rehashEm = comdat any

$_ZN2rr6LValueINS_7PointerINS_4UIntEEEEC2Ei = comdat any

$_ZN2rr7PointerINS_4UIntEED0Ev = comdat any

$_ZN2rr6LValueINS_7PointerINS_4UIntEEEED0Ev = comdat any

$_ZN2rr6LValueINS_7PointerINS_3IntEEEEC2Ei = comdat any

$_ZN2rr7PointerINS_3IntEED0Ev = comdat any

$_ZN2rr6LValueINS_7PointerINS_3IntEEEED0Ev = comdat any

$_ZNK2rr9ReferenceINS_6Float4EEaSERKS2_ = comdat any

$_ZNSt3__112__hash_tableINS_17__hash_value_typeIN2sw7SpirvIDINS2_11SpirvShader6ObjectEEEN2rr5ArrayINS7_6Float4ELi1EEEEENS_22__unordered_map_hasherIS6_SB_NS_4hashIS6_EENS_8equal_toIS6_EELb1EEENS_21__unordered_map_equalIS6_SB_SG_SE_Lb1EEENS_9allocatorISB_EEE5clearEv = comdat any

$_ZNSt3__112__hash_tableINS_17__hash_value_typeIN2sw7SpirvIDINS2_11SpirvShader6ObjectEEEN2rr5ArrayINS7_6Float4ELi1EEEEENS_22__unordered_map_hasherIS6_SB_NS_4hashIS6_EENS_8equal_toIS6_EELb1EEENS_21__unordered_map_equalIS6_SB_SG_SE_Lb1EEENS_9allocatorISB_EEE17__deallocate_nodeEPNS_16__hash_node_baseIPNS_11__hash_nodeISB_PvEEEE = comdat any

$_ZN2rr7PointerINS0_INS_4ByteEEEED0Ev = comdat any

$_ZNKSt3__112__hash_tableINS_17__hash_value_typeIN3spv7BuiltInEN2sw11SpirvShader14BuiltinMappingEEENS_22__unordered_map_hasherIS3_S7_NS_4hashIjEENS_8equal_toIS3_EELb1EEENS_21__unordered_map_equalIS3_S7_SC_SA_Lb1EEENS_9allocatorIS7_EEE4findIS3_EENS_21__hash_const_iteratorIPNS_11__hash_nodeIS7_PvEEEERKT_ = comdat any

$_ZTVN2rr7PointerINS_4ByteEEE = comdat any

$_ZTVN2rr6LValueINS_7PointerINS_4ByteEEEEE = comdat any

$_ZTVN2rr5ArrayINS_6Float4ELi1EEE = comdat any

$_ZTVN2rr3IntE = comdat any

$_ZTVN2rr4UIntE = comdat any

$_ZTVN2rr7PointerINS_4UIntEEE = comdat any

$_ZTVN2rr6LValueINS_7PointerINS_4UIntEEEEE = comdat any

$_ZTVN2rr7PointerINS_3IntEEE = comdat any

$_ZTVN2rr6LValueINS_7PointerINS_3IntEEEEE = comdat any

$_ZTVN2rr7PointerINS0_INS_4ByteEEEEE = comdat any

@.str = private unnamed_addr constant [63 x i8] c"%s:%d WARNING: UNSUPPORTED: StorageClass %d not yet supported\0A\00", align 1
@.str.1 = private unnamed_addr constant [59 x i8] c"../../third_party/swiftshader/src/Pipeline/SpirvShader.cpp\00", align 1
@.str.2 = private unnamed_addr constant [88 x i8] c"%s:%d WARNING: UNSUPPORTED: SPIR-V OpenCL Execution Model (StorageClassCrossWorkgroup)\0A\00", align 1
@.str.3 = private unnamed_addr constant [84 x i8] c"%s:%d WARNING: UNSUPPORTED: SPIR-V GenericPointer Capability (StorageClassGeneric)\0A\00", align 1
@.str.4 = private unnamed_addr constant [56 x i8] c"%s:%d WARNING: UNREACHABLE: Unexpected StorageClass %d\0A\00", align 1
@.str.5 = private unnamed_addr constant [55 x i8] c"%s:%d WARNING: UNSUPPORTED: Unsupported capability %u\0A\00", align 1
@_ZZN2sw11SpirvShaderC1Ej21VkShaderStageFlagBitsPKcRKNSt3__16vectorIjNS4_9allocatorIjEEEEPKN2vk10RenderPassEjbRKNS4_10shared_ptrINSB_3dbg7ContextEEEE16extensionsByName = internal unnamed_addr constant [2 x { i8*, i32 }] [{ i8*, i32 } { i8* getelementptr inbounds ([13 x i8], [13 x i8]* @.str.6, i32 0, i32 0), i32 1 }, { i8*, i32 } { i8* getelementptr inbounds ([21 x i8], [21 x i8]* @.str.7, i32 0, i32 0), i32 2 }], align 16
@.str.6 = private unnamed_addr constant [13 x i8] c"GLSL.std.450\00", align 1
@.str.7 = private unnamed_addr constant [21 x i8] c"OpenCL.DebugInfo.100\00", align 1
@.str.8 = private unnamed_addr constant [50 x i8] c"%s:%d WARNING: UNSUPPORTED: SPIR-V Extension: %s\0A\00", align 1
@.str.9 = private unnamed_addr constant [66 x i8] c"%s:%d WARNING: UNREACHABLE: %s should have already been lowered.\0A\00", align 1
@.str.10 = private unnamed_addr constant [79 x i8] c"%s:%d WARNING: UNSUPPORTED: SPIR-V Float16 or Float64 Capability (OpFConvert)\0A\00", align 1
@.str.11 = private unnamed_addr constant [75 x i8] c"%s:%d WARNING: UNSUPPORTED: SPIR-V Int16 or Int64 Capability (OpSConvert)\0A\00", align 1
@.str.12 = private unnamed_addr constant [75 x i8] c"%s:%d WARNING: UNSUPPORTED: SPIR-V Int16 or Int64 Capability (OpUConvert)\0A\00", align 1
@.str.13 = private unnamed_addr constant [58 x i8] c"%s:%d WARNING: UNREACHABLE: Unexpected Extension name %d\0A\00", align 1
@.str.14 = private unnamed_addr constant [37 x i8] c"SPV_KHR_storage_buffer_storage_class\00", align 1
@.str.15 = private unnamed_addr constant [31 x i8] c"SPV_KHR_shader_draw_parameters\00", align 1
@.str.16 = private unnamed_addr constant [22 x i8] c"SPV_KHR_16bit_storage\00", align 1
@.str.17 = private unnamed_addr constant [26 x i8] c"SPV_KHR_variable_pointers\00", align 1
@.str.18 = private unnamed_addr constant [21 x i8] c"SPV_KHR_device_group\00", align 1
@.str.19 = private unnamed_addr constant [18 x i8] c"SPV_KHR_multiview\00", align 1
@.str.20 = private unnamed_addr constant [30 x i8] c"SPV_EXT_shader_stencil_export\00", align 1
@.str.21 = private unnamed_addr constant [23 x i8] c"SPV_KHR_float_controls\00", align 1
@.str.22 = private unnamed_addr constant [32 x i8] c"%s:%d WARNING: UNSUPPORTED: %s\0A\00", align 1
@.str.23 = private unnamed_addr constant [48 x i8] c"%s:%d WARNING: UNREACHABLE: Execution mode: %d\0A\00", align 1
@.str.24 = private unnamed_addr constant [32 x i8] c"%s:%d WARNING: UNREACHABLE: %s\0A\00", align 1
@__const._ZNK2sw11SpirvShader4emitEPNS_12SpirvRoutineERKN2rr6RValueINS3_4Int4EEES8_RKNSt3__15arrayIPhLm4EEEj.state = private unnamed_addr constant %"class.sw::SpirvShader::EmitState" <{ %"class.sw::SpirvRoutine"* inttoptr (i64 -6148914691236517206 to %"class.sw::SpirvRoutine"*), %"class.sw::SpirvID" { i32 -1431655766 }, %"class.sw::SpirvID.326" { i32 -1431655766 }, %"class.rr::Value"* inttoptr (i64 -6148914691236517206 to %"class.rr::Value"*), %"class.rr::Value"* inttoptr (i64 -6148914691236517206 to %"class.rr::Value"*), %"class.std::__1::unordered_set.337" { %"class.std::__1::__hash_table.338" <{ %"class.std::__1::unique_ptr.339" { %"class.std::__1::__compressed_pair.340" { %"struct.std::__1::__compressed_pair_elem.341" { %"struct.std::__1::__hash_node_base.342"** inttoptr (i64 -6148914691236517206 to %"struct.std::__1::__hash_node_base.342"**) }, %"struct.std::__1::__compressed_pair_elem.343" { %"class.std::__1::__bucket_list_deallocator.344" { %"class.std::__1::__compressed_pair.345" { %"struct.std::__1::__compressed_pair_elem.41" { i64 -6148914691236517206 } } } } } }, %"class.std::__1::__compressed_pair.349" { %"struct.std::__1::__compressed_pair_elem.350" { %"struct.std::__1::__hash_node_base.342" { %"struct.std::__1::__hash_node_base.342"* inttoptr (i64 -6148914691236517206 to %"struct.std::__1::__hash_node_base.342"*) } } }, %"class.std::__1::__compressed_pair.354" { %"struct.std::__1::__compressed_pair_elem.41" { i64 -6148914691236517206 } }, %"class.std::__1::__compressed_pair.357" { %"struct.std::__1::__compressed_pair_elem.53" { float 0xFFFFFFFFE0000000 } }, [4 x i8] c"\AA\AA\AA\AA" }> }, %"class.std::__1::unordered_map.1029" { %"class.std::__1::__hash_table.1030" <{ %"class.std::__1::unique_ptr.1031" { %"class.std::__1::__compressed_pair.1032" { %"struct.std::__1::__compressed_pair_elem.1033" { %"struct.std::__1::__hash_node_base.1034"** inttoptr (i64 -6148914691236517206 to %"struct.std::__1::__hash_node_base.1034"**) }, %"struct.std::__1::__compressed_pair_elem.1035" { %"class.std::__1::__bucket_list_deallocator.1036" { %"class.std::__1::__compressed_pair.1037" { %"struct.std::__1::__compressed_pair_elem.41" { i64 -6148914691236517206 } } } } } }, %"class.std::__1::__compressed_pair.1041" { %"struct.std::__1::__compressed_pair_elem.1042" { %"struct.std::__1::__hash_node_base.1034" { %"struct.std::__1::__hash_node_base.1034"* inttoptr (i64 -6148914691236517206 to %"struct.std::__1::__hash_node_base.1034"*) } } }, %"class.std::__1::__compressed_pair.1046" { %"struct.std::__1::__compressed_pair_elem.41" { i64 -6148914691236517206 } }, %"class.std::__1::__compressed_pair.1049" { %"struct.std::__1::__compressed_pair_elem.53" { float 0xFFFFFFFFE0000000 } }, [4 x i8] c"\AA\AA\AA\AA" }> }, %"class.std::__1::deque"* inttoptr (i64 -6148914691236517206 to %"class.std::__1::deque"*), %"struct.std::__1::array.1055"* inttoptr (i64 -6148914691236517206 to %"struct.std::__1::array.1055"*), %"class.std::__1::unordered_map.1056" { %"class.std::__1::__hash_table.1057" <{ %"class.std::__1::unique_ptr.1058" { %"class.std::__1::__compressed_pair.1059" { %"struct.std::__1::__compressed_pair_elem.1060" { %"struct.std::__1::__hash_node_base.1061"** inttoptr (i64 -6148914691236517206 to %"struct.std::__1::__hash_node_base.1061"**) }, %"struct.std::__1::__compressed_pair_elem.1062" { %"class.std::__1::__bucket_list_deallocator.1063" { %"class.std::__1::__compressed_pair.1064" { %"struct.std::__1::__compressed_pair_elem.41" { i64 -6148914691236517206 } } } } } }, %"class.std::__1::__compressed_pair.1068" { %"struct.std::__1::__compressed_pair_elem.1069" { %"struct.std::__1::__hash_node_base.1061" { %"struct.std::__1::__hash_node_base.1061"* inttoptr (i64 -6148914691236517206 to %"struct.std::__1::__hash_node_base.1061"*) } } }, %"class.std::__1::__compressed_pair.1073" { %"struct.std::__1::__compressed_pair_elem.41" { i64 -6148914691236517206 } }, %"class.std::__1::__compressed_pair.1076" { %"struct.std::__1::__compressed_pair_elem.53" { float 0xFFFFFFFFE0000000 } }, [4 x i8] c"\AA\AA\AA\AA" }> }, %"class.std::__1::unordered_map.1080" { %"class.std::__1::__hash_table.1081" <{ %"class.std::__1::unique_ptr.1082" { %"class.std::__1::__compressed_pair.1083" { %"struct.std::__1::__compressed_pair_elem.1084" { %"struct.std::__1::__hash_node_base.1085"** inttoptr (i64 -6148914691236517206 to %"struct.std::__1::__hash_node_base.1085"**) }, %"struct.std::__1::__compressed_pair_elem.1086" { %"class.std::__1::__bucket_list_deallocator.1087" { %"class.std::__1::__compressed_pair.1088" { %"struct.std::__1::__compressed_pair_elem.41" { i64 -6148914691236517206 } } } } } }, %"class.std::__1::__compressed_pair.1092" { %"struct.std::__1::__compressed_pair_elem.1093" { %"struct.std::__1::__hash_node_base.1085" { %"struct.std::__1::__hash_node_base.1085"* inttoptr (i64 -6148914691236517206 to %"struct.std::__1::__hash_node_base.1085"*) } } }, %"class.std::__1::__compressed_pair.1097" { %"struct.std::__1::__compressed_pair_elem.41" { i64 -6148914691236517206 } }, %"class.std::__1::__compressed_pair.1100" { %"struct.std::__1::__compressed_pair_elem.53" { float 0xFFFFFFFFE0000000 } }, [4 x i8] c"\AA\AA\AA\AA" }> }, i8 -86, [3 x i8] c"\AA\AA\AA", i32 -1431655766, i32 -1431655766, [4 x i8] c"\AA\AA\AA\AA" }>, align 8
@.str.25 = private unnamed_addr constant [54 x i8] c"%s:%d WARNING: UNREACHABLE: Unexpected EmitResult %d\0A\00", align 1
@.str.26 = private unnamed_addr constant [57 x i8] c"%s:%d WARNING: UNREACHABLE: Unknown Extension::Name<%d>\0A\00", align 1
@.str.27 = private unnamed_addr constant [48 x i8] c"%s:%d WARNING: UNSUPPORTED: ExecutionModel: %d\0A\00", align 1
@_ZTVN2rr7PointerINS_4ByteEEE = linkonce_odr hidden unnamed_addr constant { [4 x i8*] } { [4 x i8*] [i8* null, i8* null, i8* bitcast (void (%"class.rr::Variable"*)* @_ZN2rr8VariableD2Ev to i8*), i8* bitcast (void (%"class.rr::Pointer"*)* @_ZN2rr7PointerINS_4ByteEED0Ev to i8*)] }, comdat, align 8
@_ZTVN2rr6LValueINS_7PointerINS_4ByteEEEEE = linkonce_odr hidden unnamed_addr constant { [4 x i8*] } { [4 x i8*] [i8* null, i8* null, i8* bitcast (void (%"class.rr::Variable"*)* @_ZN2rr8VariableD2Ev to i8*), i8* bitcast (void (%"class.rr::LValue.460"*)* @_ZN2rr6LValueINS_7PointerINS_4ByteEEEED0Ev to i8*)] }, comdat, align 8
@_ZTVN2rr5ArrayINS_6Float4ELi1EEE = linkonce_odr hidden unnamed_addr constant { [4 x i8*] } { [4 x i8*] [i8* null, i8* null, i8* bitcast (void (%"class.rr::Variable"*)* @_ZN2rr8VariableD2Ev to i8*), i8* bitcast (void (%"class.rr::Array"*)* @_ZN2rr5ArrayINS_6Float4ELi1EED0Ev to i8*)] }, comdat, align 8
@_ZTVN2rr3IntE = linkonce_odr hidden unnamed_addr constant { [4 x i8*] } { [4 x i8*] [i8* null, i8* null, i8* bitcast (void (%"class.rr::Variable"*)* @_ZN2rr8VariableD2Ev to i8*), i8* bitcast (void (%"class.rr::Int"*)* @_ZN2rr3IntD0Ev to i8*)] }, comdat, align 8
@_ZNSt3__1L19piecewise_constructE = internal constant %"struct.std::__1::piecewise_construct_t" undef, align 1
@_ZTVN2rr4UIntE = linkonce_odr hidden unnamed_addr constant { [4 x i8*] } { [4 x i8*] [i8* null, i8* null, i8* bitcast (void (%"class.rr::Variable"*)* @_ZN2rr8VariableD2Ev to i8*), i8* bitcast (void (%"class.rr::UInt"*)* @_ZN2rr4UIntD0Ev to i8*)] }, comdat, align 8
@"_ZZNSt3__110__function8__policy15__choose_policyINS0_20__default_alloc_funcIZN2sw11SpirvShader24ProcessInterfaceVariableERNS5_6ObjectEE3$_0FvNS5_11DecorationsENS5_10AttribTypeEEEEEEPKS1_NS_17integral_constantIbLb1EEEE9__policy_" = internal constant %"struct.std::__1::__function::__policy" zeroinitializer, align 8
@_ZTVN2rr7PointerINS_4UIntEEE = linkonce_odr hidden unnamed_addr constant { [4 x i8*] } { [4 x i8*] [i8* null, i8* null, i8* bitcast (void (%"class.rr::Variable"*)* @_ZN2rr8VariableD2Ev to i8*), i8* bitcast (void (%"class.rr::Pointer.1411"*)* @_ZN2rr7PointerINS_4UIntEED0Ev to i8*)] }, comdat, align 8
@_ZTVN2rr6LValueINS_7PointerINS_4UIntEEEEE = linkonce_odr hidden unnamed_addr constant { [4 x i8*] } { [4 x i8*] [i8* null, i8* null, i8* bitcast (void (%"class.rr::Variable"*)* @_ZN2rr8VariableD2Ev to i8*), i8* bitcast (void (%"class.rr::LValue.1412"*)* @_ZN2rr6LValueINS_7PointerINS_4UIntEEEED0Ev to i8*)] }, comdat, align 8
@_ZTVN2rr7PointerINS_3IntEEE = linkonce_odr hidden unnamed_addr constant { [4 x i8*] } { [4 x i8*] [i8* null, i8* null, i8* bitcast (void (%"class.rr::Variable"*)* @_ZN2rr8VariableD2Ev to i8*), i8* bitcast (void (%"class.rr::Pointer.740"*)* @_ZN2rr7PointerINS_3IntEED0Ev to i8*)] }, comdat, align 8
@_ZTVN2rr6LValueINS_7PointerINS_3IntEEEEE = linkonce_odr hidden unnamed_addr constant { [4 x i8*] } { [4 x i8*] [i8* null, i8* null, i8* bitcast (void (%"class.rr::Variable"*)* @_ZN2rr8VariableD2Ev to i8*), i8* bitcast (void (%"class.rr::LValue.741"*)* @_ZN2rr6LValueINS_7PointerINS_3IntEEEED0Ev to i8*)] }, comdat, align 8
@"_ZZNSt3__110__function8__policy15__choose_policyINS0_20__default_alloc_funcIZNK2sw11SpirvShader10emitEpilogEPNS4_12SpirvRoutineEE3$_3FvNS5_11DecorationsENS5_10AttribTypeEEEEEEPKS1_NS_17integral_constantIbLb0EEEE9__policy_" = internal constant %"struct.std::__1::__function::__policy" { i8* (i8*)* @"_ZNSt3__110__function8__policy13__large_cloneINS0_20__default_alloc_funcIZNK2sw11SpirvShader10emitEpilogEPNS4_12SpirvRoutineEE3$_3FvNS5_11DecorationsENS5_10AttribTypeEEEEEEPvPKv", void (i8*)* @"_ZNSt3__110__function8__policy15__large_destroyINS0_20__default_alloc_funcIZNK2sw11SpirvShader10emitEpilogEPNS4_12SpirvRoutineEE3$_3FvNS5_11DecorationsENS5_10AttribTypeEEEEEEvPv", i8 0, %"class.std::type_info"* null }, align 8
@_ZTVN2rr7PointerINS0_INS_4ByteEEEEE = linkonce_odr hidden unnamed_addr constant { [4 x i8*] } { [4 x i8*] [i8* null, i8* null, i8* bitcast (void (%"class.rr::Variable"*)* @_ZN2rr8VariableD2Ev to i8*), i8* bitcast (void (%"class.rr::Pointer.737"*)* @_ZN2rr7PointerINS0_INS_4ByteEEEED0Ev to i8*)] }, comdat, align 8
@switch.table._ZN2sw11SpirvShader12DefineResultERKNS0_12InsnIteratorE = private unnamed_addr constant [8 x i32] [i32 4, i32 4, i32 4, i32 3, i32 3, i32 3, i32 3, i32 4], align 4

@_ZN2sw11SpirvShaderC1Ej21VkShaderStageFlagBitsPKcRKNSt3__16vectorIjNS4_9allocatorIjEEEEPKN2vk10RenderPassEjbRKNS4_10shared_ptrINSB_3dbg7ContextEEE = hidden unnamed_addr alias void (%"class.sw::SpirvShader"*, i32, i32, i8*, %"class.std::__1::vector"*, %"class.vk::RenderPass"*, i32, i1, %"class.std::__1::shared_ptr"*), void (%"class.sw::SpirvShader"*, i32, i32, i8*, %"class.std::__1::vector"*, %"class.vk::RenderPass"*, i32, i1, %"class.std::__1::shared_ptr"*)* @_ZN2sw11SpirvShaderC2Ej21VkShaderStageFlagBitsPKcRKNSt3__16vectorIjNS4_9allocatorIjEEEEPKN2vk10RenderPassEjbRKNS4_10shared_ptrINSB_3dbg7ContextEEE
@_ZN2sw11SpirvShaderD1Ev = hidden unnamed_addr alias void (%"class.sw::SpirvShader"*), void (%"class.sw::SpirvShader"*)* @_ZN2sw11SpirvShaderD2Ev
@_ZN2sw11SpirvShader7OperandC1EPKS0_PKNS0_9EmitStateENS_7SpirvIDINS0_6ObjectEEE = hidden unnamed_addr alias void (%"class.sw::SpirvShader::Operand"*, %"class.sw::SpirvShader"*, %"class.sw::SpirvShader::EmitState"*, i32), void (%"class.sw::SpirvShader::Operand"*, %"class.sw::SpirvShader"*, %"class.sw::SpirvShader::EmitState"*, i32)* @_ZN2sw11SpirvShader7OperandC2EPKS0_PKNS0_9EmitStateENS_7SpirvIDINS0_6ObjectEEE
@_ZN2sw11SpirvShader7OperandC1EPKNS0_9EmitStateERKNS0_6ObjectE = hidden unnamed_addr alias void (%"class.sw::SpirvShader::Operand"*, %"class.sw::SpirvShader::EmitState"*, %"class.sw::SpirvShader::Object"*), void (%"class.sw::SpirvShader::Operand"*, %"class.sw::SpirvShader::EmitState"*, %"class.sw::SpirvShader::Object"*)* @_ZN2sw11SpirvShader7OperandC2EPKNS0_9EmitStateERKNS0_6ObjectE
@_ZN2sw11SpirvShader7OperandC1ERKNS_12IntermediateE = hidden unnamed_addr alias void (%"class.sw::SpirvShader::Operand"*, %"class.sw::Intermediate"*), void (%"class.sw::SpirvShader::Operand"*, %"class.sw::Intermediate"*)* @_ZN2sw11SpirvShader7OperandC2ERKNS_12IntermediateE
@_ZN2sw12SpirvRoutineC1EPKN2vk14PipelineLayoutE = hidden unnamed_addr alias void (%"class.sw::SpirvRoutine"*, %"class.vk::PipelineLayout"*), void (%"class.sw::SpirvRoutine"*, %"class.vk::PipelineLayout"*)* @_ZN2sw12SpirvRoutineC2EPKN2vk14PipelineLayoutE

; Function Attrs: nounwind optsize ssp uwtable
define weak_odr hidden i8* @_ZNK23VkNonDispatchableHandleIP10VkBuffer_TEcvPvEv(%class.VkNonDispatchableHandle*) local_unnamed_addr #0 comdat align 2 {
  %2 = bitcast %class.VkNonDispatchableHandle* %0 to i8**
  %3 = load i8*, i8** %2, align 8
  ret i8* %3
}

; Function Attrs: nounwind optsize ssp uwtable
define weak_odr hidden void @_ZN23VkNonDispatchableHandleIP10VkBuffer_TEaSEm(%class.VkNonDispatchableHandle*, i64) local_unnamed_addr #0 comdat align 2 {
  %3 = getelementptr inbounds %class.VkNonDispatchableHandle, %class.VkNonDispatchableHandle* %0, i64 0, i32 0
  store i64 %1, i64* %3, align 8
  ret void
}

; Function Attrs: nounwind optsize ssp uwtable
define weak_odr hidden i8* @_ZNK23VkNonDispatchableHandleIP9VkImage_TEcvPvEv(%class.VkNonDispatchableHandle.0*) local_unnamed_addr #0 comdat align 2 {
  %2 = bitcast %class.VkNonDispatchableHandle.0* %0 to i8**
  %3 = load i8*, i8** %2, align 8
  ret i8* %3
}

; Function Attrs: nounwind optsize ssp uwtable
define weak_odr hidden void @_ZN23VkNonDispatchableHandleIP9VkImage_TEaSEm(%class.VkNonDispatchableHandle.0*, i64) local_unnamed_addr #0 comdat align 2 {
  %3 = getelementptr inbounds %class.VkNonDispatchableHandle.0, %class.VkNonDispatchableHandle.0* %0, i64 0, i32 0
  store i64 %1, i64* %3, align 8
  ret void
}

; Function Attrs: nounwind optsize ssp uwtable
define weak_odr hidden i8* @_ZNK23VkNonDispatchableHandleIP13VkSemaphore_TEcvPvEv(%class.VkNonDispatchableHandle.1*) local_unnamed_addr #0 comdat align 2 {
  %2 = bitcast %class.VkNonDispatchableHandle.1* %0 to i8**
  %3 = load i8*, i8** %2, align 8
  ret i8* %3
}

; Function Attrs: nounwind optsize ssp uwtable
define weak_odr hidden void @_ZN23VkNonDispatchableHandleIP13VkSemaphore_TEaSEm(%class.VkNonDispatchableHandle.1*, i64) local_unnamed_addr #0 comdat align 2 {
  %3 = getelementptr inbounds %class.VkNonDispatchableHandle.1, %class.VkNonDispatchableHandle.1* %0, i64 0, i32 0
  store i64 %1, i64* %3, align 8
  ret void
}

; Function Attrs: nounwind optsize ssp uwtable
define weak_odr hidden i8* @_ZNK23VkNonDispatchableHandleIP9VkFence_TEcvPvEv(%class.VkNonDispatchableHandle.2*) local_unnamed_addr #0 comdat align 2 {
  %2 = bitcast %class.VkNonDispatchableHandle.2* %0 to i8**
  %3 = load i8*, i8** %2, align 8
  ret i8* %3
}

; Function Attrs: nounwind optsize ssp uwtable
define weak_odr hidden void @_ZN23VkNonDispatchableHandleIP9VkFence_TEaSEm(%class.VkNonDispatchableHandle.2*, i64) local_unnamed_addr #0 comdat align 2 {
  %3 = getelementptr inbounds %class.VkNonDispatchableHandle.2, %class.VkNonDispatchableHandle.2* %0, i64 0, i32 0
  store i64 %1, i64* %3, align 8
  ret void
}

; Function Attrs: nounwind optsize ssp uwtable
define weak_odr hidden i8* @_ZNK23VkNonDispatchableHandleIP16VkDeviceMemory_TEcvPvEv(%class.VkNonDispatchableHandle.3*) local_unnamed_addr #0 comdat align 2 {
  %2 = bitcast %class.VkNonDispatchableHandle.3* %0 to i8**
  %3 = load i8*, i8** %2, align 8
  ret i8* %3
}

; Function Attrs: nounwind optsize ssp uwtable
define weak_odr hidden void @_ZN23VkNonDispatchableHandleIP16VkDeviceMemory_TEaSEm(%class.VkNonDispatchableHandle.3*, i64) local_unnamed_addr #0 comdat align 2 {
  %3 = getelementptr inbounds %class.VkNonDispatchableHandle.3, %class.VkNonDispatchableHandle.3* %0, i64 0, i32 0
  store i64 %1, i64* %3, align 8
  ret void
}

; Function Attrs: nounwind optsize ssp uwtable
define weak_odr hidden i8* @_ZNK23VkNonDispatchableHandleIP9VkEvent_TEcvPvEv(%class.VkNonDispatchableHandle.4*) local_unnamed_addr #0 comdat align 2 {
  %2 = bitcast %class.VkNonDispatchableHandle.4* %0 to i8**
  %3 = load i8*, i8** %2, align 8
  ret i8* %3
}

; Function Attrs: nounwind optsize ssp uwtable
define weak_odr hidden void @_ZN23VkNonDispatchableHandleIP9VkEvent_TEaSEm(%class.VkNonDispatchableHandle.4*, i64) local_unnamed_addr #0 comdat align 2 {
  %3 = getelementptr inbounds %class.VkNonDispatchableHandle.4, %class.VkNonDispatchableHandle.4* %0, i64 0, i32 0
  store i64 %1, i64* %3, align 8
  ret void
}

; Function Attrs: nounwind optsize ssp uwtable
define weak_odr hidden i8* @_ZNK23VkNonDispatchableHandleIP13VkQueryPool_TEcvPvEv(%class.VkNonDispatchableHandle.5*) local_unnamed_addr #0 comdat align 2 {
  %2 = bitcast %class.VkNonDispatchableHandle.5* %0 to i8**
  %3 = load i8*, i8** %2, align 8
  ret i8* %3
}

; Function Attrs: nounwind optsize ssp uwtable
define weak_odr hidden void @_ZN23VkNonDispatchableHandleIP13VkQueryPool_TEaSEm(%class.VkNonDispatchableHandle.5*, i64) local_unnamed_addr #0 comdat align 2 {
  %3 = getelementptr inbounds %class.VkNonDispatchableHandle.5, %class.VkNonDispatchableHandle.5* %0, i64 0, i32 0
  store i64 %1, i64* %3, align 8
  ret void
}

; Function Attrs: nounwind optsize ssp uwtable
define weak_odr hidden i8* @_ZNK23VkNonDispatchableHandleIP14VkBufferView_TEcvPvEv(%class.VkNonDispatchableHandle.6*) local_unnamed_addr #0 comdat align 2 {
  %2 = bitcast %class.VkNonDispatchableHandle.6* %0 to i8**
  %3 = load i8*, i8** %2, align 8
  ret i8* %3
}

; Function Attrs: nounwind optsize ssp uwtable
define weak_odr hidden void @_ZN23VkNonDispatchableHandleIP14VkBufferView_TEaSEm(%class.VkNonDispatchableHandle.6*, i64) local_unnamed_addr #0 comdat align 2 {
  %3 = getelementptr inbounds %class.VkNonDispatchableHandle.6, %class.VkNonDispatchableHandle.6* %0, i64 0, i32 0
  store i64 %1, i64* %3, align 8
  ret void
}

; Function Attrs: nounwind optsize ssp uwtable
define weak_odr hidden i8* @_ZNK23VkNonDispatchableHandleIP13VkImageView_TEcvPvEv(%class.VkNonDispatchableHandle.7*) local_unnamed_addr #0 comdat align 2 {
  %2 = bitcast %class.VkNonDispatchableHandle.7* %0 to i8**
  %3 = load i8*, i8** %2, align 8
  ret i8* %3
}

; Function Attrs: nounwind optsize ssp uwtable
define weak_odr hidden void @_ZN23VkNonDispatchableHandleIP13VkImageView_TEaSEm(%class.VkNonDispatchableHandle.7*, i64) local_unnamed_addr #0 comdat align 2 {
  %3 = getelementptr inbounds %class.VkNonDispatchableHandle.7, %class.VkNonDispatchableHandle.7* %0, i64 0, i32 0
  store i64 %1, i64* %3, align 8
  ret void
}

; Function Attrs: nounwind optsize ssp uwtable
define weak_odr hidden i8* @_ZNK23VkNonDispatchableHandleIP16VkShaderModule_TEcvPvEv(%class.VkNonDispatchableHandle.8*) local_unnamed_addr #0 comdat align 2 {
  %2 = bitcast %class.VkNonDispatchableHandle.8* %0 to i8**
  %3 = load i8*, i8** %2, align 8
  ret i8* %3
}

; Function Attrs: nounwind optsize ssp uwtable
define weak_odr hidden void @_ZN23VkNonDispatchableHandleIP16VkShaderModule_TEaSEm(%class.VkNonDispatchableHandle.8*, i64) local_unnamed_addr #0 comdat align 2 {
  %3 = getelementptr inbounds %class.VkNonDispatchableHandle.8, %class.VkNonDispatchableHandle.8* %0, i64 0, i32 0
  store i64 %1, i64* %3, align 8
  ret void
}

; Function Attrs: nounwind optsize ssp uwtable
define weak_odr hidden i8* @_ZNK23VkNonDispatchableHandleIP17VkPipelineCache_TEcvPvEv(%class.VkNonDispatchableHandle.9*) local_unnamed_addr #0 comdat align 2 {
  %2 = bitcast %class.VkNonDispatchableHandle.9* %0 to i8**
  %3 = load i8*, i8** %2, align 8
  ret i8* %3
}

; Function Attrs: nounwind optsize ssp uwtable
define weak_odr hidden void @_ZN23VkNonDispatchableHandleIP17VkPipelineCache_TEaSEm(%class.VkNonDispatchableHandle.9*, i64) local_unnamed_addr #0 comdat align 2 {
  %3 = getelementptr inbounds %class.VkNonDispatchableHandle.9, %class.VkNonDispatchableHandle.9* %0, i64 0, i32 0
  store i64 %1, i64* %3, align 8
  ret void
}

; Function Attrs: nounwind optsize ssp uwtable
define weak_odr hidden i8* @_ZNK23VkNonDispatchableHandleIP18VkPipelineLayout_TEcvPvEv(%class.VkNonDispatchableHandle.10*) local_unnamed_addr #0 comdat align 2 {
  %2 = bitcast %class.VkNonDispatchableHandle.10* %0 to i8**
  %3 = load i8*, i8** %2, align 8
  ret i8* %3
}

; Function Attrs: nounwind optsize ssp uwtable
define weak_odr hidden void @_ZN23VkNonDispatchableHandleIP18VkPipelineLayout_TEaSEm(%class.VkNonDispatchableHandle.10*, i64) local_unnamed_addr #0 comdat align 2 {
  %3 = getelementptr inbounds %class.VkNonDispatchableHandle.10, %class.VkNonDispatchableHandle.10* %0, i64 0, i32 0
  store i64 %1, i64* %3, align 8
  ret void
}

; Function Attrs: nounwind optsize ssp uwtable
define weak_odr hidden i8* @_ZNK23VkNonDispatchableHandleIP12VkPipeline_TEcvPvEv(%class.VkNonDispatchableHandle.11*) local_unnamed_addr #0 comdat align 2 {
  %2 = bitcast %class.VkNonDispatchableHandle.11* %0 to i8**
  %3 = load i8*, i8** %2, align 8
  ret i8* %3
}

; Function Attrs: nounwind optsize ssp uwtable
define weak_odr hidden void @_ZN23VkNonDispatchableHandleIP12VkPipeline_TEaSEm(%class.VkNonDispatchableHandle.11*, i64) local_unnamed_addr #0 comdat align 2 {
  %3 = getelementptr inbounds %class.VkNonDispatchableHandle.11, %class.VkNonDispatchableHandle.11* %0, i64 0, i32 0
  store i64 %1, i64* %3, align 8
  ret void
}

; Function Attrs: nounwind optsize ssp uwtable
define weak_odr hidden i8* @_ZNK23VkNonDispatchableHandleIP14VkRenderPass_TEcvPvEv(%class.VkNonDispatchableHandle.12*) local_unnamed_addr #0 comdat align 2 {
  %2 = bitcast %class.VkNonDispatchableHandle.12* %0 to i8**
  %3 = load i8*, i8** %2, align 8
  ret i8* %3
}

; Function Attrs: nounwind optsize ssp uwtable
define weak_odr hidden void @_ZN23VkNonDispatchableHandleIP14VkRenderPass_TEaSEm(%class.VkNonDispatchableHandle.12*, i64) local_unnamed_addr #0 comdat align 2 {
  %3 = getelementptr inbounds %class.VkNonDispatchableHandle.12, %class.VkNonDispatchableHandle.12* %0, i64 0, i32 0
  store i64 %1, i64* %3, align 8
  ret void
}

; Function Attrs: nounwind optsize ssp uwtable
define weak_odr hidden i8* @_ZNK23VkNonDispatchableHandleIP23VkDescriptorSetLayout_TEcvPvEv(%class.VkNonDispatchableHandle.13*) local_unnamed_addr #0 comdat align 2 {
  %2 = bitcast %class.VkNonDispatchableHandle.13* %0 to i8**
  %3 = load i8*, i8** %2, align 8
  ret i8* %3
}

; Function Attrs: nounwind optsize ssp uwtable
define weak_odr hidden void @_ZN23VkNonDispatchableHandleIP23VkDescriptorSetLayout_TEaSEm(%class.VkNonDispatchableHandle.13*, i64) local_unnamed_addr #0 comdat align 2 {
  %3 = getelementptr inbounds %class.VkNonDispatchableHandle.13, %class.VkNonDispatchableHandle.13* %0, i64 0, i32 0
  store i64 %1, i64* %3, align 8
  ret void
}

; Function Attrs: nounwind optsize ssp uwtable
define weak_odr hidden i8* @_ZNK23VkNonDispatchableHandleIP11VkSampler_TEcvPvEv(%class.VkNonDispatchableHandle.14*) local_unnamed_addr #0 comdat align 2 {
  %2 = bitcast %class.VkNonDispatchableHandle.14* %0 to i8**
  %3 = load i8*, i8** %2, align 8
  ret i8* %3
}

; Function Attrs: nounwind optsize ssp uwtable
define weak_odr hidden void @_ZN23VkNonDispatchableHandleIP11VkSampler_TEaSEm(%class.VkNonDispatchableHandle.14*, i64) local_unnamed_addr #0 comdat align 2 {
  %3 = getelementptr inbounds %class.VkNonDispatchableHandle.14, %class.VkNonDispatchableHandle.14* %0, i64 0, i32 0
  store i64 %1, i64* %3, align 8
  ret void
}

; Function Attrs: nounwind optsize ssp uwtable
define weak_odr hidden i8* @_ZNK23VkNonDispatchableHandleIP17VkDescriptorSet_TEcvPvEv(%class.VkNonDispatchableHandle.15*) local_unnamed_addr #0 comdat align 2 {
  %2 = bitcast %class.VkNonDispatchableHandle.15* %0 to i8**
  %3 = load i8*, i8** %2, align 8
  ret i8* %3
}

; Function Attrs: nounwind optsize ssp uwtable
define weak_odr hidden void @_ZN23VkNonDispatchableHandleIP17VkDescriptorSet_TEaSEm(%class.VkNonDispatchableHandle.15*, i64) local_unnamed_addr #0 comdat align 2 {
  %3 = getelementptr inbounds %class.VkNonDispatchableHandle.15, %class.VkNonDispatchableHandle.15* %0, i64 0, i32 0
  store i64 %1, i64* %3, align 8
  ret void
}

; Function Attrs: nounwind optsize ssp uwtable
define weak_odr hidden i8* @_ZNK23VkNonDispatchableHandleIP18VkDescriptorPool_TEcvPvEv(%class.VkNonDispatchableHandle.16*) local_unnamed_addr #0 comdat align 2 {
  %2 = bitcast %class.VkNonDispatchableHandle.16* %0 to i8**
  %3 = load i8*, i8** %2, align 8
  ret i8* %3
}

; Function Attrs: nounwind optsize ssp uwtable
define weak_odr hidden void @_ZN23VkNonDispatchableHandleIP18VkDescriptorPool_TEaSEm(%class.VkNonDispatchableHandle.16*, i64) local_unnamed_addr #0 comdat align 2 {
  %3 = getelementptr inbounds %class.VkNonDispatchableHandle.16, %class.VkNonDispatchableHandle.16* %0, i64 0, i32 0
  store i64 %1, i64* %3, align 8
  ret void
}

; Function Attrs: nounwind optsize ssp uwtable
define weak_odr hidden i8* @_ZNK23VkNonDispatchableHandleIP15VkFramebuffer_TEcvPvEv(%class.VkNonDispatchableHandle.17*) local_unnamed_addr #0 comdat align 2 {
  %2 = bitcast %class.VkNonDispatchableHandle.17* %0 to i8**
  %3 = load i8*, i8** %2, align 8
  ret i8* %3
}

; Function Attrs: nounwind optsize ssp uwtable
define weak_odr hidden void @_ZN23VkNonDispatchableHandleIP15VkFramebuffer_TEaSEm(%class.VkNonDispatchableHandle.17*, i64) local_unnamed_addr #0 comdat align 2 {
  %3 = getelementptr inbounds %class.VkNonDispatchableHandle.17, %class.VkNonDispatchableHandle.17* %0, i64 0, i32 0
  store i64 %1, i64* %3, align 8
  ret void
}

; Function Attrs: nounwind optsize ssp uwtable
define weak_odr hidden i8* @_ZNK23VkNonDispatchableHandleIP15VkCommandPool_TEcvPvEv(%class.VkNonDispatchableHandle.18*) local_unnamed_addr #0 comdat align 2 {
  %2 = bitcast %class.VkNonDispatchableHandle.18* %0 to i8**
  %3 = load i8*, i8** %2, align 8
  ret i8* %3
}

; Function Attrs: nounwind optsize ssp uwtable
define weak_odr hidden void @_ZN23VkNonDispatchableHandleIP15VkCommandPool_TEaSEm(%class.VkNonDispatchableHandle.18*, i64) local_unnamed_addr #0 comdat align 2 {
  %3 = getelementptr inbounds %class.VkNonDispatchableHandle.18, %class.VkNonDispatchableHandle.18* %0, i64 0, i32 0
  store i64 %1, i64* %3, align 8
  ret void
}

; Function Attrs: nounwind optsize ssp uwtable
define weak_odr hidden i8* @_ZNK23VkNonDispatchableHandleIP26VkSamplerYcbcrConversion_TEcvPvEv(%class.VkNonDispatchableHandle.19*) local_unnamed_addr #0 comdat align 2 {
  %2 = bitcast %class.VkNonDispatchableHandle.19* %0 to i8**
  %3 = load i8*, i8** %2, align 8
  ret i8* %3
}

; Function Attrs: nounwind optsize ssp uwtable
define weak_odr hidden void @_ZN23VkNonDispatchableHandleIP26VkSamplerYcbcrConversion_TEaSEm(%class.VkNonDispatchableHandle.19*, i64) local_unnamed_addr #0 comdat align 2 {
  %3 = getelementptr inbounds %class.VkNonDispatchableHandle.19, %class.VkNonDispatchableHandle.19* %0, i64 0, i32 0
  store i64 %1, i64* %3, align 8
  ret void
}

; Function Attrs: nounwind optsize ssp uwtable
define weak_odr hidden i8* @_ZNK23VkNonDispatchableHandleIP28VkDescriptorUpdateTemplate_TEcvPvEv(%class.VkNonDispatchableHandle.20*) local_unnamed_addr #0 comdat align 2 {
  %2 = bitcast %class.VkNonDispatchableHandle.20* %0 to i8**
  %3 = load i8*, i8** %2, align 8
  ret i8* %3
}

; Function Attrs: nounwind optsize ssp uwtable
define weak_odr hidden void @_ZN23VkNonDispatchableHandleIP28VkDescriptorUpdateTemplate_TEaSEm(%class.VkNonDispatchableHandle.20*, i64) local_unnamed_addr #0 comdat align 2 {
  %3 = getelementptr inbounds %class.VkNonDispatchableHandle.20, %class.VkNonDispatchableHandle.20* %0, i64 0, i32 0
  store i64 %1, i64* %3, align 8
  ret void
}

; Function Attrs: nounwind optsize ssp uwtable
define weak_odr hidden i8* @_ZNK23VkNonDispatchableHandleIP14VkSurfaceKHR_TEcvPvEv(%class.VkNonDispatchableHandle.21*) local_unnamed_addr #0 comdat align 2 {
  %2 = bitcast %class.VkNonDispatchableHandle.21* %0 to i8**
  %3 = load i8*, i8** %2, align 8
  ret i8* %3
}

; Function Attrs: nounwind optsize ssp uwtable
define weak_odr hidden void @_ZN23VkNonDispatchableHandleIP14VkSurfaceKHR_TEaSEm(%class.VkNonDispatchableHandle.21*, i64) local_unnamed_addr #0 comdat align 2 {
  %3 = getelementptr inbounds %class.VkNonDispatchableHandle.21, %class.VkNonDispatchableHandle.21* %0, i64 0, i32 0
  store i64 %1, i64* %3, align 8
  ret void
}

; Function Attrs: nounwind optsize ssp uwtable
define weak_odr hidden i8* @_ZNK23VkNonDispatchableHandleIP16VkSwapchainKHR_TEcvPvEv(%class.VkNonDispatchableHandle.22*) local_unnamed_addr #0 comdat align 2 {
  %2 = bitcast %class.VkNonDispatchableHandle.22* %0 to i8**
  %3 = load i8*, i8** %2, align 8
  ret i8* %3
}

; Function Attrs: nounwind optsize ssp uwtable
define weak_odr hidden void @_ZN23VkNonDispatchableHandleIP16VkSwapchainKHR_TEaSEm(%class.VkNonDispatchableHandle.22*, i64) local_unnamed_addr #0 comdat align 2 {
  %3 = getelementptr inbounds %class.VkNonDispatchableHandle.22, %class.VkNonDispatchableHandle.22* %0, i64 0, i32 0
  store i64 %1, i64* %3, align 8
  ret void
}

; Function Attrs: nounwind optsize ssp uwtable
define weak_odr hidden i8* @_ZNK23VkNonDispatchableHandleIP14VkDisplayKHR_TEcvPvEv(%class.VkNonDispatchableHandle.23*) local_unnamed_addr #0 comdat align 2 {
  %2 = bitcast %class.VkNonDispatchableHandle.23* %0 to i8**
  %3 = load i8*, i8** %2, align 8
  ret i8* %3
}

; Function Attrs: nounwind optsize ssp uwtable
define weak_odr hidden void @_ZN23VkNonDispatchableHandleIP14VkDisplayKHR_TEaSEm(%class.VkNonDispatchableHandle.23*, i64) local_unnamed_addr #0 comdat align 2 {
  %3 = getelementptr inbounds %class.VkNonDispatchableHandle.23, %class.VkNonDispatchableHandle.23* %0, i64 0, i32 0
  store i64 %1, i64* %3, align 8
  ret void
}

; Function Attrs: nounwind optsize ssp uwtable
define weak_odr hidden i8* @_ZNK23VkNonDispatchableHandleIP18VkDisplayModeKHR_TEcvPvEv(%class.VkNonDispatchableHandle.24*) local_unnamed_addr #0 comdat align 2 {
  %2 = bitcast %class.VkNonDispatchableHandle.24* %0 to i8**
  %3 = load i8*, i8** %2, align 8
  ret i8* %3
}

; Function Attrs: nounwind optsize ssp uwtable
define weak_odr hidden void @_ZN23VkNonDispatchableHandleIP18VkDisplayModeKHR_TEaSEm(%class.VkNonDispatchableHandle.24*, i64) local_unnamed_addr #0 comdat align 2 {
  %3 = getelementptr inbounds %class.VkNonDispatchableHandle.24, %class.VkNonDispatchableHandle.24* %0, i64 0, i32 0
  store i64 %1, i64* %3, align 8
  ret void
}

; Function Attrs: nounwind optsize ssp uwtable
define weak_odr hidden i8* @_ZNK23VkNonDispatchableHandleIP24VkDeferredOperationKHR_TEcvPvEv(%class.VkNonDispatchableHandle.25*) local_unnamed_addr #0 comdat align 2 {
  %2 = bitcast %class.VkNonDispatchableHandle.25* %0 to i8**
  %3 = load i8*, i8** %2, align 8
  ret i8* %3
}

; Function Attrs: nounwind optsize ssp uwtable
define weak_odr hidden void @_ZN23VkNonDispatchableHandleIP24VkDeferredOperationKHR_TEaSEm(%class.VkNonDispatchableHandle.25*, i64) local_unnamed_addr #0 comdat align 2 {
  %3 = getelementptr inbounds %class.VkNonDispatchableHandle.25, %class.VkNonDispatchableHandle.25* %0, i64 0, i32 0
  store i64 %1, i64* %3, align 8
  ret void
}

; Function Attrs: nounwind optsize ssp uwtable
define weak_odr hidden i8* @_ZNK23VkNonDispatchableHandleIP26VkDebugReportCallbackEXT_TEcvPvEv(%class.VkNonDispatchableHandle.26*) local_unnamed_addr #0 comdat align 2 {
  %2 = bitcast %class.VkNonDispatchableHandle.26* %0 to i8**
  %3 = load i8*, i8** %2, align 8
  ret i8* %3
}

; Function Attrs: nounwind optsize ssp uwtable
define weak_odr hidden void @_ZN23VkNonDispatchableHandleIP26VkDebugReportCallbackEXT_TEaSEm(%class.VkNonDispatchableHandle.26*, i64) local_unnamed_addr #0 comdat align 2 {
  %3 = getelementptr inbounds %class.VkNonDispatchableHandle.26, %class.VkNonDispatchableHandle.26* %0, i64 0, i32 0
  store i64 %1, i64* %3, align 8
  ret void
}

; Function Attrs: nounwind optsize ssp uwtable
define weak_odr hidden i8* @_ZNK23VkNonDispatchableHandleIP15VkCuModuleNVX_TEcvPvEv(%class.VkNonDispatchableHandle.27*) local_unnamed_addr #0 comdat align 2 {
  %2 = bitcast %class.VkNonDispatchableHandle.27* %0 to i8**
  %3 = load i8*, i8** %2, align 8
  ret i8* %3
}

; Function Attrs: nounwind optsize ssp uwtable
define weak_odr hidden void @_ZN23VkNonDispatchableHandleIP15VkCuModuleNVX_TEaSEm(%class.VkNonDispatchableHandle.27*, i64) local_unnamed_addr #0 comdat align 2 {
  %3 = getelementptr inbounds %class.VkNonDispatchableHandle.27, %class.VkNonDispatchableHandle.27* %0, i64 0, i32 0
  store i64 %1, i64* %3, align 8
  ret void
}

; Function Attrs: nounwind optsize ssp uwtable
define weak_odr hidden i8* @_ZNK23VkNonDispatchableHandleIP17VkCuFunctionNVX_TEcvPvEv(%class.VkNonDispatchableHandle.28*) local_unnamed_addr #0 comdat align 2 {
  %2 = bitcast %class.VkNonDispatchableHandle.28* %0 to i8**
  %3 = load i8*, i8** %2, align 8
  ret i8* %3
}

; Function Attrs: nounwind optsize ssp uwtable
define weak_odr hidden void @_ZN23VkNonDispatchableHandleIP17VkCuFunctionNVX_TEaSEm(%class.VkNonDispatchableHandle.28*, i64) local_unnamed_addr #0 comdat align 2 {
  %3 = getelementptr inbounds %class.VkNonDispatchableHandle.28, %class.VkNonDispatchableHandle.28* %0, i64 0, i32 0
  store i64 %1, i64* %3, align 8
  ret void
}

; Function Attrs: nounwind optsize ssp uwtable
define weak_odr hidden i8* @_ZNK23VkNonDispatchableHandleIP26VkDebugUtilsMessengerEXT_TEcvPvEv(%class.VkNonDispatchableHandle.29*) local_unnamed_addr #0 comdat align 2 {
  %2 = bitcast %class.VkNonDispatchableHandle.29* %0 to i8**
  %3 = load i8*, i8** %2, align 8
  ret i8* %3
}

; Function Attrs: nounwind optsize ssp uwtable
define weak_odr hidden void @_ZN23VkNonDispatchableHandleIP26VkDebugUtilsMessengerEXT_TEaSEm(%class.VkNonDispatchableHandle.29*, i64) local_unnamed_addr #0 comdat align 2 {
  %3 = getelementptr inbounds %class.VkNonDispatchableHandle.29, %class.VkNonDispatchableHandle.29* %0, i64 0, i32 0
  store i64 %1, i64* %3, align 8
  ret void
}

; Function Attrs: nounwind optsize ssp uwtable
define weak_odr hidden i8* @_ZNK23VkNonDispatchableHandleIP22VkValidationCacheEXT_TEcvPvEv(%class.VkNonDispatchableHandle.30*) local_unnamed_addr #0 comdat align 2 {
  %2 = bitcast %class.VkNonDispatchableHandle.30* %0 to i8**
  %3 = load i8*, i8** %2, align 8
  ret i8* %3
}

; Function Attrs: nounwind optsize ssp uwtable
define weak_odr hidden void @_ZN23VkNonDispatchableHandleIP22VkValidationCacheEXT_TEaSEm(%class.VkNonDispatchableHandle.30*, i64) local_unnamed_addr #0 comdat align 2 {
  %3 = getelementptr inbounds %class.VkNonDispatchableHandle.30, %class.VkNonDispatchableHandle.30* %0, i64 0, i32 0
  store i64 %1, i64* %3, align 8
  ret void
}

; Function Attrs: nounwind optsize ssp uwtable
define weak_odr hidden i8* @_ZNK23VkNonDispatchableHandleIP27VkAccelerationStructureNV_TEcvPvEv(%class.VkNonDispatchableHandle.31*) local_unnamed_addr #0 comdat align 2 {
  %2 = bitcast %class.VkNonDispatchableHandle.31* %0 to i8**
  %3 = load i8*, i8** %2, align 8
  ret i8* %3
}

; Function Attrs: nounwind optsize ssp uwtable
define weak_odr hidden void @_ZN23VkNonDispatchableHandleIP27VkAccelerationStructureNV_TEaSEm(%class.VkNonDispatchableHandle.31*, i64) local_unnamed_addr #0 comdat align 2 {
  %3 = getelementptr inbounds %class.VkNonDispatchableHandle.31, %class.VkNonDispatchableHandle.31* %0, i64 0, i32 0
  store i64 %1, i64* %3, align 8
  ret void
}

; Function Attrs: nounwind optsize ssp uwtable
define weak_odr hidden i8* @_ZNK23VkNonDispatchableHandleIP33VkPerformanceConfigurationINTEL_TEcvPvEv(%class.VkNonDispatchableHandle.32*) local_unnamed_addr #0 comdat align 2 {
  %2 = bitcast %class.VkNonDispatchableHandle.32* %0 to i8**
  %3 = load i8*, i8** %2, align 8
  ret i8* %3
}

; Function Attrs: nounwind optsize ssp uwtable
define weak_odr hidden void @_ZN23VkNonDispatchableHandleIP33VkPerformanceConfigurationINTEL_TEaSEm(%class.VkNonDispatchableHandle.32*, i64) local_unnamed_addr #0 comdat align 2 {
  %3 = getelementptr inbounds %class.VkNonDispatchableHandle.32, %class.VkNonDispatchableHandle.32* %0, i64 0, i32 0
  store i64 %1, i64* %3, align 8
  ret void
}

; Function Attrs: nounwind optsize ssp uwtable
define weak_odr hidden i8* @_ZNK23VkNonDispatchableHandleIP28VkIndirectCommandsLayoutNV_TEcvPvEv(%class.VkNonDispatchableHandle.33*) local_unnamed_addr #0 comdat align 2 {
  %2 = bitcast %class.VkNonDispatchableHandle.33* %0 to i8**
  %3 = load i8*, i8** %2, align 8
  ret i8* %3
}

; Function Attrs: nounwind optsize ssp uwtable
define weak_odr hidden void @_ZN23VkNonDispatchableHandleIP28VkIndirectCommandsLayoutNV_TEaSEm(%class.VkNonDispatchableHandle.33*, i64) local_unnamed_addr #0 comdat align 2 {
  %3 = getelementptr inbounds %class.VkNonDispatchableHandle.33, %class.VkNonDispatchableHandle.33* %0, i64 0, i32 0
  store i64 %1, i64* %3, align 8
  ret void
}

; Function Attrs: nounwind optsize ssp uwtable
define weak_odr hidden i8* @_ZNK23VkNonDispatchableHandleIP22VkPrivateDataSlotEXT_TEcvPvEv(%class.VkNonDispatchableHandle.34*) local_unnamed_addr #0 comdat align 2 {
  %2 = bitcast %class.VkNonDispatchableHandle.34* %0 to i8**
  %3 = load i8*, i8** %2, align 8
  ret i8* %3
}

; Function Attrs: nounwind optsize ssp uwtable
define weak_odr hidden void @_ZN23VkNonDispatchableHandleIP22VkPrivateDataSlotEXT_TEaSEm(%class.VkNonDispatchableHandle.34*, i64) local_unnamed_addr #0 comdat align 2 {
  %3 = getelementptr inbounds %class.VkNonDispatchableHandle.34, %class.VkNonDispatchableHandle.34* %0, i64 0, i32 0
  store i64 %1, i64* %3, align 8
  ret void
}

; Function Attrs: nounwind optsize ssp uwtable
define weak_odr hidden i8* @_ZNK23VkNonDispatchableHandleIP28VkAccelerationStructureKHR_TEcvPvEv(%class.VkNonDispatchableHandle.35*) local_unnamed_addr #0 comdat align 2 {
  %2 = bitcast %class.VkNonDispatchableHandle.35* %0 to i8**
  %3 = load i8*, i8** %2, align 8
  ret i8* %3
}

; Function Attrs: nounwind optsize ssp uwtable
define weak_odr hidden void @_ZN23VkNonDispatchableHandleIP28VkAccelerationStructureKHR_TEaSEm(%class.VkNonDispatchableHandle.35*, i64) local_unnamed_addr #0 comdat align 2 {
  %3 = getelementptr inbounds %class.VkNonDispatchableHandle.35, %class.VkNonDispatchableHandle.35* %0, i64 0, i32 0
  store i64 %1, i64* %3, align 8
  ret void
}

; Function Attrs: nounwind optsize ssp uwtable
define hidden void @_ZN2sw11SpirvShaderC2Ej21VkShaderStageFlagBitsPKcRKNSt3__16vectorIjNS4_9allocatorIjEEEEPKN2vk10RenderPassEjbRKNS4_10shared_ptrINSB_3dbg7ContextEEE(%"class.sw::SpirvShader"*, i32, i32, i8* nocapture readonly, %"class.std::__1::vector"* dereferenceable(24), %"class.vk::RenderPass"* readonly, i32, i1 zeroext, %"class.std::__1::shared_ptr"* dereferenceable(16)) unnamed_addr #0 align 2 {
  %10 = alloca %"class.std::__1::tuple.1589", align 8
  %11 = alloca %"class.std::__1::tuple.1554", align 1
  %12 = alloca %"class.std::__1::tuple.1564", align 8
  %13 = alloca %"class.std::__1::tuple.1554", align 1
  %14 = alloca %"class.std::__1::tuple.1576", align 8
  %15 = alloca %"class.std::__1::tuple.1554", align 1
  %16 = alloca %"class.std::__1::tuple.1589", align 8
  %17 = alloca %"class.std::__1::tuple.1554", align 1
  %18 = alloca %"class.std::__1::tuple.1564", align 8
  %19 = alloca %"class.std::__1::tuple.1554", align 1
  %20 = alloca %"class.std::__1::tuple.1589", align 8
  %21 = alloca %"class.std::__1::tuple.1554", align 1
  %22 = alloca %"class.std::__1::tuple.1593", align 8
  %23 = alloca %"class.std::__1::tuple.1554", align 1
  %24 = alloca %"class.std::__1::tuple.1564", align 8
  %25 = alloca %"class.std::__1::tuple.1554", align 1
  %26 = alloca %"class.std::__1::tuple.1564", align 8
  %27 = alloca %"class.std::__1::tuple.1554", align 1
  %28 = alloca %"class.std::__1::tuple.1599", align 8
  %29 = alloca %"class.std::__1::tuple.1554", align 1
  %30 = alloca %"class.std::__1::tuple.1564", align 8
  %31 = alloca %"class.std::__1::tuple.1554", align 1
  %32 = alloca %"class.std::__1::tuple.1612", align 8
  %33 = alloca %"class.std::__1::tuple.1554", align 1
  %34 = alloca %"class.std::__1::tuple.1551", align 8
  %35 = alloca %"class.std::__1::tuple.1554", align 1
  %36 = alloca %"class.std::__1::tuple.1625", align 8
  %37 = alloca %"class.std::__1::tuple.1554", align 1
  %38 = alloca %"class.sw::SpirvID.329", align 4
  %39 = alloca %"class.sw::SpirvID.329", align 4
  %40 = alloca %"class.sw::SpirvID.328", align 4
  %41 = alloca i32, align 4
  %42 = alloca %"class.sw::SpirvID.329", align 4
  %43 = alloca %"class.sw::SpirvID.328", align 4
  %44 = alloca %"class.sw::SpirvID.329", align 4
  %45 = alloca %"class.std::__1::tuple.1599", align 8
  %46 = alloca %"class.std::__1::tuple.1554", align 1
  %47 = alloca %"class.std::__1::tuple.1625", align 8
  %48 = alloca %"class.std::__1::tuple.1554", align 1
  %49 = alloca %"class.std::__1::tuple.1625", align 8
  %50 = alloca %"class.std::__1::tuple.1554", align 1
  %51 = alloca %"class.std::__1::tuple.1589", align 8
  %52 = alloca %"class.std::__1::tuple.1554", align 1
  %53 = alloca %"class.sw::SpirvID.387", align 4
  %54 = alloca %"class.sw::SpirvID.387", align 4
  %55 = alloca %"class.sw::SpirvID", align 4
  %56 = alloca %"class.sw::SpirvID.326", align 4
  %57 = alloca %"class.sw::SpirvShader::InsnIterator", align 8
  %58 = alloca %"class.sw::SpirvShader::TypeOrObjectID", align 4
  %59 = alloca %"class.sw::SpirvID.328", align 4
  %60 = alloca %"class.sw::SpirvID.328", align 4
  %61 = alloca %"class.sw::SpirvID.328", align 4
  %62 = alloca %"class.sw::SpirvID.329", align 4
  %63 = alloca %"class.sw::SpirvShader::TypeOrObjectID", align 4
  %64 = alloca %"class.sw::SpirvID.328", align 4
  %65 = alloca %"class.sw::SpirvShader::TypeOrObjectID", align 4
  %66 = alloca %"class.sw::SpirvID.328", align 4
  %67 = alloca %"class.sw::SpirvShader::TypeOrObjectID", align 4
  %68 = alloca %"class.sw::SpirvID.329", align 4
  %69 = alloca %"class.sw::SpirvShader::Block", align 8
  %70 = alloca %"class.sw::SpirvID.328", align 4
  %71 = alloca %"class.sw::SpirvShader::TypeOrObjectID", align 4
  %72 = alloca %"class.sw::SpirvID", align 4
  %73 = alloca %"class.sw::SpirvID.387", align 4
  %74 = alloca %"class.sw::SpirvShader::Extension", align 4
  %75 = alloca i32, align 4
  %76 = alloca i8*, align 8
  %77 = alloca %"class.sw::SpirvID.328", align 4
  %78 = alloca %"class.sw::SpirvID.328", align 4
  %79 = alloca %"struct.sw::SpirvShader::Decorations", align 4
  %80 = alloca %"class.sw::SpirvShader::TypeOrObjectID", align 4
  %81 = getelementptr inbounds %"class.sw::SpirvShader", %"class.sw::SpirvShader"* %0, i64 0, i32 0
  tail call void @_ZNSt3__16vectorIjNS_9allocatorIjEEEC2ERKS3_(%"class.std::__1::vector"* %81, %"class.std::__1::vector"* dereferenceable(24) %4) #14
  %82 = getelementptr inbounds %"class.sw::SpirvShader", %"class.sw::SpirvShader"* %0, i64 0, i32 1
  %83 = getelementptr inbounds %"class.sw::SpirvShader", %"class.sw::SpirvShader"* %0, i64 0, i32 1, i32 0, i32 3
  %84 = bitcast %"class.std::__1::__compressed_pair.52"* %83 to i32*
  %85 = bitcast %"class.std::__1::unordered_map"* %82 to i8*
  tail call void @llvm.memset.p0i8.i64(i8* align 8 %85, i8 0, i64 32, i1 false) #15
  store i32 1065353216, i32* %84, align 4
  %86 = getelementptr inbounds %"class.sw::SpirvShader", %"class.sw::SpirvShader"* %0, i64 0, i32 2
  %87 = getelementptr inbounds %"class.sw::SpirvShader", %"class.sw::SpirvShader"* %0, i64 0, i32 2, i32 0, i32 3
  %88 = bitcast %"class.std::__1::__compressed_pair.76"* %87 to i32*
  %89 = bitcast %"class.std::__1::unordered_map.55"* %86 to i8*
  tail call void @llvm.memset.p0i8.i64(i8* align 8 %89, i8 0, i64 32, i1 false) #15
  store i32 1065353216, i32* %88, align 4
  %90 = getelementptr inbounds %"class.sw::SpirvShader", %"class.sw::SpirvShader"* %0, i64 0, i32 3
  %91 = getelementptr inbounds %"class.sw::SpirvShader", %"class.sw::SpirvShader"* %0, i64 0, i32 3, i32 0, i32 3
  %92 = bitcast %"class.std::__1::__compressed_pair.103"* %91 to i32*
  %93 = bitcast %"class.std::__1::unordered_map.82"* %90 to i8*
  tail call void @llvm.memset.p0i8.i64(i8* align 8 %93, i8 0, i64 32, i1 false) #15
  store i32 1065353216, i32* %92, align 4
  %94 = getelementptr inbounds %"class.sw::SpirvShader", %"class.sw::SpirvShader"* %0, i64 0, i32 4
  %95 = getelementptr inbounds %"class.sw::SpirvShader", %"class.sw::SpirvShader"* %0, i64 0, i32 5
  %96 = bitcast %"class.std::__1::vector.109"* %94 to i8*
  call void @llvm.memset.p0i8.i64(i8* align 8 %96, i8 0, i64 24, i1 false)
  %97 = tail call i8* @_Znwm(i64 256) #16
  %98 = getelementptr inbounds %"class.sw::SpirvShader", %"class.sw::SpirvShader"* %0, i64 0, i32 5, i32 0, i32 1
  %99 = bitcast %"struct.sw::SpirvShader::InterfaceComponent"** %98 to i8**
  store i8* %97, i8** %99, align 8
  %100 = bitcast %"class.std::__1::vector.116"* %95 to i8**
  store i8* %97, i8** %100, align 8
  %101 = getelementptr inbounds i8, i8* %97, i64 256
  %102 = getelementptr inbounds %"class.sw::SpirvShader", %"class.sw::SpirvShader"* %0, i64 0, i32 5, i32 0, i32 2, i32 0, i32 0
  %103 = bitcast %"struct.sw::SpirvShader::InterfaceComponent"** %102 to i8**
  store i8* %101, i8** %103, align 8
  %104 = bitcast i8* %97 to %"struct.sw::SpirvShader::InterfaceComponent"*
  br label %105

105:                                              ; preds = %105, %9
  %106 = phi i64 [ %109, %105 ], [ 0, %9 ]
  %107 = getelementptr inbounds %"struct.sw::SpirvShader::InterfaceComponent", %"struct.sw::SpirvShader::InterfaceComponent"* %104, i64 %106, i32 0
  store i8 3, i8* %107, align 1
  %108 = getelementptr inbounds %"struct.sw::SpirvShader::InterfaceComponent", %"struct.sw::SpirvShader::InterfaceComponent"* %104, i64 %106, i32 1, i32 0, i32 0
  store i8 0, i8* %108, align 1
  %109 = add nuw nsw i64 %106, 1
  %110 = icmp eq i64 %109, 128
  br i1 %110, label %111, label %105

111:                                              ; preds = %105
  %112 = zext i1 %7 to i8
  %113 = getelementptr inbounds i8, i8* %97, i64 256
  %114 = bitcast %"struct.sw::SpirvShader::InterfaceComponent"** %98 to i64*
  %115 = ptrtoint i8* %113 to i64
  store i64 %115, i64* %114, align 8
  %116 = getelementptr inbounds %"class.sw::SpirvShader", %"class.sw::SpirvShader"* %0, i64 0, i32 6
  %117 = tail call i8* @_Znwm(i64 256) #16
  %118 = getelementptr inbounds %"class.sw::SpirvShader", %"class.sw::SpirvShader"* %0, i64 0, i32 6, i32 0, i32 1
  %119 = bitcast %"struct.sw::SpirvShader::InterfaceComponent"** %118 to i8**
  store i8* %117, i8** %119, align 8
  %120 = bitcast %"class.std::__1::vector.116"* %116 to i8**
  store i8* %117, i8** %120, align 8
  %121 = getelementptr inbounds i8, i8* %117, i64 256
  %122 = getelementptr inbounds %"class.sw::SpirvShader", %"class.sw::SpirvShader"* %0, i64 0, i32 6, i32 0, i32 2, i32 0, i32 0
  %123 = bitcast %"struct.sw::SpirvShader::InterfaceComponent"** %122 to i8**
  store i8* %121, i8** %123, align 8
  %124 = bitcast i8* %117 to %"struct.sw::SpirvShader::InterfaceComponent"*
  br label %125

125:                                              ; preds = %125, %111
  %126 = phi i64 [ %129, %125 ], [ 0, %111 ]
  %127 = getelementptr inbounds %"struct.sw::SpirvShader::InterfaceComponent", %"struct.sw::SpirvShader::InterfaceComponent"* %124, i64 %126, i32 0
  store i8 3, i8* %127, align 1
  %128 = getelementptr inbounds %"struct.sw::SpirvShader::InterfaceComponent", %"struct.sw::SpirvShader::InterfaceComponent"* %124, i64 %126, i32 1, i32 0, i32 0
  store i8 0, i8* %128, align 1
  %129 = add nuw nsw i64 %126, 1
  %130 = icmp eq i64 %129, 128
  br i1 %130, label %131, label %125

131:                                              ; preds = %125
  %132 = getelementptr inbounds i8, i8* %117, i64 256
  %133 = bitcast %"struct.sw::SpirvShader::InterfaceComponent"** %118 to i64*
  %134 = ptrtoint i8* %132 to i64
  store i64 %134, i64* %133, align 8
  %135 = getelementptr inbounds %"class.sw::SpirvShader", %"class.sw::SpirvShader"* %0, i64 0, i32 7
  %136 = getelementptr inbounds %"class.sw::SpirvShader", %"class.sw::SpirvShader"* %0, i64 0, i32 7, i32 0, i32 3
  %137 = bitcast %"class.std::__1::__compressed_pair.144"* %136 to i32*
  %138 = bitcast %"class.std::__1::unordered_map.123"* %135 to i8*
  tail call void @llvm.memset.p0i8.i64(i8* align 8 %138, i8 0, i64 32, i1 false) #15
  store i32 1065353216, i32* %137, align 4
  %139 = getelementptr inbounds %"class.sw::SpirvShader", %"class.sw::SpirvShader"* %0, i64 0, i32 8
  %140 = getelementptr inbounds %"class.sw::SpirvShader", %"class.sw::SpirvShader"* %0, i64 0, i32 8, i32 0, i32 3
  %141 = bitcast %"class.std::__1::__compressed_pair.144"* %140 to i32*
  %142 = bitcast %"class.std::__1::unordered_map.123"* %139 to i8*
  tail call void @llvm.memset.p0i8.i64(i8* align 8 %142, i8 0, i64 32, i1 false) #15
  store i32 1065353216, i32* %141, align 4
  %143 = getelementptr inbounds %"class.sw::SpirvShader", %"class.sw::SpirvShader"* %0, i64 0, i32 9, i32 0
  store i32 0, i32* %143, align 8
  %144 = getelementptr inbounds %"class.sw::SpirvShader", %"class.sw::SpirvShader"* %0, i64 0, i32 9, i32 2
  %145 = getelementptr inbounds %"class.sw::SpirvShader", %"class.sw::SpirvShader"* %0, i64 0, i32 9, i32 2, i32 0, i32 3
  %146 = bitcast %"class.std::__1::__compressed_pair.170"* %145 to i32*
  %147 = bitcast %"class.std::__1::unordered_map.150"* %144 to i8*
  tail call void @llvm.memset.p0i8.i64(i8* align 8 %147, i8 0, i64 32, i1 false) #15
  store i32 1065353216, i32* %146, align 4
  %148 = getelementptr inbounds %"class.sw::SpirvShader", %"class.sw::SpirvShader"* %0, i64 0, i32 10
  store i32 %1, i32* %148, align 8
  %149 = getelementptr inbounds %"class.sw::SpirvShader", %"class.sw::SpirvShader"* %0, i64 0, i32 11, i32 0
  %150 = load i16, i16* %149, align 4
  %151 = and i16 %150, -512
  store i16 %151, i16* %149, align 4
  %152 = getelementptr inbounds %"class.sw::SpirvShader", %"class.sw::SpirvShader"* %0, i64 0, i32 11, i32 1
  store i32 1, i32* %152, align 4
  %153 = getelementptr inbounds %"class.sw::SpirvShader", %"class.sw::SpirvShader"* %0, i64 0, i32 11, i32 2
  store i32 1, i32* %153, align 4
  %154 = getelementptr inbounds %"class.sw::SpirvShader", %"class.sw::SpirvShader"* %0, i64 0, i32 11, i32 3
  store i32 1, i32* %154, align 4
  %155 = getelementptr inbounds %"class.sw::SpirvShader", %"class.sw::SpirvShader"* %0, i64 0, i32 12, i32 0
  %156 = load i32, i32* %155, align 4
  %157 = and i32 %156, -134217728
  store i32 %157, i32* %155, align 4
  %158 = getelementptr inbounds %"class.sw::SpirvShader", %"class.sw::SpirvShader"* %0, i64 0, i32 13
  %159 = getelementptr inbounds %"class.sw::SpirvShader", %"class.sw::SpirvShader"* %0, i64 0, i32 13, i32 0, i32 3
  %160 = bitcast %"class.std::__1::__compressed_pair.194"* %159 to i32*
  %161 = bitcast %"class.std::__1::unordered_map.174"* %158 to i8*
  tail call void @llvm.memset.p0i8.i64(i8* align 8 %161, i8 0, i64 32, i1 false) #15
  store i32 1065353216, i32* %160, align 4
  %162 = getelementptr inbounds %"class.sw::SpirvShader", %"class.sw::SpirvShader"* %0, i64 0, i32 14
  %163 = getelementptr inbounds %"class.sw::SpirvShader", %"class.sw::SpirvShader"* %0, i64 0, i32 14, i32 0, i32 3
  %164 = bitcast %"class.std::__1::__compressed_pair.218"* %163 to i32*
  %165 = bitcast %"class.std::__1::unordered_map.198"* %162 to i8*
  tail call void @llvm.memset.p0i8.i64(i8* align 8 %165, i8 0, i64 32, i1 false) #15
  store i32 1065353216, i32* %164, align 4
  %166 = getelementptr inbounds %"class.sw::SpirvShader", %"class.sw::SpirvShader"* %0, i64 0, i32 15
  %167 = getelementptr inbounds %"class.sw::SpirvShader", %"class.sw::SpirvShader"* %0, i64 0, i32 15, i32 0, i32 3
  %168 = bitcast %"class.std::__1::__compressed_pair.243"* %167 to i32*
  %169 = bitcast %"class.std::__1::unordered_map.222"* %166 to i8*
  tail call void @llvm.memset.p0i8.i64(i8* align 8 %169, i8 0, i64 32, i1 false) #15
  store i32 1065353216, i32* %168, align 4
  %170 = getelementptr inbounds %"class.sw::SpirvShader", %"class.sw::SpirvShader"* %0, i64 0, i32 16
  %171 = getelementptr inbounds %"class.sw::SpirvShader", %"class.sw::SpirvShader"* %0, i64 0, i32 16, i32 0, i32 3
  %172 = bitcast %"class.std::__1::__compressed_pair.270"* %171 to i32*
  %173 = bitcast %"class.std::__1::unordered_map.249"* %170 to i8*
  tail call void @llvm.memset.p0i8.i64(i8* align 8 %173, i8 0, i64 32, i1 false) #15
  store i32 1065353216, i32* %172, align 4
  %174 = getelementptr inbounds %"class.sw::SpirvShader", %"class.sw::SpirvShader"* %0, i64 0, i32 17
  %175 = getelementptr inbounds %"class.sw::SpirvShader", %"class.sw::SpirvShader"* %0, i64 0, i32 17, i32 0, i32 3
  %176 = bitcast %"class.std::__1::__compressed_pair.297"* %175 to i32*
  %177 = bitcast %"class.std::__1::unordered_map.276"* %174 to i8*
  tail call void @llvm.memset.p0i8.i64(i8* align 8 %177, i8 0, i64 32, i1 false) #15
  store i32 1065353216, i32* %176, align 4
  %178 = getelementptr inbounds %"class.sw::SpirvShader", %"class.sw::SpirvShader"* %0, i64 0, i32 18
  %179 = getelementptr inbounds %"class.sw::SpirvShader", %"class.sw::SpirvShader"* %0, i64 0, i32 18, i32 0, i32 3
  %180 = bitcast %"class.std::__1::__compressed_pair.321"* %179 to i32*
  %181 = bitcast %"class.std::__1::unordered_set"* %178 to i8*
  tail call void @llvm.memset.p0i8.i64(i8* align 8 %181, i8 0, i64 32, i1 false) #15
  store i32 1065353216, i32* %180, align 4
  %182 = getelementptr inbounds %"class.sw::SpirvShader", %"class.sw::SpirvShader"* %0, i64 0, i32 19, i32 0
  store i32 0, i32* %182, align 4
  %183 = getelementptr inbounds %"class.sw::SpirvShader", %"class.sw::SpirvShader"* %0, i64 0, i32 20
  store i8 0, i8* %183, align 4
  %184 = getelementptr inbounds %"class.sw::SpirvShader", %"class.sw::SpirvShader"* %0, i64 0, i32 21
  store i8 %112, i8* %184, align 1
  %185 = getelementptr inbounds %"class.sw::SpirvShader", %"class.sw::SpirvShader"* %0, i64 0, i32 22
  store i32 2147483647, i32* %185, align 8
  %186 = getelementptr inbounds %"class.sw::SpirvShader", %"class.sw::SpirvShader"* %0, i64 0, i32 23, i32 0
  store %"struct.sw::SpirvShader::Impl::Debugger"* null, %"struct.sw::SpirvShader::Impl::Debugger"** %186, align 8
  %187 = getelementptr inbounds %"class.std::__1::shared_ptr", %"class.std::__1::shared_ptr"* %8, i64 0, i32 0
  %188 = load %"class.vk::dbg::Context"*, %"class.vk::dbg::Context"** %187, align 8
  %189 = icmp eq %"class.vk::dbg::Context"* %188, null
  br i1 %189, label %191, label %190

190:                                              ; preds = %131
  tail call void @_ZN2sw11SpirvShader7dbgInitERKNSt3__110shared_ptrIN2vk3dbg7ContextEEE(%"class.sw::SpirvShader"* %0, %"class.std::__1::shared_ptr"* dereferenceable(16) %8) #17
  br label %191

191:                                              ; preds = %131, %190
  %192 = icmp eq %"class.vk::RenderPass"* %5, null
  br i1 %192, label %285, label %193

193:                                              ; preds = %191
  %194 = getelementptr inbounds %"class.vk::RenderPass", %"class.vk::RenderPass"* %5, i64 0, i32 3
  %195 = load %struct.VkSubpassDescription*, %struct.VkSubpassDescription** %194, align 8
  %196 = zext i32 %6 to i64
  %197 = getelementptr inbounds %struct.VkSubpassDescription, %struct.VkSubpassDescription* %195, i64 %196, i32 2
  %198 = load i32, i32* %197, align 8
  %199 = getelementptr inbounds %struct.VkSubpassDescription, %struct.VkSubpassDescription* %195, i64 %196, i32 3
  %200 = load %struct.VkAttachmentReference*, %struct.VkAttachmentReference** %199, align 8
  %201 = zext i32 %198 to i64
  tail call void @_ZNSt3__16vectorI8VkFormatNS_9allocatorIS1_EEE7reserveEm(%"class.std::__1::vector.109"* %94, i64 %201) #14
  %202 = icmp eq i32 %198, 0
  br i1 %202, label %285, label %203

203:                                              ; preds = %193
  %204 = getelementptr inbounds %"class.vk::RenderPass", %"class.vk::RenderPass"* %5, i64 0, i32 1
  %205 = getelementptr inbounds %"class.sw::SpirvShader", %"class.sw::SpirvShader"* %0, i64 0, i32 4, i32 0, i32 1
  %206 = getelementptr inbounds %"class.sw::SpirvShader", %"class.sw::SpirvShader"* %0, i64 0, i32 4, i32 0, i32 2, i32 0, i32 0
  %207 = bitcast i32** %205 to i64*
  %208 = bitcast %"class.std::__1::vector.109"* %94 to i64*
  %209 = bitcast i32** %206 to i64*
  %210 = getelementptr inbounds %"class.std::__1::vector.109", %"class.std::__1::vector.109"* %94, i64 0, i32 0, i32 0
  br label %211

211:                                              ; preds = %282, %203
  %212 = phi i64 [ 0, %203 ], [ %283, %282 ]
  %213 = getelementptr inbounds %struct.VkAttachmentReference, %struct.VkAttachmentReference* %200, i64 %212, i32 0
  %214 = load i32, i32* %213, align 4
  %215 = icmp eq i32 %214, -1
  br i1 %215, label %221, label %216

216:                                              ; preds = %211
  %217 = load %struct.VkAttachmentDescription*, %struct.VkAttachmentDescription** %204, align 8, !noalias !2
  %218 = zext i32 %214 to i64
  %219 = getelementptr inbounds %struct.VkAttachmentDescription, %struct.VkAttachmentDescription* %217, i64 %218, i32 1
  %220 = load i32, i32* %219, align 4
  br label %221

221:                                              ; preds = %211, %216
  %222 = phi i32 [ %220, %216 ], [ 0, %211 ]
  %223 = load i32*, i32** %205, align 8
  %224 = load i32*, i32** %206, align 8
  %225 = icmp ult i32* %223, %224
  %226 = ptrtoint i32* %224 to i64
  br i1 %225, label %227, label %230

227:                                              ; preds = %221
  store i32 %222, i32* %223, align 4
  %228 = getelementptr inbounds i32, i32* %223, i64 1
  %229 = ptrtoint i32* %228 to i64
  store i64 %229, i64* %207, align 8
  br label %282

230:                                              ; preds = %221
  %231 = ptrtoint i32* %223 to i64
  %232 = load i64, i64* %208, align 8
  %233 = sub i64 %231, %232
  %234 = ashr exact i64 %233, 2
  %235 = add nsw i64 %234, 1
  %236 = icmp ugt i64 %235, 4611686018427387903
  br i1 %236, label %237, label %239

237:                                              ; preds = %230
  %238 = bitcast %"class.std::__1::vector.109"* %94 to %"class.std::__1::__vector_base_common"*
  tail call void @_ZNKSt3__120__vector_base_commonILb1EE20__throw_length_errorEv(%"class.std::__1::__vector_base_common"* %238) #18
  unreachable

239:                                              ; preds = %230
  %240 = sub i64 %226, %232
  %241 = ashr exact i64 %240, 2
  %242 = icmp ult i64 %241, 2305843009213693951
  br i1 %242, label %243, label %251

243:                                              ; preds = %239
  %244 = ashr exact i64 %240, 1
  %245 = icmp ult i64 %244, %235
  %246 = select i1 %245, i64 %235, i64 %244
  %247 = icmp eq i64 %246, 0
  br i1 %247, label %256, label %248

248:                                              ; preds = %243
  %249 = icmp ugt i64 %246, 4611686018427387903
  br i1 %249, label %250, label %251

250:                                              ; preds = %248
  tail call void @abort() #18
  unreachable

251:                                              ; preds = %248, %239
  %252 = phi i64 [ %246, %248 ], [ 4611686018427387903, %239 ]
  %253 = shl i64 %252, 2
  %254 = tail call i8* @_Znwm(i64 %253) #16
  %255 = bitcast i8* %254 to i32*
  br label %256

256:                                              ; preds = %251, %243
  %257 = phi i64 [ %252, %251 ], [ 0, %243 ]
  %258 = phi i32* [ %255, %251 ], [ null, %243 ]
  %259 = getelementptr inbounds i32, i32* %258, i64 %234
  %260 = getelementptr inbounds i32, i32* %258, i64 %257
  %261 = ptrtoint i32* %260 to i64
  store i32 %222, i32* %259, align 4
  %262 = getelementptr inbounds i32, i32* %259, i64 1
  %263 = ptrtoint i32* %262 to i64
  %264 = load i32*, i32** %210, align 8
  %265 = load i64, i64* %207, align 8
  %266 = ptrtoint i32* %264 to i64
  %267 = sub i64 %265, %266
  %268 = ashr exact i64 %267, 2
  %269 = sub nsw i64 0, %268
  %270 = getelementptr inbounds i32, i32* %259, i64 %269
  %271 = ptrtoint i32* %270 to i64
  %272 = icmp sgt i64 %267, 0
  br i1 %272, label %273, label %277

273:                                              ; preds = %256
  %274 = bitcast i32* %270 to i8*
  %275 = bitcast i32* %264 to i8*
  tail call void @llvm.memcpy.p0i8.p0i8.i64(i8* align 4 %274, i8* align 4 %275, i64 %267, i1 false) #15
  %276 = load i32*, i32** %210, align 8
  br label %277

277:                                              ; preds = %273, %256
  %278 = phi i32* [ %264, %256 ], [ %276, %273 ]
  store i64 %271, i64* %208, align 8
  store i64 %263, i64* %207, align 8
  store i64 %261, i64* %209, align 8
  %279 = icmp eq i32* %278, null
  br i1 %279, label %282, label %280

280:                                              ; preds = %277
  %281 = bitcast i32* %278 to i8*
  tail call void @_ZdlPv(i8* %281) #16
  br label %282

282:                                              ; preds = %227, %277, %280
  %283 = add nuw nsw i64 %212, 1
  %284 = icmp eq i64 %283, %201
  br i1 %284, label %285, label %211

285:                                              ; preds = %282, %193, %191
  %286 = bitcast %"class.sw::SpirvID"* %55 to i8*
  call void @llvm.lifetime.start.p0i8(i64 4, i8* nonnull %286) #15
  %287 = getelementptr inbounds %"class.sw::SpirvID", %"class.sw::SpirvID"* %55, i64 0, i32 0
  store i32 0, i32* %287, align 4
  %288 = bitcast %"class.sw::SpirvID.326"* %56 to i8*
  call void @llvm.lifetime.start.p0i8(i64 4, i8* nonnull %288) #15
  %289 = getelementptr inbounds %"class.sw::SpirvID.326", %"class.sw::SpirvID.326"* %56, i64 0, i32 0
  store i32 0, i32* %289, align 4
  %290 = getelementptr inbounds %"class.sw::SpirvShader", %"class.sw::SpirvShader"* %0, i64 0, i32 0, i32 0, i32 0
  %291 = load i32*, i32** %290, align 8
  %292 = getelementptr inbounds i32, i32* %291, i64 5
  %293 = getelementptr inbounds %"class.sw::SpirvShader", %"class.sw::SpirvShader"* %0, i64 0, i32 0, i32 0, i32 1
  %294 = load i32*, i32** %293, align 8
  %295 = icmp eq i32* %292, %294
  br i1 %295, label %441, label %296

296:                                              ; preds = %285
  %297 = bitcast %"class.sw::SpirvShader::InsnIterator"* %57 to i8*
  %298 = getelementptr inbounds %"class.sw::SpirvShader::InsnIterator", %"class.sw::SpirvShader::InsnIterator"* %57, i64 0, i32 0, i32 0
  %299 = bitcast %"class.sw::SpirvID.387"* %53 to i8*
  %300 = getelementptr inbounds %"class.sw::SpirvID.387", %"class.sw::SpirvID.387"* %53, i64 0, i32 0
  %301 = getelementptr inbounds %"class.sw::SpirvShader", %"class.sw::SpirvShader"* %0, i64 0, i32 17, i32 0
  %302 = bitcast %"class.sw::SpirvID.387"* %54 to i8*
  %303 = getelementptr inbounds %"class.sw::SpirvID.387", %"class.sw::SpirvID.387"* %54, i64 0, i32 0
  %304 = bitcast %"class.sw::SpirvID.328"* %77 to i8*
  %305 = getelementptr inbounds %"class.sw::SpirvID.328", %"class.sw::SpirvID.328"* %77, i64 0, i32 0
  %306 = bitcast %"class.sw::SpirvID.328"* %78 to i8*
  %307 = getelementptr inbounds %"class.sw::SpirvID.328", %"class.sw::SpirvID.328"* %78, i64 0, i32 0
  %308 = getelementptr inbounds %"class.std::__1::unordered_map.82", %"class.std::__1::unordered_map.82"* %90, i64 0, i32 0
  %309 = bitcast %"class.std::__1::tuple.1625"* %47 to i8*
  %310 = getelementptr inbounds %"class.std::__1::tuple.1625", %"class.std::__1::tuple.1625"* %47, i64 0, i32 0, i32 0, i32 0
  %311 = getelementptr inbounds %"class.std::__1::tuple.1554", %"class.std::__1::tuple.1554"* %48, i64 0, i32 0
  %312 = bitcast %"struct.sw::SpirvShader::Decorations"* %79 to i8*
  %313 = getelementptr inbounds %"struct.sw::SpirvShader::Decorations", %"struct.sw::SpirvShader::Decorations"* %79, i64 0, i32 0
  %314 = getelementptr inbounds %"struct.sw::SpirvShader::Decorations", %"struct.sw::SpirvShader::Decorations"* %79, i64 0, i32 1
  %315 = getelementptr inbounds %"struct.sw::SpirvShader::Decorations", %"struct.sw::SpirvShader::Decorations"* %79, i64 0, i32 2
  %316 = getelementptr inbounds %"struct.sw::SpirvShader::Decorations", %"struct.sw::SpirvShader::Decorations"* %79, i64 0, i32 6
  %317 = bitcast i32* %315 to i8*
  %318 = bitcast %"class.std::__1::tuple.1625"* %49 to i8*
  %319 = getelementptr inbounds %"class.std::__1::tuple.1625", %"class.std::__1::tuple.1625"* %49, i64 0, i32 0, i32 0, i32 0
  %320 = getelementptr inbounds %"class.std::__1::tuple.1554", %"class.std::__1::tuple.1554"* %50, i64 0, i32 0
  %321 = bitcast %"class.sw::SpirvShader::TypeOrObjectID"* %80 to i8*
  %322 = getelementptr inbounds %"class.sw::SpirvShader::TypeOrObjectID", %"class.sw::SpirvShader::TypeOrObjectID"* %80, i64 0, i32 0, i32 0
  %323 = getelementptr inbounds %"class.std::__1::unordered_map", %"class.std::__1::unordered_map"* %82, i64 0, i32 0
  %324 = bitcast %"class.std::__1::tuple.1589"* %51 to i8*
  %325 = getelementptr inbounds %"class.std::__1::tuple.1589", %"class.std::__1::tuple.1589"* %51, i64 0, i32 0, i32 0, i32 0
  %326 = getelementptr inbounds %"class.std::__1::tuple.1554", %"class.std::__1::tuple.1554"* %52, i64 0, i32 0
  %327 = bitcast i32* %75 to i8*
  %328 = bitcast i8** %76 to i8*
  %329 = bitcast i8** %76 to i32**
  %330 = getelementptr inbounds %"class.std::__1::unordered_map.249", %"class.std::__1::unordered_map.249"* %170, i64 0, i32 0
  %331 = bitcast %"class.sw::SpirvID.387"* %73 to i8*
  %332 = getelementptr inbounds %"class.sw::SpirvID.387", %"class.sw::SpirvID.387"* %73, i64 0, i32 0
  %333 = bitcast %"class.sw::SpirvShader::Extension"* %74 to i8*
  %334 = getelementptr inbounds %"class.sw::SpirvShader::Extension", %"class.sw::SpirvShader::Extension"* %74, i64 0, i32 0
  %335 = getelementptr inbounds %"class.std::__1::unordered_map.276", %"class.std::__1::unordered_map.276"* %174, i64 0, i32 0
  %336 = getelementptr inbounds %"class.std::__1::unordered_set", %"class.std::__1::unordered_set"* %178, i64 0, i32 0
  %337 = bitcast %"class.sw::SpirvID"* %72 to i8*
  %338 = getelementptr inbounds %"class.sw::SpirvID", %"class.sw::SpirvID"* %72, i64 0, i32 0
  %339 = getelementptr inbounds %"class.std::__1::unordered_map.222", %"class.std::__1::unordered_map.222"* %166, i64 0, i32 0
  %340 = bitcast %"class.std::__1::tuple.1599"* %45 to i8*
  %341 = getelementptr inbounds %"class.std::__1::tuple.1599", %"class.std::__1::tuple.1599"* %45, i64 0, i32 0, i32 0, i32 0
  %342 = getelementptr inbounds %"class.std::__1::tuple.1554", %"class.std::__1::tuple.1554"* %46, i64 0, i32 0
  %343 = bitcast %"class.sw::SpirvID.328"* %43 to i8*
  %344 = getelementptr inbounds %"class.sw::SpirvID.328", %"class.sw::SpirvID.328"* %43, i64 0, i32 0
  %345 = getelementptr inbounds %"class.sw::SpirvShader", %"class.sw::SpirvShader"* %0, i64 0, i32 14, i32 0
  %346 = bitcast %"class.sw::SpirvID.329"* %44 to i8*
  %347 = getelementptr inbounds %"class.sw::SpirvID.329", %"class.sw::SpirvID.329"* %44, i64 0, i32 0
  %348 = getelementptr inbounds %"class.sw::SpirvShader", %"class.sw::SpirvShader"* %0, i64 0, i32 13, i32 0
  %349 = bitcast %"class.sw::SpirvShader::TypeOrObjectID"* %71 to i8*
  %350 = getelementptr inbounds %"class.sw::SpirvShader::TypeOrObjectID", %"class.sw::SpirvShader::TypeOrObjectID"* %71, i64 0, i32 0, i32 0
  %351 = bitcast %"class.sw::SpirvID.329"* %42 to i8*
  %352 = getelementptr inbounds %"class.sw::SpirvID.329", %"class.sw::SpirvID.329"* %42, i64 0, i32 0
  %353 = bitcast %"class.sw::SpirvID.328"* %70 to i8*
  %354 = getelementptr inbounds %"class.sw::SpirvID.328", %"class.sw::SpirvID.328"* %70, i64 0, i32 0
  %355 = getelementptr inbounds %"class.std::__1::unordered_map.198", %"class.std::__1::unordered_map.198"* %162, i64 0, i32 0
  %356 = bitcast %"class.std::__1::tuple.1625"* %36 to i8*
  %357 = getelementptr inbounds %"class.std::__1::tuple.1625", %"class.std::__1::tuple.1625"* %36, i64 0, i32 0, i32 0, i32 0
  %358 = getelementptr inbounds %"class.std::__1::tuple.1554", %"class.std::__1::tuple.1554"* %37, i64 0, i32 0
  %359 = bitcast %"class.sw::SpirvShader::InsnIterator"* %57 to i64*
  %360 = bitcast %"class.sw::SpirvID.329"* %38 to i8*
  %361 = getelementptr inbounds %"class.sw::SpirvID.329", %"class.sw::SpirvID.329"* %38, i64 0, i32 0
  %362 = bitcast %"class.sw::SpirvID.329"* %39 to i8*
  %363 = getelementptr inbounds %"class.sw::SpirvID.329", %"class.sw::SpirvID.329"* %39, i64 0, i32 0
  %364 = bitcast %"class.sw::SpirvID.328"* %40 to i8*
  %365 = getelementptr inbounds %"class.sw::SpirvID.328", %"class.sw::SpirvID.328"* %40, i64 0, i32 0
  %366 = bitcast i32* %41 to i8*
  %367 = getelementptr inbounds %"class.sw::SpirvShader", %"class.sw::SpirvShader"* %0, i64 0, i32 9, i32 2, i32 0
  %368 = bitcast %"class.sw::SpirvShader::Block"* %69 to i8*
  %369 = bitcast %"class.std::__1::tuple.1599"* %28 to i8*
  %370 = getelementptr inbounds %"class.std::__1::tuple.1599", %"class.std::__1::tuple.1599"* %28, i64 0, i32 0, i32 0, i32 0
  %371 = getelementptr inbounds %"class.std::__1::tuple.1554", %"class.std::__1::tuple.1554"* %29, i64 0, i32 0
  %372 = bitcast %"class.std::__1::tuple.1612"* %32 to i8*
  %373 = getelementptr inbounds %"class.std::__1::tuple.1612", %"class.std::__1::tuple.1612"* %32, i64 0, i32 0, i32 0, i32 0
  %374 = getelementptr inbounds %"class.std::__1::tuple.1554", %"class.std::__1::tuple.1554"* %33, i64 0, i32 0
  %375 = getelementptr inbounds %"class.sw::SpirvShader::Block", %"class.sw::SpirvShader::Block"* %69, i64 0, i32 5, i32 0, i32 3, i32 0, i32 0
  %376 = bitcast float* %375 to i32*
  %377 = getelementptr inbounds %"class.sw::SpirvShader::Block", %"class.sw::SpirvShader::Block"* %69, i64 0, i32 5, i32 0, i32 1, i32 0, i32 0, i32 0
  %378 = getelementptr inbounds %"class.sw::SpirvShader::Block", %"class.sw::SpirvShader::Block"* %69, i64 0, i32 6, i32 0, i32 3, i32 0, i32 0
  %379 = bitcast float* %378 to i32*
  %380 = getelementptr inbounds %"class.sw::SpirvShader::Block", %"class.sw::SpirvShader::Block"* %69, i64 0, i32 6, i32 0, i32 1, i32 0, i32 0, i32 0
  %381 = getelementptr inbounds %"class.sw::SpirvShader::Block", %"class.sw::SpirvShader::Block"* %69, i64 0, i32 7
  %382 = getelementptr inbounds %"class.sw::SpirvShader::Block", %"class.sw::SpirvShader::Block"* %69, i64 0, i32 6, i32 0
  %383 = getelementptr inbounds %"class.sw::SpirvShader::Block", %"class.sw::SpirvShader::Block"* %69, i64 0, i32 5, i32 0
  %384 = bitcast %"class.sw::SpirvShader::TypeOrObjectID"* %67 to i8*
  %385 = getelementptr inbounds %"class.sw::SpirvShader::TypeOrObjectID", %"class.sw::SpirvShader::TypeOrObjectID"* %67, i64 0, i32 0, i32 0
  %386 = bitcast %"class.std::__1::tuple.1589"* %20 to i8*
  %387 = getelementptr inbounds %"class.std::__1::tuple.1589", %"class.std::__1::tuple.1589"* %20, i64 0, i32 0, i32 0, i32 0
  %388 = getelementptr inbounds %"class.std::__1::tuple.1554", %"class.std::__1::tuple.1554"* %21, i64 0, i32 0
  %389 = bitcast %"class.sw::SpirvID.329"* %68 to i8*
  %390 = getelementptr inbounds %"class.sw::SpirvID.329", %"class.sw::SpirvID.329"* %68, i64 0, i32 0
  %391 = getelementptr inbounds %"class.std::__1::unordered_map.55", %"class.std::__1::unordered_map.55"* %86, i64 0, i32 0
  %392 = bitcast %"class.std::__1::tuple.1593"* %22 to i8*
  %393 = getelementptr inbounds %"class.std::__1::tuple.1593", %"class.std::__1::tuple.1593"* %22, i64 0, i32 0, i32 0, i32 0
  %394 = getelementptr inbounds %"class.std::__1::tuple.1554", %"class.std::__1::tuple.1554"* %23, i64 0, i32 0
  %395 = bitcast %"class.sw::SpirvShader::TypeOrObjectID"* %63 to i8*
  %396 = getelementptr inbounds %"class.sw::SpirvShader::TypeOrObjectID", %"class.sw::SpirvShader::TypeOrObjectID"* %63, i64 0, i32 0, i32 0
  %397 = bitcast %"class.std::__1::tuple.1589"* %10 to i8*
  %398 = getelementptr inbounds %"class.std::__1::tuple.1589", %"class.std::__1::tuple.1589"* %10, i64 0, i32 0, i32 0, i32 0
  %399 = getelementptr inbounds %"class.std::__1::tuple.1554", %"class.std::__1::tuple.1554"* %11, i64 0, i32 0
  %400 = bitcast %"class.sw::SpirvID.328"* %64 to i8*
  %401 = getelementptr inbounds %"class.sw::SpirvID.328", %"class.sw::SpirvID.328"* %64, i64 0, i32 0
  %402 = bitcast %"class.std::__1::tuple.1564"* %12 to i8*
  %403 = getelementptr inbounds %"class.std::__1::tuple.1564", %"class.std::__1::tuple.1564"* %12, i64 0, i32 0, i32 0, i32 0
  %404 = getelementptr inbounds %"class.std::__1::tuple.1554", %"class.std::__1::tuple.1554"* %13, i64 0, i32 0
  %405 = bitcast %"class.sw::SpirvShader::TypeOrObjectID"* %65 to i8*
  %406 = getelementptr inbounds %"class.sw::SpirvShader::TypeOrObjectID", %"class.sw::SpirvShader::TypeOrObjectID"* %65, i64 0, i32 0, i32 0
  %407 = bitcast %"class.std::__1::tuple.1589"* %16 to i8*
  %408 = getelementptr inbounds %"class.std::__1::tuple.1589", %"class.std::__1::tuple.1589"* %16, i64 0, i32 0, i32 0, i32 0
  %409 = getelementptr inbounds %"class.std::__1::tuple.1554", %"class.std::__1::tuple.1554"* %17, i64 0, i32 0
  %410 = bitcast %"class.sw::SpirvID.328"* %66 to i8*
  %411 = getelementptr inbounds %"class.sw::SpirvID.328", %"class.sw::SpirvID.328"* %66, i64 0, i32 0
  %412 = bitcast %"class.std::__1::tuple.1564"* %18 to i8*
  %413 = getelementptr inbounds %"class.std::__1::tuple.1564", %"class.std::__1::tuple.1564"* %18, i64 0, i32 0, i32 0, i32 0
  %414 = getelementptr inbounds %"class.std::__1::tuple.1554", %"class.std::__1::tuple.1554"* %19, i64 0, i32 0
  %415 = bitcast %"class.sw::SpirvID.329"* %62 to i8*
  %416 = getelementptr inbounds %"class.sw::SpirvID.329", %"class.sw::SpirvID.329"* %62, i64 0, i32 0
  %417 = bitcast %"class.std::__1::tuple.1576"* %14 to i8*
  %418 = getelementptr inbounds %"class.std::__1::tuple.1576", %"class.std::__1::tuple.1576"* %14, i64 0, i32 0, i32 0, i32 0
  %419 = getelementptr inbounds %"class.std::__1::tuple.1554", %"class.std::__1::tuple.1554"* %15, i64 0, i32 0
  %420 = bitcast %"class.sw::SpirvShader::TypeOrObjectID"* %58 to i8*
  %421 = getelementptr inbounds %"class.sw::SpirvShader::TypeOrObjectID", %"class.sw::SpirvShader::TypeOrObjectID"* %58, i64 0, i32 0, i32 0
  %422 = bitcast %"class.std::__1::tuple.1551"* %34 to i8*
  %423 = getelementptr inbounds %"class.std::__1::tuple.1551", %"class.std::__1::tuple.1551"* %34, i64 0, i32 0, i32 0, i32 0
  %424 = getelementptr inbounds %"class.std::__1::tuple.1554", %"class.std::__1::tuple.1554"* %35, i64 0, i32 0
  %425 = bitcast %"class.sw::SpirvID.328"* %61 to i8*
  %426 = getelementptr inbounds %"class.sw::SpirvID.328", %"class.sw::SpirvID.328"* %61, i64 0, i32 0
  %427 = bitcast %"class.std::__1::tuple.1564"* %24 to i8*
  %428 = getelementptr inbounds %"class.std::__1::tuple.1564", %"class.std::__1::tuple.1564"* %24, i64 0, i32 0, i32 0, i32 0
  %429 = getelementptr inbounds %"class.std::__1::tuple.1554", %"class.std::__1::tuple.1554"* %25, i64 0, i32 0
  %430 = bitcast %"class.sw::SpirvID.328"* %60 to i8*
  %431 = getelementptr inbounds %"class.sw::SpirvID.328", %"class.sw::SpirvID.328"* %60, i64 0, i32 0
  %432 = bitcast %"class.std::__1::tuple.1564"* %26 to i8*
  %433 = getelementptr inbounds %"class.std::__1::tuple.1564", %"class.std::__1::tuple.1564"* %26, i64 0, i32 0, i32 0, i32 0
  %434 = getelementptr inbounds %"class.std::__1::tuple.1554", %"class.std::__1::tuple.1554"* %27, i64 0, i32 0
  %435 = bitcast %"class.sw::SpirvID.328"* %59 to i8*
  %436 = getelementptr inbounds %"class.sw::SpirvID.328", %"class.sw::SpirvID.328"* %59, i64 0, i32 0
  %437 = bitcast %"class.std::__1::tuple.1564"* %30 to i8*
  %438 = getelementptr inbounds %"class.std::__1::tuple.1564", %"class.std::__1::tuple.1564"* %30, i64 0, i32 0, i32 0, i32 0
  %439 = getelementptr inbounds %"class.std::__1::tuple.1554", %"class.std::__1::tuple.1554"* %31, i64 0, i32 0
  %440 = bitcast %"struct.sw::SpirvShader::Decorations"* %79 to i8*
  br label %446

441:                                              ; preds = %1094, %285
  %442 = getelementptr inbounds %"class.sw::SpirvShader", %"class.sw::SpirvShader"* %0, i64 0, i32 15, i32 0, i32 1, i32 0, i32 0, i32 0
  %443 = bitcast %"struct.std::__1::__hash_node_base.227"** %442 to i64*
  %444 = load i64, i64* %443, align 8
  %445 = icmp eq i64 %444, 0
  br i1 %445, label %1101, label %1102

446:                                              ; preds = %296, %1094
  %447 = phi i64 [ 0, %296 ], [ %1095, %1094 ]
  %448 = phi i32* [ %292, %296 ], [ %1099, %1094 ]
  call void @llvm.lifetime.start.p0i8(i64 8, i8* nonnull %297) #15
  store i32* %448, i32** %298, align 8
  %449 = load i32, i32* %448, align 4
  %450 = and i32 %449, 65535
  %451 = trunc i32 %449 to i16
  switch i16 %451, label %1092 [
    i16 15, label %452
    i16 16, label %465
    i16 71, label %466
    i16 72, label %510
    i16 332, label %1094
    i16 5632, label %1094
    i16 5633, label %1094
    i16 73, label %1094
    i16 74, label %552
    i16 75, label %608
    i16 248, label %657
    i16 249, label %661
    i16 250, label %661
    i16 251, label %661
    i16 253, label %661
    i16 252, label %661
    i16 255, label %661
    i16 246, label %1094
    i16 247, label %1094
    i16 19, label %696
    i16 20, label %696
    i16 21, label %696
    i16 22, label %696
    i16 23, label %696
    i16 24, label %696
    i16 25, label %696
    i16 26, label %696
    i16 27, label %696
    i16 28, label %696
    i16 29, label %696
    i16 30, label %696
    i16 32, label %696
    i16 33, label %696
    i16 59, label %697
    i16 43, label %736
    i16 50, label %736
    i16 42, label %742
    i16 49, label %742
    i16 41, label %746
    i16 48, label %746
    i16 46, label %750
    i16 1, label %750
    i16 44, label %772
    i16 51, label %772
    i16 52, label %848
    i16 17, label %849
    i16 14, label %1094
    i16 54, label %934
    i16 56, label %966
    i16 11, label %967
    i16 5, label %1094
    i16 6, label %1094
    i16 3, label %1094
    i16 2, label %1094
    i16 4, label %1094
    i16 8, label %1094
    i16 317, label %1094
    i16 330, label %1094
    i16 7, label %990
    i16 55, label %995
    i16 57, label %1094
    i16 115, label %997
    i16 114, label %998
    i16 113, label %999
    i16 61, label %1000
    i16 65, label %1000
    i16 66, label %1000
    i16 86, label %1000
    i16 100, label %1000
    i16 80, label %1042
    i16 82, label %1042
    i16 81, label %1042
    i16 79, label %1042
    i16 142, label %1042
    i16 143, label %1042
    i16 145, label %1042
    i16 144, label %1042
    i16 146, label %1042
    i16 147, label %1042
    i16 84, label %1042
    i16 77, label %1042
    i16 78, label %1042
    i16 200, label %1042
    i16 201, label %1042
    i16 202, label %1042
    i16 203, label %1042
    i16 204, label %1042
    i16 205, label %1042
    i16 126, label %1042
    i16 127, label %1042
    i16 168, label %1042
    i16 116, label %1042
    i16 128, label %1042
    i16 130, label %1042
    i16 132, label %1042
    i16 135, label %1042
    i16 134, label %1042
    i16 129, label %1042
    i16 131, label %1042
    i16 133, label %1042
    i16 136, label %1042
    i16 141, label %1042
    i16 140, label %1042
    i16 180, label %1042
    i16 181, label %1042
    i16 182, label %1042
    i16 183, label %1042
    i16 184, label %1042
    i16 185, label %1042
    i16 186, label %1042
    i16 187, label %1042
    i16 188, label %1042
    i16 189, label %1042
    i16 190, label %1042
    i16 191, label %1042
    i16 139, label %1042
    i16 138, label %1042
    i16 137, label %1042
    i16 170, label %1042
    i16 171, label %1042
    i16 172, label %1042
    i16 173, label %1042
    i16 174, label %1042
    i16 175, label %1042
    i16 176, label %1042
    i16 177, label %1042
    i16 178, label %1042
    i16 179, label %1042
    i16 194, label %1042
    i16 195, label %1042
    i16 196, label %1042
    i16 197, label %1042
    i16 198, label %1042
    i16 199, label %1042
    i16 166, label %1042
    i16 167, label %1042
    i16 164, label %1042
    i16 165, label %1042
    i16 151, label %1042
    i16 152, label %1042
    i16 149, label %1042
    i16 150, label %1042
    i16 148, label %1042
    i16 109, label %1042
    i16 110, label %1042
    i16 111, label %1042
    i16 112, label %1042
    i16 124, label %1042
    i16 169, label %1042
    i16 157, label %1042
    i16 156, label %1042
    i16 154, label %1042
    i16 155, label %1042
    i16 207, label %1042
    i16 213, label %1042
    i16 208, label %1042
    i16 214, label %1042
    i16 209, label %1042
    i16 215, label %1042
    i16 210, label %1042
    i16 211, label %1042
    i16 212, label %1042
    i16 227, label %1042
    i16 234, label %1042
    i16 235, label %1042
    i16 236, label %1042
    i16 238, label %1042
    i16 237, label %1042
    i16 239, label %1042
    i16 240, label %1042
    i16 241, label %1042
    i16 242, label %1042
    i16 232, label %1042
    i16 233, label %1042
    i16 229, label %1042
    i16 230, label %1042
    i16 245, label %1042
    i16 87, label %1042
    i16 88, label %1042
    i16 89, label %1042
    i16 90, label %1042
    i16 91, label %1042
    i16 92, label %1042
    i16 93, label %1042
    i16 94, label %1042
    i16 96, label %1042
    i16 97, label %1042
    i16 95, label %1042
    i16 103, label %1042
    i16 104, label %1042
    i16 105, label %1042
    i16 106, label %1042
    i16 107, label %1042
    i16 98, label %1042
    i16 60, label %1042
    i16 333, label %1042
    i16 334, label %1042
    i16 335, label %1042
    i16 336, label %1042
    i16 337, label %1042
    i16 338, label %1042
    i16 339, label %1042
    i16 340, label %1042
    i16 341, label %1042
    i16 342, label %1042
    i16 343, label %1042
    i16 344, label %1042
    i16 345, label %1042
    i16 346, label %1042
    i16 347, label %1042
    i16 348, label %1042
    i16 349, label %1042
    i16 350, label %1042
    i16 351, label %1042
    i16 352, label %1042
    i16 353, label %1042
    i16 354, label %1042
    i16 355, label %1042
    i16 356, label %1042
    i16 357, label %1042
    i16 358, label %1042
    i16 359, label %1042
    i16 360, label %1042
    i16 361, label %1042
    i16 362, label %1042
    i16 363, label %1042
    i16 364, label %1042
    i16 83, label %1042
    i16 400, label %1042
    i16 68, label %1042
    i16 12, label %1043
    i16 62, label %1094
    i16 228, label %1094
    i16 99, label %1094
    i16 63, label %1094
    i16 225, label %1094
    i16 224, label %1062
    i16 10, label %1065
  ]

452:                                              ; preds = %446
  %453 = getelementptr inbounds i32, i32* %448, i64 1
  %454 = load i32, i32* %453, align 4
  store i32 %454, i32* %185, align 8
  %455 = getelementptr inbounds i32, i32* %448, i64 2
  %456 = load i32, i32* %455, align 4
  %457 = call i32 @_ZN2sw11SpirvShader21executionModelToStageEN3spv14ExecutionModelE(i32 %454) #14
  %458 = icmp eq i32 %457, %2
  br i1 %458, label %459, label %1094

459:                                              ; preds = %452
  %460 = getelementptr inbounds i32, i32* %448, i64 3
  %461 = bitcast i32* %460 to i8*
  %462 = call i32 @strcmp(i8* %461, i8* %3) #19
  %463 = icmp eq i32 %462, 0
  br i1 %463, label %464, label %1094

464:                                              ; preds = %459
  store i32 %456, i32* %182, align 8
  br label %1094

465:                                              ; preds = %446
  call void @_ZN2sw11SpirvShader20ProcessExecutionModeENS0_12InsnIteratorE(%"class.sw::SpirvShader"* %0, i32* %448) #14
  br label %1094

466:                                              ; preds = %446
  call void @llvm.lifetime.start.p0i8(i64 4, i8* nonnull %420) #15
  %467 = getelementptr inbounds i32, i32* %448, i64 1
  %468 = load i32, i32* %467, align 4
  store i32 %468, i32* %421, align 4
  %469 = getelementptr inbounds i32, i32* %448, i64 2
  %470 = load i32, i32* %469, align 4
  %471 = load i32, i32* %448, align 4
  %472 = icmp ugt i32 %471, 262143
  br i1 %472, label %473, label %476

473:                                              ; preds = %466
  %474 = getelementptr inbounds i32, i32* %448, i64 3
  %475 = load i32, i32* %474, align 4
  br label %476

476:                                              ; preds = %466, %473
  %477 = phi i32 [ %475, %473 ], [ 0, %466 ]
  call void @llvm.lifetime.start.p0i8(i64 8, i8* nonnull %422) #15
  store %"class.sw::SpirvShader::TypeOrObjectID"* %58, %"class.sw::SpirvShader::TypeOrObjectID"** %423, align 8
  call void @llvm.lifetime.start.p0i8(i64 1, i8* nonnull %424) #15
  %478 = call { %"struct.std::__1::__hash_node_base"*, i8 } @_ZNSt3__112__hash_tableINS_17__hash_value_typeIN2sw11SpirvShader14TypeOrObjectIDENS3_11DecorationsEEENS_22__unordered_map_hasherIS4_S6_NS_4hashINS2_7SpirvIDINS3_12TypeOrObjectEEEEENS_8equal_toIS4_EELb1EEENS_21__unordered_map_equalIS4_S6_SE_SC_Lb1EEENS_9allocatorIS6_EEE25__emplace_unique_key_argsIS4_JRKNS_21piecewise_construct_tENS_5tupleIJRKS4_EEENSP_IJEEEEEENS_4pairINS_15__hash_iteratorIPNS_11__hash_nodeIS6_PvEEEEbEERKT_DpOT0_(%"class.std::__1::__hash_table"* %323, %"class.sw::SpirvShader::TypeOrObjectID"* nonnull dereferenceable(4) %58, %"struct.std::__1::piecewise_construct_t"* nonnull dereferenceable(1) @_ZNSt3__1L19piecewise_constructE, %"class.std::__1::tuple.1551"* nonnull dereferenceable(8) %34, %"class.std::__1::tuple.1554"* nonnull dereferenceable(1) %35) #17
  %479 = extractvalue { %"struct.std::__1::__hash_node_base"*, i8 } %478, 0
  %480 = getelementptr inbounds %"struct.std::__1::__hash_node_base", %"struct.std::__1::__hash_node_base"* %479, i64 2
  %481 = bitcast %"struct.std::__1::__hash_node_base"* %480 to %"struct.std::__1::pair"*
  %482 = getelementptr inbounds %"struct.std::__1::pair", %"struct.std::__1::pair"* %481, i64 0, i32 1
  call void @llvm.lifetime.end.p0i8(i64 1, i8* nonnull %424) #15
  call void @llvm.lifetime.end.p0i8(i64 8, i8* nonnull %422) #15
  call void @_ZN2sw11SpirvShader11Decorations5ApplyEN3spv10DecorationEj(%"struct.sw::SpirvShader::Decorations"* %482, i32 %470, i32 %477) #14
  switch i32 %470, label %509 [
    i32 34, label %483
    i32 33, label %490
    i32 43, label %496
    i32 17, label %503
    i32 16, label %506
  ]

483:                                              ; preds = %476
  call void @llvm.lifetime.start.p0i8(i64 4, i8* nonnull %435) #15
  %484 = load i32, i32* %421, align 4
  store i32 %484, i32* %436, align 4
  call void @llvm.lifetime.start.p0i8(i64 8, i8* nonnull %437) #15
  store %"class.sw::SpirvID.328"* %59, %"class.sw::SpirvID.328"** %438, align 8
  call void @llvm.lifetime.start.p0i8(i64 1, i8* nonnull %439) #15
  %485 = call { %"struct.std::__1::__hash_node_base.87"*, i8 } @_ZNSt3__112__hash_tableINS_17__hash_value_typeIN2sw7SpirvIDINS2_11SpirvShader6ObjectEEENS4_21DescriptorDecorationsEEENS_22__unordered_map_hasherIS6_S8_NS_4hashIS6_EENS_8equal_toIS6_EELb1EEENS_21__unordered_map_equalIS6_S8_SD_SB_Lb1EEENS_9allocatorIS8_EEE25__emplace_unique_key_argsIS6_JRKNS_21piecewise_construct_tENS_5tupleIJOS6_EEENSO_IJEEEEEENS_4pairINS_15__hash_iteratorIPNS_11__hash_nodeIS8_PvEEEEbEERKT_DpOT0_(%"class.std::__1::__hash_table.83"* %308, %"class.sw::SpirvID.328"* nonnull dereferenceable(4) %59, %"struct.std::__1::piecewise_construct_t"* nonnull dereferenceable(1) @_ZNSt3__1L19piecewise_constructE, %"class.std::__1::tuple.1564"* nonnull dereferenceable(8) %30, %"class.std::__1::tuple.1554"* nonnull dereferenceable(1) %31) #17
  %486 = extractvalue { %"struct.std::__1::__hash_node_base.87"*, i8 } %485, 0
  %487 = getelementptr inbounds %"struct.std::__1::__hash_node_base.87", %"struct.std::__1::__hash_node_base.87"* %486, i64 2
  %488 = bitcast %"struct.std::__1::__hash_node_base.87"* %487 to %"struct.std::__1::pair.400"*
  call void @llvm.lifetime.end.p0i8(i64 1, i8* nonnull %439) #15
  call void @llvm.lifetime.end.p0i8(i64 8, i8* nonnull %437) #15
  %489 = getelementptr inbounds %"struct.std::__1::pair.400", %"struct.std::__1::pair.400"* %488, i64 0, i32 1, i32 0
  store i32 %477, i32* %489, align 4
  call void @llvm.lifetime.end.p0i8(i64 4, i8* nonnull %435) #15
  br label %509

490:                                              ; preds = %476
  call void @llvm.lifetime.start.p0i8(i64 4, i8* nonnull %430) #15
  %491 = load i32, i32* %421, align 4
  store i32 %491, i32* %431, align 4
  call void @llvm.lifetime.start.p0i8(i64 8, i8* nonnull %432) #15
  store %"class.sw::SpirvID.328"* %60, %"class.sw::SpirvID.328"** %433, align 8
  call void @llvm.lifetime.start.p0i8(i64 1, i8* nonnull %434) #15
  %492 = call { %"struct.std::__1::__hash_node_base.87"*, i8 } @_ZNSt3__112__hash_tableINS_17__hash_value_typeIN2sw7SpirvIDINS2_11SpirvShader6ObjectEEENS4_21DescriptorDecorationsEEENS_22__unordered_map_hasherIS6_S8_NS_4hashIS6_EENS_8equal_toIS6_EELb1EEENS_21__unordered_map_equalIS6_S8_SD_SB_Lb1EEENS_9allocatorIS8_EEE25__emplace_unique_key_argsIS6_JRKNS_21piecewise_construct_tENS_5tupleIJOS6_EEENSO_IJEEEEEENS_4pairINS_15__hash_iteratorIPNS_11__hash_nodeIS8_PvEEEEbEERKT_DpOT0_(%"class.std::__1::__hash_table.83"* %308, %"class.sw::SpirvID.328"* nonnull dereferenceable(4) %60, %"struct.std::__1::piecewise_construct_t"* nonnull dereferenceable(1) @_ZNSt3__1L19piecewise_constructE, %"class.std::__1::tuple.1564"* nonnull dereferenceable(8) %26, %"class.std::__1::tuple.1554"* nonnull dereferenceable(1) %27) #17
  %493 = extractvalue { %"struct.std::__1::__hash_node_base.87"*, i8 } %492, 0
  call void @llvm.lifetime.end.p0i8(i64 1, i8* nonnull %434) #15
  call void @llvm.lifetime.end.p0i8(i64 8, i8* nonnull %432) #15
  %494 = getelementptr inbounds %"struct.std::__1::__hash_node_base.87", %"struct.std::__1::__hash_node_base.87"* %493, i64 3
  %495 = bitcast %"struct.std::__1::__hash_node_base.87"* %494 to i32*
  store i32 %477, i32* %495, align 4
  call void @llvm.lifetime.end.p0i8(i64 4, i8* nonnull %430) #15
  br label %509

496:                                              ; preds = %476
  call void @llvm.lifetime.start.p0i8(i64 4, i8* nonnull %425) #15
  %497 = load i32, i32* %421, align 4
  store i32 %497, i32* %426, align 4
  call void @llvm.lifetime.start.p0i8(i64 8, i8* nonnull %427) #15
  store %"class.sw::SpirvID.328"* %61, %"class.sw::SpirvID.328"** %428, align 8
  call void @llvm.lifetime.start.p0i8(i64 1, i8* nonnull %429) #15
  %498 = call { %"struct.std::__1::__hash_node_base.87"*, i8 } @_ZNSt3__112__hash_tableINS_17__hash_value_typeIN2sw7SpirvIDINS2_11SpirvShader6ObjectEEENS4_21DescriptorDecorationsEEENS_22__unordered_map_hasherIS6_S8_NS_4hashIS6_EENS_8equal_toIS6_EELb1EEENS_21__unordered_map_equalIS6_S8_SD_SB_Lb1EEENS_9allocatorIS8_EEE25__emplace_unique_key_argsIS6_JRKNS_21piecewise_construct_tENS_5tupleIJOS6_EEENSO_IJEEEEEENS_4pairINS_15__hash_iteratorIPNS_11__hash_nodeIS8_PvEEEEbEERKT_DpOT0_(%"class.std::__1::__hash_table.83"* %308, %"class.sw::SpirvID.328"* nonnull dereferenceable(4) %61, %"struct.std::__1::piecewise_construct_t"* nonnull dereferenceable(1) @_ZNSt3__1L19piecewise_constructE, %"class.std::__1::tuple.1564"* nonnull dereferenceable(8) %24, %"class.std::__1::tuple.1554"* nonnull dereferenceable(1) %25) #17
  %499 = extractvalue { %"struct.std::__1::__hash_node_base.87"*, i8 } %498, 0
  %500 = getelementptr inbounds %"struct.std::__1::__hash_node_base.87", %"struct.std::__1::__hash_node_base.87"* %499, i64 2
  %501 = bitcast %"struct.std::__1::__hash_node_base.87"* %500 to %"struct.std::__1::pair.400"*
  call void @llvm.lifetime.end.p0i8(i64 1, i8* nonnull %429) #15
  call void @llvm.lifetime.end.p0i8(i64 8, i8* nonnull %427) #15
  %502 = getelementptr inbounds %"struct.std::__1::pair.400", %"struct.std::__1::pair.400"* %501, i64 0, i32 1, i32 2
  store i32 %477, i32* %502, align 4
  call void @llvm.lifetime.end.p0i8(i64 4, i8* nonnull %425) #15
  br label %509

503:                                              ; preds = %476
  %504 = load i16, i16* %149, align 4
  %505 = or i16 %504, 256
  store i16 %505, i16* %149, align 4
  br label %509

506:                                              ; preds = %476
  %507 = load i16, i16* %149, align 4
  %508 = or i16 %507, 128
  store i16 %508, i16* %149, align 4
  br label %509

509:                                              ; preds = %483, %490, %496, %503, %476, %506
  call void @llvm.lifetime.end.p0i8(i64 4, i8* nonnull %420) #15
  br label %1094

510:                                              ; preds = %446
  call void @llvm.lifetime.start.p0i8(i64 4, i8* nonnull %415) #15
  %511 = getelementptr inbounds i32, i32* %448, i64 1
  %512 = load i32, i32* %511, align 4
  store i32 %512, i32* %416, align 4
  %513 = getelementptr inbounds i32, i32* %448, i64 2
  %514 = load i32, i32* %513, align 4
  %515 = getelementptr inbounds i32, i32* %448, i64 3
  %516 = load i32, i32* %515, align 4
  %517 = load i32, i32* %448, align 4
  %518 = icmp ugt i32 %517, 327679
  br i1 %518, label %519, label %522

519:                                              ; preds = %510
  %520 = getelementptr inbounds i32, i32* %448, i64 4
  %521 = load i32, i32* %520, align 4
  br label %522

522:                                              ; preds = %510, %519
  %523 = phi i32 [ %521, %519 ], [ 0, %510 ]
  call void @llvm.lifetime.start.p0i8(i64 8, i8* nonnull %417) #15
  store %"class.sw::SpirvID.329"* %62, %"class.sw::SpirvID.329"** %418, align 8
  call void @llvm.lifetime.start.p0i8(i64 1, i8* nonnull %419) #15
  %524 = call { %"struct.std::__1::__hash_node_base.60"*, i8 } @_ZNSt3__112__hash_tableINS_17__hash_value_typeIN2sw7SpirvIDINS2_11SpirvShader4TypeEEENS_6vectorINS4_11DecorationsENS_9allocatorIS8_EEEEEENS_22__unordered_map_hasherIS6_SC_NS_4hashIS6_EENS_8equal_toIS6_EELb1EEENS_21__unordered_map_equalIS6_SC_SH_SF_Lb1EEENS9_ISC_EEE25__emplace_unique_key_argsIS6_JRKNS_21piecewise_construct_tENS_5tupleIJRKS6_EEENSR_IJEEEEEENS_4pairINS_15__hash_iteratorIPNS_11__hash_nodeISC_PvEEEEbEERKT_DpOT0_(%"class.std::__1::__hash_table.56"* %391, %"class.sw::SpirvID.329"* nonnull dereferenceable(4) %62, %"struct.std::__1::piecewise_construct_t"* nonnull dereferenceable(1) @_ZNSt3__1L19piecewise_constructE, %"class.std::__1::tuple.1576"* nonnull dereferenceable(8) %14, %"class.std::__1::tuple.1554"* nonnull dereferenceable(1) %15) #17
  %525 = extractvalue { %"struct.std::__1::__hash_node_base.60"*, i8 } %524, 0
  %526 = getelementptr inbounds %"struct.std::__1::__hash_node_base.60", %"struct.std::__1::__hash_node_base.60"* %525, i64 3
  call void @llvm.lifetime.end.p0i8(i64 1, i8* nonnull %419) #15
  call void @llvm.lifetime.end.p0i8(i64 8, i8* nonnull %417) #15
  %527 = zext i32 %514 to i64
  %528 = getelementptr inbounds %"struct.std::__1::__hash_node_base.60", %"struct.std::__1::__hash_node_base.60"* %525, i64 4
  %529 = bitcast %"struct.std::__1::__hash_node_base.60"* %528 to i64*
  %530 = load i64, i64* %529, align 8
  %531 = bitcast %"struct.std::__1::__hash_node_base.60"* %526 to i64*
  %532 = load i64, i64* %531, align 8
  %533 = sub i64 %530, %532
  %534 = sdiv exact i64 %533, 28
  %535 = icmp ugt i64 %534, %527
  br i1 %535, label %536, label %538

536:                                              ; preds = %522
  %537 = inttoptr i64 %532 to %"struct.sw::SpirvShader::Decorations"*
  br label %544

538:                                              ; preds = %522
  %539 = bitcast %"struct.std::__1::__hash_node_base.60"* %526 to %"class.std::__1::vector.330"*
  %540 = add i32 %514, 1
  %541 = zext i32 %540 to i64
  call void @_ZNSt3__16vectorIN2sw11SpirvShader11DecorationsENS_9allocatorIS3_EEE6resizeEm(%"class.std::__1::vector.330"* %539, i64 %541) #14
  %542 = bitcast %"struct.std::__1::__hash_node_base.60"* %526 to %"struct.sw::SpirvShader::Decorations"**
  %543 = load %"struct.sw::SpirvShader::Decorations"*, %"struct.sw::SpirvShader::Decorations"** %542, align 8
  br label %544

544:                                              ; preds = %536, %538
  %545 = phi %"struct.sw::SpirvShader::Decorations"* [ %537, %536 ], [ %543, %538 ]
  %546 = getelementptr inbounds %"struct.sw::SpirvShader::Decorations", %"struct.sw::SpirvShader::Decorations"* %545, i64 %527
  call void @_ZN2sw11SpirvShader11Decorations5ApplyEN3spv10DecorationEj(%"struct.sw::SpirvShader::Decorations"* %546, i32 %516, i32 %523) #14
  %547 = icmp eq i32 %516, 16
  br i1 %547, label %548, label %551

548:                                              ; preds = %544
  %549 = load i16, i16* %149, align 4
  %550 = or i16 %549, 128
  store i16 %550, i16* %149, align 4
  br label %551

551:                                              ; preds = %548, %544
  call void @llvm.lifetime.end.p0i8(i64 4, i8* nonnull %415) #15
  br label %1094

552:                                              ; preds = %446
  %553 = getelementptr inbounds i32, i32* %448, i64 1
  %554 = load i32, i32* %553, align 4
  call void @llvm.lifetime.start.p0i8(i64 4, i8* nonnull %395) #15
  store i32 %554, i32* %396, align 4
  call void @llvm.lifetime.start.p0i8(i64 8, i8* nonnull %397) #15
  store %"class.sw::SpirvShader::TypeOrObjectID"* %63, %"class.sw::SpirvShader::TypeOrObjectID"** %398, align 8
  call void @llvm.lifetime.start.p0i8(i64 1, i8* nonnull %399) #15
  %555 = call { %"struct.std::__1::__hash_node_base"*, i8 } @_ZNSt3__112__hash_tableINS_17__hash_value_typeIN2sw11SpirvShader14TypeOrObjectIDENS3_11DecorationsEEENS_22__unordered_map_hasherIS4_S6_NS_4hashINS2_7SpirvIDINS3_12TypeOrObjectEEEEENS_8equal_toIS4_EELb1EEENS_21__unordered_map_equalIS4_S6_SE_SC_Lb1EEENS_9allocatorIS6_EEE25__emplace_unique_key_argsIS4_JRKNS_21piecewise_construct_tENS_5tupleIJOS4_EEENSP_IJEEEEEENS_4pairINS_15__hash_iteratorIPNS_11__hash_nodeIS6_PvEEEEbEERKT_DpOT0_(%"class.std::__1::__hash_table"* %323, %"class.sw::SpirvShader::TypeOrObjectID"* nonnull dereferenceable(4) %63, %"struct.std::__1::piecewise_construct_t"* nonnull dereferenceable(1) @_ZNSt3__1L19piecewise_constructE, %"class.std::__1::tuple.1589"* nonnull dereferenceable(8) %10, %"class.std::__1::tuple.1554"* nonnull dereferenceable(1) %11) #17
  %556 = extractvalue { %"struct.std::__1::__hash_node_base"*, i8 } %555, 0
  %557 = getelementptr inbounds %"struct.std::__1::__hash_node_base", %"struct.std::__1::__hash_node_base"* %556, i64 2
  %558 = bitcast %"struct.std::__1::__hash_node_base"* %557 to %"struct.std::__1::pair"*
  %559 = getelementptr inbounds %"struct.std::__1::pair", %"struct.std::__1::pair"* %558, i64 0, i32 1
  call void @llvm.lifetime.end.p0i8(i64 1, i8* nonnull %399) #15
  call void @llvm.lifetime.end.p0i8(i64 8, i8* nonnull %397) #15
  call void @llvm.lifetime.end.p0i8(i64 4, i8* nonnull %395) #15
  call void @llvm.lifetime.start.p0i8(i64 4, i8* nonnull %400) #15
  store i32 %554, i32* %401, align 4
  call void @llvm.lifetime.start.p0i8(i64 8, i8* nonnull %402) #15
  store %"class.sw::SpirvID.328"* %64, %"class.sw::SpirvID.328"** %403, align 8
  call void @llvm.lifetime.start.p0i8(i64 1, i8* nonnull %404) #15
  %560 = call { %"struct.std::__1::__hash_node_base.87"*, i8 } @_ZNSt3__112__hash_tableINS_17__hash_value_typeIN2sw7SpirvIDINS2_11SpirvShader6ObjectEEENS4_21DescriptorDecorationsEEENS_22__unordered_map_hasherIS6_S8_NS_4hashIS6_EENS_8equal_toIS6_EELb1EEENS_21__unordered_map_equalIS6_S8_SD_SB_Lb1EEENS_9allocatorIS8_EEE25__emplace_unique_key_argsIS6_JRKNS_21piecewise_construct_tENS_5tupleIJOS6_EEENSO_IJEEEEEENS_4pairINS_15__hash_iteratorIPNS_11__hash_nodeIS8_PvEEEEbEERKT_DpOT0_(%"class.std::__1::__hash_table.83"* %308, %"class.sw::SpirvID.328"* nonnull dereferenceable(4) %64, %"struct.std::__1::piecewise_construct_t"* nonnull dereferenceable(1) @_ZNSt3__1L19piecewise_constructE, %"class.std::__1::tuple.1564"* nonnull dereferenceable(8) %12, %"class.std::__1::tuple.1554"* nonnull dereferenceable(1) %13) #17
  %561 = extractvalue { %"struct.std::__1::__hash_node_base.87"*, i8 } %560, 0
  %562 = getelementptr inbounds %"struct.std::__1::__hash_node_base.87", %"struct.std::__1::__hash_node_base.87"* %561, i64 2
  %563 = bitcast %"struct.std::__1::__hash_node_base.87"* %562 to %"struct.std::__1::pair.400"*
  call void @llvm.lifetime.end.p0i8(i64 1, i8* nonnull %404) #15
  call void @llvm.lifetime.end.p0i8(i64 8, i8* nonnull %402) #15
  call void @llvm.lifetime.end.p0i8(i64 4, i8* nonnull %400) #15
  %564 = load i32*, i32** %298, align 8
  %565 = load i32, i32* %564, align 4
  %566 = icmp ugt i32 %565, 196607
  br i1 %566, label %567, label %1094

567:                                              ; preds = %552
  %568 = getelementptr inbounds %"struct.std::__1::pair.400", %"struct.std::__1::pair.400"* %563, i64 0, i32 1, i32 0
  %569 = getelementptr inbounds %"struct.std::__1::__hash_node_base.87", %"struct.std::__1::__hash_node_base.87"* %561, i64 3
  %570 = bitcast %"struct.std::__1::__hash_node_base.87"* %569 to i32*
  %571 = getelementptr inbounds %"struct.std::__1::pair.400", %"struct.std::__1::pair.400"* %563, i64 0, i32 1, i32 2
  br label %572

572:                                              ; preds = %567, %601
  %573 = phi i64 [ 2, %567 ], [ %602, %601 ]
  %574 = phi i32* [ %564, %567 ], [ %603, %601 ]
  %575 = getelementptr inbounds i32, i32* %574, i64 %573
  %576 = load i32, i32* %575, align 4
  call void @llvm.lifetime.start.p0i8(i64 4, i8* nonnull %405) #15
  store i32 %576, i32* %406, align 4
  call void @llvm.lifetime.start.p0i8(i64 8, i8* nonnull %407) #15
  store %"class.sw::SpirvShader::TypeOrObjectID"* %65, %"class.sw::SpirvShader::TypeOrObjectID"** %408, align 8
  call void @llvm.lifetime.start.p0i8(i64 1, i8* nonnull %409) #15
  %577 = call { %"struct.std::__1::__hash_node_base"*, i8 } @_ZNSt3__112__hash_tableINS_17__hash_value_typeIN2sw11SpirvShader14TypeOrObjectIDENS3_11DecorationsEEENS_22__unordered_map_hasherIS4_S6_NS_4hashINS2_7SpirvIDINS3_12TypeOrObjectEEEEENS_8equal_toIS4_EELb1EEENS_21__unordered_map_equalIS4_S6_SE_SC_Lb1EEENS_9allocatorIS6_EEE25__emplace_unique_key_argsIS4_JRKNS_21piecewise_construct_tENS_5tupleIJOS4_EEENSP_IJEEEEEENS_4pairINS_15__hash_iteratorIPNS_11__hash_nodeIS6_PvEEEEbEERKT_DpOT0_(%"class.std::__1::__hash_table"* %323, %"class.sw::SpirvShader::TypeOrObjectID"* nonnull dereferenceable(4) %65, %"struct.std::__1::piecewise_construct_t"* nonnull dereferenceable(1) @_ZNSt3__1L19piecewise_constructE, %"class.std::__1::tuple.1589"* nonnull dereferenceable(8) %16, %"class.std::__1::tuple.1554"* nonnull dereferenceable(1) %17) #17
  %578 = extractvalue { %"struct.std::__1::__hash_node_base"*, i8 } %577, 0
  %579 = getelementptr inbounds %"struct.std::__1::__hash_node_base", %"struct.std::__1::__hash_node_base"* %578, i64 2
  %580 = bitcast %"struct.std::__1::__hash_node_base"* %579 to %"struct.std::__1::pair"*
  %581 = getelementptr inbounds %"struct.std::__1::pair", %"struct.std::__1::pair"* %580, i64 0, i32 1
  call void @llvm.lifetime.end.p0i8(i64 1, i8* nonnull %409) #15
  call void @llvm.lifetime.end.p0i8(i64 8, i8* nonnull %407) #15
  call void @_ZN2sw11SpirvShader11Decorations5ApplyERKS1_(%"struct.sw::SpirvShader::Decorations"* %581, %"struct.sw::SpirvShader::Decorations"* dereferenceable(28) %559) #14
  call void @llvm.lifetime.end.p0i8(i64 4, i8* nonnull %405) #15
  call void @llvm.lifetime.start.p0i8(i64 4, i8* nonnull %410) #15
  store i32 %576, i32* %411, align 4
  call void @llvm.lifetime.start.p0i8(i64 8, i8* nonnull %412) #15
  store %"class.sw::SpirvID.328"* %66, %"class.sw::SpirvID.328"** %413, align 8
  call void @llvm.lifetime.start.p0i8(i64 1, i8* nonnull %414) #15
  %582 = call { %"struct.std::__1::__hash_node_base.87"*, i8 } @_ZNSt3__112__hash_tableINS_17__hash_value_typeIN2sw7SpirvIDINS2_11SpirvShader6ObjectEEENS4_21DescriptorDecorationsEEENS_22__unordered_map_hasherIS6_S8_NS_4hashIS6_EENS_8equal_toIS6_EELb1EEENS_21__unordered_map_equalIS6_S8_SD_SB_Lb1EEENS_9allocatorIS8_EEE25__emplace_unique_key_argsIS6_JRKNS_21piecewise_construct_tENS_5tupleIJOS6_EEENSO_IJEEEEEENS_4pairINS_15__hash_iteratorIPNS_11__hash_nodeIS8_PvEEEEbEERKT_DpOT0_(%"class.std::__1::__hash_table.83"* %308, %"class.sw::SpirvID.328"* nonnull dereferenceable(4) %66, %"struct.std::__1::piecewise_construct_t"* nonnull dereferenceable(1) @_ZNSt3__1L19piecewise_constructE, %"class.std::__1::tuple.1564"* nonnull dereferenceable(8) %18, %"class.std::__1::tuple.1554"* nonnull dereferenceable(1) %19) #17
  %583 = extractvalue { %"struct.std::__1::__hash_node_base.87"*, i8 } %582, 0
  %584 = getelementptr inbounds %"struct.std::__1::__hash_node_base.87", %"struct.std::__1::__hash_node_base.87"* %583, i64 2
  %585 = bitcast %"struct.std::__1::__hash_node_base.87"* %584 to %"struct.std::__1::pair.400"*
  call void @llvm.lifetime.end.p0i8(i64 1, i8* nonnull %414) #15
  call void @llvm.lifetime.end.p0i8(i64 8, i8* nonnull %412) #15
  %586 = load i32, i32* %568, align 4
  %587 = icmp sgt i32 %586, -1
  br i1 %587, label %588, label %590

588:                                              ; preds = %572
  %589 = getelementptr inbounds %"struct.std::__1::pair.400", %"struct.std::__1::pair.400"* %585, i64 0, i32 1, i32 0
  store i32 %586, i32* %589, align 4
  br label %590

590:                                              ; preds = %588, %572
  %591 = load i32, i32* %570, align 4
  %592 = icmp sgt i32 %591, -1
  br i1 %592, label %593, label %596

593:                                              ; preds = %590
  %594 = getelementptr inbounds %"struct.std::__1::__hash_node_base.87", %"struct.std::__1::__hash_node_base.87"* %583, i64 3
  %595 = bitcast %"struct.std::__1::__hash_node_base.87"* %594 to i32*
  store i32 %591, i32* %595, align 4
  br label %596

596:                                              ; preds = %593, %590
  %597 = load i32, i32* %571, align 4
  %598 = icmp sgt i32 %597, -1
  br i1 %598, label %599, label %601

599:                                              ; preds = %596
  %600 = getelementptr inbounds %"struct.std::__1::pair.400", %"struct.std::__1::pair.400"* %585, i64 0, i32 1, i32 2
  store i32 %597, i32* %600, align 4
  br label %601

601:                                              ; preds = %596, %599
  call void @llvm.lifetime.end.p0i8(i64 4, i8* nonnull %410) #15
  %602 = add nuw nsw i64 %573, 1
  %603 = load i32*, i32** %298, align 8
  %604 = load i32, i32* %603, align 4
  %605 = lshr i32 %604, 16
  %606 = zext i32 %605 to i64
  %607 = icmp ult i64 %602, %606
  br i1 %607, label %572, label %1094

608:                                              ; preds = %446
  call void @llvm.lifetime.start.p0i8(i64 4, i8* nonnull %384) #15
  %609 = getelementptr inbounds i32, i32* %448, i64 1
  %610 = load i32, i32* %609, align 4
  store i32 %610, i32* %385, align 4
  call void @llvm.lifetime.start.p0i8(i64 8, i8* nonnull %386) #15
  store %"class.sw::SpirvShader::TypeOrObjectID"* %67, %"class.sw::SpirvShader::TypeOrObjectID"** %387, align 8
  call void @llvm.lifetime.start.p0i8(i64 1, i8* nonnull %388) #15
  %611 = call { %"struct.std::__1::__hash_node_base"*, i8 } @_ZNSt3__112__hash_tableINS_17__hash_value_typeIN2sw11SpirvShader14TypeOrObjectIDENS3_11DecorationsEEENS_22__unordered_map_hasherIS4_S6_NS_4hashINS2_7SpirvIDINS3_12TypeOrObjectEEEEENS_8equal_toIS4_EELb1EEENS_21__unordered_map_equalIS4_S6_SE_SC_Lb1EEENS_9allocatorIS6_EEE25__emplace_unique_key_argsIS4_JRKNS_21piecewise_construct_tENS_5tupleIJOS4_EEENSP_IJEEEEEENS_4pairINS_15__hash_iteratorIPNS_11__hash_nodeIS6_PvEEEEbEERKT_DpOT0_(%"class.std::__1::__hash_table"* %323, %"class.sw::SpirvShader::TypeOrObjectID"* nonnull dereferenceable(4) %67, %"struct.std::__1::piecewise_construct_t"* nonnull dereferenceable(1) @_ZNSt3__1L19piecewise_constructE, %"class.std::__1::tuple.1589"* nonnull dereferenceable(8) %20, %"class.std::__1::tuple.1554"* nonnull dereferenceable(1) %21) #17
  %612 = extractvalue { %"struct.std::__1::__hash_node_base"*, i8 } %611, 0
  %613 = getelementptr inbounds %"struct.std::__1::__hash_node_base", %"struct.std::__1::__hash_node_base"* %612, i64 2
  %614 = bitcast %"struct.std::__1::__hash_node_base"* %613 to %"struct.std::__1::pair"*
  %615 = getelementptr inbounds %"struct.std::__1::pair", %"struct.std::__1::pair"* %614, i64 0, i32 1
  call void @llvm.lifetime.end.p0i8(i64 1, i8* nonnull %388) #15
  call void @llvm.lifetime.end.p0i8(i64 8, i8* nonnull %386) #15
  call void @llvm.lifetime.end.p0i8(i64 4, i8* nonnull %384) #15
  %616 = load i32*, i32** %298, align 8
  %617 = load i32, i32* %616, align 4
  %618 = icmp ugt i32 %617, 196607
  br i1 %618, label %619, label %1094

619:                                              ; preds = %608, %648
  %620 = phi i64 [ %651, %648 ], [ 2, %608 ]
  %621 = phi i32* [ %652, %648 ], [ %616, %608 ]
  call void @llvm.lifetime.start.p0i8(i64 4, i8* nonnull %389) #15
  %622 = getelementptr inbounds i32, i32* %621, i64 %620
  %623 = load i32, i32* %622, align 4
  store i32 %623, i32* %390, align 4
  call void @llvm.lifetime.start.p0i8(i64 8, i8* nonnull %392) #15
  store %"class.sw::SpirvID.329"* %68, %"class.sw::SpirvID.329"** %393, align 8
  call void @llvm.lifetime.start.p0i8(i64 1, i8* nonnull %394) #15
  %624 = call { %"struct.std::__1::__hash_node_base.60"*, i8 } @_ZNSt3__112__hash_tableINS_17__hash_value_typeIN2sw7SpirvIDINS2_11SpirvShader4TypeEEENS_6vectorINS4_11DecorationsENS_9allocatorIS8_EEEEEENS_22__unordered_map_hasherIS6_SC_NS_4hashIS6_EENS_8equal_toIS6_EELb1EEENS_21__unordered_map_equalIS6_SC_SH_SF_Lb1EEENS9_ISC_EEE25__emplace_unique_key_argsIS6_JRKNS_21piecewise_construct_tENS_5tupleIJOS6_EEENSR_IJEEEEEENS_4pairINS_15__hash_iteratorIPNS_11__hash_nodeISC_PvEEEEbEERKT_DpOT0_(%"class.std::__1::__hash_table.56"* %391, %"class.sw::SpirvID.329"* nonnull dereferenceable(4) %68, %"struct.std::__1::piecewise_construct_t"* nonnull dereferenceable(1) @_ZNSt3__1L19piecewise_constructE, %"class.std::__1::tuple.1593"* nonnull dereferenceable(8) %22, %"class.std::__1::tuple.1554"* nonnull dereferenceable(1) %23) #17
  %625 = extractvalue { %"struct.std::__1::__hash_node_base.60"*, i8 } %624, 0
  %626 = getelementptr inbounds %"struct.std::__1::__hash_node_base.60", %"struct.std::__1::__hash_node_base.60"* %625, i64 3
  call void @llvm.lifetime.end.p0i8(i64 1, i8* nonnull %394) #15
  call void @llvm.lifetime.end.p0i8(i64 8, i8* nonnull %392) #15
  call void @llvm.lifetime.end.p0i8(i64 4, i8* nonnull %389) #15
  %627 = or i64 %620, 1
  %628 = load i32*, i32** %298, align 8
  %629 = getelementptr inbounds i32, i32* %628, i64 %627
  %630 = load i32, i32* %629, align 4
  %631 = zext i32 %630 to i64
  %632 = getelementptr inbounds %"struct.std::__1::__hash_node_base.60", %"struct.std::__1::__hash_node_base.60"* %625, i64 4
  %633 = bitcast %"struct.std::__1::__hash_node_base.60"* %632 to i64*
  %634 = load i64, i64* %633, align 8
  %635 = bitcast %"struct.std::__1::__hash_node_base.60"* %626 to i64*
  %636 = load i64, i64* %635, align 8
  %637 = sub i64 %634, %636
  %638 = sdiv exact i64 %637, 28
  %639 = icmp ugt i64 %638, %631
  br i1 %639, label %640, label %642

640:                                              ; preds = %619
  %641 = inttoptr i64 %636 to %"struct.sw::SpirvShader::Decorations"*
  br label %648

642:                                              ; preds = %619
  %643 = bitcast %"struct.std::__1::__hash_node_base.60"* %626 to %"class.std::__1::vector.330"*
  %644 = add i32 %630, 1
  %645 = zext i32 %644 to i64
  call void @_ZNSt3__16vectorIN2sw11SpirvShader11DecorationsENS_9allocatorIS3_EEE6resizeEm(%"class.std::__1::vector.330"* %643, i64 %645) #14
  %646 = bitcast %"struct.std::__1::__hash_node_base.60"* %626 to %"struct.sw::SpirvShader::Decorations"**
  %647 = load %"struct.sw::SpirvShader::Decorations"*, %"struct.sw::SpirvShader::Decorations"** %646, align 8
  br label %648

648:                                              ; preds = %640, %642
  %649 = phi %"struct.sw::SpirvShader::Decorations"* [ %641, %640 ], [ %647, %642 ]
  %650 = getelementptr inbounds %"struct.sw::SpirvShader::Decorations", %"struct.sw::SpirvShader::Decorations"* %649, i64 %631
  call void @_ZN2sw11SpirvShader11Decorations5ApplyERKS1_(%"struct.sw::SpirvShader::Decorations"* %650, %"struct.sw::SpirvShader::Decorations"* dereferenceable(28) %615) #14
  %651 = add nuw nsw i64 %620, 2
  %652 = load i32*, i32** %298, align 8
  %653 = load i32, i32* %652, align 4
  %654 = lshr i32 %653, 16
  %655 = zext i32 %654 to i64
  %656 = icmp ult i64 %651, %655
  br i1 %656, label %619, label %1094

657:                                              ; preds = %446
  %658 = ptrtoint i32* %448 to i64
  %659 = getelementptr inbounds i32, i32* %448, i64 1
  %660 = load i32, i32* %659, align 4
  store i32 %660, i32* %289, align 4
  br label %1094

661:                                              ; preds = %446, %446, %446, %446, %446, %446
  %662 = lshr i32 %449, 16
  %663 = zext i32 %662 to i64
  %664 = getelementptr inbounds i32, i32* %448, i64 %663
  call void @llvm.lifetime.start.p0i8(i64 136, i8* nonnull %368) #15
  %665 = inttoptr i64 %447 to i32*
  call void @_ZN2sw11SpirvShader5BlockC1ENS0_12InsnIteratorES2_(%"class.sw::SpirvShader::Block"* nonnull %69, i32* %665, i32* %664) #17
  call void @llvm.lifetime.start.p0i8(i64 8, i8* nonnull %369) #15
  store %"class.sw::SpirvID"* %55, %"class.sw::SpirvID"** %370, align 8
  call void @llvm.lifetime.start.p0i8(i64 1, i8* nonnull %371) #15
  %666 = call { %"struct.std::__1::__hash_node_base.227"*, i8 } @_ZNSt3__112__hash_tableINS_17__hash_value_typeIN2sw7SpirvIDINS2_11SpirvShader8FunctionEEES5_EENS_22__unordered_map_hasherIS6_S7_NS_4hashIS6_EENS_8equal_toIS6_EELb1EEENS_21__unordered_map_equalIS6_S7_SC_SA_Lb1EEENS_9allocatorIS7_EEE25__emplace_unique_key_argsIS6_JRKNS_21piecewise_construct_tENS_5tupleIJRKS6_EEENSN_IJEEEEEENS_4pairINS_15__hash_iteratorIPNS_11__hash_nodeIS7_PvEEEEbEERKT_DpOT0_(%"class.std::__1::__hash_table.223"* %339, %"class.sw::SpirvID"* nonnull dereferenceable(4) %55, %"struct.std::__1::piecewise_construct_t"* nonnull dereferenceable(1) @_ZNSt3__1L19piecewise_constructE, %"class.std::__1::tuple.1599"* nonnull dereferenceable(8) %28, %"class.std::__1::tuple.1554"* nonnull dereferenceable(1) %29) #17
  %667 = extractvalue { %"struct.std::__1::__hash_node_base.227"*, i8 } %666, 0
  call void @llvm.lifetime.end.p0i8(i64 1, i8* nonnull %371) #15
  call void @llvm.lifetime.end.p0i8(i64 8, i8* nonnull %369) #15
  %668 = getelementptr inbounds %"struct.std::__1::__hash_node_base.227", %"struct.std::__1::__hash_node_base.227"* %667, i64 4
  %669 = bitcast %"struct.std::__1::__hash_node_base.227"* %668 to %"class.std::__1::__hash_table.363"*
  call void @llvm.lifetime.start.p0i8(i64 8, i8* nonnull %372) #15
  store %"class.sw::SpirvID.326"* %56, %"class.sw::SpirvID.326"** %373, align 8
  call void @llvm.lifetime.start.p0i8(i64 1, i8* nonnull %374) #15
  %670 = call { %"struct.std::__1::__hash_node_base.367"*, i8 } @_ZNSt3__112__hash_tableINS_17__hash_value_typeIN2sw7SpirvIDINS2_11SpirvShader5BlockEEES5_EENS_22__unordered_map_hasherIS6_S7_NS_4hashIS6_EENS_8equal_toIS6_EELb1EEENS_21__unordered_map_equalIS6_S7_SC_SA_Lb1EEENS_9allocatorIS7_EEE25__emplace_unique_key_argsIS6_JRKNS_21piecewise_construct_tENS_5tupleIJRKS6_EEENSN_IJEEEEEENS_4pairINS_15__hash_iteratorIPNS_11__hash_nodeIS7_PvEEEEbEERKT_DpOT0_(%"class.std::__1::__hash_table.363"* %669, %"class.sw::SpirvID.326"* nonnull dereferenceable(4) %56, %"struct.std::__1::piecewise_construct_t"* nonnull dereferenceable(1) @_ZNSt3__1L19piecewise_constructE, %"class.std::__1::tuple.1612"* nonnull dereferenceable(8) %32, %"class.std::__1::tuple.1554"* nonnull dereferenceable(1) %33) #17
  %671 = extractvalue { %"struct.std::__1::__hash_node_base.367"*, i8 } %670, 0
  %672 = getelementptr inbounds %"struct.std::__1::__hash_node_base.367", %"struct.std::__1::__hash_node_base.367"* %671, i64 3
  %673 = bitcast %"struct.std::__1::__hash_node_base.367"* %672 to %"class.sw::SpirvShader::Block"*
  call void @llvm.lifetime.end.p0i8(i64 1, i8* nonnull %374) #15
  call void @llvm.lifetime.end.p0i8(i64 8, i8* nonnull %372) #15
  %674 = bitcast %"struct.std::__1::__hash_node_base.367"* %672 to i8*
  call void @llvm.memcpy.p0i8.p0i8.i64(i8* align 8 %674, i8* nonnull align 8 %368, i64 32, i1 false) #15
  %675 = icmp eq %"class.sw::SpirvShader::Block"* %69, %673
  br i1 %675, label %689, label %676

676:                                              ; preds = %661
  %677 = getelementptr inbounds %"struct.std::__1::__hash_node_base.367", %"struct.std::__1::__hash_node_base.367"* %671, i64 7
  %678 = bitcast %"struct.std::__1::__hash_node_base.367"* %677 to %"class.std::__1::__hash_table.338"*
  %679 = load i32, i32* %376, align 8
  %680 = getelementptr inbounds %"struct.std::__1::__hash_node_base.367", %"struct.std::__1::__hash_node_base.367"* %671, i64 11
  %681 = bitcast %"struct.std::__1::__hash_node_base.367"* %680 to i32*
  store i32 %679, i32* %681, align 4
  %682 = load %"struct.std::__1::__hash_node_base.342"*, %"struct.std::__1::__hash_node_base.342"** %377, align 8
  call void @_ZNSt3__112__hash_tableIN2sw7SpirvIDINS1_11SpirvShader5BlockEEENS_4hashIS5_EENS_8equal_toIS5_EENS_9allocatorIS5_EEE14__assign_multiINS_21__hash_const_iteratorIPNS_11__hash_nodeIS5_PvEEEEEEvT_SK_(%"class.std::__1::__hash_table.338"* %678, %"struct.std::__1::__hash_node_base.342"* %682, %"struct.std::__1::__hash_node_base.342"* null) #17
  %683 = getelementptr inbounds %"struct.std::__1::__hash_node_base.367", %"struct.std::__1::__hash_node_base.367"* %671, i64 12
  %684 = bitcast %"struct.std::__1::__hash_node_base.367"* %683 to %"class.std::__1::__hash_table.338"*
  %685 = load i32, i32* %379, align 8
  %686 = getelementptr inbounds %"struct.std::__1::__hash_node_base.367", %"struct.std::__1::__hash_node_base.367"* %671, i64 16
  %687 = bitcast %"struct.std::__1::__hash_node_base.367"* %686 to i32*
  store i32 %685, i32* %687, align 4
  %688 = load %"struct.std::__1::__hash_node_base.342"*, %"struct.std::__1::__hash_node_base.342"** %380, align 8
  call void @_ZNSt3__112__hash_tableIN2sw7SpirvIDINS1_11SpirvShader5BlockEEENS_4hashIS5_EENS_8equal_toIS5_EENS_9allocatorIS5_EEE14__assign_multiINS_21__hash_const_iteratorIPNS_11__hash_nodeIS5_PvEEEEEEvT_SK_(%"class.std::__1::__hash_table.338"* %684, %"struct.std::__1::__hash_node_base.342"* %688, %"struct.std::__1::__hash_node_base.342"* null) #17
  br label %689

689:                                              ; preds = %661, %676
  %690 = getelementptr inbounds %"struct.std::__1::__hash_node_base.367", %"struct.std::__1::__hash_node_base.367"* %671, i64 17
  %691 = bitcast %"struct.std::__1::__hash_node_base.367"* %690 to i8*
  call void @llvm.memcpy.p0i8.p0i8.i64(i8* align 8 %691, i8* align 8 %381, i64 24, i1 false) #15
  call void @_ZNSt3__112__hash_tableIN2sw7SpirvIDINS1_11SpirvShader5BlockEEENS_4hashIS5_EENS_8equal_toIS5_EENS_9allocatorIS5_EEED2Ev(%"class.std::__1::__hash_table.338"* %382) #17
  call void @_ZNSt3__112__hash_tableIN2sw7SpirvIDINS1_11SpirvShader5BlockEEENS_4hashIS5_EENS_8equal_toIS5_EENS_9allocatorIS5_EEED2Ev(%"class.std::__1::__hash_table.338"* %383) #17
  call void @llvm.lifetime.end.p0i8(i64 136, i8* nonnull %368) #15
  store i32 0, i32* %289, align 4
  %692 = icmp eq i32 %450, 252
  br i1 %692, label %693, label %1094

693:                                              ; preds = %689
  %694 = load i16, i16* %149, align 4
  %695 = or i16 %694, 32
  store i16 %695, i16* %149, align 4
  br label %1094

696:                                              ; preds = %446, %446, %446, %446, %446, %446, %446, %446, %446, %446, %446, %446, %446, %446
  call void @_ZN2sw11SpirvShader11DeclareTypeENS0_12InsnIteratorE(%"class.sw::SpirvShader"* %0, i32* %448) #14
  br label %1094

697:                                              ; preds = %446
  %698 = getelementptr inbounds i32, i32* %448, i64 1
  %699 = load i32, i32* %698, align 4
  call void @llvm.lifetime.start.p0i8(i64 4, i8* nonnull %353) #15
  %700 = getelementptr inbounds i32, i32* %448, i64 2
  %701 = load i32, i32* %700, align 4
  store i32 %701, i32* %354, align 4
  %702 = getelementptr inbounds i32, i32* %448, i64 3
  %703 = load i32, i32* %702, align 4
  call void @llvm.lifetime.start.p0i8(i64 8, i8* nonnull %356) #15
  store %"class.sw::SpirvID.328"* %70, %"class.sw::SpirvID.328"** %357, align 8
  call void @llvm.lifetime.start.p0i8(i64 1, i8* nonnull %358) #15
  %704 = call { %"struct.std::__1::__hash_node_base.203"*, i8 } @_ZNSt3__112__hash_tableINS_17__hash_value_typeIN2sw7SpirvIDINS2_11SpirvShader6ObjectEEES5_EENS_22__unordered_map_hasherIS6_S7_NS_4hashIS6_EENS_8equal_toIS6_EELb1EEENS_21__unordered_map_equalIS6_S7_SC_SA_Lb1EEENS_9allocatorIS7_EEE25__emplace_unique_key_argsIS6_JRKNS_21piecewise_construct_tENS_5tupleIJRKS6_EEENSN_IJEEEEEENS_4pairINS_15__hash_iteratorIPNS_11__hash_nodeIS7_PvEEEEbEERKT_DpOT0_(%"class.std::__1::__hash_table.199"* %355, %"class.sw::SpirvID.328"* nonnull dereferenceable(4) %70, %"struct.std::__1::piecewise_construct_t"* nonnull dereferenceable(1) @_ZNSt3__1L19piecewise_constructE, %"class.std::__1::tuple.1625"* nonnull dereferenceable(8) %36, %"class.std::__1::tuple.1554"* nonnull dereferenceable(1) %37) #17
  %705 = extractvalue { %"struct.std::__1::__hash_node_base.203"*, i8 } %704, 0
  %706 = getelementptr inbounds %"struct.std::__1::__hash_node_base.203", %"struct.std::__1::__hash_node_base.203"* %705, i64 3
  call void @llvm.lifetime.end.p0i8(i64 1, i8* nonnull %358) #15
  call void @llvm.lifetime.end.p0i8(i64 8, i8* nonnull %356) #15
  %707 = getelementptr inbounds %"struct.std::__1::__hash_node_base.203", %"struct.std::__1::__hash_node_base.203"* %705, i64 7
  %708 = bitcast %"struct.std::__1::__hash_node_base.203"* %707 to i32*
  store i32 4, i32* %708, align 8
  %709 = bitcast %"struct.std::__1::__hash_node_base.203"* %706 to i64*
  %710 = load i64, i64* %359, align 8
  store i64 %710, i64* %709, align 8
  switch i32 %703, label %734 [
    i32 1, label %711
    i32 3, label %711
    i32 2, label %713
    i32 12, label %713
    i32 9, label %735
    i32 6, label %735
    i32 7, label %735
    i32 0, label %735
    i32 4, label %714
    i32 10, label %731
    i32 11, label %731
    i32 5, label %732
    i32 8, label %733
  ]

711:                                              ; preds = %697, %697
  %712 = bitcast %"struct.std::__1::__hash_node_base.203"* %706 to %"class.sw::SpirvShader::Object"*
  call void @_ZN2sw11SpirvShader24ProcessInterfaceVariableERNS0_6ObjectE(%"class.sw::SpirvShader"* %0, %"class.sw::SpirvShader::Object"* dereferenceable(40) %712) #14
  br label %735

713:                                              ; preds = %697, %697
  store i32 5, i32* %708, align 8
  br label %735

714:                                              ; preds = %697
  call void @llvm.lifetime.start.p0i8(i64 4, i8* nonnull %360)
  store i32 %699, i32* %361, align 4
  %715 = call %"struct.std::__1::__hash_node_base.179"* @_ZNKSt3__112__hash_tableINS_17__hash_value_typeIN2sw7SpirvIDINS2_11SpirvShader4TypeEEES5_EENS_22__unordered_map_hasherIS6_S7_NS_4hashIS6_EENS_8equal_toIS6_EELb1EEENS_21__unordered_map_equalIS6_S7_SC_SA_Lb1EEENS_9allocatorIS7_EEE4findIS6_EENS_21__hash_const_iteratorIPNS_11__hash_nodeIS7_PvEEEERKT_(%"class.std::__1::__hash_table.175"* %348, %"class.sw::SpirvID.329"* nonnull dereferenceable(4) %38) #17
  %716 = getelementptr inbounds %"struct.std::__1::__hash_node_base.179", %"struct.std::__1::__hash_node_base.179"* %715, i64 3
  %717 = bitcast %"struct.std::__1::__hash_node_base.179"* %716 to %"class.sw::SpirvShader::Type"*
  call void @llvm.lifetime.end.p0i8(i64 4, i8* nonnull %360)
  %718 = getelementptr inbounds %"class.sw::SpirvShader::Type", %"class.sw::SpirvShader::Type"* %717, i64 0, i32 4, i32 0
  %719 = load i32, i32* %718, align 4
  call void @llvm.lifetime.start.p0i8(i64 4, i8* nonnull %362)
  store i32 %719, i32* %363, align 4
  %720 = call %"struct.std::__1::__hash_node_base.179"* @_ZNKSt3__112__hash_tableINS_17__hash_value_typeIN2sw7SpirvIDINS2_11SpirvShader4TypeEEES5_EENS_22__unordered_map_hasherIS6_S7_NS_4hashIS6_EENS_8equal_toIS6_EELb1EEENS_21__unordered_map_equalIS6_S7_SC_SA_Lb1EEENS_9allocatorIS7_EEE4findIS6_EENS_21__hash_const_iteratorIPNS_11__hash_nodeIS7_PvEEEERKT_(%"class.std::__1::__hash_table.175"* %348, %"class.sw::SpirvID.329"* nonnull dereferenceable(4) %39) #17
  %721 = getelementptr inbounds %"struct.std::__1::__hash_node_base.179", %"struct.std::__1::__hash_node_base.179"* %720, i64 3
  %722 = bitcast %"struct.std::__1::__hash_node_base.179"* %721 to %"class.sw::SpirvShader::Type"*
  call void @llvm.lifetime.end.p0i8(i64 4, i8* nonnull %362)
  %723 = getelementptr inbounds %"class.sw::SpirvShader::Type", %"class.sw::SpirvShader::Type"* %722, i64 0, i32 2
  %724 = load i32, i32* %723, align 4
  %725 = shl i32 %724, 2
  %726 = load i32, i32* %354, align 4
  call void @llvm.lifetime.start.p0i8(i64 4, i8* nonnull %364)
  store i32 %726, i32* %365, align 4
  call void @llvm.lifetime.start.p0i8(i64 4, i8* nonnull %366) #15
  %727 = load i32, i32* %143, align 8
  store i32 %727, i32* %41, align 4
  %728 = call { %"struct.std::__1::__hash_node_base.155"*, i8 } @_ZNSt3__112__hash_tableINS_17__hash_value_typeIN2sw7SpirvIDINS2_11SpirvShader6ObjectEEEjEENS_22__unordered_map_hasherIS6_S7_NS_4hashIS6_EENS_8equal_toIS6_EELb1EEENS_21__unordered_map_equalIS6_S7_SC_SA_Lb1EEENS_9allocatorIS7_EEE25__emplace_unique_key_argsIS6_JRS6_RjEEENS_4pairINS_15__hash_iteratorIPNS_11__hash_nodeIS7_PvEEEEbEERKT_DpOT0_(%"class.std::__1::__hash_table.151"* %367, %"class.sw::SpirvID.328"* nonnull dereferenceable(4) %40, %"class.sw::SpirvID.328"* nonnull dereferenceable(4) %40, i32* nonnull dereferenceable(4) %41) #17
  %729 = load i32, i32* %143, align 8
  %730 = add i32 %729, %725
  store i32 %730, i32* %143, align 8
  call void @llvm.lifetime.end.p0i8(i64 4, i8* nonnull %366) #15
  call void @llvm.lifetime.end.p0i8(i64 4, i8* nonnull %364)
  store i32 4, i32* %708, align 8
  br label %735

731:                                              ; preds = %697, %697
  call void (i8*, ...) @_ZN2sw4warnEPKcz(i8* getelementptr inbounds ([63 x i8], [63 x i8]* @.str, i64 0, i64 0), i8* getelementptr inbounds ([59 x i8], [59 x i8]* @.str.1, i64 0, i64 0), i32 298, i32 %703) #17
  br label %735

732:                                              ; preds = %697
  call void (i8*, ...) @_ZN2sw4warnEPKcz(i8* getelementptr inbounds ([88 x i8], [88 x i8]* @.str.2, i64 0, i64 0), i8* getelementptr inbounds ([59 x i8], [59 x i8]* @.str.1, i64 0, i64 0), i32 302) #17
  br label %735

733:                                              ; preds = %697
  call void (i8*, ...) @_ZN2sw4warnEPKcz(i8* getelementptr inbounds ([84 x i8], [84 x i8]* @.str.3, i64 0, i64 0), i8* getelementptr inbounds ([59 x i8], [59 x i8]* @.str.1, i64 0, i64 0), i32 306) #17
  br label %735

734:                                              ; preds = %697
  call void (i8*, ...) @_ZN2sw4warnEPKcz(i8* getelementptr inbounds ([56 x i8], [56 x i8]* @.str.4, i64 0, i64 0), i8* getelementptr inbounds ([59 x i8], [59 x i8]* @.str.1, i64 0, i64 0), i32 310, i32 %703) #17
  br label %735

735:                                              ; preds = %697, %697, %697, %697, %734, %733, %732, %731, %714, %713, %711
  call void @llvm.lifetime.end.p0i8(i64 4, i8* nonnull %353) #15
  br label %1094

736:                                              ; preds = %446, %446
  %737 = getelementptr inbounds i32, i32* %448, i64 3
  %738 = load i32, i32* %737, align 4
  %739 = call dereferenceable(40) %"class.sw::SpirvShader::Object"* @_ZN2sw11SpirvShader14CreateConstantENS0_12InsnIteratorE(%"class.sw::SpirvShader"* %0, i32* %448) #14
  %740 = getelementptr inbounds %"class.sw::SpirvShader::Object", %"class.sw::SpirvShader::Object"* %739, i64 0, i32 1, i32 0, i32 0
  %741 = load i32*, i32** %740, align 8
  store i32 %738, i32* %741, align 4
  br label %1094

742:                                              ; preds = %446, %446
  %743 = call dereferenceable(40) %"class.sw::SpirvShader::Object"* @_ZN2sw11SpirvShader14CreateConstantENS0_12InsnIteratorE(%"class.sw::SpirvShader"* %0, i32* %448) #14
  %744 = getelementptr inbounds %"class.sw::SpirvShader::Object", %"class.sw::SpirvShader::Object"* %743, i64 0, i32 1, i32 0, i32 0
  %745 = load i32*, i32** %744, align 8
  store i32 0, i32* %745, align 4
  br label %1094

746:                                              ; preds = %446, %446
  %747 = call dereferenceable(40) %"class.sw::SpirvShader::Object"* @_ZN2sw11SpirvShader14CreateConstantENS0_12InsnIteratorE(%"class.sw::SpirvShader"* %0, i32* %448) #14
  %748 = getelementptr inbounds %"class.sw::SpirvShader::Object", %"class.sw::SpirvShader::Object"* %747, i64 0, i32 1, i32 0, i32 0
  %749 = load i32*, i32** %748, align 8
  store i32 -1, i32* %749, align 4
  br label %1094

750:                                              ; preds = %446, %446
  %751 = call dereferenceable(40) %"class.sw::SpirvShader::Object"* @_ZN2sw11SpirvShader14CreateConstantENS0_12InsnIteratorE(%"class.sw::SpirvShader"* %0, i32* %448) #14
  %752 = getelementptr inbounds %"class.sw::SpirvShader::Object", %"class.sw::SpirvShader::Object"* %751, i64 0, i32 0, i32 0, i32 0
  %753 = load i32*, i32** %752, align 8
  %754 = getelementptr inbounds i32, i32* %753, i64 1
  %755 = load i32, i32* %754, align 4
  call void @llvm.lifetime.start.p0i8(i64 4, i8* nonnull %351) #15
  store i32 %755, i32* %352, align 4
  %756 = call %"struct.std::__1::__hash_node_base.179"* @_ZNKSt3__112__hash_tableINS_17__hash_value_typeIN2sw7SpirvIDINS2_11SpirvShader4TypeEEES5_EENS_22__unordered_map_hasherIS6_S7_NS_4hashIS6_EENS_8equal_toIS6_EELb1EEENS_21__unordered_map_equalIS6_S7_SC_SA_Lb1EEENS_9allocatorIS7_EEE4findIS6_EENS_21__hash_const_iteratorIPNS_11__hash_nodeIS7_PvEEEERKT_(%"class.std::__1::__hash_table.175"* %348, %"class.sw::SpirvID.329"* nonnull dereferenceable(4) %42) #17
  %757 = getelementptr inbounds %"struct.std::__1::__hash_node_base.179", %"struct.std::__1::__hash_node_base.179"* %756, i64 3
  %758 = bitcast %"struct.std::__1::__hash_node_base.179"* %757 to %"class.sw::SpirvShader::Type"*
  call void @llvm.lifetime.end.p0i8(i64 4, i8* nonnull %351) #15
  %759 = getelementptr inbounds %"class.sw::SpirvShader::Type", %"class.sw::SpirvShader::Type"* %758, i64 0, i32 2
  %760 = load i32, i32* %759, align 4
  %761 = icmp eq i32 %760, 0
  br i1 %761, label %1094, label %762

762:                                              ; preds = %750
  %763 = getelementptr inbounds %"class.sw::SpirvShader::Object", %"class.sw::SpirvShader::Object"* %751, i64 0, i32 1, i32 0, i32 0
  br label %764

764:                                              ; preds = %762, %764
  %765 = phi i64 [ 0, %762 ], [ %768, %764 ]
  %766 = load i32*, i32** %763, align 8
  %767 = getelementptr inbounds i32, i32* %766, i64 %765
  store i32 0, i32* %767, align 4
  %768 = add nuw nsw i64 %765, 1
  %769 = load i32, i32* %759, align 4
  %770 = zext i32 %769 to i64
  %771 = icmp ult i64 %768, %770
  br i1 %771, label %764, label %1094

772:                                              ; preds = %446, %446
  %773 = call dereferenceable(40) %"class.sw::SpirvShader::Object"* @_ZN2sw11SpirvShader14CreateConstantENS0_12InsnIteratorE(%"class.sw::SpirvShader"* %0, i32* %448) #14
  %774 = load i32*, i32** %298, align 8
  %775 = load i32, i32* %774, align 4
  %776 = and i32 %775, -65536
  %777 = icmp eq i32 %776, 196608
  br i1 %777, label %780, label %778

778:                                              ; preds = %772
  %779 = getelementptr inbounds %"class.sw::SpirvShader::Object", %"class.sw::SpirvShader::Object"* %773, i64 0, i32 1, i32 0, i32 0
  br label %786

780:                                              ; preds = %809, %772
  %781 = phi i32* [ %774, %772 ], [ %812, %809 ]
  %782 = getelementptr inbounds i32, i32* %781, i64 2
  %783 = load i32, i32* %782, align 4
  call void @llvm.lifetime.start.p0i8(i64 4, i8* nonnull %349) #15
  store i32 %783, i32* %350, align 4
  %784 = call %"struct.std::__1::__hash_node_base"* @_ZNSt3__112__hash_tableINS_17__hash_value_typeIN2sw11SpirvShader14TypeOrObjectIDENS3_11DecorationsEEENS_22__unordered_map_hasherIS4_S6_NS_4hashINS2_7SpirvIDINS3_12TypeOrObjectEEEEENS_8equal_toIS4_EELb1EEENS_21__unordered_map_equalIS4_S6_SE_SC_Lb1EEENS_9allocatorIS6_EEE4findIS4_EENS_15__hash_iteratorIPNS_11__hash_nodeIS6_PvEEEERKT_(%"class.std::__1::__hash_table"* %323, %"class.sw::SpirvShader::TypeOrObjectID"* nonnull dereferenceable(4) %71) #17
  call void @llvm.lifetime.end.p0i8(i64 4, i8* nonnull %349) #15
  %785 = icmp eq %"struct.std::__1::__hash_node_base"* %784, null
  br i1 %785, label %1094, label %832

786:                                              ; preds = %778, %809
  %787 = phi i64 [ 0, %778 ], [ %811, %809 ]
  %788 = phi i32* [ %774, %778 ], [ %812, %809 ]
  %789 = phi i32 [ 0, %778 ], [ %810, %809 ]
  %790 = add nuw i64 %787, 3
  %791 = and i64 %790, 4294967295
  %792 = getelementptr inbounds i32, i32* %788, i64 %791
  %793 = load i32, i32* %792, align 4
  call void @llvm.lifetime.start.p0i8(i64 4, i8* nonnull %343)
  store i32 %793, i32* %344, align 4
  %794 = call %"struct.std::__1::__hash_node_base.203"* @_ZNKSt3__112__hash_tableINS_17__hash_value_typeIN2sw7SpirvIDINS2_11SpirvShader6ObjectEEES5_EENS_22__unordered_map_hasherIS6_S7_NS_4hashIS6_EENS_8equal_toIS6_EELb1EEENS_21__unordered_map_equalIS6_S7_SC_SA_Lb1EEENS_9allocatorIS7_EEE4findIS6_EENS_21__hash_const_iteratorIPNS_11__hash_nodeIS7_PvEEEERKT_(%"class.std::__1::__hash_table.199"* %345, %"class.sw::SpirvID.328"* nonnull dereferenceable(4) %43) #17
  %795 = getelementptr inbounds %"struct.std::__1::__hash_node_base.203", %"struct.std::__1::__hash_node_base.203"* %794, i64 3
  call void @llvm.lifetime.end.p0i8(i64 4, i8* nonnull %343)
  %796 = bitcast %"struct.std::__1::__hash_node_base.203"* %795 to i32**
  %797 = load i32*, i32** %796, align 8
  %798 = getelementptr inbounds i32, i32* %797, i64 1
  %799 = load i32, i32* %798, align 4
  call void @llvm.lifetime.start.p0i8(i64 4, i8* nonnull %346) #15
  store i32 %799, i32* %347, align 4
  %800 = call %"struct.std::__1::__hash_node_base.179"* @_ZNKSt3__112__hash_tableINS_17__hash_value_typeIN2sw7SpirvIDINS2_11SpirvShader4TypeEEES5_EENS_22__unordered_map_hasherIS6_S7_NS_4hashIS6_EENS_8equal_toIS6_EELb1EEENS_21__unordered_map_equalIS6_S7_SC_SA_Lb1EEENS_9allocatorIS7_EEE4findIS6_EENS_21__hash_const_iteratorIPNS_11__hash_nodeIS7_PvEEEERKT_(%"class.std::__1::__hash_table.175"* %348, %"class.sw::SpirvID.329"* nonnull dereferenceable(4) %44) #17
  %801 = getelementptr inbounds %"struct.std::__1::__hash_node_base.179", %"struct.std::__1::__hash_node_base.179"* %800, i64 3
  %802 = bitcast %"struct.std::__1::__hash_node_base.179"* %801 to %"class.sw::SpirvShader::Type"*
  call void @llvm.lifetime.end.p0i8(i64 4, i8* nonnull %346) #15
  %803 = getelementptr inbounds %"class.sw::SpirvShader::Type", %"class.sw::SpirvShader::Type"* %802, i64 0, i32 2
  %804 = load i32, i32* %803, align 4
  %805 = icmp eq i32 %804, 0
  br i1 %805, label %809, label %806

806:                                              ; preds = %786
  %807 = getelementptr inbounds %"struct.std::__1::__hash_node_base.203", %"struct.std::__1::__hash_node_base.203"* %794, i64 4
  %808 = bitcast %"struct.std::__1::__hash_node_base.203"* %807 to i32**
  br label %818

809:                                              ; preds = %818, %786
  %810 = phi i32 [ %789, %786 ], [ %824, %818 ]
  %811 = add nuw nsw i64 %787, 1
  %812 = load i32*, i32** %298, align 8
  %813 = load i32, i32* %812, align 4
  %814 = lshr i32 %813, 16
  %815 = add nsw i32 %814, -3
  %816 = zext i32 %815 to i64
  %817 = icmp ult i64 %811, %816
  br i1 %817, label %786, label %780

818:                                              ; preds = %806, %818
  %819 = phi i64 [ 0, %806 ], [ %828, %818 ]
  %820 = phi i32 [ %789, %806 ], [ %824, %818 ]
  %821 = load i32*, i32** %808, align 8
  %822 = getelementptr inbounds i32, i32* %821, i64 %819
  %823 = load i32, i32* %822, align 4
  %824 = add i32 %820, 1
  %825 = zext i32 %820 to i64
  %826 = load i32*, i32** %779, align 8
  %827 = getelementptr inbounds i32, i32* %826, i64 %825
  store i32 %823, i32* %827, align 4
  %828 = add nuw nsw i64 %819, 1
  %829 = load i32, i32* %803, align 4
  %830 = zext i32 %829 to i64
  %831 = icmp ult i64 %828, %830
  br i1 %831, label %818, label %809

832:                                              ; preds = %780
  %833 = getelementptr inbounds %"struct.std::__1::__hash_node_base", %"struct.std::__1::__hash_node_base"* %784, i64 2
  %834 = bitcast %"struct.std::__1::__hash_node_base"* %833 to %"struct.std::__1::pair"*
  %835 = getelementptr inbounds %"struct.std::__1::pair", %"struct.std::__1::pair"* %834, i64 0, i32 1, i32 2
  %836 = load i32, i32* %835, align 4
  %837 = icmp eq i32 %836, 25
  br i1 %837, label %838, label %1094

838:                                              ; preds = %832
  %839 = getelementptr inbounds %"class.sw::SpirvShader::Object", %"class.sw::SpirvShader::Object"* %773, i64 0, i32 1, i32 0, i32 0
  %840 = load i32*, i32** %839, align 8
  %841 = load i32, i32* %840, align 4
  store i32 %841, i32* %152, align 4
  %842 = load i32*, i32** %839, align 8
  %843 = getelementptr inbounds i32, i32* %842, i64 1
  %844 = load i32, i32* %843, align 4
  store i32 %844, i32* %153, align 4
  %845 = load i32*, i32** %839, align 8
  %846 = getelementptr inbounds i32, i32* %845, i64 2
  %847 = load i32, i32* %846, align 4
  store i32 %847, i32* %154, align 4
  br label %1094

848:                                              ; preds = %446
  call void @_ZN2sw11SpirvShader18EvalSpecConstantOpENS0_12InsnIteratorE(%"class.sw::SpirvShader"* %0, i32* %448) #17
  br label %1094

849:                                              ; preds = %446
  %850 = getelementptr inbounds i32, i32* %448, i64 1
  %851 = load i32, i32* %850, align 4
  switch i32 %851, label %933 [
    i32 0, label %852
    i32 1, label %855
    i32 27, label %858
    i32 32, label %861
    i32 33, label %864
    i32 34, label %867
    i32 35, label %870
    i32 40, label %873
    i32 43, label %876
    i32 44, label %879
    i32 46, label %882
    i32 45, label %885
    i32 47, label %888
    i32 48, label %891
    i32 49, label %894
    i32 50, label %897
    i32 51, label %900
    i32 52, label %903
    i32 61, label %906
    i32 62, label %909
    i32 63, label %912
    i32 64, label %915
    i32 65, label %918
    i32 66, label %921
    i32 4437, label %924
    i32 4439, label %927
    i32 5013, label %930
  ]

852:                                              ; preds = %849
  %853 = load i32, i32* %155, align 4
  %854 = or i32 %853, 1
  store i32 %854, i32* %155, align 4
  br label %1094

855:                                              ; preds = %849
  %856 = load i32, i32* %155, align 4
  %857 = or i32 %856, 2
  store i32 %857, i32* %155, align 4
  br label %1094

858:                                              ; preds = %849
  %859 = load i32, i32* %155, align 4
  %860 = or i32 %859, 4
  store i32 %860, i32* %155, align 4
  br label %1094

861:                                              ; preds = %849
  %862 = load i32, i32* %155, align 4
  %863 = or i32 %862, 8
  store i32 %863, i32* %155, align 4
  br label %1094

864:                                              ; preds = %849
  %865 = load i32, i32* %155, align 4
  %866 = or i32 %865, 16
  store i32 %866, i32* %155, align 4
  br label %1094

867:                                              ; preds = %849
  %868 = load i32, i32* %155, align 4
  %869 = or i32 %868, 32
  store i32 %869, i32* %155, align 4
  br label %1094

870:                                              ; preds = %849
  %871 = load i32, i32* %155, align 4
  %872 = or i32 %871, 64
  store i32 %872, i32* %155, align 4
  br label %1094

873:                                              ; preds = %849
  %874 = load i32, i32* %155, align 4
  %875 = or i32 %874, 128
  store i32 %875, i32* %155, align 4
  br label %1094

876:                                              ; preds = %849
  %877 = load i32, i32* %155, align 4
  %878 = or i32 %877, 256
  store i32 %878, i32* %155, align 4
  br label %1094

879:                                              ; preds = %849
  %880 = load i32, i32* %155, align 4
  %881 = or i32 %880, 512
  store i32 %881, i32* %155, align 4
  br label %1094

882:                                              ; preds = %849
  %883 = load i32, i32* %155, align 4
  %884 = or i32 %883, 1024
  store i32 %884, i32* %155, align 4
  br label %1094

885:                                              ; preds = %849
  %886 = load i32, i32* %155, align 4
  %887 = or i32 %886, 2048
  store i32 %887, i32* %155, align 4
  br label %1094

888:                                              ; preds = %849
  %889 = load i32, i32* %155, align 4
  %890 = or i32 %889, 4096
  store i32 %890, i32* %155, align 4
  br label %1094

891:                                              ; preds = %849
  %892 = load i32, i32* %155, align 4
  %893 = or i32 %892, 8192
  store i32 %893, i32* %155, align 4
  br label %1094

894:                                              ; preds = %849
  %895 = load i32, i32* %155, align 4
  %896 = or i32 %895, 16384
  store i32 %896, i32* %155, align 4
  br label %1094

897:                                              ; preds = %849
  %898 = load i32, i32* %155, align 4
  %899 = or i32 %898, 32768
  store i32 %899, i32* %155, align 4
  br label %1094

900:                                              ; preds = %849
  %901 = load i32, i32* %155, align 4
  %902 = or i32 %901, 65536
  store i32 %902, i32* %155, align 4
  br label %1094

903:                                              ; preds = %849
  %904 = load i32, i32* %155, align 4
  %905 = or i32 %904, 131072
  store i32 %905, i32* %155, align 4
  br label %1094

906:                                              ; preds = %849
  %907 = load i32, i32* %155, align 4
  %908 = or i32 %907, 262144
  store i32 %908, i32* %155, align 4
  br label %1094

909:                                              ; preds = %849
  %910 = load i32, i32* %155, align 4
  %911 = or i32 %910, 524288
  store i32 %911, i32* %155, align 4
  br label %1094

912:                                              ; preds = %849
  %913 = load i32, i32* %155, align 4
  %914 = or i32 %913, 8388608
  store i32 %914, i32* %155, align 4
  br label %1094

915:                                              ; preds = %849
  %916 = load i32, i32* %155, align 4
  %917 = or i32 %916, 1048576
  store i32 %917, i32* %155, align 4
  br label %1094

918:                                              ; preds = %849
  %919 = load i32, i32* %155, align 4
  %920 = or i32 %919, 2097152
  store i32 %920, i32* %155, align 4
  br label %1094

921:                                              ; preds = %849
  %922 = load i32, i32* %155, align 4
  %923 = or i32 %922, 4194304
  store i32 %923, i32* %155, align 4
  br label %1094

924:                                              ; preds = %849
  %925 = load i32, i32* %155, align 4
  %926 = or i32 %925, 16777216
  store i32 %926, i32* %155, align 4
  br label %1094

927:                                              ; preds = %849
  %928 = load i32, i32* %155, align 4
  %929 = or i32 %928, 33554432
  store i32 %929, i32* %155, align 4
  br label %1094

930:                                              ; preds = %849
  %931 = load i32, i32* %155, align 4
  %932 = or i32 %931, 67108864
  store i32 %932, i32* %155, align 4
  br label %1094

933:                                              ; preds = %849
  call void (i8*, ...) @_ZN2sw4warnEPKcz(i8* getelementptr inbounds ([55 x i8], [55 x i8]* @.str.5, i64 0, i64 0), i8* getelementptr inbounds ([59 x i8], [59 x i8]* @.str.1, i64 0, i64 0), i32 413, i32 %851) #17
  br label %1094

934:                                              ; preds = %446
  call void @llvm.lifetime.start.p0i8(i64 4, i8* nonnull %337) #15
  %935 = getelementptr inbounds i32, i32* %448, i64 2
  %936 = load i32, i32* %935, align 4
  store i32 %936, i32* %338, align 4
  store i32 %936, i32* %287, align 4
  call void @llvm.lifetime.start.p0i8(i64 8, i8* nonnull %340) #15
  store %"class.sw::SpirvID"* %72, %"class.sw::SpirvID"** %341, align 8
  call void @llvm.lifetime.start.p0i8(i64 1, i8* nonnull %342) #15
  %937 = call { %"struct.std::__1::__hash_node_base.227"*, i8 } @_ZNSt3__112__hash_tableINS_17__hash_value_typeIN2sw7SpirvIDINS2_11SpirvShader8FunctionEEES5_EENS_22__unordered_map_hasherIS6_S7_NS_4hashIS6_EENS_8equal_toIS6_EELb1EEENS_21__unordered_map_equalIS6_S7_SC_SA_Lb1EEENS_9allocatorIS7_EEE25__emplace_unique_key_argsIS6_JRKNS_21piecewise_construct_tENS_5tupleIJRKS6_EEENSN_IJEEEEEENS_4pairINS_15__hash_iteratorIPNS_11__hash_nodeIS7_PvEEEEbEERKT_DpOT0_(%"class.std::__1::__hash_table.223"* %339, %"class.sw::SpirvID"* nonnull dereferenceable(4) %72, %"struct.std::__1::piecewise_construct_t"* nonnull dereferenceable(1) @_ZNSt3__1L19piecewise_constructE, %"class.std::__1::tuple.1599"* nonnull dereferenceable(8) %45, %"class.std::__1::tuple.1554"* nonnull dereferenceable(1) %46) #17
  %938 = extractvalue { %"struct.std::__1::__hash_node_base.227"*, i8 } %937, 0
  %939 = getelementptr inbounds %"struct.std::__1::__hash_node_base.227", %"struct.std::__1::__hash_node_base.227"* %938, i64 3
  %940 = bitcast %"struct.std::__1::__hash_node_base.227"* %939 to %"class.sw::SpirvShader::Function"*
  call void @llvm.lifetime.end.p0i8(i64 1, i8* nonnull %342) #15
  call void @llvm.lifetime.end.p0i8(i64 8, i8* nonnull %340) #15
  %941 = load i32*, i32** %298, align 8
  %942 = getelementptr inbounds i32, i32* %941, i64 1
  %943 = load i32, i32* %942, align 4
  %944 = getelementptr inbounds %"class.sw::SpirvShader::Function", %"class.sw::SpirvShader::Function"* %940, i64 0, i32 4, i32 0
  store i32 %943, i32* %944, align 4
  %945 = getelementptr inbounds i32, i32* %941, i64 4
  %946 = load i32, i32* %945, align 4
  %947 = getelementptr inbounds %"struct.std::__1::__hash_node_base.227", %"struct.std::__1::__hash_node_base.227"* %938, i64 9
  %948 = bitcast %"struct.std::__1::__hash_node_base.227"* %947 to i32*
  store i32 %946, i32* %948, align 8
  %949 = load i32*, i32** %293, align 8
  %950 = icmp eq i32* %941, %949
  br i1 %950, label %965, label %951

951:                                              ; preds = %934, %960
  %952 = phi i32* [ %963, %960 ], [ %941, %934 ]
  %953 = load i32, i32* %952, align 4
  %954 = and i32 %953, 65535
  %955 = icmp eq i32 %954, 248
  br i1 %955, label %956, label %960

956:                                              ; preds = %951
  %957 = getelementptr inbounds i32, i32* %952, i64 1
  %958 = load i32, i32* %957, align 4
  %959 = bitcast %"struct.std::__1::__hash_node_base.227"* %939 to i32*
  store i32 %958, i32* %959, align 8
  br label %965

960:                                              ; preds = %951
  %961 = lshr i32 %953, 16
  %962 = zext i32 %961 to i64
  %963 = getelementptr inbounds i32, i32* %952, i64 %962
  %964 = icmp eq i32* %963, %949
  br i1 %964, label %965, label %951

965:                                              ; preds = %960, %934, %956
  call void @llvm.lifetime.end.p0i8(i64 4, i8* nonnull %337) #15
  br label %1094

966:                                              ; preds = %446
  store i32 0, i32* %287, align 4
  br label %1094

967:                                              ; preds = %446
  call void @llvm.lifetime.start.p0i8(i64 4, i8* nonnull %331) #15
  %968 = getelementptr inbounds i32, i32* %448, i64 1
  %969 = load i32, i32* %968, align 4
  store i32 %969, i32* %332, align 4
  %970 = getelementptr inbounds i32, i32* %448, i64 2
  %971 = bitcast i32* %970 to i8*
  call void @llvm.lifetime.start.p0i8(i64 4, i8* nonnull %333) #15
  store i32 0, i32* %334, align 4
  br label %972

972:                                              ; preds = %978, %967
  %973 = phi i64 [ 0, %967 ], [ %979, %978 ]
  %974 = getelementptr inbounds [2 x %"struct.std::__1::pair.386"], [2 x %"struct.std::__1::pair.386"]* bitcast ([2 x { i8*, i32 }]* @_ZZN2sw11SpirvShaderC1Ej21VkShaderStageFlagBitsPKcRKNSt3__16vectorIjNS4_9allocatorIjEEEEPKN2vk10RenderPassEjbRKNS4_10shared_ptrINSB_3dbg7ContextEEEE16extensionsByName to [2 x %"struct.std::__1::pair.386"]*), i64 0, i64 %973, i32 0
  %975 = load i8*, i8** %974, align 16
  %976 = call i32 @strcmp(i8* %971, i8* %975) #19
  %977 = icmp eq i32 %976, 0
  br i1 %977, label %981, label %978

978:                                              ; preds = %972
  %979 = add nuw nsw i64 %973, 1
  %980 = icmp eq i64 %979, 2
  br i1 %980, label %985, label %972

981:                                              ; preds = %972
  %982 = getelementptr inbounds [2 x %"struct.std::__1::pair.386"], [2 x %"struct.std::__1::pair.386"]* bitcast ([2 x { i8*, i32 }]* @_ZZN2sw11SpirvShaderC1Ej21VkShaderStageFlagBitsPKcRKNSt3__16vectorIjNS4_9allocatorIjEEEEPKN2vk10RenderPassEjbRKNS4_10shared_ptrINSB_3dbg7ContextEEEE16extensionsByName to [2 x %"struct.std::__1::pair.386"]*), i64 0, i64 %973, i32 1
  %983 = load i32, i32* %982, align 8
  store i32 %983, i32* %334, align 4
  %984 = icmp eq i32 %983, 0
  br i1 %984, label %985, label %986

985:                                              ; preds = %978, %981
  call void (i8*, ...) @_ZN2sw4warnEPKcz(i8* getelementptr inbounds ([50 x i8], [50 x i8]* @.str.8, i64 0, i64 0), i8* getelementptr inbounds ([59 x i8], [59 x i8]* @.str.1, i64 0, i64 0), i32 469, i32* %970) #17
  br label %989

986:                                              ; preds = %981
  %987 = call { %"struct.std::__1::__hash_node_base.281"*, i8 } @_ZNSt3__112__hash_tableINS_17__hash_value_typeIN2sw7SpirvIDINS2_11SpirvShader9ExtensionEEES5_EENS_22__unordered_map_hasherIS6_S7_NS_4hashIS6_EENS_8equal_toIS6_EELb1EEENS_21__unordered_map_equalIS6_S7_SC_SA_Lb1EEENS_9allocatorIS7_EEE25__emplace_unique_key_argsIS6_JRS6_RS5_EEENS_4pairINS_15__hash_iteratorIPNS_11__hash_nodeIS7_PvEEEEbEERKT_DpOT0_(%"class.std::__1::__hash_table.277"* %335, %"class.sw::SpirvID.387"* nonnull dereferenceable(4) %73, %"class.sw::SpirvID.387"* nonnull dereferenceable(4) %73, %"class.sw::SpirvShader::Extension"* nonnull dereferenceable(4) %74) #17
  %988 = call { %"struct.std::__1::__hash_node_base.307"*, i8 } @_ZNSt3__112__hash_tableIjNS_4hashIjEENS_8equal_toIjEENS_9allocatorIjEEE21__emplace_unique_implIJRN2sw11SpirvShader9Extension4NameEEEENS_4pairINS_15__hash_iteratorIPNS_11__hash_nodeIjPvEEEEbEEDpOT_(%"class.std::__1::__hash_table.303"* %336, i32* nonnull dereferenceable(4) %334) #17
  br label %989

989:                                              ; preds = %986, %985
  call void @llvm.lifetime.end.p0i8(i64 4, i8* nonnull %333) #15
  call void @llvm.lifetime.end.p0i8(i64 4, i8* nonnull %331) #15
  br label %1094

990:                                              ; preds = %446
  call void @llvm.lifetime.start.p0i8(i64 4, i8* nonnull %327) #15
  %991 = getelementptr inbounds i32, i32* %448, i64 1
  %992 = load i32, i32* %991, align 4
  store i32 %992, i32* %75, align 4
  call void @llvm.lifetime.start.p0i8(i64 8, i8* nonnull %328) #15
  %993 = getelementptr inbounds i32, i32* %448, i64 2
  store i32* %993, i32** %329, align 8
  %994 = call { %"struct.std::__1::__hash_node_base.254"*, i8 } @_ZNSt3__112__hash_tableINS_17__hash_value_typeIN2sw7SpirvIDINS_12basic_stringIcNS_11char_traitsIcEENS_9allocatorIcEEEEEES9_EENS_22__unordered_map_hasherISA_SB_NS_4hashISA_EENS_8equal_toISA_EELb1EEENS_21__unordered_map_equalISA_SB_SG_SE_Lb1EEENS7_ISB_EEE21__emplace_unique_implIJjPKcEEENS_4pairINS_15__hash_iteratorIPNS_11__hash_nodeISB_PvEEEEbEEDpOT_(%"class.std::__1::__hash_table.250"* %330, i32* nonnull dereferenceable(4) %75, i8** nonnull dereferenceable(8) %76) #17
  call void @llvm.lifetime.end.p0i8(i64 8, i8* nonnull %328) #15
  call void @llvm.lifetime.end.p0i8(i64 4, i8* nonnull %327) #15
  br label %1094

995:                                              ; preds = %446
  %996 = call i8* @_ZN2sw11SpirvShader10OpcodeNameEN3spv2OpE(i32 %450) #17
  call void (i8*, ...) @_ZN2sw4warnEPKcz(i8* getelementptr inbounds ([66 x i8], [66 x i8]* @.str.9, i64 0, i64 0), i8* getelementptr inbounds ([59 x i8], [59 x i8]* @.str.1, i64 0, i64 0), i32 494, i8* %996) #17
  br label %1094

997:                                              ; preds = %446
  call void (i8*, ...) @_ZN2sw4warnEPKcz(i8* getelementptr inbounds ([79 x i8], [79 x i8]* @.str.10, i64 0, i64 0), i8* getelementptr inbounds ([59 x i8], [59 x i8]* @.str.1, i64 0, i64 0), i32 502) #17
  br label %1094

998:                                              ; preds = %446
  call void (i8*, ...) @_ZN2sw4warnEPKcz(i8* getelementptr inbounds ([75 x i8], [75 x i8]* @.str.11, i64 0, i64 0), i8* getelementptr inbounds ([59 x i8], [59 x i8]* @.str.1, i64 0, i64 0), i32 506) #17
  br label %1094

999:                                              ; preds = %446
  call void (i8*, ...) @_ZN2sw4warnEPKcz(i8* getelementptr inbounds ([75 x i8], [75 x i8]* @.str.12, i64 0, i64 0), i8* getelementptr inbounds ([59 x i8], [59 x i8]* @.str.1, i64 0, i64 0), i32 510) #17
  br label %1094

1000:                                             ; preds = %446, %446, %446, %446, %446
  call void @llvm.lifetime.start.p0i8(i64 4, i8* nonnull %304) #15
  %1001 = getelementptr inbounds i32, i32* %448, i64 2
  %1002 = load i32, i32* %1001, align 4
  store i32 %1002, i32* %305, align 4
  call void @llvm.lifetime.start.p0i8(i64 4, i8* nonnull %306) #15
  %1003 = getelementptr inbounds i32, i32* %448, i64 3
  %1004 = load i32, i32* %1003, align 4
  store i32 %1004, i32* %307, align 4
  %1005 = call %"struct.std::__1::__hash_node_base.87"* @_ZNSt3__112__hash_tableINS_17__hash_value_typeIN2sw7SpirvIDINS2_11SpirvShader6ObjectEEENS4_21DescriptorDecorationsEEENS_22__unordered_map_hasherIS6_S8_NS_4hashIS6_EENS_8equal_toIS6_EELb1EEENS_21__unordered_map_equalIS6_S8_SD_SB_Lb1EEENS_9allocatorIS8_EEE4findIS6_EENS_15__hash_iteratorIPNS_11__hash_nodeIS8_PvEEEERKT_(%"class.std::__1::__hash_table.83"* %308, %"class.sw::SpirvID.328"* nonnull dereferenceable(4) %78) #17
  %1006 = icmp eq %"struct.std::__1::__hash_node_base.87"* %1005, null
  br i1 %1006, label %1018, label %1007

1007:                                             ; preds = %1000
  %1008 = getelementptr inbounds %"struct.std::__1::__hash_node_base.87", %"struct.std::__1::__hash_node_base.87"* %1005, i64 2
  %1009 = bitcast %"struct.std::__1::__hash_node_base.87"* %1008 to %"struct.std::__1::pair.400"*
  %1010 = getelementptr inbounds %"struct.std::__1::pair.400", %"struct.std::__1::pair.400"* %1009, i64 0, i32 1
  call void @llvm.lifetime.start.p0i8(i64 8, i8* nonnull %309) #15
  store %"class.sw::SpirvID.328"* %77, %"class.sw::SpirvID.328"** %310, align 8
  call void @llvm.lifetime.start.p0i8(i64 1, i8* nonnull %311) #15
  %1011 = call { %"struct.std::__1::__hash_node_base.87"*, i8 } @_ZNSt3__112__hash_tableINS_17__hash_value_typeIN2sw7SpirvIDINS2_11SpirvShader6ObjectEEENS4_21DescriptorDecorationsEEENS_22__unordered_map_hasherIS6_S8_NS_4hashIS6_EENS_8equal_toIS6_EELb1EEENS_21__unordered_map_equalIS6_S8_SD_SB_Lb1EEENS_9allocatorIS8_EEE25__emplace_unique_key_argsIS6_JRKNS_21piecewise_construct_tENS_5tupleIJRKS6_EEENSO_IJEEEEEENS_4pairINS_15__hash_iteratorIPNS_11__hash_nodeIS8_PvEEEEbEERKT_DpOT0_(%"class.std::__1::__hash_table.83"* %308, %"class.sw::SpirvID.328"* nonnull dereferenceable(4) %77, %"struct.std::__1::piecewise_construct_t"* nonnull dereferenceable(1) @_ZNSt3__1L19piecewise_constructE, %"class.std::__1::tuple.1625"* nonnull dereferenceable(8) %47, %"class.std::__1::tuple.1554"* nonnull dereferenceable(1) %48) #17
  %1012 = extractvalue { %"struct.std::__1::__hash_node_base.87"*, i8 } %1011, 0
  %1013 = getelementptr inbounds %"struct.std::__1::__hash_node_base.87", %"struct.std::__1::__hash_node_base.87"* %1012, i64 2
  %1014 = bitcast %"struct.std::__1::__hash_node_base.87"* %1013 to %"struct.std::__1::pair.400"*
  %1015 = getelementptr inbounds %"struct.std::__1::pair.400", %"struct.std::__1::pair.400"* %1014, i64 0, i32 1
  call void @llvm.lifetime.end.p0i8(i64 1, i8* nonnull %311) #15
  call void @llvm.lifetime.end.p0i8(i64 8, i8* nonnull %309) #15
  %1016 = bitcast %"struct.sw::SpirvShader::DescriptorDecorations"* %1015 to i8*
  %1017 = bitcast %"struct.sw::SpirvShader::DescriptorDecorations"* %1010 to i8*
  call void @llvm.memcpy.p0i8.p0i8.i64(i8* align 4 %1016, i8* align 4 %1017, i64 12, i1 false)
  br label %1018

1018:                                             ; preds = %1000, %1007
  call void @_ZN2sw11SpirvShader12DefineResultERKNS0_12InsnIteratorE(%"class.sw::SpirvShader"* %0, %"class.sw::SpirvShader::InsnIterator"* nonnull dereferenceable(8) %57) #14
  %1019 = add nsw i32 %450, -65
  %1020 = icmp ult i32 %1019, 2
  br i1 %1020, label %1021, label %1041

1021:                                             ; preds = %1018
  call void @llvm.lifetime.start.p0i8(i64 28, i8* nonnull %312) #15
  call void @llvm.memset.p0i8.i64(i8* nonnull align 4 %440, i8 -86, i64 28, i1 false)
  store i32 -1, i32* %313, align 4
  store i32 0, i32* %314, align 4
  call void @llvm.memset.p0i8.i64(i8* align 4 %317, i8 -1, i64 16, i1 false) #15
  store i16 -32768, i16* %316, align 4
  call void @llvm.lifetime.start.p0i8(i64 8, i8* nonnull %318) #15
  store %"class.sw::SpirvID.328"* %77, %"class.sw::SpirvID.328"** %319, align 8
  call void @llvm.lifetime.start.p0i8(i64 1, i8* nonnull %320) #15
  %1022 = call { %"struct.std::__1::__hash_node_base.87"*, i8 } @_ZNSt3__112__hash_tableINS_17__hash_value_typeIN2sw7SpirvIDINS2_11SpirvShader6ObjectEEENS4_21DescriptorDecorationsEEENS_22__unordered_map_hasherIS6_S8_NS_4hashIS6_EENS_8equal_toIS6_EELb1EEENS_21__unordered_map_equalIS6_S8_SD_SB_Lb1EEENS_9allocatorIS8_EEE25__emplace_unique_key_argsIS6_JRKNS_21piecewise_construct_tENS_5tupleIJRKS6_EEENSO_IJEEEEEENS_4pairINS_15__hash_iteratorIPNS_11__hash_nodeIS8_PvEEEEbEERKT_DpOT0_(%"class.std::__1::__hash_table.83"* %308, %"class.sw::SpirvID.328"* nonnull dereferenceable(4) %77, %"struct.std::__1::piecewise_construct_t"* nonnull dereferenceable(1) @_ZNSt3__1L19piecewise_constructE, %"class.std::__1::tuple.1625"* nonnull dereferenceable(8) %49, %"class.std::__1::tuple.1554"* nonnull dereferenceable(1) %50) #17
  %1023 = extractvalue { %"struct.std::__1::__hash_node_base.87"*, i8 } %1022, 0
  %1024 = getelementptr inbounds %"struct.std::__1::__hash_node_base.87", %"struct.std::__1::__hash_node_base.87"* %1023, i64 2
  %1025 = bitcast %"struct.std::__1::__hash_node_base.87"* %1024 to %"struct.std::__1::pair.400"*
  %1026 = getelementptr inbounds %"struct.std::__1::pair.400", %"struct.std::__1::pair.400"* %1025, i64 0, i32 1
  call void @llvm.lifetime.end.p0i8(i64 1, i8* nonnull %320) #15
  call void @llvm.lifetime.end.p0i8(i64 8, i8* nonnull %318) #15
  %1027 = load i32, i32* %307, align 4
  %1028 = load i32*, i32** %298, align 8
  %1029 = load i32, i32* %1028, align 4
  %1030 = lshr i32 %1029, 16
  %1031 = add nsw i32 %1030, -4
  %1032 = getelementptr inbounds i32, i32* %1028, i64 4
  call void @_ZNK2sw11SpirvShader30ApplyDecorationsForAccessChainEPNS0_11DecorationsEPNS0_21DescriptorDecorationsENS_7SpirvIDINS0_6ObjectEEEjPKj(%"class.sw::SpirvShader"* %0, %"struct.sw::SpirvShader::Decorations"* nonnull %79, %"struct.sw::SpirvShader::DescriptorDecorations"* %1026, i32 %1027, i32 %1031, i32* %1032) #14
  %1033 = load i16, i16* %316, align 4
  %1034 = and i16 %1033, -9
  store i16 %1034, i16* %316, align 4
  call void @llvm.lifetime.start.p0i8(i64 4, i8* nonnull %321) #15
  %1035 = load i32, i32* %305, align 4
  store i32 %1035, i32* %322, align 4
  call void @llvm.lifetime.start.p0i8(i64 8, i8* nonnull %324) #15
  store %"class.sw::SpirvShader::TypeOrObjectID"* %80, %"class.sw::SpirvShader::TypeOrObjectID"** %325, align 8
  call void @llvm.lifetime.start.p0i8(i64 1, i8* nonnull %326) #15
  %1036 = call { %"struct.std::__1::__hash_node_base"*, i8 } @_ZNSt3__112__hash_tableINS_17__hash_value_typeIN2sw11SpirvShader14TypeOrObjectIDENS3_11DecorationsEEENS_22__unordered_map_hasherIS4_S6_NS_4hashINS2_7SpirvIDINS3_12TypeOrObjectEEEEENS_8equal_toIS4_EELb1EEENS_21__unordered_map_equalIS4_S6_SE_SC_Lb1EEENS_9allocatorIS6_EEE25__emplace_unique_key_argsIS4_JRKNS_21piecewise_construct_tENS_5tupleIJOS4_EEENSP_IJEEEEEENS_4pairINS_15__hash_iteratorIPNS_11__hash_nodeIS6_PvEEEEbEERKT_DpOT0_(%"class.std::__1::__hash_table"* %323, %"class.sw::SpirvShader::TypeOrObjectID"* nonnull dereferenceable(4) %80, %"struct.std::__1::piecewise_construct_t"* nonnull dereferenceable(1) @_ZNSt3__1L19piecewise_constructE, %"class.std::__1::tuple.1589"* nonnull dereferenceable(8) %51, %"class.std::__1::tuple.1554"* nonnull dereferenceable(1) %52) #17
  %1037 = extractvalue { %"struct.std::__1::__hash_node_base"*, i8 } %1036, 0
  %1038 = getelementptr inbounds %"struct.std::__1::__hash_node_base", %"struct.std::__1::__hash_node_base"* %1037, i64 2
  %1039 = bitcast %"struct.std::__1::__hash_node_base"* %1038 to %"struct.std::__1::pair"*
  %1040 = getelementptr inbounds %"struct.std::__1::pair", %"struct.std::__1::pair"* %1039, i64 0, i32 1
  call void @llvm.lifetime.end.p0i8(i64 1, i8* nonnull %326) #15
  call void @llvm.lifetime.end.p0i8(i64 8, i8* nonnull %324) #15
  call void @_ZN2sw11SpirvShader11Decorations5ApplyERKS1_(%"struct.sw::SpirvShader::Decorations"* %1040, %"struct.sw::SpirvShader::Decorations"* nonnull dereferenceable(28) %79) #14
  call void @llvm.lifetime.end.p0i8(i64 4, i8* nonnull %321) #15
  call void @llvm.lifetime.end.p0i8(i64 28, i8* nonnull %312) #15
  br label %1041

1041:                                             ; preds = %1018, %1021
  call void @llvm.lifetime.end.p0i8(i64 4, i8* nonnull %306) #15
  call void @llvm.lifetime.end.p0i8(i64 4, i8* nonnull %304) #15
  br label %1094

1042:                                             ; preds = %446, %446, %446, %446, %446, %446, %446, %446, %446, %446, %446, %446, %446, %446, %446, %446, %446, %446, %446, %446, %446, %446, %446, %446, %446, %446, %446, %446, %446, %446, %446, %446, %446, %446, %446, %446, %446, %446, %446, %446, %446, %446, %446, %446, %446, %446, %446, %446, %446, %446, %446, %446, %446, %446, %446, %446, %446, %446, %446, %446, %446, %446, %446, %446, %446, %446, %446, %446, %446, %446, %446, %446, %446, %446, %446, %446, %446, %446, %446, %446, %446, %446, %446, %446, %446, %446, %446, %446, %446, %446, %446, %446, %446, %446, %446, %446, %446, %446, %446, %446, %446, %446, %446, %446, %446, %446, %446, %446, %446, %446, %446, %446, %446, %446, %446, %446, %446, %446, %446, %446, %446, %446, %446, %446, %446, %446, %446, %446, %446, %446, %446, %446, %446, %446, %446, %446, %446, %446, %446, %446, %446, %446, %446, %446, %446, %446, %446, %446, %446, %446, %446, %446, %446, %446, %446, %446, %446, %446, %446, %446, %446
  call void @_ZN2sw11SpirvShader12DefineResultERKNS0_12InsnIteratorE(%"class.sw::SpirvShader"* %0, %"class.sw::SpirvShader::InsnIterator"* nonnull dereferenceable(8) %57) #14
  br label %1094

1043:                                             ; preds = %446
  %1044 = getelementptr inbounds i32, i32* %448, i64 3
  %1045 = load i32, i32* %1044, align 4
  call void @llvm.lifetime.start.p0i8(i64 4, i8* nonnull %299)
  store i32 %1045, i32* %300, align 4
  %1046 = call %"struct.std::__1::__hash_node_base.281"* @_ZNKSt3__112__hash_tableINS_17__hash_value_typeIN2sw7SpirvIDINS2_11SpirvShader9ExtensionEEES5_EENS_22__unordered_map_hasherIS6_S7_NS_4hashIS6_EENS_8equal_toIS6_EELb1EEENS_21__unordered_map_equalIS6_S7_SC_SA_Lb1EEENS_9allocatorIS7_EEE4findIS6_EENS_21__hash_const_iteratorIPNS_11__hash_nodeIS7_PvEEEERKT_(%"class.std::__1::__hash_table.277"* %301, %"class.sw::SpirvID.387"* nonnull dereferenceable(4) %53) #17
  %1047 = getelementptr inbounds %"struct.std::__1::__hash_node_base.281", %"struct.std::__1::__hash_node_base.281"* %1046, i64 2
  %1048 = bitcast %"struct.std::__1::__hash_node_base.281"* %1047 to %"struct.std::__1::pair.1461"*
  call void @llvm.lifetime.end.p0i8(i64 4, i8* nonnull %299)
  %1049 = getelementptr inbounds %"struct.std::__1::pair.1461", %"struct.std::__1::pair.1461"* %1048, i64 0, i32 1, i32 0
  %1050 = load i32, i32* %1049, align 4
  switch i32 %1050, label %1053 [
    i32 1, label %1051
    i32 2, label %1052
  ]

1051:                                             ; preds = %1043
  call void @_ZN2sw11SpirvShader12DefineResultERKNS0_12InsnIteratorE(%"class.sw::SpirvShader"* %0, %"class.sw::SpirvShader::InsnIterator"* nonnull dereferenceable(8) %57) #14
  br label %1094

1052:                                             ; preds = %1043
  call void @_ZN2sw11SpirvShader24DefineOpenCLDebugInfo100ERKNS0_12InsnIteratorE(%"class.sw::SpirvShader"* %0, %"class.sw::SpirvShader::InsnIterator"* nonnull dereferenceable(8) %57) #17
  br label %1094

1053:                                             ; preds = %1043
  %1054 = load i32*, i32** %298, align 8
  %1055 = getelementptr inbounds i32, i32* %1054, i64 3
  %1056 = load i32, i32* %1055, align 4
  call void @llvm.lifetime.start.p0i8(i64 4, i8* nonnull %302)
  store i32 %1056, i32* %303, align 4
  %1057 = call %"struct.std::__1::__hash_node_base.281"* @_ZNKSt3__112__hash_tableINS_17__hash_value_typeIN2sw7SpirvIDINS2_11SpirvShader9ExtensionEEES5_EENS_22__unordered_map_hasherIS6_S7_NS_4hashIS6_EENS_8equal_toIS6_EELb1EEENS_21__unordered_map_equalIS6_S7_SC_SA_Lb1EEENS_9allocatorIS7_EEE4findIS6_EENS_21__hash_const_iteratorIPNS_11__hash_nodeIS7_PvEEEERKT_(%"class.std::__1::__hash_table.277"* %301, %"class.sw::SpirvID.387"* nonnull dereferenceable(4) %54) #17
  %1058 = getelementptr inbounds %"struct.std::__1::__hash_node_base.281", %"struct.std::__1::__hash_node_base.281"* %1057, i64 2
  %1059 = bitcast %"struct.std::__1::__hash_node_base.281"* %1058 to %"struct.std::__1::pair.1461"*
  call void @llvm.lifetime.end.p0i8(i64 4, i8* nonnull %302)
  %1060 = getelementptr inbounds %"struct.std::__1::pair.1461", %"struct.std::__1::pair.1461"* %1059, i64 0, i32 1, i32 0
  %1061 = load i32, i32* %1060, align 4
  call void (i8*, ...) @_ZN2sw4warnEPKcz(i8* getelementptr inbounds ([58 x i8], [58 x i8]* @.str.13, i64 0, i64 0), i8* getelementptr inbounds ([59 x i8], [59 x i8]* @.str.1, i64 0, i64 0), i32 719, i32 %1061) #17
  br label %1094

1062:                                             ; preds = %446
  %1063 = load i16, i16* %149, align 4
  %1064 = or i16 %1063, 64
  store i16 %1064, i16* %149, align 4
  br label %1094

1065:                                             ; preds = %446
  %1066 = getelementptr inbounds i32, i32* %448, i64 1
  %1067 = bitcast i32* %1066 to i8*
  %1068 = call i32 @strcmp(i8* %1067, i8* getelementptr inbounds ([37 x i8], [37 x i8]* @.str.14, i64 0, i64 0)) #19
  %1069 = icmp eq i32 %1068, 0
  br i1 %1069, label %1094, label %1070

1070:                                             ; preds = %1065
  %1071 = call i32 @strcmp(i8* %1067, i8* getelementptr inbounds ([31 x i8], [31 x i8]* @.str.15, i64 0, i64 0)) #19
  %1072 = icmp eq i32 %1071, 0
  br i1 %1072, label %1094, label %1073

1073:                                             ; preds = %1070
  %1074 = call i32 @strcmp(i8* %1067, i8* getelementptr inbounds ([22 x i8], [22 x i8]* @.str.16, i64 0, i64 0)) #19
  %1075 = icmp eq i32 %1074, 0
  br i1 %1075, label %1094, label %1076

1076:                                             ; preds = %1073
  %1077 = call i32 @strcmp(i8* %1067, i8* getelementptr inbounds ([26 x i8], [26 x i8]* @.str.17, i64 0, i64 0)) #19
  %1078 = icmp eq i32 %1077, 0
  br i1 %1078, label %1094, label %1079

1079:                                             ; preds = %1076
  %1080 = call i32 @strcmp(i8* %1067, i8* getelementptr inbounds ([21 x i8], [21 x i8]* @.str.18, i64 0, i64 0)) #19
  %1081 = icmp eq i32 %1080, 0
  br i1 %1081, label %1094, label %1082

1082:                                             ; preds = %1079
  %1083 = call i32 @strcmp(i8* %1067, i8* getelementptr inbounds ([18 x i8], [18 x i8]* @.str.19, i64 0, i64 0)) #19
  %1084 = icmp eq i32 %1083, 0
  br i1 %1084, label %1094, label %1085

1085:                                             ; preds = %1082
  %1086 = call i32 @strcmp(i8* %1067, i8* getelementptr inbounds ([30 x i8], [30 x i8]* @.str.20, i64 0, i64 0)) #19
  %1087 = icmp eq i32 %1086, 0
  br i1 %1087, label %1094, label %1088

1088:                                             ; preds = %1085
  %1089 = call i32 @strcmp(i8* %1067, i8* getelementptr inbounds ([23 x i8], [23 x i8]* @.str.21, i64 0, i64 0)) #19
  %1090 = icmp eq i32 %1089, 0
  br i1 %1090, label %1094, label %1091

1091:                                             ; preds = %1088
  call void (i8*, ...) @_ZN2sw4warnEPKcz(i8* getelementptr inbounds ([50 x i8], [50 x i8]* @.str.8, i64 0, i64 0), i8* getelementptr inbounds ([59 x i8], [59 x i8]* @.str.1, i64 0, i64 0), i32 749, i32* %1066) #17
  br label %1094

1092:                                             ; preds = %446
  %1093 = call i8* @_ZN2sw11SpirvShader10OpcodeNameEN3spv2OpE(i32 %450) #17
  call void (i8*, ...) @_ZN2sw4warnEPKcz(i8* getelementptr inbounds ([32 x i8], [32 x i8]* @.str.22, i64 0, i64 0), i8* getelementptr inbounds ([59 x i8], [59 x i8]* @.str.1, i64 0, i64 0), i32 754, i8* %1093) #17
  br label %1094

1094:                                             ; preds = %764, %648, %601, %750, %608, %552, %446, %780, %832, %838, %689, %693, %452, %459, %464, %1091, %1065, %1070, %1073, %1076, %1079, %1082, %1085, %1088, %852, %855, %858, %861, %864, %867, %870, %873, %876, %879, %882, %885, %888, %891, %894, %897, %900, %903, %906, %909, %912, %915, %918, %921, %924, %927, %930, %933, %989, %446, %446, %446, %446, %446, %1051, %1052, %1053, %446, %446, %446, %446, %446, %446, %446, %446, %446, %446, %446, %446, %1092, %1062, %1042, %446, %446, %446, %1041, %999, %998, %997, %995, %990, %966, %965, %848, %746, %742, %736, %735, %696, %657, %551, %509, %465
  %1095 = phi i64 [ %447, %1092 ], [ %447, %1065 ], [ %447, %1070 ], [ %447, %1073 ], [ %447, %1076 ], [ %447, %1079 ], [ %447, %1082 ], [ %447, %1085 ], [ %447, %1088 ], [ %447, %1091 ], [ %447, %1062 ], [ %447, %1053 ], [ %447, %1052 ], [ %447, %1051 ], [ %447, %1042 ], [ %447, %1041 ], [ %447, %999 ], [ %447, %998 ], [ %447, %997 ], [ %447, %995 ], [ %447, %990 ], [ %447, %989 ], [ %447, %966 ], [ %447, %965 ], [ %447, %933 ], [ %447, %930 ], [ %447, %927 ], [ %447, %924 ], [ %447, %921 ], [ %447, %918 ], [ %447, %915 ], [ %447, %912 ], [ %447, %909 ], [ %447, %906 ], [ %447, %903 ], [ %447, %900 ], [ %447, %897 ], [ %447, %894 ], [ %447, %891 ], [ %447, %888 ], [ %447, %885 ], [ %447, %882 ], [ %447, %879 ], [ %447, %876 ], [ %447, %873 ], [ %447, %870 ], [ %447, %867 ], [ %447, %864 ], [ %447, %861 ], [ %447, %858 ], [ %447, %855 ], [ %447, %852 ], [ %447, %848 ], [ %447, %746 ], [ %447, %742 ], [ %447, %736 ], [ %447, %735 ], [ %447, %696 ], [ %658, %657 ], [ %447, %446 ], [ %447, %446 ], [ %447, %446 ], [ %447, %446 ], [ %447, %446 ], [ %447, %446 ], [ %447, %446 ], [ %447, %446 ], [ %447, %446 ], [ %447, %446 ], [ %447, %446 ], [ %447, %446 ], [ %447, %446 ], [ %447, %446 ], [ %447, %446 ], [ %447, %446 ], [ %447, %446 ], [ %447, %446 ], [ %447, %446 ], [ %447, %446 ], [ %447, %551 ], [ %447, %509 ], [ %447, %465 ], [ %447, %464 ], [ %447, %459 ], [ %447, %452 ], [ %447, %693 ], [ %447, %689 ], [ %447, %780 ], [ %447, %838 ], [ %447, %832 ], [ %447, %446 ], [ %447, %552 ], [ %447, %608 ], [ %447, %750 ], [ %447, %601 ], [ %447, %648 ], [ %447, %764 ]
  call void @llvm.lifetime.end.p0i8(i64 8, i8* nonnull %297) #15
  %1096 = load i32, i32* %448, align 4
  %1097 = lshr i32 %1096, 16
  %1098 = zext i32 %1097 to i64
  %1099 = getelementptr inbounds i32, i32* %448, i64 %1098
  %1100 = icmp eq i32* %1099, %294
  br i1 %1100, label %441, label %446

1101:                                             ; preds = %1102, %441
  call void @_ZN2sw11SpirvShader13dbgCreateFileEv(%"class.sw::SpirvShader"* %0) #17
  call void @llvm.lifetime.end.p0i8(i64 4, i8* nonnull %288) #15
  call void @llvm.lifetime.end.p0i8(i64 4, i8* nonnull %286) #15
  ret void

1102:                                             ; preds = %441, %1102
  %1103 = phi i64 [ %1107, %1102 ], [ %444, %441 ]
  %1104 = inttoptr i64 %1103 to %"struct.std::__1::__hash_node.1488"*
  %1105 = getelementptr inbounds %"struct.std::__1::__hash_node.1488", %"struct.std::__1::__hash_node.1488"* %1104, i64 0, i32 2, i32 0, i32 2
  call void @_ZN2sw11SpirvShader8Function17AssignBlockFieldsEv(%"class.sw::SpirvShader::Function"* %1105) #17
  %1106 = inttoptr i64 %1103 to i64*
  %1107 = load i64, i64* %1106, align 8
  %1108 = icmp eq i64 %1107, 0
  br i1 %1108, label %1101, label %1102
}

; Function Attrs: nounwind optsize ssp uwtable
define linkonce_odr hidden void @_ZNSt3__16vectorIjNS_9allocatorIjEEEC2ERKS3_(%"class.std::__1::vector"*, %"class.std::__1::vector"* dereferenceable(24)) unnamed_addr #0 comdat align 2 {
  %3 = bitcast %"class.std::__1::vector"* %0 to i8*
  tail call void @llvm.memset.p0i8.i64(i8* align 8 %3, i8 0, i64 24, i1 false) #15
  %4 = getelementptr inbounds %"class.std::__1::vector", %"class.std::__1::vector"* %1, i64 0, i32 0, i32 1
  %5 = bitcast i32** %4 to i64*
  %6 = load i64, i64* %5, align 8
  %7 = bitcast %"class.std::__1::vector"* %1 to i64*
  %8 = load i64, i64* %7, align 8
  %9 = sub i64 %6, %8
  %10 = icmp eq i64 %9, 0
  br i1 %10, label %31, label %11

11:                                               ; preds = %2
  %12 = ashr exact i64 %9, 2
  tail call void @_ZNSt3__16vectorIjNS_9allocatorIjEEE11__vallocateEm(%"class.std::__1::vector"* %0, i64 %12) #14
  %13 = getelementptr inbounds %"class.std::__1::vector", %"class.std::__1::vector"* %1, i64 0, i32 0, i32 0
  %14 = load i32*, i32** %13, align 8
  %15 = load i64, i64* %5, align 8
  %16 = getelementptr inbounds %"class.std::__1::vector", %"class.std::__1::vector"* %0, i64 0, i32 0, i32 1
  %17 = bitcast i32** %16 to i64*
  %18 = load i64, i64* %17, align 8
  %19 = ptrtoint i32* %14 to i64
  %20 = sub i64 %15, %19
  %21 = icmp sgt i64 %20, 0
  br i1 %21, label %22, label %29

22:                                               ; preds = %11
  %23 = lshr exact i64 %20, 2
  %24 = inttoptr i64 %18 to i8*
  %25 = bitcast i32* %14 to i8*
  tail call void @llvm.memcpy.p0i8.p0i8.i64(i8* align 4 %24, i8* align 4 %25, i64 %20, i1 false) #15
  %26 = inttoptr i64 %18 to i32*
  %27 = getelementptr inbounds i32, i32* %26, i64 %23
  %28 = ptrtoint i32* %27 to i64
  br label %29

29:                                               ; preds = %11, %22
  %30 = phi i64 [ %28, %22 ], [ %18, %11 ]
  store i64 %30, i64* %17, align 8
  br label %31

31:                                               ; preds = %2, %29
  ret void
}

; Function Attrs: optsize
declare void @_ZN2sw11SpirvShader7dbgInitERKNSt3__110shared_ptrIN2vk3dbg7ContextEEE(%"class.sw::SpirvShader"*, %"class.std::__1::shared_ptr"* dereferenceable(16)) local_unnamed_addr #1

; Function Attrs: argmemonly nounwind
declare void @llvm.lifetime.start.p0i8(i64 immarg, i8* nocapture) #2

; Function Attrs: argmemonly nounwind
declare void @llvm.memset.p0i8.i64(i8* nocapture writeonly, i8, i64, i1 immarg) #2

; Function Attrs: argmemonly nounwind
declare void @llvm.memcpy.p0i8.p0i8.i64(i8* nocapture writeonly, i8* nocapture readonly, i64, i1 immarg) #2

; Function Attrs: nounwind optsize ssp uwtable
define linkonce_odr hidden void @_ZNSt3__16vectorI8VkFormatNS_9allocatorIS1_EEE7reserveEm(%"class.std::__1::vector.109"*, i64) local_unnamed_addr #0 comdat align 2 {
  %3 = getelementptr inbounds %"class.std::__1::vector.109", %"class.std::__1::vector.109"* %0, i64 0, i32 0, i32 2, i32 0, i32 0
  %4 = bitcast i32** %3 to i64*
  %5 = load i64, i64* %4, align 8
  %6 = bitcast %"class.std::__1::vector.109"* %0 to i64*
  %7 = load i64, i64* %6, align 8
  %8 = sub i64 %5, %7
  %9 = ashr exact i64 %8, 2
  %10 = icmp ult i64 %9, %1
  br i1 %10, label %11, label %35

11:                                               ; preds = %2
  %12 = getelementptr inbounds %"class.std::__1::vector.109", %"class.std::__1::vector.109"* %0, i64 0, i32 0, i32 1
  %13 = bitcast i32** %12 to i64*
  %14 = icmp ugt i64 %1, 4611686018427387903
  br i1 %14, label %15, label %16

15:                                               ; preds = %11
  tail call void @abort() #18
  unreachable

16:                                               ; preds = %11
  %17 = load i64, i64* %13, align 8
  %18 = sub i64 %17, %7
  %19 = ashr exact i64 %18, 2
  %20 = shl i64 %1, 2
  %21 = tail call i8* @_Znwm(i64 %20) #16
  %22 = bitcast i8* %21 to i32*
  %23 = getelementptr inbounds i32, i32* %22, i64 %19
  %24 = ptrtoint i32* %23 to i64
  %25 = getelementptr inbounds i32, i32* %22, i64 %1
  %26 = ptrtoint i32* %25 to i64
  %27 = ptrtoint i8* %21 to i64
  %28 = icmp sgt i64 %18, 0
  br i1 %28, label %29, label %31

29:                                               ; preds = %16
  %30 = inttoptr i64 %7 to i8*
  tail call void @llvm.memcpy.p0i8.p0i8.i64(i8* nonnull align 4 %21, i8* align 4 %30, i64 %18, i1 false) #15
  br label %31

31:                                               ; preds = %16, %29
  store i64 %27, i64* %6, align 8
  store i64 %24, i64* %13, align 8
  store i64 %26, i64* %4, align 8
  %32 = icmp eq i64 %7, 0
  br i1 %32, label %35, label %33

33:                                               ; preds = %31
  %34 = inttoptr i64 %7 to i8*
  tail call void @_ZdlPv(i8* %34) #16
  br label %35

35:                                               ; preds = %33, %31, %2
  ret void
}

; Function Attrs: argmemonly nounwind
declare void @llvm.lifetime.end.p0i8(i64 immarg, i8* nocapture) #2

; Function Attrs: nounwind optsize ssp uwtable
define hidden i32 @_ZN2sw11SpirvShader21executionModelToStageEN3spv14ExecutionModelE(i32) local_unnamed_addr #0 align 2 {
  switch i32 %0, label %4 [
    i32 0, label %5
    i32 4, label %2
    i32 5, label %3
  ]

2:                                                ; preds = %1
  br label %5

3:                                                ; preds = %1
  br label %5

4:                                                ; preds = %1
  tail call void (i8*, ...) @_ZN2sw4warnEPKcz(i8* getelementptr inbounds ([48 x i8], [48 x i8]* @.str.27, i64 0, i64 0), i8* getelementptr inbounds ([59 x i8], [59 x i8]* @.str.1, i64 0, i64 0), i32 2533, i32 %0) #17
  br label %5

5:                                                ; preds = %1, %4, %3, %2
  %6 = phi i32 [ 0, %4 ], [ 32, %3 ], [ 16, %2 ], [ 1, %1 ]
  ret i32 %6
}

; Function Attrs: nofree nounwind optsize readonly
declare i32 @strcmp(i8* nocapture, i8* nocapture) local_unnamed_addr #3

; Function Attrs: nounwind optsize ssp uwtable
define hidden void @_ZN2sw11SpirvShader20ProcessExecutionModeENS0_12InsnIteratorE(%"class.sw::SpirvShader"* nocapture, i32*) local_unnamed_addr #0 align 2 {
  %3 = getelementptr inbounds i32, i32* %1, i64 1
  %4 = load i32, i32* %3, align 4
  %5 = getelementptr inbounds %"class.sw::SpirvShader", %"class.sw::SpirvShader"* %0, i64 0, i32 19, i32 0
  %6 = load i32, i32* %5, align 4
  %7 = icmp eq i32 %4, %6
  br i1 %7, label %8, label %42

8:                                                ; preds = %2
  %9 = getelementptr inbounds i32, i32* %1, i64 2
  %10 = load i32, i32* %9, align 4
  switch i32 %10, label %41 [
    i32 9, label %11
    i32 12, label %15
    i32 14, label %19
    i32 15, label %23
    i32 16, label %27
    i32 17, label %31
    i32 7, label %42
  ]

11:                                               ; preds = %8
  %12 = getelementptr inbounds %"class.sw::SpirvShader", %"class.sw::SpirvShader"* %0, i64 0, i32 11, i32 0
  %13 = load i16, i16* %12, align 4
  %14 = or i16 %13, 1
  store i16 %14, i16* %12, align 4
  br label %42

15:                                               ; preds = %8
  %16 = getelementptr inbounds %"class.sw::SpirvShader", %"class.sw::SpirvShader"* %0, i64 0, i32 11, i32 0
  %17 = load i16, i16* %16, align 4
  %18 = or i16 %17, 2
  store i16 %18, i16* %16, align 4
  br label %42

19:                                               ; preds = %8
  %20 = getelementptr inbounds %"class.sw::SpirvShader", %"class.sw::SpirvShader"* %0, i64 0, i32 11, i32 0
  %21 = load i16, i16* %20, align 4
  %22 = or i16 %21, 4
  store i16 %22, i16* %20, align 4
  br label %42

23:                                               ; preds = %8
  %24 = getelementptr inbounds %"class.sw::SpirvShader", %"class.sw::SpirvShader"* %0, i64 0, i32 11, i32 0
  %25 = load i16, i16* %24, align 4
  %26 = or i16 %25, 8
  store i16 %26, i16* %24, align 4
  br label %42

27:                                               ; preds = %8
  %28 = getelementptr inbounds %"class.sw::SpirvShader", %"class.sw::SpirvShader"* %0, i64 0, i32 11, i32 0
  %29 = load i16, i16* %28, align 4
  %30 = or i16 %29, 16
  store i16 %30, i16* %28, align 4
  br label %42

31:                                               ; preds = %8
  %32 = getelementptr inbounds i32, i32* %1, i64 3
  %33 = load i32, i32* %32, align 4
  %34 = getelementptr inbounds %"class.sw::SpirvShader", %"class.sw::SpirvShader"* %0, i64 0, i32 11, i32 1
  store i32 %33, i32* %34, align 4
  %35 = getelementptr inbounds i32, i32* %1, i64 4
  %36 = load i32, i32* %35, align 4
  %37 = getelementptr inbounds %"class.sw::SpirvShader", %"class.sw::SpirvShader"* %0, i64 0, i32 11, i32 2
  store i32 %36, i32* %37, align 4
  %38 = getelementptr inbounds i32, i32* %1, i64 5
  %39 = load i32, i32* %38, align 4
  %40 = getelementptr inbounds %"class.sw::SpirvShader", %"class.sw::SpirvShader"* %0, i64 0, i32 11, i32 3
  store i32 %39, i32* %40, align 4
  br label %42

41:                                               ; preds = %8
  tail call void (i8*, ...) @_ZN2sw4warnEPKcz(i8* getelementptr inbounds ([48 x i8], [48 x i8]* @.str.23, i64 0, i64 0), i8* getelementptr inbounds ([59 x i8], [59 x i8]* @.str.1, i64 0, i64 0), i32 963, i32 %10) #17
  br label %42

42:                                               ; preds = %2, %11, %15, %19, %23, %27, %31, %8, %41
  ret void
}

; Function Attrs: nofree norecurse nounwind optsize ssp uwtable
define hidden void @_ZN2sw11SpirvShader11Decorations5ApplyEN3spv10DecorationEj(%"struct.sw::SpirvShader::Decorations"* nocapture, i32, i32) local_unnamed_addr #4 align 2 {
  switch i32 %1, label %67 [
    i32 30, label %4
    i32 31, label %9
    i32 11, label %14
    i32 14, label %19
    i32 13, label %23
    i32 16, label %27
    i32 2, label %31
    i32 3, label %35
    i32 35, label %39
    i32 6, label %44
    i32 7, label %49
    i32 0, label %54
    i32 4, label %58
    i32 5, label %62
  ]

4:                                                ; preds = %3
  %5 = getelementptr inbounds %"struct.sw::SpirvShader::Decorations", %"struct.sw::SpirvShader::Decorations"* %0, i64 0, i32 6
  %6 = load i16, i16* %5, align 4
  %7 = or i16 %6, 1
  store i16 %7, i16* %5, align 4
  %8 = getelementptr inbounds %"struct.sw::SpirvShader::Decorations", %"struct.sw::SpirvShader::Decorations"* %0, i64 0, i32 0
  store i32 %2, i32* %8, align 4
  br label %67

9:                                                ; preds = %3
  %10 = getelementptr inbounds %"struct.sw::SpirvShader::Decorations", %"struct.sw::SpirvShader::Decorations"* %0, i64 0, i32 6
  %11 = load i16, i16* %10, align 4
  %12 = or i16 %11, 2
  store i16 %12, i16* %10, align 4
  %13 = getelementptr inbounds %"struct.sw::SpirvShader::Decorations", %"struct.sw::SpirvShader::Decorations"* %0, i64 0, i32 1
  store i32 %2, i32* %13, align 4
  br label %67

14:                                               ; preds = %3
  %15 = getelementptr inbounds %"struct.sw::SpirvShader::Decorations", %"struct.sw::SpirvShader::Decorations"* %0, i64 0, i32 6
  %16 = load i16, i16* %15, align 4
  %17 = or i16 %16, 4
  store i16 %17, i16* %15, align 4
  %18 = getelementptr inbounds %"struct.sw::SpirvShader::Decorations", %"struct.sw::SpirvShader::Decorations"* %0, i64 0, i32 2
  store i32 %2, i32* %18, align 4
  br label %67

19:                                               ; preds = %3
  %20 = getelementptr inbounds %"struct.sw::SpirvShader::Decorations", %"struct.sw::SpirvShader::Decorations"* %0, i64 0, i32 6
  %21 = load i16, i16* %20, align 4
  %22 = or i16 %21, 128
  store i16 %22, i16* %20, align 4
  br label %67

23:                                               ; preds = %3
  %24 = getelementptr inbounds %"struct.sw::SpirvShader::Decorations", %"struct.sw::SpirvShader::Decorations"* %0, i64 0, i32 6
  %25 = load i16, i16* %24, align 4
  %26 = or i16 %25, 512
  store i16 %26, i16* %24, align 4
  br label %67

27:                                               ; preds = %3
  %28 = getelementptr inbounds %"struct.sw::SpirvShader::Decorations", %"struct.sw::SpirvShader::Decorations"* %0, i64 0, i32 6
  %29 = load i16, i16* %28, align 4
  %30 = or i16 %29, 256
  store i16 %30, i16* %28, align 4
  br label %67

31:                                               ; preds = %3
  %32 = getelementptr inbounds %"struct.sw::SpirvShader::Decorations", %"struct.sw::SpirvShader::Decorations"* %0, i64 0, i32 6
  %33 = load i16, i16* %32, align 4
  %34 = or i16 %33, 1024
  store i16 %34, i16* %32, align 4
  br label %67

35:                                               ; preds = %3
  %36 = getelementptr inbounds %"struct.sw::SpirvShader::Decorations", %"struct.sw::SpirvShader::Decorations"* %0, i64 0, i32 6
  %37 = load i16, i16* %36, align 4
  %38 = or i16 %37, 2048
  store i16 %38, i16* %36, align 4
  br label %67

39:                                               ; preds = %3
  %40 = getelementptr inbounds %"struct.sw::SpirvShader::Decorations", %"struct.sw::SpirvShader::Decorations"* %0, i64 0, i32 6
  %41 = load i16, i16* %40, align 4
  %42 = or i16 %41, 8
  store i16 %42, i16* %40, align 4
  %43 = getelementptr inbounds %"struct.sw::SpirvShader::Decorations", %"struct.sw::SpirvShader::Decorations"* %0, i64 0, i32 3
  store i32 %2, i32* %43, align 4
  br label %67

44:                                               ; preds = %3
  %45 = getelementptr inbounds %"struct.sw::SpirvShader::Decorations", %"struct.sw::SpirvShader::Decorations"* %0, i64 0, i32 6
  %46 = load i16, i16* %45, align 4
  %47 = or i16 %46, 16
  store i16 %47, i16* %45, align 4
  %48 = getelementptr inbounds %"struct.sw::SpirvShader::Decorations", %"struct.sw::SpirvShader::Decorations"* %0, i64 0, i32 4
  store i32 %2, i32* %48, align 4
  br label %67

49:                                               ; preds = %3
  %50 = getelementptr inbounds %"struct.sw::SpirvShader::Decorations", %"struct.sw::SpirvShader::Decorations"* %0, i64 0, i32 6
  %51 = load i16, i16* %50, align 4
  %52 = or i16 %51, 32
  store i16 %52, i16* %50, align 4
  %53 = getelementptr inbounds %"struct.sw::SpirvShader::Decorations", %"struct.sw::SpirvShader::Decorations"* %0, i64 0, i32 5
  store i32 %2, i32* %53, align 4
  br label %67

54:                                               ; preds = %3
  %55 = getelementptr inbounds %"struct.sw::SpirvShader::Decorations", %"struct.sw::SpirvShader::Decorations"* %0, i64 0, i32 6
  %56 = load i16, i16* %55, align 4
  %57 = or i16 %56, 4096
  store i16 %57, i16* %55, align 4
  br label %67

58:                                               ; preds = %3
  %59 = getelementptr inbounds %"struct.sw::SpirvShader::Decorations", %"struct.sw::SpirvShader::Decorations"* %0, i64 0, i32 6
  %60 = load i16, i16* %59, align 4
  %61 = or i16 %60, 8256
  store i16 %61, i16* %59, align 4
  br label %67

62:                                               ; preds = %3
  %63 = getelementptr inbounds %"struct.sw::SpirvShader::Decorations", %"struct.sw::SpirvShader::Decorations"* %0, i64 0, i32 6
  %64 = load i16, i16* %63, align 4
  %65 = and i16 %64, -8257
  %66 = or i16 %65, 64
  store i16 %66, i16* %63, align 4
  br label %67

67:                                               ; preds = %62, %3, %58, %54, %49, %44, %39, %35, %31, %27, %23, %19, %14, %9, %4
  ret void
}

; Function Attrs: nounwind optsize ssp uwtable
define linkonce_odr hidden void @_ZNSt3__16vectorIN2sw11SpirvShader11DecorationsENS_9allocatorIS3_EEE6resizeEm(%"class.std::__1::vector.330"*, i64) local_unnamed_addr #0 comdat align 2 {
  %3 = getelementptr inbounds %"class.std::__1::vector.330", %"class.std::__1::vector.330"* %0, i64 0, i32 0, i32 1
  %4 = bitcast %"struct.sw::SpirvShader::Decorations"** %3 to i64*
  %5 = load i64, i64* %4, align 8
  %6 = bitcast %"class.std::__1::vector.330"* %0 to i64*
  %7 = load i64, i64* %6, align 8
  %8 = sub i64 %5, %7
  %9 = sdiv exact i64 %8, 28
  %10 = icmp ult i64 %9, %1
  %11 = inttoptr i64 %7 to %"struct.sw::SpirvShader::Decorations"*
  br i1 %10, label %12, label %14

12:                                               ; preds = %2
  %13 = sub i64 %1, %9
  tail call void @_ZNSt3__16vectorIN2sw11SpirvShader11DecorationsENS_9allocatorIS3_EEE8__appendEm(%"class.std::__1::vector.330"* %0, i64 %13) #14
  br label %18

14:                                               ; preds = %2
  %15 = icmp ugt i64 %9, %1
  br i1 %15, label %16, label %18

16:                                               ; preds = %14
  %17 = getelementptr inbounds %"struct.sw::SpirvShader::Decorations", %"struct.sw::SpirvShader::Decorations"* %11, i64 %1
  store %"struct.sw::SpirvShader::Decorations"* %17, %"struct.sw::SpirvShader::Decorations"** %3, align 8
  br label %18

18:                                               ; preds = %14, %16, %12
  ret void
}

; Function Attrs: nofree norecurse nounwind optsize ssp uwtable
define hidden void @_ZN2sw11SpirvShader11Decorations5ApplyERKS1_(%"struct.sw::SpirvShader::Decorations"* nocapture, %"struct.sw::SpirvShader::Decorations"* nocapture readonly dereferenceable(28)) local_unnamed_addr #4 align 2 {
  %3 = getelementptr inbounds %"struct.sw::SpirvShader::Decorations", %"struct.sw::SpirvShader::Decorations"* %1, i64 0, i32 6
  %4 = load i16, i16* %3, align 4
  %5 = and i16 %4, 4
  %6 = icmp eq i16 %5, 0
  br i1 %6, label %15, label %7

7:                                                ; preds = %2
  %8 = getelementptr inbounds %"struct.sw::SpirvShader::Decorations", %"struct.sw::SpirvShader::Decorations"* %0, i64 0, i32 6
  %9 = load i16, i16* %8, align 4
  %10 = or i16 %9, 4
  store i16 %10, i16* %8, align 4
  %11 = getelementptr inbounds %"struct.sw::SpirvShader::Decorations", %"struct.sw::SpirvShader::Decorations"* %1, i64 0, i32 2
  %12 = load i32, i32* %11, align 4
  %13 = getelementptr inbounds %"struct.sw::SpirvShader::Decorations", %"struct.sw::SpirvShader::Decorations"* %0, i64 0, i32 2
  store i32 %12, i32* %13, align 4
  %14 = load i16, i16* %3, align 4
  br label %15

15:                                               ; preds = %2, %7
  %16 = phi i16 [ %4, %2 ], [ %14, %7 ]
  %17 = and i16 %16, 1
  %18 = icmp eq i16 %17, 0
  br i1 %18, label %27, label %19

19:                                               ; preds = %15
  %20 = getelementptr inbounds %"struct.sw::SpirvShader::Decorations", %"struct.sw::SpirvShader::Decorations"* %0, i64 0, i32 6
  %21 = load i16, i16* %20, align 4
  %22 = or i16 %21, 1
  store i16 %22, i16* %20, align 4
  %23 = getelementptr inbounds %"struct.sw::SpirvShader::Decorations", %"struct.sw::SpirvShader::Decorations"* %1, i64 0, i32 0
  %24 = load i32, i32* %23, align 4
  %25 = getelementptr inbounds %"struct.sw::SpirvShader::Decorations", %"struct.sw::SpirvShader::Decorations"* %0, i64 0, i32 0
  store i32 %24, i32* %25, align 4
  %26 = load i16, i16* %3, align 4
  br label %27

27:                                               ; preds = %15, %19
  %28 = phi i16 [ %16, %15 ], [ %26, %19 ]
  %29 = and i16 %28, 2
  %30 = icmp eq i16 %29, 0
  br i1 %30, label %39, label %31

31:                                               ; preds = %27
  %32 = getelementptr inbounds %"struct.sw::SpirvShader::Decorations", %"struct.sw::SpirvShader::Decorations"* %0, i64 0, i32 6
  %33 = load i16, i16* %32, align 4
  %34 = or i16 %33, 2
  store i16 %34, i16* %32, align 4
  %35 = getelementptr inbounds %"struct.sw::SpirvShader::Decorations", %"struct.sw::SpirvShader::Decorations"* %1, i64 0, i32 1
  %36 = load i32, i32* %35, align 4
  %37 = getelementptr inbounds %"struct.sw::SpirvShader::Decorations", %"struct.sw::SpirvShader::Decorations"* %0, i64 0, i32 1
  store i32 %36, i32* %37, align 4
  %38 = load i16, i16* %3, align 4
  br label %39

39:                                               ; preds = %27, %31
  %40 = phi i16 [ %28, %27 ], [ %38, %31 ]
  %41 = and i16 %40, 8
  %42 = icmp eq i16 %41, 0
  br i1 %42, label %51, label %43

43:                                               ; preds = %39
  %44 = getelementptr inbounds %"struct.sw::SpirvShader::Decorations", %"struct.sw::SpirvShader::Decorations"* %0, i64 0, i32 6
  %45 = load i16, i16* %44, align 4
  %46 = or i16 %45, 8
  store i16 %46, i16* %44, align 4
  %47 = getelementptr inbounds %"struct.sw::SpirvShader::Decorations", %"struct.sw::SpirvShader::Decorations"* %1, i64 0, i32 3
  %48 = load i32, i32* %47, align 4
  %49 = getelementptr inbounds %"struct.sw::SpirvShader::Decorations", %"struct.sw::SpirvShader::Decorations"* %0, i64 0, i32 3
  store i32 %48, i32* %49, align 4
  %50 = load i16, i16* %3, align 4
  br label %51

51:                                               ; preds = %39, %43
  %52 = phi i16 [ %40, %39 ], [ %50, %43 ]
  %53 = and i16 %52, 16
  %54 = icmp eq i16 %53, 0
  br i1 %54, label %63, label %55

55:                                               ; preds = %51
  %56 = getelementptr inbounds %"struct.sw::SpirvShader::Decorations", %"struct.sw::SpirvShader::Decorations"* %0, i64 0, i32 6
  %57 = load i16, i16* %56, align 4
  %58 = or i16 %57, 16
  store i16 %58, i16* %56, align 4
  %59 = getelementptr inbounds %"struct.sw::SpirvShader::Decorations", %"struct.sw::SpirvShader::Decorations"* %1, i64 0, i32 4
  %60 = load i32, i32* %59, align 4
  %61 = getelementptr inbounds %"struct.sw::SpirvShader::Decorations", %"struct.sw::SpirvShader::Decorations"* %0, i64 0, i32 4
  store i32 %60, i32* %61, align 4
  %62 = load i16, i16* %3, align 4
  br label %63

63:                                               ; preds = %51, %55
  %64 = phi i16 [ %52, %51 ], [ %62, %55 ]
  %65 = and i16 %64, 32
  %66 = icmp eq i16 %65, 0
  br i1 %66, label %75, label %67

67:                                               ; preds = %63
  %68 = getelementptr inbounds %"struct.sw::SpirvShader::Decorations", %"struct.sw::SpirvShader::Decorations"* %0, i64 0, i32 6
  %69 = load i16, i16* %68, align 4
  %70 = or i16 %69, 32
  store i16 %70, i16* %68, align 4
  %71 = getelementptr inbounds %"struct.sw::SpirvShader::Decorations", %"struct.sw::SpirvShader::Decorations"* %1, i64 0, i32 5
  %72 = load i32, i32* %71, align 4
  %73 = getelementptr inbounds %"struct.sw::SpirvShader::Decorations", %"struct.sw::SpirvShader::Decorations"* %0, i64 0, i32 5
  store i32 %72, i32* %73, align 4
  %74 = load i16, i16* %3, align 4
  br label %75

75:                                               ; preds = %63, %67
  %76 = phi i16 [ %64, %63 ], [ %74, %67 ]
  %77 = and i16 %76, 64
  %78 = icmp eq i16 %77, 0
  %79 = getelementptr inbounds %"struct.sw::SpirvShader::Decorations", %"struct.sw::SpirvShader::Decorations"* %0, i64 0, i32 6
  %80 = load i16, i16* %79, align 4
  br i1 %78, label %88, label %81

81:                                               ; preds = %75
  %82 = or i16 %80, 64
  store i16 %82, i16* %79, align 4
  %83 = load i16, i16* %3, align 4
  %84 = and i16 %83, 8192
  %85 = and i16 %82, -8193
  %86 = or i16 %84, %85
  store i16 %86, i16* %79, align 4
  %87 = load i16, i16* %3, align 4
  br label %88

88:                                               ; preds = %75, %81
  %89 = phi i16 [ %86, %81 ], [ %80, %75 ]
  %90 = phi i16 [ %87, %81 ], [ %76, %75 ]
  %91 = getelementptr inbounds %"struct.sw::SpirvShader::Decorations", %"struct.sw::SpirvShader::Decorations"* %0, i64 0, i32 6
  %92 = and i16 %90, 128
  %93 = or i16 %92, %89
  store i16 %93, i16* %91, align 4
  %94 = load i16, i16* %3, align 4
  %95 = or i16 %94, %89
  %96 = and i16 %95, 512
  %97 = and i16 %93, -513
  %98 = or i16 %96, %97
  store i16 %98, i16* %91, align 4
  %99 = load i16, i16* %3, align 4
  %100 = or i16 %99, %89
  %101 = and i16 %100, 256
  %102 = and i16 %98, -257
  %103 = or i16 %102, %101
  store i16 %103, i16* %91, align 4
  %104 = load i16, i16* %3, align 4
  %105 = or i16 %104, %89
  %106 = and i16 %105, 1024
  %107 = and i16 %103, -1025
  %108 = or i16 %107, %106
  store i16 %108, i16* %91, align 4
  %109 = load i16, i16* %3, align 4
  %110 = or i16 %109, %89
  %111 = and i16 %110, 2048
  %112 = and i16 %108, -2049
  %113 = or i16 %112, %111
  store i16 %113, i16* %91, align 4
  %114 = load i16, i16* %3, align 4
  %115 = or i16 %114, %89
  %116 = and i16 %115, 4096
  %117 = and i16 %113, -4097
  %118 = or i16 %117, %116
  store i16 %118, i16* %91, align 4
  %119 = load i16, i16* %3, align 4
  %120 = or i16 %119, %89
  %121 = and i16 %120, 16384
  %122 = and i16 %118, -16385
  %123 = or i16 %122, %121
  store i16 %123, i16* %91, align 4
  ret void
}

; Function Attrs: nofree norecurse nounwind optsize ssp uwtable
define hidden void @_ZN2sw11SpirvShader21DescriptorDecorations5ApplyERKS1_(%"struct.sw::SpirvShader::DescriptorDecorations"* nocapture, %"struct.sw::SpirvShader::DescriptorDecorations"* nocapture readonly dereferenceable(12)) local_unnamed_addr #4 align 2 {
  %3 = getelementptr inbounds %"struct.sw::SpirvShader::DescriptorDecorations", %"struct.sw::SpirvShader::DescriptorDecorations"* %1, i64 0, i32 0
  %4 = load i32, i32* %3, align 4
  %5 = icmp sgt i32 %4, -1
  br i1 %5, label %6, label %8

6:                                                ; preds = %2
  %7 = getelementptr inbounds %"struct.sw::SpirvShader::DescriptorDecorations", %"struct.sw::SpirvShader::DescriptorDecorations"* %0, i64 0, i32 0
  store i32 %4, i32* %7, align 4
  br label %8

8:                                                ; preds = %6, %2
  %9 = getelementptr inbounds %"struct.sw::SpirvShader::DescriptorDecorations", %"struct.sw::SpirvShader::DescriptorDecorations"* %1, i64 0, i32 1
  %10 = load i32, i32* %9, align 4
  %11 = icmp sgt i32 %10, -1
  br i1 %11, label %12, label %14

12:                                               ; preds = %8
  %13 = getelementptr inbounds %"struct.sw::SpirvShader::DescriptorDecorations", %"struct.sw::SpirvShader::DescriptorDecorations"* %0, i64 0, i32 1
  store i32 %10, i32* %13, align 4
  br label %14

14:                                               ; preds = %12, %8
  %15 = getelementptr inbounds %"struct.sw::SpirvShader::DescriptorDecorations", %"struct.sw::SpirvShader::DescriptorDecorations"* %1, i64 0, i32 2
  %16 = load i32, i32* %15, align 4
  %17 = icmp sgt i32 %16, -1
  br i1 %17, label %18, label %20

18:                                               ; preds = %14
  %19 = getelementptr inbounds %"struct.sw::SpirvShader::DescriptorDecorations", %"struct.sw::SpirvShader::DescriptorDecorations"* %0, i64 0, i32 2
  store i32 %16, i32* %19, align 4
  br label %20

20:                                               ; preds = %18, %14
  ret void
}

; Function Attrs: optsize
declare void @_ZN2sw11SpirvShader5BlockC1ENS0_12InsnIteratorES2_(%"class.sw::SpirvShader::Block"*, i32*, i32*) unnamed_addr #1

; Function Attrs: nounwind optsize ssp uwtable
define hidden void @_ZN2sw11SpirvShader11DeclareTypeENS0_12InsnIteratorE(%"class.sw::SpirvShader"*, i32*) local_unnamed_addr #0 align 2 {
  %3 = alloca %"class.std::__1::tuple.1576", align 8
  %4 = alloca %"class.std::__1::tuple.1554", align 1
  %5 = alloca %"class.sw::SpirvID.329", align 4
  %6 = alloca %"class.sw::SpirvID.329", align 4
  %7 = ptrtoint i32* %1 to i64
  %8 = bitcast %"class.sw::SpirvID.329"* %6 to i8*
  call void @llvm.lifetime.start.p0i8(i64 4, i8* nonnull %8) #15
  %9 = getelementptr inbounds %"class.sw::SpirvID.329", %"class.sw::SpirvID.329"* %6, i64 0, i32 0
  %10 = getelementptr inbounds i32, i32* %1, i64 1
  %11 = load i32, i32* %10, align 4
  store i32 %11, i32* %9, align 4
  %12 = getelementptr inbounds %"class.sw::SpirvShader", %"class.sw::SpirvShader"* %0, i64 0, i32 13, i32 0
  %13 = bitcast %"class.std::__1::tuple.1576"* %3 to i8*
  call void @llvm.lifetime.start.p0i8(i64 8, i8* nonnull %13) #15
  %14 = getelementptr inbounds %"class.std::__1::tuple.1576", %"class.std::__1::tuple.1576"* %3, i64 0, i32 0, i32 0, i32 0
  store %"class.sw::SpirvID.329"* %6, %"class.sw::SpirvID.329"** %14, align 8
  %15 = getelementptr inbounds %"class.std::__1::tuple.1554", %"class.std::__1::tuple.1554"* %4, i64 0, i32 0
  call void @llvm.lifetime.start.p0i8(i64 1, i8* nonnull %15) #15
  %16 = call { %"struct.std::__1::__hash_node_base.179"*, i8 } @_ZNSt3__112__hash_tableINS_17__hash_value_typeIN2sw7SpirvIDINS2_11SpirvShader4TypeEEES5_EENS_22__unordered_map_hasherIS6_S7_NS_4hashIS6_EENS_8equal_toIS6_EELb1EEENS_21__unordered_map_equalIS6_S7_SC_SA_Lb1EEENS_9allocatorIS7_EEE25__emplace_unique_key_argsIS6_JRKNS_21piecewise_construct_tENS_5tupleIJRKS6_EEENSN_IJEEEEEENS_4pairINS_15__hash_iteratorIPNS_11__hash_nodeIS7_PvEEEEbEERKT_DpOT0_(%"class.std::__1::__hash_table.175"* %12, %"class.sw::SpirvID.329"* nonnull dereferenceable(4) %6, %"struct.std::__1::piecewise_construct_t"* nonnull dereferenceable(1) @_ZNSt3__1L19piecewise_constructE, %"class.std::__1::tuple.1576"* nonnull dereferenceable(8) %3, %"class.std::__1::tuple.1554"* nonnull dereferenceable(1) %4) #17
  %17 = extractvalue { %"struct.std::__1::__hash_node_base.179"*, i8 } %16, 0
  %18 = getelementptr inbounds %"struct.std::__1::__hash_node_base.179", %"struct.std::__1::__hash_node_base.179"* %17, i64 3
  %19 = bitcast %"struct.std::__1::__hash_node_base.179"* %18 to %"class.sw::SpirvShader::Type"*
  call void @llvm.lifetime.end.p0i8(i64 1, i8* nonnull %15) #15
  call void @llvm.lifetime.end.p0i8(i64 8, i8* nonnull %13) #15
  %20 = bitcast %"struct.std::__1::__hash_node_base.179"* %18 to i64*
  store i64 %7, i64* %20, align 8
  %21 = call i32 @_ZN2sw11SpirvShader15ComputeTypeSizeENS0_12InsnIteratorE(%"class.sw::SpirvShader"* %0, i32* %1) #14
  %22 = getelementptr inbounds %"class.sw::SpirvShader::Type", %"class.sw::SpirvShader::Type"* %19, i64 0, i32 2
  store i32 %21, i32* %22, align 4
  %23 = load i32, i32* %1, align 4
  %24 = trunc i32 %23 to i16
  switch i16 %24, label %69 [
    i16 30, label %25
    i16 32, label %49
    i16 23, label %65
    i16 24, label %65
    i16 28, label %65
    i16 29, label %65
  ]

25:                                               ; preds = %2
  %26 = getelementptr inbounds %"class.sw::SpirvShader", %"class.sw::SpirvShader"* %0, i64 0, i32 2, i32 0
  %27 = call %"struct.std::__1::__hash_node_base.60"* @_ZNSt3__112__hash_tableINS_17__hash_value_typeIN2sw7SpirvIDINS2_11SpirvShader4TypeEEENS_6vectorINS4_11DecorationsENS_9allocatorIS8_EEEEEENS_22__unordered_map_hasherIS6_SC_NS_4hashIS6_EENS_8equal_toIS6_EELb1EEENS_21__unordered_map_equalIS6_SC_SH_SF_Lb1EEENS9_ISC_EEE4findIS6_EENS_15__hash_iteratorIPNS_11__hash_nodeISC_PvEEEERKT_(%"class.std::__1::__hash_table.56"* %26, %"class.sw::SpirvID.329"* nonnull dereferenceable(4) %6) #17
  %28 = icmp eq %"struct.std::__1::__hash_node_base.60"* %27, null
  br i1 %28, label %69, label %29

29:                                               ; preds = %25
  %30 = getelementptr inbounds %"struct.std::__1::__hash_node_base.60", %"struct.std::__1::__hash_node_base.60"* %27, i64 3
  %31 = bitcast %"struct.std::__1::__hash_node_base.60"* %30 to %"struct.sw::SpirvShader::Decorations"**
  %32 = load %"struct.sw::SpirvShader::Decorations"*, %"struct.sw::SpirvShader::Decorations"** %31, align 8
  %33 = getelementptr inbounds %"struct.std::__1::__hash_node_base.60", %"struct.std::__1::__hash_node_base.60"* %27, i64 4
  %34 = bitcast %"struct.std::__1::__hash_node_base.60"* %33 to %"struct.sw::SpirvShader::Decorations"**
  %35 = load %"struct.sw::SpirvShader::Decorations"*, %"struct.sw::SpirvShader::Decorations"** %34, align 8
  %36 = icmp eq %"struct.sw::SpirvShader::Decorations"* %32, %35
  br i1 %36, label %69, label %39

37:                                               ; preds = %39
  %38 = icmp eq %"struct.sw::SpirvShader::Decorations"* %45, %35
  br i1 %38, label %69, label %39

39:                                               ; preds = %29, %37
  %40 = phi %"struct.sw::SpirvShader::Decorations"* [ %45, %37 ], [ %32, %29 ]
  %41 = getelementptr inbounds %"struct.sw::SpirvShader::Decorations", %"struct.sw::SpirvShader::Decorations"* %40, i64 0, i32 6
  %42 = load i16, i16* %41, align 4
  %43 = and i16 %42, 4
  %44 = icmp eq i16 %43, 0
  %45 = getelementptr inbounds %"struct.sw::SpirvShader::Decorations", %"struct.sw::SpirvShader::Decorations"* %40, i64 1
  br i1 %44, label %37, label %46

46:                                               ; preds = %39
  %47 = getelementptr inbounds %"struct.std::__1::__hash_node_base.179", %"struct.std::__1::__hash_node_base.179"* %17, i64 5
  %48 = bitcast %"struct.std::__1::__hash_node_base.179"* %47 to i8*
  store i8 1, i8* %48, align 8
  br label %69

49:                                               ; preds = %2
  %50 = getelementptr inbounds i32, i32* %1, i64 3
  %51 = load i32, i32* %50, align 4
  %52 = getelementptr inbounds %"class.sw::SpirvShader::Type", %"class.sw::SpirvShader::Type"* %19, i64 0, i32 4, i32 0
  store i32 %51, i32* %52, align 4
  %53 = bitcast %"class.sw::SpirvID.329"* %5 to i8*
  call void @llvm.lifetime.start.p0i8(i64 4, i8* nonnull %53)
  %54 = getelementptr inbounds %"class.sw::SpirvID.329", %"class.sw::SpirvID.329"* %5, i64 0, i32 0
  store i32 %51, i32* %54, align 4
  %55 = call %"struct.std::__1::__hash_node_base.179"* @_ZNKSt3__112__hash_tableINS_17__hash_value_typeIN2sw7SpirvIDINS2_11SpirvShader4TypeEEES5_EENS_22__unordered_map_hasherIS6_S7_NS_4hashIS6_EENS_8equal_toIS6_EELb1EEENS_21__unordered_map_equalIS6_S7_SC_SA_Lb1EEENS_9allocatorIS7_EEE4findIS6_EENS_21__hash_const_iteratorIPNS_11__hash_nodeIS7_PvEEEERKT_(%"class.std::__1::__hash_table.175"* %12, %"class.sw::SpirvID.329"* nonnull dereferenceable(4) %5) #17
  call void @llvm.lifetime.end.p0i8(i64 4, i8* nonnull %53)
  %56 = getelementptr inbounds %"struct.std::__1::__hash_node_base.179", %"struct.std::__1::__hash_node_base.179"* %55, i64 5
  %57 = bitcast %"struct.std::__1::__hash_node_base.179"* %56 to i8*
  %58 = load i8, i8* %57, align 8, !range !5
  %59 = getelementptr inbounds %"struct.std::__1::__hash_node_base.179", %"struct.std::__1::__hash_node_base.179"* %17, i64 5
  %60 = bitcast %"struct.std::__1::__hash_node_base.179"* %59 to i8*
  store i8 %58, i8* %60, align 8
  %61 = getelementptr inbounds i32, i32* %1, i64 2
  %62 = load i32, i32* %61, align 4
  %63 = getelementptr inbounds %"struct.std::__1::__hash_node_base.179", %"struct.std::__1::__hash_node_base.179"* %17, i64 4
  %64 = bitcast %"struct.std::__1::__hash_node_base.179"* %63 to i32*
  store i32 %62, i32* %64, align 8
  br label %69

65:                                               ; preds = %2, %2, %2, %2
  %66 = getelementptr inbounds i32, i32* %1, i64 2
  %67 = load i32, i32* %66, align 4
  %68 = getelementptr inbounds %"class.sw::SpirvShader::Type", %"class.sw::SpirvShader::Type"* %19, i64 0, i32 4, i32 0
  store i32 %67, i32* %68, align 4
  br label %69

69:                                               ; preds = %37, %29, %25, %46, %2, %65, %49
  call void @llvm.lifetime.end.p0i8(i64 4, i8* nonnull %8) #15
  ret void
}

; Function Attrs: nounwind optsize ssp uwtable
define hidden void @_ZN2sw11SpirvShader24ProcessInterfaceVariableERNS0_6ObjectE(%"class.sw::SpirvShader"*, %"class.sw::SpirvShader::Object"* nocapture dereferenceable(40)) local_unnamed_addr #0 align 2 {
  %3 = alloca %"class.sw::SpirvID.329", align 4
  %4 = alloca %"class.std::__1::tuple.1675", align 8
  %5 = alloca %"class.std::__1::tuple.1554", align 1
  %6 = alloca %"class.std::__1::tuple.1675", align 8
  %7 = alloca %"class.std::__1::tuple.1554", align 1
  %8 = alloca %"class.sw::SpirvID.329", align 4
  %9 = alloca %"class.sw::SpirvID.329", align 4
  %10 = alloca %"class.sw::SpirvShader::TypeOrObjectID", align 4
  %11 = alloca %"class.std::__1::function", align 8
  %12 = getelementptr inbounds %"class.sw::SpirvShader::Object", %"class.sw::SpirvShader::Object"* %1, i64 0, i32 0, i32 0, i32 0
  %13 = load i32*, i32** %12, align 8
  %14 = getelementptr inbounds i32, i32* %13, i64 1
  %15 = load i32, i32* %14, align 4
  %16 = bitcast %"class.sw::SpirvID.329"* %9 to i8*
  call void @llvm.lifetime.start.p0i8(i64 4, i8* nonnull %16) #15
  %17 = getelementptr inbounds %"class.sw::SpirvID.329", %"class.sw::SpirvID.329"* %9, i64 0, i32 0
  store i32 %15, i32* %17, align 4
  %18 = getelementptr inbounds %"class.sw::SpirvShader", %"class.sw::SpirvShader"* %0, i64 0, i32 13, i32 0
  %19 = call %"struct.std::__1::__hash_node_base.179"* @_ZNKSt3__112__hash_tableINS_17__hash_value_typeIN2sw7SpirvIDINS2_11SpirvShader4TypeEEES5_EENS_22__unordered_map_hasherIS6_S7_NS_4hashIS6_EENS_8equal_toIS6_EELb1EEENS_21__unordered_map_equalIS6_S7_SC_SA_Lb1EEENS_9allocatorIS7_EEE4findIS6_EENS_21__hash_const_iteratorIPNS_11__hash_nodeIS7_PvEEEERKT_(%"class.std::__1::__hash_table.175"* %18, %"class.sw::SpirvID.329"* nonnull dereferenceable(4) %9) #17
  %20 = getelementptr inbounds %"struct.std::__1::__hash_node_base.179", %"struct.std::__1::__hash_node_base.179"* %19, i64 3
  %21 = bitcast %"struct.std::__1::__hash_node_base.179"* %20 to %"class.sw::SpirvShader::Type"*
  call void @llvm.lifetime.end.p0i8(i64 4, i8* nonnull %16) #15
  %22 = getelementptr inbounds %"class.sw::SpirvShader::Type", %"class.sw::SpirvShader::Type"* %21, i64 0, i32 4, i32 0
  %23 = load i32, i32* %22, align 4
  %24 = bitcast %"class.sw::SpirvID.329"* %8 to i8*
  call void @llvm.lifetime.start.p0i8(i64 4, i8* nonnull %24)
  %25 = getelementptr inbounds %"class.sw::SpirvID.329", %"class.sw::SpirvID.329"* %8, i64 0, i32 0
  store i32 %23, i32* %25, align 4
  %26 = call %"struct.std::__1::__hash_node_base.179"* @_ZNKSt3__112__hash_tableINS_17__hash_value_typeIN2sw7SpirvIDINS2_11SpirvShader4TypeEEES5_EENS_22__unordered_map_hasherIS6_S7_NS_4hashIS6_EENS_8equal_toIS6_EELb1EEENS_21__unordered_map_equalIS6_S7_SC_SA_Lb1EEENS_9allocatorIS7_EEE4findIS6_EENS_21__hash_const_iteratorIPNS_11__hash_nodeIS7_PvEEEERKT_(%"class.std::__1::__hash_table.175"* %18, %"class.sw::SpirvID.329"* nonnull dereferenceable(4) %8) #17
  %27 = getelementptr inbounds %"struct.std::__1::__hash_node_base.179", %"struct.std::__1::__hash_node_base.179"* %26, i64 3
  %28 = bitcast %"struct.std::__1::__hash_node_base.179"* %27 to %"class.sw::SpirvShader::Type"*
  call void @llvm.lifetime.end.p0i8(i64 4, i8* nonnull %24)
  %29 = bitcast %"struct.std::__1::__hash_node_base.179"* %27 to i32**
  %30 = load i32*, i32** %29, align 8
  %31 = getelementptr inbounds %"class.sw::SpirvShader::Type", %"class.sw::SpirvShader::Type"* %28, i64 0, i32 2
  %32 = load i32, i32* %31, align 4
  %33 = getelementptr inbounds %"struct.std::__1::__hash_node_base.179", %"struct.std::__1::__hash_node_base.179"* %19, i64 4
  %34 = bitcast %"struct.std::__1::__hash_node_base.179"* %33 to i32*
  %35 = load i32, i32* %34, align 8
  %36 = icmp eq i32 %35, 1
  %37 = getelementptr inbounds %"class.sw::SpirvShader", %"class.sw::SpirvShader"* %0, i64 0, i32 7
  %38 = getelementptr inbounds %"class.sw::SpirvShader", %"class.sw::SpirvShader"* %0, i64 0, i32 8
  %39 = select i1 %36, %"class.std::__1::unordered_map.123"* %37, %"class.std::__1::unordered_map.123"* %38
  %40 = getelementptr inbounds %"class.sw::SpirvShader", %"class.sw::SpirvShader"* %0, i64 0, i32 5
  %41 = getelementptr inbounds %"class.sw::SpirvShader", %"class.sw::SpirvShader"* %0, i64 0, i32 6
  %42 = select i1 %36, %"class.std::__1::vector.116"* %40, %"class.std::__1::vector.116"* %41
  %43 = load i32*, i32** %12, align 8
  %44 = getelementptr inbounds i32, i32* %43, i64 2
  %45 = load i32, i32* %44, align 4
  %46 = getelementptr inbounds %"struct.std::__1::__hash_node_base.179", %"struct.std::__1::__hash_node_base.179"* %19, i64 5
  %47 = bitcast %"struct.std::__1::__hash_node_base.179"* %46 to i8*
  %48 = load i8, i8* %47, align 8, !range !5
  %49 = icmp eq i8 %48, 0
  br i1 %49, label %102, label %50

50:                                               ; preds = %2
  %51 = getelementptr inbounds %"class.sw::SpirvShader::Type", %"class.sw::SpirvShader::Type"* %21, i64 0, i32 4
  %52 = getelementptr inbounds %"class.sw::SpirvShader", %"class.sw::SpirvShader"* %0, i64 0, i32 2, i32 0
  %53 = call %"struct.std::__1::__hash_node_base.60"* @_ZNSt3__112__hash_tableINS_17__hash_value_typeIN2sw7SpirvIDINS2_11SpirvShader4TypeEEENS_6vectorINS4_11DecorationsENS_9allocatorIS8_EEEEEENS_22__unordered_map_hasherIS6_SC_NS_4hashIS6_EENS_8equal_toIS6_EELb1EEENS_21__unordered_map_equalIS6_SC_SH_SF_Lb1EEENS9_ISC_EEE4findIS6_EENS_15__hash_iteratorIPNS_11__hash_nodeISC_PvEEEERKT_(%"class.std::__1::__hash_table.56"* %52, %"class.sw::SpirvID.329"* dereferenceable(4) %51) #17
  %54 = getelementptr inbounds %"struct.std::__1::__hash_node_base.60", %"struct.std::__1::__hash_node_base.60"* %53, i64 3
  %55 = bitcast %"struct.std::__1::__hash_node_base.60"* %54 to %"struct.sw::SpirvShader::Decorations"**
  %56 = load %"struct.sw::SpirvShader::Decorations"*, %"struct.sw::SpirvShader::Decorations"** %55, align 8
  %57 = getelementptr inbounds %"struct.std::__1::__hash_node_base.60", %"struct.std::__1::__hash_node_base.60"* %53, i64 4
  %58 = bitcast %"struct.std::__1::__hash_node_base.60"* %57 to %"struct.sw::SpirvShader::Decorations"**
  %59 = load %"struct.sw::SpirvShader::Decorations"*, %"struct.sw::SpirvShader::Decorations"** %58, align 8
  %60 = icmp eq %"struct.sw::SpirvShader::Decorations"* %56, %59
  br i1 %60, label %144, label %61

61:                                               ; preds = %50
  %62 = bitcast %"class.sw::SpirvID.329"* %3 to i8*
  %63 = getelementptr inbounds %"class.sw::SpirvID.329", %"class.sw::SpirvID.329"* %3, i64 0, i32 0
  %64 = getelementptr inbounds %"class.std::__1::unordered_map.123", %"class.std::__1::unordered_map.123"* %39, i64 0, i32 0
  %65 = bitcast %"class.std::__1::tuple.1675"* %4 to i8*
  %66 = getelementptr inbounds %"class.std::__1::tuple.1675", %"class.std::__1::tuple.1675"* %4, i64 0, i32 0, i32 0, i32 0
  %67 = getelementptr inbounds %"class.std::__1::tuple.1554", %"class.std::__1::tuple.1554"* %5, i64 0, i32 0
  br label %68

68:                                               ; preds = %61, %95
  %69 = phi i32 [ 0, %61 ], [ %99, %95 ]
  %70 = phi i32 [ 0, %61 ], [ %98, %95 ]
  %71 = phi %"struct.sw::SpirvShader::Decorations"* [ %56, %61 ], [ %100, %95 ]
  %72 = add i32 %69, 2
  %73 = zext i32 %72 to i64
  %74 = getelementptr inbounds i32, i32* %30, i64 %73
  %75 = load i32, i32* %74, align 4
  call void @llvm.lifetime.start.p0i8(i64 4, i8* nonnull %62)
  store i32 %75, i32* %63, align 4
  %76 = call %"struct.std::__1::__hash_node_base.179"* @_ZNKSt3__112__hash_tableINS_17__hash_value_typeIN2sw7SpirvIDINS2_11SpirvShader4TypeEEES5_EENS_22__unordered_map_hasherIS6_S7_NS_4hashIS6_EENS_8equal_toIS6_EELb1EEENS_21__unordered_map_equalIS6_S7_SC_SA_Lb1EEENS_9allocatorIS7_EEE4findIS6_EENS_21__hash_const_iteratorIPNS_11__hash_nodeIS7_PvEEEERKT_(%"class.std::__1::__hash_table.175"* %18, %"class.sw::SpirvID.329"* nonnull dereferenceable(4) %3) #17
  %77 = getelementptr inbounds %"struct.std::__1::__hash_node_base.179", %"struct.std::__1::__hash_node_base.179"* %76, i64 3
  %78 = bitcast %"struct.std::__1::__hash_node_base.179"* %77 to %"class.sw::SpirvShader::Type"*
  call void @llvm.lifetime.end.p0i8(i64 4, i8* nonnull %62)
  %79 = getelementptr inbounds %"struct.sw::SpirvShader::Decorations", %"struct.sw::SpirvShader::Decorations"* %71, i64 0, i32 6
  %80 = load i16, i16* %79, align 4
  %81 = and i16 %80, 4
  %82 = icmp eq i16 %81, 0
  br i1 %82, label %95, label %83

83:                                               ; preds = %68
  %84 = getelementptr inbounds %"class.sw::SpirvShader::Type", %"class.sw::SpirvShader::Type"* %78, i64 0, i32 2
  %85 = load i32, i32* %84, align 4
  %86 = getelementptr inbounds %"struct.sw::SpirvShader::Decorations", %"struct.sw::SpirvShader::Decorations"* %71, i64 0, i32 2
  call void @llvm.lifetime.start.p0i8(i64 8, i8* nonnull %65) #15
  store i32* %86, i32** %66, align 8
  call void @llvm.lifetime.start.p0i8(i64 1, i8* nonnull %67) #15
  %87 = call { %"struct.std::__1::__hash_node_base.128"*, i8 } @_ZNSt3__112__hash_tableINS_17__hash_value_typeIN3spv7BuiltInEN2sw11SpirvShader14BuiltinMappingEEENS_22__unordered_map_hasherIS3_S7_NS_4hashIjEENS_8equal_toIS3_EELb1EEENS_21__unordered_map_equalIS3_S7_SC_SA_Lb1EEENS_9allocatorIS7_EEE25__emplace_unique_key_argsIS3_JRKNS_21piecewise_construct_tENS_5tupleIJRKS3_EEENSN_IJEEEEEENS_4pairINS_15__hash_iteratorIPNS_11__hash_nodeIS7_PvEEEEbEERKT_DpOT0_(%"class.std::__1::__hash_table.124"* %64, i32* dereferenceable(4) %86, %"struct.std::__1::piecewise_construct_t"* nonnull dereferenceable(1) @_ZNSt3__1L19piecewise_constructE, %"class.std::__1::tuple.1675"* nonnull dereferenceable(8) %4, %"class.std::__1::tuple.1554"* nonnull dereferenceable(1) %5) #17
  %88 = extractvalue { %"struct.std::__1::__hash_node_base.128"*, i8 } %87, 0
  %89 = getelementptr inbounds %"struct.std::__1::__hash_node_base.128", %"struct.std::__1::__hash_node_base.128"* %88, i64 2
  %90 = bitcast %"struct.std::__1::__hash_node_base.128"* %89 to %"struct.std::__1::pair.1530"*
  call void @llvm.lifetime.end.p0i8(i64 1, i8* nonnull %67) #15
  call void @llvm.lifetime.end.p0i8(i64 8, i8* nonnull %65) #15
  %91 = getelementptr inbounds %"struct.std::__1::pair.1530", %"struct.std::__1::pair.1530"* %90, i64 0, i32 1, i32 0, i32 0
  store i32 %45, i32* %91, align 4
  %92 = getelementptr inbounds %"struct.std::__1::__hash_node_base.128", %"struct.std::__1::__hash_node_base.128"* %88, i64 3
  %93 = bitcast %"struct.std::__1::__hash_node_base.128"* %92 to i32*
  store i32 %70, i32* %93, align 4
  %94 = getelementptr inbounds %"struct.std::__1::pair.1530", %"struct.std::__1::pair.1530"* %90, i64 0, i32 1, i32 2
  store i32 %85, i32* %94, align 4
  br label %95

95:                                               ; preds = %68, %83
  %96 = getelementptr inbounds %"class.sw::SpirvShader::Type", %"class.sw::SpirvShader::Type"* %78, i64 0, i32 2
  %97 = load i32, i32* %96, align 4
  %98 = add i32 %97, %70
  %99 = add i32 %69, 1
  %100 = getelementptr inbounds %"struct.sw::SpirvShader::Decorations", %"struct.sw::SpirvShader::Decorations"* %71, i64 1
  %101 = icmp eq %"struct.sw::SpirvShader::Decorations"* %100, %59
  br i1 %101, label %144, label %68

102:                                              ; preds = %2
  %103 = bitcast %"class.sw::SpirvShader::TypeOrObjectID"* %10 to i8*
  call void @llvm.lifetime.start.p0i8(i64 4, i8* nonnull %103) #15
  %104 = getelementptr inbounds %"class.sw::SpirvShader::TypeOrObjectID", %"class.sw::SpirvShader::TypeOrObjectID"* %10, i64 0, i32 0, i32 0
  store i32 %45, i32* %104, align 4
  %105 = getelementptr inbounds %"class.sw::SpirvShader", %"class.sw::SpirvShader"* %0, i64 0, i32 1, i32 0
  %106 = call %"struct.std::__1::__hash_node_base"* @_ZNSt3__112__hash_tableINS_17__hash_value_typeIN2sw11SpirvShader14TypeOrObjectIDENS3_11DecorationsEEENS_22__unordered_map_hasherIS4_S6_NS_4hashINS2_7SpirvIDINS3_12TypeOrObjectEEEEENS_8equal_toIS4_EELb1EEENS_21__unordered_map_equalIS4_S6_SE_SC_Lb1EEENS_9allocatorIS6_EEE4findIS4_EENS_15__hash_iteratorIPNS_11__hash_nodeIS6_PvEEEERKT_(%"class.std::__1::__hash_table"* %105, %"class.sw::SpirvShader::TypeOrObjectID"* nonnull dereferenceable(4) %10) #17
  call void @llvm.lifetime.end.p0i8(i64 4, i8* nonnull %103) #15
  %107 = icmp eq %"struct.std::__1::__hash_node_base"* %106, null
  br i1 %107, label %129, label %108

108:                                              ; preds = %102
  %109 = getelementptr inbounds %"struct.std::__1::__hash_node_base", %"struct.std::__1::__hash_node_base"* %106, i64 2
  %110 = bitcast %"struct.std::__1::__hash_node_base"* %109 to %"struct.std::__1::pair"*
  %111 = getelementptr inbounds %"struct.std::__1::pair", %"struct.std::__1::pair"* %110, i64 0, i32 1, i32 6
  %112 = load i16, i16* %111, align 4
  %113 = and i16 %112, 4
  %114 = icmp eq i16 %113, 0
  br i1 %114, label %129, label %115

115:                                              ; preds = %108
  %116 = getelementptr inbounds %"struct.std::__1::pair", %"struct.std::__1::pair"* %110, i64 0, i32 1, i32 2
  %117 = getelementptr inbounds %"class.std::__1::unordered_map.123", %"class.std::__1::unordered_map.123"* %39, i64 0, i32 0
  %118 = bitcast %"class.std::__1::tuple.1675"* %6 to i8*
  call void @llvm.lifetime.start.p0i8(i64 8, i8* nonnull %118) #15
  %119 = getelementptr inbounds %"class.std::__1::tuple.1675", %"class.std::__1::tuple.1675"* %6, i64 0, i32 0, i32 0, i32 0
  store i32* %116, i32** %119, align 8
  %120 = getelementptr inbounds %"class.std::__1::tuple.1554", %"class.std::__1::tuple.1554"* %7, i64 0, i32 0
  call void @llvm.lifetime.start.p0i8(i64 1, i8* nonnull %120) #15
  %121 = call { %"struct.std::__1::__hash_node_base.128"*, i8 } @_ZNSt3__112__hash_tableINS_17__hash_value_typeIN3spv7BuiltInEN2sw11SpirvShader14BuiltinMappingEEENS_22__unordered_map_hasherIS3_S7_NS_4hashIjEENS_8equal_toIS3_EELb1EEENS_21__unordered_map_equalIS3_S7_SC_SA_Lb1EEENS_9allocatorIS7_EEE25__emplace_unique_key_argsIS3_JRKNS_21piecewise_construct_tENS_5tupleIJRKS3_EEENSN_IJEEEEEENS_4pairINS_15__hash_iteratorIPNS_11__hash_nodeIS7_PvEEEEbEERKT_DpOT0_(%"class.std::__1::__hash_table.124"* %117, i32* dereferenceable(4) %116, %"struct.std::__1::piecewise_construct_t"* nonnull dereferenceable(1) @_ZNSt3__1L19piecewise_constructE, %"class.std::__1::tuple.1675"* nonnull dereferenceable(8) %6, %"class.std::__1::tuple.1554"* nonnull dereferenceable(1) %7) #17
  %122 = extractvalue { %"struct.std::__1::__hash_node_base.128"*, i8 } %121, 0
  %123 = getelementptr inbounds %"struct.std::__1::__hash_node_base.128", %"struct.std::__1::__hash_node_base.128"* %122, i64 2
  %124 = bitcast %"struct.std::__1::__hash_node_base.128"* %123 to %"struct.std::__1::pair.1530"*
  call void @llvm.lifetime.end.p0i8(i64 1, i8* nonnull %120) #15
  call void @llvm.lifetime.end.p0i8(i64 8, i8* nonnull %118) #15
  %125 = getelementptr inbounds %"struct.std::__1::pair.1530", %"struct.std::__1::pair.1530"* %124, i64 0, i32 1, i32 0, i32 0
  store i32 %45, i32* %125, align 4
  %126 = getelementptr inbounds %"struct.std::__1::__hash_node_base.128", %"struct.std::__1::__hash_node_base.128"* %122, i64 3
  %127 = bitcast %"struct.std::__1::__hash_node_base.128"* %126 to i32*
  store i32 0, i32* %127, align 4
  %128 = getelementptr inbounds %"struct.std::__1::pair.1530", %"struct.std::__1::pair.1530"* %124, i64 0, i32 1, i32 2
  store i32 %32, i32* %128, align 4
  br label %144

129:                                              ; preds = %102, %108
  %130 = getelementptr inbounds %"class.sw::SpirvShader::Object", %"class.sw::SpirvShader::Object"* %1, i64 0, i32 2
  store i32 1, i32* %130, align 8
  %131 = bitcast %"class.std::__1::function"* %11 to i8*
  call void @llvm.lifetime.start.p0i8(i64 32, i8* nonnull %131) #15
  %132 = ptrtoint %"class.std::__1::vector.116"* %42 to i64
  %133 = getelementptr inbounds %"class.std::__1::function", %"class.std::__1::function"* %11, i64 0, i32 0, i32 1, i32 0
  %134 = getelementptr inbounds %"class.std::__1::function", %"class.std::__1::function"* %11, i64 0, i32 0, i32 2
  store void (%"union.std::__1::__function::__policy_storage"*, %"struct.sw::SpirvShader::Decorations"*, i8)* @"_ZNSt3__110__function16__policy_invokerIFvN2sw11SpirvShader11DecorationsENS3_10AttribTypeEEE11__call_implINS0_20__default_alloc_funcIZNS3_24ProcessInterfaceVariableERNS3_6ObjectEE3$_0S6_EEEEvPKNS0_16__policy_storageEOS4_S5_", void (%"union.std::__1::__function::__policy_storage"*, %"struct.sw::SpirvShader::Decorations"*, i8)** %133, align 8
  store %"struct.std::__1::__function::__policy"* @"_ZZNSt3__110__function8__policy15__choose_policyINS0_20__default_alloc_funcIZN2sw11SpirvShader24ProcessInterfaceVariableERNS5_6ObjectEE3$_0FvNS5_11DecorationsENS5_10AttribTypeEEEEEEPKS1_NS_17integral_constantIbLb1EEEE9__policy_", %"struct.std::__1::__function::__policy"** %134, align 8
  %135 = bitcast %"class.std::__1::function"* %11 to i64*
  store i64 %132, i64* %135, align 8
  call void @_ZNK2sw11SpirvShader14VisitInterfaceENS_7SpirvIDINS0_6ObjectEEERKNSt3__18functionIFvNS0_11DecorationsENS0_10AttribTypeEEEE(%"class.sw::SpirvShader"* %0, i32 %45, %"class.std::__1::function"* nonnull dereferenceable(32) %11) #14
  %136 = load %"struct.std::__1::__function::__policy"*, %"struct.std::__1::__function::__policy"** %134, align 8
  %137 = getelementptr inbounds %"struct.std::__1::__function::__policy", %"struct.std::__1::__function::__policy"* %136, i64 0, i32 1
  %138 = load void (i8*)*, void (i8*)** %137, align 8
  %139 = icmp eq void (i8*)* %138, null
  br i1 %139, label %143, label %140

140:                                              ; preds = %129
  %141 = getelementptr inbounds %"class.std::__1::function", %"class.std::__1::function"* %11, i64 0, i32 0, i32 0, i32 0
  %142 = load i8*, i8** %141, align 8
  call void %138(i8* %142) #17
  br label %143

143:                                              ; preds = %129, %140
  call void @llvm.lifetime.end.p0i8(i64 32, i8* nonnull %131) #15
  br label %144

144:                                              ; preds = %95, %50, %115, %143
  ret void
}

; Function Attrs: optsize
declare void @_ZN2sw4warnEPKcz(i8*, ...) local_unnamed_addr #1

; Function Attrs: nounwind optsize ssp uwtable
define hidden dereferenceable(40) %"class.sw::SpirvShader::Object"* @_ZN2sw11SpirvShader14CreateConstantENS0_12InsnIteratorE(%"class.sw::SpirvShader"*, i32*) local_unnamed_addr #0 align 2 {
  %3 = alloca %"class.std::__1::tuple.1625", align 8
  %4 = alloca %"class.std::__1::tuple.1554", align 1
  %5 = alloca %"class.sw::SpirvID.329", align 4
  %6 = alloca %"class.sw::SpirvID.328", align 4
  %7 = ptrtoint i32* %1 to i64
  %8 = getelementptr inbounds i32, i32* %1, i64 1
  %9 = load i32, i32* %8, align 4
  %10 = bitcast %"class.sw::SpirvID.328"* %6 to i8*
  call void @llvm.lifetime.start.p0i8(i64 4, i8* nonnull %10) #15
  %11 = getelementptr inbounds %"class.sw::SpirvID.328", %"class.sw::SpirvID.328"* %6, i64 0, i32 0
  %12 = getelementptr inbounds i32, i32* %1, i64 2
  %13 = load i32, i32* %12, align 4
  store i32 %13, i32* %11, align 4
  %14 = getelementptr inbounds %"class.sw::SpirvShader", %"class.sw::SpirvShader"* %0, i64 0, i32 14, i32 0
  %15 = bitcast %"class.std::__1::tuple.1625"* %3 to i8*
  call void @llvm.lifetime.start.p0i8(i64 8, i8* nonnull %15) #15
  %16 = getelementptr inbounds %"class.std::__1::tuple.1625", %"class.std::__1::tuple.1625"* %3, i64 0, i32 0, i32 0, i32 0
  store %"class.sw::SpirvID.328"* %6, %"class.sw::SpirvID.328"** %16, align 8
  %17 = getelementptr inbounds %"class.std::__1::tuple.1554", %"class.std::__1::tuple.1554"* %4, i64 0, i32 0
  call void @llvm.lifetime.start.p0i8(i64 1, i8* nonnull %17) #15
  %18 = call { %"struct.std::__1::__hash_node_base.203"*, i8 } @_ZNSt3__112__hash_tableINS_17__hash_value_typeIN2sw7SpirvIDINS2_11SpirvShader6ObjectEEES5_EENS_22__unordered_map_hasherIS6_S7_NS_4hashIS6_EENS_8equal_toIS6_EELb1EEENS_21__unordered_map_equalIS6_S7_SC_SA_Lb1EEENS_9allocatorIS7_EEE25__emplace_unique_key_argsIS6_JRKNS_21piecewise_construct_tENS_5tupleIJRKS6_EEENSN_IJEEEEEENS_4pairINS_15__hash_iteratorIPNS_11__hash_nodeIS7_PvEEEEbEERKT_DpOT0_(%"class.std::__1::__hash_table.199"* %14, %"class.sw::SpirvID.328"* nonnull dereferenceable(4) %6, %"struct.std::__1::piecewise_construct_t"* nonnull dereferenceable(1) @_ZNSt3__1L19piecewise_constructE, %"class.std::__1::tuple.1625"* nonnull dereferenceable(8) %3, %"class.std::__1::tuple.1554"* nonnull dereferenceable(1) %4) #17
  %19 = extractvalue { %"struct.std::__1::__hash_node_base.203"*, i8 } %18, 0
  %20 = getelementptr inbounds %"struct.std::__1::__hash_node_base.203", %"struct.std::__1::__hash_node_base.203"* %19, i64 3
  %21 = bitcast %"struct.std::__1::__hash_node_base.203"* %20 to %"class.sw::SpirvShader::Object"*
  call void @llvm.lifetime.end.p0i8(i64 1, i8* nonnull %17) #15
  call void @llvm.lifetime.end.p0i8(i64 8, i8* nonnull %15) #15
  %22 = bitcast %"class.sw::SpirvID.329"* %5 to i8*
  call void @llvm.lifetime.start.p0i8(i64 4, i8* nonnull %22)
  %23 = getelementptr inbounds %"class.sw::SpirvID.329", %"class.sw::SpirvID.329"* %5, i64 0, i32 0
  store i32 %9, i32* %23, align 4
  %24 = getelementptr inbounds %"class.sw::SpirvShader", %"class.sw::SpirvShader"* %0, i64 0, i32 13, i32 0
  %25 = call %"struct.std::__1::__hash_node_base.179"* @_ZNKSt3__112__hash_tableINS_17__hash_value_typeIN2sw7SpirvIDINS2_11SpirvShader4TypeEEES5_EENS_22__unordered_map_hasherIS6_S7_NS_4hashIS6_EENS_8equal_toIS6_EELb1EEENS_21__unordered_map_equalIS6_S7_SC_SA_Lb1EEENS_9allocatorIS7_EEE4findIS6_EENS_21__hash_const_iteratorIPNS_11__hash_nodeIS7_PvEEEERKT_(%"class.std::__1::__hash_table.175"* %24, %"class.sw::SpirvID.329"* nonnull dereferenceable(4) %5) #17
  %26 = getelementptr inbounds %"struct.std::__1::__hash_node_base.179", %"struct.std::__1::__hash_node_base.179"* %25, i64 3
  %27 = bitcast %"struct.std::__1::__hash_node_base.179"* %26 to %"class.sw::SpirvShader::Type"*
  call void @llvm.lifetime.end.p0i8(i64 4, i8* nonnull %22)
  %28 = getelementptr inbounds %"struct.std::__1::__hash_node_base.203", %"struct.std::__1::__hash_node_base.203"* %19, i64 7
  %29 = bitcast %"struct.std::__1::__hash_node_base.203"* %28 to i32*
  store i32 2, i32* %29, align 8
  %30 = bitcast %"struct.std::__1::__hash_node_base.203"* %20 to i64*
  store i64 %7, i64* %30, align 8
  %31 = getelementptr inbounds %"struct.std::__1::__hash_node_base.203", %"struct.std::__1::__hash_node_base.203"* %19, i64 4
  %32 = bitcast %"struct.std::__1::__hash_node_base.203"* %31 to %"class.std::__1::vector"*
  %33 = getelementptr inbounds %"class.sw::SpirvShader::Type", %"class.sw::SpirvShader::Type"* %27, i64 0, i32 2
  %34 = load i32, i32* %33, align 4
  %35 = zext i32 %34 to i64
  call void @_ZNSt3__16vectorIjNS_9allocatorIjEEE6resizeEm(%"class.std::__1::vector"* %32, i64 %35) #14
  call void @llvm.lifetime.end.p0i8(i64 4, i8* nonnull %10) #15
  ret %"class.sw::SpirvShader::Object"* %21
}

; Function Attrs: optsize
declare void @_ZN2sw11SpirvShader18EvalSpecConstantOpENS0_12InsnIteratorE(%"class.sw::SpirvShader"*, i32*) local_unnamed_addr #1

; Function Attrs: optsize
declare i8* @_ZN2sw11SpirvShader10OpcodeNameEN3spv2OpE(i32) local_unnamed_addr #1

; Function Attrs: nounwind optsize ssp uwtable
define hidden void @_ZN2sw11SpirvShader12DefineResultERKNS0_12InsnIteratorE(%"class.sw::SpirvShader"*, %"class.sw::SpirvShader::InsnIterator"* dereferenceable(8)) local_unnamed_addr #0 align 2 {
  %3 = alloca %"class.std::__1::tuple.1625", align 8
  %4 = alloca %"class.std::__1::tuple.1554", align 1
  %5 = alloca %"class.sw::SpirvID.329", align 4
  %6 = alloca %"class.sw::SpirvID.328", align 4
  %7 = getelementptr inbounds %"class.sw::SpirvShader::InsnIterator", %"class.sw::SpirvShader::InsnIterator"* %1, i64 0, i32 0, i32 0
  %8 = load i32*, i32** %7, align 8
  %9 = getelementptr inbounds i32, i32* %8, i64 1
  %10 = load i32, i32* %9, align 4
  %11 = bitcast %"class.sw::SpirvID.328"* %6 to i8*
  call void @llvm.lifetime.start.p0i8(i64 4, i8* nonnull %11) #15
  %12 = getelementptr inbounds %"class.sw::SpirvID.328", %"class.sw::SpirvID.328"* %6, i64 0, i32 0
  %13 = getelementptr inbounds i32, i32* %8, i64 2
  %14 = load i32, i32* %13, align 4
  store i32 %14, i32* %12, align 4
  %15 = getelementptr inbounds %"class.sw::SpirvShader", %"class.sw::SpirvShader"* %0, i64 0, i32 14, i32 0
  %16 = bitcast %"class.std::__1::tuple.1625"* %3 to i8*
  call void @llvm.lifetime.start.p0i8(i64 8, i8* nonnull %16) #15
  %17 = getelementptr inbounds %"class.std::__1::tuple.1625", %"class.std::__1::tuple.1625"* %3, i64 0, i32 0, i32 0, i32 0
  store %"class.sw::SpirvID.328"* %6, %"class.sw::SpirvID.328"** %17, align 8
  %18 = getelementptr inbounds %"class.std::__1::tuple.1554", %"class.std::__1::tuple.1554"* %4, i64 0, i32 0
  call void @llvm.lifetime.start.p0i8(i64 1, i8* nonnull %18) #15
  %19 = call { %"struct.std::__1::__hash_node_base.203"*, i8 } @_ZNSt3__112__hash_tableINS_17__hash_value_typeIN2sw7SpirvIDINS2_11SpirvShader6ObjectEEES5_EENS_22__unordered_map_hasherIS6_S7_NS_4hashIS6_EENS_8equal_toIS6_EELb1EEENS_21__unordered_map_equalIS6_S7_SC_SA_Lb1EEENS_9allocatorIS7_EEE25__emplace_unique_key_argsIS6_JRKNS_21piecewise_construct_tENS_5tupleIJRKS6_EEENSN_IJEEEEEENS_4pairINS_15__hash_iteratorIPNS_11__hash_nodeIS7_PvEEEEbEERKT_DpOT0_(%"class.std::__1::__hash_table.199"* %15, %"class.sw::SpirvID.328"* nonnull dereferenceable(4) %6, %"struct.std::__1::piecewise_construct_t"* nonnull dereferenceable(1) @_ZNSt3__1L19piecewise_constructE, %"class.std::__1::tuple.1625"* nonnull dereferenceable(8) %3, %"class.std::__1::tuple.1554"* nonnull dereferenceable(1) %4) #17
  %20 = extractvalue { %"struct.std::__1::__hash_node_base.203"*, i8 } %19, 0
  %21 = getelementptr inbounds %"struct.std::__1::__hash_node_base.203", %"struct.std::__1::__hash_node_base.203"* %20, i64 3
  call void @llvm.lifetime.end.p0i8(i64 1, i8* nonnull %18) #15
  call void @llvm.lifetime.end.p0i8(i64 8, i8* nonnull %16) #15
  %22 = bitcast %"class.sw::SpirvID.329"* %5 to i8*
  call void @llvm.lifetime.start.p0i8(i64 4, i8* nonnull %22)
  %23 = getelementptr inbounds %"class.sw::SpirvID.329", %"class.sw::SpirvID.329"* %5, i64 0, i32 0
  store i32 %10, i32* %23, align 4
  %24 = getelementptr inbounds %"class.sw::SpirvShader", %"class.sw::SpirvShader"* %0, i64 0, i32 13, i32 0
  %25 = call %"struct.std::__1::__hash_node_base.179"* @_ZNKSt3__112__hash_tableINS_17__hash_value_typeIN2sw7SpirvIDINS2_11SpirvShader4TypeEEES5_EENS_22__unordered_map_hasherIS6_S7_NS_4hashIS6_EENS_8equal_toIS6_EELb1EEENS_21__unordered_map_equalIS6_S7_SC_SA_Lb1EEENS_9allocatorIS7_EEE4findIS6_EENS_21__hash_const_iteratorIPNS_11__hash_nodeIS7_PvEEEERKT_(%"class.std::__1::__hash_table.175"* %24, %"class.sw::SpirvID.329"* nonnull dereferenceable(4) %5) #17
  %26 = getelementptr inbounds %"struct.std::__1::__hash_node_base.179", %"struct.std::__1::__hash_node_base.179"* %25, i64 3
  call void @llvm.lifetime.end.p0i8(i64 4, i8* nonnull %22)
  %27 = bitcast %"struct.std::__1::__hash_node_base.179"* %26 to i32**
  %28 = load i32*, i32** %27, align 8
  %29 = load i32, i32* %28, align 4
  %30 = trunc i32 %29 to i16
  %31 = add i16 %30, -25
  %32 = icmp ult i16 %31, 8
  br i1 %32, label %33, label %37

33:                                               ; preds = %2
  %34 = sext i16 %31 to i64
  %35 = getelementptr inbounds [8 x i32], [8 x i32]* @switch.table._ZN2sw11SpirvShader12DefineResultERKNS0_12InsnIteratorE, i64 0, i64 %34
  %36 = load i32, i32* %35, align 4
  br label %37

37:                                               ; preds = %2, %33
  %38 = phi i32 [ %36, %33 ], [ 3, %2 ]
  %39 = getelementptr inbounds %"struct.std::__1::__hash_node_base.203", %"struct.std::__1::__hash_node_base.203"* %20, i64 7
  %40 = bitcast %"struct.std::__1::__hash_node_base.203"* %39 to i32*
  store i32 %38, i32* %40, align 8
  %41 = bitcast %"class.sw::SpirvShader::InsnIterator"* %1 to i64*
  %42 = bitcast %"struct.std::__1::__hash_node_base.203"* %21 to i64*
  %43 = load i64, i64* %41, align 8
  store i64 %43, i64* %42, align 8
  %44 = load i32, i32* %12, align 4
  call void @_ZNK2sw11SpirvShader16dbgDeclareResultERKNS0_12InsnIteratorENS_7SpirvIDINS0_6ObjectEEE(%"class.sw::SpirvShader"* %0, %"class.sw::SpirvShader::InsnIterator"* dereferenceable(8) %1, i32 %44) #17
  call void @llvm.lifetime.end.p0i8(i64 4, i8* nonnull %11) #15
  ret void
}

; Function Attrs: nounwind optsize ssp uwtable
define hidden void @_ZNK2sw11SpirvShader30ApplyDecorationsForAccessChainEPNS0_11DecorationsEPNS0_21DescriptorDecorationsENS_7SpirvIDINS0_6ObjectEEEjPKj(%"class.sw::SpirvShader"*, %"struct.sw::SpirvShader::Decorations"* nocapture, %"struct.sw::SpirvShader::DescriptorDecorations"* nocapture, i32, i32, i32* nocapture readonly) local_unnamed_addr #0 align 2 {
  %7 = alloca %"class.sw::SpirvID.329", align 4
  %8 = alloca %"class.sw::SpirvID.329", align 4
  %9 = alloca %"class.sw::SpirvID.328", align 4
  %10 = alloca %"class.sw::SpirvID.328", align 4
  %11 = alloca %"class.sw::SpirvID.328", align 4
  tail call void @_ZNK2sw11SpirvShader21ApplyDecorationsForIdEPNS0_11DecorationsENS0_14TypeOrObjectIDE(%"class.sw::SpirvShader"* %0, %"struct.sw::SpirvShader::Decorations"* %1, i32 %3) #14
  %12 = bitcast %"class.sw::SpirvID.328"* %10 to i8*
  call void @llvm.lifetime.start.p0i8(i64 4, i8* nonnull %12)
  %13 = getelementptr inbounds %"class.sw::SpirvID.328", %"class.sw::SpirvID.328"* %10, i64 0, i32 0
  store i32 %3, i32* %13, align 4
  %14 = getelementptr inbounds %"class.sw::SpirvShader", %"class.sw::SpirvShader"* %0, i64 0, i32 14, i32 0
  %15 = call %"struct.std::__1::__hash_node_base.203"* @_ZNKSt3__112__hash_tableINS_17__hash_value_typeIN2sw7SpirvIDINS2_11SpirvShader6ObjectEEES5_EENS_22__unordered_map_hasherIS6_S7_NS_4hashIS6_EENS_8equal_toIS6_EELb1EEENS_21__unordered_map_equalIS6_S7_SC_SA_Lb1EEENS_9allocatorIS7_EEE4findIS6_EENS_21__hash_const_iteratorIPNS_11__hash_nodeIS7_PvEEEERKT_(%"class.std::__1::__hash_table.199"* %14, %"class.sw::SpirvID.328"* nonnull dereferenceable(4) %10) #17
  %16 = getelementptr inbounds %"struct.std::__1::__hash_node_base.203", %"struct.std::__1::__hash_node_base.203"* %15, i64 3
  call void @llvm.lifetime.end.p0i8(i64 4, i8* nonnull %12)
  %17 = bitcast %"struct.std::__1::__hash_node_base.203"* %16 to i32**
  %18 = load i32*, i32** %17, align 8
  %19 = getelementptr inbounds i32, i32* %18, i64 1
  %20 = load i32, i32* %19, align 4
  call void @_ZNK2sw11SpirvShader21ApplyDecorationsForIdEPNS0_11DecorationsENS0_14TypeOrObjectIDE(%"class.sw::SpirvShader"* %0, %"struct.sw::SpirvShader::Decorations"* %1, i32 %20) #14
  %21 = load i32*, i32** %17, align 8
  %22 = getelementptr inbounds i32, i32* %21, i64 1
  %23 = load i32, i32* %22, align 4
  %24 = bitcast %"class.sw::SpirvID.329"* %8 to i8*
  call void @llvm.lifetime.start.p0i8(i64 4, i8* nonnull %24) #15
  %25 = getelementptr inbounds %"class.sw::SpirvID.329", %"class.sw::SpirvID.329"* %8, i64 0, i32 0
  store i32 %23, i32* %25, align 4
  %26 = getelementptr inbounds %"class.sw::SpirvShader", %"class.sw::SpirvShader"* %0, i64 0, i32 13, i32 0
  %27 = call %"struct.std::__1::__hash_node_base.179"* @_ZNKSt3__112__hash_tableINS_17__hash_value_typeIN2sw7SpirvIDINS2_11SpirvShader4TypeEEES5_EENS_22__unordered_map_hasherIS6_S7_NS_4hashIS6_EENS_8equal_toIS6_EELb1EEENS_21__unordered_map_equalIS6_S7_SC_SA_Lb1EEENS_9allocatorIS7_EEE4findIS6_EENS_21__hash_const_iteratorIPNS_11__hash_nodeIS7_PvEEEERKT_(%"class.std::__1::__hash_table.175"* %26, %"class.sw::SpirvID.329"* nonnull dereferenceable(4) %8) #17
  call void @llvm.lifetime.end.p0i8(i64 4, i8* nonnull %24) #15
  %28 = icmp eq i32 %4, 0
  br i1 %28, label %43, label %29

29:                                               ; preds = %6
  %30 = getelementptr inbounds %"struct.std::__1::__hash_node_base.179", %"struct.std::__1::__hash_node_base.179"* %27, i64 3
  %31 = bitcast %"struct.std::__1::__hash_node_base.179"* %30 to %"class.sw::SpirvShader::Type"*
  %32 = getelementptr inbounds %"class.sw::SpirvShader::Type", %"class.sw::SpirvShader::Type"* %31, i64 0, i32 4, i32 0
  %33 = load i32, i32* %32, align 4
  %34 = bitcast %"class.sw::SpirvID.329"* %7 to i8*
  %35 = getelementptr inbounds %"class.sw::SpirvID.329", %"class.sw::SpirvID.329"* %7, i64 0, i32 0
  %36 = getelementptr inbounds %"struct.sw::SpirvShader::Decorations", %"struct.sw::SpirvShader::Decorations"* %1, i64 0, i32 6
  %37 = getelementptr inbounds %"struct.sw::SpirvShader::DescriptorDecorations", %"struct.sw::SpirvShader::DescriptorDecorations"* %2, i64 0, i32 2
  %38 = bitcast %"class.sw::SpirvID.328"* %11 to i8*
  %39 = getelementptr inbounds %"class.sw::SpirvID.328", %"class.sw::SpirvID.328"* %11, i64 0, i32 0
  %40 = bitcast %"class.sw::SpirvID.328"* %9 to i8*
  %41 = getelementptr inbounds %"class.sw::SpirvID.328", %"class.sw::SpirvID.328"* %9, i64 0, i32 0
  %42 = zext i32 %4 to i64
  br label %44

43:                                               ; preds = %94, %6
  ret void

44:                                               ; preds = %94, %29
  %45 = phi i64 [ 0, %29 ], [ %96, %94 ]
  %46 = phi i32 [ %33, %29 ], [ %95, %94 ]
  call void @_ZNK2sw11SpirvShader21ApplyDecorationsForIdEPNS0_11DecorationsENS0_14TypeOrObjectIDE(%"class.sw::SpirvShader"* %0, %"struct.sw::SpirvShader::Decorations"* %1, i32 %46) #14
  call void @llvm.lifetime.start.p0i8(i64 4, i8* nonnull %34)
  store i32 %46, i32* %35, align 4
  %47 = call %"struct.std::__1::__hash_node_base.179"* @_ZNKSt3__112__hash_tableINS_17__hash_value_typeIN2sw7SpirvIDINS2_11SpirvShader4TypeEEES5_EENS_22__unordered_map_hasherIS6_S7_NS_4hashIS6_EENS_8equal_toIS6_EELb1EEENS_21__unordered_map_equalIS6_S7_SC_SA_Lb1EEENS_9allocatorIS7_EEE4findIS6_EENS_21__hash_const_iteratorIPNS_11__hash_nodeIS7_PvEEEERKT_(%"class.std::__1::__hash_table.175"* %26, %"class.sw::SpirvID.329"* nonnull dereferenceable(4) %7) #17
  %48 = getelementptr inbounds %"struct.std::__1::__hash_node_base.179", %"struct.std::__1::__hash_node_base.179"* %47, i64 3
  %49 = bitcast %"struct.std::__1::__hash_node_base.179"* %48 to %"class.sw::SpirvShader::Type"*
  call void @llvm.lifetime.end.p0i8(i64 4, i8* nonnull %34)
  %50 = bitcast %"struct.std::__1::__hash_node_base.179"* %48 to i32**
  %51 = load i32*, i32** %50, align 8
  %52 = load i32, i32* %51, align 4
  %53 = trunc i32 %52 to i16
  switch i16 %53, label %91 [
    i16 30, label %54
    i16 28, label %67
    i16 29, label %67
    i16 23, label %83
    i16 24, label %86
  ]

54:                                               ; preds = %44
  %55 = getelementptr inbounds i32, i32* %5, i64 %45
  %56 = load i32, i32* %55, align 4
  call void @llvm.lifetime.start.p0i8(i64 4, i8* nonnull %40) #15
  store i32 %56, i32* %41, align 4
  %57 = call %"struct.std::__1::__hash_node_base.203"* @_ZNKSt3__112__hash_tableINS_17__hash_value_typeIN2sw7SpirvIDINS2_11SpirvShader6ObjectEEES5_EENS_22__unordered_map_hasherIS6_S7_NS_4hashIS6_EENS_8equal_toIS6_EELb1EEENS_21__unordered_map_equalIS6_S7_SC_SA_Lb1EEENS_9allocatorIS7_EEE4findIS6_EENS_21__hash_const_iteratorIPNS_11__hash_nodeIS7_PvEEEERKT_(%"class.std::__1::__hash_table.199"* %14, %"class.sw::SpirvID.328"* nonnull dereferenceable(4) %9) #17
  call void @llvm.lifetime.end.p0i8(i64 4, i8* nonnull %40) #15
  %58 = getelementptr inbounds %"struct.std::__1::__hash_node_base.203", %"struct.std::__1::__hash_node_base.203"* %57, i64 4
  %59 = bitcast %"struct.std::__1::__hash_node_base.203"* %58 to i32**
  %60 = load i32*, i32** %59, align 8
  %61 = load i32, i32* %60, align 4
  call void @_ZNK2sw11SpirvShader27ApplyDecorationsForIdMemberEPNS0_11DecorationsENS_7SpirvIDINS0_4TypeEEEj(%"class.sw::SpirvShader"* %0, %"struct.sw::SpirvShader::Decorations"* %1, i32 %46, i32 %61) #14
  %62 = add i32 %61, 2
  %63 = zext i32 %62 to i64
  %64 = load i32*, i32** %50, align 8
  %65 = getelementptr inbounds i32, i32* %64, i64 %63
  %66 = load i32, i32* %65, align 4
  br label %94

67:                                               ; preds = %44, %44
  %68 = load i32, i32* %37, align 4
  %69 = icmp sgt i32 %68, -1
  br i1 %69, label %70, label %80

70:                                               ; preds = %67
  %71 = getelementptr inbounds i32, i32* %5, i64 %45
  %72 = load i32, i32* %71, align 4
  call void @llvm.lifetime.start.p0i8(i64 4, i8* nonnull %38) #15
  store i32 %72, i32* %39, align 4
  %73 = call %"struct.std::__1::__hash_node_base.203"* @_ZNKSt3__112__hash_tableINS_17__hash_value_typeIN2sw7SpirvIDINS2_11SpirvShader6ObjectEEES5_EENS_22__unordered_map_hasherIS6_S7_NS_4hashIS6_EENS_8equal_toIS6_EELb1EEENS_21__unordered_map_equalIS6_S7_SC_SA_Lb1EEENS_9allocatorIS7_EEE4findIS6_EENS_21__hash_const_iteratorIPNS_11__hash_nodeIS7_PvEEEERKT_(%"class.std::__1::__hash_table.199"* %14, %"class.sw::SpirvID.328"* nonnull dereferenceable(4) %11) #17
  call void @llvm.lifetime.end.p0i8(i64 4, i8* nonnull %38) #15
  %74 = getelementptr inbounds %"struct.std::__1::__hash_node_base.203", %"struct.std::__1::__hash_node_base.203"* %73, i64 4
  %75 = bitcast %"struct.std::__1::__hash_node_base.203"* %74 to i32**
  %76 = load i32*, i32** %75, align 8
  %77 = load i32, i32* %76, align 4
  %78 = load i32, i32* %37, align 4
  %79 = add i32 %78, %77
  store i32 %79, i32* %37, align 4
  br label %80

80:                                               ; preds = %70, %67
  %81 = getelementptr inbounds %"class.sw::SpirvShader::Type", %"class.sw::SpirvShader::Type"* %49, i64 0, i32 4, i32 0
  %82 = load i32, i32* %81, align 4
  br label %94

83:                                               ; preds = %44
  %84 = getelementptr inbounds %"class.sw::SpirvShader::Type", %"class.sw::SpirvShader::Type"* %49, i64 0, i32 4, i32 0
  %85 = load i32, i32* %84, align 4
  br label %94

86:                                               ; preds = %44
  %87 = getelementptr inbounds %"class.sw::SpirvShader::Type", %"class.sw::SpirvShader::Type"* %49, i64 0, i32 4, i32 0
  %88 = load i32, i32* %87, align 4
  %89 = load i16, i16* %36, align 4
  %90 = or i16 %89, 16384
  store i16 %90, i16* %36, align 4
  br label %94

91:                                               ; preds = %44
  %92 = and i32 %52, 65535
  %93 = call i8* @_ZN2sw11SpirvShader10OpcodeNameEN3spv2OpE(i32 %92) #17
  call void (i8*, ...) @_ZN2sw4warnEPKcz(i8* getelementptr inbounds ([32 x i8], [32 x i8]* @.str.24, i64 0, i64 0), i8* getelementptr inbounds ([59 x i8], [59 x i8]* @.str.1, i64 0, i64 0), i32 1143, i8* %93) #17
  br label %94

94:                                               ; preds = %91, %86, %83, %80, %54
  %95 = phi i32 [ %46, %91 ], [ %88, %86 ], [ %85, %83 ], [ %82, %80 ], [ %66, %54 ]
  %96 = add nuw nsw i64 %45, 1
  %97 = icmp eq i64 %96, %42
  br i1 %97, label %43, label %44
}

; Function Attrs: optsize
declare void @_ZN2sw11SpirvShader24DefineOpenCLDebugInfo100ERKNS0_12InsnIteratorE(%"class.sw::SpirvShader"*, %"class.sw::SpirvShader::InsnIterator"* dereferenceable(8)) local_unnamed_addr #1

; Function Attrs: optsize
declare void @_ZN2sw11SpirvShader8Function17AssignBlockFieldsEv(%"class.sw::SpirvShader::Function"*) local_unnamed_addr #1

; Function Attrs: optsize
declare void @_ZN2sw11SpirvShader13dbgCreateFileEv(%"class.sw::SpirvShader"*) local_unnamed_addr #1

; Function Attrs: nounwind optsize ssp uwtable
define hidden void @_ZN2sw11SpirvShaderD2Ev(%"class.sw::SpirvShader"*) unnamed_addr #0 align 2 {
  tail call void @_ZN2sw11SpirvShader7dbgTermEv(%"class.sw::SpirvShader"* %0) #17
  %2 = getelementptr inbounds %"class.sw::SpirvShader", %"class.sw::SpirvShader"* %0, i64 0, i32 18, i32 0
  tail call void @_ZNSt3__112__hash_tableIjNS_4hashIjEENS_8equal_toIjEENS_9allocatorIjEEED2Ev(%"class.std::__1::__hash_table.303"* %2) #17
  %3 = getelementptr inbounds %"class.sw::SpirvShader", %"class.sw::SpirvShader"* %0, i64 0, i32 17, i32 0
  tail call void @_ZNSt3__112__hash_tableINS_17__hash_value_typeIN2sw7SpirvIDINS2_11SpirvShader9ExtensionEEES5_EENS_22__unordered_map_hasherIS6_S7_NS_4hashIS6_EENS_8equal_toIS6_EELb1EEENS_21__unordered_map_equalIS6_S7_SC_SA_Lb1EEENS_9allocatorIS7_EEED2Ev(%"class.std::__1::__hash_table.277"* %3) #17
  %4 = getelementptr inbounds %"class.sw::SpirvShader", %"class.sw::SpirvShader"* %0, i64 0, i32 16, i32 0
  tail call void @_ZNSt3__112__hash_tableINS_17__hash_value_typeIN2sw7SpirvIDINS_12basic_stringIcNS_11char_traitsIcEENS_9allocatorIcEEEEEES9_EENS_22__unordered_map_hasherISA_SB_NS_4hashISA_EENS_8equal_toISA_EELb1EEENS_21__unordered_map_equalISA_SB_SG_SE_Lb1EEENS7_ISB_EEED2Ev(%"class.std::__1::__hash_table.250"* %4) #17
  %5 = getelementptr inbounds %"class.sw::SpirvShader", %"class.sw::SpirvShader"* %0, i64 0, i32 15, i32 0
  tail call void @_ZNSt3__112__hash_tableINS_17__hash_value_typeIN2sw7SpirvIDINS2_11SpirvShader8FunctionEEES5_EENS_22__unordered_map_hasherIS6_S7_NS_4hashIS6_EENS_8equal_toIS6_EELb1EEENS_21__unordered_map_equalIS6_S7_SC_SA_Lb1EEENS_9allocatorIS7_EEED2Ev(%"class.std::__1::__hash_table.223"* %5) #17
  %6 = getelementptr inbounds %"class.sw::SpirvShader", %"class.sw::SpirvShader"* %0, i64 0, i32 14, i32 0
  tail call void @_ZNSt3__112__hash_tableINS_17__hash_value_typeIN2sw7SpirvIDINS2_11SpirvShader6ObjectEEES5_EENS_22__unordered_map_hasherIS6_S7_NS_4hashIS6_EENS_8equal_toIS6_EELb1EEENS_21__unordered_map_equalIS6_S7_SC_SA_Lb1EEENS_9allocatorIS7_EEED2Ev(%"class.std::__1::__hash_table.199"* %6) #17
  %7 = getelementptr inbounds %"class.sw::SpirvShader", %"class.sw::SpirvShader"* %0, i64 0, i32 13, i32 0
  tail call void @_ZNSt3__112__hash_tableINS_17__hash_value_typeIN2sw7SpirvIDINS2_11SpirvShader4TypeEEES5_EENS_22__unordered_map_hasherIS6_S7_NS_4hashIS6_EENS_8equal_toIS6_EELb1EEENS_21__unordered_map_equalIS6_S7_SC_SA_Lb1EEENS_9allocatorIS7_EEED2Ev(%"class.std::__1::__hash_table.175"* %7) #17
  %8 = getelementptr inbounds %"class.sw::SpirvShader", %"class.sw::SpirvShader"* %0, i64 0, i32 9, i32 2, i32 0
  tail call void @_ZNSt3__112__hash_tableINS_17__hash_value_typeIN2sw7SpirvIDINS2_11SpirvShader6ObjectEEEjEENS_22__unordered_map_hasherIS6_S7_NS_4hashIS6_EENS_8equal_toIS6_EELb1EEENS_21__unordered_map_equalIS6_S7_SC_SA_Lb1EEENS_9allocatorIS7_EEED2Ev(%"class.std::__1::__hash_table.151"* %8) #17
  %9 = getelementptr inbounds %"class.sw::SpirvShader", %"class.sw::SpirvShader"* %0, i64 0, i32 8, i32 0
  tail call void @_ZNSt3__112__hash_tableINS_17__hash_value_typeIN3spv7BuiltInEN2sw11SpirvShader14BuiltinMappingEEENS_22__unordered_map_hasherIS3_S7_NS_4hashIjEENS_8equal_toIS3_EELb1EEENS_21__unordered_map_equalIS3_S7_SC_SA_Lb1EEENS_9allocatorIS7_EEED2Ev(%"class.std::__1::__hash_table.124"* %9) #17
  %10 = getelementptr inbounds %"class.sw::SpirvShader", %"class.sw::SpirvShader"* %0, i64 0, i32 7, i32 0
  tail call void @_ZNSt3__112__hash_tableINS_17__hash_value_typeIN3spv7BuiltInEN2sw11SpirvShader14BuiltinMappingEEENS_22__unordered_map_hasherIS3_S7_NS_4hashIjEENS_8equal_toIS3_EELb1EEENS_21__unordered_map_equalIS3_S7_SC_SA_Lb1EEENS_9allocatorIS7_EEED2Ev(%"class.std::__1::__hash_table.124"* %10) #17
  %11 = getelementptr inbounds %"class.sw::SpirvShader", %"class.sw::SpirvShader"* %0, i64 0, i32 6, i32 0, i32 0
  %12 = load %"struct.sw::SpirvShader::InterfaceComponent"*, %"struct.sw::SpirvShader::InterfaceComponent"** %11, align 8
  %13 = icmp eq %"struct.sw::SpirvShader::InterfaceComponent"* %12, null
  br i1 %13, label %19, label %14

14:                                               ; preds = %1
  %15 = ptrtoint %"struct.sw::SpirvShader::InterfaceComponent"* %12 to i64
  %16 = getelementptr inbounds %"class.sw::SpirvShader", %"class.sw::SpirvShader"* %0, i64 0, i32 6, i32 0, i32 1
  %17 = bitcast %"struct.sw::SpirvShader::InterfaceComponent"** %16 to i64*
  store i64 %15, i64* %17, align 8
  %18 = getelementptr inbounds %"struct.sw::SpirvShader::InterfaceComponent", %"struct.sw::SpirvShader::InterfaceComponent"* %12, i64 0, i32 0
  tail call void @_ZdlPv(i8* %18) #16
  br label %19

19:                                               ; preds = %1, %14
  %20 = getelementptr inbounds %"class.sw::SpirvShader", %"class.sw::SpirvShader"* %0, i64 0, i32 5, i32 0, i32 0
  %21 = load %"struct.sw::SpirvShader::InterfaceComponent"*, %"struct.sw::SpirvShader::InterfaceComponent"** %20, align 8
  %22 = icmp eq %"struct.sw::SpirvShader::InterfaceComponent"* %21, null
  br i1 %22, label %28, label %23

23:                                               ; preds = %19
  %24 = ptrtoint %"struct.sw::SpirvShader::InterfaceComponent"* %21 to i64
  %25 = getelementptr inbounds %"class.sw::SpirvShader", %"class.sw::SpirvShader"* %0, i64 0, i32 5, i32 0, i32 1
  %26 = bitcast %"struct.sw::SpirvShader::InterfaceComponent"** %25 to i64*
  store i64 %24, i64* %26, align 8
  %27 = getelementptr inbounds %"struct.sw::SpirvShader::InterfaceComponent", %"struct.sw::SpirvShader::InterfaceComponent"* %21, i64 0, i32 0
  tail call void @_ZdlPv(i8* %27) #16
  br label %28

28:                                               ; preds = %19, %23
  %29 = getelementptr inbounds %"class.sw::SpirvShader", %"class.sw::SpirvShader"* %0, i64 0, i32 4, i32 0, i32 0
  %30 = load i32*, i32** %29, align 8
  %31 = icmp eq i32* %30, null
  br i1 %31, label %37, label %32

32:                                               ; preds = %28
  %33 = ptrtoint i32* %30 to i64
  %34 = getelementptr inbounds %"class.sw::SpirvShader", %"class.sw::SpirvShader"* %0, i64 0, i32 4, i32 0, i32 1
  %35 = bitcast i32** %34 to i64*
  store i64 %33, i64* %35, align 8
  %36 = bitcast i32* %30 to i8*
  tail call void @_ZdlPv(i8* %36) #16
  br label %37

37:                                               ; preds = %28, %32
  %38 = getelementptr inbounds %"class.sw::SpirvShader", %"class.sw::SpirvShader"* %0, i64 0, i32 3, i32 0
  tail call void @_ZNSt3__112__hash_tableINS_17__hash_value_typeIN2sw7SpirvIDINS2_11SpirvShader6ObjectEEENS4_21DescriptorDecorationsEEENS_22__unordered_map_hasherIS6_S8_NS_4hashIS6_EENS_8equal_toIS6_EELb1EEENS_21__unordered_map_equalIS6_S8_SD_SB_Lb1EEENS_9allocatorIS8_EEED2Ev(%"class.std::__1::__hash_table.83"* %38) #17
  %39 = getelementptr inbounds %"class.sw::SpirvShader", %"class.sw::SpirvShader"* %0, i64 0, i32 2, i32 0
  tail call void @_ZNSt3__112__hash_tableINS_17__hash_value_typeIN2sw7SpirvIDINS2_11SpirvShader4TypeEEENS_6vectorINS4_11DecorationsENS_9allocatorIS8_EEEEEENS_22__unordered_map_hasherIS6_SC_NS_4hashIS6_EENS_8equal_toIS6_EELb1EEENS_21__unordered_map_equalIS6_SC_SH_SF_Lb1EEENS9_ISC_EEED2Ev(%"class.std::__1::__hash_table.56"* %39) #17
  %40 = getelementptr inbounds %"class.sw::SpirvShader", %"class.sw::SpirvShader"* %0, i64 0, i32 1, i32 0
  tail call void @_ZNSt3__112__hash_tableINS_17__hash_value_typeIN2sw11SpirvShader14TypeOrObjectIDENS3_11DecorationsEEENS_22__unordered_map_hasherIS4_S6_NS_4hashINS2_7SpirvIDINS3_12TypeOrObjectEEEEENS_8equal_toIS4_EELb1EEENS_21__unordered_map_equalIS4_S6_SE_SC_Lb1EEENS_9allocatorIS6_EEED2Ev(%"class.std::__1::__hash_table"* %40) #17
  %41 = getelementptr inbounds %"class.sw::SpirvShader", %"class.sw::SpirvShader"* %0, i64 0, i32 0, i32 0, i32 0
  %42 = load i32*, i32** %41, align 8
  %43 = icmp eq i32* %42, null
  br i1 %43, label %49, label %44

44:                                               ; preds = %37
  %45 = ptrtoint i32* %42 to i64
  %46 = getelementptr inbounds %"class.sw::SpirvShader", %"class.sw::SpirvShader"* %0, i64 0, i32 0, i32 0, i32 1
  %47 = bitcast i32** %46 to i64*
  store i64 %45, i64* %47, align 8
  %48 = bitcast i32* %42 to i8*
  tail call void @_ZdlPv(i8* %48) #16
  br label %49

49:                                               ; preds = %37, %44
  ret void
}

; Function Attrs: optsize
declare void @_ZN2sw11SpirvShader7dbgTermEv(%"class.sw::SpirvShader"*) local_unnamed_addr #1

; Function Attrs: nounwind optsize ssp uwtable
define hidden i32 @_ZN2sw11SpirvShader15ComputeTypeSizeENS0_12InsnIteratorE(%"class.sw::SpirvShader"*, i32*) local_unnamed_addr #0 align 2 {
  %3 = alloca %"class.sw::SpirvID.329", align 4
  %4 = alloca %"class.sw::SpirvID.328", align 4
  %5 = alloca %"class.sw::SpirvID.329", align 4
  %6 = alloca %"class.sw::SpirvID.329", align 4
  %7 = load i32, i32* %1, align 4
  %8 = trunc i32 %7 to i16
  switch i16 %8, label %69 [
    i16 19, label %72
    i16 26, label %72
    i16 25, label %72
    i16 27, label %72
    i16 33, label %72
    i16 29, label %72
    i16 20, label %15
    i16 22, label %15
    i16 21, label %15
    i16 23, label %16
    i16 24, label %16
    i16 28, label %30
    i16 30, label %9
    i16 32, label %68
  ]

9:                                                ; preds = %2
  %10 = icmp ugt i32 %7, 196607
  br i1 %10, label %11, label %72

11:                                               ; preds = %9
  %12 = bitcast %"class.sw::SpirvID.329"* %6 to i8*
  %13 = getelementptr inbounds %"class.sw::SpirvID.329", %"class.sw::SpirvID.329"* %6, i64 0, i32 0
  %14 = getelementptr inbounds %"class.sw::SpirvShader", %"class.sw::SpirvShader"* %0, i64 0, i32 13, i32 0
  br label %52

15:                                               ; preds = %2, %2, %2
  br label %72

16:                                               ; preds = %2, %2
  %17 = getelementptr inbounds i32, i32* %1, i64 2
  %18 = load i32, i32* %17, align 4
  %19 = bitcast %"class.sw::SpirvID.329"* %3 to i8*
  call void @llvm.lifetime.start.p0i8(i64 4, i8* nonnull %19)
  %20 = getelementptr inbounds %"class.sw::SpirvID.329", %"class.sw::SpirvID.329"* %3, i64 0, i32 0
  store i32 %18, i32* %20, align 4
  %21 = getelementptr inbounds %"class.sw::SpirvShader", %"class.sw::SpirvShader"* %0, i64 0, i32 13, i32 0
  %22 = call %"struct.std::__1::__hash_node_base.179"* @_ZNKSt3__112__hash_tableINS_17__hash_value_typeIN2sw7SpirvIDINS2_11SpirvShader4TypeEEES5_EENS_22__unordered_map_hasherIS6_S7_NS_4hashIS6_EENS_8equal_toIS6_EELb1EEENS_21__unordered_map_equalIS6_S7_SC_SA_Lb1EEENS_9allocatorIS7_EEE4findIS6_EENS_21__hash_const_iteratorIPNS_11__hash_nodeIS7_PvEEEERKT_(%"class.std::__1::__hash_table.175"* %21, %"class.sw::SpirvID.329"* nonnull dereferenceable(4) %3) #17
  %23 = getelementptr inbounds %"struct.std::__1::__hash_node_base.179", %"struct.std::__1::__hash_node_base.179"* %22, i64 3
  %24 = bitcast %"struct.std::__1::__hash_node_base.179"* %23 to %"class.sw::SpirvShader::Type"*
  call void @llvm.lifetime.end.p0i8(i64 4, i8* nonnull %19)
  %25 = getelementptr inbounds %"class.sw::SpirvShader::Type", %"class.sw::SpirvShader::Type"* %24, i64 0, i32 2
  %26 = load i32, i32* %25, align 4
  %27 = getelementptr inbounds i32, i32* %1, i64 3
  %28 = load i32, i32* %27, align 4
  %29 = mul i32 %28, %26
  br label %72

30:                                               ; preds = %2
  %31 = getelementptr inbounds i32, i32* %1, i64 3
  %32 = load i32, i32* %31, align 4
  %33 = bitcast %"class.sw::SpirvID.328"* %4 to i8*
  call void @llvm.lifetime.start.p0i8(i64 4, i8* nonnull %33) #15
  %34 = getelementptr inbounds %"class.sw::SpirvID.328", %"class.sw::SpirvID.328"* %4, i64 0, i32 0
  store i32 %32, i32* %34, align 4
  %35 = getelementptr inbounds %"class.sw::SpirvShader", %"class.sw::SpirvShader"* %0, i64 0, i32 14, i32 0
  %36 = call %"struct.std::__1::__hash_node_base.203"* @_ZNKSt3__112__hash_tableINS_17__hash_value_typeIN2sw7SpirvIDINS2_11SpirvShader6ObjectEEES5_EENS_22__unordered_map_hasherIS6_S7_NS_4hashIS6_EENS_8equal_toIS6_EELb1EEENS_21__unordered_map_equalIS6_S7_SC_SA_Lb1EEENS_9allocatorIS7_EEE4findIS6_EENS_21__hash_const_iteratorIPNS_11__hash_nodeIS7_PvEEEERKT_(%"class.std::__1::__hash_table.199"* %35, %"class.sw::SpirvID.328"* nonnull dereferenceable(4) %4) #17
  call void @llvm.lifetime.end.p0i8(i64 4, i8* nonnull %33) #15
  %37 = getelementptr inbounds %"struct.std::__1::__hash_node_base.203", %"struct.std::__1::__hash_node_base.203"* %36, i64 4
  %38 = bitcast %"struct.std::__1::__hash_node_base.203"* %37 to i32**
  %39 = load i32*, i32** %38, align 8
  %40 = load i32, i32* %39, align 4
  %41 = getelementptr inbounds i32, i32* %1, i64 2
  %42 = load i32, i32* %41, align 4
  %43 = bitcast %"class.sw::SpirvID.329"* %5 to i8*
  call void @llvm.lifetime.start.p0i8(i64 4, i8* nonnull %43)
  %44 = getelementptr inbounds %"class.sw::SpirvID.329", %"class.sw::SpirvID.329"* %5, i64 0, i32 0
  store i32 %42, i32* %44, align 4
  %45 = getelementptr inbounds %"class.sw::SpirvShader", %"class.sw::SpirvShader"* %0, i64 0, i32 13, i32 0
  %46 = call %"struct.std::__1::__hash_node_base.179"* @_ZNKSt3__112__hash_tableINS_17__hash_value_typeIN2sw7SpirvIDINS2_11SpirvShader4TypeEEES5_EENS_22__unordered_map_hasherIS6_S7_NS_4hashIS6_EENS_8equal_toIS6_EELb1EEENS_21__unordered_map_equalIS6_S7_SC_SA_Lb1EEENS_9allocatorIS7_EEE4findIS6_EENS_21__hash_const_iteratorIPNS_11__hash_nodeIS7_PvEEEERKT_(%"class.std::__1::__hash_table.175"* %45, %"class.sw::SpirvID.329"* nonnull dereferenceable(4) %5) #17
  %47 = getelementptr inbounds %"struct.std::__1::__hash_node_base.179", %"struct.std::__1::__hash_node_base.179"* %46, i64 3
  %48 = bitcast %"struct.std::__1::__hash_node_base.179"* %47 to %"class.sw::SpirvShader::Type"*
  call void @llvm.lifetime.end.p0i8(i64 4, i8* nonnull %43)
  %49 = getelementptr inbounds %"class.sw::SpirvShader::Type", %"class.sw::SpirvShader::Type"* %48, i64 0, i32 2
  %50 = load i32, i32* %49, align 4
  %51 = mul i32 %50, %40
  br label %72

52:                                               ; preds = %11, %52
  %53 = phi i64 [ 2, %11 ], [ %63, %52 ]
  %54 = phi i32 [ 0, %11 ], [ %62, %52 ]
  %55 = getelementptr inbounds i32, i32* %1, i64 %53
  %56 = load i32, i32* %55, align 4
  call void @llvm.lifetime.start.p0i8(i64 4, i8* nonnull %12)
  store i32 %56, i32* %13, align 4
  %57 = call %"struct.std::__1::__hash_node_base.179"* @_ZNKSt3__112__hash_tableINS_17__hash_value_typeIN2sw7SpirvIDINS2_11SpirvShader4TypeEEES5_EENS_22__unordered_map_hasherIS6_S7_NS_4hashIS6_EENS_8equal_toIS6_EELb1EEENS_21__unordered_map_equalIS6_S7_SC_SA_Lb1EEENS_9allocatorIS7_EEE4findIS6_EENS_21__hash_const_iteratorIPNS_11__hash_nodeIS7_PvEEEERKT_(%"class.std::__1::__hash_table.175"* %14, %"class.sw::SpirvID.329"* nonnull dereferenceable(4) %6) #17
  %58 = getelementptr inbounds %"struct.std::__1::__hash_node_base.179", %"struct.std::__1::__hash_node_base.179"* %57, i64 3
  %59 = bitcast %"struct.std::__1::__hash_node_base.179"* %58 to %"class.sw::SpirvShader::Type"*
  call void @llvm.lifetime.end.p0i8(i64 4, i8* nonnull %12)
  %60 = getelementptr inbounds %"class.sw::SpirvShader::Type", %"class.sw::SpirvShader::Type"* %59, i64 0, i32 2
  %61 = load i32, i32* %60, align 4
  %62 = add i32 %61, %54
  %63 = add nuw nsw i64 %53, 1
  %64 = load i32, i32* %1, align 4
  %65 = lshr i32 %64, 16
  %66 = zext i32 %65 to i64
  %67 = icmp ult i64 %63, %66
  br i1 %67, label %52, label %72

68:                                               ; preds = %2
  br label %72

69:                                               ; preds = %2
  %70 = and i32 %7, 65535
  %71 = tail call i8* @_ZN2sw11SpirvShader10OpcodeNameEN3spv2OpE(i32 %70) #17
  tail call void (i8*, ...) @_ZN2sw4warnEPKcz(i8* getelementptr inbounds ([32 x i8], [32 x i8]* @.str.24, i64 0, i64 0), i8* getelementptr inbounds ([59 x i8], [59 x i8]* @.str.1, i64 0, i64 0), i32 1020, i8* %71) #17
  br label %72

72:                                               ; preds = %52, %9, %2, %2, %2, %2, %2, %2, %69, %68, %30, %16, %15
  %73 = phi i32 [ 0, %69 ], [ 1, %68 ], [ %51, %30 ], [ %29, %16 ], [ 1, %15 ], [ 0, %2 ], [ 0, %2 ], [ 0, %2 ], [ 0, %2 ], [ 0, %2 ], [ 0, %2 ], [ 0, %9 ], [ %62, %52 ]
  ret i32 %73
}

; Function Attrs: nounwind optsize ssp uwtable
define linkonce_odr hidden void @_ZNSt3__16vectorIjNS_9allocatorIjEEE6resizeEm(%"class.std::__1::vector"*, i64) local_unnamed_addr #0 comdat align 2 {
  %3 = getelementptr inbounds %"class.std::__1::vector", %"class.std::__1::vector"* %0, i64 0, i32 0, i32 1
  %4 = bitcast i32** %3 to i64*
  %5 = load i64, i64* %4, align 8
  %6 = bitcast %"class.std::__1::vector"* %0 to i64*
  %7 = load i64, i64* %6, align 8
  %8 = sub i64 %5, %7
  %9 = ashr exact i64 %8, 2
  %10 = icmp ult i64 %9, %1
  %11 = inttoptr i64 %7 to i32*
  br i1 %10, label %12, label %14

12:                                               ; preds = %2
  %13 = sub i64 %1, %9
  tail call void @_ZNSt3__16vectorIjNS_9allocatorIjEEE8__appendEm(%"class.std::__1::vector"* %0, i64 %13) #14
  br label %18

14:                                               ; preds = %2
  %15 = icmp ugt i64 %9, %1
  br i1 %15, label %16, label %18

16:                                               ; preds = %14
  %17 = getelementptr inbounds i32, i32* %11, i64 %1
  store i32* %17, i32** %3, align 8
  br label %18

18:                                               ; preds = %14, %16, %12
  ret void
}

; Function Attrs: nounwind optsize ssp uwtable
define hidden void @_ZNK2sw11SpirvShader14VisitInterfaceENS_7SpirvIDINS0_6ObjectEEERKNSt3__18functionIFvNS0_11DecorationsENS0_10AttribTypeEEEE(%"class.sw::SpirvShader"*, i32, %"class.std::__1::function"* dereferenceable(32)) local_unnamed_addr #0 align 2 {
  %4 = alloca %"class.sw::SpirvID.328", align 4
  %5 = alloca %"struct.sw::SpirvShader::Decorations", align 8
  %6 = bitcast %"struct.sw::SpirvShader::Decorations"* %5 to i8*
  call void @llvm.lifetime.start.p0i8(i64 28, i8* nonnull %6) #15
  %7 = getelementptr inbounds %"struct.sw::SpirvShader::Decorations", %"struct.sw::SpirvShader::Decorations"* %5, i64 0, i32 0
  %8 = getelementptr inbounds %"struct.sw::SpirvShader::Decorations", %"struct.sw::SpirvShader::Decorations"* %5, i64 0, i32 1
  %9 = getelementptr inbounds %"struct.sw::SpirvShader::Decorations", %"struct.sw::SpirvShader::Decorations"* %5, i64 0, i32 2
  %10 = getelementptr inbounds %"struct.sw::SpirvShader::Decorations", %"struct.sw::SpirvShader::Decorations"* %5, i64 0, i32 6
  %11 = bitcast %"struct.sw::SpirvShader::Decorations"* %5 to i8*
  call void @llvm.memset.p0i8.i64(i8* nonnull align 8 %11, i8 -86, i64 28, i1 false)
  store i32 -1, i32* %7, align 8
  store i32 0, i32* %8, align 4
  %12 = bitcast i32* %9 to i8*
  call void @llvm.memset.p0i8.i64(i8* align 8 %12, i8 -1, i64 16, i1 false) #15
  store i16 -32768, i16* %10, align 8
  call void @_ZNK2sw11SpirvShader21ApplyDecorationsForIdEPNS0_11DecorationsENS0_14TypeOrObjectIDE(%"class.sw::SpirvShader"* %0, %"struct.sw::SpirvShader::Decorations"* nonnull %5, i32 %1) #14
  %13 = bitcast %"class.sw::SpirvID.328"* %4 to i8*
  call void @llvm.lifetime.start.p0i8(i64 4, i8* nonnull %13)
  %14 = getelementptr inbounds %"class.sw::SpirvID.328", %"class.sw::SpirvID.328"* %4, i64 0, i32 0
  store i32 %1, i32* %14, align 4
  %15 = getelementptr inbounds %"class.sw::SpirvShader", %"class.sw::SpirvShader"* %0, i64 0, i32 14, i32 0
  %16 = call %"struct.std::__1::__hash_node_base.203"* @_ZNKSt3__112__hash_tableINS_17__hash_value_typeIN2sw7SpirvIDINS2_11SpirvShader6ObjectEEES5_EENS_22__unordered_map_hasherIS6_S7_NS_4hashIS6_EENS_8equal_toIS6_EELb1EEENS_21__unordered_map_equalIS6_S7_SC_SA_Lb1EEENS_9allocatorIS7_EEE4findIS6_EENS_21__hash_const_iteratorIPNS_11__hash_nodeIS7_PvEEEERKT_(%"class.std::__1::__hash_table.199"* %15, %"class.sw::SpirvID.328"* nonnull dereferenceable(4) %4) #17
  %17 = getelementptr inbounds %"struct.std::__1::__hash_node_base.203", %"struct.std::__1::__hash_node_base.203"* %16, i64 3
  call void @llvm.lifetime.end.p0i8(i64 4, i8* nonnull %13)
  %18 = bitcast %"struct.std::__1::__hash_node_base.203"* %17 to i32**
  %19 = load i32*, i32** %18, align 8
  %20 = getelementptr inbounds i32, i32* %19, i64 1
  %21 = load i32, i32* %20, align 4
  %22 = call i32 @_ZNK2sw11SpirvShader19VisitInterfaceInnerENS_7SpirvIDINS0_4TypeEEENS0_11DecorationsERKNSt3__18functionIFvS4_NS0_10AttribTypeEEEE(%"class.sw::SpirvShader"* %0, i32 %21, %"struct.sw::SpirvShader::Decorations"* nonnull byval(%"struct.sw::SpirvShader::Decorations") align 8 %5, %"class.std::__1::function"* dereferenceable(32) %2) #14
  call void @llvm.lifetime.end.p0i8(i64 28, i8* nonnull %6) #15
  ret void
}

; Function Attrs: norecurse nounwind optsize readonly ssp uwtable
define hidden i32 @_ZNK2sw11SpirvShader21GetNumInputComponentsEi(%"class.sw::SpirvShader"* nocapture readonly, i32) local_unnamed_addr #5 align 2 {
  %3 = shl i32 %1, 2
  %4 = getelementptr inbounds %"class.sw::SpirvShader", %"class.sw::SpirvShader"* %0, i64 0, i32 5, i32 0, i32 0
  %5 = load %"struct.sw::SpirvShader::InterfaceComponent"*, %"struct.sw::SpirvShader::InterfaceComponent"** %4, align 8
  br label %6

6:                                                ; preds = %13, %2
  %7 = phi i32 [ 0, %2 ], [ %14, %13 ]
  %8 = or i32 %7, %3
  %9 = zext i32 %8 to i64
  %10 = getelementptr inbounds %"struct.sw::SpirvShader::InterfaceComponent", %"struct.sw::SpirvShader::InterfaceComponent"* %5, i64 %9, i32 0
  %11 = load i8, i8* %10, align 1
  %12 = icmp eq i8 %11, 3
  br i1 %12, label %16, label %13

13:                                               ; preds = %6
  %14 = add nuw nsw i32 %7, 1
  %15 = icmp eq i32 %14, 4
  br i1 %15, label %16, label %6

16:                                               ; preds = %13, %6
  %17 = phi i32 [ %7, %6 ], [ 4, %13 ]
  ret i32 %17
}

; Function Attrs: nounwind optsize ssp uwtable
define hidden i32 @_ZNK2sw11SpirvShader17GetConstScalarIntENS_7SpirvIDINS0_6ObjectEEE(%"class.sw::SpirvShader"*, i32) local_unnamed_addr #0 align 2 {
  %3 = alloca %"class.sw::SpirvID.328", align 4
  %4 = bitcast %"class.sw::SpirvID.328"* %3 to i8*
  call void @llvm.lifetime.start.p0i8(i64 4, i8* nonnull %4)
  %5 = getelementptr inbounds %"class.sw::SpirvID.328", %"class.sw::SpirvID.328"* %3, i64 0, i32 0
  store i32 %1, i32* %5, align 4
  %6 = getelementptr inbounds %"class.sw::SpirvShader", %"class.sw::SpirvShader"* %0, i64 0, i32 14, i32 0
  %7 = call %"struct.std::__1::__hash_node_base.203"* @_ZNKSt3__112__hash_tableINS_17__hash_value_typeIN2sw7SpirvIDINS2_11SpirvShader6ObjectEEES5_EENS_22__unordered_map_hasherIS6_S7_NS_4hashIS6_EENS_8equal_toIS6_EELb1EEENS_21__unordered_map_equalIS6_S7_SC_SA_Lb1EEENS_9allocatorIS7_EEE4findIS6_EENS_21__hash_const_iteratorIPNS_11__hash_nodeIS7_PvEEEERKT_(%"class.std::__1::__hash_table.199"* %6, %"class.sw::SpirvID.328"* nonnull dereferenceable(4) %3) #17
  call void @llvm.lifetime.end.p0i8(i64 4, i8* nonnull %4)
  %8 = getelementptr inbounds %"struct.std::__1::__hash_node_base.203", %"struct.std::__1::__hash_node_base.203"* %7, i64 4
  %9 = bitcast %"struct.std::__1::__hash_node_base.203"* %8 to i32**
  %10 = load i32*, i32** %9, align 8
  %11 = load i32, i32* %10, align 4
  ret i32 %11
}

; Function Attrs: nounwind optsize ssp uwtable
define hidden i32 @_ZNK2sw11SpirvShader19VisitInterfaceInnerENS_7SpirvIDINS0_4TypeEEENS0_11DecorationsERKNSt3__18functionIFvS4_NS0_10AttribTypeEEEE(%"class.sw::SpirvShader"*, i32, %"struct.sw::SpirvShader::Decorations"* byval(%"struct.sw::SpirvShader::Decorations") align 8, %"class.std::__1::function"* dereferenceable(32)) local_unnamed_addr #0 align 2 {
  %5 = alloca %"class.sw::SpirvID.328", align 4
  %6 = alloca %"struct.sw::SpirvShader::Decorations", align 8
  %7 = alloca %"struct.sw::SpirvShader::Decorations", align 8
  %8 = alloca %"struct.sw::SpirvShader::Decorations", align 8
  %9 = alloca %"class.sw::SpirvID.329", align 4
  %10 = alloca [28 x i8], align 8
  %11 = alloca %"struct.sw::SpirvShader::Decorations", align 8
  %12 = getelementptr inbounds [28 x i8], [28 x i8]* %10, i64 0, i64 0
  call void @_ZNK2sw11SpirvShader21ApplyDecorationsForIdEPNS0_11DecorationsENS0_14TypeOrObjectIDE(%"class.sw::SpirvShader"* %0, %"struct.sw::SpirvShader::Decorations"* nonnull %2, i32 %1) #14
  %13 = bitcast %"class.sw::SpirvID.329"* %9 to i8*
  call void @llvm.lifetime.start.p0i8(i64 4, i8* nonnull %13)
  %14 = getelementptr inbounds %"class.sw::SpirvID.329", %"class.sw::SpirvID.329"* %9, i64 0, i32 0
  store i32 %1, i32* %14, align 4
  %15 = getelementptr inbounds %"class.sw::SpirvShader", %"class.sw::SpirvShader"* %0, i64 0, i32 13, i32 0
  %16 = call %"struct.std::__1::__hash_node_base.179"* @_ZNKSt3__112__hash_tableINS_17__hash_value_typeIN2sw7SpirvIDINS2_11SpirvShader4TypeEEES5_EENS_22__unordered_map_hasherIS6_S7_NS_4hashIS6_EENS_8equal_toIS6_EELb1EEENS_21__unordered_map_equalIS6_S7_SC_SA_Lb1EEENS_9allocatorIS7_EEE4findIS6_EENS_21__hash_const_iteratorIPNS_11__hash_nodeIS7_PvEEEERKT_(%"class.std::__1::__hash_table.175"* %15, %"class.sw::SpirvID.329"* nonnull dereferenceable(4) %9) #17
  %17 = getelementptr inbounds %"struct.std::__1::__hash_node_base.179", %"struct.std::__1::__hash_node_base.179"* %16, i64 3
  call void @llvm.lifetime.end.p0i8(i64 4, i8* nonnull %13)
  %18 = bitcast %"struct.std::__1::__hash_node_base.179"* %17 to i32**
  %19 = load i32*, i32** %18, align 8
  %20 = load i32, i32* %19, align 4
  %21 = trunc i32 %20 to i16
  switch i16 %21, label %150 [
    i16 32, label %46
    i16 24, label %39
    i16 23, label %33
    i16 22, label %80
    i16 21, label %89
    i16 20, label %102
    i16 30, label %22
    i16 28, label %127
  ]

22:                                               ; preds = %4
  %23 = and i32 %20, -65536
  %24 = icmp eq i32 %23, 131072
  br i1 %24, label %25, label %28

25:                                               ; preds = %22
  %26 = getelementptr inbounds %"struct.sw::SpirvShader::Decorations", %"struct.sw::SpirvShader::Decorations"* %2, i64 0, i32 0
  %27 = load i32, i32* %26, align 8
  br label %150

28:                                               ; preds = %22
  %29 = bitcast %"struct.sw::SpirvShader::Decorations"* %11 to i8*
  %30 = bitcast %"struct.sw::SpirvShader::Decorations"* %2 to i8*
  %31 = getelementptr inbounds %"struct.sw::SpirvShader::Decorations", %"struct.sw::SpirvShader::Decorations"* %2, i64 0, i32 0
  %32 = getelementptr inbounds %"struct.sw::SpirvShader::Decorations", %"struct.sw::SpirvShader::Decorations"* %2, i64 0, i32 1
  br label %111

33:                                               ; preds = %4
  %34 = getelementptr inbounds i32, i32* %19, i64 3
  %35 = load i32, i32* %34, align 4
  %36 = icmp eq i32 %35, 0
  br i1 %36, label %63, label %37

37:                                               ; preds = %33
  %38 = getelementptr inbounds %"struct.sw::SpirvShader::Decorations", %"struct.sw::SpirvShader::Decorations"* %2, i64 0, i32 1
  br label %67

39:                                               ; preds = %4
  %40 = getelementptr inbounds i32, i32* %19, i64 3
  %41 = load i32, i32* %40, align 4
  %42 = icmp eq i32 %41, 0
  %43 = getelementptr inbounds %"struct.sw::SpirvShader::Decorations", %"struct.sw::SpirvShader::Decorations"* %2, i64 0, i32 0
  br i1 %42, label %44, label %50

44:                                               ; preds = %39
  %45 = load i32, i32* %43, align 8
  br label %150

46:                                               ; preds = %4
  %47 = getelementptr inbounds i32, i32* %19, i64 3
  %48 = load i32, i32* %47, align 4
  %49 = call i32 @_ZNK2sw11SpirvShader19VisitInterfaceInnerENS_7SpirvIDINS0_4TypeEEENS0_11DecorationsERKNSt3__18functionIFvS4_NS0_10AttribTypeEEEE(%"class.sw::SpirvShader"* %0, i32 %48, %"struct.sw::SpirvShader::Decorations"* nonnull byval(%"struct.sw::SpirvShader::Decorations") align 8 %2, %"class.std::__1::function"* dereferenceable(32) %3) #14
  br label %150

50:                                               ; preds = %39, %50
  %51 = phi i32* [ %59, %50 ], [ %19, %39 ]
  %52 = phi i32 [ %56, %50 ], [ 0, %39 ]
  %53 = getelementptr inbounds i32, i32* %51, i64 2
  %54 = load i32, i32* %53, align 4
  %55 = call i32 @_ZNK2sw11SpirvShader19VisitInterfaceInnerENS_7SpirvIDINS0_4TypeEEENS0_11DecorationsERKNSt3__18functionIFvS4_NS0_10AttribTypeEEEE(%"class.sw::SpirvShader"* %0, i32 %54, %"struct.sw::SpirvShader::Decorations"* nonnull byval(%"struct.sw::SpirvShader::Decorations") align 8 %2, %"class.std::__1::function"* dereferenceable(32) %3) #14
  %56 = add nuw i32 %52, 1
  %57 = load i32, i32* %43, align 8
  %58 = add nsw i32 %57, 1
  store i32 %58, i32* %43, align 8
  %59 = load i32*, i32** %18, align 8
  %60 = getelementptr inbounds i32, i32* %59, i64 3
  %61 = load i32, i32* %60, align 4
  %62 = icmp ult i32 %56, %61
  br i1 %62, label %50, label %150

63:                                               ; preds = %67, %33
  %64 = getelementptr inbounds %"struct.sw::SpirvShader::Decorations", %"struct.sw::SpirvShader::Decorations"* %2, i64 0, i32 0
  %65 = load i32, i32* %64, align 8
  %66 = add nsw i32 %65, 1
  br label %150

67:                                               ; preds = %37, %67
  %68 = phi i32* [ %19, %37 ], [ %76, %67 ]
  %69 = phi i32 [ 0, %37 ], [ %73, %67 ]
  %70 = getelementptr inbounds i32, i32* %68, i64 2
  %71 = load i32, i32* %70, align 4
  %72 = call i32 @_ZNK2sw11SpirvShader19VisitInterfaceInnerENS_7SpirvIDINS0_4TypeEEENS0_11DecorationsERKNSt3__18functionIFvS4_NS0_10AttribTypeEEEE(%"class.sw::SpirvShader"* %0, i32 %71, %"struct.sw::SpirvShader::Decorations"* nonnull byval(%"struct.sw::SpirvShader::Decorations") align 8 %2, %"class.std::__1::function"* dereferenceable(32) %3) #14
  %73 = add nuw i32 %69, 1
  %74 = load i32, i32* %38, align 4
  %75 = add nsw i32 %74, 1
  store i32 %75, i32* %38, align 4
  %76 = load i32*, i32** %18, align 8
  %77 = getelementptr inbounds i32, i32* %76, i64 3
  %78 = load i32, i32* %77, align 4
  %79 = icmp ult i32 %73, %78
  br i1 %79, label %67, label %63

80:                                               ; preds = %4
  %81 = bitcast %"struct.sw::SpirvShader::Decorations"* %2 to i8*
  %82 = bitcast %"struct.sw::SpirvShader::Decorations"* %6 to i8*
  call void @llvm.lifetime.start.p0i8(i64 28, i8* nonnull %82)
  call void @llvm.memcpy.p0i8.p0i8.i64(i8* nonnull align 8 %82, i8* nonnull align 8 %81, i64 28, i1 false)
  %83 = getelementptr inbounds %"class.std::__1::function", %"class.std::__1::function"* %3, i64 0, i32 0, i32 1, i32 0
  %84 = load void (%"union.std::__1::__function::__policy_storage"*, %"struct.sw::SpirvShader::Decorations"*, i8)*, void (%"union.std::__1::__function::__policy_storage"*, %"struct.sw::SpirvShader::Decorations"*, i8)** %83, align 8
  %85 = getelementptr inbounds %"class.std::__1::function", %"class.std::__1::function"* %3, i64 0, i32 0, i32 0
  call void %84(%"union.std::__1::__function::__policy_storage"* %85, %"struct.sw::SpirvShader::Decorations"* nonnull dereferenceable(28) %6, i8 zeroext 0) #17
  call void @llvm.lifetime.end.p0i8(i64 28, i8* nonnull %82)
  %86 = getelementptr inbounds %"struct.sw::SpirvShader::Decorations", %"struct.sw::SpirvShader::Decorations"* %2, i64 0, i32 0
  %87 = load i32, i32* %86, align 8
  %88 = add nsw i32 %87, 1
  br label %150

89:                                               ; preds = %4
  %90 = bitcast %"struct.sw::SpirvShader::Decorations"* %2 to i8*
  call void @llvm.memcpy.p0i8.p0i8.i64(i8* nonnull align 8 %12, i8* nonnull align 8 %90, i64 28, i1 false)
  %91 = getelementptr inbounds i32, i32* %19, i64 3
  %92 = load i32, i32* %91, align 4
  %93 = icmp eq i32 %92, 0
  %94 = select i1 %93, i8 2, i8 1
  %95 = bitcast %"struct.sw::SpirvShader::Decorations"* %7 to i8*
  call void @llvm.lifetime.start.p0i8(i64 28, i8* nonnull %95)
  call void @llvm.memcpy.p0i8.p0i8.i64(i8* nonnull align 8 %95, i8* nonnull align 8 %12, i64 28, i1 false) #15
  %96 = getelementptr inbounds %"class.std::__1::function", %"class.std::__1::function"* %3, i64 0, i32 0, i32 1, i32 0
  %97 = load void (%"union.std::__1::__function::__policy_storage"*, %"struct.sw::SpirvShader::Decorations"*, i8)*, void (%"union.std::__1::__function::__policy_storage"*, %"struct.sw::SpirvShader::Decorations"*, i8)** %96, align 8
  %98 = getelementptr inbounds %"class.std::__1::function", %"class.std::__1::function"* %3, i64 0, i32 0, i32 0
  call void %97(%"union.std::__1::__function::__policy_storage"* %98, %"struct.sw::SpirvShader::Decorations"* nonnull dereferenceable(28) %7, i8 zeroext %94) #17
  call void @llvm.lifetime.end.p0i8(i64 28, i8* nonnull %95)
  %99 = getelementptr inbounds %"struct.sw::SpirvShader::Decorations", %"struct.sw::SpirvShader::Decorations"* %2, i64 0, i32 0
  %100 = load i32, i32* %99, align 8
  %101 = add nsw i32 %100, 1
  br label %150

102:                                              ; preds = %4
  %103 = bitcast %"struct.sw::SpirvShader::Decorations"* %2 to i8*
  %104 = bitcast %"struct.sw::SpirvShader::Decorations"* %8 to i8*
  call void @llvm.lifetime.start.p0i8(i64 28, i8* nonnull %104)
  call void @llvm.memcpy.p0i8.p0i8.i64(i8* nonnull align 8 %104, i8* nonnull align 8 %103, i64 28, i1 false)
  %105 = getelementptr inbounds %"class.std::__1::function", %"class.std::__1::function"* %3, i64 0, i32 0, i32 1, i32 0
  %106 = load void (%"union.std::__1::__function::__policy_storage"*, %"struct.sw::SpirvShader::Decorations"*, i8)*, void (%"union.std::__1::__function::__policy_storage"*, %"struct.sw::SpirvShader::Decorations"*, i8)** %105, align 8
  %107 = getelementptr inbounds %"class.std::__1::function", %"class.std::__1::function"* %3, i64 0, i32 0, i32 0
  call void %106(%"union.std::__1::__function::__policy_storage"* %107, %"struct.sw::SpirvShader::Decorations"* nonnull dereferenceable(28) %8, i8 zeroext 2) #17
  call void @llvm.lifetime.end.p0i8(i64 28, i8* nonnull %104)
  %108 = getelementptr inbounds %"struct.sw::SpirvShader::Decorations", %"struct.sw::SpirvShader::Decorations"* %2, i64 0, i32 0
  %109 = load i32, i32* %108, align 8
  %110 = add nsw i32 %109, 1
  br label %150

111:                                              ; preds = %28, %111
  %112 = phi i64 [ 0, %28 ], [ %120, %111 ]
  call void @llvm.lifetime.start.p0i8(i64 28, i8* nonnull %29) #15
  call void @llvm.memcpy.p0i8.p0i8.i64(i8* nonnull align 8 %29, i8* nonnull align 8 %30, i64 28, i1 false)
  %113 = trunc i64 %112 to i32
  call void @_ZNK2sw11SpirvShader27ApplyDecorationsForIdMemberEPNS0_11DecorationsENS_7SpirvIDINS0_4TypeEEEj(%"class.sw::SpirvShader"* %0, %"struct.sw::SpirvShader::Decorations"* nonnull %11, i32 %1, i32 %113) #14
  %114 = add nuw i64 %112, 2
  %115 = and i64 %114, 4294967295
  %116 = load i32*, i32** %18, align 8
  %117 = getelementptr inbounds i32, i32* %116, i64 %115
  %118 = load i32, i32* %117, align 4
  %119 = call i32 @_ZNK2sw11SpirvShader19VisitInterfaceInnerENS_7SpirvIDINS0_4TypeEEENS0_11DecorationsERKNSt3__18functionIFvS4_NS0_10AttribTypeEEEE(%"class.sw::SpirvShader"* %0, i32 %118, %"struct.sw::SpirvShader::Decorations"* nonnull byval(%"struct.sw::SpirvShader::Decorations") align 8 %11, %"class.std::__1::function"* dereferenceable(32) %3) #14
  store i32 %119, i32* %31, align 8
  store i32 0, i32* %32, align 4
  call void @llvm.lifetime.end.p0i8(i64 28, i8* nonnull %29) #15
  %120 = add nuw nsw i64 %112, 1
  %121 = load i32*, i32** %18, align 8
  %122 = load i32, i32* %121, align 4
  %123 = lshr i32 %122, 16
  %124 = add nsw i32 %123, -2
  %125 = zext i32 %124 to i64
  %126 = icmp ult i64 %120, %125
  br i1 %126, label %111, label %150

127:                                              ; preds = %4
  %128 = getelementptr inbounds i32, i32* %19, i64 3
  %129 = load i32, i32* %128, align 4
  %130 = bitcast %"class.sw::SpirvID.328"* %5 to i8*
  call void @llvm.lifetime.start.p0i8(i64 4, i8* nonnull %130) #15
  %131 = getelementptr inbounds %"class.sw::SpirvID.328", %"class.sw::SpirvID.328"* %5, i64 0, i32 0
  store i32 %129, i32* %131, align 4
  %132 = getelementptr inbounds %"class.sw::SpirvShader", %"class.sw::SpirvShader"* %0, i64 0, i32 14, i32 0
  %133 = call %"struct.std::__1::__hash_node_base.203"* @_ZNKSt3__112__hash_tableINS_17__hash_value_typeIN2sw7SpirvIDINS2_11SpirvShader6ObjectEEES5_EENS_22__unordered_map_hasherIS6_S7_NS_4hashIS6_EENS_8equal_toIS6_EELb1EEENS_21__unordered_map_equalIS6_S7_SC_SA_Lb1EEENS_9allocatorIS7_EEE4findIS6_EENS_21__hash_const_iteratorIPNS_11__hash_nodeIS7_PvEEEERKT_(%"class.std::__1::__hash_table.199"* %132, %"class.sw::SpirvID.328"* nonnull dereferenceable(4) %5) #17
  call void @llvm.lifetime.end.p0i8(i64 4, i8* nonnull %130) #15
  %134 = getelementptr inbounds %"struct.std::__1::__hash_node_base.203", %"struct.std::__1::__hash_node_base.203"* %133, i64 4
  %135 = bitcast %"struct.std::__1::__hash_node_base.203"* %134 to i32**
  %136 = load i32*, i32** %135, align 8
  %137 = load i32, i32* %136, align 4
  %138 = icmp eq i32 %137, 0
  %139 = getelementptr inbounds %"struct.sw::SpirvShader::Decorations", %"struct.sw::SpirvShader::Decorations"* %2, i64 0, i32 0
  br i1 %138, label %140, label %142

140:                                              ; preds = %127
  %141 = load i32, i32* %139, align 8
  br label %150

142:                                              ; preds = %127, %142
  %143 = phi i32 [ %148, %142 ], [ 0, %127 ]
  %144 = load i32*, i32** %18, align 8
  %145 = getelementptr inbounds i32, i32* %144, i64 2
  %146 = load i32, i32* %145, align 4
  %147 = call i32 @_ZNK2sw11SpirvShader19VisitInterfaceInnerENS_7SpirvIDINS0_4TypeEEENS0_11DecorationsERKNSt3__18functionIFvS4_NS0_10AttribTypeEEEE(%"class.sw::SpirvShader"* %0, i32 %146, %"struct.sw::SpirvShader::Decorations"* nonnull byval(%"struct.sw::SpirvShader::Decorations") align 8 %2, %"class.std::__1::function"* dereferenceable(32) %3) #14
  store i32 %147, i32* %139, align 8
  %148 = add nuw i32 %143, 1
  %149 = icmp eq i32 %148, %137
  br i1 %149, label %150, label %142

150:                                              ; preds = %142, %111, %50, %140, %25, %44, %4, %102, %89, %80, %63, %46
  %151 = phi i32 [ %110, %102 ], [ %101, %89 ], [ %88, %80 ], [ %66, %63 ], [ %49, %46 ], [ 0, %4 ], [ %45, %44 ], [ %27, %25 ], [ %141, %140 ], [ %58, %50 ], [ %119, %111 ], [ %147, %142 ]
  ret i32 %151
}

; Function Attrs: nounwind optsize ssp uwtable
define hidden void @_ZNK2sw11SpirvShader21ApplyDecorationsForIdEPNS0_11DecorationsENS0_14TypeOrObjectIDE(%"class.sw::SpirvShader"*, %"struct.sw::SpirvShader::Decorations"* nocapture, i32) local_unnamed_addr #0 align 2 {
  %4 = alloca %"class.sw::SpirvShader::TypeOrObjectID", align 4
  %5 = getelementptr inbounds %"class.sw::SpirvShader::TypeOrObjectID", %"class.sw::SpirvShader::TypeOrObjectID"* %4, i64 0, i32 0, i32 0
  store i32 %2, i32* %5, align 4
  %6 = getelementptr inbounds %"class.sw::SpirvShader", %"class.sw::SpirvShader"* %0, i64 0, i32 1, i32 0
  %7 = call %"struct.std::__1::__hash_node_base"* @_ZNKSt3__112__hash_tableINS_17__hash_value_typeIN2sw11SpirvShader14TypeOrObjectIDENS3_11DecorationsEEENS_22__unordered_map_hasherIS4_S6_NS_4hashINS2_7SpirvIDINS3_12TypeOrObjectEEEEENS_8equal_toIS4_EELb1EEENS_21__unordered_map_equalIS4_S6_SE_SC_Lb1EEENS_9allocatorIS6_EEE4findIS4_EENS_21__hash_const_iteratorIPNS_11__hash_nodeIS6_PvEEEERKT_(%"class.std::__1::__hash_table"* %6, %"class.sw::SpirvShader::TypeOrObjectID"* nonnull dereferenceable(4) %4) #17
  %8 = icmp eq %"struct.std::__1::__hash_node_base"* %7, null
  br i1 %8, label %13, label %9

9:                                                ; preds = %3
  %10 = getelementptr inbounds %"struct.std::__1::__hash_node_base", %"struct.std::__1::__hash_node_base"* %7, i64 2
  %11 = bitcast %"struct.std::__1::__hash_node_base"* %10 to %"struct.std::__1::pair"*
  %12 = getelementptr inbounds %"struct.std::__1::pair", %"struct.std::__1::pair"* %11, i64 0, i32 1
  call void @_ZN2sw11SpirvShader11Decorations5ApplyERKS1_(%"struct.sw::SpirvShader::Decorations"* %1, %"struct.sw::SpirvShader::Decorations"* dereferenceable(28) %12) #14
  br label %13

13:                                               ; preds = %3, %9
  ret void
}

; Function Attrs: nounwind optsize ssp uwtable
define hidden void @_ZNK2sw11SpirvShader27ApplyDecorationsForIdMemberEPNS0_11DecorationsENS_7SpirvIDINS0_4TypeEEEj(%"class.sw::SpirvShader"*, %"struct.sw::SpirvShader::Decorations"* nocapture, i32, i32) local_unnamed_addr #0 align 2 {
  %5 = alloca %"class.sw::SpirvID.329", align 4
  %6 = getelementptr inbounds %"class.sw::SpirvID.329", %"class.sw::SpirvID.329"* %5, i64 0, i32 0
  store i32 %2, i32* %6, align 4
  %7 = getelementptr inbounds %"class.sw::SpirvShader", %"class.sw::SpirvShader"* %0, i64 0, i32 2, i32 0
  %8 = call %"struct.std::__1::__hash_node_base.60"* @_ZNKSt3__112__hash_tableINS_17__hash_value_typeIN2sw7SpirvIDINS2_11SpirvShader4TypeEEENS_6vectorINS4_11DecorationsENS_9allocatorIS8_EEEEEENS_22__unordered_map_hasherIS6_SC_NS_4hashIS6_EENS_8equal_toIS6_EELb1EEENS_21__unordered_map_equalIS6_SC_SH_SF_Lb1EEENS9_ISC_EEE4findIS6_EENS_21__hash_const_iteratorIPNS_11__hash_nodeISC_PvEEEERKT_(%"class.std::__1::__hash_table.56"* %7, %"class.sw::SpirvID.329"* nonnull dereferenceable(4) %5) #17
  %9 = icmp eq %"struct.std::__1::__hash_node_base.60"* %8, null
  br i1 %9, label %24, label %10

10:                                               ; preds = %4
  %11 = zext i32 %3 to i64
  %12 = getelementptr inbounds %"struct.std::__1::__hash_node_base.60", %"struct.std::__1::__hash_node_base.60"* %8, i64 3
  %13 = getelementptr inbounds %"struct.std::__1::__hash_node_base.60", %"struct.std::__1::__hash_node_base.60"* %8, i64 4
  %14 = bitcast %"struct.std::__1::__hash_node_base.60"* %13 to i64*
  %15 = load i64, i64* %14, align 8
  %16 = bitcast %"struct.std::__1::__hash_node_base.60"* %12 to i64*
  %17 = load i64, i64* %16, align 8
  %18 = sub i64 %15, %17
  %19 = sdiv exact i64 %18, 28
  %20 = icmp ugt i64 %19, %11
  br i1 %20, label %21, label %24

21:                                               ; preds = %10
  %22 = inttoptr i64 %17 to %"struct.sw::SpirvShader::Decorations"*
  %23 = getelementptr inbounds %"struct.sw::SpirvShader::Decorations", %"struct.sw::SpirvShader::Decorations"* %22, i64 %11
  call void @_ZN2sw11SpirvShader11Decorations5ApplyERKS1_(%"struct.sw::SpirvShader::Decorations"* %1, %"struct.sw::SpirvShader::Decorations"* dereferenceable(28) %23) #14
  br label %24

24:                                               ; preds = %4, %21, %10
  ret void
}

; Function Attrs: nounwind optsize ssp uwtable
define hidden void @_ZNK2sw11SpirvShader29WalkExplicitLayoutAccessChainENS_7SpirvIDINS0_6ObjectEEEjPKjPKNS0_9EmitStateE(%"struct.sw::SIMD::Pointer"* noalias sret, %"class.sw::SpirvShader"*, i32, i32, i32* nocapture readonly, %"class.sw::SpirvShader::EmitState"*) local_unnamed_addr #0 align 2 {
  %7 = alloca %"class.sw::SpirvID.328", align 4
  %8 = alloca %"class.sw::SpirvID.328", align 4
  %9 = alloca %"class.sw::SpirvID.328", align 4
  %10 = alloca %"class.sw::SpirvID.328", align 4
  %11 = alloca %"class.sw::SpirvID.328", align 4
  %12 = alloca %"class.sw::SpirvID.328", align 4
  %13 = alloca %"class.sw::SpirvID.328", align 4
  %14 = alloca %"class.sw::SpirvID.329", align 4
  %15 = alloca %"class.sw::SpirvID.329", align 4
  %16 = alloca %"class.sw::SpirvID.328", align 4
  %17 = alloca %"class.sw::SpirvID.328", align 4
  %18 = alloca %"class.sw::SpirvID.328", align 4
  %19 = alloca %"class.sw::SpirvID.328", align 4
  %20 = alloca %"class.sw::SpirvID.328", align 4
  %21 = alloca %"class.sw::SpirvID.329", align 4
  %22 = alloca %"class.sw::SpirvID.328", align 4
  %23 = alloca %"class.sw::SpirvID.329", align 4
  %24 = alloca %"class.sw::SpirvID.328", align 4
  %25 = alloca %"struct.sw::SpirvShader::Decorations", align 4
  %26 = alloca %"class.rr::Int", align 8
  %27 = alloca %"class.rr::RValue", align 8
  %28 = alloca %"class.rr::RValue", align 8
  %29 = alloca %"class.rr::RValue.1105", align 8
  %30 = alloca %"class.rr::RValue", align 8
  %31 = alloca %"class.rr::Int", align 8
  %32 = alloca %"class.rr::Int4", align 8
  %33 = alloca %"class.rr::RValue.1105", align 8
  %34 = alloca %"class.rr::RValue.1105", align 8
  %35 = alloca %"class.rr::Int4", align 8
  %36 = alloca %"class.rr::RValue.1105", align 8
  %37 = alloca %"class.rr::Int4", align 8
  %38 = alloca %"class.rr::RValue.1105", align 8
  %39 = alloca %"class.rr::RValue.1105", align 8
  %40 = alloca %"class.rr::Int4", align 8
  %41 = alloca %"class.rr::RValue.1105", align 8
  %42 = alloca %"class.rr::Int4", align 8
  %43 = alloca %"class.rr::RValue.1105", align 8
  %44 = alloca %"class.rr::RValue.1105", align 8
  %45 = alloca %"class.rr::Int4", align 8
  %46 = alloca %"class.rr::RValue.1105", align 8
  %47 = bitcast %"class.sw::SpirvID.328"* %24 to i8*
  call void @llvm.lifetime.start.p0i8(i64 4, i8* nonnull %47)
  %48 = getelementptr inbounds %"class.sw::SpirvID.328", %"class.sw::SpirvID.328"* %24, i64 0, i32 0
  store i32 %2, i32* %48, align 4
  %49 = getelementptr inbounds %"class.sw::SpirvShader", %"class.sw::SpirvShader"* %1, i64 0, i32 14, i32 0
  %50 = call %"struct.std::__1::__hash_node_base.203"* @_ZNKSt3__112__hash_tableINS_17__hash_value_typeIN2sw7SpirvIDINS2_11SpirvShader6ObjectEEES5_EENS_22__unordered_map_hasherIS6_S7_NS_4hashIS6_EENS_8equal_toIS6_EELb1EEENS_21__unordered_map_equalIS6_S7_SC_SA_Lb1EEENS_9allocatorIS7_EEE4findIS6_EENS_21__hash_const_iteratorIPNS_11__hash_nodeIS7_PvEEEERKT_(%"class.std::__1::__hash_table.199"* %49, %"class.sw::SpirvID.328"* nonnull dereferenceable(4) %24) #17
  %51 = getelementptr inbounds %"struct.std::__1::__hash_node_base.203", %"struct.std::__1::__hash_node_base.203"* %50, i64 3
  call void @llvm.lifetime.end.p0i8(i64 4, i8* nonnull %47)
  %52 = bitcast %"struct.std::__1::__hash_node_base.203"* %51 to i32**
  %53 = load i32*, i32** %52, align 8
  %54 = getelementptr inbounds i32, i32* %53, i64 1
  %55 = load i32, i32* %54, align 4
  %56 = bitcast %"class.sw::SpirvID.329"* %23 to i8*
  call void @llvm.lifetime.start.p0i8(i64 4, i8* nonnull %56) #15
  %57 = getelementptr inbounds %"class.sw::SpirvID.329", %"class.sw::SpirvID.329"* %23, i64 0, i32 0
  store i32 %55, i32* %57, align 4
  %58 = getelementptr inbounds %"class.sw::SpirvShader", %"class.sw::SpirvShader"* %1, i64 0, i32 13, i32 0
  %59 = call %"struct.std::__1::__hash_node_base.179"* @_ZNKSt3__112__hash_tableINS_17__hash_value_typeIN2sw7SpirvIDINS2_11SpirvShader4TypeEEES5_EENS_22__unordered_map_hasherIS6_S7_NS_4hashIS6_EENS_8equal_toIS6_EELb1EEENS_21__unordered_map_equalIS6_S7_SC_SA_Lb1EEENS_9allocatorIS7_EEE4findIS6_EENS_21__hash_const_iteratorIPNS_11__hash_nodeIS7_PvEEEERKT_(%"class.std::__1::__hash_table.175"* %58, %"class.sw::SpirvID.329"* nonnull dereferenceable(4) %23) #17
  %60 = getelementptr inbounds %"struct.std::__1::__hash_node_base.179", %"struct.std::__1::__hash_node_base.179"* %59, i64 3
  %61 = bitcast %"struct.std::__1::__hash_node_base.179"* %60 to %"class.sw::SpirvShader::Type"*
  call void @llvm.lifetime.end.p0i8(i64 4, i8* nonnull %56) #15
  %62 = getelementptr inbounds %"class.sw::SpirvShader::Type", %"class.sw::SpirvShader::Type"* %61, i64 0, i32 4, i32 0
  %63 = load i32, i32* %62, align 4
  %64 = bitcast %"struct.sw::SpirvShader::Decorations"* %25 to i8*
  call void @llvm.lifetime.start.p0i8(i64 28, i8* nonnull %64) #15
  %65 = getelementptr inbounds %"struct.sw::SpirvShader::Decorations", %"struct.sw::SpirvShader::Decorations"* %25, i64 0, i32 0
  %66 = getelementptr inbounds %"struct.sw::SpirvShader::Decorations", %"struct.sw::SpirvShader::Decorations"* %25, i64 0, i32 1
  %67 = getelementptr inbounds %"struct.sw::SpirvShader::Decorations", %"struct.sw::SpirvShader::Decorations"* %25, i64 0, i32 2
  %68 = getelementptr inbounds %"struct.sw::SpirvShader::Decorations", %"struct.sw::SpirvShader::Decorations"* %25, i64 0, i32 3
  %69 = getelementptr inbounds %"struct.sw::SpirvShader::Decorations", %"struct.sw::SpirvShader::Decorations"* %25, i64 0, i32 4
  %70 = getelementptr inbounds %"struct.sw::SpirvShader::Decorations", %"struct.sw::SpirvShader::Decorations"* %25, i64 0, i32 5
  %71 = getelementptr inbounds %"struct.sw::SpirvShader::Decorations", %"struct.sw::SpirvShader::Decorations"* %25, i64 0, i32 6
  %72 = bitcast %"struct.sw::SpirvShader::Decorations"* %25 to i8*
  call void @llvm.memset.p0i8.i64(i8* nonnull align 4 %72, i8 -86, i64 28, i1 false)
  store i32 -1, i32* %65, align 4
  store i32 0, i32* %66, align 4
  %73 = bitcast i32* %67 to i8*
  call void @llvm.memset.p0i8.i64(i8* align 4 %73, i8 -1, i64 16, i1 false) #15
  store i16 -32768, i16* %71, align 4
  %74 = load i32*, i32** %52, align 8
  %75 = getelementptr inbounds i32, i32* %74, i64 1
  %76 = load i32, i32* %75, align 4
  call void @_ZNK2sw11SpirvShader21ApplyDecorationsForIdEPNS0_11DecorationsENS0_14TypeOrObjectIDE(%"class.sw::SpirvShader"* %1, %"struct.sw::SpirvShader::Decorations"* nonnull %25, i32 %76) #14
  %77 = bitcast %"class.rr::Int"* %26 to i8*
  call void @llvm.lifetime.start.p0i8(i64 40, i8* nonnull %77) #15
  call void @llvm.memset.p0i8.i64(i8* nonnull align 8 %77, i8 -86, i64 40, i1 false)
  call void @_ZN2rr3IntC1Ei(%"class.rr::Int"* nonnull %26, i32 0) #17
  %78 = getelementptr inbounds %"struct.std::__1::__hash_node_base.203", %"struct.std::__1::__hash_node_base.203"* %50, i64 7
  %79 = bitcast %"struct.std::__1::__hash_node_base.203"* %78 to i32*
  %80 = load i32, i32* %79, align 8
  %81 = icmp eq i32 %80, 5
  br i1 %81, label %82, label %136

82:                                               ; preds = %6
  %83 = bitcast %"class.sw::SpirvID.329"* %21 to i8*
  call void @llvm.lifetime.start.p0i8(i64 4, i8* nonnull %83)
  %84 = getelementptr inbounds %"class.sw::SpirvID.329", %"class.sw::SpirvID.329"* %21, i64 0, i32 0
  store i32 %63, i32* %84, align 4
  %85 = call %"struct.std::__1::__hash_node_base.179"* @_ZNKSt3__112__hash_tableINS_17__hash_value_typeIN2sw7SpirvIDINS2_11SpirvShader4TypeEEES5_EENS_22__unordered_map_hasherIS6_S7_NS_4hashIS6_EENS_8equal_toIS6_EELb1EEENS_21__unordered_map_equalIS6_S7_SC_SA_Lb1EEENS_9allocatorIS7_EEE4findIS6_EENS_21__hash_const_iteratorIPNS_11__hash_nodeIS7_PvEEEERKT_(%"class.std::__1::__hash_table.175"* %58, %"class.sw::SpirvID.329"* nonnull dereferenceable(4) %21) #17
  %86 = getelementptr inbounds %"struct.std::__1::__hash_node_base.179", %"struct.std::__1::__hash_node_base.179"* %85, i64 3
  call void @llvm.lifetime.end.p0i8(i64 4, i8* nonnull %83)
  %87 = bitcast %"struct.std::__1::__hash_node_base.179"* %86 to i32**
  %88 = load i32*, i32** %87, align 8
  %89 = load i32, i32* %88, align 4
  %90 = and i32 %89, 65534
  %91 = or i32 %90, 1
  %92 = icmp eq i32 %91, 29
  br i1 %92, label %93, label %136

93:                                               ; preds = %82
  %94 = load i32, i32* %4, align 4
  %95 = bitcast %"class.sw::SpirvID.328"* %19 to i8*
  call void @llvm.lifetime.start.p0i8(i64 4, i8* nonnull %95)
  %96 = getelementptr inbounds %"class.sw::SpirvID.328", %"class.sw::SpirvID.328"* %19, i64 0, i32 0
  store i32 %94, i32* %96, align 4
  %97 = call %"struct.std::__1::__hash_node_base.203"* @_ZNKSt3__112__hash_tableINS_17__hash_value_typeIN2sw7SpirvIDINS2_11SpirvShader6ObjectEEES5_EENS_22__unordered_map_hasherIS6_S7_NS_4hashIS6_EENS_8equal_toIS6_EELb1EEENS_21__unordered_map_equalIS6_S7_SC_SA_Lb1EEENS_9allocatorIS7_EEE4findIS6_EENS_21__hash_const_iteratorIPNS_11__hash_nodeIS7_PvEEEERKT_(%"class.std::__1::__hash_table.199"* %49, %"class.sw::SpirvID.328"* nonnull dereferenceable(4) %19) #17
  call void @llvm.lifetime.end.p0i8(i64 4, i8* nonnull %95)
  %98 = getelementptr inbounds %"struct.std::__1::__hash_node_base.203", %"struct.std::__1::__hash_node_base.203"* %97, i64 7
  %99 = bitcast %"struct.std::__1::__hash_node_base.203"* %98 to i32*
  %100 = load i32, i32* %99, align 8
  %101 = icmp eq i32 %100, 2
  %102 = load i32, i32* %4, align 4
  br i1 %101, label %103, label %112

103:                                              ; preds = %93
  %104 = bitcast %"class.sw::SpirvID.328"* %17 to i8*
  call void @llvm.lifetime.start.p0i8(i64 4, i8* nonnull %104) #15
  %105 = getelementptr inbounds %"class.sw::SpirvID.328", %"class.sw::SpirvID.328"* %17, i64 0, i32 0
  store i32 %102, i32* %105, align 4
  %106 = call %"struct.std::__1::__hash_node_base.203"* @_ZNKSt3__112__hash_tableINS_17__hash_value_typeIN2sw7SpirvIDINS2_11SpirvShader6ObjectEEES5_EENS_22__unordered_map_hasherIS6_S7_NS_4hashIS6_EENS_8equal_toIS6_EELb1EEENS_21__unordered_map_equalIS6_S7_SC_SA_Lb1EEENS_9allocatorIS7_EEE4findIS6_EENS_21__hash_const_iteratorIPNS_11__hash_nodeIS7_PvEEEERKT_(%"class.std::__1::__hash_table.199"* %49, %"class.sw::SpirvID.328"* nonnull dereferenceable(4) %17) #17
  call void @llvm.lifetime.end.p0i8(i64 4, i8* nonnull %104) #15
  %107 = getelementptr inbounds %"struct.std::__1::__hash_node_base.203", %"struct.std::__1::__hash_node_base.203"* %106, i64 4
  %108 = bitcast %"struct.std::__1::__hash_node_base.203"* %107 to i32**
  %109 = load i32*, i32** %108, align 8
  %110 = load i32, i32* %109, align 4
  %111 = bitcast %"class.rr::RValue"* %27 to i8*
  call void @llvm.lifetime.start.p0i8(i64 8, i8* nonnull %111) #15
  call void @_ZN2rr3IntaSEi(%"class.rr::RValue"* nonnull sret %27, %"class.rr::Int"* nonnull %26, i32 %110) #17
  br label %125

112:                                              ; preds = %93
  %113 = bitcast %"class.sw::SpirvID.328"* %16 to i8*
  call void @llvm.lifetime.start.p0i8(i64 4, i8* nonnull %113)
  %114 = getelementptr inbounds %"class.sw::SpirvID.328", %"class.sw::SpirvID.328"* %16, i64 0, i32 0
  store i32 %102, i32* %114, align 4
  %115 = getelementptr inbounds %"class.sw::SpirvShader::EmitState", %"class.sw::SpirvShader::EmitState"* %5, i64 0, i32 9, i32 0
  %116 = call %"struct.std::__1::__hash_node_base.1061"* @_ZNKSt3__112__hash_tableINS_17__hash_value_typeIN2sw7SpirvIDINS2_11SpirvShader6ObjectEEENS2_12IntermediateEEENS_22__unordered_map_hasherIS6_S8_NS_4hashIS6_EENS_8equal_toIS6_EELb1EEENS_21__unordered_map_equalIS6_S8_SD_SB_Lb1EEENS_9allocatorIS8_EEE4findIS6_EENS_21__hash_const_iteratorIPNS_11__hash_nodeIS8_PvEEEERKT_(%"class.std::__1::__hash_table.1057"* %115, %"class.sw::SpirvID.328"* nonnull dereferenceable(4) %16) #17
  call void @llvm.lifetime.end.p0i8(i64 4, i8* nonnull %113)
  %117 = getelementptr inbounds %"struct.std::__1::__hash_node_base.1061", %"struct.std::__1::__hash_node_base.1061"* %116, i64 4
  %118 = bitcast %"struct.std::__1::__hash_node_base.1061"* %117 to %"class.rr::Value"***
  %119 = load %"class.rr::Value"**, %"class.rr::Value"*** %118, align 8, !noalias !6
  %120 = load %"class.rr::Value"*, %"class.rr::Value"** %119, align 8, !noalias !6
  %121 = call %"class.rr::Type"* @_ZN2rr4Int44typeEv() #17, !noalias !9
  %122 = call %"class.rr::Value"* @_ZN2rr7Nucleus13createBitCastEPNS_5ValueEPNS_4TypeE(%"class.rr::Value"* %120, %"class.rr::Type"* %121) #17, !noalias !9
  %123 = getelementptr inbounds %"class.rr::RValue.1105", %"class.rr::RValue.1105"* %29, i64 0, i32 0
  store %"class.rr::Value"* %122, %"class.rr::Value"** %123, align 8, !alias.scope !9
  call void @_ZN2rr7ExtractENS_6RValueINS_4Int4EEEi(%"class.rr::RValue"* nonnull sret %28, %"class.rr::RValue.1105"* nonnull %29, i32 0) #17
  %124 = bitcast %"class.rr::RValue"* %30 to i8*
  call void @llvm.lifetime.start.p0i8(i64 8, i8* nonnull %124) #15
  call void @_ZN2rr3IntaSENS_6RValueIS0_EE(%"class.rr::RValue"* nonnull sret %30, %"class.rr::Int"* nonnull %26, %"class.rr::RValue"* nonnull %28) #17
  br label %125

125:                                              ; preds = %112, %103
  %126 = phi i8* [ %124, %112 ], [ %111, %103 ]
  call void @llvm.lifetime.end.p0i8(i64 8, i8* nonnull %126) #15
  %127 = add i32 %3, -1
  %128 = getelementptr inbounds i32, i32* %4, i64 1
  %129 = bitcast %"class.sw::SpirvID.329"* %15 to i8*
  call void @llvm.lifetime.start.p0i8(i64 4, i8* nonnull %129)
  %130 = getelementptr inbounds %"class.sw::SpirvID.329", %"class.sw::SpirvID.329"* %15, i64 0, i32 0
  store i32 %63, i32* %130, align 4
  %131 = call %"struct.std::__1::__hash_node_base.179"* @_ZNKSt3__112__hash_tableINS_17__hash_value_typeIN2sw7SpirvIDINS2_11SpirvShader4TypeEEES5_EENS_22__unordered_map_hasherIS6_S7_NS_4hashIS6_EENS_8equal_toIS6_EELb1EEENS_21__unordered_map_equalIS6_S7_SC_SA_Lb1EEENS_9allocatorIS7_EEE4findIS6_EENS_21__hash_const_iteratorIPNS_11__hash_nodeIS7_PvEEEERKT_(%"class.std::__1::__hash_table.175"* %58, %"class.sw::SpirvID.329"* nonnull dereferenceable(4) %15) #17
  %132 = getelementptr inbounds %"struct.std::__1::__hash_node_base.179", %"struct.std::__1::__hash_node_base.179"* %131, i64 3
  %133 = bitcast %"struct.std::__1::__hash_node_base.179"* %132 to %"class.sw::SpirvShader::Type"*
  call void @llvm.lifetime.end.p0i8(i64 4, i8* nonnull %129)
  %134 = getelementptr inbounds %"class.sw::SpirvShader::Type", %"class.sw::SpirvShader::Type"* %133, i64 0, i32 4, i32 0
  %135 = load i32, i32* %134, align 4
  br label %136

136:                                              ; preds = %125, %82, %6
  %137 = phi i32 [ %63, %6 ], [ %135, %125 ], [ %63, %82 ]
  %138 = phi i32* [ %4, %6 ], [ %128, %125 ], [ %4, %82 ]
  %139 = phi i32 [ %3, %6 ], [ %127, %125 ], [ %3, %82 ]
  %140 = bitcast %"struct.sw::SIMD::Pointer"* %0 to i8*
  call void @llvm.memset.p0i8.i64(i8* align 8 %140, i8 -86, i64 168, i1 false)
  call void @_ZN2rr3IntC1ERKS0_(%"class.rr::Int"* nonnull %31, %"class.rr::Int"* nonnull dereferenceable(40) %26) #17
  call void @_ZNK2sw11SpirvShader16GetPointerToDataENS_7SpirvIDINS0_6ObjectEEEN2rr3IntEPKNS0_9EmitStateE(%"struct.sw::SIMD::Pointer"* sret %0, %"class.sw::SpirvShader"* %1, i32 %2, %"class.rr::Int"* nonnull %31, %"class.sw::SpirvShader::EmitState"* %5) #17
  %141 = getelementptr inbounds %"class.rr::Int", %"class.rr::Int"* %31, i64 0, i32 0, i32 0
  call void @_ZN2rr8VariableD2Ev(%"class.rr::Variable"* nonnull %141) #17
  %142 = icmp eq i32 %139, 0
  br i1 %142, label %183, label %143

143:                                              ; preds = %136
  %144 = bitcast %"class.sw::SpirvID.329"* %14 to i8*
  %145 = getelementptr inbounds %"class.sw::SpirvID.329", %"class.sw::SpirvID.329"* %14, i64 0, i32 0
  %146 = bitcast %"class.sw::SpirvID.328"* %18 to i8*
  %147 = getelementptr inbounds %"class.sw::SpirvID.328", %"class.sw::SpirvID.328"* %18, i64 0, i32 0
  %148 = bitcast %"class.rr::Int4"* %45 to i8*
  %149 = getelementptr inbounds %"class.rr::RValue.1105", %"class.rr::RValue.1105"* %44, i64 0, i32 0
  %150 = getelementptr inbounds %"class.rr::Int4", %"class.rr::Int4"* %45, i64 0, i32 0, i32 0
  %151 = bitcast %"class.sw::SpirvID.328"* %22 to i8*
  %152 = getelementptr inbounds %"class.sw::SpirvID.328", %"class.sw::SpirvID.328"* %22, i64 0, i32 0
  %153 = getelementptr inbounds %"class.sw::SpirvShader::EmitState", %"class.sw::SpirvShader::EmitState"* %5, i64 0, i32 9, i32 0
  %154 = getelementptr inbounds %"class.rr::RValue.1105", %"class.rr::RValue.1105"* %46, i64 0, i32 0
  %155 = getelementptr inbounds %"class.rr::Int4", %"class.rr::Int4"* %42, i64 0, i32 0, i32 0
  %156 = bitcast %"class.sw::SpirvID.328"* %20 to i8*
  %157 = getelementptr inbounds %"class.sw::SpirvID.328", %"class.sw::SpirvID.328"* %20, i64 0, i32 0
  %158 = bitcast %"class.sw::SpirvID.328"* %10 to i8*
  %159 = getelementptr inbounds %"class.sw::SpirvID.328", %"class.sw::SpirvID.328"* %10, i64 0, i32 0
  %160 = bitcast %"class.rr::Int4"* %40 to i8*
  %161 = getelementptr inbounds %"class.rr::RValue.1105", %"class.rr::RValue.1105"* %39, i64 0, i32 0
  %162 = getelementptr inbounds %"class.rr::Int4", %"class.rr::Int4"* %40, i64 0, i32 0, i32 0
  %163 = bitcast %"class.sw::SpirvID.328"* %13 to i8*
  %164 = getelementptr inbounds %"class.sw::SpirvID.328", %"class.sw::SpirvID.328"* %13, i64 0, i32 0
  %165 = getelementptr inbounds %"class.rr::RValue.1105", %"class.rr::RValue.1105"* %41, i64 0, i32 0
  %166 = getelementptr inbounds %"class.rr::Int4", %"class.rr::Int4"* %37, i64 0, i32 0, i32 0
  %167 = bitcast %"class.sw::SpirvID.328"* %11 to i8*
  %168 = getelementptr inbounds %"class.sw::SpirvID.328", %"class.sw::SpirvID.328"* %11, i64 0, i32 0
  %169 = bitcast %"class.sw::SpirvID.328"* %9 to i8*
  %170 = getelementptr inbounds %"class.sw::SpirvID.328", %"class.sw::SpirvID.328"* %9, i64 0, i32 0
  %171 = bitcast %"class.rr::Int4"* %35 to i8*
  %172 = getelementptr inbounds %"class.rr::RValue.1105", %"class.rr::RValue.1105"* %34, i64 0, i32 0
  %173 = getelementptr inbounds %"class.rr::Int4", %"class.rr::Int4"* %35, i64 0, i32 0, i32 0
  %174 = bitcast %"class.sw::SpirvID.328"* %7 to i8*
  %175 = getelementptr inbounds %"class.sw::SpirvID.328", %"class.sw::SpirvID.328"* %7, i64 0, i32 0
  %176 = getelementptr inbounds %"class.rr::RValue.1105", %"class.rr::RValue.1105"* %36, i64 0, i32 0
  %177 = getelementptr inbounds %"class.rr::Int4", %"class.rr::Int4"* %32, i64 0, i32 0, i32 0
  %178 = bitcast %"class.sw::SpirvID.328"* %8 to i8*
  %179 = getelementptr inbounds %"class.sw::SpirvID.328", %"class.sw::SpirvID.328"* %8, i64 0, i32 0
  %180 = bitcast %"class.sw::SpirvID.328"* %12 to i8*
  %181 = getelementptr inbounds %"class.sw::SpirvID.328", %"class.sw::SpirvID.328"* %12, i64 0, i32 0
  %182 = zext i32 %139 to i64
  br label %187

183:                                              ; preds = %325, %136
  %184 = phi i32 [ 0, %136 ], [ %326, %325 ]
  %185 = call dereferenceable(168) %"struct.sw::SIMD::Pointer"* @_ZN2sw4SIMD7PointerpLEi(%"struct.sw::SIMD::Pointer"* %0, i32 %184) #17
  %186 = getelementptr inbounds %"class.rr::Int", %"class.rr::Int"* %26, i64 0, i32 0, i32 0
  call void @_ZN2rr8VariableD2Ev(%"class.rr::Variable"* nonnull %186) #17
  call void @llvm.lifetime.end.p0i8(i64 40, i8* nonnull %77) #15
  call void @llvm.lifetime.end.p0i8(i64 28, i8* nonnull %64) #15
  ret void

187:                                              ; preds = %325, %143
  %188 = phi i64 [ 0, %143 ], [ %328, %325 ]
  %189 = phi i32 [ %137, %143 ], [ %327, %325 ]
  %190 = phi i32 [ 0, %143 ], [ %326, %325 ]
  call void @llvm.lifetime.start.p0i8(i64 4, i8* nonnull %144)
  store i32 %189, i32* %145, align 4
  %191 = call %"struct.std::__1::__hash_node_base.179"* @_ZNKSt3__112__hash_tableINS_17__hash_value_typeIN2sw7SpirvIDINS2_11SpirvShader4TypeEEES5_EENS_22__unordered_map_hasherIS6_S7_NS_4hashIS6_EENS_8equal_toIS6_EELb1EEENS_21__unordered_map_equalIS6_S7_SC_SA_Lb1EEENS_9allocatorIS7_EEE4findIS6_EENS_21__hash_const_iteratorIPNS_11__hash_nodeIS7_PvEEEERKT_(%"class.std::__1::__hash_table.175"* %58, %"class.sw::SpirvID.329"* nonnull dereferenceable(4) %14) #17
  %192 = getelementptr inbounds %"struct.std::__1::__hash_node_base.179", %"struct.std::__1::__hash_node_base.179"* %191, i64 3
  %193 = bitcast %"struct.std::__1::__hash_node_base.179"* %192 to %"class.sw::SpirvShader::Type"*
  call void @llvm.lifetime.end.p0i8(i64 4, i8* nonnull %144)
  call void @_ZNK2sw11SpirvShader21ApplyDecorationsForIdEPNS0_11DecorationsENS0_14TypeOrObjectIDE(%"class.sw::SpirvShader"* %1, %"struct.sw::SpirvShader::Decorations"* nonnull %25, i32 %189) #14
  %194 = bitcast %"struct.std::__1::__hash_node_base.179"* %192 to i32**
  %195 = load i32*, i32** %194, align 8
  %196 = load i32, i32* %195, align 4
  %197 = trunc i32 %196 to i16
  switch i16 %197, label %322 [
    i16 30, label %198
    i16 28, label %213
    i16 29, label %213
    i16 24, label %247
    i16 23, label %285
  ]

198:                                              ; preds = %187
  %199 = getelementptr inbounds i32, i32* %138, i64 %188
  %200 = load i32, i32* %199, align 4
  call void @llvm.lifetime.start.p0i8(i64 4, i8* nonnull %180) #15
  store i32 %200, i32* %181, align 4
  %201 = call %"struct.std::__1::__hash_node_base.203"* @_ZNKSt3__112__hash_tableINS_17__hash_value_typeIN2sw7SpirvIDINS2_11SpirvShader6ObjectEEES5_EENS_22__unordered_map_hasherIS6_S7_NS_4hashIS6_EENS_8equal_toIS6_EELb1EEENS_21__unordered_map_equalIS6_S7_SC_SA_Lb1EEENS_9allocatorIS7_EEE4findIS6_EENS_21__hash_const_iteratorIPNS_11__hash_nodeIS7_PvEEEERKT_(%"class.std::__1::__hash_table.199"* %49, %"class.sw::SpirvID.328"* nonnull dereferenceable(4) %12) #17
  call void @llvm.lifetime.end.p0i8(i64 4, i8* nonnull %180) #15
  %202 = getelementptr inbounds %"struct.std::__1::__hash_node_base.203", %"struct.std::__1::__hash_node_base.203"* %201, i64 4
  %203 = bitcast %"struct.std::__1::__hash_node_base.203"* %202 to i32**
  %204 = load i32*, i32** %203, align 8
  %205 = load i32, i32* %204, align 4
  call void @_ZNK2sw11SpirvShader27ApplyDecorationsForIdMemberEPNS0_11DecorationsENS_7SpirvIDINS0_4TypeEEEj(%"class.sw::SpirvShader"* %1, %"struct.sw::SpirvShader::Decorations"* nonnull %25, i32 %189, i32 %205) #14
  %206 = load i32, i32* %68, align 4
  %207 = add nsw i32 %206, %190
  %208 = add i32 %205, 2
  %209 = zext i32 %208 to i64
  %210 = load i32*, i32** %194, align 8
  %211 = getelementptr inbounds i32, i32* %210, i64 %209
  %212 = load i32, i32* %211, align 4
  br label %325

213:                                              ; preds = %187, %187
  %214 = getelementptr inbounds i32, i32* %138, i64 %188
  %215 = load i32, i32* %214, align 4
  call void @llvm.lifetime.start.p0i8(i64 4, i8* nonnull %169)
  store i32 %215, i32* %170, align 4
  %216 = call %"struct.std::__1::__hash_node_base.203"* @_ZNKSt3__112__hash_tableINS_17__hash_value_typeIN2sw7SpirvIDINS2_11SpirvShader6ObjectEEES5_EENS_22__unordered_map_hasherIS6_S7_NS_4hashIS6_EENS_8equal_toIS6_EELb1EEENS_21__unordered_map_equalIS6_S7_SC_SA_Lb1EEENS_9allocatorIS7_EEE4findIS6_EENS_21__hash_const_iteratorIPNS_11__hash_nodeIS7_PvEEEERKT_(%"class.std::__1::__hash_table.199"* %49, %"class.sw::SpirvID.328"* nonnull dereferenceable(4) %9) #17
  call void @llvm.lifetime.end.p0i8(i64 4, i8* nonnull %169)
  %217 = getelementptr inbounds %"struct.std::__1::__hash_node_base.203", %"struct.std::__1::__hash_node_base.203"* %216, i64 7
  %218 = bitcast %"struct.std::__1::__hash_node_base.203"* %217 to i32*
  %219 = load i32, i32* %218, align 8
  %220 = icmp eq i32 %219, 2
  br i1 %220, label %221, label %231

221:                                              ; preds = %213
  %222 = load i32, i32* %69, align 4
  %223 = load i32, i32* %214, align 4
  call void @llvm.lifetime.start.p0i8(i64 4, i8* nonnull %178) #15
  store i32 %223, i32* %179, align 4
  %224 = call %"struct.std::__1::__hash_node_base.203"* @_ZNKSt3__112__hash_tableINS_17__hash_value_typeIN2sw7SpirvIDINS2_11SpirvShader6ObjectEEES5_EENS_22__unordered_map_hasherIS6_S7_NS_4hashIS6_EENS_8equal_toIS6_EELb1EEENS_21__unordered_map_equalIS6_S7_SC_SA_Lb1EEENS_9allocatorIS7_EEE4findIS6_EENS_21__hash_const_iteratorIPNS_11__hash_nodeIS7_PvEEEERKT_(%"class.std::__1::__hash_table.199"* %49, %"class.sw::SpirvID.328"* nonnull dereferenceable(4) %8) #17
  call void @llvm.lifetime.end.p0i8(i64 4, i8* nonnull %178) #15
  %225 = getelementptr inbounds %"struct.std::__1::__hash_node_base.203", %"struct.std::__1::__hash_node_base.203"* %224, i64 4
  %226 = bitcast %"struct.std::__1::__hash_node_base.203"* %225 to i32**
  %227 = load i32*, i32** %226, align 8
  %228 = load i32, i32* %227, align 4
  %229 = mul i32 %228, %222
  %230 = add i32 %229, %190
  br label %243

231:                                              ; preds = %213
  call void @llvm.lifetime.start.p0i8(i64 48, i8* nonnull %171) #15
  %232 = load i32, i32* %69, align 4
  call void @_ZN2rr4Int4C1Ei(%"class.rr::Int4"* nonnull %35, i32 %232) #17
  %233 = call %"class.rr::Value"* @_ZNK2rr8Variable9loadValueEv(%"class.rr::Variable"* nonnull %173) #17
  store %"class.rr::Value"* %233, %"class.rr::Value"** %172, align 8
  %234 = load i32, i32* %214, align 4
  call void @llvm.lifetime.start.p0i8(i64 4, i8* nonnull %174)
  store i32 %234, i32* %175, align 4
  %235 = call %"struct.std::__1::__hash_node_base.1061"* @_ZNKSt3__112__hash_tableINS_17__hash_value_typeIN2sw7SpirvIDINS2_11SpirvShader6ObjectEEENS2_12IntermediateEEENS_22__unordered_map_hasherIS6_S8_NS_4hashIS6_EENS_8equal_toIS6_EELb1EEENS_21__unordered_map_equalIS6_S8_SD_SB_Lb1EEENS_9allocatorIS8_EEE4findIS6_EENS_21__hash_const_iteratorIPNS_11__hash_nodeIS8_PvEEEERKT_(%"class.std::__1::__hash_table.1057"* %153, %"class.sw::SpirvID.328"* nonnull dereferenceable(4) %7) #17
  call void @llvm.lifetime.end.p0i8(i64 4, i8* nonnull %174)
  %236 = getelementptr inbounds %"struct.std::__1::__hash_node_base.1061", %"struct.std::__1::__hash_node_base.1061"* %235, i64 4
  %237 = bitcast %"struct.std::__1::__hash_node_base.1061"* %236 to %"class.rr::Value"***
  %238 = load %"class.rr::Value"**, %"class.rr::Value"*** %237, align 8, !noalias !12
  %239 = load %"class.rr::Value"*, %"class.rr::Value"** %238, align 8, !noalias !12
  %240 = call %"class.rr::Type"* @_ZN2rr4Int44typeEv() #17, !noalias !15
  %241 = call %"class.rr::Value"* @_ZN2rr7Nucleus13createBitCastEPNS_5ValueEPNS_4TypeE(%"class.rr::Value"* %239, %"class.rr::Type"* %240) #17, !noalias !15
  store %"class.rr::Value"* %241, %"class.rr::Value"** %176, align 8, !alias.scope !15
  call void @_ZN2rrmlENS_6RValueINS_4Int4EEES2_(%"class.rr::RValue.1105"* nonnull sret %33, %"class.rr::RValue.1105"* nonnull %34, %"class.rr::RValue.1105"* nonnull %36) #17
  call void @_ZN2rr4Int4C1ENS_6RValueIS0_EE(%"class.rr::Int4"* nonnull %32, %"class.rr::RValue.1105"* nonnull %33) #17
  %242 = call dereferenceable(168) %"struct.sw::SIMD::Pointer"* @_ZN2sw4SIMD7PointerpLEN2rr4Int4E(%"struct.sw::SIMD::Pointer"* %0, %"class.rr::Int4"* nonnull %32) #17
  call void @_ZN2rr8VariableD2Ev(%"class.rr::Variable"* nonnull %177) #17
  call void @_ZN2rr8VariableD2Ev(%"class.rr::Variable"* nonnull %173) #17
  call void @llvm.lifetime.end.p0i8(i64 48, i8* nonnull %171) #15
  br label %243

243:                                              ; preds = %231, %221
  %244 = phi i32 [ %230, %221 ], [ %190, %231 ]
  %245 = getelementptr inbounds %"class.sw::SpirvShader::Type", %"class.sw::SpirvShader::Type"* %193, i64 0, i32 4, i32 0
  %246 = load i32, i32* %245, align 4
  br label %325

247:                                              ; preds = %187
  %248 = load i16, i16* %71, align 4
  %249 = or i16 %248, 16384
  store i16 %249, i16* %71, align 4
  %250 = and i16 %248, 8256
  %251 = icmp eq i16 %250, 8256
  %252 = load i32, i32* %70, align 4
  %253 = select i1 %251, i32 4, i32 %252
  %254 = getelementptr inbounds i32, i32* %138, i64 %188
  %255 = load i32, i32* %254, align 4
  call void @llvm.lifetime.start.p0i8(i64 4, i8* nonnull %158)
  store i32 %255, i32* %159, align 4
  %256 = call %"struct.std::__1::__hash_node_base.203"* @_ZNKSt3__112__hash_tableINS_17__hash_value_typeIN2sw7SpirvIDINS2_11SpirvShader6ObjectEEES5_EENS_22__unordered_map_hasherIS6_S7_NS_4hashIS6_EENS_8equal_toIS6_EELb1EEENS_21__unordered_map_equalIS6_S7_SC_SA_Lb1EEENS_9allocatorIS7_EEE4findIS6_EENS_21__hash_const_iteratorIPNS_11__hash_nodeIS7_PvEEEERKT_(%"class.std::__1::__hash_table.199"* %49, %"class.sw::SpirvID.328"* nonnull dereferenceable(4) %10) #17
  call void @llvm.lifetime.end.p0i8(i64 4, i8* nonnull %158)
  %257 = getelementptr inbounds %"struct.std::__1::__hash_node_base.203", %"struct.std::__1::__hash_node_base.203"* %256, i64 7
  %258 = bitcast %"struct.std::__1::__hash_node_base.203"* %257 to i32*
  %259 = load i32, i32* %258, align 8
  %260 = icmp eq i32 %259, 2
  br i1 %260, label %261, label %270

261:                                              ; preds = %247
  %262 = load i32, i32* %254, align 4
  call void @llvm.lifetime.start.p0i8(i64 4, i8* nonnull %167) #15
  store i32 %262, i32* %168, align 4
  %263 = call %"struct.std::__1::__hash_node_base.203"* @_ZNKSt3__112__hash_tableINS_17__hash_value_typeIN2sw7SpirvIDINS2_11SpirvShader6ObjectEEES5_EENS_22__unordered_map_hasherIS6_S7_NS_4hashIS6_EENS_8equal_toIS6_EELb1EEENS_21__unordered_map_equalIS6_S7_SC_SA_Lb1EEENS_9allocatorIS7_EEE4findIS6_EENS_21__hash_const_iteratorIPNS_11__hash_nodeIS7_PvEEEERKT_(%"class.std::__1::__hash_table.199"* %49, %"class.sw::SpirvID.328"* nonnull dereferenceable(4) %11) #17
  call void @llvm.lifetime.end.p0i8(i64 4, i8* nonnull %167) #15
  %264 = getelementptr inbounds %"struct.std::__1::__hash_node_base.203", %"struct.std::__1::__hash_node_base.203"* %263, i64 4
  %265 = bitcast %"struct.std::__1::__hash_node_base.203"* %264 to i32**
  %266 = load i32*, i32** %265, align 8
  %267 = load i32, i32* %266, align 4
  %268 = mul i32 %267, %253
  %269 = add i32 %268, %190
  br label %281

270:                                              ; preds = %247
  call void @llvm.lifetime.start.p0i8(i64 48, i8* nonnull %160) #15
  call void @_ZN2rr4Int4C1Ei(%"class.rr::Int4"* nonnull %40, i32 %253) #17
  %271 = call %"class.rr::Value"* @_ZNK2rr8Variable9loadValueEv(%"class.rr::Variable"* nonnull %162) #17
  store %"class.rr::Value"* %271, %"class.rr::Value"** %161, align 8
  %272 = load i32, i32* %254, align 4
  call void @llvm.lifetime.start.p0i8(i64 4, i8* nonnull %163)
  store i32 %272, i32* %164, align 4
  %273 = call %"struct.std::__1::__hash_node_base.1061"* @_ZNKSt3__112__hash_tableINS_17__hash_value_typeIN2sw7SpirvIDINS2_11SpirvShader6ObjectEEENS2_12IntermediateEEENS_22__unordered_map_hasherIS6_S8_NS_4hashIS6_EENS_8equal_toIS6_EELb1EEENS_21__unordered_map_equalIS6_S8_SD_SB_Lb1EEENS_9allocatorIS8_EEE4findIS6_EENS_21__hash_const_iteratorIPNS_11__hash_nodeIS8_PvEEEERKT_(%"class.std::__1::__hash_table.1057"* %153, %"class.sw::SpirvID.328"* nonnull dereferenceable(4) %13) #17
  call void @llvm.lifetime.end.p0i8(i64 4, i8* nonnull %163)
  %274 = getelementptr inbounds %"struct.std::__1::__hash_node_base.1061", %"struct.std::__1::__hash_node_base.1061"* %273, i64 4
  %275 = bitcast %"struct.std::__1::__hash_node_base.1061"* %274 to %"class.rr::Value"***
  %276 = load %"class.rr::Value"**, %"class.rr::Value"*** %275, align 8, !noalias !18
  %277 = load %"class.rr::Value"*, %"class.rr::Value"** %276, align 8, !noalias !18
  %278 = call %"class.rr::Type"* @_ZN2rr4Int44typeEv() #17, !noalias !21
  %279 = call %"class.rr::Value"* @_ZN2rr7Nucleus13createBitCastEPNS_5ValueEPNS_4TypeE(%"class.rr::Value"* %277, %"class.rr::Type"* %278) #17, !noalias !21
  store %"class.rr::Value"* %279, %"class.rr::Value"** %165, align 8, !alias.scope !21
  call void @_ZN2rrmlENS_6RValueINS_4Int4EEES2_(%"class.rr::RValue.1105"* nonnull sret %38, %"class.rr::RValue.1105"* nonnull %39, %"class.rr::RValue.1105"* nonnull %41) #17
  call void @_ZN2rr4Int4C1ENS_6RValueIS0_EE(%"class.rr::Int4"* nonnull %37, %"class.rr::RValue.1105"* nonnull %38) #17
  %280 = call dereferenceable(168) %"struct.sw::SIMD::Pointer"* @_ZN2sw4SIMD7PointerpLEN2rr4Int4E(%"struct.sw::SIMD::Pointer"* %0, %"class.rr::Int4"* nonnull %37) #17
  call void @_ZN2rr8VariableD2Ev(%"class.rr::Variable"* nonnull %166) #17
  call void @_ZN2rr8VariableD2Ev(%"class.rr::Variable"* nonnull %162) #17
  call void @llvm.lifetime.end.p0i8(i64 48, i8* nonnull %160) #15
  br label %281

281:                                              ; preds = %270, %261
  %282 = phi i32 [ %269, %261 ], [ %190, %270 ]
  %283 = getelementptr inbounds %"class.sw::SpirvShader::Type", %"class.sw::SpirvShader::Type"* %193, i64 0, i32 4, i32 0
  %284 = load i32, i32* %283, align 4
  br label %325

285:                                              ; preds = %187
  %286 = load i16, i16* %71, align 4
  %287 = and i16 %286, 24640
  %288 = icmp eq i16 %287, 24640
  %289 = load i32, i32* %70, align 4
  %290 = select i1 %288, i32 %289, i32 4
  %291 = getelementptr inbounds i32, i32* %138, i64 %188
  %292 = load i32, i32* %291, align 4
  call void @llvm.lifetime.start.p0i8(i64 4, i8* nonnull %146)
  store i32 %292, i32* %147, align 4
  %293 = call %"struct.std::__1::__hash_node_base.203"* @_ZNKSt3__112__hash_tableINS_17__hash_value_typeIN2sw7SpirvIDINS2_11SpirvShader6ObjectEEES5_EENS_22__unordered_map_hasherIS6_S7_NS_4hashIS6_EENS_8equal_toIS6_EELb1EEENS_21__unordered_map_equalIS6_S7_SC_SA_Lb1EEENS_9allocatorIS7_EEE4findIS6_EENS_21__hash_const_iteratorIPNS_11__hash_nodeIS7_PvEEEERKT_(%"class.std::__1::__hash_table.199"* %49, %"class.sw::SpirvID.328"* nonnull dereferenceable(4) %18) #17
  call void @llvm.lifetime.end.p0i8(i64 4, i8* nonnull %146)
  %294 = getelementptr inbounds %"struct.std::__1::__hash_node_base.203", %"struct.std::__1::__hash_node_base.203"* %293, i64 7
  %295 = bitcast %"struct.std::__1::__hash_node_base.203"* %294 to i32*
  %296 = load i32, i32* %295, align 8
  %297 = icmp eq i32 %296, 2
  br i1 %297, label %298, label %307

298:                                              ; preds = %285
  %299 = load i32, i32* %291, align 4
  call void @llvm.lifetime.start.p0i8(i64 4, i8* nonnull %156) #15
  store i32 %299, i32* %157, align 4
  %300 = call %"struct.std::__1::__hash_node_base.203"* @_ZNKSt3__112__hash_tableINS_17__hash_value_typeIN2sw7SpirvIDINS2_11SpirvShader6ObjectEEES5_EENS_22__unordered_map_hasherIS6_S7_NS_4hashIS6_EENS_8equal_toIS6_EELb1EEENS_21__unordered_map_equalIS6_S7_SC_SA_Lb1EEENS_9allocatorIS7_EEE4findIS6_EENS_21__hash_const_iteratorIPNS_11__hash_nodeIS7_PvEEEERKT_(%"class.std::__1::__hash_table.199"* %49, %"class.sw::SpirvID.328"* nonnull dereferenceable(4) %20) #17
  call void @llvm.lifetime.end.p0i8(i64 4, i8* nonnull %156) #15
  %301 = getelementptr inbounds %"struct.std::__1::__hash_node_base.203", %"struct.std::__1::__hash_node_base.203"* %300, i64 4
  %302 = bitcast %"struct.std::__1::__hash_node_base.203"* %301 to i32**
  %303 = load i32*, i32** %302, align 8
  %304 = load i32, i32* %303, align 4
  %305 = mul i32 %304, %290
  %306 = add i32 %305, %190
  br label %318

307:                                              ; preds = %285
  call void @llvm.lifetime.start.p0i8(i64 48, i8* nonnull %148) #15
  call void @_ZN2rr4Int4C1Ei(%"class.rr::Int4"* nonnull %45, i32 %290) #17
  %308 = call %"class.rr::Value"* @_ZNK2rr8Variable9loadValueEv(%"class.rr::Variable"* nonnull %150) #17
  store %"class.rr::Value"* %308, %"class.rr::Value"** %149, align 8
  %309 = load i32, i32* %291, align 4
  call void @llvm.lifetime.start.p0i8(i64 4, i8* nonnull %151)
  store i32 %309, i32* %152, align 4
  %310 = call %"struct.std::__1::__hash_node_base.1061"* @_ZNKSt3__112__hash_tableINS_17__hash_value_typeIN2sw7SpirvIDINS2_11SpirvShader6ObjectEEENS2_12IntermediateEEENS_22__unordered_map_hasherIS6_S8_NS_4hashIS6_EENS_8equal_toIS6_EELb1EEENS_21__unordered_map_equalIS6_S8_SD_SB_Lb1EEENS_9allocatorIS8_EEE4findIS6_EENS_21__hash_const_iteratorIPNS_11__hash_nodeIS8_PvEEEERKT_(%"class.std::__1::__hash_table.1057"* %153, %"class.sw::SpirvID.328"* nonnull dereferenceable(4) %22) #17
  call void @llvm.lifetime.end.p0i8(i64 4, i8* nonnull %151)
  %311 = getelementptr inbounds %"struct.std::__1::__hash_node_base.1061", %"struct.std::__1::__hash_node_base.1061"* %310, i64 4
  %312 = bitcast %"struct.std::__1::__hash_node_base.1061"* %311 to %"class.rr::Value"***
  %313 = load %"class.rr::Value"**, %"class.rr::Value"*** %312, align 8, !noalias !24
  %314 = load %"class.rr::Value"*, %"class.rr::Value"** %313, align 8, !noalias !24
  %315 = call %"class.rr::Type"* @_ZN2rr4Int44typeEv() #17, !noalias !27
  %316 = call %"class.rr::Value"* @_ZN2rr7Nucleus13createBitCastEPNS_5ValueEPNS_4TypeE(%"class.rr::Value"* %314, %"class.rr::Type"* %315) #17, !noalias !27
  store %"class.rr::Value"* %316, %"class.rr::Value"** %154, align 8, !alias.scope !27
  call void @_ZN2rrmlENS_6RValueINS_4Int4EEES2_(%"class.rr::RValue.1105"* nonnull sret %43, %"class.rr::RValue.1105"* nonnull %44, %"class.rr::RValue.1105"* nonnull %46) #17
  call void @_ZN2rr4Int4C1ENS_6RValueIS0_EE(%"class.rr::Int4"* nonnull %42, %"class.rr::RValue.1105"* nonnull %43) #17
  %317 = call dereferenceable(168) %"struct.sw::SIMD::Pointer"* @_ZN2sw4SIMD7PointerpLEN2rr4Int4E(%"struct.sw::SIMD::Pointer"* %0, %"class.rr::Int4"* nonnull %42) #17
  call void @_ZN2rr8VariableD2Ev(%"class.rr::Variable"* nonnull %155) #17
  call void @_ZN2rr8VariableD2Ev(%"class.rr::Variable"* nonnull %150) #17
  call void @llvm.lifetime.end.p0i8(i64 48, i8* nonnull %148) #15
  br label %318

318:                                              ; preds = %307, %298
  %319 = phi i32 [ %306, %298 ], [ %190, %307 ]
  %320 = getelementptr inbounds %"class.sw::SpirvShader::Type", %"class.sw::SpirvShader::Type"* %193, i64 0, i32 4, i32 0
  %321 = load i32, i32* %320, align 4
  br label %325

322:                                              ; preds = %187
  %323 = and i32 %196, 65535
  %324 = call i8* @_ZN2sw11SpirvShader10OpcodeNameEN3spv2OpE(i32 %323) #17
  call void (i8*, ...) @_ZN2sw4warnEPKcz(i8* getelementptr inbounds ([32 x i8], [32 x i8]* @.str.24, i64 0, i64 0), i8* getelementptr inbounds ([59 x i8], [59 x i8]* @.str.1, i64 0, i64 0), i32 1252, i8* %324) #17
  br label %325

325:                                              ; preds = %322, %318, %281, %243, %198
  %326 = phi i32 [ %190, %322 ], [ %319, %318 ], [ %282, %281 ], [ %244, %243 ], [ %207, %198 ]
  %327 = phi i32 [ %189, %322 ], [ %321, %318 ], [ %284, %281 ], [ %246, %243 ], [ %212, %198 ]
  %328 = add nuw nsw i64 %188, 1
  %329 = icmp eq i64 %328, %182
  br i1 %329, label %183, label %187
}

; Function Attrs: optsize
declare void @_ZN2rr3IntC1Ei(%"class.rr::Int"*, i32) unnamed_addr #1

; Function Attrs: optsize
declare void @_ZN2rr3IntaSEi(%"class.rr::RValue"* sret, %"class.rr::Int"*, i32) local_unnamed_addr #1

; Function Attrs: optsize
declare void @_ZN2rr7ExtractENS_6RValueINS_4Int4EEEi(%"class.rr::RValue"* sret, %"class.rr::RValue.1105"*, i32) local_unnamed_addr #1

; Function Attrs: optsize
declare void @_ZN2rr3IntaSENS_6RValueIS0_EE(%"class.rr::RValue"* sret, %"class.rr::Int"*, %"class.rr::RValue"*) local_unnamed_addr #1

; Function Attrs: optsize
declare void @_ZNK2sw11SpirvShader16GetPointerToDataENS_7SpirvIDINS0_6ObjectEEEN2rr3IntEPKNS0_9EmitStateE(%"struct.sw::SIMD::Pointer"* sret, %"class.sw::SpirvShader"*, i32, %"class.rr::Int"*, %"class.sw::SpirvShader::EmitState"*) local_unnamed_addr #1

; Function Attrs: optsize
declare void @_ZN2rr3IntC1ERKS0_(%"class.rr::Int"*, %"class.rr::Int"* dereferenceable(40)) unnamed_addr #1

; Function Attrs: optsize
declare void @_ZN2rrmlENS_6RValueINS_4Int4EEES2_(%"class.rr::RValue.1105"* sret, %"class.rr::RValue.1105"*, %"class.rr::RValue.1105"*) local_unnamed_addr #1

; Function Attrs: optsize
declare void @_ZN2rr4Int4C1Ei(%"class.rr::Int4"*, i32) unnamed_addr #1

; Function Attrs: optsize
declare void @_ZN2rr4Int4C1ENS_6RValueIS0_EE(%"class.rr::Int4"*, %"class.rr::RValue.1105"*) unnamed_addr #1

; Function Attrs: optsize
declare dereferenceable(168) %"struct.sw::SIMD::Pointer"* @_ZN2sw4SIMD7PointerpLEN2rr4Int4E(%"struct.sw::SIMD::Pointer"*, %"class.rr::Int4"*) local_unnamed_addr #1

; Function Attrs: optsize
declare dereferenceable(168) %"struct.sw::SIMD::Pointer"* @_ZN2sw4SIMD7PointerpLEi(%"struct.sw::SIMD::Pointer"*, i32) local_unnamed_addr #1

; Function Attrs: nounwind optsize ssp uwtable
define hidden void @_ZNK2sw11SpirvShader15WalkAccessChainENS_7SpirvIDINS0_6ObjectEEEjPKjPKNS0_9EmitStateE(%"struct.sw::SIMD::Pointer"* noalias sret, %"class.sw::SpirvShader"*, i32, i32, i32* nocapture readonly, %"class.sw::SpirvShader::EmitState"*) local_unnamed_addr #0 align 2 {
  %7 = alloca %"class.sw::SpirvID.329", align 4
  %8 = alloca %"class.sw::SpirvID.328", align 4
  %9 = alloca %"class.sw::SpirvID.328", align 4
  %10 = alloca %"class.sw::SpirvID.328", align 4
  %11 = alloca %"class.sw::SpirvID.328", align 4
  %12 = alloca %"class.sw::SpirvID.328", align 4
  %13 = alloca %"class.sw::SpirvID.329", align 4
  %14 = alloca %"class.sw::SpirvID.329", align 4
  %15 = alloca %"class.sw::SpirvID.328", align 4
  %16 = alloca %"class.sw::SpirvID.328", align 4
  %17 = alloca %"class.sw::SpirvID.329", align 4
  %18 = alloca %"class.sw::SpirvID.328", align 4
  %19 = alloca %"class.sw::SpirvID.329", align 4
  %20 = alloca %"class.sw::SpirvID.328", align 4
  %21 = alloca %"class.sw::SpirvID.328", align 4
  %22 = alloca %"class.rr::RValue.1106", align 8
  %23 = alloca %"class.rr::RValue", align 8
  %24 = alloca %"class.rr::RValue", align 8
  %25 = alloca %"class.rr::RValue", align 8
  %26 = alloca %"class.rr::RValue.1105", align 8
  %27 = alloca %"class.rr::RValue.1106", align 8
  %28 = alloca %"class.rr::Int4", align 8
  %29 = alloca %"class.rr::RValue.1105", align 8
  %30 = alloca %"class.rr::RValue.1105", align 8
  %31 = alloca %"class.rr::Int4", align 8
  %32 = alloca %"class.rr::RValue.1105", align 8
  %33 = getelementptr inbounds %"class.sw::SpirvID.328", %"class.sw::SpirvID.328"* %21, i64 0, i32 0
  store i32 %2, i32* %33, align 4
  %34 = getelementptr inbounds %"class.sw::SpirvShader::EmitState", %"class.sw::SpirvShader::EmitState"* %5, i64 0, i32 0
  %35 = load %"class.sw::SpirvRoutine"*, %"class.sw::SpirvRoutine"** %34, align 8
  %36 = bitcast %"class.sw::SpirvID.328"* %20 to i8*
  call void @llvm.lifetime.start.p0i8(i64 4, i8* nonnull %36)
  %37 = getelementptr inbounds %"class.sw::SpirvID.328", %"class.sw::SpirvID.328"* %20, i64 0, i32 0
  store i32 %2, i32* %37, align 4
  %38 = getelementptr inbounds %"class.sw::SpirvShader", %"class.sw::SpirvShader"* %1, i64 0, i32 14, i32 0
  %39 = call %"struct.std::__1::__hash_node_base.203"* @_ZNKSt3__112__hash_tableINS_17__hash_value_typeIN2sw7SpirvIDINS2_11SpirvShader6ObjectEEES5_EENS_22__unordered_map_hasherIS6_S7_NS_4hashIS6_EENS_8equal_toIS6_EELb1EEENS_21__unordered_map_equalIS6_S7_SC_SA_Lb1EEENS_9allocatorIS7_EEE4findIS6_EENS_21__hash_const_iteratorIPNS_11__hash_nodeIS7_PvEEEERKT_(%"class.std::__1::__hash_table.199"* %38, %"class.sw::SpirvID.328"* nonnull dereferenceable(4) %20) #17
  %40 = getelementptr inbounds %"struct.std::__1::__hash_node_base.203", %"struct.std::__1::__hash_node_base.203"* %39, i64 3
  call void @llvm.lifetime.end.p0i8(i64 4, i8* nonnull %36)
  %41 = bitcast %"struct.std::__1::__hash_node_base.203"* %40 to i32**
  %42 = load i32*, i32** %41, align 8
  %43 = getelementptr inbounds i32, i32* %42, i64 1
  %44 = load i32, i32* %43, align 4
  %45 = bitcast %"class.sw::SpirvID.329"* %19 to i8*
  call void @llvm.lifetime.start.p0i8(i64 4, i8* nonnull %45) #15
  %46 = getelementptr inbounds %"class.sw::SpirvID.329", %"class.sw::SpirvID.329"* %19, i64 0, i32 0
  store i32 %44, i32* %46, align 4
  %47 = getelementptr inbounds %"class.sw::SpirvShader", %"class.sw::SpirvShader"* %1, i64 0, i32 13, i32 0
  %48 = call %"struct.std::__1::__hash_node_base.179"* @_ZNKSt3__112__hash_tableINS_17__hash_value_typeIN2sw7SpirvIDINS2_11SpirvShader4TypeEEES5_EENS_22__unordered_map_hasherIS6_S7_NS_4hashIS6_EENS_8equal_toIS6_EELb1EEENS_21__unordered_map_equalIS6_S7_SC_SA_Lb1EEENS_9allocatorIS7_EEE4findIS6_EENS_21__hash_const_iteratorIPNS_11__hash_nodeIS7_PvEEEERKT_(%"class.std::__1::__hash_table.175"* %47, %"class.sw::SpirvID.329"* nonnull dereferenceable(4) %19) #17
  %49 = getelementptr inbounds %"struct.std::__1::__hash_node_base.179", %"struct.std::__1::__hash_node_base.179"* %48, i64 3
  %50 = bitcast %"struct.std::__1::__hash_node_base.179"* %49 to %"class.sw::SpirvShader::Type"*
  call void @llvm.lifetime.end.p0i8(i64 4, i8* nonnull %45) #15
  %51 = getelementptr inbounds %"class.sw::SpirvShader::Type", %"class.sw::SpirvShader::Type"* %50, i64 0, i32 4, i32 0
  %52 = load i32, i32* %51, align 4
  %53 = bitcast %"struct.sw::SIMD::Pointer"* %0 to i8*
  call void @llvm.memset.p0i8.i64(i8* align 8 %53, i8 -86, i64 168, i1 false)
  %54 = bitcast %"class.sw::SpirvID.328"* %18 to i8*
  call void @llvm.lifetime.start.p0i8(i64 4, i8* nonnull %54)
  %55 = getelementptr inbounds %"class.sw::SpirvID.328", %"class.sw::SpirvID.328"* %18, i64 0, i32 0
  store i32 %2, i32* %55, align 4
  %56 = getelementptr inbounds %"class.sw::SpirvShader::EmitState", %"class.sw::SpirvShader::EmitState"* %5, i64 0, i32 10, i32 0
  %57 = call %"struct.std::__1::__hash_node_base.1085"* @_ZNKSt3__112__hash_tableINS_17__hash_value_typeIN2sw7SpirvIDINS2_11SpirvShader6ObjectEEENS2_4SIMD7PointerEEENS_22__unordered_map_hasherIS6_S9_NS_4hashIS6_EENS_8equal_toIS6_EELb1EEENS_21__unordered_map_equalIS6_S9_SE_SC_Lb1EEENS_9allocatorIS9_EEE4findIS6_EENS_21__hash_const_iteratorIPNS_11__hash_nodeIS9_PvEEEERKT_(%"class.std::__1::__hash_table.1081"* %56, %"class.sw::SpirvID.328"* nonnull dereferenceable(4) %18) #17
  %58 = getelementptr inbounds %"struct.std::__1::__hash_node_base.1085", %"struct.std::__1::__hash_node_base.1085"* %57, i64 3
  call void @llvm.lifetime.end.p0i8(i64 4, i8* nonnull %54)
  %59 = getelementptr inbounds %"struct.sw::SIMD::Pointer", %"struct.sw::SIMD::Pointer"* %0, i64 0, i32 0
  %60 = bitcast %"struct.std::__1::__hash_node_base.1085"* %58 to %"class.rr::Pointer"*
  call void @_ZN2rr7PointerINS_4ByteEEC2ERKS2_(%"class.rr::Pointer"* %59, %"class.rr::Pointer"* dereferenceable(48) %60) #17
  %61 = getelementptr inbounds %"struct.sw::SIMD::Pointer", %"struct.sw::SIMD::Pointer"* %0, i64 0, i32 1
  %62 = getelementptr inbounds %"struct.std::__1::__hash_node_base.1085", %"struct.std::__1::__hash_node_base.1085"* %57, i64 9
  %63 = bitcast %"struct.std::__1::__hash_node_base.1085"* %62 to %"class.rr::Int"*
  call void @_ZN2rr3IntC1ERKS0_(%"class.rr::Int"* %61, %"class.rr::Int"* dereferenceable(40) %63) #17
  %64 = getelementptr inbounds %"struct.sw::SIMD::Pointer", %"struct.sw::SIMD::Pointer"* %0, i64 0, i32 2
  %65 = getelementptr inbounds %"struct.std::__1::__hash_node_base.1085", %"struct.std::__1::__hash_node_base.1085"* %57, i64 14
  %66 = bitcast %"struct.std::__1::__hash_node_base.1085"* %65 to i32*
  %67 = load i32, i32* %66, align 8
  store i32 %67, i32* %64, align 8
  %68 = getelementptr inbounds %"struct.sw::SIMD::Pointer", %"struct.sw::SIMD::Pointer"* %0, i64 0, i32 4
  %69 = getelementptr inbounds %"struct.std::__1::__hash_node_base.1085", %"struct.std::__1::__hash_node_base.1085"* %57, i64 15
  %70 = bitcast %"struct.std::__1::__hash_node_base.1085"* %69 to %"class.rr::Int4"*
  call void @_ZN2rr4Int4C1ERKS0_(%"class.rr::Int4"* %68, %"class.rr::Int4"* dereferenceable(48) %70) #17
  %71 = getelementptr inbounds %"struct.sw::SIMD::Pointer", %"struct.sw::SIMD::Pointer"* %0, i64 0, i32 5
  %72 = getelementptr inbounds %"struct.std::__1::__hash_node_base.1085", %"struct.std::__1::__hash_node_base.1085"* %57, i64 21
  %73 = bitcast %"struct.std::__1::array.1104"* %71 to i8*
  %74 = bitcast %"struct.std::__1::__hash_node_base.1085"* %72 to i8*
  call void @llvm.memcpy.p0i8.p0i8.i64(i8* align 8 %73, i8* align 8 %74, i64 18, i1 false) #15
  %75 = icmp eq i32 %3, 0
  br i1 %75, label %257, label %76

76:                                               ; preds = %6
  %77 = bitcast %"class.sw::SpirvID.329"* %17 to i8*
  %78 = getelementptr inbounds %"class.sw::SpirvID.329", %"class.sw::SpirvID.329"* %17, i64 0, i32 0
  %79 = bitcast %"class.sw::SpirvID.329"* %13 to i8*
  %80 = getelementptr inbounds %"class.sw::SpirvID.329", %"class.sw::SpirvID.329"* %13, i64 0, i32 0
  %81 = bitcast %"class.sw::SpirvID.329"* %7 to i8*
  %82 = getelementptr inbounds %"class.sw::SpirvID.329", %"class.sw::SpirvID.329"* %7, i64 0, i32 0
  %83 = bitcast %"class.sw::SpirvID.328"* %9 to i8*
  %84 = getelementptr inbounds %"class.sw::SpirvID.328", %"class.sw::SpirvID.328"* %9, i64 0, i32 0
  %85 = bitcast %"class.rr::Int4"* %31 to i8*
  %86 = getelementptr inbounds %"class.rr::RValue.1105", %"class.rr::RValue.1105"* %30, i64 0, i32 0
  %87 = getelementptr inbounds %"class.rr::Int4", %"class.rr::Int4"* %31, i64 0, i32 0, i32 0
  %88 = bitcast %"class.sw::SpirvID.328"* %15 to i8*
  %89 = getelementptr inbounds %"class.sw::SpirvID.328", %"class.sw::SpirvID.328"* %15, i64 0, i32 0
  %90 = getelementptr inbounds %"class.sw::SpirvShader::EmitState", %"class.sw::SpirvShader::EmitState"* %5, i64 0, i32 9, i32 0
  %91 = getelementptr inbounds %"class.rr::RValue.1105", %"class.rr::RValue.1105"* %32, i64 0, i32 0
  %92 = getelementptr inbounds %"class.rr::Int4", %"class.rr::Int4"* %28, i64 0, i32 0, i32 0
  %93 = bitcast %"class.sw::SpirvID.328"* %11 to i8*
  %94 = getelementptr inbounds %"class.sw::SpirvID.328", %"class.sw::SpirvID.328"* %11, i64 0, i32 0
  %95 = getelementptr inbounds %"class.sw::SpirvShader", %"class.sw::SpirvShader"* %1, i64 0, i32 3, i32 0
  %96 = getelementptr inbounds %"class.sw::SpirvRoutine", %"class.sw::SpirvRoutine"* %35, i64 0, i32 0
  %97 = bitcast %"class.sw::SpirvID.328"* %12 to i8*
  %98 = getelementptr inbounds %"class.sw::SpirvID.328", %"class.sw::SpirvID.328"* %12, i64 0, i32 0
  %99 = getelementptr inbounds %"class.rr::RValue", %"class.rr::RValue"* %24, i64 0, i32 0
  %100 = bitcast %"class.sw::SpirvID.328"* %8 to i8*
  %101 = getelementptr inbounds %"class.sw::SpirvID.328", %"class.sw::SpirvID.328"* %8, i64 0, i32 0
  %102 = getelementptr inbounds %"class.rr::RValue.1105", %"class.rr::RValue.1105"* %26, i64 0, i32 0
  %103 = bitcast %"class.rr::RValue.1106"* %27 to i8*
  %104 = bitcast %"class.sw::SpirvID.328"* %10 to i8*
  %105 = getelementptr inbounds %"class.sw::SpirvID.328", %"class.sw::SpirvID.328"* %10, i64 0, i32 0
  %106 = bitcast %"class.rr::RValue.1106"* %22 to i8*
  %107 = bitcast %"class.sw::SpirvID.328"* %16 to i8*
  %108 = getelementptr inbounds %"class.sw::SpirvID.328", %"class.sw::SpirvID.328"* %16, i64 0, i32 0
  %109 = bitcast %"class.sw::SpirvID.329"* %14 to i8*
  %110 = getelementptr inbounds %"class.sw::SpirvID.329", %"class.sw::SpirvID.329"* %14, i64 0, i32 0
  %111 = zext i32 %3 to i64
  br label %114

112:                                              ; preds = %250
  %113 = icmp eq i32 %251, 0
  br i1 %113, label %257, label %255

114:                                              ; preds = %250, %76
  %115 = phi i64 [ 0, %76 ], [ %253, %250 ]
  %116 = phi i32 [ %52, %76 ], [ %252, %250 ]
  %117 = phi i32 [ 0, %76 ], [ %251, %250 ]
  call void @llvm.lifetime.start.p0i8(i64 4, i8* nonnull %77)
  store i32 %116, i32* %78, align 4
  %118 = call %"struct.std::__1::__hash_node_base.179"* @_ZNKSt3__112__hash_tableINS_17__hash_value_typeIN2sw7SpirvIDINS2_11SpirvShader4TypeEEES5_EENS_22__unordered_map_hasherIS6_S7_NS_4hashIS6_EENS_8equal_toIS6_EELb1EEENS_21__unordered_map_equalIS6_S7_SC_SA_Lb1EEENS_9allocatorIS7_EEE4findIS6_EENS_21__hash_const_iteratorIPNS_11__hash_nodeIS7_PvEEEERKT_(%"class.std::__1::__hash_table.175"* %47, %"class.sw::SpirvID.329"* nonnull dereferenceable(4) %17) #17
  %119 = getelementptr inbounds %"struct.std::__1::__hash_node_base.179", %"struct.std::__1::__hash_node_base.179"* %118, i64 3
  %120 = bitcast %"struct.std::__1::__hash_node_base.179"* %119 to %"class.sw::SpirvShader::Type"*
  call void @llvm.lifetime.end.p0i8(i64 4, i8* nonnull %77)
  %121 = bitcast %"struct.std::__1::__hash_node_base.179"* %119 to i32**
  %122 = load i32*, i32** %121, align 8
  %123 = load i32, i32* %122, align 4
  %124 = trunc i32 %123 to i16
  switch i16 %124, label %247 [
    i16 30, label %125
    i16 23, label %160
    i16 24, label %160
    i16 28, label %160
    i16 29, label %160
  ]

125:                                              ; preds = %114
  %126 = getelementptr inbounds i32, i32* %4, i64 %115
  %127 = load i32, i32* %126, align 4
  call void @llvm.lifetime.start.p0i8(i64 4, i8* nonnull %107) #15
  store i32 %127, i32* %108, align 4
  %128 = call %"struct.std::__1::__hash_node_base.203"* @_ZNKSt3__112__hash_tableINS_17__hash_value_typeIN2sw7SpirvIDINS2_11SpirvShader6ObjectEEES5_EENS_22__unordered_map_hasherIS6_S7_NS_4hashIS6_EENS_8equal_toIS6_EELb1EEENS_21__unordered_map_equalIS6_S7_SC_SA_Lb1EEENS_9allocatorIS7_EEE4findIS6_EENS_21__hash_const_iteratorIPNS_11__hash_nodeIS7_PvEEEERKT_(%"class.std::__1::__hash_table.199"* %38, %"class.sw::SpirvID.328"* nonnull dereferenceable(4) %16) #17
  call void @llvm.lifetime.end.p0i8(i64 4, i8* nonnull %107) #15
  %129 = getelementptr inbounds %"struct.std::__1::__hash_node_base.203", %"struct.std::__1::__hash_node_base.203"* %128, i64 4
  %130 = bitcast %"struct.std::__1::__hash_node_base.203"* %129 to i32**
  %131 = load i32*, i32** %130, align 8
  %132 = load i32, i32* %131, align 4
  %133 = icmp sgt i32 %132, 0
  br i1 %133, label %134, label %136

134:                                              ; preds = %125
  %135 = zext i32 %132 to i64
  br label %144

136:                                              ; preds = %144, %125
  %137 = phi i32 [ 0, %125 ], [ %157, %144 ]
  %138 = add nsw i32 %137, %117
  %139 = add i32 %132, 2
  %140 = zext i32 %139 to i64
  %141 = load i32*, i32** %121, align 8
  %142 = getelementptr inbounds i32, i32* %141, i64 %140
  %143 = load i32, i32* %142, align 4
  br label %250

144:                                              ; preds = %144, %134
  %145 = phi i64 [ 0, %134 ], [ %158, %144 ]
  %146 = phi i32 [ 0, %134 ], [ %157, %144 ]
  %147 = add nuw nsw i64 %145, 2
  %148 = load i32*, i32** %121, align 8
  %149 = getelementptr inbounds i32, i32* %148, i64 %147
  %150 = load i32, i32* %149, align 4
  call void @llvm.lifetime.start.p0i8(i64 4, i8* nonnull %109)
  store i32 %150, i32* %110, align 4
  %151 = call %"struct.std::__1::__hash_node_base.179"* @_ZNKSt3__112__hash_tableINS_17__hash_value_typeIN2sw7SpirvIDINS2_11SpirvShader4TypeEEES5_EENS_22__unordered_map_hasherIS6_S7_NS_4hashIS6_EENS_8equal_toIS6_EELb1EEENS_21__unordered_map_equalIS6_S7_SC_SA_Lb1EEENS_9allocatorIS7_EEE4findIS6_EENS_21__hash_const_iteratorIPNS_11__hash_nodeIS7_PvEEEERKT_(%"class.std::__1::__hash_table.175"* %47, %"class.sw::SpirvID.329"* nonnull dereferenceable(4) %14) #17
  %152 = getelementptr inbounds %"struct.std::__1::__hash_node_base.179", %"struct.std::__1::__hash_node_base.179"* %151, i64 3
  %153 = bitcast %"struct.std::__1::__hash_node_base.179"* %152 to %"class.sw::SpirvShader::Type"*
  call void @llvm.lifetime.end.p0i8(i64 4, i8* nonnull %109)
  %154 = getelementptr inbounds %"class.sw::SpirvShader::Type", %"class.sw::SpirvShader::Type"* %153, i64 0, i32 2
  %155 = load i32, i32* %154, align 4
  %156 = shl i32 %155, 2
  %157 = add i32 %156, %146
  %158 = add nuw nsw i64 %145, 1
  %159 = icmp eq i64 %158, %135
  br i1 %159, label %136, label %144

160:                                              ; preds = %114, %114, %114, %114
  %161 = load i32*, i32** %41, align 8
  %162 = getelementptr inbounds i32, i32* %161, i64 1
  %163 = load i32, i32* %162, align 4
  call void @llvm.lifetime.start.p0i8(i64 4, i8* nonnull %79) #15
  store i32 %163, i32* %80, align 4
  %164 = call %"struct.std::__1::__hash_node_base.179"* @_ZNKSt3__112__hash_tableINS_17__hash_value_typeIN2sw7SpirvIDINS2_11SpirvShader4TypeEEES5_EENS_22__unordered_map_hasherIS6_S7_NS_4hashIS6_EENS_8equal_toIS6_EELb1EEENS_21__unordered_map_equalIS6_S7_SC_SA_Lb1EEENS_9allocatorIS7_EEE4findIS6_EENS_21__hash_const_iteratorIPNS_11__hash_nodeIS7_PvEEEERKT_(%"class.std::__1::__hash_table.175"* %47, %"class.sw::SpirvID.329"* nonnull dereferenceable(4) %13) #17
  call void @llvm.lifetime.end.p0i8(i64 4, i8* nonnull %79) #15
  %165 = getelementptr inbounds %"struct.std::__1::__hash_node_base.179", %"struct.std::__1::__hash_node_base.179"* %164, i64 4
  %166 = bitcast %"struct.std::__1::__hash_node_base.179"* %165 to i32*
  %167 = load i32, i32* %166, align 8
  %168 = icmp eq i32 %167, 0
  br i1 %168, label %169, label %208

169:                                              ; preds = %160
  %170 = call %"struct.std::__1::__hash_node_base.87"* @_ZNKSt3__112__hash_tableINS_17__hash_value_typeIN2sw7SpirvIDINS2_11SpirvShader6ObjectEEENS4_21DescriptorDecorationsEEENS_22__unordered_map_hasherIS6_S8_NS_4hashIS6_EENS_8equal_toIS6_EELb1EEENS_21__unordered_map_equalIS6_S8_SD_SB_Lb1EEENS_9allocatorIS8_EEE4findIS6_EENS_21__hash_const_iteratorIPNS_11__hash_nodeIS8_PvEEEERKT_(%"class.std::__1::__hash_table.83"* %95, %"class.sw::SpirvID.328"* nonnull dereferenceable(4) %21) #17
  %171 = icmp eq %"struct.std::__1::__hash_node_base.87"* %170, null
  br i1 %171, label %172, label %173

172:                                              ; preds = %169
  call void @abort() #18
  unreachable

173:                                              ; preds = %169
  %174 = getelementptr inbounds %"struct.std::__1::__hash_node_base.87", %"struct.std::__1::__hash_node_base.87"* %170, i64 2
  %175 = bitcast %"struct.std::__1::__hash_node_base.87"* %174 to %"struct.std::__1::pair.400"*
  %176 = getelementptr inbounds %"struct.std::__1::pair.400", %"struct.std::__1::pair.400"* %175, i64 0, i32 1, i32 0
  %177 = load i32, i32* %176, align 4
  %178 = getelementptr inbounds %"struct.std::__1::__hash_node_base.87", %"struct.std::__1::__hash_node_base.87"* %170, i64 3
  %179 = bitcast %"struct.std::__1::__hash_node_base.87"* %178 to i32*
  %180 = load i32, i32* %179, align 4
  %181 = load %"class.vk::PipelineLayout"*, %"class.vk::PipelineLayout"** %96, align 8
  %182 = call i32 @_ZNK2vk14PipelineLayout17getDescriptorSizeEjj(%"class.vk::PipelineLayout"* %181, i32 %177, i32 %180) #17
  %183 = getelementptr inbounds i32, i32* %4, i64 %115
  %184 = load i32, i32* %183, align 4
  call void @llvm.lifetime.start.p0i8(i64 4, i8* nonnull %97)
  store i32 %184, i32* %98, align 4
  %185 = call %"struct.std::__1::__hash_node_base.203"* @_ZNKSt3__112__hash_tableINS_17__hash_value_typeIN2sw7SpirvIDINS2_11SpirvShader6ObjectEEES5_EENS_22__unordered_map_hasherIS6_S7_NS_4hashIS6_EENS_8equal_toIS6_EELb1EEENS_21__unordered_map_equalIS6_S7_SC_SA_Lb1EEENS_9allocatorIS7_EEE4findIS6_EENS_21__hash_const_iteratorIPNS_11__hash_nodeIS7_PvEEEERKT_(%"class.std::__1::__hash_table.199"* %38, %"class.sw::SpirvID.328"* nonnull dereferenceable(4) %12) #17
  call void @llvm.lifetime.end.p0i8(i64 4, i8* nonnull %97)
  %186 = getelementptr inbounds %"struct.std::__1::__hash_node_base.203", %"struct.std::__1::__hash_node_base.203"* %185, i64 7
  %187 = bitcast %"struct.std::__1::__hash_node_base.203"* %186 to i32*
  %188 = load i32, i32* %187, align 8
  %189 = icmp eq i32 %188, 2
  br i1 %189, label %190, label %198

190:                                              ; preds = %173
  %191 = load i32, i32* %183, align 4
  call void @llvm.lifetime.start.p0i8(i64 4, i8* nonnull %104) #15
  store i32 %191, i32* %105, align 4
  %192 = call %"struct.std::__1::__hash_node_base.203"* @_ZNKSt3__112__hash_tableINS_17__hash_value_typeIN2sw7SpirvIDINS2_11SpirvShader6ObjectEEES5_EENS_22__unordered_map_hasherIS6_S7_NS_4hashIS6_EENS_8equal_toIS6_EELb1EEENS_21__unordered_map_equalIS6_S7_SC_SA_Lb1EEENS_9allocatorIS7_EEE4findIS6_EENS_21__hash_const_iteratorIPNS_11__hash_nodeIS7_PvEEEERKT_(%"class.std::__1::__hash_table.199"* %38, %"class.sw::SpirvID.328"* nonnull dereferenceable(4) %10) #17
  call void @llvm.lifetime.end.p0i8(i64 4, i8* nonnull %104) #15
  %193 = getelementptr inbounds %"struct.std::__1::__hash_node_base.203", %"struct.std::__1::__hash_node_base.203"* %192, i64 4
  %194 = bitcast %"struct.std::__1::__hash_node_base.203"* %193 to i32**
  %195 = load i32*, i32** %194, align 8
  %196 = load i32, i32* %195, align 4
  %197 = mul i32 %196, %182
  call void @llvm.lifetime.start.p0i8(i64 8, i8* nonnull %106) #15
  call void @_ZN2rrpLERNS_7PointerINS_4ByteEEEi(%"class.rr::RValue.1106"* nonnull sret %22, %"class.rr::Pointer"* dereferenceable(48) %59, i32 %197) #17
  call void @llvm.lifetime.end.p0i8(i64 8, i8* nonnull %106) #15
  br label %244

198:                                              ; preds = %173
  %199 = call %"class.rr::Value"* @_ZN2rr7Nucleus17createConstantIntEi(i32 %182) #17
  store %"class.rr::Value"* %199, %"class.rr::Value"** %99, align 8
  %200 = load i32, i32* %183, align 4
  call void @llvm.lifetime.start.p0i8(i64 4, i8* nonnull %100)
  store i32 %200, i32* %101, align 4
  %201 = call %"struct.std::__1::__hash_node_base.1061"* @_ZNKSt3__112__hash_tableINS_17__hash_value_typeIN2sw7SpirvIDINS2_11SpirvShader6ObjectEEENS2_12IntermediateEEENS_22__unordered_map_hasherIS6_S8_NS_4hashIS6_EENS_8equal_toIS6_EELb1EEENS_21__unordered_map_equalIS6_S8_SD_SB_Lb1EEENS_9allocatorIS8_EEE4findIS6_EENS_21__hash_const_iteratorIPNS_11__hash_nodeIS8_PvEEEERKT_(%"class.std::__1::__hash_table.1057"* %90, %"class.sw::SpirvID.328"* nonnull dereferenceable(4) %8) #17
  call void @llvm.lifetime.end.p0i8(i64 4, i8* nonnull %100)
  %202 = getelementptr inbounds %"struct.std::__1::__hash_node_base.1061", %"struct.std::__1::__hash_node_base.1061"* %201, i64 4
  %203 = bitcast %"struct.std::__1::__hash_node_base.1061"* %202 to %"class.rr::Value"***
  %204 = load %"class.rr::Value"**, %"class.rr::Value"*** %203, align 8, !noalias !30
  %205 = load %"class.rr::Value"*, %"class.rr::Value"** %204, align 8, !noalias !30
  %206 = call %"class.rr::Type"* @_ZN2rr4Int44typeEv() #17, !noalias !33
  %207 = call %"class.rr::Value"* @_ZN2rr7Nucleus13createBitCastEPNS_5ValueEPNS_4TypeE(%"class.rr::Value"* %205, %"class.rr::Type"* %206) #17, !noalias !33
  store %"class.rr::Value"* %207, %"class.rr::Value"** %102, align 8, !alias.scope !33
  call void @_ZN2rr7ExtractENS_6RValueINS_4Int4EEEi(%"class.rr::RValue"* nonnull sret %25, %"class.rr::RValue.1105"* nonnull %26, i32 0) #17
  call void @_ZN2rrmlENS_6RValueINS_3IntEEES2_(%"class.rr::RValue"* nonnull sret %23, %"class.rr::RValue"* nonnull %24, %"class.rr::RValue"* nonnull %25) #17
  call void @llvm.lifetime.start.p0i8(i64 8, i8* nonnull %103) #15
  call void @_ZN2rrpLERNS_7PointerINS_4ByteEEENS_6RValueINS_3IntEEE(%"class.rr::RValue.1106"* nonnull sret %27, %"class.rr::Pointer"* dereferenceable(48) %59, %"class.rr::RValue"* nonnull %23) #17
  call void @llvm.lifetime.end.p0i8(i64 8, i8* nonnull %103) #15
  br label %244

208:                                              ; preds = %160
  %209 = getelementptr inbounds %"class.sw::SpirvShader::Type", %"class.sw::SpirvShader::Type"* %120, i64 0, i32 4, i32 0
  %210 = load i32, i32* %209, align 4
  call void @llvm.lifetime.start.p0i8(i64 4, i8* nonnull %81)
  store i32 %210, i32* %82, align 4
  %211 = call %"struct.std::__1::__hash_node_base.179"* @_ZNKSt3__112__hash_tableINS_17__hash_value_typeIN2sw7SpirvIDINS2_11SpirvShader4TypeEEES5_EENS_22__unordered_map_hasherIS6_S7_NS_4hashIS6_EENS_8equal_toIS6_EELb1EEENS_21__unordered_map_equalIS6_S7_SC_SA_Lb1EEENS_9allocatorIS7_EEE4findIS6_EENS_21__hash_const_iteratorIPNS_11__hash_nodeIS7_PvEEEERKT_(%"class.std::__1::__hash_table.175"* %47, %"class.sw::SpirvID.329"* nonnull dereferenceable(4) %7) #17
  %212 = getelementptr inbounds %"struct.std::__1::__hash_node_base.179", %"struct.std::__1::__hash_node_base.179"* %211, i64 3
  %213 = bitcast %"struct.std::__1::__hash_node_base.179"* %212 to %"class.sw::SpirvShader::Type"*
  call void @llvm.lifetime.end.p0i8(i64 4, i8* nonnull %81)
  %214 = getelementptr inbounds %"class.sw::SpirvShader::Type", %"class.sw::SpirvShader::Type"* %213, i64 0, i32 2
  %215 = load i32, i32* %214, align 4
  %216 = shl i32 %215, 2
  %217 = getelementptr inbounds i32, i32* %4, i64 %115
  %218 = load i32, i32* %217, align 4
  call void @llvm.lifetime.start.p0i8(i64 4, i8* nonnull %83)
  store i32 %218, i32* %84, align 4
  %219 = call %"struct.std::__1::__hash_node_base.203"* @_ZNKSt3__112__hash_tableINS_17__hash_value_typeIN2sw7SpirvIDINS2_11SpirvShader6ObjectEEES5_EENS_22__unordered_map_hasherIS6_S7_NS_4hashIS6_EENS_8equal_toIS6_EELb1EEENS_21__unordered_map_equalIS6_S7_SC_SA_Lb1EEENS_9allocatorIS7_EEE4findIS6_EENS_21__hash_const_iteratorIPNS_11__hash_nodeIS7_PvEEEERKT_(%"class.std::__1::__hash_table.199"* %38, %"class.sw::SpirvID.328"* nonnull dereferenceable(4) %9) #17
  call void @llvm.lifetime.end.p0i8(i64 4, i8* nonnull %83)
  %220 = getelementptr inbounds %"struct.std::__1::__hash_node_base.203", %"struct.std::__1::__hash_node_base.203"* %219, i64 7
  %221 = bitcast %"struct.std::__1::__hash_node_base.203"* %220 to i32*
  %222 = load i32, i32* %221, align 8
  %223 = icmp eq i32 %222, 2
  br i1 %223, label %224, label %233

224:                                              ; preds = %208
  %225 = load i32, i32* %217, align 4
  call void @llvm.lifetime.start.p0i8(i64 4, i8* nonnull %93) #15
  store i32 %225, i32* %94, align 4
  %226 = call %"struct.std::__1::__hash_node_base.203"* @_ZNKSt3__112__hash_tableINS_17__hash_value_typeIN2sw7SpirvIDINS2_11SpirvShader6ObjectEEES5_EENS_22__unordered_map_hasherIS6_S7_NS_4hashIS6_EENS_8equal_toIS6_EELb1EEENS_21__unordered_map_equalIS6_S7_SC_SA_Lb1EEENS_9allocatorIS7_EEE4findIS6_EENS_21__hash_const_iteratorIPNS_11__hash_nodeIS7_PvEEEERKT_(%"class.std::__1::__hash_table.199"* %38, %"class.sw::SpirvID.328"* nonnull dereferenceable(4) %11) #17
  call void @llvm.lifetime.end.p0i8(i64 4, i8* nonnull %93) #15
  %227 = getelementptr inbounds %"struct.std::__1::__hash_node_base.203", %"struct.std::__1::__hash_node_base.203"* %226, i64 4
  %228 = bitcast %"struct.std::__1::__hash_node_base.203"* %227 to i32**
  %229 = load i32*, i32** %228, align 8
  %230 = load i32, i32* %229, align 4
  %231 = mul i32 %230, %216
  %232 = call dereferenceable(168) %"struct.sw::SIMD::Pointer"* @_ZN2sw4SIMD7PointerpLEi(%"struct.sw::SIMD::Pointer"* %0, i32 %231) #17
  br label %244

233:                                              ; preds = %208
  call void @llvm.lifetime.start.p0i8(i64 48, i8* nonnull %85) #15
  call void @_ZN2rr4Int4C1Ei(%"class.rr::Int4"* nonnull %31, i32 %216) #17
  %234 = call %"class.rr::Value"* @_ZNK2rr8Variable9loadValueEv(%"class.rr::Variable"* nonnull %87) #17
  store %"class.rr::Value"* %234, %"class.rr::Value"** %86, align 8
  %235 = load i32, i32* %217, align 4
  call void @llvm.lifetime.start.p0i8(i64 4, i8* nonnull %88)
  store i32 %235, i32* %89, align 4
  %236 = call %"struct.std::__1::__hash_node_base.1061"* @_ZNKSt3__112__hash_tableINS_17__hash_value_typeIN2sw7SpirvIDINS2_11SpirvShader6ObjectEEENS2_12IntermediateEEENS_22__unordered_map_hasherIS6_S8_NS_4hashIS6_EENS_8equal_toIS6_EELb1EEENS_21__unordered_map_equalIS6_S8_SD_SB_Lb1EEENS_9allocatorIS8_EEE4findIS6_EENS_21__hash_const_iteratorIPNS_11__hash_nodeIS8_PvEEEERKT_(%"class.std::__1::__hash_table.1057"* %90, %"class.sw::SpirvID.328"* nonnull dereferenceable(4) %15) #17
  call void @llvm.lifetime.end.p0i8(i64 4, i8* nonnull %88)
  %237 = getelementptr inbounds %"struct.std::__1::__hash_node_base.1061", %"struct.std::__1::__hash_node_base.1061"* %236, i64 4
  %238 = bitcast %"struct.std::__1::__hash_node_base.1061"* %237 to %"class.rr::Value"***
  %239 = load %"class.rr::Value"**, %"class.rr::Value"*** %238, align 8, !noalias !36
  %240 = load %"class.rr::Value"*, %"class.rr::Value"** %239, align 8, !noalias !36
  %241 = call %"class.rr::Type"* @_ZN2rr4Int44typeEv() #17, !noalias !39
  %242 = call %"class.rr::Value"* @_ZN2rr7Nucleus13createBitCastEPNS_5ValueEPNS_4TypeE(%"class.rr::Value"* %240, %"class.rr::Type"* %241) #17, !noalias !39
  store %"class.rr::Value"* %242, %"class.rr::Value"** %91, align 8, !alias.scope !39
  call void @_ZN2rrmlENS_6RValueINS_4Int4EEES2_(%"class.rr::RValue.1105"* nonnull sret %29, %"class.rr::RValue.1105"* nonnull %30, %"class.rr::RValue.1105"* nonnull %32) #17
  call void @_ZN2rr4Int4C1ENS_6RValueIS0_EE(%"class.rr::Int4"* nonnull %28, %"class.rr::RValue.1105"* nonnull %29) #17
  %243 = call dereferenceable(168) %"struct.sw::SIMD::Pointer"* @_ZN2sw4SIMD7PointerpLEN2rr4Int4E(%"struct.sw::SIMD::Pointer"* %0, %"class.rr::Int4"* nonnull %28) #17
  call void @_ZN2rr8VariableD2Ev(%"class.rr::Variable"* nonnull %92) #17
  call void @_ZN2rr8VariableD2Ev(%"class.rr::Variable"* nonnull %87) #17
  call void @llvm.lifetime.end.p0i8(i64 48, i8* nonnull %85) #15
  br label %244

244:                                              ; preds = %224, %233, %190, %198
  %245 = getelementptr inbounds %"class.sw::SpirvShader::Type", %"class.sw::SpirvShader::Type"* %120, i64 0, i32 4, i32 0
  %246 = load i32, i32* %245, align 4
  br label %250

247:                                              ; preds = %114
  %248 = and i32 %123, 65535
  %249 = call i8* @_ZN2sw11SpirvShader10OpcodeNameEN3spv2OpE(i32 %248) #17
  call void (i8*, ...) @_ZN2sw4warnEPKcz(i8* getelementptr inbounds ([32 x i8], [32 x i8]* @.str.24, i64 0, i64 0), i8* getelementptr inbounds ([59 x i8], [59 x i8]* @.str.1, i64 0, i64 0), i32 1333, i8* %249) #17
  br label %250

250:                                              ; preds = %247, %244, %136
  %251 = phi i32 [ %117, %247 ], [ %117, %244 ], [ %138, %136 ]
  %252 = phi i32 [ %116, %247 ], [ %246, %244 ], [ %143, %136 ]
  %253 = add nuw nsw i64 %115, 1
  %254 = icmp eq i64 %253, %111
  br i1 %254, label %112, label %114

255:                                              ; preds = %112
  %256 = call dereferenceable(168) %"struct.sw::SIMD::Pointer"* @_ZN2sw4SIMD7PointerpLEi(%"struct.sw::SIMD::Pointer"* %0, i32 %251) #17
  br label %257

257:                                              ; preds = %6, %255, %112
  ret void
}

; Function Attrs: optsize
declare i32 @_ZNK2vk14PipelineLayout17getDescriptorSizeEjj(%"class.vk::PipelineLayout"*, i32, i32) local_unnamed_addr #1

; Function Attrs: optsize
declare void @_ZN2rrpLERNS_7PointerINS_4ByteEEEi(%"class.rr::RValue.1106"* sret, %"class.rr::Pointer"* dereferenceable(48), i32) local_unnamed_addr #1

; Function Attrs: optsize
declare void @_ZN2rrpLERNS_7PointerINS_4ByteEEENS_6RValueINS_3IntEEE(%"class.rr::RValue.1106"* sret, %"class.rr::Pointer"* dereferenceable(48), %"class.rr::RValue"*) local_unnamed_addr #1

; Function Attrs: optsize
declare void @_ZN2rrmlENS_6RValueINS_3IntEEES2_(%"class.rr::RValue"* sret, %"class.rr::RValue"*, %"class.rr::RValue"*) local_unnamed_addr #1

; Function Attrs: nounwind optsize ssp uwtable
define hidden i32 @_ZNK2sw11SpirvShader22WalkLiteralAccessChainENS_7SpirvIDINS0_4TypeEEEjPKj(%"class.sw::SpirvShader"*, i32, i32, i32* nocapture readonly) local_unnamed_addr #0 align 2 {
  %5 = alloca %"class.sw::SpirvID.329", align 4
  %6 = alloca %"class.sw::SpirvID.329", align 4
  %7 = alloca %"class.sw::SpirvID.329", align 4
  %8 = icmp eq i32 %2, 0
  br i1 %8, label %18, label %9

9:                                                ; preds = %4
  %10 = bitcast %"class.sw::SpirvID.329"* %7 to i8*
  %11 = getelementptr inbounds %"class.sw::SpirvID.329", %"class.sw::SpirvID.329"* %7, i64 0, i32 0
  %12 = getelementptr inbounds %"class.sw::SpirvShader", %"class.sw::SpirvShader"* %0, i64 0, i32 13, i32 0
  %13 = bitcast %"class.sw::SpirvID.329"* %6 to i8*
  %14 = getelementptr inbounds %"class.sw::SpirvID.329", %"class.sw::SpirvID.329"* %6, i64 0, i32 0
  %15 = bitcast %"class.sw::SpirvID.329"* %5 to i8*
  %16 = getelementptr inbounds %"class.sw::SpirvID.329", %"class.sw::SpirvID.329"* %5, i64 0, i32 0
  %17 = zext i32 %2 to i64
  br label %20

18:                                               ; preds = %85, %4
  %19 = phi i32 [ 0, %4 ], [ %86, %85 ]
  ret i32 %19

20:                                               ; preds = %85, %9
  %21 = phi i64 [ 0, %9 ], [ %88, %85 ]
  %22 = phi i32 [ %1, %9 ], [ %87, %85 ]
  %23 = phi i32 [ 0, %9 ], [ %86, %85 ]
  call void @llvm.lifetime.start.p0i8(i64 4, i8* nonnull %10)
  store i32 %22, i32* %11, align 4
  %24 = call %"struct.std::__1::__hash_node_base.179"* @_ZNKSt3__112__hash_tableINS_17__hash_value_typeIN2sw7SpirvIDINS2_11SpirvShader4TypeEEES5_EENS_22__unordered_map_hasherIS6_S7_NS_4hashIS6_EENS_8equal_toIS6_EELb1EEENS_21__unordered_map_equalIS6_S7_SC_SA_Lb1EEENS_9allocatorIS7_EEE4findIS6_EENS_21__hash_const_iteratorIPNS_11__hash_nodeIS7_PvEEEERKT_(%"class.std::__1::__hash_table.175"* %12, %"class.sw::SpirvID.329"* nonnull dereferenceable(4) %7) #17
  %25 = getelementptr inbounds %"struct.std::__1::__hash_node_base.179", %"struct.std::__1::__hash_node_base.179"* %24, i64 3
  call void @llvm.lifetime.end.p0i8(i64 4, i8* nonnull %10)
  %26 = bitcast %"struct.std::__1::__hash_node_base.179"* %25 to i32**
  %27 = load i32*, i32** %26, align 8
  %28 = load i32, i32* %27, align 4
  %29 = trunc i32 %28 to i16
  switch i16 %29, label %82 [
    i16 30, label %30
    i16 23, label %70
    i16 24, label %70
    i16 28, label %70
  ]

30:                                               ; preds = %20
  %31 = getelementptr inbounds i32, i32* %3, i64 %21
  %32 = load i32, i32* %31, align 4
  %33 = icmp sgt i32 %32, 0
  br i1 %33, label %34, label %47

34:                                               ; preds = %30
  %35 = zext i32 %32 to i64
  %36 = getelementptr inbounds i32, i32* %27, i64 2
  %37 = load i32, i32* %36, align 4
  call void @llvm.lifetime.start.p0i8(i64 4, i8* nonnull %15)
  store i32 %37, i32* %16, align 4
  %38 = call %"struct.std::__1::__hash_node_base.179"* @_ZNKSt3__112__hash_tableINS_17__hash_value_typeIN2sw7SpirvIDINS2_11SpirvShader4TypeEEES5_EENS_22__unordered_map_hasherIS6_S7_NS_4hashIS6_EENS_8equal_toIS6_EELb1EEENS_21__unordered_map_equalIS6_S7_SC_SA_Lb1EEENS_9allocatorIS7_EEE4findIS6_EENS_21__hash_const_iteratorIPNS_11__hash_nodeIS7_PvEEEERKT_(%"class.std::__1::__hash_table.175"* %12, %"class.sw::SpirvID.329"* nonnull dereferenceable(4) %5) #17
  %39 = getelementptr inbounds %"struct.std::__1::__hash_node_base.179", %"struct.std::__1::__hash_node_base.179"* %38, i64 3
  %40 = bitcast %"struct.std::__1::__hash_node_base.179"* %39 to %"class.sw::SpirvShader::Type"*
  call void @llvm.lifetime.end.p0i8(i64 4, i8* nonnull %15)
  %41 = getelementptr inbounds %"class.sw::SpirvShader::Type", %"class.sw::SpirvShader::Type"* %40, i64 0, i32 2
  %42 = load i32, i32* %41, align 4
  %43 = icmp eq i32 %32, 1
  br i1 %43, label %44, label %55

44:                                               ; preds = %55, %34
  %45 = phi i32 [ %42, %34 ], [ %67, %55 ]
  %46 = load i32*, i32** %26, align 8
  br label %47

47:                                               ; preds = %44, %30
  %48 = phi i32* [ %27, %30 ], [ %46, %44 ]
  %49 = phi i32 [ 0, %30 ], [ %45, %44 ]
  %50 = add i32 %49, %23
  %51 = add i32 %32, 2
  %52 = zext i32 %51 to i64
  %53 = getelementptr inbounds i32, i32* %48, i64 %52
  %54 = load i32, i32* %53, align 4
  br label %85

55:                                               ; preds = %34, %55
  %56 = phi i64 [ %68, %55 ], [ 1, %34 ]
  %57 = phi i32 [ %67, %55 ], [ %42, %34 ]
  %58 = load i32*, i32** %26, align 8
  %59 = add nuw nsw i64 %56, 2
  %60 = getelementptr inbounds i32, i32* %58, i64 %59
  %61 = load i32, i32* %60, align 4
  call void @llvm.lifetime.start.p0i8(i64 4, i8* nonnull %15)
  store i32 %61, i32* %16, align 4
  %62 = call %"struct.std::__1::__hash_node_base.179"* @_ZNKSt3__112__hash_tableINS_17__hash_value_typeIN2sw7SpirvIDINS2_11SpirvShader4TypeEEES5_EENS_22__unordered_map_hasherIS6_S7_NS_4hashIS6_EENS_8equal_toIS6_EELb1EEENS_21__unordered_map_equalIS6_S7_SC_SA_Lb1EEENS_9allocatorIS7_EEE4findIS6_EENS_21__hash_const_iteratorIPNS_11__hash_nodeIS7_PvEEEERKT_(%"class.std::__1::__hash_table.175"* %12, %"class.sw::SpirvID.329"* nonnull dereferenceable(4) %5) #17
  %63 = getelementptr inbounds %"struct.std::__1::__hash_node_base.179", %"struct.std::__1::__hash_node_base.179"* %62, i64 3
  %64 = bitcast %"struct.std::__1::__hash_node_base.179"* %63 to %"class.sw::SpirvShader::Type"*
  call void @llvm.lifetime.end.p0i8(i64 4, i8* nonnull %15)
  %65 = getelementptr inbounds %"class.sw::SpirvShader::Type", %"class.sw::SpirvShader::Type"* %64, i64 0, i32 2
  %66 = load i32, i32* %65, align 4
  %67 = add i32 %66, %57
  %68 = add nuw nsw i64 %56, 1
  %69 = icmp eq i64 %68, %35
  br i1 %69, label %44, label %55

70:                                               ; preds = %20, %20, %20
  %71 = getelementptr inbounds i32, i32* %27, i64 2
  %72 = load i32, i32* %71, align 4
  call void @llvm.lifetime.start.p0i8(i64 4, i8* nonnull %13)
  store i32 %72, i32* %14, align 4
  %73 = call %"struct.std::__1::__hash_node_base.179"* @_ZNKSt3__112__hash_tableINS_17__hash_value_typeIN2sw7SpirvIDINS2_11SpirvShader4TypeEEES5_EENS_22__unordered_map_hasherIS6_S7_NS_4hashIS6_EENS_8equal_toIS6_EELb1EEENS_21__unordered_map_equalIS6_S7_SC_SA_Lb1EEENS_9allocatorIS7_EEE4findIS6_EENS_21__hash_const_iteratorIPNS_11__hash_nodeIS7_PvEEEERKT_(%"class.std::__1::__hash_table.175"* %12, %"class.sw::SpirvID.329"* nonnull dereferenceable(4) %6) #17
  %74 = getelementptr inbounds %"struct.std::__1::__hash_node_base.179", %"struct.std::__1::__hash_node_base.179"* %73, i64 3
  %75 = bitcast %"struct.std::__1::__hash_node_base.179"* %74 to %"class.sw::SpirvShader::Type"*
  call void @llvm.lifetime.end.p0i8(i64 4, i8* nonnull %13)
  %76 = getelementptr inbounds %"class.sw::SpirvShader::Type", %"class.sw::SpirvShader::Type"* %75, i64 0, i32 2
  %77 = load i32, i32* %76, align 4
  %78 = getelementptr inbounds i32, i32* %3, i64 %21
  %79 = load i32, i32* %78, align 4
  %80 = mul i32 %79, %77
  %81 = add i32 %80, %23
  br label %85

82:                                               ; preds = %20
  %83 = and i32 %28, 65535
  %84 = call i8* @_ZN2sw11SpirvShader10OpcodeNameEN3spv2OpE(i32 %83) #17
  call void (i8*, ...) @_ZN2sw4warnEPKcz(i8* getelementptr inbounds ([32 x i8], [32 x i8]* @.str.24, i64 0, i64 0), i8* getelementptr inbounds ([59 x i8], [59 x i8]* @.str.1, i64 0, i64 0), i32 1379, i8* %84) #17
  br label %85

85:                                               ; preds = %82, %70, %47
  %86 = phi i32 [ %23, %82 ], [ %81, %70 ], [ %50, %47 ]
  %87 = phi i32 [ %22, %82 ], [ %72, %70 ], [ %54, %47 ]
  %88 = add nuw nsw i64 %21, 1
  %89 = icmp eq i64 %88, %17
  br i1 %89, label %18, label %20
}

; Function Attrs: optsize
declare void @_ZNK2sw11SpirvShader16dbgDeclareResultERKNS0_12InsnIteratorENS_7SpirvIDINS0_6ObjectEEE(%"class.sw::SpirvShader"*, %"class.sw::SpirvShader::InsnIterator"* dereferenceable(8), i32) local_unnamed_addr #1

; Function Attrs: norecurse nounwind optsize readonly ssp uwtable
define hidden i32 @_ZNK2sw11SpirvShader9EmitState22getOutOfBoundsBehaviorEN3spv12StorageClassE(%"class.sw::SpirvShader::EmitState"* nocapture readonly, i32) local_unnamed_addr #5 align 2 {
  switch i32 %1, label %17 [
    i32 2, label %3
    i32 12, label %3
    i32 11, label %18
    i32 1, label %8
  ]

3:                                                ; preds = %2, %2
  %4 = getelementptr inbounds %"class.sw::SpirvShader::EmitState", %"class.sw::SpirvShader::EmitState"* %0, i64 0, i32 11
  %5 = load i8, i8* %4, align 8, !range !5
  %6 = icmp eq i8 %5, 0
  %7 = select i1 %6, i32 3, i32 1
  br label %18

8:                                                ; preds = %2
  %9 = getelementptr inbounds %"class.sw::SpirvShader::EmitState", %"class.sw::SpirvShader::EmitState"* %0, i64 0, i32 14
  %10 = load i32, i32* %9, align 8
  %11 = icmp eq i32 %10, 0
  br i1 %11, label %12, label %17

12:                                               ; preds = %8
  %13 = getelementptr inbounds %"class.sw::SpirvShader::EmitState", %"class.sw::SpirvShader::EmitState"* %0, i64 0, i32 11
  %14 = load i8, i8* %13, align 8, !range !5
  %15 = icmp eq i8 %14, 0
  %16 = select i1 %15, i32 3, i32 1
  br label %18

17:                                               ; preds = %8, %2
  br label %18

18:                                               ; preds = %2, %17, %12, %3
  %19 = phi i32 [ 2, %17 ], [ %16, %12 ], [ %7, %3 ], [ 0, %2 ]
  ret i32 %19
}

; Function Attrs: nounwind optsize ssp uwtable
define hidden void @_ZNK2sw11SpirvShader10emitPrologEPNS_12SpirvRoutineE(%"class.sw::SpirvShader"*, %"class.sw::SpirvRoutine"*) local_unnamed_addr #0 align 2 {
  %3 = alloca %"class.sw::SpirvID.329", align 4
  %4 = alloca %"class.sw::SpirvID.329", align 4
  %5 = alloca %"class.sw::SpirvID.329", align 4
  %6 = alloca %"class.sw::SpirvID.328", align 4
  %7 = alloca %"class.rr::Array", align 8
  %8 = alloca %"class.sw::SpirvID.328", align 4
  %9 = alloca %"struct.sw::SpirvRoutine::SamplerCache", align 8
  %10 = getelementptr inbounds %"class.sw::SpirvShader", %"class.sw::SpirvShader"* %0, i64 0, i32 0, i32 0, i32 0
  %11 = load i32*, i32** %10, align 8
  %12 = getelementptr inbounds i32, i32* %11, i64 5
  %13 = getelementptr inbounds %"class.sw::SpirvShader", %"class.sw::SpirvShader"* %0, i64 0, i32 0, i32 0, i32 1
  %14 = load i32*, i32** %13, align 8
  %15 = icmp eq i32* %12, %14
  br i1 %15, label %46, label %16

16:                                               ; preds = %2
  %17 = bitcast %"class.sw::SpirvID.328"* %8 to i8*
  %18 = getelementptr inbounds %"class.sw::SpirvID.328", %"class.sw::SpirvID.328"* %8, i64 0, i32 0
  %19 = bitcast %"struct.sw::SpirvRoutine::SamplerCache"* %9 to i8*
  %20 = getelementptr inbounds %"struct.sw::SpirvRoutine::SamplerCache", %"struct.sw::SpirvRoutine::SamplerCache"* %9, i64 0, i32 0
  %21 = getelementptr inbounds %"struct.sw::SpirvRoutine::SamplerCache", %"struct.sw::SpirvRoutine::SamplerCache"* %9, i64 0, i32 1
  %22 = bitcast %"class.rr::Int"* %21 to i8*
  %23 = getelementptr inbounds %"class.rr::Int", %"class.rr::Int"* %21, i64 0, i32 0, i32 0
  %24 = getelementptr inbounds %"class.rr::Int", %"class.rr::Int"* %21, i64 0, i32 0, i32 0, i32 0
  %25 = getelementptr inbounds %"struct.sw::SpirvRoutine::SamplerCache", %"struct.sw::SpirvRoutine::SamplerCache"* %9, i64 0, i32 2
  %26 = getelementptr inbounds %"class.rr::Pointer", %"class.rr::Pointer"* %25, i64 0, i32 0
  %27 = getelementptr inbounds %"class.rr::Pointer", %"class.rr::Pointer"* %25, i64 0, i32 0, i32 0, i32 0
  %28 = getelementptr inbounds %"struct.sw::SpirvRoutine::SamplerCache", %"struct.sw::SpirvRoutine::SamplerCache"* %9, i64 0, i32 2, i32 1
  %29 = getelementptr inbounds %"class.sw::SpirvRoutine", %"class.sw::SpirvRoutine"* %1, i64 0, i32 2, i32 0
  %30 = getelementptr inbounds %"struct.sw::SpirvRoutine::SamplerCache", %"struct.sw::SpirvRoutine::SamplerCache"* %9, i64 0, i32 2, i32 0, i32 0
  %31 = getelementptr inbounds %"struct.sw::SpirvRoutine::SamplerCache", %"struct.sw::SpirvRoutine::SamplerCache"* %9, i64 0, i32 1, i32 0, i32 0
  %32 = getelementptr inbounds %"struct.sw::SpirvRoutine::SamplerCache", %"struct.sw::SpirvRoutine::SamplerCache"* %9, i64 0, i32 0, i32 0, i32 0
  %33 = bitcast %"class.sw::SpirvID.329"* %3 to i8*
  %34 = getelementptr inbounds %"class.sw::SpirvID.329", %"class.sw::SpirvID.329"* %3, i64 0, i32 0
  %35 = getelementptr inbounds %"class.sw::SpirvShader", %"class.sw::SpirvShader"* %0, i64 0, i32 13, i32 0
  %36 = bitcast %"class.sw::SpirvID.328"* %6 to i8*
  %37 = getelementptr inbounds %"class.sw::SpirvID.328", %"class.sw::SpirvID.328"* %6, i64 0, i32 0
  %38 = bitcast %"class.rr::Array"* %7 to i8*
  %39 = getelementptr inbounds %"class.rr::Array", %"class.rr::Array"* %7, i64 0, i32 0, i32 0
  %40 = getelementptr inbounds %"class.rr::Array", %"class.rr::Array"* %7, i64 0, i32 0, i32 0, i32 0
  %41 = getelementptr inbounds %"class.sw::SpirvRoutine", %"class.sw::SpirvRoutine"* %1, i64 0, i32 29, i32 0
  %42 = bitcast %"class.sw::SpirvID.329"* %5 to i8*
  %43 = getelementptr inbounds %"class.sw::SpirvID.329", %"class.sw::SpirvID.329"* %5, i64 0, i32 0
  %44 = bitcast %"class.sw::SpirvID.329"* %4 to i8*
  %45 = getelementptr inbounds %"class.sw::SpirvID.329", %"class.sw::SpirvID.329"* %4, i64 0, i32 0
  br label %47

46:                                               ; preds = %85, %2
  ret void

47:                                               ; preds = %16, %85
  %48 = phi i32* [ %12, %16 ], [ %89, %85 ]
  %49 = load i32, i32* %48, align 4
  %50 = trunc i32 %49 to i16
  switch i16 %50, label %85 [
    i16 59, label %51
    i16 245, label %68
    i16 97, label %80
    i16 95, label %80
    i16 96, label %80
    i16 105, label %80
    i16 90, label %80
    i16 89, label %80
    i16 88, label %80
    i16 87, label %80
    i16 94, label %80
    i16 93, label %80
    i16 92, label %80
    i16 91, label %80
  ]

51:                                               ; preds = %47
  %52 = getelementptr inbounds i32, i32* %48, i64 1
  %53 = load i32, i32* %52, align 4
  call void @llvm.lifetime.start.p0i8(i64 4, i8* nonnull %42)
  store i32 %53, i32* %43, align 4
  %54 = call %"struct.std::__1::__hash_node_base.179"* @_ZNKSt3__112__hash_tableINS_17__hash_value_typeIN2sw7SpirvIDINS2_11SpirvShader4TypeEEES5_EENS_22__unordered_map_hasherIS6_S7_NS_4hashIS6_EENS_8equal_toIS6_EELb1EEENS_21__unordered_map_equalIS6_S7_SC_SA_Lb1EEENS_9allocatorIS7_EEE4findIS6_EENS_21__hash_const_iteratorIPNS_11__hash_nodeIS7_PvEEEERKT_(%"class.std::__1::__hash_table.175"* %35, %"class.sw::SpirvID.329"* nonnull dereferenceable(4) %5) #17
  %55 = getelementptr inbounds %"struct.std::__1::__hash_node_base.179", %"struct.std::__1::__hash_node_base.179"* %54, i64 3
  %56 = bitcast %"struct.std::__1::__hash_node_base.179"* %55 to %"class.sw::SpirvShader::Type"*
  call void @llvm.lifetime.end.p0i8(i64 4, i8* nonnull %42)
  %57 = getelementptr inbounds %"class.sw::SpirvShader::Type", %"class.sw::SpirvShader::Type"* %56, i64 0, i32 4, i32 0
  %58 = load i32, i32* %57, align 4
  call void @llvm.lifetime.start.p0i8(i64 4, i8* nonnull %44)
  store i32 %58, i32* %45, align 4
  %59 = call %"struct.std::__1::__hash_node_base.179"* @_ZNKSt3__112__hash_tableINS_17__hash_value_typeIN2sw7SpirvIDINS2_11SpirvShader4TypeEEES5_EENS_22__unordered_map_hasherIS6_S7_NS_4hashIS6_EENS_8equal_toIS6_EELb1EEENS_21__unordered_map_equalIS6_S7_SC_SA_Lb1EEENS_9allocatorIS7_EEE4findIS6_EENS_21__hash_const_iteratorIPNS_11__hash_nodeIS7_PvEEEERKT_(%"class.std::__1::__hash_table.175"* %35, %"class.sw::SpirvID.329"* nonnull dereferenceable(4) %4) #17
  %60 = getelementptr inbounds %"struct.std::__1::__hash_node_base.179", %"struct.std::__1::__hash_node_base.179"* %59, i64 3
  %61 = bitcast %"struct.std::__1::__hash_node_base.179"* %60 to %"class.sw::SpirvShader::Type"*
  call void @llvm.lifetime.end.p0i8(i64 4, i8* nonnull %44)
  %62 = getelementptr inbounds %"class.sw::SpirvShader::Type", %"class.sw::SpirvShader::Type"* %61, i64 0, i32 2
  %63 = load i32, i32* %62, align 4
  %64 = icmp eq i32 %63, 0
  br i1 %64, label %85, label %65

65:                                               ; preds = %51
  %66 = getelementptr inbounds i32, i32* %48, i64 2
  %67 = load i32, i32* %66, align 4
  call void @_ZN2sw12SpirvRoutine14createVariableENS_7SpirvIDINS_11SpirvShader6ObjectEEEj(%"class.sw::SpirvRoutine"* %1, i32 %67, i32 %63) #14
  br label %85

68:                                               ; preds = %47
  %69 = getelementptr inbounds i32, i32* %48, i64 1
  %70 = load i32, i32* %69, align 4
  call void @llvm.lifetime.start.p0i8(i64 4, i8* nonnull %33)
  store i32 %70, i32* %34, align 4
  %71 = call %"struct.std::__1::__hash_node_base.179"* @_ZNKSt3__112__hash_tableINS_17__hash_value_typeIN2sw7SpirvIDINS2_11SpirvShader4TypeEEES5_EENS_22__unordered_map_hasherIS6_S7_NS_4hashIS6_EENS_8equal_toIS6_EELb1EEENS_21__unordered_map_equalIS6_S7_SC_SA_Lb1EEENS_9allocatorIS7_EEE4findIS6_EENS_21__hash_const_iteratorIPNS_11__hash_nodeIS7_PvEEEERKT_(%"class.std::__1::__hash_table.175"* %35, %"class.sw::SpirvID.329"* nonnull dereferenceable(4) %3) #17
  %72 = getelementptr inbounds %"struct.std::__1::__hash_node_base.179", %"struct.std::__1::__hash_node_base.179"* %71, i64 3
  %73 = bitcast %"struct.std::__1::__hash_node_base.179"* %72 to %"class.sw::SpirvShader::Type"*
  call void @llvm.lifetime.end.p0i8(i64 4, i8* nonnull %33)
  %74 = getelementptr inbounds %"class.sw::SpirvShader::Type", %"class.sw::SpirvShader::Type"* %73, i64 0, i32 2
  %75 = load i32, i32* %74, align 4
  call void @llvm.lifetime.start.p0i8(i64 4, i8* nonnull %36) #15
  %76 = getelementptr inbounds i32, i32* %48, i64 2
  %77 = load i32, i32* %76, align 4
  store i32 %77, i32* %37, align 4
  call void @llvm.lifetime.start.p0i8(i64 40, i8* nonnull %38) #15
  %78 = call %"class.rr::Type"* @_ZN2rr6Float44typeEv() #17
  call void @_ZN2rr8VariableC2EPNS_4TypeEi(%"class.rr::Variable"* nonnull %39, %"class.rr::Type"* %78, i32 %75) #17
  store i32 (...)** bitcast (i8** getelementptr inbounds ({ [4 x i8*] }, { [4 x i8*] }* @_ZTVN2rr5ArrayINS_6Float4ELi1EEE, i64 0, inrange i32 0, i64 2) to i32 (...)**), i32 (...)*** %40, align 8
  %79 = call { %"struct.std::__1::__hash_node_base.417"*, i8 } @_ZNSt3__112__hash_tableINS_17__hash_value_typeIN2sw7SpirvIDINS2_11SpirvShader6ObjectEEEN2rr5ArrayINS7_6Float4ELi1EEEEENS_22__unordered_map_hasherIS6_SB_NS_4hashIS6_EENS_8equal_toIS6_EELb1EEENS_21__unordered_map_equalIS6_SB_SG_SE_Lb1EEENS_9allocatorISB_EEE25__emplace_unique_key_argsIS6_JS6_SA_EEENS_4pairINS_15__hash_iteratorIPNS_11__hash_nodeISB_PvEEEEbEERKT_DpOT0_(%"class.std::__1::__hash_table.413"* %41, %"class.sw::SpirvID.328"* nonnull dereferenceable(4) %6, %"class.sw::SpirvID.328"* nonnull dereferenceable(4) %6, %"class.rr::Array"* nonnull dereferenceable(40) %7) #17
  call void @_ZN2rr8VariableD2Ev(%"class.rr::Variable"* nonnull %39) #17
  call void @llvm.lifetime.end.p0i8(i64 40, i8* nonnull %38) #15
  call void @llvm.lifetime.end.p0i8(i64 4, i8* nonnull %36) #15
  br label %85

80:                                               ; preds = %47, %47, %47, %47, %47, %47, %47, %47, %47, %47, %47, %47
  call void @llvm.lifetime.start.p0i8(i64 4, i8* nonnull %17) #15
  %81 = getelementptr inbounds i32, i32* %48, i64 2
  %82 = load i32, i32* %81, align 4
  store i32 %82, i32* %18, align 4
  call void @llvm.lifetime.start.p0i8(i64 136, i8* nonnull %19) #15
  call void @_ZN2rr7PointerINS_4ByteEEC2EDn(%"class.rr::Pointer"* nonnull %20, i8* null) #14
  call void @llvm.memset.p0i8.i64(i8* align 8 %22, i8 0, i64 40, i1 false)
  %83 = call %"class.rr::Type"* @_ZN2rr3Int4typeEv() #17
  call void @_ZN2rr8VariableC2EPNS_4TypeEi(%"class.rr::Variable"* %23, %"class.rr::Type"* %83, i32 0) #17
  store i32 (...)** bitcast (i8** getelementptr inbounds ({ [4 x i8*] }, { [4 x i8*] }* @_ZTVN2rr3IntE, i64 0, inrange i32 0, i64 2) to i32 (...)**), i32 (...)*** %24, align 8
  call void @_ZN2rr6LValueINS_7PointerINS_4ByteEEEEC2Ei(%"class.rr::LValue.460"* %26, i32 0) #17
  store i32 (...)** bitcast (i8** getelementptr inbounds ({ [4 x i8*] }, { [4 x i8*] }* @_ZTVN2rr7PointerINS_4ByteEEE, i64 0, inrange i32 0, i64 2) to i32 (...)**), i32 (...)*** %27, align 8
  store i32 1, i32* %28, align 8
  %84 = call { %"struct.std::__1::__hash_node_base.441"*, i8 } @_ZNSt3__112__hash_tableINS_17__hash_value_typeIN2sw7SpirvIDINS2_11SpirvShader6ObjectEEENS2_12SpirvRoutine12SamplerCacheEEENS_22__unordered_map_hasherIS6_S9_NS_4hashIS6_EENS_8equal_toIS6_EELb1EEENS_21__unordered_map_equalIS6_S9_SE_SC_Lb1EEENS_9allocatorIS9_EEE25__emplace_unique_key_argsIS6_JS6_S8_EEENS_4pairINS_15__hash_iteratorIPNS_11__hash_nodeIS9_PvEEEEbEERKT_DpOT0_(%"class.std::__1::__hash_table.437"* %29, %"class.sw::SpirvID.328"* nonnull dereferenceable(4) %8, %"class.sw::SpirvID.328"* nonnull dereferenceable(4) %8, %"struct.sw::SpirvRoutine::SamplerCache"* nonnull dereferenceable(136) %9) #17
  call void @_ZN2rr8VariableD2Ev(%"class.rr::Variable"* %30) #17
  call void @_ZN2rr8VariableD2Ev(%"class.rr::Variable"* %31) #17
  call void @_ZN2rr8VariableD2Ev(%"class.rr::Variable"* nonnull %32) #17
  call void @llvm.lifetime.end.p0i8(i64 136, i8* nonnull %19) #15
  call void @llvm.lifetime.end.p0i8(i64 4, i8* nonnull %17) #15
  br label %85

85:                                               ; preds = %65, %51, %47, %80, %68
  %86 = load i32, i32* %48, align 4
  %87 = lshr i32 %86, 16
  %88 = zext i32 %87 to i64
  %89 = getelementptr inbounds i32, i32* %48, i64 %88
  %90 = icmp eq i32* %89, %14
  br i1 %90, label %46, label %47
}

; Function Attrs: nounwind optsize ssp uwtable
define linkonce_odr hidden void @_ZN2sw12SpirvRoutine14createVariableENS_7SpirvIDINS_11SpirvShader6ObjectEEEj(%"class.sw::SpirvRoutine"*, i32, i32) local_unnamed_addr #0 comdat align 2 {
  %4 = alloca %"class.sw::SpirvID.328", align 4
  %5 = alloca %"class.rr::Array", align 8
  %6 = getelementptr inbounds %"class.sw::SpirvID.328", %"class.sw::SpirvID.328"* %4, i64 0, i32 0
  store i32 %1, i32* %6, align 4
  %7 = bitcast %"class.rr::Array"* %5 to i8*
  call void @llvm.lifetime.start.p0i8(i64 40, i8* nonnull %7) #15
  %8 = getelementptr inbounds %"class.rr::Array", %"class.rr::Array"* %5, i64 0, i32 0, i32 0
  %9 = tail call %"class.rr::Type"* @_ZN2rr6Float44typeEv() #17
  call void @_ZN2rr8VariableC2EPNS_4TypeEi(%"class.rr::Variable"* nonnull %8, %"class.rr::Type"* %9, i32 %2) #17
  %10 = getelementptr inbounds %"class.rr::Array", %"class.rr::Array"* %5, i64 0, i32 0, i32 0, i32 0
  store i32 (...)** bitcast (i8** getelementptr inbounds ({ [4 x i8*] }, { [4 x i8*] }* @_ZTVN2rr5ArrayINS_6Float4ELi1EEE, i64 0, inrange i32 0, i64 2) to i32 (...)**), i32 (...)*** %10, align 8
  %11 = getelementptr inbounds %"class.sw::SpirvRoutine", %"class.sw::SpirvRoutine"* %0, i64 0, i32 1, i32 0
  %12 = call { %"struct.std::__1::__hash_node_base.417"*, i8 } @_ZNSt3__112__hash_tableINS_17__hash_value_typeIN2sw7SpirvIDINS2_11SpirvShader6ObjectEEEN2rr5ArrayINS7_6Float4ELi1EEEEENS_22__unordered_map_hasherIS6_SB_NS_4hashIS6_EENS_8equal_toIS6_EELb1EEENS_21__unordered_map_equalIS6_SB_SG_SE_Lb1EEENS_9allocatorISB_EEE25__emplace_unique_key_argsIS6_JRS6_SA_EEENS_4pairINS_15__hash_iteratorIPNS_11__hash_nodeISB_PvEEEEbEERKT_DpOT0_(%"class.std::__1::__hash_table.413"* %11, %"class.sw::SpirvID.328"* nonnull dereferenceable(4) %4, %"class.sw::SpirvID.328"* nonnull dereferenceable(4) %4, %"class.rr::Array"* nonnull dereferenceable(40) %5) #17
  call void @_ZN2rr8VariableD2Ev(%"class.rr::Variable"* nonnull %8) #17
  call void @llvm.lifetime.end.p0i8(i64 40, i8* nonnull %7) #15
  ret void
}

; Function Attrs: nounwind optsize ssp uwtable
define linkonce_odr hidden void @_ZN2rr7PointerINS_4ByteEEC2EDn(%"class.rr::Pointer"*, i8*) unnamed_addr #0 comdat align 2 {
  %3 = getelementptr inbounds %"class.rr::Pointer", %"class.rr::Pointer"* %0, i64 0, i32 0
  tail call void @_ZN2rr6LValueINS_7PointerINS_4ByteEEEEC2Ei(%"class.rr::LValue.460"* %3, i32 0) #14
  %4 = getelementptr inbounds %"class.rr::Pointer", %"class.rr::Pointer"* %0, i64 0, i32 0, i32 0, i32 0
  store i32 (...)** bitcast (i8** getelementptr inbounds ({ [4 x i8*] }, { [4 x i8*] }* @_ZTVN2rr7PointerINS_4ByteEEE, i64 0, inrange i32 0, i64 2) to i32 (...)**), i32 (...)*** %4, align 8
  %5 = getelementptr inbounds %"class.rr::Pointer", %"class.rr::Pointer"* %0, i64 0, i32 1
  store i32 1, i32* %5, align 8
  %6 = tail call %"class.rr::Type"* @_ZN2rr4Byte4typeEv() #17
  %7 = tail call %"class.rr::Value"* @_ZN2rr7Nucleus17createNullPointerEPNS_4TypeE(%"class.rr::Type"* %6) #17
  %8 = getelementptr inbounds %"class.rr::Pointer", %"class.rr::Pointer"* %0, i64 0, i32 0, i32 0
  %9 = tail call %"class.rr::Value"* @_ZNK2rr8Variable10storeValueEPNS_5ValueE(%"class.rr::Variable"* %8, %"class.rr::Value"* %7) #17
  ret void
}

; Function Attrs: nounwind optsize ssp uwtable
define hidden void @_ZNK2sw11SpirvShader4emitEPNS_12SpirvRoutineERKN2rr6RValueINS3_4Int4EEES8_RKNSt3__15arrayIPhLm4EEEj(%"class.sw::SpirvShader"*, %"class.sw::SpirvRoutine"*, %"class.rr::RValue.1105"* nocapture readonly dereferenceable(8), %"class.rr::RValue.1105"* nocapture readonly dereferenceable(8), %"struct.std::__1::array.1055"*, i32) local_unnamed_addr #0 align 2 {
  %7 = alloca %"class.sw::SpirvID", align 4
  %8 = alloca %"class.sw::SpirvShader::EmitState", align 8
  %9 = bitcast %"class.sw::SpirvShader::EmitState"* %8 to i8*
  call void @llvm.lifetime.start.p0i8(i64 224, i8* nonnull %9) #15
  call void @llvm.memcpy.p0i8.p0i8.i64(i8* nonnull align 8 %9, i8* align 8 bitcast (%"class.sw::SpirvShader::EmitState"* @__const._ZNK2sw11SpirvShader4emitEPNS_12SpirvRoutineERKN2rr6RValueINS3_4Int4EEES8_RKNSt3__15arrayIPhLm4EEEj.state to i8*), i64 224, i1 false)
  %10 = getelementptr inbounds %"class.sw::SpirvShader", %"class.sw::SpirvShader"* %0, i64 0, i32 19, i32 0
  %11 = load i32, i32* %10, align 8
  %12 = bitcast %"class.rr::RValue.1105"* %2 to i64*
  %13 = load i64, i64* %12, align 8
  %14 = bitcast %"class.rr::RValue.1105"* %3 to i64*
  %15 = load i64, i64* %14, align 8
  %16 = getelementptr inbounds %"class.sw::SpirvShader", %"class.sw::SpirvShader"* %0, i64 0, i32 21
  %17 = load i8, i8* %16, align 1, !range !5
  %18 = getelementptr inbounds %"class.sw::SpirvShader", %"class.sw::SpirvShader"* %0, i64 0, i32 22
  %19 = load i32, i32* %18, align 8
  %20 = getelementptr inbounds %"class.sw::SpirvShader::EmitState", %"class.sw::SpirvShader::EmitState"* %8, i64 0, i32 0
  store %"class.sw::SpirvRoutine"* %1, %"class.sw::SpirvRoutine"** %20, align 8
  %21 = getelementptr inbounds %"class.sw::SpirvShader::EmitState", %"class.sw::SpirvShader::EmitState"* %8, i64 0, i32 1, i32 0
  store i32 %11, i32* %21, align 8
  %22 = getelementptr inbounds %"class.sw::SpirvShader::EmitState", %"class.sw::SpirvShader::EmitState"* %8, i64 0, i32 2, i32 0
  store i32 0, i32* %22, align 4
  %23 = getelementptr inbounds %"class.sw::SpirvShader::EmitState", %"class.sw::SpirvShader::EmitState"* %8, i64 0, i32 3
  %24 = bitcast %"class.rr::Value"** %23 to i64*
  store i64 %13, i64* %24, align 8
  %25 = getelementptr inbounds %"class.sw::SpirvShader::EmitState", %"class.sw::SpirvShader::EmitState"* %8, i64 0, i32 4
  %26 = bitcast %"class.rr::Value"** %25 to i64*
  store i64 %15, i64* %26, align 8
  %27 = getelementptr inbounds %"class.sw::SpirvShader::EmitState", %"class.sw::SpirvShader::EmitState"* %8, i64 0, i32 5
  %28 = getelementptr inbounds %"class.sw::SpirvShader::EmitState", %"class.sw::SpirvShader::EmitState"* %8, i64 0, i32 5, i32 0, i32 3
  %29 = bitcast %"class.std::__1::__compressed_pair.357"* %28 to i32*
  %30 = bitcast %"class.std::__1::unordered_set.337"* %27 to i8*
  call void @llvm.memset.p0i8.i64(i8* align 8 %30, i8 0, i64 32, i1 false) #15
  store i32 1065353216, i32* %29, align 8
  %31 = getelementptr inbounds %"class.sw::SpirvShader::EmitState", %"class.sw::SpirvShader::EmitState"* %8, i64 0, i32 6
  %32 = getelementptr inbounds %"class.sw::SpirvShader::EmitState", %"class.sw::SpirvShader::EmitState"* %8, i64 0, i32 6, i32 0, i32 3
  %33 = bitcast %"class.std::__1::__compressed_pair.1049"* %32 to i32*
  %34 = bitcast %"class.std::__1::unordered_map.1029"* %31 to i8*
  call void @llvm.memset.p0i8.i64(i8* align 8 %34, i8 0, i64 32, i1 false) #15
  store i32 1065353216, i32* %33, align 8
  %35 = getelementptr inbounds %"class.sw::SpirvShader::EmitState", %"class.sw::SpirvShader::EmitState"* %8, i64 0, i32 8
  store %"struct.std::__1::array.1055"* %4, %"struct.std::__1::array.1055"** %35, align 8
  %36 = getelementptr inbounds %"class.sw::SpirvShader::EmitState", %"class.sw::SpirvShader::EmitState"* %8, i64 0, i32 9
  %37 = getelementptr inbounds %"class.sw::SpirvShader::EmitState", %"class.sw::SpirvShader::EmitState"* %8, i64 0, i32 9, i32 0, i32 3
  %38 = bitcast %"class.std::__1::__compressed_pair.1076"* %37 to i32*
  %39 = bitcast %"class.std::__1::unordered_map.1056"* %36 to i8*
  call void @llvm.memset.p0i8.i64(i8* align 8 %39, i8 0, i64 32, i1 false) #15
  store i32 1065353216, i32* %38, align 8
  %40 = getelementptr inbounds %"class.sw::SpirvShader::EmitState", %"class.sw::SpirvShader::EmitState"* %8, i64 0, i32 10
  %41 = getelementptr inbounds %"class.sw::SpirvShader::EmitState", %"class.sw::SpirvShader::EmitState"* %8, i64 0, i32 10, i32 0, i32 3
  %42 = bitcast %"class.std::__1::__compressed_pair.1100"* %41 to i32*
  %43 = bitcast %"class.std::__1::unordered_map.1080"* %40 to i8*
  call void @llvm.memset.p0i8.i64(i8* align 8 %43, i8 0, i64 32, i1 false) #15
  store i32 1065353216, i32* %42, align 8
  %44 = getelementptr inbounds %"class.sw::SpirvShader::EmitState", %"class.sw::SpirvShader::EmitState"* %8, i64 0, i32 11
  store i8 %17, i8* %44, align 8
  %45 = getelementptr inbounds %"class.sw::SpirvShader::EmitState", %"class.sw::SpirvShader::EmitState"* %8, i64 0, i32 13
  store i32 %5, i32* %45, align 4
  %46 = getelementptr inbounds %"class.sw::SpirvShader::EmitState", %"class.sw::SpirvShader::EmitState"* %8, i64 0, i32 14
  store i32 %19, i32* %46, align 8
  call void @_ZNK2sw11SpirvShader12dbgBeginEmitEPNS0_9EmitStateE(%"class.sw::SpirvShader"* %0, %"class.sw::SpirvShader::EmitState"* nonnull %8) #17
  %47 = getelementptr inbounds %"class.sw::SpirvShader", %"class.sw::SpirvShader"* %0, i64 0, i32 0, i32 0, i32 0
  %48 = load i32*, i32** %47, align 8
  %49 = getelementptr inbounds i32, i32* %48, i64 5
  %50 = getelementptr inbounds %"class.sw::SpirvShader", %"class.sw::SpirvShader"* %0, i64 0, i32 0, i32 0, i32 1
  %51 = load i32*, i32** %50, align 8
  %52 = icmp eq i32* %49, %51
  br i1 %52, label %65, label %53

53:                                               ; preds = %6, %58
  %54 = phi i32* [ %63, %58 ], [ %49, %6 ]
  %55 = load i32, i32* %54, align 4
  %56 = and i32 %55, 65535
  %57 = icmp eq i32 %56, 248
  br i1 %57, label %65, label %58

58:                                               ; preds = %53
  %59 = call i32 @_ZNK2sw11SpirvShader15EmitInstructionENS0_12InsnIteratorEPNS0_9EmitStateE(%"class.sw::SpirvShader"* %0, i32* %54, %"class.sw::SpirvShader::EmitState"* nonnull %8) #14
  %60 = load i32, i32* %54, align 4
  %61 = lshr i32 %60, 16
  %62 = zext i32 %61 to i64
  %63 = getelementptr inbounds i32, i32* %54, i64 %62
  %64 = icmp eq i32* %63, %51
  br i1 %64, label %65, label %53

65:                                               ; preds = %53, %58, %6
  %66 = load i32, i32* %10, align 8
  %67 = bitcast %"class.sw::SpirvID"* %7 to i8*
  call void @llvm.lifetime.start.p0i8(i64 4, i8* nonnull %67)
  %68 = getelementptr inbounds %"class.sw::SpirvID", %"class.sw::SpirvID"* %7, i64 0, i32 0
  store i32 %66, i32* %68, align 4
  %69 = getelementptr inbounds %"class.sw::SpirvShader", %"class.sw::SpirvShader"* %0, i64 0, i32 15, i32 0
  %70 = call %"struct.std::__1::__hash_node_base.227"* @_ZNKSt3__112__hash_tableINS_17__hash_value_typeIN2sw7SpirvIDINS2_11SpirvShader8FunctionEEES5_EENS_22__unordered_map_hasherIS6_S7_NS_4hashIS6_EENS_8equal_toIS6_EELb1EEENS_21__unordered_map_equalIS6_S7_SC_SA_Lb1EEENS_9allocatorIS7_EEE4findIS6_EENS_21__hash_const_iteratorIPNS_11__hash_nodeIS7_PvEEEERKT_(%"class.std::__1::__hash_table.223"* %69, %"class.sw::SpirvID"* nonnull dereferenceable(4) %7) #17
  %71 = getelementptr inbounds %"struct.std::__1::__hash_node_base.227", %"struct.std::__1::__hash_node_base.227"* %70, i64 3
  call void @llvm.lifetime.end.p0i8(i64 4, i8* nonnull %67)
  %72 = bitcast %"struct.std::__1::__hash_node_base.227"* %71 to i32*
  %73 = load i32, i32* %72, align 8
  call void @_ZNK2sw11SpirvShader10EmitBlocksENS_7SpirvIDINS0_5BlockEEEPNS0_9EmitStateES3_(%"class.sw::SpirvShader"* %0, i32 %73, %"class.sw::SpirvShader::EmitState"* nonnull %8, i32 0) #17
  call void @_ZNK2sw11SpirvShader10dbgEndEmitEPNS0_9EmitStateE(%"class.sw::SpirvShader"* %0, %"class.sw::SpirvShader::EmitState"* nonnull %8) #17
  %74 = getelementptr inbounds %"class.sw::SpirvShader::EmitState", %"class.sw::SpirvShader::EmitState"* %8, i64 0, i32 10, i32 0
  call void @_ZNSt3__112__hash_tableINS_17__hash_value_typeIN2sw7SpirvIDINS2_11SpirvShader6ObjectEEENS2_4SIMD7PointerEEENS_22__unordered_map_hasherIS6_S9_NS_4hashIS6_EENS_8equal_toIS6_EELb1EEENS_21__unordered_map_equalIS6_S9_SE_SC_Lb1EEENS_9allocatorIS9_EEED2Ev(%"class.std::__1::__hash_table.1081"* %74) #17
  %75 = getelementptr inbounds %"class.sw::SpirvShader::EmitState", %"class.sw::SpirvShader::EmitState"* %8, i64 0, i32 9, i32 0
  call void @_ZNSt3__112__hash_tableINS_17__hash_value_typeIN2sw7SpirvIDINS2_11SpirvShader6ObjectEEENS2_12IntermediateEEENS_22__unordered_map_hasherIS6_S8_NS_4hashIS6_EENS_8equal_toIS6_EELb1EEENS_21__unordered_map_equalIS6_S8_SD_SB_Lb1EEENS_9allocatorIS8_EEED2Ev(%"class.std::__1::__hash_table.1057"* %75) #17
  %76 = getelementptr inbounds %"class.sw::SpirvShader::EmitState", %"class.sw::SpirvShader::EmitState"* %8, i64 0, i32 6, i32 0
  call void @_ZNSt3__112__hash_tableINS_17__hash_value_typeIN2sw11SpirvShader5Block4EdgeEN2rr6RValueINS6_4Int4EEEEENS_22__unordered_map_hasherIS5_SA_NS5_4HashENS_8equal_toIS5_EELb1EEENS_21__unordered_map_equalIS5_SA_SE_SC_Lb1EEENS_9allocatorISA_EEED2Ev(%"class.std::__1::__hash_table.1030"* %76) #17
  %77 = getelementptr inbounds %"class.sw::SpirvShader::EmitState", %"class.sw::SpirvShader::EmitState"* %8, i64 0, i32 5, i32 0
  call void @_ZNSt3__112__hash_tableIN2sw7SpirvIDINS1_11SpirvShader5BlockEEENS_4hashIS5_EENS_8equal_toIS5_EENS_9allocatorIS5_EEED2Ev(%"class.std::__1::__hash_table.338"* %77) #17
  call void @llvm.lifetime.end.p0i8(i64 224, i8* nonnull %9) #15
  ret void
}

; Function Attrs: optsize
declare void @_ZNK2sw11SpirvShader12dbgBeginEmitEPNS0_9EmitStateE(%"class.sw::SpirvShader"*, %"class.sw::SpirvShader::EmitState"*) local_unnamed_addr #1

; Function Attrs: nounwind optsize ssp uwtable
define hidden i32 @_ZNK2sw11SpirvShader15EmitInstructionENS0_12InsnIteratorEPNS0_9EmitStateE(%"class.sw::SpirvShader"*, i32*, %"class.sw::SpirvShader::EmitState"*) local_unnamed_addr #0 align 2 {
  tail call void @_ZNK2sw11SpirvShader23dbgBeginEmitInstructionENS0_12InsnIteratorEPNS0_9EmitStateE(%"class.sw::SpirvShader"* %0, i32* %1, %"class.sw::SpirvShader::EmitState"* %2) #17
  %4 = load i32, i32* %1, align 4
  %5 = trunc i32 %4 to i16
  switch i16 %5, label %126 [
    i16 19, label %129
    i16 21, label %129
    i16 22, label %129
    i16 20, label %129
    i16 23, label %129
    i16 28, label %129
    i16 29, label %129
    i16 24, label %129
    i16 30, label %129
    i16 32, label %129
    i16 33, label %129
    i16 25, label %129
    i16 27, label %129
    i16 26, label %129
    i16 16, label %129
    i16 14, label %129
    i16 54, label %129
    i16 56, label %129
    i16 43, label %129
    i16 46, label %129
    i16 41, label %129
    i16 42, label %129
    i16 44, label %129
    i16 50, label %129
    i16 48, label %129
    i16 49, label %129
    i16 51, label %129
    i16 52, label %129
    i16 1, label %129
    i16 10, label %129
    i16 17, label %129
    i16 15, label %129
    i16 11, label %129
    i16 71, label %129
    i16 72, label %129
    i16 74, label %129
    i16 75, label %129
    i16 73, label %129
    i16 332, label %129
    i16 5632, label %129
    i16 5633, label %129
    i16 5, label %129
    i16 6, label %129
    i16 3, label %129
    i16 2, label %129
    i16 4, label %129
    i16 317, label %129
    i16 330, label %129
    i16 7, label %129
    i16 8, label %6
    i16 248, label %129
    i16 59, label %8
    i16 61, label %10
    i16 227, label %10
    i16 62, label %12
    i16 228, label %12
    i16 234, label %14
    i16 235, label %14
    i16 236, label %14
    i16 238, label %14
    i16 237, label %14
    i16 239, label %14
    i16 240, label %14
    i16 241, label %14
    i16 242, label %14
    i16 232, label %14
    i16 233, label %14
    i16 229, label %14
    i16 230, label %16
    i16 65, label %18
    i16 66, label %18
    i16 80, label %20
    i16 82, label %22
    i16 81, label %24
    i16 79, label %26
    i16 77, label %28
    i16 78, label %30
    i16 142, label %32
    i16 143, label %32
    i16 145, label %34
    i16 144, label %36
    i16 146, label %38
    i16 147, label %40
    i16 84, label %42
    i16 200, label %44
    i16 201, label %44
    i16 202, label %44
    i16 203, label %44
    i16 204, label %44
    i16 205, label %44
    i16 126, label %44
    i16 127, label %44
    i16 168, label %44
    i16 109, label %44
    i16 110, label %44
    i16 111, label %44
    i16 112, label %44
    i16 124, label %44
    i16 157, label %44
    i16 156, label %44
    i16 207, label %44
    i16 213, label %44
    i16 208, label %44
    i16 214, label %44
    i16 209, label %44
    i16 215, label %44
    i16 210, label %44
    i16 211, label %44
    i16 212, label %44
    i16 116, label %44
    i16 128, label %46
    i16 130, label %46
    i16 132, label %46
    i16 135, label %46
    i16 134, label %46
    i16 129, label %46
    i16 131, label %46
    i16 133, label %46
    i16 136, label %46
    i16 141, label %46
    i16 140, label %46
    i16 180, label %46
    i16 181, label %46
    i16 182, label %46
    i16 183, label %46
    i16 184, label %46
    i16 185, label %46
    i16 186, label %46
    i16 187, label %46
    i16 188, label %46
    i16 189, label %46
    i16 190, label %46
    i16 191, label %46
    i16 139, label %46
    i16 138, label %46
    i16 137, label %46
    i16 170, label %46
    i16 171, label %46
    i16 172, label %46
    i16 173, label %46
    i16 174, label %46
    i16 175, label %46
    i16 176, label %46
    i16 177, label %46
    i16 178, label %46
    i16 179, label %46
    i16 194, label %46
    i16 195, label %46
    i16 196, label %46
    i16 197, label %46
    i16 198, label %46
    i16 199, label %46
    i16 166, label %46
    i16 167, label %46
    i16 164, label %46
    i16 165, label %46
    i16 151, label %46
    i16 152, label %46
    i16 149, label %46
    i16 150, label %46
    i16 148, label %48
    i16 169, label %50
    i16 12, label %52
    i16 154, label %54
    i16 155, label %56
    i16 249, label %58
    i16 245, label %60
    i16 247, label %129
    i16 246, label %129
    i16 250, label %62
    i16 251, label %64
    i16 255, label %66
    i16 253, label %68
    i16 57, label %70
    i16 252, label %72
    i16 87, label %74
    i16 88, label %76
    i16 89, label %78
    i16 90, label %80
    i16 91, label %82
    i16 92, label %84
    i16 93, label %86
    i16 94, label %88
    i16 96, label %90
    i16 97, label %92
    i16 95, label %94
    i16 103, label %96
    i16 104, label %98
    i16 105, label %100
    i16 106, label %102
    i16 107, label %104
    i16 98, label %106
    i16 99, label %108
    i16 60, label %110
    i16 86, label %112
    i16 100, label %112
    i16 83, label %114
    i16 400, label %114
    i16 63, label %116
    i16 224, label %118
    i16 225, label %120
    i16 333, label %122
    i16 334, label %122
    i16 335, label %122
    i16 336, label %122
    i16 337, label %122
    i16 338, label %122
    i16 339, label %122
    i16 340, label %122
    i16 341, label %122
    i16 342, label %122
    i16 343, label %122
    i16 344, label %122
    i16 345, label %122
    i16 346, label %122
    i16 347, label %122
    i16 348, label %122
    i16 349, label %122
    i16 350, label %122
    i16 351, label %122
    i16 352, label %122
    i16 353, label %122
    i16 354, label %122
    i16 355, label %122
    i16 356, label %122
    i16 357, label %122
    i16 358, label %122
    i16 359, label %122
    i16 360, label %122
    i16 361, label %122
    i16 362, label %122
    i16 363, label %122
    i16 364, label %122
    i16 68, label %124
  ]

6:                                                ; preds = %3
  %7 = tail call i32 @_ZNK2sw11SpirvShader8EmitLineENS0_12InsnIteratorEPNS0_9EmitStateE(%"class.sw::SpirvShader"* %0, i32* %1, %"class.sw::SpirvShader::EmitState"* %2) #17
  br label %129

8:                                                ; preds = %3
  %9 = tail call i32 @_ZNK2sw11SpirvShader12EmitVariableENS0_12InsnIteratorEPNS0_9EmitStateE(%"class.sw::SpirvShader"* %0, i32* %1, %"class.sw::SpirvShader::EmitState"* %2) #17
  br label %129

10:                                               ; preds = %3, %3
  %11 = tail call i32 @_ZNK2sw11SpirvShader8EmitLoadENS0_12InsnIteratorEPNS0_9EmitStateE(%"class.sw::SpirvShader"* %0, i32* %1, %"class.sw::SpirvShader::EmitState"* %2) #17
  br label %129

12:                                               ; preds = %3, %3
  %13 = tail call i32 @_ZNK2sw11SpirvShader9EmitStoreENS0_12InsnIteratorEPNS0_9EmitStateE(%"class.sw::SpirvShader"* %0, i32* %1, %"class.sw::SpirvShader::EmitState"* %2) #17
  br label %129

14:                                               ; preds = %3, %3, %3, %3, %3, %3, %3, %3, %3, %3, %3, %3
  %15 = tail call i32 @_ZNK2sw11SpirvShader12EmitAtomicOpENS0_12InsnIteratorEPNS0_9EmitStateE(%"class.sw::SpirvShader"* %0, i32* %1, %"class.sw::SpirvShader::EmitState"* %2) #14
  br label %129

16:                                               ; preds = %3
  %17 = tail call i32 @_ZNK2sw11SpirvShader25EmitAtomicCompareExchangeENS0_12InsnIteratorEPNS0_9EmitStateE(%"class.sw::SpirvShader"* %0, i32* %1, %"class.sw::SpirvShader::EmitState"* %2) #14
  br label %129

18:                                               ; preds = %3, %3
  %19 = tail call i32 @_ZNK2sw11SpirvShader15EmitAccessChainENS0_12InsnIteratorEPNS0_9EmitStateE(%"class.sw::SpirvShader"* %0, i32* %1, %"class.sw::SpirvShader::EmitState"* %2) #14
  br label %129

20:                                               ; preds = %3
  %21 = tail call i32 @_ZNK2sw11SpirvShader22EmitCompositeConstructENS0_12InsnIteratorEPNS0_9EmitStateE(%"class.sw::SpirvShader"* %0, i32* %1, %"class.sw::SpirvShader::EmitState"* %2) #14
  br label %129

22:                                               ; preds = %3
  %23 = tail call i32 @_ZNK2sw11SpirvShader19EmitCompositeInsertENS0_12InsnIteratorEPNS0_9EmitStateE(%"class.sw::SpirvShader"* %0, i32* %1, %"class.sw::SpirvShader::EmitState"* %2) #14
  br label %129

24:                                               ; preds = %3
  %25 = tail call i32 @_ZNK2sw11SpirvShader20EmitCompositeExtractENS0_12InsnIteratorEPNS0_9EmitStateE(%"class.sw::SpirvShader"* %0, i32* %1, %"class.sw::SpirvShader::EmitState"* %2) #14
  br label %129

26:                                               ; preds = %3
  %27 = tail call i32 @_ZNK2sw11SpirvShader17EmitVectorShuffleENS0_12InsnIteratorEPNS0_9EmitStateE(%"class.sw::SpirvShader"* %0, i32* %1, %"class.sw::SpirvShader::EmitState"* %2) #14
  br label %129

28:                                               ; preds = %3
  %29 = tail call i32 @_ZNK2sw11SpirvShader24EmitVectorExtractDynamicENS0_12InsnIteratorEPNS0_9EmitStateE(%"class.sw::SpirvShader"* %0, i32* %1, %"class.sw::SpirvShader::EmitState"* %2) #14
  br label %129

