; ModuleID = '../../third_party/blink/renderer/core/css/style_rule_keyframe.cc'
source_filename = "../../third_party/blink/renderer/core/css/style_rule_keyframe.cc"
target datalayout = "e-m:e-i64:64-f80:128-n8:16:32:64-S128"
target triple = "x86_64-unknown-linux-gnu"

module asm ".symver exp, exp@GLIBC_2.2.5"
module asm ".symver exp2, exp2@GLIBC_2.2.5"
module asm ".symver exp2f, exp2f@GLIBC_2.2.5"
module asm ".symver expf, expf@GLIBC_2.2.5"
module asm ".symver lgamma, lgamma@GLIBC_2.2.5"
module asm ".symver lgammaf, lgammaf@GLIBC_2.2.5"
module asm ".symver lgammal, lgammal@GLIBC_2.2.5"
module asm ".symver log, log@GLIBC_2.2.5"
module asm ".symver log2, log2@GLIBC_2.2.5"
module asm ".symver log2f, log2f@GLIBC_2.2.5"
module asm ".symver logf, logf@GLIBC_2.2.5"
module asm ".symver pow, pow@GLIBC_2.2.5"
module asm ".symver powf, powf@GLIBC_2.2.5"

%"class.WTF::StringImpl" = type { i32, i32, %"struct.std::__1::atomic" }
%"struct.std::__1::atomic" = type { %"struct.std::__1::__atomic_base" }
%"struct.std::__1::__atomic_base" = type { %"struct.std::__1::__atomic_base.3" }
%"struct.std::__1::__atomic_base.3" = type { %"struct.std::__1::__cxx_atomic_impl" }
%"struct.std::__1::__cxx_atomic_impl" = type { %"struct.std::__1::__cxx_atomic_base_impl" }
%"struct.std::__1::__cxx_atomic_base_impl" = type { i32 }
%"class.blink::AtomicEntryFlag" = type { %"struct.std::__1::atomic.309" }
%"struct.std::__1::atomic.309" = type { %"struct.std::__1::__atomic_base.310" }
%"struct.std::__1::__atomic_base.310" = type { %"struct.std::__1::__atomic_base.311" }
%"struct.std::__1::__atomic_base.311" = type { %"struct.std::__1::__cxx_atomic_impl.312" }
%"struct.std::__1::__cxx_atomic_impl.312" = type { %"struct.std::__1::__cxx_atomic_base_impl.313" }
%"struct.std::__1::__cxx_atomic_base_impl.313" = type { i32 }
%"class.blink::StyleRuleKeyframe" = type { %"class.blink::StyleRuleBase", %"class.blink::Member", %"class.WTF::Vector" }
%"class.blink::StyleRuleBase" = type { i8 }
%"class.blink::Member" = type { %"class.blink::MemberBase" }
%"class.blink::MemberBase" = type { %"class.blink::CSSPropertyValueSet"* }
%"class.WTF::Vector" = type { %"class.WTF::VectorBuffer" }
%"class.WTF::VectorBuffer" = type { %"class.WTF::VectorBufferBase" }
%"class.WTF::VectorBufferBase" = type { double*, i32, i32 }
%"class.blink::CSSPropertyValueSet" = type { i32 }
%"class.WTF::StringBuilder" = type <{ %"class.WTF::String", %union.anon, i32, i8, i8, [2 x i8] }>
%"class.WTF::String" = type { %class.scoped_refptr }
%class.scoped_refptr = type { %"class.WTF::StringImpl"* }
%union.anon = type { %"class.WTF::Vector.4" }
%"class.WTF::Vector.4" = type { %"class.WTF::VectorBuffer.5" }
%"class.WTF::VectorBuffer.5" = type { %"class.WTF::VectorBufferBase.6", [16 x i8] }
%"class.WTF::VectorBufferBase.6" = type { i8*, i32, i32 }
%"class.WTF::StringView" = type <{ %"class.WTF::StringImpl"*, i8*, i32, [4 x i8] }>
%"class.logging::CheckOpResult" = type { i8* }
%"class.logging::CheckError" = type { %"class.logging::LogMessage"* }
%"class.logging::LogMessage" = type { i32 (...)**, i32, %"class.std::__1::basic_ostringstream", i64, i8*, i32, %"class.base::ScopedClearLastErrorBase" }
%"class.std::__1::basic_ostringstream" = type { %"class.std::__1::basic_ostream.base", %"class.std::__1::basic_stringbuf", %"class.std::__1::basic_ios.base" }
%"class.std::__1::basic_ostream.base" = type { i32 (...)** }
%"class.std::__1::basic_stringbuf" = type <{ %"class.std::__1::basic_streambuf", %"class.std::__1::basic_string", i8*, i32, [4 x i8] }>
%"class.std::__1::basic_streambuf" = type { i32 (...)**, %"class.std::__1::locale", i8*, i8*, i8*, i8*, i8*, i8* }
%"class.std::__1::locale" = type { %"class.std::__1::locale::__imp"* }
%"class.std::__1::locale::__imp" = type opaque
%"class.std::__1::basic_string" = type { %"class.std::__1::__compressed_pair.287" }
%"class.std::__1::__compressed_pair.287" = type { %"struct.std::__1::__compressed_pair_elem.288" }
%"struct.std::__1::__compressed_pair_elem.288" = type { %"struct.std::__1::basic_string<char, std::__1::char_traits<char>, std::__1::allocator<char> >::__rep" }
%"struct.std::__1::basic_string<char, std::__1::char_traits<char>, std::__1::allocator<char> >::__rep" = type { %union.anon.289 }
%union.anon.289 = type { %"struct.std::__1::basic_string<char, std::__1::char_traits<char>, std::__1::allocator<char> >::__long" }
%"struct.std::__1::basic_string<char, std::__1::char_traits<char>, std::__1::allocator<char> >::__long" = type { i8*, i64, i64 }
%"class.std::__1::basic_ios.base" = type <{ %"class.std::__1::ios_base", %"class.std::__1::basic_ostream"*, i32 }>
%"class.std::__1::ios_base" = type { i32 (...)**, i32, i64, i64, i32, i32, i8*, i8*, void (i32, %"class.std::__1::ios_base"*, i32)**, i32*, i64, i64, i64*, i64, i64, i8**, i64, i64 }
%"class.std::__1::basic_ostream" = type { i32 (...)**, %"class.std::__1::basic_ios.base" }
%"class.base::ScopedClearLastErrorBase" = type { i32 }
%"class.blink::MutableCSSPropertyValueSet" = type <{ %"class.blink::CSSPropertyValueSet", [4 x i8], %"class.blink::Member.14", %"class.blink::HeapVector", i8, [7 x i8] }>
%"class.blink::Member.14" = type { %"class.blink::MemberBase.15" }
%"class.blink::MemberBase.15" = type { %"class.blink::PropertySetCSSStyleDeclaration"* }
%"class.blink::PropertySetCSSStyleDeclaration" = type { %"class.blink::AbstractPropertySetCSSStyleDeclaration", %"class.blink::Member.19" }
%"class.blink::AbstractPropertySetCSSStyleDeclaration" = type { %"class.blink::CSSStyleDeclaration" }
%"class.blink::CSSStyleDeclaration" = type { %"class.blink::ScriptWrappable", %"class.blink::ExecutionContextClient" }
%"class.blink::ScriptWrappable" = type { %"class.blink::NameClient", %"class.blink::TraceWrapperV8Reference" }
%"class.blink::NameClient" = type { i32 (...)** }
%"class.blink::TraceWrapperV8Reference" = type { %"class.v8::TracedReference" }
%"class.v8::TracedReference" = type { %"class.v8::BasicTracedReference" }
%"class.v8::BasicTracedReference" = type { %"class.v8::TracedReferenceBase" }
%"class.v8::TracedReferenceBase" = type { i64* }
%"class.blink::ExecutionContextClient" = type { %"class.blink::GarbageCollectedMixin", %"class.blink::WeakMember" }
%"class.blink::GarbageCollectedMixin" = type { i32 (...)** }
%"class.blink::WeakMember" = type { %"class.blink::MemberBase.18" }
%"class.blink::MemberBase.18" = type { %"class.blink::ExecutionContext"* }
%"class.blink::ExecutionContext" = type <{ %"class.blink::Supplementable", %"class.blink::MojoBindingContext", %"class.blink::ConsoleLogger", %"class.blink::UseCounter", %"class.blink::FeatureContext", %"class.v8::Isolate"*, %"class.blink::SecurityContext", %"class.blink::Member.66", i32, i8, [3 x i8], %"class.blink::HeapVector.68", i32, i8, i8, i8, i8, i8, i8, [6 x i8], %"class.blink::Member.76", %"class.blink::Member.78", %"class.blink::DOMTimerCoordinator", i32, [4 x i8], %"class.std::__1::unique_ptr.87", %"class.blink::Member.93", %"class.blink::Member.95", i8, [7 x i8] }>
%"class.blink::Supplementable" = type { %"class.blink::GarbageCollectedMixin", %"class.blink::HeapHashMap" }
%"class.blink::HeapHashMap" = type { %"class.WTF::HashMap" }
%"class.WTF::HashMap" = type { %"class.WTF::HashTable" }
%"class.WTF::HashTable" = type <{ %"struct.WTF::KeyValuePair"*, i32, i32, i32, [4 x i8] }>
%"struct.WTF::KeyValuePair" = type opaque
%"class.blink::MojoBindingContext" = type { %"class.blink::ContextLifecycleNotifier", %"class.blink::Supplementable.40" }
%"class.blink::ContextLifecycleNotifier" = type { %"class.blink::GarbageCollectedMixin", %"class.blink::HeapObserverSet" }
%"class.blink::HeapObserverSet" = type { i32, [4 x i8], %"class.blink::HeapHashSet" }
%"class.blink::HeapHashSet" = type { %"class.WTF::HashSet" }
%"class.WTF::HashSet" = type { %"class.WTF::HashTable.37" }
%"class.WTF::HashTable.37" = type <{ %"class.blink::WeakMember.39"*, i32, i32, i32, [4 x i8] }>
%"class.blink::WeakMember.39" = type opaque
%"class.blink::Supplementable.40" = type { %"class.blink::GarbageCollectedMixin", %"class.blink::HeapHashMap.41" }
%"class.blink::HeapHashMap.41" = type { %"class.WTF::HashMap.44" }
%"class.WTF::HashMap.44" = type { %"class.WTF::HashTable.45" }
%"class.WTF::HashTable.45" = type <{ %"struct.WTF::KeyValuePair.47"*, i32, i32, i32, [4 x i8] }>
%"struct.WTF::KeyValuePair.47" = type { i8*, %"class.blink::Member.283" }
%"class.blink::Member.283" = type { %"class.blink::MemberBase.284" }
%"class.blink::MemberBase.284" = type { %"class.blink::Supplement"* }
%"class.blink::Supplement" = type { %"class.blink::GarbageCollectedMixin", %"class.blink::Member.285" }
%"class.blink::Member.285" = type { %"class.blink::MemberBase.286" }
%"class.blink::MemberBase.286" = type { %"class.blink::MojoBindingContext"* }
%"class.blink::ConsoleLogger" = type { %"class.blink::GarbageCollectedMixin" }
%"class.blink::UseCounter" = type { %"class.blink::GarbageCollectedMixin" }
%"class.blink::FeatureContext" = type { i32 (...)** }
%"class.v8::Isolate" = type { i8 }
%"class.blink::SecurityContext" = type { i32 (...)**, i32, %class.scoped_refptr.48, %"class.std::__1::unique_ptr.49", %"class.std::__1::unique_ptr.49", %"class.std::__1::unique_ptr.55", %"class.std::__1::unique_ptr.55", %"class.blink::Member.61", i32, [4 x i8], %"class.WTF::HashSet.62", i32, i32 }
%class.scoped_refptr.48 = type { %"class.blink::SecurityOrigin"* }
%"class.blink::SecurityOrigin" = type opaque
%"class.std::__1::unique_ptr.49" = type { %"class.std::__1::__compressed_pair.50" }
%"class.std::__1::__compressed_pair.50" = type { %"struct.std::__1::__compressed_pair_elem.51" }
%"struct.std::__1::__compressed_pair_elem.51" = type { %"class.blink::PermissionsPolicy"* }
%"class.blink::PermissionsPolicy" = type opaque
%"class.std::__1::unique_ptr.55" = type { %"class.std::__1::__compressed_pair.56" }
%"class.std::__1::__compressed_pair.56" = type { %"struct.std::__1::__compressed_pair_elem.57" }
%"struct.std::__1::__compressed_pair_elem.57" = type { %"class.blink::DocumentPolicy"* }
%"class.blink::DocumentPolicy" = type opaque
%"class.blink::Member.61" = type { %"class.blink::MemberBase.18" }
%"class.WTF::HashSet.62" = type { %"class.WTF::HashTable.63" }
%"class.WTF::HashTable.63" = type <{ i32*, i32, i32, i32, [4 x i8] }>
%"class.blink::Member.66" = type { %"class.blink::MemberBase.67" }
%"class.blink::MemberBase.67" = type { %"class.blink::Agent"* }
%"class.blink::Agent" = type opaque
%"class.blink::HeapVector.68" = type { %"class.WTF::Vector.71" }
%"class.WTF::Vector.71" = type { %"class.WTF::VectorBuffer.72" }
%"class.WTF::VectorBuffer.72" = type { %"class.WTF::VectorBufferBase.73" }
%"class.WTF::VectorBufferBase.73" = type { %"class.blink::Member.74"*, i32, i32 }
%"class.blink::Member.74" = type opaque
%"class.blink::Member.76" = type { %"class.blink::MemberBase.77" }
%"class.blink::MemberBase.77" = type { %"class.blink::PublicURLManager"* }
%"class.blink::PublicURLManager" = type opaque
%"class.blink::Member.78" = type { %"class.blink::MemberBase.79" }
%"class.blink::MemberBase.79" = type { %"class.blink::ContentSecurityPolicyDelegate"* }
%"class.blink::ContentSecurityPolicyDelegate" = type opaque
%"class.blink::DOMTimerCoordinator" = type { %"class.blink::HeapHashMap.80", i32, i32 }
%"class.blink::HeapHashMap.80" = type { %"class.WTF::HashMap.83" }
%"class.WTF::HashMap.83" = type { %"class.WTF::HashTable.84" }
%"class.WTF::HashTable.84" = type <{ %"struct.WTF::KeyValuePair.86"*, i32, i32, i32, [4 x i8] }>
%"struct.WTF::KeyValuePair.86" = type opaque
%"class.std::__1::unique_ptr.87" = type { %"class.std::__1::__compressed_pair.88" }
%"class.std::__1::__compressed_pair.88" = type { %"struct.std::__1::__compressed_pair_elem.89" }
%"struct.std::__1::__compressed_pair_elem.89" = type { %"class.blink::PolicyContainer"* }
%"class.blink::PolicyContainer" = type opaque
%"class.blink::Member.93" = type { %"class.blink::MemberBase.94" }
%"class.blink::MemberBase.94" = type { %"class.blink::OriginTrialContext"* }
%"class.blink::OriginTrialContext" = type opaque
%"class.blink::Member.95" = type { %"class.blink::MemberBase.96" }
%"class.blink::MemberBase.96" = type { %"class.blink::ContentSecurityPolicy"* }
%"class.blink::ContentSecurityPolicy" = type opaque
%"class.blink::Member.19" = type { %"class.blink::MemberBase.20" }
%"class.blink::MemberBase.20" = type { %"class.blink::MutableCSSPropertyValueSet"* }
%"class.blink::HeapVector" = type { %"class.WTF::Vector.23" }
%"class.WTF::Vector.23" = type { %"class.WTF::VectorBuffer.24" }
%"class.WTF::VectorBuffer.24" = type { %"class.WTF::VectorBufferBase.25", [96 x i8] }
%"class.WTF::VectorBufferBase.25" = type { %"class.blink::CSSPropertyValue"*, i32, i32 }
%"class.blink::CSSPropertyValue" = type { %"struct.blink::CSSPropertyValueMetadata", %"class.blink::Member.26" }
%"struct.blink::CSSPropertyValueMetadata" = type <{ %"class.WTF::AtomicString", i16, [6 x i8] }>
%"class.WTF::AtomicString" = type { %"class.WTF::String" }
%"class.blink::Member.26" = type { %"class.blink::MemberBase.27" }
%"class.blink::MemberBase.27" = type { %"class.blink::CSSValue"* }
%"class.blink::CSSValue" = type { i8, i8, i8 }
%"class.blink::Visitor" = type { i32 (...)**, %"class.blink::ThreadState"* }
%"class.blink::ThreadState" = type <{ %"class.std::__1::unique_ptr.97", i32, [4 x i8], %"class.std::__1::unique_ptr.233", %"class.std::__1::unique_ptr.233", i8**, i8, i8, i8, i8, i8, i8, [2 x i8], i64, i64, i32, i32, i32, [4 x i8], %"class.WTF::Deque", %"class.v8::Isolate"*, void (%"class.v8::Isolate"*, %"class.v8::EmbedderGraph"*, i8*)*, %"class.std::__1::unique_ptr.243", %"class.std::__1::unique_ptr.249", %"struct.blink::ThreadState::GCData", %"class.std::__1::unique_ptr.261", %"class.std::__1::unique_ptr.267", %"class.base::JobHandle", %"class.base::JobHandle", %"struct.std::__1::atomic.274", [7 x i8], i64, i8, [7 x i8], i64, %"class.base::TimeTicks", i8, i8, [6 x i8] }>
%"class.std::__1::unique_ptr.97" = type { %"class.std::__1::__compressed_pair.98" }
%"class.std::__1::__compressed_pair.98" = type { %"struct.std::__1::__compressed_pair_elem.99" }
%"struct.std::__1::__compressed_pair_elem.99" = type { %"class.blink::ThreadHeap"* }
%"class.blink::ThreadHeap" = type { %"class.blink::ThreadState"*, %"class.std::__1::unique_ptr.100", %"class.std::__1::unique_ptr.106", %"class.std::__1::unique_ptr.112", %"class.std::__1::unique_ptr.118", %"class.std::__1::unique_ptr.124", %"class.std::__1::unique_ptr.130", %"class.std::__1::unique_ptr.141", %"class.std::__1::unique_ptr.148", %"class.std::__1::unique_ptr.148", %"class.std::__1::unique_ptr.155", %"class.std::__1::unique_ptr.162", %"class.std::__1::unique_ptr.169", %"class.std::__1::unique_ptr.169", %"class.std::__1::unique_ptr.176", %"class.std::__1::unique_ptr.183", %"class.std::__1::unique_ptr.190", %"class.std::__1::unique_ptr.213", %"struct.blink::ThreadHeap::LastAllocatedRegion", [9 x %"class.blink::BaseArena"*], i64, i64 }
%"class.std::__1::unique_ptr.100" = type { %"class.std::__1::__compressed_pair.101" }
%"class.std::__1::__compressed_pair.101" = type { %"struct.std::__1::__compressed_pair_elem.102" }
%"struct.std::__1::__compressed_pair_elem.102" = type { %"class.blink::ThreadHeapStatsCollector"* }
%"class.blink::ThreadHeapStatsCollector" = type opaque
%"class.std::__1::unique_ptr.106" = type { %"class.std::__1::__compressed_pair.107" }
%"class.std::__1::__compressed_pair.107" = type { %"struct.std::__1::__compressed_pair_elem.108" }
%"struct.std::__1::__compressed_pair_elem.108" = type { %"class.blink::RegionTree"* }
%"class.blink::RegionTree" = type opaque
%"class.std::__1::unique_ptr.112" = type { %"class.std::__1::__compressed_pair.113" }
%"class.std::__1::__compressed_pair.113" = type { %"struct.std::__1::__compressed_pair_elem.114" }
%"struct.std::__1::__compressed_pair_elem.114" = type { %"class.blink::PageBloomFilter"* }
%"class.blink::PageBloomFilter" = type opaque
%"class.std::__1::unique_ptr.118" = type { %"class.std::__1::__compressed_pair.119" }
%"class.std::__1::__compressed_pair.119" = type { %"struct.std::__1::__compressed_pair_elem.120" }
%"struct.std::__1::__compressed_pair_elem.120" = type { %"class.blink::PagePool"* }
%"class.blink::PagePool" = type opaque
%"class.std::__1::unique_ptr.124" = type { %"class.std::__1::__compressed_pair.125" }
%"class.std::__1::__compressed_pair.125" = type { %"struct.std::__1::__compressed_pair_elem.126" }
%"struct.std::__1::__compressed_pair_elem.126" = type { %"class.blink::ProcessHeapReporter"* }
%"class.blink::ProcessHeapReporter" = type opaque
%"class.std::__1::unique_ptr.130" = type { %"class.std::__1::__compressed_pair.131" }
%"class.std::__1::__compressed_pair.131" = type { %"struct.std::__1::__compressed_pair_elem.132" }
%"struct.std::__1::__compressed_pair_elem.132" = type { %"class.blink::Worklist"* }
%"class.blink::Worklist" = type { [4 x %"struct.blink::Worklist<blink::TraceDescriptor, 512, 4>::PrivateSegmentHolder"], %"class.blink::Worklist<blink::TraceDescriptor, 512, 4>::GlobalPool" }
%"struct.blink::Worklist<blink::TraceDescriptor, 512, 4>::PrivateSegmentHolder" = type { %"class.blink::Worklist<blink::TraceDescriptor, 512, 4>::Segment"*, %"class.blink::Worklist<blink::TraceDescriptor, 512, 4>::Segment"*, [64 x i8] }
%"class.blink::Worklist<blink::TraceDescriptor, 512, 4>::Segment" = type { %"class.blink::Worklist<blink::TraceDescriptor, 512, 4>::Segment"*, i64, [512 x %"struct.blink::TraceDescriptor"] }
%"struct.blink::TraceDescriptor" = type { i8*, void (%"class.blink::Visitor"*, i8*)* }
%"class.blink::Worklist<blink::TraceDescriptor, 512, 4>::GlobalPool" = type { %"class.base::Lock", %"class.blink::Worklist<blink::TraceDescriptor, 512, 4>::Segment"*, %"struct.std::__1::atomic.133" }
%"class.base::Lock" = type { %"class.base::internal::LockImpl" }
%"class.base::internal::LockImpl" = type { %union.pthread_mutex_t }
%union.pthread_mutex_t = type { %struct.__pthread_mutex_s }
%struct.__pthread_mutex_s = type { i32, i32, i32, i32, i32, i16, i16, %struct.__pthread_internal_list }
%struct.__pthread_internal_list = type { %struct.__pthread_internal_list*, %struct.__pthread_internal_list* }
%"struct.std::__1::atomic.133" = type { %"struct.std::__1::__atomic_base.134" }
%"struct.std::__1::__atomic_base.134" = type { %"struct.std::__1::__atomic_base.135" }
%"struct.std::__1::__atomic_base.135" = type { %"struct.std::__1::__cxx_atomic_impl.136" }
%"struct.std::__1::__cxx_atomic_impl.136" = type { %"struct.std::__1::__cxx_atomic_base_impl.137" }
%"struct.std::__1::__cxx_atomic_base_impl.137" = type { i64 }
%"class.std::__1::unique_ptr.141" = type { %"class.std::__1::__compressed_pair.142" }
%"class.std::__1::__compressed_pair.142" = type { %"struct.std::__1::__compressed_pair_elem.143" }
%"struct.std::__1::__compressed_pair_elem.143" = type { %"class.blink::Worklist.144"* }
%"class.blink::Worklist.144" = type { [4 x %"struct.blink::Worklist<blink::HeapObjectHeader *, 64, 4>::PrivateSegmentHolder"], %"class.blink::Worklist<blink::HeapObjectHeader *, 64, 4>::GlobalPool" }
%"struct.blink::Worklist<blink::HeapObjectHeader *, 64, 4>::PrivateSegmentHolder" = type { %"class.blink::Worklist<blink::HeapObjectHeader *, 64, 4>::Segment"*, %"class.blink::Worklist<blink::HeapObjectHeader *, 64, 4>::Segment"*, [64 x i8] }
%"class.blink::Worklist<blink::HeapObjectHeader *, 64, 4>::Segment" = type opaque
%"class.blink::Worklist<blink::HeapObjectHeader *, 64, 4>::GlobalPool" = type { %"class.base::Lock", %"class.blink::Worklist<blink::HeapObjectHeader *, 64, 4>::Segment"*, %"struct.std::__1::atomic.133" }
%"class.std::__1::unique_ptr.148" = type { %"class.std::__1::__compressed_pair.149" }
%"class.std::__1::__compressed_pair.149" = type { %"struct.std::__1::__compressed_pair_elem.150" }
%"struct.std::__1::__compressed_pair_elem.150" = type { %"class.blink::Worklist.151"* }
%"class.blink::Worklist.151" = type { [4 x %"struct.blink::Worklist<const void *, 16, 4>::PrivateSegmentHolder"], %"class.blink::Worklist<const void *, 16, 4>::GlobalPool" }
%"struct.blink::Worklist<const void *, 16, 4>::PrivateSegmentHolder" = type { %"class.blink::Worklist<const void *, 16, 4>::Segment"*, %"class.blink::Worklist<const void *, 16, 4>::Segment"*, [64 x i8] }
%"class.blink::Worklist<const void *, 16, 4>::Segment" = type { %"class.blink::Worklist<const void *, 16, 4>::Segment"*, i64, [16 x i8*] }
%"class.blink::Worklist<const void *, 16, 4>::GlobalPool" = type { %"class.base::Lock", %"class.blink::Worklist<const void *, 16, 4>::Segment"*, %"struct.std::__1::atomic.133" }
%"class.std::__1::unique_ptr.155" = type { %"class.std::__1::__compressed_pair.156" }
%"class.std::__1::__compressed_pair.156" = type { %"struct.std::__1::__compressed_pair_elem.157" }
%"struct.std::__1::__compressed_pair_elem.157" = type { %"class.blink::Worklist.158"* }
%"class.blink::Worklist.158" = type { [4 x %"struct.blink::Worklist<blink::CustomCallbackItem, 64, 4>::PrivateSegmentHolder"], %"class.blink::Worklist<blink::CustomCallbackItem, 64, 4>::GlobalPool" }
%"struct.blink::Worklist<blink::CustomCallbackItem, 64, 4>::PrivateSegmentHolder" = type { %"class.blink::Worklist<blink::CustomCallbackItem, 64, 4>::Segment"*, %"class.blink::Worklist<blink::CustomCallbackItem, 64, 4>::Segment"*, [64 x i8] }
%"class.blink::Worklist<blink::CustomCallbackItem, 64, 4>::Segment" = type opaque
%"class.blink::Worklist<blink::CustomCallbackItem, 64, 4>::GlobalPool" = type { %"class.base::Lock", %"class.blink::Worklist<blink::CustomCallbackItem, 64, 4>::Segment"*, %"struct.std::__1::atomic.133" }
%"class.std::__1::unique_ptr.162" = type { %"class.std::__1::__compressed_pair.163" }
%"class.std::__1::__compressed_pair.163" = type { %"struct.std::__1::__compressed_pair_elem.164" }
%"struct.std::__1::__compressed_pair_elem.164" = type { %"class.blink::Worklist.165"* }
%"class.blink::Worklist.165" = type { [4 x %"struct.blink::Worklist<const void *const *, 256, 4>::PrivateSegmentHolder"], %"class.blink::Worklist<const void *const *, 256, 4>::GlobalPool" }
%"struct.blink::Worklist<const void *const *, 256, 4>::PrivateSegmentHolder" = type { %"class.blink::Worklist<const void *const *, 256, 4>::Segment"*, %"class.blink::Worklist<const void *const *, 256, 4>::Segment"*, [64 x i8] }
%"class.blink::Worklist<const void *const *, 256, 4>::Segment" = type opaque
%"class.blink::Worklist<const void *const *, 256, 4>::GlobalPool" = type { %"class.base::Lock", %"class.blink::Worklist<const void *const *, 256, 4>::Segment"*, %"struct.std::__1::atomic.133" }
%"class.std::__1::unique_ptr.169" = type { %"class.std::__1::__compressed_pair.170" }
%"class.std::__1::__compressed_pair.170" = type { %"struct.std::__1::__compressed_pair_elem.171" }
%"struct.std::__1::__compressed_pair_elem.171" = type { %"class.blink::Worklist.172"* }
%"class.blink::Worklist.172" = type { [4 x %"struct.blink::Worklist<blink::EphemeronPairItem, 64, 4>::PrivateSegmentHolder"], %"class.blink::Worklist<blink::EphemeronPairItem, 64, 4>::GlobalPool" }
%"struct.blink::Worklist<blink::EphemeronPairItem, 64, 4>::PrivateSegmentHolder" = type { %"class.blink::Worklist<blink::EphemeronPairItem, 64, 4>::Segment"*, %"class.blink::Worklist<blink::EphemeronPairItem, 64, 4>::Segment"*, [64 x i8] }
%"class.blink::Worklist<blink::EphemeronPairItem, 64, 4>::Segment" = type opaque
%"class.blink::Worklist<blink::EphemeronPairItem, 64, 4>::GlobalPool" = type { %"class.base::Lock", %"class.blink::Worklist<blink::EphemeronPairItem, 64, 4>::Segment"*, %"struct.std::__1::atomic.133" }
%"class.std::__1::unique_ptr.176" = type { %"class.std::__1::__compressed_pair.177" }
%"class.std::__1::__compressed_pair.177" = type { %"struct.std::__1::__compressed_pair_elem.178" }
%"struct.std::__1::__compressed_pair_elem.178" = type { %"class.blink::Worklist.179"* }
%"class.blink::Worklist.179" = type { [4 x %"struct.blink::Worklist<const blink::TraceWrapperV8Reference<v8::Value> *, 16, 4>::PrivateSegmentHolder"], %"class.blink::Worklist<const blink::TraceWrapperV8Reference<v8::Value> *, 16, 4>::GlobalPool" }
%"struct.blink::Worklist<const blink::TraceWrapperV8Reference<v8::Value> *, 16, 4>::PrivateSegmentHolder" = type { %"class.blink::Worklist<const blink::TraceWrapperV8Reference<v8::Value> *, 16, 4>::Segment"*, %"class.blink::Worklist<const blink::TraceWrapperV8Reference<v8::Value> *, 16, 4>::Segment"*, [64 x i8] }
%"class.blink::Worklist<const blink::TraceWrapperV8Reference<v8::Value> *, 16, 4>::Segment" = type opaque
%"class.blink::Worklist<const blink::TraceWrapperV8Reference<v8::Value> *, 16, 4>::GlobalPool" = type { %"class.base::Lock", %"class.blink::Worklist<const blink::TraceWrapperV8Reference<v8::Value> *, 16, 4>::Segment"*, %"struct.std::__1::atomic.133" }
%"class.std::__1::unique_ptr.183" = type { %"class.std::__1::__compressed_pair.184" }
%"class.std::__1::__compressed_pair.184" = type { %"struct.std::__1::__compressed_pair_elem.185" }
%"struct.std::__1::__compressed_pair_elem.185" = type { %"class.blink::Worklist.186"* }
%"class.blink::Worklist.186" = type { [4 x %"struct.blink::Worklist<blink::NotSafeToConcurrentlyTraceItem, 64, 4>::PrivateSegmentHolder"], %"class.blink::Worklist<blink::NotSafeToConcurrentlyTraceItem, 64, 4>::GlobalPool" }
%"struct.blink::Worklist<blink::NotSafeToConcurrentlyTraceItem, 64, 4>::PrivateSegmentHolder" = type { %"class.blink::Worklist<blink::NotSafeToConcurrentlyTraceItem, 64, 4>::Segment"*, %"class.blink::Worklist<blink::NotSafeToConcurrentlyTraceItem, 64, 4>::Segment"*, [64 x i8] }
%"class.blink::Worklist<blink::NotSafeToConcurrentlyTraceItem, 64, 4>::Segment" = type { %"class.blink::Worklist<blink::NotSafeToConcurrentlyTraceItem, 64, 4>::Segment"*, i64, [64 x %"struct.blink::NotSafeToConcurrentlyTraceItem"] }
%"struct.blink::NotSafeToConcurrentlyTraceItem" = type { %"struct.blink::TraceDescriptor", i64 }
%"class.blink::Worklist<blink::NotSafeToConcurrentlyTraceItem, 64, 4>::GlobalPool" = type { %"class.base::Lock", %"class.blink::Worklist<blink::NotSafeToConcurrentlyTraceItem, 64, 4>::Segment"*, %"struct.std::__1::atomic.133" }
%"class.std::__1::unique_ptr.190" = type { %"class.std::__1::__compressed_pair.191" }
%"class.std::__1::__compressed_pair.191" = type { %"struct.std::__1::__compressed_pair_elem.192" }
%"struct.std::__1::__compressed_pair_elem.192" = type { %"class.blink::WeakContainersWorklist"* }
%"class.blink::WeakContainersWorklist" = type { %"class.WTF::Mutex", %"class.std::__1::unordered_set" }
%"class.WTF::Mutex" = type { %"class.WTF::MutexBase" }
%"class.WTF::MutexBase" = type { %"struct.WTF::PlatformMutex" }
%"struct.WTF::PlatformMutex" = type { %union.pthread_mutex_t }
%"class.std::__1::unordered_set" = type { %"class.std::__1::__hash_table" }
%"class.std::__1::__hash_table" = type <{ %"class.std::__1::unique_ptr.193", %"class.std::__1::__compressed_pair.200", %"class.std::__1::__compressed_pair.205", %"class.std::__1::__compressed_pair.207", [4 x i8] }>
%"class.std::__1::unique_ptr.193" = type { %"class.std::__1::__compressed_pair.194" }
%"class.std::__1::__compressed_pair.194" = type { %"struct.std::__1::__compressed_pair_elem.195", %"struct.std::__1::__compressed_pair_elem.196" }
%"struct.std::__1::__compressed_pair_elem.195" = type { %"struct.std::__1::__hash_node_base"** }
%"struct.std::__1::__hash_node_base" = type { %"struct.std::__1::__hash_node_base"* }
%"struct.std::__1::__compressed_pair_elem.196" = type { %"class.std::__1::__bucket_list_deallocator" }
%"class.std::__1::__bucket_list_deallocator" = type { %"class.std::__1::__compressed_pair.197" }
%"class.std::__1::__compressed_pair.197" = type { %"struct.std::__1::__compressed_pair_elem.198" }
%"struct.std::__1::__compressed_pair_elem.198" = type { i64 }
%"class.std::__1::__compressed_pair.200" = type { %"struct.std::__1::__compressed_pair_elem.201" }
%"struct.std::__1::__compressed_pair_elem.201" = type { %"struct.std::__1::__hash_node_base" }
%"class.std::__1::__compressed_pair.205" = type { %"struct.std::__1::__compressed_pair_elem.198" }
%"class.std::__1::__compressed_pair.207" = type { %"struct.std::__1::__compressed_pair_elem.208" }
%"struct.std::__1::__compressed_pair_elem.208" = type { float }
%"class.std::__1::unique_ptr.213" = type { %"class.std::__1::__compressed_pair.214" }
%"class.std::__1::__compressed_pair.214" = type { %"struct.std::__1::__compressed_pair_elem.215" }
%"struct.std::__1::__compressed_pair_elem.215" = type { %"class.blink::HeapCompact"* }
%"class.blink::HeapCompact" = type <{ %"class.blink::ThreadHeap"*, %"class.std::__1::unique_ptr.216", i8, [7 x i8], i64, i64, i32, [4 x i8], i64, i8, [7 x i8] }>
%"class.std::__1::unique_ptr.216" = type { %"class.std::__1::__compressed_pair.217" }
%"class.std::__1::__compressed_pair.217" = type { %"struct.std::__1::__compressed_pair_elem.218" }
%"struct.std::__1::__compressed_pair_elem.218" = type { %"class.blink::HeapCompact::MovableObjectFixups"* }
%"class.blink::HeapCompact::MovableObjectFixups" = type opaque
%"struct.blink::ThreadHeap::LastAllocatedRegion" = type { i8*, i64 }
%"class.blink::BaseArena" = type <{ i32 (...)**, %"class.blink::PageStackThreadSafe", %"class.blink::PageStackThreadSafe", %"class.blink::PageStackThreadSafe", %"class.blink::PageStackThreadSafe", %"class.blink::ThreadState"*, i32, [4 x i8] }>
%"class.blink::PageStackThreadSafe" = type { %"class.blink::PageStack", %"class.WTF::Mutex" }
%"class.blink::PageStack" = type { %"class.WTF::Vector.225" }
%"class.WTF::Vector.225" = type { %"class.WTF::VectorBuffer.226" }
%"class.WTF::VectorBuffer.226" = type { %"class.WTF::VectorBufferBase.227" }
%"class.WTF::VectorBufferBase.227" = type { %"class.blink::BasePage"**, i32, i32 }
%"class.blink::BasePage" = type <{ i32 (...)**, %"class.blink::PageMemory"*, %"class.blink::BaseArena"*, %"class.blink::ThreadState"*, i64, i8, i8, i8, [5 x i8] }>
%"class.blink::PageMemory" = type opaque
%"class.std::__1::unique_ptr.233" = type { %"class.std::__1::__compressed_pair.234" }
%"class.std::__1::__compressed_pair.234" = type { %"struct.std::__1::__compressed_pair_elem.235" }
%"struct.std::__1::__compressed_pair_elem.235" = type { %"class.blink::PersistentRegion"* }
%"class.blink::PersistentRegion" = type { %"class.blink::PersistentRegionBase" }
%"class.blink::PersistentRegionBase" = type { %"class.blink::PersistentNode"*, %"struct.blink::PersistentNodeSlots"* }
%"class.blink::PersistentNode" = type { i8*, void (%"class.blink::Visitor"*, i8*)* }
%"struct.blink::PersistentNodeSlots" = type { %"struct.blink::PersistentNodeSlots"*, [256 x %"class.blink::PersistentNode"] }
%"class.WTF::Deque" = type { %"class.WTF::Deque<std::__1::pair<void *, bool (*)(const blink::LivenessBroker &, void *)>, 0, WTF::PartitionAllocator>::BackingBuffer", i32, i32 }
%"class.WTF::Deque<std::__1::pair<void *, bool (*)(const blink::LivenessBroker &, void *)>, 0, WTF::PartitionAllocator>::BackingBuffer" = type { %"class.WTF::VectorBuffer.241" }
%"class.WTF::VectorBuffer.241" = type { %"class.WTF::VectorBufferBase.242" }
%"class.WTF::VectorBufferBase.242" = type { %"struct.std::__1::pair"*, i32, i32 }
%"struct.std::__1::pair" = type { i8*, i1 (%"class.blink::LivenessBroker"*, i8*)* }
%"class.blink::LivenessBroker" = type { i8 }
%"class.v8::EmbedderGraph" = type opaque
%"class.std::__1::unique_ptr.243" = type { %"class.std::__1::__compressed_pair.244" }
%"class.std::__1::__compressed_pair.244" = type { %"struct.std::__1::__compressed_pair_elem.245" }
%"struct.std::__1::__compressed_pair_elem.245" = type { %"class.blink::UnifiedHeapController"* }
%"class.blink::UnifiedHeapController" = type opaque
%"class.std::__1::unique_ptr.249" = type { %"class.std::__1::__compressed_pair.250" }
%"class.std::__1::__compressed_pair.250" = type { %"struct.std::__1::__compressed_pair_elem.251" }
%"struct.std::__1::__compressed_pair_elem.251" = type { %"class.v8::EmbedderRootsHandler"* }
%"class.v8::EmbedderRootsHandler" = type { i32 (...)** }
%"struct.blink::ThreadState::GCData" = type { i32, i32, i32, i32, %"class.std::__1::unique_ptr.255" }
%"class.std::__1::unique_ptr.255" = type { %"class.std::__1::__compressed_pair.256" }
%"class.std::__1::__compressed_pair.256" = type { %"struct.std::__1::__compressed_pair_elem.257" }
%"struct.std::__1::__compressed_pair_elem.257" = type { %"class.blink::MarkingVisitor"* }
%"class.blink::MarkingVisitor" = type { %"class.blink::MarkingVisitorBase", %"class.blink::MarkingVisitor::RecentlyRetracedWeakContainers" }
%"class.blink::MarkingVisitorBase" = type { %"class.blink::Visitor", %"class.blink::Worklist<blink::TraceDescriptor, 512, 4>::View", %"class.blink::Worklist<blink::HeapObjectHeader *, 64, 4>::View", %"class.blink::Worklist<const void *, 16, 4>::View", %"class.blink::Worklist<blink::CustomCallbackItem, 64, 4>::View", %"class.blink::Worklist<const void *const *, 256, 4>::View", %"class.blink::Worklist<blink::EphemeronPairItem, 64, 4>::View", %"class.blink::Worklist<blink::EphemeronPairItem, 64, 4>::View", %"class.blink::WeakContainersWorklist"*, i64, i32, i32 }
%"class.blink::Worklist<blink::TraceDescriptor, 512, 4>::View" = type <{ %"class.blink::Worklist"*, i32, [4 x i8] }>
%"class.blink::Worklist<blink::HeapObjectHeader *, 64, 4>::View" = type <{ %"class.blink::Worklist.144"*, i32, [4 x i8] }>
%"class.blink::Worklist<const void *, 16, 4>::View" = type <{ %"class.blink::Worklist.151"*, i32, [4 x i8] }>
%"class.blink::Worklist<blink::CustomCallbackItem, 64, 4>::View" = type <{ %"class.blink::Worklist.158"*, i32, [4 x i8] }>
%"class.blink::Worklist<const void *const *, 256, 4>::View" = type <{ %"class.blink::Worklist.165"*, i32, [4 x i8] }>
%"class.blink::Worklist<blink::EphemeronPairItem, 64, 4>::View" = type <{ %"class.blink::Worklist.172"*, i32, [4 x i8] }>
%"class.blink::MarkingVisitor::RecentlyRetracedWeakContainers" = type { %"class.std::__1::vector", i64 }
%"class.std::__1::vector" = type { %"class.std::__1::__vector_base" }
%"class.std::__1::__vector_base" = type { %"class.blink::HeapObjectHeader"**, %"class.blink::HeapObjectHeader"**, %"class.std::__1::__compressed_pair.278" }
%"class.blink::HeapObjectHeader" = type { i32, i16, i16 }
%"class.std::__1::__compressed_pair.278" = type { %"struct.std::__1::__compressed_pair_elem.279" }
%"struct.std::__1::__compressed_pair_elem.279" = type { %"class.blink::HeapObjectHeader"** }
%"class.std::__1::unique_ptr.261" = type { %"class.std::__1::__compressed_pair.262" }
%"class.std::__1::__compressed_pair.262" = type { %"struct.std::__1::__compressed_pair_elem.263" }
%"struct.std::__1::__compressed_pair_elem.263" = type { %"class.blink::ThreadState::IncrementalMarkingScheduler"* }
%"class.blink::ThreadState::IncrementalMarkingScheduler" = type opaque
%"class.std::__1::unique_ptr.267" = type { %"class.std::__1::__compressed_pair.268" }
%"class.std::__1::__compressed_pair.268" = type { %"struct.std::__1::__compressed_pair_elem.269" }
%"struct.std::__1::__compressed_pair_elem.269" = type { %"class.blink::MarkingSchedulingOracle"* }
%"class.blink::MarkingSchedulingOracle" = type opaque
%"class.base::JobHandle" = type { %class.scoped_refptr.273 }
%class.scoped_refptr.273 = type { %"class.base::internal::JobTaskSource"* }
%"class.base::internal::JobTaskSource" = type opaque
%"struct.std::__1::atomic.274" = type { %"struct.std::__1::__atomic_base.275" }
%"struct.std::__1::__atomic_base.275" = type { %"struct.std::__1::__cxx_atomic_impl.276" }
%"struct.std::__1::__cxx_atomic_impl.276" = type { %"struct.std::__1::__cxx_atomic_base_impl.277" }
%"struct.std::__1::__cxx_atomic_base_impl.277" = type { i8 }
%"class.base::TimeTicks" = type { %"class.base::time_internal::TimeBase" }
%"class.base::time_internal::TimeBase" = type { i64 }
%"class.WTF::Vector.9" = type { %"class.WTF::VectorBuffer.10" }
%"class.WTF::VectorBuffer.10" = type { %"class.WTF::VectorBufferBase.11", [16 x i8] }
%"class.WTF::VectorBufferBase.11" = type { i16*, i32, i32 }

$_ZN3WTF13StringBuilder6AppendERKNS_10StringViewE = comdat any

$_ZNK3WTF6VectorIdLj0ENS_18PartitionAllocatorEE2atEj = comdat any

$_ZN3WTF6VectorIdLj0ENS_18PartitionAllocatorEEaSERKS2_ = comdat any

$_ZN3WTF13StringBuilder6AppendEh = comdat any

$_ZN3WTF6VectorIDsLj8ENS_18PartitionAllocatorEE14AppendSlowCaseIRDsEEvOT_ = comdat any

$_ZN3WTF6VectorIDsLj8ENS_18PartitionAllocatorEE14ExpandCapacityEj = comdat any

$_ZN3WTF6VectorIDsLj8ENS_18PartitionAllocatorEE16ReallocateBufferEj = comdat any

$_ZN3WTF18PartitionAllocator13QuantizedSizeIDsEEmm = comdat any

$_ZN3WTF12VectorBufferIDsLj8ENS_18PartitionAllocatorEE22ReallyDeallocateBufferEPDs = comdat any

$_ZN3WTF6VectorIhLj16ENS_18PartitionAllocatorEE14AppendSlowCaseIRhEEvOT_ = comdat any

$_ZN3WTF6VectorIhLj16ENS_18PartitionAllocatorEE14ExpandCapacityEj = comdat any

$_ZN3WTF6VectorIhLj16ENS_18PartitionAllocatorEE16ReallocateBufferEj = comdat any

$_ZN3WTF18PartitionAllocator13QuantizedSizeIhEEmm = comdat any

$_ZN3WTF12VectorBufferIhLj16ENS_18PartitionAllocatorEE22ReallyDeallocateBufferEPh = comdat any

$_ZN3WTF18PartitionAllocator13QuantizedSizeIdEEmm = comdat any

$_ZN5blink10TraceTraitINS_19CSSPropertyValueSetEE5TraceEPNS_7VisitorEPKv = comdat any

@.str = private unnamed_addr constant [3 x i8] c", \00", align 1
@.str.1 = private unnamed_addr constant [4 x i8] c" { \00", align 1
@_ZN3WTF10StringImpl6empty_E = external local_unnamed_addr global %"class.WTF::StringImpl"*, align 8
@.str.2 = private unnamed_addr constant [33 x i8] c"expanded_capacity > old_capacity\00", align 1
@.str.3 = private unnamed_addr constant [55 x i8] c"../../third_party/blink/renderer/platform/wtf/vector.h\00", align 1
@.str.5 = private unnamed_addr constant [44 x i8] c"count <= MaxElementCountInBackingStore<T>()\00", align 1
@.str.6 = private unnamed_addr constant [78 x i8] c"../../third_party/blink/renderer/platform/wtf/allocator/partition_allocator.h\00", align 1
@__PRETTY_FUNCTION__._ZN3WTF21GetStringWithTypeNameIDsEEPKcv = private unnamed_addr constant [56 x i8] c"const char *WTF::GetStringWithTypeName() [T = char16_t]\00", align 1
@__PRETTY_FUNCTION__._ZN3WTF21GetStringWithTypeNameIhEEPKcv = private unnamed_addr constant [61 x i8] c"const char *WTF::GetStringWithTypeName() [T = unsigned char]\00", align 1
@__PRETTY_FUNCTION__._ZN3WTF21GetStringWithTypeNameIdEEPKcv = private unnamed_addr constant [54 x i8] c"const char *WTF::GetStringWithTypeName() [T = double]\00", align 1
@.str.7 = private unnamed_addr constant [11 x i8] c"i < size()\00", align 1
@_ZN5blink11ThreadState25incremental_marking_flag_E = external local_unnamed_addr global %"class.blink::AtomicEntryFlag", align 4

@_ZN5blink17StyleRuleKeyframeC1ENSt3__110unique_ptrIN3WTF6VectorIdLj0ENS3_18PartitionAllocatorEEENS1_14default_deleteIS6_EEEEPNS_19CSSPropertyValueSetE = hidden unnamed_addr alias void (%"class.blink::StyleRuleKeyframe"*, %"class.WTF::Vector"*, %"class.blink::CSSPropertyValueSet"*), void (%"class.blink::StyleRuleKeyframe"*, %"class.WTF::Vector"*, %"class.blink::CSSPropertyValueSet"*)* @_ZN5blink17StyleRuleKeyframeC2ENSt3__110unique_ptrIN3WTF6VectorIdLj0ENS3_18PartitionAllocatorEEENS1_14default_deleteIS6_EEEEPNS_19CSSPropertyValueSetE

; Function Attrs: nounwind ssp uwtable
define hidden void @_ZN5blink17StyleRuleKeyframeC2ENSt3__110unique_ptrIN3WTF6VectorIdLj0ENS3_18PartitionAllocatorEEENS1_14default_deleteIS6_EEEEPNS_19CSSPropertyValueSetE(%"class.blink::StyleRuleKeyframe"* nocapture, %"class.WTF::Vector"*, %"class.blink::CSSPropertyValueSet"*) unnamed_addr #0 align 2 {
  %4 = getelementptr inbounds %"class.blink::StyleRuleKeyframe", %"class.blink::StyleRuleKeyframe"* %0, i64 0, i32 0, i32 0
  store i8 8, i8* %4, align 1
  %5 = getelementptr inbounds %"class.blink::StyleRuleKeyframe", %"class.blink::StyleRuleKeyframe"* %0, i64 0, i32 1, i32 0, i32 0
  store %"class.blink::CSSPropertyValueSet"* %2, %"class.blink::CSSPropertyValueSet"** %5, align 8
  %6 = getelementptr inbounds %"class.blink::StyleRuleKeyframe", %"class.blink::StyleRuleKeyframe"* %0, i64 0, i32 2
  %7 = getelementptr inbounds %"class.WTF::Vector", %"class.WTF::Vector"* %1, i64 0, i32 0, i32 0, i32 1
  %8 = load i32, i32* %7, align 8
  %9 = getelementptr inbounds %"class.WTF::Vector", %"class.WTF::Vector"* %6, i64 0, i32 0, i32 0, i32 0
  store double* null, double** %9, align 8
  %10 = getelementptr inbounds %"class.blink::StyleRuleKeyframe", %"class.blink::StyleRuleKeyframe"* %0, i64 0, i32 2, i32 0, i32 0, i32 1
  store i32 0, i32* %10, align 8
  %11 = icmp eq i32 %8, 0
  br i1 %11, label %21, label %12

12:                                               ; preds = %3
  %13 = zext i32 %8 to i64
  %14 = tail call i64 @_ZN3WTF18PartitionAllocator13QuantizedSizeIdEEmm(i64 %13) #8
  %15 = tail call i8* @_ZN3WTF18PartitionAllocator15AllocateBackingEmPKc(i64 %14, i8* getelementptr inbounds ([54 x i8], [54 x i8]* @__PRETTY_FUNCTION__._ZN3WTF21GetStringWithTypeNameIdEEPKcv, i64 0, i64 0)) #8
  %16 = ptrtoint i8* %15 to i64
  %17 = bitcast %"class.WTF::Vector"* %6 to i64*
  store atomic i64 %16, i64* %17 monotonic, align 8
  %18 = lshr i64 %14, 3
  %19 = trunc i64 %18 to i32
  store i32 %19, i32* %10, align 8
  %20 = icmp ne i8* %15, null
  br label %21

21:                                               ; preds = %12, %3
  %22 = phi i8* [ null, %3 ], [ %15, %12 ]
  %23 = phi i1 [ false, %3 ], [ %20, %12 ]
  %24 = getelementptr inbounds %"class.WTF::Vector", %"class.WTF::Vector"* %1, i64 0, i32 0, i32 0, i32 2
  %25 = load i32, i32* %24, align 4
  %26 = getelementptr inbounds %"class.blink::StyleRuleKeyframe", %"class.blink::StyleRuleKeyframe"* %0, i64 0, i32 2, i32 0, i32 0, i32 2
  store i32 %25, i32* %26, align 4
  %27 = getelementptr inbounds %"class.WTF::Vector", %"class.WTF::Vector"* %1, i64 0, i32 0, i32 0, i32 0
  %28 = load double*, double** %27, align 8
  %29 = icmp ne double* %28, null
  %30 = and i1 %23, %29
  br i1 %30, label %31, label %36, !prof !2

31:                                               ; preds = %21
  %32 = load i32, i32* %24, align 4
  %33 = zext i32 %32 to i64
  %34 = bitcast double* %28 to i8*
  %35 = shl nuw nsw i64 %33, 3
  tail call void @llvm.memcpy.p0i8.p0i8.i64(i8* nonnull align 8 %22, i8* nonnull align 8 %34, i64 %35, i1 false) #8
  br label %36

36:                                               ; preds = %21, %31
  %37 = icmp eq %"class.WTF::Vector"* %1, null
  br i1 %37, label %49, label %38

38:                                               ; preds = %36
  %39 = load double*, double** %27, align 8
  %40 = icmp eq double* %39, null
  %41 = bitcast double* %39 to i8*
  br i1 %40, label %47, label %42, !prof !2

42:                                               ; preds = %38
  %43 = load i32, i32* %24, align 4
  %44 = icmp eq i32 %43, 0
  br i1 %44, label %46, label %45, !prof !3

45:                                               ; preds = %42
  store i32 0, i32* %24, align 4
  br label %46

46:                                               ; preds = %45, %42
  tail call void @_ZN3WTF18PartitionAllocator11FreeBackingEPv(i8* nonnull %41) #8
  store double* null, double** %27, align 8
  br label %47

47:                                               ; preds = %46, %38
  %48 = bitcast %"class.WTF::Vector"* %1 to i8*
  tail call void @_ZN3WTF10Partitions8FastFreeEPv(i8* nonnull %48) #8
  br label %49

49:                                               ; preds = %36, %47
  ret void
}

; Function Attrs: nounwind ssp uwtable
define hidden %"class.WTF::StringImpl"* @_ZNK5blink17StyleRuleKeyframe7KeyTextEv(%"class.blink::StyleRuleKeyframe"*) local_unnamed_addr #0 align 2 {
  %2 = alloca %"class.WTF::StringBuilder", align 8
  %3 = alloca %"class.WTF::StringView", align 8
  %4 = bitcast %"class.WTF::StringBuilder"* %2 to i8*
  call void @llvm.lifetime.start.p0i8(i64 48, i8* nonnull %4) #8
  call void @llvm.memset.p0i8.i64(i8* nonnull align 8 %4, i8 -86, i64 48, i1 false)
  %5 = getelementptr inbounds %"class.WTF::StringBuilder", %"class.WTF::StringBuilder"* %2, i64 0, i32 0, i32 0, i32 0
  store %"class.WTF::StringImpl"* null, %"class.WTF::StringImpl"** %5, align 8
  %6 = getelementptr inbounds %"class.WTF::StringBuilder", %"class.WTF::StringBuilder"* %2, i64 0, i32 1
  %7 = bitcast %union.anon* %6 to i8*
  store i8 0, i8* %7, align 8
  %8 = getelementptr inbounds %"class.WTF::StringBuilder", %"class.WTF::StringBuilder"* %2, i64 0, i32 2
  store i32 0, i32* %8, align 8
  %9 = getelementptr inbounds %"class.WTF::StringBuilder", %"class.WTF::StringBuilder"* %2, i64 0, i32 3
  store i8 1, i8* %9, align 4
  %10 = getelementptr inbounds %"class.WTF::StringBuilder", %"class.WTF::StringBuilder"* %2, i64 0, i32 4
  store i8 0, i8* %10, align 1
  %11 = getelementptr inbounds %"class.blink::StyleRuleKeyframe", %"class.blink::StyleRuleKeyframe"* %0, i64 0, i32 2
  %12 = getelementptr inbounds %"class.blink::StyleRuleKeyframe", %"class.blink::StyleRuleKeyframe"* %0, i64 0, i32 2, i32 0, i32 0, i32 2
  %13 = load i32, i32* %12, align 4
  %14 = icmp eq i32 %13, 0
  br i1 %14, label %20, label %15

15:                                               ; preds = %1
  %16 = bitcast %"class.WTF::StringView"* %3 to i8*
  %17 = bitcast %"class.WTF::StringView"* %3 to i64*
  %18 = getelementptr inbounds %"class.WTF::StringView", %"class.WTF::StringView"* %3, i64 0, i32 1
  %19 = getelementptr inbounds %"class.WTF::StringView", %"class.WTF::StringView"* %3, i64 0, i32 2
  br label %38

20:                                               ; preds = %43, %1
  %21 = call %"class.WTF::StringImpl"* @_ZN3WTF13StringBuilder8ToStringEv(%"class.WTF::StringBuilder"* nonnull %2) #8
  call void @_ZN3WTF13StringBuilder5ClearEv(%"class.WTF::StringBuilder"* nonnull %2) #8
  %22 = load %"class.WTF::StringImpl"*, %"class.WTF::StringImpl"** %5, align 8
  %23 = icmp eq %"class.WTF::StringImpl"* %22, null
  br i1 %23, label %37, label %24

24:                                               ; preds = %20
  %25 = getelementptr inbounds %"class.WTF::StringImpl", %"class.WTF::StringImpl"* %22, i64 0, i32 2, i32 0, i32 0, i32 0, i32 0, i32 0
  %26 = load atomic i32, i32* %25 monotonic, align 4
  %27 = and i32 %26, 2
  %28 = icmp eq i32 %27, 0
  %29 = getelementptr inbounds %"class.WTF::StringImpl", %"class.WTF::StringImpl"* %22, i64 0, i32 0
  %30 = load i32, i32* %29, align 4
  br i1 %28, label %31, label %33

31:                                               ; preds = %24
  %32 = add i32 %30, -1
  store i32 %32, i32* %29, align 4
  br label %33

33:                                               ; preds = %31, %24
  %34 = phi i32 [ %32, %31 ], [ %30, %24 ]
  %35 = icmp eq i32 %34, 0
  br i1 %35, label %36, label %37

36:                                               ; preds = %33
  call void @_ZNK3WTF10StringImpl18DestroyIfNotStaticEv(%"class.WTF::StringImpl"* nonnull %22) #8
  br label %37

37:                                               ; preds = %20, %33, %36
  call void @llvm.lifetime.end.p0i8(i64 48, i8* nonnull %4) #8
  ret %"class.WTF::StringImpl"* %21

38:                                               ; preds = %15, %43
  %39 = phi i32 [ 0, %15 ], [ %47, %43 ]
  %40 = icmp eq i32 %39, 0
  br i1 %40, label %43, label %41

41:                                               ; preds = %38
  call void @llvm.lifetime.start.p0i8(i64 24, i8* nonnull %16) #8
  %42 = load i64, i64* bitcast (%"class.WTF::StringImpl"** @_ZN3WTF10StringImpl6empty_E to i64*), align 8
  store i64 %42, i64* %17, align 8
  store i8* getelementptr inbounds ([3 x i8], [3 x i8]* @.str, i64 0, i64 0), i8** %18, align 8
  store i32 2, i32* %19, align 8
  call void @_ZN3WTF13StringBuilder6AppendERKNS_10StringViewE(%"class.WTF::StringBuilder"* nonnull %2, %"class.WTF::StringView"* nonnull dereferenceable(24) %3)
  call void @llvm.lifetime.end.p0i8(i64 24, i8* nonnull %16) #8
  br label %43

43:                                               ; preds = %38, %41
  %44 = call dereferenceable(8) double* @_ZNK3WTF6VectorIdLj0ENS_18PartitionAllocatorEE2atEj(%"class.WTF::Vector"* %11, i32 %39)
  %45 = load double, double* %44, align 8
  %46 = fmul double %45, 1.000000e+02
  call void @_ZN3WTF13StringBuilder12AppendNumberEdj(%"class.WTF::StringBuilder"* nonnull %2, double %46, i32 6) #8
  call void @_ZN3WTF13StringBuilder6AppendEh(%"class.WTF::StringBuilder"* nonnull %2, i8 zeroext 37) #8
  %47 = add nuw i32 %39, 1
  %48 = load i32, i32* %12, align 4
  %49 = icmp ult i32 %47, %48
  br i1 %49, label %38, label %20
}

; Function Attrs: argmemonly nounwind
declare void @llvm.lifetime.start.p0i8(i64 immarg, i8* nocapture) #1

; Function Attrs: argmemonly nounwind
declare void @llvm.memset.p0i8.i64(i8* nocapture writeonly, i8, i64, i1 immarg) #1

; Function Attrs: nounwind ssp uwtable
define linkonce_odr hidden void @_ZN3WTF13StringBuilder6AppendERKNS_10StringViewE(%"class.WTF::StringBuilder"*, %"class.WTF::StringView"* dereferenceable(24)) local_unnamed_addr #0 comdat align 2 {
  %3 = getelementptr inbounds %"class.WTF::StringView", %"class.WTF::StringView"* %1, i64 0, i32 2
  %4 = load i32, i32* %3, align 8
  %5 = icmp eq i32 %4, 0
  br i1 %5, label %81, label %6

6:                                                ; preds = %2
  %7 = getelementptr inbounds %"class.WTF::StringView", %"class.WTF::StringView"* %1, i64 0, i32 0
  %8 = load %"class.WTF::StringImpl"*, %"class.WTF::StringImpl"** %7, align 8
  %9 = getelementptr inbounds %"class.WTF::StringImpl", %"class.WTF::StringImpl"* %8, i64 1
  %10 = bitcast %"class.WTF::StringImpl"* %9 to i8*
  %11 = getelementptr inbounds %"class.WTF::StringView", %"class.WTF::StringView"* %1, i64 0, i32 1
  %12 = load i8*, i8** %11, align 8
  %13 = icmp eq i8* %12, %10
  %14 = bitcast i8* %12 to i16*
  br i1 %13, label %15, label %20

15:                                               ; preds = %6
  %16 = getelementptr inbounds %"class.WTF::StringImpl", %"class.WTF::StringImpl"* %8, i64 0, i32 1
  %17 = load i32, i32* %16, align 4
  %18 = icmp eq i32 %4, %17
  %19 = select i1 %18, %"class.WTF::StringImpl"* %8, %"class.WTF::StringImpl"* null
  br label %20

20:                                               ; preds = %6, %15
  %21 = phi %"class.WTF::StringImpl"* [ %19, %15 ], [ null, %6 ]
  %22 = getelementptr inbounds %"class.WTF::StringBuilder", %"class.WTF::StringBuilder"* %0, i64 0, i32 2
  %23 = load i32, i32* %22, align 8
  %24 = icmp eq i32 %23, 0
  br i1 %24, label %25, label %74

25:                                               ; preds = %20
  %26 = getelementptr inbounds %"class.WTF::StringBuilder", %"class.WTF::StringBuilder"* %0, i64 0, i32 4
  %27 = load i8, i8* %26, align 1, !range !4
  %28 = icmp eq i8 %27, 0
  %29 = icmp ne %"class.WTF::StringImpl"* %21, null
  %30 = and i1 %29, %28
  br i1 %30, label %31, label %74

31:                                               ; preds = %25
  %32 = ptrtoint %"class.WTF::StringImpl"* %21 to i64
  %33 = getelementptr inbounds %"class.WTF::StringImpl", %"class.WTF::StringImpl"* %21, i64 0, i32 2, i32 0, i32 0, i32 0, i32 0, i32 0
  %34 = load atomic i32, i32* %33 monotonic, align 4
  %35 = and i32 %34, 2
  %36 = icmp eq i32 %35, 0
  br i1 %36, label %37, label %49

37:                                               ; preds = %31
  %38 = getelementptr inbounds %"class.WTF::StringImpl", %"class.WTF::StringImpl"* %21, i64 0, i32 0
  %39 = load i32, i32* %38, align 4
  %40 = zext i32 %39 to i33
  %41 = tail call { i33, i1 } @llvm.sadd.with.overflow.i33(i33 %40, i33 1) #8
  %42 = extractvalue { i33, i1 } %41, 1
  %43 = extractvalue { i33, i1 } %41, 0
  %44 = icmp slt i33 %43, 0
  %45 = or i1 %42, %44
  br i1 %45, label %46, label %47, !prof !3

46:                                               ; preds = %37
  tail call void @llvm.trap() #8
  unreachable

47:                                               ; preds = %37
  %48 = trunc i33 %43 to i32
  store i32 %48, i32* %38, align 4
  br label %49

49:                                               ; preds = %31, %47
  %50 = bitcast %"class.WTF::StringBuilder"* %0 to i64*
  %51 = getelementptr inbounds %"class.WTF::StringBuilder", %"class.WTF::StringBuilder"* %0, i64 0, i32 0, i32 0, i32 0
  %52 = load %"class.WTF::StringImpl"*, %"class.WTF::StringImpl"** %51, align 8
  store i64 %32, i64* %50, align 8
  %53 = icmp eq %"class.WTF::StringImpl"* %52, null
  br i1 %53, label %67, label %54

54:                                               ; preds = %49
  %55 = getelementptr inbounds %"class.WTF::StringImpl", %"class.WTF::StringImpl"* %52, i64 0, i32 2, i32 0, i32 0, i32 0, i32 0, i32 0
  %56 = load atomic i32, i32* %55 monotonic, align 4
  %57 = and i32 %56, 2
  %58 = icmp eq i32 %57, 0
  %59 = getelementptr inbounds %"class.WTF::StringImpl", %"class.WTF::StringImpl"* %52, i64 0, i32 0
  %60 = load i32, i32* %59, align 4
  br i1 %58, label %61, label %63

61:                                               ; preds = %54
  %62 = add i32 %60, -1
  store i32 %62, i32* %59, align 4
  br label %63

63:                                               ; preds = %61, %54
  %64 = phi i32 [ %62, %61 ], [ %60, %54 ]
  %65 = icmp eq i32 %64, 0
  br i1 %65, label %66, label %67

66:                                               ; preds = %63
  tail call void @_ZNK3WTF10StringImpl18DestroyIfNotStaticEv(%"class.WTF::StringImpl"* nonnull %52) #8
  br label %67

67:                                               ; preds = %66, %63, %49
  %68 = getelementptr inbounds %"class.WTF::StringImpl", %"class.WTF::StringImpl"* %21, i64 0, i32 1
  %69 = load i32, i32* %68, align 4
  store i32 %69, i32* %22, align 8
  %70 = load atomic i32, i32* %33 monotonic, align 4
  %71 = getelementptr inbounds %"class.WTF::StringBuilder", %"class.WTF::StringBuilder"* %0, i64 0, i32 3
  %72 = trunc i32 %70 to i8
  %73 = and i8 %72, 1
  store i8 %73, i8* %71, align 4
  br label %81

74:                                               ; preds = %20, %25
  %75 = getelementptr inbounds %"class.WTF::StringImpl", %"class.WTF::StringImpl"* %8, i64 0, i32 2, i32 0, i32 0, i32 0, i32 0, i32 0
  %76 = load atomic i32, i32* %75 monotonic, align 4
  %77 = and i32 %76, 1
  %78 = icmp eq i32 %77, 0
  br i1 %78, label %80, label %79

79:                                               ; preds = %74
  tail call void @_ZN3WTF13StringBuilder6AppendEPKhj(%"class.WTF::StringBuilder"* %0, i8* %12, i32 %4) #8
  br label %81

80:                                               ; preds = %74
  tail call void @_ZN3WTF13StringBuilder6AppendEPKDsj(%"class.WTF::StringBuilder"* %0, i16* %14, i32 %4) #8
  br label %81

81:                                               ; preds = %67, %80, %79, %2
  ret void
}

; Function Attrs: argmemonly nounwind
declare void @llvm.lifetime.end.p0i8(i64 immarg, i8* nocapture) #1

declare void @_ZN3WTF13StringBuilder12AppendNumberEdj(%"class.WTF::StringBuilder"*, double, i32) local_unnamed_addr #2

; Function Attrs: nounwind ssp uwtable
define linkonce_odr hidden dereferenceable(8) double* @_ZNK3WTF6VectorIdLj0ENS_18PartitionAllocatorEE2atEj(%"class.WTF::Vector"*, i32) local_unnamed_addr #0 comdat align 2 {
  %3 = alloca %"class.logging::CheckOpResult", align 8
  %4 = alloca %"class.logging::CheckOpResult", align 8
  %5 = alloca %"class.logging::CheckError", align 8
  %6 = bitcast %"class.logging::CheckOpResult"* %4 to i8*
  call void @llvm.lifetime.start.p0i8(i64 8, i8* nonnull %6) #8
  %7 = getelementptr inbounds %"class.logging::CheckOpResult", %"class.logging::CheckOpResult"* %4, i64 0, i32 0
  store i8* inttoptr (i64 -6148914691236517206 to i8*), i8** %7, align 8
  %8 = getelementptr inbounds %"class.WTF::Vector", %"class.WTF::Vector"* %0, i64 0, i32 0, i32 0, i32 2
  %9 = load i32, i32* %8, align 4
  %10 = bitcast %"class.logging::CheckOpResult"* %3 to i8*
  call void @llvm.lifetime.start.p0i8(i64 8, i8* nonnull %10)
  %11 = icmp ugt i32 %9, %1
  br i1 %11, label %12, label %13

12:                                               ; preds = %2
  call void @llvm.lifetime.end.p0i8(i64 8, i8* nonnull %10)
  store i8* null, i8** %7, align 8
  br label %22

13:                                               ; preds = %2
  %14 = tail call i8* @_ZN7logging15CheckOpValueStrEj(i32 %1) #8
  %15 = tail call i8* @_ZN7logging15CheckOpValueStrEj(i32 %9) #8
  call void @_ZN7logging13CheckOpResultC1EPKcPcS3_(%"class.logging::CheckOpResult"* nonnull %3, i8* getelementptr inbounds ([11 x i8], [11 x i8]* @.str.7, i64 0, i64 0), i8* %14, i8* %15) #8
  %16 = getelementptr inbounds %"class.logging::CheckOpResult", %"class.logging::CheckOpResult"* %3, i64 0, i32 0
  %17 = load i8*, i8** %16, align 8
  call void @llvm.lifetime.end.p0i8(i64 8, i8* nonnull %10)
  store i8* %17, i8** %7, align 8
  %18 = icmp eq i8* %17, null
  br i1 %18, label %22, label %19

19:                                               ; preds = %13
  %20 = bitcast %"class.logging::CheckError"* %5 to i8*
  call void @llvm.lifetime.start.p0i8(i64 8, i8* nonnull %20) #8
  call void @_ZN7logging10CheckError7CheckOpEPKciPNS_13CheckOpResultE(%"class.logging::CheckError"* nonnull sret %5, i8* getelementptr inbounds ([55 x i8], [55 x i8]* @.str.3, i64 0, i64 0), i32 1176, %"class.logging::CheckOpResult"* nonnull %4) #8
  %21 = call dereferenceable(160) %"class.std::__1::basic_ostream"* @_ZN7logging10CheckError6streamEv(%"class.logging::CheckError"* nonnull %5) #8
  call void @_ZN7logging10CheckErrorD1Ev(%"class.logging::CheckError"* nonnull %5) #8
  call void @llvm.lifetime.end.p0i8(i64 8, i8* nonnull %20) #8
  br label %22

22:                                               ; preds = %12, %13, %19
  call void @llvm.lifetime.end.p0i8(i64 8, i8* nonnull %6) #8
  %23 = getelementptr inbounds %"class.WTF::Vector", %"class.WTF::Vector"* %0, i64 0, i32 0, i32 0, i32 0
  %24 = load double*, double** %23, align 8
  %25 = zext i32 %1 to i64
  %26 = getelementptr inbounds double, double* %24, i64 %25
  ret double* %26
}

declare %"class.WTF::StringImpl"* @_ZN3WTF13StringBuilder8ToStringEv(%"class.WTF::StringBuilder"*) local_unnamed_addr #2

; Function Attrs: nounwind ssp uwtable
define hidden zeroext i1 @_ZN5blink17StyleRuleKeyframe10SetKeyTextERKN3WTF6StringE(%"class.blink::StyleRuleKeyframe"*, %"class.WTF::String"* dereferenceable(8)) local_unnamed_addr #0 align 2 {
  %3 = tail call %"class.WTF::Vector"* @_ZN5blink9CSSParser20ParseKeyframeKeyListERKN3WTF6StringE(%"class.WTF::String"* dereferenceable(8) %1) #8
  %4 = icmp eq %"class.WTF::Vector"* %3, null
  br i1 %4, label %25, label %5

5:                                                ; preds = %2
  %6 = getelementptr inbounds %"class.WTF::Vector", %"class.WTF::Vector"* %3, i64 0, i32 0, i32 0, i32 2
  %7 = load i32, i32* %6, align 4
  %8 = icmp eq i32 %7, 0
  br i1 %8, label %12, label %9

9:                                                ; preds = %5
  %10 = getelementptr inbounds %"class.blink::StyleRuleKeyframe", %"class.blink::StyleRuleKeyframe"* %0, i64 0, i32 2
  %11 = tail call dereferenceable(16) %"class.WTF::Vector"* @_ZN3WTF6VectorIdLj0ENS_18PartitionAllocatorEEaSERKS2_(%"class.WTF::Vector"* %10, %"class.WTF::Vector"* nonnull dereferenceable(16) %3)
  br label %12

12:                                               ; preds = %5, %9
  %13 = phi i1 [ false, %5 ], [ true, %9 ]
  %14 = getelementptr inbounds %"class.WTF::Vector", %"class.WTF::Vector"* %3, i64 0, i32 0, i32 0, i32 0
  %15 = load double*, double** %14, align 8
  %16 = icmp eq double* %15, null
  %17 = bitcast double* %15 to i8*
  br i1 %16, label %23, label %18, !prof !2

18:                                               ; preds = %12
  %19 = load i32, i32* %6, align 4
  %20 = icmp eq i32 %19, 0
  br i1 %20, label %22, label %21, !prof !3

21:                                               ; preds = %18
  store i32 0, i32* %6, align 4
  br label %22

22:                                               ; preds = %21, %18
  tail call void @_ZN3WTF18PartitionAllocator11FreeBackingEPv(i8* nonnull %17) #8
  store double* null, double** %14, align 8
  br label %23

23:                                               ; preds = %22, %12
  %24 = bitcast %"class.WTF::Vector"* %3 to i8*
  tail call void @_ZN3WTF10Partitions8FastFreeEPv(i8* nonnull %24) #8
  br label %25

25:                                               ; preds = %2, %23
  %26 = phi i1 [ %13, %23 ], [ false, %2 ]
  ret i1 %26
}

declare %"class.WTF::Vector"* @_ZN5blink9CSSParser20ParseKeyframeKeyListERKN3WTF6StringE(%"class.WTF::String"* dereferenceable(8)) local_unnamed_addr #2

; Function Attrs: nounwind ssp uwtable
define linkonce_odr hidden dereferenceable(16) %"class.WTF::Vector"* @_ZN3WTF6VectorIdLj0ENS_18PartitionAllocatorEEaSERKS2_(%"class.WTF::Vector"*, %"class.WTF::Vector"* dereferenceable(16)) local_unnamed_addr #0 comdat align 2 {
  %3 = icmp eq %"class.WTF::Vector"* %1, %0
  br i1 %3, label %90, label %4, !prof !3

4:                                                ; preds = %2
  %5 = getelementptr inbounds %"class.WTF::Vector", %"class.WTF::Vector"* %0, i64 0, i32 0, i32 0, i32 2
  %6 = load i32, i32* %5, align 4
  %7 = getelementptr inbounds %"class.WTF::Vector", %"class.WTF::Vector"* %1, i64 0, i32 0, i32 0, i32 2
  %8 = load i32, i32* %7, align 4
  %9 = icmp ugt i32 %6, %8
  br i1 %9, label %10, label %11

10:                                               ; preds = %4
  store i32 %8, i32* %5, align 4
  br label %60

11:                                               ; preds = %4
  %12 = getelementptr inbounds %"class.WTF::Vector", %"class.WTF::Vector"* %0, i64 0, i32 0, i32 0, i32 1
  %13 = load i32, i32* %12, align 8
  %14 = icmp ugt i32 %8, %13
  br i1 %14, label %15, label %60

15:                                               ; preds = %11
  %16 = icmp eq i32 %13, 0
  br i1 %16, label %26, label %17

17:                                               ; preds = %15
  %18 = icmp eq i32 %6, 0
  br i1 %18, label %20, label %19

19:                                               ; preds = %17
  store i32 0, i32* %5, align 4
  br label %20

20:                                               ; preds = %19, %17
  %21 = bitcast %"class.WTF::Vector"* %0 to i8**
  %22 = load i8*, i8** %21, align 8
  %23 = bitcast %"class.WTF::Vector"* %0 to i64*
  store atomic i64 0, i64* %23 monotonic, align 8
  store i32 0, i32* %12, align 8
  tail call void @_ZN3WTF18PartitionAllocator11FreeBackingEPv(i8* %22) #8
  %24 = load i32, i32* %7, align 4
  %25 = load i32, i32* %12, align 8
  br label %26

26:                                               ; preds = %15, %20
  %27 = phi i32 [ 0, %15 ], [ %25, %20 ]
  %28 = phi i32 [ %8, %15 ], [ %24, %20 ]
  %29 = icmp ult i32 %27, %28
  br i1 %29, label %30, label %60, !prof !2

30:                                               ; preds = %26
  %31 = getelementptr inbounds %"class.WTF::Vector", %"class.WTF::Vector"* %0, i64 0, i32 0, i32 0, i32 0
  %32 = load double*, double** %31, align 8
  %33 = icmp eq double* %32, null
  %34 = zext i32 %28 to i64
  %35 = tail call i64 @_ZN3WTF18PartitionAllocator13QuantizedSizeIdEEmm(i64 %34) #8
  %36 = tail call i8* @_ZN3WTF18PartitionAllocator15AllocateBackingEmPKc(i64 %35, i8* getelementptr inbounds ([54 x i8], [54 x i8]* @__PRETTY_FUNCTION__._ZN3WTF21GetStringWithTypeNameIdEEPKcv, i64 0, i64 0)) #8
  br i1 %33, label %37, label %42

37:                                               ; preds = %30
  %38 = ptrtoint i8* %36 to i64
  %39 = bitcast %"class.WTF::Vector"* %0 to i64*
  store atomic i64 %38, i64* %39 monotonic, align 8
  %40 = lshr i64 %35, 3
  %41 = trunc i64 %40 to i32
  store i32 %41, i32* %12, align 8
  br label %60

42:                                               ; preds = %30
  %43 = lshr i64 %35, 3
  %44 = ptrtoint i8* %36 to i64
  %45 = load double*, double** %31, align 8
  %46 = icmp ne i8* %36, null
  %47 = icmp ne double* %45, null
  %48 = and i1 %46, %47
  %49 = bitcast double* %45 to i8*
  br i1 %48, label %50, label %56, !prof !2

50:                                               ; preds = %42
  %51 = load i32, i32* %5, align 4
  %52 = zext i32 %51 to i64
  %53 = shl nuw nsw i64 %52, 3
  tail call void @llvm.memcpy.p0i8.p0i8.i64(i8* nonnull align 8 %36, i8* nonnull align 8 %49, i64 %53, i1 false) #8
  %54 = bitcast %"class.WTF::Vector"* %0 to i8**
  %55 = load i8*, i8** %54, align 8
  br label %56

56:                                               ; preds = %50, %42
  %57 = phi i8* [ %55, %50 ], [ %49, %42 ]
  tail call void @_ZN3WTF18PartitionAllocator11FreeBackingEPv(i8* %57) #8
  %58 = bitcast %"class.WTF::Vector"* %0 to i64*
  store atomic i64 %44, i64* %58 monotonic, align 8
  %59 = trunc i64 %43 to i32
  store i32 %59, i32* %12, align 8
  br label %60

60:                                               ; preds = %56, %37, %26, %11, %10
  %61 = getelementptr inbounds %"class.WTF::Vector", %"class.WTF::Vector"* %1, i64 0, i32 0, i32 0, i32 0
  %62 = bitcast %"class.WTF::Vector"* %1 to i8**
  %63 = load i8*, i8** %62, align 8
  %64 = load i32, i32* %5, align 4
  %65 = zext i32 %64 to i64
  %66 = getelementptr inbounds %"class.WTF::Vector", %"class.WTF::Vector"* %0, i64 0, i32 0, i32 0, i32 0
  %67 = bitcast %"class.WTF::Vector"* %0 to i8**
  %68 = load i8*, i8** %67, align 8
  %69 = shl nuw nsw i64 %65, 3
  tail call void @llvm.memcpy.p0i8.p0i8.i64(i8* align 8 %68, i8* align 8 %63, i64 %69, i1 false) #8
  %70 = load double*, double** %61, align 8
  %71 = load i32, i32* %5, align 4
  %72 = zext i32 %71 to i64
  %73 = getelementptr inbounds double, double* %70, i64 %72
  %74 = load double*, double** %66, align 8
  %75 = getelementptr inbounds double, double* %74, i64 %72
  %76 = icmp ne double* %75, null
  %77 = icmp ne double* %73, null
  %78 = and i1 %77, %76
  br i1 %78, label %79, label %88, !prof !2

79:                                               ; preds = %60
  %80 = load i32, i32* %7, align 4
  %81 = zext i32 %80 to i64
  %82 = getelementptr inbounds double, double* %70, i64 %81
  %83 = bitcast double* %75 to i8*
  %84 = bitcast double* %73 to i8*
  %85 = ptrtoint double* %82 to i64
  %86 = ptrtoint double* %73 to i64
  %87 = sub i64 %85, %86
  tail call void @llvm.memcpy.p0i8.p0i8.i64(i8* nonnull align 8 %83, i8* nonnull align 8 %84, i64 %87, i1 false) #8
  br label %88

88:                                               ; preds = %60, %79
  %89 = load i32, i32* %7, align 4
  store i32 %89, i32* %5, align 4
  br label %90

90:                                               ; preds = %2, %88
  ret %"class.WTF::Vector"* %0
}

; Function Attrs: norecurse nounwind readnone ssp uwtable
define hidden dereferenceable(16) %"class.WTF::Vector"* @_ZNK5blink17StyleRuleKeyframe4KeysEv(%"class.blink::StyleRuleKeyframe"* readnone) local_unnamed_addr #3 align 2 {
  %2 = getelementptr inbounds %"class.blink::StyleRuleKeyframe", %"class.blink::StyleRuleKeyframe"* %0, i64 0, i32 2
  ret %"class.WTF::Vector"* %2
}

; Function Attrs: nounwind ssp uwtable
define hidden dereferenceable(136) %"class.blink::MutableCSSPropertyValueSet"* @_ZN5blink17StyleRuleKeyframe17MutablePropertiesEv(%"class.blink::StyleRuleKeyframe"* nocapture) local_unnamed_addr #0 align 2 {
  %2 = getelementptr inbounds %"class.blink::StyleRuleKeyframe", %"class.blink::StyleRuleKeyframe"* %0, i64 0, i32 1
  %3 = getelementptr inbounds %"class.blink::Member", %"class.blink::Member"* %2, i64 0, i32 0, i32 0
  %4 = load %"class.blink::CSSPropertyValueSet"*, %"class.blink::CSSPropertyValueSet"** %3, align 8
  %5 = getelementptr inbounds %"class.blink::CSSPropertyValueSet", %"class.blink::CSSPropertyValueSet"* %4, i64 0, i32 0
  %6 = load i32, i32* %5, align 4
  %7 = icmp slt i32 %6, 0
  %8 = bitcast %"class.blink::CSSPropertyValueSet"* %4 to %"class.blink::MutableCSSPropertyValueSet"*
  br i1 %7, label %20, label %9

9:                                                ; preds = %1
  %10 = tail call %"class.blink::MutableCSSPropertyValueSet"* @_ZNK5blink19CSSPropertyValueSet11MutableCopyEv(%"class.blink::CSSPropertyValueSet"* %4) #8
  %11 = ptrtoint %"class.blink::MutableCSSPropertyValueSet"* %10 to i64
  %12 = bitcast %"class.blink::Member"* %2 to i64*
  store atomic i64 %11, i64* %12 monotonic, align 8
  %13 = load atomic i32, i32* getelementptr inbounds (%"class.blink::AtomicEntryFlag", %"class.blink::AtomicEntryFlag"* @_ZN5blink11ThreadState25incremental_marking_flag_E, i64 0, i32 0, i32 0, i32 0, i32 0, i32 0, i32 0) monotonic, align 4
  %14 = icmp eq i32 %13, 0
  br i1 %14, label %20, label %15

15:                                               ; preds = %9
  %16 = bitcast %"class.blink::MutableCSSPropertyValueSet"* %10 to i8*
  %17 = tail call zeroext i1 @_ZN5blink14MarkingVisitor16WriteBarrierSlowEPv(i8* %16) #8
  %18 = bitcast %"class.blink::Member"* %2 to %"class.blink::MutableCSSPropertyValueSet"**
  %19 = load %"class.blink::MutableCSSPropertyValueSet"*, %"class.blink::MutableCSSPropertyValueSet"** %18, align 8
  br label %20

20:                                               ; preds = %15, %9, %1
  %21 = phi %"class.blink::MutableCSSPropertyValueSet"* [ %19, %15 ], [ %10, %9 ], [ %8, %1 ]
  ret %"class.blink::MutableCSSPropertyValueSet"* %21
}

declare %"class.blink::MutableCSSPropertyValueSet"* @_ZNK5blink19CSSPropertyValueSet11MutableCopyEv(%"class.blink::CSSPropertyValueSet"*) local_unnamed_addr #2

; Function Attrs: nounwind ssp uwtable
define hidden %"class.WTF::StringImpl"* @_ZNK5blink17StyleRuleKeyframe7CssTextEv(%"class.blink::StyleRuleKeyframe"*) local_unnamed_addr #0 align 2 {
  %2 = alloca %"class.WTF::StringBuilder", align 8
  %3 = alloca %"class.WTF::StringView", align 8
  %4 = alloca %"class.WTF::StringView", align 8
  %5 = alloca %"class.WTF::StringView", align 8
  %6 = bitcast %"class.WTF::StringBuilder"* %2 to i8*
  call void @llvm.lifetime.start.p0i8(i64 48, i8* nonnull %6) #8
  call void @llvm.memset.p0i8.i64(i8* nonnull align 8 %6, i8 -86, i64 48, i1 false)
  %7 = getelementptr inbounds %"class.WTF::StringBuilder", %"class.WTF::StringBuilder"* %2, i64 0, i32 0, i32 0, i32 0
  store %"class.WTF::StringImpl"* null, %"class.WTF::StringImpl"** %7, align 8
  %8 = getelementptr inbounds %"class.WTF::StringBuilder", %"class.WTF::StringBuilder"* %2, i64 0, i32 1
  %9 = bitcast %union.anon* %8 to i8*
  store i8 0, i8* %9, align 8
  %10 = getelementptr inbounds %"class.WTF::StringBuilder", %"class.WTF::StringBuilder"* %2, i64 0, i32 2
  store i32 0, i32* %10, align 8
  %11 = getelementptr inbounds %"class.WTF::StringBuilder", %"class.WTF::StringBuilder"* %2, i64 0, i32 3
  store i8 1, i8* %11, align 4
  %12 = getelementptr inbounds %"class.WTF::StringBuilder", %"class.WTF::StringBuilder"* %2, i64 0, i32 4
  store i8 0, i8* %12, align 1
  %13 = bitcast %"class.WTF::StringView"* %3 to i8*
  call void @llvm.lifetime.start.p0i8(i64 24, i8* nonnull %13) #8
  %14 = tail call %"class.WTF::StringImpl"* @_ZNK5blink17StyleRuleKeyframe7KeyTextEv(%"class.blink::StyleRuleKeyframe"* %0)
  %15 = icmp eq %"class.WTF::StringImpl"* %14, null
  br i1 %15, label %16, label %21

16:                                               ; preds = %1
  %17 = getelementptr inbounds %"class.WTF::StringView", %"class.WTF::StringView"* %3, i64 0, i32 1
  store i8* null, i8** %17, align 8
  %18 = load i64, i64* bitcast (%"class.WTF::StringImpl"** @_ZN3WTF10StringImpl6empty_E to i64*), align 8
  %19 = bitcast %"class.WTF::StringView"* %3 to i64*
  store i64 %18, i64* %19, align 8
  %20 = getelementptr inbounds %"class.WTF::StringView", %"class.WTF::StringView"* %3, i64 0, i32 2
  store i32 0, i32* %20, align 8
  call void @_ZN3WTF13StringBuilder6AppendERKNS_10StringViewE(%"class.WTF::StringBuilder"* nonnull %2, %"class.WTF::StringView"* nonnull dereferenceable(24) %3)
  br label %41

21:                                               ; preds = %1
  %22 = getelementptr inbounds %"class.WTF::StringView", %"class.WTF::StringView"* %3, i64 0, i32 0
  store %"class.WTF::StringImpl"* %14, %"class.WTF::StringImpl"** %22, align 8
  %23 = getelementptr inbounds %"class.WTF::StringImpl", %"class.WTF::StringImpl"* %14, i64 0, i32 1
  %24 = load i32, i32* %23, align 4
  %25 = getelementptr inbounds %"class.WTF::StringImpl", %"class.WTF::StringImpl"* %14, i64 1
  %26 = getelementptr inbounds %"class.WTF::StringView", %"class.WTF::StringView"* %3, i64 0, i32 1
  %27 = bitcast i8** %26 to %"class.WTF::StringImpl"**
  store %"class.WTF::StringImpl"* %25, %"class.WTF::StringImpl"** %27, align 8
  %28 = getelementptr inbounds %"class.WTF::StringView", %"class.WTF::StringView"* %3, i64 0, i32 2
  store i32 %24, i32* %28, align 8
  call void @_ZN3WTF13StringBuilder6AppendERKNS_10StringViewE(%"class.WTF::StringBuilder"* nonnull %2, %"class.WTF::StringView"* nonnull dereferenceable(24) %3)
  %29 = getelementptr inbounds %"class.WTF::StringImpl", %"class.WTF::StringImpl"* %14, i64 0, i32 2, i32 0, i32 0, i32 0, i32 0, i32 0
  %30 = load atomic i32, i32* %29 monotonic, align 4
  %31 = and i32 %30, 2
  %32 = icmp eq i32 %31, 0
  %33 = getelementptr inbounds %"class.WTF::StringImpl", %"class.WTF::StringImpl"* %14, i64 0, i32 0
  %34 = load i32, i32* %33, align 4
  br i1 %32, label %35, label %37

35:                                               ; preds = %21
  %36 = add i32 %34, -1
  store i32 %36, i32* %33, align 4
  br label %37

37:                                               ; preds = %35, %21
  %38 = phi i32 [ %36, %35 ], [ %34, %21 ]
  %39 = icmp eq i32 %38, 0
  br i1 %39, label %40, label %41

40:                                               ; preds = %37
  call void @_ZNK3WTF10StringImpl18DestroyIfNotStaticEv(%"class.WTF::StringImpl"* nonnull %14) #8
  br label %41

41:                                               ; preds = %16, %37, %40
  call void @llvm.lifetime.end.p0i8(i64 24, i8* nonnull %13) #8
  %42 = bitcast %"class.WTF::StringView"* %4 to i8*
  call void @llvm.lifetime.start.p0i8(i64 24, i8* nonnull %42) #8
  %43 = load i64, i64* bitcast (%"class.WTF::StringImpl"** @_ZN3WTF10StringImpl6empty_E to i64*), align 8
  %44 = bitcast %"class.WTF::StringView"* %4 to i64*
  store i64 %43, i64* %44, align 8
  %45 = getelementptr inbounds %"class.WTF::StringView", %"class.WTF::StringView"* %4, i64 0, i32 1
  store i8* getelementptr inbounds ([4 x i8], [4 x i8]* @.str.1, i64 0, i64 0), i8** %45, align 8
  %46 = getelementptr inbounds %"class.WTF::StringView", %"class.WTF::StringView"* %4, i64 0, i32 2
  store i32 3, i32* %46, align 8
  call void @_ZN3WTF13StringBuilder6AppendERKNS_10StringViewE(%"class.WTF::StringBuilder"* nonnull %2, %"class.WTF::StringView"* nonnull dereferenceable(24) %4)
  call void @llvm.lifetime.end.p0i8(i64 24, i8* nonnull %42) #8
  %47 = getelementptr inbounds %"class.blink::StyleRuleKeyframe", %"class.blink::StyleRuleKeyframe"* %0, i64 0, i32 1, i32 0, i32 0
  %48 = load %"class.blink::CSSPropertyValueSet"*, %"class.blink::CSSPropertyValueSet"** %47, align 8
  %49 = call %"class.WTF::StringImpl"* @_ZNK5blink19CSSPropertyValueSet6AsTextEv(%"class.blink::CSSPropertyValueSet"* %48) #8
  %50 = bitcast %"class.WTF::StringView"* %5 to i8*
  call void @llvm.lifetime.start.p0i8(i64 24, i8* nonnull %50) #8
  %51 = icmp eq %"class.WTF::StringImpl"* %49, null
  br i1 %51, label %52, label %56

52:                                               ; preds = %41
  %53 = getelementptr inbounds %"class.WTF::StringView", %"class.WTF::StringView"* %5, i64 0, i32 1
  store i8* null, i8** %53, align 8
  %54 = load i64, i64* bitcast (%"class.WTF::StringImpl"** @_ZN3WTF10StringImpl6empty_E to i64*), align 8
  %55 = bitcast %"class.WTF::StringView"* %5 to i64*
  store i64 %54, i64* %55, align 8
  br label %63

56:                                               ; preds = %41
  %57 = getelementptr inbounds %"class.WTF::StringView", %"class.WTF::StringView"* %5, i64 0, i32 0
  store %"class.WTF::StringImpl"* %49, %"class.WTF::StringImpl"** %57, align 8
  %58 = getelementptr inbounds %"class.WTF::StringImpl", %"class.WTF::StringImpl"* %49, i64 0, i32 1
  %59 = load i32, i32* %58, align 4
  %60 = getelementptr inbounds %"class.WTF::StringImpl", %"class.WTF::StringImpl"* %49, i64 1
  %61 = getelementptr inbounds %"class.WTF::StringView", %"class.WTF::StringView"* %5, i64 0, i32 1
  %62 = bitcast i8** %61 to %"class.WTF::StringImpl"**
  store %"class.WTF::StringImpl"* %60, %"class.WTF::StringImpl"** %62, align 8
  br label %63

63:                                               ; preds = %52, %56
  %64 = phi i32 [ %59, %56 ], [ 0, %52 ]
  %65 = getelementptr inbounds %"class.WTF::StringView", %"class.WTF::StringView"* %5, i64 0, i32 2
  store i32 %64, i32* %65, align 8
  call void @_ZN3WTF13StringBuilder6AppendERKNS_10StringViewE(%"class.WTF::StringBuilder"* nonnull %2, %"class.WTF::StringView"* nonnull dereferenceable(24) %5)
  call void @llvm.lifetime.end.p0i8(i64 24, i8* nonnull %50) #8
  br i1 %51, label %71, label %66

66:                                               ; preds = %63
  %67 = getelementptr inbounds %"class.WTF::StringImpl", %"class.WTF::StringImpl"* %49, i64 0, i32 1
  %68 = load i32, i32* %67, align 4
  %69 = icmp eq i32 %68, 0
  br i1 %69, label %71, label %70

70:                                               ; preds = %66
  call void @_ZN3WTF13StringBuilder6AppendEh(%"class.WTF::StringBuilder"* nonnull %2, i8 zeroext 32) #8
  br label %71

71:                                               ; preds = %63, %70, %66
  call void @_ZN3WTF13StringBuilder6AppendEh(%"class.WTF::StringBuilder"* nonnull %2, i8 zeroext 125) #8
  %72 = call %"class.WTF::StringImpl"* @_ZN3WTF13StringBuilder8ToStringEv(%"class.WTF::StringBuilder"* nonnull %2) #8
  br i1 %51, label %86, label %73

73:                                               ; preds = %71
  %74 = getelementptr inbounds %"class.WTF::StringImpl", %"class.WTF::StringImpl"* %49, i64 0, i32 2, i32 0, i32 0, i32 0, i32 0, i32 0
  %75 = load atomic i32, i32* %74 monotonic, align 4
  %76 = and i32 %75, 2
  %77 = icmp eq i32 %76, 0
  %78 = getelementptr inbounds %"class.WTF::StringImpl", %"class.WTF::StringImpl"* %49, i64 0, i32 0
  %79 = load i32, i32* %78, align 4
  br i1 %77, label %80, label %82

80:                                               ; preds = %73
  %81 = add i32 %79, -1
  store i32 %81, i32* %78, align 4
  br label %82

82:                                               ; preds = %80, %73
  %83 = phi i32 [ %81, %80 ], [ %79, %73 ]
  %84 = icmp eq i32 %83, 0
  br i1 %84, label %85, label %86

85:                                               ; preds = %82
  call void @_ZNK3WTF10StringImpl18DestroyIfNotStaticEv(%"class.WTF::StringImpl"* nonnull %49) #8
  br label %86

86:                                               ; preds = %71, %82, %85
  call void @_ZN3WTF13StringBuilder5ClearEv(%"class.WTF::StringBuilder"* nonnull %2) #8
  %87 = load %"class.WTF::StringImpl"*, %"class.WTF::StringImpl"** %7, align 8
  %88 = icmp eq %"class.WTF::StringImpl"* %87, null
  br i1 %88, label %102, label %89

89:                                               ; preds = %86
  %90 = getelementptr inbounds %"class.WTF::StringImpl", %"class.WTF::StringImpl"* %87, i64 0, i32 2, i32 0, i32 0, i32 0, i32 0, i32 0
  %91 = load atomic i32, i32* %90 monotonic, align 4
  %92 = and i32 %91, 2
  %93 = icmp eq i32 %92, 0
  %94 = getelementptr inbounds %"class.WTF::StringImpl", %"class.WTF::StringImpl"* %87, i64 0, i32 0
  %95 = load i32, i32* %94, align 4
  br i1 %93, label %96, label %98

96:                                               ; preds = %89
  %97 = add i32 %95, -1
  store i32 %97, i32* %94, align 4
  br label %98

98:                                               ; preds = %96, %89
  %99 = phi i32 [ %97, %96 ], [ %95, %89 ]
  %100 = icmp eq i32 %99, 0
  br i1 %100, label %101, label %102

101:                                              ; preds = %98
  call void @_ZNK3WTF10StringImpl18DestroyIfNotStaticEv(%"class.WTF::StringImpl"* nonnull %87) #8
  br label %102

102:                                              ; preds = %86, %98, %101
  call void @llvm.lifetime.end.p0i8(i64 48, i8* nonnull %6) #8
  ret %"class.WTF::StringImpl"* %72
}

declare %"class.WTF::StringImpl"* @_ZNK5blink19CSSPropertyValueSet6AsTextEv(%"class.blink::CSSPropertyValueSet"*) local_unnamed_addr #2

; Function Attrs: nounwind ssp uwtable
define hidden void @_ZNK5blink17StyleRuleKeyframe18TraceAfterDispatchEPNS_7VisitorE(%"class.blink::StyleRuleKeyframe"* nocapture readonly, %"class.blink::Visitor"*) local_unnamed_addr #0 align 2 {
  %3 = getelementptr inbounds %"class.blink::StyleRuleKeyframe", %"class.blink::StyleRuleKeyframe"* %0, i64 0, i32 1
  %4 = bitcast %"class.blink::Member"* %3 to i64*
  %5 = load atomic i64, i64* %4 monotonic, align 8
  %6 = icmp eq i64 %5, 0
  br i1 %6, label %13, label %7

7:                                                ; preds = %2
  %8 = inttoptr i64 %5 to i8*
  %9 = bitcast %"class.blink::Visitor"* %1 to void (%"class.blink::Visitor"*, i8*, i8*, void (%"class.blink::Visitor"*, i8*)*)***
  %10 = load void (%"class.blink::Visitor"*, i8*, i8*, void (%"class.blink::Visitor"*, i8*)*)**, void (%"class.blink::Visitor"*, i8*, i8*, void (%"class.blink::Visitor"*, i8*)*)*** %9, align 8
  %11 = getelementptr inbounds void (%"class.blink::Visitor"*, i8*, i8*, void (%"class.blink::Visitor"*, i8*)*)*, void (%"class.blink::Visitor"*, i8*, i8*, void (%"class.blink::Visitor"*, i8*)*)** %10, i64 5
  %12 = load void (%"class.blink::Visitor"*, i8*, i8*, void (%"class.blink::Visitor"*, i8*)*)*, void (%"class.blink::Visitor"*, i8*, i8*, void (%"class.blink::Visitor"*, i8*)*)** %11, align 8
  tail call void %12(%"class.blink::Visitor"* %1, i8* nonnull %8, i8* nonnull %8, void (%"class.blink::Visitor"*, i8*)* nonnull @_ZN5blink10TraceTraitINS_19CSSPropertyValueSetEE5TraceEPNS_7VisitorEPKv) #8
  br label %13

13:                                               ; preds = %2, %7
  ret void
}

declare void @_ZN3WTF13StringBuilder6AppendEPKhj(%"class.WTF::StringBuilder"*, i8*, i32) local_unnamed_addr #2

declare void @_ZN3WTF13StringBuilder6AppendEPKDsj(%"class.WTF::StringBuilder"*, i16*, i32) local_unnamed_addr #2

; Function Attrs: nounwind readnone speculatable
declare { i33, i1 } @llvm.sadd.with.overflow.i33(i33, i33) #4

; Function Attrs: cold noreturn nounwind
declare void @llvm.trap() #5

declare void @_ZNK3WTF10StringImpl18DestroyIfNotStaticEv(%"class.WTF::StringImpl"*) local_unnamed_addr #2

; Function Attrs: nounwind ssp uwtable
define linkonce_odr hidden void @_ZN3WTF13StringBuilder6AppendEh(%"class.WTF::StringBuilder"*, i8 zeroext) local_unnamed_addr #0 comdat align 2 {
  %3 = alloca i16, align 2
  %4 = alloca i8, align 1
  store i8 %1, i8* %4, align 1
  %5 = getelementptr inbounds %"class.WTF::StringBuilder", %"class.WTF::StringBuilder"* %0, i64 0, i32 3
  %6 = load i8, i8* %5, align 4, !range !4
  %7 = icmp eq i8 %6, 0
  br i1 %7, label %8, label %35

8:                                                ; preds = %2
  %9 = zext i8 %1 to i16
  %10 = bitcast i16* %3 to i8*
  call void @llvm.lifetime.start.p0i8(i64 2, i8* nonnull %10)
  store i16 %9, i16* %3, align 2
  %11 = getelementptr inbounds %"class.WTF::StringBuilder", %"class.WTF::StringBuilder"* %0, i64 0, i32 4
  %12 = load i8, i8* %11, align 1, !range !4
  %13 = icmp eq i8 %12, 0
  br i1 %13, label %14, label %15

14:                                               ; preds = %8
  tail call void @_ZN3WTF13StringBuilder14CreateBuffer16Ej(%"class.WTF::StringBuilder"* %0, i32 1) #8
  br label %15

15:                                               ; preds = %14, %8
  %16 = getelementptr inbounds %"class.WTF::StringBuilder", %"class.WTF::StringBuilder"* %0, i64 0, i32 1
  %17 = getelementptr inbounds %"class.WTF::StringBuilder", %"class.WTF::StringBuilder"* %0, i64 0, i32 1, i32 0, i32 0, i32 0, i32 2
  %18 = load i32, i32* %17, align 4
  %19 = getelementptr inbounds %"class.WTF::StringBuilder", %"class.WTF::StringBuilder"* %0, i64 0, i32 1, i32 0, i32 0, i32 0, i32 1
  %20 = load i32, i32* %19, align 8
  %21 = icmp eq i32 %18, %20
  br i1 %21, label %29, label %22, !prof !3

22:                                               ; preds = %15
  %23 = bitcast %union.anon* %16 to i16**
  %24 = load i16*, i16** %23, align 8
  %25 = zext i32 %18 to i64
  %26 = getelementptr inbounds i16, i16* %24, i64 %25
  store i16 %9, i16* %26, align 2
  %27 = load i32, i32* %17, align 4
  %28 = add i32 %27, 1
  store i32 %28, i32* %17, align 4
  br label %31

29:                                               ; preds = %15
  %30 = bitcast %union.anon* %16 to %"class.WTF::Vector.9"*
  call void @_ZN3WTF6VectorIDsLj8ENS_18PartitionAllocatorEE14AppendSlowCaseIRDsEEvOT_(%"class.WTF::Vector.9"* %30, i16* nonnull dereferenceable(2) %3) #8
  br label %31

31:                                               ; preds = %22, %29
  %32 = getelementptr inbounds %"class.WTF::StringBuilder", %"class.WTF::StringBuilder"* %0, i64 0, i32 2
  %33 = load i32, i32* %32, align 8
  %34 = add i32 %33, 1
  store i32 %34, i32* %32, align 8
  call void @llvm.lifetime.end.p0i8(i64 2, i8* nonnull %10)
  br label %59

35:                                               ; preds = %2
  %36 = getelementptr inbounds %"class.WTF::StringBuilder", %"class.WTF::StringBuilder"* %0, i64 0, i32 4
  %37 = load i8, i8* %36, align 1, !range !4
  %38 = icmp eq i8 %37, 0
  br i1 %38, label %39, label %40

39:                                               ; preds = %35
  tail call void @_ZN3WTF13StringBuilder13CreateBuffer8Ej(%"class.WTF::StringBuilder"* %0, i32 1) #8
  br label %40

40:                                               ; preds = %35, %39
  %41 = getelementptr inbounds %"class.WTF::StringBuilder", %"class.WTF::StringBuilder"* %0, i64 0, i32 1, i32 0
  %42 = getelementptr inbounds %"class.WTF::StringBuilder", %"class.WTF::StringBuilder"* %0, i64 0, i32 1, i32 0, i32 0, i32 0, i32 2
  %43 = load i32, i32* %42, align 4
  %44 = getelementptr inbounds %"class.WTF::StringBuilder", %"class.WTF::StringBuilder"* %0, i64 0, i32 1, i32 0, i32 0, i32 0, i32 1
  %45 = load i32, i32* %44, align 8
  %46 = icmp eq i32 %43, %45
  br i1 %46, label %54, label %47, !prof !3

47:                                               ; preds = %40
  %48 = getelementptr inbounds %"class.WTF::Vector.4", %"class.WTF::Vector.4"* %41, i64 0, i32 0, i32 0, i32 0
  %49 = load i8*, i8** %48, align 8
  %50 = zext i32 %43 to i64
  %51 = getelementptr inbounds i8, i8* %49, i64 %50
  store i8 %1, i8* %51, align 1
  %52 = load i32, i32* %42, align 4
  %53 = add i32 %52, 1
  store i32 %53, i32* %42, align 4
  br label %55

54:                                               ; preds = %40
  call void @_ZN3WTF6VectorIhLj16ENS_18PartitionAllocatorEE14AppendSlowCaseIRhEEvOT_(%"class.WTF::Vector.4"* %41, i8* nonnull dereferenceable(1) %4) #8
  br label %55

55:                                               ; preds = %47, %54
  %56 = getelementptr inbounds %"class.WTF::StringBuilder", %"class.WTF::StringBuilder"* %0, i64 0, i32 2
  %57 = load i32, i32* %56, align 8
  %58 = add i32 %57, 1
  store i32 %58, i32* %56, align 8
  br label %59

59:                                               ; preds = %55, %31
  ret void
}

declare void @_ZN3WTF13StringBuilder14CreateBuffer16Ej(%"class.WTF::StringBuilder"*, i32) local_unnamed_addr #2

; Function Attrs: noinline nounwind ssp uwtable
define linkonce_odr hidden void @_ZN3WTF6VectorIDsLj8ENS_18PartitionAllocatorEE14AppendSlowCaseIRDsEEvOT_(%"class.WTF::Vector.9"*, i16* dereferenceable(2)) local_unnamed_addr #6 comdat align 2 {
  %3 = getelementptr inbounds %"class.WTF::Vector.9", %"class.WTF::Vector.9"* %0, i64 0, i32 0, i32 0, i32 2
  %4 = load i32, i32* %3, align 4
  %5 = add i32 %4, 1
  %6 = getelementptr inbounds %"class.WTF::Vector.9", %"class.WTF::Vector.9"* %0, i64 0, i32 0, i32 0, i32 0
  %7 = load i16*, i16** %6, align 8
  %8 = icmp ugt i16* %7, %1
  br i1 %8, label %13, label %9

9:                                                ; preds = %2
  %10 = zext i32 %4 to i64
  %11 = getelementptr inbounds i16, i16* %7, i64 %10
  %12 = icmp ugt i16* %11, %1
  br i1 %12, label %15, label %13

13:                                               ; preds = %9, %2
  tail call void @_ZN3WTF6VectorIDsLj8ENS_18PartitionAllocatorEE14ExpandCapacityEj(%"class.WTF::Vector.9"* %0, i32 %5) #8
  %14 = load i16*, i16** %6, align 8
  br label %22

15:                                               ; preds = %9
  %16 = ptrtoint i16* %1 to i64
  %17 = ptrtoint i16* %7 to i64
  %18 = sub i64 %16, %17
  %19 = ashr exact i64 %18, 1
  tail call void @_ZN3WTF6VectorIDsLj8ENS_18PartitionAllocatorEE14ExpandCapacityEj(%"class.WTF::Vector.9"* %0, i32 %5) #8
  %20 = load i16*, i16** %6, align 8
  %21 = getelementptr inbounds i16, i16* %20, i64 %19
  br label %22

22:                                               ; preds = %13, %15
  %23 = phi i16* [ %14, %13 ], [ %20, %15 ]
  %24 = phi i16* [ %1, %13 ], [ %21, %15 ]
  %25 = load i32, i32* %3, align 4
  %26 = zext i32 %25 to i64
  %27 = getelementptr inbounds i16, i16* %23, i64 %26
  %28 = load i16, i16* %24, align 2
  store i16 %28, i16* %27, align 2
  %29 = load i32, i32* %3, align 4
  %30 = add i32 %29, 1
  store i32 %30, i32* %3, align 4
  ret void
}

; Function Attrs: nounwind ssp uwtable
define linkonce_odr hidden void @_ZN3WTF6VectorIDsLj8ENS_18PartitionAllocatorEE14ExpandCapacityEj(%"class.WTF::Vector.9"*, i32) local_unnamed_addr #0 comdat align 2 {
  %3 = alloca %"class.logging::CheckOpResult", align 8
  %4 = alloca %"class.logging::CheckOpResult", align 8
  %5 = alloca %"class.logging::CheckError", align 8
  %6 = getelementptr inbounds %"class.WTF::Vector.9", %"class.WTF::Vector.9"* %0, i64 0, i32 0, i32 0, i32 1
  %7 = load i32, i32* %6, align 8
  %8 = shl i32 %7, 1
  %9 = bitcast %"class.logging::CheckOpResult"* %4 to i8*
  call void @llvm.lifetime.start.p0i8(i64 8, i8* nonnull %9) #8
  %10 = getelementptr inbounds %"class.logging::CheckOpResult", %"class.logging::CheckOpResult"* %4, i64 0, i32 0
  store i8* inttoptr (i64 -6148914691236517206 to i8*), i8** %10, align 8
  %11 = bitcast %"class.logging::CheckOpResult"* %3 to i8*
  call void @llvm.lifetime.start.p0i8(i64 8, i8* nonnull %11)
  %12 = icmp ugt i32 %8, %7
  br i1 %12, label %13, label %14

13:                                               ; preds = %2
  call void @llvm.lifetime.end.p0i8(i64 8, i8* nonnull %11)
  store i8* null, i8** %10, align 8
  br label %23

14:                                               ; preds = %2
  %15 = tail call i8* @_ZN7logging15CheckOpValueStrEj(i32 %8) #8
  %16 = tail call i8* @_ZN7logging15CheckOpValueStrEj(i32 %7) #8
  call void @_ZN7logging13CheckOpResultC1EPKcPcS3_(%"class.logging::CheckOpResult"* nonnull %3, i8* getelementptr inbounds ([33 x i8], [33 x i8]* @.str.2, i64 0, i64 0), i8* %15, i8* %16) #8
  %17 = getelementptr inbounds %"class.logging::CheckOpResult", %"class.logging::CheckOpResult"* %3, i64 0, i32 0
  %18 = load i8*, i8** %17, align 8
  call void @llvm.lifetime.end.p0i8(i64 8, i8* nonnull %11)
  store i8* %18, i8** %10, align 8
  %19 = icmp eq i8* %18, null
  br i1 %19, label %23, label %20

20:                                               ; preds = %14
  %21 = bitcast %"class.logging::CheckError"* %5 to i8*
  call void @llvm.lifetime.start.p0i8(i64 8, i8* nonnull %21) #8
  call void @_ZN7logging10CheckError7CheckOpEPKciPNS_13CheckOpResultE(%"class.logging::CheckError"* nonnull sret %5, i8* getelementptr inbounds ([55 x i8], [55 x i8]* @.str.3, i64 0, i64 0), i32 1715, %"class.logging::CheckOpResult"* nonnull %4) #8
  %22 = call dereferenceable(160) %"class.std::__1::basic_ostream"* @_ZN7logging10CheckError6streamEv(%"class.logging::CheckError"* nonnull %5) #8
  call void @_ZN7logging10CheckErrorD1Ev(%"class.logging::CheckError"* nonnull %5) #8
  call void @llvm.lifetime.end.p0i8(i64 8, i8* nonnull %21) #8
  br label %23

23:                                               ; preds = %13, %14, %20
  call void @llvm.lifetime.end.p0i8(i64 8, i8* nonnull %9) #8
  %24 = icmp ugt i32 %8, 4
  %25 = select i1 %24, i32 %8, i32 4
  %26 = icmp ugt i32 %25, %1
  %27 = select i1 %26, i32 %25, i32 %1
  %28 = load i32, i32* %6, align 8
  %29 = icmp ult i32 %28, %27
  br i1 %29, label %30, label %51, !prof !2

30:                                               ; preds = %23
  %31 = getelementptr inbounds %"class.WTF::Vector.9", %"class.WTF::Vector.9"* %0, i64 0, i32 0, i32 0, i32 0
  %32 = load i16*, i16** %31, align 8
  %33 = icmp eq i16* %32, null
  br i1 %33, label %34, label %50

34:                                               ; preds = %30
  %35 = icmp ugt i32 %27, 8
  br i1 %35, label %36, label %44

36:                                               ; preds = %34
  %37 = zext i32 %27 to i64
  %38 = call i64 @_ZN3WTF18PartitionAllocator13QuantizedSizeIDsEEmm(i64 %37) #8
  %39 = call i8* @_ZN3WTF18PartitionAllocator15AllocateBackingEmPKc(i64 %38, i8* getelementptr inbounds ([56 x i8], [56 x i8]* @__PRETTY_FUNCTION__._ZN3WTF21GetStringWithTypeNameIDsEEPKcv, i64 0, i64 0)) #8
  %40 = ptrtoint i8* %39 to i64
  %41 = bitcast %"class.WTF::Vector.9"* %0 to i64*
  store atomic i64 %40, i64* %41 monotonic, align 8
  %42 = lshr i64 %38, 1
  %43 = trunc i64 %42 to i32
  br label %48

44:                                               ; preds = %34
  %45 = getelementptr inbounds %"class.WTF::Vector.9", %"class.WTF::Vector.9"* %0, i64 0, i32 0, i32 1, i64 0
  %46 = ptrtoint i8* %45 to i64
  %47 = bitcast %"class.WTF::Vector.9"* %0 to i64*
  store atomic i64 %46, i64* %47 monotonic, align 8
  br label %48

48:                                               ; preds = %44, %36
  %49 = phi i32 [ 8, %44 ], [ %43, %36 ]
  store i32 %49, i32* %6, align 8
  br label %51

50:                                               ; preds = %30
  call void @_ZN3WTF6VectorIDsLj8ENS_18PartitionAllocatorEE16ReallocateBufferEj(%"class.WTF::Vector.9"* %0, i32 %27) #8
  br label %51

51:                                               ; preds = %23, %48, %50
  ret void
}

declare void @_ZN7logging10CheckError7CheckOpEPKciPNS_13CheckOpResultE(%"class.logging::CheckError"* sret, i8*, i32, %"class.logging::CheckOpResult"*) local_unnamed_addr #2

declare dereferenceable(160) %"class.std::__1::basic_ostream"* @_ZN7logging10CheckError6streamEv(%"class.logging::CheckError"*) local_unnamed_addr #2

; Function Attrs: nounwind
declare void @_ZN7logging10CheckErrorD1Ev(%"class.logging::CheckError"*) unnamed_addr #7

declare i8* @_ZN7logging15CheckOpValueStrEj(i32) local_unnamed_addr #2

declare void @_ZN7logging13CheckOpResultC1EPKcPcS3_(%"class.logging::CheckOpResult"*, i8*, i8*, i8*) unnamed_addr #2

; Function Attrs: nounwind ssp uwtable
define linkonce_odr hidden void @_ZN3WTF6VectorIDsLj8ENS_18PartitionAllocatorEE16ReallocateBufferEj(%"class.WTF::Vector.9"*, i32) local_unnamed_addr #0 comdat align 2 {
  %3 = icmp ult i32 %1, 9
  br i1 %3, label %4, label %29

4:                                                ; preds = %2
  %5 = getelementptr inbounds %"class.WTF::Vector.9", %"class.WTF::Vector.9"* %0, i64 0, i32 0, i32 0, i32 0
  %6 = load i16*, i16** %5, align 8
  %7 = icmp eq i16* %6, null
  %8 = getelementptr inbounds %"class.WTF::Vector.9", %"class.WTF::Vector.9"* %0, i64 0, i32 0, i32 1, i64 0
  %9 = bitcast i8* %8 to i16*
  %10 = icmp eq i16* %6, %9
  %11 = or i1 %10, %7
  br i1 %11, label %12, label %16

12:                                               ; preds = %4
  %13 = ptrtoint i8* %8 to i64
  %14 = bitcast %"class.WTF::Vector.9"* %0 to i64*
  store atomic i64 %13, i64* %14 monotonic, align 8
  %15 = getelementptr inbounds %"class.WTF::Vector.9", %"class.WTF::Vector.9"* %0, i64 0, i32 0, i32 0, i32 1
  store i32 8, i32* %15, align 8
  br label %58

16:                                               ; preds = %4
  %17 = getelementptr inbounds %"class.WTF::Vector.9", %"class.WTF::Vector.9"* %0, i64 0, i32 0, i32 0, i32 2
  %18 = load i32, i32* %17, align 4
  %19 = getelementptr inbounds %"class.WTF::Vector.9", %"class.WTF::Vector.9"* %0, i64 0, i32 0
  %20 = ptrtoint i8* %8 to i64
  %21 = bitcast %"class.WTF::Vector.9"* %0 to i64*
  store atomic i64 %20, i64* %21 monotonic, align 8
  %22 = getelementptr inbounds %"class.WTF::Vector.9", %"class.WTF::Vector.9"* %0, i64 0, i32 0, i32 0, i32 1
  store i32 8, i32* %22, align 8
  %23 = icmp eq i8* %8, null
  br i1 %23, label %28, label %24, !prof !3

24:                                               ; preds = %16
  %25 = zext i32 %18 to i64
  %26 = bitcast i16* %6 to i8*
  %27 = shl nuw nsw i64 %25, 1
  tail call void @llvm.memcpy.p0i8.p0i8.i64(i8* nonnull align 2 %8, i8* nonnull align 2 %26, i64 %27, i1 false) #8
  br label %28

28:                                               ; preds = %24, %16
  tail call void @_ZN3WTF12VectorBufferIDsLj8ENS_18PartitionAllocatorEE22ReallyDeallocateBufferEPDs(%"class.WTF::VectorBuffer.10"* %19, i16* nonnull %6) #8
  br label %58

29:                                               ; preds = %2
  %30 = zext i32 %1 to i64
  %31 = tail call i64 @_ZN3WTF18PartitionAllocator13QuantizedSizeIDsEEmm(i64 %30) #8
  %32 = tail call i8* @_ZN3WTF18PartitionAllocator15AllocateBackingEmPKc(i64 %31, i8* getelementptr inbounds ([56 x i8], [56 x i8]* @__PRETTY_FUNCTION__._ZN3WTF21GetStringWithTypeNameIDsEEPKcv, i64 0, i64 0)) #8
  %33 = lshr i64 %31, 1
  %34 = ptrtoint i8* %32 to i64
  %35 = getelementptr inbounds %"class.WTF::Vector.9", %"class.WTF::Vector.9"* %0, i64 0, i32 0, i32 0, i32 0
  %36 = load i16*, i16** %35, align 8
  %37 = icmp ne i8* %32, null
  %38 = icmp ne i16* %36, null
  %39 = and i1 %37, %38
  br i1 %39, label %40, label %47, !prof !2

40:                                               ; preds = %29
  %41 = getelementptr inbounds %"class.WTF::Vector.9", %"class.WTF::Vector.9"* %0, i64 0, i32 0, i32 0, i32 2
  %42 = load i32, i32* %41, align 4
  %43 = zext i32 %42 to i64
  %44 = bitcast i16* %36 to i8*
  %45 = shl nuw nsw i64 %43, 1
  tail call void @llvm.memcpy.p0i8.p0i8.i64(i8* nonnull align 2 %32, i8* nonnull align 2 %44, i64 %45, i1 false) #8
  %46 = load i16*, i16** %35, align 8
  br label %47

47:                                               ; preds = %29, %40
  %48 = phi i16* [ %36, %29 ], [ %46, %40 ]
  %49 = getelementptr inbounds %"class.WTF::Vector.9", %"class.WTF::Vector.9"* %0, i64 0, i32 0, i32 1, i64 0
  %50 = bitcast i8* %49 to i16*
  %51 = icmp eq i16* %48, %50
  br i1 %51, label %54, label %52, !prof !2

52:                                               ; preds = %47
  %53 = getelementptr inbounds %"class.WTF::Vector.9", %"class.WTF::Vector.9"* %0, i64 0, i32 0
  tail call void @_ZN3WTF12VectorBufferIDsLj8ENS_18PartitionAllocatorEE22ReallyDeallocateBufferEPDs(%"class.WTF::VectorBuffer.10"* %53, i16* %48) #8
  br label %54

54:                                               ; preds = %47, %52
  %55 = bitcast %"class.WTF::Vector.9"* %0 to i64*
  store atomic i64 %34, i64* %55 monotonic, align 8
  %56 = trunc i64 %33 to i32
  %57 = getelementptr inbounds %"class.WTF::Vector.9", %"class.WTF::Vector.9"* %0, i64 0, i32 0, i32 0, i32 1
  store i32 %56, i32* %57, align 8
  br label %58

58:                                               ; preds = %28, %54, %12
  ret void
}

; Function Attrs: nounwind ssp uwtable
define linkonce_odr hidden i64 @_ZN3WTF18PartitionAllocator13QuantizedSizeIDsEEmm(i64) local_unnamed_addr #0 comdat align 2 {
  %2 = alloca %"class.logging::CheckOpResult", align 8
  %3 = alloca %"class.logging::CheckOpResult", align 8
  %4 = alloca %"class.logging::CheckError", align 8
  %5 = bitcast %"class.logging::CheckOpResult"* %3 to i8*
  call void @llvm.lifetime.start.p0i8(i64 8, i8* nonnull %5) #8
  %6 = getelementptr inbounds %"class.logging::CheckOpResult", %"class.logging::CheckOpResult"* %3, i64 0, i32 0
  store i8* inttoptr (i64 -6148914691236517206 to i8*), i8** %6, align 8
  %7 = bitcast %"class.logging::CheckOpResult"* %2 to i8*
  call void @llvm.lifetime.start.p0i8(i64 8, i8* nonnull %7)
  %8 = icmp ugt i64 %0, 1072693248
  br i1 %8, label %10, label %9

9:                                                ; preds = %1
  call void @llvm.lifetime.end.p0i8(i64 8, i8* nonnull %7)
  store i8* null, i8** %6, align 8
  br label %19

10:                                               ; preds = %1
  %11 = tail call i8* @_ZN7logging15CheckOpValueStrEm(i64 %0) #8
  %12 = tail call i8* @_ZN7logging15CheckOpValueStrEm(i64 1072693248) #8
  call void @_ZN7logging13CheckOpResultC1EPKcPcS3_(%"class.logging::CheckOpResult"* nonnull %2, i8* getelementptr inbounds ([44 x i8], [44 x i8]* @.str.5, i64 0, i64 0), i8* %11, i8* %12) #8
  %13 = getelementptr inbounds %"class.logging::CheckOpResult", %"class.logging::CheckOpResult"* %2, i64 0, i32 0
  %14 = load i8*, i8** %13, align 8
  call void @llvm.lifetime.end.p0i8(i64 8, i8* nonnull %7)
  store i8* %14, i8** %6, align 8
  %15 = icmp eq i8* %14, null
  br i1 %15, label %19, label %16

16:                                               ; preds = %10
  %17 = bitcast %"class.logging::CheckError"* %4 to i8*
  call void @llvm.lifetime.start.p0i8(i64 8, i8* nonnull %17) #8
  call void @_ZN7logging10CheckError7CheckOpEPKciPNS_13CheckOpResultE(%"class.logging::CheckError"* nonnull sret %4, i8* getelementptr inbounds ([78 x i8], [78 x i8]* @.str.6, i64 0, i64 0), i32 31, %"class.logging::CheckOpResult"* nonnull %3) #8
  %18 = call dereferenceable(160) %"class.std::__1::basic_ostream"* @_ZN7logging10CheckError6streamEv(%"class.logging::CheckError"* nonnull %4) #8
  call void @_ZN7logging10CheckErrorD1Ev(%"class.logging::CheckError"* nonnull %4) #8
  call void @llvm.lifetime.end.p0i8(i64 8, i8* nonnull %17) #8
  br label %19

19:                                               ; preds = %9, %10, %16
  call void @llvm.lifetime.end.p0i8(i64 8, i8* nonnull %5) #8
  %20 = shl i64 %0, 1
  %21 = call i64 @_ZN3WTF10Partitions23BufferPotentialCapacityEm(i64 %20) #8
  ret i64 %21
}

declare i64 @_ZN3WTF10Partitions23BufferPotentialCapacityEm(i64) local_unnamed_addr #2

declare i8* @_ZN7logging15CheckOpValueStrEm(i64) local_unnamed_addr #2

declare i8* @_ZN3WTF18PartitionAllocator15AllocateBackingEmPKc(i64, i8*) local_unnamed_addr #2

; Function Attrs: argmemonly nounwind
declare void @llvm.memcpy.p0i8.p0i8.i64(i8* nocapture writeonly, i8* nocapture readonly, i64, i1 immarg) #1

; Function Attrs: noinline nounwind ssp uwtable
define linkonce_odr hidden void @_ZN3WTF12VectorBufferIDsLj8ENS_18PartitionAllocatorEE22ReallyDeallocateBufferEPDs(%"class.WTF::VectorBuffer.10"*, i16*) local_unnamed_addr #6 comdat align 2 {
  %3 = bitcast i16* %1 to i8*
  tail call void @_ZN3WTF18PartitionAllocator11FreeBackingEPv(i8* %3) #8
  ret void
}

declare void @_ZN3WTF18PartitionAllocator11FreeBackingEPv(i8*) local_unnamed_addr #2

declare void @_ZN3WTF13StringBuilder13CreateBuffer8Ej(%"class.WTF::StringBuilder"*, i32) local_unnamed_addr #2

; Function Attrs: noinline nounwind ssp uwtable
define linkonce_odr hidden void @_ZN3WTF6VectorIhLj16ENS_18PartitionAllocatorEE14AppendSlowCaseIRhEEvOT_(%"class.WTF::Vector.4"*, i8* dereferenceable(1)) local_unnamed_addr #6 comdat align 2 {
  %3 = getelementptr inbounds %"class.WTF::Vector.4", %"class.WTF::Vector.4"* %0, i64 0, i32 0, i32 0, i32 2
  %4 = load i32, i32* %3, align 4
  %5 = add i32 %4, 1
  %6 = getelementptr inbounds %"class.WTF::Vector.4", %"class.WTF::Vector.4"* %0, i64 0, i32 0, i32 0, i32 0
  %7 = load i8*, i8** %6, align 8
  %8 = icmp ugt i8* %7, %1
  br i1 %8, label %13, label %9

9:                                                ; preds = %2
  %10 = zext i32 %4 to i64
  %11 = getelementptr inbounds i8, i8* %7, i64 %10
  %12 = icmp ugt i8* %11, %1
  br i1 %12, label %15, label %13

13:                                               ; preds = %9, %2
  tail call void @_ZN3WTF6VectorIhLj16ENS_18PartitionAllocatorEE14ExpandCapacityEj(%"class.WTF::Vector.4"* %0, i32 %5) #8
  %14 = load i8*, i8** %6, align 8
  br label %21

15:                                               ; preds = %9
  %16 = ptrtoint i8* %1 to i64
  %17 = ptrtoint i8* %7 to i64
  %18 = sub i64 %16, %17
  tail call void @_ZN3WTF6VectorIhLj16ENS_18PartitionAllocatorEE14ExpandCapacityEj(%"class.WTF::Vector.4"* %0, i32 %5) #8
  %19 = load i8*, i8** %6, align 8
  %20 = getelementptr inbounds i8, i8* %19, i64 %18
  br label %21

21:                                               ; preds = %13, %15
  %22 = phi i8* [ %14, %13 ], [ %19, %15 ]
  %23 = phi i8* [ %1, %13 ], [ %20, %15 ]
  %24 = load i32, i32* %3, align 4
  %25 = zext i32 %24 to i64
  %26 = getelementptr inbounds i8, i8* %22, i64 %25
  %27 = load i8, i8* %23, align 1
  store i8 %27, i8* %26, align 1
  %28 = load i32, i32* %3, align 4
  %29 = add i32 %28, 1
  store i32 %29, i32* %3, align 4
  ret void
}

; Function Attrs: nounwind ssp uwtable
define linkonce_odr hidden void @_ZN3WTF6VectorIhLj16ENS_18PartitionAllocatorEE14ExpandCapacityEj(%"class.WTF::Vector.4"*, i32) local_unnamed_addr #0 comdat align 2 {
  %3 = alloca %"class.logging::CheckOpResult", align 8
  %4 = alloca %"class.logging::CheckOpResult", align 8
  %5 = alloca %"class.logging::CheckError", align 8
  %6 = getelementptr inbounds %"class.WTF::Vector.4", %"class.WTF::Vector.4"* %0, i64 0, i32 0, i32 0, i32 1
  %7 = load i32, i32* %6, align 8
  %8 = shl i32 %7, 1
  %9 = bitcast %"class.logging::CheckOpResult"* %4 to i8*
  call void @llvm.lifetime.start.p0i8(i64 8, i8* nonnull %9) #8
  %10 = getelementptr inbounds %"class.logging::CheckOpResult", %"class.logging::CheckOpResult"* %4, i64 0, i32 0
  store i8* inttoptr (i64 -6148914691236517206 to i8*), i8** %10, align 8
  %11 = bitcast %"class.logging::CheckOpResult"* %3 to i8*
  call void @llvm.lifetime.start.p0i8(i64 8, i8* nonnull %11)
  %12 = icmp ugt i32 %8, %7
  br i1 %12, label %13, label %14

13:                                               ; preds = %2
  call void @llvm.lifetime.end.p0i8(i64 8, i8* nonnull %11)
  store i8* null, i8** %10, align 8
  br label %23

14:                                               ; preds = %2
  %15 = tail call i8* @_ZN7logging15CheckOpValueStrEj(i32 %8) #8
  %16 = tail call i8* @_ZN7logging15CheckOpValueStrEj(i32 %7) #8
  call void @_ZN7logging13CheckOpResultC1EPKcPcS3_(%"class.logging::CheckOpResult"* nonnull %3, i8* getelementptr inbounds ([33 x i8], [33 x i8]* @.str.2, i64 0, i64 0), i8* %15, i8* %16) #8
  %17 = getelementptr inbounds %"class.logging::CheckOpResult", %"class.logging::CheckOpResult"* %3, i64 0, i32 0
  %18 = load i8*, i8** %17, align 8
  call void @llvm.lifetime.end.p0i8(i64 8, i8* nonnull %11)
  store i8* %18, i8** %10, align 8
  %19 = icmp eq i8* %18, null
  br i1 %19, label %23, label %20

20:                                               ; preds = %14
  %21 = bitcast %"class.logging::CheckError"* %5 to i8*
  call void @llvm.lifetime.start.p0i8(i64 8, i8* nonnull %21) #8
  call void @_ZN7logging10CheckError7CheckOpEPKciPNS_13CheckOpResultE(%"class.logging::CheckError"* nonnull sret %5, i8* getelementptr inbounds ([55 x i8], [55 x i8]* @.str.3, i64 0, i64 0), i32 1715, %"class.logging::CheckOpResult"* nonnull %4) #8
  %22 = call dereferenceable(160) %"class.std::__1::basic_ostream"* @_ZN7logging10CheckError6streamEv(%"class.logging::CheckError"* nonnull %5) #8
  call void @_ZN7logging10CheckErrorD1Ev(%"class.logging::CheckError"* nonnull %5) #8
  call void @llvm.lifetime.end.p0i8(i64 8, i8* nonnull %21) #8
  br label %23

23:                                               ; preds = %13, %14, %20
  call void @llvm.lifetime.end.p0i8(i64 8, i8* nonnull %9) #8
  %24 = icmp ugt i32 %8, 4
  %25 = select i1 %24, i32 %8, i32 4
  %26 = icmp ugt i32 %25, %1
  %27 = select i1 %26, i32 %25, i32 %1
  %28 = load i32, i32* %6, align 8
  %29 = icmp ult i32 %28, %27
  br i1 %29, label %30, label %50, !prof !2

30:                                               ; preds = %23
  %31 = getelementptr inbounds %"class.WTF::Vector.4", %"class.WTF::Vector.4"* %0, i64 0, i32 0, i32 0, i32 0
  %32 = load i8*, i8** %31, align 8
  %33 = icmp eq i8* %32, null
  br i1 %33, label %34, label %49

34:                                               ; preds = %30
  %35 = icmp ugt i32 %27, 16
  br i1 %35, label %36, label %43

36:                                               ; preds = %34
  %37 = zext i32 %27 to i64
  %38 = call i64 @_ZN3WTF18PartitionAllocator13QuantizedSizeIhEEmm(i64 %37) #8
  %39 = call i8* @_ZN3WTF18PartitionAllocator15AllocateBackingEmPKc(i64 %38, i8* getelementptr inbounds ([61 x i8], [61 x i8]* @__PRETTY_FUNCTION__._ZN3WTF21GetStringWithTypeNameIhEEPKcv, i64 0, i64 0)) #8
  %40 = ptrtoint i8* %39 to i64
  %41 = bitcast %"class.WTF::Vector.4"* %0 to i64*
  store atomic i64 %40, i64* %41 monotonic, align 8
  %42 = trunc i64 %38 to i32
  br label %47

43:                                               ; preds = %34
  %44 = getelementptr inbounds %"class.WTF::Vector.4", %"class.WTF::Vector.4"* %0, i64 0, i32 0, i32 1, i64 0
  %45 = ptrtoint i8* %44 to i64
  %46 = bitcast %"class.WTF::Vector.4"* %0 to i64*
  store atomic i64 %45, i64* %46 monotonic, align 8
  br label %47

47:                                               ; preds = %43, %36
  %48 = phi i32 [ 16, %43 ], [ %42, %36 ]
  store i32 %48, i32* %6, align 8
  br label %50

49:                                               ; preds = %30
  call void @_ZN3WTF6VectorIhLj16ENS_18PartitionAllocatorEE16ReallocateBufferEj(%"class.WTF::Vector.4"* %0, i32 %27) #8
  br label %50

50:                                               ; preds = %23, %47, %49
  ret void
}

; Function Attrs: nounwind ssp uwtable
define linkonce_odr hidden void @_ZN3WTF6VectorIhLj16ENS_18PartitionAllocatorEE16ReallocateBufferEj(%"class.WTF::Vector.4"*, i32) local_unnamed_addr #0 comdat align 2 {
  %3 = icmp ult i32 %1, 17
  br i1 %3, label %4, label %26

4:                                                ; preds = %2
  %5 = getelementptr inbounds %"class.WTF::Vector.4", %"class.WTF::Vector.4"* %0, i64 0, i32 0, i32 0, i32 0
  %6 = load i8*, i8** %5, align 8
  %7 = icmp eq i8* %6, null
  %8 = getelementptr inbounds %"class.WTF::Vector.4", %"class.WTF::Vector.4"* %0, i64 0, i32 0, i32 1, i64 0
  %9 = icmp eq i8* %8, %6
  %10 = or i1 %7, %9
  br i1 %10, label %11, label %15

11:                                               ; preds = %4
  %12 = ptrtoint i8* %8 to i64
  %13 = bitcast %"class.WTF::Vector.4"* %0 to i64*
  store atomic i64 %12, i64* %13 monotonic, align 8
  %14 = getelementptr inbounds %"class.WTF::Vector.4", %"class.WTF::Vector.4"* %0, i64 0, i32 0, i32 0, i32 1
  store i32 16, i32* %14, align 8
  br label %51

15:                                               ; preds = %4
  %16 = getelementptr inbounds %"class.WTF::Vector.4", %"class.WTF::Vector.4"* %0, i64 0, i32 0, i32 0, i32 2
  %17 = load i32, i32* %16, align 4
  %18 = getelementptr inbounds %"class.WTF::Vector.4", %"class.WTF::Vector.4"* %0, i64 0, i32 0
  %19 = ptrtoint i8* %8 to i64
  %20 = bitcast %"class.WTF::Vector.4"* %0 to i64*
  store atomic i64 %19, i64* %20 monotonic, align 8
  %21 = getelementptr inbounds %"class.WTF::Vector.4", %"class.WTF::Vector.4"* %0, i64 0, i32 0, i32 0, i32 1
  store i32 16, i32* %21, align 8
  %22 = icmp eq i8* %8, null
  br i1 %22, label %25, label %23, !prof !3

23:                                               ; preds = %15
  %24 = zext i32 %17 to i64
  tail call void @llvm.memcpy.p0i8.p0i8.i64(i8* nonnull align 1 %8, i8* nonnull align 1 %6, i64 %24, i1 false) #8
  br label %25

25:                                               ; preds = %23, %15
  tail call void @_ZN3WTF12VectorBufferIhLj16ENS_18PartitionAllocatorEE22ReallyDeallocateBufferEPh(%"class.WTF::VectorBuffer.5"* %18, i8* nonnull %6) #8
  br label %51

26:                                               ; preds = %2
  %27 = zext i32 %1 to i64
  %28 = tail call i64 @_ZN3WTF18PartitionAllocator13QuantizedSizeIhEEmm(i64 %27) #8
  %29 = tail call i8* @_ZN3WTF18PartitionAllocator15AllocateBackingEmPKc(i64 %28, i8* getelementptr inbounds ([61 x i8], [61 x i8]* @__PRETTY_FUNCTION__._ZN3WTF21GetStringWithTypeNameIhEEPKcv, i64 0, i64 0)) #8
  %30 = ptrtoint i8* %29 to i64
  %31 = getelementptr inbounds %"class.WTF::Vector.4", %"class.WTF::Vector.4"* %0, i64 0, i32 0, i32 0, i32 0
  %32 = load i8*, i8** %31, align 8
  %33 = icmp ne i8* %29, null
  %34 = icmp ne i8* %32, null
  %35 = and i1 %33, %34
  br i1 %35, label %36, label %41, !prof !2

36:                                               ; preds = %26
  %37 = getelementptr inbounds %"class.WTF::Vector.4", %"class.WTF::Vector.4"* %0, i64 0, i32 0, i32 0, i32 2
  %38 = load i32, i32* %37, align 4
  %39 = zext i32 %38 to i64
  tail call void @llvm.memcpy.p0i8.p0i8.i64(i8* nonnull align 1 %29, i8* nonnull align 1 %32, i64 %39, i1 false) #8
  %40 = load i8*, i8** %31, align 8
  br label %41

41:                                               ; preds = %26, %36
  %42 = phi i8* [ %32, %26 ], [ %40, %36 ]
  %43 = getelementptr inbounds %"class.WTF::Vector.4", %"class.WTF::Vector.4"* %0, i64 0, i32 0, i32 1, i64 0
  %44 = icmp eq i8* %43, %42
  br i1 %44, label %47, label %45, !prof !2

45:                                               ; preds = %41
  %46 = getelementptr inbounds %"class.WTF::Vector.4", %"class.WTF::Vector.4"* %0, i64 0, i32 0
  tail call void @_ZN3WTF12VectorBufferIhLj16ENS_18PartitionAllocatorEE22ReallyDeallocateBufferEPh(%"class.WTF::VectorBuffer.5"* %46, i8* %42) #8
  br label %47

47:                                               ; preds = %41, %45
  %48 = bitcast %"class.WTF::Vector.4"* %0 to i64*
  store atomic i64 %30, i64* %48 monotonic, align 8
  %49 = trunc i64 %28 to i32
  %50 = getelementptr inbounds %"class.WTF::Vector.4", %"class.WTF::Vector.4"* %0, i64 0, i32 0, i32 0, i32 1
  store i32 %49, i32* %50, align 8
  br label %51

51:                                               ; preds = %25, %47, %11
  ret void
}

; Function Attrs: nounwind ssp uwtable
define linkonce_odr hidden i64 @_ZN3WTF18PartitionAllocator13QuantizedSizeIhEEmm(i64) local_unnamed_addr #0 comdat align 2 {
  %2 = alloca %"class.logging::CheckOpResult", align 8
  %3 = alloca %"class.logging::CheckOpResult", align 8
  %4 = alloca %"class.logging::CheckError", align 8
  %5 = bitcast %"class.logging::CheckOpResult"* %3 to i8*
  call void @llvm.lifetime.start.p0i8(i64 8, i8* nonnull %5) #8
  %6 = getelementptr inbounds %"class.logging::CheckOpResult", %"class.logging::CheckOpResult"* %3, i64 0, i32 0
  store i8* inttoptr (i64 -6148914691236517206 to i8*), i8** %6, align 8
  %7 = bitcast %"class.logging::CheckOpResult"* %2 to i8*
  call void @llvm.lifetime.start.p0i8(i64 8, i8* nonnull %7)
  %8 = icmp ugt i64 %0, 2145386496
  br i1 %8, label %10, label %9

9:                                                ; preds = %1
  call void @llvm.lifetime.end.p0i8(i64 8, i8* nonnull %7)
  store i8* null, i8** %6, align 8
  br label %19

10:                                               ; preds = %1
  %11 = tail call i8* @_ZN7logging15CheckOpValueStrEm(i64 %0) #8
  %12 = tail call i8* @_ZN7logging15CheckOpValueStrEm(i64 2145386496) #8
  call void @_ZN7logging13CheckOpResultC1EPKcPcS3_(%"class.logging::CheckOpResult"* nonnull %2, i8* getelementptr inbounds ([44 x i8], [44 x i8]* @.str.5, i64 0, i64 0), i8* %11, i8* %12) #8
  %13 = getelementptr inbounds %"class.logging::CheckOpResult", %"class.logging::CheckOpResult"* %2, i64 0, i32 0
  %14 = load i8*, i8** %13, align 8
  call void @llvm.lifetime.end.p0i8(i64 8, i8* nonnull %7)
  store i8* %14, i8** %6, align 8
  %15 = icmp eq i8* %14, null
  br i1 %15, label %19, label %16

16:                                               ; preds = %10
  %17 = bitcast %"class.logging::CheckError"* %4 to i8*
  call void @llvm.lifetime.start.p0i8(i64 8, i8* nonnull %17) #8
  call void @_ZN7logging10CheckError7CheckOpEPKciPNS_13CheckOpResultE(%"class.logging::CheckError"* nonnull sret %4, i8* getelementptr inbounds ([78 x i8], [78 x i8]* @.str.6, i64 0, i64 0), i32 31, %"class.logging::CheckOpResult"* nonnull %3) #8
  %18 = call dereferenceable(160) %"class.std::__1::basic_ostream"* @_ZN7logging10CheckError6streamEv(%"class.logging::CheckError"* nonnull %4) #8
  call void @_ZN7logging10CheckErrorD1Ev(%"class.logging::CheckError"* nonnull %4) #8
  call void @llvm.lifetime.end.p0i8(i64 8, i8* nonnull %17) #8
  br label %19

19:                                               ; preds = %9, %10, %16
  call void @llvm.lifetime.end.p0i8(i64 8, i8* nonnull %5) #8
  %20 = call i64 @_ZN3WTF10Partitions23BufferPotentialCapacityEm(i64 %0) #8
  ret i64 %20
}

; Function Attrs: noinline nounwind ssp uwtable
define linkonce_odr hidden void @_ZN3WTF12VectorBufferIhLj16ENS_18PartitionAllocatorEE22ReallyDeallocateBufferEPh(%"class.WTF::VectorBuffer.5"*, i8*) local_unnamed_addr #6 comdat align 2 {
  tail call void @_ZN3WTF18PartitionAllocator11FreeBackingEPv(i8* %1) #8
  ret void
}

declare void @_ZN3WTF13StringBuilder5ClearEv(%"class.WTF::StringBuilder"*) local_unnamed_addr #2

declare void @_ZN3WTF10Partitions8FastFreeEPv(i8*) local_unnamed_addr #2

; Function Attrs: nounwind ssp uwtable
define linkonce_odr hidden i64 @_ZN3WTF18PartitionAllocator13QuantizedSizeIdEEmm(i64) local_unnamed_addr #0 comdat align 2 {
  %2 = alloca %"class.logging::CheckOpResult", align 8
  %3 = alloca %"class.logging::CheckOpResult", align 8
  %4 = alloca %"class.logging::CheckError", align 8
  %5 = bitcast %"class.logging::CheckOpResult"* %3 to i8*
  call void @llvm.lifetime.start.p0i8(i64 8, i8* nonnull %5) #8
  %6 = getelementptr inbounds %"class.logging::CheckOpResult", %"class.logging::CheckOpResult"* %3, i64 0, i32 0
  store i8* inttoptr (i64 -6148914691236517206 to i8*), i8** %6, align 8
  %7 = bitcast %"class.logging::CheckOpResult"* %2 to i8*
  call void @llvm.lifetime.start.p0i8(i64 8, i8* nonnull %7)
  %8 = icmp ugt i64 %0, 268173312
  br i1 %8, label %10, label %9

9:                                                ; preds = %1
  call void @llvm.lifetime.end.p0i8(i64 8, i8* nonnull %7)
  store i8* null, i8** %6, align 8
  br label %19

10:                                               ; preds = %1
  %11 = tail call i8* @_ZN7logging15CheckOpValueStrEm(i64 %0) #8
  %12 = tail call i8* @_ZN7logging15CheckOpValueStrEm(i64 268173312) #8
  call void @_ZN7logging13CheckOpResultC1EPKcPcS3_(%"class.logging::CheckOpResult"* nonnull %2, i8* getelementptr inbounds ([44 x i8], [44 x i8]* @.str.5, i64 0, i64 0), i8* %11, i8* %12) #8
  %13 = getelementptr inbounds %"class.logging::CheckOpResult", %"class.logging::CheckOpResult"* %2, i64 0, i32 0
  %14 = load i8*, i8** %13, align 8
  call void @llvm.lifetime.end.p0i8(i64 8, i8* nonnull %7)
  store i8* %14, i8** %6, align 8
  %15 = icmp eq i8* %14, null
  br i1 %15, label %19, label %16

16:                                               ; preds = %10
  %17 = bitcast %"class.logging::CheckError"* %4 to i8*
  call void @llvm.lifetime.start.p0i8(i64 8, i8* nonnull %17) #8
  call void @_ZN7logging10CheckError7CheckOpEPKciPNS_13CheckOpResultE(%"class.logging::CheckError"* nonnull sret %4, i8* getelementptr inbounds ([78 x i8], [78 x i8]* @.str.6, i64 0, i64 0), i32 31, %"class.logging::CheckOpResult"* nonnull %3) #8
  %18 = call dereferenceable(160) %"class.std::__1::basic_ostream"* @_ZN7logging10CheckError6streamEv(%"class.logging::CheckError"* nonnull %4) #8
  call void @_ZN7logging10CheckErrorD1Ev(%"class.logging::CheckError"* nonnull %4) #8
  call void @llvm.lifetime.end.p0i8(i64 8, i8* nonnull %17) #8
  br label %19

19:                                               ; preds = %9, %10, %16
  call void @llvm.lifetime.end.p0i8(i64 8, i8* nonnull %5) #8
  %20 = shl i64 %0, 3
  %21 = call i64 @_ZN3WTF10Partitions23BufferPotentialCapacityEm(i64 %20) #8
  ret i64 %21
}

declare zeroext i1 @_ZN5blink14MarkingVisitor16WriteBarrierSlowEPv(i8*) local_unnamed_addr #2

; Function Attrs: nounwind ssp uwtable
define linkonce_odr hidden void @_ZN5blink10TraceTraitINS_19CSSPropertyValueSetEE5TraceEPNS_7VisitorEPKv(%"class.blink::Visitor"*, i8*) #0 comdat align 2 {
  %3 = bitcast i8* %1 to %"class.blink::CSSPropertyValueSet"*
  tail call void @_ZNK5blink19CSSPropertyValueSet5TraceEPNS_7VisitorE(%"class.blink::CSSPropertyValueSet"* %3, %"class.blink::Visitor"* %0) #8
  ret void
}

declare void @_ZNK5blink19CSSPropertyValueSet5TraceEPNS_7VisitorE(%"class.blink::CSSPropertyValueSet"*, %"class.blink::Visitor"*) local_unnamed_addr #2

attributes #0 = { nounwind ssp uwtable "correctly-rounded-divide-sqrt-fp-math"="false" "disable-tail-calls"="false" "less-precise-fpmad"="false" "min-legal-vector-width"="0" "no-frame-pointer-elim"="false" "no-frame-pointer-elim-non-leaf" "no-infs-fp-math"="false" "no-jump-tables"="false" "no-nans-fp-math"="false" "no-signed-zeros-fp-math"="false" "no-trapping-math"="false" "null-pointer-is-valid"="true" "stack-protector-buffer-size"="4" "target-cpu"="x86-64" "target-features"="+cx8,+fxsr,+mmx,+sse,+sse2,+sse3,+x87" "unsafe-fp-math"="false" "use-soft-float"="false" }
attributes #1 = { argmemonly nounwind }
attributes #2 = { "correctly-rounded-divide-sqrt-fp-math"="false" "disable-tail-calls"="false" "less-precise-fpmad"="false" "no-frame-pointer-elim"="false" "no-frame-pointer-elim-non-leaf" "no-infs-fp-math"="false" "no-nans-fp-math"="false" "no-signed-zeros-fp-math"="false" "no-trapping-math"="false" "null-pointer-is-valid"="true" "stack-protector-buffer-size"="4" "target-cpu"="x86-64" "target-features"="+cx8,+fxsr,+mmx,+sse,+sse2,+sse3,+x87" "unsafe-fp-math"="false" "use-soft-float"="false" }
attributes #3 = { norecurse nounwind readnone ssp uwtable "correctly-rounded-divide-sqrt-fp-math"="false" "disable-tail-calls"="false" "less-precise-fpmad"="false" "min-legal-vector-width"="0" "no-frame-pointer-elim"="false" "no-frame-pointer-elim-non-leaf" "no-infs-fp-math"="false" "no-jump-tables"="false" "no-nans-fp-math"="false" "no-signed-zeros-fp-math"="false" "no-trapping-math"="false" "null-pointer-is-valid"="true" "stack-protector-buffer-size"="4" "target-cpu"="x86-64" "target-features"="+cx8,+fxsr,+mmx,+sse,+sse2,+sse3,+x87" "unsafe-fp-math"="false" "use-soft-float"="false" }
attributes #4 = { nounwind readnone speculatable }
attributes #5 = { cold noreturn nounwind }
attributes #6 = { noinline nounwind ssp uwtable "correctly-rounded-divide-sqrt-fp-math"="false" "disable-tail-calls"="false" "less-precise-fpmad"="false" "min-legal-vector-width"="0" "no-frame-pointer-elim"="false" "no-frame-pointer-elim-non-leaf" "no-infs-fp-math"="false" "no-jump-tables"="false" "no-nans-fp-math"="false" "no-signed-zeros-fp-math"="false" "no-trapping-math"="false" "null-pointer-is-valid"="true" "stack-protector-buffer-size"="4" "target-cpu"="x86-64" "target-features"="+cx8,+fxsr,+mmx,+sse,+sse2,+sse3,+x87" "unsafe-fp-math"="false" "use-soft-float"="false" }
attributes #7 = { nounwind "correctly-rounded-divide-sqrt-fp-math"="false" "disable-tail-calls"="false" "less-precise-fpmad"="false" "no-frame-pointer-elim"="false" "no-frame-pointer-elim-non-leaf" "no-infs-fp-math"="false" "no-nans-fp-math"="false" "no-signed-zeros-fp-math"="false" "no-trapping-math"="false" "null-pointer-is-valid"="true" "stack-protector-buffer-size"="4" "target-cpu"="x86-64" "target-features"="+cx8,+fxsr,+mmx,+sse,+sse2,+sse3,+x87" "unsafe-fp-math"="false" "use-soft-float"="false" }
attributes #8 = { nounwind }

!llvm.module.flags = !{!0, !1}

!0 = !{i32 1, !"wchar_size", i32 4}
!1 = !{i32 7, !"PIC Level", i32 2}
!2 = !{!"branch_weights", i32 2000, i32 1}
!3 = !{!"branch_weights", i32 1, i32 2000}
!4 = !{i8 0, i8 2}
