; ModuleID = '../../chrome/browser/subresource_filter/subresource_filter_profile_context_factory.cc'
source_filename = "../../chrome/browser/subresource_filter/subresource_filter_profile_context_factory.cc"
target datalayout = "e-m:e-i64:64-f80:128-n8:16:32:64-S128"
target triple = "x86_64-unknown-linux-gnu"

module asm ".symver exp, exp@GLIBC_2.2.5"
module asm ".symver exp2, exp2@GLIBC_2.2.5"
module asm ".symver exp2f, exp2f@GLIBC_2.2.5"
module asm ".symver expf, expf@GLIBC_2.2.5"
module asm ".symver lgamma, lgamma@GLIBC_2.2.5"
module asm ".symver lgammaf, lgammaf@GLIBC_2.2.5"
module asm ".symver lgammal, lgammal@GLIBC_2.2.5"
module asm ".symver log, log@GLIBC_2.2.5"
module asm ".symver log2, log2@GLIBC_2.2.5"
module asm ".symver log2f, log2f@GLIBC_2.2.5"
module asm ".symver logf, logf@GLIBC_2.2.5"
module asm ".symver pow, pow@GLIBC_2.2.5"
module asm ".symver powf, powf@GLIBC_2.2.5"

%class.SubresourceFilterProfileContextFactory = type { %class.BrowserContextKeyedServiceFactory }
%class.BrowserContextKeyedServiceFactory = type { %class.KeyedServiceFactory }
%class.KeyedServiceFactory = type { %class.KeyedServiceBaseFactory.base, %"class.std::__1::map.74", %"class.std::__1::map.83" }
%class.KeyedServiceBaseFactory.base = type <{ i32 (...)**, %class.DependencyManager*, i8*, i32 }>
%class.DependencyManager = type { i32 (...)**, %class.DependencyGraph, %"class.std::__1::set" }
%class.DependencyGraph = type { %"class.std::__1::vector.48", %"class.std::__1::multimap", %"class.std::__1::vector.48" }
%"class.std::__1::multimap" = type { %"class.std::__1::__tree.55" }
%"class.std::__1::__tree.55" = type { %"class.std::__1::__tree_end_node"*, %"class.std::__1::__compressed_pair.56", %"class.std::__1::__compressed_pair.60" }
%"class.std::__1::__tree_end_node" = type { %"class.std::__1::__tree_node_base"* }
%"class.std::__1::__tree_node_base" = type <{ %"class.std::__1::__tree_end_node", %"class.std::__1::__tree_node_base"*, %"class.std::__1::__tree_end_node"*, i8, [7 x i8] }>
%"class.std::__1::__compressed_pair.56" = type { %"struct.std::__1::__compressed_pair_elem.14" }
%"struct.std::__1::__compressed_pair_elem.14" = type { %"class.std::__1::__tree_end_node" }
%"class.std::__1::__compressed_pair.60" = type { %"struct.std::__1::__compressed_pair_elem.17" }
%"struct.std::__1::__compressed_pair_elem.17" = type { i64 }
%"class.std::__1::vector.48" = type { %"class.std::__1::__vector_base.49" }
%"class.std::__1::__vector_base.49" = type { %class.DependencyNode**, %class.DependencyNode**, %"class.std::__1::__compressed_pair.50" }
%class.DependencyNode = type { i8 }
%"class.std::__1::__compressed_pair.50" = type { %"struct.std::__1::__compressed_pair_elem.51" }
%"struct.std::__1::__compressed_pair_elem.51" = type { %class.DependencyNode** }
%"class.std::__1::set" = type { %"class.std::__1::__tree.65" }
%"class.std::__1::__tree.65" = type { %"class.std::__1::__tree_end_node"*, %"class.std::__1::__compressed_pair.66", %"class.std::__1::__compressed_pair.70" }
%"class.std::__1::__compressed_pair.66" = type { %"struct.std::__1::__compressed_pair_elem.14" }
%"class.std::__1::__compressed_pair.70" = type { %"struct.std::__1::__compressed_pair_elem.17" }
%"class.std::__1::map.74" = type { %"class.std::__1::__tree.75" }
%"class.std::__1::__tree.75" = type { %"class.std::__1::__tree_end_node"*, %"class.std::__1::__compressed_pair.76", %"class.std::__1::__compressed_pair.80" }
%"class.std::__1::__compressed_pair.76" = type { %"struct.std::__1::__compressed_pair_elem.14" }
%"class.std::__1::__compressed_pair.80" = type { %"struct.std::__1::__compressed_pair_elem.17" }
%"class.std::__1::map.83" = type { %"class.std::__1::__tree.84" }
%"class.std::__1::__tree.84" = type { %"class.std::__1::__tree_end_node"*, %"class.std::__1::__compressed_pair.85", %"class.std::__1::__compressed_pair.89" }
%"class.std::__1::__compressed_pair.85" = type { %"struct.std::__1::__compressed_pair_elem.14" }
%"class.std::__1::__compressed_pair.89" = type { %"struct.std::__1::__compressed_pair_elem.17" }
%"class.subresource_filter::SubresourceFilterProfileContext" = type { %class.KeyedService, %"class.std::__1::unique_ptr", %"class.std::__1::unique_ptr.1", %"class.std::__1::unique_ptr.7" }
%class.KeyedService = type { i32 (...)** }
%"class.std::__1::unique_ptr" = type { %"class.std::__1::__compressed_pair" }
%"class.std::__1::__compressed_pair" = type { %"struct.std::__1::__compressed_pair_elem" }
%"struct.std::__1::__compressed_pair_elem" = type { %"class.subresource_filter::SubresourceFilterContentSettingsManager"* }
%"class.subresource_filter::SubresourceFilterContentSettingsManager" = type opaque
%"class.std::__1::unique_ptr.1" = type { %"class.std::__1::__compressed_pair.2" }
%"class.std::__1::__compressed_pair.2" = type { %"struct.std::__1::__compressed_pair_elem.3" }
%"struct.std::__1::__compressed_pair_elem.3" = type { %"class.subresource_filter::AdsInterventionManager"* }
%"class.subresource_filter::AdsInterventionManager" = type opaque
%"class.std::__1::unique_ptr.7" = type { %"class.std::__1::__compressed_pair.8" }
%"class.std::__1::__compressed_pair.8" = type { %"struct.std::__1::__compressed_pair_elem.9" }
%"struct.std::__1::__compressed_pair_elem.9" = type { %"class.subresource_filter::SubresourceFilterProfileContext::EmbedderData"* }
%"class.subresource_filter::SubresourceFilterProfileContext::EmbedderData" = type { i32 (...)** }
%class.Profile = type { %"class.content::BrowserContext", %"class.std::__1::unique_ptr.25", i8, i8, i32, %"class.base::ObserverList", %"class.std::__1::unique_ptr.42" }
%"class.content::BrowserContext" = type { %"class.base::SupportsUserData.base", %"class.std::__1::unique_ptr.19" }
%"class.base::SupportsUserData.base" = type <{ i32 (...)**, %"class.std::__1::map", %"class.base::SequenceCheckerDoNothing" }>
%"class.std::__1::map" = type { %"class.std::__1::__tree" }
%"class.std::__1::__tree" = type { %"class.std::__1::__tree_end_node"*, %"class.std::__1::__compressed_pair.13", %"class.std::__1::__compressed_pair.16" }
%"class.std::__1::__compressed_pair.13" = type { %"struct.std::__1::__compressed_pair_elem.14" }
%"class.std::__1::__compressed_pair.16" = type { %"struct.std::__1::__compressed_pair_elem.17" }
%"class.base::SequenceCheckerDoNothing" = type { i8 }
%"class.std::__1::unique_ptr.19" = type { %"class.std::__1::__compressed_pair.20" }
%"class.std::__1::__compressed_pair.20" = type { %"struct.std::__1::__compressed_pair_elem.21" }
%"struct.std::__1::__compressed_pair_elem.21" = type { %"class.content::BrowserContext::Impl"* }
%"class.content::BrowserContext::Impl" = type opaque
%"class.std::__1::unique_ptr.25" = type { %"class.std::__1::__compressed_pair.26" }
%"class.std::__1::__compressed_pair.26" = type { %"struct.std::__1::__compressed_pair_elem.27" }
%"struct.std::__1::__compressed_pair_elem.27" = type { %"class.content::ResourceContext"* }
%"class.content::ResourceContext" = type opaque
%"class.base::ObserverList" = type <{ %"class.std::__1::vector", %"class.base::LinkedList", i64, i32, [4 x i8] }>
%"class.std::__1::vector" = type { %"class.std::__1::__vector_base" }
%"class.std::__1::__vector_base" = type { %"class.base::internal::CheckedObserverAdapter"*, %"class.base::internal::CheckedObserverAdapter"*, %"class.std::__1::__compressed_pair.37" }
%"class.base::internal::CheckedObserverAdapter" = type { %"class.base::WeakPtr" }
%"class.base::WeakPtr" = type { %"class.base::internal::WeakPtrBase" }
%"class.base::internal::WeakPtrBase" = type { %"class.base::internal::WeakReference", i64 }
%"class.base::internal::WeakReference" = type { %class.scoped_refptr }
%class.scoped_refptr = type { %"class.base::internal::WeakReference::Flag"* }
%"class.base::internal::WeakReference::Flag" = type <{ %"class.base::RefCountedThreadSafe", %"class.base::AtomicFlag", [3 x i8] }>
%"class.base::RefCountedThreadSafe" = type { %"class.base::subtle::RefCountedThreadSafeBase" }
%"class.base::subtle::RefCountedThreadSafeBase" = type { %"class.base::AtomicRefCount" }
%"class.base::AtomicRefCount" = type { %"struct.std::__1::atomic" }
%"struct.std::__1::atomic" = type { %"struct.std::__1::__atomic_base" }
%"struct.std::__1::__atomic_base" = type { %"struct.std::__1::__atomic_base.31" }
%"struct.std::__1::__atomic_base.31" = type { %"struct.std::__1::__cxx_atomic_impl" }
%"struct.std::__1::__cxx_atomic_impl" = type { %"struct.std::__1::__cxx_atomic_base_impl" }
%"struct.std::__1::__cxx_atomic_base_impl" = type { i32 }
%"class.base::AtomicFlag" = type { %"struct.std::__1::atomic.32" }
%"struct.std::__1::atomic.32" = type { %"struct.std::__1::__atomic_base.33" }
%"struct.std::__1::__atomic_base.33" = type { %"struct.std::__1::__atomic_base.34" }
%"struct.std::__1::__atomic_base.34" = type { %"struct.std::__1::__cxx_atomic_impl.35" }
%"struct.std::__1::__cxx_atomic_impl.35" = type { %"struct.std::__1::__cxx_atomic_base_impl.36" }
%"struct.std::__1::__cxx_atomic_base_impl.36" = type { i8 }
%"class.std::__1::__compressed_pair.37" = type { %"struct.std::__1::__compressed_pair_elem.38" }
%"struct.std::__1::__compressed_pair_elem.38" = type { %"class.base::internal::CheckedObserverAdapter"* }
%"class.base::LinkedList" = type { %"class.base::LinkNode" }
%"class.base::LinkNode" = type { %"class.base::internal::LinkNodeBase" }
%"class.base::internal::LinkNodeBase" = type { %"class.base::internal::LinkNodeBase"*, %"class.base::internal::LinkNodeBase"* }
%"class.std::__1::unique_ptr.42" = type { %"class.std::__1::__compressed_pair.43" }
%"class.std::__1::__compressed_pair.43" = type { %"struct.std::__1::__compressed_pair_elem.44" }
%"struct.std::__1::__compressed_pair_elem.44" = type { %"class.variations::VariationsClient"* }
%"class.variations::VariationsClient" = type opaque
%class.BrowserContextDependencyManager = type { %class.DependencyManager, %"class.base::RepeatingCallbackList" }
%"class.base::RepeatingCallbackList" = type { %"class.base::internal::CallbackListBase" }
%"class.base::internal::CallbackListBase" = type { %"class.std::__1::list", i8, %"class.base::RepeatingCallback", %"class.base::WeakPtrFactory" }
%"class.std::__1::list" = type { %"class.std::__1::__list_imp" }
%"class.std::__1::__list_imp" = type { %"struct.std::__1::__list_node_base", %"class.std::__1::__compressed_pair.92" }
%"struct.std::__1::__list_node_base" = type { %"struct.std::__1::__list_node_base"*, %"struct.std::__1::__list_node_base"* }
%"class.std::__1::__compressed_pair.92" = type { %"struct.std::__1::__compressed_pair_elem.17" }
%"class.base::RepeatingCallback" = type { %"class.base::internal::CallbackBaseCopyable" }
%"class.base::internal::CallbackBaseCopyable" = type { %"class.base::internal::CallbackBase" }
%"class.base::internal::CallbackBase" = type { %class.scoped_refptr.96 }
%class.scoped_refptr.96 = type { %"class.base::internal::BindStateBase"* }
%"class.base::internal::BindStateBase" = type { %"class.base::RefCountedThreadSafe.97", void ()*, void (%"class.base::internal::BindStateBase"*)*, i1 (%"class.base::internal::BindStateBase"*, i32)* }
%"class.base::RefCountedThreadSafe.97" = type { %"class.base::subtle::RefCountedThreadSafeBase" }
%"class.base::WeakPtrFactory" = type { %"class.base::internal::WeakPtrFactoryBase" }
%"class.base::internal::WeakPtrFactoryBase" = type { %"class.base::internal::WeakReferenceOwner", i64 }
%"class.base::internal::WeakReferenceOwner" = type { %class.scoped_refptr.98 }
%class.scoped_refptr.98 = type { %"class.base::internal::WeakReference::Flag"* }
%class.KeyedServiceBaseFactory = type <{ i32 (...)**, %class.DependencyManager*, i8*, i32, [4 x i8] }>
%class.HostContentSettingsMapFactory = type { %class.RefcountedBrowserContextKeyedServiceFactory }
%class.RefcountedBrowserContextKeyedServiceFactory = type { %class.RefcountedKeyedServiceFactory }
%class.RefcountedKeyedServiceFactory = type { %class.KeyedServiceBaseFactory.base, %"class.std::__1::map.99", %"class.std::__1::map.108" }
%"class.std::__1::map.99" = type { %"class.std::__1::__tree.100" }
%"class.std::__1::__tree.100" = type { %"class.std::__1::__tree_end_node"*, %"class.std::__1::__compressed_pair.101", %"class.std::__1::__compressed_pair.105" }
%"class.std::__1::__compressed_pair.101" = type { %"struct.std::__1::__compressed_pair_elem.14" }
%"class.std::__1::__compressed_pair.105" = type { %"struct.std::__1::__compressed_pair_elem.17" }
%"class.std::__1::map.108" = type { %"class.std::__1::__tree.109" }
%"class.std::__1::__tree.109" = type { %"class.std::__1::__tree_end_node"*, %"class.std::__1::__compressed_pair.110", %"class.std::__1::__compressed_pair.114" }
%"class.std::__1::__compressed_pair.110" = type { %"struct.std::__1::__compressed_pair_elem.14" }
%"class.std::__1::__compressed_pair.114" = type { %"struct.std::__1::__compressed_pair_elem.17" }
%class.HistoryServiceFactory = type { %class.BrowserContextKeyedServiceFactory }
%class.HostContentSettingsMap = type opaque
%"class.history::HistoryService" = type { %class.KeyedService, %class.scoped_refptr.117, %class.scoped_refptr.119, %"class.std::__1::unique_ptr.120", %"class.std::__1::unique_ptr.126", %"class.std::__1::unique_ptr.132", i8, [7 x i8], %"class.base::ObserverList.138", %"class.base::RepeatingCallbackList.149", %"class.std::__1::unique_ptr.159", %"class.base::OnceCallback", %"class.base::WeakPtrFactory.165" }
%class.scoped_refptr.117 = type { %"class.base::SequencedTaskRunner"* }
%"class.base::SequencedTaskRunner" = type { %"class.base::TaskRunner.base", [4 x i8] }
%"class.base::TaskRunner.base" = type <{ i32 (...)**, %"class.base::RefCountedThreadSafe.118" }>
%"class.base::RefCountedThreadSafe.118" = type { %"class.base::subtle::RefCountedThreadSafeBase" }
%class.scoped_refptr.119 = type { %"class.history::HistoryBackend"* }
%"class.history::HistoryBackend" = type opaque
%"class.std::__1::unique_ptr.120" = type { %"class.std::__1::__compressed_pair.121" }
%"class.std::__1::__compressed_pair.121" = type { %"struct.std::__1::__compressed_pair_elem.122" }
%"struct.std::__1::__compressed_pair_elem.122" = type { %"class.history::InMemoryHistoryBackend"* }
%"class.history::InMemoryHistoryBackend" = type opaque
%"class.std::__1::unique_ptr.126" = type { %"class.std::__1::__compressed_pair.127" }
%"class.std::__1::__compressed_pair.127" = type { %"struct.std::__1::__compressed_pair_elem.128" }
%"struct.std::__1::__compressed_pair_elem.128" = type { %"class.history::HistoryClient"* }
%"class.history::HistoryClient" = type opaque
%"class.std::__1::unique_ptr.132" = type { %"class.std::__1::__compressed_pair.133" }
%"class.std::__1::__compressed_pair.133" = type { %"struct.std::__1::__compressed_pair_elem.134" }
%"struct.std::__1::__compressed_pair_elem.134" = type { %"class.history::VisitDelegate"* }
%"class.history::VisitDelegate" = type opaque
%"class.base::ObserverList.138" = type <{ %"class.std::__1::vector.139", %"class.base::LinkedList.146", i64, i32, [4 x i8] }>
%"class.std::__1::vector.139" = type { %"class.std::__1::__vector_base.140" }
%"class.std::__1::__vector_base.140" = type { %"class.base::internal::UncheckedObserverAdapter"*, %"class.base::internal::UncheckedObserverAdapter"*, %"class.std::__1::__compressed_pair.141" }
%"class.base::internal::UncheckedObserverAdapter" = type { i8* }
%"class.std::__1::__compressed_pair.141" = type { %"struct.std::__1::__compressed_pair_elem.142" }
%"struct.std::__1::__compressed_pair_elem.142" = type { %"class.base::internal::UncheckedObserverAdapter"* }
%"class.base::LinkedList.146" = type { %"class.base::LinkNode.147" }
%"class.base::LinkNode.147" = type { %"class.base::internal::LinkNodeBase" }
%"class.base::RepeatingCallbackList.149" = type { %"class.base::internal::CallbackListBase.150" }
%"class.base::internal::CallbackListBase.150" = type { %"class.std::__1::list.151", i8, %"class.base::RepeatingCallback", %"class.base::WeakPtrFactory.158" }
%"class.std::__1::list.151" = type { %"class.std::__1::__list_imp.152" }
%"class.std::__1::__list_imp.152" = type { %"struct.std::__1::__list_node_base.153", %"class.std::__1::__compressed_pair.154" }
%"struct.std::__1::__list_node_base.153" = type { %"struct.std::__1::__list_node_base.153"*, %"struct.std::__1::__list_node_base.153"* }
%"class.std::__1::__compressed_pair.154" = type { %"struct.std::__1::__compressed_pair_elem.17" }
%"class.base::WeakPtrFactory.158" = type { %"class.base::internal::WeakPtrFactoryBase" }
%"class.std::__1::unique_ptr.159" = type { %"class.std::__1::__compressed_pair.160" }
%"class.std::__1::__compressed_pair.160" = type { %"struct.std::__1::__compressed_pair_elem.161" }
%"struct.std::__1::__compressed_pair_elem.161" = type { %"class.history::DeleteDirectiveHandler"* }
%"class.history::DeleteDirectiveHandler" = type opaque
%"class.base::OnceCallback" = type { %"class.base::internal::CallbackBase" }
%"class.base::WeakPtrFactory.165" = type { %"class.base::internal::WeakPtrFactoryBase" }
%class.SubresourceFilterHistoryObserver = type { %"class.history::HistoryServiceObserver", %"class.subresource_filter::SubresourceFilterProfileContext::EmbedderData", %"class.base::ScopedObservation", %"class.subresource_filter::SubresourceFilterContentSettingsManager"* }
%"class.history::HistoryServiceObserver" = type { i32 (...)** }
%"class.base::ScopedObservation" = type { %"class.history::HistoryServiceObserver"*, %"class.history::HistoryService"* }
%"class.user_prefs::PrefRegistrySyncable" = type opaque

$_ZN38SubresourceFilterProfileContextFactoryD0Ev = comdat any

$_ZN33BrowserContextKeyedServiceFactory20RegisterProfilePrefsEPN10user_prefs20PrefRegistrySyncableE = comdat any

$_ZN4base9SingletonI38SubresourceFilterProfileContextFactoryNS_22DefaultSingletonTraitsIS1_EES1_E6OnExitEPv = comdat any

$_ZN4base9SingletonI38SubresourceFilterProfileContextFactoryNS_22DefaultSingletonTraitsIS1_EES1_E9instance_E = comdat any

@.str = private unnamed_addr constant [32 x i8] c"SubresourceFilterProfileContext\00", align 1
@_ZTV38SubresourceFilterProfileContextFactory = hidden unnamed_addr constant { [20 x i8*] } { [20 x i8*] [i8* null, i8* null, i8* bitcast (void (%class.BrowserContextKeyedServiceFactory*)* @_ZN33BrowserContextKeyedServiceFactoryD2Ev to i8*), i8* bitcast (void (%class.SubresourceFilterProfileContextFactory*)* @_ZN38SubresourceFilterProfileContextFactoryD0Ev to i8*), i8* bitcast (i8* (%class.BrowserContextKeyedServiceFactory*, i8*)* @_ZNK33BrowserContextKeyedServiceFactory15GetContextToUseEPv to i8*), i8* bitcast (i1 (%class.BrowserContextKeyedServiceFactory*)* @_ZNK33BrowserContextKeyedServiceFactory27ServiceIsCreatedWithContextEv to i8*), i8* bitcast (i1 (%class.BrowserContextKeyedServiceFactory*)* @_ZNK33BrowserContextKeyedServiceFactory25ServiceIsNULLWhileTestingEv to i8*), i8* bitcast (void (%class.BrowserContextKeyedServiceFactory*, i8*)* @_ZN33BrowserContextKeyedServiceFactory15ContextShutdownEPv to i8*), i8* bitcast (void (%class.BrowserContextKeyedServiceFactory*, i8*)* @_ZN33BrowserContextKeyedServiceFactory16ContextDestroyedEPv to i8*), i8* bitcast (void (%class.BrowserContextKeyedServiceFactory*, %"class.user_prefs::PrefRegistrySyncable"*)* @_ZN33BrowserContextKeyedServiceFactory13RegisterPrefsEPN10user_prefs20PrefRegistrySyncableE to i8*), i8* bitcast (void (%class.KeyedServiceFactory*, i8*)* @_ZN19KeyedServiceFactory22SetEmptyTestingFactoryEPv to i8*), i8* bitcast (i1 (%class.KeyedServiceFactory*, i8*)* @_ZN19KeyedServiceFactory17HasTestingFactoryEPv to i8*), i8* bitcast (void (%class.BrowserContextKeyedServiceFactory*, i8*)* @_ZN33BrowserContextKeyedServiceFactory16CreateServiceNowEPv to i8*), i8* bitcast (void ()* @_ZNK33BrowserContextKeyedServiceFactory23BuildServiceInstanceForEPv to i8*), i8* bitcast (i1 (%class.BrowserContextKeyedServiceFactory*, i8*)* @_ZNK33BrowserContextKeyedServiceFactory14IsOffTheRecordEPv to i8*), i8* bitcast (%"class.content::BrowserContext"* (%class.SubresourceFilterProfileContextFactory*, %"class.content::BrowserContext"*)* @_ZNK38SubresourceFilterProfileContextFactory22GetBrowserContextToUseEPN7content14BrowserContextE to i8*), i8* bitcast (i1 (%class.BrowserContextKeyedServiceFactory*)* @_ZNK33BrowserContextKeyedServiceFactory34ServiceIsCreatedWithBrowserContextEv to i8*), i8* bitcast (%class.KeyedService* (%class.SubresourceFilterProfileContextFactory*, %"class.content::BrowserContext"*)* @_ZNK38SubresourceFilterProfileContextFactory23BuildServiceInstanceForEPN7content14BrowserContextE to i8*), i8* bitcast (void (%class.BrowserContextKeyedServiceFactory*, %"class.content::BrowserContext"*)* @_ZN33BrowserContextKeyedServiceFactory22BrowserContextShutdownEPN7content14BrowserContextE to i8*), i8* bitcast (void (%class.BrowserContextKeyedServiceFactory*, %"class.user_prefs::PrefRegistrySyncable"*)* @_ZN33BrowserContextKeyedServiceFactory20RegisterProfilePrefsEPN10user_prefs20PrefRegistrySyncableE to i8*)] }, align 8
@_ZN4base9SingletonI38SubresourceFilterProfileContextFactoryNS_22DefaultSingletonTraitsIS1_EES1_E9instance_E = linkonce_odr hidden global i64 0, comdat, align 8

@_ZN38SubresourceFilterProfileContextFactoryC1Ev = hidden unnamed_addr alias void (%class.SubresourceFilterProfileContextFactory*), void (%class.SubresourceFilterProfileContextFactory*)* @_ZN38SubresourceFilterProfileContextFactoryC2Ev

; Function Attrs: nounwind ssp uwtable
define hidden %"class.subresource_filter::SubresourceFilterProfileContext"* @_ZN38SubresourceFilterProfileContextFactory13GetForProfileEP7Profile(%class.Profile*) local_unnamed_addr #0 align 2 {
  %2 = tail call %class.SubresourceFilterProfileContextFactory* @_ZN38SubresourceFilterProfileContextFactory11GetInstanceEv()
  %3 = getelementptr inbounds %class.SubresourceFilterProfileContextFactory, %class.SubresourceFilterProfileContextFactory* %2, i64 0, i32 0
  %4 = getelementptr inbounds %class.Profile, %class.Profile* %0, i64 0, i32 0
  %5 = tail call %class.KeyedService* @_ZN33BrowserContextKeyedServiceFactory27GetServiceForBrowserContextEPN7content14BrowserContextEb(%class.BrowserContextKeyedServiceFactory* %3, %"class.content::BrowserContext"* %4, i1 zeroext true) #6
  %6 = bitcast %class.KeyedService* %5 to %"class.subresource_filter::SubresourceFilterProfileContext"*
  ret %"class.subresource_filter::SubresourceFilterProfileContext"* %6
}

; Function Attrs: nounwind ssp uwtable
define hidden %class.SubresourceFilterProfileContextFactory* @_ZN38SubresourceFilterProfileContextFactory11GetInstanceEv() local_unnamed_addr #0 align 2 {
  %1 = load atomic i64, i64* @_ZN4base9SingletonI38SubresourceFilterProfileContextFactoryNS_22DefaultSingletonTraitsIS1_EES1_E9instance_E acquire, align 8
  %2 = icmp ugt i64 %1, 1
  br i1 %2, label %18, label %3

3:                                                ; preds = %0
  %4 = tail call zeroext i1 @_ZN4base8internal17NeedsLazyInstanceEPl(i64* nonnull @_ZN4base9SingletonI38SubresourceFilterProfileContextFactoryNS_22DefaultSingletonTraitsIS1_EES1_E9instance_E) #6
  br i1 %4, label %5, label %16

5:                                                ; preds = %3
  %6 = tail call i8* @_Znwm(i64 80) #7
  %7 = bitcast i8* %6 to %class.BrowserContextKeyedServiceFactory*
  %8 = tail call %class.BrowserContextDependencyManager* @_ZN31BrowserContextDependencyManager11GetInstanceEv() #6
  tail call void @_ZN33BrowserContextKeyedServiceFactoryC2EPKcP31BrowserContextDependencyManager(%class.BrowserContextKeyedServiceFactory* nonnull %7, i8* getelementptr inbounds ([32 x i8], [32 x i8]* @.str, i64 0, i64 0), %class.BrowserContextDependencyManager* %8) #6
  %9 = bitcast i8* %6 to i32 (...)***
  store i32 (...)** bitcast (i8** getelementptr inbounds ({ [20 x i8*] }, { [20 x i8*] }* @_ZTV38SubresourceFilterProfileContextFactory, i64 0, inrange i32 0, i64 2) to i32 (...)**), i32 (...)*** %9, align 8
  %10 = bitcast i8* %6 to %class.KeyedServiceBaseFactory*
  %11 = tail call %class.HostContentSettingsMapFactory* @_ZN29HostContentSettingsMapFactory11GetInstanceEv() #6
  %12 = bitcast %class.HostContentSettingsMapFactory* %11 to %class.KeyedServiceBaseFactory*
  tail call void @_ZN23KeyedServiceBaseFactory9DependsOnEPS_(%class.KeyedServiceBaseFactory* nonnull %10, %class.KeyedServiceBaseFactory* %12) #6
  %13 = tail call %class.HistoryServiceFactory* @_ZN21HistoryServiceFactory11GetInstanceEv() #6
  %14 = bitcast %class.HistoryServiceFactory* %13 to %class.KeyedServiceBaseFactory*
  tail call void @_ZN23KeyedServiceBaseFactory9DependsOnEPS_(%class.KeyedServiceBaseFactory* nonnull %10, %class.KeyedServiceBaseFactory* %14) #6
  %15 = ptrtoint i8* %6 to i64
  tail call void @_ZN4base8internal20CompleteLazyInstanceEPllPFvPvES2_(i64* nonnull @_ZN4base9SingletonI38SubresourceFilterProfileContextFactoryNS_22DefaultSingletonTraitsIS1_EES1_E9instance_E, i64 %15, void (i8*)* nonnull @_ZN4base9SingletonI38SubresourceFilterProfileContextFactoryNS_22DefaultSingletonTraitsIS1_EES1_E6OnExitEPv, i8* null) #6
  br label %18

16:                                               ; preds = %3
  %17 = load atomic i64, i64* @_ZN4base9SingletonI38SubresourceFilterProfileContextFactoryNS_22DefaultSingletonTraitsIS1_EES1_E9instance_E acquire, align 8
  br label %18

18:                                               ; preds = %0, %5, %16
  %19 = phi i64 [ %1, %0 ], [ %15, %5 ], [ %17, %16 ]
  %20 = inttoptr i64 %19 to %class.SubresourceFilterProfileContextFactory*
  ret %class.SubresourceFilterProfileContextFactory* %20
}

declare %class.KeyedService* @_ZN33BrowserContextKeyedServiceFactory27GetServiceForBrowserContextEPN7content14BrowserContextEb(%class.BrowserContextKeyedServiceFactory*, %"class.content::BrowserContext"*, i1 zeroext) local_unnamed_addr #1

; Function Attrs: nounwind ssp uwtable
define hidden void @_ZN38SubresourceFilterProfileContextFactoryC2Ev(%class.SubresourceFilterProfileContextFactory*) unnamed_addr #0 align 2 {
  %2 = getelementptr inbounds %class.SubresourceFilterProfileContextFactory, %class.SubresourceFilterProfileContextFactory* %0, i64 0, i32 0
  %3 = tail call %class.BrowserContextDependencyManager* @_ZN31BrowserContextDependencyManager11GetInstanceEv() #6
  tail call void @_ZN33BrowserContextKeyedServiceFactoryC2EPKcP31BrowserContextDependencyManager(%class.BrowserContextKeyedServiceFactory* %2, i8* getelementptr inbounds ([32 x i8], [32 x i8]* @.str, i64 0, i64 0), %class.BrowserContextDependencyManager* %3) #6
  %4 = getelementptr inbounds %class.SubresourceFilterProfileContextFactory, %class.SubresourceFilterProfileContextFactory* %0, i64 0, i32 0, i32 0, i32 0, i32 0
  store i32 (...)** bitcast (i8** getelementptr inbounds ({ [20 x i8*] }, { [20 x i8*] }* @_ZTV38SubresourceFilterProfileContextFactory, i64 0, inrange i32 0, i64 2) to i32 (...)**), i32 (...)*** %4, align 8
  %5 = bitcast %class.SubresourceFilterProfileContextFactory* %0 to %class.KeyedServiceBaseFactory*
  %6 = tail call %class.HostContentSettingsMapFactory* @_ZN29HostContentSettingsMapFactory11GetInstanceEv() #6
  %7 = bitcast %class.HostContentSettingsMapFactory* %6 to %class.KeyedServiceBaseFactory*
  tail call void @_ZN23KeyedServiceBaseFactory9DependsOnEPS_(%class.KeyedServiceBaseFactory* %5, %class.KeyedServiceBaseFactory* %7) #6
  %8 = tail call %class.HistoryServiceFactory* @_ZN21HistoryServiceFactory11GetInstanceEv() #6
  %9 = bitcast %class.HistoryServiceFactory* %8 to %class.KeyedServiceBaseFactory*
  tail call void @_ZN23KeyedServiceBaseFactory9DependsOnEPS_(%class.KeyedServiceBaseFactory* %5, %class.KeyedServiceBaseFactory* %9) #6
  ret void
}

declare %class.BrowserContextDependencyManager* @_ZN31BrowserContextDependencyManager11GetInstanceEv() local_unnamed_addr #1

declare void @_ZN33BrowserContextKeyedServiceFactoryC2EPKcP31BrowserContextDependencyManager(%class.BrowserContextKeyedServiceFactory*, i8*, %class.BrowserContextDependencyManager*) unnamed_addr #1

declare void @_ZN23KeyedServiceBaseFactory9DependsOnEPS_(%class.KeyedServiceBaseFactory*, %class.KeyedServiceBaseFactory*) local_unnamed_addr #1

declare %class.HostContentSettingsMapFactory* @_ZN29HostContentSettingsMapFactory11GetInstanceEv() local_unnamed_addr #1

declare %class.HistoryServiceFactory* @_ZN21HistoryServiceFactory11GetInstanceEv() local_unnamed_addr #1

; Function Attrs: nounwind ssp uwtable
define hidden nonnull %class.KeyedService* @_ZNK38SubresourceFilterProfileContextFactory23BuildServiceInstanceForEPN7content14BrowserContextE(%class.SubresourceFilterProfileContextFactory* nocapture readnone, %"class.content::BrowserContext"*) unnamed_addr #0 align 2 {
  %3 = tail call %class.Profile* @_ZN7Profile18FromBrowserContextEPN7content14BrowserContextE(%"class.content::BrowserContext"* %1) #6
  %4 = tail call i8* @_Znwm(i64 32) #7
  %5 = bitcast i8* %4 to %"class.subresource_filter::SubresourceFilterProfileContext"*
  %6 = getelementptr inbounds %class.Profile, %class.Profile* %3, i64 0, i32 0
  %7 = tail call %class.HostContentSettingsMap* @_ZN29HostContentSettingsMapFactory13GetForProfileEPN7content14BrowserContextE(%"class.content::BrowserContext"* %6) #6
  tail call void @_ZN18subresource_filter31SubresourceFilterProfileContextC1EP22HostContentSettingsMap(%"class.subresource_filter::SubresourceFilterProfileContext"* nonnull %5, %class.HostContentSettingsMap* %7) #6
  %8 = tail call %"class.history::HistoryService"* @_ZN21HistoryServiceFactory13GetForProfileEP7Profile17ServiceAccessType(%class.Profile* %3, i32 0) #6
  %9 = icmp eq %"class.history::HistoryService"* %8, null
  br i1 %9, label %18, label %10

10:                                               ; preds = %2
  %11 = getelementptr inbounds i8, i8* %4, i64 8
  %12 = bitcast i8* %11 to %"class.subresource_filter::SubresourceFilterContentSettingsManager"**
  %13 = load %"class.subresource_filter::SubresourceFilterContentSettingsManager"*, %"class.subresource_filter::SubresourceFilterContentSettingsManager"** %12, align 8
  %14 = tail call i8* @_Znwm(i64 40) #7
  %15 = bitcast i8* %14 to %class.SubresourceFilterHistoryObserver*
  tail call void @_ZN32SubresourceFilterHistoryObserverC1EPN18subresource_filter39SubresourceFilterContentSettingsManagerEPN7history14HistoryServiceE(%class.SubresourceFilterHistoryObserver* nonnull %15, %"class.subresource_filter::SubresourceFilterContentSettingsManager"* %13, %"class.history::HistoryService"* nonnull %8) #6
  %16 = getelementptr inbounds i8, i8* %14, i64 8
  %17 = bitcast i8* %16 to %"class.subresource_filter::SubresourceFilterProfileContext::EmbedderData"*
  tail call void @_ZN18subresource_filter31SubresourceFilterProfileContext15SetEmbedderDataENSt3__110unique_ptrINS0_12EmbedderDataENS1_14default_deleteIS3_EEEE(%"class.subresource_filter::SubresourceFilterProfileContext"* nonnull %5, %"class.subresource_filter::SubresourceFilterProfileContext::EmbedderData"* %17) #6
  br label %18

18:                                               ; preds = %2, %10
  %19 = bitcast i8* %4 to %class.KeyedService*
  ret %class.KeyedService* %19
}

declare %class.Profile* @_ZN7Profile18FromBrowserContextEPN7content14BrowserContextE(%"class.content::BrowserContext"*) local_unnamed_addr #1

; Function Attrs: nobuiltin nofree
declare noalias nonnull i8* @_Znwm(i64) local_unnamed_addr #2

declare %class.HostContentSettingsMap* @_ZN29HostContentSettingsMapFactory13GetForProfileEPN7content14BrowserContextE(%"class.content::BrowserContext"*) local_unnamed_addr #1

declare void @_ZN18subresource_filter31SubresourceFilterProfileContextC1EP22HostContentSettingsMap(%"class.subresource_filter::SubresourceFilterProfileContext"*, %class.HostContentSettingsMap*) unnamed_addr #1

declare %"class.history::HistoryService"* @_ZN21HistoryServiceFactory13GetForProfileEP7Profile17ServiceAccessType(%class.Profile*, i32) local_unnamed_addr #1

declare void @_ZN18subresource_filter31SubresourceFilterProfileContext15SetEmbedderDataENSt3__110unique_ptrINS0_12EmbedderDataENS1_14default_deleteIS3_EEEE(%"class.subresource_filter::SubresourceFilterProfileContext"*, %"class.subresource_filter::SubresourceFilterProfileContext::EmbedderData"*) local_unnamed_addr #1

; Function Attrs: nounwind ssp uwtable
define hidden %"class.content::BrowserContext"* @_ZNK38SubresourceFilterProfileContextFactory22GetBrowserContextToUseEPN7content14BrowserContextE(%class.SubresourceFilterProfileContextFactory* nocapture readnone, %"class.content::BrowserContext"*) unnamed_addr #0 align 2 {
  %3 = tail call %"class.content::BrowserContext"* @_ZN6chrome39GetBrowserContextOwnInstanceInIncognitoEPN7content14BrowserContextE(%"class.content::BrowserContext"* %1) #6
  ret %"class.content::BrowserContext"* %3
}

declare %"class.content::BrowserContext"* @_ZN6chrome39GetBrowserContextOwnInstanceInIncognitoEPN7content14BrowserContextE(%"class.content::BrowserContext"*) local_unnamed_addr #1

; Function Attrs: nounwind
declare void @_ZN33BrowserContextKeyedServiceFactoryD2Ev(%class.BrowserContextKeyedServiceFactory*) unnamed_addr #3

; Function Attrs: inlinehint nounwind ssp uwtable
define linkonce_odr hidden void @_ZN38SubresourceFilterProfileContextFactoryD0Ev(%class.SubresourceFilterProfileContextFactory*) unnamed_addr #4 comdat align 2 {
  %2 = getelementptr inbounds %class.SubresourceFilterProfileContextFactory, %class.SubresourceFilterProfileContextFactory* %0, i64 0, i32 0
  tail call void @_ZN33BrowserContextKeyedServiceFactoryD2Ev(%class.BrowserContextKeyedServiceFactory* %2) #6
  %3 = bitcast %class.SubresourceFilterProfileContextFactory* %0 to i8*
  tail call void @_ZdlPv(i8* %3) #7
  ret void
}

declare i8* @_ZNK33BrowserContextKeyedServiceFactory15GetContextToUseEPv(%class.BrowserContextKeyedServiceFactory*, i8*) unnamed_addr #1

declare zeroext i1 @_ZNK33BrowserContextKeyedServiceFactory27ServiceIsCreatedWithContextEv(%class.BrowserContextKeyedServiceFactory*) unnamed_addr #1

declare zeroext i1 @_ZNK33BrowserContextKeyedServiceFactory25ServiceIsNULLWhileTestingEv(%class.BrowserContextKeyedServiceFactory*) unnamed_addr #1

declare void @_ZN33BrowserContextKeyedServiceFactory15ContextShutdownEPv(%class.BrowserContextKeyedServiceFactory*, i8*) unnamed_addr #1

declare void @_ZN33BrowserContextKeyedServiceFactory16ContextDestroyedEPv(%class.BrowserContextKeyedServiceFactory*, i8*) unnamed_addr #1

declare void @_ZN33BrowserContextKeyedServiceFactory13RegisterPrefsEPN10user_prefs20PrefRegistrySyncableE(%class.BrowserContextKeyedServiceFactory*, %"class.user_prefs::PrefRegistrySyncable"*) unnamed_addr #1

declare void @_ZN19KeyedServiceFactory22SetEmptyTestingFactoryEPv(%class.KeyedServiceFactory*, i8*) unnamed_addr #1

declare zeroext i1 @_ZN19KeyedServiceFactory17HasTestingFactoryEPv(%class.KeyedServiceFactory*, i8*) unnamed_addr #1

declare void @_ZN33BrowserContextKeyedServiceFactory16CreateServiceNowEPv(%class.BrowserContextKeyedServiceFactory*, i8*) unnamed_addr #1

declare void @_ZNK33BrowserContextKeyedServiceFactory23BuildServiceInstanceForEPv() unnamed_addr

declare zeroext i1 @_ZNK33BrowserContextKeyedServiceFactory14IsOffTheRecordEPv(%class.BrowserContextKeyedServiceFactory*, i8*) unnamed_addr #1

declare zeroext i1 @_ZNK33BrowserContextKeyedServiceFactory34ServiceIsCreatedWithBrowserContextEv(%class.BrowserContextKeyedServiceFactory*) unnamed_addr #1

declare void @_ZN33BrowserContextKeyedServiceFactory22BrowserContextShutdownEPN7content14BrowserContextE(%class.BrowserContextKeyedServiceFactory*, %"class.content::BrowserContext"*) unnamed_addr #1

; Function Attrs: nounwind ssp uwtable
define linkonce_odr hidden void @_ZN33BrowserContextKeyedServiceFactory20RegisterProfilePrefsEPN10user_prefs20PrefRegistrySyncableE(%class.BrowserContextKeyedServiceFactory*, %"class.user_prefs::PrefRegistrySyncable"*) unnamed_addr #0 comdat align 2 {
  ret void
}

; Function Attrs: nobuiltin nounwind
declare void @_ZdlPv(i8*) local_unnamed_addr #5

; Function Attrs: nounwind ssp uwtable
define linkonce_odr hidden void @_ZN4base9SingletonI38SubresourceFilterProfileContextFactoryNS_22DefaultSingletonTraitsIS1_EES1_E6OnExitEPv(i8*) #0 comdat align 2 {
  %2 = load atomic i64, i64* @_ZN4base9SingletonI38SubresourceFilterProfileContextFactoryNS_22DefaultSingletonTraitsIS1_EES1_E9instance_E monotonic, align 8
  %3 = icmp eq i64 %2, 0
  br i1 %3, label %10, label %4

4:                                                ; preds = %1
  %5 = inttoptr i64 %2 to %class.SubresourceFilterProfileContextFactory*
  %6 = inttoptr i64 %2 to void (%class.SubresourceFilterProfileContextFactory*)***
  %7 = load void (%class.SubresourceFilterProfileContextFactory*)**, void (%class.SubresourceFilterProfileContextFactory*)*** %6, align 8
  %8 = getelementptr inbounds void (%class.SubresourceFilterProfileContextFactory*)*, void (%class.SubresourceFilterProfileContextFactory*)** %7, i64 1
  %9 = load void (%class.SubresourceFilterProfileContextFactory*)*, void (%class.SubresourceFilterProfileContextFactory*)** %8, align 8
  tail call void %9(%class.SubresourceFilterProfileContextFactory* nonnull %5) #6
  br label %10

10:                                               ; preds = %1, %4
  store i64 0, i64* @_ZN4base9SingletonI38SubresourceFilterProfileContextFactoryNS_22DefaultSingletonTraitsIS1_EES1_E9instance_E, align 8
  ret void
}

declare zeroext i1 @_ZN4base8internal17NeedsLazyInstanceEPl(i64*) local_unnamed_addr #1

declare void @_ZN4base8internal20CompleteLazyInstanceEPllPFvPvES2_(i64*, i64, void (i8*)*, i8*) local_unnamed_addr #1

declare void @_ZN32SubresourceFilterHistoryObserverC1EPN18subresource_filter39SubresourceFilterContentSettingsManagerEPN7history14HistoryServiceE(%class.SubresourceFilterHistoryObserver*, %"class.subresource_filter::SubresourceFilterContentSettingsManager"*, %"class.history::HistoryService"*) unnamed_addr #1

attributes #0 = { nounwind ssp uwtable "correctly-rounded-divide-sqrt-fp-math"="false" "disable-tail-calls"="false" "less-precise-fpmad"="false" "min-legal-vector-width"="0" "no-frame-pointer-elim"="false" "no-frame-pointer-elim-non-leaf" "no-infs-fp-math"="false" "no-jump-tables"="false" "no-nans-fp-math"="false" "no-signed-zeros-fp-math"="false" "no-trapping-math"="false" "null-pointer-is-valid"="true" "stack-protector-buffer-size"="4" "target-cpu"="x86-64" "target-features"="+cx8,+fxsr,+mmx,+sse,+sse2,+sse3,+x87" "unsafe-fp-math"="false" "use-soft-float"="false" }
attributes #1 = { "correctly-rounded-divide-sqrt-fp-math"="false" "disable-tail-calls"="false" "less-precise-fpmad"="false" "no-frame-pointer-elim"="false" "no-frame-pointer-elim-non-leaf" "no-infs-fp-math"="false" "no-nans-fp-math"="false" "no-signed-zeros-fp-math"="false" "no-trapping-math"="false" "null-pointer-is-valid"="true" "stack-protector-buffer-size"="4" "target-cpu"="x86-64" "target-features"="+cx8,+fxsr,+mmx,+sse,+sse2,+sse3,+x87" "unsafe-fp-math"="false" "use-soft-float"="false" }
attributes #2 = { nobuiltin nofree "correctly-rounded-divide-sqrt-fp-math"="false" "disable-tail-calls"="false" "less-precise-fpmad"="false" "no-frame-pointer-elim"="false" "no-frame-pointer-elim-non-leaf" "no-infs-fp-math"="false" "no-nans-fp-math"="false" "no-signed-zeros-fp-math"="false" "no-trapping-math"="false" "null-pointer-is-valid"="true" "stack-protector-buffer-size"="4" "target-cpu"="x86-64" "target-features"="+cx8,+fxsr,+mmx,+sse,+sse2,+sse3,+x87" "unsafe-fp-math"="false" "use-soft-float"="false" }
attributes #3 = { nounwind "correctly-rounded-divide-sqrt-fp-math"="false" "disable-tail-calls"="false" "less-precise-fpmad"="false" "no-frame-pointer-elim"="false" "no-frame-pointer-elim-non-leaf" "no-infs-fp-math"="false" "no-nans-fp-math"="false" "no-signed-zeros-fp-math"="false" "no-trapping-math"="false" "null-pointer-is-valid"="true" "stack-protector-buffer-size"="4" "target-cpu"="x86-64" "target-features"="+cx8,+fxsr,+mmx,+sse,+sse2,+sse3,+x87" "unsafe-fp-math"="false" "use-soft-float"="false" }
attributes #4 = { inlinehint nounwind ssp uwtable "correctly-rounded-divide-sqrt-fp-math"="false" "disable-tail-calls"="false" "less-precise-fpmad"="false" "min-legal-vector-width"="0" "no-frame-pointer-elim"="false" "no-frame-pointer-elim-non-leaf" "no-infs-fp-math"="false" "no-jump-tables"="false" "no-nans-fp-math"="false" "no-signed-zeros-fp-math"="false" "no-trapping-math"="false" "null-pointer-is-valid"="true" "stack-protector-buffer-size"="4" "target-cpu"="x86-64" "target-features"="+cx8,+fxsr,+mmx,+sse,+sse2,+sse3,+x87" "unsafe-fp-math"="false" "use-soft-float"="false" }
attributes #5 = { nobuiltin nounwind "correctly-rounded-divide-sqrt-fp-math"="false" "disable-tail-calls"="false" "less-precise-fpmad"="false" "no-frame-pointer-elim"="false" "no-frame-pointer-elim-non-leaf" "no-infs-fp-math"="false" "no-nans-fp-math"="false" "no-signed-zeros-fp-math"="false" "no-trapping-math"="false" "null-pointer-is-valid"="true" "stack-protector-buffer-size"="4" "target-cpu"="x86-64" "target-features"="+cx8,+fxsr,+mmx,+sse,+sse2,+sse3,+x87" "unsafe-fp-math"="false" "use-soft-float"="false" }
attributes #6 = { nounwind }
attributes #7 = { builtin nounwind }

!llvm.module.flags = !{!0, !1}

!0 = !{i32 1, !"wchar_size", i32 4}
!1 = !{i32 7, !"PIC Level", i32 2}
