; ModuleID = '../../components/sync/driver/sync_service_crypto.cc'
source_filename = "../../components/sync/driver/sync_service_crypto.cc"
target datalayout = "e-m:e-i64:64-f80:128-n8:16:32:64-S128"
target triple = "x86_64-unknown-linux-gnu"

module asm ".symver exp, exp@GLIBC_2.2.5"
module asm ".symver exp2, exp2@GLIBC_2.2.5"
module asm ".symver exp2f, exp2f@GLIBC_2.2.5"
module asm ".symver expf, expf@GLIBC_2.2.5"
module asm ".symver lgamma, lgamma@GLIBC_2.2.5"
module asm ".symver lgammaf, lgammaf@GLIBC_2.2.5"
module asm ".symver lgammal, lgammal@GLIBC_2.2.5"
module asm ".symver log, log@GLIBC_2.2.5"
module asm ".symver log2, log2@GLIBC_2.2.5"
module asm ".symver log2f, log2f@GLIBC_2.2.5"
module asm ".symver logf, logf@GLIBC_2.2.5"
module asm ".symver pow, pow@GLIBC_2.2.5"
module asm ".symver powf, powf@GLIBC_2.2.5"

%"struct.base::Feature" = type { i8*, i32 }
%"class.base::NoDestructor" = type { [8 x i8] }
%"class.google::protobuf::internal::ExplicitlyConstructed" = type { %"union.google::protobuf::internal::ExplicitlyConstructed<std::__1::basic_string<char, std::__1::char_traits<char>, std::__1::allocator<char> > >::AlignedUnion" }
%"union.google::protobuf::internal::ExplicitlyConstructed<std::__1::basic_string<char, std::__1::char_traits<char>, std::__1::allocator<char> > >::AlignedUnion" = type { i64, [16 x i8] }
%"struct.syncer::SyncServiceCrypto::State" = type <{ %"class.syncer::SyncEngine"*, %struct.CoreAccountInfo, i32, [4 x i8], %"class.syncer::EnumSet", i8, i8, [6 x i8], %"class.sync_pb::EncryptedData", i32, [4 x i8], %"class.syncer::KeyDerivationParams", %"class.base::Time", i8, [7 x i8] }>
%"class.syncer::SyncEngine" = type { %"class.syncer::ModelTypeConfigurer" }
%"class.syncer::ModelTypeConfigurer" = type { i32 (...)** }
%struct.CoreAccountInfo = type <{ %struct.CoreAccountId, %"class.std::__1::basic_string", %"class.std::__1::basic_string", i8, [7 x i8] }>
%struct.CoreAccountId = type { %"class.std::__1::basic_string" }
%"class.std::__1::basic_string" = type { %"class.std::__1::__compressed_pair" }
%"class.std::__1::__compressed_pair" = type { %"struct.std::__1::__compressed_pair_elem" }
%"struct.std::__1::__compressed_pair_elem" = type { %"struct.std::__1::basic_string<char, std::__1::char_traits<char>, std::__1::allocator<char> >::__rep" }
%"struct.std::__1::basic_string<char, std::__1::char_traits<char>, std::__1::allocator<char> >::__rep" = type { %union.anon }
%union.anon = type { %"struct.std::__1::basic_string<char, std::__1::char_traits<char>, std::__1::allocator<char> >::__long" }
%"struct.std::__1::basic_string<char, std::__1::char_traits<char>, std::__1::allocator<char> >::__long" = type { i8*, i64, i64 }
%"class.syncer::EnumSet" = type { %"class.std::__1::bitset" }
%"class.std::__1::bitset" = type { %"class.std::__1::__bitset" }
%"class.std::__1::__bitset" = type { i64 }
%"class.sync_pb::EncryptedData" = type { %"class.google::protobuf::MessageLite", %"class.google::protobuf::internal::HasBits", %"class.google::protobuf::internal::CachedSize", %"struct.google::protobuf::internal::ArenaStringPtr", %"struct.google::protobuf::internal::ArenaStringPtr" }
%"class.google::protobuf::MessageLite" = type { i32 (...)**, %"class.google::protobuf::internal::InternalMetadata" }
%"class.google::protobuf::internal::InternalMetadata" = type { i8* }
%"class.google::protobuf::internal::HasBits" = type { [1 x i32] }
%"class.google::protobuf::internal::CachedSize" = type { %"struct.std::__1::atomic" }
%"struct.std::__1::atomic" = type { %"struct.std::__1::__atomic_base" }
%"struct.std::__1::__atomic_base" = type { %"struct.std::__1::__atomic_base.1" }
%"struct.std::__1::__atomic_base.1" = type { %"struct.std::__1::__cxx_atomic_impl" }
%"struct.std::__1::__cxx_atomic_impl" = type { %"struct.std::__1::__cxx_atomic_base_impl" }
%"struct.std::__1::__cxx_atomic_base_impl" = type { i32 }
%"struct.google::protobuf::internal::ArenaStringPtr" = type { %"class.std::__1::basic_string"* }
%"class.syncer::KeyDerivationParams" = type { i32, %"class.std::__1::basic_string" }
%"class.base::Time" = type { %"class.base::time_internal::TimeBase" }
%"class.base::time_internal::TimeBase" = type { i64 }
%"class.syncer::SyncServiceCrypto" = type { %"class.syncer::SyncEncryptionHandler::Observer", %"class.syncer::DataTypeEncryptionHandler", %"class.syncer::TrustedVaultClient::Observer", %"class.syncer::SyncServiceCrypto::Delegate"*, %"class.syncer::TrustedVaultClient"*, %"struct.syncer::SyncServiceCrypto::State", %"class.base::WeakPtrFactory.7" }
%"class.syncer::SyncEncryptionHandler::Observer" = type { i32 (...)** }
%"class.syncer::DataTypeEncryptionHandler" = type { i32 (...)** }
%"class.syncer::TrustedVaultClient::Observer" = type { %"class.base::CheckedObserver" }
%"class.base::CheckedObserver" = type { i32 (...)**, %"class.base::WeakPtrFactory" }
%"class.base::WeakPtrFactory" = type { %"class.base::internal::WeakPtrFactoryBase" }
%"class.base::internal::WeakPtrFactoryBase" = type { %"class.base::internal::WeakReferenceOwner", i64 }
%"class.base::internal::WeakReferenceOwner" = type { %class.scoped_refptr }
%class.scoped_refptr = type { %"class.base::internal::WeakReference::Flag"* }
%"class.base::internal::WeakReference::Flag" = type <{ %"class.base::RefCountedThreadSafe", %"class.base::AtomicFlag", [3 x i8] }>
%"class.base::RefCountedThreadSafe" = type { %"class.base::subtle::RefCountedThreadSafeBase" }
%"class.base::subtle::RefCountedThreadSafeBase" = type { %"class.base::AtomicRefCount" }
%"class.base::AtomicRefCount" = type { %"struct.std::__1::atomic" }
%"class.base::AtomicFlag" = type { %"struct.std::__1::atomic.2" }
%"struct.std::__1::atomic.2" = type { %"struct.std::__1::__atomic_base.3" }
%"struct.std::__1::__atomic_base.3" = type { %"struct.std::__1::__atomic_base.4" }
%"struct.std::__1::__atomic_base.4" = type { %"struct.std::__1::__cxx_atomic_impl.5" }
%"struct.std::__1::__cxx_atomic_impl.5" = type { %"struct.std::__1::__cxx_atomic_base_impl.6" }
%"struct.std::__1::__cxx_atomic_base_impl.6" = type { i8 }
%"class.base::WeakPtrFactory.7" = type { %"class.base::internal::WeakPtrFactoryBase" }
%"class.syncer::SyncServiceCrypto::Delegate" = type { i32 (...)** }
%"class.syncer::TrustedVaultClient" = type { i32 (...)** }
%"class.google::protobuf::Arena" = type { %"class.google::protobuf::internal::ArenaImpl", void (%"class.std::type_info"*, i64, i8*)*, void (%"class.google::protobuf::Arena"*, i8*, i64)*, void (%"class.google::protobuf::Arena"*, i8*, i64)*, i8* }
%"class.google::protobuf::internal::ArenaImpl" = type { %"struct.std::__1::atomic.47", %"struct.std::__1::atomic.47", %"struct.std::__1::atomic.21", %"class.google::protobuf::internal::ArenaImpl::Block"*, i64, %"struct.google::protobuf::internal::ArenaImpl::Options" }
%"struct.std::__1::atomic.47" = type { %"struct.std::__1::__atomic_base.48" }
%"struct.std::__1::__atomic_base.48" = type { %"struct.std::__1::__cxx_atomic_impl.49" }
%"struct.std::__1::__cxx_atomic_impl.49" = type { %"struct.std::__1::__cxx_atomic_base_impl.50" }
%"struct.std::__1::__cxx_atomic_base_impl.50" = type { %"class.google::protobuf::internal::ArenaImpl::SerialArena"* }
%"class.google::protobuf::internal::ArenaImpl::SerialArena" = type { %"class.google::protobuf::internal::ArenaImpl"*, i8*, %"class.google::protobuf::internal::ArenaImpl::Block"*, %"struct.google::protobuf::internal::ArenaImpl::CleanupChunk"*, %"class.google::protobuf::internal::ArenaImpl::SerialArena"*, i8*, i8*, %"struct.google::protobuf::internal::ArenaImpl::CleanupNode"*, %"struct.google::protobuf::internal::ArenaImpl::CleanupNode"* }
%"struct.google::protobuf::internal::ArenaImpl::CleanupChunk" = type { i64, %"struct.google::protobuf::internal::ArenaImpl::CleanupChunk"*, [1 x %"struct.google::protobuf::internal::ArenaImpl::CleanupNode"] }
%"struct.google::protobuf::internal::ArenaImpl::CleanupNode" = type { i8*, void (i8*)* }
%"struct.std::__1::atomic.21" = type { %"struct.std::__1::__atomic_base.22" }
%"struct.std::__1::__atomic_base.22" = type { %"struct.std::__1::__atomic_base.23" }
%"struct.std::__1::__atomic_base.23" = type { %"struct.std::__1::__cxx_atomic_impl.24" }
%"struct.std::__1::__cxx_atomic_impl.24" = type { %"struct.std::__1::__cxx_atomic_base_impl.25" }
%"struct.std::__1::__cxx_atomic_base_impl.25" = type { i64 }
%"class.google::protobuf::internal::ArenaImpl::Block" = type { %"class.google::protobuf::internal::ArenaImpl::Block"*, i64, i64 }
%"struct.google::protobuf::internal::ArenaImpl::Options" = type { i64, i64, i8*, i64, i8* (i64)*, void (i8*, i64)* }
%"class.std::type_info" = type { i32 (...)**, i8* }
%"struct.std::__1::basic_string<char, std::__1::char_traits<char>, std::__1::allocator<char> >::__short" = type { [23 x i8], %struct.anon }
%struct.anon = type { i8 }
%"struct.google::protobuf::internal::InternalMetadata::ContainerBase" = type { %"class.google::protobuf::Arena"* }
%"class.syncer::Nigori" = type { i32 (...)**, %"struct.syncer::Nigori::Keys" }
%"struct.syncer::Nigori::Keys" = type { %"class.std::__1::unique_ptr.54", %"class.std::__1::unique_ptr.54", %"class.std::__1::unique_ptr.54" }
%"class.std::__1::unique_ptr.54" = type { %"class.std::__1::__compressed_pair.55" }
%"class.std::__1::__compressed_pair.55" = type { %"struct.std::__1::__compressed_pair_elem.56" }
%"struct.std::__1::__compressed_pair_elem.56" = type { %"class.crypto::SymmetricKey"* }
%"class.crypto::SymmetricKey" = type opaque
%"class.base::internal::WeakReference" = type { %class.scoped_refptr.14 }
%class.scoped_refptr.14 = type { %"class.base::internal::WeakReference::Flag"* }
%"class.base::OnceCallback" = type { %"class.base::internal::CallbackBase" }
%"class.base::internal::CallbackBase" = type { %class.scoped_refptr.31 }
%class.scoped_refptr.31 = type { %"class.base::internal::BindStateBase"* }
%"class.base::internal::BindStateBase" = type { %"class.base::RefCountedThreadSafe.32", void ()*, void (%"class.base::internal::BindStateBase"*)*, i1 (%"class.base::internal::BindStateBase"*, i32)* }
%"class.base::RefCountedThreadSafe.32" = type { %"class.base::subtle::RefCountedThreadSafeBase" }
%"class.base::WeakPtr.20" = type { %"class.base::internal::WeakPtrBase" }
%"class.base::internal::WeakPtrBase" = type { %"class.base::internal::WeakReference", i64 }
%"class.base::HistogramBase" = type <{ i32 (...)**, i8*, %"struct.std::__1::atomic.26", [4 x i8] }>
%"struct.std::__1::atomic.26" = type { %"struct.std::__1::__atomic_base.27" }
%"struct.std::__1::__atomic_base.27" = type { %"struct.std::__1::__atomic_base.28" }
%"struct.std::__1::__atomic_base.28" = type { %"struct.std::__1::__cxx_atomic_impl.29" }
%"struct.std::__1::__cxx_atomic_impl.29" = type { %"struct.std::__1::__cxx_atomic_base_impl.30" }
%"struct.std::__1::__cxx_atomic_base_impl.30" = type { i32 }
%"class.base::WeakPtr" = type { %"class.base::internal::WeakPtrBase" }
%class.scoped_refptr.15 = type { %"class.base::SequencedTaskRunner"* }
%"class.base::SequencedTaskRunner" = type { %"class.base::TaskRunner.base", [4 x i8] }
%"class.base::TaskRunner.base" = type <{ i32 (...)**, %"class.base::RefCountedThreadSafe.16" }>
%"class.base::RefCountedThreadSafe.16" = type { %"class.base::subtle::RefCountedThreadSafeBase" }
%"class.syncer::Cryptographer" = type opaque
%"class.base::OnceCallback.46" = type { %"class.base::internal::CallbackBase" }
%"class.std::__1::vector" = type { %"class.std::__1::__vector_base" }
%"class.std::__1::__vector_base" = type { %"class.std::__1::vector.33"*, %"class.std::__1::vector.33"*, %"class.std::__1::__compressed_pair.40" }
%"class.std::__1::vector.33" = type { %"class.std::__1::__vector_base.34" }
%"class.std::__1::__vector_base.34" = type { i8*, i8*, %"class.std::__1::__compressed_pair.35" }
%"class.std::__1::__compressed_pair.35" = type { %"struct.std::__1::__compressed_pair_elem.36" }
%"struct.std::__1::__compressed_pair_elem.36" = type { i8* }
%"class.std::__1::__compressed_pair.40" = type { %"struct.std::__1::__compressed_pair_elem.41" }
%"struct.std::__1::__compressed_pair_elem.41" = type { %"class.std::__1::vector.33"* }
%"class.base::OnceCallback.45" = type { %"class.base::internal::CallbackBase" }
%"class.syncer::(anonymous namespace)::EmptyTrustedVaultClient" = type { %"class.syncer::TrustedVaultClient" }
%"class.syncer::(anonymous namespace)::SyncEncryptionObserverProxy" = type { %"class.syncer::SyncEncryptionHandler::Observer", %"class.base::WeakPtr", %class.scoped_refptr.15 }
%"class.base::TaskRunner" = type <{ i32 (...)**, %"class.base::RefCountedThreadSafe.16", [4 x i8] }>
%"class.base::Location" = type { i8*, i8*, i32, i8* }
%"class.logging::CheckError" = type { %"class.logging::LogMessage"* }
%"class.logging::LogMessage" = type { i32 (...)**, i32, %"class.std::__1::basic_ostringstream", i64, i8*, i32, %"class.base::ScopedClearLastErrorBase" }
%"class.std::__1::basic_ostringstream" = type { %"class.std::__1::basic_ostream.base", %"class.std::__1::basic_stringbuf", %"class.std::__1::basic_ios.base" }
%"class.std::__1::basic_ostream.base" = type { i32 (...)** }
%"class.std::__1::basic_stringbuf" = type <{ %"class.std::__1::basic_streambuf", %"class.std::__1::basic_string", i8*, i32, [4 x i8] }>
%"class.std::__1::basic_streambuf" = type { i32 (...)**, %"class.std::__1::locale", i8*, i8*, i8*, i8*, i8*, i8* }
%"class.std::__1::locale" = type { %"class.std::__1::locale::__imp"* }
%"class.std::__1::locale::__imp" = type opaque
%"class.std::__1::basic_ios.base" = type <{ %"class.std::__1::ios_base", %"class.std::__1::basic_ostream"*, i32 }>
%"class.std::__1::ios_base" = type { i32 (...)**, i32, i64, i64, i32, i32, i8*, i8*, void (i32, %"class.std::__1::ios_base"*, i32)**, i32*, i64, i64, i64*, i64, i64, i8**, i64, i64 }
%"class.std::__1::basic_ostream" = type { i32 (...)**, %"class.std::__1::basic_ios.base" }
%"class.base::ScopedClearLastErrorBase" = type { i32 }

$_ZN6syncer17SyncServiceCrypto5StateaSEOS1_ = comdat any

$_ZN6syncer21SyncEncryptionHandler8ObserverD2Ev = comdat any

$_ZN6syncer21SyncEncryptionHandler8ObserverD0Ev = comdat any

$_ZN6syncer25DataTypeEncryptionHandlerD2Ev = comdat any

$_ZN6syncer25DataTypeEncryptionHandlerD0Ev = comdat any

$_ZN6syncer18TrustedVaultClientD2Ev = comdat any

$_ZN4base8internal7InvokerINS0_9BindStateIMN6syncer21SyncEncryptionHandler8ObserverEFvRKNS3_19KeyDerivationParamsERKN7sync_pb13EncryptedDataEEJNS_7WeakPtrIS5_EES6_SA_EEEFvvEE7RunOnceEPNS0_13BindStateBaseE = comdat any

$_ZN4base8internal9BindStateIMN6syncer21SyncEncryptionHandler8ObserverEFvRKNS2_19KeyDerivationParamsERKN7sync_pb13EncryptedDataEEJNS_7WeakPtrIS4_EES5_S9_EE7DestroyEPKNS0_13BindStateBaseE = comdat any

$_ZN4base8internal23QueryCancellationTraitsINS0_9BindStateIMN6syncer21SyncEncryptionHandler8ObserverEFvRKNS3_19KeyDerivationParamsERKN7sync_pb13EncryptedDataEEJNS_7WeakPtrIS5_EES6_SA_EEEEEbPKNS0_13BindStateBaseENSI_21CancellationQueryModeE = comdat any

$_ZN4base8internal7InvokerINS0_9BindStateIMN6syncer21SyncEncryptionHandler8ObserverEFvvEJNS_7WeakPtrIS5_EEEEEFvvEE7RunOnceEPNS0_13BindStateBaseE = comdat any

$_ZN4base8internal9BindStateIMN6syncer21SyncEncryptionHandler8ObserverEFvvEJNS_7WeakPtrIS4_EEEE7DestroyEPKNS0_13BindStateBaseE = comdat any

$_ZN4base8internal23QueryCancellationTraitsINS0_9BindStateIMN6syncer21SyncEncryptionHandler8ObserverEFvvEJNS_7WeakPtrIS5_EEEEEEEbPKNS0_13BindStateBaseENSB_21CancellationQueryModeE = comdat any

$_ZN4base8internal7InvokerINS0_9BindStateIMN6syncer21SyncEncryptionHandler8ObserverEFvRKNSt3__112basic_stringIcNS6_11char_traitsIcEENS6_9allocatorIcEEEENS3_18BootstrapTokenTypeEEJNS_7WeakPtrIS5_EESC_SF_EEEFvvEE7RunOnceEPNS0_13BindStateBaseE = comdat any

$_ZN4base8internal9BindStateIMN6syncer21SyncEncryptionHandler8ObserverEFvRKNSt3__112basic_stringIcNS5_11char_traitsIcEENS5_9allocatorIcEEEENS2_18BootstrapTokenTypeEEJNS_7WeakPtrIS4_EESB_SE_EE7DestroyEPKNS0_13BindStateBaseE = comdat any

$_ZN4base8internal23QueryCancellationTraitsINS0_9BindStateIMN6syncer21SyncEncryptionHandler8ObserverEFvRKNSt3__112basic_stringIcNS6_11char_traitsIcEENS6_9allocatorIcEEEENS3_18BootstrapTokenTypeEEJNS_7WeakPtrIS5_EESC_SF_EEEEEbPKNS0_13BindStateBaseENSL_21CancellationQueryModeE = comdat any

$_ZN4base8internal7InvokerINS0_9BindStateIMN6syncer21SyncEncryptionHandler8ObserverEFvNS3_7EnumSetINS3_9ModelTypeELS7_1ELS7_37EEEbEJNS_7WeakPtrIS5_EES8_bEEEFvvEE7RunOnceEPNS0_13BindStateBaseE = comdat any

$_ZN4base8internal9BindStateIMN6syncer21SyncEncryptionHandler8ObserverEFvNS2_7EnumSetINS2_9ModelTypeELS6_1ELS6_37EEEbEJNS_7WeakPtrIS4_EES7_bEE7DestroyEPKNS0_13BindStateBaseE = comdat any

$_ZN4base8internal23QueryCancellationTraitsINS0_9BindStateIMN6syncer21SyncEncryptionHandler8ObserverEFvNS3_7EnumSetINS3_9ModelTypeELS7_1ELS7_37EEEbEJNS_7WeakPtrIS5_EES8_bEEEEEbPKNS0_13BindStateBaseENSE_21CancellationQueryModeE = comdat any

$_ZN4base8internal7InvokerINS0_9BindStateIMN6syncer21SyncEncryptionHandler8ObserverEFvPNS3_13CryptographerEbEJNS_7WeakPtrIS5_EEDnbEEEFvvEE7RunOnceEPNS0_13BindStateBaseE = comdat any

$_ZN4base8internal9BindStateIMN6syncer21SyncEncryptionHandler8ObserverEFvPNS2_13CryptographerEbEJNS_7WeakPtrIS4_EEDnbEE7DestroyEPKNS0_13BindStateBaseE = comdat any

$_ZN4base8internal23QueryCancellationTraitsINS0_9BindStateIMN6syncer21SyncEncryptionHandler8ObserverEFvPNS3_13CryptographerEbEJNS_7WeakPtrIS5_EEDnbEEEEEbPKNS0_13BindStateBaseENSD_21CancellationQueryModeE = comdat any

$_ZN4base8internal7InvokerINS0_9BindStateIMN6syncer21SyncEncryptionHandler8ObserverEFvNS3_14PassphraseTypeENS_4TimeEEJNS_7WeakPtrIS5_EES6_S7_EEEFvvEE7RunOnceEPNS0_13BindStateBaseE = comdat any

$_ZN4base8internal9BindStateIMN6syncer21SyncEncryptionHandler8ObserverEFvNS2_14PassphraseTypeENS_4TimeEEJNS_7WeakPtrIS4_EES5_S6_EE7DestroyEPKNS0_13BindStateBaseE = comdat any

$_ZN4base8internal23QueryCancellationTraitsINS0_9BindStateIMN6syncer21SyncEncryptionHandler8ObserverEFvNS3_14PassphraseTypeENS_4TimeEEJNS_7WeakPtrIS5_EES6_S7_EEEEEbPKNS0_13BindStateBaseENSD_21CancellationQueryModeE = comdat any

$_ZN4base8internal7InvokerINS0_9BindStateIMN6syncer17SyncServiceCryptoEFvbRKNSt3__16vectorINS6_IhNS5_9allocatorIhEEEENS7_IS9_EEEEEJNS_7WeakPtrIS4_EEbEEEFvSD_EE7RunOnceEPNS0_13BindStateBaseESD_ = comdat any

$_ZN4base8internal9BindStateIMN6syncer17SyncServiceCryptoEFvbRKNSt3__16vectorINS5_IhNS4_9allocatorIhEEEENS6_IS8_EEEEEJNS_7WeakPtrIS3_EEbEE7DestroyEPKNS0_13BindStateBaseE = comdat any

$_ZN4base8internal23QueryCancellationTraitsINS0_9BindStateIMN6syncer17SyncServiceCryptoEFvbRKNSt3__16vectorINS6_IhNS5_9allocatorIhEEEENS7_IS9_EEEEEJNS_7WeakPtrIS4_EEbEEEEEbPKNS0_13BindStateBaseENSJ_21CancellationQueryModeE = comdat any

$_ZN4base8internal7InvokerINS0_9BindStateIMN6syncer17SyncServiceCryptoEFvbEJNS_7WeakPtrIS4_EEbEEEFvvEE7RunOnceEPNS0_13BindStateBaseE = comdat any

$_ZN4base8internal9BindStateIMN6syncer17SyncServiceCryptoEFvbEJNS_7WeakPtrIS3_EEbEE7DestroyEPKNS0_13BindStateBaseE = comdat any

$_ZN4base8internal23QueryCancellationTraitsINS0_9BindStateIMN6syncer17SyncServiceCryptoEFvbEJNS_7WeakPtrIS4_EEbEEEEEbPKNS0_13BindStateBaseENSA_21CancellationQueryModeE = comdat any

$_ZN4base8internal7InvokerINS0_9BindStateIMN6syncer17SyncServiceCryptoEFvbbEJNS_7WeakPtrIS4_EEbEEEFvbEE7RunOnceEPNS0_13BindStateBaseEb = comdat any

$_ZN4base8internal9BindStateIMN6syncer17SyncServiceCryptoEFvbbEJNS_7WeakPtrIS3_EEbEE7DestroyEPKNS0_13BindStateBaseE = comdat any

$_ZN4base8internal23QueryCancellationTraitsINS0_9BindStateIMN6syncer17SyncServiceCryptoEFvbbEJNS_7WeakPtrIS4_EEbEEEEEbPKNS0_13BindStateBaseENSA_21CancellationQueryModeE = comdat any

$_ZN4base8internal7InvokerINS0_9BindStateIMN6syncer17SyncServiceCryptoEFvbEJNS_7WeakPtrIS4_EEEEEFvbEE7RunOnceEPNS0_13BindStateBaseEb = comdat any

$_ZN4base8internal9BindStateIMN6syncer17SyncServiceCryptoEFvbEJNS_7WeakPtrIS3_EEEE7DestroyEPKNS0_13BindStateBaseE = comdat any

$_ZN4base8internal23QueryCancellationTraitsINS0_9BindStateIMN6syncer17SyncServiceCryptoEFvbEJNS_7WeakPtrIS4_EEEEEEEbPKNS0_13BindStateBaseENSA_21CancellationQueryModeE = comdat any

$_ZTVN6syncer21SyncEncryptionHandler8ObserverE = comdat any

$_ZTVN6syncer25DataTypeEncryptionHandlerE = comdat any

@_ZTVN6syncer17SyncServiceCryptoE = hidden unnamed_addr constant { [16 x i8*], [6 x i8*], [6 x i8*] } { [16 x i8*] [i8* null, i8* null, i8* bitcast (void (%"class.syncer::SyncServiceCrypto"*)* @_ZN6syncer17SyncServiceCryptoD2Ev to i8*), i8* bitcast (void (%"class.syncer::SyncServiceCrypto"*)* @_ZN6syncer17SyncServiceCryptoD0Ev to i8*), i8* bitcast (void (%"class.syncer::SyncServiceCrypto"*, %"class.syncer::KeyDerivationParams"*, %"class.sync_pb::EncryptedData"*)* @_ZN6syncer17SyncServiceCrypto20OnPassphraseRequiredERKNS_19KeyDerivationParamsERKN7sync_pb13EncryptedDataE to i8*), i8* bitcast (void (%"class.syncer::SyncServiceCrypto"*)* @_ZN6syncer17SyncServiceCrypto20OnPassphraseAcceptedEv to i8*), i8* bitcast (void (%"class.syncer::SyncServiceCrypto"*)* @_ZN6syncer17SyncServiceCrypto25OnTrustedVaultKeyRequiredEv to i8*), i8* bitcast (void (%"class.syncer::SyncServiceCrypto"*)* @_ZN6syncer17SyncServiceCrypto25OnTrustedVaultKeyAcceptedEv to i8*), i8* bitcast (void (%"class.syncer::SyncServiceCrypto"*, %"class.std::__1::basic_string"*, i32)* @_ZN6syncer17SyncServiceCrypto23OnBootstrapTokenUpdatedERKNSt3__112basic_stringIcNS1_11char_traitsIcEENS1_9allocatorIcEEEENS_18BootstrapTokenTypeE to i8*), i8* bitcast (void (%"class.syncer::SyncServiceCrypto"*, i64, i1)* @_ZN6syncer17SyncServiceCrypto23OnEncryptedTypesChangedENS_7EnumSetINS_9ModelTypeELS2_1ELS2_37EEEb to i8*), i8* bitcast (void (%"class.syncer::SyncServiceCrypto"*, %"class.syncer::Cryptographer"*, i1)* @_ZN6syncer17SyncServiceCrypto27OnCryptographerStateChangedEPNS_13CryptographerEb to i8*), i8* bitcast (void (%"class.syncer::SyncServiceCrypto"*, i32, i64)* @_ZN6syncer17SyncServiceCrypto23OnPassphraseTypeChangedENS_14PassphraseTypeEN4base4TimeE to i8*), i8* bitcast (i1 (%"class.syncer::SyncServiceCrypto"*)* @_ZNK6syncer17SyncServiceCrypto14HasCryptoErrorEv to i8*), i8* bitcast (i64 (%"class.syncer::SyncServiceCrypto"*)* @_ZNK6syncer17SyncServiceCrypto21GetEncryptedDataTypesEv to i8*), i8* bitcast (void (%"class.syncer::SyncServiceCrypto"*)* @_ZN6syncer17SyncServiceCrypto25OnTrustedVaultKeysChangedEv to i8*), i8* bitcast (void (%"class.syncer::SyncServiceCrypto"*)* @_ZN6syncer17SyncServiceCrypto35OnTrustedVaultRecoverabilityChangedEv to i8*)], [6 x i8*] [i8* inttoptr (i64 -8 to i8*), i8* null, i8* bitcast (void (%"class.syncer::SyncServiceCrypto"*)* @_ZThn8_N6syncer17SyncServiceCryptoD1Ev to i8*), i8* bitcast (void (%"class.syncer::SyncServiceCrypto"*)* @_ZThn8_N6syncer17SyncServiceCryptoD0Ev to i8*), i8* bitcast (i1 (%"class.syncer::SyncServiceCrypto"*)* @_ZThn8_NK6syncer17SyncServiceCrypto14HasCryptoErrorEv to i8*), i8* bitcast (i64 (%"class.syncer::SyncServiceCrypto"*)* @_ZThn8_NK6syncer17SyncServiceCrypto21GetEncryptedDataTypesEv to i8*)], [6 x i8*] [i8* inttoptr (i64 -16 to i8*), i8* null, i8* bitcast (void (%"class.syncer::SyncServiceCrypto"*)* @_ZThn16_N6syncer17SyncServiceCryptoD1Ev to i8*), i8* bitcast (void (%"class.syncer::SyncServiceCrypto"*)* @_ZThn16_N6syncer17SyncServiceCryptoD0Ev to i8*), i8* bitcast (void (%"class.syncer::SyncServiceCrypto"*)* @_ZThn16_N6syncer17SyncServiceCrypto25OnTrustedVaultKeysChangedEv to i8*), i8* bitcast (void (%"class.syncer::SyncServiceCrypto"*)* @_ZThn16_N6syncer17SyncServiceCrypto35OnTrustedVaultRecoverabilityChangedEv to i8*)] }, align 8
@.str = private unnamed_addr constant [34 x i8] c"Sync.TrustedVaultFetchKeysAttempt\00", align 1
@.str.1 = private unnamed_addr constant [34 x i8] c"Sync.TrustedVaultFetchedKeysCount\00", align 1
@.str.2 = private unnamed_addr constant [44 x i8] c"Sync.TrustedVaultAddKeysAttemptIsSuccessful\00", align 1
@_ZN8switches42kSyncSupportTrustedVaultPassphraseRecoveryE = external global %"struct.base::Feature", align 8
@_ZTVN6syncer21SyncEncryptionHandler8ObserverE = linkonce_odr hidden unnamed_addr constant { [12 x i8*] } { [12 x i8*] [i8* null, i8* null, i8* bitcast (void (%"class.syncer::SyncEncryptionHandler::Observer"*)* @_ZN6syncer21SyncEncryptionHandler8ObserverD2Ev to i8*), i8* bitcast (void (%"class.syncer::SyncEncryptionHandler::Observer"*)* @_ZN6syncer21SyncEncryptionHandler8ObserverD0Ev to i8*), i8* bitcast (void ()* @__cxa_pure_virtual to i8*), i8* bitcast (void ()* @__cxa_pure_virtual to i8*), i8* bitcast (void ()* @__cxa_pure_virtual to i8*), i8* bitcast (void ()* @__cxa_pure_virtual to i8*), i8* bitcast (void ()* @__cxa_pure_virtual to i8*), i8* bitcast (void ()* @__cxa_pure_virtual to i8*), i8* bitcast (void ()* @__cxa_pure_virtual to i8*), i8* bitcast (void ()* @__cxa_pure_virtual to i8*)] }, comdat, align 8
@_ZTVN6syncer25DataTypeEncryptionHandlerE = linkonce_odr hidden unnamed_addr constant { [6 x i8*] } { [6 x i8*] [i8* null, i8* null, i8* bitcast (void (%"class.syncer::DataTypeEncryptionHandler"*)* @_ZN6syncer25DataTypeEncryptionHandlerD2Ev to i8*), i8* bitcast (void (%"class.syncer::DataTypeEncryptionHandler"*)* @_ZN6syncer25DataTypeEncryptionHandlerD0Ev to i8*), i8* bitcast (void ()* @__cxa_pure_virtual to i8*), i8* bitcast (void ()* @__cxa_pure_virtual to i8*)] }, comdat, align 8
@_ZZN6syncer12_GLOBAL__N_116ResoveNullClientEPNS_18TrustedVaultClientEE12empty_client = internal global %"class.base::NoDestructor" zeroinitializer, align 8
@_ZGVZN6syncer12_GLOBAL__N_116ResoveNullClientEPNS_18TrustedVaultClientEE12empty_client = internal global i64 0, align 8
@_ZTVN6syncer12_GLOBAL__N_123EmptyTrustedVaultClientE = internal unnamed_addr constant { [12 x i8*] } { [12 x i8*] [i8* null, i8* null, i8* bitcast (void (%"class.syncer::TrustedVaultClient"*)* @_ZN6syncer18TrustedVaultClientD2Ev to i8*), i8* bitcast (void (%"class.syncer::(anonymous namespace)::EmptyTrustedVaultClient"*)* @_ZN6syncer12_GLOBAL__N_123EmptyTrustedVaultClientD0Ev to i8*), i8* bitcast (void (%"class.syncer::(anonymous namespace)::EmptyTrustedVaultClient"*, %"class.syncer::TrustedVaultClient::Observer"*)* @_ZN6syncer12_GLOBAL__N_123EmptyTrustedVaultClient11AddObserverEPNS_18TrustedVaultClient8ObserverE to i8*), i8* bitcast (void (%"class.syncer::(anonymous namespace)::EmptyTrustedVaultClient"*, %"class.syncer::TrustedVaultClient::Observer"*)* @_ZN6syncer12_GLOBAL__N_123EmptyTrustedVaultClient14RemoveObserverEPNS_18TrustedVaultClient8ObserverE to i8*), i8* bitcast (void (%"class.syncer::(anonymous namespace)::EmptyTrustedVaultClient"*, %struct.CoreAccountInfo*, %"class.base::OnceCallback"*)* @_ZN6syncer12_GLOBAL__N_123EmptyTrustedVaultClient9FetchKeysERK15CoreAccountInfoN4base12OnceCallbackIFvRKNSt3__16vectorINS8_IhNS7_9allocatorIhEEEENS9_ISB_EEEEEEE to i8*), i8* bitcast (void (%"class.syncer::(anonymous namespace)::EmptyTrustedVaultClient"*, %struct.CoreAccountInfo*, %"class.base::OnceCallback.46"*)* @_ZN6syncer12_GLOBAL__N_123EmptyTrustedVaultClient15MarkKeysAsStaleERK15CoreAccountInfoN4base12OnceCallbackIFvbEEE to i8*), i8* bitcast (void (%"class.syncer::(anonymous namespace)::EmptyTrustedVaultClient"*, %"class.std::__1::basic_string"*, %"class.std::__1::vector"*, i32)* @_ZN6syncer12_GLOBAL__N_123EmptyTrustedVaultClient9StoreKeysERKNSt3__112basic_stringIcNS2_11char_traitsIcEENS2_9allocatorIcEEEERKNS2_6vectorINSB_IhNS6_IhEEEENS6_ISD_EEEEi to i8*), i8* bitcast (void (%"class.syncer::(anonymous namespace)::EmptyTrustedVaultClient"*)* @_ZN6syncer12_GLOBAL__N_123EmptyTrustedVaultClient19RemoveAllStoredKeysEv to i8*), i8* bitcast (void (%"class.syncer::(anonymous namespace)::EmptyTrustedVaultClient"*, %struct.CoreAccountInfo*, %"class.base::OnceCallback.46"*)* @_ZN6syncer12_GLOBAL__N_123EmptyTrustedVaultClient27GetIsRecoverabilityDegradedERK15CoreAccountInfoN4base12OnceCallbackIFvbEEE to i8*), i8* bitcast (void (%"class.syncer::(anonymous namespace)::EmptyTrustedVaultClient"*, %"class.std::__1::basic_string"*, %"class.std::__1::vector.33"*, i32, %"class.base::OnceCallback.45"*)* @_ZN6syncer12_GLOBAL__N_123EmptyTrustedVaultClient24AddTrustedRecoveryMethodERKNSt3__112basic_stringIcNS2_11char_traitsIcEENS2_9allocatorIcEEEERKNS2_6vectorIhNS6_IhEEEEiN4base12OnceCallbackIFvvEEE to i8*)] }, align 8
@_ZN6google8protobuf8internal26fixed_address_empty_stringE = external global %"class.google::protobuf::internal::ExplicitlyConstructed", align 8
@_ZTVN6syncer12_GLOBAL__N_127SyncEncryptionObserverProxyE = internal unnamed_addr constant { [12 x i8*] } { [12 x i8*] [i8* null, i8* null, i8* bitcast (void (%"class.syncer::(anonymous namespace)::SyncEncryptionObserverProxy"*)* @_ZN6syncer12_GLOBAL__N_127SyncEncryptionObserverProxyD2Ev to i8*), i8* bitcast (void (%"class.syncer::(anonymous namespace)::SyncEncryptionObserverProxy"*)* @_ZN6syncer12_GLOBAL__N_127SyncEncryptionObserverProxyD0Ev to i8*), i8* bitcast (void (%"class.syncer::(anonymous namespace)::SyncEncryptionObserverProxy"*, %"class.syncer::KeyDerivationParams"*, %"class.sync_pb::EncryptedData"*)* @_ZN6syncer12_GLOBAL__N_127SyncEncryptionObserverProxy20OnPassphraseRequiredERKNS_19KeyDerivationParamsERKN7sync_pb13EncryptedDataE to i8*), i8* bitcast (void (%"class.syncer::(anonymous namespace)::SyncEncryptionObserverProxy"*)* @_ZN6syncer12_GLOBAL__N_127SyncEncryptionObserverProxy20OnPassphraseAcceptedEv to i8*), i8* bitcast (void (%"class.syncer::(anonymous namespace)::SyncEncryptionObserverProxy"*)* @_ZN6syncer12_GLOBAL__N_127SyncEncryptionObserverProxy25OnTrustedVaultKeyRequiredEv to i8*), i8* bitcast (void (%"class.syncer::(anonymous namespace)::SyncEncryptionObserverProxy"*)* @_ZN6syncer12_GLOBAL__N_127SyncEncryptionObserverProxy25OnTrustedVaultKeyAcceptedEv to i8*), i8* bitcast (void (%"class.syncer::(anonymous namespace)::SyncEncryptionObserverProxy"*, %"class.std::__1::basic_string"*, i32)* @_ZN6syncer12_GLOBAL__N_127SyncEncryptionObserverProxy23OnBootstrapTokenUpdatedERKNSt3__112basic_stringIcNS2_11char_traitsIcEENS2_9allocatorIcEEEENS_18BootstrapTokenTypeE to i8*), i8* bitcast (void (%"class.syncer::(anonymous namespace)::SyncEncryptionObserverProxy"*, i64, i1)* @_ZN6syncer12_GLOBAL__N_127SyncEncryptionObserverProxy23OnEncryptedTypesChangedENS_7EnumSetINS_9ModelTypeELS3_1ELS3_37EEEb to i8*), i8* bitcast (void (%"class.syncer::(anonymous namespace)::SyncEncryptionObserverProxy"*, %"class.syncer::Cryptographer"*, i1)* @_ZN6syncer12_GLOBAL__N_127SyncEncryptionObserverProxy27OnCryptographerStateChangedEPNS_13CryptographerEb to i8*), i8* bitcast (void (%"class.syncer::(anonymous namespace)::SyncEncryptionObserverProxy"*, i32, i64)* @_ZN6syncer12_GLOBAL__N_127SyncEncryptionObserverProxy23OnPassphraseTypeChangedENS_14PassphraseTypeEN4base4TimeE to i8*)] }, align 8
@.str.3 = private unnamed_addr constant [21 x i8] c"OnPassphraseRequired\00", align 1
@.str.4 = private unnamed_addr constant [52 x i8] c"../../components/sync/driver/sync_service_crypto.cc\00", align 1
@.str.5 = private unnamed_addr constant [29 x i8] c"../../base/memory/weak_ptr.h\00", align 1
@.str.6 = private unnamed_addr constant [15 x i8] c"ref_.IsValid()\00", align 1
@.str.7 = private unnamed_addr constant [21 x i8] c"OnPassphraseAccepted\00", align 1
@.str.8 = private unnamed_addr constant [26 x i8] c"OnTrustedVaultKeyRequired\00", align 1
@.str.9 = private unnamed_addr constant [26 x i8] c"OnTrustedVaultKeyAccepted\00", align 1
@.str.10 = private unnamed_addr constant [24 x i8] c"OnBootstrapTokenUpdated\00", align 1
@.str.11 = private unnamed_addr constant [24 x i8] c"OnEncryptedTypesChanged\00", align 1
@.str.12 = private unnamed_addr constant [28 x i8] c"OnCryptographerStateChanged\00", align 1
@.str.13 = private unnamed_addr constant [24 x i8] c"OnPassphraseTypeChanged\00", align 1
@_ZZN6syncer17SyncServiceCrypto21FetchTrustedVaultKeysEbE24atomic_histogram_pointer.0.0.0.0.0 = internal unnamed_addr global i64 0, align 8
@_ZZN6syncer17SyncServiceCrypto33TrustedVaultKeysFetchedFromClientEbRKNSt3__16vectorINS2_IhNS1_9allocatorIhEEEENS3_IS5_EEEEE24atomic_histogram_pointer.0.0.0.0.0 = internal unnamed_addr global i64 0, align 8
@_ZZN6syncer17SyncServiceCrypto21TrustedVaultKeysAddedEbE24atomic_histogram_pointer.0.0.0.0.0 = internal unnamed_addr global i64 0, align 8

@_ZN6syncer17SyncServiceCrypto5StateC1Ev = hidden unnamed_addr alias void (%"struct.syncer::SyncServiceCrypto::State"*), void (%"struct.syncer::SyncServiceCrypto::State"*)* @_ZN6syncer17SyncServiceCrypto5StateC2Ev
@_ZN6syncer17SyncServiceCrypto5StateD1Ev = hidden unnamed_addr alias void (%"struct.syncer::SyncServiceCrypto::State"*), void (%"struct.syncer::SyncServiceCrypto::State"*)* @_ZN6syncer17SyncServiceCrypto5StateD2Ev
@_ZN6syncer17SyncServiceCryptoC1EPNS0_8DelegateEPNS_18TrustedVaultClientE = hidden unnamed_addr alias void (%"class.syncer::SyncServiceCrypto"*, %"class.syncer::SyncServiceCrypto::Delegate"*, %"class.syncer::TrustedVaultClient"*), void (%"class.syncer::SyncServiceCrypto"*, %"class.syncer::SyncServiceCrypto::Delegate"*, %"class.syncer::TrustedVaultClient"*)* @_ZN6syncer17SyncServiceCryptoC2EPNS0_8DelegateEPNS_18TrustedVaultClientE
@_ZN6syncer17SyncServiceCryptoD1Ev = hidden unnamed_addr alias void (%"class.syncer::SyncServiceCrypto"*), void (%"class.syncer::SyncServiceCrypto"*)* @_ZN6syncer17SyncServiceCryptoD2Ev

; Function Attrs: nounwind ssp uwtable
define hidden void @_ZN6syncer17SyncServiceCrypto5StateC2Ev(%"struct.syncer::SyncServiceCrypto::State"*) unnamed_addr #0 align 2 {
  %2 = getelementptr inbounds %"struct.syncer::SyncServiceCrypto::State", %"struct.syncer::SyncServiceCrypto::State"* %0, i64 0, i32 0
  store %"class.syncer::SyncEngine"* null, %"class.syncer::SyncEngine"** %2, align 8
  %3 = getelementptr inbounds %"struct.syncer::SyncServiceCrypto::State", %"struct.syncer::SyncServiceCrypto::State"* %0, i64 0, i32 1
  tail call void @_ZN15CoreAccountInfoC1Ev(%struct.CoreAccountInfo* %3) #11
  %4 = getelementptr inbounds %"struct.syncer::SyncServiceCrypto::State", %"struct.syncer::SyncServiceCrypto::State"* %0, i64 0, i32 2
  store i32 0, i32* %4, align 8
  %5 = getelementptr inbounds %"struct.syncer::SyncServiceCrypto::State", %"struct.syncer::SyncServiceCrypto::State"* %0, i64 0, i32 4, i32 0, i32 0, i32 0
  store i64 536870916, i64* %5, align 8
  %6 = getelementptr inbounds %"struct.syncer::SyncServiceCrypto::State", %"struct.syncer::SyncServiceCrypto::State"* %0, i64 0, i32 5
  store i8 0, i8* %6, align 8
  %7 = getelementptr inbounds %"struct.syncer::SyncServiceCrypto::State", %"struct.syncer::SyncServiceCrypto::State"* %0, i64 0, i32 6
  store i8 0, i8* %7, align 1
  %8 = getelementptr inbounds %"struct.syncer::SyncServiceCrypto::State", %"struct.syncer::SyncServiceCrypto::State"* %0, i64 0, i32 8
  tail call void @_ZN7sync_pb13EncryptedDataC2EPN6google8protobuf5ArenaE(%"class.sync_pb::EncryptedData"* %8, %"class.google::protobuf::Arena"* null) #11
  %9 = getelementptr inbounds %"struct.syncer::SyncServiceCrypto::State", %"struct.syncer::SyncServiceCrypto::State"* %0, i64 0, i32 9
  store i32 0, i32* %9, align 8
  %10 = getelementptr inbounds %"struct.syncer::SyncServiceCrypto::State", %"struct.syncer::SyncServiceCrypto::State"* %0, i64 0, i32 11
  tail call void @_ZN6syncer19KeyDerivationParams15CreateForPbkdf2Ev(%"class.syncer::KeyDerivationParams"* sret %10) #11
  %11 = getelementptr inbounds %"struct.syncer::SyncServiceCrypto::State", %"struct.syncer::SyncServiceCrypto::State"* %0, i64 0, i32 12, i32 0, i32 0
  store i64 0, i64* %11, align 8
  %12 = getelementptr inbounds %"struct.syncer::SyncServiceCrypto::State", %"struct.syncer::SyncServiceCrypto::State"* %0, i64 0, i32 13
  store i8 0, i8* %12, align 8
  ret void
}

declare void @_ZN15CoreAccountInfoC1Ev(%struct.CoreAccountInfo*) unnamed_addr #1

declare void @_ZN6syncer19KeyDerivationParams15CreateForPbkdf2Ev(%"class.syncer::KeyDerivationParams"* sret) local_unnamed_addr #1

; Function Attrs: nounwind ssp uwtable
define hidden void @_ZN6syncer17SyncServiceCrypto5StateD2Ev(%"struct.syncer::SyncServiceCrypto::State"*) unnamed_addr #0 align 2 {
  %2 = getelementptr inbounds %"struct.syncer::SyncServiceCrypto::State", %"struct.syncer::SyncServiceCrypto::State"* %0, i64 0, i32 11, i32 1
  %3 = bitcast %"class.std::__1::basic_string"* %2 to %"struct.std::__1::basic_string<char, std::__1::char_traits<char>, std::__1::allocator<char> >::__short"*
  %4 = getelementptr inbounds %"struct.std::__1::basic_string<char, std::__1::char_traits<char>, std::__1::allocator<char> >::__short", %"struct.std::__1::basic_string<char, std::__1::char_traits<char>, std::__1::allocator<char> >::__short"* %3, i64 0, i32 1, i32 0
  %5 = load i8, i8* %4, align 1
  %6 = icmp slt i8 %5, 0
  br i1 %6, label %7, label %10

7:                                                ; preds = %1
  %8 = getelementptr inbounds %"class.std::__1::basic_string", %"class.std::__1::basic_string"* %2, i64 0, i32 0, i32 0, i32 0, i32 0, i32 0, i32 0
  %9 = load i8*, i8** %8, align 8
  tail call void @_ZdlPv(i8* %9) #12
  br label %10

10:                                               ; preds = %1, %7
  %11 = getelementptr inbounds %"struct.syncer::SyncServiceCrypto::State", %"struct.syncer::SyncServiceCrypto::State"* %0, i64 0, i32 8
  tail call void @_ZN7sync_pb13EncryptedDataD1Ev(%"class.sync_pb::EncryptedData"* %11) #11
  %12 = getelementptr inbounds %"struct.syncer::SyncServiceCrypto::State", %"struct.syncer::SyncServiceCrypto::State"* %0, i64 0, i32 1
  tail call void @_ZN15CoreAccountInfoD1Ev(%struct.CoreAccountInfo* %12) #11
  ret void
}

; Function Attrs: nounwind
declare void @_ZN7sync_pb13EncryptedDataD1Ev(%"class.sync_pb::EncryptedData"*) unnamed_addr #2

; Function Attrs: nounwind
declare void @_ZN15CoreAccountInfoD1Ev(%struct.CoreAccountInfo*) unnamed_addr #2

; Function Attrs: nounwind ssp uwtable
define hidden void @_ZN6syncer17SyncServiceCryptoC2EPNS0_8DelegateEPNS_18TrustedVaultClientE(%"class.syncer::SyncServiceCrypto"*, %"class.syncer::SyncServiceCrypto::Delegate"*, %"class.syncer::TrustedVaultClient"*) unnamed_addr #0 align 2 {
  %4 = bitcast %"class.syncer::SyncServiceCrypto"* %0 to <2 x i32 (...)**>*
  store <2 x i32 (...)**> <i32 (...)** bitcast (i8** getelementptr inbounds ({ [12 x i8*] }, { [12 x i8*] }* @_ZTVN6syncer21SyncEncryptionHandler8ObserverE, i64 0, inrange i32 0, i64 2) to i32 (...)**), i32 (...)** bitcast (i8** getelementptr inbounds ({ [6 x i8*] }, { [6 x i8*] }* @_ZTVN6syncer25DataTypeEncryptionHandlerE, i64 0, inrange i32 0, i64 2) to i32 (...)**)>, <2 x i32 (...)**>* %4, align 8
  %5 = getelementptr inbounds %"class.syncer::SyncServiceCrypto", %"class.syncer::SyncServiceCrypto"* %0, i64 0, i32 2
  %6 = getelementptr inbounds %"class.syncer::TrustedVaultClient::Observer", %"class.syncer::TrustedVaultClient::Observer"* %5, i64 0, i32 0
  tail call void @_ZN4base15CheckedObserverC2Ev(%"class.base::CheckedObserver"* %6) #11
  %7 = getelementptr inbounds %"class.syncer::TrustedVaultClient::Observer", %"class.syncer::TrustedVaultClient::Observer"* %5, i64 0, i32 0, i32 0
  %8 = bitcast %"class.syncer::SyncServiceCrypto"* %0 to <2 x i32 (...)**>*
  store <2 x i32 (...)**> <i32 (...)** bitcast (i8** getelementptr inbounds ({ [16 x i8*], [6 x i8*], [6 x i8*] }, { [16 x i8*], [6 x i8*], [6 x i8*] }* @_ZTVN6syncer17SyncServiceCryptoE, i64 0, inrange i32 0, i64 2) to i32 (...)**), i32 (...)** bitcast (i8** getelementptr inbounds ({ [16 x i8*], [6 x i8*], [6 x i8*] }, { [16 x i8*], [6 x i8*], [6 x i8*] }* @_ZTVN6syncer17SyncServiceCryptoE, i64 0, inrange i32 1, i64 2) to i32 (...)**)>, <2 x i32 (...)**>* %8, align 8
  store i32 (...)** bitcast (i8** getelementptr inbounds ({ [16 x i8*], [6 x i8*], [6 x i8*] }, { [16 x i8*], [6 x i8*], [6 x i8*] }* @_ZTVN6syncer17SyncServiceCryptoE, i64 0, inrange i32 2, i64 2) to i32 (...)**), i32 (...)*** %7, align 8
  %9 = getelementptr inbounds %"class.syncer::SyncServiceCrypto", %"class.syncer::SyncServiceCrypto"* %0, i64 0, i32 3
  store %"class.syncer::SyncServiceCrypto::Delegate"* %1, %"class.syncer::SyncServiceCrypto::Delegate"** %9, align 8
  %10 = getelementptr inbounds %"class.syncer::SyncServiceCrypto", %"class.syncer::SyncServiceCrypto"* %0, i64 0, i32 4
  %11 = icmp eq %"class.syncer::TrustedVaultClient"* %2, null
  br i1 %11, label %12, label %19

12:                                               ; preds = %3
  %13 = load atomic i8, i8* bitcast (i64* @_ZGVZN6syncer12_GLOBAL__N_116ResoveNullClientEPNS_18TrustedVaultClientEE12empty_client to i8*) acquire, align 8
  %14 = icmp eq i8 %13, 0
  br i1 %14, label %15, label %19, !prof !2

15:                                               ; preds = %12
  %16 = tail call i32 @__cxa_guard_acquire(i64* nonnull @_ZGVZN6syncer12_GLOBAL__N_116ResoveNullClientEPNS_18TrustedVaultClientEE12empty_client) #11
  %17 = icmp eq i32 %16, 0
  br i1 %17, label %19, label %18

18:                                               ; preds = %15
  store i32 (...)** bitcast (i8** getelementptr inbounds ({ [12 x i8*] }, { [12 x i8*] }* @_ZTVN6syncer12_GLOBAL__N_123EmptyTrustedVaultClientE, i64 0, inrange i32 0, i64 2) to i32 (...)**), i32 (...)*** bitcast (%"class.base::NoDestructor"* @_ZZN6syncer12_GLOBAL__N_116ResoveNullClientEPNS_18TrustedVaultClientEE12empty_client to i32 (...)***), align 8
  tail call void @__cxa_guard_release(i64* nonnull @_ZGVZN6syncer12_GLOBAL__N_116ResoveNullClientEPNS_18TrustedVaultClientEE12empty_client) #11
  br label %19

19:                                               ; preds = %3, %12, %15, %18
  %20 = phi %"class.syncer::TrustedVaultClient"* [ %2, %3 ], [ bitcast (%"class.base::NoDestructor"* @_ZZN6syncer12_GLOBAL__N_116ResoveNullClientEPNS_18TrustedVaultClientEE12empty_client to %"class.syncer::TrustedVaultClient"*), %15 ], [ bitcast (%"class.base::NoDestructor"* @_ZZN6syncer12_GLOBAL__N_116ResoveNullClientEPNS_18TrustedVaultClientEE12empty_client to %"class.syncer::TrustedVaultClient"*), %18 ], [ bitcast (%"class.base::NoDestructor"* @_ZZN6syncer12_GLOBAL__N_116ResoveNullClientEPNS_18TrustedVaultClientEE12empty_client to %"class.syncer::TrustedVaultClient"*), %12 ]
  store %"class.syncer::TrustedVaultClient"* %20, %"class.syncer::TrustedVaultClient"** %10, align 8
  %21 = getelementptr inbounds %"class.syncer::SyncServiceCrypto", %"class.syncer::SyncServiceCrypto"* %0, i64 0, i32 5, i32 0
  store %"class.syncer::SyncEngine"* null, %"class.syncer::SyncEngine"** %21, align 8
  %22 = getelementptr inbounds %"class.syncer::SyncServiceCrypto", %"class.syncer::SyncServiceCrypto"* %0, i64 0, i32 5, i32 1
  tail call void @_ZN15CoreAccountInfoC1Ev(%struct.CoreAccountInfo* %22) #11
  %23 = getelementptr inbounds %"class.syncer::SyncServiceCrypto", %"class.syncer::SyncServiceCrypto"* %0, i64 0, i32 5, i32 2
  store i32 0, i32* %23, align 8
  %24 = getelementptr inbounds %"class.syncer::SyncServiceCrypto", %"class.syncer::SyncServiceCrypto"* %0, i64 0, i32 5, i32 4, i32 0, i32 0, i32 0
  store i64 536870916, i64* %24, align 8
  %25 = getelementptr inbounds %"class.syncer::SyncServiceCrypto", %"class.syncer::SyncServiceCrypto"* %0, i64 0, i32 5, i32 5
  store i8 0, i8* %25, align 8
  %26 = getelementptr inbounds %"class.syncer::SyncServiceCrypto", %"class.syncer::SyncServiceCrypto"* %0, i64 0, i32 5, i32 6
  store i8 0, i8* %26, align 1
  %27 = getelementptr inbounds %"class.syncer::SyncServiceCrypto", %"class.syncer::SyncServiceCrypto"* %0, i64 0, i32 5, i32 8
  tail call void @_ZN7sync_pb13EncryptedDataC2EPN6google8protobuf5ArenaE(%"class.sync_pb::EncryptedData"* %27, %"class.google::protobuf::Arena"* null) #11
  %28 = getelementptr inbounds %"class.syncer::SyncServiceCrypto", %"class.syncer::SyncServiceCrypto"* %0, i64 0, i32 5, i32 9
  store i32 0, i32* %28, align 8
  %29 = getelementptr inbounds %"class.syncer::SyncServiceCrypto", %"class.syncer::SyncServiceCrypto"* %0, i64 0, i32 5, i32 11
  tail call void @_ZN6syncer19KeyDerivationParams15CreateForPbkdf2Ev(%"class.syncer::KeyDerivationParams"* sret %29) #11
  %30 = getelementptr inbounds %"class.syncer::SyncServiceCrypto", %"class.syncer::SyncServiceCrypto"* %0, i64 0, i32 5, i32 12, i32 0, i32 0
  store i64 0, i64* %30, align 8
  %31 = getelementptr inbounds %"class.syncer::SyncServiceCrypto", %"class.syncer::SyncServiceCrypto"* %0, i64 0, i32 5, i32 13
  store i8 0, i8* %31, align 8
  %32 = getelementptr inbounds %"class.syncer::SyncServiceCrypto", %"class.syncer::SyncServiceCrypto"* %0, i64 0, i32 6, i32 0
  %33 = ptrtoint %"class.syncer::SyncServiceCrypto"* %0 to i64
  tail call void @_ZN4base8internal18WeakPtrFactoryBaseC2Em(%"class.base::internal::WeakPtrFactoryBase"* %32, i64 %33) #11
  %34 = load %"class.syncer::TrustedVaultClient"*, %"class.syncer::TrustedVaultClient"** %10, align 8
  %35 = bitcast %"class.syncer::TrustedVaultClient"* %34 to void (%"class.syncer::TrustedVaultClient"*, %"class.syncer::TrustedVaultClient::Observer"*)***
  %36 = load void (%"class.syncer::TrustedVaultClient"*, %"class.syncer::TrustedVaultClient::Observer"*)**, void (%"class.syncer::TrustedVaultClient"*, %"class.syncer::TrustedVaultClient::Observer"*)*** %35, align 8
  %37 = getelementptr inbounds void (%"class.syncer::TrustedVaultClient"*, %"class.syncer::TrustedVaultClient::Observer"*)*, void (%"class.syncer::TrustedVaultClient"*, %"class.syncer::TrustedVaultClient::Observer"*)** %36, i64 2
  %38 = load void (%"class.syncer::TrustedVaultClient"*, %"class.syncer::TrustedVaultClient::Observer"*)*, void (%"class.syncer::TrustedVaultClient"*, %"class.syncer::TrustedVaultClient::Observer"*)** %37, align 8
  tail call void %38(%"class.syncer::TrustedVaultClient"* %34, %"class.syncer::TrustedVaultClient::Observer"* %5) #11
  ret void
}

; Function Attrs: nounwind ssp uwtable
define hidden void @_ZN6syncer17SyncServiceCryptoD2Ev(%"class.syncer::SyncServiceCrypto"*) unnamed_addr #0 align 2 {
  %2 = bitcast %"class.syncer::SyncServiceCrypto"* %0 to <2 x i32 (...)**>*
  store <2 x i32 (...)**> <i32 (...)** bitcast (i8** getelementptr inbounds ({ [16 x i8*], [6 x i8*], [6 x i8*] }, { [16 x i8*], [6 x i8*], [6 x i8*] }* @_ZTVN6syncer17SyncServiceCryptoE, i64 0, inrange i32 0, i64 2) to i32 (...)**), i32 (...)** bitcast (i8** getelementptr inbounds ({ [16 x i8*], [6 x i8*], [6 x i8*] }, { [16 x i8*], [6 x i8*], [6 x i8*] }* @_ZTVN6syncer17SyncServiceCryptoE, i64 0, inrange i32 1, i64 2) to i32 (...)**)>, <2 x i32 (...)**>* %2, align 8
  %3 = getelementptr inbounds %"class.syncer::SyncServiceCrypto", %"class.syncer::SyncServiceCrypto"* %0, i64 0, i32 2
  %4 = getelementptr inbounds %"class.syncer::TrustedVaultClient::Observer", %"class.syncer::TrustedVaultClient::Observer"* %3, i64 0, i32 0, i32 0
  store i32 (...)** bitcast (i8** getelementptr inbounds ({ [16 x i8*], [6 x i8*], [6 x i8*] }, { [16 x i8*], [6 x i8*], [6 x i8*] }* @_ZTVN6syncer17SyncServiceCryptoE, i64 0, inrange i32 2, i64 2) to i32 (...)**), i32 (...)*** %4, align 8
  %5 = getelementptr inbounds %"class.syncer::SyncServiceCrypto", %"class.syncer::SyncServiceCrypto"* %0, i64 0, i32 4
  %6 = load %"class.syncer::TrustedVaultClient"*, %"class.syncer::TrustedVaultClient"** %5, align 8
  %7 = bitcast %"class.syncer::TrustedVaultClient"* %6 to void (%"class.syncer::TrustedVaultClient"*, %"class.syncer::TrustedVaultClient::Observer"*)***
  %8 = load void (%"class.syncer::TrustedVaultClient"*, %"class.syncer::TrustedVaultClient::Observer"*)**, void (%"class.syncer::TrustedVaultClient"*, %"class.syncer::TrustedVaultClient::Observer"*)*** %7, align 8
  %9 = getelementptr inbounds void (%"class.syncer::TrustedVaultClient"*, %"class.syncer::TrustedVaultClient::Observer"*)*, void (%"class.syncer::TrustedVaultClient"*, %"class.syncer::TrustedVaultClient::Observer"*)** %8, i64 3
  %10 = load void (%"class.syncer::TrustedVaultClient"*, %"class.syncer::TrustedVaultClient::Observer"*)*, void (%"class.syncer::TrustedVaultClient"*, %"class.syncer::TrustedVaultClient::Observer"*)** %9, align 8
  tail call void %10(%"class.syncer::TrustedVaultClient"* %6, %"class.syncer::TrustedVaultClient::Observer"* %3) #11
  %11 = getelementptr inbounds %"class.syncer::SyncServiceCrypto", %"class.syncer::SyncServiceCrypto"* %0, i64 0, i32 6, i32 0
  tail call void @_ZN4base8internal18WeakPtrFactoryBaseD2Ev(%"class.base::internal::WeakPtrFactoryBase"* %11) #11
  %12 = getelementptr inbounds %"class.syncer::SyncServiceCrypto", %"class.syncer::SyncServiceCrypto"* %0, i64 0, i32 5, i32 11, i32 1
  %13 = bitcast %"class.std::__1::basic_string"* %12 to %"struct.std::__1::basic_string<char, std::__1::char_traits<char>, std::__1::allocator<char> >::__short"*
  %14 = getelementptr inbounds %"struct.std::__1::basic_string<char, std::__1::char_traits<char>, std::__1::allocator<char> >::__short", %"struct.std::__1::basic_string<char, std::__1::char_traits<char>, std::__1::allocator<char> >::__short"* %13, i64 0, i32 1, i32 0
  %15 = load i8, i8* %14, align 1
  %16 = icmp slt i8 %15, 0
  br i1 %16, label %17, label %20

17:                                               ; preds = %1
  %18 = getelementptr inbounds %"class.std::__1::basic_string", %"class.std::__1::basic_string"* %12, i64 0, i32 0, i32 0, i32 0, i32 0, i32 0, i32 0
  %19 = load i8*, i8** %18, align 8
  tail call void @_ZdlPv(i8* %19) #12
  br label %20

20:                                               ; preds = %1, %17
  %21 = getelementptr inbounds %"class.syncer::SyncServiceCrypto", %"class.syncer::SyncServiceCrypto"* %0, i64 0, i32 5, i32 8
  tail call void @_ZN7sync_pb13EncryptedDataD1Ev(%"class.sync_pb::EncryptedData"* %21) #11
  %22 = getelementptr inbounds %"class.syncer::SyncServiceCrypto", %"class.syncer::SyncServiceCrypto"* %0, i64 0, i32 5, i32 1
  tail call void @_ZN15CoreAccountInfoD1Ev(%struct.CoreAccountInfo* %22) #11
  %23 = getelementptr inbounds %"class.syncer::TrustedVaultClient::Observer", %"class.syncer::TrustedVaultClient::Observer"* %3, i64 0, i32 0
  tail call void @_ZN4base15CheckedObserverD2Ev(%"class.base::CheckedObserver"* %23) #11
  ret void
}

; Function Attrs: nounwind
declare void @_ZN4base8internal18WeakPtrFactoryBaseD2Ev(%"class.base::internal::WeakPtrFactoryBase"*) unnamed_addr #2

; Function Attrs: nounwind ssp uwtable
define hidden void @_ZThn8_N6syncer17SyncServiceCryptoD1Ev(%"class.syncer::SyncServiceCrypto"*) unnamed_addr #0 align 2 {
  %2 = getelementptr inbounds %"class.syncer::SyncServiceCrypto", %"class.syncer::SyncServiceCrypto"* %0, i64 -1, i32 6, i32 0, i32 1
  %3 = bitcast i64* %2 to <2 x i32 (...)**>*
  store <2 x i32 (...)**> <i32 (...)** bitcast (i8** getelementptr inbounds ({ [16 x i8*], [6 x i8*], [6 x i8*] }, { [16 x i8*], [6 x i8*], [6 x i8*] }* @_ZTVN6syncer17SyncServiceCryptoE, i64 0, inrange i32 0, i64 2) to i32 (...)**), i32 (...)** bitcast (i8** getelementptr inbounds ({ [16 x i8*], [6 x i8*], [6 x i8*] }, { [16 x i8*], [6 x i8*], [6 x i8*] }* @_ZTVN6syncer17SyncServiceCryptoE, i64 0, inrange i32 1, i64 2) to i32 (...)**)>, <2 x i32 (...)**>* %3, align 8
  %4 = getelementptr inbounds i64, i64* %2, i64 2
  %5 = bitcast i64* %4 to %"class.syncer::TrustedVaultClient::Observer"*
  %6 = bitcast i64* %4 to i32 (...)***
  store i32 (...)** bitcast (i8** getelementptr inbounds ({ [16 x i8*], [6 x i8*], [6 x i8*] }, { [16 x i8*], [6 x i8*], [6 x i8*] }* @_ZTVN6syncer17SyncServiceCryptoE, i64 0, inrange i32 2, i64 2) to i32 (...)**), i32 (...)*** %6, align 8
  %7 = getelementptr inbounds i64, i64* %2, i64 6
  %8 = bitcast i64* %7 to %"class.syncer::TrustedVaultClient"**
  %9 = load %"class.syncer::TrustedVaultClient"*, %"class.syncer::TrustedVaultClient"** %8, align 8
  %10 = bitcast %"class.syncer::TrustedVaultClient"* %9 to void (%"class.syncer::TrustedVaultClient"*, %"class.syncer::TrustedVaultClient::Observer"*)***
  %11 = load void (%"class.syncer::TrustedVaultClient"*, %"class.syncer::TrustedVaultClient::Observer"*)**, void (%"class.syncer::TrustedVaultClient"*, %"class.syncer::TrustedVaultClient::Observer"*)*** %10, align 8
  %12 = getelementptr inbounds void (%"class.syncer::TrustedVaultClient"*, %"class.syncer::TrustedVaultClient::Observer"*)*, void (%"class.syncer::TrustedVaultClient"*, %"class.syncer::TrustedVaultClient::Observer"*)** %11, i64 3
  %13 = load void (%"class.syncer::TrustedVaultClient"*, %"class.syncer::TrustedVaultClient::Observer"*)*, void (%"class.syncer::TrustedVaultClient"*, %"class.syncer::TrustedVaultClient::Observer"*)** %12, align 8
  tail call void %13(%"class.syncer::TrustedVaultClient"* %9, %"class.syncer::TrustedVaultClient::Observer"* %5) #11
  %14 = getelementptr inbounds i64, i64* %2, i64 33
  %15 = bitcast i64* %14 to %"class.base::internal::WeakPtrFactoryBase"*
  tail call void @_ZN4base8internal18WeakPtrFactoryBaseD2Ev(%"class.base::internal::WeakPtrFactoryBase"* %15) #11
  %16 = getelementptr inbounds i64, i64* %2, i64 28
  %17 = bitcast i64* %16 to %"struct.std::__1::basic_string<char, std::__1::char_traits<char>, std::__1::allocator<char> >::__short"*
  %18 = getelementptr inbounds %"struct.std::__1::basic_string<char, std::__1::char_traits<char>, std::__1::allocator<char> >::__short", %"struct.std::__1::basic_string<char, std::__1::char_traits<char>, std::__1::allocator<char> >::__short"* %17, i64 0, i32 1, i32 0
  %19 = load i8, i8* %18, align 1
  %20 = icmp slt i8 %19, 0
  br i1 %20, label %21, label %24

21:                                               ; preds = %1
  %22 = bitcast i64* %16 to i8**
  %23 = load i8*, i8** %22, align 8
  tail call void @_ZdlPv(i8* %23) #12
  br label %24

24:                                               ; preds = %1, %21
  %25 = getelementptr inbounds i64, i64* %2, i64 21
  %26 = bitcast i64* %25 to %"class.sync_pb::EncryptedData"*
  tail call void @_ZN7sync_pb13EncryptedDataD1Ev(%"class.sync_pb::EncryptedData"* %26) #11
  %27 = getelementptr inbounds i64, i64* %2, i64 8
  %28 = bitcast i64* %27 to %struct.CoreAccountInfo*
  tail call void @_ZN15CoreAccountInfoD1Ev(%struct.CoreAccountInfo* %28) #11
  %29 = bitcast i64* %4 to %"class.base::CheckedObserver"*
  tail call void @_ZN4base15CheckedObserverD2Ev(%"class.base::CheckedObserver"* %29) #11
  ret void
}

; Function Attrs: nounwind ssp uwtable
define hidden void @_ZThn16_N6syncer17SyncServiceCryptoD1Ev(%"class.syncer::SyncServiceCrypto"*) unnamed_addr #0 align 2 {
  %2 = getelementptr inbounds %"class.syncer::SyncServiceCrypto", %"class.syncer::SyncServiceCrypto"* %0, i64 -1, i32 6
  %3 = bitcast %"class.base::WeakPtrFactory.7"* %2 to <2 x i32 (...)**>*
  store <2 x i32 (...)**> <i32 (...)** bitcast (i8** getelementptr inbounds ({ [16 x i8*], [6 x i8*], [6 x i8*] }, { [16 x i8*], [6 x i8*], [6 x i8*] }* @_ZTVN6syncer17SyncServiceCryptoE, i64 0, inrange i32 0, i64 2) to i32 (...)**), i32 (...)** bitcast (i8** getelementptr inbounds ({ [16 x i8*], [6 x i8*], [6 x i8*] }, { [16 x i8*], [6 x i8*], [6 x i8*] }* @_ZTVN6syncer17SyncServiceCryptoE, i64 0, inrange i32 1, i64 2) to i32 (...)**)>, <2 x i32 (...)**>* %3, align 8
  %4 = getelementptr inbounds %"class.base::WeakPtrFactory.7", %"class.base::WeakPtrFactory.7"* %2, i64 1
  %5 = bitcast %"class.base::WeakPtrFactory.7"* %4 to %"class.syncer::TrustedVaultClient::Observer"*
  %6 = bitcast %"class.base::WeakPtrFactory.7"* %4 to i32 (...)***
  store i32 (...)** bitcast (i8** getelementptr inbounds ({ [16 x i8*], [6 x i8*], [6 x i8*] }, { [16 x i8*], [6 x i8*], [6 x i8*] }* @_ZTVN6syncer17SyncServiceCryptoE, i64 0, inrange i32 2, i64 2) to i32 (...)**), i32 (...)*** %6, align 8
  %7 = getelementptr inbounds %"class.base::WeakPtrFactory.7", %"class.base::WeakPtrFactory.7"* %2, i64 3
  %8 = bitcast %"class.base::WeakPtrFactory.7"* %7 to %"class.syncer::TrustedVaultClient"**
  %9 = load %"class.syncer::TrustedVaultClient"*, %"class.syncer::TrustedVaultClient"** %8, align 8
  %10 = bitcast %"class.syncer::TrustedVaultClient"* %9 to void (%"class.syncer::TrustedVaultClient"*, %"class.syncer::TrustedVaultClient::Observer"*)***
  %11 = load void (%"class.syncer::TrustedVaultClient"*, %"class.syncer::TrustedVaultClient::Observer"*)**, void (%"class.syncer::TrustedVaultClient"*, %"class.syncer::TrustedVaultClient::Observer"*)*** %10, align 8
  %12 = getelementptr inbounds void (%"class.syncer::TrustedVaultClient"*, %"class.syncer::TrustedVaultClient::Observer"*)*, void (%"class.syncer::TrustedVaultClient"*, %"class.syncer::TrustedVaultClient::Observer"*)** %11, i64 3
  %13 = load void (%"class.syncer::TrustedVaultClient"*, %"class.syncer::TrustedVaultClient::Observer"*)*, void (%"class.syncer::TrustedVaultClient"*, %"class.syncer::TrustedVaultClient::Observer"*)** %12, align 8
  tail call void %13(%"class.syncer::TrustedVaultClient"* %9, %"class.syncer::TrustedVaultClient::Observer"* %5) #11
  %14 = getelementptr inbounds %"class.base::WeakPtrFactory.7", %"class.base::WeakPtrFactory.7"* %2, i64 16, i32 0, i32 1
  %15 = bitcast i64* %14 to %"class.base::internal::WeakPtrFactoryBase"*
  tail call void @_ZN4base8internal18WeakPtrFactoryBaseD2Ev(%"class.base::internal::WeakPtrFactoryBase"* %15) #11
  %16 = getelementptr inbounds %"class.base::WeakPtrFactory.7", %"class.base::WeakPtrFactory.7"* %2, i64 14
  %17 = bitcast %"class.base::WeakPtrFactory.7"* %16 to %"struct.std::__1::basic_string<char, std::__1::char_traits<char>, std::__1::allocator<char> >::__short"*
  %18 = getelementptr inbounds %"struct.std::__1::basic_string<char, std::__1::char_traits<char>, std::__1::allocator<char> >::__short", %"struct.std::__1::basic_string<char, std::__1::char_traits<char>, std::__1::allocator<char> >::__short"* %17, i64 0, i32 1, i32 0
  %19 = load i8, i8* %18, align 1
  %20 = icmp slt i8 %19, 0
  br i1 %20, label %21, label %24

21:                                               ; preds = %1
  %22 = bitcast %"class.base::WeakPtrFactory.7"* %16 to i8**
  %23 = load i8*, i8** %22, align 8
  tail call void @_ZdlPv(i8* %23) #12
  br label %24

24:                                               ; preds = %1, %21
  %25 = getelementptr inbounds %"class.base::WeakPtrFactory.7", %"class.base::WeakPtrFactory.7"* %2, i64 10, i32 0, i32 1
  %26 = bitcast i64* %25 to %"class.sync_pb::EncryptedData"*
  tail call void @_ZN7sync_pb13EncryptedDataD1Ev(%"class.sync_pb::EncryptedData"* %26) #11
  %27 = getelementptr inbounds %"class.base::WeakPtrFactory.7", %"class.base::WeakPtrFactory.7"* %2, i64 4
  %28 = bitcast %"class.base::WeakPtrFactory.7"* %27 to %struct.CoreAccountInfo*
  tail call void @_ZN15CoreAccountInfoD1Ev(%struct.CoreAccountInfo* %28) #11
  %29 = bitcast %"class.base::WeakPtrFactory.7"* %4 to %"class.base::CheckedObserver"*
  tail call void @_ZN4base15CheckedObserverD2Ev(%"class.base::CheckedObserver"* %29) #11
  ret void
}

; Function Attrs: nounwind ssp uwtable
define hidden void @_ZN6syncer17SyncServiceCryptoD0Ev(%"class.syncer::SyncServiceCrypto"*) unnamed_addr #0 align 2 {
  %2 = bitcast %"class.syncer::SyncServiceCrypto"* %0 to <2 x i32 (...)**>*
  store <2 x i32 (...)**> <i32 (...)** bitcast (i8** getelementptr inbounds ({ [16 x i8*], [6 x i8*], [6 x i8*] }, { [16 x i8*], [6 x i8*], [6 x i8*] }* @_ZTVN6syncer17SyncServiceCryptoE, i64 0, inrange i32 0, i64 2) to i32 (...)**), i32 (...)** bitcast (i8** getelementptr inbounds ({ [16 x i8*], [6 x i8*], [6 x i8*] }, { [16 x i8*], [6 x i8*], [6 x i8*] }* @_ZTVN6syncer17SyncServiceCryptoE, i64 0, inrange i32 1, i64 2) to i32 (...)**)>, <2 x i32 (...)**>* %2, align 8
  %3 = getelementptr inbounds %"class.syncer::SyncServiceCrypto", %"class.syncer::SyncServiceCrypto"* %0, i64 0, i32 2
  %4 = getelementptr inbounds %"class.syncer::TrustedVaultClient::Observer", %"class.syncer::TrustedVaultClient::Observer"* %3, i64 0, i32 0, i32 0
  store i32 (...)** bitcast (i8** getelementptr inbounds ({ [16 x i8*], [6 x i8*], [6 x i8*] }, { [16 x i8*], [6 x i8*], [6 x i8*] }* @_ZTVN6syncer17SyncServiceCryptoE, i64 0, inrange i32 2, i64 2) to i32 (...)**), i32 (...)*** %4, align 8
  %5 = getelementptr inbounds %"class.syncer::SyncServiceCrypto", %"class.syncer::SyncServiceCrypto"* %0, i64 0, i32 4
  %6 = load %"class.syncer::TrustedVaultClient"*, %"class.syncer::TrustedVaultClient"** %5, align 8
  %7 = bitcast %"class.syncer::TrustedVaultClient"* %6 to void (%"class.syncer::TrustedVaultClient"*, %"class.syncer::TrustedVaultClient::Observer"*)***
  %8 = load void (%"class.syncer::TrustedVaultClient"*, %"class.syncer::TrustedVaultClient::Observer"*)**, void (%"class.syncer::TrustedVaultClient"*, %"class.syncer::TrustedVaultClient::Observer"*)*** %7, align 8
  %9 = getelementptr inbounds void (%"class.syncer::TrustedVaultClient"*, %"class.syncer::TrustedVaultClient::Observer"*)*, void (%"class.syncer::TrustedVaultClient"*, %"class.syncer::TrustedVaultClient::Observer"*)** %8, i64 3
  %10 = load void (%"class.syncer::TrustedVaultClient"*, %"class.syncer::TrustedVaultClient::Observer"*)*, void (%"class.syncer::TrustedVaultClient"*, %"class.syncer::TrustedVaultClient::Observer"*)** %9, align 8
  tail call void %10(%"class.syncer::TrustedVaultClient"* %6, %"class.syncer::TrustedVaultClient::Observer"* %3) #11
  %11 = getelementptr inbounds %"class.syncer::SyncServiceCrypto", %"class.syncer::SyncServiceCrypto"* %0, i64 0, i32 6, i32 0
  tail call void @_ZN4base8internal18WeakPtrFactoryBaseD2Ev(%"class.base::internal::WeakPtrFactoryBase"* %11) #11
  %12 = getelementptr inbounds %"class.syncer::SyncServiceCrypto", %"class.syncer::SyncServiceCrypto"* %0, i64 0, i32 5, i32 11, i32 1
  %13 = bitcast %"class.std::__1::basic_string"* %12 to %"struct.std::__1::basic_string<char, std::__1::char_traits<char>, std::__1::allocator<char> >::__short"*
  %14 = getelementptr inbounds %"struct.std::__1::basic_string<char, std::__1::char_traits<char>, std::__1::allocator<char> >::__short", %"struct.std::__1::basic_string<char, std::__1::char_traits<char>, std::__1::allocator<char> >::__short"* %13, i64 0, i32 1, i32 0
  %15 = load i8, i8* %14, align 1
  %16 = icmp slt i8 %15, 0
  br i1 %16, label %17, label %20

17:                                               ; preds = %1
  %18 = getelementptr inbounds %"class.std::__1::basic_string", %"class.std::__1::basic_string"* %12, i64 0, i32 0, i32 0, i32 0, i32 0, i32 0, i32 0
  %19 = load i8*, i8** %18, align 8
  tail call void @_ZdlPv(i8* %19) #12
  br label %20

20:                                               ; preds = %1, %17
  %21 = getelementptr inbounds %"class.syncer::SyncServiceCrypto", %"class.syncer::SyncServiceCrypto"* %0, i64 0, i32 5, i32 8
  tail call void @_ZN7sync_pb13EncryptedDataD1Ev(%"class.sync_pb::EncryptedData"* %21) #11
  %22 = getelementptr inbounds %"class.syncer::SyncServiceCrypto", %"class.syncer::SyncServiceCrypto"* %0, i64 0, i32 5, i32 1
  tail call void @_ZN15CoreAccountInfoD1Ev(%struct.CoreAccountInfo* %22) #11
  %23 = getelementptr inbounds %"class.syncer::TrustedVaultClient::Observer", %"class.syncer::TrustedVaultClient::Observer"* %3, i64 0, i32 0
  tail call void @_ZN4base15CheckedObserverD2Ev(%"class.base::CheckedObserver"* %23) #11
  %24 = bitcast %"class.syncer::SyncServiceCrypto"* %0 to i8*
  tail call void @_ZdlPv(i8* %24) #12
  ret void
}

; Function Attrs: nobuiltin nounwind
declare void @_ZdlPv(i8*) local_unnamed_addr #3

; Function Attrs: nounwind ssp uwtable
define hidden void @_ZThn8_N6syncer17SyncServiceCryptoD0Ev(%"class.syncer::SyncServiceCrypto"*) unnamed_addr #0 align 2 {
  %2 = getelementptr inbounds %"class.syncer::SyncServiceCrypto", %"class.syncer::SyncServiceCrypto"* %0, i64 -1, i32 6, i32 0, i32 1
  %3 = bitcast i64* %2 to %"class.syncer::SyncServiceCrypto"*
  tail call void @_ZN6syncer17SyncServiceCryptoD0Ev(%"class.syncer::SyncServiceCrypto"* %3) #11
  ret void
}

; Function Attrs: nounwind ssp uwtable
define hidden void @_ZThn16_N6syncer17SyncServiceCryptoD0Ev(%"class.syncer::SyncServiceCrypto"*) unnamed_addr #0 align 2 {
  %2 = getelementptr inbounds %"class.syncer::SyncServiceCrypto", %"class.syncer::SyncServiceCrypto"* %0, i64 -1, i32 6
  %3 = bitcast %"class.base::WeakPtrFactory.7"* %2 to %"class.syncer::SyncServiceCrypto"*
  tail call void @_ZN6syncer17SyncServiceCryptoD0Ev(%"class.syncer::SyncServiceCrypto"* %3) #11
  ret void
}

; Function Attrs: nounwind ssp uwtable
define hidden void @_ZN6syncer17SyncServiceCrypto5ResetEv(%"class.syncer::SyncServiceCrypto"*) local_unnamed_addr #0 align 2 {
  %2 = alloca %"struct.syncer::SyncServiceCrypto::State", align 8
  %3 = bitcast %"struct.syncer::SyncServiceCrypto::State"* %2 to i8*
  call void @llvm.lifetime.start.p0i8(i64 208, i8* nonnull %3) #11
  %4 = getelementptr inbounds %"struct.syncer::SyncServiceCrypto::State", %"struct.syncer::SyncServiceCrypto::State"* %2, i64 0, i32 0
  store %"class.syncer::SyncEngine"* null, %"class.syncer::SyncEngine"** %4, align 8
  %5 = getelementptr inbounds %"struct.syncer::SyncServiceCrypto::State", %"struct.syncer::SyncServiceCrypto::State"* %2, i64 0, i32 1
  call void @_ZN15CoreAccountInfoC1Ev(%struct.CoreAccountInfo* %5) #11
  %6 = getelementptr inbounds %"struct.syncer::SyncServiceCrypto::State", %"struct.syncer::SyncServiceCrypto::State"* %2, i64 0, i32 2
  store i32 0, i32* %6, align 8
  %7 = getelementptr inbounds %"struct.syncer::SyncServiceCrypto::State", %"struct.syncer::SyncServiceCrypto::State"* %2, i64 0, i32 4, i32 0, i32 0, i32 0
  store i64 536870916, i64* %7, align 8
  %8 = getelementptr inbounds %"struct.syncer::SyncServiceCrypto::State", %"struct.syncer::SyncServiceCrypto::State"* %2, i64 0, i32 5
  store i8 0, i8* %8, align 8
  %9 = getelementptr inbounds %"struct.syncer::SyncServiceCrypto::State", %"struct.syncer::SyncServiceCrypto::State"* %2, i64 0, i32 6
  store i8 0, i8* %9, align 1
  %10 = getelementptr inbounds %"struct.syncer::SyncServiceCrypto::State", %"struct.syncer::SyncServiceCrypto::State"* %2, i64 0, i32 8
  call void @_ZN7sync_pb13EncryptedDataC2EPN6google8protobuf5ArenaE(%"class.sync_pb::EncryptedData"* %10, %"class.google::protobuf::Arena"* null) #11
  %11 = getelementptr inbounds %"struct.syncer::SyncServiceCrypto::State", %"struct.syncer::SyncServiceCrypto::State"* %2, i64 0, i32 9
  store i32 0, i32* %11, align 8
  %12 = getelementptr inbounds %"struct.syncer::SyncServiceCrypto::State", %"struct.syncer::SyncServiceCrypto::State"* %2, i64 0, i32 11
  call void @_ZN6syncer19KeyDerivationParams15CreateForPbkdf2Ev(%"class.syncer::KeyDerivationParams"* sret %12) #11
  %13 = getelementptr inbounds %"struct.syncer::SyncServiceCrypto::State", %"struct.syncer::SyncServiceCrypto::State"* %2, i64 0, i32 12, i32 0, i32 0
  store i64 0, i64* %13, align 8
  %14 = getelementptr inbounds %"struct.syncer::SyncServiceCrypto::State", %"struct.syncer::SyncServiceCrypto::State"* %2, i64 0, i32 13
  store i8 0, i8* %14, align 8
  %15 = getelementptr inbounds %"class.syncer::SyncServiceCrypto", %"class.syncer::SyncServiceCrypto"* %0, i64 0, i32 5
  %16 = call dereferenceable(208) %"struct.syncer::SyncServiceCrypto::State"* @_ZN6syncer17SyncServiceCrypto5StateaSEOS1_(%"struct.syncer::SyncServiceCrypto::State"* %15, %"struct.syncer::SyncServiceCrypto::State"* nonnull dereferenceable(208) %2)
  %17 = getelementptr inbounds %"struct.syncer::SyncServiceCrypto::State", %"struct.syncer::SyncServiceCrypto::State"* %2, i64 0, i32 11, i32 1
  %18 = bitcast %"class.std::__1::basic_string"* %17 to %"struct.std::__1::basic_string<char, std::__1::char_traits<char>, std::__1::allocator<char> >::__short"*
  %19 = getelementptr inbounds %"struct.std::__1::basic_string<char, std::__1::char_traits<char>, std::__1::allocator<char> >::__short", %"struct.std::__1::basic_string<char, std::__1::char_traits<char>, std::__1::allocator<char> >::__short"* %18, i64 0, i32 1, i32 0
  %20 = load i8, i8* %19, align 1
  %21 = icmp slt i8 %20, 0
  br i1 %21, label %22, label %25

22:                                               ; preds = %1
  %23 = getelementptr inbounds %"class.std::__1::basic_string", %"class.std::__1::basic_string"* %17, i64 0, i32 0, i32 0, i32 0, i32 0, i32 0, i32 0
  %24 = load i8*, i8** %23, align 8
  call void @_ZdlPv(i8* %24) #12
  br label %25

25:                                               ; preds = %1, %22
  call void @_ZN7sync_pb13EncryptedDataD1Ev(%"class.sync_pb::EncryptedData"* %10) #11
  call void @_ZN15CoreAccountInfoD1Ev(%struct.CoreAccountInfo* %5) #11
  call void @llvm.lifetime.end.p0i8(i64 208, i8* nonnull %3) #11
  ret void
}

; Function Attrs: argmemonly nounwind
declare void @llvm.lifetime.start.p0i8(i64 immarg, i8* nocapture) #4

; Function Attrs: nounwind ssp uwtable
define linkonce_odr hidden dereferenceable(208) %"struct.syncer::SyncServiceCrypto::State"* @_ZN6syncer17SyncServiceCrypto5StateaSEOS1_(%"struct.syncer::SyncServiceCrypto::State"*, %"struct.syncer::SyncServiceCrypto::State"* dereferenceable(208)) local_unnamed_addr #0 comdat align 2 {
  %3 = bitcast %"struct.syncer::SyncServiceCrypto::State"* %1 to i64*
  %4 = load i64, i64* %3, align 8
  %5 = bitcast %"struct.syncer::SyncServiceCrypto::State"* %0 to i64*
  store i64 %4, i64* %5, align 8
  %6 = getelementptr inbounds %"struct.syncer::SyncServiceCrypto::State", %"struct.syncer::SyncServiceCrypto::State"* %0, i64 0, i32 1
  %7 = getelementptr inbounds %"struct.syncer::SyncServiceCrypto::State", %"struct.syncer::SyncServiceCrypto::State"* %1, i64 0, i32 1
  %8 = tail call dereferenceable(80) %struct.CoreAccountInfo* @_ZN15CoreAccountInfoaSEOS_(%struct.CoreAccountInfo* %6, %struct.CoreAccountInfo* dereferenceable(80) %7) #11
  %9 = getelementptr inbounds %"struct.syncer::SyncServiceCrypto::State", %"struct.syncer::SyncServiceCrypto::State"* %1, i64 0, i32 2
  %10 = load i32, i32* %9, align 8
  %11 = getelementptr inbounds %"struct.syncer::SyncServiceCrypto::State", %"struct.syncer::SyncServiceCrypto::State"* %0, i64 0, i32 2
  store i32 %10, i32* %11, align 8
  %12 = getelementptr inbounds %"struct.syncer::SyncServiceCrypto::State", %"struct.syncer::SyncServiceCrypto::State"* %1, i64 0, i32 4, i32 0, i32 0, i32 0
  %13 = getelementptr inbounds %"struct.syncer::SyncServiceCrypto::State", %"struct.syncer::SyncServiceCrypto::State"* %0, i64 0, i32 4, i32 0, i32 0, i32 0
  %14 = load i64, i64* %12, align 8
  store i64 %14, i64* %13, align 8
  %15 = getelementptr inbounds %"struct.syncer::SyncServiceCrypto::State", %"struct.syncer::SyncServiceCrypto::State"* %0, i64 0, i32 5
  %16 = getelementptr inbounds %"struct.syncer::SyncServiceCrypto::State", %"struct.syncer::SyncServiceCrypto::State"* %1, i64 0, i32 5
  %17 = bitcast i8* %16 to i16*
  %18 = bitcast i8* %15 to i16*
  %19 = load i16, i16* %17, align 8
  store i16 %19, i16* %18, align 8
  %20 = getelementptr inbounds %"struct.syncer::SyncServiceCrypto::State", %"struct.syncer::SyncServiceCrypto::State"* %0, i64 0, i32 8
  %21 = getelementptr inbounds %"struct.syncer::SyncServiceCrypto::State", %"struct.syncer::SyncServiceCrypto::State"* %1, i64 0, i32 8
  %22 = getelementptr inbounds %"struct.syncer::SyncServiceCrypto::State", %"struct.syncer::SyncServiceCrypto::State"* %0, i64 0, i32 8, i32 0, i32 1
  %23 = bitcast %"class.google::protobuf::internal::InternalMetadata"* %22 to i64*
  %24 = load i64, i64* %23, align 8
  %25 = and i64 %24, 1
  %26 = icmp eq i64 %25, 0
  %27 = and i64 %24, -2
  br i1 %26, label %32, label %28, !prof !3

28:                                               ; preds = %2
  %29 = inttoptr i64 %27 to %"struct.google::protobuf::internal::InternalMetadata::ContainerBase"*
  %30 = getelementptr inbounds %"struct.google::protobuf::internal::InternalMetadata::ContainerBase", %"struct.google::protobuf::internal::InternalMetadata::ContainerBase"* %29, i64 0, i32 0
  %31 = load %"class.google::protobuf::Arena"*, %"class.google::protobuf::Arena"** %30, align 8
  br label %34

32:                                               ; preds = %2
  %33 = inttoptr i64 %27 to %"class.google::protobuf::Arena"*
  br label %34

34:                                               ; preds = %32, %28
  %35 = phi %"class.google::protobuf::Arena"* [ %31, %28 ], [ %33, %32 ]
  %36 = getelementptr inbounds %"struct.syncer::SyncServiceCrypto::State", %"struct.syncer::SyncServiceCrypto::State"* %1, i64 0, i32 8, i32 0, i32 1
  %37 = bitcast %"class.google::protobuf::internal::InternalMetadata"* %36 to i64*
  %38 = load i64, i64* %37, align 8
  %39 = and i64 %38, 1
  %40 = icmp eq i64 %39, 0
  %41 = and i64 %38, -2
  br i1 %40, label %46, label %42, !prof !3

42:                                               ; preds = %34
  %43 = inttoptr i64 %41 to %"struct.google::protobuf::internal::InternalMetadata::ContainerBase"*
  %44 = getelementptr inbounds %"struct.google::protobuf::internal::InternalMetadata::ContainerBase", %"struct.google::protobuf::internal::InternalMetadata::ContainerBase"* %43, i64 0, i32 0
  %45 = load %"class.google::protobuf::Arena"*, %"class.google::protobuf::Arena"** %44, align 8
  br label %48

46:                                               ; preds = %34
  %47 = inttoptr i64 %41 to %"class.google::protobuf::Arena"*
  br label %48

48:                                               ; preds = %46, %42
  %49 = phi %"class.google::protobuf::Arena"* [ %45, %42 ], [ %47, %46 ]
  %50 = icmp eq %"class.google::protobuf::Arena"* %35, %49
  br i1 %50, label %51, label %54

51:                                               ; preds = %48
  %52 = icmp eq %"struct.syncer::SyncServiceCrypto::State"* %0, %1
  br i1 %52, label %55, label %53

53:                                               ; preds = %51
  tail call void @_ZN7sync_pb13EncryptedData12InternalSwapEPS0_(%"class.sync_pb::EncryptedData"* %20, %"class.sync_pb::EncryptedData"* %21) #11
  br label %55

54:                                               ; preds = %48
  tail call void @_ZN7sync_pb13EncryptedData8CopyFromERKS0_(%"class.sync_pb::EncryptedData"* %20, %"class.sync_pb::EncryptedData"* dereferenceable(40) %21) #11
  br label %55

55:                                               ; preds = %51, %53, %54
  %56 = getelementptr inbounds %"struct.syncer::SyncServiceCrypto::State", %"struct.syncer::SyncServiceCrypto::State"* %1, i64 0, i32 9
  %57 = load i32, i32* %56, align 8
  %58 = getelementptr inbounds %"struct.syncer::SyncServiceCrypto::State", %"struct.syncer::SyncServiceCrypto::State"* %0, i64 0, i32 9
  store i32 %57, i32* %58, align 8
  %59 = getelementptr inbounds %"struct.syncer::SyncServiceCrypto::State", %"struct.syncer::SyncServiceCrypto::State"* %0, i64 0, i32 11
  %60 = getelementptr inbounds %"struct.syncer::SyncServiceCrypto::State", %"struct.syncer::SyncServiceCrypto::State"* %1, i64 0, i32 11
  %61 = tail call dereferenceable(32) %"class.syncer::KeyDerivationParams"* @_ZN6syncer19KeyDerivationParamsaSERKS0_(%"class.syncer::KeyDerivationParams"* %59, %"class.syncer::KeyDerivationParams"* dereferenceable(32) %60) #11
  %62 = getelementptr inbounds %"struct.syncer::SyncServiceCrypto::State", %"struct.syncer::SyncServiceCrypto::State"* %0, i64 0, i32 12
  %63 = getelementptr inbounds %"struct.syncer::SyncServiceCrypto::State", %"struct.syncer::SyncServiceCrypto::State"* %1, i64 0, i32 12
  %64 = bitcast %"class.base::Time"* %62 to i8*
  %65 = bitcast %"class.base::Time"* %63 to i8*
  tail call void @llvm.memcpy.p0i8.p0i8.i64(i8* align 8 %64, i8* align 8 %65, i64 9, i1 false)
  ret %"struct.syncer::SyncServiceCrypto::State"* %0
}

; Function Attrs: argmemonly nounwind
declare void @llvm.lifetime.end.p0i8(i64 immarg, i8* nocapture) #4

; Function Attrs: norecurse nounwind readonly ssp uwtable
define hidden i64 @_ZNK6syncer17SyncServiceCrypto25GetExplicitPassphraseTimeEv(%"class.syncer::SyncServiceCrypto"* nocapture readonly) local_unnamed_addr #5 align 2 {
  %2 = getelementptr inbounds %"class.syncer::SyncServiceCrypto", %"class.syncer::SyncServiceCrypto"* %0, i64 0, i32 5, i32 12, i32 0, i32 0
  %3 = load i64, i64* %2, align 8
  ret i64 %3
}

; Function Attrs: argmemonly nounwind
declare void @llvm.memcpy.p0i8.p0i8.i64(i8* nocapture writeonly, i8* nocapture readonly, i64, i1 immarg) #4

; Function Attrs: norecurse nounwind readonly ssp uwtable
define hidden zeroext i1 @_ZNK6syncer17SyncServiceCrypto20IsPassphraseRequiredEv(%"class.syncer::SyncServiceCrypto"* nocapture readonly) local_unnamed_addr #5 align 2 {
  %2 = getelementptr inbounds %"class.syncer::SyncServiceCrypto", %"class.syncer::SyncServiceCrypto"* %0, i64 0, i32 5, i32 2
  %3 = load i32, i32* %2, align 8
  %4 = icmp eq i32 %3, 2
  ret i1 %4
}

; Function Attrs: nounwind ssp uwtable
define hidden zeroext i1 @_ZNK6syncer17SyncServiceCrypto25IsUsingExplicitPassphraseEv(%"class.syncer::SyncServiceCrypto"* nocapture readonly) local_unnamed_addr #0 align 2 {
  %2 = getelementptr inbounds %"class.syncer::SyncServiceCrypto", %"class.syncer::SyncServiceCrypto"* %0, i64 0, i32 5, i32 9
  %3 = load i32, i32* %2, align 8
  %4 = tail call zeroext i1 @_ZN6syncer20IsExplicitPassphraseENS_14PassphraseTypeE(i32 %3) #11
  ret i1 %4
}

declare zeroext i1 @_ZN6syncer20IsExplicitPassphraseENS_14PassphraseTypeE(i32) local_unnamed_addr #1

; Function Attrs: norecurse nounwind readonly ssp uwtable
define hidden zeroext i1 @_ZNK6syncer17SyncServiceCrypto25IsTrustedVaultKeyRequiredEv(%"class.syncer::SyncServiceCrypto"* nocapture readonly) local_unnamed_addr #5 align 2 {
  %2 = getelementptr inbounds %"class.syncer::SyncServiceCrypto", %"class.syncer::SyncServiceCrypto"* %0, i64 0, i32 5, i32 2
  %3 = load i32, i32* %2, align 8
  %4 = or i32 %3, 1
  %5 = icmp eq i32 %4, 5
  ret i1 %5
}

; Function Attrs: norecurse nounwind readonly ssp uwtable
define hidden zeroext i1 @_ZNK6syncer17SyncServiceCrypto36IsTrustedVaultRecoverabilityDegradedEv(%"class.syncer::SyncServiceCrypto"* nocapture readonly) local_unnamed_addr #5 align 2 {
  %2 = getelementptr inbounds %"class.syncer::SyncServiceCrypto", %"class.syncer::SyncServiceCrypto"* %0, i64 0, i32 5, i32 2
  %3 = load i32, i32* %2, align 8
  %4 = icmp eq i32 %3, 6
  ret i1 %4
}

; Function Attrs: norecurse nounwind readonly ssp uwtable
define hidden zeroext i1 @_ZNK6syncer17SyncServiceCrypto26IsEncryptEverythingEnabledEv(%"class.syncer::SyncServiceCrypto"* nocapture readonly) local_unnamed_addr #5 align 2 {
  %2 = getelementptr inbounds %"class.syncer::SyncServiceCrypto", %"class.syncer::SyncServiceCrypto"* %0, i64 0, i32 5, i32 5
  %3 = load i8, i8* %2, align 8, !range !4
  %4 = icmp eq i8 %3, 0
  br i1 %4, label %5, label %9

5:                                                ; preds = %1
  %6 = getelementptr inbounds %"class.syncer::SyncServiceCrypto", %"class.syncer::SyncServiceCrypto"* %0, i64 0, i32 5, i32 6
  %7 = load i8, i8* %6, align 1, !range !4
  %8 = icmp ne i8 %7, 0
  br label %9

9:                                                ; preds = %1, %5
  %10 = phi i1 [ true, %1 ], [ %8, %5 ]
  ret i1 %10
}

; Function Attrs: nounwind ssp uwtable
define hidden void @_ZN6syncer17SyncServiceCrypto23SetEncryptionPassphraseERKNSt3__112basic_stringIcNS1_11char_traitsIcEENS1_9allocatorIcEEEE(%"class.syncer::SyncServiceCrypto"* nocapture readonly, %"class.std::__1::basic_string"* dereferenceable(24)) local_unnamed_addr #0 align 2 {
  %3 = getelementptr inbounds %"class.syncer::SyncServiceCrypto", %"class.syncer::SyncServiceCrypto"* %0, i64 0, i32 5, i32 2
  %4 = load i32, i32* %3, align 8
  %5 = add i32 %4, -2
  %6 = icmp ult i32 %5, 4
  br i1 %6, label %14, label %7

7:                                                ; preds = %2
  %8 = getelementptr inbounds %"class.syncer::SyncServiceCrypto", %"class.syncer::SyncServiceCrypto"* %0, i64 0, i32 5, i32 0
  %9 = load %"class.syncer::SyncEngine"*, %"class.syncer::SyncEngine"** %8, align 8
  %10 = bitcast %"class.syncer::SyncEngine"* %9 to void (%"class.syncer::SyncEngine"*, %"class.std::__1::basic_string"*)***
  %11 = load void (%"class.syncer::SyncEngine"*, %"class.std::__1::basic_string"*)**, void (%"class.syncer::SyncEngine"*, %"class.std::__1::basic_string"*)*** %10, align 8
  %12 = getelementptr inbounds void (%"class.syncer::SyncEngine"*, %"class.std::__1::basic_string"*)*, void (%"class.syncer::SyncEngine"*, %"class.std::__1::basic_string"*)** %11, i64 17
  %13 = load void (%"class.syncer::SyncEngine"*, %"class.std::__1::basic_string"*)*, void (%"class.syncer::SyncEngine"*, %"class.std::__1::basic_string"*)** %12, align 8
  tail call void %13(%"class.syncer::SyncEngine"* %9, %"class.std::__1::basic_string"* dereferenceable(24) %1) #11
  br label %14

14:                                               ; preds = %2, %7
  ret void
}

; Function Attrs: nounwind ssp uwtable
define hidden zeroext i1 @_ZN6syncer17SyncServiceCrypto23SetDecryptionPassphraseERKNSt3__112basic_stringIcNS1_11char_traitsIcEENS1_9allocatorIcEEEE(%"class.syncer::SyncServiceCrypto"*, %"class.std::__1::basic_string"* dereferenceable(24)) local_unnamed_addr #0 align 2 {
  %3 = alloca %"class.std::__1::basic_string", align 8
  %4 = getelementptr inbounds %"class.syncer::SyncServiceCrypto", %"class.syncer::SyncServiceCrypto"* %0, i64 0, i32 5, i32 11
  %5 = getelementptr inbounds %"class.syncer::KeyDerivationParams", %"class.syncer::KeyDerivationParams"* %4, i64 0, i32 0
  %6 = load i32, i32* %5, align 8
  %7 = icmp eq i32 %6, 2
  br i1 %7, label %40, label %8

8:                                                ; preds = %2
  %9 = tail call %"class.syncer::Nigori"* @_ZN6syncer6Nigori18CreateByDerivationERKNS_19KeyDerivationParamsERKNSt3__112basic_stringIcNS4_11char_traitsIcEENS4_9allocatorIcEEEE(%"class.syncer::KeyDerivationParams"* dereferenceable(32) %4, %"class.std::__1::basic_string"* dereferenceable(24) %1) #11
  %10 = bitcast %"class.std::__1::basic_string"* %3 to i8*
  call void @llvm.lifetime.start.p0i8(i64 24, i8* nonnull %10) #11
  call void @llvm.memset.p0i8.i64(i8* nonnull align 8 %10, i8 0, i64 24, i1 false) #11
  %11 = getelementptr inbounds %"class.syncer::SyncServiceCrypto", %"class.syncer::SyncServiceCrypto"* %0, i64 0, i32 5, i32 8, i32 4, i32 0
  %12 = load %"class.std::__1::basic_string"*, %"class.std::__1::basic_string"** %11, align 8
  %13 = call zeroext i1 @_ZNK6syncer6Nigori7DecryptERKNSt3__112basic_stringIcNS1_11char_traitsIcEENS1_9allocatorIcEEEEPS7_(%"class.syncer::Nigori"* %9, %"class.std::__1::basic_string"* dereferenceable(24) %12, %"class.std::__1::basic_string"* nonnull %3) #11
  %14 = bitcast %"class.std::__1::basic_string"* %3 to %"struct.std::__1::basic_string<char, std::__1::char_traits<char>, std::__1::allocator<char> >::__short"*
  %15 = getelementptr inbounds %"struct.std::__1::basic_string<char, std::__1::char_traits<char>, std::__1::allocator<char> >::__short", %"struct.std::__1::basic_string<char, std::__1::char_traits<char>, std::__1::allocator<char> >::__short"* %14, i64 0, i32 1, i32 0
  %16 = load i8, i8* %15, align 1
  %17 = icmp slt i8 %16, 0
  br i1 %17, label %18, label %21

18:                                               ; preds = %8
  %19 = getelementptr inbounds %"class.std::__1::basic_string", %"class.std::__1::basic_string"* %3, i64 0, i32 0, i32 0, i32 0, i32 0, i32 0, i32 0
  %20 = load i8*, i8** %19, align 8
  call void @_ZdlPv(i8* %20) #12
  br label %21

21:                                               ; preds = %18, %8
  call void @llvm.lifetime.end.p0i8(i64 24, i8* nonnull %10) #11
  %22 = icmp eq %"class.syncer::Nigori"* %9, null
  br i1 %22, label %28, label %23

23:                                               ; preds = %21
  %24 = bitcast %"class.syncer::Nigori"* %9 to void (%"class.syncer::Nigori"*)***
  %25 = load void (%"class.syncer::Nigori"*)**, void (%"class.syncer::Nigori"*)*** %24, align 8
  %26 = getelementptr inbounds void (%"class.syncer::Nigori"*)*, void (%"class.syncer::Nigori"*)** %25, i64 1
  %27 = load void (%"class.syncer::Nigori"*)*, void (%"class.syncer::Nigori"*)** %26, align 8
  call void %27(%"class.syncer::Nigori"* nonnull %9) #11
  br i1 %13, label %29, label %40

28:                                               ; preds = %21
  br i1 %13, label %29, label %40

29:                                               ; preds = %23, %28
  %30 = getelementptr inbounds %"class.syncer::SyncServiceCrypto", %"class.syncer::SyncServiceCrypto"* %0, i64 0, i32 5, i32 0
  %31 = load %"class.syncer::SyncEngine"*, %"class.syncer::SyncEngine"** %30, align 8
  %32 = bitcast %"class.syncer::SyncEngine"* %31 to void (%"class.syncer::SyncEngine"*, %"class.std::__1::basic_string"*)***
  %33 = load void (%"class.syncer::SyncEngine"*, %"class.std::__1::basic_string"*)**, void (%"class.syncer::SyncEngine"*, %"class.std::__1::basic_string"*)*** %32, align 8
  %34 = getelementptr inbounds void (%"class.syncer::SyncEngine"*, %"class.std::__1::basic_string"*)*, void (%"class.syncer::SyncEngine"*, %"class.std::__1::basic_string"*)** %33, i64 18
  %35 = load void (%"class.syncer::SyncEngine"*, %"class.std::__1::basic_string"*)*, void (%"class.syncer::SyncEngine"*, %"class.std::__1::basic_string"*)** %34, align 8
  call void %35(%"class.syncer::SyncEngine"* %31, %"class.std::__1::basic_string"* dereferenceable(24) %1) #11
  %36 = bitcast %"class.syncer::SyncServiceCrypto"* %0 to void (%"class.syncer::SyncServiceCrypto"*)***
  %37 = load void (%"class.syncer::SyncServiceCrypto"*)**, void (%"class.syncer::SyncServiceCrypto"*)*** %36, align 8
  %38 = getelementptr inbounds void (%"class.syncer::SyncServiceCrypto"*)*, void (%"class.syncer::SyncServiceCrypto"*)** %37, i64 3
  %39 = load void (%"class.syncer::SyncServiceCrypto"*)*, void (%"class.syncer::SyncServiceCrypto"*)** %38, align 8
  call void %39(%"class.syncer::SyncServiceCrypto"* %0) #11
  br label %40

40:                                               ; preds = %2, %23, %28, %29
  %41 = phi i1 [ true, %29 ], [ false, %28 ], [ false, %23 ], [ false, %2 ]
  ret i1 %41
}

; Function Attrs: norecurse nounwind readonly ssp uwtable
define hidden zeroext i1 @_ZNK6syncer17SyncServiceCrypto35IsTrustedVaultKeyRequiredStateKnownEv(%"class.syncer::SyncServiceCrypto"* nocapture readonly) local_unnamed_addr #5 align 2 {
  %2 = getelementptr inbounds %"class.syncer::SyncServiceCrypto", %"class.syncer::SyncServiceCrypto"* %0, i64 0, i32 5, i32 2
  %3 = load i32, i32* %2, align 8
  %4 = add i32 %3, -1
  %5 = icmp ult i32 %4, 6
  br i1 %5, label %6, label %11

6:                                                ; preds = %1
  %7 = trunc i32 %4 to i6
  %8 = lshr i6 -5, %7
  %9 = and i6 %8, 1
  %10 = icmp ne i6 %9, 0
  ret i1 %10

11:                                               ; preds = %1
  ret i1 false
}

; Function Attrs: norecurse nounwind readonly ssp uwtable
define hidden i32 @_ZNK6syncer17SyncServiceCrypto17GetPassphraseTypeEv(%"class.syncer::SyncServiceCrypto"* nocapture readonly) local_unnamed_addr #5 align 2 {
  %2 = getelementptr inbounds %"class.syncer::SyncServiceCrypto", %"class.syncer::SyncServiceCrypto"* %0, i64 0, i32 5, i32 9
  %3 = load i32, i32* %2, align 8
  ret i32 %3
}

; Function Attrs: nounwind ssp uwtable
define hidden void @_ZN6syncer17SyncServiceCrypto13SetSyncEngineERK15CoreAccountInfoPNS_10SyncEngineE(%"class.syncer::SyncServiceCrypto"*, %struct.CoreAccountInfo* dereferenceable(80), %"class.syncer::SyncEngine"*) local_unnamed_addr #0 align 2 {
  %4 = getelementptr inbounds %"class.syncer::SyncServiceCrypto", %"class.syncer::SyncServiceCrypto"* %0, i64 0, i32 5, i32 1
  %5 = tail call dereferenceable(80) %struct.CoreAccountInfo* @_ZN15CoreAccountInfoaSERKS_(%struct.CoreAccountInfo* %4, %struct.CoreAccountInfo* dereferenceable(80) %1) #11
  %6 = getelementptr inbounds %"class.syncer::SyncServiceCrypto", %"class.syncer::SyncServiceCrypto"* %0, i64 0, i32 5, i32 0
  store %"class.syncer::SyncEngine"* %2, %"class.syncer::SyncEngine"** %6, align 8
  %7 = getelementptr inbounds %"class.syncer::SyncServiceCrypto", %"class.syncer::SyncServiceCrypto"* %0, i64 0, i32 5, i32 2
  %8 = load i32, i32* %7, align 8
  %9 = icmp eq i32 %8, 0
  br i1 %9, label %10, label %18

10:                                               ; preds = %3
  store i32 1, i32* %7, align 8
  %11 = getelementptr inbounds %"class.syncer::SyncServiceCrypto", %"class.syncer::SyncServiceCrypto"* %0, i64 0, i32 3
  %12 = load %"class.syncer::SyncServiceCrypto::Delegate"*, %"class.syncer::SyncServiceCrypto::Delegate"** %11, align 8
  %13 = bitcast %"class.syncer::SyncServiceCrypto::Delegate"* %12 to void (%"class.syncer::SyncServiceCrypto::Delegate"*)***
  %14 = load void (%"class.syncer::SyncServiceCrypto::Delegate"*)**, void (%"class.syncer::SyncServiceCrypto::Delegate"*)*** %13, align 8
  %15 = getelementptr inbounds void (%"class.syncer::SyncServiceCrypto::Delegate"*)*, void (%"class.syncer::SyncServiceCrypto::Delegate"*)** %14, i64 3
  %16 = load void (%"class.syncer::SyncServiceCrypto::Delegate"*)*, void (%"class.syncer::SyncServiceCrypto::Delegate"*)** %15, align 8
  tail call void %16(%"class.syncer::SyncServiceCrypto::Delegate"* %12) #11
  tail call void @_ZN6syncer17SyncServiceCrypto31RefreshIsRecoverabilityDegradedEv(%"class.syncer::SyncServiceCrypto"* %0) #11
  %17 = load i32, i32* %7, align 8
  br label %18

18:                                               ; preds = %10, %3
  %19 = phi i32 [ %17, %10 ], [ %8, %3 ]
  %20 = icmp eq i32 %19, 3
  br i1 %20, label %21, label %22

21:                                               ; preds = %18
  tail call void @_ZN6syncer17SyncServiceCrypto21FetchTrustedVaultKeysEb(%"class.syncer::SyncServiceCrypto"* %0, i1 zeroext false)
  br label %22

22:                                               ; preds = %21, %18
  ret void
}

declare dereferenceable(80) %struct.CoreAccountInfo* @_ZN15CoreAccountInfoaSERKS_(%struct.CoreAccountInfo*, %struct.CoreAccountInfo* dereferenceable(80)) local_unnamed_addr #1

; Function Attrs: nounwind ssp uwtable
define hidden void @_ZN6syncer17SyncServiceCrypto33UpdateRequiredUserActionAndNotifyENS0_18RequiredUserActionE(%"class.syncer::SyncServiceCrypto"*, i32) local_unnamed_addr #0 align 2 {
  %3 = getelementptr inbounds %"class.syncer::SyncServiceCrypto", %"class.syncer::SyncServiceCrypto"* %0, i64 0, i32 5, i32 2
  %4 = load i32, i32* %3, align 8
  %5 = icmp eq i32 %4, %1
  br i1 %5, label %13, label %6

6:                                                ; preds = %2
  store i32 %1, i32* %3, align 8
  %7 = getelementptr inbounds %"class.syncer::SyncServiceCrypto", %"class.syncer::SyncServiceCrypto"* %0, i64 0, i32 3
  %8 = load %"class.syncer::SyncServiceCrypto::Delegate"*, %"class.syncer::SyncServiceCrypto::Delegate"** %7, align 8
  %9 = bitcast %"class.syncer::SyncServiceCrypto::Delegate"* %8 to void (%"class.syncer::SyncServiceCrypto::Delegate"*)***
  %10 = load void (%"class.syncer::SyncServiceCrypto::Delegate"*)**, void (%"class.syncer::SyncServiceCrypto::Delegate"*)*** %9, align 8
  %11 = getelementptr inbounds void (%"class.syncer::SyncServiceCrypto::Delegate"*)*, void (%"class.syncer::SyncServiceCrypto::Delegate"*)** %10, i64 3
  %12 = load void (%"class.syncer::SyncServiceCrypto::Delegate"*)*, void (%"class.syncer::SyncServiceCrypto::Delegate"*)** %11, align 8
  tail call void %12(%"class.syncer::SyncServiceCrypto::Delegate"* %8) #11
  tail call void @_ZN6syncer17SyncServiceCrypto31RefreshIsRecoverabilityDegradedEv(%"class.syncer::SyncServiceCrypto"* %0)
  br label %13

13:                                               ; preds = %2, %6
  ret void
}

; Function Attrs: nounwind ssp uwtable
define hidden void @_ZN6syncer17SyncServiceCrypto21FetchTrustedVaultKeysEb(%"class.syncer::SyncServiceCrypto"*, i1 zeroext) local_unnamed_addr #0 align 2 {
  %3 = alloca %"class.base::internal::WeakReference", align 8
  %4 = alloca %"class.base::OnceCallback", align 8
  %5 = alloca %"class.base::WeakPtr.20", align 8
  %6 = zext i1 %1 to i8
  %7 = load atomic i64, i64* @_ZZN6syncer17SyncServiceCrypto21FetchTrustedVaultKeysEbE24atomic_histogram_pointer.0.0.0.0.0 acquire, align 8
  %8 = inttoptr i64 %7 to %"class.base::HistogramBase"*
  %9 = icmp eq i64 %7, 0
  br i1 %9, label %10, label %13

10:                                               ; preds = %2
  %11 = tail call %"class.base::HistogramBase"* @_ZN4base15LinearHistogram10FactoryGetEPKciiji(i8* getelementptr inbounds ([34 x i8], [34 x i8]* @.str, i64 0, i64 0), i32 1, i32 2, i32 3, i32 1) #11
  %12 = ptrtoint %"class.base::HistogramBase"* %11 to i64
  store atomic i64 %12, i64* @_ZZN6syncer17SyncServiceCrypto21FetchTrustedVaultKeysEbE24atomic_histogram_pointer.0.0.0.0.0 release, align 8
  br label %13

13:                                               ; preds = %2, %10
  %14 = phi %"class.base::HistogramBase"* [ %8, %2 ], [ %11, %10 ]
  %15 = zext i1 %1 to i32
  %16 = bitcast %"class.base::HistogramBase"* %14 to void (%"class.base::HistogramBase"*, i32)***
  %17 = load void (%"class.base::HistogramBase"*, i32)**, void (%"class.base::HistogramBase"*, i32)*** %16, align 8
  %18 = getelementptr inbounds void (%"class.base::HistogramBase"*, i32)*, void (%"class.base::HistogramBase"*, i32)** %17, i64 6
  %19 = load void (%"class.base::HistogramBase"*, i32)*, void (%"class.base::HistogramBase"*, i32)** %18, align 8
  tail call void %19(%"class.base::HistogramBase"* %14, i32 %15) #11
  br i1 %1, label %22, label %20

20:                                               ; preds = %13
  %21 = getelementptr inbounds %"class.syncer::SyncServiceCrypto", %"class.syncer::SyncServiceCrypto"* %0, i64 0, i32 5, i32 13
  store i8 0, i8* %21, align 8
  br label %22

22:                                               ; preds = %13, %20
  %23 = getelementptr inbounds %"class.syncer::SyncServiceCrypto", %"class.syncer::SyncServiceCrypto"* %0, i64 0, i32 4
  %24 = load %"class.syncer::TrustedVaultClient"*, %"class.syncer::TrustedVaultClient"** %23, align 8
  %25 = getelementptr inbounds %"class.syncer::SyncServiceCrypto", %"class.syncer::SyncServiceCrypto"* %0, i64 0, i32 5, i32 1
  %26 = bitcast %"class.base::WeakPtr.20"* %5 to i8*
  call void @llvm.lifetime.start.p0i8(i64 16, i8* nonnull %26) #11
  %27 = bitcast %"class.base::internal::WeakReference"* %3 to i8*
  call void @llvm.lifetime.start.p0i8(i64 8, i8* nonnull %27) #11, !noalias !5
  %28 = getelementptr inbounds %"class.syncer::SyncServiceCrypto", %"class.syncer::SyncServiceCrypto"* %0, i64 0, i32 6, i32 0, i32 0
  call void @_ZNK4base8internal18WeakReferenceOwner6GetRefEv(%"class.base::internal::WeakReference"* nonnull sret %3, %"class.base::internal::WeakReferenceOwner"* %28) #11, !noalias !5
  %29 = getelementptr inbounds %"class.syncer::SyncServiceCrypto", %"class.syncer::SyncServiceCrypto"* %0, i64 0, i32 6, i32 0, i32 1
  %30 = load i64, i64* %29, align 8, !noalias !5
  %31 = getelementptr inbounds %"class.base::WeakPtr.20", %"class.base::WeakPtr.20"* %5, i64 0, i32 0
  call void @_ZN4base8internal11WeakPtrBaseC2ERKNS0_13WeakReferenceEm(%"class.base::internal::WeakPtrBase"* nonnull %31, %"class.base::internal::WeakReference"* nonnull dereferenceable(8) %3, i64 %30) #11
  call void @_ZN4base8internal13WeakReferenceD1Ev(%"class.base::internal::WeakReference"* nonnull %3) #11
  call void @llvm.lifetime.end.p0i8(i64 8, i8* nonnull %27) #11, !noalias !5
  %32 = call i8* @_Znwm(i64 72) #12, !noalias !8
  %33 = bitcast i8* %32 to %"class.base::internal::BindStateBase"*
  call void @_ZN4base8internal13BindStateBaseC2EPFvvEPFvPKS1_EPFbS5_NS1_21CancellationQueryModeEE(%"class.base::internal::BindStateBase"* nonnull %33, void ()* bitcast (void (%"class.base::internal::BindStateBase"*, %"class.std::__1::vector"*)* @_ZN4base8internal7InvokerINS0_9BindStateIMN6syncer17SyncServiceCryptoEFvbRKNSt3__16vectorINS6_IhNS5_9allocatorIhEEEENS7_IS9_EEEEEJNS_7WeakPtrIS4_EEbEEEFvSD_EE7RunOnceEPNS0_13BindStateBaseESD_ to void ()*), void (%"class.base::internal::BindStateBase"*)* nonnull @_ZN4base8internal9BindStateIMN6syncer17SyncServiceCryptoEFvbRKNSt3__16vectorINS5_IhNS4_9allocatorIhEEEENS6_IS8_EEEEEJNS_7WeakPtrIS3_EEbEE7DestroyEPKNS0_13BindStateBaseE, i1 (%"class.base::internal::BindStateBase"*, i32)* nonnull @_ZN4base8internal23QueryCancellationTraitsINS0_9BindStateIMN6syncer17SyncServiceCryptoEFvbRKNSt3__16vectorINS6_IhNS5_9allocatorIhEEEENS7_IS9_EEEEEJNS_7WeakPtrIS4_EEbEEEEEbPKNS0_13BindStateBaseENSJ_21CancellationQueryModeE) #11, !noalias !8
  %34 = getelementptr inbounds i8, i8* %32, i64 32
  %35 = bitcast i8* %34 to <2 x i64>*
  store <2 x i64> <i64 ptrtoint (void (%"class.syncer::SyncServiceCrypto"*, i1, %"class.std::__1::vector"*)* @_ZN6syncer17SyncServiceCrypto33TrustedVaultKeysFetchedFromClientEbRKNSt3__16vectorINS2_IhNS1_9allocatorIhEEEENS3_IS5_EEEE to i64), i64 0>, <2 x i64>* %35, align 8, !noalias !8
  %36 = getelementptr inbounds i8, i8* %32, i64 48
  %37 = bitcast i8* %36 to %"class.base::internal::WeakReference"*
  %38 = getelementptr inbounds %"class.base::WeakPtr.20", %"class.base::WeakPtr.20"* %5, i64 0, i32 0, i32 0
  call void @_ZN4base8internal13WeakReferenceC1EOS1_(%"class.base::internal::WeakReference"* %37, %"class.base::internal::WeakReference"* nonnull dereferenceable(8) %38) #11, !noalias !8
  %39 = getelementptr inbounds i8, i8* %32, i64 56
  %40 = bitcast i8* %39 to i64*
  %41 = getelementptr inbounds %"class.base::WeakPtr.20", %"class.base::WeakPtr.20"* %5, i64 0, i32 0, i32 1
  %42 = load i64, i64* %41, align 8, !noalias !8
  store i64 %42, i64* %40, align 8, !noalias !8
  %43 = getelementptr inbounds i8, i8* %32, i64 64
  store i8 %6, i8* %43, align 1, !noalias !8
  %44 = bitcast %"class.base::OnceCallback"* %4 to i8**
  store i8* %32, i8** %44, align 8, !alias.scope !8
  %45 = bitcast %"class.syncer::TrustedVaultClient"* %24 to void (%"class.syncer::TrustedVaultClient"*, %struct.CoreAccountInfo*, %"class.base::OnceCallback"*)***
  %46 = load void (%"class.syncer::TrustedVaultClient"*, %struct.CoreAccountInfo*, %"class.base::OnceCallback"*)**, void (%"class.syncer::TrustedVaultClient"*, %struct.CoreAccountInfo*, %"class.base::OnceCallback"*)*** %45, align 8
  %47 = getelementptr inbounds void (%"class.syncer::TrustedVaultClient"*, %struct.CoreAccountInfo*, %"class.base::OnceCallback"*)*, void (%"class.syncer::TrustedVaultClient"*, %struct.CoreAccountInfo*, %"class.base::OnceCallback"*)** %46, i64 4
  %48 = load void (%"class.syncer::TrustedVaultClient"*, %struct.CoreAccountInfo*, %"class.base::OnceCallback"*)*, void (%"class.syncer::TrustedVaultClient"*, %struct.CoreAccountInfo*, %"class.base::OnceCallback"*)** %47, align 8
  call void %48(%"class.syncer::TrustedVaultClient"* %24, %struct.CoreAccountInfo* dereferenceable(80) %25, %"class.base::OnceCallback"* nonnull %4) #11
  %49 = getelementptr inbounds %"class.base::OnceCallback", %"class.base::OnceCallback"* %4, i64 0, i32 0
  call void @_ZN4base8internal12CallbackBaseD2Ev(%"class.base::internal::CallbackBase"* nonnull %49) #11
  call void @_ZN4base8internal11WeakPtrBaseD2Ev(%"class.base::internal::WeakPtrBase"* nonnull %31) #11
  call void @llvm.lifetime.end.p0i8(i64 16, i8* nonnull %26) #11
  ret void
}

; Function Attrs: nounwind ssp uwtable
define hidden %"class.syncer::SyncEncryptionHandler::Observer"* @_ZN6syncer17SyncServiceCrypto26GetEncryptionObserverProxyEv(%"class.syncer::SyncServiceCrypto"*) local_unnamed_addr #0 align 2 {
  %2 = alloca %"class.base::WeakPtr", align 8
  %3 = alloca %"class.base::internal::WeakReference", align 8
  %4 = alloca %"class.base::WeakPtr.20", align 8
  %5 = bitcast %"class.base::WeakPtr.20"* %4 to i8*
  call void @llvm.lifetime.start.p0i8(i64 16, i8* nonnull %5) #11
  %6 = bitcast %"class.base::internal::WeakReference"* %3 to i8*
  call void @llvm.lifetime.start.p0i8(i64 8, i8* nonnull %6) #11, !noalias !13
  %7 = getelementptr inbounds %"class.syncer::SyncServiceCrypto", %"class.syncer::SyncServiceCrypto"* %0, i64 0, i32 6, i32 0, i32 0
  call void @_ZNK4base8internal18WeakReferenceOwner6GetRefEv(%"class.base::internal::WeakReference"* nonnull sret %3, %"class.base::internal::WeakReferenceOwner"* %7) #11, !noalias !13
  %8 = getelementptr inbounds %"class.syncer::SyncServiceCrypto", %"class.syncer::SyncServiceCrypto"* %0, i64 0, i32 6, i32 0, i32 1
  %9 = load i64, i64* %8, align 8, !noalias !13
  %10 = getelementptr inbounds %"class.base::WeakPtr.20", %"class.base::WeakPtr.20"* %4, i64 0, i32 0
  call void @_ZN4base8internal11WeakPtrBaseC2ERKNS0_13WeakReferenceEm(%"class.base::internal::WeakPtrBase"* nonnull %10, %"class.base::internal::WeakReference"* nonnull dereferenceable(8) %3, i64 %9) #11
  call void @_ZN4base8internal13WeakReferenceD1Ev(%"class.base::internal::WeakReference"* nonnull %3) #11
  call void @llvm.lifetime.end.p0i8(i64 8, i8* nonnull %6) #11, !noalias !13
  %11 = call dereferenceable(8) %class.scoped_refptr.15* @_ZN4base25SequencedTaskRunnerHandle3GetEv() #11
  %12 = bitcast %"class.base::WeakPtr"* %2 to i8*
  call void @llvm.lifetime.start.p0i8(i64 16, i8* nonnull %12)
  %13 = call i8* @_Znwm(i64 32) #12
  %14 = getelementptr inbounds %"class.base::WeakPtr", %"class.base::WeakPtr"* %2, i64 0, i32 0, i32 0
  %15 = getelementptr inbounds %"class.base::WeakPtr.20", %"class.base::WeakPtr.20"* %4, i64 0, i32 0, i32 0
  call void @_ZN4base8internal13WeakReferenceC1EOS1_(%"class.base::internal::WeakReference"* nonnull %14, %"class.base::internal::WeakReference"* nonnull dereferenceable(8) %15) #11
  %16 = getelementptr inbounds %"class.base::WeakPtr", %"class.base::WeakPtr"* %2, i64 0, i32 0, i32 1
  %17 = getelementptr inbounds %"class.base::WeakPtr.20", %"class.base::WeakPtr.20"* %4, i64 0, i32 0, i32 1
  %18 = load i64, i64* %17, align 8
  store i64 %18, i64* %16, align 8
  %19 = getelementptr inbounds %class.scoped_refptr.15, %class.scoped_refptr.15* %11, i64 0, i32 0
  %20 = load %"class.base::SequencedTaskRunner"*, %"class.base::SequencedTaskRunner"** %19, align 8
  %21 = icmp eq %"class.base::SequencedTaskRunner"* %20, null
  br i1 %21, label %25, label %22

22:                                               ; preds = %1
  %23 = getelementptr inbounds %"class.base::SequencedTaskRunner", %"class.base::SequencedTaskRunner"* %20, i64 0, i32 0, i32 1, i32 0, i32 0, i32 0, i32 0, i32 0, i32 0, i32 0, i32 0
  %24 = atomicrmw add i32* %23, i32 1 monotonic
  br label %25

25:                                               ; preds = %22, %1
  %26 = ptrtoint %"class.base::SequencedTaskRunner"* %20 to i64
  %27 = bitcast i8* %13 to i32 (...)***
  store i32 (...)** bitcast (i8** getelementptr inbounds ({ [12 x i8*] }, { [12 x i8*] }* @_ZTVN6syncer12_GLOBAL__N_127SyncEncryptionObserverProxyE, i64 0, inrange i32 0, i64 2) to i32 (...)**), i32 (...)*** %27, align 8
  %28 = getelementptr inbounds i8, i8* %13, i64 8
  %29 = bitcast i8* %28 to %"class.base::internal::WeakReference"*
  call void @_ZN4base8internal13WeakReferenceC1ERKS1_(%"class.base::internal::WeakReference"* %29, %"class.base::internal::WeakReference"* nonnull dereferenceable(8) %14) #11
  %30 = getelementptr inbounds i8, i8* %13, i64 16
  %31 = bitcast i8* %30 to i64*
  %32 = load i64, i64* %16, align 8
  store i64 %32, i64* %31, align 8
  %33 = getelementptr inbounds i8, i8* %13, i64 24
  %34 = bitcast i8* %33 to i64*
  store i64 %26, i64* %34, align 8
  %35 = getelementptr inbounds %"class.base::WeakPtr", %"class.base::WeakPtr"* %2, i64 0, i32 0
  call void @_ZN4base8internal11WeakPtrBaseD2Ev(%"class.base::internal::WeakPtrBase"* nonnull %35) #11
  call void @llvm.lifetime.end.p0i8(i64 16, i8* nonnull %12)
  call void @_ZN4base8internal11WeakPtrBaseD2Ev(%"class.base::internal::WeakPtrBase"* nonnull %10) #11
  call void @llvm.lifetime.end.p0i8(i64 16, i8* nonnull %5) #11
  %36 = bitcast i8* %13 to %"class.syncer::SyncEncryptionHandler::Observer"*
  ret %"class.syncer::SyncEncryptionHandler::Observer"* %36
}

declare dereferenceable(8) %class.scoped_refptr.15* @_ZN4base25SequencedTaskRunnerHandle3GetEv() local_unnamed_addr #1

; Function Attrs: nounwind
declare void @_ZN4base8internal11WeakPtrBaseD2Ev(%"class.base::internal::WeakPtrBase"*) unnamed_addr #2

; Function Attrs: norecurse nounwind readonly ssp uwtable
define hidden i64 @_ZNK6syncer17SyncServiceCrypto21GetEncryptedDataTypesEv(%"class.syncer::SyncServiceCrypto"* nocapture readonly) unnamed_addr #5 align 2 {
  %2 = getelementptr inbounds %"class.syncer::SyncServiceCrypto", %"class.syncer::SyncServiceCrypto"* %0, i64 0, i32 5, i32 4, i32 0, i32 0, i32 0
  %3 = load i64, i64* %2, align 8
  ret i64 %3
}

; Function Attrs: norecurse nounwind readonly ssp uwtable
define hidden i64 @_ZThn8_NK6syncer17SyncServiceCrypto21GetEncryptedDataTypesEv(%"class.syncer::SyncServiceCrypto"* nocapture readonly) unnamed_addr #5 align 2 {
  %2 = getelementptr inbounds %"class.syncer::SyncServiceCrypto", %"class.syncer::SyncServiceCrypto"* %0, i64 -1, i32 6, i32 0, i32 1
  %3 = getelementptr inbounds i64, i64* %2, i64 19
  %4 = load i64, i64* %3, align 8
  ret i64 %4
}

; Function Attrs: norecurse nounwind readonly ssp uwtable
define hidden zeroext i1 @_ZNK6syncer17SyncServiceCrypto14HasCryptoErrorEv(%"class.syncer::SyncServiceCrypto"* nocapture readonly) unnamed_addr #5 align 2 {
  %2 = getelementptr inbounds %"class.syncer::SyncServiceCrypto", %"class.syncer::SyncServiceCrypto"* %0, i64 0, i32 5, i32 2
  %3 = load i32, i32* %2, align 8
  %4 = add i32 %3, -2
  %5 = icmp ult i32 %4, 4
  ret i1 %5
}

; Function Attrs: norecurse nounwind readonly ssp uwtable
define hidden zeroext i1 @_ZThn8_NK6syncer17SyncServiceCrypto14HasCryptoErrorEv(%"class.syncer::SyncServiceCrypto"* nocapture readonly) unnamed_addr #5 align 2 {
  %2 = getelementptr inbounds %"class.syncer::SyncServiceCrypto", %"class.syncer::SyncServiceCrypto"* %0, i64 -1, i32 6, i32 0, i32 1
  %3 = getelementptr inbounds i64, i64* %2, i64 18
  %4 = bitcast i64* %3 to i32*
  %5 = load i32, i32* %4, align 8
  %6 = add i32 %5, -2
  %7 = icmp ult i32 %6, 4
  ret i1 %7
}

; Function Attrs: nounwind ssp uwtable
define hidden void @_ZN6syncer17SyncServiceCrypto20OnPassphraseRequiredERKNS_19KeyDerivationParamsERKN7sync_pb13EncryptedDataE(%"class.syncer::SyncServiceCrypto"*, %"class.syncer::KeyDerivationParams"* dereferenceable(32), %"class.sync_pb::EncryptedData"* dereferenceable(40)) unnamed_addr #0 align 2 {
  %4 = getelementptr inbounds %"class.syncer::SyncServiceCrypto", %"class.syncer::SyncServiceCrypto"* %0, i64 0, i32 5, i32 8
  tail call void @_ZN7sync_pb13EncryptedData8CopyFromERKS0_(%"class.sync_pb::EncryptedData"* %4, %"class.sync_pb::EncryptedData"* dereferenceable(40) %2) #11
  %5 = getelementptr inbounds %"class.syncer::SyncServiceCrypto", %"class.syncer::SyncServiceCrypto"* %0, i64 0, i32 5, i32 11
  %6 = tail call dereferenceable(32) %"class.syncer::KeyDerivationParams"* @_ZN6syncer19KeyDerivationParamsaSERKS0_(%"class.syncer::KeyDerivationParams"* %5, %"class.syncer::KeyDerivationParams"* dereferenceable(32) %1) #11
  %7 = getelementptr inbounds %"class.syncer::SyncServiceCrypto", %"class.syncer::SyncServiceCrypto"* %0, i64 0, i32 5, i32 2
  %8 = load i32, i32* %7, align 8
  %9 = icmp eq i32 %8, 2
  br i1 %9, label %17, label %10

10:                                               ; preds = %3
  store i32 2, i32* %7, align 8
  %11 = getelementptr inbounds %"class.syncer::SyncServiceCrypto", %"class.syncer::SyncServiceCrypto"* %0, i64 0, i32 3
  %12 = load %"class.syncer::SyncServiceCrypto::Delegate"*, %"class.syncer::SyncServiceCrypto::Delegate"** %11, align 8
  %13 = bitcast %"class.syncer::SyncServiceCrypto::Delegate"* %12 to void (%"class.syncer::SyncServiceCrypto::Delegate"*)***
  %14 = load void (%"class.syncer::SyncServiceCrypto::Delegate"*)**, void (%"class.syncer::SyncServiceCrypto::Delegate"*)*** %13, align 8
  %15 = getelementptr inbounds void (%"class.syncer::SyncServiceCrypto::Delegate"*)*, void (%"class.syncer::SyncServiceCrypto::Delegate"*)** %14, i64 3
  %16 = load void (%"class.syncer::SyncServiceCrypto::Delegate"*)*, void (%"class.syncer::SyncServiceCrypto::Delegate"*)** %15, align 8
  tail call void %16(%"class.syncer::SyncServiceCrypto::Delegate"* %12) #11
  tail call void @_ZN6syncer17SyncServiceCrypto31RefreshIsRecoverabilityDegradedEv(%"class.syncer::SyncServiceCrypto"* %0) #11
  br label %17

17:                                               ; preds = %3, %10
  %18 = getelementptr inbounds %"class.syncer::SyncServiceCrypto", %"class.syncer::SyncServiceCrypto"* %0, i64 0, i32 3
  %19 = load %"class.syncer::SyncServiceCrypto::Delegate"*, %"class.syncer::SyncServiceCrypto::Delegate"** %18, align 8
  %20 = bitcast %"class.syncer::SyncServiceCrypto::Delegate"* %19 to void (%"class.syncer::SyncServiceCrypto::Delegate"*)***
  %21 = load void (%"class.syncer::SyncServiceCrypto::Delegate"*)**, void (%"class.syncer::SyncServiceCrypto::Delegate"*)*** %20, align 8
  %22 = getelementptr inbounds void (%"class.syncer::SyncServiceCrypto::Delegate"*)*, void (%"class.syncer::SyncServiceCrypto::Delegate"*)** %21, i64 4
  %23 = load void (%"class.syncer::SyncServiceCrypto::Delegate"*)*, void (%"class.syncer::SyncServiceCrypto::Delegate"*)** %22, align 8
  tail call void %23(%"class.syncer::SyncServiceCrypto::Delegate"* %19) #11
  ret void
}

declare dereferenceable(32) %"class.syncer::KeyDerivationParams"* @_ZN6syncer19KeyDerivationParamsaSERKS0_(%"class.syncer::KeyDerivationParams"*, %"class.syncer::KeyDerivationParams"* dereferenceable(32)) local_unnamed_addr #1

; Function Attrs: nounwind ssp uwtable
define hidden void @_ZN6syncer17SyncServiceCrypto20OnPassphraseAcceptedEv(%"class.syncer::SyncServiceCrypto"*) unnamed_addr #0 align 2 {
  %2 = getelementptr inbounds %"class.syncer::SyncServiceCrypto", %"class.syncer::SyncServiceCrypto"* %0, i64 0, i32 5, i32 8, i32 4, i32 0
  %3 = load %"class.std::__1::basic_string"*, %"class.std::__1::basic_string"** %2, align 8
  %4 = icmp eq %"class.std::__1::basic_string"* %3, bitcast (%"class.google::protobuf::internal::ExplicitlyConstructed"* @_ZN6google8protobuf8internal26fixed_address_empty_stringE to %"class.std::__1::basic_string"*)
  br i1 %4, label %16, label %5

5:                                                ; preds = %1
  %6 = bitcast %"class.std::__1::basic_string"* %3 to %"struct.std::__1::basic_string<char, std::__1::char_traits<char>, std::__1::allocator<char> >::__short"*
  %7 = getelementptr inbounds %"struct.std::__1::basic_string<char, std::__1::char_traits<char>, std::__1::allocator<char> >::__short", %"struct.std::__1::basic_string<char, std::__1::char_traits<char>, std::__1::allocator<char> >::__short"* %6, i64 0, i32 1, i32 0
  %8 = load i8, i8* %7, align 1
  %9 = icmp slt i8 %8, 0
  br i1 %9, label %10, label %14

10:                                               ; preds = %5
  %11 = getelementptr inbounds %"class.std::__1::basic_string", %"class.std::__1::basic_string"* %3, i64 0, i32 0, i32 0, i32 0, i32 0, i32 0, i32 0
  %12 = load i8*, i8** %11, align 8
  store i8 0, i8* %12, align 1
  %13 = getelementptr inbounds %"class.std::__1::basic_string", %"class.std::__1::basic_string"* %3, i64 0, i32 0, i32 0, i32 0, i32 0, i32 0, i32 1
  store i64 0, i64* %13, align 8
  br label %16

14:                                               ; preds = %5
  %15 = bitcast %"class.std::__1::basic_string"* %3 to i8*
  store i8 0, i8* %15, align 1
  store i8 0, i8* %7, align 1
  br label %16

16:                                               ; preds = %1, %10, %14
  %17 = getelementptr inbounds %"class.syncer::SyncServiceCrypto", %"class.syncer::SyncServiceCrypto"* %0, i64 0, i32 5, i32 8, i32 1, i32 0, i64 0
  %18 = load i32, i32* %17, align 4
  %19 = and i32 %18, -3
  store i32 %19, i32* %17, align 4
  %20 = getelementptr inbounds %"class.syncer::SyncServiceCrypto", %"class.syncer::SyncServiceCrypto"* %0, i64 0, i32 5, i32 2
  %21 = load i32, i32* %20, align 8
  %22 = icmp eq i32 %21, 1
  br i1 %22, label %30, label %23

23:                                               ; preds = %16
  store i32 1, i32* %20, align 8
  %24 = getelementptr inbounds %"class.syncer::SyncServiceCrypto", %"class.syncer::SyncServiceCrypto"* %0, i64 0, i32 3
  %25 = load %"class.syncer::SyncServiceCrypto::Delegate"*, %"class.syncer::SyncServiceCrypto::Delegate"** %24, align 8
  %26 = bitcast %"class.syncer::SyncServiceCrypto::Delegate"* %25 to void (%"class.syncer::SyncServiceCrypto::Delegate"*)***
  %27 = load void (%"class.syncer::SyncServiceCrypto::Delegate"*)**, void (%"class.syncer::SyncServiceCrypto::Delegate"*)*** %26, align 8
  %28 = getelementptr inbounds void (%"class.syncer::SyncServiceCrypto::Delegate"*)*, void (%"class.syncer::SyncServiceCrypto::Delegate"*)** %27, i64 3
  %29 = load void (%"class.syncer::SyncServiceCrypto::Delegate"*)*, void (%"class.syncer::SyncServiceCrypto::Delegate"*)** %28, align 8
  tail call void %29(%"class.syncer::SyncServiceCrypto::Delegate"* %25) #11
  tail call void @_ZN6syncer17SyncServiceCrypto31RefreshIsRecoverabilityDegradedEv(%"class.syncer::SyncServiceCrypto"* %0) #11
  br label %30

30:                                               ; preds = %16, %23
  %31 = getelementptr inbounds %"class.syncer::SyncServiceCrypto", %"class.syncer::SyncServiceCrypto"* %0, i64 0, i32 3
  %32 = load %"class.syncer::SyncServiceCrypto::Delegate"*, %"class.syncer::SyncServiceCrypto::Delegate"** %31, align 8
  %33 = bitcast %"class.syncer::SyncServiceCrypto::Delegate"* %32 to void (%"class.syncer::SyncServiceCrypto::Delegate"*)***
  %34 = load void (%"class.syncer::SyncServiceCrypto::Delegate"*)**, void (%"class.syncer::SyncServiceCrypto::Delegate"*)*** %33, align 8
  %35 = getelementptr inbounds void (%"class.syncer::SyncServiceCrypto::Delegate"*)*, void (%"class.syncer::SyncServiceCrypto::Delegate"*)** %34, i64 4
  %36 = load void (%"class.syncer::SyncServiceCrypto::Delegate"*)*, void (%"class.syncer::SyncServiceCrypto::Delegate"*)** %35, align 8
  tail call void %36(%"class.syncer::SyncServiceCrypto::Delegate"* %32) #11
  ret void
}

; Function Attrs: nounwind ssp uwtable
define hidden void @_ZN6syncer17SyncServiceCrypto25OnTrustedVaultKeyRequiredEv(%"class.syncer::SyncServiceCrypto"*) unnamed_addr #0 align 2 {
  %2 = getelementptr inbounds %"class.syncer::SyncServiceCrypto", %"class.syncer::SyncServiceCrypto"* %0, i64 0, i32 5, i32 2
  %3 = load i32, i32* %2, align 8
  %4 = icmp ult i32 %3, 2
  br i1 %4, label %5, label %16

5:                                                ; preds = %1
  store i32 3, i32* %2, align 8
  %6 = getelementptr inbounds %"class.syncer::SyncServiceCrypto", %"class.syncer::SyncServiceCrypto"* %0, i64 0, i32 3
  %7 = load %"class.syncer::SyncServiceCrypto::Delegate"*, %"class.syncer::SyncServiceCrypto::Delegate"** %6, align 8
  %8 = bitcast %"class.syncer::SyncServiceCrypto::Delegate"* %7 to void (%"class.syncer::SyncServiceCrypto::Delegate"*)***
  %9 = load void (%"class.syncer::SyncServiceCrypto::Delegate"*)**, void (%"class.syncer::SyncServiceCrypto::Delegate"*)*** %8, align 8
  %10 = getelementptr inbounds void (%"class.syncer::SyncServiceCrypto::Delegate"*)*, void (%"class.syncer::SyncServiceCrypto::Delegate"*)** %9, i64 3
  %11 = load void (%"class.syncer::SyncServiceCrypto::Delegate"*)*, void (%"class.syncer::SyncServiceCrypto::Delegate"*)** %10, align 8
  tail call void %11(%"class.syncer::SyncServiceCrypto::Delegate"* %7) #11
  tail call void @_ZN6syncer17SyncServiceCrypto31RefreshIsRecoverabilityDegradedEv(%"class.syncer::SyncServiceCrypto"* %0) #11
  %12 = getelementptr inbounds %"class.syncer::SyncServiceCrypto", %"class.syncer::SyncServiceCrypto"* %0, i64 0, i32 5, i32 0
  %13 = load %"class.syncer::SyncEngine"*, %"class.syncer::SyncEngine"** %12, align 8
  %14 = icmp eq %"class.syncer::SyncEngine"* %13, null
  br i1 %14, label %16, label %15

15:                                               ; preds = %5
  tail call void @_ZN6syncer17SyncServiceCrypto21FetchTrustedVaultKeysEb(%"class.syncer::SyncServiceCrypto"* %0, i1 zeroext false)
  br label %16

16:                                               ; preds = %1, %5, %15
  ret void
}

; Function Attrs: nounwind ssp uwtable
define hidden void @_ZN6syncer17SyncServiceCrypto25OnTrustedVaultKeyAcceptedEv(%"class.syncer::SyncServiceCrypto"*) unnamed_addr #0 align 2 {
  %2 = getelementptr inbounds %"class.syncer::SyncServiceCrypto", %"class.syncer::SyncServiceCrypto"* %0, i64 0, i32 5, i32 2
  %3 = load i32, i32* %2, align 8
  switch i32 %3, label %4 [
    i32 0, label %16
    i32 1, label %16
    i32 2, label %16
    i32 6, label %16
  ]

4:                                                ; preds = %1
  store i32 1, i32* %2, align 8
  %5 = getelementptr inbounds %"class.syncer::SyncServiceCrypto", %"class.syncer::SyncServiceCrypto"* %0, i64 0, i32 3
  %6 = load %"class.syncer::SyncServiceCrypto::Delegate"*, %"class.syncer::SyncServiceCrypto::Delegate"** %5, align 8
  %7 = bitcast %"class.syncer::SyncServiceCrypto::Delegate"* %6 to void (%"class.syncer::SyncServiceCrypto::Delegate"*)***
  %8 = load void (%"class.syncer::SyncServiceCrypto::Delegate"*)**, void (%"class.syncer::SyncServiceCrypto::Delegate"*)*** %7, align 8
  %9 = getelementptr inbounds void (%"class.syncer::SyncServiceCrypto::Delegate"*)*, void (%"class.syncer::SyncServiceCrypto::Delegate"*)** %8, i64 3
  %10 = load void (%"class.syncer::SyncServiceCrypto::Delegate"*)*, void (%"class.syncer::SyncServiceCrypto::Delegate"*)** %9, align 8
  tail call void %10(%"class.syncer::SyncServiceCrypto::Delegate"* %6) #11
  tail call void @_ZN6syncer17SyncServiceCrypto31RefreshIsRecoverabilityDegradedEv(%"class.syncer::SyncServiceCrypto"* %0) #11
  %11 = load %"class.syncer::SyncServiceCrypto::Delegate"*, %"class.syncer::SyncServiceCrypto::Delegate"** %5, align 8
  %12 = bitcast %"class.syncer::SyncServiceCrypto::Delegate"* %11 to void (%"class.syncer::SyncServiceCrypto::Delegate"*)***
  %13 = load void (%"class.syncer::SyncServiceCrypto::Delegate"*)**, void (%"class.syncer::SyncServiceCrypto::Delegate"*)*** %12, align 8
  %14 = getelementptr inbounds void (%"class.syncer::SyncServiceCrypto::Delegate"*)*, void (%"class.syncer::SyncServiceCrypto::Delegate"*)** %13, i64 4
  %15 = load void (%"class.syncer::SyncServiceCrypto::Delegate"*)*, void (%"class.syncer::SyncServiceCrypto::Delegate"*)** %14, align 8
  tail call void %15(%"class.syncer::SyncServiceCrypto::Delegate"* %11) #11
  br label %16

16:                                               ; preds = %1, %1, %1, %1, %4
  ret void
}

; Function Attrs: nounwind ssp uwtable
define hidden void @_ZN6syncer17SyncServiceCrypto23OnBootstrapTokenUpdatedERKNSt3__112basic_stringIcNS1_11char_traitsIcEENS1_9allocatorIcEEEENS_18BootstrapTokenTypeE(%"class.syncer::SyncServiceCrypto"* nocapture readonly, %"class.std::__1::basic_string"* dereferenceable(24), i32) unnamed_addr #0 align 2 {
  %4 = icmp eq i32 %2, 0
  br i1 %4, label %5, label %12

5:                                                ; preds = %3
  %6 = getelementptr inbounds %"class.syncer::SyncServiceCrypto", %"class.syncer::SyncServiceCrypto"* %0, i64 0, i32 3
  %7 = load %"class.syncer::SyncServiceCrypto::Delegate"*, %"class.syncer::SyncServiceCrypto::Delegate"** %6, align 8
  %8 = bitcast %"class.syncer::SyncServiceCrypto::Delegate"* %7 to void (%"class.syncer::SyncServiceCrypto::Delegate"*, %"class.std::__1::basic_string"*)***
  %9 = load void (%"class.syncer::SyncServiceCrypto::Delegate"*, %"class.std::__1::basic_string"*)**, void (%"class.syncer::SyncServiceCrypto::Delegate"*, %"class.std::__1::basic_string"*)*** %8, align 8
  %10 = getelementptr inbounds void (%"class.syncer::SyncServiceCrypto::Delegate"*, %"class.std::__1::basic_string"*)*, void (%"class.syncer::SyncServiceCrypto::Delegate"*, %"class.std::__1::basic_string"*)** %9, i64 5
  %11 = load void (%"class.syncer::SyncServiceCrypto::Delegate"*, %"class.std::__1::basic_string"*)*, void (%"class.syncer::SyncServiceCrypto::Delegate"*, %"class.std::__1::basic_string"*)** %10, align 8
  tail call void %11(%"class.syncer::SyncServiceCrypto::Delegate"* %7, %"class.std::__1::basic_string"* dereferenceable(24) %1) #11
  br label %19

12:                                               ; preds = %3
  %13 = getelementptr inbounds %"class.syncer::SyncServiceCrypto", %"class.syncer::SyncServiceCrypto"* %0, i64 0, i32 5, i32 0
  %14 = load %"class.syncer::SyncEngine"*, %"class.syncer::SyncEngine"** %13, align 8
  %15 = bitcast %"class.syncer::SyncEngine"* %14 to void (%"class.syncer::SyncEngine"*, %"class.std::__1::basic_string"*)***
  %16 = load void (%"class.syncer::SyncEngine"*, %"class.std::__1::basic_string"*)**, void (%"class.syncer::SyncEngine"*, %"class.std::__1::basic_string"*)*** %15, align 8
  %17 = getelementptr inbounds void (%"class.syncer::SyncEngine"*, %"class.std::__1::basic_string"*)*, void (%"class.syncer::SyncEngine"*, %"class.std::__1::basic_string"*)** %16, i64 19
  %18 = load void (%"class.syncer::SyncEngine"*, %"class.std::__1::basic_string"*)*, void (%"class.syncer::SyncEngine"*, %"class.std::__1::basic_string"*)** %17, align 8
  tail call void %18(%"class.syncer::SyncEngine"* %14, %"class.std::__1::basic_string"* dereferenceable(24) %1) #11
  br label %19

19:                                               ; preds = %12, %5
  ret void
}

; Function Attrs: nounwind ssp uwtable
define hidden void @_ZN6syncer17SyncServiceCrypto23OnEncryptedTypesChangedENS_7EnumSetINS_9ModelTypeELS2_1ELS2_37EEEb(%"class.syncer::SyncServiceCrypto"* nocapture, i64, i1 zeroext) unnamed_addr #0 align 2 {
  %4 = zext i1 %2 to i8
  %5 = getelementptr inbounds %"class.syncer::SyncServiceCrypto", %"class.syncer::SyncServiceCrypto"* %0, i64 0, i32 5, i32 4, i32 0, i32 0, i32 0
  store i64 %1, i64* %5, align 8
  %6 = getelementptr inbounds %"class.syncer::SyncServiceCrypto", %"class.syncer::SyncServiceCrypto"* %0, i64 0, i32 5, i32 5
  store i8 %4, i8* %6, align 8
  %7 = getelementptr inbounds %"class.syncer::SyncServiceCrypto", %"class.syncer::SyncServiceCrypto"* %0, i64 0, i32 3
  %8 = load %"class.syncer::SyncServiceCrypto::Delegate"*, %"class.syncer::SyncServiceCrypto::Delegate"** %7, align 8
  %9 = bitcast %"class.syncer::SyncServiceCrypto::Delegate"* %8 to void (%"class.syncer::SyncServiceCrypto::Delegate"*)***
  %10 = load void (%"class.syncer::SyncServiceCrypto::Delegate"*)**, void (%"class.syncer::SyncServiceCrypto::Delegate"*)*** %9, align 8
  %11 = getelementptr inbounds void (%"class.syncer::SyncServiceCrypto::Delegate"*)*, void (%"class.syncer::SyncServiceCrypto::Delegate"*)** %10, i64 2
  %12 = load void (%"class.syncer::SyncServiceCrypto::Delegate"*)*, void (%"class.syncer::SyncServiceCrypto::Delegate"*)** %11, align 8
  tail call void %12(%"class.syncer::SyncServiceCrypto::Delegate"* %8) #11
  ret void
}

; Function Attrs: norecurse nounwind readnone ssp uwtable
define hidden void @_ZN6syncer17SyncServiceCrypto27OnCryptographerStateChangedEPNS_13CryptographerEb(%"class.syncer::SyncServiceCrypto"* nocapture, %"class.syncer::Cryptographer"* nocapture, i1 zeroext) unnamed_addr #6 align 2 {
  ret void
}

; Function Attrs: nounwind ssp uwtable
define hidden void @_ZN6syncer17SyncServiceCrypto23OnPassphraseTypeChangedENS_14PassphraseTypeEN4base4TimeE(%"class.syncer::SyncServiceCrypto"*, i32, i64) unnamed_addr #0 align 2 {
  %4 = getelementptr inbounds %"class.syncer::SyncServiceCrypto", %"class.syncer::SyncServiceCrypto"* %0, i64 0, i32 5, i32 9
  store i32 %1, i32* %4, align 8
  %5 = getelementptr inbounds %"class.syncer::SyncServiceCrypto", %"class.syncer::SyncServiceCrypto"* %0, i64 0, i32 5, i32 12, i32 0, i32 0
  store i64 %2, i64* %5, align 8
  %6 = icmp eq i32 %1, 4
  br i1 %6, label %18, label %7

7:                                                ; preds = %3
  %8 = getelementptr inbounds %"class.syncer::SyncServiceCrypto", %"class.syncer::SyncServiceCrypto"* %0, i64 0, i32 5, i32 2
  %9 = load i32, i32* %8, align 8
  %10 = icmp eq i32 %9, 6
  br i1 %10, label %11, label %18

11:                                               ; preds = %7
  store i32 1, i32* %8, align 8
  %12 = getelementptr inbounds %"class.syncer::SyncServiceCrypto", %"class.syncer::SyncServiceCrypto"* %0, i64 0, i32 3
  %13 = load %"class.syncer::SyncServiceCrypto::Delegate"*, %"class.syncer::SyncServiceCrypto::Delegate"** %12, align 8
  %14 = bitcast %"class.syncer::SyncServiceCrypto::Delegate"* %13 to void (%"class.syncer::SyncServiceCrypto::Delegate"*)***
  %15 = load void (%"class.syncer::SyncServiceCrypto::Delegate"*)**, void (%"class.syncer::SyncServiceCrypto::Delegate"*)*** %14, align 8
  %16 = getelementptr inbounds void (%"class.syncer::SyncServiceCrypto::Delegate"*)*, void (%"class.syncer::SyncServiceCrypto::Delegate"*)** %15, i64 3
  %17 = load void (%"class.syncer::SyncServiceCrypto::Delegate"*)*, void (%"class.syncer::SyncServiceCrypto::Delegate"*)** %16, align 8
  tail call void %17(%"class.syncer::SyncServiceCrypto::Delegate"* %13) #11
  tail call void @_ZN6syncer17SyncServiceCrypto31RefreshIsRecoverabilityDegradedEv(%"class.syncer::SyncServiceCrypto"* %0) #11
  br label %18

18:                                               ; preds = %3, %11, %7
  %19 = getelementptr inbounds %"class.syncer::SyncServiceCrypto", %"class.syncer::SyncServiceCrypto"* %0, i64 0, i32 3
  %20 = load %"class.syncer::SyncServiceCrypto::Delegate"*, %"class.syncer::SyncServiceCrypto::Delegate"** %19, align 8
  %21 = bitcast %"class.syncer::SyncServiceCrypto::Delegate"* %20 to void (%"class.syncer::SyncServiceCrypto::Delegate"*)***
  %22 = load void (%"class.syncer::SyncServiceCrypto::Delegate"*)**, void (%"class.syncer::SyncServiceCrypto::Delegate"*)*** %21, align 8
  %23 = getelementptr inbounds void (%"class.syncer::SyncServiceCrypto::Delegate"*)*, void (%"class.syncer::SyncServiceCrypto::Delegate"*)** %22, i64 2
  %24 = load void (%"class.syncer::SyncServiceCrypto::Delegate"*)*, void (%"class.syncer::SyncServiceCrypto::Delegate"*)** %23, align 8
  tail call void %24(%"class.syncer::SyncServiceCrypto::Delegate"* %20) #11
  ret void
}

; Function Attrs: nounwind ssp uwtable
define hidden void @_ZN6syncer17SyncServiceCrypto25OnTrustedVaultKeysChangedEv(%"class.syncer::SyncServiceCrypto"*) unnamed_addr #0 align 2 {
  %2 = getelementptr inbounds %"class.syncer::SyncServiceCrypto", %"class.syncer::SyncServiceCrypto"* %0, i64 0, i32 5, i32 2
  %3 = load i32, i32* %2, align 8
  switch i32 %3, label %13 [
    i32 0, label %14
    i32 1, label %14
    i32 2, label %14
    i32 6, label %14
    i32 3, label %4
    i32 5, label %4
    i32 4, label %6
  ]

4:                                                ; preds = %1, %1
  %5 = getelementptr inbounds %"class.syncer::SyncServiceCrypto", %"class.syncer::SyncServiceCrypto"* %0, i64 0, i32 5, i32 13
  store i8 1, i8* %5, align 8
  br label %14

6:                                                ; preds = %1
  store i32 5, i32* %2, align 8
  %7 = getelementptr inbounds %"class.syncer::SyncServiceCrypto", %"class.syncer::SyncServiceCrypto"* %0, i64 0, i32 3
  %8 = load %"class.syncer::SyncServiceCrypto::Delegate"*, %"class.syncer::SyncServiceCrypto::Delegate"** %7, align 8
  %9 = bitcast %"class.syncer::SyncServiceCrypto::Delegate"* %8 to void (%"class.syncer::SyncServiceCrypto::Delegate"*)***
  %10 = load void (%"class.syncer::SyncServiceCrypto::Delegate"*)**, void (%"class.syncer::SyncServiceCrypto::Delegate"*)*** %9, align 8
  %11 = getelementptr inbounds void (%"class.syncer::SyncServiceCrypto::Delegate"*)*, void (%"class.syncer::SyncServiceCrypto::Delegate"*)** %10, i64 3
  %12 = load void (%"class.syncer::SyncServiceCrypto::Delegate"*)*, void (%"class.syncer::SyncServiceCrypto::Delegate"*)** %11, align 8
  tail call void %12(%"class.syncer::SyncServiceCrypto::Delegate"* %8) #11
  tail call void @_ZN6syncer17SyncServiceCrypto31RefreshIsRecoverabilityDegradedEv(%"class.syncer::SyncServiceCrypto"* %0) #11
  br label %13

13:                                               ; preds = %1, %6
  tail call void @_ZN6syncer17SyncServiceCrypto21FetchTrustedVaultKeysEb(%"class.syncer::SyncServiceCrypto"* %0, i1 zeroext false)
  br label %14

14:                                               ; preds = %1, %1, %1, %1, %13, %4
  ret void
}

; Function Attrs: nounwind ssp uwtable
define hidden void @_ZThn16_N6syncer17SyncServiceCrypto25OnTrustedVaultKeysChangedEv(%"class.syncer::SyncServiceCrypto"*) unnamed_addr #0 align 2 {
  %2 = getelementptr inbounds %"class.syncer::SyncServiceCrypto", %"class.syncer::SyncServiceCrypto"* %0, i64 -1, i32 6
  %3 = bitcast %"class.base::WeakPtrFactory.7"* %2 to %"class.syncer::SyncServiceCrypto"*
  %4 = getelementptr inbounds %"class.base::WeakPtrFactory.7", %"class.base::WeakPtrFactory.7"* %2, i64 9
  %5 = bitcast %"class.base::WeakPtrFactory.7"* %4 to i32*
  %6 = load i32, i32* %5, align 8
  switch i32 %6, label %18 [
    i32 0, label %19
    i32 1, label %19
    i32 2, label %19
    i32 6, label %19
    i32 3, label %7
    i32 5, label %7
    i32 4, label %10
  ]

7:                                                ; preds = %1, %1
  %8 = getelementptr inbounds %"class.base::WeakPtrFactory.7", %"class.base::WeakPtrFactory.7"* %2, i64 16
  %9 = bitcast %"class.base::WeakPtrFactory.7"* %8 to i8*
  store i8 1, i8* %9, align 8
  br label %19

10:                                               ; preds = %1
  store i32 5, i32* %5, align 8
  %11 = getelementptr inbounds %"class.base::WeakPtrFactory.7", %"class.base::WeakPtrFactory.7"* %2, i64 2, i32 0, i32 1
  %12 = bitcast i64* %11 to %"class.syncer::SyncServiceCrypto::Delegate"**
  %13 = load %"class.syncer::SyncServiceCrypto::Delegate"*, %"class.syncer::SyncServiceCrypto::Delegate"** %12, align 8
  %14 = bitcast %"class.syncer::SyncServiceCrypto::Delegate"* %13 to void (%"class.syncer::SyncServiceCrypto::Delegate"*)***
  %15 = load void (%"class.syncer::SyncServiceCrypto::Delegate"*)**, void (%"class.syncer::SyncServiceCrypto::Delegate"*)*** %14, align 8
  %16 = getelementptr inbounds void (%"class.syncer::SyncServiceCrypto::Delegate"*)*, void (%"class.syncer::SyncServiceCrypto::Delegate"*)** %15, i64 3
  %17 = load void (%"class.syncer::SyncServiceCrypto::Delegate"*)*, void (%"class.syncer::SyncServiceCrypto::Delegate"*)** %16, align 8
  tail call void %17(%"class.syncer::SyncServiceCrypto::Delegate"* %13) #11
  tail call void @_ZN6syncer17SyncServiceCrypto31RefreshIsRecoverabilityDegradedEv(%"class.syncer::SyncServiceCrypto"* %3) #11
  br label %18

18:                                               ; preds = %10, %1
  tail call void @_ZN6syncer17SyncServiceCrypto21FetchTrustedVaultKeysEb(%"class.syncer::SyncServiceCrypto"* %3, i1 zeroext false) #11
  br label %19

19:                                               ; preds = %1, %1, %1, %1, %7, %18
  ret void
}

; Function Attrs: nounwind ssp uwtable
define hidden void @_ZN6syncer17SyncServiceCrypto35OnTrustedVaultRecoverabilityChangedEv(%"class.syncer::SyncServiceCrypto"*) unnamed_addr #0 align 2 {
  tail call void @_ZN6syncer17SyncServiceCrypto31RefreshIsRecoverabilityDegradedEv(%"class.syncer::SyncServiceCrypto"* %0)
  ret void
}

; Function Attrs: nounwind ssp uwtable
define hidden void @_ZN6syncer17SyncServiceCrypto31RefreshIsRecoverabilityDegradedEv(%"class.syncer::SyncServiceCrypto"*) local_unnamed_addr #0 align 2 {
  %2 = alloca %"class.base::internal::WeakReference", align 8
  %3 = alloca %"class.base::OnceCallback.46", align 8
  %4 = alloca %"class.base::WeakPtr.20", align 8
  %5 = getelementptr inbounds %"class.syncer::SyncServiceCrypto", %"class.syncer::SyncServiceCrypto"* %0, i64 0, i32 5, i32 2
  %6 = load i32, i32* %5, align 8
  switch i32 %6, label %7 [
    i32 0, label %36
    i32 3, label %36
    i32 4, label %36
    i32 5, label %36
    i32 2, label %36
  ]

7:                                                ; preds = %1
  %8 = tail call zeroext i1 @_ZN4base11FeatureList9IsEnabledERKNS_7FeatureE(%"struct.base::Feature"* nonnull dereferenceable(16) @_ZN8switches42kSyncSupportTrustedVaultPassphraseRecoveryE) #11
  br i1 %8, label %9, label %36

9:                                                ; preds = %7
  %10 = getelementptr inbounds %"class.syncer::SyncServiceCrypto", %"class.syncer::SyncServiceCrypto"* %0, i64 0, i32 4
  %11 = load %"class.syncer::TrustedVaultClient"*, %"class.syncer::TrustedVaultClient"** %10, align 8
  %12 = getelementptr inbounds %"class.syncer::SyncServiceCrypto", %"class.syncer::SyncServiceCrypto"* %0, i64 0, i32 5, i32 1
  %13 = bitcast %"class.base::WeakPtr.20"* %4 to i8*
  call void @llvm.lifetime.start.p0i8(i64 16, i8* nonnull %13) #11
  %14 = bitcast %"class.base::internal::WeakReference"* %2 to i8*
  call void @llvm.lifetime.start.p0i8(i64 8, i8* nonnull %14) #11, !noalias !16
  %15 = getelementptr inbounds %"class.syncer::SyncServiceCrypto", %"class.syncer::SyncServiceCrypto"* %0, i64 0, i32 6, i32 0, i32 0
  call void @_ZNK4base8internal18WeakReferenceOwner6GetRefEv(%"class.base::internal::WeakReference"* nonnull sret %2, %"class.base::internal::WeakReferenceOwner"* %15) #11, !noalias !16
  %16 = getelementptr inbounds %"class.syncer::SyncServiceCrypto", %"class.syncer::SyncServiceCrypto"* %0, i64 0, i32 6, i32 0, i32 1
  %17 = load i64, i64* %16, align 8, !noalias !16
  %18 = getelementptr inbounds %"class.base::WeakPtr.20", %"class.base::WeakPtr.20"* %4, i64 0, i32 0
  call void @_ZN4base8internal11WeakPtrBaseC2ERKNS0_13WeakReferenceEm(%"class.base::internal::WeakPtrBase"* nonnull %18, %"class.base::internal::WeakReference"* nonnull dereferenceable(8) %2, i64 %17) #11
  call void @_ZN4base8internal13WeakReferenceD1Ev(%"class.base::internal::WeakReference"* nonnull %2) #11
  call void @llvm.lifetime.end.p0i8(i64 8, i8* nonnull %14) #11, !noalias !16
  %19 = call i8* @_Znwm(i64 64) #12, !noalias !19
  %20 = bitcast i8* %19 to %"class.base::internal::BindStateBase"*
  call void @_ZN4base8internal13BindStateBaseC2EPFvvEPFvPKS1_EPFbS5_NS1_21CancellationQueryModeEE(%"class.base::internal::BindStateBase"* nonnull %20, void ()* bitcast (void (%"class.base::internal::BindStateBase"*, i1)* @_ZN4base8internal7InvokerINS0_9BindStateIMN6syncer17SyncServiceCryptoEFvbEJNS_7WeakPtrIS4_EEEEEFvbEE7RunOnceEPNS0_13BindStateBaseEb to void ()*), void (%"class.base::internal::BindStateBase"*)* nonnull @_ZN4base8internal9BindStateIMN6syncer17SyncServiceCryptoEFvbEJNS_7WeakPtrIS3_EEEE7DestroyEPKNS0_13BindStateBaseE, i1 (%"class.base::internal::BindStateBase"*, i32)* nonnull @_ZN4base8internal23QueryCancellationTraitsINS0_9BindStateIMN6syncer17SyncServiceCryptoEFvbEJNS_7WeakPtrIS4_EEEEEEEbPKNS0_13BindStateBaseENSA_21CancellationQueryModeE) #11, !noalias !19
  %21 = getelementptr inbounds i8, i8* %19, i64 32
  %22 = bitcast i8* %21 to <2 x i64>*
  store <2 x i64> <i64 ptrtoint (void (%"class.syncer::SyncServiceCrypto"*, i1)* @_ZN6syncer17SyncServiceCrypto36GetIsRecoverabilityDegradedCompletedEb to i64), i64 0>, <2 x i64>* %22, align 8, !noalias !19
  %23 = getelementptr inbounds i8, i8* %19, i64 48
  %24 = bitcast i8* %23 to %"class.base::internal::WeakReference"*
  %25 = getelementptr inbounds %"class.base::WeakPtr.20", %"class.base::WeakPtr.20"* %4, i64 0, i32 0, i32 0
  call void @_ZN4base8internal13WeakReferenceC1EOS1_(%"class.base::internal::WeakReference"* %24, %"class.base::internal::WeakReference"* nonnull dereferenceable(8) %25) #11, !noalias !19
  %26 = getelementptr inbounds i8, i8* %19, i64 56
  %27 = bitcast i8* %26 to i64*
  %28 = getelementptr inbounds %"class.base::WeakPtr.20", %"class.base::WeakPtr.20"* %4, i64 0, i32 0, i32 1
  %29 = load i64, i64* %28, align 8, !noalias !19
  store i64 %29, i64* %27, align 8, !noalias !19
  %30 = bitcast %"class.base::OnceCallback.46"* %3 to i8**
  store i8* %19, i8** %30, align 8, !alias.scope !19
  %31 = bitcast %"class.syncer::TrustedVaultClient"* %11 to void (%"class.syncer::TrustedVaultClient"*, %struct.CoreAccountInfo*, %"class.base::OnceCallback.46"*)***
  %32 = load void (%"class.syncer::TrustedVaultClient"*, %struct.CoreAccountInfo*, %"class.base::OnceCallback.46"*)**, void (%"class.syncer::TrustedVaultClient"*, %struct.CoreAccountInfo*, %"class.base::OnceCallback.46"*)*** %31, align 8
  %33 = getelementptr inbounds void (%"class.syncer::TrustedVaultClient"*, %struct.CoreAccountInfo*, %"class.base::OnceCallback.46"*)*, void (%"class.syncer::TrustedVaultClient"*, %struct.CoreAccountInfo*, %"class.base::OnceCallback.46"*)** %32, i64 8
  %34 = load void (%"class.syncer::TrustedVaultClient"*, %struct.CoreAccountInfo*, %"class.base::OnceCallback.46"*)*, void (%"class.syncer::TrustedVaultClient"*, %struct.CoreAccountInfo*, %"class.base::OnceCallback.46"*)** %33, align 8
  call void %34(%"class.syncer::TrustedVaultClient"* %11, %struct.CoreAccountInfo* dereferenceable(80) %12, %"class.base::OnceCallback.46"* nonnull %3) #11
  %35 = getelementptr inbounds %"class.base::OnceCallback.46", %"class.base::OnceCallback.46"* %3, i64 0, i32 0
  call void @_ZN4base8internal12CallbackBaseD2Ev(%"class.base::internal::CallbackBase"* nonnull %35) #11
  call void @_ZN4base8internal11WeakPtrBaseD2Ev(%"class.base::internal::WeakPtrBase"* nonnull %18) #11
  call void @llvm.lifetime.end.p0i8(i64 16, i8* nonnull %13) #11
  br label %36

36:                                               ; preds = %7, %1, %1, %1, %1, %1, %9
  ret void
}

; Function Attrs: nounwind ssp uwtable
define hidden void @_ZThn16_N6syncer17SyncServiceCrypto35OnTrustedVaultRecoverabilityChangedEv(%"class.syncer::SyncServiceCrypto"*) unnamed_addr #0 align 2 {
  %2 = getelementptr inbounds %"class.syncer::SyncServiceCrypto", %"class.syncer::SyncServiceCrypto"* %0, i64 -1, i32 6
  %3 = bitcast %"class.base::WeakPtrFactory.7"* %2 to %"class.syncer::SyncServiceCrypto"*
  tail call void @_ZN6syncer17SyncServiceCrypto31RefreshIsRecoverabilityDegradedEv(%"class.syncer::SyncServiceCrypto"* %3) #11
  ret void
}

declare %"class.base::HistogramBase"* @_ZN4base15LinearHistogram10FactoryGetEPKciiji(i8*, i32, i32, i32, i32) local_unnamed_addr #1

; Function Attrs: nounwind ssp uwtable
define hidden void @_ZN6syncer17SyncServiceCrypto33TrustedVaultKeysFetchedFromClientEbRKNSt3__16vectorINS2_IhNS1_9allocatorIhEEEENS3_IS5_EEEE(%"class.syncer::SyncServiceCrypto"*, i1 zeroext, %"class.std::__1::vector"* dereferenceable(24)) #0 align 2 {
  %4 = alloca %"class.base::internal::WeakReference", align 8
  %5 = alloca %"class.base::OnceCallback.45", align 8
  %6 = alloca %"class.base::WeakPtr.20", align 8
  %7 = zext i1 %1 to i8
  %8 = getelementptr inbounds %"class.syncer::SyncServiceCrypto", %"class.syncer::SyncServiceCrypto"* %0, i64 0, i32 5, i32 2
  %9 = load i32, i32* %8, align 8
  switch i32 %9, label %84 [
    i32 3, label %10
    i32 5, label %10
  ]

10:                                               ; preds = %3, %3
  %11 = load atomic i64, i64* @_ZZN6syncer17SyncServiceCrypto33TrustedVaultKeysFetchedFromClientEbRKNSt3__16vectorINS2_IhNS1_9allocatorIhEEEENS3_IS5_EEEEE24atomic_histogram_pointer.0.0.0.0.0 acquire, align 8
  %12 = inttoptr i64 %11 to %"class.base::HistogramBase"*
  %13 = icmp eq i64 %11, 0
  br i1 %13, label %14, label %17

14:                                               ; preds = %10
  %15 = tail call %"class.base::HistogramBase"* @_ZN4base9Histogram10FactoryGetEPKciiji(i8* getelementptr inbounds ([34 x i8], [34 x i8]* @.str.1, i64 0, i64 0), i32 1, i32 100, i32 50, i32 1) #11
  %16 = ptrtoint %"class.base::HistogramBase"* %15 to i64
  store atomic i64 %16, i64* @_ZZN6syncer17SyncServiceCrypto33TrustedVaultKeysFetchedFromClientEbRKNSt3__16vectorINS2_IhNS1_9allocatorIhEEEENS3_IS5_EEEEE24atomic_histogram_pointer.0.0.0.0.0 release, align 8
  br label %17

17:                                               ; preds = %10, %14
  %18 = phi %"class.base::HistogramBase"* [ %12, %10 ], [ %15, %14 ]
  %19 = getelementptr inbounds %"class.std::__1::vector", %"class.std::__1::vector"* %2, i64 0, i32 0, i32 1
  %20 = bitcast %"class.std::__1::vector.33"** %19 to i64*
  %21 = load i64, i64* %20, align 8
  %22 = bitcast %"class.std::__1::vector"* %2 to i64*
  %23 = load i64, i64* %22, align 8
  %24 = sub i64 %21, %23
  %25 = sdiv exact i64 %24, 24
  %26 = trunc i64 %25 to i32
  %27 = bitcast %"class.base::HistogramBase"* %18 to void (%"class.base::HistogramBase"*, i32)***
  %28 = load void (%"class.base::HistogramBase"*, i32)**, void (%"class.base::HistogramBase"*, i32)*** %27, align 8
  %29 = getelementptr inbounds void (%"class.base::HistogramBase"*, i32)*, void (%"class.base::HistogramBase"*, i32)** %28, i64 6
  %30 = load void (%"class.base::HistogramBase"*, i32)*, void (%"class.base::HistogramBase"*, i32)** %29, align 8
  tail call void %30(%"class.base::HistogramBase"* %18, i32 %26) #11
  %31 = getelementptr inbounds %"class.std::__1::vector", %"class.std::__1::vector"* %2, i64 0, i32 0, i32 0
  %32 = load %"class.std::__1::vector.33"*, %"class.std::__1::vector.33"** %31, align 8
  %33 = load %"class.std::__1::vector.33"*, %"class.std::__1::vector.33"** %19, align 8
  %34 = icmp eq %"class.std::__1::vector.33"* %32, %33
  br i1 %34, label %35, label %57

35:                                               ; preds = %17
  %36 = getelementptr inbounds %"class.syncer::SyncServiceCrypto", %"class.syncer::SyncServiceCrypto"* %0, i64 0, i32 5, i32 13
  %37 = load i8, i8* %36, align 8, !range !4
  %38 = icmp eq i8 %37, 0
  br i1 %38, label %40, label %39

39:                                               ; preds = %35
  tail call void @_ZN6syncer17SyncServiceCrypto21FetchTrustedVaultKeysEb(%"class.syncer::SyncServiceCrypto"* %0, i1 zeroext false) #11
  br label %84

40:                                               ; preds = %35
  %41 = load i32, i32* %8, align 8
  %42 = icmp eq i32 %41, 4
  br i1 %42, label %50, label %43

43:                                               ; preds = %40
  store i32 4, i32* %8, align 8
  %44 = getelementptr inbounds %"class.syncer::SyncServiceCrypto", %"class.syncer::SyncServiceCrypto"* %0, i64 0, i32 3
  %45 = load %"class.syncer::SyncServiceCrypto::Delegate"*, %"class.syncer::SyncServiceCrypto::Delegate"** %44, align 8
  %46 = bitcast %"class.syncer::SyncServiceCrypto::Delegate"* %45 to void (%"class.syncer::SyncServiceCrypto::Delegate"*)***
  %47 = load void (%"class.syncer::SyncServiceCrypto::Delegate"*)**, void (%"class.syncer::SyncServiceCrypto::Delegate"*)*** %46, align 8
  %48 = getelementptr inbounds void (%"class.syncer::SyncServiceCrypto::Delegate"*)*, void (%"class.syncer::SyncServiceCrypto::Delegate"*)** %47, i64 3
  %49 = load void (%"class.syncer::SyncServiceCrypto::Delegate"*)*, void (%"class.syncer::SyncServiceCrypto::Delegate"*)** %48, align 8
  tail call void %49(%"class.syncer::SyncServiceCrypto::Delegate"* %45) #11
  tail call void @_ZN6syncer17SyncServiceCrypto31RefreshIsRecoverabilityDegradedEv(%"class.syncer::SyncServiceCrypto"* %0) #11
  br label %50

50:                                               ; preds = %43, %40
  %51 = getelementptr inbounds %"class.syncer::SyncServiceCrypto", %"class.syncer::SyncServiceCrypto"* %0, i64 0, i32 3
  %52 = load %"class.syncer::SyncServiceCrypto::Delegate"*, %"class.syncer::SyncServiceCrypto::Delegate"** %51, align 8
  %53 = bitcast %"class.syncer::SyncServiceCrypto::Delegate"* %52 to void (%"class.syncer::SyncServiceCrypto::Delegate"*)***
  %54 = load void (%"class.syncer::SyncServiceCrypto::Delegate"*)**, void (%"class.syncer::SyncServiceCrypto::Delegate"*)*** %53, align 8
  %55 = getelementptr inbounds void (%"class.syncer::SyncServiceCrypto::Delegate"*)*, void (%"class.syncer::SyncServiceCrypto::Delegate"*)** %54, i64 4
  %56 = load void (%"class.syncer::SyncServiceCrypto::Delegate"*)*, void (%"class.syncer::SyncServiceCrypto::Delegate"*)** %55, align 8
  tail call void %56(%"class.syncer::SyncServiceCrypto::Delegate"* %52) #11
  br label %84

57:                                               ; preds = %17
  %58 = getelementptr inbounds %"class.syncer::SyncServiceCrypto", %"class.syncer::SyncServiceCrypto"* %0, i64 0, i32 5, i32 0
  %59 = load %"class.syncer::SyncEngine"*, %"class.syncer::SyncEngine"** %58, align 8
  %60 = bitcast %"class.base::WeakPtr.20"* %6 to i8*
  call void @llvm.lifetime.start.p0i8(i64 16, i8* nonnull %60) #11
  %61 = bitcast %"class.base::internal::WeakReference"* %4 to i8*
  call void @llvm.lifetime.start.p0i8(i64 8, i8* nonnull %61) #11, !noalias !24
  %62 = getelementptr inbounds %"class.syncer::SyncServiceCrypto", %"class.syncer::SyncServiceCrypto"* %0, i64 0, i32 6, i32 0, i32 0
  call void @_ZNK4base8internal18WeakReferenceOwner6GetRefEv(%"class.base::internal::WeakReference"* nonnull sret %4, %"class.base::internal::WeakReferenceOwner"* %62) #11, !noalias !24
  %63 = getelementptr inbounds %"class.syncer::SyncServiceCrypto", %"class.syncer::SyncServiceCrypto"* %0, i64 0, i32 6, i32 0, i32 1
  %64 = load i64, i64* %63, align 8, !noalias !24
  %65 = getelementptr inbounds %"class.base::WeakPtr.20", %"class.base::WeakPtr.20"* %6, i64 0, i32 0
  call void @_ZN4base8internal11WeakPtrBaseC2ERKNS0_13WeakReferenceEm(%"class.base::internal::WeakPtrBase"* nonnull %65, %"class.base::internal::WeakReference"* nonnull dereferenceable(8) %4, i64 %64) #11
  call void @_ZN4base8internal13WeakReferenceD1Ev(%"class.base::internal::WeakReference"* nonnull %4) #11
  call void @llvm.lifetime.end.p0i8(i64 8, i8* nonnull %61) #11, !noalias !24
  %66 = call i8* @_Znwm(i64 72) #12, !noalias !27
  %67 = bitcast i8* %66 to %"class.base::internal::BindStateBase"*
  call void @_ZN4base8internal13BindStateBaseC2EPFvvEPFvPKS1_EPFbS5_NS1_21CancellationQueryModeEE(%"class.base::internal::BindStateBase"* nonnull %67, void ()* bitcast (void (%"class.base::internal::BindStateBase"*)* @_ZN4base8internal7InvokerINS0_9BindStateIMN6syncer17SyncServiceCryptoEFvbEJNS_7WeakPtrIS4_EEbEEEFvvEE7RunOnceEPNS0_13BindStateBaseE to void ()*), void (%"class.base::internal::BindStateBase"*)* nonnull @_ZN4base8internal9BindStateIMN6syncer17SyncServiceCryptoEFvbEJNS_7WeakPtrIS3_EEbEE7DestroyEPKNS0_13BindStateBaseE, i1 (%"class.base::internal::BindStateBase"*, i32)* nonnull @_ZN4base8internal23QueryCancellationTraitsINS0_9BindStateIMN6syncer17SyncServiceCryptoEFvbEJNS_7WeakPtrIS4_EEbEEEEEbPKNS0_13BindStateBaseENSA_21CancellationQueryModeE) #11, !noalias !27
  %68 = getelementptr inbounds i8, i8* %66, i64 32
  %69 = bitcast i8* %68 to <2 x i64>*
  store <2 x i64> <i64 ptrtoint (void (%"class.syncer::SyncServiceCrypto"*, i1)* @_ZN6syncer17SyncServiceCrypto21TrustedVaultKeysAddedEb to i64), i64 0>, <2 x i64>* %69, align 8, !noalias !27
  %70 = getelementptr inbounds i8, i8* %66, i64 48
  %71 = bitcast i8* %70 to %"class.base::internal::WeakReference"*
  %72 = getelementptr inbounds %"class.base::WeakPtr.20", %"class.base::WeakPtr.20"* %6, i64 0, i32 0, i32 0
  call void @_ZN4base8internal13WeakReferenceC1EOS1_(%"class.base::internal::WeakReference"* %71, %"class.base::internal::WeakReference"* nonnull dereferenceable(8) %72) #11, !noalias !27
  %73 = getelementptr inbounds i8, i8* %66, i64 56
  %74 = bitcast i8* %73 to i64*
  %75 = getelementptr inbounds %"class.base::WeakPtr.20", %"class.base::WeakPtr.20"* %6, i64 0, i32 0, i32 1
  %76 = load i64, i64* %75, align 8, !noalias !27
  store i64 %76, i64* %74, align 8, !noalias !27
  %77 = getelementptr inbounds i8, i8* %66, i64 64
  store i8 %7, i8* %77, align 1, !noalias !27
  %78 = bitcast %"class.base::OnceCallback.45"* %5 to i8**
  store i8* %66, i8** %78, align 8, !alias.scope !27
  %79 = bitcast %"class.syncer::SyncEngine"* %59 to void (%"class.syncer::SyncEngine"*, %"class.std::__1::vector"*, %"class.base::OnceCallback.45"*)***
  %80 = load void (%"class.syncer::SyncEngine"*, %"class.std::__1::vector"*, %"class.base::OnceCallback.45"*)**, void (%"class.syncer::SyncEngine"*, %"class.std::__1::vector"*, %"class.base::OnceCallback.45"*)*** %79, align 8
  %81 = getelementptr inbounds void (%"class.syncer::SyncEngine"*, %"class.std::__1::vector"*, %"class.base::OnceCallback.45"*)*, void (%"class.syncer::SyncEngine"*, %"class.std::__1::vector"*, %"class.base::OnceCallback.45"*)** %80, i64 20
  %82 = load void (%"class.syncer::SyncEngine"*, %"class.std::__1::vector"*, %"class.base::OnceCallback.45"*)*, void (%"class.syncer::SyncEngine"*, %"class.std::__1::vector"*, %"class.base::OnceCallback.45"*)** %81, align 8
  call void %82(%"class.syncer::SyncEngine"* %59, %"class.std::__1::vector"* dereferenceable(24) %2, %"class.base::OnceCallback.45"* nonnull %5) #11
  %83 = getelementptr inbounds %"class.base::OnceCallback.45", %"class.base::OnceCallback.45"* %5, i64 0, i32 0
  call void @_ZN4base8internal12CallbackBaseD2Ev(%"class.base::internal::CallbackBase"* nonnull %83) #11
  call void @_ZN4base8internal11WeakPtrBaseD2Ev(%"class.base::internal::WeakPtrBase"* nonnull %65) #11
  call void @llvm.lifetime.end.p0i8(i64 16, i8* nonnull %60) #11
  br label %84

84:                                               ; preds = %50, %39, %3, %57
  ret void
}

declare %"class.base::HistogramBase"* @_ZN4base9Histogram10FactoryGetEPKciiji(i8*, i32, i32, i32, i32) local_unnamed_addr #1

; Function Attrs: nounwind ssp uwtable
define hidden void @_ZN6syncer17SyncServiceCrypto45FetchTrustedVaultKeysCompletedButInsufficientEv(%"class.syncer::SyncServiceCrypto"*) local_unnamed_addr #0 align 2 {
  %2 = getelementptr inbounds %"class.syncer::SyncServiceCrypto", %"class.syncer::SyncServiceCrypto"* %0, i64 0, i32 5, i32 13
  %3 = load i8, i8* %2, align 8, !range !4
  %4 = icmp eq i8 %3, 0
  br i1 %4, label %6, label %5

5:                                                ; preds = %1
  tail call void @_ZN6syncer17SyncServiceCrypto21FetchTrustedVaultKeysEb(%"class.syncer::SyncServiceCrypto"* %0, i1 zeroext false)
  br label %24

6:                                                ; preds = %1
  %7 = getelementptr inbounds %"class.syncer::SyncServiceCrypto", %"class.syncer::SyncServiceCrypto"* %0, i64 0, i32 5, i32 2
  %8 = load i32, i32* %7, align 8
  %9 = icmp eq i32 %8, 4
  br i1 %9, label %17, label %10

10:                                               ; preds = %6
  store i32 4, i32* %7, align 8
  %11 = getelementptr inbounds %"class.syncer::SyncServiceCrypto", %"class.syncer::SyncServiceCrypto"* %0, i64 0, i32 3
  %12 = load %"class.syncer::SyncServiceCrypto::Delegate"*, %"class.syncer::SyncServiceCrypto::Delegate"** %11, align 8
  %13 = bitcast %"class.syncer::SyncServiceCrypto::Delegate"* %12 to void (%"class.syncer::SyncServiceCrypto::Delegate"*)***
  %14 = load void (%"class.syncer::SyncServiceCrypto::Delegate"*)**, void (%"class.syncer::SyncServiceCrypto::Delegate"*)*** %13, align 8
  %15 = getelementptr inbounds void (%"class.syncer::SyncServiceCrypto::Delegate"*)*, void (%"class.syncer::SyncServiceCrypto::Delegate"*)** %14, i64 3
  %16 = load void (%"class.syncer::SyncServiceCrypto::Delegate"*)*, void (%"class.syncer::SyncServiceCrypto::Delegate"*)** %15, align 8
  tail call void %16(%"class.syncer::SyncServiceCrypto::Delegate"* %12) #11
  tail call void @_ZN6syncer17SyncServiceCrypto31RefreshIsRecoverabilityDegradedEv(%"class.syncer::SyncServiceCrypto"* %0) #11
  br label %17

17:                                               ; preds = %6, %10
  %18 = getelementptr inbounds %"class.syncer::SyncServiceCrypto", %"class.syncer::SyncServiceCrypto"* %0, i64 0, i32 3
  %19 = load %"class.syncer::SyncServiceCrypto::Delegate"*, %"class.syncer::SyncServiceCrypto::Delegate"** %18, align 8
  %20 = bitcast %"class.syncer::SyncServiceCrypto::Delegate"* %19 to void (%"class.syncer::SyncServiceCrypto::Delegate"*)***
  %21 = load void (%"class.syncer::SyncServiceCrypto::Delegate"*)**, void (%"class.syncer::SyncServiceCrypto::Delegate"*)*** %20, align 8
  %22 = getelementptr inbounds void (%"class.syncer::SyncServiceCrypto::Delegate"*)*, void (%"class.syncer::SyncServiceCrypto::Delegate"*)** %21, i64 4
  %23 = load void (%"class.syncer::SyncServiceCrypto::Delegate"*)*, void (%"class.syncer::SyncServiceCrypto::Delegate"*)** %22, align 8
  tail call void %23(%"class.syncer::SyncServiceCrypto::Delegate"* %19) #11
  br label %24

24:                                               ; preds = %17, %5
  ret void
}

; Function Attrs: nounwind ssp uwtable
define hidden void @_ZN6syncer17SyncServiceCrypto21TrustedVaultKeysAddedEb(%"class.syncer::SyncServiceCrypto"*, i1 zeroext) #0 align 2 {
  %3 = alloca %"class.base::internal::WeakReference", align 8
  %4 = alloca %"class.base::OnceCallback.46", align 8
  %5 = alloca %"class.base::WeakPtr.20", align 8
  %6 = zext i1 %1 to i8
  %7 = getelementptr inbounds %"class.syncer::SyncServiceCrypto", %"class.syncer::SyncServiceCrypto"* %0, i64 0, i32 5, i32 2
  %8 = load i32, i32* %7, align 8
  %9 = icmp ne i32 %8, 3
  %10 = icmp ne i32 %8, 5
  %11 = and i1 %9, %10
  %12 = load atomic i64, i64* @_ZZN6syncer17SyncServiceCrypto21TrustedVaultKeysAddedEbE24atomic_histogram_pointer.0.0.0.0.0 acquire, align 8
  %13 = inttoptr i64 %12 to %"class.base::HistogramBase"*
  %14 = icmp eq i64 %12, 0
  br i1 %14, label %15, label %18

15:                                               ; preds = %2
  %16 = tail call %"class.base::HistogramBase"* @_ZN4base16BooleanHistogram10FactoryGetEPKci(i8* getelementptr inbounds ([44 x i8], [44 x i8]* @.str.2, i64 0, i64 0), i32 1) #11
  %17 = ptrtoint %"class.base::HistogramBase"* %16 to i64
  store atomic i64 %17, i64* @_ZZN6syncer17SyncServiceCrypto21TrustedVaultKeysAddedEbE24atomic_histogram_pointer.0.0.0.0.0 release, align 8
  br label %18

18:                                               ; preds = %2, %15
  %19 = phi %"class.base::HistogramBase"* [ %13, %2 ], [ %16, %15 ]
  tail call void @_ZN4base13HistogramBase10AddBooleanEb(%"class.base::HistogramBase"* %19, i1 zeroext %11) #11
  switch i32 %8, label %48 [
    i32 5, label %20
    i32 3, label %20
  ]

20:                                               ; preds = %18, %18
  %21 = getelementptr inbounds %"class.syncer::SyncServiceCrypto", %"class.syncer::SyncServiceCrypto"* %0, i64 0, i32 4
  %22 = load %"class.syncer::TrustedVaultClient"*, %"class.syncer::TrustedVaultClient"** %21, align 8
  %23 = getelementptr inbounds %"class.syncer::SyncServiceCrypto", %"class.syncer::SyncServiceCrypto"* %0, i64 0, i32 5, i32 1
  %24 = bitcast %"class.base::WeakPtr.20"* %5 to i8*
  call void @llvm.lifetime.start.p0i8(i64 16, i8* nonnull %24) #11
  %25 = bitcast %"class.base::internal::WeakReference"* %3 to i8*
  call void @llvm.lifetime.start.p0i8(i64 8, i8* nonnull %25) #11, !noalias !32
  %26 = getelementptr inbounds %"class.syncer::SyncServiceCrypto", %"class.syncer::SyncServiceCrypto"* %0, i64 0, i32 6, i32 0, i32 0
  call void @_ZNK4base8internal18WeakReferenceOwner6GetRefEv(%"class.base::internal::WeakReference"* nonnull sret %3, %"class.base::internal::WeakReferenceOwner"* %26) #11, !noalias !32
  %27 = getelementptr inbounds %"class.syncer::SyncServiceCrypto", %"class.syncer::SyncServiceCrypto"* %0, i64 0, i32 6, i32 0, i32 1
  %28 = load i64, i64* %27, align 8, !noalias !32
  %29 = getelementptr inbounds %"class.base::WeakPtr.20", %"class.base::WeakPtr.20"* %5, i64 0, i32 0
  call void @_ZN4base8internal11WeakPtrBaseC2ERKNS0_13WeakReferenceEm(%"class.base::internal::WeakPtrBase"* nonnull %29, %"class.base::internal::WeakReference"* nonnull dereferenceable(8) %3, i64 %28) #11
  call void @_ZN4base8internal13WeakReferenceD1Ev(%"class.base::internal::WeakReference"* nonnull %3) #11
  call void @llvm.lifetime.end.p0i8(i64 8, i8* nonnull %25) #11, !noalias !32
  %30 = call i8* @_Znwm(i64 72) #12, !noalias !35
  %31 = bitcast i8* %30 to %"class.base::internal::BindStateBase"*
  call void @_ZN4base8internal13BindStateBaseC2EPFvvEPFvPKS1_EPFbS5_NS1_21CancellationQueryModeEE(%"class.base::internal::BindStateBase"* nonnull %31, void ()* bitcast (void (%"class.base::internal::BindStateBase"*, i1)* @_ZN4base8internal7InvokerINS0_9BindStateIMN6syncer17SyncServiceCryptoEFvbbEJNS_7WeakPtrIS4_EEbEEEFvbEE7RunOnceEPNS0_13BindStateBaseEb to void ()*), void (%"class.base::internal::BindStateBase"*)* nonnull @_ZN4base8internal9BindStateIMN6syncer17SyncServiceCryptoEFvbbEJNS_7WeakPtrIS3_EEbEE7DestroyEPKNS0_13BindStateBaseE, i1 (%"class.base::internal::BindStateBase"*, i32)* nonnull @_ZN4base8internal23QueryCancellationTraitsINS0_9BindStateIMN6syncer17SyncServiceCryptoEFvbbEJNS_7WeakPtrIS4_EEbEEEEEbPKNS0_13BindStateBaseENSA_21CancellationQueryModeE) #11, !noalias !35
  %32 = getelementptr inbounds i8, i8* %30, i64 32
  %33 = bitcast i8* %32 to <2 x i64>*
  store <2 x i64> <i64 ptrtoint (void (%"class.syncer::SyncServiceCrypto"*, i1, i1)* @_ZN6syncer17SyncServiceCrypto29TrustedVaultKeysMarkedAsStaleEbb to i64), i64 0>, <2 x i64>* %33, align 8, !noalias !35
  %34 = getelementptr inbounds i8, i8* %30, i64 48
  %35 = bitcast i8* %34 to %"class.base::internal::WeakReference"*
  %36 = getelementptr inbounds %"class.base::WeakPtr.20", %"class.base::WeakPtr.20"* %5, i64 0, i32 0, i32 0
  call void @_ZN4base8internal13WeakReferenceC1EOS1_(%"class.base::internal::WeakReference"* %35, %"class.base::internal::WeakReference"* nonnull dereferenceable(8) %36) #11, !noalias !35
  %37 = getelementptr inbounds i8, i8* %30, i64 56
  %38 = bitcast i8* %37 to i64*
  %39 = getelementptr inbounds %"class.base::WeakPtr.20", %"class.base::WeakPtr.20"* %5, i64 0, i32 0, i32 1
  %40 = load i64, i64* %39, align 8, !noalias !35
  store i64 %40, i64* %38, align 8, !noalias !35
  %41 = getelementptr inbounds i8, i8* %30, i64 64
  store i8 %6, i8* %41, align 1, !noalias !35
  %42 = bitcast %"class.base::OnceCallback.46"* %4 to i8**
  store i8* %30, i8** %42, align 8, !alias.scope !35
  %43 = bitcast %"class.syncer::TrustedVaultClient"* %22 to void (%"class.syncer::TrustedVaultClient"*, %struct.CoreAccountInfo*, %"class.base::OnceCallback.46"*)***
  %44 = load void (%"class.syncer::TrustedVaultClient"*, %struct.CoreAccountInfo*, %"class.base::OnceCallback.46"*)**, void (%"class.syncer::TrustedVaultClient"*, %struct.CoreAccountInfo*, %"class.base::OnceCallback.46"*)*** %43, align 8
  %45 = getelementptr inbounds void (%"class.syncer::TrustedVaultClient"*, %struct.CoreAccountInfo*, %"class.base::OnceCallback.46"*)*, void (%"class.syncer::TrustedVaultClient"*, %struct.CoreAccountInfo*, %"class.base::OnceCallback.46"*)** %44, i64 5
  %46 = load void (%"class.syncer::TrustedVaultClient"*, %struct.CoreAccountInfo*, %"class.base::OnceCallback.46"*)*, void (%"class.syncer::TrustedVaultClient"*, %struct.CoreAccountInfo*, %"class.base::OnceCallback.46"*)** %45, align 8
  call void %46(%"class.syncer::TrustedVaultClient"* %22, %struct.CoreAccountInfo* dereferenceable(80) %23, %"class.base::OnceCallback.46"* nonnull %4) #11
  %47 = getelementptr inbounds %"class.base::OnceCallback.46", %"class.base::OnceCallback.46"* %4, i64 0, i32 0
  call void @_ZN4base8internal12CallbackBaseD2Ev(%"class.base::internal::CallbackBase"* nonnull %47) #11
  call void @_ZN4base8internal11WeakPtrBaseD2Ev(%"class.base::internal::WeakPtrBase"* nonnull %29) #11
  call void @llvm.lifetime.end.p0i8(i64 16, i8* nonnull %24) #11
  br label %48

48:                                               ; preds = %18, %20
  ret void
}

; Function Attrs: nounwind
declare void @_ZN4base8internal12CallbackBaseD2Ev(%"class.base::internal::CallbackBase"*) unnamed_addr #2

declare %"class.base::HistogramBase"* @_ZN4base16BooleanHistogram10FactoryGetEPKci(i8*, i32) local_unnamed_addr #1

declare void @_ZN4base13HistogramBase10AddBooleanEb(%"class.base::HistogramBase"*, i1 zeroext) local_unnamed_addr #1

; Function Attrs: nounwind ssp uwtable
define hidden void @_ZN6syncer17SyncServiceCrypto29TrustedVaultKeysMarkedAsStaleEbb(%"class.syncer::SyncServiceCrypto"*, i1 zeroext, i1 zeroext) #0 align 2 {
  %4 = getelementptr inbounds %"class.syncer::SyncServiceCrypto", %"class.syncer::SyncServiceCrypto"* %0, i64 0, i32 5, i32 2
  %5 = load i32, i32* %4, align 8
  switch i32 %5, label %31 [
    i32 3, label %6
    i32 5, label %6
  ]

6:                                                ; preds = %3, %3
  %7 = xor i1 %2, true
  %8 = or i1 %7, %1
  br i1 %8, label %9, label %30

9:                                                ; preds = %6
  %10 = getelementptr inbounds %"class.syncer::SyncServiceCrypto", %"class.syncer::SyncServiceCrypto"* %0, i64 0, i32 5, i32 13
  %11 = load i8, i8* %10, align 8, !range !4
  %12 = icmp eq i8 %11, 0
  br i1 %12, label %14, label %13

13:                                               ; preds = %9
  tail call void @_ZN6syncer17SyncServiceCrypto21FetchTrustedVaultKeysEb(%"class.syncer::SyncServiceCrypto"* %0, i1 zeroext false) #11
  br label %31

14:                                               ; preds = %9
  %15 = icmp eq i32 %5, 4
  br i1 %15, label %23, label %16

16:                                               ; preds = %14
  store i32 4, i32* %4, align 8
  %17 = getelementptr inbounds %"class.syncer::SyncServiceCrypto", %"class.syncer::SyncServiceCrypto"* %0, i64 0, i32 3
  %18 = load %"class.syncer::SyncServiceCrypto::Delegate"*, %"class.syncer::SyncServiceCrypto::Delegate"** %17, align 8
  %19 = bitcast %"class.syncer::SyncServiceCrypto::Delegate"* %18 to void (%"class.syncer::SyncServiceCrypto::Delegate"*)***
  %20 = load void (%"class.syncer::SyncServiceCrypto::Delegate"*)**, void (%"class.syncer::SyncServiceCrypto::Delegate"*)*** %19, align 8
  %21 = getelementptr inbounds void (%"class.syncer::SyncServiceCrypto::Delegate"*)*, void (%"class.syncer::SyncServiceCrypto::Delegate"*)** %20, i64 3
  %22 = load void (%"class.syncer::SyncServiceCrypto::Delegate"*)*, void (%"class.syncer::SyncServiceCrypto::Delegate"*)** %21, align 8
  tail call void %22(%"class.syncer::SyncServiceCrypto::Delegate"* %18) #11
  tail call void @_ZN6syncer17SyncServiceCrypto31RefreshIsRecoverabilityDegradedEv(%"class.syncer::SyncServiceCrypto"* %0) #11
  br label %23

23:                                               ; preds = %16, %14
  %24 = getelementptr inbounds %"class.syncer::SyncServiceCrypto", %"class.syncer::SyncServiceCrypto"* %0, i64 0, i32 3
  %25 = load %"class.syncer::SyncServiceCrypto::Delegate"*, %"class.syncer::SyncServiceCrypto::Delegate"** %24, align 8
  %26 = bitcast %"class.syncer::SyncServiceCrypto::Delegate"* %25 to void (%"class.syncer::SyncServiceCrypto::Delegate"*)***
  %27 = load void (%"class.syncer::SyncServiceCrypto::Delegate"*)**, void (%"class.syncer::SyncServiceCrypto::Delegate"*)*** %26, align 8
  %28 = getelementptr inbounds void (%"class.syncer::SyncServiceCrypto::Delegate"*)*, void (%"class.syncer::SyncServiceCrypto::Delegate"*)** %27, i64 4
  %29 = load void (%"class.syncer::SyncServiceCrypto::Delegate"*)*, void (%"class.syncer::SyncServiceCrypto::Delegate"*)** %28, align 8
  tail call void %29(%"class.syncer::SyncServiceCrypto::Delegate"* %25) #11
  br label %31

30:                                               ; preds = %6
  tail call void @_ZN6syncer17SyncServiceCrypto21FetchTrustedVaultKeysEb(%"class.syncer::SyncServiceCrypto"* %0, i1 zeroext true)
  br label %31

31:                                               ; preds = %23, %13, %3, %30
  ret void
}

declare zeroext i1 @_ZN4base11FeatureList9IsEnabledERKNS_7FeatureE(%"struct.base::Feature"* dereferenceable(16)) local_unnamed_addr #1

; Function Attrs: nounwind ssp uwtable
define hidden void @_ZN6syncer17SyncServiceCrypto36GetIsRecoverabilityDegradedCompletedEb(%"class.syncer::SyncServiceCrypto"*, i1 zeroext) #0 align 2 {
  %3 = getelementptr inbounds %"class.syncer::SyncServiceCrypto", %"class.syncer::SyncServiceCrypto"* %0, i64 0, i32 5, i32 9
  %4 = load i32, i32* %3, align 8
  %5 = icmp eq i32 %4, 4
  br i1 %5, label %6, label %37

6:                                                ; preds = %2
  %7 = getelementptr inbounds %"class.syncer::SyncServiceCrypto", %"class.syncer::SyncServiceCrypto"* %0, i64 0, i32 5, i32 2
  %8 = load i32, i32* %7, align 8
  br i1 %1, label %9, label %23

9:                                                ; preds = %6
  %10 = icmp eq i32 %8, 1
  br i1 %10, label %11, label %37

11:                                               ; preds = %9
  store i32 6, i32* %7, align 8
  %12 = getelementptr inbounds %"class.syncer::SyncServiceCrypto", %"class.syncer::SyncServiceCrypto"* %0, i64 0, i32 3
  %13 = load %"class.syncer::SyncServiceCrypto::Delegate"*, %"class.syncer::SyncServiceCrypto::Delegate"** %12, align 8
  %14 = bitcast %"class.syncer::SyncServiceCrypto::Delegate"* %13 to void (%"class.syncer::SyncServiceCrypto::Delegate"*)***
  %15 = load void (%"class.syncer::SyncServiceCrypto::Delegate"*)**, void (%"class.syncer::SyncServiceCrypto::Delegate"*)*** %14, align 8
  %16 = getelementptr inbounds void (%"class.syncer::SyncServiceCrypto::Delegate"*)*, void (%"class.syncer::SyncServiceCrypto::Delegate"*)** %15, i64 3
  %17 = load void (%"class.syncer::SyncServiceCrypto::Delegate"*)*, void (%"class.syncer::SyncServiceCrypto::Delegate"*)** %16, align 8
  tail call void %17(%"class.syncer::SyncServiceCrypto::Delegate"* %13) #11
  tail call void @_ZN6syncer17SyncServiceCrypto31RefreshIsRecoverabilityDegradedEv(%"class.syncer::SyncServiceCrypto"* %0) #11
  %18 = load %"class.syncer::SyncServiceCrypto::Delegate"*, %"class.syncer::SyncServiceCrypto::Delegate"** %12, align 8
  %19 = bitcast %"class.syncer::SyncServiceCrypto::Delegate"* %18 to void (%"class.syncer::SyncServiceCrypto::Delegate"*)***
  %20 = load void (%"class.syncer::SyncServiceCrypto::Delegate"*)**, void (%"class.syncer::SyncServiceCrypto::Delegate"*)*** %19, align 8
  %21 = getelementptr inbounds void (%"class.syncer::SyncServiceCrypto::Delegate"*)*, void (%"class.syncer::SyncServiceCrypto::Delegate"*)** %20, i64 2
  %22 = load void (%"class.syncer::SyncServiceCrypto::Delegate"*)*, void (%"class.syncer::SyncServiceCrypto::Delegate"*)** %21, align 8
  tail call void %22(%"class.syncer::SyncServiceCrypto::Delegate"* %18) #11
  br label %37

23:                                               ; preds = %6
  %24 = icmp eq i32 %8, 6
  br i1 %24, label %25, label %37

25:                                               ; preds = %23
  store i32 1, i32* %7, align 8
  %26 = getelementptr inbounds %"class.syncer::SyncServiceCrypto", %"class.syncer::SyncServiceCrypto"* %0, i64 0, i32 3
  %27 = load %"class.syncer::SyncServiceCrypto::Delegate"*, %"class.syncer::SyncServiceCrypto::Delegate"** %26, align 8
  %28 = bitcast %"class.syncer::SyncServiceCrypto::Delegate"* %27 to void (%"class.syncer::SyncServiceCrypto::Delegate"*)***
  %29 = load void (%"class.syncer::SyncServiceCrypto::Delegate"*)**, void (%"class.syncer::SyncServiceCrypto::Delegate"*)*** %28, align 8
  %30 = getelementptr inbounds void (%"class.syncer::SyncServiceCrypto::Delegate"*)*, void (%"class.syncer::SyncServiceCrypto::Delegate"*)** %29, i64 3
  %31 = load void (%"class.syncer::SyncServiceCrypto::Delegate"*)*, void (%"class.syncer::SyncServiceCrypto::Delegate"*)** %30, align 8
  tail call void %31(%"class.syncer::SyncServiceCrypto::Delegate"* %27) #11
  tail call void @_ZN6syncer17SyncServiceCrypto31RefreshIsRecoverabilityDegradedEv(%"class.syncer::SyncServiceCrypto"* %0) #11
  %32 = load %"class.syncer::SyncServiceCrypto::Delegate"*, %"class.syncer::SyncServiceCrypto::Delegate"** %26, align 8
  %33 = bitcast %"class.syncer::SyncServiceCrypto::Delegate"* %32 to void (%"class.syncer::SyncServiceCrypto::Delegate"*)***
  %34 = load void (%"class.syncer::SyncServiceCrypto::Delegate"*)**, void (%"class.syncer::SyncServiceCrypto::Delegate"*)*** %33, align 8
  %35 = getelementptr inbounds void (%"class.syncer::SyncServiceCrypto::Delegate"*)*, void (%"class.syncer::SyncServiceCrypto::Delegate"*)** %34, i64 2
  %36 = load void (%"class.syncer::SyncServiceCrypto::Delegate"*)*, void (%"class.syncer::SyncServiceCrypto::Delegate"*)** %35, align 8
  tail call void %36(%"class.syncer::SyncServiceCrypto::Delegate"* %32) #11
  br label %37

37:                                               ; preds = %9, %11, %2, %25, %23
  ret void
}

declare void @_ZN7sync_pb13EncryptedDataC2EPN6google8protobuf5ArenaE(%"class.sync_pb::EncryptedData"*, %"class.google::protobuf::Arena"*) unnamed_addr #1

; Function Attrs: nounwind ssp uwtable
define linkonce_odr hidden void @_ZN6syncer21SyncEncryptionHandler8ObserverD2Ev(%"class.syncer::SyncEncryptionHandler::Observer"*) unnamed_addr #0 comdat align 2 {
  ret void
}

; Function Attrs: nounwind ssp uwtable
define linkonce_odr hidden void @_ZN6syncer21SyncEncryptionHandler8ObserverD0Ev(%"class.syncer::SyncEncryptionHandler::Observer"*) unnamed_addr #0 comdat align 2 {
  tail call void @llvm.trap() #13
  unreachable
}

declare void @__cxa_pure_virtual() unnamed_addr

; Function Attrs: cold noreturn nounwind
declare void @llvm.trap() #7

; Function Attrs: nounwind ssp uwtable
define linkonce_odr hidden void @_ZN6syncer25DataTypeEncryptionHandlerD2Ev(%"class.syncer::DataTypeEncryptionHandler"*) unnamed_addr #0 comdat align 2 {
  ret void
}

; Function Attrs: nounwind ssp uwtable
define linkonce_odr hidden void @_ZN6syncer25DataTypeEncryptionHandlerD0Ev(%"class.syncer::DataTypeEncryptionHandler"*) unnamed_addr #0 comdat align 2 {
  tail call void @llvm.trap() #13
  unreachable
}

declare void @_ZN4base15CheckedObserverC2Ev(%"class.base::CheckedObserver"*) unnamed_addr #1

; Function Attrs: nounwind
declare void @_ZN4base15CheckedObserverD2Ev(%"class.base::CheckedObserver"*) unnamed_addr #2

; Function Attrs: nofree nounwind
declare i32 @__cxa_guard_acquire(i64*) local_unnamed_addr #8

; Function Attrs: nofree nounwind
declare void @__cxa_guard_release(i64*) local_unnamed_addr #8

; Function Attrs: argmemonly nounwind
declare void @llvm.memset.p0i8.i64(i8* nocapture writeonly, i8, i64, i1 immarg) #4

; Function Attrs: nounwind ssp uwtable
define linkonce_odr hidden void @_ZN6syncer18TrustedVaultClientD2Ev(%"class.syncer::TrustedVaultClient"*) unnamed_addr #0 comdat align 2 {
  ret void
}

; Function Attrs: nounwind ssp uwtable
define internal void @_ZN6syncer12_GLOBAL__N_123EmptyTrustedVaultClientD0Ev(%"class.syncer::(anonymous namespace)::EmptyTrustedVaultClient"*) unnamed_addr #0 align 2 {
  %2 = bitcast %"class.syncer::(anonymous namespace)::EmptyTrustedVaultClient"* %0 to i8*
  tail call void @_ZdlPv(i8* %2) #12
  ret void
}

; Function Attrs: norecurse nounwind readnone ssp uwtable
define internal void @_ZN6syncer12_GLOBAL__N_123EmptyTrustedVaultClient11AddObserverEPNS_18TrustedVaultClient8ObserverE(%"class.syncer::(anonymous namespace)::EmptyTrustedVaultClient"* nocapture, %"class.syncer::TrustedVaultClient::Observer"* nocapture) unnamed_addr #6 align 2 {
  ret void
}

; Function Attrs: norecurse nounwind readnone ssp uwtable
define internal void @_ZN6syncer12_GLOBAL__N_123EmptyTrustedVaultClient14RemoveObserverEPNS_18TrustedVaultClient8ObserverE(%"class.syncer::(anonymous namespace)::EmptyTrustedVaultClient"* nocapture, %"class.syncer::TrustedVaultClient::Observer"* nocapture) unnamed_addr #6 align 2 {
  ret void
}

; Function Attrs: nounwind ssp uwtable
define internal void @_ZN6syncer12_GLOBAL__N_123EmptyTrustedVaultClient9FetchKeysERK15CoreAccountInfoN4base12OnceCallbackIFvRKNSt3__16vectorINS8_IhNS7_9allocatorIhEEEENS9_ISB_EEEEEEE(%"class.syncer::(anonymous namespace)::EmptyTrustedVaultClient"* nocapture readnone, %struct.CoreAccountInfo* nocapture readnone dereferenceable(80), %"class.base::OnceCallback"* nocapture) unnamed_addr #0 align 2 {
  %4 = alloca %"class.base::OnceCallback", align 8
  %5 = alloca %"class.std::__1::vector", align 8
  %6 = bitcast %"class.std::__1::vector"* %5 to i8*
  call void @llvm.lifetime.start.p0i8(i64 24, i8* nonnull %6) #11
  call void @llvm.memset.p0i8.i64(i8* nonnull align 8 %6, i8 0, i64 24, i1 false) #11
  %7 = bitcast %"class.base::OnceCallback"* %4 to i8*
  call void @llvm.lifetime.start.p0i8(i64 8, i8* nonnull %7) #11
  %8 = getelementptr inbounds %"class.base::OnceCallback", %"class.base::OnceCallback"* %2, i64 0, i32 0, i32 0, i32 0
  %9 = bitcast %"class.base::OnceCallback"* %2 to i64*
  %10 = load i64, i64* %9, align 8
  %11 = bitcast %"class.base::OnceCallback"* %4 to i64*
  store i64 %10, i64* %11, align 8
  store %"class.base::internal::BindStateBase"* null, %"class.base::internal::BindStateBase"** %8, align 8
  %12 = getelementptr inbounds %"class.base::OnceCallback", %"class.base::OnceCallback"* %4, i64 0, i32 0
  %13 = inttoptr i64 %10 to %"class.base::internal::BindStateBase"*
  %14 = getelementptr inbounds %"class.base::internal::BindStateBase", %"class.base::internal::BindStateBase"* %13, i64 0, i32 1
  %15 = bitcast void ()** %14 to void (%"class.base::internal::BindStateBase"*, %"class.std::__1::vector"*)**
  %16 = load void (%"class.base::internal::BindStateBase"*, %"class.std::__1::vector"*)*, void (%"class.base::internal::BindStateBase"*, %"class.std::__1::vector"*)** %15, align 8
  call void %16(%"class.base::internal::BindStateBase"* %13, %"class.std::__1::vector"* nonnull dereferenceable(24) %5) #11
  call void @_ZN4base8internal12CallbackBaseD2Ev(%"class.base::internal::CallbackBase"* nonnull %12) #11
  call void @llvm.lifetime.end.p0i8(i64 8, i8* nonnull %7) #11
  %17 = getelementptr inbounds %"class.std::__1::vector", %"class.std::__1::vector"* %5, i64 0, i32 0, i32 0
  %18 = load %"class.std::__1::vector.33"*, %"class.std::__1::vector.33"** %17, align 8
  %19 = icmp eq %"class.std::__1::vector.33"* %18, null
  br i1 %19, label %42, label %20

20:                                               ; preds = %3
  %21 = bitcast %"class.std::__1::vector.33"* %18 to i8*
  %22 = getelementptr inbounds %"class.std::__1::vector", %"class.std::__1::vector"* %5, i64 0, i32 0, i32 1
  %23 = load %"class.std::__1::vector.33"*, %"class.std::__1::vector.33"** %22, align 8
  %24 = icmp eq %"class.std::__1::vector.33"* %23, %18
  br i1 %24, label %40, label %25

25:                                               ; preds = %20, %35
  %26 = phi %"class.std::__1::vector.33"* [ %27, %35 ], [ %23, %20 ]
  %27 = getelementptr inbounds %"class.std::__1::vector.33", %"class.std::__1::vector.33"* %26, i64 -1
  %28 = getelementptr inbounds %"class.std::__1::vector.33", %"class.std::__1::vector.33"* %27, i64 0, i32 0, i32 0
  %29 = load i8*, i8** %28, align 8
  %30 = icmp eq i8* %29, null
  br i1 %30, label %35, label %31

31:                                               ; preds = %25
  %32 = ptrtoint i8* %29 to i64
  %33 = getelementptr inbounds %"class.std::__1::vector.33", %"class.std::__1::vector.33"* %26, i64 -1, i32 0, i32 1
  %34 = bitcast i8** %33 to i64*
  store i64 %32, i64* %34, align 8
  call void @_ZdlPv(i8* nonnull %29) #12
  br label %35

35:                                               ; preds = %31, %25
  %36 = icmp eq %"class.std::__1::vector.33"* %27, %18
  br i1 %36, label %37, label %25

37:                                               ; preds = %35
  %38 = bitcast %"class.std::__1::vector"* %5 to i8**
  %39 = load i8*, i8** %38, align 8
  br label %40

40:                                               ; preds = %37, %20
  %41 = phi i8* [ %39, %37 ], [ %21, %20 ]
  store %"class.std::__1::vector.33"* %18, %"class.std::__1::vector.33"** %22, align 8
  call void @_ZdlPv(i8* %41) #12
  br label %42

42:                                               ; preds = %3, %40
  call void @llvm.lifetime.end.p0i8(i64 24, i8* nonnull %6) #11
  ret void
}

; Function Attrs: nounwind ssp uwtable
define internal void @_ZN6syncer12_GLOBAL__N_123EmptyTrustedVaultClient15MarkKeysAsStaleERK15CoreAccountInfoN4base12OnceCallbackIFvbEEE(%"class.syncer::(anonymous namespace)::EmptyTrustedVaultClient"* nocapture readnone, %struct.CoreAccountInfo* nocapture readnone dereferenceable(80), %"class.base::OnceCallback.46"* nocapture) unnamed_addr #0 align 2 {
  %4 = alloca %"class.base::OnceCallback.46", align 8
  %5 = bitcast %"class.base::OnceCallback.46"* %4 to i8*
  call void @llvm.lifetime.start.p0i8(i64 8, i8* nonnull %5) #11
  %6 = getelementptr inbounds %"class.base::OnceCallback.46", %"class.base::OnceCallback.46"* %2, i64 0, i32 0, i32 0, i32 0
  %7 = bitcast %"class.base::OnceCallback.46"* %2 to i64*
  %8 = load i64, i64* %7, align 8
  %9 = bitcast %"class.base::OnceCallback.46"* %4 to i64*
  store i64 %8, i64* %9, align 8
  store %"class.base::internal::BindStateBase"* null, %"class.base::internal::BindStateBase"** %6, align 8
  %10 = getelementptr inbounds %"class.base::OnceCallback.46", %"class.base::OnceCallback.46"* %4, i64 0, i32 0
  %11 = inttoptr i64 %8 to %"class.base::internal::BindStateBase"*
  %12 = getelementptr inbounds %"class.base::internal::BindStateBase", %"class.base::internal::BindStateBase"* %11, i64 0, i32 1
  %13 = bitcast void ()** %12 to void (%"class.base::internal::BindStateBase"*, i1)**
  %14 = load void (%"class.base::internal::BindStateBase"*, i1)*, void (%"class.base::internal::BindStateBase"*, i1)** %13, align 8
  tail call void %14(%"class.base::internal::BindStateBase"* %11, i1 zeroext false) #11
  call void @_ZN4base8internal12CallbackBaseD2Ev(%"class.base::internal::CallbackBase"* nonnull %10) #11
  call void @llvm.lifetime.end.p0i8(i64 8, i8* nonnull %5) #11
  ret void
}

; Function Attrs: norecurse nounwind readnone ssp uwtable
define internal void @_ZN6syncer12_GLOBAL__N_123EmptyTrustedVaultClient9StoreKeysERKNSt3__112basic_stringIcNS2_11char_traitsIcEENS2_9allocatorIcEEEERKNS2_6vectorINSB_IhNS6_IhEEEENS6_ISD_EEEEi(%"class.syncer::(anonymous namespace)::EmptyTrustedVaultClient"* nocapture, %"class.std::__1::basic_string"* nocapture dereferenceable(24), %"class.std::__1::vector"* nocapture dereferenceable(24), i32) unnamed_addr #6 align 2 {
  ret void
}

; Function Attrs: norecurse nounwind readnone ssp uwtable
define internal void @_ZN6syncer12_GLOBAL__N_123EmptyTrustedVaultClient19RemoveAllStoredKeysEv(%"class.syncer::(anonymous namespace)::EmptyTrustedVaultClient"* nocapture) unnamed_addr #6 align 2 {
  ret void
}

; Function Attrs: nounwind ssp uwtable
define internal void @_ZN6syncer12_GLOBAL__N_123EmptyTrustedVaultClient27GetIsRecoverabilityDegradedERK15CoreAccountInfoN4base12OnceCallbackIFvbEEE(%"class.syncer::(anonymous namespace)::EmptyTrustedVaultClient"* nocapture readnone, %struct.CoreAccountInfo* nocapture readnone dereferenceable(80), %"class.base::OnceCallback.46"* nocapture) unnamed_addr #0 align 2 {
  %4 = alloca %"class.base::OnceCallback.46", align 8
  %5 = bitcast %"class.base::OnceCallback.46"* %4 to i8*
  call void @llvm.lifetime.start.p0i8(i64 8, i8* nonnull %5) #11
  %6 = getelementptr inbounds %"class.base::OnceCallback.46", %"class.base::OnceCallback.46"* %2, i64 0, i32 0, i32 0, i32 0
  %7 = bitcast %"class.base::OnceCallback.46"* %2 to i64*
  %8 = load i64, i64* %7, align 8
  %9 = bitcast %"class.base::OnceCallback.46"* %4 to i64*
  store i64 %8, i64* %9, align 8
  store %"class.base::internal::BindStateBase"* null, %"class.base::internal::BindStateBase"** %6, align 8
  %10 = getelementptr inbounds %"class.base::OnceCallback.46", %"class.base::OnceCallback.46"* %4, i64 0, i32 0
  %11 = inttoptr i64 %8 to %"class.base::internal::BindStateBase"*
  %12 = getelementptr inbounds %"class.base::internal::BindStateBase", %"class.base::internal::BindStateBase"* %11, i64 0, i32 1
  %13 = bitcast void ()** %12 to void (%"class.base::internal::BindStateBase"*, i1)**
  %14 = load void (%"class.base::internal::BindStateBase"*, i1)*, void (%"class.base::internal::BindStateBase"*, i1)** %13, align 8
  tail call void %14(%"class.base::internal::BindStateBase"* %11, i1 zeroext false) #11
  call void @_ZN4base8internal12CallbackBaseD2Ev(%"class.base::internal::CallbackBase"* nonnull %10) #11
  call void @llvm.lifetime.end.p0i8(i64 8, i8* nonnull %5) #11
  ret void
}

; Function Attrs: norecurse nounwind readnone ssp uwtable
define internal void @_ZN6syncer12_GLOBAL__N_123EmptyTrustedVaultClient24AddTrustedRecoveryMethodERKNSt3__112basic_stringIcNS2_11char_traitsIcEENS2_9allocatorIcEEEERKNS2_6vectorIhNS6_IhEEEEiN4base12OnceCallbackIFvvEEE(%"class.syncer::(anonymous namespace)::EmptyTrustedVaultClient"* nocapture, %"class.std::__1::basic_string"* nocapture dereferenceable(24), %"class.std::__1::vector.33"* nocapture dereferenceable(24), i32, %"class.base::OnceCallback.45"* nocapture) unnamed_addr #6 align 2 {
  ret void
}

; Function Attrs: nounwind
declare dereferenceable(80) %struct.CoreAccountInfo* @_ZN15CoreAccountInfoaSEOS_(%struct.CoreAccountInfo*, %struct.CoreAccountInfo* dereferenceable(80)) local_unnamed_addr #2

declare void @_ZN7sync_pb13EncryptedData12InternalSwapEPS0_(%"class.sync_pb::EncryptedData"*, %"class.sync_pb::EncryptedData"*) local_unnamed_addr #1

declare void @_ZN7sync_pb13EncryptedData8CopyFromERKS0_(%"class.sync_pb::EncryptedData"*, %"class.sync_pb::EncryptedData"* dereferenceable(40)) local_unnamed_addr #1

declare %"class.syncer::Nigori"* @_ZN6syncer6Nigori18CreateByDerivationERKNS_19KeyDerivationParamsERKNSt3__112basic_stringIcNS4_11char_traitsIcEENS4_9allocatorIcEEEE(%"class.syncer::KeyDerivationParams"* dereferenceable(32), %"class.std::__1::basic_string"* dereferenceable(24)) local_unnamed_addr #1

declare zeroext i1 @_ZNK6syncer6Nigori7DecryptERKNSt3__112basic_stringIcNS1_11char_traitsIcEENS1_9allocatorIcEEEEPS7_(%"class.syncer::Nigori"*, %"class.std::__1::basic_string"* dereferenceable(24), %"class.std::__1::basic_string"*) local_unnamed_addr #1

declare void @_ZN4base8internal18WeakPtrFactoryBaseC2Em(%"class.base::internal::WeakPtrFactoryBase"*, i64) unnamed_addr #1

declare void @_ZNK4base8internal18WeakReferenceOwner6GetRefEv(%"class.base::internal::WeakReference"* sret, %"class.base::internal::WeakReferenceOwner"*) local_unnamed_addr #1

; Function Attrs: nounwind
declare void @_ZN4base8internal13WeakReferenceD1Ev(%"class.base::internal::WeakReference"*) unnamed_addr #2

declare void @_ZN4base8internal11WeakPtrBaseC2ERKNS0_13WeakReferenceEm(%"class.base::internal::WeakPtrBase"*, %"class.base::internal::WeakReference"* dereferenceable(8), i64) unnamed_addr #1

; Function Attrs: nobuiltin nofree
declare noalias nonnull i8* @_Znwm(i64) local_unnamed_addr #9

; Function Attrs: nounwind
declare void @_ZN4base8internal13WeakReferenceC1EOS1_(%"class.base::internal::WeakReference"*, %"class.base::internal::WeakReference"* dereferenceable(8)) unnamed_addr #2

; Function Attrs: inlinehint nounwind ssp uwtable
define internal void @_ZN6syncer12_GLOBAL__N_127SyncEncryptionObserverProxyD2Ev(%"class.syncer::(anonymous namespace)::SyncEncryptionObserverProxy"*) unnamed_addr #10 align 2 {
  %2 = getelementptr inbounds %"class.syncer::(anonymous namespace)::SyncEncryptionObserverProxy", %"class.syncer::(anonymous namespace)::SyncEncryptionObserverProxy"* %0, i64 0, i32 0, i32 0
  store i32 (...)** bitcast (i8** getelementptr inbounds ({ [12 x i8*] }, { [12 x i8*] }* @_ZTVN6syncer12_GLOBAL__N_127SyncEncryptionObserverProxyE, i64 0, inrange i32 0, i64 2) to i32 (...)**), i32 (...)*** %2, align 8
  %3 = getelementptr inbounds %"class.syncer::(anonymous namespace)::SyncEncryptionObserverProxy", %"class.syncer::(anonymous namespace)::SyncEncryptionObserverProxy"* %0, i64 0, i32 2, i32 0
  %4 = load %"class.base::SequencedTaskRunner"*, %"class.base::SequencedTaskRunner"** %3, align 8
  %5 = icmp eq %"class.base::SequencedTaskRunner"* %4, null
  br i1 %5, label %14, label %6

6:                                                ; preds = %1
  %7 = getelementptr inbounds %"class.base::SequencedTaskRunner", %"class.base::SequencedTaskRunner"* %4, i64 0, i32 0, i32 1
  %8 = getelementptr inbounds %"class.base::RefCountedThreadSafe.16", %"class.base::RefCountedThreadSafe.16"* %7, i64 0, i32 0, i32 0, i32 0, i32 0, i32 0, i32 0, i32 0, i32 0
  %9 = atomicrmw sub i32* %8, i32 1 acq_rel
  %10 = icmp eq i32 %9, 1
  br i1 %10, label %11, label %14

11:                                               ; preds = %6
  %12 = getelementptr inbounds %"class.base::RefCountedThreadSafe.16", %"class.base::RefCountedThreadSafe.16"* %7, i64 -2
  %13 = bitcast %"class.base::RefCountedThreadSafe.16"* %12 to %"class.base::TaskRunner"*
  tail call void @_ZN4base16TaskRunnerTraits8DestructEPKNS_10TaskRunnerE(%"class.base::TaskRunner"* %13) #11
  br label %14

14:                                               ; preds = %1, %6, %11
  %15 = getelementptr inbounds %"class.syncer::(anonymous namespace)::SyncEncryptionObserverProxy", %"class.syncer::(anonymous namespace)::SyncEncryptionObserverProxy"* %0, i64 0, i32 1, i32 0
  tail call void @_ZN4base8internal11WeakPtrBaseD2Ev(%"class.base::internal::WeakPtrBase"* %15) #11
  ret void
}

; Function Attrs: inlinehint nounwind ssp uwtable
define internal void @_ZN6syncer12_GLOBAL__N_127SyncEncryptionObserverProxyD0Ev(%"class.syncer::(anonymous namespace)::SyncEncryptionObserverProxy"*) unnamed_addr #10 align 2 {
  %2 = getelementptr inbounds %"class.syncer::(anonymous namespace)::SyncEncryptionObserverProxy", %"class.syncer::(anonymous namespace)::SyncEncryptionObserverProxy"* %0, i64 0, i32 0, i32 0
  store i32 (...)** bitcast (i8** getelementptr inbounds ({ [12 x i8*] }, { [12 x i8*] }* @_ZTVN6syncer12_GLOBAL__N_127SyncEncryptionObserverProxyE, i64 0, inrange i32 0, i64 2) to i32 (...)**), i32 (...)*** %2, align 8
  %3 = getelementptr inbounds %"class.syncer::(anonymous namespace)::SyncEncryptionObserverProxy", %"class.syncer::(anonymous namespace)::SyncEncryptionObserverProxy"* %0, i64 0, i32 2, i32 0
  %4 = load %"class.base::SequencedTaskRunner"*, %"class.base::SequencedTaskRunner"** %3, align 8
  %5 = icmp eq %"class.base::SequencedTaskRunner"* %4, null
  br i1 %5, label %14, label %6

6:                                                ; preds = %1
  %7 = getelementptr inbounds %"class.base::SequencedTaskRunner", %"class.base::SequencedTaskRunner"* %4, i64 0, i32 0, i32 1
  %8 = getelementptr inbounds %"class.base::RefCountedThreadSafe.16", %"class.base::RefCountedThreadSafe.16"* %7, i64 0, i32 0, i32 0, i32 0, i32 0, i32 0, i32 0, i32 0, i32 0
  %9 = atomicrmw sub i32* %8, i32 1 acq_rel
  %10 = icmp eq i32 %9, 1
  br i1 %10, label %11, label %14

11:                                               ; preds = %6
  %12 = getelementptr inbounds %"class.base::RefCountedThreadSafe.16", %"class.base::RefCountedThreadSafe.16"* %7, i64 -2
  %13 = bitcast %"class.base::RefCountedThreadSafe.16"* %12 to %"class.base::TaskRunner"*
  tail call void @_ZN4base16TaskRunnerTraits8DestructEPKNS_10TaskRunnerE(%"class.base::TaskRunner"* %13) #11
  br label %14

14:                                               ; preds = %1, %6, %11
  %15 = getelementptr inbounds %"class.syncer::(anonymous namespace)::SyncEncryptionObserverProxy", %"class.syncer::(anonymous namespace)::SyncEncryptionObserverProxy"* %0, i64 0, i32 1, i32 0
  tail call void @_ZN4base8internal11WeakPtrBaseD2Ev(%"class.base::internal::WeakPtrBase"* %15) #11
  %16 = bitcast %"class.syncer::(anonymous namespace)::SyncEncryptionObserverProxy"* %0 to i8*
  tail call void @_ZdlPv(i8* %16) #12
  ret void
}

; Function Attrs: nounwind ssp uwtable
define internal void @_ZN6syncer12_GLOBAL__N_127SyncEncryptionObserverProxy20OnPassphraseRequiredERKNS_19KeyDerivationParamsERKN7sync_pb13EncryptedDataE(%"class.syncer::(anonymous namespace)::SyncEncryptionObserverProxy"*, %"class.syncer::KeyDerivationParams"* dereferenceable(32), %"class.sync_pb::EncryptedData"* dereferenceable(40)) unnamed_addr #0 align 2 {
  %4 = alloca %"class.base::Location", align 8
  %5 = alloca %"class.base::OnceCallback.45", align 8
  %6 = getelementptr inbounds %"class.syncer::(anonymous namespace)::SyncEncryptionObserverProxy", %"class.syncer::(anonymous namespace)::SyncEncryptionObserverProxy"* %0, i64 0, i32 2, i32 0
  %7 = bitcast %"class.base::SequencedTaskRunner"** %6 to %"class.base::TaskRunner"**
  %8 = load %"class.base::TaskRunner"*, %"class.base::TaskRunner"** %7, align 8
  %9 = bitcast %"class.base::Location"* %4 to i8*
  call void @llvm.lifetime.start.p0i8(i64 32, i8* nonnull %9) #11
  call void @_ZN4base8Location7CurrentEPKcS2_i(%"class.base::Location"* nonnull sret %4, i8* getelementptr inbounds ([21 x i8], [21 x i8]* @.str.3, i64 0, i64 0), i8* getelementptr inbounds ([52 x i8], [52 x i8]* @.str.4, i64 0, i64 0), i32 95) #11
  %10 = call i8* @_Znwm(i64 136) #12, !noalias !40
  %11 = bitcast i8* %10 to %"class.base::internal::BindStateBase"*
  call void @_ZN4base8internal13BindStateBaseC2EPFvvEPFvPKS1_EPFbS5_NS1_21CancellationQueryModeEE(%"class.base::internal::BindStateBase"* nonnull %11, void ()* bitcast (void (%"class.base::internal::BindStateBase"*)* @_ZN4base8internal7InvokerINS0_9BindStateIMN6syncer21SyncEncryptionHandler8ObserverEFvRKNS3_19KeyDerivationParamsERKN7sync_pb13EncryptedDataEEJNS_7WeakPtrIS5_EES6_SA_EEEFvvEE7RunOnceEPNS0_13BindStateBaseE to void ()*), void (%"class.base::internal::BindStateBase"*)* nonnull @_ZN4base8internal9BindStateIMN6syncer21SyncEncryptionHandler8ObserverEFvRKNS2_19KeyDerivationParamsERKN7sync_pb13EncryptedDataEEJNS_7WeakPtrIS4_EES5_S9_EE7DestroyEPKNS0_13BindStateBaseE, i1 (%"class.base::internal::BindStateBase"*, i32)* nonnull @_ZN4base8internal23QueryCancellationTraitsINS0_9BindStateIMN6syncer21SyncEncryptionHandler8ObserverEFvRKNS3_19KeyDerivationParamsERKN7sync_pb13EncryptedDataEEJNS_7WeakPtrIS5_EES6_SA_EEEEEbPKNS0_13BindStateBaseENSI_21CancellationQueryModeE) #11, !noalias !40
  %12 = getelementptr inbounds i8, i8* %10, i64 32
  %13 = bitcast i8* %12 to <2 x i64>*
  store <2 x i64> <i64 17, i64 0>, <2 x i64>* %13, align 8, !noalias !40
  %14 = getelementptr inbounds i8, i8* %10, i64 48
  %15 = bitcast i8* %14 to %"class.base::internal::WeakReference"*
  %16 = getelementptr inbounds %"class.syncer::(anonymous namespace)::SyncEncryptionObserverProxy", %"class.syncer::(anonymous namespace)::SyncEncryptionObserverProxy"* %0, i64 0, i32 1, i32 0, i32 0
  call void @_ZN4base8internal13WeakReferenceC1ERKS1_(%"class.base::internal::WeakReference"* %15, %"class.base::internal::WeakReference"* dereferenceable(8) %16) #11, !noalias !40
  %17 = getelementptr inbounds i8, i8* %10, i64 56
  %18 = bitcast i8* %17 to i64*
  %19 = getelementptr inbounds %"class.syncer::(anonymous namespace)::SyncEncryptionObserverProxy", %"class.syncer::(anonymous namespace)::SyncEncryptionObserverProxy"* %0, i64 0, i32 1, i32 0, i32 1
  %20 = load i64, i64* %19, align 8, !noalias !40
  store i64 %20, i64* %18, align 8, !noalias !40
  %21 = getelementptr inbounds i8, i8* %10, i64 64
  %22 = bitcast i8* %21 to %"class.syncer::KeyDerivationParams"*
  call void @_ZN6syncer19KeyDerivationParamsC1ERKS0_(%"class.syncer::KeyDerivationParams"* %22, %"class.syncer::KeyDerivationParams"* dereferenceable(32) %1) #11, !noalias !40
  %23 = getelementptr inbounds i8, i8* %10, i64 96
  %24 = bitcast i8* %23 to %"class.sync_pb::EncryptedData"*
  call void @_ZN7sync_pb13EncryptedDataC1ERKS0_(%"class.sync_pb::EncryptedData"* %24, %"class.sync_pb::EncryptedData"* dereferenceable(40) %2) #11, !noalias !40
  %25 = bitcast %"class.base::OnceCallback.45"* %5 to i8**
  store i8* %10, i8** %25, align 8, !alias.scope !40
  %26 = call zeroext i1 @_ZN4base10TaskRunner8PostTaskERKNS_8LocationENS_12OnceCallbackIFvvEEE(%"class.base::TaskRunner"* %8, %"class.base::Location"* nonnull dereferenceable(32) %4, %"class.base::OnceCallback.45"* nonnull %5) #11
  %27 = getelementptr inbounds %"class.base::OnceCallback.45", %"class.base::OnceCallback.45"* %5, i64 0, i32 0
  call void @_ZN4base8internal12CallbackBaseD2Ev(%"class.base::internal::CallbackBase"* nonnull %27) #11
  call void @llvm.lifetime.end.p0i8(i64 32, i8* nonnull %9) #11
  ret void
}

; Function Attrs: nounwind ssp uwtable
define internal void @_ZN6syncer12_GLOBAL__N_127SyncEncryptionObserverProxy20OnPassphraseAcceptedEv(%"class.syncer::(anonymous namespace)::SyncEncryptionObserverProxy"*) unnamed_addr #0 align 2 {
  %2 = alloca %"class.base::Location", align 8
  %3 = alloca %"class.base::OnceCallback.45", align 8
  %4 = getelementptr inbounds %"class.syncer::(anonymous namespace)::SyncEncryptionObserverProxy", %"class.syncer::(anonymous namespace)::SyncEncryptionObserverProxy"* %0, i64 0, i32 2, i32 0
  %5 = bitcast %"class.base::SequencedTaskRunner"** %4 to %"class.base::TaskRunner"**
  %6 = load %"class.base::TaskRunner"*, %"class.base::TaskRunner"** %5, align 8
  %7 = bitcast %"class.base::Location"* %2 to i8*
  call void @llvm.lifetime.start.p0i8(i64 32, i8* nonnull %7) #11
  call void @_ZN4base8Location7CurrentEPKcS2_i(%"class.base::Location"* nonnull sret %2, i8* getelementptr inbounds ([21 x i8], [21 x i8]* @.str.7, i64 0, i64 0), i8* getelementptr inbounds ([52 x i8], [52 x i8]* @.str.4, i64 0, i64 0), i32 102) #11
  %8 = call i8* @_Znwm(i64 64) #12, !noalias !45
  %9 = bitcast i8* %8 to %"class.base::internal::BindStateBase"*
  call void @_ZN4base8internal13BindStateBaseC2EPFvvEPFvPKS1_EPFbS5_NS1_21CancellationQueryModeEE(%"class.base::internal::BindStateBase"* nonnull %9, void ()* bitcast (void (%"class.base::internal::BindStateBase"*)* @_ZN4base8internal7InvokerINS0_9BindStateIMN6syncer21SyncEncryptionHandler8ObserverEFvvEJNS_7WeakPtrIS5_EEEEEFvvEE7RunOnceEPNS0_13BindStateBaseE to void ()*), void (%"class.base::internal::BindStateBase"*)* nonnull @_ZN4base8internal9BindStateIMN6syncer21SyncEncryptionHandler8ObserverEFvvEJNS_7WeakPtrIS4_EEEE7DestroyEPKNS0_13BindStateBaseE, i1 (%"class.base::internal::BindStateBase"*, i32)* nonnull @_ZN4base8internal23QueryCancellationTraitsINS0_9BindStateIMN6syncer21SyncEncryptionHandler8ObserverEFvvEJNS_7WeakPtrIS5_EEEEEEEbPKNS0_13BindStateBaseENSB_21CancellationQueryModeE) #11, !noalias !45
  %10 = getelementptr inbounds i8, i8* %8, i64 32
  %11 = bitcast i8* %10 to <2 x i64>*
  store <2 x i64> <i64 25, i64 0>, <2 x i64>* %11, align 8, !noalias !45
  %12 = getelementptr inbounds i8, i8* %8, i64 48
  %13 = bitcast i8* %12 to %"class.base::internal::WeakReference"*
  %14 = getelementptr inbounds %"class.syncer::(anonymous namespace)::SyncEncryptionObserverProxy", %"class.syncer::(anonymous namespace)::SyncEncryptionObserverProxy"* %0, i64 0, i32 1, i32 0, i32 0
  call void @_ZN4base8internal13WeakReferenceC1ERKS1_(%"class.base::internal::WeakReference"* %13, %"class.base::internal::WeakReference"* dereferenceable(8) %14) #11, !noalias !45
  %15 = getelementptr inbounds i8, i8* %8, i64 56
  %16 = bitcast i8* %15 to i64*
  %17 = getelementptr inbounds %"class.syncer::(anonymous namespace)::SyncEncryptionObserverProxy", %"class.syncer::(anonymous namespace)::SyncEncryptionObserverProxy"* %0, i64 0, i32 1, i32 0, i32 1
  %18 = load i64, i64* %17, align 8, !noalias !45
  store i64 %18, i64* %16, align 8, !noalias !45
  %19 = bitcast %"class.base::OnceCallback.45"* %3 to i8**
  store i8* %8, i8** %19, align 8, !alias.scope !45
  %20 = call zeroext i1 @_ZN4base10TaskRunner8PostTaskERKNS_8LocationENS_12OnceCallbackIFvvEEE(%"class.base::TaskRunner"* %6, %"class.base::Location"* nonnull dereferenceable(32) %2, %"class.base::OnceCallback.45"* nonnull %3) #11
  %21 = getelementptr inbounds %"class.base::OnceCallback.45", %"class.base::OnceCallback.45"* %3, i64 0, i32 0
  call void @_ZN4base8internal12CallbackBaseD2Ev(%"class.base::internal::CallbackBase"* nonnull %21) #11
  call void @llvm.lifetime.end.p0i8(i64 32, i8* nonnull %7) #11
  ret void
}

; Function Attrs: nounwind ssp uwtable
define internal void @_ZN6syncer12_GLOBAL__N_127SyncEncryptionObserverProxy25OnTrustedVaultKeyRequiredEv(%"class.syncer::(anonymous namespace)::SyncEncryptionObserverProxy"*) unnamed_addr #0 align 2 {
  %2 = alloca %"class.base::Location", align 8
  %3 = alloca %"class.base::OnceCallback.45", align 8
  %4 = getelementptr inbounds %"class.syncer::(anonymous namespace)::SyncEncryptionObserverProxy", %"class.syncer::(anonymous namespace)::SyncEncryptionObserverProxy"* %0, i64 0, i32 2, i32 0
  %5 = bitcast %"class.base::SequencedTaskRunner"** %4 to %"class.base::TaskRunner"**
  %6 = load %"class.base::TaskRunner"*, %"class.base::TaskRunner"** %5, align 8
  %7 = bitcast %"class.base::Location"* %2 to i8*
  call void @llvm.lifetime.start.p0i8(i64 32, i8* nonnull %7) #11
  call void @_ZN4base8Location7CurrentEPKcS2_i(%"class.base::Location"* nonnull sret %2, i8* getelementptr inbounds ([26 x i8], [26 x i8]* @.str.8, i64 0, i64 0), i8* getelementptr inbounds ([52 x i8], [52 x i8]* @.str.4, i64 0, i64 0), i32 109) #11
  %8 = call i8* @_Znwm(i64 64) #12, !noalias !50
  %9 = bitcast i8* %8 to %"class.base::internal::BindStateBase"*
  call void @_ZN4base8internal13BindStateBaseC2EPFvvEPFvPKS1_EPFbS5_NS1_21CancellationQueryModeEE(%"class.base::internal::BindStateBase"* nonnull %9, void ()* bitcast (void (%"class.base::internal::BindStateBase"*)* @_ZN4base8internal7InvokerINS0_9BindStateIMN6syncer21SyncEncryptionHandler8ObserverEFvvEJNS_7WeakPtrIS5_EEEEEFvvEE7RunOnceEPNS0_13BindStateBaseE to void ()*), void (%"class.base::internal::BindStateBase"*)* nonnull @_ZN4base8internal9BindStateIMN6syncer21SyncEncryptionHandler8ObserverEFvvEJNS_7WeakPtrIS4_EEEE7DestroyEPKNS0_13BindStateBaseE, i1 (%"class.base::internal::BindStateBase"*, i32)* nonnull @_ZN4base8internal23QueryCancellationTraitsINS0_9BindStateIMN6syncer21SyncEncryptionHandler8ObserverEFvvEJNS_7WeakPtrIS5_EEEEEEEbPKNS0_13BindStateBaseENSB_21CancellationQueryModeE) #11, !noalias !50
  %10 = getelementptr inbounds i8, i8* %8, i64 32
  %11 = bitcast i8* %10 to <2 x i64>*
  store <2 x i64> <i64 33, i64 0>, <2 x i64>* %11, align 8, !noalias !50
  %12 = getelementptr inbounds i8, i8* %8, i64 48
  %13 = bitcast i8* %12 to %"class.base::internal::WeakReference"*
  %14 = getelementptr inbounds %"class.syncer::(anonymous namespace)::SyncEncryptionObserverProxy", %"class.syncer::(anonymous namespace)::SyncEncryptionObserverProxy"* %0, i64 0, i32 1, i32 0, i32 0
  call void @_ZN4base8internal13WeakReferenceC1ERKS1_(%"class.base::internal::WeakReference"* %13, %"class.base::internal::WeakReference"* dereferenceable(8) %14) #11, !noalias !50
  %15 = getelementptr inbounds i8, i8* %8, i64 56
  %16 = bitcast i8* %15 to i64*
  %17 = getelementptr inbounds %"class.syncer::(anonymous namespace)::SyncEncryptionObserverProxy", %"class.syncer::(anonymous namespace)::SyncEncryptionObserverProxy"* %0, i64 0, i32 1, i32 0, i32 1
  %18 = load i64, i64* %17, align 8, !noalias !50
  store i64 %18, i64* %16, align 8, !noalias !50
  %19 = bitcast %"class.base::OnceCallback.45"* %3 to i8**
  store i8* %8, i8** %19, align 8, !alias.scope !50
  %20 = call zeroext i1 @_ZN4base10TaskRunner8PostTaskERKNS_8LocationENS_12OnceCallbackIFvvEEE(%"class.base::TaskRunner"* %6, %"class.base::Location"* nonnull dereferenceable(32) %2, %"class.base::OnceCallback.45"* nonnull %3) #11
  %21 = getelementptr inbounds %"class.base::OnceCallback.45", %"class.base::OnceCallback.45"* %3, i64 0, i32 0
  call void @_ZN4base8internal12CallbackBaseD2Ev(%"class.base::internal::CallbackBase"* nonnull %21) #11
  call void @llvm.lifetime.end.p0i8(i64 32, i8* nonnull %7) #11
  ret void
}

; Function Attrs: nounwind ssp uwtable
define internal void @_ZN6syncer12_GLOBAL__N_127SyncEncryptionObserverProxy25OnTrustedVaultKeyAcceptedEv(%"class.syncer::(anonymous namespace)::SyncEncryptionObserverProxy"*) unnamed_addr #0 align 2 {
  %2 = alloca %"class.base::Location", align 8
  %3 = alloca %"class.base::OnceCallback.45", align 8
  %4 = getelementptr inbounds %"class.syncer::(anonymous namespace)::SyncEncryptionObserverProxy", %"class.syncer::(anonymous namespace)::SyncEncryptionObserverProxy"* %0, i64 0, i32 2, i32 0
  %5 = bitcast %"class.base::SequencedTaskRunner"** %4 to %"class.base::TaskRunner"**
  %6 = load %"class.base::TaskRunner"*, %"class.base::TaskRunner"** %5, align 8
  %7 = bitcast %"class.base::Location"* %2 to i8*
  call void @llvm.lifetime.start.p0i8(i64 32, i8* nonnull %7) #11
  call void @_ZN4base8Location7CurrentEPKcS2_i(%"class.base::Location"* nonnull sret %2, i8* getelementptr inbounds ([26 x i8], [26 x i8]* @.str.9, i64 0, i64 0), i8* getelementptr inbounds ([52 x i8], [52 x i8]* @.str.4, i64 0, i64 0), i32 117) #11
  %8 = call i8* @_Znwm(i64 64) #12, !noalias !55
  %9 = bitcast i8* %8 to %"class.base::internal::BindStateBase"*
  call void @_ZN4base8internal13BindStateBaseC2EPFvvEPFvPKS1_EPFbS5_NS1_21CancellationQueryModeEE(%"class.base::internal::BindStateBase"* nonnull %9, void ()* bitcast (void (%"class.base::internal::BindStateBase"*)* @_ZN4base8internal7InvokerINS0_9BindStateIMN6syncer21SyncEncryptionHandler8ObserverEFvvEJNS_7WeakPtrIS5_EEEEEFvvEE7RunOnceEPNS0_13BindStateBaseE to void ()*), void (%"class.base::internal::BindStateBase"*)* nonnull @_ZN4base8internal9BindStateIMN6syncer21SyncEncryptionHandler8ObserverEFvvEJNS_7WeakPtrIS4_EEEE7DestroyEPKNS0_13BindStateBaseE, i1 (%"class.base::internal::BindStateBase"*, i32)* nonnull @_ZN4base8internal23QueryCancellationTraitsINS0_9BindStateIMN6syncer21SyncEncryptionHandler8ObserverEFvvEJNS_7WeakPtrIS5_EEEEEEEbPKNS0_13BindStateBaseENSB_21CancellationQueryModeE) #11, !noalias !55
  %10 = getelementptr inbounds i8, i8* %8, i64 32
  %11 = bitcast i8* %10 to <2 x i64>*
  store <2 x i64> <i64 41, i64 0>, <2 x i64>* %11, align 8, !noalias !55
  %12 = getelementptr inbounds i8, i8* %8, i64 48
  %13 = bitcast i8* %12 to %"class.base::internal::WeakReference"*
  %14 = getelementptr inbounds %"class.syncer::(anonymous namespace)::SyncEncryptionObserverProxy", %"class.syncer::(anonymous namespace)::SyncEncryptionObserverProxy"* %0, i64 0, i32 1, i32 0, i32 0
  call void @_ZN4base8internal13WeakReferenceC1ERKS1_(%"class.base::internal::WeakReference"* %13, %"class.base::internal::WeakReference"* dereferenceable(8) %14) #11, !noalias !55
  %15 = getelementptr inbounds i8, i8* %8, i64 56
  %16 = bitcast i8* %15 to i64*
  %17 = getelementptr inbounds %"class.syncer::(anonymous namespace)::SyncEncryptionObserverProxy", %"class.syncer::(anonymous namespace)::SyncEncryptionObserverProxy"* %0, i64 0, i32 1, i32 0, i32 1
  %18 = load i64, i64* %17, align 8, !noalias !55
  store i64 %18, i64* %16, align 8, !noalias !55
  %19 = bitcast %"class.base::OnceCallback.45"* %3 to i8**
  store i8* %8, i8** %19, align 8, !alias.scope !55
  %20 = call zeroext i1 @_ZN4base10TaskRunner8PostTaskERKNS_8LocationENS_12OnceCallbackIFvvEEE(%"class.base::TaskRunner"* %6, %"class.base::Location"* nonnull dereferenceable(32) %2, %"class.base::OnceCallback.45"* nonnull %3) #11
  %21 = getelementptr inbounds %"class.base::OnceCallback.45", %"class.base::OnceCallback.45"* %3, i64 0, i32 0
  call void @_ZN4base8internal12CallbackBaseD2Ev(%"class.base::internal::CallbackBase"* nonnull %21) #11
  call void @llvm.lifetime.end.p0i8(i64 32, i8* nonnull %7) #11
  ret void
}

; Function Attrs: nounwind ssp uwtable
define internal void @_ZN6syncer12_GLOBAL__N_127SyncEncryptionObserverProxy23OnBootstrapTokenUpdatedERKNSt3__112basic_stringIcNS2_11char_traitsIcEENS2_9allocatorIcEEEENS_18BootstrapTokenTypeE(%"class.syncer::(anonymous namespace)::SyncEncryptionObserverProxy"*, %"class.std::__1::basic_string"* nocapture readonly dereferenceable(24), i32) unnamed_addr #0 align 2 {
  %4 = alloca %"class.base::Location", align 8
  %5 = alloca %"class.base::OnceCallback.45", align 8
  %6 = getelementptr inbounds %"class.syncer::(anonymous namespace)::SyncEncryptionObserverProxy", %"class.syncer::(anonymous namespace)::SyncEncryptionObserverProxy"* %0, i64 0, i32 2, i32 0
  %7 = bitcast %"class.base::SequencedTaskRunner"** %6 to %"class.base::TaskRunner"**
  %8 = load %"class.base::TaskRunner"*, %"class.base::TaskRunner"** %7, align 8
  %9 = bitcast %"class.base::Location"* %4 to i8*
  call void @llvm.lifetime.start.p0i8(i64 32, i8* nonnull %9) #11
  call void @_ZN4base8Location7CurrentEPKcS2_i(%"class.base::Location"* nonnull sret %4, i8* getelementptr inbounds ([24 x i8], [24 x i8]* @.str.10, i64 0, i64 0), i8* getelementptr inbounds ([52 x i8], [52 x i8]* @.str.4, i64 0, i64 0), i32 126) #11
  %10 = call i8* @_Znwm(i64 96) #12, !noalias !60
  %11 = bitcast i8* %10 to %"class.base::internal::BindStateBase"*
  call void @_ZN4base8internal13BindStateBaseC2EPFvvEPFvPKS1_EPFbS5_NS1_21CancellationQueryModeEE(%"class.base::internal::BindStateBase"* nonnull %11, void ()* bitcast (void (%"class.base::internal::BindStateBase"*)* @_ZN4base8internal7InvokerINS0_9BindStateIMN6syncer21SyncEncryptionHandler8ObserverEFvRKNSt3__112basic_stringIcNS6_11char_traitsIcEENS6_9allocatorIcEEEENS3_18BootstrapTokenTypeEEJNS_7WeakPtrIS5_EESC_SF_EEEFvvEE7RunOnceEPNS0_13BindStateBaseE to void ()*), void (%"class.base::internal::BindStateBase"*)* nonnull @_ZN4base8internal9BindStateIMN6syncer21SyncEncryptionHandler8ObserverEFvRKNSt3__112basic_stringIcNS5_11char_traitsIcEENS5_9allocatorIcEEEENS2_18BootstrapTokenTypeEEJNS_7WeakPtrIS4_EESB_SE_EE7DestroyEPKNS0_13BindStateBaseE, i1 (%"class.base::internal::BindStateBase"*, i32)* nonnull @_ZN4base8internal23QueryCancellationTraitsINS0_9BindStateIMN6syncer21SyncEncryptionHandler8ObserverEFvRKNSt3__112basic_stringIcNS6_11char_traitsIcEENS6_9allocatorIcEEEENS3_18BootstrapTokenTypeEEJNS_7WeakPtrIS5_EESC_SF_EEEEEbPKNS0_13BindStateBaseENSL_21CancellationQueryModeE) #11, !noalias !60
  %12 = getelementptr inbounds i8, i8* %10, i64 32
  %13 = bitcast i8* %12 to <2 x i64>*
  store <2 x i64> <i64 49, i64 0>, <2 x i64>* %13, align 8, !noalias !60
  %14 = getelementptr inbounds i8, i8* %10, i64 48
  %15 = bitcast i8* %14 to %"class.base::internal::WeakReference"*
  %16 = getelementptr inbounds %"class.syncer::(anonymous namespace)::SyncEncryptionObserverProxy", %"class.syncer::(anonymous namespace)::SyncEncryptionObserverProxy"* %0, i64 0, i32 1, i32 0, i32 0
  call void @_ZN4base8internal13WeakReferenceC1ERKS1_(%"class.base::internal::WeakReference"* %15, %"class.base::internal::WeakReference"* dereferenceable(8) %16) #11, !noalias !60
  %17 = getelementptr inbounds i8, i8* %10, i64 56
  %18 = bitcast i8* %17 to i64*
  %19 = getelementptr inbounds %"class.syncer::(anonymous namespace)::SyncEncryptionObserverProxy", %"class.syncer::(anonymous namespace)::SyncEncryptionObserverProxy"* %0, i64 0, i32 1, i32 0, i32 1
  %20 = load i64, i64* %19, align 8, !noalias !60
  store i64 %20, i64* %18, align 8, !noalias !60
  %21 = getelementptr inbounds i8, i8* %10, i64 64
  %22 = bitcast %"class.std::__1::basic_string"* %1 to %"struct.std::__1::basic_string<char, std::__1::char_traits<char>, std::__1::allocator<char> >::__short"*
  %23 = getelementptr inbounds %"struct.std::__1::basic_string<char, std::__1::char_traits<char>, std::__1::allocator<char> >::__short", %"struct.std::__1::basic_string<char, std::__1::char_traits<char>, std::__1::allocator<char> >::__short"* %22, i64 0, i32 1, i32 0
  %24 = load i8, i8* %23, align 1, !noalias !60
  %25 = icmp slt i8 %24, 0
  br i1 %25, label %28, label %26

26:                                               ; preds = %3
  %27 = bitcast %"class.std::__1::basic_string"* %1 to i8*
  call void @llvm.memcpy.p0i8.p0i8.i64(i8* align 8 %21, i8* align 8 %27, i64 24, i1 false) #11, !noalias !60
  br label %34

28:                                               ; preds = %3
  %29 = bitcast i8* %21 to %"class.std::__1::basic_string"*
  %30 = getelementptr inbounds %"class.std::__1::basic_string", %"class.std::__1::basic_string"* %1, i64 0, i32 0, i32 0, i32 0, i32 0, i32 0, i32 0
  %31 = load i8*, i8** %30, align 8, !noalias !60
  %32 = getelementptr inbounds %"class.std::__1::basic_string", %"class.std::__1::basic_string"* %1, i64 0, i32 0, i32 0, i32 0, i32 0, i32 0, i32 1
  %33 = load i64, i64* %32, align 8, !noalias !60
  call void @_ZNSt3__112basic_stringIcNS_11char_traitsIcEENS_9allocatorIcEEE25__init_copy_ctor_externalEPKcm(%"class.std::__1::basic_string"* %29, i8* %31, i64 %33) #11, !noalias !60
  br label %34

34:                                               ; preds = %26, %28
  %35 = getelementptr inbounds i8, i8* %10, i64 88
  %36 = bitcast i8* %35 to i32*
  store i32 %2, i32* %36, align 4, !noalias !60
  %37 = bitcast %"class.base::OnceCallback.45"* %5 to i8**
  store i8* %10, i8** %37, align 8, !alias.scope !60
  %38 = call zeroext i1 @_ZN4base10TaskRunner8PostTaskERKNS_8LocationENS_12OnceCallbackIFvvEEE(%"class.base::TaskRunner"* %8, %"class.base::Location"* nonnull dereferenceable(32) %4, %"class.base::OnceCallback.45"* nonnull %5) #11
  %39 = getelementptr inbounds %"class.base::OnceCallback.45", %"class.base::OnceCallback.45"* %5, i64 0, i32 0
  call void @_ZN4base8internal12CallbackBaseD2Ev(%"class.base::internal::CallbackBase"* nonnull %39) #11
  call void @llvm.lifetime.end.p0i8(i64 32, i8* nonnull %9) #11
  ret void
}

; Function Attrs: nounwind ssp uwtable
define internal void @_ZN6syncer12_GLOBAL__N_127SyncEncryptionObserverProxy23OnEncryptedTypesChangedENS_7EnumSetINS_9ModelTypeELS3_1ELS3_37EEEb(%"class.syncer::(anonymous namespace)::SyncEncryptionObserverProxy"*, i64, i1 zeroext) unnamed_addr #0 align 2 {
  %4 = alloca %"class.base::Location", align 8
  %5 = alloca %"class.base::OnceCallback.45", align 8
  %6 = zext i1 %2 to i8
  %7 = getelementptr inbounds %"class.syncer::(anonymous namespace)::SyncEncryptionObserverProxy", %"class.syncer::(anonymous namespace)::SyncEncryptionObserverProxy"* %0, i64 0, i32 2, i32 0
  %8 = bitcast %"class.base::SequencedTaskRunner"** %7 to %"class.base::TaskRunner"**
  %9 = load %"class.base::TaskRunner"*, %"class.base::TaskRunner"** %8, align 8
  %10 = bitcast %"class.base::Location"* %4 to i8*
  call void @llvm.lifetime.start.p0i8(i64 32, i8* nonnull %10) #11
  call void @_ZN4base8Location7CurrentEPKcS2_i(%"class.base::Location"* nonnull sret %4, i8* getelementptr inbounds ([24 x i8], [24 x i8]* @.str.11, i64 0, i64 0), i8* getelementptr inbounds ([52 x i8], [52 x i8]* @.str.4, i64 0, i64 0), i32 135) #11
  %11 = call i8* @_Znwm(i64 80) #12, !noalias !65
  %12 = bitcast i8* %11 to %"class.base::internal::BindStateBase"*
  call void @_ZN4base8internal13BindStateBaseC2EPFvvEPFvPKS1_EPFbS5_NS1_21CancellationQueryModeEE(%"class.base::internal::BindStateBase"* nonnull %12, void ()* bitcast (void (%"class.base::internal::BindStateBase"*)* @_ZN4base8internal7InvokerINS0_9BindStateIMN6syncer21SyncEncryptionHandler8ObserverEFvNS3_7EnumSetINS3_9ModelTypeELS7_1ELS7_37EEEbEJNS_7WeakPtrIS5_EES8_bEEEFvvEE7RunOnceEPNS0_13BindStateBaseE to void ()*), void (%"class.base::internal::BindStateBase"*)* nonnull @_ZN4base8internal9BindStateIMN6syncer21SyncEncryptionHandler8ObserverEFvNS2_7EnumSetINS2_9ModelTypeELS6_1ELS6_37EEEbEJNS_7WeakPtrIS4_EES7_bEE7DestroyEPKNS0_13BindStateBaseE, i1 (%"class.base::internal::BindStateBase"*, i32)* nonnull @_ZN4base8internal23QueryCancellationTraitsINS0_9BindStateIMN6syncer21SyncEncryptionHandler8ObserverEFvNS3_7EnumSetINS3_9ModelTypeELS7_1ELS7_37EEEbEJNS_7WeakPtrIS5_EES8_bEEEEEbPKNS0_13BindStateBaseENSE_21CancellationQueryModeE) #11, !noalias !65
  %13 = getelementptr inbounds i8, i8* %11, i64 32
  %14 = bitcast i8* %13 to <2 x i64>*
  store <2 x i64> <i64 57, i64 0>, <2 x i64>* %14, align 8, !noalias !65
  %15 = getelementptr inbounds i8, i8* %11, i64 48
  %16 = bitcast i8* %15 to %"class.base::internal::WeakReference"*
  %17 = getelementptr inbounds %"class.syncer::(anonymous namespace)::SyncEncryptionObserverProxy", %"class.syncer::(anonymous namespace)::SyncEncryptionObserverProxy"* %0, i64 0, i32 1, i32 0, i32 0
  call void @_ZN4base8internal13WeakReferenceC1ERKS1_(%"class.base::internal::WeakReference"* %16, %"class.base::internal::WeakReference"* dereferenceable(8) %17) #11, !noalias !65
  %18 = getelementptr inbounds i8, i8* %11, i64 56
  %19 = bitcast i8* %18 to i64*
  %20 = getelementptr inbounds %"class.syncer::(anonymous namespace)::SyncEncryptionObserverProxy", %"class.syncer::(anonymous namespace)::SyncEncryptionObserverProxy"* %0, i64 0, i32 1, i32 0, i32 1
  %21 = load i64, i64* %20, align 8, !noalias !65
  store i64 %21, i64* %19, align 8, !noalias !65
  %22 = getelementptr inbounds i8, i8* %11, i64 64
  %23 = bitcast i8* %22 to i64*
  store i64 %1, i64* %23, align 8, !noalias !65
  %24 = getelementptr inbounds i8, i8* %11, i64 72
  store i8 %6, i8* %24, align 1, !noalias !65
  %25 = bitcast %"class.base::OnceCallback.45"* %5 to i8**
  store i8* %11, i8** %25, align 8, !alias.scope !65
  %26 = call zeroext i1 @_ZN4base10TaskRunner8PostTaskERKNS_8LocationENS_12OnceCallbackIFvvEEE(%"class.base::TaskRunner"* %9, %"class.base::Location"* nonnull dereferenceable(32) %4, %"class.base::OnceCallback.45"* nonnull %5) #11
  %27 = getelementptr inbounds %"class.base::OnceCallback.45", %"class.base::OnceCallback.45"* %5, i64 0, i32 0
  call void @_ZN4base8internal12CallbackBaseD2Ev(%"class.base::internal::CallbackBase"* nonnull %27) #11
  call void @llvm.lifetime.end.p0i8(i64 32, i8* nonnull %10) #11
  ret void
}

; Function Attrs: nounwind ssp uwtable
define internal void @_ZN6syncer12_GLOBAL__N_127SyncEncryptionObserverProxy27OnCryptographerStateChangedEPNS_13CryptographerEb(%"class.syncer::(anonymous namespace)::SyncEncryptionObserverProxy"*, %"class.syncer::Cryptographer"* nocapture readnone, i1 zeroext) unnamed_addr #0 align 2 {
  %4 = alloca %"class.base::Location", align 8
  %5 = alloca %"class.base::OnceCallback.45", align 8
  %6 = zext i1 %2 to i8
  %7 = getelementptr inbounds %"class.syncer::(anonymous namespace)::SyncEncryptionObserverProxy", %"class.syncer::(anonymous namespace)::SyncEncryptionObserverProxy"* %0, i64 0, i32 2, i32 0
  %8 = bitcast %"class.base::SequencedTaskRunner"** %7 to %"class.base::TaskRunner"**
  %9 = load %"class.base::TaskRunner"*, %"class.base::TaskRunner"** %8, align 8
  %10 = bitcast %"class.base::Location"* %4 to i8*
  call void @llvm.lifetime.start.p0i8(i64 32, i8* nonnull %10) #11
  call void @_ZN4base8Location7CurrentEPKcS2_i(%"class.base::Location"* nonnull sret %4, i8* getelementptr inbounds ([28 x i8], [28 x i8]* @.str.12, i64 0, i64 0), i8* getelementptr inbounds ([52 x i8], [52 x i8]* @.str.4, i64 0, i64 0), i32 145) #11
  %11 = call i8* @_Znwm(i64 80) #12, !noalias !70
  %12 = bitcast i8* %11 to %"class.base::internal::BindStateBase"*
  call void @_ZN4base8internal13BindStateBaseC2EPFvvEPFvPKS1_EPFbS5_NS1_21CancellationQueryModeEE(%"class.base::internal::BindStateBase"* nonnull %12, void ()* bitcast (void (%"class.base::internal::BindStateBase"*)* @_ZN4base8internal7InvokerINS0_9BindStateIMN6syncer21SyncEncryptionHandler8ObserverEFvPNS3_13CryptographerEbEJNS_7WeakPtrIS5_EEDnbEEEFvvEE7RunOnceEPNS0_13BindStateBaseE to void ()*), void (%"class.base::internal::BindStateBase"*)* nonnull @_ZN4base8internal9BindStateIMN6syncer21SyncEncryptionHandler8ObserverEFvPNS2_13CryptographerEbEJNS_7WeakPtrIS4_EEDnbEE7DestroyEPKNS0_13BindStateBaseE, i1 (%"class.base::internal::BindStateBase"*, i32)* nonnull @_ZN4base8internal23QueryCancellationTraitsINS0_9BindStateIMN6syncer21SyncEncryptionHandler8ObserverEFvPNS3_13CryptographerEbEJNS_7WeakPtrIS5_EEDnbEEEEEbPKNS0_13BindStateBaseENSD_21CancellationQueryModeE) #11, !noalias !70
  %13 = getelementptr inbounds i8, i8* %11, i64 32
  %14 = bitcast i8* %13 to <2 x i64>*
  store <2 x i64> <i64 65, i64 0>, <2 x i64>* %14, align 8, !noalias !70
  %15 = getelementptr inbounds i8, i8* %11, i64 48
  %16 = bitcast i8* %15 to %"class.base::internal::WeakReference"*
  %17 = getelementptr inbounds %"class.syncer::(anonymous namespace)::SyncEncryptionObserverProxy", %"class.syncer::(anonymous namespace)::SyncEncryptionObserverProxy"* %0, i64 0, i32 1, i32 0, i32 0
  call void @_ZN4base8internal13WeakReferenceC1ERKS1_(%"class.base::internal::WeakReference"* %16, %"class.base::internal::WeakReference"* dereferenceable(8) %17) #11, !noalias !70
  %18 = getelementptr inbounds i8, i8* %11, i64 56
  %19 = bitcast i8* %18 to i64*
  %20 = getelementptr inbounds %"class.syncer::(anonymous namespace)::SyncEncryptionObserverProxy", %"class.syncer::(anonymous namespace)::SyncEncryptionObserverProxy"* %0, i64 0, i32 1, i32 0, i32 1
  %21 = load i64, i64* %20, align 8, !noalias !70
  store i64 %21, i64* %19, align 8, !noalias !70
  %22 = getelementptr inbounds i8, i8* %11, i64 64
  %23 = bitcast i8* %22 to i8**
  store i8* null, i8** %23, align 8, !noalias !70
  %24 = getelementptr inbounds i8, i8* %11, i64 72
  store i8 %6, i8* %24, align 1, !noalias !70
  %25 = bitcast %"class.base::OnceCallback.45"* %5 to i8**
  store i8* %11, i8** %25, align 8, !alias.scope !70
  %26 = call zeroext i1 @_ZN4base10TaskRunner8PostTaskERKNS_8LocationENS_12OnceCallbackIFvvEEE(%"class.base::TaskRunner"* %9, %"class.base::Location"* nonnull dereferenceable(32) %4, %"class.base::OnceCallback.45"* nonnull %5) #11
  %27 = getelementptr inbounds %"class.base::OnceCallback.45", %"class.base::OnceCallback.45"* %5, i64 0, i32 0
  call void @_ZN4base8internal12CallbackBaseD2Ev(%"class.base::internal::CallbackBase"* nonnull %27) #11
  call void @llvm.lifetime.end.p0i8(i64 32, i8* nonnull %10) #11
  ret void
}

; Function Attrs: nounwind ssp uwtable
define internal void @_ZN6syncer12_GLOBAL__N_127SyncEncryptionObserverProxy23OnPassphraseTypeChangedENS_14PassphraseTypeEN4base4TimeE(%"class.syncer::(anonymous namespace)::SyncEncryptionObserverProxy"*, i32, i64) unnamed_addr #0 align 2 {
  %4 = alloca %"class.base::Location", align 8
  %5 = alloca %"class.base::OnceCallback.45", align 8
  %6 = getelementptr inbounds %"class.syncer::(anonymous namespace)::SyncEncryptionObserverProxy", %"class.syncer::(anonymous namespace)::SyncEncryptionObserverProxy"* %0, i64 0, i32 2, i32 0
  %7 = bitcast %"class.base::SequencedTaskRunner"** %6 to %"class.base::TaskRunner"**
  %8 = load %"class.base::TaskRunner"*, %"class.base::TaskRunner"** %7, align 8
  %9 = bitcast %"class.base::Location"* %4 to i8*
  call void @llvm.lifetime.start.p0i8(i64 32, i8* nonnull %9) #11
  call void @_ZN4base8Location7CurrentEPKcS2_i(%"class.base::Location"* nonnull sret %4, i8* getelementptr inbounds ([24 x i8], [24 x i8]* @.str.13, i64 0, i64 0), i8* getelementptr inbounds ([52 x i8], [52 x i8]* @.str.4, i64 0, i64 0), i32 154) #11
  %10 = call i8* @_Znwm(i64 80) #12, !noalias !75
  %11 = bitcast i8* %10 to %"class.base::internal::BindStateBase"*
  call void @_ZN4base8internal13BindStateBaseC2EPFvvEPFvPKS1_EPFbS5_NS1_21CancellationQueryModeEE(%"class.base::internal::BindStateBase"* nonnull %11, void ()* bitcast (void (%"class.base::internal::BindStateBase"*)* @_ZN4base8internal7InvokerINS0_9BindStateIMN6syncer21SyncEncryptionHandler8ObserverEFvNS3_14PassphraseTypeENS_4TimeEEJNS_7WeakPtrIS5_EES6_S7_EEEFvvEE7RunOnceEPNS0_13BindStateBaseE to void ()*), void (%"class.base::internal::BindStateBase"*)* nonnull @_ZN4base8internal9BindStateIMN6syncer21SyncEncryptionHandler8ObserverEFvNS2_14PassphraseTypeENS_4TimeEEJNS_7WeakPtrIS4_EES5_S6_EE7DestroyEPKNS0_13BindStateBaseE, i1 (%"class.base::internal::BindStateBase"*, i32)* nonnull @_ZN4base8internal23QueryCancellationTraitsINS0_9BindStateIMN6syncer21SyncEncryptionHandler8ObserverEFvNS3_14PassphraseTypeENS_4TimeEEJNS_7WeakPtrIS5_EES6_S7_EEEEEbPKNS0_13BindStateBaseENSD_21CancellationQueryModeE) #11, !noalias !75
  %12 = getelementptr inbounds i8, i8* %10, i64 32
  %13 = bitcast i8* %12 to <2 x i64>*
  store <2 x i64> <i64 73, i64 0>, <2 x i64>* %13, align 8, !noalias !75
  %14 = getelementptr inbounds i8, i8* %10, i64 48
  %15 = bitcast i8* %14 to %"class.base::internal::WeakReference"*
  %16 = getelementptr inbounds %"class.syncer::(anonymous namespace)::SyncEncryptionObserverProxy", %"class.syncer::(anonymous namespace)::SyncEncryptionObserverProxy"* %0, i64 0, i32 1, i32 0, i32 0
  call void @_ZN4base8internal13WeakReferenceC1ERKS1_(%"class.base::internal::WeakReference"* %15, %"class.base::internal::WeakReference"* dereferenceable(8) %16) #11, !noalias !75
  %17 = getelementptr inbounds i8, i8* %10, i64 56
  %18 = bitcast i8* %17 to i64*
  %19 = getelementptr inbounds %"class.syncer::(anonymous namespace)::SyncEncryptionObserverProxy", %"class.syncer::(anonymous namespace)::SyncEncryptionObserverProxy"* %0, i64 0, i32 1, i32 0, i32 1
  %20 = load i64, i64* %19, align 8, !noalias !75
  store i64 %20, i64* %18, align 8, !noalias !75
  %21 = getelementptr inbounds i8, i8* %10, i64 64
  %22 = bitcast i8* %21 to i32*
  store i32 %1, i32* %22, align 4, !noalias !75
  %23 = getelementptr inbounds i8, i8* %10, i64 72
  %24 = bitcast i8* %23 to i64*
  store i64 %2, i64* %24, align 8, !noalias !75
  %25 = bitcast %"class.base::OnceCallback.45"* %5 to i8**
  store i8* %10, i8** %25, align 8, !alias.scope !75
  %26 = call zeroext i1 @_ZN4base10TaskRunner8PostTaskERKNS_8LocationENS_12OnceCallbackIFvvEEE(%"class.base::TaskRunner"* %8, %"class.base::Location"* nonnull dereferenceable(32) %4, %"class.base::OnceCallback.45"* nonnull %5) #11
  %27 = getelementptr inbounds %"class.base::OnceCallback.45", %"class.base::OnceCallback.45"* %5, i64 0, i32 0
  call void @_ZN4base8internal12CallbackBaseD2Ev(%"class.base::internal::CallbackBase"* nonnull %27) #11
  call void @llvm.lifetime.end.p0i8(i64 32, i8* nonnull %9) #11
  ret void
}

declare void @_ZN4base8internal13WeakReferenceC1ERKS1_(%"class.base::internal::WeakReference"*, %"class.base::internal::WeakReference"* dereferenceable(8)) unnamed_addr #1

declare void @_ZN4base16TaskRunnerTraits8DestructEPKNS_10TaskRunnerE(%"class.base::TaskRunner"*) local_unnamed_addr #1

declare zeroext i1 @_ZN4base10TaskRunner8PostTaskERKNS_8LocationENS_12OnceCallbackIFvvEEE(%"class.base::TaskRunner"*, %"class.base::Location"* dereferenceable(32), %"class.base::OnceCallback.45"*) local_unnamed_addr #1

declare void @_ZN4base8Location7CurrentEPKcS2_i(%"class.base::Location"* sret, i8*, i8*, i32) local_unnamed_addr #1

; Function Attrs: nounwind ssp uwtable
define linkonce_odr hidden void @_ZN4base8internal7InvokerINS0_9BindStateIMN6syncer21SyncEncryptionHandler8ObserverEFvRKNS3_19KeyDerivationParamsERKN7sync_pb13EncryptedDataEEJNS_7WeakPtrIS5_EES6_SA_EEEFvvEE7RunOnceEPNS0_13BindStateBaseE(%"class.base::internal::BindStateBase"*) #0 comdat align 2 {
  %2 = alloca %"class.logging::CheckError", align 8
  %3 = getelementptr inbounds %"class.base::internal::BindStateBase", %"class.base::internal::BindStateBase"* %0, i64 1
  %4 = getelementptr inbounds %"class.base::internal::BindStateBase", %"class.base::internal::BindStateBase"* %0, i64 1, i32 2
  %5 = getelementptr inbounds void (%"class.base::internal::BindStateBase"*)*, void (%"class.base::internal::BindStateBase"*)** %4, i64 2
  %6 = bitcast void (%"class.base::internal::BindStateBase"*)** %5 to %"class.syncer::KeyDerivationParams"*
  %7 = getelementptr inbounds void (%"class.base::internal::BindStateBase"*)*, void (%"class.base::internal::BindStateBase"*)** %4, i64 6
  %8 = bitcast void (%"class.base::internal::BindStateBase"*)** %7 to %"class.sync_pb::EncryptedData"*
  %9 = bitcast void (%"class.base::internal::BindStateBase"*)** %4 to %"class.base::internal::WeakReference"*
  %10 = tail call zeroext i1 @_ZNK4base8internal13WeakReference7IsValidEv(%"class.base::internal::WeakReference"* %9) #11
  br i1 %10, label %11, label %46

11:                                               ; preds = %1
  %12 = getelementptr inbounds void (%"class.base::internal::BindStateBase"*)*, void (%"class.base::internal::BindStateBase"*)** %4, i64 1
  %13 = bitcast void (%"class.base::internal::BindStateBase"*)** %12 to %"class.syncer::SyncEncryptionHandler::Observer"**
  %14 = load %"class.syncer::SyncEncryptionHandler::Observer"*, %"class.syncer::SyncEncryptionHandler::Observer"** %13, align 8
  %15 = icmp eq %"class.syncer::SyncEncryptionHandler::Observer"* %14, null
  br i1 %15, label %46, label %16

16:                                               ; preds = %11
  %17 = bitcast %"class.base::internal::BindStateBase"* %3 to i64*
  %18 = load i64, i64* %17, align 8
  %19 = getelementptr inbounds %"class.base::internal::BindStateBase", %"class.base::internal::BindStateBase"* %0, i64 1, i32 1
  %20 = bitcast void ()** %19 to i64*
  %21 = load i64, i64* %20, align 8
  %22 = tail call zeroext i1 @_ZNK4base8internal13WeakReference7IsValidEv(%"class.base::internal::WeakReference"* %9) #11
  br i1 %22, label %26, label %23

23:                                               ; preds = %16
  %24 = bitcast %"class.logging::CheckError"* %2 to i8*
  call void @llvm.lifetime.start.p0i8(i64 8, i8* nonnull %24) #11
  call void @_ZN7logging10CheckError5CheckEPKciS2_(%"class.logging::CheckError"* nonnull sret %2, i8* getelementptr inbounds ([29 x i8], [29 x i8]* @.str.5, i64 0, i64 0), i32 251, i8* getelementptr inbounds ([15 x i8], [15 x i8]* @.str.6, i64 0, i64 0)) #11
  %25 = call dereferenceable(160) %"class.std::__1::basic_ostream"* @_ZN7logging10CheckError6streamEv(%"class.logging::CheckError"* nonnull %2) #11
  call void @_ZN7logging10CheckErrorD1Ev(%"class.logging::CheckError"* nonnull %2) #11
  call void @llvm.lifetime.end.p0i8(i64 8, i8* nonnull %24) #11
  br label %26

26:                                               ; preds = %23, %16
  %27 = call zeroext i1 @_ZNK4base8internal13WeakReference7IsValidEv(%"class.base::internal::WeakReference"* %9) #11
  %28 = bitcast void (%"class.base::internal::BindStateBase"*)** %12 to i8**
  %29 = load i8*, i8** %28, align 8
  %30 = select i1 %27, i8* %29, i8* null
  %31 = getelementptr inbounds i8, i8* %30, i64 %21
  %32 = bitcast i8* %31 to %"class.syncer::SyncEncryptionHandler::Observer"*
  %33 = and i64 %18, 1
  %34 = icmp eq i64 %33, 0
  br i1 %34, label %42, label %35

35:                                               ; preds = %26
  %36 = bitcast i8* %31 to i8**
  %37 = load i8*, i8** %36, align 8
  %38 = add i64 %18, -1
  %39 = getelementptr i8, i8* %37, i64 %38
  %40 = bitcast i8* %39 to void (%"class.syncer::SyncEncryptionHandler::Observer"*, %"class.syncer::KeyDerivationParams"*, %"class.sync_pb::EncryptedData"*)**
  %41 = load void (%"class.syncer::SyncEncryptionHandler::Observer"*, %"class.syncer::KeyDerivationParams"*, %"class.sync_pb::EncryptedData"*)*, void (%"class.syncer::SyncEncryptionHandler::Observer"*, %"class.syncer::KeyDerivationParams"*, %"class.sync_pb::EncryptedData"*)** %40, align 8
  br label %44

42:                                               ; preds = %26
  %43 = inttoptr i64 %18 to void (%"class.syncer::SyncEncryptionHandler::Observer"*, %"class.syncer::KeyDerivationParams"*, %"class.sync_pb::EncryptedData"*)*
  br label %44

44:                                               ; preds = %42, %35
  %45 = phi void (%"class.syncer::SyncEncryptionHandler::Observer"*, %"class.syncer::KeyDerivationParams"*, %"class.sync_pb::EncryptedData"*)* [ %41, %35 ], [ %43, %42 ]
  call void %45(%"class.syncer::SyncEncryptionHandler::Observer"* %32, %"class.syncer::KeyDerivationParams"* dereferenceable(32) %6, %"class.sync_pb::EncryptedData"* dereferenceable(40) %8) #11
  br label %46

46:                                               ; preds = %1, %11, %44
  ret void
}

declare zeroext i1 @_ZNK4base8internal13WeakReference7IsValidEv(%"class.base::internal::WeakReference"*) local_unnamed_addr #1

declare void @_ZN7logging10CheckError5CheckEPKciS2_(%"class.logging::CheckError"* sret, i8*, i32, i8*) local_unnamed_addr #1

declare dereferenceable(160) %"class.std::__1::basic_ostream"* @_ZN7logging10CheckError6streamEv(%"class.logging::CheckError"*) local_unnamed_addr #1

; Function Attrs: nounwind
declare void @_ZN7logging10CheckErrorD1Ev(%"class.logging::CheckError"*) unnamed_addr #2

; Function Attrs: nounwind ssp uwtable
define linkonce_odr hidden void @_ZN4base8internal9BindStateIMN6syncer21SyncEncryptionHandler8ObserverEFvRKNS2_19KeyDerivationParamsERKN7sync_pb13EncryptedDataEEJNS_7WeakPtrIS4_EES5_S9_EE7DestroyEPKNS0_13BindStateBaseE(%"class.base::internal::BindStateBase"*) #0 comdat align 2 {
  %2 = icmp eq %"class.base::internal::BindStateBase"* %0, null
  br i1 %2, label %18, label %3

3:                                                ; preds = %1
  %4 = getelementptr inbounds %"class.base::internal::BindStateBase", %"class.base::internal::BindStateBase"* %0, i64 3
  %5 = bitcast %"class.base::internal::BindStateBase"* %4 to %"class.sync_pb::EncryptedData"*
  tail call void @_ZN7sync_pb13EncryptedDataD1Ev(%"class.sync_pb::EncryptedData"* %5) #11
  %6 = getelementptr inbounds %"class.base::internal::BindStateBase", %"class.base::internal::BindStateBase"* %0, i64 2, i32 1
  %7 = bitcast void ()** %6 to %"struct.std::__1::basic_string<char, std::__1::char_traits<char>, std::__1::allocator<char> >::__short"*
  %8 = getelementptr inbounds %"struct.std::__1::basic_string<char, std::__1::char_traits<char>, std::__1::allocator<char> >::__short", %"struct.std::__1::basic_string<char, std::__1::char_traits<char>, std::__1::allocator<char> >::__short"* %7, i64 0, i32 1, i32 0
  %9 = load i8, i8* %8, align 1
  %10 = icmp slt i8 %9, 0
  br i1 %10, label %11, label %14

11:                                               ; preds = %3
  %12 = bitcast void ()** %6 to i8**
  %13 = load i8*, i8** %12, align 8
  tail call void @_ZdlPv(i8* %13) #12
  br label %14

14:                                               ; preds = %3, %11
  %15 = getelementptr inbounds %"class.base::internal::BindStateBase", %"class.base::internal::BindStateBase"* %0, i64 1, i32 2
  %16 = bitcast void (%"class.base::internal::BindStateBase"*)** %15 to %"class.base::internal::WeakPtrBase"*
  tail call void @_ZN4base8internal11WeakPtrBaseD2Ev(%"class.base::internal::WeakPtrBase"* %16) #11
  %17 = bitcast %"class.base::internal::BindStateBase"* %0 to i8*
  tail call void @_ZdlPv(i8* %17) #12
  br label %18

18:                                               ; preds = %14, %1
  ret void
}

; Function Attrs: nounwind ssp uwtable
define linkonce_odr hidden zeroext i1 @_ZN4base8internal23QueryCancellationTraitsINS0_9BindStateIMN6syncer21SyncEncryptionHandler8ObserverEFvRKNS3_19KeyDerivationParamsERKN7sync_pb13EncryptedDataEEJNS_7WeakPtrIS5_EES6_SA_EEEEEbPKNS0_13BindStateBaseENSI_21CancellationQueryModeE(%"class.base::internal::BindStateBase"*, i32) #0 comdat {
  %3 = getelementptr inbounds %"class.base::internal::BindStateBase", %"class.base::internal::BindStateBase"* %0, i64 1, i32 2
  switch i32 %1, label %16 [
    i32 0, label %4
    i32 1, label %13
  ]

4:                                                ; preds = %2
  %5 = bitcast void (%"class.base::internal::BindStateBase"*)** %3 to %"class.base::internal::WeakReference"*
  %6 = tail call zeroext i1 @_ZNK4base8internal13WeakReference7IsValidEv(%"class.base::internal::WeakReference"* %5) #11
  %7 = getelementptr inbounds void (%"class.base::internal::BindStateBase"*)*, void (%"class.base::internal::BindStateBase"*)** %3, i64 1
  %8 = bitcast void (%"class.base::internal::BindStateBase"*)** %7 to %"class.syncer::SyncEncryptionHandler::Observer"**
  %9 = load %"class.syncer::SyncEncryptionHandler::Observer"*, %"class.syncer::SyncEncryptionHandler::Observer"** %8, align 8
  %10 = icmp ne %"class.syncer::SyncEncryptionHandler::Observer"* %9, null
  %11 = and i1 %6, %10
  %12 = xor i1 %11, true
  br label %16

13:                                               ; preds = %2
  %14 = bitcast void (%"class.base::internal::BindStateBase"*)** %3 to %"class.base::internal::WeakReference"*
  %15 = tail call zeroext i1 @_ZNK4base8internal13WeakReference10MaybeValidEv(%"class.base::internal::WeakReference"* %14) #11
  br label %16

16:                                               ; preds = %2, %4, %13
  %17 = phi i1 [ %15, %13 ], [ %12, %4 ], [ false, %2 ]
  ret i1 %17
}

declare void @_ZN4base8internal13BindStateBaseC2EPFvvEPFvPKS1_EPFbS5_NS1_21CancellationQueryModeEE(%"class.base::internal::BindStateBase"*, void ()*, void (%"class.base::internal::BindStateBase"*)*, i1 (%"class.base::internal::BindStateBase"*, i32)*) unnamed_addr #1

declare zeroext i1 @_ZNK4base8internal13WeakReference10MaybeValidEv(%"class.base::internal::WeakReference"*) local_unnamed_addr #1

declare void @_ZN6syncer19KeyDerivationParamsC1ERKS0_(%"class.syncer::KeyDerivationParams"*, %"class.syncer::KeyDerivationParams"* dereferenceable(32)) unnamed_addr #1

declare void @_ZN7sync_pb13EncryptedDataC1ERKS0_(%"class.sync_pb::EncryptedData"*, %"class.sync_pb::EncryptedData"* dereferenceable(40)) unnamed_addr #1

; Function Attrs: nounwind ssp uwtable
define linkonce_odr hidden void @_ZN4base8internal7InvokerINS0_9BindStateIMN6syncer21SyncEncryptionHandler8ObserverEFvvEJNS_7WeakPtrIS5_EEEEEFvvEE7RunOnceEPNS0_13BindStateBaseE(%"class.base::internal::BindStateBase"*) #0 comdat align 2 {
  %2 = alloca %"class.logging::CheckError", align 8
  %3 = getelementptr inbounds %"class.base::internal::BindStateBase", %"class.base::internal::BindStateBase"* %0, i64 1
  %4 = getelementptr inbounds %"class.base::internal::BindStateBase", %"class.base::internal::BindStateBase"* %0, i64 1, i32 2
  %5 = bitcast void (%"class.base::internal::BindStateBase"*)** %4 to %"class.base::internal::WeakReference"*
  %6 = tail call zeroext i1 @_ZNK4base8internal13WeakReference7IsValidEv(%"class.base::internal::WeakReference"* %5) #11
  br i1 %6, label %7, label %42

7:                                                ; preds = %1
  %8 = getelementptr inbounds void (%"class.base::internal::BindStateBase"*)*, void (%"class.base::internal::BindStateBase"*)** %4, i64 1
  %9 = bitcast void (%"class.base::internal::BindStateBase"*)** %8 to %"class.syncer::SyncEncryptionHandler::Observer"**
  %10 = load %"class.syncer::SyncEncryptionHandler::Observer"*, %"class.syncer::SyncEncryptionHandler::Observer"** %9, align 8
  %11 = icmp eq %"class.syncer::SyncEncryptionHandler::Observer"* %10, null
  br i1 %11, label %42, label %12

12:                                               ; preds = %7
  %13 = bitcast %"class.base::internal::BindStateBase"* %3 to i64*
  %14 = load i64, i64* %13, align 8
  %15 = getelementptr inbounds %"class.base::internal::BindStateBase", %"class.base::internal::BindStateBase"* %0, i64 1, i32 1
  %16 = bitcast void ()** %15 to i64*
  %17 = load i64, i64* %16, align 8
  %18 = tail call zeroext i1 @_ZNK4base8internal13WeakReference7IsValidEv(%"class.base::internal::WeakReference"* %5) #11
  br i1 %18, label %22, label %19

19:                                               ; preds = %12
  %20 = bitcast %"class.logging::CheckError"* %2 to i8*
  call void @llvm.lifetime.start.p0i8(i64 8, i8* nonnull %20) #11
  call void @_ZN7logging10CheckError5CheckEPKciS2_(%"class.logging::CheckError"* nonnull sret %2, i8* getelementptr inbounds ([29 x i8], [29 x i8]* @.str.5, i64 0, i64 0), i32 251, i8* getelementptr inbounds ([15 x i8], [15 x i8]* @.str.6, i64 0, i64 0)) #11
  %21 = call dereferenceable(160) %"class.std::__1::basic_ostream"* @_ZN7logging10CheckError6streamEv(%"class.logging::CheckError"* nonnull %2) #11
  call void @_ZN7logging10CheckErrorD1Ev(%"class.logging::CheckError"* nonnull %2) #11
  call void @llvm.lifetime.end.p0i8(i64 8, i8* nonnull %20) #11
  br label %22

22:                                               ; preds = %19, %12
  %23 = call zeroext i1 @_ZNK4base8internal13WeakReference7IsValidEv(%"class.base::internal::WeakReference"* %5) #11
  %24 = bitcast void (%"class.base::internal::BindStateBase"*)** %8 to i8**
  %25 = load i8*, i8** %24, align 8
  %26 = select i1 %23, i8* %25, i8* null
  %27 = getelementptr inbounds i8, i8* %26, i64 %17
  %28 = bitcast i8* %27 to %"class.syncer::SyncEncryptionHandler::Observer"*
  %29 = and i64 %14, 1
  %30 = icmp eq i64 %29, 0
  br i1 %30, label %38, label %31

31:                                               ; preds = %22
  %32 = bitcast i8* %27 to i8**
  %33 = load i8*, i8** %32, align 8
  %34 = add i64 %14, -1
  %35 = getelementptr i8, i8* %33, i64 %34
  %36 = bitcast i8* %35 to void (%"class.syncer::SyncEncryptionHandler::Observer"*)**
  %37 = load void (%"class.syncer::SyncEncryptionHandler::Observer"*)*, void (%"class.syncer::SyncEncryptionHandler::Observer"*)** %36, align 8
  br label %40

38:                                               ; preds = %22
  %39 = inttoptr i64 %14 to void (%"class.syncer::SyncEncryptionHandler::Observer"*)*
  br label %40

40:                                               ; preds = %38, %31
  %41 = phi void (%"class.syncer::SyncEncryptionHandler::Observer"*)* [ %37, %31 ], [ %39, %38 ]
  call void %41(%"class.syncer::SyncEncryptionHandler::Observer"* %28) #11
  br label %42

42:                                               ; preds = %1, %7, %40
  ret void
}

; Function Attrs: nounwind ssp uwtable
define linkonce_odr hidden void @_ZN4base8internal9BindStateIMN6syncer21SyncEncryptionHandler8ObserverEFvvEJNS_7WeakPtrIS4_EEEE7DestroyEPKNS0_13BindStateBaseE(%"class.base::internal::BindStateBase"*) #0 comdat align 2 {
  %2 = icmp eq %"class.base::internal::BindStateBase"* %0, null
  br i1 %2, label %7, label %3

3:                                                ; preds = %1
  %4 = getelementptr inbounds %"class.base::internal::BindStateBase", %"class.base::internal::BindStateBase"* %0, i64 1, i32 2
  %5 = bitcast void (%"class.base::internal::BindStateBase"*)** %4 to %"class.base::internal::WeakPtrBase"*
  tail call void @_ZN4base8internal11WeakPtrBaseD2Ev(%"class.base::internal::WeakPtrBase"* %5) #11
  %6 = bitcast %"class.base::internal::BindStateBase"* %0 to i8*
  tail call void @_ZdlPv(i8* %6) #12
  br label %7

7:                                                ; preds = %3, %1
  ret void
}

; Function Attrs: nounwind ssp uwtable
define linkonce_odr hidden zeroext i1 @_ZN4base8internal23QueryCancellationTraitsINS0_9BindStateIMN6syncer21SyncEncryptionHandler8ObserverEFvvEJNS_7WeakPtrIS5_EEEEEEEbPKNS0_13BindStateBaseENSB_21CancellationQueryModeE(%"class.base::internal::BindStateBase"*, i32) #0 comdat {
  %3 = getelementptr inbounds %"class.base::internal::BindStateBase", %"class.base::internal::BindStateBase"* %0, i64 1, i32 2
  switch i32 %1, label %16 [
    i32 0, label %4
    i32 1, label %13
  ]

4:                                                ; preds = %2
  %5 = bitcast void (%"class.base::internal::BindStateBase"*)** %3 to %"class.base::internal::WeakReference"*
  %6 = tail call zeroext i1 @_ZNK4base8internal13WeakReference7IsValidEv(%"class.base::internal::WeakReference"* %5) #11
  %7 = getelementptr inbounds void (%"class.base::internal::BindStateBase"*)*, void (%"class.base::internal::BindStateBase"*)** %3, i64 1
  %8 = bitcast void (%"class.base::internal::BindStateBase"*)** %7 to %"class.syncer::SyncEncryptionHandler::Observer"**
  %9 = load %"class.syncer::SyncEncryptionHandler::Observer"*, %"class.syncer::SyncEncryptionHandler::Observer"** %8, align 8
  %10 = icmp ne %"class.syncer::SyncEncryptionHandler::Observer"* %9, null
  %11 = and i1 %6, %10
  %12 = xor i1 %11, true
  br label %16

13:                                               ; preds = %2
  %14 = bitcast void (%"class.base::internal::BindStateBase"*)** %3 to %"class.base::internal::WeakReference"*
  %15 = tail call zeroext i1 @_ZNK4base8internal13WeakReference10MaybeValidEv(%"class.base::internal::WeakReference"* %14) #11
  br label %16

16:                                               ; preds = %2, %4, %13
  %17 = phi i1 [ %15, %13 ], [ %12, %4 ], [ false, %2 ]
  ret i1 %17
}

; Function Attrs: nounwind ssp uwtable
define linkonce_odr hidden void @_ZN4base8internal7InvokerINS0_9BindStateIMN6syncer21SyncEncryptionHandler8ObserverEFvRKNSt3__112basic_stringIcNS6_11char_traitsIcEENS6_9allocatorIcEEEENS3_18BootstrapTokenTypeEEJNS_7WeakPtrIS5_EESC_SF_EEEFvvEE7RunOnceEPNS0_13BindStateBaseE(%"class.base::internal::BindStateBase"*) #0 comdat align 2 {
  %2 = alloca %"class.logging::CheckError", align 8
  %3 = getelementptr inbounds %"class.base::internal::BindStateBase", %"class.base::internal::BindStateBase"* %0, i64 1
  %4 = getelementptr inbounds %"class.base::internal::BindStateBase", %"class.base::internal::BindStateBase"* %0, i64 1, i32 2
  %5 = getelementptr inbounds void (%"class.base::internal::BindStateBase"*)*, void (%"class.base::internal::BindStateBase"*)** %4, i64 2
  %6 = bitcast void (%"class.base::internal::BindStateBase"*)** %5 to %"class.std::__1::basic_string"*
  %7 = getelementptr inbounds void (%"class.base::internal::BindStateBase"*)*, void (%"class.base::internal::BindStateBase"*)** %4, i64 5
  %8 = bitcast void (%"class.base::internal::BindStateBase"*)** %7 to i32*
  %9 = bitcast void (%"class.base::internal::BindStateBase"*)** %4 to %"class.base::internal::WeakReference"*
  %10 = tail call zeroext i1 @_ZNK4base8internal13WeakReference7IsValidEv(%"class.base::internal::WeakReference"* %9) #11
  br i1 %10, label %11, label %47

11:                                               ; preds = %1
  %12 = getelementptr inbounds void (%"class.base::internal::BindStateBase"*)*, void (%"class.base::internal::BindStateBase"*)** %4, i64 1
  %13 = bitcast void (%"class.base::internal::BindStateBase"*)** %12 to %"class.syncer::SyncEncryptionHandler::Observer"**
  %14 = load %"class.syncer::SyncEncryptionHandler::Observer"*, %"class.syncer::SyncEncryptionHandler::Observer"** %13, align 8
  %15 = icmp eq %"class.syncer::SyncEncryptionHandler::Observer"* %14, null
  br i1 %15, label %47, label %16

16:                                               ; preds = %11
  %17 = bitcast %"class.base::internal::BindStateBase"* %3 to i64*
  %18 = load i64, i64* %17, align 8
  %19 = getelementptr inbounds %"class.base::internal::BindStateBase", %"class.base::internal::BindStateBase"* %0, i64 1, i32 1
  %20 = bitcast void ()** %19 to i64*
  %21 = load i64, i64* %20, align 8
  %22 = tail call zeroext i1 @_ZNK4base8internal13WeakReference7IsValidEv(%"class.base::internal::WeakReference"* %9) #11
  br i1 %22, label %26, label %23

23:                                               ; preds = %16
  %24 = bitcast %"class.logging::CheckError"* %2 to i8*
  call void @llvm.lifetime.start.p0i8(i64 8, i8* nonnull %24) #11
  call void @_ZN7logging10CheckError5CheckEPKciS2_(%"class.logging::CheckError"* nonnull sret %2, i8* getelementptr inbounds ([29 x i8], [29 x i8]* @.str.5, i64 0, i64 0), i32 251, i8* getelementptr inbounds ([15 x i8], [15 x i8]* @.str.6, i64 0, i64 0)) #11
  %25 = call dereferenceable(160) %"class.std::__1::basic_ostream"* @_ZN7logging10CheckError6streamEv(%"class.logging::CheckError"* nonnull %2) #11
  call void @_ZN7logging10CheckErrorD1Ev(%"class.logging::CheckError"* nonnull %2) #11
  call void @llvm.lifetime.end.p0i8(i64 8, i8* nonnull %24) #11
  br label %26

26:                                               ; preds = %23, %16
  %27 = call zeroext i1 @_ZNK4base8internal13WeakReference7IsValidEv(%"class.base::internal::WeakReference"* %9) #11
  %28 = bitcast void (%"class.base::internal::BindStateBase"*)** %12 to i8**
  %29 = load i8*, i8** %28, align 8
  %30 = select i1 %27, i8* %29, i8* null
  %31 = getelementptr inbounds i8, i8* %30, i64 %21
  %32 = bitcast i8* %31 to %"class.syncer::SyncEncryptionHandler::Observer"*
  %33 = and i64 %18, 1
  %34 = icmp eq i64 %33, 0
  br i1 %34, label %42, label %35

35:                                               ; preds = %26
  %36 = bitcast i8* %31 to i8**
  %37 = load i8*, i8** %36, align 8
  %38 = add i64 %18, -1
  %39 = getelementptr i8, i8* %37, i64 %38
  %40 = bitcast i8* %39 to void (%"class.syncer::SyncEncryptionHandler::Observer"*, %"class.std::__1::basic_string"*, i32)**
  %41 = load void (%"class.syncer::SyncEncryptionHandler::Observer"*, %"class.std::__1::basic_string"*, i32)*, void (%"class.syncer::SyncEncryptionHandler::Observer"*, %"class.std::__1::basic_string"*, i32)** %40, align 8
  br label %44

42:                                               ; preds = %26
  %43 = inttoptr i64 %18 to void (%"class.syncer::SyncEncryptionHandler::Observer"*, %"class.std::__1::basic_string"*, i32)*
  br label %44

44:                                               ; preds = %42, %35
  %45 = phi void (%"class.syncer::SyncEncryptionHandler::Observer"*, %"class.std::__1::basic_string"*, i32)* [ %41, %35 ], [ %43, %42 ]
  %46 = load i32, i32* %8, align 4
  call void %45(%"class.syncer::SyncEncryptionHandler::Observer"* %32, %"class.std::__1::basic_string"* dereferenceable(24) %6, i32 %46) #11
  br label %47

47:                                               ; preds = %1, %11, %44
  ret void
}

; Function Attrs: nounwind ssp uwtable
define linkonce_odr hidden void @_ZN4base8internal9BindStateIMN6syncer21SyncEncryptionHandler8ObserverEFvRKNSt3__112basic_stringIcNS5_11char_traitsIcEENS5_9allocatorIcEEEENS2_18BootstrapTokenTypeEEJNS_7WeakPtrIS4_EESB_SE_EE7DestroyEPKNS0_13BindStateBaseE(%"class.base::internal::BindStateBase"*) #0 comdat align 2 {
  %2 = icmp eq %"class.base::internal::BindStateBase"* %0, null
  br i1 %2, label %16, label %3

3:                                                ; preds = %1
  %4 = getelementptr inbounds %"class.base::internal::BindStateBase", %"class.base::internal::BindStateBase"* %0, i64 2
  %5 = bitcast %"class.base::internal::BindStateBase"* %4 to %"struct.std::__1::basic_string<char, std::__1::char_traits<char>, std::__1::allocator<char> >::__short"*
  %6 = getelementptr inbounds %"struct.std::__1::basic_string<char, std::__1::char_traits<char>, std::__1::allocator<char> >::__short", %"struct.std::__1::basic_string<char, std::__1::char_traits<char>, std::__1::allocator<char> >::__short"* %5, i64 0, i32 1, i32 0
  %7 = load i8, i8* %6, align 1
  %8 = icmp slt i8 %7, 0
  br i1 %8, label %9, label %12

9:                                                ; preds = %3
  %10 = bitcast %"class.base::internal::BindStateBase"* %4 to i8**
  %11 = load i8*, i8** %10, align 8
  tail call void @_ZdlPv(i8* %11) #12
  br label %12

12:                                               ; preds = %3, %9
  %13 = getelementptr inbounds %"class.base::internal::BindStateBase", %"class.base::internal::BindStateBase"* %0, i64 1, i32 2
  %14 = bitcast void (%"class.base::internal::BindStateBase"*)** %13 to %"class.base::internal::WeakPtrBase"*
  tail call void @_ZN4base8internal11WeakPtrBaseD2Ev(%"class.base::internal::WeakPtrBase"* %14) #11
  %15 = bitcast %"class.base::internal::BindStateBase"* %0 to i8*
  tail call void @_ZdlPv(i8* %15) #12
  br label %16

16:                                               ; preds = %12, %1
  ret void
}

; Function Attrs: nounwind ssp uwtable
define linkonce_odr hidden zeroext i1 @_ZN4base8internal23QueryCancellationTraitsINS0_9BindStateIMN6syncer21SyncEncryptionHandler8ObserverEFvRKNSt3__112basic_stringIcNS6_11char_traitsIcEENS6_9allocatorIcEEEENS3_18BootstrapTokenTypeEEJNS_7WeakPtrIS5_EESC_SF_EEEEEbPKNS0_13BindStateBaseENSL_21CancellationQueryModeE(%"class.base::internal::BindStateBase"*, i32) #0 comdat {
  %3 = getelementptr inbounds %"class.base::internal::BindStateBase", %"class.base::internal::BindStateBase"* %0, i64 1, i32 2
  switch i32 %1, label %16 [
    i32 0, label %4
    i32 1, label %13
  ]

4:                                                ; preds = %2
  %5 = bitcast void (%"class.base::internal::BindStateBase"*)** %3 to %"class.base::internal::WeakReference"*
  %6 = tail call zeroext i1 @_ZNK4base8internal13WeakReference7IsValidEv(%"class.base::internal::WeakReference"* %5) #11
  %7 = getelementptr inbounds void (%"class.base::internal::BindStateBase"*)*, void (%"class.base::internal::BindStateBase"*)** %3, i64 1
  %8 = bitcast void (%"class.base::internal::BindStateBase"*)** %7 to %"class.syncer::SyncEncryptionHandler::Observer"**
  %9 = load %"class.syncer::SyncEncryptionHandler::Observer"*, %"class.syncer::SyncEncryptionHandler::Observer"** %8, align 8
  %10 = icmp ne %"class.syncer::SyncEncryptionHandler::Observer"* %9, null
  %11 = and i1 %6, %10
  %12 = xor i1 %11, true
  br label %16

13:                                               ; preds = %2
  %14 = bitcast void (%"class.base::internal::BindStateBase"*)** %3 to %"class.base::internal::WeakReference"*
  %15 = tail call zeroext i1 @_ZNK4base8internal13WeakReference10MaybeValidEv(%"class.base::internal::WeakReference"* %14) #11
  br label %16

16:                                               ; preds = %2, %4, %13
  %17 = phi i1 [ %15, %13 ], [ %12, %4 ], [ false, %2 ]
  ret i1 %17
}

declare void @_ZNSt3__112basic_stringIcNS_11char_traitsIcEENS_9allocatorIcEEE25__init_copy_ctor_externalEPKcm(%"class.std::__1::basic_string"*, i8*, i64) local_unnamed_addr #1

; Function Attrs: nounwind ssp uwtable
define linkonce_odr hidden void @_ZN4base8internal7InvokerINS0_9BindStateIMN6syncer21SyncEncryptionHandler8ObserverEFvNS3_7EnumSetINS3_9ModelTypeELS7_1ELS7_37EEEbEJNS_7WeakPtrIS5_EES8_bEEEFvvEE7RunOnceEPNS0_13BindStateBaseE(%"class.base::internal::BindStateBase"*) #0 comdat align 2 {
  %2 = alloca %"class.logging::CheckError", align 8
  %3 = getelementptr inbounds %"class.base::internal::BindStateBase", %"class.base::internal::BindStateBase"* %0, i64 1
  %4 = getelementptr inbounds %"class.base::internal::BindStateBase", %"class.base::internal::BindStateBase"* %0, i64 1, i32 2
  %5 = getelementptr inbounds void (%"class.base::internal::BindStateBase"*)*, void (%"class.base::internal::BindStateBase"*)** %4, i64 3
  %6 = bitcast void (%"class.base::internal::BindStateBase"*)** %5 to i8*
  %7 = bitcast void (%"class.base::internal::BindStateBase"*)** %4 to %"class.base::internal::WeakReference"*
  %8 = tail call zeroext i1 @_ZNK4base8internal13WeakReference7IsValidEv(%"class.base::internal::WeakReference"* %7) #11
  br i1 %8, label %9, label %49

9:                                                ; preds = %1
  %10 = getelementptr inbounds void (%"class.base::internal::BindStateBase"*)*, void (%"class.base::internal::BindStateBase"*)** %4, i64 1
  %11 = bitcast void (%"class.base::internal::BindStateBase"*)** %10 to %"class.syncer::SyncEncryptionHandler::Observer"**
  %12 = load %"class.syncer::SyncEncryptionHandler::Observer"*, %"class.syncer::SyncEncryptionHandler::Observer"** %11, align 8
  %13 = icmp eq %"class.syncer::SyncEncryptionHandler::Observer"* %12, null
  br i1 %13, label %49, label %14

14:                                               ; preds = %9
  %15 = bitcast %"class.base::internal::BindStateBase"* %3 to i64*
  %16 = load i64, i64* %15, align 8
  %17 = getelementptr inbounds %"class.base::internal::BindStateBase", %"class.base::internal::BindStateBase"* %0, i64 1, i32 1
  %18 = bitcast void ()** %17 to i64*
  %19 = load i64, i64* %18, align 8
  %20 = tail call zeroext i1 @_ZNK4base8internal13WeakReference7IsValidEv(%"class.base::internal::WeakReference"* %7) #11
  br i1 %20, label %24, label %21

21:                                               ; preds = %14
  %22 = bitcast %"class.logging::CheckError"* %2 to i8*
  call void @llvm.lifetime.start.p0i8(i64 8, i8* nonnull %22) #11
  call void @_ZN7logging10CheckError5CheckEPKciS2_(%"class.logging::CheckError"* nonnull sret %2, i8* getelementptr inbounds ([29 x i8], [29 x i8]* @.str.5, i64 0, i64 0), i32 251, i8* getelementptr inbounds ([15 x i8], [15 x i8]* @.str.6, i64 0, i64 0)) #11
  %23 = call dereferenceable(160) %"class.std::__1::basic_ostream"* @_ZN7logging10CheckError6streamEv(%"class.logging::CheckError"* nonnull %2) #11
  call void @_ZN7logging10CheckErrorD1Ev(%"class.logging::CheckError"* nonnull %2) #11
  call void @llvm.lifetime.end.p0i8(i64 8, i8* nonnull %22) #11
  br label %24

24:                                               ; preds = %21, %14
  %25 = call zeroext i1 @_ZNK4base8internal13WeakReference7IsValidEv(%"class.base::internal::WeakReference"* %7) #11
  %26 = bitcast void (%"class.base::internal::BindStateBase"*)** %10 to i8**
  %27 = load i8*, i8** %26, align 8
  %28 = select i1 %25, i8* %27, i8* null
