; ModuleID = '../../chrome/renderer/extensions/sync_file_system_custom_bindings.cc'
source_filename = "../../chrome/renderer/extensions/sync_file_system_custom_bindings.cc"
target datalayout = "e-m:e-i64:64-f80:128-n8:16:32:64-S128"
target triple = "x86_64-unknown-linux-gnu"

module asm ".symver exp, exp@GLIBC_2.2.5"
module asm ".symver exp2, exp2@GLIBC_2.2.5"
module asm ".symver exp2f, exp2f@GLIBC_2.2.5"
module asm ".symver expf, expf@GLIBC_2.2.5"
module asm ".symver lgamma, lgamma@GLIBC_2.2.5"
module asm ".symver lgammaf, lgammaf@GLIBC_2.2.5"
module asm ".symver lgammal, lgammal@GLIBC_2.2.5"
module asm ".symver log, log@GLIBC_2.2.5"
module asm ".symver log2, log2@GLIBC_2.2.5"
module asm ".symver log2f, log2f@GLIBC_2.2.5"
module asm ".symver logf, logf@GLIBC_2.2.5"
module asm ".symver pow, pow@GLIBC_2.2.5"
module asm ".symver powf, powf@GLIBC_2.2.5"

%"class.extensions::SyncFileSystemCustomBindings" = type { %"class.extensions::ObjectBackedNativeHandler" }
%"class.extensions::ObjectBackedNativeHandler" = type { %"class.extensions::NativeHandler.base", i32, %"class.v8::PersistentValueVector", %"class.extensions::ScriptContext"*, %"class.v8::Global.32" }
%"class.extensions::NativeHandler.base" = type <{ i32 (...)**, i8 }>
%"class.v8::PersistentValueVector" = type { %"class.v8::Isolate"*, %"class.std::__1::vector" }
%"class.v8::Isolate" = type { i8 }
%"class.std::__1::vector" = type { %"class.std::__1::__vector_base" }
%"class.std::__1::__vector_base" = type { i64*, i64*, %"class.std::__1::__compressed_pair" }
%"class.std::__1::__compressed_pair" = type { %"struct.std::__1::__compressed_pair_elem" }
%"struct.std::__1::__compressed_pair_elem" = type { i64* }
%"class.v8::Global.32" = type { %"class.v8::PersistentBase.33" }
%"class.v8::PersistentBase.33" = type { %"class.v8::ObjectTemplate"* }
%"class.v8::ObjectTemplate" = type { i8 }
%"class.extensions::ScriptContext" = type <{ i8, [7 x i8], %"class.v8::Global", %"class.blink::WebLocalFrame"*, %class.scoped_refptr, i32, [4 x i8], %class.scoped_refptr, i32, [4 x i8], %"class.base::UnguessableToken", %"class.std::__1::unique_ptr", %"class.extensions::SafeBuiltins", %"class.extensions::APIPermissionSet", %"class.std::__1::vector.12", %"class.v8::Isolate"*, %class.GURL, %class.GURL, i64, %"class.base::ThreadChecker", [7 x i8] }>
%"class.v8::Global" = type { %"class.v8::PersistentBase" }
%"class.v8::PersistentBase" = type { %"class.v8::Context"* }
%"class.v8::Context" = type { i8 }
%"class.blink::WebLocalFrame" = type { %"class.blink::WebFrame" }
%"class.blink::WebFrame" = type { i32 (...)**, i32, [4 x i8], %"class.blink::MultiToken" }
%"class.blink::MultiToken" = type <{ %"class.base::UnguessableToken", i32, [4 x i8] }>
%class.scoped_refptr = type { %"class.extensions::Extension"* }
%"class.extensions::Extension" = type opaque
%"class.base::UnguessableToken" = type { %"class.base::Token" }
%"class.base::Token" = type { i64, i64 }
%"class.std::__1::unique_ptr" = type { %"class.std::__1::__compressed_pair.1" }
%"class.std::__1::__compressed_pair.1" = type { %"struct.std::__1::__compressed_pair_elem.2" }
%"struct.std::__1::__compressed_pair_elem.2" = type { %"class.extensions::ModuleSystem"* }
%"class.extensions::ModuleSystem" = type { %"class.extensions::ObjectBackedNativeHandler", %"class.extensions::ScriptContext"*, %"class.extensions::SourceMap"*, %"class.std::__1::map.34", i32, %"class.std::__1::unique_ptr.45", %"class.std::__1::set", %"class.std::__1::vector.58", %"class.v8::Eternal", %"class.base::RepeatingCallback", %"class.std::__1::set" }
%"class.extensions::SourceMap" = type opaque
%"class.std::__1::map.34" = type { %"class.std::__1::__tree.35" }
%"class.std::__1::__tree.35" = type { %"class.std::__1::__tree_end_node"*, %"class.std::__1::__compressed_pair.36", %"class.std::__1::__compressed_pair.40" }
%"class.std::__1::__tree_end_node" = type { %"class.std::__1::__tree_node_base"* }
%"class.std::__1::__tree_node_base" = type <{ %"class.std::__1::__tree_end_node", %"class.std::__1::__tree_node_base"*, %"class.std::__1::__tree_end_node"*, i8, [7 x i8] }>
%"class.std::__1::__compressed_pair.36" = type { %"struct.std::__1::__compressed_pair_elem.5" }
%"struct.std::__1::__compressed_pair_elem.5" = type { %"class.std::__1::__tree_end_node" }
%"class.std::__1::__compressed_pair.40" = type { %"struct.std::__1::__compressed_pair_elem.10" }
%"struct.std::__1::__compressed_pair_elem.10" = type { i64 }
%"class.std::__1::unique_ptr.45" = type { %"class.std::__1::__compressed_pair.46" }
%"class.std::__1::__compressed_pair.46" = type { %"struct.std::__1::__compressed_pair_elem.47" }
%"struct.std::__1::__compressed_pair_elem.47" = type { %"class.extensions::ModuleSystem::ExceptionHandler"* }
%"class.extensions::ModuleSystem::ExceptionHandler" = type { i32 (...)**, %"class.extensions::ScriptContext"* }
%"class.std::__1::vector.58" = type { %"class.std::__1::__vector_base.59" }
%"class.std::__1::__vector_base.59" = type { %"class.std::__1::unique_ptr.60"*, %"class.std::__1::unique_ptr.60"*, %"class.std::__1::__compressed_pair.61" }
%"class.std::__1::unique_ptr.60" = type opaque
%"class.std::__1::__compressed_pair.61" = type { %"struct.std::__1::__compressed_pair_elem.62" }
%"struct.std::__1::__compressed_pair_elem.62" = type { %"class.std::__1::unique_ptr.60"* }
%"class.v8::Eternal" = type { %"class.v8::FunctionTemplate"* }
%"class.v8::FunctionTemplate" = type { i8 }
%"class.base::RepeatingCallback" = type { %"class.base::internal::CallbackBaseCopyable" }
%"class.base::internal::CallbackBaseCopyable" = type { %"class.base::internal::CallbackBase" }
%"class.base::internal::CallbackBase" = type { %class.scoped_refptr.14 }
%class.scoped_refptr.14 = type { %"class.base::internal::BindStateBase"* }
%"class.base::internal::BindStateBase" = type { %"class.base::RefCountedThreadSafe", void ()*, void (%"class.base::internal::BindStateBase"*)*, i1 (%"class.base::internal::BindStateBase"*, i32)* }
%"class.base::RefCountedThreadSafe" = type { %"class.base::subtle::RefCountedThreadSafeBase" }
%"class.base::subtle::RefCountedThreadSafeBase" = type { %"class.base::AtomicRefCount" }
%"class.base::AtomicRefCount" = type { %"struct.std::__1::atomic" }
%"struct.std::__1::atomic" = type { %"struct.std::__1::__atomic_base" }
%"struct.std::__1::__atomic_base" = type { %"struct.std::__1::__atomic_base.15" }
%"struct.std::__1::__atomic_base.15" = type { %"struct.std::__1::__cxx_atomic_impl" }
%"struct.std::__1::__cxx_atomic_impl" = type { %"struct.std::__1::__cxx_atomic_base_impl" }
%"struct.std::__1::__cxx_atomic_base_impl" = type { i32 }
%"class.std::__1::set" = type { %"class.std::__1::__tree.51" }
%"class.std::__1::__tree.51" = type { %"class.std::__1::__tree_end_node"*, %"class.std::__1::__compressed_pair.52", %"class.std::__1::__compressed_pair.56" }
%"class.std::__1::__compressed_pair.52" = type { %"struct.std::__1::__compressed_pair_elem.5" }
%"class.std::__1::__compressed_pair.56" = type { %"struct.std::__1::__compressed_pair_elem.10" }
%"class.extensions::SafeBuiltins" = type { %"class.extensions::ScriptContext"* }
%"class.extensions::APIPermissionSet" = type { %"class.extensions::BaseSetOperators" }
%"class.extensions::BaseSetOperators" = type { %"class.std::__1::map" }
%"class.std::__1::map" = type { %"class.std::__1::__tree" }
%"class.std::__1::__tree" = type { %"class.std::__1::__tree_end_node"*, %"class.std::__1::__compressed_pair.4", %"class.std::__1::__compressed_pair.9" }
%"class.std::__1::__compressed_pair.4" = type { %"struct.std::__1::__compressed_pair_elem.5" }
%"class.std::__1::__compressed_pair.9" = type { %"struct.std::__1::__compressed_pair_elem.10" }
%"class.std::__1::vector.12" = type { %"class.std::__1::__vector_base.13" }
%"class.std::__1::__vector_base.13" = type { %"class.base::OnceCallback"*, %"class.base::OnceCallback"*, %"class.std::__1::__compressed_pair.16" }
%"class.base::OnceCallback" = type { %"class.base::internal::CallbackBase" }
%"class.std::__1::__compressed_pair.16" = type { %"struct.std::__1::__compressed_pair_elem.17" }
%"struct.std::__1::__compressed_pair_elem.17" = type { %"class.base::OnceCallback"* }
%class.GURL = type { %"class.std::__1::basic_string", i8, %"struct.url::Parsed", %"class.std::__1::unique_ptr.26" }
%"class.std::__1::basic_string" = type { %"class.std::__1::__compressed_pair.21" }
%"class.std::__1::__compressed_pair.21" = type { %"struct.std::__1::__compressed_pair_elem.22" }
%"struct.std::__1::__compressed_pair_elem.22" = type { %"struct.std::__1::basic_string<char, std::__1::char_traits<char>, std::__1::allocator<char> >::__rep" }
%"struct.std::__1::basic_string<char, std::__1::char_traits<char>, std::__1::allocator<char> >::__rep" = type { %union.anon }
%union.anon = type { %"struct.std::__1::basic_string<char, std::__1::char_traits<char>, std::__1::allocator<char> >::__long" }
%"struct.std::__1::basic_string<char, std::__1::char_traits<char>, std::__1::allocator<char> >::__long" = type { i8*, i64, i64 }
%"struct.url::Parsed" = type { %"struct.url::Component", %"struct.url::Component", %"struct.url::Component", %"struct.url::Component", %"struct.url::Component", %"struct.url::Component", %"struct.url::Component", %"struct.url::Component", i8, %"struct.url::Parsed"* }
%"struct.url::Component" = type { i32, i32 }
%"class.std::__1::unique_ptr.26" = type { %"class.std::__1::__compressed_pair.27" }
%"class.std::__1::__compressed_pair.27" = type { %"struct.std::__1::__compressed_pair_elem.28" }
%"struct.std::__1::__compressed_pair_elem.28" = type { %class.GURL* }
%"class.base::ThreadChecker" = type { i8 }
%"class.base::RepeatingCallback.66" = type { %"class.base::internal::CallbackBaseCopyable" }
%"struct.std::__1::basic_string<char, std::__1::char_traits<char>, std::__1::allocator<char> >::__short" = type { [23 x i8], %struct.anon }
%struct.anon = type { i8 }
%"class.v8::FunctionCallbackInfo" = type <{ i64*, i64*, i32, [4 x i8] }>
%"class.v8::String::Utf8Value" = type <{ i8*, i32, [4 x i8] }>
%"class.blink::WebDOMFileSystem" = type { %"class.blink::WebPrivatePtr" }
%"class.blink::WebPrivatePtr" = type { i8* }
%"class.blink::WebString" = type { %class.scoped_refptr.68 }
%class.scoped_refptr.68 = type { %"class.WTF::StringImpl"* }
%"class.WTF::StringImpl" = type opaque
%"class.blink::WebURL" = type <{ %"class.blink::WebString", %"struct.url::Parsed", i8, [7 x i8] }>
%"class.v8::Value" = type { i8 }
%"class.std::__1::__basic_string_common" = type { i8 }
%"class.v8::internal::Isolate" = type opaque
%"class.v8::Object" = type { i8 }

$_ZN10extensions28SyncFileSystemCustomBindingsD0Ev = comdat any

$_ZN4base8internal7InvokerINS0_9BindStateIMN10extensions28SyncFileSystemCustomBindingsEFvRKN2v820FunctionCallbackInfoINS5_5ValueEEEEJNS0_17UnretainedWrapperIS4_EEEEEFvSA_EE3RunEPNS0_13BindStateBaseESA_ = comdat any

$_ZN4base8internal9BindStateIMN10extensions28SyncFileSystemCustomBindingsEFvRKN2v820FunctionCallbackInfoINS4_5ValueEEEEJNS0_17UnretainedWrapperIS3_EEEE7DestroyEPKNS0_13BindStateBaseE = comdat any

@_ZTVN10extensions28SyncFileSystemCustomBindingsE = hidden unnamed_addr constant { [9 x i8*] } { [9 x i8*] [i8* null, i8* null, i8* bitcast (void (%"class.extensions::ObjectBackedNativeHandler"*)* @_ZN10extensions25ObjectBackedNativeHandlerD2Ev to i8*), i8* bitcast (void (%"class.extensions::SyncFileSystemCustomBindings"*)* @_ZN10extensions28SyncFileSystemCustomBindingsD0Ev to i8*), i8* bitcast (void (%"class.extensions::ObjectBackedNativeHandler"*)* @_ZN10extensions25ObjectBackedNativeHandler10InitializeEv to i8*), i8* bitcast (i1 (%"class.extensions::ObjectBackedNativeHandler"*)* @_ZN10extensions25ObjectBackedNativeHandler13IsInitializedEv to i8*), i8* bitcast (%"class.v8::Object"* (%"class.extensions::ObjectBackedNativeHandler"*)* @_ZN10extensions25ObjectBackedNativeHandler11NewInstanceEv to i8*), i8* bitcast (void (%"class.extensions::ObjectBackedNativeHandler"*)* @_ZN10extensions25ObjectBackedNativeHandler10InvalidateEv to i8*), i8* bitcast (void (%"class.extensions::SyncFileSystemCustomBindings"*)* @_ZN10extensions28SyncFileSystemCustomBindings9AddRoutesEv to i8*)] }, align 8
@.str = private unnamed_addr constant [24 x i8] c"GetSyncFileSystemObject\00", align 1
@.str.1 = private unnamed_addr constant [15 x i8] c"syncFileSystem\00", align 1

@_ZN10extensions28SyncFileSystemCustomBindingsC1EPNS_13ScriptContextE = hidden unnamed_addr alias void (%"class.extensions::SyncFileSystemCustomBindings"*, %"class.extensions::ScriptContext"*), void (%"class.extensions::SyncFileSystemCustomBindings"*, %"class.extensions::ScriptContext"*)* @_ZN10extensions28SyncFileSystemCustomBindingsC2EPNS_13ScriptContextE

; Function Attrs: nounwind ssp uwtable
define hidden void @_ZN10extensions28SyncFileSystemCustomBindingsC2EPNS_13ScriptContextE(%"class.extensions::SyncFileSystemCustomBindings"*, %"class.extensions::ScriptContext"*) unnamed_addr #0 align 2 {
  %3 = getelementptr inbounds %"class.extensions::SyncFileSystemCustomBindings", %"class.extensions::SyncFileSystemCustomBindings"* %0, i64 0, i32 0
  tail call void @_ZN10extensions25ObjectBackedNativeHandlerC2EPNS_13ScriptContextE(%"class.extensions::ObjectBackedNativeHandler"* %3, %"class.extensions::ScriptContext"* %1) #9
  %4 = getelementptr inbounds %"class.extensions::SyncFileSystemCustomBindings", %"class.extensions::SyncFileSystemCustomBindings"* %0, i64 0, i32 0, i32 0, i32 0
  store i32 (...)** bitcast (i8** getelementptr inbounds ({ [9 x i8*] }, { [9 x i8*] }* @_ZTVN10extensions28SyncFileSystemCustomBindingsE, i64 0, inrange i32 0, i64 2) to i32 (...)**), i32 (...)*** %4, align 8
  ret void
}

declare void @_ZN10extensions25ObjectBackedNativeHandlerC2EPNS_13ScriptContextE(%"class.extensions::ObjectBackedNativeHandler"*, %"class.extensions::ScriptContext"*) unnamed_addr #1

; Function Attrs: nounwind ssp uwtable
define hidden void @_ZN10extensions28SyncFileSystemCustomBindings9AddRoutesEv(%"class.extensions::SyncFileSystemCustomBindings"*) unnamed_addr #0 align 2 {
  %2 = alloca %"class.std::__1::basic_string", align 8
  %3 = alloca %"class.std::__1::basic_string", align 8
  %4 = alloca %"class.base::RepeatingCallback.66", align 8
  %5 = getelementptr inbounds %"class.extensions::SyncFileSystemCustomBindings", %"class.extensions::SyncFileSystemCustomBindings"* %0, i64 0, i32 0
  %6 = bitcast %"class.std::__1::basic_string"* %2 to i8*
  call void @llvm.lifetime.start.p0i8(i64 24, i8* nonnull %6) #9
  %7 = tail call i8* @_Znwm(i64 32) #10
  %8 = getelementptr inbounds %"class.std::__1::basic_string", %"class.std::__1::basic_string"* %2, i64 0, i32 0, i32 0, i32 0, i32 0, i32 0, i32 0
  store i8* %7, i8** %8, align 8
  %9 = getelementptr inbounds %"class.std::__1::basic_string", %"class.std::__1::basic_string"* %2, i64 0, i32 0, i32 0, i32 0, i32 0, i32 0, i32 1
  %10 = bitcast i64* %9 to <2 x i64>*
  store <2 x i64> <i64 23, i64 -9223372036854775776>, <2 x i64>* %10, align 8
  call void @llvm.memcpy.p0i8.p0i8.i64(i8* nonnull align 1 %7, i8* align 1 getelementptr inbounds ([24 x i8], [24 x i8]* @.str, i64 0, i64 0), i64 23, i1 false) #9
  %11 = getelementptr inbounds i8, i8* %7, i64 23
  store i8 0, i8* %11, align 1
  %12 = bitcast %"class.std::__1::basic_string"* %3 to i8*
  call void @llvm.lifetime.start.p0i8(i64 24, i8* nonnull %12) #9
  %13 = bitcast %"class.std::__1::basic_string"* %3 to %"struct.std::__1::basic_string<char, std::__1::char_traits<char>, std::__1::allocator<char> >::__short"*
  %14 = getelementptr inbounds %"struct.std::__1::basic_string<char, std::__1::char_traits<char>, std::__1::allocator<char> >::__short", %"struct.std::__1::basic_string<char, std::__1::char_traits<char>, std::__1::allocator<char> >::__short"* %13, i64 0, i32 1, i32 0
  store i8 14, i8* %14, align 1
  call void @llvm.memcpy.p0i8.p0i8.i64(i8* nonnull align 8 %12, i8* align 1 getelementptr inbounds ([15 x i8], [15 x i8]* @.str.1, i64 0, i64 0), i64 14, i1 false) #9
  %15 = getelementptr inbounds i8, i8* %12, i64 14
  store i8 0, i8* %15, align 2
  %16 = ptrtoint %"class.extensions::SyncFileSystemCustomBindings"* %0 to i64
  %17 = tail call i8* @_Znwm(i64 56) #10, !noalias !2
  %18 = bitcast i8* %17 to %"class.base::internal::BindStateBase"*
  tail call void @_ZN4base8internal13BindStateBaseC2EPFvvEPFvPKS1_E(%"class.base::internal::BindStateBase"* nonnull %18, void ()* bitcast (void (%"class.base::internal::BindStateBase"*, %"class.v8::FunctionCallbackInfo"*)* @_ZN4base8internal7InvokerINS0_9BindStateIMN10extensions28SyncFileSystemCustomBindingsEFvRKN2v820FunctionCallbackInfoINS5_5ValueEEEEJNS0_17UnretainedWrapperIS4_EEEEEFvSA_EE3RunEPNS0_13BindStateBaseESA_ to void ()*), void (%"class.base::internal::BindStateBase"*)* nonnull @_ZN4base8internal9BindStateIMN10extensions28SyncFileSystemCustomBindingsEFvRKN2v820FunctionCallbackInfoINS4_5ValueEEEEJNS0_17UnretainedWrapperIS3_EEEE7DestroyEPKNS0_13BindStateBaseE) #9, !noalias !2
  %19 = getelementptr inbounds i8, i8* %17, i64 32
  %20 = bitcast i8* %19 to <2 x i64>*
  store <2 x i64> <i64 ptrtoint (void (%"class.extensions::SyncFileSystemCustomBindings"*, %"class.v8::FunctionCallbackInfo"*)* @_ZN10extensions28SyncFileSystemCustomBindings23GetSyncFileSystemObjectERKN2v820FunctionCallbackInfoINS1_5ValueEEE to i64), i64 0>, <2 x i64>* %20, align 8, !noalias !2
  %21 = getelementptr inbounds i8, i8* %17, i64 48
  %22 = bitcast i8* %21 to i64*
  store i64 %16, i64* %22, align 8, !noalias !2
  %23 = bitcast %"class.base::RepeatingCallback.66"* %4 to i8**
  store i8* %17, i8** %23, align 8, !alias.scope !2
  call void @_ZN10extensions25ObjectBackedNativeHandler20RouteHandlerFunctionERKNSt3__112basic_stringIcNS1_11char_traitsIcEENS1_9allocatorIcEEEES9_N4base17RepeatingCallbackIFvRKN2v820FunctionCallbackInfoINSC_5ValueEEEEEE(%"class.extensions::ObjectBackedNativeHandler"* %5, %"class.std::__1::basic_string"* nonnull dereferenceable(24) %2, %"class.std::__1::basic_string"* nonnull dereferenceable(24) %3, %"class.base::RepeatingCallback.66"* nonnull %4) #9
  %24 = getelementptr inbounds %"class.base::RepeatingCallback.66", %"class.base::RepeatingCallback.66"* %4, i64 0, i32 0, i32 0
  call void @_ZN4base8internal12CallbackBaseD2Ev(%"class.base::internal::CallbackBase"* nonnull %24) #9
  %25 = load i8, i8* %14, align 1
  %26 = icmp slt i8 %25, 0
  br i1 %26, label %27, label %30

27:                                               ; preds = %1
  %28 = getelementptr inbounds %"class.std::__1::basic_string", %"class.std::__1::basic_string"* %3, i64 0, i32 0, i32 0, i32 0, i32 0, i32 0, i32 0
  %29 = load i8*, i8** %28, align 8
  call void @_ZdlPv(i8* %29) #10
  br label %30

30:                                               ; preds = %1, %27
  call void @llvm.lifetime.end.p0i8(i64 24, i8* nonnull %12) #9
  %31 = bitcast %"class.std::__1::basic_string"* %2 to %"struct.std::__1::basic_string<char, std::__1::char_traits<char>, std::__1::allocator<char> >::__short"*
  %32 = getelementptr inbounds %"struct.std::__1::basic_string<char, std::__1::char_traits<char>, std::__1::allocator<char> >::__short", %"struct.std::__1::basic_string<char, std::__1::char_traits<char>, std::__1::allocator<char> >::__short"* %31, i64 0, i32 1, i32 0
  %33 = load i8, i8* %32, align 1
  %34 = icmp slt i8 %33, 0
  br i1 %34, label %35, label %37

35:                                               ; preds = %30
  %36 = load i8*, i8** %8, align 8
  call void @_ZdlPv(i8* %36) #10
  br label %37

37:                                               ; preds = %30, %35
  call void @llvm.lifetime.end.p0i8(i64 24, i8* nonnull %6) #9
  ret void
}

declare void @_ZN10extensions25ObjectBackedNativeHandler20RouteHandlerFunctionERKNSt3__112basic_stringIcNS1_11char_traitsIcEENS1_9allocatorIcEEEES9_N4base17RepeatingCallbackIFvRKN2v820FunctionCallbackInfoINSC_5ValueEEEEEE(%"class.extensions::ObjectBackedNativeHandler"*, %"class.std::__1::basic_string"* dereferenceable(24), %"class.std::__1::basic_string"* dereferenceable(24), %"class.base::RepeatingCallback.66"*) local_unnamed_addr #1

; Function Attrs: argmemonly nounwind
declare void @llvm.lifetime.start.p0i8(i64 immarg, i8* nocapture) #2

; Function Attrs: nounwind ssp uwtable
define hidden void @_ZN10extensions28SyncFileSystemCustomBindings23GetSyncFileSystemObjectERKN2v820FunctionCallbackInfoINS1_5ValueEEE(%"class.extensions::SyncFileSystemCustomBindings"* nocapture readonly, %"class.v8::FunctionCallbackInfo"* nocapture readonly dereferenceable(24)) #0 align 2 {
  %3 = alloca %"class.std::__1::basic_string", align 8
  %4 = alloca %"class.v8::String::Utf8Value", align 8
  %5 = alloca %"class.std::__1::basic_string", align 8
  %6 = alloca %"class.v8::String::Utf8Value", align 8
  %7 = alloca %"class.blink::WebDOMFileSystem", align 8
  %8 = alloca %"class.blink::WebString", align 8
  %9 = alloca %"class.blink::WebURL", align 8
  %10 = alloca %class.GURL, align 8
  %11 = getelementptr inbounds %"class.v8::FunctionCallbackInfo", %"class.v8::FunctionCallbackInfo"* %1, i64 0, i32 2
  %12 = load i32, i32* %11, align 8
  %13 = icmp eq i32 %12, 2
  br i1 %13, label %14, label %236

14:                                               ; preds = %2
  %15 = getelementptr inbounds %"class.v8::FunctionCallbackInfo", %"class.v8::FunctionCallbackInfo"* %1, i64 0, i32 1
  %16 = load i64*, i64** %15, align 8
  %17 = load i64, i64* %16, align 8
  %18 = and i64 %17, 3
  %19 = icmp eq i64 %18, 1
  %20 = bitcast i64* %16 to %"class.v8::Value"*
  br i1 %19, label %21, label %236

21:                                               ; preds = %14
  %22 = add i64 %17, -1
  %23 = inttoptr i64 %22 to i32*
  %24 = load i32, i32* %23, align 4
  %25 = and i64 %17, -4294967296
  %26 = zext i32 %24 to i64
  %27 = or i64 %25, %26
  %28 = add i64 %27, 7
  %29 = inttoptr i64 %28 to i16*
  %30 = load i16, i16* %29, align 2
  %31 = icmp ult i16 %30, 64
  br i1 %31, label %32, label %236

32:                                               ; preds = %21
  %33 = getelementptr inbounds i64, i64* %16, i64 1
  %34 = load i64, i64* %33, align 8
  %35 = and i64 %34, 3
  %36 = icmp eq i64 %35, 1
  br i1 %36, label %37, label %236

37:                                               ; preds = %32
  %38 = add i64 %34, -1
  %39 = inttoptr i64 %38 to i32*
  %40 = load i32, i32* %39, align 4
  %41 = and i64 %34, -4294967296
  %42 = zext i32 %40 to i64
  %43 = or i64 %41, %42
  %44 = add i64 %43, 7
  %45 = inttoptr i64 %44 to i16*
  %46 = load i16, i16* %45, align 2
  %47 = icmp ult i16 %46, 64
  br i1 %47, label %48, label %236

48:                                               ; preds = %37
  %49 = getelementptr inbounds %"class.v8::FunctionCallbackInfo", %"class.v8::FunctionCallbackInfo"* %1, i64 0, i32 0
  %50 = load i64*, i64** %49, align 8
  %51 = getelementptr inbounds i64, i64* %50, i64 1
  %52 = bitcast i64* %51 to %"class.v8::Isolate"**
  %53 = load %"class.v8::Isolate"*, %"class.v8::Isolate"** %52, align 8
  %54 = bitcast %"class.std::__1::basic_string"* %3 to i8*
  call void @llvm.lifetime.start.p0i8(i64 24, i8* nonnull %54) #9
  %55 = getelementptr inbounds %"class.std::__1::basic_string", %"class.std::__1::basic_string"* %3, i64 0, i32 0, i32 0, i32 0, i32 0, i32 0, i32 0
  %56 = getelementptr inbounds %"class.std::__1::basic_string", %"class.std::__1::basic_string"* %3, i64 0, i32 0, i32 0, i32 0, i32 0, i32 0, i32 1
  %57 = getelementptr inbounds %"class.std::__1::basic_string", %"class.std::__1::basic_string"* %3, i64 0, i32 0, i32 0, i32 0, i32 0, i32 0, i32 2
  %58 = bitcast %"class.v8::String::Utf8Value"* %4 to i8*
  %59 = bitcast %"class.std::__1::basic_string"* %3 to i8*
  call void @llvm.memset.p0i8.i64(i8* nonnull align 8 %59, i8 -86, i64 24, i1 false)
  call void @llvm.lifetime.start.p0i8(i64 16, i8* nonnull %58) #9
  call void @_ZN2v86String9Utf8ValueC1EPNS_7IsolateENS_5LocalINS_5ValueEEE(%"class.v8::String::Utf8Value"* nonnull %4, %"class.v8::Isolate"* %53, %"class.v8::Value"* %20) #9
  %60 = getelementptr inbounds %"class.v8::String::Utf8Value", %"class.v8::String::Utf8Value"* %4, i64 0, i32 0
  %61 = load i8*, i8** %60, align 8
  %62 = call i64 @strlen(i8* %61) #9
  %63 = icmp ugt i64 %62, -17
  br i1 %63, label %64, label %66

64:                                               ; preds = %48
  %65 = bitcast %"class.std::__1::basic_string"* %3 to %"class.std::__1::__basic_string_common"*
  call void @_ZNKSt3__121__basic_string_commonILb1EE20__throw_length_errorEv(%"class.std::__1::__basic_string_common"* nonnull %65) #11
  unreachable

66:                                               ; preds = %48
  %67 = icmp ult i64 %62, 23
  br i1 %67, label %74, label %68

68:                                               ; preds = %66
  %69 = add nuw i64 %62, 16
  %70 = and i64 %69, -16
  %71 = call i8* @_Znwm(i64 %70) #10
  store i8* %71, i8** %55, align 8
  %72 = or i64 %70, -9223372036854775808
  store i64 %72, i64* %57, align 8
  store i64 %62, i64* %56, align 8
  %73 = bitcast %"class.std::__1::basic_string"* %3 to %"struct.std::__1::basic_string<char, std::__1::char_traits<char>, std::__1::allocator<char> >::__short"*
  br label %79

74:                                               ; preds = %66
  %75 = trunc i64 %62 to i8
  %76 = bitcast %"class.std::__1::basic_string"* %3 to %"struct.std::__1::basic_string<char, std::__1::char_traits<char>, std::__1::allocator<char> >::__short"*
  %77 = getelementptr inbounds %"struct.std::__1::basic_string<char, std::__1::char_traits<char>, std::__1::allocator<char> >::__short", %"struct.std::__1::basic_string<char, std::__1::char_traits<char>, std::__1::allocator<char> >::__short"* %76, i64 0, i32 1, i32 0
  store i8 %75, i8* %77, align 1
  %78 = icmp eq i64 %62, 0
  br i1 %78, label %82, label %79

79:                                               ; preds = %74, %68
  %80 = phi %"struct.std::__1::basic_string<char, std::__1::char_traits<char>, std::__1::allocator<char> >::__short"* [ %76, %74 ], [ %73, %68 ]
  %81 = phi i8* [ %54, %74 ], [ %71, %68 ]
  call void @llvm.memcpy.p0i8.p0i8.i64(i8* nonnull align 1 %81, i8* align 1 %61, i64 %62, i1 false) #9
  br label %82

82:                                               ; preds = %74, %79
  %83 = phi %"struct.std::__1::basic_string<char, std::__1::char_traits<char>, std::__1::allocator<char> >::__short"* [ %76, %74 ], [ %80, %79 ]
  %84 = phi i8* [ %54, %74 ], [ %81, %79 ]
  %85 = getelementptr inbounds i8, i8* %84, i64 %62
  store i8 0, i8* %85, align 1
  call void @_ZN2v86String9Utf8ValueD1Ev(%"class.v8::String::Utf8Value"* nonnull %4) #9
  call void @llvm.lifetime.end.p0i8(i64 16, i8* nonnull %58) #9
  %86 = getelementptr inbounds %"struct.std::__1::basic_string<char, std::__1::char_traits<char>, std::__1::allocator<char> >::__short", %"struct.std::__1::basic_string<char, std::__1::char_traits<char>, std::__1::allocator<char> >::__short"* %83, i64 0, i32 1, i32 0
  %87 = load i8, i8* %86, align 1
  %88 = icmp slt i8 %87, 0
  %89 = load i64, i64* %56, align 8
  %90 = zext i8 %87 to i64
  %91 = select i1 %88, i64 %89, i64 %90
  %92 = icmp eq i64 %91, 0
  br i1 %92, label %230, label %93

93:                                               ; preds = %82
  %94 = bitcast %"class.std::__1::basic_string"* %5 to i8*
  call void @llvm.lifetime.start.p0i8(i64 24, i8* nonnull %94) #9
  %95 = getelementptr inbounds %"class.std::__1::basic_string", %"class.std::__1::basic_string"* %5, i64 0, i32 0, i32 0, i32 0, i32 0, i32 0, i32 0
  %96 = getelementptr inbounds %"class.std::__1::basic_string", %"class.std::__1::basic_string"* %5, i64 0, i32 0, i32 0, i32 0, i32 0, i32 0, i32 1
  %97 = getelementptr inbounds %"class.std::__1::basic_string", %"class.std::__1::basic_string"* %5, i64 0, i32 0, i32 0, i32 0, i32 0, i32 0, i32 2
  %98 = bitcast %"class.v8::String::Utf8Value"* %6 to i8*
  %99 = bitcast %"class.std::__1::basic_string"* %5 to i8*
  call void @llvm.memset.p0i8.i64(i8* nonnull align 8 %99, i8 -86, i64 24, i1 false)
  call void @llvm.lifetime.start.p0i8(i64 16, i8* nonnull %98) #9
  %100 = load i32, i32* %11, align 8
  %101 = icmp sgt i32 %100, 1
  br i1 %101, label %108, label %102

102:                                              ; preds = %93
  %103 = load i64*, i64** %49, align 8
  %104 = getelementptr inbounds i64, i64* %103, i64 1
  %105 = load i64, i64* %104, align 8
  %106 = add i64 %105, 160
  %107 = inttoptr i64 %106 to %"class.v8::Value"*
  br label %112

108:                                              ; preds = %93
  %109 = load i64*, i64** %15, align 8
  %110 = getelementptr inbounds i64, i64* %109, i64 1
  %111 = bitcast i64* %110 to %"class.v8::Value"*
  br label %112

112:                                              ; preds = %102, %108
  %113 = phi %"class.v8::Value"* [ %107, %102 ], [ %111, %108 ]
  call void @_ZN2v86String9Utf8ValueC1EPNS_7IsolateENS_5LocalINS_5ValueEEE(%"class.v8::String::Utf8Value"* nonnull %6, %"class.v8::Isolate"* %53, %"class.v8::Value"* %113) #9
  %114 = getelementptr inbounds %"class.v8::String::Utf8Value", %"class.v8::String::Utf8Value"* %6, i64 0, i32 0
  %115 = load i8*, i8** %114, align 8
  %116 = call i64 @strlen(i8* %115) #9
  %117 = icmp ugt i64 %116, -17
  br i1 %117, label %118, label %120

118:                                              ; preds = %112
  %119 = bitcast %"class.std::__1::basic_string"* %5 to %"class.std::__1::__basic_string_common"*
  call void @_ZNKSt3__121__basic_string_commonILb1EE20__throw_length_errorEv(%"class.std::__1::__basic_string_common"* nonnull %119) #11
  unreachable

120:                                              ; preds = %112
  %121 = icmp ult i64 %116, 23
  br i1 %121, label %128, label %122

122:                                              ; preds = %120
  %123 = add nuw i64 %116, 16
  %124 = and i64 %123, -16
  %125 = call i8* @_Znwm(i64 %124) #10
  store i8* %125, i8** %95, align 8
  %126 = or i64 %124, -9223372036854775808
  store i64 %126, i64* %97, align 8
  store i64 %116, i64* %96, align 8
  %127 = bitcast %"class.std::__1::basic_string"* %5 to %"struct.std::__1::basic_string<char, std::__1::char_traits<char>, std::__1::allocator<char> >::__short"*
  br label %133

128:                                              ; preds = %120
  %129 = trunc i64 %116 to i8
  %130 = bitcast %"class.std::__1::basic_string"* %5 to %"struct.std::__1::basic_string<char, std::__1::char_traits<char>, std::__1::allocator<char> >::__short"*
  %131 = getelementptr inbounds %"struct.std::__1::basic_string<char, std::__1::char_traits<char>, std::__1::allocator<char> >::__short", %"struct.std::__1::basic_string<char, std::__1::char_traits<char>, std::__1::allocator<char> >::__short"* %130, i64 0, i32 1, i32 0
  store i8 %129, i8* %131, align 1
  %132 = icmp eq i64 %116, 0
  br i1 %132, label %136, label %133

133:                                              ; preds = %128, %122
  %134 = phi %"struct.std::__1::basic_string<char, std::__1::char_traits<char>, std::__1::allocator<char> >::__short"* [ %130, %128 ], [ %127, %122 ]
  %135 = phi i8* [ %94, %128 ], [ %125, %122 ]
  call void @llvm.memcpy.p0i8.p0i8.i64(i8* nonnull align 1 %135, i8* align 1 %115, i64 %116, i1 false) #9
  br label %136

136:                                              ; preds = %128, %133
  %137 = phi %"struct.std::__1::basic_string<char, std::__1::char_traits<char>, std::__1::allocator<char> >::__short"* [ %130, %128 ], [ %134, %133 ]
  %138 = phi i8* [ %94, %128 ], [ %135, %133 ]
  %139 = getelementptr inbounds i8, i8* %138, i64 %116
  store i8 0, i8* %139, align 1
  call void @_ZN2v86String9Utf8ValueD1Ev(%"class.v8::String::Utf8Value"* nonnull %6) #9
  call void @llvm.lifetime.end.p0i8(i64 16, i8* nonnull %98) #9
  %140 = getelementptr inbounds %"struct.std::__1::basic_string<char, std::__1::char_traits<char>, std::__1::allocator<char> >::__short", %"struct.std::__1::basic_string<char, std::__1::char_traits<char>, std::__1::allocator<char> >::__short"* %137, i64 0, i32 1, i32 0
  %141 = load i8, i8* %140, align 1
  %142 = icmp slt i8 %141, 0
  %143 = load i64, i64* %96, align 8
  %144 = zext i8 %141 to i64
  %145 = select i1 %142, i64 %143, i64 %144
  %146 = icmp eq i64 %145, 0
  br i1 %146, label %223, label %147

147:                                              ; preds = %136
  %148 = getelementptr inbounds %"class.extensions::SyncFileSystemCustomBindings", %"class.extensions::SyncFileSystemCustomBindings"* %0, i64 0, i32 0, i32 3
  %149 = load %"class.extensions::ScriptContext"*, %"class.extensions::ScriptContext"** %148, align 8
  %150 = getelementptr inbounds %"class.extensions::ScriptContext", %"class.extensions::ScriptContext"* %149, i64 0, i32 2, i32 0, i32 0
  %151 = load %"class.v8::Context"*, %"class.v8::Context"** %150, align 8
  %152 = icmp eq %"class.v8::Context"* %151, null
  br i1 %152, label %161, label %153

153:                                              ; preds = %147
  %154 = getelementptr inbounds %"class.extensions::ScriptContext", %"class.extensions::ScriptContext"* %149, i64 0, i32 15
  %155 = bitcast %"class.v8::Isolate"** %154 to %"class.v8::internal::Isolate"**
  %156 = load %"class.v8::internal::Isolate"*, %"class.v8::internal::Isolate"** %155, align 8
  %157 = bitcast %"class.v8::Context"* %151 to i64*
  %158 = load i64, i64* %157, align 8
  %159 = call i64* @_ZN2v811HandleScope12CreateHandleEPNS_8internal7IsolateEm(%"class.v8::internal::Isolate"* %156, i64 %158) #9
  %160 = bitcast i64* %159 to %"class.v8::Context"*
  br label %161

161:                                              ; preds = %147, %153
  %162 = phi %"class.v8::Context"* [ %160, %153 ], [ null, %147 ]
  %163 = call %"class.blink::WebLocalFrame"* @_ZN5blink13WebLocalFrame15FrameForContextEN2v85LocalINS1_7ContextEEE(%"class.v8::Context"* %162) #9
  %164 = load i64*, i64** %49, align 8
  %165 = getelementptr inbounds i64, i64* %164, i64 3
  %166 = bitcast %"class.blink::WebDOMFileSystem"* %7 to i8*
  call void @llvm.lifetime.start.p0i8(i64 8, i8* nonnull %166) #9
  %167 = bitcast %"class.blink::WebString"* %8 to i8*
  call void @llvm.lifetime.start.p0i8(i64 8, i8* nonnull %167) #9
  %168 = load i8, i8* %86, align 1, !noalias !7
  %169 = icmp slt i8 %168, 0
  %170 = load i8*, i8** %55, align 8, !noalias !7
  %171 = load i64, i64* %56, align 8, !noalias !7
  %172 = zext i8 %168 to i64
  %173 = select i1 %169, i8* %170, i8* %54
  %174 = select i1 %169, i64 %171, i64 %172
  call void @_ZN5blink9WebString8FromUTF8EPKcm(%"class.blink::WebString"* nonnull sret %8, i8* %173, i64 %174) #9
  %175 = bitcast %"class.blink::WebURL"* %9 to i8*
  call void @llvm.lifetime.start.p0i8(i64 96, i8* nonnull %175) #9
  %176 = bitcast %class.GURL* %10 to i8*
  call void @llvm.lifetime.start.p0i8(i64 120, i8* nonnull %176) #9
  %177 = load i8, i8* %140, align 1
  %178 = icmp slt i8 %177, 0
  %179 = load i8*, i8** %95, align 8
  %180 = select i1 %178, i8* %179, i8* %94
  %181 = load i64, i64* %96, align 8
  %182 = zext i8 %177 to i64
  %183 = select i1 %178, i64 %181, i64 %182
  call void @_ZN4GURLC1EN4base16BasicStringPieceIcNSt3__111char_traitsIcEEEE(%class.GURL* nonnull %10, i8* %180, i64 %183) #9
  %184 = getelementptr inbounds %"class.blink::WebURL", %"class.blink::WebURL"* %9, i64 0, i32 0
  %185 = bitcast %class.GURL* %10 to %"struct.std::__1::basic_string<char, std::__1::char_traits<char>, std::__1::allocator<char> >::__short"*
  %186 = getelementptr inbounds %"struct.std::__1::basic_string<char, std::__1::char_traits<char>, std::__1::allocator<char> >::__short", %"struct.std::__1::basic_string<char, std::__1::char_traits<char>, std::__1::allocator<char> >::__short"* %185, i64 0, i32 1, i32 0
  %187 = load i8, i8* %186, align 1, !noalias !10
  %188 = icmp slt i8 %187, 0
  %189 = getelementptr inbounds %class.GURL, %class.GURL* %10, i64 0, i32 0, i32 0, i32 0, i32 0, i32 0, i32 0, i32 0
  %190 = load i8*, i8** %189, align 8, !noalias !10
  %191 = getelementptr inbounds %class.GURL, %class.GURL* %10, i64 0, i32 0, i32 0, i32 0, i32 0, i32 0, i32 0, i32 1
  %192 = load i64, i64* %191, align 8, !noalias !10
  %193 = zext i8 %187 to i64
  %194 = select i1 %188, i8* %190, i8* %176
  %195 = select i1 %188, i64 %192, i64 %193
  call void @_ZN5blink9WebString8FromUTF8EPKcm(%"class.blink::WebString"* nonnull sret %184, i8* %194, i64 %195) #9
  %196 = getelementptr inbounds %"class.blink::WebURL", %"class.blink::WebURL"* %9, i64 0, i32 1
  %197 = getelementptr inbounds %class.GURL, %class.GURL* %10, i64 0, i32 2
  call void @_ZN3url6ParsedC1ERKS0_(%"struct.url::Parsed"* %196, %"struct.url::Parsed"* dereferenceable(80) %197) #9
  %198 = getelementptr inbounds %"class.blink::WebURL", %"class.blink::WebURL"* %9, i64 0, i32 2
  %199 = getelementptr inbounds %class.GURL, %class.GURL* %10, i64 0, i32 1
  %200 = load i8, i8* %199, align 8, !range !13
  store i8 %200, i8* %198, align 8
  call void @_ZN5blink16WebDOMFileSystem6CreateEPNS_13WebLocalFrameENS_17WebFileSystemTypeERKNS_9WebStringERKNS_6WebURLENS0_16SerializableTypeE(%"class.blink::WebDOMFileSystem"* nonnull sret %7, %"class.blink::WebLocalFrame"* %163, i32 3, %"class.blink::WebString"* nonnull dereferenceable(8) %8, %"class.blink::WebURL"* nonnull dereferenceable(96) %9, i32 1) #9
  %201 = load %"class.extensions::ScriptContext"*, %"class.extensions::ScriptContext"** %148, align 8
  %202 = getelementptr inbounds %"class.extensions::ScriptContext", %"class.extensions::ScriptContext"* %201, i64 0, i32 2, i32 0, i32 0
  %203 = load %"class.v8::Context"*, %"class.v8::Context"** %202, align 8
  %204 = icmp eq %"class.v8::Context"* %203, null
  br i1 %204, label %213, label %205

205:                                              ; preds = %161
  %206 = getelementptr inbounds %"class.extensions::ScriptContext", %"class.extensions::ScriptContext"* %201, i64 0, i32 15
  %207 = bitcast %"class.v8::Isolate"** %206 to %"class.v8::internal::Isolate"**
  %208 = load %"class.v8::internal::Isolate"*, %"class.v8::internal::Isolate"** %207, align 8
  %209 = bitcast %"class.v8::Context"* %203 to i64*
  %210 = load i64, i64* %209, align 8
  %211 = call i64* @_ZN2v811HandleScope12CreateHandleEPNS_8internal7IsolateEm(%"class.v8::internal::Isolate"* %208, i64 %210) #9
  %212 = bitcast i64* %211 to %"class.v8::Context"*
  br label %213

213:                                              ; preds = %161, %205
  %214 = phi %"class.v8::Context"* [ %212, %205 ], [ null, %161 ]
  %215 = call %"class.v8::Object"* @_ZN2v87Context6GlobalEv(%"class.v8::Context"* %214) #9
  %216 = call %"class.v8::Value"* @_ZN5blink16WebDOMFileSystem9ToV8ValueEN2v85LocalINS1_6ObjectEEEPNS1_7IsolateE(%"class.blink::WebDOMFileSystem"* nonnull %7, %"class.v8::Object"* %215, %"class.v8::Isolate"* %53) #9
  %217 = icmp eq %"class.v8::Value"* %216, null
  %218 = bitcast %"class.v8::Value"* %216 to i64*
  %219 = getelementptr inbounds i64, i64* %164, i64 2
  %220 = select i1 %217, i64* %219, i64* %218, !prof !14
  %221 = load i64, i64* %220, align 8
  store i64 %221, i64* %165, align 8
  call void @_ZN5blink16WebDOMFileSystem5ResetEv(%"class.blink::WebDOMFileSystem"* nonnull %7) #9
  call void @_ZN3url6ParsedD1Ev(%"struct.url::Parsed"* %196) #9
  call void @_ZN5blink9WebStringD1Ev(%"class.blink::WebString"* nonnull %184) #9
  call void @_ZN4GURLD1Ev(%class.GURL* nonnull %10) #9
  call void @llvm.lifetime.end.p0i8(i64 120, i8* nonnull %176) #9
  call void @llvm.lifetime.end.p0i8(i64 96, i8* nonnull %175) #9
  call void @_ZN5blink9WebStringD1Ev(%"class.blink::WebString"* nonnull %8) #9
  call void @llvm.lifetime.end.p0i8(i64 8, i8* nonnull %167) #9
  call void @llvm.lifetime.end.p0i8(i64 8, i8* nonnull %166) #9
  %222 = load i8, i8* %140, align 1
  br label %223

223:                                              ; preds = %136, %213
  %224 = phi i8 [ %141, %136 ], [ %222, %213 ]
  %225 = icmp slt i8 %224, 0
  br i1 %225, label %226, label %228

226:                                              ; preds = %223
  %227 = load i8*, i8** %95, align 8
  call void @_ZdlPv(i8* %227) #10
  br label %228

228:                                              ; preds = %223, %226
  call void @llvm.lifetime.end.p0i8(i64 24, i8* nonnull %94) #9
  %229 = load i8, i8* %86, align 1
  br label %230

230:                                              ; preds = %82, %228
  %231 = phi i8 [ %87, %82 ], [ %229, %228 ]
  %232 = icmp slt i8 %231, 0
  br i1 %232, label %233, label %235

233:                                              ; preds = %230
  %234 = load i8*, i8** %55, align 8
  call void @_ZdlPv(i8* %234) #10
  br label %235

235:                                              ; preds = %230, %233
  call void @llvm.lifetime.end.p0i8(i64 24, i8* nonnull %54) #9
  br label %236

236:                                              ; preds = %32, %14, %37, %21, %2, %235
  ret void
}

; Function Attrs: nounwind
declare void @_ZN4base8internal12CallbackBaseD2Ev(%"class.base::internal::CallbackBase"*) unnamed_addr #3

; Function Attrs: argmemonly nounwind
declare void @llvm.lifetime.end.p0i8(i64 immarg, i8* nocapture) #2

declare void @_ZN2v86String9Utf8ValueC1EPNS_7IsolateENS_5LocalINS_5ValueEEE(%"class.v8::String::Utf8Value"*, %"class.v8::Isolate"*, %"class.v8::Value"*) unnamed_addr #1

; Function Attrs: nounwind
declare void @_ZN2v86String9Utf8ValueD1Ev(%"class.v8::String::Utf8Value"*) unnamed_addr #3

declare %"class.blink::WebLocalFrame"* @_ZN5blink13WebLocalFrame15FrameForContextEN2v85LocalINS1_7ContextEEE(%"class.v8::Context"*) local_unnamed_addr #1

declare void @_ZN5blink16WebDOMFileSystem6CreateEPNS_13WebLocalFrameENS_17WebFileSystemTypeERKNS_9WebStringERKNS_6WebURLENS0_16SerializableTypeE(%"class.blink::WebDOMFileSystem"* sret, %"class.blink::WebLocalFrame"*, i32, %"class.blink::WebString"* dereferenceable(8), %"class.blink::WebURL"* dereferenceable(96), i32) local_unnamed_addr #1

declare void @_ZN4GURLC1EN4base16BasicStringPieceIcNSt3__111char_traitsIcEEEE(%class.GURL*, i8*, i64) unnamed_addr #1

declare %"class.v8::Value"* @_ZN5blink16WebDOMFileSystem9ToV8ValueEN2v85LocalINS1_6ObjectEEEPNS1_7IsolateE(%"class.blink::WebDOMFileSystem"*, %"class.v8::Object"*, %"class.v8::Isolate"*) local_unnamed_addr #1

declare %"class.v8::Object"* @_ZN2v87Context6GlobalEv(%"class.v8::Context"*) local_unnamed_addr #1

; Function Attrs: nounwind
declare void @_ZN4GURLD1Ev(%class.GURL*) unnamed_addr #3

; Function Attrs: nounwind
declare void @_ZN5blink9WebStringD1Ev(%"class.blink::WebString"*) unnamed_addr #3

; Function Attrs: nounwind
declare void @_ZN10extensions25ObjectBackedNativeHandlerD2Ev(%"class.extensions::ObjectBackedNativeHandler"*) unnamed_addr #3

; Function Attrs: inlinehint nounwind ssp uwtable
define linkonce_odr hidden void @_ZN10extensions28SyncFileSystemCustomBindingsD0Ev(%"class.extensions::SyncFileSystemCustomBindings"*) unnamed_addr #4 comdat align 2 {
  %2 = getelementptr inbounds %"class.extensions::SyncFileSystemCustomBindings", %"class.extensions::SyncFileSystemCustomBindings"* %0, i64 0, i32 0
  tail call void @_ZN10extensions25ObjectBackedNativeHandlerD2Ev(%"class.extensions::ObjectBackedNativeHandler"* %2) #9
  %3 = bitcast %"class.extensions::SyncFileSystemCustomBindings"* %0 to i8*
  tail call void @_ZdlPv(i8* %3) #10
  ret void
}

declare void @_ZN10extensions25ObjectBackedNativeHandler10InitializeEv(%"class.extensions::ObjectBackedNativeHandler"*) unnamed_addr #1

declare zeroext i1 @_ZN10extensions25ObjectBackedNativeHandler13IsInitializedEv(%"class.extensions::ObjectBackedNativeHandler"*) unnamed_addr #1

declare %"class.v8::Object"* @_ZN10extensions25ObjectBackedNativeHandler11NewInstanceEv(%"class.extensions::ObjectBackedNativeHandler"*) unnamed_addr #1

declare void @_ZN10extensions25ObjectBackedNativeHandler10InvalidateEv(%"class.extensions::ObjectBackedNativeHandler"*) unnamed_addr #1

declare i64* @_ZN2v811HandleScope12CreateHandleEPNS_8internal7IsolateEm(%"class.v8::internal::Isolate"*, i64) local_unnamed_addr #1

declare void @_ZN5blink9WebString8FromUTF8EPKcm(%"class.blink::WebString"* sret, i8*, i64) local_unnamed_addr #1

declare void @_ZN3url6ParsedC1ERKS0_(%"struct.url::Parsed"*, %"struct.url::Parsed"* dereferenceable(80)) unnamed_addr #1

declare void @_ZN5blink16WebDOMFileSystem5ResetEv(%"class.blink::WebDOMFileSystem"*) local_unnamed_addr #1

; Function Attrs: nounwind
declare void @_ZN3url6ParsedD1Ev(%"struct.url::Parsed"*) unnamed_addr #3

; Function Attrs: nobuiltin nounwind
declare void @_ZdlPv(i8*) local_unnamed_addr #5

; Function Attrs: nounwind ssp uwtable
define linkonce_odr hidden void @_ZN4base8internal7InvokerINS0_9BindStateIMN10extensions28SyncFileSystemCustomBindingsEFvRKN2v820FunctionCallbackInfoINS5_5ValueEEEEJNS0_17UnretainedWrapperIS4_EEEEEFvSA_EE3RunEPNS0_13BindStateBaseESA_(%"class.base::internal::BindStateBase"*, %"class.v8::FunctionCallbackInfo"* dereferenceable(24)) #0 comdat align 2 {
  %3 = getelementptr inbounds %"class.base::internal::BindStateBase", %"class.base::internal::BindStateBase"* %0, i64 1
  %4 = getelementptr inbounds %"class.base::internal::BindStateBase", %"class.base::internal::BindStateBase"* %0, i64 1, i32 2
  %5 = bitcast void (%"class.base::internal::BindStateBase"*)** %4 to i8**
  %6 = load i8*, i8** %5, align 8
  %7 = bitcast %"class.base::internal::BindStateBase"* %3 to i64*
  %8 = load i64, i64* %7, align 8
  %9 = getelementptr inbounds %"class.base::internal::BindStateBase", %"class.base::internal::BindStateBase"* %0, i64 1, i32 1
  %10 = bitcast void ()** %9 to i64*
  %11 = load i64, i64* %10, align 8
  %12 = getelementptr inbounds i8, i8* %6, i64 %11
  %13 = bitcast i8* %12 to %"class.extensions::SyncFileSystemCustomBindings"*
  %14 = and i64 %8, 1
  %15 = icmp eq i64 %14, 0
  br i1 %15, label %23, label %16

16:                                               ; preds = %2
  %17 = bitcast i8* %12 to i8**
  %18 = load i8*, i8** %17, align 8
  %19 = add i64 %8, -1
  %20 = getelementptr i8, i8* %18, i64 %19
  %21 = bitcast i8* %20 to void (%"class.extensions::SyncFileSystemCustomBindings"*, %"class.v8::FunctionCallbackInfo"*)**
  %22 = load void (%"class.extensions::SyncFileSystemCustomBindings"*, %"class.v8::FunctionCallbackInfo"*)*, void (%"class.extensions::SyncFileSystemCustomBindings"*, %"class.v8::FunctionCallbackInfo"*)** %21, align 8
  br label %25

23:                                               ; preds = %2
  %24 = inttoptr i64 %8 to void (%"class.extensions::SyncFileSystemCustomBindings"*, %"class.v8::FunctionCallbackInfo"*)*
  br label %25

25:                                               ; preds = %16, %23
  %26 = phi void (%"class.extensions::SyncFileSystemCustomBindings"*, %"class.v8::FunctionCallbackInfo"*)* [ %22, %16 ], [ %24, %23 ]
  tail call void %26(%"class.extensions::SyncFileSystemCustomBindings"* %13, %"class.v8::FunctionCallbackInfo"* dereferenceable(24) %1) #9
  ret void
}

; Function Attrs: nobuiltin nofree
declare noalias nonnull i8* @_Znwm(i64) local_unnamed_addr #6

; Function Attrs: nounwind ssp uwtable
define linkonce_odr hidden void @_ZN4base8internal9BindStateIMN10extensions28SyncFileSystemCustomBindingsEFvRKN2v820FunctionCallbackInfoINS4_5ValueEEEEJNS0_17UnretainedWrapperIS3_EEEE7DestroyEPKNS0_13BindStateBaseE(%"class.base::internal::BindStateBase"*) #0 comdat align 2 {
  %2 = icmp eq %"class.base::internal::BindStateBase"* %0, null
  br i1 %2, label %5, label %3

3:                                                ; preds = %1
  %4 = bitcast %"class.base::internal::BindStateBase"* %0 to i8*
  tail call void @_ZdlPv(i8* %4) #10
  br label %5

5:                                                ; preds = %3, %1
  ret void
}

declare void @_ZN4base8internal13BindStateBaseC2EPFvvEPFvPKS1_E(%"class.base::internal::BindStateBase"*, void ()*, void (%"class.base::internal::BindStateBase"*)*) unnamed_addr #1

; Function Attrs: argmemonly nounwind
declare void @llvm.memcpy.p0i8.p0i8.i64(i8* nocapture writeonly, i8* nocapture readonly, i64, i1 immarg) #2

; Function Attrs: noreturn
declare void @_ZNKSt3__121__basic_string_commonILb1EE20__throw_length_errorEv(%"class.std::__1::__basic_string_common"*) local_unnamed_addr #7

; Function Attrs: argmemonly nofree nounwind readonly
declare i64 @strlen(i8* nocapture) local_unnamed_addr #8

; Function Attrs: argmemonly nounwind
declare void @llvm.memset.p0i8.i64(i8* nocapture writeonly, i8, i64, i1 immarg) #2

attributes #0 = { nounwind ssp uwtable "correctly-rounded-divide-sqrt-fp-math"="false" "disable-tail-calls"="false" "less-precise-fpmad"="false" "min-legal-vector-width"="0" "no-frame-pointer-elim"="false" "no-frame-pointer-elim-non-leaf" "no-infs-fp-math"="false" "no-jump-tables"="false" "no-nans-fp-math"="false" "no-signed-zeros-fp-math"="false" "no-trapping-math"="false" "null-pointer-is-valid"="true" "stack-protector-buffer-size"="4" "target-cpu"="x86-64" "target-features"="+cx8,+fxsr,+mmx,+sse,+sse2,+sse3,+x87" "unsafe-fp-math"="false" "use-soft-float"="false" }
attributes #1 = { "correctly-rounded-divide-sqrt-fp-math"="false" "disable-tail-calls"="false" "less-precise-fpmad"="false" "no-frame-pointer-elim"="false" "no-frame-pointer-elim-non-leaf" "no-infs-fp-math"="false" "no-nans-fp-math"="false" "no-signed-zeros-fp-math"="false" "no-trapping-math"="false" "null-pointer-is-valid"="true" "stack-protector-buffer-size"="4" "target-cpu"="x86-64" "target-features"="+cx8,+fxsr,+mmx,+sse,+sse2,+sse3,+x87" "unsafe-fp-math"="false" "use-soft-float"="false" }
attributes #2 = { argmemonly nounwind }
attributes #3 = { nounwind "correctly-rounded-divide-sqrt-fp-math"="false" "disable-tail-calls"="false" "less-precise-fpmad"="false" "no-frame-pointer-elim"="false" "no-frame-pointer-elim-non-leaf" "no-infs-fp-math"="false" "no-nans-fp-math"="false" "no-signed-zeros-fp-math"="false" "no-trapping-math"="false" "null-pointer-is-valid"="true" "stack-protector-buffer-size"="4" "target-cpu"="x86-64" "target-features"="+cx8,+fxsr,+mmx,+sse,+sse2,+sse3,+x87" "unsafe-fp-math"="false" "use-soft-float"="false" }
attributes #4 = { inlinehint nounwind ssp uwtable "correctly-rounded-divide-sqrt-fp-math"="false" "disable-tail-calls"="false" "less-precise-fpmad"="false" "min-legal-vector-width"="0" "no-frame-pointer-elim"="false" "no-frame-pointer-elim-non-leaf" "no-infs-fp-math"="false" "no-jump-tables"="false" "no-nans-fp-math"="false" "no-signed-zeros-fp-math"="false" "no-trapping-math"="false" "null-pointer-is-valid"="true" "stack-protector-buffer-size"="4" "target-cpu"="x86-64" "target-features"="+cx8,+fxsr,+mmx,+sse,+sse2,+sse3,+x87" "unsafe-fp-math"="false" "use-soft-float"="false" }
attributes #5 = { nobuiltin nounwind "correctly-rounded-divide-sqrt-fp-math"="false" "disable-tail-calls"="false" "less-precise-fpmad"="false" "no-frame-pointer-elim"="false" "no-frame-pointer-elim-non-leaf" "no-infs-fp-math"="false" "no-nans-fp-math"="false" "no-signed-zeros-fp-math"="false" "no-trapping-math"="false" "null-pointer-is-valid"="true" "stack-protector-buffer-size"="4" "target-cpu"="x86-64" "target-features"="+cx8,+fxsr,+mmx,+sse,+sse2,+sse3,+x87" "unsafe-fp-math"="false" "use-soft-float"="false" }
attributes #6 = { nobuiltin nofree "correctly-rounded-divide-sqrt-fp-math"="false" "disable-tail-calls"="false" "less-precise-fpmad"="false" "no-frame-pointer-elim"="false" "no-frame-pointer-elim-non-leaf" "no-infs-fp-math"="false" "no-nans-fp-math"="false" "no-signed-zeros-fp-math"="false" "no-trapping-math"="false" "null-pointer-is-valid"="true" "stack-protector-buffer-size"="4" "target-cpu"="x86-64" "target-features"="+cx8,+fxsr,+mmx,+sse,+sse2,+sse3,+x87" "unsafe-fp-math"="false" "use-soft-float"="false" }
attributes #7 = { noreturn "correctly-rounded-divide-sqrt-fp-math"="false" "disable-tail-calls"="false" "less-precise-fpmad"="false" "no-frame-pointer-elim"="false" "no-frame-pointer-elim-non-leaf" "no-infs-fp-math"="false" "no-nans-fp-math"="false" "no-signed-zeros-fp-math"="false" "no-trapping-math"="false" "null-pointer-is-valid"="true" "stack-protector-buffer-size"="4" "target-cpu"="x86-64" "target-features"="+cx8,+fxsr,+mmx,+sse,+sse2,+sse3,+x87" "unsafe-fp-math"="false" "use-soft-float"="false" }
attributes #8 = { argmemonly nofree nounwind readonly "correctly-rounded-divide-sqrt-fp-math"="false" "disable-tail-calls"="false" "less-precise-fpmad"="false" "no-frame-pointer-elim"="false" "no-frame-pointer-elim-non-leaf" "no-infs-fp-math"="false" "no-nans-fp-math"="false" "no-signed-zeros-fp-math"="false" "no-trapping-math"="false" "null-pointer-is-valid"="true" "stack-protector-buffer-size"="4" "target-cpu"="x86-64" "target-features"="+cx8,+fxsr,+mmx,+sse,+sse2,+sse3,+x87" "unsafe-fp-math"="false" "use-soft-float"="false" }
attributes #9 = { nounwind }
attributes #10 = { builtin nounwind }
attributes #11 = { noreturn nounwind }

!llvm.module.flags = !{!0, !1}

!0 = !{i32 1, !"wchar_size", i32 4}
!1 = !{i32 7, !"PIC Level", i32 2}
!2 = !{!3, !5}
!3 = distinct !{!3, !4, !"_ZN4base8internal8BindImplINS_17RepeatingCallbackEMN10extensions28SyncFileSystemCustomBindingsEFvRKN2v820FunctionCallbackInfoINS5_5ValueEEEEJNS0_17UnretainedWrapperIS4_EEEEEDcOT0_DpOT1_: argument 0"}
!4 = distinct !{!4, !"_ZN4base8internal8BindImplINS_17RepeatingCallbackEMN10extensions28SyncFileSystemCustomBindingsEFvRKN2v820FunctionCallbackInfoINS5_5ValueEEEEJNS0_17UnretainedWrapperIS4_EEEEEDcOT0_DpOT1_"}
!5 = distinct !{!5, !6, !"_ZN4base13BindRepeatingIMN10extensions28SyncFileSystemCustomBindingsEFvRKN2v820FunctionCallbackInfoINS3_5ValueEEEEJNS_8internal17UnretainedWrapperIS2_EEEEENS_17RepeatingCallbackINSB_14BindTypeHelperIT_JDpT0_EE14UnboundRunTypeEEEOSG_DpOSH_: argument 0"}
!6 = distinct !{!6, !"_ZN4base13BindRepeatingIMN10extensions28SyncFileSystemCustomBindingsEFvRKN2v820FunctionCallbackInfoINS3_5ValueEEEEJNS_8internal17UnretainedWrapperIS2_EEEEENS_17RepeatingCallbackINSB_14BindTypeHelperIT_JDpT0_EE14UnboundRunTypeEEEOSG_DpOSH_"}
!7 = !{!8}
!8 = distinct !{!8, !9, !"_ZN5blink9WebString8FromUTF8ERKNSt3__112basic_stringIcNS1_11char_traitsIcEENS1_9allocatorIcEEEE: argument 0"}
!9 = distinct !{!9, !"_ZN5blink9WebString8FromUTF8ERKNSt3__112basic_stringIcNS1_11char_traitsIcEENS1_9allocatorIcEEEE"}
!10 = !{!11}
!11 = distinct !{!11, !12, !"_ZN5blink9WebString8FromUTF8ERKNSt3__112basic_stringIcNS1_11char_traitsIcEENS1_9allocatorIcEEEE: argument 0"}
!12 = distinct !{!12, !"_ZN5blink9WebString8FromUTF8ERKNSt3__112basic_stringIcNS1_11char_traitsIcEENS1_9allocatorIcEEEE"}
!13 = !{i8 0, i8 2}
!14 = !{!"branch_weights", i32 1, i32 2000}
