; ModuleID = '../../chrome/browser/sync/sessions/sync_sessions_router_tab_helper.cc'
source_filename = "../../chrome/browser/sync/sessions/sync_sessions_router_tab_helper.cc"
target datalayout = "e-m:e-i64:64-f80:128-n8:16:32:64-S128"
target triple = "x86_64-unknown-linux-gnu"

module asm ".symver exp, exp@GLIBC_2.2.5"
module asm ".symver exp2, exp2@GLIBC_2.2.5"
module asm ".symver exp2f, exp2f@GLIBC_2.2.5"
module asm ".symver expf, expf@GLIBC_2.2.5"
module asm ".symver lgamma, lgamma@GLIBC_2.2.5"
module asm ".symver lgammaf, lgammaf@GLIBC_2.2.5"
module asm ".symver lgammal, lgammal@GLIBC_2.2.5"
module asm ".symver log, log@GLIBC_2.2.5"
module asm ".symver log2, log2@GLIBC_2.2.5"
module asm ".symver log2f, log2f@GLIBC_2.2.5"
module asm ".symver logf, logf@GLIBC_2.2.5"
module asm ".symver pow, pow@GLIBC_2.2.5"
module asm ".symver powf, powf@GLIBC_2.2.5"

%"struct.base::Feature" = type { i8*, i32 }
%"class.sync_sessions::SyncSessionsRouterTabHelper" = type { %"class.content::WebContentsUserData", %"class.content::WebContentsObserver", %"class.translate::TranslateDriver::LanguageDetectionObserver", %"class.favicon::FaviconDriverObserver", %"class.sync_sessions::SyncSessionsWebContentsRouter"*, %class.ChromeTranslateClient*, %"class.favicon::FaviconDriver"* }
%"class.content::WebContentsUserData" = type { %"class.base::SupportsUserData::Data" }
%"class.base::SupportsUserData::Data" = type { i32 (...)** }
%"class.content::WebContentsObserver" = type { %"class.IPC::Listener", %"class.content::WebContents"* }
%"class.IPC::Listener" = type { i32 (...)** }
%"class.translate::TranslateDriver::LanguageDetectionObserver" = type { %"class.base::CheckedObserver" }
%"class.base::CheckedObserver" = type { i32 (...)**, %"class.base::WeakPtrFactory" }
%"class.base::WeakPtrFactory" = type { %"class.base::internal::WeakPtrFactoryBase" }
%"class.base::internal::WeakPtrFactoryBase" = type { %"class.base::internal::WeakReferenceOwner", i64 }
%"class.base::internal::WeakReferenceOwner" = type { %class.scoped_refptr }
%class.scoped_refptr = type { %"class.base::internal::WeakReference::Flag"* }
%"class.base::internal::WeakReference::Flag" = type <{ %"class.base::RefCountedThreadSafe", %"class.base::AtomicFlag", [3 x i8] }>
%"class.base::RefCountedThreadSafe" = type { %"class.base::subtle::RefCountedThreadSafeBase" }
%"class.base::subtle::RefCountedThreadSafeBase" = type { %"class.base::AtomicRefCount" }
%"class.base::AtomicRefCount" = type { %"struct.std::__1::atomic" }
%"struct.std::__1::atomic" = type { %"struct.std::__1::__atomic_base" }
%"struct.std::__1::__atomic_base" = type { %"struct.std::__1::__atomic_base.4" }
%"struct.std::__1::__atomic_base.4" = type { %"struct.std::__1::__cxx_atomic_impl" }
%"struct.std::__1::__cxx_atomic_impl" = type { %"struct.std::__1::__cxx_atomic_base_impl" }
%"struct.std::__1::__cxx_atomic_base_impl" = type { i32 }
%"class.base::AtomicFlag" = type { %"struct.std::__1::atomic.5" }
%"struct.std::__1::atomic.5" = type { %"struct.std::__1::__atomic_base.6" }
%"struct.std::__1::__atomic_base.6" = type { %"struct.std::__1::__atomic_base.7" }
%"struct.std::__1::__atomic_base.7" = type { %"struct.std::__1::__cxx_atomic_impl.8" }
%"struct.std::__1::__cxx_atomic_impl.8" = type { %"struct.std::__1::__cxx_atomic_base_impl.9" }
%"struct.std::__1::__cxx_atomic_base_impl.9" = type { i8 }
%"class.favicon::FaviconDriverObserver" = type { i32 (...)** }
%class.ChromeTranslateClient = type { %"class.translate::TranslateClient", %"class.translate::TranslateDriver::LanguageDetectionObserver", %"class.content::WebContentsObserver", %"class.content::WebContentsUserData.15", %"class.autofill_assistant::RuntimeObserver", %"class.std::__1::unique_ptr.16", %"class.std::__1::unique_ptr.110", %"class.std::__1::unique_ptr.145" }
%"class.translate::TranslateClient" = type { i32 (...)** }
%"class.content::WebContentsUserData.15" = type { %"class.base::SupportsUserData::Data" }
%"class.autofill_assistant::RuntimeObserver" = type { %"class.base::CheckedObserver" }
%"class.std::__1::unique_ptr.16" = type { %"class.std::__1::__compressed_pair.17" }
%"class.std::__1::__compressed_pair.17" = type { %"struct.std::__1::__compressed_pair_elem.18" }
%"struct.std::__1::__compressed_pair_elem.18" = type { %"class.translate::ContentTranslateDriver"* }
%"class.translate::ContentTranslateDriver" = type { %"class.translate::TranslateDriver", %"class.translate::mojom::ContentTranslateDriver", %"class.content::WebContentsObserver", %"class.content::NavigationController"*, %"class.translate::TranslateManager"*, %"class.base::ObserverList.25", i32, i32, %"class.std::__1::map.29", %"class.language::UrlLanguageHistogram"*, %"class.mojo::ReceiverSetBase", %"class.base::TimeTicks", %"class.translate::TranslateModelService"*, %"class.base::WeakPtrFactory.106" }
%"class.translate::TranslateDriver" = type { i32 (...)**, %"class.base::ObserverList" }
%"class.base::ObserverList" = type <{ %"class.std::__1::vector", %"class.base::LinkedList", i64, i32, [4 x i8] }>
%"class.std::__1::vector" = type { %"class.std::__1::__vector_base" }
%"class.std::__1::__vector_base" = type { %"class.base::internal::CheckedObserverAdapter"*, %"class.base::internal::CheckedObserverAdapter"*, %"class.std::__1::__compressed_pair.20" }
%"class.base::internal::CheckedObserverAdapter" = type { %"class.base::WeakPtr" }
%"class.base::WeakPtr" = type { %"class.base::internal::WeakPtrBase" }
%"class.base::internal::WeakPtrBase" = type { %"class.base::internal::WeakReference", i64 }
%"class.base::internal::WeakReference" = type { %class.scoped_refptr.19 }
%class.scoped_refptr.19 = type { %"class.base::internal::WeakReference::Flag"* }
%"class.std::__1::__compressed_pair.20" = type { %"struct.std::__1::__compressed_pair_elem.21" }
%"struct.std::__1::__compressed_pair_elem.21" = type { %"class.base::internal::CheckedObserverAdapter"* }
%"class.base::LinkedList" = type { %"class.base::LinkNode" }
%"class.base::LinkNode" = type { %"class.base::internal::LinkNodeBase" }
%"class.base::internal::LinkNodeBase" = type { %"class.base::internal::LinkNodeBase"*, %"class.base::internal::LinkNodeBase"* }
%"class.translate::mojom::ContentTranslateDriver" = type { i32 (...)** }
%"class.content::NavigationController" = type { i32 (...)** }
%"class.translate::TranslateManager" = type opaque
%"class.base::ObserverList.25" = type <{ %"class.std::__1::vector", %"class.base::LinkedList.26", i64, i32, [4 x i8] }>
%"class.base::LinkedList.26" = type { %"class.base::LinkNode.27" }
%"class.base::LinkNode.27" = type { %"class.base::internal::LinkNodeBase" }
%"class.std::__1::map.29" = type { %"class.std::__1::__tree.30" }
%"class.std::__1::__tree.30" = type { %"class.std::__1::__tree_end_node"*, %"class.std::__1::__compressed_pair.31", %"class.std::__1::__compressed_pair.35" }
%"class.std::__1::__tree_end_node" = type { %"class.std::__1::__tree_node_base"* }
%"class.std::__1::__tree_node_base" = type <{ %"class.std::__1::__tree_end_node", %"class.std::__1::__tree_node_base"*, %"class.std::__1::__tree_end_node"*, i8, [7 x i8] }>
%"class.std::__1::__compressed_pair.31" = type { %"struct.std::__1::__compressed_pair_elem" }
%"struct.std::__1::__compressed_pair_elem" = type { %"class.std::__1::__tree_end_node" }
%"class.std::__1::__compressed_pair.35" = type { %"struct.std::__1::__compressed_pair_elem.2" }
%"struct.std::__1::__compressed_pair_elem.2" = type { i64 }
%"class.language::UrlLanguageHistogram" = type { %class.KeyedService, %class.PrefService* }
%class.KeyedService = type { i32 (...)** }
%class.PrefService = type { i32 (...)**, %"class.std::__1::unique_ptr.40", %"class.std::__1::unique_ptr.46", %class.scoped_refptr.71, %"class.base::RepeatingCallback.72", %class.scoped_refptr.73, %"class.std::__1::unordered_map" }
%"class.std::__1::unique_ptr.40" = type { %"class.std::__1::__compressed_pair.41" }
%"class.std::__1::__compressed_pair.41" = type { %"struct.std::__1::__compressed_pair_elem.42" }
%"struct.std::__1::__compressed_pair_elem.42" = type { %class.PrefNotifierImpl* }
%class.PrefNotifierImpl = type opaque
%"class.std::__1::unique_ptr.46" = type { %"class.std::__1::__compressed_pair.47" }
%"class.std::__1::__compressed_pair.47" = type { %"struct.std::__1::__compressed_pair_elem.48" }
%"struct.std::__1::__compressed_pair_elem.48" = type { %class.PrefValueStore* }
%class.PrefValueStore = type { i32 (...)**, [7 x %"class.PrefValueStore::PrefStoreKeeper"], %"class.base::RepeatingCallback.50", %class.PrefNotifier*, %"class.std::__1::map.51", i8, %"class.std::__1::unique_ptr.62" }
%"class.PrefValueStore::PrefStoreKeeper" = type <{ %"class.PrefStore::Observer", %class.PrefValueStore*, %class.scoped_refptr.49, i32, [4 x i8] }>
%"class.PrefStore::Observer" = type { i32 (...)** }
%class.scoped_refptr.49 = type { %class.PrefStore* }
%class.PrefStore = type <{ i32 (...)**, %"class.base::RefCounted", [4 x i8] }>
%"class.base::RefCounted" = type { %"class.base::subtle::RefCountedBase" }
%"class.base::subtle::RefCountedBase" = type { i32 }
%"class.base::RepeatingCallback.50" = type { %"class.base::internal::CallbackBaseCopyable" }
%"class.base::internal::CallbackBaseCopyable" = type { %"class.base::internal::CallbackBase" }
%"class.base::internal::CallbackBase" = type { %class.scoped_refptr.10 }
%class.scoped_refptr.10 = type { %"class.base::internal::BindStateBase"* }
%"class.base::internal::BindStateBase" = type { %"class.base::RefCountedThreadSafe.11", void ()*, void (%"class.base::internal::BindStateBase"*)*, i1 (%"class.base::internal::BindStateBase"*, i32)* }
%"class.base::RefCountedThreadSafe.11" = type { %"class.base::subtle::RefCountedThreadSafeBase" }
%class.PrefNotifier = type opaque
%"class.std::__1::map.51" = type { %"class.std::__1::__tree.52" }
%"class.std::__1::__tree.52" = type { %"class.std::__1::__tree_end_node"*, %"class.std::__1::__compressed_pair.53", %"class.std::__1::__compressed_pair.57" }
%"class.std::__1::__compressed_pair.53" = type { %"struct.std::__1::__compressed_pair_elem" }
%"class.std::__1::__compressed_pair.57" = type { %"struct.std::__1::__compressed_pair_elem.2" }
%"class.std::__1::unique_ptr.62" = type { %"class.std::__1::__compressed_pair.63" }
%"class.std::__1::__compressed_pair.63" = type { %"struct.std::__1::__compressed_pair_elem.64" }
%"struct.std::__1::__compressed_pair_elem.64" = type { %"class.PrefValueStore::Delegate"* }
%"class.PrefValueStore::Delegate" = type { i32 (...)** }
%class.scoped_refptr.71 = type { %class.PersistentPrefStore* }
%class.PersistentPrefStore = type { %class.WriteablePrefStore.base, [4 x i8] }
%class.WriteablePrefStore.base = type { %class.PrefStore.base }
%class.PrefStore.base = type <{ i32 (...)**, %"class.base::RefCounted" }>
%"class.base::RepeatingCallback.72" = type { %"class.base::internal::CallbackBaseCopyable" }
%class.scoped_refptr.73 = type { %class.PrefRegistry* }
%class.PrefRegistry = type opaque
%"class.std::__1::unordered_map" = type { %"class.std::__1::__hash_table" }
%"class.std::__1::__hash_table" = type <{ %"class.std::__1::unique_ptr.74", %"class.std::__1::__compressed_pair.82", %"class.std::__1::__compressed_pair.87", %"class.std::__1::__compressed_pair.89", [4 x i8] }>
%"class.std::__1::unique_ptr.74" = type { %"class.std::__1::__compressed_pair.75" }
%"class.std::__1::__compressed_pair.75" = type { %"struct.std::__1::__compressed_pair_elem.76", %"struct.std::__1::__compressed_pair_elem.77" }
%"struct.std::__1::__compressed_pair_elem.76" = type { %"struct.std::__1::__hash_node_base"** }
%"struct.std::__1::__hash_node_base" = type { %"struct.std::__1::__hash_node_base"* }
%"struct.std::__1::__compressed_pair_elem.77" = type { %"class.std::__1::__bucket_list_deallocator" }
%"class.std::__1::__bucket_list_deallocator" = type { %"class.std::__1::__compressed_pair.78" }
%"class.std::__1::__compressed_pair.78" = type { %"struct.std::__1::__compressed_pair_elem.2" }
%"class.std::__1::__compressed_pair.82" = type { %"struct.std::__1::__compressed_pair_elem.83" }
%"struct.std::__1::__compressed_pair_elem.83" = type { %"struct.std::__1::__hash_node_base" }
%"class.std::__1::__compressed_pair.87" = type { %"struct.std::__1::__compressed_pair_elem.2" }
%"class.std::__1::__compressed_pair.89" = type { %"struct.std::__1::__compressed_pair_elem.90" }
%"struct.std::__1::__compressed_pair_elem.90" = type { float }
%"class.mojo::ReceiverSetBase" = type { %"class.mojo::ReceiverSetState" }
%"class.mojo::ReceiverSetState" = type { %"class.base::RepeatingCallback.92", %"class.base::RepeatingCallback.93", i64, %"class.std::__1::map.94", i8*, i64, %"class.base::WeakPtrFactory.105" }
%"class.base::RepeatingCallback.92" = type { %"class.base::internal::CallbackBaseCopyable" }
%"class.base::RepeatingCallback.93" = type { %"class.base::internal::CallbackBaseCopyable" }
%"class.std::__1::map.94" = type { %"class.std::__1::__tree.95" }
%"class.std::__1::__tree.95" = type { %"class.std::__1::__tree_end_node"*, %"class.std::__1::__compressed_pair.96", %"class.std::__1::__compressed_pair.100" }
%"class.std::__1::__compressed_pair.96" = type { %"struct.std::__1::__compressed_pair_elem" }
%"class.std::__1::__compressed_pair.100" = type { %"struct.std::__1::__compressed_pair_elem.2" }
%"class.base::WeakPtrFactory.105" = type { %"class.base::internal::WeakPtrFactoryBase" }
%"class.base::TimeTicks" = type { %"class.base::time_internal::TimeBase" }
%"class.base::time_internal::TimeBase" = type { i64 }
%"class.translate::TranslateModelService" = type opaque
%"class.base::WeakPtrFactory.106" = type { %"class.base::internal::WeakPtrFactoryBase" }
%"class.std::__1::unique_ptr.110" = type { %"class.std::__1::__compressed_pair.111" }
%"class.std::__1::__compressed_pair.111" = type { %"struct.std::__1::__compressed_pair_elem.112" }
%"struct.std::__1::__compressed_pair_elem.112" = type { %"class.translate::PerFrameContentTranslateDriver"* }
%"class.translate::PerFrameContentTranslateDriver" = type { %"class.translate::ContentTranslateDriver", i32, i32, %"struct.translate::LanguageDetectionDetails", i8, %"class.base::TimeTicks", %"class.base::TimeTicks", %"struct.translate::PerFrameContentTranslateDriver::PendingRequestStats", %"class.base::WeakPtrFactory.141" }
%"struct.translate::LanguageDetectionDetails" = type { %"class.base::Time", %class.GURL, %"class.std::__1::basic_string", %"class.std::__1::basic_string", i8, i8, %"class.std::__1::basic_string", %"class.std::__1::basic_string", %"class.std::__1::basic_string.125", float, %"class.std::__1::basic_string" }
%"class.base::Time" = type { %"class.base::time_internal::TimeBase.113" }
%"class.base::time_internal::TimeBase.113" = type { i64 }
%class.GURL = type { %"class.std::__1::basic_string", i8, %"struct.url::Parsed", %"class.std::__1::unique_ptr.119" }
%"struct.url::Parsed" = type { %"struct.url::Component", %"struct.url::Component", %"struct.url::Component", %"struct.url::Component", %"struct.url::Component", %"struct.url::Component", %"struct.url::Component", %"struct.url::Component", i8, %"struct.url::Parsed"* }
%"struct.url::Component" = type { i32, i32 }
%"class.std::__1::unique_ptr.119" = type { %"class.std::__1::__compressed_pair.120" }
%"class.std::__1::__compressed_pair.120" = type { %"struct.std::__1::__compressed_pair_elem.121" }
%"struct.std::__1::__compressed_pair_elem.121" = type { %class.GURL* }
%"class.std::__1::basic_string.125" = type { %"class.std::__1::__compressed_pair.126" }
%"class.std::__1::__compressed_pair.126" = type { %"struct.std::__1::__compressed_pair_elem.127" }
%"struct.std::__1::__compressed_pair_elem.127" = type { %"struct.std::__1::basic_string<char16_t, std::__1::char_traits<char16_t>, std::__1::allocator<char16_t> >::__rep" }
%"struct.std::__1::basic_string<char16_t, std::__1::char_traits<char16_t>, std::__1::allocator<char16_t> >::__rep" = type { %union.anon.128 }
%union.anon.128 = type { %"struct.std::__1::basic_string<char16_t, std::__1::char_traits<char16_t>, std::__1::allocator<char16_t> >::__long" }
%"struct.std::__1::basic_string<char16_t, std::__1::char_traits<char16_t>, std::__1::allocator<char16_t> >::__long" = type { i16*, i64, i64 }
%"class.std::__1::basic_string" = type { %"class.std::__1::__compressed_pair.114" }
%"class.std::__1::__compressed_pair.114" = type { %"struct.std::__1::__compressed_pair_elem.115" }
%"struct.std::__1::__compressed_pair_elem.115" = type { %"struct.std::__1::basic_string<char, std::__1::char_traits<char>, std::__1::allocator<char> >::__rep" }
%"struct.std::__1::basic_string<char, std::__1::char_traits<char>, std::__1::allocator<char> >::__rep" = type { %union.anon }
%union.anon = type { %"struct.std::__1::basic_string<char, std::__1::char_traits<char>, std::__1::allocator<char> >::__long" }
%"struct.std::__1::basic_string<char, std::__1::char_traits<char>, std::__1::allocator<char> >::__long" = type { i8*, i64, i64 }
%"struct.translate::PerFrameContentTranslateDriver::PendingRequestStats" = type { i32, i8, i32, i32, i32, %"class.std::__1::vector.134" }
%"class.std::__1::vector.134" = type { %"class.std::__1::__vector_base.135" }
%"class.std::__1::__vector_base.135" = type { i32*, i32*, %"class.std::__1::__compressed_pair.136" }
%"class.std::__1::__compressed_pair.136" = type { %"struct.std::__1::__compressed_pair_elem.137" }
%"struct.std::__1::__compressed_pair_elem.137" = type { i32* }
%"class.base::WeakPtrFactory.141" = type { %"class.base::internal::WeakPtrFactoryBase" }
%"class.std::__1::unique_ptr.145" = type { %"class.std::__1::__compressed_pair.146" }
%"class.std::__1::__compressed_pair.146" = type { %"struct.std::__1::__compressed_pair_elem.147" }
%"struct.std::__1::__compressed_pair_elem.147" = type { %"class.translate::TranslateManager"* }
%"class.favicon::FaviconDriver" = type { i32 (...)**, %"class.base::ObserverList.151" }
%"class.base::ObserverList.151" = type <{ %"class.std::__1::vector.152", %"class.base::LinkedList.159", i64, i32, [4 x i8] }>
%"class.std::__1::vector.152" = type { %"class.std::__1::__vector_base.153" }
%"class.std::__1::__vector_base.153" = type { %"class.base::internal::UncheckedObserverAdapter"*, %"class.base::internal::UncheckedObserverAdapter"*, %"class.std::__1::__compressed_pair.154" }
%"class.base::internal::UncheckedObserverAdapter" = type { i8* }
%"class.std::__1::__compressed_pair.154" = type { %"struct.std::__1::__compressed_pair_elem.155" }
%"struct.std::__1::__compressed_pair_elem.155" = type { %"class.base::internal::UncheckedObserverAdapter"* }
%"class.base::LinkedList.159" = type { %"class.base::LinkNode.160" }
%"class.base::LinkNode.160" = type { %"class.base::internal::LinkNodeBase" }
%"class.content::WebContents" = type <{ %"class.content::PageNavigator", %"class.base::SupportsUserData.base", [7 x i8] }>
%"class.content::PageNavigator" = type { i32 (...)** }
%"class.base::SupportsUserData.base" = type <{ i32 (...)**, %"class.std::__1::map", %"class.base::SequenceCheckerDoNothing" }>
%"class.std::__1::map" = type { %"class.std::__1::__tree" }
%"class.std::__1::__tree" = type { %"class.std::__1::__tree_end_node"*, %"class.std::__1::__compressed_pair", %"class.std::__1::__compressed_pair.1" }
%"class.std::__1::__compressed_pair" = type { %"struct.std::__1::__compressed_pair_elem" }
%"class.std::__1::__compressed_pair.1" = type { %"struct.std::__1::__compressed_pair_elem.2" }
%"class.base::SequenceCheckerDoNothing" = type { i8 }
%"class.sync_sessions::SyncSessionsWebContentsRouter" = type { %"class.sync_sessions::LocalSessionEventRouter", %class.KeyedService, %"class.base::RepeatingCallback", %"class.sync_sessions::LocalSessionEventHandler"*, %"class.std::__1::unique_ptr" }
%"class.sync_sessions::LocalSessionEventRouter" = type { i32 (...)** }
%"class.base::RepeatingCallback" = type { %"class.base::internal::CallbackBaseCopyable" }
%"class.sync_sessions::LocalSessionEventHandler" = type { i32 (...)** }
%"class.std::__1::unique_ptr" = type { %"class.std::__1::__compressed_pair.12" }
%"class.std::__1::__compressed_pair.12" = type { %"struct.std::__1::__compressed_pair_elem.13" }
%"struct.std::__1::__compressed_pair_elem.13" = type { %"class.sync_sessions::BrowserListRouterHelper"* }
%"class.sync_sessions::BrowserListRouterHelper" = type opaque
%"class.base::SupportsUserData" = type <{ i32 (...)**, %"class.std::__1::map", %"class.base::SequenceCheckerDoNothing", [7 x i8] }>
%"class.favicon::ContentFaviconDriver" = type { %"class.content::WebContentsObserver", %"class.content::WebContentsUserData.162", %"class.favicon::FaviconDriverImpl", %class.GURL }
%"class.content::WebContentsUserData.162" = type { %"class.base::SupportsUserData::Data" }
%"class.favicon::FaviconDriverImpl" = type { %"class.favicon::FaviconDriver", %"class.favicon::FaviconHandler::Delegate", %"class.favicon::CoreFaviconService"*, %"class.std::__1::vector.163" }
%"class.favicon::FaviconHandler::Delegate" = type { i32 (...)** }
%"class.favicon::CoreFaviconService" = type opaque
%"class.std::__1::vector.163" = type { %"class.std::__1::__vector_base.164" }
%"class.std::__1::__vector_base.164" = type { %"class.std::__1::unique_ptr.165"*, %"class.std::__1::unique_ptr.165"*, %"class.std::__1::__compressed_pair.166" }
%"class.std::__1::unique_ptr.165" = type opaque
%"class.std::__1::__compressed_pair.166" = type { %"struct.std::__1::__compressed_pair_elem.167" }
%"struct.std::__1::__compressed_pair_elem.167" = type { %"class.std::__1::unique_ptr.165"* }
%"class.content::NavigationHandle" = type { %"class.base::SupportsUserData.base", [7 x i8] }
%"class.content::NavigationEntry" = type { %"class.base::SupportsUserData.base", [7 x i8] }
%"class.content::RenderFrameHost" = type { %"class.IPC::Listener", %"class.IPC::Sender" }
%"class.IPC::Sender" = type { i32 (...)** }
%"struct.content::Referrer" = type <{ %class.GURL, i32, [4 x i8] }>
%"class.gfx::Image" = type { %class.scoped_refptr.171 }
%class.scoped_refptr.171 = type { %"class.gfx::internal::ImageStorage"* }
%"class.gfx::internal::ImageStorage" = type opaque
%"class.IPC::Message" = type { %"class.base::Pickle", i8, %class.scoped_refptr.172 }
%"class.base::Pickle" = type { i32 (...)**, %"struct.base::Pickle::Header"*, i64, i64, i64 }
%"struct.base::Pickle::Header" = type { i32 }
%class.scoped_refptr.172 = type { %"class.IPC::MessageAttachmentSet"* }
%"class.IPC::MessageAttachmentSet" = type opaque
%"class.mojo::ScopedInterfaceEndpointHandle" = type { %class.scoped_refptr.173 }
%class.scoped_refptr.173 = type { %"class.mojo::ScopedInterfaceEndpointHandle::State"* }
%"class.mojo::ScopedInterfaceEndpointHandle::State" = type opaque
%"class.blink::mojom::CaptureHandleConfig" = type opaque
%"class.content::RenderViewHost" = type opaque
%"class.content::RenderProcessHost" = type opaque
%"struct.content::GlobalRequestID" = type { i32, i32 }
%"class.blink::mojom::ResourceLoadInfo" = type opaque
%"struct.content::CookieAccessDetails" = type <{ i32, [4 x i8], %class.GURL, %class.GURL, %"class.std::__1::vector.174", i8, [7 x i8] }>
%"class.std::__1::vector.174" = type { %"class.std::__1::__vector_base.175" }
%"class.std::__1::__vector_base.175" = type { %"class.net::CanonicalCookie"*, %"class.net::CanonicalCookie"*, %"class.std::__1::__compressed_pair.176" }
%"class.net::CanonicalCookie" = type { %"class.std::__1::basic_string", %"class.std::__1::basic_string", %"class.std::__1::basic_string", %"class.std::__1::basic_string", %"class.base::Time", %"class.base::Time", %"class.base::Time", i8, i8, i32, i32, i8, i32, i32 }
%"class.std::__1::__compressed_pair.176" = type { %"struct.std::__1::__compressed_pair_elem.177" }
%"struct.std::__1::__compressed_pair_elem.177" = type { %"class.net::CanonicalCookie"* }
%"struct.content::LoadCommittedDetails" = type opaque
%"struct.content::PrunedDetails" = type opaque
%"struct.content::EntryChangedDetails" = type opaque
%"class.blink::WebInputEvent" = type { i32 (...)**, float, %"class.gfx::Vector2dF", %"class.base::TimeTicks", i32, i32 }
%"class.gfx::Vector2dF" = type { float, float }
%"class.gfx::Size" = type { i32, i32 }
%"class.base::FilePath" = type { %"class.std::__1::basic_string" }
%"struct.blink::UserAgentOverride" = type { %"class.std::__1::basic_string", %"class.absl::optional" }
%"class.absl::optional" = type { %"class.absl::optional_internal::optional_data" }
%"class.absl::optional_internal::optional_data" = type { %"class.absl::optional_internal::optional_data_base" }
%"class.absl::optional_internal::optional_data_base" = type { %"class.absl::optional_internal::optional_data_dtor_base" }
%"class.absl::optional_internal::optional_data_dtor_base" = type { i8, [7 x i8], %union.anon.181 }
%union.anon.181 = type { %"struct.blink::UserAgentMetadata" }
%"struct.blink::UserAgentMetadata" = type <{ %"class.std::__1::vector.182", %"class.std::__1::basic_string", %"class.std::__1::basic_string", %"class.std::__1::basic_string", %"class.std::__1::basic_string", %"class.std::__1::basic_string", i8, [7 x i8] }>
%"class.std::__1::vector.182" = type { %"class.std::__1::__vector_base.183" }
%"class.std::__1::__vector_base.183" = type { %"struct.blink::UserAgentBrandVersion"*, %"struct.blink::UserAgentBrandVersion"*, %"class.std::__1::__compressed_pair.184" }
%"struct.blink::UserAgentBrandVersion" = type { %"class.std::__1::basic_string", %"class.std::__1::basic_string" }
%"class.std::__1::__compressed_pair.184" = type { %"struct.std::__1::__compressed_pair_elem.185" }
%"struct.std::__1::__compressed_pair_elem.185" = type { %"struct.blink::UserAgentBrandVersion"* }
%"class.std::__1::vector.189" = type opaque
%"struct.content::AXEventNotificationDetails" = type opaque
%"class.std::__1::vector.190" = type opaque
%"class.absl::optional.191" = type opaque
%"struct.content::WebContentsObserver::MediaPlayerInfo" = type { i8, i8 }
%"struct.content::MediaPlayerId" = type opaque
%"class.content::RenderWidgetHost" = type opaque
%"struct.content::FocusedNodeDetails" = type opaque
%"class.absl::optional.192" = type { %"class.absl::optional_internal::optional_data.193" }
%"class.absl::optional_internal::optional_data.193" = type { %"class.absl::optional_internal::optional_data_base.194" }
%"class.absl::optional_internal::optional_data_base.194" = type { %"class.absl::optional_internal::optional_data_dtor_base.195" }
%"class.absl::optional_internal::optional_data_dtor_base.195" = type { i8, %union.anon.196 }
%union.anon.196 = type { %class.GURL }
%"class.mojo::ScopedHandleBase" = type { %"class.mojo::MessagePipeHandle" }
%"class.mojo::MessagePipeHandle" = type { %"class.mojo::Handle" }
%"class.mojo::Handle" = type { i32 }
%"struct.std::__1::pair" = type opaque

$_ZN3IPC8Listener18OnChannelConnectedEi = comdat any

$_ZN3IPC8Listener14OnChannelErrorEv = comdat any

$_ZN3IPC8Listener20OnBadMessageReceivedERKNS_7MessageE = comdat any

$_ZN3IPC8Listener28OnAssociatedInterfaceRequestERKNSt3__112basic_stringIcNS1_11char_traitsIcEENS1_9allocatorIcEEEEN4mojo29ScopedInterfaceEndpointHandleE = comdat any

$_ZN3IPC8Listener15OnChannelDeniedEv = comdat any

$_ZN3IPC8Listener20OnChannelListenErrorEv = comdat any

$_ZN7content19WebContentsObserver18RenderFrameCreatedEPNS_15RenderFrameHostE = comdat any

$_ZN7content19WebContentsObserver18RenderFrameDeletedEPNS_15RenderFrameHostE = comdat any

$_ZN7content19WebContentsObserver22RenderFrameHostChangedEPNS_15RenderFrameHostES2_ = comdat any

$_ZN7content19WebContentsObserver12FrameDeletedEi = comdat any

$_ZN7content19WebContentsObserver27RenderFrameHostStateChangedEPNS_15RenderFrameHostENS1_14LifecycleStateES3_ = comdat any

$_ZN7content19WebContentsObserver20CaptureTargetChangedEv = comdat any

$_ZN7content19WebContentsObserver27OnCaptureHandleConfigUpdateERKN5blink5mojom19CaptureHandleConfigE = comdat any

$_ZN7content19WebContentsObserver15RenderViewReadyEv = comdat any

$_ZN7content19WebContentsObserver17RenderViewDeletedEPNS_14RenderViewHostE = comdat any

$_ZN7content19WebContentsObserver17RenderProcessGoneEN4base17TerminationStatusE = comdat any

$_ZN7content19WebContentsObserver21RenderViewHostChangedEPNS_14RenderViewHostES2_ = comdat any

$_ZN7content19WebContentsObserver22OnRendererUnresponsiveEPNS_17RenderProcessHostE = comdat any

$_ZN7content19WebContentsObserver20OnRendererResponsiveEPNS_17RenderProcessHostE = comdat any

$_ZN7content19WebContentsObserver18DidStartNavigationEPNS_16NavigationHandleE = comdat any

$_ZN7content19WebContentsObserver21DidRedirectNavigationEPNS_16NavigationHandleE = comdat any

$_ZN7content19WebContentsObserver23ReadyToCommitNavigationEPNS_16NavigationHandleE = comdat any

$_ZN7content19WebContentsObserver17DidActivatePortalEPNS_11WebContentsEN4base9TimeTicksE = comdat any

$_ZN7content19WebContentsObserver15DidStartLoadingEv = comdat any

$_ZN7content19WebContentsObserver18DidReceiveResponseEv = comdat any

$_ZN7content19WebContentsObserver14DidStopLoadingEv = comdat any

$_ZN7content19WebContentsObserver19LoadProgressChangedEd = comdat any

$_ZN7content19WebContentsObserver28DocumentAvailableInMainFrameEPNS_15RenderFrameHostE = comdat any

$_ZN7content19WebContentsObserver34DocumentOnLoadCompletedInMainFrameEPNS_15RenderFrameHostE = comdat any

$_ZN7content19WebContentsObserver16DOMContentLoadedEPNS_15RenderFrameHostE = comdat any

$_ZN7content19WebContentsObserver11DidFailLoadEPNS_15RenderFrameHostERK4GURLi = comdat any

$_ZN7content19WebContentsObserver29DidChangeVisibleSecurityStateEv = comdat any

$_ZN7content19WebContentsObserver30DidLoadResourceFromMemoryCacheEPNS_15RenderFrameHostERK4GURLRKNSt3__112basic_stringIcNS6_11char_traitsIcEENS6_9allocatorIcEEEEN7network5mojom18RequestDestinationE = comdat any

$_ZN7content19WebContentsObserver20ResourceLoadCompleteEPNS_15RenderFrameHostERKNS_15GlobalRequestIDERKN5blink5mojom16ResourceLoadInfoE = comdat any

$_ZN7content19WebContentsObserver17OnCookiesAccessedEPNS_15RenderFrameHostERKNS_19CookieAccessDetailsE = comdat any

$_ZN7content19WebContentsObserver17OnCookiesAccessedEPNS_16NavigationHandleERKNS_19CookieAccessDetailsE = comdat any

$_ZN7content19WebContentsObserver24NavigationEntryCommittedERKNS_20LoadCommittedDetailsE = comdat any

$_ZN7content19WebContentsObserver20NavigationListPrunedERKNS_13PrunedDetailsE = comdat any

$_ZN7content19WebContentsObserver24NavigationEntriesDeletedEv = comdat any

$_ZN7content19WebContentsObserver22NavigationEntryChangedERKNS_19EntryChangedDetailsE = comdat any

$_ZN7content19WebContentsObserver29DidFirstVisuallyNonEmptyPaintEv = comdat any

$_ZN7content19WebContentsObserver17NavigationStoppedEv = comdat any

$_ZN7content19WebContentsObserver21DidGetUserInteractionERKN5blink13WebInputEventE = comdat any

$_ZN7content19WebContentsObserver20DidGetIgnoredUIEventEv = comdat any

$_ZN7content19WebContentsObserver19OnVisibilityChangedENS_10VisibilityE = comdat any

$_ZN7content19WebContentsObserver19MainFrameWasResizedEb = comdat any

$_ZN7content19WebContentsObserver16FrameNameChangedEPNS_15RenderFrameHostERKNSt3__112basic_stringIcNS3_11char_traitsIcEENS3_9allocatorIcEEEE = comdat any

$_ZN7content19WebContentsObserver27FrameReceivedUserActivationEPNS_15RenderFrameHostE = comdat any

$_ZN7content19WebContentsObserver24FrameDisplayStateChangedEPNS_15RenderFrameHostEb = comdat any

$_ZN7content19WebContentsObserver16FrameSizeChangedEPNS_15RenderFrameHostERKN3gfx4SizeE = comdat any

$_ZN7content19WebContentsObserver16AppCacheAccessedERK4GURLb = comdat any

$_ZN7content19WebContentsObserver21PepperInstanceCreatedEv = comdat any

$_ZN7content19WebContentsObserver21PepperInstanceDeletedEv = comdat any

$_ZN7content19WebContentsObserver18ViewportFitChangedEN5blink5mojom11ViewportFitE = comdat any

$_ZN7content19WebContentsObserver13PluginCrashedERKN4base8FilePathEi = comdat any

$_ZN7content19WebContentsObserver23PluginHungStatusChangedEiRKN4base8FilePathEb = comdat any

$_ZN7content19WebContentsObserver23InnerWebContentsCreatedEPNS_11WebContentsE = comdat any

$_ZN7content19WebContentsObserver24InnerWebContentsAttachedEPNS_11WebContentsEPNS_15RenderFrameHostEb = comdat any

$_ZN7content19WebContentsObserver24InnerWebContentsDetachedEPNS_11WebContentsE = comdat any

$_ZN7content19WebContentsObserver24DidCloneToNewWebContentsEPNS_11WebContentsES2_ = comdat any

$_ZN7content19WebContentsObserver20UserAgentOverrideSetERKN5blink17UserAgentOverrideE = comdat any

$_ZN7content19WebContentsObserver19DidUpdateFaviconURLEPNS_15RenderFrameHostERKNSt3__16vectorIN4mojo9StructPtrIN5blink5mojom10FaviconURLEEENS3_9allocatorISA_EEEE = comdat any

$_ZN7content19WebContentsObserver19OnAudioStateChangedEb = comdat any

$_ZN7content19WebContentsObserver24OnFrameAudioStateChangedEPNS_15RenderFrameHostEb = comdat any

$_ZN7content19WebContentsObserver37OnIsConnectedToBluetoothDeviceChangedEb = comdat any

$_ZN7content19WebContentsObserver25DidUpdateAudioMutingStateEb = comdat any

$_ZN7content19WebContentsObserver29DidToggleFullscreenModeForTabEbb = comdat any

$_ZN7content19WebContentsObserver20DidAcquireFullscreenEPNS_15RenderFrameHostE = comdat any

$_ZN7content19WebContentsObserver32DidChangeVerticalScrollDirectionEN3viz23VerticalScrollDirectionE = comdat any

$_ZN7content19WebContentsObserver27BeforeFormRepostWarningShowEv = comdat any

$_ZN7content19WebContentsObserver17BeforeUnloadFiredEbRKN4base9TimeTicksE = comdat any

$_ZN7content19WebContentsObserver27BeforeUnloadDialogCancelledEv = comdat any

$_ZN7content19WebContentsObserver30AXTreeIDForMainFrameHasChangedEv = comdat any

$_ZN7content19WebContentsObserver26AccessibilityEventReceivedERKNS_26AXEventNotificationDetailsE = comdat any

$_ZN7content19WebContentsObserver36AccessibilityLocationChangesReceivedERKNSt3__16vectorINS_35AXLocationChangeNotificationDetailsENS1_9allocatorIS3_EEEE = comdat any

$_ZN7content19WebContentsObserver19DidChangeThemeColorEv = comdat any

$_ZN7content19WebContentsObserver24OnBackgroundColorChangedEv = comdat any

$_ZN7content19WebContentsObserver24OnDidAddMessageToConsoleEPNS_15RenderFrameHostEN5blink5mojom19ConsoleMessageLevelERKNSt3__112basic_stringIDsNS6_11char_traitsIDsEENS6_9allocatorIDsEEEEiSE_RKN4absl8optionalISC_EE = comdat any

$_ZN7content19WebContentsObserver19MediaStartedPlayingERKNS0_15MediaPlayerInfoERKNS_13MediaPlayerIdE = comdat any

$_ZN7content19WebContentsObserver19MediaStoppedPlayingERKNS0_15MediaPlayerInfoERKNS_13MediaPlayerIdENS0_18MediaStoppedReasonE = comdat any

$_ZN7content19WebContentsObserver12MediaResizedERKN3gfx4SizeERKNS_13MediaPlayerIdE = comdat any

$_ZN7content19WebContentsObserver33MediaEffectivelyFullscreenChangedEb = comdat any

$_ZN7content19WebContentsObserver28MediaPictureInPictureChangedEb = comdat any

$_ZN7content19WebContentsObserver23MediaMutedStatusChangedERKNS_13MediaPlayerIdEb = comdat any

$_ZN7content19WebContentsObserver20MediaBufferUnderflowERKNS_13MediaPlayerIdE = comdat any

$_ZN7content19WebContentsObserver15MediaPlayerSeekERKNS_13MediaPlayerIdE = comdat any

$_ZN7content19WebContentsObserver14MediaDestroyedERKNS_13MediaPlayerIdE = comdat any

$_ZN7content19WebContentsObserver24OnPageScaleFactorChangedEf = comdat any

$_ZN7content19WebContentsObserver7OnPasteEv = comdat any

$_ZN7content19WebContentsObserver20OnWebContentsFocusedEPNS_16RenderWidgetHostE = comdat any

$_ZN7content19WebContentsObserver22OnWebContentsLostFocusEPNS_16RenderWidgetHostE = comdat any

$_ZN7content19WebContentsObserver20OnFocusChangedInPageEPNS_18FocusedNodeDetailsE = comdat any

$_ZN7content19WebContentsObserver23DidUpdateWebManifestURLEPNS_15RenderFrameHostERKN4absl8optionalI4GURLEE = comdat any

$_ZN7content19WebContentsObserver27OnInterfaceRequestFromFrameEPNS_15RenderFrameHostERKNSt3__112basic_stringIcNS3_11char_traitsIcEENS3_9allocatorIcEEEEPN4mojo16ScopedHandleBaseINSC_17MessagePipeHandleEEE = comdat any

$_ZN7content19WebContentsObserver27AudioContextPlaybackStartedERKNSt3__14pairIPNS_15RenderFrameHostEiEE = comdat any

$_ZN7content19WebContentsObserver27AudioContextPlaybackStoppedERKNSt3__14pairIPNS_15RenderFrameHostEiEE = comdat any

$_ZN7content19WebContentsObserver23OnServiceWorkerAccessedEPNS_15RenderFrameHostERK4GURLNS_24AllowServiceWorkerResultE = comdat any

$_ZN7content19WebContentsObserver23OnServiceWorkerAccessedEPNS_16NavigationHandleERK4GURLNS_24AllowServiceWorkerResultE = comdat any

$_ZN9translate15TranslateDriver25LanguageDetectionObserver26OnTranslateDriverDestroyedEPS0_ = comdat any

$_ZN4base16SupportsUserData4DataD2Ev = comdat any

$_ZN7content19WebContentsUserDataIN13sync_sessions27SyncSessionsRouterTabHelperEED0Ev = comdat any

$_ZTVN7content19WebContentsUserDataIN13sync_sessions27SyncSessionsRouterTabHelperEEE = comdat any

@_ZTVN13sync_sessions27SyncSessionsRouterTabHelperE = hidden unnamed_addr constant { [12 x i8*], [109 x i8*], [6 x i8*], [5 x i8*] } { [12 x i8*] [i8* null, i8* null, i8* bitcast (void (%"class.sync_sessions::SyncSessionsRouterTabHelper"*)* @_ZN13sync_sessions27SyncSessionsRouterTabHelperD2Ev to i8*), i8* bitcast (void (%"class.sync_sessions::SyncSessionsRouterTabHelper"*)* @_ZN13sync_sessions27SyncSessionsRouterTabHelperD0Ev to i8*), i8* bitcast (void ()* @_ZN4base16SupportsUserData4Data5CloneEv to i8*), i8* bitcast (void (%"class.sync_sessions::SyncSessionsRouterTabHelper"*, %"class.content::NavigationHandle"*)* @_ZN13sync_sessions27SyncSessionsRouterTabHelper19DidFinishNavigationEPN7content16NavigationHandleE to i8*), i8* bitcast (void (%"class.sync_sessions::SyncSessionsRouterTabHelper"*, %"class.content::NavigationEntry"*)* @_ZN13sync_sessions27SyncSessionsRouterTabHelper11TitleWasSetEPN7content15NavigationEntryE to i8*), i8* bitcast (void (%"class.sync_sessions::SyncSessionsRouterTabHelper"*)* @_ZN13sync_sessions27SyncSessionsRouterTabHelper20WebContentsDestroyedEv to i8*), i8* bitcast (void (%"class.sync_sessions::SyncSessionsRouterTabHelper"*, %"class.content::RenderFrameHost"*, %class.GURL*)* @_ZN13sync_sessions27SyncSessionsRouterTabHelper13DidFinishLoadEPN7content15RenderFrameHostERK4GURL to i8*), i8* bitcast (void (%"class.sync_sessions::SyncSessionsRouterTabHelper"*, %"class.content::WebContents"*, %"class.content::RenderFrameHost"*, %class.GURL*, %"struct.content::Referrer"*, i32, i32, i1, i1)* @_ZN13sync_sessions27SyncSessionsRouterTabHelper19DidOpenRequestedURLEPN7content11WebContentsEPNS1_15RenderFrameHostERK4GURLRKNS1_8ReferrerE21WindowOpenDispositionN2ui14PageTransitionEbb to i8*), i8* bitcast (void (%"class.sync_sessions::SyncSessionsRouterTabHelper"*, %"struct.translate::LanguageDetectionDetails"*)* @_ZN13sync_sessions27SyncSessionsRouterTabHelper20OnLanguageDeterminedERKN9translate24LanguageDetectionDetailsE to i8*), i8* bitcast (void (%"class.sync_sessions::SyncSessionsRouterTabHelper"*, %"class.favicon::FaviconDriver"*, i32, %class.GURL*, i1, %"class.gfx::Image"*)* @_ZN13sync_sessions27SyncSessionsRouterTabHelper16OnFaviconUpdatedEPN7favicon13FaviconDriverENS1_21FaviconDriverObserver20NotificationIconTypeERK4GURLbRKN3gfx5ImageE to i8*)], [109 x i8*] [i8* inttoptr (i64 -8 to i8*), i8* null, i8* bitcast (i1 (%"class.content::WebContentsObserver"*, %"class.IPC::Message"*)* @_ZN7content19WebContentsObserver17OnMessageReceivedERKN3IPC7MessageE to i8*), i8* bitcast (void (%"class.IPC::Listener"*, i32)* @_ZN3IPC8Listener18OnChannelConnectedEi to i8*), i8* bitcast (void (%"class.IPC::Listener"*)* @_ZN3IPC8Listener14OnChannelErrorEv to i8*), i8* bitcast (void (%"class.IPC::Listener"*, %"class.IPC::Message"*)* @_ZN3IPC8Listener20OnBadMessageReceivedERKNS_7MessageE to i8*), i8* bitcast (void (%"class.IPC::Listener"*, %"class.std::__1::basic_string"*, %"class.mojo::ScopedInterfaceEndpointHandle"*)* @_ZN3IPC8Listener28OnAssociatedInterfaceRequestERKNSt3__112basic_stringIcNS1_11char_traitsIcEENS1_9allocatorIcEEEEN4mojo29ScopedInterfaceEndpointHandleE to i8*), i8* bitcast (void (%"class.IPC::Listener"*)* @_ZN3IPC8Listener15OnChannelDeniedEv to i8*), i8* bitcast (void (%"class.IPC::Listener"*)* @_ZN3IPC8Listener20OnChannelListenErrorEv to i8*), i8* bitcast (void (%"class.sync_sessions::SyncSessionsRouterTabHelper"*)* @_ZThn8_N13sync_sessions27SyncSessionsRouterTabHelperD1Ev to i8*), i8* bitcast (void (%"class.sync_sessions::SyncSessionsRouterTabHelper"*)* @_ZThn8_N13sync_sessions27SyncSessionsRouterTabHelperD0Ev to i8*), i8* bitcast (void (%"class.content::WebContentsObserver"*, %"class.content::RenderFrameHost"*)* @_ZN7content19WebContentsObserver18RenderFrameCreatedEPNS_15RenderFrameHostE to i8*), i8* bitcast (void (%"class.content::WebContentsObserver"*, %"class.content::RenderFrameHost"*)* @_ZN7content19WebContentsObserver18RenderFrameDeletedEPNS_15RenderFrameHostE to i8*), i8* bitcast (void (%"class.content::WebContentsObserver"*, %"class.content::RenderFrameHost"*, %"class.content::RenderFrameHost"*)* @_ZN7content19WebContentsObserver22RenderFrameHostChangedEPNS_15RenderFrameHostES2_ to i8*), i8* bitcast (void (%"class.content::WebContentsObserver"*, i32)* @_ZN7content19WebContentsObserver12FrameDeletedEi to i8*), i8* bitcast (void (%"class.content::WebContentsObserver"*, %"class.content::RenderFrameHost"*, i32, i32)* @_ZN7content19WebContentsObserver27RenderFrameHostStateChangedEPNS_15RenderFrameHostENS1_14LifecycleStateES3_ to i8*), i8* bitcast (void (%"class.content::WebContentsObserver"*)* @_ZN7content19WebContentsObserver20CaptureTargetChangedEv to i8*), i8* bitcast (void (%"class.content::WebContentsObserver"*, %"class.blink::mojom::CaptureHandleConfig"*)* @_ZN7content19WebContentsObserver27OnCaptureHandleConfigUpdateERKN5blink5mojom19CaptureHandleConfigE to i8*), i8* bitcast (void (%"class.content::WebContentsObserver"*)* @_ZN7content19WebContentsObserver15RenderViewReadyEv to i8*), i8* bitcast (void (%"class.content::WebContentsObserver"*, %"class.content::RenderViewHost"*)* @_ZN7content19WebContentsObserver17RenderViewDeletedEPNS_14RenderViewHostE to i8*), i8* bitcast (void (%"class.content::WebContentsObserver"*, i32)* @_ZN7content19WebContentsObserver17RenderProcessGoneEN4base17TerminationStatusE to i8*), i8* bitcast (void (%"class.content::WebContentsObserver"*, %"class.content::RenderViewHost"*, %"class.content::RenderViewHost"*)* @_ZN7content19WebContentsObserver21RenderViewHostChangedEPNS_14RenderViewHostES2_ to i8*), i8* bitcast (void (%"class.content::WebContentsObserver"*, %"class.content::RenderProcessHost"*)* @_ZN7content19WebContentsObserver22OnRendererUnresponsiveEPNS_17RenderProcessHostE to i8*), i8* bitcast (void (%"class.content::WebContentsObserver"*, %"class.content::RenderProcessHost"*)* @_ZN7content19WebContentsObserver20OnRendererResponsiveEPNS_17RenderProcessHostE to i8*), i8* bitcast (void (%"class.content::WebContentsObserver"*, %"class.content::NavigationHandle"*)* @_ZN7content19WebContentsObserver18DidStartNavigationEPNS_16NavigationHandleE to i8*), i8* bitcast (void (%"class.content::WebContentsObserver"*, %"class.content::NavigationHandle"*)* @_ZN7content19WebContentsObserver21DidRedirectNavigationEPNS_16NavigationHandleE to i8*), i8* bitcast (void (%"class.content::WebContentsObserver"*, %"class.content::NavigationHandle"*)* @_ZN7content19WebContentsObserver23ReadyToCommitNavigationEPNS_16NavigationHandleE to i8*), i8* bitcast (void (%"class.sync_sessions::SyncSessionsRouterTabHelper"*, %"class.content::NavigationHandle"*)* @_ZThn8_N13sync_sessions27SyncSessionsRouterTabHelper19DidFinishNavigationEPN7content16NavigationHandleE to i8*), i8* bitcast (void (%"class.content::WebContentsObserver"*, %"class.content::WebContents"*, i64)* @_ZN7content19WebContentsObserver17DidActivatePortalEPNS_11WebContentsEN4base9TimeTicksE to i8*), i8* bitcast (void (%"class.content::WebContentsObserver"*)* @_ZN7content19WebContentsObserver15DidStartLoadingEv to i8*), i8* bitcast (void (%"class.content::WebContentsObserver"*)* @_ZN7content19WebContentsObserver18DidReceiveResponseEv to i8*), i8* bitcast (void (%"class.content::WebContentsObserver"*)* @_ZN7content19WebContentsObserver14DidStopLoadingEv to i8*), i8* bitcast (void (%"class.content::WebContentsObserver"*, double)* @_ZN7content19WebContentsObserver19LoadProgressChangedEd to i8*), i8* bitcast (void (%"class.content::WebContentsObserver"*, %"class.content::RenderFrameHost"*)* @_ZN7content19WebContentsObserver28DocumentAvailableInMainFrameEPNS_15RenderFrameHostE to i8*), i8* bitcast (void (%"class.content::WebContentsObserver"*, %"class.content::RenderFrameHost"*)* @_ZN7content19WebContentsObserver34DocumentOnLoadCompletedInMainFrameEPNS_15RenderFrameHostE to i8*), i8* bitcast (void (%"class.content::WebContentsObserver"*, %"class.content::RenderFrameHost"*)* @_ZN7content19WebContentsObserver16DOMContentLoadedEPNS_15RenderFrameHostE to i8*), i8* bitcast (void (%"class.sync_sessions::SyncSessionsRouterTabHelper"*, %"class.content::RenderFrameHost"*, %class.GURL*)* @_ZThn8_N13sync_sessions27SyncSessionsRouterTabHelper13DidFinishLoadEPN7content15RenderFrameHostERK4GURL to i8*), i8* bitcast (void (%"class.content::WebContentsObserver"*, %"class.content::RenderFrameHost"*, %class.GURL*, i32)* @_ZN7content19WebContentsObserver11DidFailLoadEPNS_15RenderFrameHostERK4GURLi to i8*), i8* bitcast (void (%"class.content::WebContentsObserver"*)* @_ZN7content19WebContentsObserver29DidChangeVisibleSecurityStateEv to i8*), i8* bitcast (void (%"class.content::WebContentsObserver"*, %"class.content::RenderFrameHost"*, %class.GURL*, %"class.std::__1::basic_string"*, i32)* @_ZN7content19WebContentsObserver30DidLoadResourceFromMemoryCacheEPNS_15RenderFrameHostERK4GURLRKNSt3__112basic_stringIcNS6_11char_traitsIcEENS6_9allocatorIcEEEEN7network5mojom18RequestDestinationE to i8*), i8* bitcast (void (%"class.content::WebContentsObserver"*, %"class.content::RenderFrameHost"*, %"struct.content::GlobalRequestID"*, %"class.blink::mojom::ResourceLoadInfo"*)* @_ZN7content19WebContentsObserver20ResourceLoadCompleteEPNS_15RenderFrameHostERKNS_15GlobalRequestIDERKN5blink5mojom16ResourceLoadInfoE to i8*), i8* bitcast (void (%"class.content::WebContentsObserver"*, %"class.content::RenderFrameHost"*, %"struct.content::CookieAccessDetails"*)* @_ZN7content19WebContentsObserver17OnCookiesAccessedEPNS_15RenderFrameHostERKNS_19CookieAccessDetailsE to i8*), i8* bitcast (void (%"class.content::WebContentsObserver"*, %"class.content::NavigationHandle"*, %"struct.content::CookieAccessDetails"*)* @_ZN7content19WebContentsObserver17OnCookiesAccessedEPNS_16NavigationHandleERKNS_19CookieAccessDetailsE to i8*), i8* bitcast (void (%"class.content::WebContentsObserver"*, %"struct.content::LoadCommittedDetails"*)* @_ZN7content19WebContentsObserver24NavigationEntryCommittedERKNS_20LoadCommittedDetailsE to i8*), i8* bitcast (void (%"class.content::WebContentsObserver"*, %"struct.content::PrunedDetails"*)* @_ZN7content19WebContentsObserver20NavigationListPrunedERKNS_13PrunedDetailsE to i8*), i8* bitcast (void (%"class.content::WebContentsObserver"*)* @_ZN7content19WebContentsObserver24NavigationEntriesDeletedEv to i8*), i8* bitcast (void (%"class.content::WebContentsObserver"*, %"struct.content::EntryChangedDetails"*)* @_ZN7content19WebContentsObserver22NavigationEntryChangedERKNS_19EntryChangedDetailsE to i8*), i8* bitcast (void (%"class.sync_sessions::SyncSessionsRouterTabHelper"*, %"class.content::WebContents"*, %"class.content::RenderFrameHost"*, %class.GURL*, %"struct.content::Referrer"*, i32, i32, i1, i1)* @_ZThn8_N13sync_sessions27SyncSessionsRouterTabHelper19DidOpenRequestedURLEPN7content11WebContentsEPNS1_15RenderFrameHostERK4GURLRKNS1_8ReferrerE21WindowOpenDispositionN2ui14PageTransitionEbb to i8*), i8* bitcast (void (%"class.content::WebContentsObserver"*)* @_ZN7content19WebContentsObserver29DidFirstVisuallyNonEmptyPaintEv to i8*), i8* bitcast (void (%"class.content::WebContentsObserver"*)* @_ZN7content19WebContentsObserver17NavigationStoppedEv to i8*), i8* bitcast (void (%"class.content::WebContentsObserver"*, %"class.blink::WebInputEvent"*)* @_ZN7content19WebContentsObserver21DidGetUserInteractionERKN5blink13WebInputEventE to i8*), i8* bitcast (void (%"class.content::WebContentsObserver"*)* @_ZN7content19WebContentsObserver20DidGetIgnoredUIEventEv to i8*), i8* bitcast (void (%"class.content::WebContentsObserver"*, i32)* @_ZN7content19WebContentsObserver19OnVisibilityChangedENS_10VisibilityE to i8*), i8* bitcast (void (%"class.content::WebContentsObserver"*, i1)* @_ZN7content19WebContentsObserver19MainFrameWasResizedEb to i8*), i8* bitcast (void (%"class.content::WebContentsObserver"*, %"class.content::RenderFrameHost"*, %"class.std::__1::basic_string"*)* @_ZN7content19WebContentsObserver16FrameNameChangedEPNS_15RenderFrameHostERKNSt3__112basic_stringIcNS3_11char_traitsIcEENS3_9allocatorIcEEEE to i8*), i8* bitcast (void (%"class.content::WebContentsObserver"*, %"class.content::RenderFrameHost"*)* @_ZN7content19WebContentsObserver27FrameReceivedUserActivationEPNS_15RenderFrameHostE to i8*), i8* bitcast (void (%"class.content::WebContentsObserver"*, %"class.content::RenderFrameHost"*, i1)* @_ZN7content19WebContentsObserver24FrameDisplayStateChangedEPNS_15RenderFrameHostEb to i8*), i8* bitcast (void (%"class.content::WebContentsObserver"*, %"class.content::RenderFrameHost"*, %"class.gfx::Size"*)* @_ZN7content19WebContentsObserver16FrameSizeChangedEPNS_15RenderFrameHostERKN3gfx4SizeE to i8*), i8* bitcast (void (%"class.sync_sessions::SyncSessionsRouterTabHelper"*, %"class.content::NavigationEntry"*)* @_ZThn8_N13sync_sessions27SyncSessionsRouterTabHelper11TitleWasSetEPN7content15NavigationEntryE to i8*), i8* bitcast (void (%"class.content::WebContentsObserver"*, %class.GURL*, i1)* @_ZN7content19WebContentsObserver16AppCacheAccessedERK4GURLb to i8*), i8* bitcast (void (%"class.content::WebContentsObserver"*)* @_ZN7content19WebContentsObserver21PepperInstanceCreatedEv to i8*), i8* bitcast (void (%"class.content::WebContentsObserver"*)* @_ZN7content19WebContentsObserver21PepperInstanceDeletedEv to i8*), i8* bitcast (void (%"class.content::WebContentsObserver"*, i32)* @_ZN7content19WebContentsObserver18ViewportFitChangedEN5blink5mojom11ViewportFitE to i8*), i8* bitcast (void (%"class.content::WebContentsObserver"*, %"class.base::FilePath"*, i32)* @_ZN7content19WebContentsObserver13PluginCrashedERKN4base8FilePathEi to i8*), i8* bitcast (void (%"class.content::WebContentsObserver"*, i32, %"class.base::FilePath"*, i1)* @_ZN7content19WebContentsObserver23PluginHungStatusChangedEiRKN4base8FilePathEb to i8*), i8* bitcast (void (%"class.content::WebContentsObserver"*, %"class.content::WebContents"*)* @_ZN7content19WebContentsObserver23InnerWebContentsCreatedEPNS_11WebContentsE to i8*), i8* bitcast (void (%"class.content::WebContentsObserver"*, %"class.content::WebContents"*, %"class.content::RenderFrameHost"*, i1)* @_ZN7content19WebContentsObserver24InnerWebContentsAttachedEPNS_11WebContentsEPNS_15RenderFrameHostEb to i8*), i8* bitcast (void (%"class.content::WebContentsObserver"*, %"class.content::WebContents"*)* @_ZN7content19WebContentsObserver24InnerWebContentsDetachedEPNS_11WebContentsE to i8*), i8* bitcast (void (%"class.content::WebContentsObserver"*, %"class.content::WebContents"*, %"class.content::WebContents"*)* @_ZN7content19WebContentsObserver24DidCloneToNewWebContentsEPNS_11WebContentsES2_ to i8*), i8* bitcast (void (%"class.sync_sessions::SyncSessionsRouterTabHelper"*)* @_ZThn8_N13sync_sessions27SyncSessionsRouterTabHelper20WebContentsDestroyedEv to i8*), i8* bitcast (void (%"class.content::WebContentsObserver"*, %"struct.blink::UserAgentOverride"*)* @_ZN7content19WebContentsObserver20UserAgentOverrideSetERKN5blink17UserAgentOverrideE to i8*), i8* bitcast (void (%"class.content::WebContentsObserver"*, %"class.content::RenderFrameHost"*, %"class.std::__1::vector.189"*)* @_ZN7content19WebContentsObserver19DidUpdateFaviconURLEPNS_15RenderFrameHostERKNSt3__16vectorIN4mojo9StructPtrIN5blink5mojom10FaviconURLEEENS3_9allocatorISA_EEEE to i8*), i8* bitcast (void (%"class.content::WebContentsObserver"*, i1)* @_ZN7content19WebContentsObserver19OnAudioStateChangedEb to i8*), i8* bitcast (void (%"class.content::WebContentsObserver"*, %"class.content::RenderFrameHost"*, i1)* @_ZN7content19WebContentsObserver24OnFrameAudioStateChangedEPNS_15RenderFrameHostEb to i8*), i8* bitcast (void (%"class.content::WebContentsObserver"*, i1)* @_ZN7content19WebContentsObserver37OnIsConnectedToBluetoothDeviceChangedEb to i8*), i8* bitcast (void (%"class.content::WebContentsObserver"*, i1)* @_ZN7content19WebContentsObserver25DidUpdateAudioMutingStateEb to i8*), i8* bitcast (void (%"class.content::WebContentsObserver"*, i1, i1)* @_ZN7content19WebContentsObserver29DidToggleFullscreenModeForTabEbb to i8*), i8* bitcast (void (%"class.content::WebContentsObserver"*, %"class.content::RenderFrameHost"*)* @_ZN7content19WebContentsObserver20DidAcquireFullscreenEPNS_15RenderFrameHostE to i8*), i8* bitcast (void (%"class.content::WebContentsObserver"*, i32)* @_ZN7content19WebContentsObserver32DidChangeVerticalScrollDirectionEN3viz23VerticalScrollDirectionE to i8*), i8* bitcast (void (%"class.content::WebContentsObserver"*)* @_ZN7content19WebContentsObserver27BeforeFormRepostWarningShowEv to i8*), i8* bitcast (void (%"class.content::WebContentsObserver"*, i1, %"class.base::TimeTicks"*)* @_ZN7content19WebContentsObserver17BeforeUnloadFiredEbRKN4base9TimeTicksE to i8*), i8* bitcast (void (%"class.content::WebContentsObserver"*)* @_ZN7content19WebContentsObserver27BeforeUnloadDialogCancelledEv to i8*), i8* bitcast (void (%"class.content::WebContentsObserver"*)* @_ZN7content19WebContentsObserver30AXTreeIDForMainFrameHasChangedEv to i8*), i8* bitcast (void (%"class.content::WebContentsObserver"*, %"struct.content::AXEventNotificationDetails"*)* @_ZN7content19WebContentsObserver26AccessibilityEventReceivedERKNS_26AXEventNotificationDetailsE to i8*), i8* bitcast (void (%"class.content::WebContentsObserver"*, %"class.std::__1::vector.190"*)* @_ZN7content19WebContentsObserver36AccessibilityLocationChangesReceivedERKNSt3__16vectorINS_35AXLocationChangeNotificationDetailsENS1_9allocatorIS3_EEEE to i8*), i8* bitcast (void (%"class.content::WebContentsObserver"*)* @_ZN7content19WebContentsObserver19DidChangeThemeColorEv to i8*), i8* bitcast (void (%"class.content::WebContentsObserver"*)* @_ZN7content19WebContentsObserver24OnBackgroundColorChangedEv to i8*), i8* bitcast (void (%"class.content::WebContentsObserver"*, %"class.content::RenderFrameHost"*, i32, %"class.std::__1::basic_string.125"*, i32, %"class.std::__1::basic_string.125"*, %"class.absl::optional.191"*)* @_ZN7content19WebContentsObserver24OnDidAddMessageToConsoleEPNS_15RenderFrameHostEN5blink5mojom19ConsoleMessageLevelERKNSt3__112basic_stringIDsNS6_11char_traitsIDsEENS6_9allocatorIDsEEEEiSE_RKN4absl8optionalISC_EE to i8*), i8* bitcast (void (%"class.content::WebContentsObserver"*, %"struct.content::WebContentsObserver::MediaPlayerInfo"*, %"struct.content::MediaPlayerId"*)* @_ZN7content19WebContentsObserver19MediaStartedPlayingERKNS0_15MediaPlayerInfoERKNS_13MediaPlayerIdE to i8*), i8* bitcast (void (%"class.content::WebContentsObserver"*, %"struct.content::WebContentsObserver::MediaPlayerInfo"*, %"struct.content::MediaPlayerId"*, i32)* @_ZN7content19WebContentsObserver19MediaStoppedPlayingERKNS0_15MediaPlayerInfoERKNS_13MediaPlayerIdENS0_18MediaStoppedReasonE to i8*), i8* bitcast (void (%"class.content::WebContentsObserver"*, %"class.gfx::Size"*, %"struct.content::MediaPlayerId"*)* @_ZN7content19WebContentsObserver12MediaResizedERKN3gfx4SizeERKNS_13MediaPlayerIdE to i8*), i8* bitcast (void (%"class.content::WebContentsObserver"*, i1)* @_ZN7content19WebContentsObserver33MediaEffectivelyFullscreenChangedEb to i8*), i8* bitcast (void (%"class.content::WebContentsObserver"*, i1)* @_ZN7content19WebContentsObserver28MediaPictureInPictureChangedEb to i8*), i8* bitcast (void (%"class.content::WebContentsObserver"*, %"struct.content::MediaPlayerId"*, i1)* @_ZN7content19WebContentsObserver23MediaMutedStatusChangedERKNS_13MediaPlayerIdEb to i8*), i8* bitcast (void (%"class.content::WebContentsObserver"*, %"struct.content::MediaPlayerId"*)* @_ZN7content19WebContentsObserver20MediaBufferUnderflowERKNS_13MediaPlayerIdE to i8*), i8* bitcast (void (%"class.content::WebContentsObserver"*, %"struct.content::MediaPlayerId"*)* @_ZN7content19WebContentsObserver15MediaPlayerSeekERKNS_13MediaPlayerIdE to i8*), i8* bitcast (void (%"class.content::WebContentsObserver"*, %"struct.content::MediaPlayerId"*)* @_ZN7content19WebContentsObserver14MediaDestroyedERKNS_13MediaPlayerIdE to i8*), i8* bitcast (void (%"class.content::WebContentsObserver"*, float)* @_ZN7content19WebContentsObserver24OnPageScaleFactorChangedEf to i8*), i8* bitcast (void (%"class.content::WebContentsObserver"*)* @_ZN7content19WebContentsObserver7OnPasteEv to i8*), i8* bitcast (i1 (%"class.content::WebContentsObserver"*, %"class.IPC::Message"*, %"class.content::RenderFrameHost"*)* @_ZN7content19WebContentsObserver17OnMessageReceivedERKN3IPC7MessageEPNS_15RenderFrameHostE to i8*), i8* bitcast (void (%"class.content::WebContentsObserver"*, %"class.content::RenderWidgetHost"*)* @_ZN7content19WebContentsObserver20OnWebContentsFocusedEPNS_16RenderWidgetHostE to i8*), i8* bitcast (void (%"class.content::WebContentsObserver"*, %"class.content::RenderWidgetHost"*)* @_ZN7content19WebContentsObserver22OnWebContentsLostFocusEPNS_16RenderWidgetHostE to i8*), i8* bitcast (void (%"class.content::WebContentsObserver"*, %"struct.content::FocusedNodeDetails"*)* @_ZN7content19WebContentsObserver20OnFocusChangedInPageEPNS_18FocusedNodeDetailsE to i8*), i8* bitcast (void (%"class.content::WebContentsObserver"*, %"class.content::RenderFrameHost"*, %"class.absl::optional.192"*)* @_ZN7content19WebContentsObserver23DidUpdateWebManifestURLEPNS_15RenderFrameHostERKN4absl8optionalI4GURLEE to i8*), i8* bitcast (void (%"class.content::WebContentsObserver"*, %"class.content::RenderFrameHost"*, %"class.std::__1::basic_string"*, %"class.mojo::ScopedHandleBase"*)* @_ZN7content19WebContentsObserver27OnInterfaceRequestFromFrameEPNS_15RenderFrameHostERKNSt3__112basic_stringIcNS3_11char_traitsIcEENS3_9allocatorIcEEEEPN4mojo16ScopedHandleBaseINSC_17MessagePipeHandleEEE to i8*), i8* bitcast (void (%"class.content::WebContentsObserver"*, %"struct.std::__1::pair"*)* @_ZN7content19WebContentsObserver27AudioContextPlaybackStartedERKNSt3__14pairIPNS_15RenderFrameHostEiEE to i8*), i8* bitcast (void (%"class.content::WebContentsObserver"*, %"struct.std::__1::pair"*)* @_ZN7content19WebContentsObserver27AudioContextPlaybackStoppedERKNSt3__14pairIPNS_15RenderFrameHostEiEE to i8*), i8* bitcast (void (%"class.content::WebContentsObserver"*, %"class.content::RenderFrameHost"*, %class.GURL*, i24)* @_ZN7content19WebContentsObserver23OnServiceWorkerAccessedEPNS_15RenderFrameHostERK4GURLNS_24AllowServiceWorkerResultE to i8*), i8* bitcast (void (%"class.content::WebContentsObserver"*, %"class.content::NavigationHandle"*, %class.GURL*, i24)* @_ZN7content19WebContentsObserver23OnServiceWorkerAccessedEPNS_16NavigationHandleERK4GURLNS_24AllowServiceWorkerResultE to i8*)], [6 x i8*] [i8* inttoptr (i64 -24 to i8*), i8* null, i8* bitcast (void (%"class.sync_sessions::SyncSessionsRouterTabHelper"*)* @_ZThn24_N13sync_sessions27SyncSessionsRouterTabHelperD1Ev to i8*), i8* bitcast (void (%"class.sync_sessions::SyncSessionsRouterTabHelper"*)* @_ZThn24_N13sync_sessions27SyncSessionsRouterTabHelperD0Ev to i8*), i8* bitcast (void (%"class.translate::TranslateDriver::LanguageDetectionObserver"*, %"class.translate::TranslateDriver"*)* @_ZN9translate15TranslateDriver25LanguageDetectionObserver26OnTranslateDriverDestroyedEPS0_ to i8*), i8* bitcast (void (%"class.sync_sessions::SyncSessionsRouterTabHelper"*, %"struct.translate::LanguageDetectionDetails"*)* @_ZThn24_N13sync_sessions27SyncSessionsRouterTabHelper20OnLanguageDeterminedERKN9translate24LanguageDetectionDetailsE to i8*)], [5 x i8*] [i8* inttoptr (i64 -48 to i8*), i8* null, i8* bitcast (void (%"class.sync_sessions::SyncSessionsRouterTabHelper"*)* @_ZThn48_N13sync_sessions27SyncSessionsRouterTabHelperD1Ev to i8*), i8* bitcast (void (%"class.sync_sessions::SyncSessionsRouterTabHelper"*)* @_ZThn48_N13sync_sessions27SyncSessionsRouterTabHelperD0Ev to i8*), i8* bitcast (void (%"class.sync_sessions::SyncSessionsRouterTabHelper"*, %"class.favicon::FaviconDriver"*, i32, %class.GURL*, i1, %"class.gfx::Image"*)* @_ZThn48_N13sync_sessions27SyncSessionsRouterTabHelper16OnFaviconUpdatedEPN7favicon13FaviconDriverENS1_21FaviconDriverObserver20NotificationIconTypeERK4GURLbRKN3gfx5ImageE to i8*)] }, align 8
@_ZN8language31kNotifySyncOnLanguageDeterminedE = external global %"struct.base::Feature", align 8
@_ZN13sync_sessions27SyncSessionsRouterTabHelper12kUserDataKeyE = hidden local_unnamed_addr constant i32 0, align 4
@_ZTVN7content19WebContentsUserDataIN13sync_sessions27SyncSessionsRouterTabHelperEEE = linkonce_odr hidden unnamed_addr constant { [5 x i8*] } { [5 x i8*] [i8* null, i8* null, i8* bitcast (void (%"class.base::SupportsUserData::Data"*)* @_ZN4base16SupportsUserData4DataD2Ev to i8*), i8* bitcast (void (%"class.content::WebContentsUserData"*)* @_ZN7content19WebContentsUserDataIN13sync_sessions27SyncSessionsRouterTabHelperEED0Ev to i8*), i8* bitcast (void ()* @_ZN4base16SupportsUserData4Data5CloneEv to i8*)] }, comdat, align 8
@_ZN21ChromeTranslateClient12kUserDataKeyE = external constant i32, align 4
@_ZN7favicon20ContentFaviconDriver12kUserDataKeyE = external constant i32, align 4

@_ZN13sync_sessions27SyncSessionsRouterTabHelperC1EPN7content11WebContentsEPNS_29SyncSessionsWebContentsRouterE = hidden unnamed_addr alias void (%"class.sync_sessions::SyncSessionsRouterTabHelper"*, %"class.content::WebContents"*, %"class.sync_sessions::SyncSessionsWebContentsRouter"*), void (%"class.sync_sessions::SyncSessionsRouterTabHelper"*, %"class.content::WebContents"*, %"class.sync_sessions::SyncSessionsWebContentsRouter"*)* @_ZN13sync_sessions27SyncSessionsRouterTabHelperC2EPN7content11WebContentsEPNS_29SyncSessionsWebContentsRouterE
@_ZN13sync_sessions27SyncSessionsRouterTabHelperD1Ev = hidden unnamed_addr alias void (%"class.sync_sessions::SyncSessionsRouterTabHelper"*), void (%"class.sync_sessions::SyncSessionsRouterTabHelper"*)* @_ZN13sync_sessions27SyncSessionsRouterTabHelperD2Ev

; Function Attrs: nounwind ssp uwtable
define hidden void @_ZN13sync_sessions27SyncSessionsRouterTabHelperC2EPN7content11WebContentsEPNS_29SyncSessionsWebContentsRouterE(%"class.sync_sessions::SyncSessionsRouterTabHelper"*, %"class.content::WebContents"*, %"class.sync_sessions::SyncSessionsWebContentsRouter"*) unnamed_addr #0 align 2 {
  %4 = getelementptr inbounds %"class.sync_sessions::SyncSessionsRouterTabHelper", %"class.sync_sessions::SyncSessionsRouterTabHelper"* %0, i64 0, i32 0, i32 0, i32 0
  store i32 (...)** bitcast (i8** getelementptr inbounds ({ [5 x i8*] }, { [5 x i8*] }* @_ZTVN7content19WebContentsUserDataIN13sync_sessions27SyncSessionsRouterTabHelperEEE, i64 0, inrange i32 0, i64 2) to i32 (...)**), i32 (...)*** %4, align 8
  %5 = getelementptr inbounds %"class.sync_sessions::SyncSessionsRouterTabHelper", %"class.sync_sessions::SyncSessionsRouterTabHelper"* %0, i64 0, i32 1
  tail call void @_ZN7content19WebContentsObserverC2EPNS_11WebContentsE(%"class.content::WebContentsObserver"* %5, %"class.content::WebContents"* %1) #5
  %6 = getelementptr inbounds %"class.sync_sessions::SyncSessionsRouterTabHelper", %"class.sync_sessions::SyncSessionsRouterTabHelper"* %0, i64 0, i32 2
  %7 = getelementptr inbounds %"class.translate::TranslateDriver::LanguageDetectionObserver", %"class.translate::TranslateDriver::LanguageDetectionObserver"* %6, i64 0, i32 0
  tail call void @_ZN4base15CheckedObserverC2Ev(%"class.base::CheckedObserver"* %7) #5
  %8 = getelementptr inbounds %"class.translate::TranslateDriver::LanguageDetectionObserver", %"class.translate::TranslateDriver::LanguageDetectionObserver"* %6, i64 0, i32 0, i32 0
  %9 = getelementptr inbounds %"class.sync_sessions::SyncSessionsRouterTabHelper", %"class.sync_sessions::SyncSessionsRouterTabHelper"* %0, i64 0, i32 3
  %10 = getelementptr inbounds %"class.favicon::FaviconDriverObserver", %"class.favicon::FaviconDriverObserver"* %9, i64 0, i32 0
  %11 = bitcast %"class.sync_sessions::SyncSessionsRouterTabHelper"* %0 to <2 x i32 (...)**>*
  store <2 x i32 (...)**> <i32 (...)** bitcast (i8** getelementptr inbounds ({ [12 x i8*], [109 x i8*], [6 x i8*], [5 x i8*] }, { [12 x i8*], [109 x i8*], [6 x i8*], [5 x i8*] }* @_ZTVN13sync_sessions27SyncSessionsRouterTabHelperE, i64 0, inrange i32 0, i64 2) to i32 (...)**), i32 (...)** bitcast (i8** getelementptr inbounds ({ [12 x i8*], [109 x i8*], [6 x i8*], [5 x i8*] }, { [12 x i8*], [109 x i8*], [6 x i8*], [5 x i8*] }* @_ZTVN13sync_sessions27SyncSessionsRouterTabHelperE, i64 0, inrange i32 1, i64 2) to i32 (...)**)>, <2 x i32 (...)**>* %11, align 8
  store i32 (...)** bitcast (i8** getelementptr inbounds ({ [12 x i8*], [109 x i8*], [6 x i8*], [5 x i8*] }, { [12 x i8*], [109 x i8*], [6 x i8*], [5 x i8*] }* @_ZTVN13sync_sessions27SyncSessionsRouterTabHelperE, i64 0, inrange i32 2, i64 2) to i32 (...)**), i32 (...)*** %8, align 8
  store i32 (...)** bitcast (i8** getelementptr inbounds ({ [12 x i8*], [109 x i8*], [6 x i8*], [5 x i8*] }, { [12 x i8*], [109 x i8*], [6 x i8*], [5 x i8*] }* @_ZTVN13sync_sessions27SyncSessionsRouterTabHelperE, i64 0, inrange i32 3, i64 2) to i32 (...)**), i32 (...)*** %10, align 8
  %12 = getelementptr inbounds %"class.sync_sessions::SyncSessionsRouterTabHelper", %"class.sync_sessions::SyncSessionsRouterTabHelper"* %0, i64 0, i32 4
  store %"class.sync_sessions::SyncSessionsWebContentsRouter"* %2, %"class.sync_sessions::SyncSessionsWebContentsRouter"** %12, align 8
  %13 = getelementptr inbounds %"class.content::WebContents", %"class.content::WebContents"* %1, i64 0, i32 1
  %14 = bitcast %"class.base::SupportsUserData.base"* %13 to %"class.base::SupportsUserData"*
  %15 = tail call %"class.base::SupportsUserData::Data"* @_ZNK4base16SupportsUserData11GetUserDataEPKv(%"class.base::SupportsUserData"* %14, i8* bitcast (i32* @_ZN21ChromeTranslateClient12kUserDataKeyE to i8*)) #5
  %16 = icmp eq %"class.base::SupportsUserData::Data"* %15, null
  %17 = getelementptr inbounds %"class.base::SupportsUserData::Data", %"class.base::SupportsUserData::Data"* %15, i64 -6
  %18 = bitcast %"class.base::SupportsUserData::Data"* %17 to %class.ChromeTranslateClient*
  %19 = select i1 %16, %class.ChromeTranslateClient* null, %class.ChromeTranslateClient* %18
  %20 = getelementptr inbounds %"class.sync_sessions::SyncSessionsRouterTabHelper", %"class.sync_sessions::SyncSessionsRouterTabHelper"* %0, i64 0, i32 5
  store %class.ChromeTranslateClient* %19, %class.ChromeTranslateClient** %20, align 8
  %21 = icmp eq %class.ChromeTranslateClient* %19, null
  br i1 %21, label %28, label %22

22:                                               ; preds = %3
  %23 = bitcast %class.ChromeTranslateClient* %19 to %"class.translate::TranslateDriver"* (%class.ChromeTranslateClient*)***
  %24 = load %"class.translate::TranslateDriver"* (%class.ChromeTranslateClient*)**, %"class.translate::TranslateDriver"* (%class.ChromeTranslateClient*)*** %23, align 8
  %25 = getelementptr inbounds %"class.translate::TranslateDriver"* (%class.ChromeTranslateClient*)*, %"class.translate::TranslateDriver"* (%class.ChromeTranslateClient*)** %24, i64 2
  %26 = load %"class.translate::TranslateDriver"* (%class.ChromeTranslateClient*)*, %"class.translate::TranslateDriver"* (%class.ChromeTranslateClient*)** %25, align 8
  %27 = tail call %"class.translate::TranslateDriver"* %26(%class.ChromeTranslateClient* nonnull %19) #5
  tail call void @_ZN9translate15TranslateDriver28AddLanguageDetectionObserverEPNS0_25LanguageDetectionObserverE(%"class.translate::TranslateDriver"* %27, %"class.translate::TranslateDriver::LanguageDetectionObserver"* %6) #5
  br label %28

28:                                               ; preds = %3, %22
  %29 = tail call %"class.base::SupportsUserData::Data"* @_ZNK4base16SupportsUserData11GetUserDataEPKv(%"class.base::SupportsUserData"* %14, i8* bitcast (i32* @_ZN7favicon20ContentFaviconDriver12kUserDataKeyE to i8*)) #5
  %30 = icmp eq %"class.base::SupportsUserData::Data"* %29, null
  %31 = getelementptr inbounds %"class.base::SupportsUserData::Data", %"class.base::SupportsUserData::Data"* %29, i64 -2
  %32 = bitcast %"class.base::SupportsUserData::Data"* %31 to %"class.favicon::ContentFaviconDriver"*
  %33 = select i1 %30, %"class.favicon::ContentFaviconDriver"* null, %"class.favicon::ContentFaviconDriver"* %32
  %34 = icmp eq %"class.favicon::ContentFaviconDriver"* %33, null
  %35 = getelementptr inbounds %"class.favicon::ContentFaviconDriver", %"class.favicon::ContentFaviconDriver"* %33, i64 0, i32 2, i32 0
  %36 = select i1 %34, %"class.favicon::FaviconDriver"* null, %"class.favicon::FaviconDriver"* %35
  %37 = getelementptr inbounds %"class.sync_sessions::SyncSessionsRouterTabHelper", %"class.sync_sessions::SyncSessionsRouterTabHelper"* %0, i64 0, i32 6
  store %"class.favicon::FaviconDriver"* %36, %"class.favicon::FaviconDriver"** %37, align 8
  %38 = icmp eq %"class.favicon::FaviconDriver"* %36, null
  br i1 %38, label %40, label %39

39:                                               ; preds = %28
  tail call void @_ZN7favicon13FaviconDriver11AddObserverEPNS_21FaviconDriverObserverE(%"class.favicon::FaviconDriver"* nonnull %36, %"class.favicon::FaviconDriverObserver"* %9) #5
  br label %40

40:                                               ; preds = %28, %39
  ret void
}

declare void @_ZN7content19WebContentsObserverC2EPNS_11WebContentsE(%"class.content::WebContentsObserver"*, %"class.content::WebContents"*) unnamed_addr #1

declare void @_ZN9translate15TranslateDriver28AddLanguageDetectionObserverEPNS0_25LanguageDetectionObserverE(%"class.translate::TranslateDriver"*, %"class.translate::TranslateDriver::LanguageDetectionObserver"*) local_unnamed_addr #1

declare void @_ZN7favicon13FaviconDriver11AddObserverEPNS_21FaviconDriverObserverE(%"class.favicon::FaviconDriver"*, %"class.favicon::FaviconDriverObserver"*) local_unnamed_addr #1

; Function Attrs: nounwind ssp uwtable
define hidden void @_ZN13sync_sessions27SyncSessionsRouterTabHelperD2Ev(%"class.sync_sessions::SyncSessionsRouterTabHelper"*) unnamed_addr #0 align 2 {
  %2 = getelementptr inbounds %"class.sync_sessions::SyncSessionsRouterTabHelper", %"class.sync_sessions::SyncSessionsRouterTabHelper"* %0, i64 0, i32 2, i32 0
  tail call void @_ZN4base15CheckedObserverD2Ev(%"class.base::CheckedObserver"* %2) #5
  %3 = getelementptr inbounds %"class.sync_sessions::SyncSessionsRouterTabHelper", %"class.sync_sessions::SyncSessionsRouterTabHelper"* %0, i64 0, i32 1
  tail call void @_ZN7content19WebContentsObserverD2Ev(%"class.content::WebContentsObserver"* %3) #5
  ret void
}

; Function Attrs: nounwind
declare void @_ZN7content19WebContentsObserverD2Ev(%"class.content::WebContentsObserver"*) unnamed_addr #2

; Function Attrs: nounwind ssp uwtable
define hidden void @_ZThn8_N13sync_sessions27SyncSessionsRouterTabHelperD1Ev(%"class.sync_sessions::SyncSessionsRouterTabHelper"*) unnamed_addr #0 align 2 {
  %2 = getelementptr inbounds %"class.sync_sessions::SyncSessionsRouterTabHelper", %"class.sync_sessions::SyncSessionsRouterTabHelper"* %0, i64 -1, i32 6
  %3 = getelementptr inbounds %"class.favicon::FaviconDriver"*, %"class.favicon::FaviconDriver"** %2, i64 3
  %4 = bitcast %"class.favicon::FaviconDriver"** %3 to %"class.base::CheckedObserver"*
  tail call void @_ZN4base15CheckedObserverD2Ev(%"class.base::CheckedObserver"* %4) #5
  %5 = getelementptr inbounds %"class.favicon::FaviconDriver"*, %"class.favicon::FaviconDriver"** %2, i64 1
  %6 = bitcast %"class.favicon::FaviconDriver"** %5 to %"class.content::WebContentsObserver"*
  tail call void @_ZN7content19WebContentsObserverD2Ev(%"class.content::WebContentsObserver"* %6) #5
  ret void
}

; Function Attrs: nounwind ssp uwtable
define hidden void @_ZThn24_N13sync_sessions27SyncSessionsRouterTabHelperD1Ev(%"class.sync_sessions::SyncSessionsRouterTabHelper"*) unnamed_addr #0 align 2 {
  %2 = getelementptr inbounds %"class.sync_sessions::SyncSessionsRouterTabHelper", %"class.sync_sessions::SyncSessionsRouterTabHelper"* %0, i64 -1, i32 4
  %3 = getelementptr inbounds %"class.sync_sessions::SyncSessionsWebContentsRouter"*, %"class.sync_sessions::SyncSessionsWebContentsRouter"** %2, i64 3
  %4 = bitcast %"class.sync_sessions::SyncSessionsWebContentsRouter"** %3 to %"class.base::CheckedObserver"*
  tail call void @_ZN4base15CheckedObserverD2Ev(%"class.base::CheckedObserver"* %4) #5
  %5 = getelementptr inbounds %"class.sync_sessions::SyncSessionsWebContentsRouter"*, %"class.sync_sessions::SyncSessionsWebContentsRouter"** %2, i64 1
  %6 = bitcast %"class.sync_sessions::SyncSessionsWebContentsRouter"** %5 to %"class.content::WebContentsObserver"*
  tail call void @_ZN7content19WebContentsObserverD2Ev(%"class.content::WebContentsObserver"* %6) #5
  ret void
}

; Function Attrs: nounwind ssp uwtable
define hidden void @_ZThn48_N13sync_sessions27SyncSessionsRouterTabHelperD1Ev(%"class.sync_sessions::SyncSessionsRouterTabHelper"*) unnamed_addr #0 align 2 {
  %2 = getelementptr inbounds %"class.sync_sessions::SyncSessionsRouterTabHelper", %"class.sync_sessions::SyncSessionsRouterTabHelper"* %0, i64 -1, i32 2, i32 0, i32 1
  %3 = getelementptr inbounds %"class.base::WeakPtrFactory", %"class.base::WeakPtrFactory"* %2, i64 1, i32 0, i32 1
  %4 = bitcast i64* %3 to %"class.base::CheckedObserver"*
  tail call void @_ZN4base15CheckedObserverD2Ev(%"class.base::CheckedObserver"* %4) #5
  %5 = getelementptr inbounds %"class.sync_sessions::SyncSessionsRouterTabHelper", %"class.sync_sessions::SyncSessionsRouterTabHelper"* %0, i64 -1, i32 2, i32 0, i32 1, i32 0, i32 1
  %6 = bitcast i64* %5 to %"class.content::WebContentsObserver"*
  tail call void @_ZN7content19WebContentsObserverD2Ev(%"class.content::WebContentsObserver"* %6) #5
  ret void
}

; Function Attrs: nounwind ssp uwtable
define hidden void @_ZN13sync_sessions27SyncSessionsRouterTabHelperD0Ev(%"class.sync_sessions::SyncSessionsRouterTabHelper"*) unnamed_addr #0 align 2 {
  %2 = getelementptr inbounds %"class.sync_sessions::SyncSessionsRouterTabHelper", %"class.sync_sessions::SyncSessionsRouterTabHelper"* %0, i64 0, i32 2, i32 0
  tail call void @_ZN4base15CheckedObserverD2Ev(%"class.base::CheckedObserver"* %2) #5
  %3 = getelementptr inbounds %"class.sync_sessions::SyncSessionsRouterTabHelper", %"class.sync_sessions::SyncSessionsRouterTabHelper"* %0, i64 0, i32 1
  tail call void @_ZN7content19WebContentsObserverD2Ev(%"class.content::WebContentsObserver"* %3) #5
  %4 = bitcast %"class.sync_sessions::SyncSessionsRouterTabHelper"* %0 to i8*
  tail call void @_ZdlPv(i8* %4) #6
  ret void
}

; Function Attrs: nobuiltin nounwind
declare void @_ZdlPv(i8*) local_unnamed_addr #3

; Function Attrs: nounwind ssp uwtable
define hidden void @_ZThn8_N13sync_sessions27SyncSessionsRouterTabHelperD0Ev(%"class.sync_sessions::SyncSessionsRouterTabHelper"*) unnamed_addr #0 align 2 {
  %2 = getelementptr inbounds %"class.sync_sessions::SyncSessionsRouterTabHelper", %"class.sync_sessions::SyncSessionsRouterTabHelper"* %0, i64 -1, i32 6
  %3 = getelementptr inbounds %"class.favicon::FaviconDriver"*, %"class.favicon::FaviconDriver"** %2, i64 3
  %4 = bitcast %"class.favicon::FaviconDriver"** %3 to %"class.base::CheckedObserver"*
  tail call void @_ZN4base15CheckedObserverD2Ev(%"class.base::CheckedObserver"* %4) #5
  %5 = getelementptr inbounds %"class.favicon::FaviconDriver"*, %"class.favicon::FaviconDriver"** %2, i64 1
  %6 = bitcast %"class.favicon::FaviconDriver"** %5 to %"class.content::WebContentsObserver"*
  tail call void @_ZN7content19WebContentsObserverD2Ev(%"class.content::WebContentsObserver"* %6) #5
  %7 = bitcast %"class.favicon::FaviconDriver"** %2 to i8*
  tail call void @_ZdlPv(i8* %7) #6
  ret void
}

; Function Attrs: nounwind ssp uwtable
define hidden void @_ZThn24_N13sync_sessions27SyncSessionsRouterTabHelperD0Ev(%"class.sync_sessions::SyncSessionsRouterTabHelper"*) unnamed_addr #0 align 2 {
  %2 = getelementptr inbounds %"class.sync_sessions::SyncSessionsRouterTabHelper", %"class.sync_sessions::SyncSessionsRouterTabHelper"* %0, i64 -1, i32 4
  %3 = getelementptr inbounds %"class.sync_sessions::SyncSessionsWebContentsRouter"*, %"class.sync_sessions::SyncSessionsWebContentsRouter"** %2, i64 3
  %4 = bitcast %"class.sync_sessions::SyncSessionsWebContentsRouter"** %3 to %"class.base::CheckedObserver"*
  tail call void @_ZN4base15CheckedObserverD2Ev(%"class.base::CheckedObserver"* %4) #5
  %5 = getelementptr inbounds %"class.sync_sessions::SyncSessionsWebContentsRouter"*, %"class.sync_sessions::SyncSessionsWebContentsRouter"** %2, i64 1
  %6 = bitcast %"class.sync_sessions::SyncSessionsWebContentsRouter"** %5 to %"class.content::WebContentsObserver"*
  tail call void @_ZN7content19WebContentsObserverD2Ev(%"class.content::WebContentsObserver"* %6) #5
  %7 = bitcast %"class.sync_sessions::SyncSessionsWebContentsRouter"** %2 to i8*
  tail call void @_ZdlPv(i8* %7) #6
  ret void
}

; Function Attrs: nounwind ssp uwtable
define hidden void @_ZThn48_N13sync_sessions27SyncSessionsRouterTabHelperD0Ev(%"class.sync_sessions::SyncSessionsRouterTabHelper"*) unnamed_addr #0 align 2 {
  %2 = getelementptr inbounds %"class.sync_sessions::SyncSessionsRouterTabHelper", %"class.sync_sessions::SyncSessionsRouterTabHelper"* %0, i64 -1, i32 2, i32 0, i32 1
  %3 = getelementptr inbounds %"class.base::WeakPtrFactory", %"class.base::WeakPtrFactory"* %2, i64 1, i32 0, i32 1
  %4 = bitcast i64* %3 to %"class.base::CheckedObserver"*
  tail call void @_ZN4base15CheckedObserverD2Ev(%"class.base::CheckedObserver"* %4) #5
  %5 = getelementptr inbounds %"class.sync_sessions::SyncSessionsRouterTabHelper", %"class.sync_sessions::SyncSessionsRouterTabHelper"* %0, i64 -1, i32 2, i32 0, i32 1, i32 0, i32 1
  %6 = bitcast i64* %5 to %"class.content::WebContentsObserver"*
  tail call void @_ZN7content19WebContentsObserverD2Ev(%"class.content::WebContentsObserver"* %6) #5
  %7 = bitcast %"class.base::WeakPtrFactory"* %2 to i8*
  tail call void @_ZdlPv(i8* %7) #6
  ret void
}

; Function Attrs: nounwind ssp uwtable
define hidden void @_ZN13sync_sessions27SyncSessionsRouterTabHelper19DidFinishNavigationEPN7content16NavigationHandleE(%"class.sync_sessions::SyncSessionsRouterTabHelper"*, %"class.content::NavigationHandle"*) unnamed_addr #0 align 2 {
  %3 = icmp eq %"class.content::NavigationHandle"* %1, null
  br i1 %3, label %17, label %4

4:                                                ; preds = %2
  %5 = bitcast %"class.content::NavigationHandle"* %1 to i1 (%"class.content::NavigationHandle"*)***
  %6 = load i1 (%"class.content::NavigationHandle"*)**, i1 (%"class.content::NavigationHandle"*)*** %5, align 8
  %7 = getelementptr inbounds i1 (%"class.content::NavigationHandle"*)*, i1 (%"class.content::NavigationHandle"*)** %6, i64 8
  %8 = load i1 (%"class.content::NavigationHandle"*)*, i1 (%"class.content::NavigationHandle"*)** %7, align 8
  %9 = tail call zeroext i1 %8(%"class.content::NavigationHandle"* nonnull %1) #5
  br i1 %9, label %10, label %17

10:                                               ; preds = %4
  %11 = getelementptr inbounds %"class.sync_sessions::SyncSessionsRouterTabHelper", %"class.sync_sessions::SyncSessionsRouterTabHelper"* %0, i64 0, i32 4
  %12 = load %"class.sync_sessions::SyncSessionsWebContentsRouter"*, %"class.sync_sessions::SyncSessionsWebContentsRouter"** %11, align 8
  %13 = icmp eq %"class.sync_sessions::SyncSessionsWebContentsRouter"* %12, null
  br i1 %13, label %17, label %14

14:                                               ; preds = %10
  %15 = getelementptr inbounds %"class.sync_sessions::SyncSessionsRouterTabHelper", %"class.sync_sessions::SyncSessionsRouterTabHelper"* %0, i64 0, i32 1
  %16 = tail call %"class.content::WebContents"* @_ZNK7content19WebContentsObserver12web_contentsEv(%"class.content::WebContentsObserver"* %15) #5
  tail call void @_ZN13sync_sessions29SyncSessionsWebContentsRouter17NotifyTabModifiedEPN7content11WebContentsEb(%"class.sync_sessions::SyncSessionsWebContentsRouter"* nonnull %12, %"class.content::WebContents"* %16, i1 zeroext false) #5
  br label %17

17:                                               ; preds = %14, %10, %2, %4
  ret void
}

; Function Attrs: nounwind ssp uwtable
define hidden void @_ZN13sync_sessions27SyncSessionsRouterTabHelper12NotifyRouterEb(%"class.sync_sessions::SyncSessionsRouterTabHelper"*, i1 zeroext) local_unnamed_addr #0 align 2 {
  %3 = getelementptr inbounds %"class.sync_sessions::SyncSessionsRouterTabHelper", %"class.sync_sessions::SyncSessionsRouterTabHelper"* %0, i64 0, i32 4
  %4 = load %"class.sync_sessions::SyncSessionsWebContentsRouter"*, %"class.sync_sessions::SyncSessionsWebContentsRouter"** %3, align 8
  %5 = icmp eq %"class.sync_sessions::SyncSessionsWebContentsRouter"* %4, null
  br i1 %5, label %9, label %6

6:                                                ; preds = %2
  %7 = getelementptr inbounds %"class.sync_sessions::SyncSessionsRouterTabHelper", %"class.sync_sessions::SyncSessionsRouterTabHelper"* %0, i64 0, i32 1
  %8 = tail call %"class.content::WebContents"* @_ZNK7content19WebContentsObserver12web_contentsEv(%"class.content::WebContentsObserver"* %7) #5
  tail call void @_ZN13sync_sessions29SyncSessionsWebContentsRouter17NotifyTabModifiedEPN7content11WebContentsEb(%"class.sync_sessions::SyncSessionsWebContentsRouter"* nonnull %4, %"class.content::WebContents"* %8, i1 zeroext %1) #5
  br label %9

9:                                                ; preds = %2, %6
  ret void
}

; Function Attrs: nounwind ssp uwtable
define hidden void @_ZThn8_N13sync_sessions27SyncSessionsRouterTabHelper19DidFinishNavigationEPN7content16NavigationHandleE(%"class.sync_sessions::SyncSessionsRouterTabHelper"*, %"class.content::NavigationHandle"*) unnamed_addr #0 align 2 {
  %3 = getelementptr inbounds %"class.sync_sessions::SyncSessionsRouterTabHelper", %"class.sync_sessions::SyncSessionsRouterTabHelper"* %0, i64 -1, i32 6
  %4 = icmp eq %"class.content::NavigationHandle"* %1, null
  br i1 %4, label %20, label %5

5:                                                ; preds = %2
  %6 = bitcast %"class.content::NavigationHandle"* %1 to i1 (%"class.content::NavigationHandle"*)***
  %7 = load i1 (%"class.content::NavigationHandle"*)**, i1 (%"class.content::NavigationHandle"*)*** %6, align 8
  %8 = getelementptr inbounds i1 (%"class.content::NavigationHandle"*)*, i1 (%"class.content::NavigationHandle"*)** %7, i64 8
  %9 = load i1 (%"class.content::NavigationHandle"*)*, i1 (%"class.content::NavigationHandle"*)** %8, align 8
  %10 = tail call zeroext i1 %9(%"class.content::NavigationHandle"* nonnull %1) #5
  br i1 %10, label %11, label %20

11:                                               ; preds = %5
  %12 = getelementptr inbounds %"class.favicon::FaviconDriver"*, %"class.favicon::FaviconDriver"** %3, i64 7
  %13 = bitcast %"class.favicon::FaviconDriver"** %12 to %"class.sync_sessions::SyncSessionsWebContentsRouter"**
  %14 = load %"class.sync_sessions::SyncSessionsWebContentsRouter"*, %"class.sync_sessions::SyncSessionsWebContentsRouter"** %13, align 8
  %15 = icmp eq %"class.sync_sessions::SyncSessionsWebContentsRouter"* %14, null
  br i1 %15, label %20, label %16

16:                                               ; preds = %11
  %17 = getelementptr inbounds %"class.favicon::FaviconDriver"*, %"class.favicon::FaviconDriver"** %3, i64 1
  %18 = bitcast %"class.favicon::FaviconDriver"** %17 to %"class.content::WebContentsObserver"*
  %19 = tail call %"class.content::WebContents"* @_ZNK7content19WebContentsObserver12web_contentsEv(%"class.content::WebContentsObserver"* %18) #5
  tail call void @_ZN13sync_sessions29SyncSessionsWebContentsRouter17NotifyTabModifiedEPN7content11WebContentsEb(%"class.sync_sessions::SyncSessionsWebContentsRouter"* nonnull %14, %"class.content::WebContents"* %19, i1 zeroext false) #5
  br label %20

20:                                               ; preds = %2, %5, %11, %16
  ret void
}

; Function Attrs: nounwind ssp uwtable
define hidden void @_ZN13sync_sessions27SyncSessionsRouterTabHelper11TitleWasSetEPN7content15NavigationEntryE(%"class.sync_sessions::SyncSessionsRouterTabHelper"*, %"class.content::NavigationEntry"* nocapture readnone) unnamed_addr #0 align 2 {
  %3 = getelementptr inbounds %"class.sync_sessions::SyncSessionsRouterTabHelper", %"class.sync_sessions::SyncSessionsRouterTabHelper"* %0, i64 0, i32 4
  %4 = load %"class.sync_sessions::SyncSessionsWebContentsRouter"*, %"class.sync_sessions::SyncSessionsWebContentsRouter"** %3, align 8
  %5 = icmp eq %"class.sync_sessions::SyncSessionsWebContentsRouter"* %4, null
  br i1 %5, label %9, label %6

6:                                                ; preds = %2
  %7 = getelementptr inbounds %"class.sync_sessions::SyncSessionsRouterTabHelper", %"class.sync_sessions::SyncSessionsRouterTabHelper"* %0, i64 0, i32 1
  %8 = tail call %"class.content::WebContents"* @_ZNK7content19WebContentsObserver12web_contentsEv(%"class.content::WebContentsObserver"* %7) #5
  tail call void @_ZN13sync_sessions29SyncSessionsWebContentsRouter17NotifyTabModifiedEPN7content11WebContentsEb(%"class.sync_sessions::SyncSessionsWebContentsRouter"* nonnull %4, %"class.content::WebContents"* %8, i1 zeroext false) #5
  br label %9

9:                                                ; preds = %2, %6
  ret void
}

; Function Attrs: nounwind ssp uwtable
define hidden void @_ZThn8_N13sync_sessions27SyncSessionsRouterTabHelper11TitleWasSetEPN7content15NavigationEntryE(%"class.sync_sessions::SyncSessionsRouterTabHelper"*, %"class.content::NavigationEntry"* nocapture readnone) unnamed_addr #0 align 2 {
  %3 = getelementptr inbounds %"class.sync_sessions::SyncSessionsRouterTabHelper", %"class.sync_sessions::SyncSessionsRouterTabHelper"* %0, i64 -1, i32 6
  %4 = getelementptr inbounds %"class.favicon::FaviconDriver"*, %"class.favicon::FaviconDriver"** %3, i64 7
  %5 = bitcast %"class.favicon::FaviconDriver"** %4 to %"class.sync_sessions::SyncSessionsWebContentsRouter"**
  %6 = load %"class.sync_sessions::SyncSessionsWebContentsRouter"*, %"class.sync_sessions::SyncSessionsWebContentsRouter"** %5, align 8
  %7 = icmp eq %"class.sync_sessions::SyncSessionsWebContentsRouter"* %6, null
  br i1 %7, label %12, label %8

8:                                                ; preds = %2
  %9 = getelementptr inbounds %"class.favicon::FaviconDriver"*, %"class.favicon::FaviconDriver"** %3, i64 1
  %10 = bitcast %"class.favicon::FaviconDriver"** %9 to %"class.content::WebContentsObserver"*
  %11 = tail call %"class.content::WebContents"* @_ZNK7content19WebContentsObserver12web_contentsEv(%"class.content::WebContentsObserver"* %10) #5
  tail call void @_ZN13sync_sessions29SyncSessionsWebContentsRouter17NotifyTabModifiedEPN7content11WebContentsEb(%"class.sync_sessions::SyncSessionsWebContentsRouter"* nonnull %6, %"class.content::WebContents"* %11, i1 zeroext false) #5
  br label %12

12:                                               ; preds = %2, %8
  ret void
}

; Function Attrs: nounwind ssp uwtable
define hidden void @_ZN13sync_sessions27SyncSessionsRouterTabHelper20WebContentsDestroyedEv(%"class.sync_sessions::SyncSessionsRouterTabHelper"*) unnamed_addr #0 align 2 {
  %2 = getelementptr inbounds %"class.sync_sessions::SyncSessionsRouterTabHelper", %"class.sync_sessions::SyncSessionsRouterTabHelper"* %0, i64 0, i32 4
  %3 = load %"class.sync_sessions::SyncSessionsWebContentsRouter"*, %"class.sync_sessions::SyncSessionsWebContentsRouter"** %2, align 8
  %4 = icmp eq %"class.sync_sessions::SyncSessionsWebContentsRouter"* %3, null
  br i1 %4, label %8, label %5

5:                                                ; preds = %1
  %6 = getelementptr inbounds %"class.sync_sessions::SyncSessionsRouterTabHelper", %"class.sync_sessions::SyncSessionsRouterTabHelper"* %0, i64 0, i32 1
  %7 = tail call %"class.content::WebContents"* @_ZNK7content19WebContentsObserver12web_contentsEv(%"class.content::WebContentsObserver"* %6) #5
  tail call void @_ZN13sync_sessions29SyncSessionsWebContentsRouter17NotifyTabModifiedEPN7content11WebContentsEb(%"class.sync_sessions::SyncSessionsWebContentsRouter"* nonnull %3, %"class.content::WebContents"* %7, i1 zeroext false) #5
  br label %8

8:                                                ; preds = %1, %5
  %9 = getelementptr inbounds %"class.sync_sessions::SyncSessionsRouterTabHelper", %"class.sync_sessions::SyncSessionsRouterTabHelper"* %0, i64 0, i32 5
  %10 = load %class.ChromeTranslateClient*, %class.ChromeTranslateClient** %9, align 8
  %11 = icmp eq %class.ChromeTranslateClient* %10, null
  br i1 %11, label %19, label %12

12:                                               ; preds = %8
  %13 = bitcast %class.ChromeTranslateClient* %10 to %"class.translate::TranslateDriver"* (%class.ChromeTranslateClient*)***
  %14 = load %"class.translate::TranslateDriver"* (%class.ChromeTranslateClient*)**, %"class.translate::TranslateDriver"* (%class.ChromeTranslateClient*)*** %13, align 8
  %15 = getelementptr inbounds %"class.translate::TranslateDriver"* (%class.ChromeTranslateClient*)*, %"class.translate::TranslateDriver"* (%class.ChromeTranslateClient*)** %14, i64 2
  %16 = load %"class.translate::TranslateDriver"* (%class.ChromeTranslateClient*)*, %"class.translate::TranslateDriver"* (%class.ChromeTranslateClient*)** %15, align 8
  %17 = tail call %"class.translate::TranslateDriver"* %16(%class.ChromeTranslateClient* nonnull %10) #5
  %18 = getelementptr inbounds %"class.sync_sessions::SyncSessionsRouterTabHelper", %"class.sync_sessions::SyncSessionsRouterTabHelper"* %0, i64 0, i32 2
  tail call void @_ZN9translate15TranslateDriver31RemoveLanguageDetectionObserverEPNS0_25LanguageDetectionObserverE(%"class.translate::TranslateDriver"* %17, %"class.translate::TranslateDriver::LanguageDetectionObserver"* %18) #5
  br label %19

19:                                               ; preds = %8, %12
  %20 = getelementptr inbounds %"class.sync_sessions::SyncSessionsRouterTabHelper", %"class.sync_sessions::SyncSessionsRouterTabHelper"* %0, i64 0, i32 6
  %21 = load %"class.favicon::FaviconDriver"*, %"class.favicon::FaviconDriver"** %20, align 8
  %22 = icmp eq %"class.favicon::FaviconDriver"* %21, null
  br i1 %22, label %25, label %23

23:                                               ; preds = %19
  %24 = getelementptr inbounds %"class.sync_sessions::SyncSessionsRouterTabHelper", %"class.sync_sessions::SyncSessionsRouterTabHelper"* %0, i64 0, i32 3
  tail call void @_ZN7favicon13FaviconDriver14RemoveObserverEPNS_21FaviconDriverObserverE(%"class.favicon::FaviconDriver"* nonnull %21, %"class.favicon::FaviconDriverObserver"* %24) #5
  br label %25

25:                                               ; preds = %19, %23
  ret void
}

declare void @_ZN9translate15TranslateDriver31RemoveLanguageDetectionObserverEPNS0_25LanguageDetectionObserverE(%"class.translate::TranslateDriver"*, %"class.translate::TranslateDriver::LanguageDetectionObserver"*) local_unnamed_addr #1

declare void @_ZN7favicon13FaviconDriver14RemoveObserverEPNS_21FaviconDriverObserverE(%"class.favicon::FaviconDriver"*, %"class.favicon::FaviconDriverObserver"*) local_unnamed_addr #1

; Function Attrs: nounwind ssp uwtable
define hidden void @_ZThn8_N13sync_sessions27SyncSessionsRouterTabHelper20WebContentsDestroyedEv(%"class.sync_sessions::SyncSessionsRouterTabHelper"*) unnamed_addr #0 align 2 {
  %2 = getelementptr inbounds %"class.sync_sessions::SyncSessionsRouterTabHelper", %"class.sync_sessions::SyncSessionsRouterTabHelper"* %0, i64 -1, i32 6
  %3 = getelementptr inbounds %"class.favicon::FaviconDriver"*, %"class.favicon::FaviconDriver"** %2, i64 7
  %4 = bitcast %"class.favicon::FaviconDriver"** %3 to %"class.sync_sessions::SyncSessionsWebContentsRouter"**
  %5 = load %"class.sync_sessions::SyncSessionsWebContentsRouter"*, %"class.sync_sessions::SyncSessionsWebContentsRouter"** %4, align 8
  %6 = icmp eq %"class.sync_sessions::SyncSessionsWebContentsRouter"* %5, null
  br i1 %6, label %11, label %7

7:                                                ; preds = %1
  %8 = getelementptr inbounds %"class.favicon::FaviconDriver"*, %"class.favicon::FaviconDriver"** %2, i64 1
  %9 = bitcast %"class.favicon::FaviconDriver"** %8 to %"class.content::WebContentsObserver"*
  %10 = tail call %"class.content::WebContents"* @_ZNK7content19WebContentsObserver12web_contentsEv(%"class.content::WebContentsObserver"* %9) #5
  tail call void @_ZN13sync_sessions29SyncSessionsWebContentsRouter17NotifyTabModifiedEPN7content11WebContentsEb(%"class.sync_sessions::SyncSessionsWebContentsRouter"* nonnull %5, %"class.content::WebContents"* %10, i1 zeroext false) #5
  br label %11

11:                                               ; preds = %7, %1
  %12 = getelementptr inbounds %"class.favicon::FaviconDriver"*, %"class.favicon::FaviconDriver"** %2, i64 8
  %13 = bitcast %"class.favicon::FaviconDriver"** %12 to %class.ChromeTranslateClient**
  %14 = load %class.ChromeTranslateClient*, %class.ChromeTranslateClient** %13, align 8
  %15 = icmp eq %class.ChromeTranslateClient* %14, null
  br i1 %15, label %24, label %16

16:                                               ; preds = %11
  %17 = bitcast %class.ChromeTranslateClient* %14 to %"class.translate::TranslateDriver"* (%class.ChromeTranslateClient*)***
  %18 = load %"class.translate::TranslateDriver"* (%class.ChromeTranslateClient*)**, %"class.translate::TranslateDriver"* (%class.ChromeTranslateClient*)*** %17, align 8
  %19 = getelementptr inbounds %"class.translate::TranslateDriver"* (%class.ChromeTranslateClient*)*, %"class.translate::TranslateDriver"* (%class.ChromeTranslateClient*)** %18, i64 2
  %20 = load %"class.translate::TranslateDriver"* (%class.ChromeTranslateClient*)*, %"class.translate::TranslateDriver"* (%class.ChromeTranslateClient*)** %19, align 8
  %21 = tail call %"class.translate::TranslateDriver"* %20(%class.ChromeTranslateClient* nonnull %14) #5
  %22 = getelementptr inbounds %"class.favicon::FaviconDriver"*, %"class.favicon::FaviconDriver"** %2, i64 3
  %23 = bitcast %"class.favicon::FaviconDriver"** %22 to %"class.translate::TranslateDriver::LanguageDetectionObserver"*
  tail call void @_ZN9translate15TranslateDriver31RemoveLanguageDetectionObserverEPNS0_25LanguageDetectionObserverE(%"class.translate::TranslateDriver"* %21, %"class.translate::TranslateDriver::LanguageDetectionObserver"* %23) #5
  br label %24

24:                                               ; preds = %16, %11
  %25 = getelementptr inbounds %"class.favicon::FaviconDriver"*, %"class.favicon::FaviconDriver"** %2, i64 9
  %26 = load %"class.favicon::FaviconDriver"*, %"class.favicon::FaviconDriver"** %25, align 8
  %27 = icmp eq %"class.favicon::FaviconDriver"* %26, null
  br i1 %27, label %31, label %28

28:                                               ; preds = %24
  %29 = getelementptr inbounds %"class.favicon::FaviconDriver"*, %"class.favicon::FaviconDriver"** %2, i64 6
  %30 = bitcast %"class.favicon::FaviconDriver"** %29 to %"class.favicon::FaviconDriverObserver"*
  tail call void @_ZN7favicon13FaviconDriver14RemoveObserverEPNS_21FaviconDriverObserverE(%"class.favicon::FaviconDriver"* nonnull %26, %"class.favicon::FaviconDriverObserver"* %30) #5
  br label %31

31:                                               ; preds = %24, %28
  ret void
}

; Function Attrs: nounwind ssp uwtable
define hidden void @_ZN13sync_sessions27SyncSessionsRouterTabHelper13DidFinishLoadEPN7content15RenderFrameHostERK4GURL(%"class.sync_sessions::SyncSessionsRouterTabHelper"*, %"class.content::RenderFrameHost"*, %class.GURL* nocapture readnone dereferenceable(120)) unnamed_addr #0 align 2 {
  %4 = icmp eq %"class.content::RenderFrameHost"* %1, null
  br i1 %4, label %26, label %5

5:                                                ; preds = %3
  %6 = bitcast %"class.content::RenderFrameHost"* %1 to %"class.content::RenderFrameHost"* (%"class.content::RenderFrameHost"*)***
  %7 = load %"class.content::RenderFrameHost"* (%"class.content::RenderFrameHost"*)**, %"class.content::RenderFrameHost"* (%"class.content::RenderFrameHost"*)*** %6, align 8
  %8 = getelementptr inbounds %"class.content::RenderFrameHost"* (%"class.content::RenderFrameHost"*)*, %"class.content::RenderFrameHost"* (%"class.content::RenderFrameHost"*)** %7, i64 20
  %9 = load %"class.content::RenderFrameHost"* (%"class.content::RenderFrameHost"*)*, %"class.content::RenderFrameHost"* (%"class.content::RenderFrameHost"*)** %8, align 8
  %10 = tail call %"class.content::RenderFrameHost"* %9(%"class.content::RenderFrameHost"* nonnull %1) #5
  %11 = icmp eq %"class.content::RenderFrameHost"* %10, null
  br i1 %11, label %12, label %26

12:                                               ; preds = %5
  %13 = bitcast %"class.content::RenderFrameHost"* %1 to i32 (%"class.content::RenderFrameHost"*)***
  %14 = load i32 (%"class.content::RenderFrameHost"*)**, i32 (%"class.content::RenderFrameHost"*)*** %13, align 8
  %15 = getelementptr inbounds i32 (%"class.content::RenderFrameHost"*)*, i32 (%"class.content::RenderFrameHost"*)** %14, i64 58
  %16 = load i32 (%"class.content::RenderFrameHost"*)*, i32 (%"class.content::RenderFrameHost"*)** %15, align 8
  %17 = tail call i32 %16(%"class.content::RenderFrameHost"* nonnull %1) #5
  %18 = icmp eq i32 %17, 1
  br i1 %18, label %19, label %26

19:                                               ; preds = %12
  %20 = getelementptr inbounds %"class.sync_sessions::SyncSessionsRouterTabHelper", %"class.sync_sessions::SyncSessionsRouterTabHelper"* %0, i64 0, i32 4
  %21 = load %"class.sync_sessions::SyncSessionsWebContentsRouter"*, %"class.sync_sessions::SyncSessionsWebContentsRouter"** %20, align 8
  %22 = icmp eq %"class.sync_sessions::SyncSessionsWebContentsRouter"* %21, null
  br i1 %22, label %26, label %23

23:                                               ; preds = %19
  %24 = getelementptr inbounds %"class.sync_sessions::SyncSessionsRouterTabHelper", %"class.sync_sessions::SyncSessionsRouterTabHelper"* %0, i64 0, i32 1
  %25 = tail call %"class.content::WebContents"* @_ZNK7content19WebContentsObserver12web_contentsEv(%"class.content::WebContentsObserver"* %24) #5
  tail call void @_ZN13sync_sessions29SyncSessionsWebContentsRouter17NotifyTabModifiedEPN7content11WebContentsEb(%"class.sync_sessions::SyncSessionsWebContentsRouter"* nonnull %21, %"class.content::WebContents"* %25, i1 zeroext true) #5
  br label %26

26:                                               ; preds = %23, %19, %5, %3, %12
  ret void
}

; Function Attrs: nounwind ssp uwtable
define hidden void @_ZThn8_N13sync_sessions27SyncSessionsRouterTabHelper13DidFinishLoadEPN7content15RenderFrameHostERK4GURL(%"class.sync_sessions::SyncSessionsRouterTabHelper"*, %"class.content::RenderFrameHost"*, %class.GURL* nocapture readnone dereferenceable(120)) unnamed_addr #0 align 2 {
  %4 = getelementptr inbounds %"class.sync_sessions::SyncSessionsRouterTabHelper", %"class.sync_sessions::SyncSessionsRouterTabHelper"* %0, i64 -1, i32 6
  %5 = icmp eq %"class.content::RenderFrameHost"* %1, null
  br i1 %5, label %29, label %6

6:                                                ; preds = %3
  %7 = bitcast %"class.content::RenderFrameHost"* %1 to %"class.content::RenderFrameHost"* (%"class.content::RenderFrameHost"*)***
  %8 = load %"class.content::RenderFrameHost"* (%"class.content::RenderFrameHost"*)**, %"class.content::RenderFrameHost"* (%"class.content::RenderFrameHost"*)*** %7, align 8
  %9 = getelementptr inbounds %"class.content::RenderFrameHost"* (%"class.content::RenderFrameHost"*)*, %"class.content::RenderFrameHost"* (%"class.content::RenderFrameHost"*)** %8, i64 20
  %10 = load %"class.content::RenderFrameHost"* (%"class.content::RenderFrameHost"*)*, %"class.content::RenderFrameHost"* (%"class.content::RenderFrameHost"*)** %9, align 8
  %11 = tail call %"class.content::RenderFrameHost"* %10(%"class.content::RenderFrameHost"* nonnull %1) #5
  %12 = icmp eq %"class.content::RenderFrameHost"* %11, null
  br i1 %12, label %13, label %29

13:                                               ; preds = %6
  %14 = bitcast %"class.content::RenderFrameHost"* %1 to i32 (%"class.content::RenderFrameHost"*)***
  %15 = load i32 (%"class.content::RenderFrameHost"*)**, i32 (%"class.content::RenderFrameHost"*)*** %14, align 8
  %16 = getelementptr inbounds i32 (%"class.content::RenderFrameHost"*)*, i32 (%"class.content::RenderFrameHost"*)** %15, i64 58
  %17 = load i32 (%"class.content::RenderFrameHost"*)*, i32 (%"class.content::RenderFrameHost"*)** %16, align 8
  %18 = tail call i32 %17(%"class.content::RenderFrameHost"* nonnull %1) #5
  %19 = icmp eq i32 %18, 1
  br i1 %19, label %20, label %29

20:                                               ; preds = %13
  %21 = getelementptr inbounds %"class.favicon::FaviconDriver"*, %"class.favicon::FaviconDriver"** %4, i64 7
  %22 = bitcast %"class.favicon::FaviconDriver"** %21 to %"class.sync_sessions::SyncSessionsWebContentsRouter"**
  %23 = load %"class.sync_sessions::SyncSessionsWebContentsRouter"*, %"class.sync_sessions::SyncSessionsWebContentsRouter"** %22, align 8
  %24 = icmp eq %"class.sync_sessions::SyncSessionsWebContentsRouter"* %23, null
  br i1 %24, label %29, label %25

25:                                               ; preds = %20
  %26 = getelementptr inbounds %"class.favicon::FaviconDriver"*, %"class.favicon::FaviconDriver"** %4, i64 1
  %27 = bitcast %"class.favicon::FaviconDriver"** %26 to %"class.content::WebContentsObserver"*
  %28 = tail call %"class.content::WebContents"* @_ZNK7content19WebContentsObserver12web_contentsEv(%"class.content::WebContentsObserver"* %27) #5
  tail call void @_ZN13sync_sessions29SyncSessionsWebContentsRouter17NotifyTabModifiedEPN7content11WebContentsEb(%"class.sync_sessions::SyncSessionsWebContentsRouter"* nonnull %23, %"class.content::WebContents"* %28, i1 zeroext true) #5
  br label %29

29:                                               ; preds = %3, %6, %13, %20, %25
  ret void
}

; Function Attrs: nounwind ssp uwtable
define hidden void @_ZN13sync_sessions27SyncSessionsRouterTabHelper19DidOpenRequestedURLEPN7content11WebContentsEPNS1_15RenderFrameHostERK4GURLRKNS1_8ReferrerE21WindowOpenDispositionN2ui14PageTransitionEbb(%"class.sync_sessions::SyncSessionsRouterTabHelper"*, %"class.content::WebContents"* nocapture readnone, %"class.content::RenderFrameHost"* nocapture readnone, %class.GURL* nocapture readnone dereferenceable(120), %"struct.content::Referrer"* nocapture readnone dereferenceable(128), i32, i32, i1 zeroext, i1 zeroext) unnamed_addr #0 align 2 {
  %10 = getelementptr inbounds %"class.sync_sessions::SyncSessionsRouterTabHelper", %"class.sync_sessions::SyncSessionsRouterTabHelper"* %0, i64 0, i32 4
  %11 = load %"class.sync_sessions::SyncSessionsWebContentsRouter"*, %"class.sync_sessions::SyncSessionsWebContentsRouter"** %10, align 8
  %12 = icmp eq %"class.sync_sessions::SyncSessionsWebContentsRouter"* %11, null
  br i1 %12, label %16, label %13

13:                                               ; preds = %9
  %14 = getelementptr inbounds %"class.sync_sessions::SyncSessionsRouterTabHelper", %"class.sync_sessions::SyncSessionsRouterTabHelper"* %0, i64 0, i32 1
  %15 = tail call %"class.content::WebContents"* @_ZNK7content19WebContentsObserver12web_contentsEv(%"class.content::WebContentsObserver"* %14) #5
  tail call void @_ZN13sync_sessions29SyncSessionsWebContentsRouter17NotifyTabModifiedEPN7content11WebContentsEb(%"class.sync_sessions::SyncSessionsWebContentsRouter"* nonnull %11, %"class.content::WebContents"* %15, i1 zeroext false) #5
  br label %16

16:                                               ; preds = %9, %13
  ret void
}

; Function Attrs: nounwind ssp uwtable
define hidden void @_ZThn8_N13sync_sessions27SyncSessionsRouterTabHelper19DidOpenRequestedURLEPN7content11WebContentsEPNS1_15RenderFrameHostERK4GURLRKNS1_8ReferrerE21WindowOpenDispositionN2ui14PageTransitionEbb(%"class.sync_sessions::SyncSessionsRouterTabHelper"*, %"class.content::WebContents"* nocapture readnone, %"class.content::RenderFrameHost"* nocapture readnone, %class.GURL* nocapture readnone dereferenceable(120), %"struct.content::Referrer"* nocapture readnone dereferenceable(128), i32, i32, i1 zeroext, i1 zeroext) unnamed_addr #0 align 2 {
  %10 = getelementptr inbounds %"class.sync_sessions::SyncSessionsRouterTabHelper", %"class.sync_sessions::SyncSessionsRouterTabHelper"* %0, i64 -1, i32 6
  %11 = getelementptr inbounds %"class.favicon::FaviconDriver"*, %"class.favicon::FaviconDriver"** %10, i64 7
  %12 = bitcast %"class.favicon::FaviconDriver"** %11 to %"class.sync_sessions::SyncSessionsWebContentsRouter"**
  %13 = load %"class.sync_sessions::SyncSessionsWebContentsRouter"*, %"class.sync_sessions::SyncSessionsWebContentsRouter"** %12, align 8
  %14 = icmp eq %"class.sync_sessions::SyncSessionsWebContentsRouter"* %13, null
  br i1 %14, label %19, label %15

15:                                               ; preds = %9
  %16 = getelementptr inbounds %"class.favicon::FaviconDriver"*, %"class.favicon::FaviconDriver"** %10, i64 1
  %17 = bitcast %"class.favicon::FaviconDriver"** %16 to %"class.content::WebContentsObserver"*
  %18 = tail call %"class.content::WebContents"* @_ZNK7content19WebContentsObserver12web_contentsEv(%"class.content::WebContentsObserver"* %17) #5
  tail call void @_ZN13sync_sessions29SyncSessionsWebContentsRouter17NotifyTabModifiedEPN7content11WebContentsEb(%"class.sync_sessions::SyncSessionsWebContentsRouter"* nonnull %13, %"class.content::WebContents"* %18, i1 zeroext false) #5
  br label %19

19:                                               ; preds = %9, %15
  ret void
}

; Function Attrs: nounwind ssp uwtable
define hidden void @_ZN13sync_sessions27SyncSessionsRouterTabHelper20OnLanguageDeterminedERKN9translate24LanguageDetectionDetailsE(%"class.sync_sessions::SyncSessionsRouterTabHelper"*, %"struct.translate::LanguageDetectionDetails"* nocapture readnone dereferenceable(288)) unnamed_addr #0 align 2 {
  %3 = tail call zeroext i1 @_ZN4base11FeatureList9IsEnabledERKNS_7FeatureE(%"struct.base::Feature"* nonnull dereferenceable(16) @_ZN8language31kNotifySyncOnLanguageDeterminedE) #5
  br i1 %3, label %4, label %11

4:                                                ; preds = %2
  %5 = getelementptr inbounds %"class.sync_sessions::SyncSessionsRouterTabHelper", %"class.sync_sessions::SyncSessionsRouterTabHelper"* %0, i64 0, i32 4
  %6 = load %"class.sync_sessions::SyncSessionsWebContentsRouter"*, %"class.sync_sessions::SyncSessionsWebContentsRouter"** %5, align 8
  %7 = icmp eq %"class.sync_sessions::SyncSessionsWebContentsRouter"* %6, null
  br i1 %7, label %11, label %8

8:                                                ; preds = %4
  %9 = getelementptr inbounds %"class.sync_sessions::SyncSessionsRouterTabHelper", %"class.sync_sessions::SyncSessionsRouterTabHelper"* %0, i64 0, i32 1
  %10 = tail call %"class.content::WebContents"* @_ZNK7content19WebContentsObserver12web_contentsEv(%"class.content::WebContentsObserver"* %9) #5
  tail call void @_ZN13sync_sessions29SyncSessionsWebContentsRouter17NotifyTabModifiedEPN7content11WebContentsEb(%"class.sync_sessions::SyncSessionsWebContentsRouter"* nonnull %6, %"class.content::WebContents"* %10, i1 zeroext false) #5
  br label %11

11:                                               ; preds = %8, %4, %2
  ret void
}

declare zeroext i1 @_ZN4base11FeatureList9IsEnabledERKNS_7FeatureE(%"struct.base::Feature"* dereferenceable(16)) local_unnamed_addr #1

; Function Attrs: nounwind ssp uwtable
define hidden void @_ZThn24_N13sync_sessions27SyncSessionsRouterTabHelper20OnLanguageDeterminedERKN9translate24LanguageDetectionDetailsE(%"class.sync_sessions::SyncSessionsRouterTabHelper"*, %"struct.translate::LanguageDetectionDetails"* nocapture readnone dereferenceable(288)) unnamed_addr #0 align 2 {
  %3 = getelementptr inbounds %"class.sync_sessions::SyncSessionsRouterTabHelper", %"class.sync_sessions::SyncSessionsRouterTabHelper"* %0, i64 -1, i32 4
  %4 = tail call zeroext i1 @_ZN4base11FeatureList9IsEnabledERKNS_7FeatureE(%"struct.base::Feature"* nonnull dereferenceable(16) @_ZN8language31kNotifySyncOnLanguageDeterminedE) #5
  br i1 %4, label %5, label %13

5:                                                ; preds = %2
  %6 = getelementptr inbounds %"class.sync_sessions::SyncSessionsWebContentsRouter"*, %"class.sync_sessions::SyncSessionsWebContentsRouter"** %3, i64 7
  %7 = load %"class.sync_sessions::SyncSessionsWebContentsRouter"*, %"class.sync_sessions::SyncSessionsWebContentsRouter"** %6, align 8
  %8 = icmp eq %"class.sync_sessions::SyncSessionsWebContentsRouter"* %7, null
  br i1 %8, label %13, label %9

9:                                                ; preds = %5
  %10 = getelementptr inbounds %"class.sync_sessions::SyncSessionsWebContentsRouter"*, %"class.sync_sessions::SyncSessionsWebContentsRouter"** %3, i64 1
  %11 = bitcast %"class.sync_sessions::SyncSessionsWebContentsRouter"** %10 to %"class.content::WebContentsObserver"*
  %12 = tail call %"class.content::WebContents"* @_ZNK7content19WebContentsObserver12web_contentsEv(%"class.content::WebContentsObserver"* %11) #5
  tail call void @_ZN13sync_sessions29SyncSessionsWebContentsRouter17NotifyTabModifiedEPN7content11WebContentsEb(%"class.sync_sessions::SyncSessionsWebContentsRouter"* nonnull %7, %"class.content::WebContents"* %12, i1 zeroext false) #5
  br label %13

13:                                               ; preds = %2, %5, %9
  ret void
}

declare void @_ZN13sync_sessions29SyncSessionsWebContentsRouter17NotifyTabModifiedEPN7content11WebContentsEb(%"class.sync_sessions::SyncSessionsWebContentsRouter"*, %"class.content::WebContents"*, i1 zeroext) local_unnamed_addr #1

declare %"class.content::WebContents"* @_ZNK7content19WebContentsObserver12web_contentsEv(%"class.content::WebContentsObserver"*) local_unnamed_addr #1

; Function Attrs: nounwind ssp uwtable
define hidden void @_ZN13sync_sessions27SyncSessionsRouterTabHelper16OnFaviconUpdatedEPN7favicon13FaviconDriverENS1_21FaviconDriverObserver20NotificationIconTypeERK4GURLbRKN3gfx5ImageE(%"class.sync_sessions::SyncSessionsRouterTabHelper"*, %"class.favicon::FaviconDriver"* nocapture readnone, i32, %class.GURL* nocapture readnone dereferenceable(120), i1 zeroext, %"class.gfx::Image"* nocapture readnone dereferenceable(8)) unnamed_addr #0 align 2 {
  br i1 %4, label %7, label %14

7:                                                ; preds = %6
  %8 = getelementptr inbounds %"class.sync_sessions::SyncSessionsRouterTabHelper", %"class.sync_sessions::SyncSessionsRouterTabHelper"* %0, i64 0, i32 4
  %9 = load %"class.sync_sessions::SyncSessionsWebContentsRouter"*, %"class.sync_sessions::SyncSessionsWebContentsRouter"** %8, align 8
  %10 = icmp eq %"class.sync_sessions::SyncSessionsWebContentsRouter"* %9, null
  br i1 %10, label %14, label %11

11:                                               ; preds = %7
  %12 = getelementptr inbounds %"class.sync_sessions::SyncSessionsRouterTabHelper", %"class.sync_sessions::SyncSessionsRouterTabHelper"* %0, i64 0, i32 1
  %13 = tail call %"class.content::WebContents"* @_ZNK7content19WebContentsObserver12web_contentsEv(%"class.content::WebContentsObserver"* %12) #5
  tail call void @_ZN13sync_sessions29SyncSessionsWebContentsRouter17NotifyTabModifiedEPN7content11WebContentsEb(%"class.sync_sessions::SyncSessionsWebContentsRouter"* nonnull %9, %"class.content::WebContents"* %13, i1 zeroext false) #5
  br label %14

14:                                               ; preds = %11, %7, %6
  ret void
}

; Function Attrs: nounwind ssp uwtable
define hidden void @_ZThn48_N13sync_sessions27SyncSessionsRouterTabHelper16OnFaviconUpdatedEPN7favicon13FaviconDriverENS1_21FaviconDriverObserver20NotificationIconTypeERK4GURLbRKN3gfx5ImageE(%"class.sync_sessions::SyncSessionsRouterTabHelper"*, %"class.favicon::FaviconDriver"* nocapture readnone, i32, %class.GURL* nocapture readnone dereferenceable(120), i1 zeroext, %"class.gfx::Image"* nocapture readnone dereferenceable(8)) unnamed_addr #0 align 2 {
  br i1 %4, label %7, label %17

7:                                                ; preds = %6
  %8 = getelementptr inbounds %"class.sync_sessions::SyncSessionsRouterTabHelper", %"class.sync_sessions::SyncSessionsRouterTabHelper"* %0, i64 -1, i32 2, i32 0, i32 1
  %9 = getelementptr inbounds %"class.base::WeakPtrFactory", %"class.base::WeakPtrFactory"* %8, i64 3, i32 0, i32 1
  %10 = bitcast i64* %9 to %"class.sync_sessions::SyncSessionsWebContentsRouter"**
  %11 = load %"class.sync_sessions::SyncSessionsWebContentsRouter"*, %"class.sync_sessions::SyncSessionsWebContentsRouter"** %10, align 8
  %12 = icmp eq %"class.sync_sessions::SyncSessionsWebContentsRouter"* %11, null
  br i1 %12, label %17, label %13

13:                                               ; preds = %7
  %14 = getelementptr inbounds %"class.sync_sessions::SyncSessionsRouterTabHelper", %"class.sync_sessions::SyncSessionsRouterTabHelper"* %0, i64 -1, i32 2, i32 0, i32 1, i32 0, i32 1
  %15 = bitcast i64* %14 to %"class.content::WebContentsObserver"*
  %16 = tail call %"class.content::WebContents"* @_ZNK7content19WebContentsObserver12web_contentsEv(%"class.content::WebContentsObserver"* %15) #5
  tail call void @_ZN13sync_sessions29SyncSessionsWebContentsRouter17NotifyTabModifiedEPN7content11WebContentsEb(%"class.sync_sessions::SyncSessionsWebContentsRouter"* nonnull %11, %"class.content::WebContents"* %16, i1 zeroext false) #5
  br label %17

17:                                               ; preds = %6, %7, %13
  ret void
}

declare void @_ZN4base16SupportsUserData4Data5CloneEv() unnamed_addr

declare zeroext i1 @_ZN7content19WebContentsObserver17OnMessageReceivedERKN3IPC7MessageE(%"class.content::WebContentsObserver"*, %"class.IPC::Message"* dereferenceable(56)) unnamed_addr #1

; Function Attrs: nounwind ssp uwtable
define linkonce_odr hidden void @_ZN3IPC8Listener18OnChannelConnectedEi(%"class.IPC::Listener"*, i32) unnamed_addr #0 comdat align 2 {
  ret void
}

; Function Attrs: nounwind ssp uwtable
define linkonce_odr hidden void @_ZN3IPC8Listener14OnChannelErrorEv(%"class.IPC::Listener"*) unnamed_addr #0 comdat align 2 {
  ret void
}

; Function Attrs: nounwind ssp uwtable
define linkonce_odr hidden void @_ZN3IPC8Listener20OnBadMessageReceivedERKNS_7MessageE(%"class.IPC::Listener"*, %"class.IPC::Message"* dereferenceable(56)) unnamed_addr #0 comdat align 2 {
  ret void
}

; Function Attrs: nounwind ssp uwtable
define linkonce_odr hidden void @_ZN3IPC8Listener28OnAssociatedInterfaceRequestERKNSt3__112basic_stringIcNS1_11char_traitsIcEENS1_9allocatorIcEEEEN4mojo29ScopedInterfaceEndpointHandleE(%"class.IPC::Listener"*, %"class.std::__1::basic_string"* dereferenceable(24), %"class.mojo::ScopedInterfaceEndpointHandle"*) unnamed_addr #0 comdat align 2 {
  ret void
}

; Function Attrs: nounwind ssp uwtable
define linkonce_odr hidden void @_ZN3IPC8Listener15OnChannelDeniedEv(%"class.IPC::Listener"*) unnamed_addr #0 comdat align 2 {
  ret void
}

; Function Attrs: nounwind ssp uwtable
define linkonce_odr hidden void @_ZN3IPC8Listener20OnChannelListenErrorEv(%"class.IPC::Listener"*) unnamed_addr #0 comdat align 2 {
  ret void
}

; Function Attrs: nounwind ssp uwtable
define linkonce_odr hidden void @_ZN7content19WebContentsObserver18RenderFrameCreatedEPNS_15RenderFrameHostE(%"class.content::WebContentsObserver"*, %"class.content::RenderFrameHost"*) unnamed_addr #0 comdat align 2 {
  ret void
}

; Function Attrs: nounwind ssp uwtable
define linkonce_odr hidden void @_ZN7content19WebContentsObserver18RenderFrameDeletedEPNS_15RenderFrameHostE(%"class.content::WebContentsObserver"*, %"class.content::RenderFrameHost"*) unnamed_addr #0 comdat align 2 {
  ret void
}

; Function Attrs: nounwind ssp uwtable
define linkonce_odr hidden void @_ZN7content19WebContentsObserver22RenderFrameHostChangedEPNS_15RenderFrameHostES2_(%"class.content::WebContentsObserver"*, %"class.content::RenderFrameHost"*, %"class.content::RenderFrameHost"*) unnamed_addr #0 comdat align 2 {
  ret void
}

; Function Attrs: nounwind ssp uwtable
define linkonce_odr hidden void @_ZN7content19WebContentsObserver12FrameDeletedEi(%"class.content::WebContentsObserver"*, i32) unnamed_addr #0 comdat align 2 {
  ret void
}

; Function Attrs: nounwind ssp uwtable
define linkonce_odr hidden void @_ZN7content19WebContentsObserver27RenderFrameHostStateChangedEPNS_15RenderFrameHostENS1_14LifecycleStateES3_(%"class.content::WebContentsObserver"*, %"class.content::RenderFrameHost"*, i32, i32) unnamed_addr #0 comdat align 2 {
  ret void
}

; Function Attrs: nounwind ssp uwtable
define linkonce_odr hidden void @_ZN7content19WebContentsObserver20CaptureTargetChangedEv(%"class.content::WebContentsObserver"*) unnamed_addr #0 comdat align 2 {
  ret void
}

; Function Attrs: nounwind ssp uwtable
define linkonce_odr hidden void @_ZN7content19WebContentsObserver27OnCaptureHandleConfigUpdateERKN5blink5mojom19CaptureHandleConfigE(%"class.content::WebContentsObserver"*, %"class.blink::mojom::CaptureHandleConfig"*) unnamed_addr #0 comdat align 2 {
  ret void
}

; Function Attrs: nounwind ssp uwtable
define linkonce_odr hidden void @_ZN7content19WebContentsObserver15RenderViewReadyEv(%"class.content::WebContentsObserver"*) unnamed_addr #0 comdat align 2 {
  ret void
}

; Function Attrs: nounwind ssp uwtable
define linkonce_odr hidden void @_ZN7content19WebContentsObserver17RenderViewDeletedEPNS_14RenderViewHostE(%"class.content::WebContentsObserver"*, %"class.content::RenderViewHost"*) unnamed_addr #0 comdat align 2 {
  ret void
}

; Function Attrs: nounwind ssp uwtable
define linkonce_odr hidden void @_ZN7content19WebContentsObserver17RenderProcessGoneEN4base17TerminationStatusE(%"class.content::WebContentsObserver"*, i32) unnamed_addr #0 comdat align 2 {
  ret void
}

; Function Attrs: nounwind ssp uwtable
define linkonce_odr hidden void @_ZN7content19WebContentsObserver21RenderViewHostChangedEPNS_14RenderViewHostES2_(%"class.content::WebContentsObserver"*, %"class.content::RenderViewHost"*, %"class.content::RenderViewHost"*) unnamed_addr #0 comdat align 2 {
  ret void
}

; Function Attrs: nounwind ssp uwtable
define linkonce_odr hidden void @_ZN7content19WebContentsObserver22OnRendererUnresponsiveEPNS_17RenderProcessHostE(%"class.content::WebContentsObserver"*, %"class.content::RenderProcessHost"*) unnamed_addr #0 comdat align 2 {
  ret void
}

; Function Attrs: nounwind ssp uwtable
define linkonce_odr hidden void @_ZN7content19WebContentsObserver20OnRendererResponsiveEPNS_17RenderProcessHostE(%"class.content::WebContentsObserver"*, %"class.content::RenderProcessHost"*) unnamed_addr #0 comdat align 2 {
  ret void
}

; Function Attrs: nounwind ssp uwtable
define linkonce_odr hidden void @_ZN7content19WebContentsObserver18DidStartNavigationEPNS_16NavigationHandleE(%"class.content::WebContentsObserver"*, %"class.content::NavigationHandle"*) unnamed_addr #0 comdat align 2 {
  ret void
}

; Function Attrs: nounwind ssp uwtable
define linkonce_odr hidden void @_ZN7content19WebContentsObserver21DidRedirectNavigationEPNS_16NavigationHandleE(%"class.content::WebContentsObserver"*, %"class.content::NavigationHandle"*) unnamed_addr #0 comdat align 2 {
  ret void
}

; Function Attrs: nounwind ssp uwtable
define linkonce_odr hidden void @_ZN7content19WebContentsObserver23ReadyToCommitNavigationEPNS_16NavigationHandleE(%"class.content::WebContentsObserver"*, %"class.content::NavigationHandle"*) unnamed_addr #0 comdat align 2 {
  ret void
}

; Function Attrs: nounwind ssp uwtable
define linkonce_odr hidden void @_ZN7content19WebContentsObserver17DidActivatePortalEPNS_11WebContentsEN4base9TimeTicksE(%"class.content::WebContentsObserver"*, %"class.content::WebContents"*, i64) unnamed_addr #0 comdat align 2 {
  ret void
}

; Function Attrs: nounwind ssp uwtable
define linkonce_odr hidden void @_ZN7content19WebContentsObserver15DidStartLoadingEv(%"class.content::WebContentsObserver"*) unnamed_addr #0 comdat align 2 {
  ret void
}

; Function Attrs: nounwind ssp uwtable
define linkonce_odr hidden void @_ZN7content19WebContentsObserver18DidReceiveResponseEv(%"class.content::WebContentsObserver"*) unnamed_addr #0 comdat align 2 {
  ret void
}

; Function Attrs: nounwind ssp uwtable
define linkonce_odr hidden void @_ZN7content19WebContentsObserver14DidStopLoadingEv(%"class.content::WebContentsObserver"*) unnamed_addr #0 comdat align 2 {
  ret void
}

; Function Attrs: nounwind ssp uwtable
define linkonce_odr hidden void @_ZN7content19WebContentsObserver19LoadProgressChangedEd(%"class.content::WebContentsObserver"*, double) unnamed_addr #0 comdat align 2 {
  ret void
}

; Function Attrs: nounwind ssp uwtable
define linkonce_odr hidden void @_ZN7content19WebContentsObserver28DocumentAvailableInMainFrameEPNS_15RenderFrameHostE(%"class.content::WebContentsObserver"*, %"class.content::RenderFrameHost"*) unnamed_addr #0 comdat align 2 {
  ret void
}

; Function Attrs: nounwind ssp uwtable
define linkonce_odr hidden void @_ZN7content19WebContentsObserver34DocumentOnLoadCompletedInMainFrameEPNS_15RenderFrameHostE(%"class.content::WebContentsObserver"*, %"class.content::RenderFrameHost"*) unnamed_addr #0 comdat align 2 {
  ret void
}

; Function Attrs: nounwind ssp uwtable
define linkonce_odr hidden void @_ZN7content19WebContentsObserver16DOMContentLoadedEPNS_15RenderFrameHostE(%"class.content::WebContentsObserver"*, %"class.content::RenderFrameHost"*) unnamed_addr #0 comdat align 2 {
  ret void
}

; Function Attrs: nounwind ssp uwtable
define linkonce_odr hidden void @_ZN7content19WebContentsObserver11DidFailLoadEPNS_15RenderFrameHostERK4GURLi(%"class.content::WebContentsObserver"*, %"class.content::RenderFrameHost"*, %class.GURL* dereferenceable(120), i32) unnamed_addr #0 comdat align 2 {
  ret void
}

; Function Attrs: nounwind ssp uwtable
define linkonce_odr hidden void @_ZN7content19WebContentsObserver29DidChangeVisibleSecurityStateEv(%"class.content::WebContentsObserver"*) unnamed_addr #0 comdat align 2 {
  ret void
}

; Function Attrs: nounwind ssp uwtable
define linkonce_odr hidden void @_ZN7content19WebContentsObserver30DidLoadResourceFromMemoryCacheEPNS_15RenderFrameHostERK4GURLRKNSt3__112basic_stringIcNS6_11char_traitsIcEENS6_9allocatorIcEEEEN7network5mojom18RequestDestinationE(%"class.content::WebContentsObserver"*, %"class.content::RenderFrameHost"*, %class.GURL* dereferenceable(120), %"class.std::__1::basic_string"* dereferenceable(24), i32) unnamed_addr #0 comdat align 2 {
  ret void
}

; Function Attrs: nounwind ssp uwtable
define linkonce_odr hidden void @_ZN7content19WebContentsObserver20ResourceLoadCompleteEPNS_15RenderFrameHostERKNS_15GlobalRequestIDERKN5blink5mojom16ResourceLoadInfoE(%"class.content::WebContentsObserver"*, %"class.content::RenderFrameHost"*, %"struct.content::GlobalRequestID"* dereferenceable(8), %"class.blink::mojom::ResourceLoadInfo"*) unnamed_addr #0 comdat align 2 {
  ret void
}

; Function Attrs: nounwind ssp uwtable
define linkonce_odr hidden void @_ZN7content19WebContentsObserver17OnCookiesAccessedEPNS_15RenderFrameHostERKNS_19CookieAccessDetailsE(%"class.content::WebContentsObserver"*, %"class.content::RenderFrameHost"*, %"struct.content::CookieAccessDetails"* dereferenceable(280)) unnamed_addr #0 comdat align 2 {
  ret void
}

; Function Attrs: nounwind ssp uwtable
define linkonce_odr hidden void @_ZN7content19WebContentsObserver17OnCookiesAccessedEPNS_16NavigationHandleERKNS_19CookieAccessDetailsE(%"class.content::WebContentsObserver"*, %"class.content::NavigationHandle"*, %"struct.content::CookieAccessDetails"* dereferenceable(280)) unnamed_addr #0 comdat align 2 {
  ret void
}

; Function Attrs: nounwind ssp uwtable
define linkonce_odr hidden void @_ZN7content19WebContentsObserver24NavigationEntryCommittedERKNS_20LoadCommittedDetailsE(%"class.content::WebContentsObserver"*, %"struct.content::LoadCommittedDetails"*) unnamed_addr #0 comdat align 2 {
  ret void
}

; Function Attrs: nounwind ssp uwtable
define linkonce_odr hidden void @_ZN7content19WebContentsObserver20NavigationListPrunedERKNS_13PrunedDetailsE(%"class.content::WebContentsObserver"*, %"struct.content::PrunedDetails"*) unnamed_addr #0 comdat align 2 {
  ret void
}

; Function Attrs: nounwind ssp uwtable
define linkonce_odr hidden void @_ZN7content19WebContentsObserver24NavigationEntriesDeletedEv(%"class.content::WebContentsObserver"*) unnamed_addr #0 comdat align 2 {
  ret void
}

; Function Attrs: nounwind ssp uwtable
define linkonce_odr hidden void @_ZN7content19WebContentsObserver22NavigationEntryChangedERKNS_19EntryChangedDetailsE(%"class.content::WebContentsObserver"*, %"struct.content::EntryChangedDetails"*) unnamed_addr #0 comdat align 2 {
  ret void
}

; Function Attrs: nounwind ssp uwtable
define linkonce_odr hidden void @_ZN7content19WebContentsObserver29DidFirstVisuallyNonEmptyPaintEv(%"class.content::WebContentsObserver"*) unnamed_addr #0 comdat align 2 {
  ret void
}

; Function Attrs: nounwind ssp uwtable
define linkonce_odr hidden void @_ZN7content19WebContentsObserver17NavigationStoppedEv(%"class.content::WebContentsObserver"*) unnamed_addr #0 comdat align 2 {
  ret void
}

; Function Attrs: nounwind ssp uwtable
define linkonce_odr hidden void @_ZN7content19WebContentsObserver21DidGetUserInteractionERKN5blink13WebInputEventE(%"class.content::WebContentsObserver"*, %"class.blink::WebInputEvent"* dereferenceable(40)) unnamed_addr #0 comdat align 2 {
  ret void
}

; Function Attrs: nounwind ssp uwtable
define linkonce_odr hidden void @_ZN7content19WebContentsObserver20DidGetIgnoredUIEventEv(%"class.content::WebContentsObserver"*) unnamed_addr #0 comdat align 2 {
  ret void
}

; Function Attrs: nounwind ssp uwtable
define linkonce_odr hidden void @_ZN7content19WebContentsObserver19OnVisibilityChangedENS_10VisibilityE(%"class.content::WebContentsObserver"*, i32) unnamed_addr #0 comdat align 2 {
  ret void
}

; Function Attrs: nounwind ssp uwtable
define linkonce_odr hidden void @_ZN7content19WebContentsObserver19MainFrameWasResizedEb(%"class.content::WebContentsObserver"*, i1 zeroext) unnamed_addr #0 comdat align 2 {
  ret void
}

; Function Attrs: nounwind ssp uwtable
define linkonce_odr hidden void @_ZN7content19WebContentsObserver16FrameNameChangedEPNS_15RenderFrameHostERKNSt3__112basic_stringIcNS3_11char_traitsIcEENS3_9allocatorIcEEEE(%"class.content::WebContentsObserver"*, %"class.content::RenderFrameHost"*, %"class.std::__1::basic_string"* dereferenceable(24)) unnamed_addr #0 comdat align 2 {
  ret void
}

; Function Attrs: nounwind ssp uwtable
define linkonce_odr hidden void @_ZN7content19WebContentsObserver27FrameReceivedUserActivationEPNS_15RenderFrameHostE(%"class.content::WebContentsObserver"*, %"class.content::RenderFrameHost"*) unnamed_addr #0 comdat align 2 {
  ret void
}

; Function Attrs: nounwind ssp uwtable
define linkonce_odr hidden void @_ZN7content19WebContentsObserver24FrameDisplayStateChangedEPNS_15RenderFrameHostEb(%"class.content::WebContentsObserver"*, %"class.content::RenderFrameHost"*, i1 zeroext) unnamed_addr #0 comdat align 2 {
  ret void
}

; Function Attrs: nounwind ssp uwtable
define linkonce_odr hidden void @_ZN7content19WebContentsObserver16FrameSizeChangedEPNS_15RenderFrameHostERKN3gfx4SizeE(%"class.content::WebContentsObserver"*, %"class.content::RenderFrameHost"*, %"class.gfx::Size"* dereferenceable(8)) unnamed_addr #0 comdat align 2 {
  ret void
}

; Function Attrs: nounwind ssp uwtable
define linkonce_odr hidden void @_ZN7content19WebContentsObserver16AppCacheAccessedERK4GURLb(%"class.content::WebContentsObserver"*, %class.GURL* dereferenceable(120), i1 zeroext) unnamed_addr #0 comdat align 2 {
  ret void
}

; Function Attrs: nounwind ssp uwtable
define linkonce_odr hidden void @_ZN7content19WebContentsObserver21PepperInstanceCreatedEv(%"class.content::WebContentsObserver"*) unnamed_addr #0 comdat align 2 {
  ret void
}

; Function Attrs: nounwind ssp uwtable
define linkonce_odr hidden void @_ZN7content19WebContentsObserver21PepperInstanceDeletedEv(%"class.content::WebContentsObserver"*) unnamed_addr #0 comdat align 2 {
  ret void
}

; Function Attrs: nounwind ssp uwtable
define linkonce_odr hidden void @_ZN7content19WebContentsObserver18ViewportFitChangedEN5blink5mojom11ViewportFitE(%"class.content::WebContentsObserver"*, i32) unnamed_addr #0 comdat align 2 {
  ret void
}

; Function Attrs: nounwind ssp uwtable
define linkonce_odr hidden void @_ZN7content19WebContentsObserver13PluginCrashedERKN4base8FilePathEi(%"class.content::WebContentsObserver"*, %"class.base::FilePath"* dereferenceable(24), i32) unnamed_addr #0 comdat align 2 {
  ret void
}

; Function Attrs: nounwind ssp uwtable
define linkonce_odr hidden void @_ZN7content19WebContentsObserver23PluginHungStatusChangedEiRKN4base8FilePathEb(%"class.content::WebContentsObserver"*, i32, %"class.base::FilePath"* dereferenceable(24), i1 zeroext) unnamed_addr #0 comdat align 2 {
  ret void
}

; Function Attrs: nounwind ssp uwtable
define linkonce_odr hidden void @_ZN7content19WebContentsObserver23InnerWebContentsCreatedEPNS_11WebContentsE(%"class.content::WebContentsObserver"*, %"class.content::WebContents"*) unnamed_addr #0 comdat align 2 {
  ret void
}

; Function Attrs: nounwind ssp uwtable
define linkonce_odr hidden void @_ZN7content19WebContentsObserver24InnerWebContentsAttachedEPNS_11WebContentsEPNS_15RenderFrameHostEb(%"class.content::WebContentsObserver"*, %"class.content::WebContents"*, %"class.content::RenderFrameHost"*, i1 zeroext) unnamed_addr #0 comdat align 2 {
  ret void
}

; Function Attrs: nounwind ssp uwtable
define linkonce_odr hidden void @_ZN7content19WebContentsObserver24InnerWebContentsDetachedEPNS_11WebContentsE(%"class.content::WebContentsObserver"*, %"class.content::WebContents"*) unnamed_addr #0 comdat align 2 {
  ret void
}

; Function Attrs: nounwind ssp uwtable
define linkonce_odr hidden void @_ZN7content19WebContentsObserver24DidCloneToNewWebContentsEPNS_11WebContentsES2_(%"class.content::WebContentsObserver"*, %"class.content::WebContents"*, %"class.content::WebContents"*) unnamed_addr #0 comdat align 2 {
  ret void
}

; Function Attrs: nounwind ssp uwtable
define linkonce_odr hidden void @_ZN7content19WebContentsObserver20UserAgentOverrideSetERKN5blink17UserAgentOverrideE(%"class.content::WebContentsObserver"*, %"struct.blink::UserAgentOverride"* dereferenceable(184)) unnamed_addr #0 comdat align 2 {
  ret void
}

; Function Attrs: nounwind ssp uwtable
define linkonce_odr hidden void @_ZN7content19WebContentsObserver19DidUpdateFaviconURLEPNS_15RenderFrameHostERKNSt3__16vectorIN4mojo9StructPtrIN5blink5mojom10FaviconURLEEENS3_9allocatorISA_EEEE(%"class.content::WebContentsObserver"*, %"class.content::RenderFrameHost"*, %"class.std::__1::vector.189"*) unnamed_addr #0 comdat align 2 {
  ret void
}

; Function Attrs: nounwind ssp uwtable
define linkonce_odr hidden void @_ZN7content19WebContentsObserver19OnAudioStateChangedEb(%"class.content::WebContentsObserver"*, i1 zeroext) unnamed_addr #0 comdat align 2 {
  ret void
}

; Function Attrs: nounwind ssp uwtable
define linkonce_odr hidden void @_ZN7content19WebContentsObserver24OnFrameAudioStateChangedEPNS_15RenderFrameHostEb(%"class.content::WebContentsObserver"*, %"class.content::RenderFrameHost"*, i1 zeroext) unnamed_addr #0 comdat align 2 {
  ret void
}

; Function Attrs: nounwind ssp uwtable
define linkonce_odr hidden void @_ZN7content19WebContentsObserver37OnIsConnectedToBluetoothDeviceChangedEb(%"class.content::WebContentsObserver"*, i1 zeroext) unnamed_addr #0 comdat align 2 {
  ret void
}

; Function Attrs: nounwind ssp uwtable
define linkonce_odr hidden void @_ZN7content19WebContentsObserver25DidUpdateAudioMutingStateEb(%"class.content::WebContentsObserver"*, i1 zeroext) unnamed_addr #0 comdat align 2 {
  ret void
}

; Function Attrs: nounwind ssp uwtable
define linkonce_odr hidden void @_ZN7content19WebContentsObserver29DidToggleFullscreenModeForTabEbb(%"class.content::WebContentsObserver"*, i1 zeroext, i1 zeroext) unnamed_addr #0 comdat align 2 {
  ret void
}

; Function Attrs: nounwind ssp uwtable
define linkonce_odr hidden void @_ZN7content19WebContentsObserver20DidAcquireFullscreenEPNS_15RenderFrameHostE(%"class.content::WebContentsObserver"*, %"class.content::RenderFrameHost"*) unnamed_addr #0 comdat align 2 {
  ret void
}

; Function Attrs: nounwind ssp uwtable
define linkonce_odr hidden void @_ZN7content19WebContentsObserver32DidChangeVerticalScrollDirectionEN3viz23VerticalScrollDirectionE(%"class.content::WebContentsObserver"*, i32) unnamed_addr #0 comdat align 2 {
  ret void
}

; Function Attrs: nounwind ssp uwtable
define linkonce_odr hidden void @_ZN7content19WebContentsObserver27BeforeFormRepostWarningShowEv(%"class.content::WebContentsObserver"*) unnamed_addr #0 comdat align 2 {
  ret void
}

; Function Attrs: nounwind ssp uwtable
define linkonce_odr hidden void @_ZN7content19WebContentsObserver17BeforeUnloadFiredEbRKN4base9TimeTicksE(%"class.content::WebContentsObserver"*, i1 zeroext, %"class.base::TimeTicks"* dereferenceable(8)) unnamed_addr #0 comdat align 2 {
  ret void
}

; Function Attrs: nounwind ssp uwtable
define linkonce_odr hidden void @_ZN7content19WebContentsObserver27BeforeUnloadDialogCancelledEv(%"class.content::WebContentsObserver"*) unnamed_addr #0 comdat align 2 {
  ret void
}

; Function Attrs: nounwind ssp uwtable
define linkonce_odr hidden void @_ZN7content19WebContentsObserver30AXTreeIDForMainFrameHasChangedEv(%"class.content::WebContentsObserver"*) unnamed_addr #0 comdat align 2 {
  ret void
}

; Function Attrs: nounwind ssp uwtable
define linkonce_odr hidden void @_ZN7content19WebContentsObserver26AccessibilityEventReceivedERKNS_26AXEventNotificationDetailsE(%"class.content::WebContentsObserver"*, %"struct.content::AXEventNotificationDetails"*) unnamed_addr #0 comdat align 2 {
  ret void
}

; Function Attrs: nounwind ssp uwtable
define linkonce_odr hidden void @_ZN7content19WebContentsObserver36AccessibilityLocationChangesReceivedERKNSt3__16vectorINS_35AXLocationChangeNotificationDetailsENS1_9allocatorIS3_EEEE(%"class.content::WebContentsObserver"*, %"class.std::__1::vector.190"*) unnamed_addr #0 comdat align 2 {
  ret void
}

; Function Attrs: nounwind ssp uwtable
define linkonce_odr hidden void @_ZN7content19WebContentsObserver19DidChangeThemeColorEv(%"class.content::WebContentsObserver"*) unnamed_addr #0 comdat align 2 {
  ret void
}

; Function Attrs: nounwind ssp uwtable
define linkonce_odr hidden void @_ZN7content19WebContentsObserver24OnBackgroundColorChangedEv(%"class.content::WebContentsObserver"*) unnamed_addr #0 comdat align 2 {
  ret void
}

; Function Attrs: nounwind ssp uwtable
define linkonce_odr hidden void @_ZN7content19WebContentsObserver24OnDidAddMessageToConsoleEPNS_15RenderFrameHostEN5blink5mojom19ConsoleMessageLevelERKNSt3__112basic_stringIDsNS6_11char_traitsIDsEENS6_9allocatorIDsEEEEiSE_RKN4absl8optionalISC_EE(%"class.content::WebContentsObserver"*, %"class.content::RenderFrameHost"*, i32, %"class.std::__1::basic_string.125"* dereferenceable(24), i32, %"class.std::__1::basic_string.125"* dereferenceable(24), %"class.absl::optional.191"*) unnamed_addr #0 comdat align 2 {
  ret void
}

; Function Attrs: nounwind ssp uwtable
define linkonce_odr hidden void @_ZN7content19WebContentsObserver19MediaStartedPlayingERKNS0_15MediaPlayerInfoERKNS_13MediaPlayerIdE(%"class.content::WebContentsObserver"*, %"struct.content::WebContentsObserver::MediaPlayerInfo"* dereferenceable(2), %"struct.content::MediaPlayerId"*) unnamed_addr #0 comdat align 2 {
  ret void
}

; Function Attrs: nounwind ssp uwtable
define linkonce_odr hidden void @_ZN7content19WebContentsObserver19MediaStoppedPlayingERKNS0_15MediaPlayerInfoERKNS_13MediaPlayerIdENS0_18MediaStoppedReasonE(%"class.content::WebContentsObserver"*, %"struct.content::WebContentsObserver::MediaPlayerInfo"* dereferenceable(2), %"struct.content::MediaPlayerId"*, i32) unnamed_addr #0 comdat align 2 {
  ret void
}

; Function Attrs: nounwind ssp uwtable
define linkonce_odr hidden void @_ZN7content19WebContentsObserver12MediaResizedERKN3gfx4SizeERKNS_13MediaPlayerIdE(%"class.content::WebContentsObserver"*, %"class.gfx::Size"* dereferenceable(8), %"struct.content::MediaPlayerId"*) unnamed_addr #0 comdat align 2 {
  ret void
}

; Function Attrs: nounwind ssp uwtable
define linkonce_odr hidden void @_ZN7content19WebContentsObserver33MediaEffectivelyFullscreenChangedEb(%"class.content::WebContentsObserver"*, i1 zeroext) unnamed_addr #0 comdat align 2 {
  ret void
}

; Function Attrs: nounwind ssp uwtable
define linkonce_odr hidden void @_ZN7content19WebContentsObserver28MediaPictureInPictureChangedEb(%"class.content::WebContentsObserver"*, i1 zeroext) unnamed_addr #0 comdat align 2 {
  ret void
}

; Function Attrs: nounwind ssp uwtable
define linkonce_odr hidden void @_ZN7content19WebContentsObserver23MediaMutedStatusChangedERKNS_13MediaPlayerIdEb(%"class.content::WebContentsObserver"*, %"struct.content::MediaPlayerId"*, i1 zeroext) unnamed_addr #0 comdat align 2 {
  ret void
}

; Function Attrs: nounwind ssp uwtable
define linkonce_odr hidden void @_ZN7content19WebContentsObserver20MediaBufferUnderflowERKNS_13MediaPlayerIdE(%"class.content::WebContentsObserver"*, %"struct.content::MediaPlayerId"*) unnamed_addr #0 comdat align 2 {
  ret void
}

; Function Attrs: nounwind ssp uwtable
define linkonce_odr hidden void @_ZN7content19WebContentsObserver15MediaPlayerSeekERKNS_13MediaPlayerIdE(%"class.content::WebContentsObserver"*, %"struct.content::MediaPlayerId"*) unnamed_addr #0 comdat align 2 {
  ret void
}

; Function Attrs: nounwind ssp uwtable
define linkonce_odr hidden void @_ZN7content19WebContentsObserver14MediaDestroyedERKNS_13MediaPlayerIdE(%"class.content::WebContentsObserver"*, %"struct.content::MediaPlayerId"*) unnamed_addr #0 comdat align 2 {
  ret void
}

; Function Attrs: nounwind ssp uwtable
define linkonce_odr hidden void @_ZN7content19WebContentsObserver24OnPageScaleFactorChangedEf(%"class.content::WebContentsObserver"*, float) unnamed_addr #0 comdat align 2 {
  ret void
}

; Function Attrs: nounwind ssp uwtable
define linkonce_odr hidden void @_ZN7content19WebContentsObserver7OnPasteEv(%"class.content::WebContentsObserver"*) unnamed_addr #0 comdat align 2 {
  ret void
}

declare zeroext i1 @_ZN7content19WebContentsObserver17OnMessageReceivedERKN3IPC7MessageEPNS_15RenderFrameHostE(%"class.content::WebContentsObserver"*, %"class.IPC::Message"* dereferenceable(56), %"class.content::RenderFrameHost"*) unnamed_addr #1

; Function Attrs: nounwind ssp uwtable
define linkonce_odr hidden void @_ZN7content19WebContentsObserver20OnWebContentsFocusedEPNS_16RenderWidgetHostE(%"class.content::WebContentsObserver"*, %"class.content::RenderWidgetHost"*) unnamed_addr #0 comdat align 2 {
  ret void
}

; Function Attrs: nounwind ssp uwtable
define linkonce_odr hidden void @_ZN7content19WebContentsObserver22OnWebContentsLostFocusEPNS_16RenderWidgetHostE(%"class.content::WebContentsObserver"*, %"class.content::RenderWidgetHost"*) unnamed_addr #0 comdat align 2 {
  ret void
}

; Function Attrs: nounwind ssp uwtable
define linkonce_odr hidden void @_ZN7content19WebContentsObserver20OnFocusChangedInPageEPNS_18FocusedNodeDetailsE(%"class.content::WebContentsObserver"*, %"struct.content::FocusedNodeDetails"*) unnamed_addr #0 comdat align 2 {
  ret void
}

; Function Attrs: nounwind ssp uwtable
define linkonce_odr hidden void @_ZN7content19WebContentsObserver23DidUpdateWebManifestURLEPNS_15RenderFrameHostERKN4absl8optionalI4GURLEE(%"class.content::WebContentsObserver"*, %"class.content::RenderFrameHost"*, %"class.absl::optional.192"* dereferenceable(128)) unnamed_addr #0 comdat align 2 {
  ret void
}

; Function Attrs: nounwind ssp uwtable
define linkonce_odr hidden void @_ZN7content19WebContentsObserver27OnInterfaceRequestFromFrameEPNS_15RenderFrameHostERKNSt3__112basic_stringIcNS3_11char_traitsIcEENS3_9allocatorIcEEEEPN4mojo16ScopedHandleBaseINSC_17MessagePipeHandleEEE(%"class.content::WebContentsObserver"*, %"class.content::RenderFrameHost"*, %"class.std::__1::basic_string"* dereferenceable(24), %"class.mojo::ScopedHandleBase"*) unnamed_addr #0 comdat align 2 {
  ret void
}

; Function Attrs: nounwind ssp uwtable
define linkonce_odr hidden void @_ZN7content19WebContentsObserver27AudioContextPlaybackStartedERKNSt3__14pairIPNS_15RenderFrameHostEiEE(%"class.content::WebContentsObserver"*, %"struct.std::__1::pair"*) unnamed_addr #0 comdat align 2 {
  ret void
}

; Function Attrs: nounwind ssp uwtable
define linkonce_odr hidden void @_ZN7content19WebContentsObserver27AudioContextPlaybackStoppedERKNSt3__14pairIPNS_15RenderFrameHostEiEE(%"class.content::WebContentsObserver"*, %"struct.std::__1::pair"*) unnamed_addr #0 comdat align 2 {
  ret void
}

; Function Attrs: nounwind ssp uwtable
define linkonce_odr hidden void @_ZN7content19WebContentsObserver23OnServiceWorkerAccessedEPNS_15RenderFrameHostERK4GURLNS_24AllowServiceWorkerResultE(%"class.content::WebContentsObserver"*, %"class.content::RenderFrameHost"*, %class.GURL* dereferenceable(120), i24) unnamed_addr #0 comdat align 2 {
  ret void
}

; Function Attrs: nounwind ssp uwtable
define linkonce_odr hidden void @_ZN7content19WebContentsObserver23OnServiceWorkerAccessedEPNS_16NavigationHandleERK4GURLNS_24AllowServiceWorkerResultE(%"class.content::WebContentsObserver"*, %"class.content::NavigationHandle"*, %class.GURL* dereferenceable(120), i24) unnamed_addr #0 comdat align 2 {
  ret void
}

; Function Attrs: nounwind ssp uwtable
define linkonce_odr hidden void @_ZN9translate15TranslateDriver25LanguageDetectionObserver26OnTranslateDriverDestroyedEPS0_(%"class.translate::TranslateDriver::LanguageDetectionObserver"*, %"class.translate::TranslateDriver"*) unnamed_addr #0 comdat align 2 {
  ret void
}

; Function Attrs: nounwind ssp uwtable
define linkonce_odr hidden void @_ZN4base16SupportsUserData4DataD2Ev(%"class.base::SupportsUserData::Data"*) unnamed_addr #0 comdat align 2 {
  ret void
}

; Function Attrs: inlinehint nounwind ssp uwtable
define linkonce_odr hidden void @_ZN7content19WebContentsUserDataIN13sync_sessions27SyncSessionsRouterTabHelperEED0Ev(%"class.content::WebContentsUserData"*) unnamed_addr #4 comdat align 2 {
  %2 = bitcast %"class.content::WebContentsUserData"* %0 to i8*
  tail call void @_ZdlPv(i8* %2) #6
  ret void
}

declare void @_ZN4base15CheckedObserverC2Ev(%"class.base::CheckedObserver"*) unnamed_addr #1

; Function Attrs: nounwind
declare void @_ZN4base15CheckedObserverD2Ev(%"class.base::CheckedObserver"*) unnamed_addr #2

declare %"class.base::SupportsUserData::Data"* @_ZNK4base16SupportsUserData11GetUserDataEPKv(%"class.base::SupportsUserData"*, i8*) local_unnamed_addr #1

attributes #0 = { nounwind ssp uwtable "correctly-rounded-divide-sqrt-fp-math"="false" "disable-tail-calls"="false" "less-precise-fpmad"="false" "min-legal-vector-width"="0" "no-frame-pointer-elim"="false" "no-frame-pointer-elim-non-leaf" "no-infs-fp-math"="false" "no-jump-tables"="false" "no-nans-fp-math"="false" "no-signed-zeros-fp-math"="false" "no-trapping-math"="false" "null-pointer-is-valid"="true" "stack-protector-buffer-size"="4" "target-cpu"="x86-64" "target-features"="+cx8,+fxsr,+mmx,+sse,+sse2,+sse3,+x87" "unsafe-fp-math"="false" "use-soft-float"="false" }
attributes #1 = { "correctly-rounded-divide-sqrt-fp-math"="false" "disable-tail-calls"="false" "less-precise-fpmad"="false" "no-frame-pointer-elim"="false" "no-frame-pointer-elim-non-leaf" "no-infs-fp-math"="false" "no-nans-fp-math"="false" "no-signed-zeros-fp-math"="false" "no-trapping-math"="false" "null-pointer-is-valid"="true" "stack-protector-buffer-size"="4" "target-cpu"="x86-64" "target-features"="+cx8,+fxsr,+mmx,+sse,+sse2,+sse3,+x87" "unsafe-fp-math"="false" "use-soft-float"="false" }
attributes #2 = { nounwind "correctly-rounded-divide-sqrt-fp-math"="false" "disable-tail-calls"="false" "less-precise-fpmad"="false" "no-frame-pointer-elim"="false" "no-frame-pointer-elim-non-leaf" "no-infs-fp-math"="false" "no-nans-fp-math"="false" "no-signed-zeros-fp-math"="false" "no-trapping-math"="false" "null-pointer-is-valid"="true" "stack-protector-buffer-size"="4" "target-cpu"="x86-64" "target-features"="+cx8,+fxsr,+mmx,+sse,+sse2,+sse3,+x87" "unsafe-fp-math"="false" "use-soft-float"="false" }
attributes #3 = { nobuiltin nounwind "correctly-rounded-divide-sqrt-fp-math"="false" "disable-tail-calls"="false" "less-precise-fpmad"="false" "no-frame-pointer-elim"="false" "no-frame-pointer-elim-non-leaf" "no-infs-fp-math"="false" "no-nans-fp-math"="false" "no-signed-zeros-fp-math"="false" "no-trapping-math"="false" "null-pointer-is-valid"="true" "stack-protector-buffer-size"="4" "target-cpu"="x86-64" "target-features"="+cx8,+fxsr,+mmx,+sse,+sse2,+sse3,+x87" "unsafe-fp-math"="false" "use-soft-float"="false" }
attributes #4 = { inlinehint nounwind ssp uwtable "correctly-rounded-divide-sqrt-fp-math"="false" "disable-tail-calls"="false" "less-precise-fpmad"="false" "min-legal-vector-width"="0" "no-frame-pointer-elim"="false" "no-frame-pointer-elim-non-leaf" "no-infs-fp-math"="false" "no-jump-tables"="false" "no-nans-fp-math"="false" "no-signed-zeros-fp-math"="false" "no-trapping-math"="false" "null-pointer-is-valid"="true" "stack-protector-buffer-size"="4" "target-cpu"="x86-64" "target-features"="+cx8,+fxsr,+mmx,+sse,+sse2,+sse3,+x87" "unsafe-fp-math"="false" "use-soft-float"="false" }
attributes #5 = { nounwind }
attributes #6 = { builtin nounwind }

!llvm.module.flags = !{!0, !1}

!0 = !{i32 1, !"wchar_size", i32 4}
!1 = !{i32 7, !"PIC Level", i32 2}
