; ModuleID = '../../third_party/vulkan-deps/vulkan-validation-layers/src/layers/sync_vuid_maps.cpp'
source_filename = "../../third_party/vulkan-deps/vulkan-validation-layers/src/layers/sync_vuid_maps.cpp"
target datalayout = "e-m:e-i64:64-f80:128-n8:16:32:64-S128"
target triple = "x86_64-unknown-linux-gnu"

module asm ".symver exp, exp@GLIBC_2.2.5"
module asm ".symver exp2, exp2@GLIBC_2.2.5"
module asm ".symver exp2f, exp2f@GLIBC_2.2.5"
module asm ".symver expf, expf@GLIBC_2.2.5"
module asm ".symver lgamma, lgamma@GLIBC_2.2.5"
module asm ".symver lgammaf, lgammaf@GLIBC_2.2.5"
module asm ".symver lgammal, lgammal@GLIBC_2.2.5"
module asm ".symver log, log@GLIBC_2.2.5"
module asm ".symver log2, log2@GLIBC_2.2.5"
module asm ".symver log2f, log2f@GLIBC_2.2.5"
module asm ".symver logf, logf@GLIBC_2.2.5"
module asm ".symver pow, pow@GLIBC_2.2.5"
module asm ".symver powf, powf@GLIBC_2.2.5"

%"class.std::__1::unordered_map" = type { %"class.std::__1::__hash_table" }
%"class.std::__1::__hash_table" = type <{ %"class.std::__1::unique_ptr", %"class.std::__1::__compressed_pair.4", %"class.std::__1::__compressed_pair.9", %"class.std::__1::__compressed_pair.11", [4 x i8] }>
%"class.std::__1::unique_ptr" = type { %"class.std::__1::__compressed_pair" }
%"class.std::__1::__compressed_pair" = type { %"struct.std::__1::__compressed_pair_elem", %"struct.std::__1::__compressed_pair_elem.0" }
%"struct.std::__1::__compressed_pair_elem" = type { %"struct.std::__1::__hash_node_base"** }
%"struct.std::__1::__hash_node_base" = type { %"struct.std::__1::__hash_node_base"* }
%"struct.std::__1::__compressed_pair_elem.0" = type { %"class.std::__1::__bucket_list_deallocator" }
%"class.std::__1::__bucket_list_deallocator" = type { %"class.std::__1::__compressed_pair.1" }
%"class.std::__1::__compressed_pair.1" = type { %"struct.std::__1::__compressed_pair_elem.2" }
%"struct.std::__1::__compressed_pair_elem.2" = type { i64 }
%"class.std::__1::__compressed_pair.4" = type { %"struct.std::__1::__compressed_pair_elem.5" }
%"struct.std::__1::__compressed_pair_elem.5" = type { %"struct.std::__1::__hash_node_base" }
%"class.std::__1::__compressed_pair.9" = type { %"struct.std::__1::__compressed_pair_elem.2" }
%"class.std::__1::__compressed_pair.11" = type { %"struct.std::__1::__compressed_pair_elem.12" }
%"struct.std::__1::__compressed_pair_elem.12" = type { float }
%"class.std::__1::set" = type { %"class.std::__1::__tree" }
%"class.std::__1::__tree" = type { %"class.std::__1::__tree_end_node"*, %"class.std::__1::__compressed_pair.172", %"class.std::__1::__compressed_pair.177" }
%"class.std::__1::__tree_end_node" = type { %"class.std::__1::__tree_node_base"* }
%"class.std::__1::__tree_node_base" = type <{ %"class.std::__1::__tree_end_node", %"class.std::__1::__tree_node_base"*, %"class.std::__1::__tree_end_node"*, i8, [7 x i8] }>
%"class.std::__1::__compressed_pair.172" = type { %"struct.std::__1::__compressed_pair_elem.173" }
%"struct.std::__1::__compressed_pair_elem.173" = type { %"class.std::__1::__tree_end_node" }
%"class.std::__1::__compressed_pair.177" = type { %"struct.std::__1::__compressed_pair_elem.2" }
%"class.std::__1::unordered_map.180" = type { %"class.std::__1::__hash_table.181" }
%"class.std::__1::__hash_table.181" = type <{ %"class.std::__1::unique_ptr.182", %"class.std::__1::__compressed_pair.192", %"class.std::__1::__compressed_pair.197", %"class.std::__1::__compressed_pair.200", [4 x i8] }>
%"class.std::__1::unique_ptr.182" = type { %"class.std::__1::__compressed_pair.183" }
%"class.std::__1::__compressed_pair.183" = type { %"struct.std::__1::__compressed_pair_elem.184", %"struct.std::__1::__compressed_pair_elem.186" }
%"struct.std::__1::__compressed_pair_elem.184" = type { %"struct.std::__1::__hash_node_base.185"** }
%"struct.std::__1::__hash_node_base.185" = type { %"struct.std::__1::__hash_node_base.185"* }
%"struct.std::__1::__compressed_pair_elem.186" = type { %"class.std::__1::__bucket_list_deallocator.187" }
%"class.std::__1::__bucket_list_deallocator.187" = type { %"class.std::__1::__compressed_pair.188" }
%"class.std::__1::__compressed_pair.188" = type { %"struct.std::__1::__compressed_pair_elem.2" }
%"class.std::__1::__compressed_pair.192" = type { %"struct.std::__1::__compressed_pair_elem.193" }
%"struct.std::__1::__compressed_pair_elem.193" = type { %"struct.std::__1::__hash_node_base.185" }
%"class.std::__1::__compressed_pair.197" = type { %"struct.std::__1::__compressed_pair_elem.2" }
%"class.std::__1::__compressed_pair.200" = type { %"struct.std::__1::__compressed_pair_elem.12" }
%"class.std::__1::map" = type { %"class.std::__1::__tree.206" }
%"class.std::__1::__tree.206" = type { %"class.std::__1::__tree_end_node"*, %"class.std::__1::__compressed_pair.207", %"class.std::__1::__compressed_pair.211" }
%"class.std::__1::__compressed_pair.207" = type { %"struct.std::__1::__compressed_pair_elem.173" }
%"class.std::__1::__compressed_pair.211" = type { %"struct.std::__1::__compressed_pair_elem.2" }
%"class.std::__1::map.216" = type { %"class.std::__1::__tree.217" }
%"class.std::__1::__tree.217" = type { %"class.std::__1::__tree_end_node"*, %"class.std::__1::__compressed_pair.218", %"class.std::__1::__compressed_pair.222" }
%"class.std::__1::__compressed_pair.218" = type { %"struct.std::__1::__compressed_pair_elem.173" }
%"class.std::__1::__compressed_pair.222" = type { %"struct.std::__1::__compressed_pair_elem.2" }
%"class.std::__1::basic_string" = type { %"class.std::__1::__compressed_pair.14" }
%"class.std::__1::__compressed_pair.14" = type { %"struct.std::__1::__compressed_pair_elem.15" }
%"struct.std::__1::__compressed_pair_elem.15" = type { %"struct.std::__1::basic_string<char, std::__1::char_traits<char>, std::__1::allocator<char> >::__rep" }
%"struct.std::__1::basic_string<char, std::__1::char_traits<char>, std::__1::allocator<char> >::__rep" = type { %union.anon }
%union.anon = type { %"struct.std::__1::basic_string<char, std::__1::char_traits<char>, std::__1::allocator<char> >::__long" }
%"struct.std::__1::basic_string<char, std::__1::char_traits<char>, std::__1::allocator<char> >::__long" = type { i8*, i64, i64 }
%"class.std::__1::map.235" = type { %"class.std::__1::__tree.236" }
%"class.std::__1::__tree.236" = type { %"class.std::__1::__tree_end_node"*, %"class.std::__1::__compressed_pair.237", %"class.std::__1::__compressed_pair.241" }
%"class.std::__1::__compressed_pair.237" = type { %"struct.std::__1::__compressed_pair_elem.173" }
%"class.std::__1::__compressed_pair.241" = type { %"struct.std::__1::__compressed_pair_elem.2" }
%"class.std::__1::vector.227" = type { %"class.std::__1::__vector_base.228" }
%"class.std::__1::__vector_base.228" = type { %"struct.core_error::Entry"*, %"struct.core_error::Entry"*, %"class.std::__1::__compressed_pair.229" }
%"struct.core_error::Entry" = type { %"struct.core_error::Key", %"class.std::__1::basic_string" }
%"struct.core_error::Key" = type <{ i32, i32, i32, i8, [3 x i8] }>
%"class.std::__1::__compressed_pair.229" = type { %"struct.std::__1::__compressed_pair_elem.230" }
%"struct.std::__1::__compressed_pair_elem.230" = type { %"struct.core_error::Entry"* }
%"class.std::__1::map.246" = type { %"class.std::__1::__tree.247" }
%"class.std::__1::__tree.247" = type { %"class.std::__1::__tree_end_node"*, %"class.std::__1::__compressed_pair.248", %"class.std::__1::__compressed_pair.252" }
%"class.std::__1::__compressed_pair.248" = type { %"struct.std::__1::__compressed_pair_elem.173" }
%"class.std::__1::__compressed_pair.252" = type { %"struct.std::__1::__compressed_pair_elem.2" }
%"class.std::__1::map.259" = type { %"class.std::__1::__tree.260" }
%"class.std::__1::__tree.260" = type { %"class.std::__1::__tree_end_node"*, %"class.std::__1::__compressed_pair.261", %"class.std::__1::__compressed_pair.265" }
%"class.std::__1::__compressed_pair.261" = type { %"struct.std::__1::__compressed_pair_elem.173" }
%"class.std::__1::__compressed_pair.265" = type { %"struct.std::__1::__compressed_pair_elem.2" }
%"class.std::__1::map.270" = type { %"class.std::__1::__tree.271" }
%"class.std::__1::__tree.271" = type { %"class.std::__1::__tree_end_node"*, %"class.std::__1::__compressed_pair.272", %"class.std::__1::__compressed_pair.276" }
%"class.std::__1::__compressed_pair.272" = type { %"struct.std::__1::__compressed_pair_elem.173" }
%"class.std::__1::__compressed_pair.276" = type { %"struct.std::__1::__compressed_pair_elem.2" }
%"class.std::__1::map.284" = type { %"class.std::__1::__tree.285" }
%"class.std::__1::__tree.285" = type { %"class.std::__1::__tree_end_node"*, %"class.std::__1::__compressed_pair.286", %"class.std::__1::__compressed_pair.290" }
%"class.std::__1::__compressed_pair.286" = type { %"struct.std::__1::__compressed_pair_elem.173" }
%"class.std::__1::__compressed_pair.290" = type { %"struct.std::__1::__compressed_pair_elem.2" }
%"class.std::__1::map.297" = type { %"class.std::__1::__tree.298" }
%"class.std::__1::__tree.298" = type { %"class.std::__1::__tree_end_node"*, %"class.std::__1::__compressed_pair.299", %"class.std::__1::__compressed_pair.303" }
%"class.std::__1::__compressed_pair.299" = type { %"struct.std::__1::__compressed_pair_elem.173" }
%"class.std::__1::__compressed_pair.303" = type { %"struct.std::__1::__compressed_pair_elem.2" }
%struct.SubresourceRangeErrorCodes = type { i8*, i8*, i8*, i8* }
%"class.std::__1::map.310" = type { %"class.std::__1::__tree.311" }
%"class.std::__1::__tree.311" = type { %"class.std::__1::__tree_end_node"*, %"class.std::__1::__compressed_pair.312", %"class.std::__1::__compressed_pair.316" }
%"class.std::__1::__compressed_pair.312" = type { %"struct.std::__1::__compressed_pair_elem.173" }
%"class.std::__1::__compressed_pair.316" = type { %"struct.std::__1::__compressed_pair_elem.2" }
%"struct.std::__1::piecewise_construct_t" = type { i8 }
%"struct.std::__1::basic_string<char, std::__1::char_traits<char>, std::__1::allocator<char> >::__short" = type { [23 x i8], %struct.anon }
%struct.anon = type { i8 }
%struct._debug_report_data = type <{ %"class.std::__1::vector", i32, i32, i8, i8, [6 x i8], %"class.std::__1::unordered_map.24", %"class.std::__1::unordered_map.24", %"class.std::__1::unordered_map.52", %"class.std::__1::unordered_map.80", %"class.std::__1::vector.108", %"class.std::__1::mutex", i32, [4 x i8], %"class.std::__1::unordered_map.115", i8*, i8, [7 x i8] }>
%"class.std::__1::vector" = type { %"class.std::__1::__vector_base" }
%"class.std::__1::__vector_base" = type { %struct.VkLayerDbgFunctionState*, %struct.VkLayerDbgFunctionState*, %"class.std::__1::__compressed_pair.19" }
%struct.VkLayerDbgFunctionState = type { i32, %struct.VkDebugReportCallbackEXT_T*, i32 (i32, i32, i64, i64, i32, i8*, i8*, i8*)*, i32, %struct.VkDebugUtilsMessengerEXT_T*, i32, i32, i32 (i32, i32, %struct.VkDebugUtilsMessengerCallbackDataEXT*, i8*)*, i8* }
%struct.VkDebugReportCallbackEXT_T = type opaque
%struct.VkDebugUtilsMessengerEXT_T = type opaque
%struct.VkDebugUtilsMessengerCallbackDataEXT = type { i32, i8*, i32, i8*, i32, i8*, i32, %struct.VkDebugUtilsLabelEXT*, i32, %struct.VkDebugUtilsLabelEXT*, i32, %struct.VkDebugUtilsObjectNameInfoEXT* }
%struct.VkDebugUtilsLabelEXT = type { i32, i8*, i8*, [4 x float] }
%struct.VkDebugUtilsObjectNameInfoEXT = type { i32, i8*, i32, i64, i8* }
%"class.std::__1::__compressed_pair.19" = type { %"struct.std::__1::__compressed_pair_elem.20" }
%"struct.std::__1::__compressed_pair_elem.20" = type { %struct.VkLayerDbgFunctionState* }
%"class.std::__1::unordered_map.24" = type { %"class.std::__1::__hash_table.25" }
%"class.std::__1::__hash_table.25" = type <{ %"class.std::__1::unique_ptr.26", %"class.std::__1::__compressed_pair.36", %"class.std::__1::__compressed_pair.41", %"class.std::__1::__compressed_pair.46", [4 x i8] }>
%"class.std::__1::unique_ptr.26" = type { %"class.std::__1::__compressed_pair.27" }
%"class.std::__1::__compressed_pair.27" = type { %"struct.std::__1::__compressed_pair_elem.28", %"struct.std::__1::__compressed_pair_elem.30" }
%"struct.std::__1::__compressed_pair_elem.28" = type { %"struct.std::__1::__hash_node_base.29"** }
%"struct.std::__1::__hash_node_base.29" = type { %"struct.std::__1::__hash_node_base.29"* }
%"struct.std::__1::__compressed_pair_elem.30" = type { %"class.std::__1::__bucket_list_deallocator.31" }
%"class.std::__1::__bucket_list_deallocator.31" = type { %"class.std::__1::__compressed_pair.32" }
%"class.std::__1::__compressed_pair.32" = type { %"struct.std::__1::__compressed_pair_elem.2" }
%"class.std::__1::__compressed_pair.36" = type { %"struct.std::__1::__compressed_pair_elem.37" }
%"struct.std::__1::__compressed_pair_elem.37" = type { %"struct.std::__1::__hash_node_base.29" }
%"class.std::__1::__compressed_pair.41" = type { %"struct.std::__1::__compressed_pair_elem.2" }
%"class.std::__1::__compressed_pair.46" = type { %"struct.std::__1::__compressed_pair_elem.12" }
%"class.std::__1::unordered_map.52" = type { %"class.std::__1::__hash_table.53" }
%"class.std::__1::__hash_table.53" = type <{ %"class.std::__1::unique_ptr.54", %"class.std::__1::__compressed_pair.64", %"class.std::__1::__compressed_pair.69", %"class.std::__1::__compressed_pair.74", [4 x i8] }>
%"class.std::__1::unique_ptr.54" = type { %"class.std::__1::__compressed_pair.55" }
%"class.std::__1::__compressed_pair.55" = type { %"struct.std::__1::__compressed_pair_elem.56", %"struct.std::__1::__compressed_pair_elem.58" }
%"struct.std::__1::__compressed_pair_elem.56" = type { %"struct.std::__1::__hash_node_base.57"** }
%"struct.std::__1::__hash_node_base.57" = type { %"struct.std::__1::__hash_node_base.57"* }
%"struct.std::__1::__compressed_pair_elem.58" = type { %"class.std::__1::__bucket_list_deallocator.59" }
%"class.std::__1::__bucket_list_deallocator.59" = type { %"class.std::__1::__compressed_pair.60" }
%"class.std::__1::__compressed_pair.60" = type { %"struct.std::__1::__compressed_pair_elem.2" }
%"class.std::__1::__compressed_pair.64" = type { %"struct.std::__1::__compressed_pair_elem.65" }
%"struct.std::__1::__compressed_pair_elem.65" = type { %"struct.std::__1::__hash_node_base.57" }
%"class.std::__1::__compressed_pair.69" = type { %"struct.std::__1::__compressed_pair_elem.2" }
%"class.std::__1::__compressed_pair.74" = type { %"struct.std::__1::__compressed_pair_elem.12" }
%"class.std::__1::unordered_map.80" = type { %"class.std::__1::__hash_table.81" }
%"class.std::__1::__hash_table.81" = type <{ %"class.std::__1::unique_ptr.82", %"class.std::__1::__compressed_pair.92", %"class.std::__1::__compressed_pair.97", %"class.std::__1::__compressed_pair.102", [4 x i8] }>
%"class.std::__1::unique_ptr.82" = type { %"class.std::__1::__compressed_pair.83" }
%"class.std::__1::__compressed_pair.83" = type { %"struct.std::__1::__compressed_pair_elem.84", %"struct.std::__1::__compressed_pair_elem.86" }
%"struct.std::__1::__compressed_pair_elem.84" = type { %"struct.std::__1::__hash_node_base.85"** }
%"struct.std::__1::__hash_node_base.85" = type { %"struct.std::__1::__hash_node_base.85"* }
%"struct.std::__1::__compressed_pair_elem.86" = type { %"class.std::__1::__bucket_list_deallocator.87" }
%"class.std::__1::__bucket_list_deallocator.87" = type { %"class.std::__1::__compressed_pair.88" }
%"class.std::__1::__compressed_pair.88" = type { %"struct.std::__1::__compressed_pair_elem.2" }
%"class.std::__1::__compressed_pair.92" = type { %"struct.std::__1::__compressed_pair_elem.93" }
%"struct.std::__1::__compressed_pair_elem.93" = type { %"struct.std::__1::__hash_node_base.85" }
%"class.std::__1::__compressed_pair.97" = type { %"struct.std::__1::__compressed_pair_elem.2" }
%"class.std::__1::__compressed_pair.102" = type { %"struct.std::__1::__compressed_pair_elem.12" }
%"class.std::__1::vector.108" = type { %"class.std::__1::__vector_base.109" }
%"class.std::__1::__vector_base.109" = type { i32*, i32*, %"class.std::__1::__compressed_pair.110" }
%"class.std::__1::__compressed_pair.110" = type { %"struct.std::__1::__compressed_pair_elem.111" }
%"struct.std::__1::__compressed_pair_elem.111" = type { i32* }
%"class.std::__1::mutex" = type { %union.pthread_mutex_t }
%union.pthread_mutex_t = type { %struct.__pthread_mutex_s }
%struct.__pthread_mutex_s = type { i32, i32, i32, i32, i32, i16, i16, %struct.__pthread_internal_list }
%struct.__pthread_internal_list = type { %struct.__pthread_internal_list*, %struct.__pthread_internal_list* }
%"class.std::__1::unordered_map.115" = type { %"class.std::__1::__hash_table.116" }
%"class.std::__1::__hash_table.116" = type <{ %"class.std::__1::unique_ptr.117", %"class.std::__1::__compressed_pair.127", %"class.std::__1::__compressed_pair.132", %"class.std::__1::__compressed_pair.137", [4 x i8] }>
%"class.std::__1::unique_ptr.117" = type { %"class.std::__1::__compressed_pair.118" }
%"class.std::__1::__compressed_pair.118" = type { %"struct.std::__1::__compressed_pair_elem.119", %"struct.std::__1::__compressed_pair_elem.121" }
%"struct.std::__1::__compressed_pair_elem.119" = type { %"struct.std::__1::__hash_node_base.120"** }
%"struct.std::__1::__hash_node_base.120" = type { %"struct.std::__1::__hash_node_base.120"* }
%"struct.std::__1::__compressed_pair_elem.121" = type { %"class.std::__1::__bucket_list_deallocator.122" }
%"class.std::__1::__bucket_list_deallocator.122" = type { %"class.std::__1::__compressed_pair.123" }
%"class.std::__1::__compressed_pair.123" = type { %"struct.std::__1::__compressed_pair_elem.2" }
%"class.std::__1::__compressed_pair.127" = type { %"struct.std::__1::__compressed_pair_elem.128" }
%"struct.std::__1::__compressed_pair_elem.128" = type { %"struct.std::__1::__hash_node_base.120" }
%"class.std::__1::__compressed_pair.132" = type { %"struct.std::__1::__compressed_pair_elem.2" }
%"class.std::__1::__compressed_pair.137" = type { %"struct.std::__1::__compressed_pair_elem.12" }
%"class.std::__1::unordered_map.143" = type { %"class.std::__1::__hash_table.144" }
%"class.std::__1::__hash_table.144" = type <{ %"class.std::__1::unique_ptr.145", %"class.std::__1::__compressed_pair.155", %"class.std::__1::__compressed_pair.160", %"class.std::__1::__compressed_pair.165", [4 x i8] }>
%"class.std::__1::unique_ptr.145" = type { %"class.std::__1::__compressed_pair.146" }
%"class.std::__1::__compressed_pair.146" = type { %"struct.std::__1::__compressed_pair_elem.147", %"struct.std::__1::__compressed_pair_elem.149" }
%"struct.std::__1::__compressed_pair_elem.147" = type { %"struct.std::__1::__hash_node_base.148"** }
%"struct.std::__1::__hash_node_base.148" = type { %"struct.std::__1::__hash_node_base.148"* }
%"struct.std::__1::__compressed_pair_elem.149" = type { %"class.std::__1::__bucket_list_deallocator.150" }
%"class.std::__1::__bucket_list_deallocator.150" = type { %"class.std::__1::__compressed_pair.151" }
%"class.std::__1::__compressed_pair.151" = type { %"struct.std::__1::__compressed_pair_elem.2" }
%"class.std::__1::__compressed_pair.155" = type { %"struct.std::__1::__compressed_pair_elem.156" }
%"struct.std::__1::__compressed_pair_elem.156" = type { %"struct.std::__1::__hash_node_base.148" }
%"class.std::__1::__compressed_pair.160" = type { %"struct.std::__1::__compressed_pair_elem.2" }
%"class.std::__1::__compressed_pair.165" = type { %"struct.std::__1::__compressed_pair_elem.12" }
%"class.std::__1::tuple" = type { %"struct.std::__1::__tuple_impl" }
%"struct.std::__1::__tuple_impl" = type { %"class.std::__1::__tuple_leaf" }
%"class.std::__1::__tuple_leaf" = type { i8** }
%"class.std::__1::tuple.336" = type { i8 }
%"class.std::__1::__tree_node" = type { %"class.std::__1::__tree_node_base.base", %"class.std::__1::basic_string" }
%"class.std::__1::__tree_node_base.base" = type <{ %"class.std::__1::__tree_end_node", %"class.std::__1::__tree_node_base"*, %"class.std::__1::__tree_end_node"*, i8 }>
%"struct.std::__1::pair.205" = type { %"class.std::__1::basic_string", %"class.std::__1::basic_string" }
%"class.std::__1::__basic_string_common" = type { i8 }
%"class.std::__1::__tree_node.366" = type { %"class.std::__1::__tree_node_base.base", %"struct.std::__1::__value_type" }
%"struct.std::__1::__value_type" = type { %"struct.std::__1::pair.215" }
%"struct.std::__1::pair.215" = type { i64, %"class.std::__1::basic_string" }
%"struct.std::__1::pair.226" = type { i64, %"class.std::__1::vector.227" }
%"class.std::__1::__vector_base_common" = type { i8 }
%"class.std::__1::__tree_node.379" = type { %"class.std::__1::__tree_node_base.base", %"struct.std::__1::__value_type.380" }
%"struct.std::__1::__value_type.380" = type { %"struct.std::__1::pair.226" }
%"struct.core_error::Location" = type { i32, i32, i32, i32, %"struct.core_error::Location"* }
%"struct.std::__1::pair.245" = type { i64, %"struct.std::__1::array" }
%"struct.std::__1::array" = type { [6 x %"struct.core_error::Entry"] }
%"class.std::__1::__tree_node.393" = type { %"class.std::__1::__tree_node_base.base", %"struct.std::__1::__value_type.394" }
%"struct.std::__1::__value_type.394" = type { %"struct.std::__1::pair.245" }
%"class.std::__1::__tree_node.408" = type { %"class.std::__1::__tree_node_base.base", %"struct.std::__1::__value_type.409" }
%"struct.std::__1::__value_type.409" = type { %"struct.std::__1::pair.258" }
%"struct.std::__1::pair.258" = type { i32, %"class.std::__1::vector.227" }
%"class.std::__1::__tree_node.422" = type { %"class.std::__1::__tree_node_base.base", %"struct.std::__1::__value_type.423" }
%"struct.std::__1::__value_type.423" = type { %"struct.std::__1::pair.269" }
%"struct.std::__1::pair.269" = type { i32, %"class.std::__1::basic_string" }
%"class.std::__1::__tree_node.436" = type { %"class.std::__1::__tree_node_base.base", %"struct.std::__1::__value_type.437" }
%"struct.std::__1::__value_type.437" = type { %"struct.std::__1::pair.282" }
%"struct.std::__1::pair.282" = type { i32, %"struct.std::__1::array.283" }
%"struct.std::__1::array.283" = type { [2 x %"struct.core_error::Entry"] }
%"class.std::__1::__tree_node.451" = type { %"class.std::__1::__tree_node_base.base", %"struct.std::__1::__value_type.452" }
%"struct.std::__1::__value_type.452" = type { %"struct.std::__1::pair.296" }
%"struct.std::__1::pair.296" = type { i32, %"struct.std::__1::array.283" }
%"class.std::__1::__tree_node.465" = type { %"class.std::__1::__tree_node_base.base", %"struct.std::__1::__value_type.466" }
%"struct.std::__1::__value_type.466" = type { %"struct.std::__1::pair.309" }
%"struct.std::__1::pair.309" = type { i32, %"class.std::__1::vector.227" }
%"class.std::__1::__tree_node.479" = type { %"class.std::__1::__tree_node_base.base", %"struct.std::__1::__value_type.480" }
%"struct.std::__1::__value_type.480" = type { %"struct.std::__1::pair.322" }
%"struct.std::__1::pair.322" = type { i32, %"class.std::__1::vector.227" }
%"struct.std::__1::pair" = type <{ %"class.std::__1::basic_string", i32, [4 x i8] }>
%"struct.std::__1::__murmur2_or_cityhash" = type { i8 }
%"class.std::__1::unique_ptr.381" = type { %"class.std::__1::__compressed_pair.382" }
%"class.std::__1::__compressed_pair.382" = type { %"struct.std::__1::__compressed_pair_elem.383", %"struct.std::__1::__compressed_pair_elem.384" }
%"struct.std::__1::__compressed_pair_elem.383" = type { %"class.std::__1::__tree_node.379"* }
%"struct.std::__1::__compressed_pair_elem.384" = type { %"class.std::__1::__tree_node_destructor.385" }
%"class.std::__1::__tree_node_destructor.385" = type <{ %"class.std::__1::allocator.220"*, i8, [7 x i8] }>
%"class.std::__1::allocator.220" = type { i8 }
%"class.std::__1::allocator.239" = type { i8 }
%"class.std::__1::unique_ptr.410" = type { %"class.std::__1::__compressed_pair.411" }
%"class.std::__1::__compressed_pair.411" = type { %"struct.std::__1::__compressed_pair_elem.412", %"struct.std::__1::__compressed_pair_elem.413" }
%"struct.std::__1::__compressed_pair_elem.412" = type { %"class.std::__1::__tree_node.408"* }
%"struct.std::__1::__compressed_pair_elem.413" = type { %"class.std::__1::__tree_node_destructor.414" }
%"class.std::__1::__tree_node_destructor.414" = type <{ %"class.std::__1::allocator.250"*, i8, [7 x i8] }>
%"class.std::__1::allocator.250" = type { i8 }
%"class.std::__1::unique_ptr.467" = type { %"class.std::__1::__compressed_pair.468" }
%"class.std::__1::__compressed_pair.468" = type { %"struct.std::__1::__compressed_pair_elem.469", %"struct.std::__1::__compressed_pair_elem.470" }
%"struct.std::__1::__compressed_pair_elem.469" = type { %"class.std::__1::__tree_node.465"* }
%"struct.std::__1::__compressed_pair_elem.470" = type { %"class.std::__1::__tree_node_destructor.471" }
%"class.std::__1::__tree_node_destructor.471" = type <{ %"class.std::__1::allocator.301"*, i8, [7 x i8] }>
%"class.std::__1::allocator.301" = type { i8 }
%"class.std::__1::unique_ptr.481" = type { %"class.std::__1::__compressed_pair.482" }
%"class.std::__1::__compressed_pair.482" = type { %"struct.std::__1::__compressed_pair_elem.483", %"struct.std::__1::__compressed_pair_elem.484" }
%"struct.std::__1::__compressed_pair_elem.483" = type { %"class.std::__1::__tree_node.479"* }
%"struct.std::__1::__compressed_pair_elem.484" = type { %"class.std::__1::__tree_node_destructor.485" }
%"class.std::__1::__tree_node_destructor.485" = type <{ %"class.std::__1::allocator.314"*, i8, [7 x i8] }>
%"class.std::__1::allocator.314" = type { i8 }

$_ZNSt3__113unordered_mapINS_12basic_stringIcNS_11char_traitsIcEENS_9allocatorIcEEEEjNS_4hashIS6_EENS_8equal_toIS6_EENS4_INS_4pairIKS6_jEEEEED2Ev = comdat any

$_Z15GetLayerDataPtrI18_debug_report_dataEPT_PvRNSt3__113unordered_mapIS3_S2_NS4_4hashIS3_EENS4_8equal_toIS3_EENS4_9allocatorINS4_4pairIKS3_S2_EEEEEE = comdat any

$_ZNSt3__13setINS_12basic_stringIcNS_11char_traitsIcEENS_9allocatorIcEEEENS_4lessIS6_EENS4_IS6_EEED2Ev = comdat any

$_ZNSt3__14pairIKNS_12basic_stringIcNS_11char_traitsIcEENS_9allocatorIcEEEES6_EC2IRA36_KcRA29_SA_Lb0EEEOT_OT0_ = comdat any

$_ZNSt3__14pairIKNS_12basic_stringIcNS_11char_traitsIcEENS_9allocatorIcEEEES6_EC2IRA23_KcRA17_SA_Lb0EEEOT_OT0_ = comdat any

$_ZNSt3__14pairIKNS_12basic_stringIcNS_11char_traitsIcEENS_9allocatorIcEEEES6_EC2IRA22_KcRA17_SA_Lb0EEEOT_OT0_ = comdat any

$_ZNSt3__14pairIKNS_12basic_stringIcNS_11char_traitsIcEENS_9allocatorIcEEEES6_EC2IRA39_KcRA27_SA_Lb0EEEOT_OT0_ = comdat any

$_ZNSt3__14pairIKNS_12basic_stringIcNS_11char_traitsIcEENS_9allocatorIcEEEES6_EC2IRA26_KcRA25_SA_Lb0EEEOT_OT0_ = comdat any

$_ZNSt3__14pairIKNS_12basic_stringIcNS_11char_traitsIcEENS_9allocatorIcEEEES6_EC2IRA36_KcRA18_SA_Lb0EEEOT_OT0_ = comdat any

$_ZNSt3__14pairIKNS_12basic_stringIcNS_11char_traitsIcEENS_9allocatorIcEEEES6_EC2IRA20_KcRA15_SA_Lb0EEEOT_OT0_ = comdat any

$_ZNSt3__14pairIKNS_12basic_stringIcNS_11char_traitsIcEENS_9allocatorIcEEEES6_EC2IRA23_KcRA20_SA_Lb0EEEOT_OT0_ = comdat any

$_ZNSt3__14pairIKNS_12basic_stringIcNS_11char_traitsIcEENS_9allocatorIcEEEES6_EC2IRA19_KcRA15_SA_Lb0EEEOT_OT0_ = comdat any

$_ZNSt3__14pairIKNS_12basic_stringIcNS_11char_traitsIcEENS_9allocatorIcEEEES6_EC2IRA22_KcRA20_SA_Lb0EEEOT_OT0_ = comdat any

$_ZNSt3__14pairIKNS_12basic_stringIcNS_11char_traitsIcEENS_9allocatorIcEEEES6_EC2IRA28_KcRA19_SA_Lb0EEEOT_OT0_ = comdat any

$_ZNSt3__14pairIKNS_12basic_stringIcNS_11char_traitsIcEENS_9allocatorIcEEEES6_EC2IRA33_KcRA30_SA_Lb0EEEOT_OT0_ = comdat any

$_ZNSt3__14pairIKNS_12basic_stringIcNS_11char_traitsIcEENS_9allocatorIcEEEES6_EC2IRA34_KcRA29_SA_Lb0EEEOT_OT0_ = comdat any

$_ZNSt3__14pairIKNS_12basic_stringIcNS_11char_traitsIcEENS_9allocatorIcEEEES6_EC2IRA29_KcRA19_SA_Lb0EEEOT_OT0_ = comdat any

$_ZNSt3__14pairIKNS_12basic_stringIcNS_11char_traitsIcEENS_9allocatorIcEEEES6_EC2IRA26_KcSC_Lb0EEEOT_OT0_ = comdat any

$_ZNSt3__14pairIKNS_12basic_stringIcNS_11char_traitsIcEENS_9allocatorIcEEEES6_EC2IRA22_KcRA15_SA_Lb0EEEOT_OT0_ = comdat any

$_ZNSt3__14pairIKNS_12basic_stringIcNS_11char_traitsIcEENS_9allocatorIcEEEES6_EC2IRA25_KcRA26_SA_Lb0EEEOT_OT0_ = comdat any

$_ZNSt3__14pairIKNS_12basic_stringIcNS_11char_traitsIcEENS_9allocatorIcEEEES6_EC2IRA31_KcRA26_SA_Lb0EEEOT_OT0_ = comdat any

$_ZNSt3__14pairIKNS_12basic_stringIcNS_11char_traitsIcEENS_9allocatorIcEEEES6_EC2IRA25_KcRA19_SA_Lb0EEEOT_OT0_ = comdat any

$_ZNSt3__14pairIKNS_12basic_stringIcNS_11char_traitsIcEENS_9allocatorIcEEEES6_EC2IRA31_KcRA32_SA_Lb0EEEOT_OT0_ = comdat any

$_ZNSt3__14pairIKNS_12basic_stringIcNS_11char_traitsIcEENS_9allocatorIcEEEES6_EC2IRA28_KcRA25_SA_Lb0EEEOT_OT0_ = comdat any

$_ZNSt3__14pairIKNS_12basic_stringIcNS_11char_traitsIcEENS_9allocatorIcEEEES6_EC2IRA37_KcRA26_SA_Lb0EEEOT_OT0_ = comdat any

$_ZNSt3__14pairIKNS_12basic_stringIcNS_11char_traitsIcEENS_9allocatorIcEEEES6_EC2IRA27_KcRA30_SA_Lb0EEEOT_OT0_ = comdat any

$_ZNSt3__14pairIKNS_12basic_stringIcNS_11char_traitsIcEENS_9allocatorIcEEEES6_EC2IRA19_KcRA22_SA_Lb0EEEOT_OT0_ = comdat any

$_ZNSt3__14pairIKNS_12basic_stringIcNS_11char_traitsIcEENS_9allocatorIcEEEES6_EC2IRA34_KcRA18_SA_Lb0EEEOT_OT0_ = comdat any

$_ZNSt3__14pairIKNS_12basic_stringIcNS_11char_traitsIcEENS_9allocatorIcEEEES6_EC2IRA44_KcRA30_SA_Lb0EEEOT_OT0_ = comdat any

$_ZNSt3__14pairIKNS_12basic_stringIcNS_11char_traitsIcEENS_9allocatorIcEEEES6_EC2IRA36_KcRA30_SA_Lb0EEEOT_OT0_ = comdat any

$_ZNSt3__14pairIKNS_12basic_stringIcNS_11char_traitsIcEENS_9allocatorIcEEEES6_EC2IRA27_KcRA19_SA_Lb0EEEOT_OT0_ = comdat any

$_ZNSt3__14pairIKNS_12basic_stringIcNS_11char_traitsIcEENS_9allocatorIcEEEES6_EC2IRA34_KcRA30_SA_Lb0EEEOT_OT0_ = comdat any

$_ZNSt3__14pairIKNS_12basic_stringIcNS_11char_traitsIcEENS_9allocatorIcEEEES6_EC2IRA33_KcRA18_SA_Lb0EEEOT_OT0_ = comdat any

$_ZNSt3__14pairIKNS_12basic_stringIcNS_11char_traitsIcEENS_9allocatorIcEEEES6_EC2IRA42_KcRA30_SA_Lb0EEEOT_OT0_ = comdat any

$_ZNSt3__14pairIKNS_12basic_stringIcNS_11char_traitsIcEENS_9allocatorIcEEEES6_EC2IRA20_KcRA22_SA_Lb0EEEOT_OT0_ = comdat any

$_ZNSt3__14pairIKNS_12basic_stringIcNS_11char_traitsIcEENS_9allocatorIcEEEES6_EC2IRA27_KcRA22_SA_Lb0EEEOT_OT0_ = comdat any

$_ZNSt3__14pairIKNS_12basic_stringIcNS_11char_traitsIcEENS_9allocatorIcEEEES6_EC2IRA23_KcRA21_SA_Lb0EEEOT_OT0_ = comdat any

$_ZNSt3__14pairIKNS_12basic_stringIcNS_11char_traitsIcEENS_9allocatorIcEEEES6_EC2IRA25_KcRA20_SA_Lb0EEEOT_OT0_ = comdat any

$_ZNSt3__14pairIKNS_12basic_stringIcNS_11char_traitsIcEENS_9allocatorIcEEEES6_EC2IRA26_KcRA20_SA_Lb0EEEOT_OT0_ = comdat any

$_ZNSt3__14pairIKNS_12basic_stringIcNS_11char_traitsIcEENS_9allocatorIcEEEES6_EC2IRA20_KcRA26_SA_Lb0EEEOT_OT0_ = comdat any

$_ZNSt3__14pairIKNS_12basic_stringIcNS_11char_traitsIcEENS_9allocatorIcEEEES6_EC2IRA18_KcRA15_SA_Lb0EEEOT_OT0_ = comdat any

$_ZNSt3__14pairIKNS_12basic_stringIcNS_11char_traitsIcEENS_9allocatorIcEEEES6_EC2IRA21_KcRA20_SA_Lb0EEEOT_OT0_ = comdat any

$_ZNSt3__14pairIKNS_12basic_stringIcNS_11char_traitsIcEENS_9allocatorIcEEEES6_EC2IRA30_KcRA15_SA_Lb0EEEOT_OT0_ = comdat any

$_ZNSt3__14pairIKNS_12basic_stringIcNS_11char_traitsIcEENS_9allocatorIcEEEES6_EC2IRA33_KcRA27_SA_Lb0EEEOT_OT0_ = comdat any

$_ZNSt3__14pairIKNS_12basic_stringIcNS_11char_traitsIcEENS_9allocatorIcEEEES6_EC2IRA30_KcRA26_SA_Lb0EEEOT_OT0_ = comdat any

$_ZNSt3__14pairIKNS_12basic_stringIcNS_11char_traitsIcEENS_9allocatorIcEEEES6_EC2IRA23_KcRA15_SA_Lb0EEEOT_OT0_ = comdat any

$_ZNSt3__14pairIKNS_12basic_stringIcNS_11char_traitsIcEENS_9allocatorIcEEEES6_EC2IRA26_KcRA27_SA_Lb0EEEOT_OT0_ = comdat any

$_ZNSt3__14pairIKNS_12basic_stringIcNS_11char_traitsIcEENS_9allocatorIcEEEES6_EC2IRA29_KcRA18_SA_Lb0EEEOT_OT0_ = comdat any

$_ZNSt3__14pairIKNS_12basic_stringIcNS_11char_traitsIcEENS_9allocatorIcEEEES6_EC2IRA21_KcRA18_SA_Lb0EEEOT_OT0_ = comdat any

$_ZNSt3__14pairIKNS_12basic_stringIcNS_11char_traitsIcEENS_9allocatorIcEEEES6_EC2IRA32_KcRA29_SA_Lb0EEEOT_OT0_ = comdat any

$_ZNSt3__14pairIKNS_12basic_stringIcNS_11char_traitsIcEENS_9allocatorIcEEEES6_EC2IRA24_KcRA26_SA_Lb0EEEOT_OT0_ = comdat any

$_ZNSt3__14pairIKNS_12basic_stringIcNS_11char_traitsIcEENS_9allocatorIcEEEES6_EC2IRA23_KcRA26_SA_Lb0EEEOT_OT0_ = comdat any

$_ZNSt3__14pairIKNS_12basic_stringIcNS_11char_traitsIcEENS_9allocatorIcEEEES6_EC2IRA29_KcRA26_SA_Lb0EEEOT_OT0_ = comdat any

$_ZNSt3__14pairIKNS_12basic_stringIcNS_11char_traitsIcEENS_9allocatorIcEEEES6_EC2IRA23_KcRA19_SA_Lb0EEEOT_OT0_ = comdat any

$_ZNSt3__14pairIKNS_12basic_stringIcNS_11char_traitsIcEENS_9allocatorIcEEEES6_EC2IRA32_KcSC_Lb0EEEOT_OT0_ = comdat any

$_ZNSt3__14pairIKNS_12basic_stringIcNS_11char_traitsIcEENS_9allocatorIcEEEES6_EC2IRA30_KcRA19_SA_Lb0EEEOT_OT0_ = comdat any

$_ZNSt3__14pairIKNS_12basic_stringIcNS_11char_traitsIcEENS_9allocatorIcEEEES6_EC2IRA21_KcRA26_SA_Lb0EEEOT_OT0_ = comdat any

$_ZNSt3__14pairIKNS_12basic_stringIcNS_11char_traitsIcEENS_9allocatorIcEEEES6_EC2IRA25_KcRA24_SA_Lb0EEEOT_OT0_ = comdat any

$_ZNSt3__14pairIKNS_12basic_stringIcNS_11char_traitsIcEENS_9allocatorIcEEEES6_EC2IRA35_KcRA32_SA_Lb0EEEOT_OT0_ = comdat any

$_ZNSt3__14pairIKNS_12basic_stringIcNS_11char_traitsIcEENS_9allocatorIcEEEES6_EC2IRA26_KcRA23_SA_Lb0EEEOT_OT0_ = comdat any

$_ZNSt3__14pairIKNS_12basic_stringIcNS_11char_traitsIcEENS_9allocatorIcEEEES6_EC2IRA38_KcRA23_SA_Lb0EEEOT_OT0_ = comdat any

$_ZNSt3__14pairIKNS_12basic_stringIcNS_11char_traitsIcEENS_9allocatorIcEEEES6_EC2IRA20_KcRA24_SA_Lb0EEEOT_OT0_ = comdat any

$_ZNSt3__14pairIKNS_12basic_stringIcNS_11char_traitsIcEENS_9allocatorIcEEEES6_EC2IRA22_KcSC_Lb0EEEOT_OT0_ = comdat any

$_ZNSt3__14pairIKNS_12basic_stringIcNS_11char_traitsIcEENS_9allocatorIcEEEES6_EC2IRA21_KcRA36_SA_Lb0EEEOT_OT0_ = comdat any

$_ZNSt3__14pairIKNS_12basic_stringIcNS_11char_traitsIcEENS_9allocatorIcEEEES6_EC2IRA28_KcRA26_SA_Lb0EEEOT_OT0_ = comdat any

$_ZNSt3__14pairIKNS_12basic_stringIcNS_11char_traitsIcEENS_9allocatorIcEEEES6_EC2IRA20_KcRA30_SA_Lb0EEEOT_OT0_ = comdat any

$_ZNSt3__14pairIKNS_12basic_stringIcNS_11char_traitsIcEENS_9allocatorIcEEEES6_EC2IRA27_KcRA31_SA_Lb0EEEOT_OT0_ = comdat any

$_ZNSt3__14pairIKNS_12basic_stringIcNS_11char_traitsIcEENS_9allocatorIcEEEES6_EC2IRA26_KcRA30_SA_Lb0EEEOT_OT0_ = comdat any

$_ZNSt3__14pairIKNS_12basic_stringIcNS_11char_traitsIcEENS_9allocatorIcEEEES6_EC2IRA28_KcRA30_SA_Lb0EEEOT_OT0_ = comdat any

$_ZNSt3__14pairIKNS_12basic_stringIcNS_11char_traitsIcEENS_9allocatorIcEEEES6_EC2IRA18_KcRA24_SA_Lb0EEEOT_OT0_ = comdat any

$_ZNSt3__14pairIKNS_12basic_stringIcNS_11char_traitsIcEENS_9allocatorIcEEEES6_EC2IRA27_KcRA24_SA_Lb0EEEOT_OT0_ = comdat any

$_ZNSt3__14pairIKNS_12basic_stringIcNS_11char_traitsIcEENS_9allocatorIcEEEES6_EC2IRA34_KcSC_Lb0EEEOT_OT0_ = comdat any

$_ZNSt3__14pairIKNS_12basic_stringIcNS_11char_traitsIcEENS_9allocatorIcEEEES6_EC2IRA31_KcRA29_SA_Lb0EEEOT_OT0_ = comdat any

$_ZNSt3__14pairIKNS_12basic_stringIcNS_11char_traitsIcEENS_9allocatorIcEEEES6_EC2IRA21_KcRA30_SA_Lb0EEEOT_OT0_ = comdat any

$_ZNSt3__14pairIKNS_12basic_stringIcNS_11char_traitsIcEENS_9allocatorIcEEEES6_EC2IRA19_KcRA31_SA_Lb0EEEOT_OT0_ = comdat any

$_ZNSt3__14pairIKNS_12basic_stringIcNS_11char_traitsIcEENS_9allocatorIcEEEES6_EC2IRA30_KcRA31_SA_Lb0EEEOT_OT0_ = comdat any

$_ZNSt3__14pairIKNS_12basic_stringIcNS_11char_traitsIcEENS_9allocatorIcEEEES6_EC2IRA31_KcRA27_SA_Lb0EEEOT_OT0_ = comdat any

$_ZNSt3__14pairIKNS_12basic_stringIcNS_11char_traitsIcEENS_9allocatorIcEEEES6_EC2IRA37_KcRA27_SA_Lb0EEEOT_OT0_ = comdat any

$_ZNSt3__14pairIKNS_12basic_stringIcNS_11char_traitsIcEENS_9allocatorIcEEEES6_EC2IRA34_KcRA31_SA_Lb0EEEOT_OT0_ = comdat any

$_ZNSt3__14pairIKNS_12basic_stringIcNS_11char_traitsIcEENS_9allocatorIcEEEES6_EC2IRA29_KcRA30_SA_Lb0EEEOT_OT0_ = comdat any

$_ZNSt3__14pairIKNS_12basic_stringIcNS_11char_traitsIcEENS_9allocatorIcEEEES6_EC2IRA35_KcRA31_SA_Lb0EEEOT_OT0_ = comdat any

$_ZNSt3__14pairIKNS_12basic_stringIcNS_11char_traitsIcEENS_9allocatorIcEEEES6_EC2IRA39_KcRA28_SA_Lb0EEEOT_OT0_ = comdat any

$_ZNSt3__14pairIKNS_12basic_stringIcNS_11char_traitsIcEENS_9allocatorIcEEEES6_EC2IRA23_KcRA34_SA_Lb0EEEOT_OT0_ = comdat any

$_ZNSt3__14pairIKNS_12basic_stringIcNS_11char_traitsIcEENS_9allocatorIcEEEES6_EC2IRA37_KcRA25_SA_Lb0EEEOT_OT0_ = comdat any

$_ZNSt3__14pairIKNS_12basic_stringIcNS_11char_traitsIcEENS_9allocatorIcEEEES6_EC2IRA27_KcSC_Lb0EEEOT_OT0_ = comdat any

$_ZNSt3__14pairIKNS_12basic_stringIcNS_11char_traitsIcEENS_9allocatorIcEEEES6_EC2IRA26_KcRA28_SA_Lb0EEEOT_OT0_ = comdat any

$_ZNSt3__14pairIKNS_12basic_stringIcNS_11char_traitsIcEENS_9allocatorIcEEEES6_EC2IRA18_KcRA28_SA_Lb0EEEOT_OT0_ = comdat any

$_ZNSt3__14pairIKNS_12basic_stringIcNS_11char_traitsIcEENS_9allocatorIcEEEES6_EC2IRA17_KcRA18_SA_Lb0EEEOT_OT0_ = comdat any

$_ZNSt3__14pairIKNS_12basic_stringIcNS_11char_traitsIcEENS_9allocatorIcEEEES6_EC2IRA46_KcRA30_SA_Lb0EEEOT_OT0_ = comdat any

$_ZNSt3__14pairIKNS_12basic_stringIcNS_11char_traitsIcEENS_9allocatorIcEEEES6_EC2IRA45_KcRA18_SA_Lb0EEEOT_OT0_ = comdat any

$_ZNSt3__14pairIKNS_12basic_stringIcNS_11char_traitsIcEENS_9allocatorIcEEEES6_EC2IRA26_KcRA21_SA_Lb0EEEOT_OT0_ = comdat any

$_ZNSt3__14pairIKNS_12basic_stringIcNS_11char_traitsIcEENS_9allocatorIcEEEES6_EC2IRA24_KcSC_Lb0EEEOT_OT0_ = comdat any

$_ZNSt3__14pairIKNS_12basic_stringIcNS_11char_traitsIcEENS_9allocatorIcEEEES6_EC2IRA20_KcRA18_SA_Lb0EEEOT_OT0_ = comdat any

$_ZNSt3__14pairIKNS_12basic_stringIcNS_11char_traitsIcEENS_9allocatorIcEEEES6_EC2IRA31_KcRA30_SA_Lb0EEEOT_OT0_ = comdat any

$_ZNSt3__14pairIKNS_12basic_stringIcNS_11char_traitsIcEENS_9allocatorIcEEEES6_EC2IRA39_KcRA30_SA_Lb0EEEOT_OT0_ = comdat any

$_ZNSt3__14pairIKNS_12basic_stringIcNS_11char_traitsIcEENS_9allocatorIcEEEES6_EC2IRA32_KcRA18_SA_Lb0EEEOT_OT0_ = comdat any

$_ZNSt3__14pairIKNS_12basic_stringIcNS_11char_traitsIcEENS_9allocatorIcEEEES6_EC2IRA22_KcRA21_SA_Lb0EEEOT_OT0_ = comdat any

$_ZNSt3__14pairIKNS_12basic_stringIcNS_11char_traitsIcEENS_9allocatorIcEEEES6_EC2IRA20_KcRA21_SA_Lb0EEEOT_OT0_ = comdat any

$_ZNSt3__14pairIKNS_12basic_stringIcNS_11char_traitsIcEENS_9allocatorIcEEEES6_EC2IRA29_KcRA32_SA_Lb0EEEOT_OT0_ = comdat any

$_ZNSt3__14pairIKNS_12basic_stringIcNS_11char_traitsIcEENS_9allocatorIcEEEES6_EC2IRA33_KcRA15_SA_Lb0EEEOT_OT0_ = comdat any

$_ZNSt3__14pairIKNS_12basic_stringIcNS_11char_traitsIcEENS_9allocatorIcEEEES6_EC2IRA36_KcRA34_SA_Lb0EEEOT_OT0_ = comdat any

$_ZNSt3__14pairIKNS_12basic_stringIcNS_11char_traitsIcEENS_9allocatorIcEEEES6_EC2IRA33_KcRA32_SA_Lb0EEEOT_OT0_ = comdat any

$_ZNSt3__14pairIKNS_12basic_stringIcNS_11char_traitsIcEENS_9allocatorIcEEEES6_EC2IRA27_KcRA20_SA_Lb0EEEOT_OT0_ = comdat any

$_ZNSt3__14pairIKNS_12basic_stringIcNS_11char_traitsIcEENS_9allocatorIcEEEES6_EC2IRA31_KcRA28_SA_Lb0EEEOT_OT0_ = comdat any

$_ZNSt3__14pairIKNS_12basic_stringIcNS_11char_traitsIcEENS_9allocatorIcEEEES6_EC2IRA30_KcRA18_SA_Lb0EEEOT_OT0_ = comdat any

$_ZNSt3__14pairIKNS_12basic_stringIcNS_11char_traitsIcEENS_9allocatorIcEEEES6_EC2IRA31_KcRA15_SA_Lb0EEEOT_OT0_ = comdat any

$_ZNSt3__14pairIKNS_12basic_stringIcNS_11char_traitsIcEENS_9allocatorIcEEEES6_EC2IRA34_KcRA32_SA_Lb0EEEOT_OT0_ = comdat any

$_ZNSt3__14pairIKNS_12basic_stringIcNS_11char_traitsIcEENS_9allocatorIcEEEES6_EC2IRA21_KcRA17_SA_Lb0EEEOT_OT0_ = comdat any

$_ZNSt3__14pairIKNS_12basic_stringIcNS_11char_traitsIcEENS_9allocatorIcEEEES6_EC2IRA24_KcRA19_SA_Lb0EEEOT_OT0_ = comdat any

$_ZNSt3__14pairIKNS_12basic_stringIcNS_11char_traitsIcEENS_9allocatorIcEEEES6_EC2IRA34_KcRA19_SA_Lb0EEEOT_OT0_ = comdat any

$_ZNSt3__14pairIKNS_12basic_stringIcNS_11char_traitsIcEENS_9allocatorIcEEEES6_EC2IRA30_KcRA20_SA_Lb0EEEOT_OT0_ = comdat any

$_ZNSt3__14pairIKNS_12basic_stringIcNS_11char_traitsIcEENS_9allocatorIcEEEES6_EC2IRA29_KcRA20_SA_Lb0EEEOT_OT0_ = comdat any

$_ZNSt3__14pairIKNS_12basic_stringIcNS_11char_traitsIcEENS_9allocatorIcEEEES6_EC2IRA27_KcRA32_SA_Lb0EEEOT_OT0_ = comdat any

$_ZNSt3__14pairIKNS_12basic_stringIcNS_11char_traitsIcEENS_9allocatorIcEEEES6_EC2IRA21_KcSC_Lb0EEEOT_OT0_ = comdat any

$_ZNSt3__14pairIKNS_12basic_stringIcNS_11char_traitsIcEENS_9allocatorIcEEEES6_EC2IRA30_KcRA32_SA_Lb0EEEOT_OT0_ = comdat any

$_ZNSt3__14pairIKNS_12basic_stringIcNS_11char_traitsIcEENS_9allocatorIcEEEES6_EC2IRA34_KcRA15_SA_Lb0EEEOT_OT0_ = comdat any

$_ZNSt3__14pairIKNS_12basic_stringIcNS_11char_traitsIcEENS_9allocatorIcEEEES6_EC2IRA37_KcRA34_SA_Lb0EEEOT_OT0_ = comdat any

$_ZNSt3__14pairIKNS_12basic_stringIcNS_11char_traitsIcEENS_9allocatorIcEEEES6_EC2IRA28_KcRA20_SA_Lb0EEEOT_OT0_ = comdat any

$_ZNSt3__14pairIKNS_12basic_stringIcNS_11char_traitsIcEENS_9allocatorIcEEEES6_EC2IRA32_KcRA15_SA_Lb0EEEOT_OT0_ = comdat any

$_ZNSt3__14pairIKNS_12basic_stringIcNS_11char_traitsIcEENS_9allocatorIcEEEES6_EC2IRA28_KcRA24_SA_Lb0EEEOT_OT0_ = comdat any

$_ZNSt3__14pairIKNS_12basic_stringIcNS_11char_traitsIcEENS_9allocatorIcEEEES6_EC2IRA35_KcRA19_SA_Lb0EEEOT_OT0_ = comdat any

$_ZNSt3__14pairIKNS_12basic_stringIcNS_11char_traitsIcEENS_9allocatorIcEEEES6_EC2IRA25_KcRA23_SA_Lb0EEEOT_OT0_ = comdat any

$_ZNSt3__14pairIKNS_12basic_stringIcNS_11char_traitsIcEENS_9allocatorIcEEEES6_EC2IRA40_KcRA30_SA_Lb0EEEOT_OT0_ = comdat any

$_ZNSt3__14pairIKNS_12basic_stringIcNS_11char_traitsIcEENS_9allocatorIcEEEES6_EC2IRA43_KcRA30_SA_Lb0EEEOT_OT0_ = comdat any

$_ZNSt3__14pairIKNS_12basic_stringIcNS_11char_traitsIcEENS_9allocatorIcEEEES6_EC2IRA35_KcRA18_SA_Lb0EEEOT_OT0_ = comdat any

$_ZNSt3__14pairIKNS_12basic_stringIcNS_11char_traitsIcEENS_9allocatorIcEEEES6_EC2IRA47_KcRA18_SA_Lb0EEEOT_OT0_ = comdat any

$_ZNSt3__14pairIKNS_12basic_stringIcNS_11char_traitsIcEENS_9allocatorIcEEEES6_EC2IRA44_KcRA51_SA_Lb0EEEOT_OT0_ = comdat any

$_ZNSt3__14pairIKNS_12basic_stringIcNS_11char_traitsIcEENS_9allocatorIcEEEES6_EC2IRA25_KcRA15_SA_Lb0EEEOT_OT0_ = comdat any

$_ZNSt3__14pairIKNS_12basic_stringIcNS_11char_traitsIcEENS_9allocatorIcEEEES6_EC2IRA28_KcRA29_SA_Lb0EEEOT_OT0_ = comdat any

$_ZNSt3__14pairIKNS_12basic_stringIcNS_11char_traitsIcEENS_9allocatorIcEEEES6_EC2IRA35_KcRA29_SA_Lb0EEEOT_OT0_ = comdat any

$_ZNSt3__14pairIKNS_12basic_stringIcNS_11char_traitsIcEENS_9allocatorIcEEEES6_EC2IRA29_KcSC_Lb0EEEOT_OT0_ = comdat any

$_ZNSt3__14pairIKNS_12basic_stringIcNS_11char_traitsIcEENS_9allocatorIcEEEES6_EC2IRA40_KcRA32_SA_Lb0EEEOT_OT0_ = comdat any

$_ZNSt3__14pairIKNS_12basic_stringIcNS_11char_traitsIcEENS_9allocatorIcEEEES6_EC2IRA35_KcRA20_SA_Lb0EEEOT_OT0_ = comdat any

$_ZNSt3__14pairIKNS_12basic_stringIcNS_11char_traitsIcEENS_9allocatorIcEEEES6_EC2IRA49_KcRA30_SA_Lb0EEEOT_OT0_ = comdat any

$_ZNSt3__14pairIKNS_12basic_stringIcNS_11char_traitsIcEENS_9allocatorIcEEEES6_EC2IRA35_KcRA15_SA_Lb0EEEOT_OT0_ = comdat any

$_ZNSt3__14pairIKNS_12basic_stringIcNS_11char_traitsIcEENS_9allocatorIcEEEES6_EC2IRA38_KcRA20_SA_Lb0EEEOT_OT0_ = comdat any

$_ZNSt3__14pairIKNS_12basic_stringIcNS_11char_traitsIcEENS_9allocatorIcEEEES6_EC2IRA39_KcRA17_SA_Lb0EEEOT_OT0_ = comdat any

$_ZNSt3__14pairIKNS_12basic_stringIcNS_11char_traitsIcEENS_9allocatorIcEEEES6_EC2IRA40_KcRA29_SA_Lb0EEEOT_OT0_ = comdat any

$_ZNSt3__14pairIKNS_12basic_stringIcNS_11char_traitsIcEENS_9allocatorIcEEEES6_EC2IRA38_KcRA15_SA_Lb0EEEOT_OT0_ = comdat any

$_ZNSt3__14pairIKNS_12basic_stringIcNS_11char_traitsIcEENS_9allocatorIcEEEES6_EC2IRA41_KcRA29_SA_Lb0EEEOT_OT0_ = comdat any

$_ZNSt3__14pairIKNS_12basic_stringIcNS_11char_traitsIcEENS_9allocatorIcEEEES6_EC2IRA16_KcRA25_SA_Lb0EEEOT_OT0_ = comdat any

$_ZNSt3__14pairIKNS_12basic_stringIcNS_11char_traitsIcEENS_9allocatorIcEEEES6_EC2IRA25_KcRA28_SA_Lb0EEEOT_OT0_ = comdat any

$_ZNSt3__14pairIKNS_12basic_stringIcNS_11char_traitsIcEENS_9allocatorIcEEEES6_EC2IRA43_KcRA32_SA_Lb0EEEOT_OT0_ = comdat any

$_ZNSt3__14pairIKNS_12basic_stringIcNS_11char_traitsIcEENS_9allocatorIcEEEES6_EC2IRA41_KcRA33_SA_Lb0EEEOT_OT0_ = comdat any

$_ZNSt3__14pairIKNS_12basic_stringIcNS_11char_traitsIcEENS_9allocatorIcEEEES6_EC2IRA36_KcRA15_SA_Lb0EEEOT_OT0_ = comdat any

$_ZNSt3__14pairIKNS_12basic_stringIcNS_11char_traitsIcEENS_9allocatorIcEEEES6_EC2IRA39_KcRA32_SA_Lb0EEEOT_OT0_ = comdat any

$_ZNSt3__14pairIKNS_12basic_stringIcNS_11char_traitsIcEENS_9allocatorIcEEEES6_EC2IRA25_KcSC_Lb0EEEOT_OT0_ = comdat any

$_ZNSt3__14pairIKNS_12basic_stringIcNS_11char_traitsIcEENS_9allocatorIcEEEES6_EC2IRA24_KcRA25_SA_Lb0EEEOT_OT0_ = comdat any

$_ZNSt3__14pairIKNS_12basic_stringIcNS_11char_traitsIcEENS_9allocatorIcEEEES6_EC2IRA40_KcRA51_SA_Lb0EEEOT_OT0_ = comdat any

$_ZNSt3__14pairIKNS_12basic_stringIcNS_11char_traitsIcEENS_9allocatorIcEEEES6_EC2IRA17_KcRA26_SA_Lb0EEEOT_OT0_ = comdat any

$_ZNSt3__14pairIKNS_12basic_stringIcNS_11char_traitsIcEENS_9allocatorIcEEEES6_EC2IRA27_KcRA26_SA_Lb0EEEOT_OT0_ = comdat any

$_ZNSt3__14pairIKNS_12basic_stringIcNS_11char_traitsIcEENS_9allocatorIcEEEES6_EC2IRA36_KcRA28_SA_Lb0EEEOT_OT0_ = comdat any

$_ZNSt3__14pairIKNS_12basic_stringIcNS_11char_traitsIcEENS_9allocatorIcEEEES6_EC2IRA26_KcRA29_SA_Lb0EEEOT_OT0_ = comdat any

$_ZNSt3__14pairIKNS_12basic_stringIcNS_11char_traitsIcEENS_9allocatorIcEEEES6_EC2IRA41_KcRA27_SA_Lb0EEEOT_OT0_ = comdat any

$_ZNSt3__14pairIKNS_12basic_stringIcNS_11char_traitsIcEENS_9allocatorIcEEEES6_EC2IRA34_KcRA25_SA_Lb0EEEOT_OT0_ = comdat any

$_ZNSt3__14pairIKNS_12basic_stringIcNS_11char_traitsIcEENS_9allocatorIcEEEES6_EC2IRA50_KcRA38_SA_Lb0EEEOT_OT0_ = comdat any

$_ZNSt3__14pairIKNS_12basic_stringIcNS_11char_traitsIcEENS_9allocatorIcEEEES6_EC2IRA37_KcRA38_SA_Lb0EEEOT_OT0_ = comdat any

$_ZNSt3__14pairIKNS_12basic_stringIcNS_11char_traitsIcEENS_9allocatorIcEEEES6_EC2IRA20_KcSC_Lb0EEEOT_OT0_ = comdat any

$_ZNSt3__14pairIKNS_12basic_stringIcNS_11char_traitsIcEENS_9allocatorIcEEEES6_EC2IRA27_KcRA36_SA_Lb0EEEOT_OT0_ = comdat any

$_ZNSt3__14pairIKNS_12basic_stringIcNS_11char_traitsIcEENS_9allocatorIcEEEES6_EC2IRA50_KcRA28_SA_Lb0EEEOT_OT0_ = comdat any

$_ZNSt3__14pairIKNS_12basic_stringIcNS_11char_traitsIcEENS_9allocatorIcEEEES6_EC2IRA37_KcRA28_SA_Lb0EEEOT_OT0_ = comdat any

$_ZNSt3__14pairIKNS_12basic_stringIcNS_11char_traitsIcEENS_9allocatorIcEEEES6_EC2IRA32_KcRA25_SA_Lb0EEEOT_OT0_ = comdat any

$_ZNSt3__14pairIKNS_12basic_stringIcNS_11char_traitsIcEENS_9allocatorIcEEEES6_EC2IRA27_KcRA15_SA_Lb0EEEOT_OT0_ = comdat any

$_ZNSt3__14pairIKNS_12basic_stringIcNS_11char_traitsIcEENS_9allocatorIcEEEES6_EC2IRA20_KcRA29_SA_Lb0EEEOT_OT0_ = comdat any

$_ZNSt3__14pairIKNS_12basic_stringIcNS_11char_traitsIcEENS_9allocatorIcEEEES6_EC2IRA19_KcSC_Lb0EEEOT_OT0_ = comdat any

$_ZNSt3__14pairIKNS_12basic_stringIcNS_11char_traitsIcEENS_9allocatorIcEEEES6_EC2IRA24_KcRA17_SA_Lb0EEEOT_OT0_ = comdat any

$_ZNSt3__14pairIKNS_12basic_stringIcNS_11char_traitsIcEENS_9allocatorIcEEEES6_EC2IRA24_KcRA32_SA_Lb0EEEOT_OT0_ = comdat any

$_ZNSt3__14pairIKNS_12basic_stringIcNS_11char_traitsIcEENS_9allocatorIcEEEES6_EC2IRA39_KcRA19_SA_Lb0EEEOT_OT0_ = comdat any

$_ZNSt3__14pairIKNS_12basic_stringIcNS_11char_traitsIcEENS_9allocatorIcEEEES6_EC2IRA19_KcRA25_SA_Lb0EEEOT_OT0_ = comdat any

$_ZNSt3__14pairIKNS_12basic_stringIcNS_11char_traitsIcEENS_9allocatorIcEEEES6_EC2IRA28_KcSC_Lb0EEEOT_OT0_ = comdat any

$_ZNSt3__14pairIKNS_12basic_stringIcNS_11char_traitsIcEENS_9allocatorIcEEEES6_EC2IRA23_KcRA29_SA_Lb0EEEOT_OT0_ = comdat any

$_ZNSt3__14pairIKNS_12basic_stringIcNS_11char_traitsIcEENS_9allocatorIcEEEES6_EC2IRA37_KcRA30_SA_Lb0EEEOT_OT0_ = comdat any

$_ZNSt3__14pairIKNS_12basic_stringIcNS_11char_traitsIcEENS_9allocatorIcEEEES6_EC2IRA32_KcRA27_SA_Lb0EEEOT_OT0_ = comdat any

$_ZNSt3__14pairIKNS_12basic_stringIcNS_11char_traitsIcEENS_9allocatorIcEEEES6_EC2IRA31_KcRA19_SA_Lb0EEEOT_OT0_ = comdat any

$_ZNSt3__14pairIKNS_12basic_stringIcNS_11char_traitsIcEENS_9allocatorIcEEEES6_EC2IRA32_KcRA19_SA_Lb0EEEOT_OT0_ = comdat any

$_ZNSt3__14pairIKNS_12basic_stringIcNS_11char_traitsIcEENS_9allocatorIcEEEES6_EC2IRA18_KcRA17_SA_Lb0EEEOT_OT0_ = comdat any

$_ZNSt3__14pairIKNS_12basic_stringIcNS_11char_traitsIcEENS_9allocatorIcEEEES6_EC2IRA40_KcRA27_SA_Lb0EEEOT_OT0_ = comdat any

$_ZNSt3__14pairIKNS_12basic_stringIcNS_11char_traitsIcEENS_9allocatorIcEEEES6_EC2IRA17_KcRA15_SA_Lb0EEEOT_OT0_ = comdat any

$_ZNSt3__14pairIKNS_12basic_stringIcNS_11char_traitsIcEENS_9allocatorIcEEEES6_EC2IRA34_KcRA27_SA_Lb0EEEOT_OT0_ = comdat any

$_ZNSt3__113unordered_mapINS_12basic_stringIcNS_11char_traitsIcEENS_9allocatorIcEEEES6_NS_4hashIS6_EENS_8equal_toIS6_EENS4_INS_4pairIKS6_S6_EEEEED2Ev = comdat any

$_ZNSt3__13mapImNS_12basic_stringIcNS_11char_traitsIcEENS_9allocatorIcEEEENS_4lessImEENS4_INS_4pairIKmS6_EEEEED2Ev = comdat any

$_ZNSt3__16vectorIN10core_error5EntryENS_9allocatorIS2_EEED2Ev = comdat any

$_ZNSt3__13mapImNS_6vectorIN10core_error5EntryENS_9allocatorIS3_EEEENS_4lessImEENS4_INS_4pairIKmS6_EEEEED2Ev = comdat any

$_ZNSt3__13mapImNS_5arrayIN10core_error5EntryELm6EEENS_4lessImEENS_9allocatorINS_4pairIKmS4_EEEEED2Ev = comdat any

$_ZNSt3__13mapIN14sync_vuid_maps10QueueErrorENS_6vectorIN10core_error5EntryENS_9allocatorIS5_EEEENS_4lessIS2_EENS6_INS_4pairIKS2_S8_EEEEED2Ev = comdat any

$_ZNSt3__13mapIN14sync_vuid_maps10QueueErrorENS_12basic_stringIcNS_11char_traitsIcEENS_9allocatorIcEEEENS_4lessIS2_EENS6_INS_4pairIKS2_S8_EEEEED2Ev = comdat any

$_ZNSt3__13mapI13VkImageLayoutNS_5arrayIN10core_error5EntryELm2EEENS_4lessIS1_EENS_9allocatorINS_4pairIKS1_S5_EEEEED2Ev = comdat any

$_ZNSt3__13mapIN14sync_vuid_maps11BufferErrorENS_5arrayIN10core_error5EntryELm2EEENS_4lessIS2_EENS_9allocatorINS_4pairIKS2_S6_EEEEED2Ev = comdat any

$_ZNSt3__13mapIN14sync_vuid_maps10ImageErrorENS_6vectorIN10core_error5EntryENS_9allocatorIS5_EEEENS_4lessIS2_EENS6_INS_4pairIKS2_S8_EEEEED2Ev = comdat any

$_ZNSt3__13mapIN14sync_vuid_maps11SubmitErrorENS_6vectorIN10core_error5EntryENS_9allocatorIS5_EEEENS_4lessIS2_EENS6_INS_4pairIKS2_S8_EEEEED2Ev = comdat any

$_ZNSt3__112__hash_tableINS_17__hash_value_typeINS_12basic_stringIcNS_11char_traitsIcEENS_9allocatorIcEEEEjEENS_22__unordered_map_hasherIS7_S8_NS_4hashIS7_EENS_8equal_toIS7_EELb1EEENS_21__unordered_map_equalIS7_S8_SD_SB_Lb1EEENS5_IS8_EEE25__emplace_unique_key_argsIS7_JRKNS_4pairIKS7_jEEEEENSK_INS_15__hash_iteratorIPNS_11__hash_nodeIS8_PvEEEEbEERKT_DpOT0_ = comdat any

$_ZNSt3__112__hash_tableINS_17__hash_value_typeINS_12basic_stringIcNS_11char_traitsIcEENS_9allocatorIcEEEEjEENS_22__unordered_map_hasherIS7_S8_NS_4hashIS7_EENS_8equal_toIS7_EELb1EEENS_21__unordered_map_equalIS7_S8_SD_SB_Lb1EEENS5_IS8_EEE6rehashEm = comdat any

$_ZNSt3__121__murmur2_or_cityhashImLm64EEclEPKvm = comdat any

$_ZNSt3__121__murmur2_or_cityhashImLm64EE18__hash_len_0_to_16EPKcm = comdat any

$_ZNSt3__112__hash_tableINS_17__hash_value_typeINS_12basic_stringIcNS_11char_traitsIcEENS_9allocatorIcEEEEjEENS_22__unordered_map_hasherIS7_S8_NS_4hashIS7_EENS_8equal_toIS7_EELb1EEENS_21__unordered_map_equalIS7_S8_SD_SB_Lb1EEENS5_IS8_EEE8__rehashEm = comdat any

$_ZNSt3__112__hash_tableINS_17__hash_value_typeIPvP18_debug_report_dataEENS_22__unordered_map_hasherIS2_S5_NS_4hashIS2_EENS_8equal_toIS2_EELb1EEENS_21__unordered_map_equalIS2_S5_SA_S8_Lb1EEENS_9allocatorIS5_EEE25__emplace_unique_key_argsIS2_JRKNS_21piecewise_construct_tENS_5tupleIJOS2_EEENSL_IJEEEEEENS_4pairINS_15__hash_iteratorIPNS_11__hash_nodeIS5_S2_EEEEbEERKT_DpOT0_ = comdat any

$_ZNSt3__112__hash_tableINS_17__hash_value_typeIPvP18_debug_report_dataEENS_22__unordered_map_hasherIS2_S5_NS_4hashIS2_EENS_8equal_toIS2_EELb1EEENS_21__unordered_map_equalIS2_S5_SA_S8_Lb1EEENS_9allocatorIS5_EEE6rehashEm = comdat any

$_ZNSt3__112__hash_tableINS_17__hash_value_typeIPvP18_debug_report_dataEENS_22__unordered_map_hasherIS2_S5_NS_4hashIS2_EENS_8equal_toIS2_EELb1EEENS_21__unordered_map_equalIS2_S5_SA_S8_Lb1EEENS_9allocatorIS5_EEE8__rehashEm = comdat any

$_ZNSt3__16__treeINS_12basic_stringIcNS_11char_traitsIcEENS_9allocatorIcEEEENS_4lessIS6_EENS4_IS6_EEE30__emplace_hint_unique_key_argsIS6_JRKS6_EEENS_4pairINS_15__tree_iteratorIS6_PNS_11__tree_nodeIS6_PvEElEEbEENS_21__tree_const_iteratorIS6_SJ_lEERKT_DpOT0_ = comdat any

$_ZNSt3__16__treeINS_12basic_stringIcNS_11char_traitsIcEENS_9allocatorIcEEEENS_4lessIS6_EENS4_IS6_EEE12__find_equalIS6_EERPNS_16__tree_node_baseIPvEENS_21__tree_const_iteratorIS6_PNS_11__tree_nodeIS6_SD_EElEERPNS_15__tree_end_nodeISF_EESG_RKT_ = comdat any

$_ZNSt3__16__treeINS_12basic_stringIcNS_11char_traitsIcEENS_9allocatorIcEEEENS_4lessIS6_EENS4_IS6_EEE12__find_equalIS6_EERPNS_16__tree_node_baseIPvEERPNS_15__tree_end_nodeISF_EERKT_ = comdat any

$_ZNSt3__127__tree_balance_after_insertIPNS_16__tree_node_baseIPvEEEEvT_S5_ = comdat any

$_ZNSt3__16__treeINS_12basic_stringIcNS_11char_traitsIcEENS_9allocatorIcEEEENS_4lessIS6_EENS4_IS6_EEE7destroyEPNS_11__tree_nodeIS6_PvEE = comdat any

$_ZNSt3__112__hash_tableINS_17__hash_value_typeINS_12basic_stringIcNS_11char_traitsIcEENS_9allocatorIcEEEES7_EENS_22__unordered_map_hasherIS7_S8_NS_4hashIS7_EENS_8equal_toIS7_EELb1EEENS_21__unordered_map_equalIS7_S8_SD_SB_Lb1EEENS5_IS8_EEE25__emplace_unique_key_argsIS7_JRKNS_4pairIKS7_S7_EEEEENSK_INS_15__hash_iteratorIPNS_11__hash_nodeIS8_PvEEEEbEERKT_DpOT0_ = comdat any

$_ZNSt3__112__hash_tableINS_17__hash_value_typeINS_12basic_stringIcNS_11char_traitsIcEENS_9allocatorIcEEEES7_EENS_22__unordered_map_hasherIS7_S8_NS_4hashIS7_EENS_8equal_toIS7_EELb1EEENS_21__unordered_map_equalIS7_S8_SD_SB_Lb1EEENS5_IS8_EEE6rehashEm = comdat any

$_ZNSt3__112__hash_tableINS_17__hash_value_typeINS_12basic_stringIcNS_11char_traitsIcEENS_9allocatorIcEEEES7_EENS_22__unordered_map_hasherIS7_S8_NS_4hashIS7_EENS_8equal_toIS7_EELb1EEENS_21__unordered_map_equalIS7_S8_SD_SB_Lb1EEENS5_IS8_EEE8__rehashEm = comdat any

$_ZNSt3__16__treeINS_12__value_typeImNS_12basic_stringIcNS_11char_traitsIcEENS_9allocatorIcEEEEEENS_19__map_value_compareImS8_NS_4lessImEELb1EEENS5_IS8_EEE30__emplace_hint_unique_key_argsImJRKNS_4pairIKmS7_EEEEENSG_INS_15__tree_iteratorIS8_PNS_11__tree_nodeIS8_PvEElEEbEENS_21__tree_const_iteratorIS8_SP_lEERKT_DpOT0_ = comdat any

$_ZNSt3__16__treeINS_12__value_typeImNS_12basic_stringIcNS_11char_traitsIcEENS_9allocatorIcEEEEEENS_19__map_value_compareImS8_NS_4lessImEELb1EEENS5_IS8_EEE12__find_equalImEERPNS_16__tree_node_baseIPvEENS_21__tree_const_iteratorIS8_PNS_11__tree_nodeIS8_SH_EElEERPNS_15__tree_end_nodeISJ_EESK_RKT_ = comdat any

$_ZNSt3__16__treeINS_12__value_typeImNS_12basic_stringIcNS_11char_traitsIcEENS_9allocatorIcEEEEEENS_19__map_value_compareImS8_NS_4lessImEELb1EEENS5_IS8_EEE7destroyEPNS_11__tree_nodeIS8_PvEE = comdat any

$_ZNSt3__16__treeINS_12__value_typeImNS_6vectorIN10core_error5EntryENS_9allocatorIS4_EEEEEENS_19__map_value_compareImS8_NS_4lessImEELb1EEENS5_IS8_EEE30__emplace_hint_unique_key_argsImJRKNS_4pairIKmS7_EEEEENSG_INS_15__tree_iteratorIS8_PNS_11__tree_nodeIS8_PvEElEEbEENS_21__tree_const_iteratorIS8_SP_lEERKT_DpOT0_ = comdat any

$_ZNSt3__16__treeINS_12__value_typeImNS_6vectorIN10core_error5EntryENS_9allocatorIS4_EEEEEENS_19__map_value_compareImS8_NS_4lessImEELb1EEENS5_IS8_EEE12__find_equalImEERPNS_16__tree_node_baseIPvEENS_21__tree_const_iteratorIS8_PNS_11__tree_nodeIS8_SH_EElEERPNS_15__tree_end_nodeISJ_EESK_RKT_ = comdat any

$_ZNSt3__16__treeINS_12__value_typeImNS_6vectorIN10core_error5EntryENS_9allocatorIS4_EEEEEENS_19__map_value_compareImS8_NS_4lessImEELb1EEENS5_IS8_EEE16__construct_nodeIJRKNS_4pairIKmS7_EEEEENS_10unique_ptrINS_11__tree_nodeIS8_PvEENS_22__tree_node_destructorINS5_ISO_EEEEEEDpOT_ = comdat any

$_ZNSt3__16__treeINS_12__value_typeImNS_6vectorIN10core_error5EntryENS_9allocatorIS4_EEEEEENS_19__map_value_compareImS8_NS_4lessImEELb1EEENS5_IS8_EEE7destroyEPNS_11__tree_nodeIS8_PvEE = comdat any

$_ZNSt3__16__treeINS_12__value_typeImNS_5arrayIN10core_error5EntryELm6EEEEENS_19__map_value_compareImS6_NS_4lessImEELb1EEENS_9allocatorIS6_EEE30__emplace_hint_unique_key_argsImJRKNS_4pairIKmS5_EEEEENSF_INS_15__tree_iteratorIS6_PNS_11__tree_nodeIS6_PvEElEEbEENS_21__tree_const_iteratorIS6_SO_lEERKT_DpOT0_ = comdat any

$_ZNSt3__16__treeINS_12__value_typeImNS_5arrayIN10core_error5EntryELm6EEEEENS_19__map_value_compareImS6_NS_4lessImEELb1EEENS_9allocatorIS6_EEE12__find_equalImEERPNS_16__tree_node_baseIPvEENS_21__tree_const_iteratorIS6_PNS_11__tree_nodeIS6_SG_EElEERPNS_15__tree_end_nodeISI_EESJ_RKT_ = comdat any

$_ZNSt3__116allocator_traitsINS_9allocatorINS_11__tree_nodeINS_12__value_typeImNS_5arrayIN10core_error5EntryELm6EEEEEPvEEEEE7destroyINS_4pairIKmS7_EEvvEEvRSB_PT_ = comdat any

$_ZNSt3__16__treeINS_12__value_typeImNS_5arrayIN10core_error5EntryELm6EEEEENS_19__map_value_compareImS6_NS_4lessImEELb1EEENS_9allocatorIS6_EEE7destroyEPNS_11__tree_nodeIS6_PvEE = comdat any

$_ZNSt3__16__treeINS_12__value_typeIN14sync_vuid_maps10QueueErrorENS_6vectorIN10core_error5EntryENS_9allocatorIS6_EEEEEENS_19__map_value_compareIS3_SA_NS_4lessIS3_EELb1EEENS7_ISA_EEE30__emplace_hint_unique_key_argsIS3_JRKNS_4pairIKS3_S9_EEEEENSI_INS_15__tree_iteratorISA_PNS_11__tree_nodeISA_PvEElEEbEENS_21__tree_const_iteratorISA_SR_lEERKT_DpOT0_ = comdat any

$_ZNSt3__16__treeINS_12__value_typeIN14sync_vuid_maps10QueueErrorENS_6vectorIN10core_error5EntryENS_9allocatorIS6_EEEEEENS_19__map_value_compareIS3_SA_NS_4lessIS3_EELb1EEENS7_ISA_EEE12__find_equalIS3_EERPNS_16__tree_node_baseIPvEENS_21__tree_const_iteratorISA_PNS_11__tree_nodeISA_SJ_EElEERPNS_15__tree_end_nodeISL_EESM_RKT_ = comdat any

$_ZNSt3__16__treeINS_12__value_typeIN14sync_vuid_maps10QueueErrorENS_6vectorIN10core_error5EntryENS_9allocatorIS6_EEEEEENS_19__map_value_compareIS3_SA_NS_4lessIS3_EELb1EEENS7_ISA_EEE16__construct_nodeIJRKNS_4pairIKS3_S9_EEEEENS_10unique_ptrINS_11__tree_nodeISA_PvEENS_22__tree_node_destructorINS7_ISQ_EEEEEEDpOT_ = comdat any

$_ZNSt3__16__treeINS_12__value_typeIN14sync_vuid_maps10QueueErrorENS_6vectorIN10core_error5EntryENS_9allocatorIS6_EEEEEENS_19__map_value_compareIS3_SA_NS_4lessIS3_EELb1EEENS7_ISA_EEE7destroyEPNS_11__tree_nodeISA_PvEE = comdat any

$_ZNSt3__16__treeINS_12__value_typeIN14sync_vuid_maps10QueueErrorENS_12basic_stringIcNS_11char_traitsIcEENS_9allocatorIcEEEEEENS_19__map_value_compareIS3_SA_NS_4lessIS3_EELb1EEENS7_ISA_EEE30__emplace_hint_unique_key_argsIS3_JRKNS_4pairIKS3_S9_EEEEENSI_INS_15__tree_iteratorISA_PNS_11__tree_nodeISA_PvEElEEbEENS_21__tree_const_iteratorISA_SR_lEERKT_DpOT0_ = comdat any

$_ZNSt3__16__treeINS_12__value_typeIN14sync_vuid_maps10QueueErrorENS_12basic_stringIcNS_11char_traitsIcEENS_9allocatorIcEEEEEENS_19__map_value_compareIS3_SA_NS_4lessIS3_EELb1EEENS7_ISA_EEE12__find_equalIS3_EERPNS_16__tree_node_baseIPvEENS_21__tree_const_iteratorISA_PNS_11__tree_nodeISA_SJ_EElEERPNS_15__tree_end_nodeISL_EESM_RKT_ = comdat any

$_ZNSt3__16__treeINS_12__value_typeIN14sync_vuid_maps10QueueErrorENS_12basic_stringIcNS_11char_traitsIcEENS_9allocatorIcEEEEEENS_19__map_value_compareIS3_SA_NS_4lessIS3_EELb1EEENS7_ISA_EEE7destroyEPNS_11__tree_nodeISA_PvEE = comdat any

$_ZNSt3__16__treeINS_12__value_typeI13VkImageLayoutNS_5arrayIN10core_error5EntryELm2EEEEENS_19__map_value_compareIS2_S7_NS_4lessIS2_EELb1EEENS_9allocatorIS7_EEE30__emplace_hint_unique_key_argsIS2_JRKNS_4pairIKS2_S6_EEEEENSG_INS_15__tree_iteratorIS7_PNS_11__tree_nodeIS7_PvEElEEbEENS_21__tree_const_iteratorIS7_SP_lEERKT_DpOT0_ = comdat any

$_ZNSt3__16__treeINS_12__value_typeI13VkImageLayoutNS_5arrayIN10core_error5EntryELm2EEEEENS_19__map_value_compareIS2_S7_NS_4lessIS2_EELb1EEENS_9allocatorIS7_EEE12__find_equalIS2_EERPNS_16__tree_node_baseIPvEENS_21__tree_const_iteratorIS7_PNS_11__tree_nodeIS7_SH_EElEERPNS_15__tree_end_nodeISJ_EESK_RKT_ = comdat any

$_ZNSt3__16__treeINS_12__value_typeI13VkImageLayoutNS_5arrayIN10core_error5EntryELm2EEEEENS_19__map_value_compareIS2_S7_NS_4lessIS2_EELb1EEENS_9allocatorIS7_EEE7destroyEPNS_11__tree_nodeIS7_PvEE = comdat any

$_ZNSt3__16__treeINS_12__value_typeIN14sync_vuid_maps11BufferErrorENS_5arrayIN10core_error5EntryELm2EEEEENS_19__map_value_compareIS3_S8_NS_4lessIS3_EELb1EEENS_9allocatorIS8_EEE30__emplace_hint_unique_key_argsIS3_JRKNS_4pairIKS3_S7_EEEEENSH_INS_15__tree_iteratorIS8_PNS_11__tree_nodeIS8_PvEElEEbEENS_21__tree_const_iteratorIS8_SQ_lEERKT_DpOT0_ = comdat any

$_ZNSt3__16__treeINS_12__value_typeIN14sync_vuid_maps11BufferErrorENS_5arrayIN10core_error5EntryELm2EEEEENS_19__map_value_compareIS3_S8_NS_4lessIS3_EELb1EEENS_9allocatorIS8_EEE12__find_equalIS3_EERPNS_16__tree_node_baseIPvEENS_21__tree_const_iteratorIS8_PNS_11__tree_nodeIS8_SI_EElEERPNS_15__tree_end_nodeISK_EESL_RKT_ = comdat any

$_ZNSt3__16__treeINS_12__value_typeIN14sync_vuid_maps11BufferErrorENS_5arrayIN10core_error5EntryELm2EEEEENS_19__map_value_compareIS3_S8_NS_4lessIS3_EELb1EEENS_9allocatorIS8_EEE7destroyEPNS_11__tree_nodeIS8_PvEE = comdat any

$_ZNSt3__16__treeINS_12__value_typeIN14sync_vuid_maps10ImageErrorENS_6vectorIN10core_error5EntryENS_9allocatorIS6_EEEEEENS_19__map_value_compareIS3_SA_NS_4lessIS3_EELb1EEENS7_ISA_EEE30__emplace_hint_unique_key_argsIS3_JRKNS_4pairIKS3_S9_EEEEENSI_INS_15__tree_iteratorISA_PNS_11__tree_nodeISA_PvEElEEbEENS_21__tree_const_iteratorISA_SR_lEERKT_DpOT0_ = comdat any

$_ZNSt3__16__treeINS_12__value_typeIN14sync_vuid_maps10ImageErrorENS_6vectorIN10core_error5EntryENS_9allocatorIS6_EEEEEENS_19__map_value_compareIS3_SA_NS_4lessIS3_EELb1EEENS7_ISA_EEE12__find_equalIS3_EERPNS_16__tree_node_baseIPvEENS_21__tree_const_iteratorISA_PNS_11__tree_nodeISA_SJ_EElEERPNS_15__tree_end_nodeISL_EESM_RKT_ = comdat any

$_ZNSt3__16__treeINS_12__value_typeIN14sync_vuid_maps10ImageErrorENS_6vectorIN10core_error5EntryENS_9allocatorIS6_EEEEEENS_19__map_value_compareIS3_SA_NS_4lessIS3_EELb1EEENS7_ISA_EEE16__construct_nodeIJRKNS_4pairIKS3_S9_EEEEENS_10unique_ptrINS_11__tree_nodeISA_PvEENS_22__tree_node_destructorINS7_ISQ_EEEEEEDpOT_ = comdat any

$_ZNSt3__16__treeINS_12__value_typeIN14sync_vuid_maps10ImageErrorENS_6vectorIN10core_error5EntryENS_9allocatorIS6_EEEEEENS_19__map_value_compareIS3_SA_NS_4lessIS3_EELb1EEENS7_ISA_EEE7destroyEPNS_11__tree_nodeISA_PvEE = comdat any

$_ZNSt3__16__treeINS_12__value_typeIN14sync_vuid_maps11SubmitErrorENS_6vectorIN10core_error5EntryENS_9allocatorIS6_EEEEEENS_19__map_value_compareIS3_SA_NS_4lessIS3_EELb1EEENS7_ISA_EEE30__emplace_hint_unique_key_argsIS3_JRKNS_4pairIKS3_S9_EEEEENSI_INS_15__tree_iteratorISA_PNS_11__tree_nodeISA_PvEElEEbEENS_21__tree_const_iteratorISA_SR_lEERKT_DpOT0_ = comdat any

$_ZNSt3__16__treeINS_12__value_typeIN14sync_vuid_maps11SubmitErrorENS_6vectorIN10core_error5EntryENS_9allocatorIS6_EEEEEENS_19__map_value_compareIS3_SA_NS_4lessIS3_EELb1EEENS7_ISA_EEE12__find_equalIS3_EERPNS_16__tree_node_baseIPvEENS_21__tree_const_iteratorISA_PNS_11__tree_nodeISA_SJ_EElEERPNS_15__tree_end_nodeISL_EESM_RKT_ = comdat any

$_ZNSt3__16__treeINS_12__value_typeIN14sync_vuid_maps11SubmitErrorENS_6vectorIN10core_error5EntryENS_9allocatorIS6_EEEEEENS_19__map_value_compareIS3_SA_NS_4lessIS3_EELb1EEENS7_ISA_EEE16__construct_nodeIJRKNS_4pairIKS3_S9_EEEEENS_10unique_ptrINS_11__tree_nodeISA_PvEENS_22__tree_node_destructorINS7_ISQ_EEEEEEDpOT_ = comdat any

$_ZNSt3__16__treeINS_12__value_typeIN14sync_vuid_maps11SubmitErrorENS_6vectorIN10core_error5EntryENS_9allocatorIS6_EEEEEENS_19__map_value_compareIS3_SA_NS_4lessIS3_EELb1EEENS7_ISA_EEE7destroyEPNS_11__tree_nodeISA_PvEE = comdat any

@_ZL32debug_actions_option_definitions = internal global %"class.std::__1::unordered_map" zeroinitializer, align 8
@.str = private unnamed_addr constant [27 x i8] c"VK_DBG_LAYER_ACTION_IGNORE\00", align 1
@.str.1 = private unnamed_addr constant [29 x i8] c"VK_DBG_LAYER_ACTION_CALLBACK\00", align 1
@.str.2 = private unnamed_addr constant [28 x i8] c"VK_DBG_LAYER_ACTION_LOG_MSG\00", align 1
@.str.3 = private unnamed_addr constant [26 x i8] c"VK_DBG_LAYER_ACTION_BREAK\00", align 1
@.str.4 = private unnamed_addr constant [28 x i8] c"VK_DBG_LAYER_ACTION_DEFAULT\00", align 1
@__dso_handle = external hidden global i8
@_ZL31report_flags_option_definitions = internal global %"class.std::__1::unordered_map" zeroinitializer, align 8
@.str.9 = private unnamed_addr constant [6 x i8] c"error\00", align 1
@.str.10 = private unnamed_addr constant [6 x i8] c"debug\00", align 1
@_ZL31log_msg_type_option_definitions = internal global %"class.std::__1::unordered_map" zeroinitializer, align 8
@_ZL23kInstanceExtensionNames = internal global %"class.std::__1::set" zeroinitializer, align 8
@.str.13 = private unnamed_addr constant [20 x i8] c"VK_EXT_debug_report\00", align 1
@.str.14 = private unnamed_addr constant [19 x i8] c"VK_EXT_debug_utils\00", align 1
@.str.15 = private unnamed_addr constant [27 x i8] c"VK_EXT_direct_mode_display\00", align 1
@.str.16 = private unnamed_addr constant [31 x i8] c"VK_EXT_display_surface_counter\00", align 1
@.str.17 = private unnamed_addr constant [24 x i8] c"VK_EXT_headless_surface\00", align 1
@.str.18 = private unnamed_addr constant [28 x i8] c"VK_EXT_swapchain_colorspace\00", align 1
@.str.19 = private unnamed_addr constant [27 x i8] c"VK_EXT_validation_features\00", align 1
@.str.20 = private unnamed_addr constant [24 x i8] c"VK_EXT_validation_flags\00", align 1
@.str.21 = private unnamed_addr constant [29 x i8] c"VK_KHR_device_group_creation\00", align 1
@.str.22 = private unnamed_addr constant [15 x i8] c"VK_KHR_display\00", align 1
@.str.23 = private unnamed_addr constant [35 x i8] c"VK_KHR_external_fence_capabilities\00", align 1
@.str.24 = private unnamed_addr constant [36 x i8] c"VK_KHR_external_memory_capabilities\00", align 1
@.str.25 = private unnamed_addr constant [39 x i8] c"VK_KHR_external_semaphore_capabilities\00", align 1
@.str.26 = private unnamed_addr constant [31 x i8] c"VK_KHR_get_display_properties2\00", align 1
@.str.27 = private unnamed_addr constant [39 x i8] c"VK_KHR_get_physical_device_properties2\00", align 1
@.str.28 = private unnamed_addr constant [33 x i8] c"VK_KHR_get_surface_capabilities2\00", align 1
@.str.29 = private unnamed_addr constant [15 x i8] c"VK_KHR_surface\00", align 1
@.str.30 = private unnamed_addr constant [38 x i8] c"VK_KHR_surface_protected_capabilities\00", align 1
@.str.31 = private unnamed_addr constant [19 x i8] c"VK_KHR_xcb_surface\00", align 1
@.str.32 = private unnamed_addr constant [20 x i8] c"VK_KHR_xlib_surface\00", align 1
@.str.33 = private unnamed_addr constant [35 x i8] c"VK_NV_external_memory_capabilities\00", align 1
@_ZL21kDeviceExtensionNames = internal global %"class.std::__1::set" zeroinitializer, align 8
@.str.35 = private unnamed_addr constant [21 x i8] c"VK_AMD_buffer_marker\00", align 1
@.str.36 = private unnamed_addr constant [30 x i8] c"VK_AMD_device_coherent_memory\00", align 1
@.str.37 = private unnamed_addr constant [26 x i8] c"VK_AMD_display_native_hdr\00", align 1
@.str.38 = private unnamed_addr constant [27 x i8] c"VK_AMD_draw_indirect_count\00", align 1
@.str.39 = private unnamed_addr constant [18 x i8] c"VK_AMD_gcn_shader\00", align 1
@.str.40 = private unnamed_addr constant [29 x i8] c"VK_AMD_gpu_shader_half_float\00", align 1
@.str.41 = private unnamed_addr constant [24 x i8] c"VK_AMD_gpu_shader_int16\00", align 1
@.str.42 = private unnamed_addr constant [38 x i8] c"VK_AMD_memory_overallocation_behavior\00", align 1
@.str.43 = private unnamed_addr constant [32 x i8] c"VK_AMD_mixed_attachment_samples\00", align 1
@.str.44 = private unnamed_addr constant [32 x i8] c"VK_AMD_negative_viewport_height\00", align 1
@.str.45 = private unnamed_addr constant [33 x i8] c"VK_AMD_pipeline_compiler_control\00", align 1
@.str.46 = private unnamed_addr constant [27 x i8] c"VK_AMD_rasterization_order\00", align 1
@.str.47 = private unnamed_addr constant [21 x i8] c"VK_AMD_shader_ballot\00", align 1
@.str.48 = private unnamed_addr constant [30 x i8] c"VK_AMD_shader_core_properties\00", align 1
@.str.49 = private unnamed_addr constant [31 x i8] c"VK_AMD_shader_core_properties2\00", align 1
@.str.50 = private unnamed_addr constant [40 x i8] c"VK_AMD_shader_explicit_vertex_parameter\00", align 1
@.str.51 = private unnamed_addr constant [28 x i8] c"VK_AMD_shader_fragment_mask\00", align 1
@.str.52 = private unnamed_addr constant [35 x i8] c"VK_AMD_shader_image_load_store_lod\00", align 1
@.str.53 = private unnamed_addr constant [19 x i8] c"VK_AMD_shader_info\00", align 1
@.str.54 = private unnamed_addr constant [29 x i8] c"VK_AMD_shader_trinary_minmax\00", align 1
@.str.55 = private unnamed_addr constant [31 x i8] c"VK_AMD_texture_gather_bias_lod\00", align 1
@.str.56 = private unnamed_addr constant [20 x i8] c"VK_EXT_4444_formats\00", align 1
@.str.57 = private unnamed_addr constant [24 x i8] c"VK_EXT_astc_decode_mode\00", align 1
@.str.58 = private unnamed_addr constant [32 x i8] c"VK_EXT_blend_operation_advanced\00", align 1
@.str.59 = private unnamed_addr constant [29 x i8] c"VK_EXT_buffer_device_address\00", align 1
@.str.60 = private unnamed_addr constant [29 x i8] c"VK_EXT_calibrated_timestamps\00", align 1
@.str.61 = private unnamed_addr constant [26 x i8] c"VK_EXT_color_write_enable\00", align 1
@.str.62 = private unnamed_addr constant [29 x i8] c"VK_EXT_conditional_rendering\00", align 1
@.str.63 = private unnamed_addr constant [34 x i8] c"VK_EXT_conservative_rasterization\00", align 1
@.str.64 = private unnamed_addr constant [27 x i8] c"VK_EXT_custom_border_color\00", align 1
@.str.65 = private unnamed_addr constant [20 x i8] c"VK_EXT_debug_marker\00", align 1
@.str.66 = private unnamed_addr constant [25 x i8] c"VK_EXT_depth_clip_enable\00", align 1
@.str.67 = private unnamed_addr constant [32 x i8] c"VK_EXT_depth_range_unrestricted\00", align 1
@.str.68 = private unnamed_addr constant [27 x i8] c"VK_EXT_descriptor_indexing\00", align 1
@.str.69 = private unnamed_addr constant [28 x i8] c"VK_EXT_device_memory_report\00", align 1
@.str.70 = private unnamed_addr constant [26 x i8] c"VK_EXT_discard_rectangles\00", align 1
@.str.71 = private unnamed_addr constant [23 x i8] c"VK_EXT_display_control\00", align 1
@.str.72 = private unnamed_addr constant [30 x i8] c"VK_EXT_extended_dynamic_state\00", align 1
@.str.73 = private unnamed_addr constant [31 x i8] c"VK_EXT_extended_dynamic_state2\00", align 1
@.str.74 = private unnamed_addr constant [31 x i8] c"VK_EXT_external_memory_dma_buf\00", align 1
@.str.75 = private unnamed_addr constant [28 x i8] c"VK_EXT_external_memory_host\00", align 1
@.str.76 = private unnamed_addr constant [20 x i8] c"VK_EXT_filter_cubic\00", align 1
@.str.77 = private unnamed_addr constant [28 x i8] c"VK_EXT_fragment_density_map\00", align 1
@.str.78 = private unnamed_addr constant [29 x i8] c"VK_EXT_fragment_density_map2\00", align 1
@.str.79 = private unnamed_addr constant [33 x i8] c"VK_EXT_fragment_shader_interlock\00", align 1
@.str.80 = private unnamed_addr constant [23 x i8] c"VK_EXT_global_priority\00", align 1
@.str.81 = private unnamed_addr constant [20 x i8] c"VK_EXT_hdr_metadata\00", align 1
@.str.82 = private unnamed_addr constant [24 x i8] c"VK_EXT_host_query_reset\00", align 1
@.str.83 = private unnamed_addr constant [33 x i8] c"VK_EXT_image_drm_format_modifier\00", align 1
@.str.84 = private unnamed_addr constant [24 x i8] c"VK_EXT_image_robustness\00", align 1
@.str.85 = private unnamed_addr constant [24 x i8] c"VK_EXT_index_type_uint8\00", align 1
@.str.86 = private unnamed_addr constant [28 x i8] c"VK_EXT_inline_uniform_block\00", align 1
@.str.87 = private unnamed_addr constant [26 x i8] c"VK_EXT_line_rasterization\00", align 1
@.str.88 = private unnamed_addr constant [21 x i8] c"VK_EXT_memory_budget\00", align 1
@.str.89 = private unnamed_addr constant [23 x i8] c"VK_EXT_memory_priority\00", align 1
@.str.90 = private unnamed_addr constant [20 x i8] c"VK_EXT_pci_bus_info\00", align 1
@.str.91 = private unnamed_addr constant [39 x i8] c"VK_EXT_pipeline_creation_cache_control\00", align 1
@.str.92 = private unnamed_addr constant [34 x i8] c"VK_EXT_pipeline_creation_feedback\00", align 1
@.str.93 = private unnamed_addr constant [27 x i8] c"VK_EXT_post_depth_coverage\00", align 1
@.str.94 = private unnamed_addr constant [20 x i8] c"VK_EXT_private_data\00", align 1
@.str.95 = private unnamed_addr constant [24 x i8] c"VK_EXT_provoking_vertex\00", align 1
@.str.96 = private unnamed_addr constant [28 x i8] c"VK_EXT_queue_family_foreign\00", align 1
@.str.97 = private unnamed_addr constant [19 x i8] c"VK_EXT_robustness2\00", align 1
@.str.98 = private unnamed_addr constant [24 x i8] c"VK_EXT_sample_locations\00", align 1
@.str.99 = private unnamed_addr constant [29 x i8] c"VK_EXT_sampler_filter_minmax\00", align 1
@.str.100 = private unnamed_addr constant [27 x i8] c"VK_EXT_scalar_block_layout\00", align 1
@.str.101 = private unnamed_addr constant [30 x i8] c"VK_EXT_separate_stencil_usage\00", align 1
@.str.102 = private unnamed_addr constant [27 x i8] c"VK_EXT_shader_atomic_float\00", align 1
@.str.103 = private unnamed_addr constant [42 x i8] c"VK_EXT_shader_demote_to_helper_invocation\00", align 1
@.str.104 = private unnamed_addr constant [33 x i8] c"VK_EXT_shader_image_atomic_int64\00", align 1
@.str.105 = private unnamed_addr constant [29 x i8] c"VK_EXT_shader_stencil_export\00", align 1
@.str.106 = private unnamed_addr constant [30 x i8] c"VK_EXT_shader_subgroup_ballot\00", align 1
@.str.107 = private unnamed_addr constant [28 x i8] c"VK_EXT_shader_subgroup_vote\00", align 1
@.str.108 = private unnamed_addr constant [35 x i8] c"VK_EXT_shader_viewport_index_layer\00", align 1
@.str.109 = private unnamed_addr constant [29 x i8] c"VK_EXT_subgroup_size_control\00", align 1
@.str.110 = private unnamed_addr constant [30 x i8] c"VK_EXT_texel_buffer_alignment\00", align 1
@.str.111 = private unnamed_addr constant [36 x i8] c"VK_EXT_texture_compression_astc_hdr\00", align 1
@.str.112 = private unnamed_addr constant [20 x i8] c"VK_EXT_tooling_info\00", align 1
@.str.113 = private unnamed_addr constant [26 x i8] c"VK_EXT_transform_feedback\00", align 1
@.str.114 = private unnamed_addr constant [24 x i8] c"VK_EXT_validation_cache\00", align 1
@.str.115 = private unnamed_addr constant [32 x i8] c"VK_EXT_vertex_attribute_divisor\00", align 1
@.str.116 = private unnamed_addr constant [34 x i8] c"VK_EXT_vertex_input_dynamic_state\00", align 1
@.str.117 = private unnamed_addr constant [25 x i8] c"VK_EXT_video_decode_h264\00", align 1
@.str.118 = private unnamed_addr constant [25 x i8] c"VK_EXT_video_decode_h265\00", align 1
@.str.119 = private unnamed_addr constant [25 x i8] c"VK_EXT_video_encode_h264\00", align 1
@.str.120 = private unnamed_addr constant [32 x i8] c"VK_EXT_ycbcr_2plane_444_formats\00", align 1
@.str.121 = private unnamed_addr constant [26 x i8] c"VK_EXT_ycbcr_image_arrays\00", align 1
@.str.122 = private unnamed_addr constant [26 x i8] c"VK_GOOGLE_decorate_string\00", align 1
@.str.123 = private unnamed_addr constant [25 x i8] c"VK_GOOGLE_display_timing\00", align 1
@.str.124 = private unnamed_addr constant [30 x i8] c"VK_GOOGLE_hlsl_functionality1\00", align 1
@.str.125 = private unnamed_addr constant [20 x i8] c"VK_GOOGLE_user_type\00", align 1
@.str.126 = private unnamed_addr constant [20 x i8] c"VK_IMG_filter_cubic\00", align 1
@.str.127 = private unnamed_addr constant [20 x i8] c"VK_IMG_format_pvrtc\00", align 1
@.str.128 = private unnamed_addr constant [27 x i8] c"VK_INTEL_performance_query\00", align 1
@.str.129 = private unnamed_addr constant [35 x i8] c"VK_INTEL_shader_integer_functions2\00", align 1
@.str.130 = private unnamed_addr constant [21 x i8] c"VK_KHR_16bit_storage\00", align 1
@.str.131 = private unnamed_addr constant [20 x i8] c"VK_KHR_8bit_storage\00", align 1
@.str.132 = private unnamed_addr constant [30 x i8] c"VK_KHR_acceleration_structure\00", align 1
@.str.133 = private unnamed_addr constant [20 x i8] c"VK_KHR_bind_memory2\00", align 1
@.str.134 = private unnamed_addr constant [29 x i8] c"VK_KHR_buffer_device_address\00", align 1
@.str.135 = private unnamed_addr constant [22 x i8] c"VK_KHR_copy_commands2\00", align 1
@.str.136 = private unnamed_addr constant [26 x i8] c"VK_KHR_create_renderpass2\00", align 1
@.str.137 = private unnamed_addr constant [28 x i8] c"VK_KHR_dedicated_allocation\00", align 1
@.str.138 = private unnamed_addr constant [32 x i8] c"VK_KHR_deferred_host_operations\00", align 1
@.str.139 = private unnamed_addr constant [29 x i8] c"VK_KHR_depth_stencil_resolve\00", align 1
@.str.140 = private unnamed_addr constant [34 x i8] c"VK_KHR_descriptor_update_template\00", align 1
@.str.141 = private unnamed_addr constant [20 x i8] c"VK_KHR_device_group\00", align 1
@.str.142 = private unnamed_addr constant [25 x i8] c"VK_KHR_display_swapchain\00", align 1
@.str.143 = private unnamed_addr constant [27 x i8] c"VK_KHR_draw_indirect_count\00", align 1
@.str.144 = private unnamed_addr constant [25 x i8] c"VK_KHR_driver_properties\00", align 1
@.str.145 = private unnamed_addr constant [22 x i8] c"VK_KHR_external_fence\00", align 1
@.str.146 = private unnamed_addr constant [25 x i8] c"VK_KHR_external_fence_fd\00", align 1
@.str.147 = private unnamed_addr constant [23 x i8] c"VK_KHR_external_memory\00", align 1
@.str.148 = private unnamed_addr constant [26 x i8] c"VK_KHR_external_memory_fd\00", align 1
@.str.149 = private unnamed_addr constant [26 x i8] c"VK_KHR_external_semaphore\00", align 1
@.str.150 = private unnamed_addr constant [29 x i8] c"VK_KHR_external_semaphore_fd\00", align 1
@.str.151 = private unnamed_addr constant [29 x i8] c"VK_KHR_fragment_shading_rate\00", align 1
@.str.152 = private unnamed_addr constant [32 x i8] c"VK_KHR_get_memory_requirements2\00", align 1
@.str.153 = private unnamed_addr constant [25 x i8] c"VK_KHR_image_format_list\00", align 1
@.str.154 = private unnamed_addr constant [29 x i8] c"VK_KHR_imageless_framebuffer\00", align 1
@.str.155 = private unnamed_addr constant [27 x i8] c"VK_KHR_incremental_present\00", align 1
@.str.156 = private unnamed_addr constant [20 x i8] c"VK_KHR_maintenance1\00", align 1
@.str.157 = private unnamed_addr constant [20 x i8] c"VK_KHR_maintenance2\00", align 1
@.str.158 = private unnamed_addr constant [20 x i8] c"VK_KHR_maintenance3\00", align 1
@.str.159 = private unnamed_addr constant [17 x i8] c"VK_KHR_multiview\00", align 1
@.str.160 = private unnamed_addr constant [25 x i8] c"VK_KHR_performance_query\00", align 1
@.str.161 = private unnamed_addr constant [38 x i8] c"VK_KHR_pipeline_executable_properties\00", align 1
@.str.162 = private unnamed_addr constant [24 x i8] c"VK_KHR_pipeline_library\00", align 1
@.str.163 = private unnamed_addr constant [26 x i8] c"VK_KHR_portability_subset\00", align 1
@.str.164 = private unnamed_addr constant [23 x i8] c"VK_KHR_push_descriptor\00", align 1
@.str.165 = private unnamed_addr constant [17 x i8] c"VK_KHR_ray_query\00", align 1
@.str.166 = private unnamed_addr constant [28 x i8] c"VK_KHR_ray_tracing_pipeline\00", align 1
@.str.167 = private unnamed_addr constant [28 x i8] c"VK_KHR_relaxed_block_layout\00", align 1
@.str.168 = private unnamed_addr constant [36 x i8] c"VK_KHR_sampler_mirror_clamp_to_edge\00", align 1
@.str.169 = private unnamed_addr constant [32 x i8] c"VK_KHR_sampler_ycbcr_conversion\00", align 1
@.str.170 = private unnamed_addr constant [38 x i8] c"VK_KHR_separate_depth_stencil_layouts\00", align 1
@.str.171 = private unnamed_addr constant [27 x i8] c"VK_KHR_shader_atomic_int64\00", align 1
@.str.172 = private unnamed_addr constant [20 x i8] c"VK_KHR_shader_clock\00", align 1
@.str.173 = private unnamed_addr constant [30 x i8] c"VK_KHR_shader_draw_parameters\00", align 1
@.str.174 = private unnamed_addr constant [27 x i8] c"VK_KHR_shader_float16_int8\00", align 1
@.str.175 = private unnamed_addr constant [29 x i8] c"VK_KHR_shader_float_controls\00", align 1
@.str.176 = private unnamed_addr constant [32 x i8] c"VK_KHR_shader_non_semantic_info\00", align 1
@.str.177 = private unnamed_addr constant [38 x i8] c"VK_KHR_shader_subgroup_extended_types\00", align 1
@.str.178 = private unnamed_addr constant [35 x i8] c"VK_KHR_shader_terminate_invocation\00", align 1
@.str.179 = private unnamed_addr constant [32 x i8] c"VK_KHR_shared_presentable_image\00", align 1
@.str.180 = private unnamed_addr constant [17 x i8] c"VK_KHR_spirv_1_4\00", align 1
@.str.181 = private unnamed_addr constant [36 x i8] c"VK_KHR_storage_buffer_storage_class\00", align 1
@.str.182 = private unnamed_addr constant [17 x i8] c"VK_KHR_swapchain\00", align 1
@.str.183 = private unnamed_addr constant [32 x i8] c"VK_KHR_swapchain_mutable_format\00", align 1
@.str.184 = private unnamed_addr constant [24 x i8] c"VK_KHR_synchronization2\00", align 1
@.str.185 = private unnamed_addr constant [26 x i8] c"VK_KHR_timeline_semaphore\00", align 1
@.str.186 = private unnamed_addr constant [38 x i8] c"VK_KHR_uniform_buffer_standard_layout\00", align 1
@.str.187 = private unnamed_addr constant [25 x i8] c"VK_KHR_variable_pointers\00", align 1
@.str.188 = private unnamed_addr constant [26 x i8] c"VK_KHR_video_decode_queue\00", align 1
@.str.189 = private unnamed_addr constant [26 x i8] c"VK_KHR_video_encode_queue\00", align 1
@.str.190 = private unnamed_addr constant [19 x i8] c"VK_KHR_video_queue\00", align 1
@.str.191 = private unnamed_addr constant [27 x i8] c"VK_KHR_vulkan_memory_model\00", align 1
@.str.192 = private unnamed_addr constant [40 x i8] c"VK_KHR_workgroup_memory_explicit_layout\00", align 1
@.str.193 = private unnamed_addr constant [40 x i8] c"VK_KHR_zero_initialize_workgroup_memory\00", align 1
@.str.194 = private unnamed_addr constant [21 x i8] c"VK_NVX_binary_import\00", align 1
@.str.195 = private unnamed_addr constant [25 x i8] c"VK_NVX_image_view_handle\00", align 1
@.str.196 = private unnamed_addr constant [37 x i8] c"VK_NVX_multiview_per_view_attributes\00", align 1
@.str.197 = private unnamed_addr constant [27 x i8] c"VK_NV_clip_space_w_scaling\00", align 1
@.str.198 = private unnamed_addr constant [33 x i8] c"VK_NV_compute_shader_derivatives\00", align 1
@.str.199 = private unnamed_addr constant [25 x i8] c"VK_NV_cooperative_matrix\00", align 1
@.str.200 = private unnamed_addr constant [27 x i8] c"VK_NV_corner_sampled_image\00", align 1
@.str.201 = private unnamed_addr constant [30 x i8] c"VK_NV_coverage_reduction_mode\00", align 1
@.str.202 = private unnamed_addr constant [27 x i8] c"VK_NV_dedicated_allocation\00", align 1
@.str.203 = private unnamed_addr constant [42 x i8] c"VK_NV_dedicated_allocation_image_aliasing\00", align 1
@.str.204 = private unnamed_addr constant [36 x i8] c"VK_NV_device_diagnostic_checkpoints\00", align 1
@.str.205 = private unnamed_addr constant [32 x i8] c"VK_NV_device_diagnostics_config\00", align 1
@.str.206 = private unnamed_addr constant [32 x i8] c"VK_NV_device_generated_commands\00", align 1
@.str.207 = private unnamed_addr constant [22 x i8] c"VK_NV_external_memory\00", align 1
@.str.208 = private unnamed_addr constant [21 x i8] c"VK_NV_fill_rectangle\00", align 1
@.str.209 = private unnamed_addr constant [33 x i8] c"VK_NV_fragment_coverage_to_color\00", align 1
@.str.210 = private unnamed_addr constant [34 x i8] c"VK_NV_fragment_shader_barycentric\00", align 1
@.str.211 = private unnamed_addr constant [34 x i8] c"VK_NV_fragment_shading_rate_enums\00", align 1
@.str.212 = private unnamed_addr constant [32 x i8] c"VK_NV_framebuffer_mixed_samples\00", align 1
@.str.213 = private unnamed_addr constant [34 x i8] c"VK_NV_geometry_shader_passthrough\00", align 1
@.str.214 = private unnamed_addr constant [18 x i8] c"VK_NV_glsl_shader\00", align 1
@.str.215 = private unnamed_addr constant [33 x i8] c"VK_NV_inherited_viewport_scissor\00", align 1
@.str.216 = private unnamed_addr constant [18 x i8] c"VK_NV_mesh_shader\00", align 1
@.str.217 = private unnamed_addr constant [18 x i8] c"VK_NV_ray_tracing\00", align 1
@.str.218 = private unnamed_addr constant [35 x i8] c"VK_NV_representative_fragment_test\00", align 1
@.str.219 = private unnamed_addr constant [36 x i8] c"VK_NV_sample_mask_override_coverage\00", align 1
@.str.220 = private unnamed_addr constant [24 x i8] c"VK_NV_scissor_exclusive\00", align 1
@.str.221 = private unnamed_addr constant [29 x i8] c"VK_NV_shader_image_footprint\00", align 1
@.str.222 = private unnamed_addr constant [25 x i8] c"VK_NV_shader_sm_builtins\00", align 1
@.str.223 = private unnamed_addr constant [34 x i8] c"VK_NV_shader_subgroup_partitioned\00", align 1
@.str.224 = private unnamed_addr constant [25 x i8] c"VK_NV_shading_rate_image\00", align 1
@.str.225 = private unnamed_addr constant [22 x i8] c"VK_NV_viewport_array2\00", align 1
@.str.226 = private unnamed_addr constant [23 x i8] c"VK_NV_viewport_swizzle\00", align 1
@.str.227 = private unnamed_addr constant [35 x i8] c"VK_QCOM_render_pass_shader_resolve\00", align 1
@.str.228 = private unnamed_addr constant [30 x i8] c"VK_QCOM_render_pass_store_ops\00", align 1
@.str.229 = private unnamed_addr constant [30 x i8] c"VK_QCOM_render_pass_transform\00", align 1
@.str.230 = private unnamed_addr constant [30 x i8] c"VK_QCOM_rotated_copy_commands\00", align 1
@.str.231 = private unnamed_addr constant [33 x i8] c"VK_VALVE_mutable_descriptor_type\00", align 1
@_ZL17api_extension_map = internal global %"class.std::__1::unordered_map.180" zeroinitializer, align 8
@.str.233 = private unnamed_addr constant [36 x i8] c"vkAcquireFullScreenExclusiveModeEXT\00", align 1
@.str.234 = private unnamed_addr constant [29 x i8] c"VK_EXT_full_screen_exclusive\00", align 1
@.str.235 = private unnamed_addr constant [23 x i8] c"vkAcquireNextImage2KHR\00", align 1
@.str.236 = private unnamed_addr constant [22 x i8] c"vkAcquireNextImageKHR\00", align 1
@.str.237 = private unnamed_addr constant [39 x i8] c"vkAcquirePerformanceConfigurationINTEL\00", align 1
@.str.238 = private unnamed_addr constant [26 x i8] c"vkAcquireProfilingLockKHR\00", align 1
@.str.239 = private unnamed_addr constant [36 x i8] c"vkBindAccelerationStructureMemoryNV\00", align 1
@.str.240 = private unnamed_addr constant [20 x i8] c"vkBindBufferMemory2\00", align 1
@.str.241 = private unnamed_addr constant [15 x i8] c"VK_VERSION_1_1\00", align 1
@.str.242 = private unnamed_addr constant [23 x i8] c"vkBindBufferMemory2KHR\00", align 1
@.str.243 = private unnamed_addr constant [19 x i8] c"vkBindImageMemory2\00", align 1
@.str.244 = private unnamed_addr constant [22 x i8] c"vkBindImageMemory2KHR\00", align 1
@.str.245 = private unnamed_addr constant [28 x i8] c"vkBindVideoSessionMemoryKHR\00", align 1
@.str.246 = private unnamed_addr constant [33 x i8] c"vkBuildAccelerationStructuresKHR\00", align 1
@.str.247 = private unnamed_addr constant [34 x i8] c"vkCmdBeginConditionalRenderingEXT\00", align 1
@.str.248 = private unnamed_addr constant [29 x i8] c"vkCmdBeginDebugUtilsLabelEXT\00", align 1
@.str.249 = private unnamed_addr constant [26 x i8] c"vkCmdBeginQueryIndexedEXT\00", align 1
@.str.250 = private unnamed_addr constant [22 x i8] c"vkCmdBeginRenderPass2\00", align 1
@.str.251 = private unnamed_addr constant [15 x i8] c"VK_VERSION_1_2\00", align 1
@.str.252 = private unnamed_addr constant [25 x i8] c"vkCmdBeginRenderPass2KHR\00", align 1
@.str.253 = private unnamed_addr constant [31 x i8] c"vkCmdBeginTransformFeedbackEXT\00", align 1
@.str.254 = private unnamed_addr constant [25 x i8] c"vkCmdBeginVideoCodingKHR\00", align 1
@.str.255 = private unnamed_addr constant [31 x i8] c"vkCmdBindPipelineShaderGroupNV\00", align 1
@.str.256 = private unnamed_addr constant [28 x i8] c"vkCmdBindShadingRateImageNV\00", align 1
@.str.257 = private unnamed_addr constant [37 x i8] c"vkCmdBindTransformFeedbackBuffersEXT\00", align 1
@.str.258 = private unnamed_addr constant [27 x i8] c"vkCmdBindVertexBuffers2EXT\00", align 1
@.str.259 = private unnamed_addr constant [19 x i8] c"vkCmdBlitImage2KHR\00", align 1
@.str.260 = private unnamed_addr constant [34 x i8] c"vkCmdBuildAccelerationStructureNV\00", align 1
@.str.261 = private unnamed_addr constant [44 x i8] c"vkCmdBuildAccelerationStructuresIndirectKHR\00", align 1
@.str.262 = private unnamed_addr constant [36 x i8] c"vkCmdBuildAccelerationStructuresKHR\00", align 1
@.str.263 = private unnamed_addr constant [27 x i8] c"vkCmdControlVideoCodingKHR\00", align 1
@.str.264 = private unnamed_addr constant [34 x i8] c"vkCmdCopyAccelerationStructureKHR\00", align 1
@.str.265 = private unnamed_addr constant [33 x i8] c"vkCmdCopyAccelerationStructureNV\00", align 1
@.str.266 = private unnamed_addr constant [42 x i8] c"vkCmdCopyAccelerationStructureToMemoryKHR\00", align 1
@.str.267 = private unnamed_addr constant [20 x i8] c"vkCmdCopyBuffer2KHR\00", align 1
@.str.268 = private unnamed_addr constant [27 x i8] c"vkCmdCopyBufferToImage2KHR\00", align 1
@.str.269 = private unnamed_addr constant [19 x i8] c"vkCmdCopyImage2KHR\00", align 1
@.str.270 = private unnamed_addr constant [27 x i8] c"vkCmdCopyImageToBuffer2KHR\00", align 1
@.str.271 = private unnamed_addr constant [42 x i8] c"vkCmdCopyMemoryToAccelerationStructureKHR\00", align 1
@.str.272 = private unnamed_addr constant [23 x i8] c"vkCmdCuLaunchKernelNVX\00", align 1
@.str.273 = private unnamed_addr constant [25 x i8] c"vkCmdDebugMarkerBeginEXT\00", align 1
@.str.274 = private unnamed_addr constant [23 x i8] c"vkCmdDebugMarkerEndEXT\00", align 1
@.str.275 = private unnamed_addr constant [26 x i8] c"vkCmdDebugMarkerInsertEXT\00", align 1
@.str.276 = private unnamed_addr constant [20 x i8] c"vkCmdDecodeVideoKHR\00", align 1
@.str.277 = private unnamed_addr constant [18 x i8] c"vkCmdDispatchBase\00", align 1
@.str.278 = private unnamed_addr constant [21 x i8] c"vkCmdDispatchBaseKHR\00", align 1
@.str.279 = private unnamed_addr constant [30 x i8] c"vkCmdDrawIndexedIndirectCount\00", align 1
@.str.280 = private unnamed_addr constant [33 x i8] c"vkCmdDrawIndexedIndirectCountAMD\00", align 1
@.str.281 = private unnamed_addr constant [33 x i8] c"vkCmdDrawIndexedIndirectCountKHR\00", align 1
@.str.282 = private unnamed_addr constant [30 x i8] c"vkCmdDrawIndirectByteCountEXT\00", align 1
@.str.283 = private unnamed_addr constant [23 x i8] c"vkCmdDrawIndirectCount\00", align 1
@.str.284 = private unnamed_addr constant [26 x i8] c"vkCmdDrawIndirectCountAMD\00", align 1
@.str.285 = private unnamed_addr constant [26 x i8] c"vkCmdDrawIndirectCountKHR\00", align 1
@.str.286 = private unnamed_addr constant [34 x i8] c"vkCmdDrawMeshTasksIndirectCountNV\00", align 1
@.str.287 = private unnamed_addr constant [29 x i8] c"vkCmdDrawMeshTasksIndirectNV\00", align 1
@.str.288 = private unnamed_addr constant [21 x i8] c"vkCmdDrawMeshTasksNV\00", align 1
@.str.289 = private unnamed_addr constant [20 x i8] c"vkCmdEncodeVideoKHR\00", align 1
@.str.290 = private unnamed_addr constant [32 x i8] c"vkCmdEndConditionalRenderingEXT\00", align 1
@.str.291 = private unnamed_addr constant [27 x i8] c"vkCmdEndDebugUtilsLabelEXT\00", align 1
@.str.292 = private unnamed_addr constant [24 x i8] c"vkCmdEndQueryIndexedEXT\00", align 1
@.str.293 = private unnamed_addr constant [20 x i8] c"vkCmdEndRenderPass2\00", align 1
@.str.294 = private unnamed_addr constant [23 x i8] c"vkCmdEndRenderPass2KHR\00", align 1
@.str.295 = private unnamed_addr constant [29 x i8] c"vkCmdEndTransformFeedbackEXT\00", align 1
@.str.296 = private unnamed_addr constant [23 x i8] c"vkCmdEndVideoCodingKHR\00", align 1
@.str.297 = private unnamed_addr constant [32 x i8] c"vkCmdExecuteGeneratedCommandsNV\00", align 1
@.str.298 = private unnamed_addr constant [30 x i8] c"vkCmdInsertDebugUtilsLabelEXT\00", align 1
@.str.299 = private unnamed_addr constant [18 x i8] c"vkCmdNextSubpass2\00", align 1
@.str.300 = private unnamed_addr constant [21 x i8] c"vkCmdNextSubpass2KHR\00", align 1
@.str.301 = private unnamed_addr constant [25 x i8] c"vkCmdPipelineBarrier2KHR\00", align 1
@.str.302 = private unnamed_addr constant [35 x i8] c"vkCmdPreprocessGeneratedCommandsNV\00", align 1
@.str.303 = private unnamed_addr constant [26 x i8] c"vkCmdPushDescriptorSetKHR\00", align 1
@.str.304 = private unnamed_addr constant [38 x i8] c"vkCmdPushDescriptorSetWithTemplateKHR\00", align 1
@.str.305 = private unnamed_addr constant [20 x i8] c"vkCmdResetEvent2KHR\00", align 1
@.str.306 = private unnamed_addr constant [22 x i8] c"vkCmdResolveImage2KHR\00", align 1
@.str.307 = private unnamed_addr constant [21 x i8] c"vkCmdSetCheckpointNV\00", align 1
@.str.308 = private unnamed_addr constant [28 x i8] c"vkCmdSetCoarseSampleOrderNV\00", align 1
@.str.309 = private unnamed_addr constant [28 x i8] c"vkCmdSetColorWriteEnableEXT\00", align 1
@.str.310 = private unnamed_addr constant [20 x i8] c"vkCmdSetCullModeEXT\00", align 1
@.str.311 = private unnamed_addr constant [27 x i8] c"vkCmdSetDepthBiasEnableEXT\00", align 1
@.str.312 = private unnamed_addr constant [33 x i8] c"vkCmdSetDepthBoundsTestEnableEXT\00", align 1
@.str.313 = private unnamed_addr constant [26 x i8] c"vkCmdSetDepthCompareOpEXT\00", align 1
@.str.314 = private unnamed_addr constant [27 x i8] c"vkCmdSetDepthTestEnableEXT\00", align 1
@.str.315 = private unnamed_addr constant [28 x i8] c"vkCmdSetDepthWriteEnableEXT\00", align 1
@.str.316 = private unnamed_addr constant [19 x i8] c"vkCmdSetDeviceMask\00", align 1
@.str.317 = private unnamed_addr constant [22 x i8] c"vkCmdSetDeviceMaskKHR\00", align 1
@.str.318 = private unnamed_addr constant [28 x i8] c"vkCmdSetDiscardRectangleEXT\00", align 1
@.str.319 = private unnamed_addr constant [18 x i8] c"vkCmdSetEvent2KHR\00", align 1
@.str.320 = private unnamed_addr constant [27 x i8] c"vkCmdSetExclusiveScissorNV\00", align 1
@.str.321 = private unnamed_addr constant [34 x i8] c"vkCmdSetFragmentShadingRateEnumNV\00", align 1
@.str.322 = private unnamed_addr constant [31 x i8] c"vkCmdSetFragmentShadingRateKHR\00", align 1
@.str.323 = private unnamed_addr constant [21 x i8] c"vkCmdSetFrontFaceEXT\00", align 1
@.str.324 = private unnamed_addr constant [23 x i8] c"vkCmdSetLineStippleEXT\00", align 1
@.str.325 = private unnamed_addr constant [19 x i8] c"vkCmdSetLogicOpEXT\00", align 1
@.str.326 = private unnamed_addr constant [30 x i8] c"vkCmdSetPatchControlPointsEXT\00", align 1
@.str.327 = private unnamed_addr constant [31 x i8] c"vkCmdSetPerformanceMarkerINTEL\00", align 1
@.str.328 = private unnamed_addr constant [33 x i8] c"vkCmdSetPerformanceOverrideINTEL\00", align 1
@.str.329 = private unnamed_addr constant [37 x i8] c"vkCmdSetPerformanceStreamMarkerINTEL\00", align 1
@.str.330 = private unnamed_addr constant [34 x i8] c"vkCmdSetPrimitiveRestartEnableEXT\00", align 1
@.str.331 = private unnamed_addr constant [29 x i8] c"vkCmdSetPrimitiveTopologyEXT\00", align 1
@.str.332 = private unnamed_addr constant [35 x i8] c"vkCmdSetRasterizerDiscardEnableEXT\00", align 1
@.str.333 = private unnamed_addr constant [39 x i8] c"vkCmdSetRayTracingPipelineStackSizeKHR\00", align 1
@.str.334 = private unnamed_addr constant [27 x i8] c"vkCmdSetSampleLocationsEXT\00", align 1
@.str.335 = private unnamed_addr constant [28 x i8] c"vkCmdSetScissorWithCountEXT\00", align 1
@.str.336 = private unnamed_addr constant [21 x i8] c"vkCmdSetStencilOpEXT\00", align 1
@.str.337 = private unnamed_addr constant [29 x i8] c"vkCmdSetStencilTestEnableEXT\00", align 1
@.str.338 = private unnamed_addr constant [23 x i8] c"vkCmdSetVertexInputEXT\00", align 1
@.str.339 = private unnamed_addr constant [37 x i8] c"vkCmdSetViewportShadingRatePaletteNV\00", align 1
@.str.340 = private unnamed_addr constant [27 x i8] c"vkCmdSetViewportWScalingNV\00", align 1
@.str.341 = private unnamed_addr constant [29 x i8] c"vkCmdSetViewportWithCountEXT\00", align 1
@.str.342 = private unnamed_addr constant [26 x i8] c"vkCmdTraceRaysIndirectKHR\00", align 1
@.str.343 = private unnamed_addr constant [18 x i8] c"vkCmdTraceRaysKHR\00", align 1
@.str.344 = private unnamed_addr constant [17 x i8] c"vkCmdTraceRaysNV\00", align 1
@.str.345 = private unnamed_addr constant [20 x i8] c"vkCmdWaitEvents2KHR\00", align 1
@.str.346 = private unnamed_addr constant [46 x i8] c"vkCmdWriteAccelerationStructuresPropertiesKHR\00", align 1
@.str.347 = private unnamed_addr constant [45 x i8] c"vkCmdWriteAccelerationStructuresPropertiesNV\00", align 1
@.str.348 = private unnamed_addr constant [27 x i8] c"vkCmdWriteBufferMarker2AMD\00", align 1
@.str.349 = private unnamed_addr constant [26 x i8] c"vkCmdWriteBufferMarkerAMD\00", align 1
@.str.350 = private unnamed_addr constant [24 x i8] c"vkCmdWriteTimestamp2KHR\00", align 1
@.str.351 = private unnamed_addr constant [20 x i8] c"vkCompileDeferredNV\00", align 1
@.str.352 = private unnamed_addr constant [31 x i8] c"vkCopyAccelerationStructureKHR\00", align 1
@.str.353 = private unnamed_addr constant [39 x i8] c"vkCopyAccelerationStructureToMemoryKHR\00", align 1
@.str.354 = private unnamed_addr constant [39 x i8] c"vkCopyMemoryToAccelerationStructureKHR\00", align 1
@.str.355 = private unnamed_addr constant [33 x i8] c"vkCreateAccelerationStructureKHR\00", align 1
@.str.356 = private unnamed_addr constant [32 x i8] c"vkCreateAccelerationStructureNV\00", align 1
@.str.357 = private unnamed_addr constant [22 x i8] c"vkCreateCuFunctionNVX\00", align 1
@.str.358 = private unnamed_addr constant [20 x i8] c"vkCreateCuModuleNVX\00", align 1
@.str.359 = private unnamed_addr constant [29 x i8] c"vkCreateDeferredOperationKHR\00", align 1
@.str.360 = private unnamed_addr constant [33 x i8] c"vkCreateDescriptorUpdateTemplate\00", align 1
@.str.361 = private unnamed_addr constant [36 x i8] c"vkCreateDescriptorUpdateTemplateKHR\00", align 1
@.str.362 = private unnamed_addr constant [33 x i8] c"vkCreateIndirectCommandsLayoutNV\00", align 1
@.str.363 = private unnamed_addr constant [27 x i8] c"vkCreatePrivateDataSlotEXT\00", align 1
@.str.364 = private unnamed_addr constant [31 x i8] c"vkCreateRayTracingPipelinesKHR\00", align 1
@.str.365 = private unnamed_addr constant [30 x i8] c"vkCreateRayTracingPipelinesNV\00", align 1
@.str.366 = private unnamed_addr constant [20 x i8] c"vkCreateRenderPass2\00", align 1
@.str.367 = private unnamed_addr constant [23 x i8] c"vkCreateRenderPass2KHR\00", align 1
@.str.368 = private unnamed_addr constant [31 x i8] c"vkCreateSamplerYcbcrConversion\00", align 1
@.str.369 = private unnamed_addr constant [34 x i8] c"vkCreateSamplerYcbcrConversionKHR\00", align 1
@.str.370 = private unnamed_addr constant [28 x i8] c"vkCreateSharedSwapchainsKHR\00", align 1
@.str.371 = private unnamed_addr constant [21 x i8] c"vkCreateSwapchainKHR\00", align 1
@.str.372 = private unnamed_addr constant [27 x i8] c"vkCreateValidationCacheEXT\00", align 1
@.str.373 = private unnamed_addr constant [24 x i8] c"vkCreateVideoSessionKHR\00", align 1
@.str.374 = private unnamed_addr constant [34 x i8] c"vkCreateVideoSessionParametersKHR\00", align 1
@.str.375 = private unnamed_addr constant [30 x i8] c"vkDebugMarkerSetObjectNameEXT\00", align 1
@.str.376 = private unnamed_addr constant [29 x i8] c"vkDebugMarkerSetObjectTagEXT\00", align 1
@.str.377 = private unnamed_addr constant [27 x i8] c"vkDeferredOperationJoinKHR\00", align 1
@.str.378 = private unnamed_addr constant [34 x i8] c"vkDestroyAccelerationStructureKHR\00", align 1
@.str.379 = private unnamed_addr constant [33 x i8] c"vkDestroyAccelerationStructureNV\00", align 1
@.str.380 = private unnamed_addr constant [23 x i8] c"vkDestroyCuFunctionNVX\00", align 1
@.str.381 = private unnamed_addr constant [21 x i8] c"vkDestroyCuModuleNVX\00", align 1
@.str.382 = private unnamed_addr constant [30 x i8] c"vkDestroyDeferredOperationKHR\00", align 1
@.str.383 = private unnamed_addr constant [34 x i8] c"vkDestroyDescriptorUpdateTemplate\00", align 1
@.str.384 = private unnamed_addr constant [37 x i8] c"vkDestroyDescriptorUpdateTemplateKHR\00", align 1
@.str.385 = private unnamed_addr constant [34 x i8] c"vkDestroyIndirectCommandsLayoutNV\00", align 1
@.str.386 = private unnamed_addr constant [28 x i8] c"vkDestroyPrivateDataSlotEXT\00", align 1
@.str.387 = private unnamed_addr constant [32 x i8] c"vkDestroySamplerYcbcrConversion\00", align 1
@.str.388 = private unnamed_addr constant [35 x i8] c"vkDestroySamplerYcbcrConversionKHR\00", align 1
@.str.389 = private unnamed_addr constant [22 x i8] c"vkDestroySwapchainKHR\00", align 1
@.str.390 = private unnamed_addr constant [28 x i8] c"vkDestroyValidationCacheEXT\00", align 1
@.str.391 = private unnamed_addr constant [25 x i8] c"vkDestroyVideoSessionKHR\00", align 1
@.str.392 = private unnamed_addr constant [35 x i8] c"vkDestroyVideoSessionParametersKHR\00", align 1
@.str.393 = private unnamed_addr constant [25 x i8] c"vkDisplayPowerControlEXT\00", align 1
@.str.394 = private unnamed_addr constant [40 x i8] c"vkGetAccelerationStructureBuildSizesKHR\00", align 1
@.str.395 = private unnamed_addr constant [43 x i8] c"vkGetAccelerationStructureDeviceAddressKHR\00", align 1
@.str.396 = private unnamed_addr constant [35 x i8] c"vkGetAccelerationStructureHandleNV\00", align 1
@.str.397 = private unnamed_addr constant [47 x i8] c"vkGetAccelerationStructureMemoryRequirementsNV\00", align 1
@.str.398 = private unnamed_addr constant [44 x i8] c"vkGetAndroidHardwareBufferPropertiesANDROID\00", align 1
@.str.399 = private unnamed_addr constant [51 x i8] c"VK_ANDROID_external_memory_android_hardware_buffer\00", align 1
@.str.400 = private unnamed_addr constant [25 x i8] c"vkGetBufferDeviceAddress\00", align 1
@.str.401 = private unnamed_addr constant [28 x i8] c"vkGetBufferDeviceAddressEXT\00", align 1
@.str.402 = private unnamed_addr constant [28 x i8] c"vkGetBufferDeviceAddressKHR\00", align 1
@.str.403 = private unnamed_addr constant [31 x i8] c"vkGetBufferMemoryRequirements2\00", align 1
@.str.404 = private unnamed_addr constant [34 x i8] c"vkGetBufferMemoryRequirements2KHR\00", align 1
@.str.405 = private unnamed_addr constant [32 x i8] c"vkGetBufferOpaqueCaptureAddress\00", align 1
@.str.406 = private unnamed_addr constant [35 x i8] c"vkGetBufferOpaqueCaptureAddressKHR\00", align 1
@.str.407 = private unnamed_addr constant [29 x i8] c"vkGetCalibratedTimestampsEXT\00", align 1
@.str.408 = private unnamed_addr constant [40 x i8] c"vkGetDeferredOperationMaxConcurrencyKHR\00", align 1
@.str.409 = private unnamed_addr constant [32 x i8] c"vkGetDeferredOperationResultKHR\00", align 1
@.str.410 = private unnamed_addr constant [32 x i8] c"vkGetDescriptorSetLayoutSupport\00", align 1
@.str.411 = private unnamed_addr constant [35 x i8] c"vkGetDescriptorSetLayoutSupportKHR\00", align 1
@.str.412 = private unnamed_addr constant [49 x i8] c"vkGetDeviceAccelerationStructureCompatibilityKHR\00", align 1
@.str.413 = private unnamed_addr constant [35 x i8] c"vkGetDeviceGroupPeerMemoryFeatures\00", align 1
@.str.414 = private unnamed_addr constant [38 x i8] c"vkGetDeviceGroupPeerMemoryFeaturesKHR\00", align 1
@.str.415 = private unnamed_addr constant [39 x i8] c"vkGetDeviceGroupPresentCapabilitiesKHR\00", align 1
@.str.416 = private unnamed_addr constant [40 x i8] c"vkGetDeviceGroupSurfacePresentModes2EXT\00", align 1
@.str.417 = private unnamed_addr constant [39 x i8] c"vkGetDeviceGroupSurfacePresentModesKHR\00", align 1
@.str.418 = private unnamed_addr constant [38 x i8] c"vkGetDeviceMemoryOpaqueCaptureAddress\00", align 1
@.str.419 = private unnamed_addr constant [41 x i8] c"vkGetDeviceMemoryOpaqueCaptureAddressKHR\00", align 1
@.str.420 = private unnamed_addr constant [18 x i8] c"vkGetDeviceQueue2\00", align 1
@.str.421 = private unnamed_addr constant [16 x i8] c"vkGetFenceFdKHR\00", align 1
@.str.422 = private unnamed_addr constant [25 x i8] c"vkGetFenceWin32HandleKHR\00", align 1
@.str.423 = private unnamed_addr constant [28 x i8] c"VK_KHR_external_fence_win32\00", align 1
@.str.424 = private unnamed_addr constant [43 x i8] c"vkGetGeneratedCommandsMemoryRequirementsNV\00", align 1
@.str.425 = private unnamed_addr constant [41 x i8] c"vkGetImageDrmFormatModifierPropertiesEXT\00", align 1
@.str.426 = private unnamed_addr constant [30 x i8] c"vkGetImageMemoryRequirements2\00", align 1
@.str.427 = private unnamed_addr constant [33 x i8] c"vkGetImageMemoryRequirements2KHR\00", align 1
@.str.428 = private unnamed_addr constant [36 x i8] c"vkGetImageSparseMemoryRequirements2\00", align 1
@.str.429 = private unnamed_addr constant [39 x i8] c"vkGetImageSparseMemoryRequirements2KHR\00", align 1
@.str.430 = private unnamed_addr constant [25 x i8] c"vkGetImageViewAddressNVX\00", align 1
@.str.431 = private unnamed_addr constant [24 x i8] c"vkGetImageViewHandleNVX\00", align 1
@.str.432 = private unnamed_addr constant [40 x i8] c"vkGetMemoryAndroidHardwareBufferANDROID\00", align 1
@.str.433 = private unnamed_addr constant [17 x i8] c"vkGetMemoryFdKHR\00", align 1
@.str.434 = private unnamed_addr constant [27 x i8] c"vkGetMemoryFdPropertiesKHR\00", align 1
@.str.435 = private unnamed_addr constant [36 x i8] c"vkGetMemoryHostPointerPropertiesEXT\00", align 1
@.str.436 = private unnamed_addr constant [26 x i8] c"vkGetMemoryWin32HandleKHR\00", align 1
@.str.437 = private unnamed_addr constant [29 x i8] c"VK_KHR_external_memory_win32\00", align 1
@.str.438 = private unnamed_addr constant [25 x i8] c"vkGetMemoryWin32HandleNV\00", align 1
@.str.439 = private unnamed_addr constant [28 x i8] c"VK_NV_external_memory_win32\00", align 1
@.str.440 = private unnamed_addr constant [36 x i8] c"vkGetMemoryWin32HandlePropertiesKHR\00", align 1
@.str.441 = private unnamed_addr constant [31 x i8] c"vkGetMemoryZirconHandleFUCHSIA\00", align 1
@.str.442 = private unnamed_addr constant [27 x i8] c"VK_FUCHSIA_external_memory\00", align 1
@.str.443 = private unnamed_addr constant [41 x i8] c"vkGetMemoryZirconHandlePropertiesFUCHSIA\00", align 1
@.str.444 = private unnamed_addr constant [34 x i8] c"vkGetPastPresentationTimingGOOGLE\00", align 1
@.str.445 = private unnamed_addr constant [31 x i8] c"vkGetPerformanceParameterINTEL\00", align 1
@.str.446 = private unnamed_addr constant [50 x i8] c"vkGetPipelineExecutableInternalRepresentationsKHR\00", align 1
@.str.447 = private unnamed_addr constant [37 x i8] c"vkGetPipelineExecutablePropertiesKHR\00", align 1
@.str.448 = private unnamed_addr constant [37 x i8] c"vkGetPipelineExecutableStatisticsKHR\00", align 1
@.str.449 = private unnamed_addr constant [20 x i8] c"vkGetPrivateDataEXT\00", align 1
@.str.450 = private unnamed_addr constant [28 x i8] c"vkGetQueueCheckpointData2NV\00", align 1
@.str.451 = private unnamed_addr constant [27 x i8] c"vkGetQueueCheckpointDataNV\00", align 1
@.str.452 = private unnamed_addr constant [50 x i8] c"vkGetRayTracingCaptureReplayShaderGroupHandlesKHR\00", align 1
@.str.453 = private unnamed_addr constant [37 x i8] c"vkGetRayTracingShaderGroupHandlesKHR\00", align 1
@.str.454 = private unnamed_addr constant [36 x i8] c"vkGetRayTracingShaderGroupHandlesNV\00", align 1
@.str.455 = private unnamed_addr constant [39 x i8] c"vkGetRayTracingShaderGroupStackSizeKHR\00", align 1
@.str.456 = private unnamed_addr constant [32 x i8] c"vkGetRefreshCycleDurationGOOGLE\00", align 1
@.str.457 = private unnamed_addr constant [27 x i8] c"vkGetSemaphoreCounterValue\00", align 1
@.str.458 = private unnamed_addr constant [30 x i8] c"vkGetSemaphoreCounterValueKHR\00", align 1
@.str.459 = private unnamed_addr constant [20 x i8] c"vkGetSemaphoreFdKHR\00", align 1
@.str.460 = private unnamed_addr constant [29 x i8] c"vkGetSemaphoreWin32HandleKHR\00", align 1
@.str.461 = private unnamed_addr constant [32 x i8] c"VK_KHR_external_semaphore_win32\00", align 1
@.str.462 = private unnamed_addr constant [34 x i8] c"vkGetSemaphoreZirconHandleFUCHSIA\00", align 1
@.str.463 = private unnamed_addr constant [30 x i8] c"VK_FUCHSIA_external_semaphore\00", align 1
@.str.464 = private unnamed_addr constant [19 x i8] c"vkGetShaderInfoAMD\00", align 1
@.str.465 = private unnamed_addr constant [25 x i8] c"vkGetSwapchainCounterEXT\00", align 1
@.str.466 = private unnamed_addr constant [24 x i8] c"vkGetSwapchainImagesKHR\00", align 1
@.str.467 = private unnamed_addr constant [24 x i8] c"vkGetSwapchainStatusKHR\00", align 1
@.str.468 = private unnamed_addr constant [28 x i8] c"vkGetValidationCacheDataEXT\00", align 1
@.str.469 = private unnamed_addr constant [39 x i8] c"vkGetVideoSessionMemoryRequirementsKHR\00", align 1
@.str.470 = private unnamed_addr constant [19 x i8] c"vkImportFenceFdKHR\00", align 1
@.str.471 = private unnamed_addr constant [28 x i8] c"vkImportFenceWin32HandleKHR\00", align 1
@.str.472 = private unnamed_addr constant [23 x i8] c"vkImportSemaphoreFdKHR\00", align 1
@.str.473 = private unnamed_addr constant [32 x i8] c"vkImportSemaphoreWin32HandleKHR\00", align 1
@.str.474 = private unnamed_addr constant [37 x i8] c"vkImportSemaphoreZirconHandleFUCHSIA\00", align 1
@.str.475 = private unnamed_addr constant [32 x i8] c"vkInitializePerformanceApiINTEL\00", align 1
@.str.476 = private unnamed_addr constant [27 x i8] c"vkMergeValidationCachesEXT\00", align 1
@.str.477 = private unnamed_addr constant [31 x i8] c"vkQueueBeginDebugUtilsLabelEXT\00", align 1
@.str.478 = private unnamed_addr constant [29 x i8] c"vkQueueEndDebugUtilsLabelEXT\00", align 1
@.str.479 = private unnamed_addr constant [32 x i8] c"vkQueueInsertDebugUtilsLabelEXT\00", align 1
@.str.480 = private unnamed_addr constant [18 x i8] c"vkQueuePresentKHR\00", align 1
@.str.481 = private unnamed_addr constant [40 x i8] c"vkQueueSetPerformanceConfigurationINTEL\00", align 1
@.str.482 = private unnamed_addr constant [18 x i8] c"vkQueueSubmit2KHR\00", align 1
@.str.483 = private unnamed_addr constant [25 x i8] c"vkRegisterDeviceEventEXT\00", align 1
@.str.484 = private unnamed_addr constant [26 x i8] c"vkRegisterDisplayEventEXT\00", align 1
@.str.485 = private unnamed_addr constant [36 x i8] c"vkReleaseFullScreenExclusiveModeEXT\00", align 1
@.str.486 = private unnamed_addr constant [39 x i8] c"vkReleasePerformanceConfigurationINTEL\00", align 1
@.str.487 = private unnamed_addr constant [26 x i8] c"vkReleaseProfilingLockKHR\00", align 1
@.str.488 = private unnamed_addr constant [17 x i8] c"vkResetQueryPool\00", align 1
@.str.489 = private unnamed_addr constant [20 x i8] c"vkResetQueryPoolEXT\00", align 1
@.str.490 = private unnamed_addr constant [29 x i8] c"vkSetDebugUtilsObjectNameEXT\00", align 1
@.str.491 = private unnamed_addr constant [28 x i8] c"vkSetDebugUtilsObjectTagEXT\00", align 1
@.str.492 = private unnamed_addr constant [20 x i8] c"vkSetHdrMetadataEXT\00", align 1
@.str.493 = private unnamed_addr constant [21 x i8] c"vkSetLocalDimmingAMD\00", align 1
@.str.494 = private unnamed_addr constant [20 x i8] c"vkSetPrivateDataEXT\00", align 1
@.str.495 = private unnamed_addr constant [18 x i8] c"vkSignalSemaphore\00", align 1
@.str.496 = private unnamed_addr constant [21 x i8] c"vkSignalSemaphoreKHR\00", align 1
@.str.497 = private unnamed_addr constant [18 x i8] c"vkTrimCommandPool\00", align 1
@.str.498 = private unnamed_addr constant [21 x i8] c"vkTrimCommandPoolKHR\00", align 1
@.str.499 = private unnamed_addr constant [34 x i8] c"vkUninitializePerformanceApiINTEL\00", align 1
@.str.500 = private unnamed_addr constant [34 x i8] c"vkUpdateDescriptorSetWithTemplate\00", align 1
@.str.501 = private unnamed_addr constant [37 x i8] c"vkUpdateDescriptorSetWithTemplateKHR\00", align 1
@.str.502 = private unnamed_addr constant [34 x i8] c"vkUpdateVideoSessionParametersKHR\00", align 1
@.str.503 = private unnamed_addr constant [17 x i8] c"vkWaitSemaphores\00", align 1
@.str.504 = private unnamed_addr constant [20 x i8] c"vkWaitSemaphoresKHR\00", align 1
@.str.505 = private unnamed_addr constant [43 x i8] c"vkWriteAccelerationStructuresPropertiesKHR\00", align 1
@_ZN14sync_vuid_maps15kFeatureNameMapE = hidden global %"class.std::__1::map" zeroinitializer, align 8
@.str.507 = private unnamed_addr constant [15 x i8] c"geometryShader\00", align 1
@.str.508 = private unnamed_addr constant [19 x i8] c"tessellationShader\00", align 1
@.str.509 = private unnamed_addr constant [21 x i8] c"conditionalRendering\00", align 1
@.str.510 = private unnamed_addr constant [16 x i8] c"fragmentDensity\00", align 1
@.str.511 = private unnamed_addr constant [18 x i8] c"transformFeedback\00", align 1
@.str.512 = private unnamed_addr constant [11 x i8] c"meshShader\00", align 1
@.str.513 = private unnamed_addr constant [11 x i8] c"taskShader\00", align 1
@.str.514 = private unnamed_addr constant [12 x i8] c"shadingRate\00", align 1
@.str.515 = private unnamed_addr constant [11 x i8] c"rayTracing\00", align 1
@_ZN14sync_vuid_mapsL16kStageMaskErrorsE = internal global %"class.std::__1::map.216" zeroinitializer, align 8
@.str.517 = private unnamed_addr constant [50 x i8] c"VUID-VkBufferMemoryBarrier2KHR-dstStageMask-03931\00", align 1
@.str.518 = private unnamed_addr constant [50 x i8] c"VUID-VkBufferMemoryBarrier2KHR-srcStageMask-03931\00", align 1
@.str.519 = private unnamed_addr constant [45 x i8] c"VUID-vkCmdPipelineBarrier-dstStageMask-04092\00", align 1
@.str.520 = private unnamed_addr constant [45 x i8] c"VUID-vkCmdPipelineBarrier-srcStageMask-04092\00", align 1
@.str.521 = private unnamed_addr constant [41 x i8] c"VUID-vkCmdResetEvent2KHR-stageMask-03931\00", align 1
@.str.522 = private unnamed_addr constant [37 x i8] c"VUID-vkCmdResetEvent-stageMask-04092\00", align 1
@.str.523 = private unnamed_addr constant [35 x i8] c"VUID-vkCmdSetEvent-stageMask-04092\00", align 1
@.str.524 = private unnamed_addr constant [40 x i8] c"VUID-vkCmdWaitEvents-dstStageMask-04092\00", align 1
@.str.525 = private unnamed_addr constant [40 x i8] c"VUID-vkCmdWaitEvents-srcStageMask-04092\00", align 1
@.str.526 = private unnamed_addr constant [41 x i8] c"VUID-vkCmdWriteTimestamp2KHR-stage-03931\00", align 1
@.str.527 = private unnamed_addr constant [45 x i8] c"VUID-vkCmdWriteTimestamp-pipelineStage-04077\00", align 1
@.str.528 = private unnamed_addr constant [49 x i8] c"VUID-VkImageMemoryBarrier2KHR-dstStageMask-03931\00", align 1
@.str.529 = private unnamed_addr constant [49 x i8] c"VUID-VkImageMemoryBarrier2KHR-srcStageMask-03931\00", align 1
@.str.530 = private unnamed_addr constant [44 x i8] c"VUID-VkMemoryBarrier2KHR-dstStageMask-03931\00", align 1
@.str.531 = private unnamed_addr constant [44 x i8] c"VUID-VkMemoryBarrier2KHR-srcStageMask-03931\00", align 1
@.str.532 = private unnamed_addr constant [46 x i8] c"VUID-VkSemaphoreSubmitInfoKHR-stageMask-03931\00", align 1
@.str.533 = private unnamed_addr constant [74 x i8] c"UNASSIGNED-CoreChecks-VkSubmitInfo-pWaitDstStageMask-conditionalRendering\00", align 1
@.str.534 = private unnamed_addr constant [76 x i8] c"UNASSIGNED-CoreChecks-VkSubpassDependency-srcStageMask-conditionalRendering\00", align 1
@.str.535 = private unnamed_addr constant [76 x i8] c"UNASSIGNED-CoreChecks-VkSubpassDependency-dstStageMask-conditionalRendering\00", align 1
@.str.536 = private unnamed_addr constant [77 x i8] c"UNASSIGNED-CoreChecks-VkSubpassDependency2-srcStageMask-conditionalRendering\00", align 1
@.str.537 = private unnamed_addr constant [77 x i8] c"UNASSIGNED-CoreChecks-VkSubpassDependency2-dstStageMask-conditionalRendering\00", align 1
@.str.538 = private unnamed_addr constant [50 x i8] c"VUID-VkBufferMemoryBarrier2KHR-dstStageMask-03932\00", align 1
@.str.539 = private unnamed_addr constant [50 x i8] c"VUID-VkBufferMemoryBarrier2KHR-srcStageMask-03932\00", align 1
@.str.540 = private unnamed_addr constant [45 x i8] c"VUID-vkCmdPipelineBarrier-dstStageMask-04093\00", align 1
@.str.541 = private unnamed_addr constant [45 x i8] c"VUID-vkCmdPipelineBarrier-srcStageMask-04093\00", align 1
@.str.542 = private unnamed_addr constant [41 x i8] c"VUID-vkCmdResetEvent2KHR-stageMask-03932\00", align 1
@.str.543 = private unnamed_addr constant [37 x i8] c"VUID-vkCmdResetEvent-stageMask-04093\00", align 1
@.str.544 = private unnamed_addr constant [35 x i8] c"VUID-vkCmdSetEvent-stageMask-04093\00", align 1
@.str.545 = private unnamed_addr constant [40 x i8] c"VUID-vkCmdWaitEvents-dstStageMask-04093\00", align 1
@.str.546 = private unnamed_addr constant [40 x i8] c"VUID-vkCmdWaitEvents-srcStageMask-04093\00", align 1
@.str.547 = private unnamed_addr constant [41 x i8] c"VUID-vkCmdWriteTimestamp2KHR-stage-03932\00", align 1
@.str.548 = private unnamed_addr constant [45 x i8] c"VUID-vkCmdWriteTimestamp-pipelineStage-04078\00", align 1
@.str.549 = private unnamed_addr constant [49 x i8] c"VUID-VkImageMemoryBarrier2KHR-dstStageMask-03932\00", align 1
@.str.550 = private unnamed_addr constant [49 x i8] c"VUID-VkImageMemoryBarrier2KHR-srcStageMask-03932\00", align 1
@.str.551 = private unnamed_addr constant [44 x i8] c"VUID-VkMemoryBarrier2KHR-dstStageMask-03932\00", align 1
@.str.552 = private unnamed_addr constant [44 x i8] c"VUID-VkMemoryBarrier2KHR-srcStageMask-03932\00", align 1
@.str.553 = private unnamed_addr constant [46 x i8] c"VUID-VkSemaphoreSubmitInfoKHR-stageMask-03932\00", align 1
@.str.554 = private unnamed_addr constant [69 x i8] c"UNASSIGNED-CoreChecks-VkSubmitInfo-pWaitDstStageMask-fragmentDensity\00", align 1
@.str.555 = private unnamed_addr constant [71 x i8] c"UNASSIGNED-CoreChecks-VkSubpassDependency-srcStageMask-fragmentDensity\00", align 1
@.str.556 = private unnamed_addr constant [71 x i8] c"UNASSIGNED-CoreChecks-VkSubpassDependency-dstStageMask-fragmentDensity\00", align 1
@.str.557 = private unnamed_addr constant [72 x i8] c"UNASSIGNED-CoreChecks-VkSubpassDependency2-srcStageMask-fragmentDensity\00", align 1
@.str.558 = private unnamed_addr constant [72 x i8] c"UNASSIGNED-CoreChecks-VkSubpassDependency2-dstStageMask-fragmentDensity\00", align 1
@.str.559 = private unnamed_addr constant [50 x i8] c"VUID-VkBufferMemoryBarrier2KHR-dstStageMask-03936\00", align 1
@.str.560 = private unnamed_addr constant [50 x i8] c"VUID-VkBufferMemoryBarrier2KHR-srcStageMask-03936\00", align 1
@.str.561 = private unnamed_addr constant [45 x i8] c"VUID-vkCmdPipelineBarrier-dstStageMask-04097\00", align 1
@.str.562 = private unnamed_addr constant [45 x i8] c"VUID-vkCmdPipelineBarrier-srcStageMask-04097\00", align 1
@.str.563 = private unnamed_addr constant [41 x i8] c"VUID-vkCmdResetEvent2KHR-stageMask-03936\00", align 1
@.str.564 = private unnamed_addr constant [37 x i8] c"VUID-vkCmdResetEvent-stageMask-04097\00", align 1
@.str.565 = private unnamed_addr constant [35 x i8] c"VUID-vkCmdSetEvent-stageMask-04097\00", align 1
@.str.566 = private unnamed_addr constant [40 x i8] c"VUID-vkCmdWaitEvents-dstStageMask-04097\00", align 1
@.str.567 = private unnamed_addr constant [40 x i8] c"VUID-vkCmdWaitEvents-srcStageMask-04097\00", align 1
@.str.568 = private unnamed_addr constant [41 x i8] c"VUID-vkCmdWriteTimestamp2KHR-stage-03936\00", align 1
@.str.569 = private unnamed_addr constant [45 x i8] c"VUID-vkCmdWriteTimestamp-pipelineStage-04081\00", align 1
@.str.570 = private unnamed_addr constant [49 x i8] c"VUID-VkImageMemoryBarrier2KHR-dstStageMask-03936\00", align 1
@.str.571 = private unnamed_addr constant [49 x i8] c"VUID-VkImageMemoryBarrier2KHR-srcStageMask-03936\00", align 1
@.str.572 = private unnamed_addr constant [44 x i8] c"VUID-VkMemoryBarrier2KHR-dstStageMask-03936\00", align 1
@.str.573 = private unnamed_addr constant [44 x i8] c"VUID-VkMemoryBarrier2KHR-srcStageMask-03936\00", align 1
@.str.574 = private unnamed_addr constant [46 x i8] c"VUID-VkSemaphoreSubmitInfoKHR-stageMask-03936\00", align 1
@.str.575 = private unnamed_addr constant [65 x i8] c"UNASSIGNED-CoreChecks-VkSubmitInfo-pWaitDstStageMask-shadingRate\00", align 1
@.str.576 = private unnamed_addr constant [67 x i8] c"UNASSIGNED-CoreChecks-VkSubpassDependency-srcStageMask-shadingRate\00", align 1
@.str.577 = private unnamed_addr constant [67 x i8] c"UNASSIGNED-CoreChecks-VkSubpassDependency-dstStageMask-shadingRate\00", align 1
@.str.578 = private unnamed_addr constant [68 x i8] c"UNASSIGNED-CoreChecks-VkSubpassDependency2-srcStageMask-shadingRate\00", align 1
@.str.579 = private unnamed_addr constant [68 x i8] c"UNASSIGNED-CoreChecks-VkSubpassDependency2-dstStageMask-shadingRate\00", align 1
@.str.580 = private unnamed_addr constant [50 x i8] c"VUID-VkBufferMemoryBarrier2KHR-dstStageMask-03929\00", align 1
@.str.581 = private unnamed_addr constant [50 x i8] c"VUID-VkBufferMemoryBarrier2KHR-srcStageMask-03929\00", align 1
@.str.582 = private unnamed_addr constant [45 x i8] c"VUID-vkCmdPipelineBarrier-dstStageMask-04090\00", align 1
@.str.583 = private unnamed_addr constant [45 x i8] c"VUID-vkCmdPipelineBarrier-srcStageMask-04090\00", align 1
@.str.584 = private unnamed_addr constant [41 x i8] c"VUID-vkCmdResetEvent2KHR-stageMask-03929\00", align 1
@.str.585 = private unnamed_addr constant [37 x i8] c"VUID-vkCmdResetEvent-stageMask-04090\00", align 1
@.str.586 = private unnamed_addr constant [35 x i8] c"VUID-vkCmdSetEvent-stageMask-04090\00", align 1
@.str.587 = private unnamed_addr constant [40 x i8] c"VUID-vkCmdWaitEvents-dstStageMask-04090\00", align 1
@.str.588 = private unnamed_addr constant [40 x i8] c"VUID-vkCmdWaitEvents-srcStageMask-04090\00", align 1
@.str.589 = private unnamed_addr constant [41 x i8] c"VUID-vkCmdWriteTimestamp2KHR-stage-03929\00", align 1
@.str.590 = private unnamed_addr constant [45 x i8] c"VUID-vkCmdWriteTimestamp-pipelineStage-04075\00", align 1
@.str.591 = private unnamed_addr constant [49 x i8] c"VUID-VkImageMemoryBarrier2KHR-dstStageMask-03929\00", align 1
@.str.592 = private unnamed_addr constant [49 x i8] c"VUID-VkImageMemoryBarrier2KHR-srcStageMask-03929\00", align 1
@.str.593 = private unnamed_addr constant [44 x i8] c"VUID-VkMemoryBarrier2KHR-dstStageMask-03929\00", align 1
@.str.594 = private unnamed_addr constant [44 x i8] c"VUID-VkMemoryBarrier2KHR-srcStageMask-03929\00", align 1
@.str.595 = private unnamed_addr constant [46 x i8] c"VUID-VkSemaphoreSubmitInfoKHR-stageMask-03929\00", align 1
@.str.596 = private unnamed_addr constant [42 x i8] c"VUID-VkSubmitInfo-pWaitDstStageMask-00076\00", align 1
@.str.597 = private unnamed_addr constant [44 x i8] c"VUID-VkSubpassDependency-srcStageMask-00860\00", align 1
@.str.598 = private unnamed_addr constant [44 x i8] c"VUID-VkSubpassDependency-dstStageMask-00861\00", align 1
@.str.599 = private unnamed_addr constant [45 x i8] c"VUID-VkSubpassDependency2-srcStageMask-03080\00", align 1
@.str.600 = private unnamed_addr constant [45 x i8] c"VUID-VkSubpassDependency2-dstStageMask-03081\00", align 1
@.str.601 = private unnamed_addr constant [50 x i8] c"VUID-VkBufferMemoryBarrier2KHR-dstStageMask-03934\00", align 1
@.str.602 = private unnamed_addr constant [50 x i8] c"VUID-VkBufferMemoryBarrier2KHR-srcStageMask-03934\00", align 1
@.str.603 = private unnamed_addr constant [45 x i8] c"VUID-vkCmdPipelineBarrier-dstStageMask-04095\00", align 1
@.str.604 = private unnamed_addr constant [45 x i8] c"VUID-vkCmdPipelineBarrier-srcStageMask-04095\00", align 1
@.str.605 = private unnamed_addr constant [41 x i8] c"VUID-vkCmdResetEvent2KHR-stageMask-03934\00", align 1
@.str.606 = private unnamed_addr constant [37 x i8] c"VUID-vkCmdResetEvent-stageMask-04095\00", align 1
@.str.607 = private unnamed_addr constant [35 x i8] c"VUID-vkCmdSetEvent-stageMask-04095\00", align 1
@.str.608 = private unnamed_addr constant [40 x i8] c"VUID-vkCmdWaitEvents-dstStageMask-04095\00", align 1
@.str.609 = private unnamed_addr constant [40 x i8] c"VUID-vkCmdWaitEvents-srcStageMask-04095\00", align 1
@.str.610 = private unnamed_addr constant [41 x i8] c"VUID-vkCmdWriteTimestamp2KHR-stage-03934\00", align 1
@.str.611 = private unnamed_addr constant [45 x i8] c"VUID-vkCmdWriteTimestamp-pipelineStage-04080\00", align 1
@.str.612 = private unnamed_addr constant [49 x i8] c"VUID-VkImageMemoryBarrier2KHR-dstStageMask-03934\00", align 1
@.str.613 = private unnamed_addr constant [49 x i8] c"VUID-VkImageMemoryBarrier2KHR-srcStageMask-03934\00", align 1
@.str.614 = private unnamed_addr constant [44 x i8] c"VUID-VkMemoryBarrier2KHR-dstStageMask-03934\00", align 1
@.str.615 = private unnamed_addr constant [44 x i8] c"VUID-VkMemoryBarrier2KHR-srcStageMask-03934\00", align 1
@.str.616 = private unnamed_addr constant [46 x i8] c"VUID-VkSemaphoreSubmitInfoKHR-stageMask-03934\00", align 1
@.str.617 = private unnamed_addr constant [42 x i8] c"VUID-VkSubmitInfo-pWaitDstStageMask-02089\00", align 1
@.str.618 = private unnamed_addr constant [44 x i8] c"VUID-VkSubpassDependency-srcStageMask-02099\00", align 1
@.str.619 = private unnamed_addr constant [44 x i8] c"VUID-VkSubpassDependency-dstStageMask-02101\00", align 1
@.str.620 = private unnamed_addr constant [45 x i8] c"VUID-VkSubpassDependency2-srcStageMask-02103\00", align 1
@.str.621 = private unnamed_addr constant [45 x i8] c"VUID-VkSubpassDependency2-dstStageMask-02105\00", align 1
@.str.622 = private unnamed_addr constant [50 x i8] c"VUID-VkBufferMemoryBarrier2KHR-dstStageMask-03935\00", align 1
@.str.623 = private unnamed_addr constant [50 x i8] c"VUID-VkBufferMemoryBarrier2KHR-srcStageMask-03935\00", align 1
@.str.624 = private unnamed_addr constant [45 x i8] c"VUID-vkCmdPipelineBarrier-dstStageMask-04096\00", align 1
@.str.625 = private unnamed_addr constant [45 x i8] c"VUID-vkCmdPipelineBarrier-srcStageMask-04096\00", align 1
@.str.626 = private unnamed_addr constant [41 x i8] c"VUID-vkCmdResetEvent2KHR-stageMask-03935\00", align 1
@.str.627 = private unnamed_addr constant [37 x i8] c"VUID-vkCmdResetEvent-stageMask-04096\00", align 1
@.str.628 = private unnamed_addr constant [35 x i8] c"VUID-vkCmdSetEvent-stageMask-04096\00", align 1
@.str.629 = private unnamed_addr constant [40 x i8] c"VUID-vkCmdWaitEvents-dstStageMask-04096\00", align 1
@.str.630 = private unnamed_addr constant [40 x i8] c"VUID-vkCmdWaitEvents-srcStageMask-04096\00", align 1
@.str.631 = private unnamed_addr constant [41 x i8] c"VUID-vkCmdWriteTimestamp2KHR-stage-03935\00", align 1
@.str.632 = private unnamed_addr constant [49 x i8] c"VUID-VkImageMemoryBarrier2KHR-dstStageMask-03935\00", align 1
@.str.633 = private unnamed_addr constant [49 x i8] c"VUID-VkImageMemoryBarrier2KHR-srcStageMask-03935\00", align 1
@.str.634 = private unnamed_addr constant [44 x i8] c"VUID-VkMemoryBarrier2KHR-dstStageMask-03935\00", align 1
@.str.635 = private unnamed_addr constant [44 x i8] c"VUID-VkMemoryBarrier2KHR-srcStageMask-03935\00", align 1
@.str.636 = private unnamed_addr constant [46 x i8] c"VUID-VkSemaphoreSubmitInfoKHR-stageMask-03935\00", align 1
@.str.637 = private unnamed_addr constant [42 x i8] c"VUID-VkSubmitInfo-pWaitDstStageMask-02090\00", align 1
@.str.638 = private unnamed_addr constant [44 x i8] c"VUID-VkSubpassDependency-srcStageMask-02100\00", align 1
@.str.639 = private unnamed_addr constant [44 x i8] c"VUID-VkSubpassDependency-dstStageMask-02102\00", align 1
@.str.640 = private unnamed_addr constant [45 x i8] c"VUID-VkSubpassDependency2-srcStageMask-02104\00", align 1
@.str.641 = private unnamed_addr constant [45 x i8] c"VUID-VkSubpassDependency2-dstStageMask-02106\00", align 1
@.str.642 = private unnamed_addr constant [50 x i8] c"VUID-VkBufferMemoryBarrier2KHR-dstStageMask-03930\00", align 1
@.str.643 = private unnamed_addr constant [50 x i8] c"VUID-VkBufferMemoryBarrier2KHR-srcStageMask-03930\00", align 1
@.str.644 = private unnamed_addr constant [45 x i8] c"VUID-vkCmdPipelineBarrier-dstStageMask-04091\00", align 1
@.str.645 = private unnamed_addr constant [45 x i8] c"VUID-vkCmdPipelineBarrier-srcStageMask-04091\00", align 1
@.str.646 = private unnamed_addr constant [41 x i8] c"VUID-vkCmdResetEvent2KHR-stageMask-03930\00", align 1
@.str.647 = private unnamed_addr constant [37 x i8] c"VUID-vkCmdResetEvent-stageMask-04091\00", align 1
@.str.648 = private unnamed_addr constant [35 x i8] c"VUID-vkCmdSetEvent-stageMask-04091\00", align 1
@.str.649 = private unnamed_addr constant [40 x i8] c"VUID-vkCmdWaitEvents-dstStageMask-04091\00", align 1
@.str.650 = private unnamed_addr constant [40 x i8] c"VUID-vkCmdWaitEvents-srcStageMask-04091\00", align 1
@.str.651 = private unnamed_addr constant [41 x i8] c"VUID-vkCmdWriteTimestamp2KHR-stage-03930\00", align 1
@.str.652 = private unnamed_addr constant [45 x i8] c"VUID-vkCmdWriteTimestamp-pipelineStage-04076\00", align 1
@.str.653 = private unnamed_addr constant [49 x i8] c"VUID-VkImageMemoryBarrier2KHR-dstStageMask-03930\00", align 1
@.str.654 = private unnamed_addr constant [49 x i8] c"VUID-VkImageMemoryBarrier2KHR-srcStageMask-03930\00", align 1
@.str.655 = private unnamed_addr constant [44 x i8] c"VUID-VkMemoryBarrier2KHR-dstStageMask-03930\00", align 1
@.str.656 = private unnamed_addr constant [44 x i8] c"VUID-VkMemoryBarrier2KHR-srcStageMask-03930\00", align 1
@.str.657 = private unnamed_addr constant [46 x i8] c"VUID-VkSemaphoreSubmitInfoKHR-stageMask-03930\00", align 1
@.str.658 = private unnamed_addr constant [42 x i8] c"VUID-VkSubmitInfo-pWaitDstStageMask-00077\00", align 1
@.str.659 = private unnamed_addr constant [44 x i8] c"VUID-VkSubpassDependency-srcStageMask-00862\00", align 1
@.str.660 = private unnamed_addr constant [44 x i8] c"VUID-VkSubpassDependency-dstStageMask-00863\00", align 1
@.str.661 = private unnamed_addr constant [45 x i8] c"VUID-VkSubpassDependency2-srcStageMask-03082\00", align 1
@.str.662 = private unnamed_addr constant [45 x i8] c"VUID-VkSubpassDependency2-dstStageMask-03083\00", align 1
@.str.663 = private unnamed_addr constant [50 x i8] c"VUID-VkBufferMemoryBarrier2KHR-dstStageMask-03933\00", align 1
@.str.664 = private unnamed_addr constant [50 x i8] c"VUID-VkBufferMemoryBarrier2KHR-srcStageMask-03933\00", align 1
@.str.665 = private unnamed_addr constant [45 x i8] c"VUID-vkCmdPipelineBarrier-dstStageMask-04094\00", align 1
@.str.666 = private unnamed_addr constant [45 x i8] c"VUID-vkCmdPipelineBarrier-srcStageMask-04094\00", align 1
@.str.667 = private unnamed_addr constant [41 x i8] c"VUID-vkCmdResetEvent2KHR-stageMask-03933\00", align 1
@.str.668 = private unnamed_addr constant [37 x i8] c"VUID-vkCmdResetEvent-stageMask-04094\00", align 1
@.str.669 = private unnamed_addr constant [35 x i8] c"VUID-vkCmdSetEvent-stageMask-04094\00", align 1
@.str.670 = private unnamed_addr constant [40 x i8] c"VUID-vkCmdWaitEvents-dstStageMask-04094\00", align 1
@.str.671 = private unnamed_addr constant [40 x i8] c"VUID-vkCmdWaitEvents-srcStageMask-04094\00", align 1
@.str.672 = private unnamed_addr constant [41 x i8] c"VUID-vkCmdWriteTimestamp2KHR-stage-03933\00", align 1
@.str.673 = private unnamed_addr constant [45 x i8] c"VUID-vkCmdWriteTimestamp-pipelineStage-04079\00", align 1
@.str.674 = private unnamed_addr constant [49 x i8] c"VUID-VkImageMemoryBarrier2KHR-dstStageMask-03933\00", align 1
@.str.675 = private unnamed_addr constant [49 x i8] c"VUID-VkImageMemoryBarrier2KHR-srcStageMask-03933\00", align 1
@.str.676 = private unnamed_addr constant [44 x i8] c"VUID-VkMemoryBarrier2KHR-dstStageMask-03933\00", align 1
@.str.677 = private unnamed_addr constant [44 x i8] c"VUID-VkMemoryBarrier2KHR-srcStageMask-03933\00", align 1
@.str.678 = private unnamed_addr constant [46 x i8] c"VUID-VkSemaphoreSubmitInfoKHR-stageMask-03933\00", align 1
@.str.679 = private unnamed_addr constant [71 x i8] c"UNASSIGNED-CoreChecks-VkSubmitInfo-pWaitDstStageMask-transformFeedback\00", align 1
@.str.680 = private unnamed_addr constant [73 x i8] c"UNASSIGNED-CoreChecks-VkSubpassDependency-srcStageMask-transformFeedback\00", align 1
@.str.681 = private unnamed_addr constant [73 x i8] c"UNASSIGNED-CoreChecks-VkSubpassDependency-dstStageMask-transformFeedback\00", align 1
@.str.682 = private unnamed_addr constant [74 x i8] c"UNASSIGNED-CoreChecks-VkSubpassDependency2-srcStageMask-transformFeedback\00", align 1
@.str.683 = private unnamed_addr constant [74 x i8] c"UNASSIGNED-CoreChecks-VkSubpassDependency2-dstStageMask-transformFeedback\00", align 1
@.str.684 = private unnamed_addr constant [45 x i8] c"VUID-vkCmdPipelineBarrier-srcStageMask-03937\00", align 1
@.str.685 = private unnamed_addr constant [45 x i8] c"VUID-vkCmdPipelineBarrier-dstStageMask-03937\00", align 1
@.str.686 = private unnamed_addr constant [37 x i8] c"VUID-vkCmdResetEvent-stageMask-03937\00", align 1
@.str.687 = private unnamed_addr constant [35 x i8] c"VUID-vkCmdSetEvent-stageMask-03937\00", align 1
@.str.688 = private unnamed_addr constant [40 x i8] c"VUID-vkCmdWaitEvents-srcStageMask-03937\00", align 1
@.str.689 = private unnamed_addr constant [40 x i8] c"VUID-vkCmdWaitEvents-dstStageMask-03937\00", align 1
@.str.690 = private unnamed_addr constant [66 x i8] c"UNASSIGNED-CoreChecks-vkCmdWriteTimestamp-pipelineStage-noneStage\00", align 1
@.str.691 = private unnamed_addr constant [63 x i8] c"UNASSIGNED-CoreChecks-VkSubmitInfo-pWaitDstStageMask-noneStage\00", align 1
@.str.692 = private unnamed_addr constant [65 x i8] c"UNASSIGNED-CoreChecks-VkSubpassDependency-srcStageMask-noneStage\00", align 1
@.str.693 = private unnamed_addr constant [65 x i8] c"UNASSIGNED-CoreChecks-VkSubpassDependency-dstStageMask-noneStage\00", align 1
@.str.694 = private unnamed_addr constant [66 x i8] c"UNASSIGNED-CoreChecks-VkSubpassDependency2-srcStageMask-noneStage\00", align 1
@.str.695 = private unnamed_addr constant [66 x i8] c"UNASSIGNED-CoreChecks-VkSubpassDependency2-dstStageMask-noneStage\00", align 1
@_ZZN14sync_vuid_maps17GetBadFeatureVUIDERKN10core_error8LocationEmE9unhandled = internal global %"class.std::__1::basic_string" zeroinitializer, align 8
@_ZGVZN14sync_vuid_maps17GetBadFeatureVUIDERKN10core_error8LocationEmE9unhandled = internal global i64 0, align 8
@.str.696 = private unnamed_addr constant [54 x i8] c"UNASSIGNED-CoreChecks-unhandle-pipeline-stage-feature\00", align 1
@_ZN14sync_vuid_mapsL18kAccessMask2CommonE = internal global %"class.std::__1::map.235" zeroinitializer, align 8
@.str.698 = private unnamed_addr constant [45 x i8] c"VUID-VkMemoryBarrier2KHR-srcAccessMask-03900\00", align 1
@.str.699 = private unnamed_addr constant [45 x i8] c"VUID-VkMemoryBarrier2KHR-dstAccessMask-03900\00", align 1
@.str.700 = private unnamed_addr constant [51 x i8] c"VUID-VkBufferMemoryBarrier2KHR-srcAccessMask-03900\00", align 1
@.str.701 = private unnamed_addr constant [51 x i8] c"VUID-VkBufferMemoryBarrier2KHR-dstAccessMask-03900\00", align 1
@.str.702 = private unnamed_addr constant [50 x i8] c"VUID-VkImageMemoryBarrier2KHR-srcAccessMask-03900\00", align 1
@.str.703 = private unnamed_addr constant [50 x i8] c"VUID-VkImageMemoryBarrier2KHR-dstAccessMask-03900\00", align 1
@.str.704 = private unnamed_addr constant [45 x i8] c"VUID-VkMemoryBarrier2KHR-srcAccessMask-03901\00", align 1
@.str.705 = private unnamed_addr constant [45 x i8] c"VUID-VkMemoryBarrier2KHR-dstAccessMask-03901\00", align 1
@.str.706 = private unnamed_addr constant [51 x i8] c"VUID-VkBufferMemoryBarrier2KHR-srcAccessMask-03901\00", align 1
@.str.707 = private unnamed_addr constant [51 x i8] c"VUID-VkBufferMemoryBarrier2KHR-dstAccessMask-03901\00", align 1
@.str.708 = private unnamed_addr constant [50 x i8] c"VUID-VkImageMemoryBarrier2KHR-srcAccessMask-03901\00", align 1
@.str.709 = private unnamed_addr constant [50 x i8] c"VUID-VkImageMemoryBarrier2KHR-dstAccessMask-03901\00", align 1
@.str.710 = private unnamed_addr constant [45 x i8] c"VUID-VkMemoryBarrier2KHR-srcAccessMask-03902\00", align 1
@.str.711 = private unnamed_addr constant [45 x i8] c"VUID-VkMemoryBarrier2KHR-dstAccessMask-03902\00", align 1
@.str.712 = private unnamed_addr constant [51 x i8] c"VUID-VkBufferMemoryBarrier2KHR-srcAccessMask-03902\00", align 1
@.str.713 = private unnamed_addr constant [51 x i8] c"VUID-VkBufferMemoryBarrier2KHR-dstAccessMask-03902\00", align 1
@.str.714 = private unnamed_addr constant [50 x i8] c"VUID-VkImageMemoryBarrier2KHR-srcAccessMask-03902\00", align 1
@.str.715 = private unnamed_addr constant [50 x i8] c"VUID-VkImageMemoryBarrier2KHR-dstAccessMask-03902\00", align 1
@.str.716 = private unnamed_addr constant [45 x i8] c"VUID-VkMemoryBarrier2KHR-srcAccessMask-03903\00", align 1
@.str.717 = private unnamed_addr constant [45 x i8] c"VUID-VkMemoryBarrier2KHR-dstAccessMask-03903\00", align 1
@.str.718 = private unnamed_addr constant [51 x i8] c"VUID-VkBufferMemoryBarrier2KHR-srcAccessMask-03903\00", align 1
@.str.719 = private unnamed_addr constant [51 x i8] c"VUID-VkBufferMemoryBarrier2KHR-dstAccessMask-03903\00", align 1
@.str.720 = private unnamed_addr constant [50 x i8] c"VUID-VkImageMemoryBarrier2KHR-srcAccessMask-03903\00", align 1
@.str.721 = private unnamed_addr constant [50 x i8] c"VUID-VkImageMemoryBarrier2KHR-dstAccessMask-03903\00", align 1
@.str.722 = private unnamed_addr constant [45 x i8] c"VUID-VkMemoryBarrier2KHR-srcAccessMask-03904\00", align 1
@.str.723 = private unnamed_addr constant [45 x i8] c"VUID-VkMemoryBarrier2KHR-dstAccessMask-03904\00", align 1
@.str.724 = private unnamed_addr constant [51 x i8] c"VUID-VkBufferMemoryBarrier2KHR-srcAccessMask-03904\00", align 1
@.str.725 = private unnamed_addr constant [51 x i8] c"VUID-VkBufferMemoryBarrier2KHR-dstAccessMask-03904\00", align 1
@.str.726 = private unnamed_addr constant [50 x i8] c"VUID-VkImageMemoryBarrier2KHR-srcAccessMask-03904\00", align 1
@.str.727 = private unnamed_addr constant [50 x i8] c"VUID-VkImageMemoryBarrier2KHR-dstAccessMask-03904\00", align 1
@.str.728 = private unnamed_addr constant [45 x i8] c"VUID-VkMemoryBarrier2KHR-srcAccessMask-03905\00", align 1
@.str.729 = private unnamed_addr constant [45 x i8] c"VUID-VkMemoryBarrier2KHR-dstAccessMask-03905\00", align 1
@.str.730 = private unnamed_addr constant [51 x i8] c"VUID-VkBufferMemoryBarrier2KHR-srcAccessMask-03905\00", align 1
@.str.731 = private unnamed_addr constant [51 x i8] c"VUID-VkBufferMemoryBarrier2KHR-dstAccessMask-03905\00", align 1
@.str.732 = private unnamed_addr constant [50 x i8] c"VUID-VkImageMemoryBarrier2KHR-srcAccessMask-03905\00", align 1
@.str.733 = private unnamed_addr constant [50 x i8] c"VUID-VkImageMemoryBarrier2KHR-dstAccessMask-03905\00", align 1
@.str.734 = private unnamed_addr constant [45 x i8] c"VUID-VkMemoryBarrier2KHR-srcAccessMask-03906\00", align 1
@.str.735 = private unnamed_addr constant [45 x i8] c"VUID-VkMemoryBarrier2KHR-dstAccessMask-03906\00", align 1
@.str.736 = private unnamed_addr constant [51 x i8] c"VUID-VkBufferMemoryBarrier2KHR-srcAccessMask-03906\00", align 1
@.str.737 = private unnamed_addr constant [51 x i8] c"VUID-VkBufferMemoryBarrier2KHR-dstAccessMask-03906\00", align 1
@.str.738 = private unnamed_addr constant [50 x i8] c"VUID-VkImageMemoryBarrier2KHR-srcAccessMask-03906\00", align 1
@.str.739 = private unnamed_addr constant [50 x i8] c"VUID-VkImageMemoryBarrier2KHR-dstAccessMask-03906\00", align 1
@.str.740 = private unnamed_addr constant [45 x i8] c"VUID-VkMemoryBarrier2KHR-srcAccessMask-03907\00", align 1
@.str.741 = private unnamed_addr constant [45 x i8] c"VUID-VkMemoryBarrier2KHR-dstAccessMask-03907\00", align 1
@.str.742 = private unnamed_addr constant [51 x i8] c"VUID-VkBufferMemoryBarrier2KHR-srcAccessMask-03907\00", align 1
@.str.743 = private unnamed_addr constant [51 x i8] c"VUID-VkBufferMemoryBarrier2KHR-dstAccessMask-03907\00", align 1
@.str.744 = private unnamed_addr constant [50 x i8] c"VUID-VkImageMemoryBarrier2KHR-srcAccessMask-03907\00", align 1
@.str.745 = private unnamed_addr constant [50 x i8] c"VUID-VkImageMemoryBarrier2KHR-dstAccessMask-03907\00", align 1
@.str.746 = private unnamed_addr constant [45 x i8] c"VUID-VkMemoryBarrier2KHR-srcAccessMask-03908\00", align 1
@.str.747 = private unnamed_addr constant [45 x i8] c"VUID-VkMemoryBarrier2KHR-dstAccessMask-03908\00", align 1
@.str.748 = private unnamed_addr constant [51 x i8] c"VUID-VkBufferMemoryBarrier2KHR-srcAccessMask-03908\00", align 1
@.str.749 = private unnamed_addr constant [51 x i8] c"VUID-VkBufferMemoryBarrier2KHR-dstAccessMask-03908\00", align 1
@.str.750 = private unnamed_addr constant [50 x i8] c"VUID-VkImageMemoryBarrier2KHR-srcAccessMask-03908\00", align 1
@.str.751 = private unnamed_addr constant [50 x i8] c"VUID-VkImageMemoryBarrier2KHR-dstAccessMask-03908\00", align 1
@.str.752 = private unnamed_addr constant [45 x i8] c"VUID-VkMemoryBarrier2KHR-srcAccessMask-03909\00", align 1
@.str.753 = private unnamed_addr constant [45 x i8] c"VUID-VkMemoryBarrier2KHR-dstAccessMask-03909\00", align 1
@.str.754 = private unnamed_addr constant [51 x i8] c"VUID-VkBufferMemoryBarrier2KHR-srcAccessMask-03909\00", align 1
@.str.755 = private unnamed_addr constant [51 x i8] c"VUID-VkBufferMemoryBarrier2KHR-dstAccessMask-03909\00", align 1
@.str.756 = private unnamed_addr constant [50 x i8] c"VUID-VkImageMemoryBarrier2KHR-srcAccessMask-03909\00", align 1
@.str.757 = private unnamed_addr constant [50 x i8] c"VUID-VkImageMemoryBarrier2KHR-dstAccessMask-03909\00", align 1
@.str.758 = private unnamed_addr constant [45 x i8] c"VUID-VkMemoryBarrier2KHR-srcAccessMask-03910\00", align 1
@.str.759 = private unnamed_addr constant [45 x i8] c"VUID-VkMemoryBarrier2KHR-dstAccessMask-03910\00", align 1
@.str.760 = private unnamed_addr constant [51 x i8] c"VUID-VkBufferMemoryBarrier2KHR-srcAccessMask-03910\00", align 1
@.str.761 = private unnamed_addr constant [51 x i8] c"VUID-VkBufferMemoryBarrier2KHR-dstAccessMask-03910\00", align 1
@.str.762 = private unnamed_addr constant [50 x i8] c"VUID-VkImageMemoryBarrier2KHR-srcAccessMask-03910\00", align 1
@.str.763 = private unnamed_addr constant [50 x i8] c"VUID-VkImageMemoryBarrier2KHR-dstAccessMask-03910\00", align 1
@.str.764 = private unnamed_addr constant [45 x i8] c"VUID-VkMemoryBarrier2KHR-srcAccessMask-03911\00", align 1
@.str.765 = private unnamed_addr constant [45 x i8] c"VUID-VkMemoryBarrier2KHR-dstAccessMask-03911\00", align 1
@.str.766 = private unnamed_addr constant [51 x i8] c"VUID-VkBufferMemoryBarrier2KHR-srcAccessMask-03911\00", align 1
@.str.767 = private unnamed_addr constant [51 x i8] c"VUID-VkBufferMemoryBarrier2KHR-dstAccessMask-03911\00", align 1
@.str.768 = private unnamed_addr constant [50 x i8] c"VUID-VkImageMemoryBarrier2KHR-srcAccessMask-03911\00", align 1
@.str.769 = private unnamed_addr constant [50 x i8] c"VUID-VkImageMemoryBarrier2KHR-dstAccessMask-03911\00", align 1
@.str.770 = private unnamed_addr constant [45 x i8] c"VUID-VkMemoryBarrier2KHR-srcAccessMask-03912\00", align 1
@.str.771 = private unnamed_addr constant [45 x i8] c"VUID-VkMemoryBarrier2KHR-dstAccessMask-03912\00", align 1
@.str.772 = private unnamed_addr constant [51 x i8] c"VUID-VkBufferMemoryBarrier2KHR-srcAccessMask-03912\00", align 1
@.str.773 = private unnamed_addr constant [51 x i8] c"VUID-VkBufferMemoryBarrier2KHR-dstAccessMask-03912\00", align 1
@.str.774 = private unnamed_addr constant [50 x i8] c"VUID-VkImageMemoryBarrier2KHR-srcAccessMask-03912\00", align 1
@.str.775 = private unnamed_addr constant [50 x i8] c"VUID-VkImageMemoryBarrier2KHR-dstAccessMask-03912\00", align 1
@.str.776 = private unnamed_addr constant [45 x i8] c"VUID-VkMemoryBarrier2KHR-srcAccessMask-03913\00", align 1
@.str.777 = private unnamed_addr constant [45 x i8] c"VUID-VkMemoryBarrier2KHR-dstAccessMask-03913\00", align 1
@.str.778 = private unnamed_addr constant [51 x i8] c"VUID-VkBufferMemoryBarrier2KHR-srcAccessMask-03913\00", align 1
@.str.779 = private unnamed_addr constant [51 x i8] c"VUID-VkBufferMemoryBarrier2KHR-dstAccessMask-03913\00", align 1
@.str.780 = private unnamed_addr constant [50 x i8] c"VUID-VkImageMemoryBarrier2KHR-srcAccessMask-03913\00", align 1
@.str.781 = private unnamed_addr constant [50 x i8] c"VUID-VkImageMemoryBarrier2KHR-dstAccessMask-03913\00", align 1
@.str.782 = private unnamed_addr constant [45 x i8] c"VUID-VkMemoryBarrier2KHR-srcAccessMask-03914\00", align 1
@.str.783 = private unnamed_addr constant [45 x i8] c"VUID-VkMemoryBarrier2KHR-dstAccessMask-03914\00", align 1
@.str.784 = private unnamed_addr constant [51 x i8] c"VUID-VkBufferMemoryBarrier2KHR-srcAccessMask-03914\00", align 1
@.str.785 = private unnamed_addr constant [51 x i8] c"VUID-VkBufferMemoryBarrier2KHR-dstAccessMask-03914\00", align 1
@.str.786 = private unnamed_addr constant [50 x i8] c"VUID-VkImageMemoryBarrier2KHR-srcAccessMask-03914\00", align 1
@.str.787 = private unnamed_addr constant [50 x i8] c"VUID-VkImageMemoryBarrier2KHR-dstAccessMask-03914\00", align 1
@.str.788 = private unnamed_addr constant [45 x i8] c"VUID-VkMemoryBarrier2KHR-srcAccessMask-03915\00", align 1
@.str.789 = private unnamed_addr constant [45 x i8] c"VUID-VkMemoryBarrier2KHR-dstAccessMask-03915\00", align 1
@.str.790 = private unnamed_addr constant [51 x i8] c"VUID-VkBufferMemoryBarrier2KHR-srcAccessMask-03915\00", align 1
@.str.791 = private unnamed_addr constant [51 x i8] c"VUID-VkBufferMemoryBarrier2KHR-dstAccessMask-03915\00", align 1
@.str.792 = private unnamed_addr constant [50 x i8] c"VUID-VkImageMemoryBarrier2KHR-srcAccessMask-03915\00", align 1
@.str.793 = private unnamed_addr constant [50 x i8] c"VUID-VkImageMemoryBarrier2KHR-dstAccessMask-03915\00", align 1
@.str.794 = private unnamed_addr constant [45 x i8] c"VUID-VkMemoryBarrier2KHR-srcAccessMask-03916\00", align 1
@.str.795 = private unnamed_addr constant [45 x i8] c"VUID-VkMemoryBarrier2KHR-dstAccessMask-03916\00", align 1
@.str.796 = private unnamed_addr constant [51 x i8] c"VUID-VkBufferMemoryBarrier2KHR-srcAccessMask-03916\00", align 1
@.str.797 = private unnamed_addr constant [51 x i8] c"VUID-VkBufferMemoryBarrier2KHR-dstAccessMask-03916\00", align 1
@.str.798 = private unnamed_addr constant [50 x i8] c"VUID-VkImageMemoryBarrier2KHR-srcAccessMask-03916\00", align 1
@.str.799 = private unnamed_addr constant [50 x i8] c"VUID-VkImageMemoryBarrier2KHR-dstAccessMask-03916\00", align 1
@.str.800 = private unnamed_addr constant [45 x i8] c"VUID-VkMemoryBarrier2KHR-srcAccessMask-03917\00", align 1
@.str.801 = private unnamed_addr constant [45 x i8] c"VUID-VkMemoryBarrier2KHR-dstAccessMask-03917\00", align 1
@.str.802 = private unnamed_addr constant [51 x i8] c"VUID-VkBufferMemoryBarrier2KHR-srcAccessMask-03917\00", align 1
@.str.803 = private unnamed_addr constant [51 x i8] c"VUID-VkBufferMemoryBarrier2KHR-dstAccessMask-03917\00", align 1
@.str.804 = private unnamed_addr constant [50 x i8] c"VUID-VkImageMemoryBarrier2KHR-srcAccessMask-03917\00", align 1
@.str.805 = private unnamed_addr constant [50 x i8] c"VUID-VkImageMemoryBarrier2KHR-dstAccessMask-03917\00", align 1
@.str.806 = private unnamed_addr constant [45 x i8] c"VUID-VkMemoryBarrier2KHR-srcAccessMask-03918\00", align 1
@.str.807 = private unnamed_addr constant [45 x i8] c"VUID-VkMemoryBarrier2KHR-dstAccessMask-03918\00", align 1
@.str.808 = private unnamed_addr constant [51 x i8] c"VUID-VkBufferMemoryBarrier2KHR-srcAccessMask-03918\00", align 1
@.str.809 = private unnamed_addr constant [51 x i8] c"VUID-VkBufferMemoryBarrier2KHR-dstAccessMask-03918\00", align 1
@.str.810 = private unnamed_addr constant [50 x i8] c"VUID-VkImageMemoryBarrier2KHR-srcAccessMask-03918\00", align 1
@.str.811 = private unnamed_addr constant [50 x i8] c"VUID-VkImageMemoryBarrier2KHR-dstAccessMask-03918\00", align 1
@.str.812 = private unnamed_addr constant [45 x i8] c"VUID-VkMemoryBarrier2KHR-srcAccessMask-03919\00", align 1
@.str.813 = private unnamed_addr constant [45 x i8] c"VUID-VkMemoryBarrier2KHR-dstAccessMask-03919\00", align 1
@.str.814 = private unnamed_addr constant [51 x i8] c"VUID-VkBufferMemoryBarrier2KHR-srcAccessMask-03919\00", align 1
@.str.815 = private unnamed_addr constant [51 x i8] c"VUID-VkBufferMemoryBarrier2KHR-dstAccessMask-03919\00", align 1
@.str.816 = private unnamed_addr constant [50 x i8] c"VUID-VkImageMemoryBarrier2KHR-srcAccessMask-03919\00", align 1
@.str.817 = private unnamed_addr constant [50 x i8] c"VUID-VkImageMemoryBarrier2KHR-dstAccessMask-03919\00", align 1
@.str.818 = private unnamed_addr constant [45 x i8] c"VUID-VkMemoryBarrier2KHR-srcAccessMask-03920\00", align 1
@.str.819 = private unnamed_addr constant [45 x i8] c"VUID-VkMemoryBarrier2KHR-dstAccessMask-03920\00", align 1
@.str.820 = private unnamed_addr constant [51 x i8] c"VUID-VkBufferMemoryBarrier2KHR-srcAccessMask-03920\00", align 1
@.str.821 = private unnamed_addr constant [51 x i8] c"VUID-VkBufferMemoryBarrier2KHR-dstAccessMask-03920\00", align 1
@.str.822 = private unnamed_addr constant [50 x i8] c"VUID-VkImageMemoryBarrier2KHR-srcAccessMask-03920\00", align 1
@.str.823 = private unnamed_addr constant [50 x i8] c"VUID-VkImageMemoryBarrier2KHR-dstAccessMask-03920\00", align 1
@.str.824 = private unnamed_addr constant [45 x i8] c"VUID-VkMemoryBarrier2KHR-srcAccessMask-04747\00", align 1
@.str.825 = private unnamed_addr constant [45 x i8] c"VUID-VkMemoryBarrier2KHR-dstAccessMask-04747\00", align 1
@.str.826 = private unnamed_addr constant [51 x i8] c"VUID-VkBufferMemoryBarrier2KHR-srcAccessMask-04747\00", align 1
@.str.827 = private unnamed_addr constant [51 x i8] c"VUID-VkBufferMemoryBarrier2KHR-dstAccessMask-04747\00", align 1
@.str.828 = private unnamed_addr constant [50 x i8] c"VUID-VkImageMemoryBarrier2KHR-srcAccessMask-04747\00", align 1
@.str.829 = private unnamed_addr constant [50 x i8] c"VUID-VkImageMemoryBarrier2KHR-dstAccessMask-04747\00", align 1
@.str.830 = private unnamed_addr constant [45 x i8] c"VUID-VkMemoryBarrier2KHR-srcAccessMask-03922\00", align 1
@.str.831 = private unnamed_addr constant [45 x i8] c"VUID-VkMemoryBarrier2KHR-dstAccessMask-03922\00", align 1
@.str.832 = private unnamed_addr constant [51 x i8] c"VUID-VkBufferMemoryBarrier2KHR-srcAccessMask-03922\00", align 1
@.str.833 = private unnamed_addr constant [51 x i8] c"VUID-VkBufferMemoryBarrier2KHR-dstAccessMask-03922\00", align 1
@.str.834 = private unnamed_addr constant [50 x i8] c"VUID-VkImageMemoryBarrier2KHR-srcAccessMask-03922\00", align 1
@.str.835 = private unnamed_addr constant [50 x i8] c"VUID-VkImageMemoryBarrier2KHR-dstAccessMask-03922\00", align 1
@.str.836 = private unnamed_addr constant [45 x i8] c"VUID-VkMemoryBarrier2KHR-srcAccessMask-03923\00", align 1
@.str.837 = private unnamed_addr constant [45 x i8] c"VUID-VkMemoryBarrier2KHR-dstAccessMask-03923\00", align 1
@.str.838 = private unnamed_addr constant [51 x i8] c"VUID-VkBufferMemoryBarrier2KHR-srcAccessMask-03923\00", align 1
@.str.839 = private unnamed_addr constant [51 x i8] c"VUID-VkBufferMemoryBarrier2KHR-dstAccessMask-03923\00", align 1
@.str.840 = private unnamed_addr constant [50 x i8] c"VUID-VkImageMemoryBarrier2KHR-srcAccessMask-03923\00", align 1
@.str.841 = private unnamed_addr constant [50 x i8] c"VUID-VkImageMemoryBarrier2KHR-dstAccessMask-03923\00", align 1
@.str.842 = private unnamed_addr constant [45 x i8] c"VUID-VkMemoryBarrier2KHR-srcAccessMask-03924\00", align 1
@.str.843 = private unnamed_addr constant [45 x i8] c"VUID-VkMemoryBarrier2KHR-dstAccessMask-03924\00", align 1
@.str.844 = private unnamed_addr constant [51 x i8] c"VUID-VkBufferMemoryBarrier2KHR-srcAccessMask-03924\00", align 1
@.str.845 = private unnamed_addr constant [51 x i8] c"VUID-VkBufferMemoryBarrier2KHR-dstAccessMask-03924\00", align 1
@.str.846 = private unnamed_addr constant [50 x i8] c"VUID-VkImageMemoryBarrier2KHR-srcAccessMask-03924\00", align 1
@.str.847 = private unnamed_addr constant [50 x i8] c"VUID-VkImageMemoryBarrier2KHR-dstAccessMask-03924\00", align 1
@.str.848 = private unnamed_addr constant [45 x i8] c"VUID-VkMemoryBarrier2KHR-srcAccessMask-03925\00", align 1
@.str.849 = private unnamed_addr constant [45 x i8] c"VUID-VkMemoryBarrier2KHR-dstAccessMask-03925\00", align 1
@.str.850 = private unnamed_addr constant [51 x i8] c"VUID-VkBufferMemoryBarrier2KHR-srcAccessMask-03925\00", align 1
@.str.851 = private unnamed_addr constant [51 x i8] c"VUID-VkBufferMemoryBarrier2KHR-dstAccessMask-03925\00", align 1
@.str.852 = private unnamed_addr constant [50 x i8] c"VUID-VkImageMemoryBarrier2KHR-srcAccessMask-03925\00", align 1
@.str.853 = private unnamed_addr constant [50 x i8] c"VUID-VkImageMemoryBarrier2KHR-dstAccessMask-03925\00", align 1
@.str.854 = private unnamed_addr constant [45 x i8] c"VUID-VkMemoryBarrier2KHR-srcAccessMask-03926\00", align 1
@.str.855 = private unnamed_addr constant [45 x i8] c"VUID-VkMemoryBarrier2KHR-dstAccessMask-03926\00", align 1
@.str.856 = private unnamed_addr constant [51 x i8] c"VUID-VkBufferMemoryBarrier2KHR-srcAccessMask-03926\00", align 1
@.str.857 = private unnamed_addr constant [51 x i8] c"VUID-VkBufferMemoryBarrier2KHR-dstAccessMask-03926\00", align 1
@.str.858 = private unnamed_addr constant [50 x i8] c"VUID-VkImageMemoryBarrier2KHR-srcAccessMask-03926\00", align 1
@.str.859 = private unnamed_addr constant [50 x i8] c"VUID-VkImageMemoryBarrier2KHR-dstAccessMask-03926\00", align 1
@.str.860 = private unnamed_addr constant [45 x i8] c"VUID-VkMemoryBarrier2KHR-srcAccessMask-03927\00", align 1
@.str.861 = private unnamed_addr constant [45 x i8] c"VUID-VkMemoryBarrier2KHR-dstAccessMask-03927\00", align 1
@.str.862 = private unnamed_addr constant [51 x i8] c"VUID-VkBufferMemoryBarrier2KHR-srcAccessMask-03927\00", align 1
@.str.863 = private unnamed_addr constant [51 x i8] c"VUID-VkBufferMemoryBarrier2KHR-dstAccessMask-03927\00", align 1
@.str.864 = private unnamed_addr constant [50 x i8] c"VUID-VkImageMemoryBarrier2KHR-srcAccessMask-03927\00", align 1
@.str.865 = private unnamed_addr constant [50 x i8] c"VUID-VkImageMemoryBarrier2KHR-dstAccessMask-03927\00", align 1
@.str.866 = private unnamed_addr constant [45 x i8] c"VUID-VkMemoryBarrier2KHR-srcAccessMask-03928\00", align 1
@.str.867 = private unnamed_addr constant [45 x i8] c"VUID-VkMemoryBarrier2KHR-dstAccessMask-03928\00", align 1
@.str.868 = private unnamed_addr constant [51 x i8] c"VUID-VkBufferMemoryBarrier2KHR-srcAccessMask-03928\00", align 1
@.str.869 = private unnamed_addr constant [51 x i8] c"VUID-VkBufferMemoryBarrier2KHR-dstAccessMask-03928\00", align 1
@.str.870 = private unnamed_addr constant [50 x i8] c"VUID-VkImageMemoryBarrier2KHR-srcAccessMask-03928\00", align 1
@.str.871 = private unnamed_addr constant [50 x i8] c"VUID-VkImageMemoryBarrier2KHR-dstAccessMask-03928\00", align 1
@_ZN14sync_vuid_mapsL15kFineSyncCommonE = internal global %"class.std::__1::vector.227" zeroinitializer, align 8
@.str.873 = private unnamed_addr constant [46 x i8] c"VUID-vkCmdPipelineBarrier-srcAccessMask-02815\00", align 1
@.str.874 = private unnamed_addr constant [46 x i8] c"VUID-vkCmdPipelineBarrier-dstAccessMask-02816\00", align 1
@.str.875 = private unnamed_addr constant [41 x i8] c"VUID-vkCmdWaitEvents-srcAccessMask-02815\00", align 1
@.str.876 = private unnamed_addr constant [41 x i8] c"VUID-vkCmdWaitEvents-dstAccessMask-02816\00", align 1
@.str.877 = private unnamed_addr constant [45 x i8] c"VUID-VkSubpassDependency-srcAccessMask-00868\00", align 1
@.str.878 = private unnamed_addr constant [45 x i8] c"VUID-VkSubpassDependency-dstAccessMask-00869\00", align 1
@.str.879 = private unnamed_addr constant [46 x i8] c"VUID-VkSubpassDependency2-srcAccessMask-03088\00", align 1
@.str.880 = private unnamed_addr constant [46 x i8] c"VUID-VkSubpassDependency2-dstAccessMask-03089\00", align 1
@_ZZN14sync_vuid_maps21GetBadAccessFlagsVUIDERKN10core_error8LocationEmE9unhandled = internal global %"class.std::__1::basic_string" zeroinitializer, align 8
@_ZGVZN14sync_vuid_maps21GetBadAccessFlagsVUIDERKN10core_error8LocationEmE9unhandled = internal global i64 0, align 8
@.str.881 = private unnamed_addr constant [49 x i8] c"UNASSIGNED-CoreChecks-unhandled-bad-access-flags\00", align 1
@_ZN14sync_vuid_mapsL15kQueueCapErrorsE = internal global %"class.std::__1::vector.227" zeroinitializer, align 8
@.str.883 = private unnamed_addr constant [43 x i8] c"VUID-vkQueueSubmit-pWaitDstStageMask-00066\00", align 1
@.str.884 = private unnamed_addr constant [45 x i8] c"VUID-vkCmdBeginRenderPass-srcStageMask-00901\00", align 1
@.str.885 = private unnamed_addr constant [34 x i8] c"VUID-vkCmdSetEvent-stageMask-4098\00", align 1
@.str.886 = private unnamed_addr constant [36 x i8] c"VUID-vkCmdResetEvent-stageMask-4098\00", align 1
@.str.887 = private unnamed_addr constant [39 x i8] c"VUID-vkCmdWaitEvents-srcStageMask-4098\00", align 1
@.str.888 = private unnamed_addr constant [39 x i8] c"VUID-vkCmdWaitEvents-dstStageMask-4098\00", align 1
@.str.889 = private unnamed_addr constant [44 x i8] c"VUID-vkCmdPipelineBarrier-srcStageMask-4098\00", align 1
@.str.890 = private unnamed_addr constant [44 x i8] c"VUID-vkCmdPipelineBarrier-dstStageMask-4098\00", align 1
@.str.891 = private unnamed_addr constant [45 x i8] c"VUID-vkCmdWriteTimestamp-pipelineStage-04074\00", align 1
@.str.892 = private unnamed_addr constant [46 x i8] c"VUID-vkCmdBeginRenderPass2-srcStageMask-03101\00", align 1
@.str.893 = private unnamed_addr constant [42 x i8] c"VUID-vkCmdSetEvent2KHR-srcStageMask-03827\00", align 1
@.str.894 = private unnamed_addr constant [42 x i8] c"VUID-vkCmdSetEvent2KHR-dstStageMask-03828\00", align 1
@.str.895 = private unnamed_addr constant [49 x i8] c"VUID-vkCmdPipelineBarrier2KHR-srcStageMask-03849\00", align 1
@.str.896 = private unnamed_addr constant [49 x i8] c"VUID-vkCmdPipelineBarrier2KHR-dstStageMask-03850\00", align 1
@.str.897 = private unnamed_addr constant [44 x i8] c"VUID-vkCmdWaitEvents2KHR-srcStageMask-03842\00", align 1
@.str.898 = private unnamed_addr constant [44 x i8] c"VUID-vkCmdWaitEvents2KHR-dstStageMask-03843\00", align 1
@.str.899 = private unnamed_addr constant [41 x i8] c"VUID-vkCmdWriteTimestamp2KHR-stage-03860\00", align 1
@.str.900 = private unnamed_addr constant [39 x i8] c"VUID-vkQueueSubmit2KHR-stageMask-03869\00", align 1
@.str.901 = private unnamed_addr constant [39 x i8] c"VUID-vkQueueSubmit2KHR-stageMask-03870\00", align 1
@_ZZN14sync_vuid_maps20GetStageQueueCapVUIDERKN10core_error8LocationEmE9unhandled = internal global %"class.std::__1::basic_string" zeroinitializer, align 8
@_ZGVZN14sync_vuid_maps20GetStageQueueCapVUIDERKN10core_error8LocationEmE9unhandled = internal global i64 0, align 8
@.str.902 = private unnamed_addr constant [51 x i8] c"UNASSIGNED-CoreChecks-unhandled-queue-capabilities\00", align 1
@_ZN14sync_vuid_mapsL19kBarrierQueueErrorsE = internal global %"class.std::__1::map.246" zeroinitializer, align 8
@.str.904 = private unnamed_addr constant [50 x i8] c"VUID-VkBufferMemoryBarrier-synchronization2-03853\00", align 1
@.str.905 = private unnamed_addr constant [49 x i8] c"VUID-VkImageMemoryBarrier-synchronization2-03857\00", align 1
@.str.906 = private unnamed_addr constant [44 x i8] c"VUID-VkBufferMemoryBarrier2KHR-buffer-04088\00", align 1
@.str.907 = private unnamed_addr constant [40 x i8] c"VUID-VkBufferMemoryBarrier-buffer-04088\00", align 1
@.str.908 = private unnamed_addr constant [42 x i8] c"VUID-VkImageMemoryBarrier2KHR-image-04071\00", align 1
@.str.909 = private unnamed_addr constant [38 x i8] c"VUID-VkImageMemoryBarrier-image-04071\00", align 1
@.str.910 = private unnamed_addr constant [44 x i8] c"VUID-VkBufferMemoryBarrier2KHR-buffer-04089\00", align 1
@.str.911 = private unnamed_addr constant [40 x i8] c"VUID-VkBufferMemoryBarrier-buffer-04089\00", align 1
@.str.912 = private unnamed_addr constant [42 x i8] c"VUID-VkImageMemoryBarrier2KHR-image-04072\00", align 1
@.str.913 = private unnamed_addr constant [38 x i8] c"VUID-VkImageMemoryBarrier-image-04072\00", align 1
@.str.914 = private unnamed_addr constant [50 x i8] c"VUID-VkBufferMemoryBarrier-synchronization2-03852\00", align 1
@.str.915 = private unnamed_addr constant [49 x i8] c"VUID-VkImageMemoryBarrier-synchronization2-03856\00", align 1
@.str.916 = private unnamed_addr constant [44 x i8] c"VUID-VkBufferMemoryBarrier2KHR-buffer-04086\00", align 1
@.str.917 = private unnamed_addr constant [40 x i8] c"VUID-VkBufferMemoryBarrier-buffer-04086\00", align 1
@.str.918 = private unnamed_addr constant [42 x i8] c"VUID-VkImageMemoryBarrier2KHR-image-04069\00", align 1
@.str.919 = private unnamed_addr constant [38 x i8] c"VUID-VkImageMemoryBarrier-image-04069\00", align 1
@.str.920 = private unnamed_addr constant [82 x i8] c"UNASSIGNED-CoreValidation-VkImageMemoryBarrier-sharing-mode-exclusive-same-family\00", align 1
@.str.921 = private unnamed_addr constant [86 x i8] c"UNASSIGNED-CoreValidation-VkImageMemoryBarrier2KHR-sharing-mode-exclusive-same-family\00", align 1
@.str.922 = private unnamed_addr constant [83 x i8] c"UNASSIGNED-CoreValidation-VkBufferMemoryBarrier-sharing-mode-exclusive-same-family\00", align 1
@.str.923 = private unnamed_addr constant [87 x i8] c"UNASSIGNED-CoreValidation-VkBufferMemoryBarrier2KHR-sharing-mode-exclusive-same-family\00", align 1
@_ZN14sync_vuid_maps18kQueueErrorSummaryE = hidden global %"class.std::__1::map.259" zeroinitializer, align 8
@.str.925 = private unnamed_addr constant [52 x i8] c"Source or destination queue family must be ignored.\00", align 1
@.str.926 = private unnamed_addr constant [63 x i8] c"Source or destination queue family must be special or ignored.\00", align 1
@.str.927 = private unnamed_addr constant [61 x i8] c"Destination queue family must be valid, ignored, or special.\00", align 1
@.str.928 = private unnamed_addr constant [58 x i8] c"Source and destination queue family must both be ignored.\00", align 1
@.str.929 = private unnamed_addr constant [56 x i8] c"Source and destination queue family must both be valid.\00", align 1
@.str.930 = private unnamed_addr constant [83 x i8] c"Source or destination queue family must match submit queue family, if not ignored.\00", align 1
@_ZZN14sync_vuid_maps19GetBarrierQueueVUIDERKN10core_error8LocationENS_10QueueErrorEE9unhandled = internal global %"class.std::__1::basic_string" zeroinitializer, align 8
@_ZGVZN14sync_vuid_maps19GetBarrierQueueVUIDERKN10core_error8LocationENS_10QueueErrorEE9unhandled = internal global i64 0, align 8
@.str.931 = private unnamed_addr constant [44 x i8] c"UNASSIGNED-CoreChecks-unhandled-queue-error\00", align 1
@_ZN14sync_vuid_mapsL18kImageLayoutErrorsE = internal global %"class.std::__1::map.270" zeroinitializer, align 8
@.str.933 = private unnamed_addr constant [42 x i8] c"VUID-VkImageMemoryBarrier-oldLayout-01208\00", align 1
@.str.934 = private unnamed_addr constant [46 x i8] c"VUID-VkImageMemoryBarrier2KHR-oldLayout-01208\00", align 1
@.str.935 = private unnamed_addr constant [42 x i8] c"VUID-VkImageMemoryBarrier-oldLayout-01209\00", align 1
@.str.936 = private unnamed_addr constant [46 x i8] c"VUID-VkImageMemoryBarrier2KHR-oldLayout-01209\00", align 1
@.str.937 = private unnamed_addr constant [42 x i8] c"VUID-VkImageMemoryBarrier-oldLayout-01210\00", align 1
@.str.938 = private unnamed_addr constant [46 x i8] c"VUID-VkImageMemoryBarrier2KHR-oldLayout-01210\00", align 1
@.str.939 = private unnamed_addr constant [42 x i8] c"VUID-VkImageMemoryBarrier-oldLayout-01211\00", align 1
@.str.940 = private unnamed_addr constant [46 x i8] c"VUID-VkImageMemoryBarrier2KHR-oldLayout-01211\00", align 1
@.str.941 = private unnamed_addr constant [42 x i8] c"VUID-VkImageMemoryBarrier-oldLayout-01212\00", align 1
@.str.942 = private unnamed_addr constant [46 x i8] c"VUID-VkImageMemoryBarrier2KHR-oldLayout-01212\00", align 1
@.str.943 = private unnamed_addr constant [42 x i8] c"VUID-VkImageMemoryBarrier-oldLayout-01213\00", align 1
@.str.944 = private unnamed_addr constant [46 x i8] c"VUID-VkImageMemoryBarrier2KHR-oldLayout-01213\00", align 1
@.str.945 = private unnamed_addr constant [42 x i8] c"VUID-VkImageMemoryBarrier-oldLayout-02088\00", align 1
@.str.946 = private unnamed_addr constant [46 x i8] c"VUID-VkImageMemoryBarrier2KHR-oldLayout-02088\00", align 1
@.str.947 = private unnamed_addr constant [42 x i8] c"VUID-VkImageMemoryBarrier-oldLayout-01658\00", align 1
@.str.948 = private unnamed_addr constant [46 x i8] c"VUID-VkImageMemoryBarrier2KHR-oldLayout-01658\00", align 1
@.str.949 = private unnamed_addr constant [42 x i8] c"VUID-VkImageMemoryBarrier-oldLayout-01659\00", align 1
@.str.950 = private unnamed_addr constant [46 x i8] c"VUID-VkImageMemoryBarrier2KHR-oldLayout-01659\00", align 1
@_ZZN14sync_vuid_maps21GetBadImageLayoutVUIDERKN10core_error8LocationE13VkImageLayoutE9unhandled = internal global %"class.std::__1::basic_string" zeroinitializer, align 8
@_ZGVZN14sync_vuid_maps21GetBadImageLayoutVUIDERKN10core_error8LocationE13VkImageLayoutE9unhandled = internal global i64 0, align 8
@.str.951 = private unnamed_addr constant [49 x i8] c"UNASSIGNED-CoreChecks-unhandled-bad-image-layout\00", align 1
@_ZN14sync_vuid_mapsL13kBufferErrorsE = internal global %"class.std::__1::map.284" zeroinitializer, align 8
@.str.953 = private unnamed_addr constant [44 x i8] c"VUID-VkBufferMemoryBarrier2KHR-buffer-01931\00", align 1
@.str.954 = private unnamed_addr constant [40 x i8] c"VUID-VkBufferMemoryBarrier-buffer-01931\00", align 1
@.str.955 = private unnamed_addr constant [40 x i8] c"VUID-VkBufferMemoryBarrier-offset-01187\00", align 1
@.str.956 = private unnamed_addr constant [44 x i8] c"VUID-VkBufferMemoryBarrier2KHR-offset-01187\00", align 1
@.str.957 = private unnamed_addr constant [38 x i8] c"VUID-VkBufferMemoryBarrier-size-01189\00", align 1
@.str.958 = private unnamed_addr constant [42 x i8] c"VUID-VkBufferMemoryBarrier2KHR-size-01189\00", align 1
@.str.959 = private unnamed_addr constant [38 x i8] c"VUID-VkBufferMemoryBarrier-size-01188\00", align 1
@.str.960 = private unnamed_addr constant [42 x i8] c"VUID-VkBufferMemoryBarrier2KHR-size-01188\00", align 1
@_ZZN14sync_vuid_maps20GetBufferBarrierVUIDERKN10core_error8LocationENS_11BufferErrorEE9unhandled = internal global %"class.std::__1::basic_string" zeroinitializer, align 8
@_ZGVZN14sync_vuid_maps20GetBufferBarrierVUIDERKN10core_error8LocationENS_11BufferErrorEE9unhandled = internal global i64 0, align 8
@.str.961 = private unnamed_addr constant [53 x i8] c"UNASSIGNED-CoreChecks-unhandled-buffer-barrier-error\00", align 1
@_ZN14sync_vuid_mapsL12kImageErrorsE = internal global %"class.std::__1::map.297" zeroinitializer, align 8
@.str.963 = private unnamed_addr constant [38 x i8] c"VUID-VkImageMemoryBarrier-image-01932\00", align 1
@.str.964 = private unnamed_addr constant [42 x i8] c"VUID-VkImageMemoryBarrier2KHR-image-01932\00", align 1
@.str.965 = private unnamed_addr constant [42 x i8] c"VUID-VkImageMemoryBarrier-oldLayout-01197\00", align 1
@.str.966 = private unnamed_addr constant [46 x i8] c"VUID-VkImageMemoryBarrier2KHR-oldLayout-01197\00", align 1
@.str.967 = private unnamed_addr constant [42 x i8] c"VUID-VkImageMemoryBarrier-newLayout-01198\00", align 1
@.str.968 = private unnamed_addr constant [46 x i8] c"VUID-VkImageMemoryBarrier2KHR-newLayout-01198\00", align 1
@.str.969 = private unnamed_addr constant [38 x i8] c"VUID-VkImageMemoryBarrier-image-01671\00", align 1
@.str.970 = private unnamed_addr constant [42 x i8] c"VUID-VkImageMemoryBarrier2KHR-image-01671\00", align 1
@.str.971 = private unnamed_addr constant [38 x i8] c"VUID-VkImageMemoryBarrier-image-02902\00", align 1
@.str.972 = private unnamed_addr constant [42 x i8] c"VUID-VkImageMemoryBarrier2KHR-image-02902\00", align 1
@.str.973 = private unnamed_addr constant [38 x i8] c"VUID-VkImageMemoryBarrier-image-01672\00", align 1
@.str.974 = private unnamed_addr constant [42 x i8] c"VUID-VkImageMemoryBarrier2KHR-image-01672\00", align 1
@.str.975 = private unnamed_addr constant [38 x i8] c"VUID-VkImageMemoryBarrier-image-01673\00", align 1
@.str.976 = private unnamed_addr constant [42 x i8] c"VUID-VkImageMemoryBarrier2KHR-image-01673\00", align 1
@.str.977 = private unnamed_addr constant [38 x i8] c"VUID-VkImageMemoryBarrier-image-03319\00", align 1
@.str.978 = private unnamed_addr constant [42 x i8] c"VUID-VkImageMemoryBarrier2KHR-image-03319\00", align 1
@.str.979 = private unnamed_addr constant [38 x i8] c"VUID-VkImageMemoryBarrier-image-01207\00", align 1
@.str.980 = private unnamed_addr constant [42 x i8] c"VUID-VkImageMemoryBarrier2KHR-image-01207\00", align 1
@.str.981 = private unnamed_addr constant [38 x i8] c"VUID-VkImageMemoryBarrier-image-03320\00", align 1
@.str.982 = private unnamed_addr constant [42 x i8] c"VUID-VkImageMemoryBarrier2KHR-image-03320\00", align 1
@.str.983 = private unnamed_addr constant [38 x i8] c"VUID-vkCmdPipelineBarrier-image-04073\00", align 1
@.str.984 = private unnamed_addr constant [42 x i8] c"VUID-vkCmdPipelineBarrier2KHR-image-04073\00", align 1
@.str.985 = private unnamed_addr constant [42 x i8] c"VUID-vkCmdPipelineBarrier-oldLayout-01181\00", align 1
@.str.986 = private unnamed_addr constant [46 x i8] c"VUID-vkCmdPipelineBarrier2KHR-oldLayout-01181\00", align 1
@_ZZN14sync_vuid_maps19GetImageBarrierVUIDERKN10core_error8LocationENS_10ImageErrorEE9unhandled = internal global %"class.std::__1::basic_string" zeroinitializer, align 8
@_ZGVZN14sync_vuid_maps19GetImageBarrierVUIDERKN10core_error8LocationENS_10ImageErrorEE9unhandled = internal global i64 0, align 8
@.str.987 = private unnamed_addr constant [52 x i8] c"UNASSIGNED-CoreChecks-unhandled-image-barrier-error\00", align 1
@_ZZN14sync_vuid_maps19GetSubResourceVUIDsERKN10core_error8LocationEE2v1 = internal constant %struct.SubresourceRangeErrorCodes { i8* getelementptr inbounds ([49 x i8], [49 x i8]* @.str.988, i32 0, i32 0), i8* getelementptr inbounds ([49 x i8], [49 x i8]* @.str.989, i32 0, i32 0), i8* getelementptr inbounds ([49 x i8], [49 x i8]* @.str.990, i32 0, i32 0), i8* getelementptr inbounds ([49 x i8], [49 x i8]* @.str.991, i32 0, i32 0) }, align 8
@.str.988 = private unnamed_addr constant [49 x i8] c"VUID-VkImageMemoryBarrier-subresourceRange-01486\00", align 1
@.str.989 = private unnamed_addr constant [49 x i8] c"VUID-VkImageMemoryBarrier-subresourceRange-01724\00", align 1
@.str.990 = private unnamed_addr constant [49 x i8] c"VUID-VkImageMemoryBarrier-subresourceRange-01488\00", align 1
@.str.991 = private unnamed_addr constant [49 x i8] c"VUID-VkImageMemoryBarrier-subresourceRange-01725\00", align 1
@_ZZN14sync_vuid_maps19GetSubResourceVUIDsERKN10core_error8LocationEE2v2 = internal constant %struct.SubresourceRangeErrorCodes { i8* getelementptr inbounds ([53 x i8], [53 x i8]* @.str.992, i32 0, i32 0), i8* getelementptr inbounds ([53 x i8], [53 x i8]* @.str.993, i32 0, i32 0), i8* getelementptr inbounds ([105 x i8], [105 x i8]* @.str.994, i32 0, i32 0), i8* null }, align 8
@.str.992 = private unnamed_addr constant [53 x i8] c"VUID-VkImageMemoryBarrier2KHR-subresourceRange-01486\00", align 1
@.str.993 = private unnamed_addr constant [53 x i8] c"VUID-VkImageMemoryBarrier2KHR-subresourceRange-01724\00", align 1
@.str.994 = private unnamed_addr constant [105 x i8] c"VUID-VkImageMemoryBarrier2KHR-subresourceRange-01488VUID-VkImageMemoryBarrier2KHR-subresourceRange-01725\00", align 1
@_ZN14sync_vuid_mapsL13kSubmitErrorsE = internal global %"class.std::__1::map.310" zeroinitializer, align 8
@.str.996 = private unnamed_addr constant [39 x i8] c"VUID-VkSemaphoreSignalInfo-value-03258\00", align 1
@.str.997 = private unnamed_addr constant [46 x i8] c"VUID-VkBindSparseInfo-pSignalSemaphores-03249\00", align 1
@.str.998 = private unnamed_addr constant [42 x i8] c"VUID-VkSubmitInfo-pSignalSemaphores-03242\00", align 1
@.str.999 = private unnamed_addr constant [38 x i8] c"VUID-VkSubmitInfo2KHR-semaphore-03881\00", align 1
@.str.1000 = private unnamed_addr constant [38 x i8] c"VUID-VkSubmitInfo2KHR-semaphore-03882\00", align 1
@.str.1001 = private unnamed_addr constant [43 x i8] c"VUID-vkQueueSubmit-pSignalSemaphores-00067\00", align 1
@.str.1002 = private unnamed_addr constant [47 x i8] c"VUID-vkQueueBindSparse-pSignalSemaphores-01115\00", align 1
@.str.1003 = private unnamed_addr constant [39 x i8] c"VUID-vkQueueSubmit2KHR-semaphore-03868\00", align 1
@.str.1004 = private unnamed_addr constant [41 x i8] c"VUID-vkQueueSubmit-pWaitSemaphores-00069\00", align 1
@.str.1005 = private unnamed_addr constant [39 x i8] c"VUID-vkQueueSubmit2KHR-semaphore-03872\00", align 1
@.str.1006 = private unnamed_addr constant [41 x i8] c"VUID-vkQueueSubmit-pWaitSemaphores-03238\00", align 1
@.str.1007 = private unnamed_addr constant [39 x i8] c"VUID-vkQueueSubmit2KHR-semaphore-03873\00", align 1
@.str.1008 = private unnamed_addr constant [44 x i8] c"VUID-VkBindSparseInfo-pWaitSemaphores-03250\00", align 1
@.str.1009 = private unnamed_addr constant [46 x i8] c"VUID-VkBindSparseInfo-pSignalSemaphores-03251\00", align 1
@.str.1010 = private unnamed_addr constant [40 x i8] c"VUID-VkSubmitInfo-pWaitSemaphores-03243\00", align 1
@.str.1011 = private unnamed_addr constant [42 x i8] c"VUID-VkSubmitInfo-pSignalSemaphores-03244\00", align 1
@.str.1012 = private unnamed_addr constant [39 x i8] c"VUID-VkSemaphoreSignalInfo-value-03260\00", align 1
@.str.1013 = private unnamed_addr constant [38 x i8] c"VUID-VkSubmitInfo2KHR-semaphore-03883\00", align 1
@.str.1014 = private unnamed_addr constant [38 x i8] c"VUID-VkSubmitInfo2KHR-semaphore-03884\00", align 1
@.str.1015 = private unnamed_addr constant [49 x i8] c"VUID-VkProtectedSubmitInfo-protectedSubmit-01816\00", align 1
@.str.1016 = private unnamed_addr constant [34 x i8] c"VUID-VkSubmitInfo2KHR-flags-03885\00", align 1
@.str.1017 = private unnamed_addr constant [30 x i8] c"VUID-VkSubmitInfo-pNext-04148\00", align 1
@.str.1018 = private unnamed_addr constant [34 x i8] c"VUID-VkSubmitInfo2KHR-flags-03886\00", align 1
@.str.1019 = private unnamed_addr constant [30 x i8] c"VUID-VkSubmitInfo-pNext-04120\00", align 1
@.str.1020 = private unnamed_addr constant [34 x i8] c"VUID-VkSubmitInfo2KHR-flags-03887\00", align 1
@.str.1021 = private unnamed_addr constant [41 x i8] c"VUID-vkQueueSubmit-pCommandBuffers-00071\00", align 1
@.str.1022 = private unnamed_addr constant [43 x i8] c"VUID-vkQueueSubmit2KHR-commandBuffer-03875\00", align 1
@.str.1023 = private unnamed_addr constant [41 x i8] c"VUID-vkQueueSubmit-pCommandBuffers-00072\00", align 1
@.str.1024 = private unnamed_addr constant [43 x i8] c"VUID-vkQueueSubmit2KHR-commandBuffer-03876\00", align 1
@.str.1025 = private unnamed_addr constant [41 x i8] c"VUID-vkQueueSubmit-pCommandBuffers-00073\00", align 1
@.str.1026 = private unnamed_addr constant [43 x i8] c"VUID-vkQueueSubmit2KHR-commandBuffer-03877\00", align 1
@.str.1027 = private unnamed_addr constant [41 x i8] c"VUID-vkQueueSubmit-pCommandBuffers-00074\00", align 1
@.str.1028 = private unnamed_addr constant [43 x i8] c"VUID-vkQueueSubmit2KHR-commandBuffer-03878\00", align 1
@.str.1029 = private unnamed_addr constant [40 x i8] c"VUID-VkSubmitInfo-pCommandBuffers-00075\00", align 1
@.str.1030 = private unnamed_addr constant [54 x i8] c"VUID-VkCommandBufferSubmitInfoKHR-commandBuffer-03890\00", align 1
@.str.1031 = private unnamed_addr constant [42 x i8] c"VUID-VkSubmitInfo-pWaitDstStageMask-00078\00", align 1
@.str.1032 = private unnamed_addr constant [35 x i8] c"VUID-vkCmdSetEvent-stageMask-01149\00", align 1
@.str.1033 = private unnamed_addr constant [37 x i8] c"VUID-vkCmdResetEvent-stageMask-01153\00", align 1
@.str.1034 = private unnamed_addr constant [41 x i8] c"VUID-vkCmdResetEvent2KHR-stageMask-03830\00", align 1
@_ZZN14sync_vuid_maps18GetQueueSubmitVUIDERKN10core_error8LocationENS_11SubmitErrorEE9unhandled = internal global %"class.std::__1::basic_string" zeroinitializer, align 8
@_ZGVZN14sync_vuid_maps18GetQueueSubmitVUIDERKN10core_error8LocationENS_11SubmitErrorEE9unhandled = internal global i64 0, align 8
@.str.1035 = private unnamed_addr constant [45 x i8] c"UNASSIGNED-CoreChecks-unhandled-submit-error\00", align 1
@_ZNSt3__1L19piecewise_constructE = internal constant %"struct.std::__1::piecewise_construct_t" undef, align 1
@_ZZN10core_errorL8FindVUIDImNSt3__13mapImNS1_6vectorINS_5EntryENS1_9allocatorIS4_EEEENS1_4lessImEENS5_INS1_4pairIKmS7_EEEEEEEERKNS1_12basic_stringIcNS1_11char_traitsIcEENS5_IcEEEET_RKNS_8LocationERKT0_E5empty = internal global %"class.std::__1::basic_string" zeroinitializer, align 8
@_ZGVZN10core_errorL8FindVUIDImNSt3__13mapImNS1_6vectorINS_5EntryENS1_9allocatorIS4_EEEENS1_4lessImEENS5_INS1_4pairIKmS7_EEEEEEEERKNS1_12basic_stringIcNS1_11char_traitsIcEENS5_IcEEEET_RKNS_8LocationERKT0_E5empty = internal global i64 0, align 8
@_ZZN10core_errorL8FindVUIDImNSt3__13mapImNS1_5arrayINS_5EntryELm6EEENS1_4lessImEENS1_9allocatorINS1_4pairIKmS5_EEEEEEEERKNS1_12basic_stringIcNS1_11char_traitsIcEENS8_IcEEEET_RKNS_8LocationERKT0_E5empty = internal global %"class.std::__1::basic_string" zeroinitializer, align 8
@_ZGVZN10core_errorL8FindVUIDImNSt3__13mapImNS1_5arrayINS_5EntryELm6EEENS1_4lessImEENS1_9allocatorINS1_4pairIKmS5_EEEEEEEERKNS1_12basic_stringIcNS1_11char_traitsIcEENS8_IcEEEET_RKNS_8LocationERKT0_E5empty = internal global i64 0, align 8
@_ZZN10core_errorL8FindVUIDINSt3__15arrayINS_5EntryELm6EEEEERKNS1_12basic_stringIcNS1_11char_traitsIcEENS1_9allocatorIcEEEERKNS_8LocationERKT_E5empty = internal global %"class.std::__1::basic_string" zeroinitializer, align 8
@_ZGVZN10core_errorL8FindVUIDINSt3__15arrayINS_5EntryELm6EEEEERKNS1_12basic_stringIcNS1_11char_traitsIcEENS1_9allocatorIcEEEERKNS_8LocationERKT_E5empty = internal global i64 0, align 8
@_ZZN10core_errorL8FindVUIDINSt3__16vectorINS_5EntryENS1_9allocatorIS3_EEEEEERKNS1_12basic_stringIcNS1_11char_traitsIcEENS4_IcEEEERKNS_8LocationERKT_E5empty = internal global %"class.std::__1::basic_string" zeroinitializer, align 8
@_ZGVZN10core_errorL8FindVUIDINSt3__16vectorINS_5EntryENS1_9allocatorIS3_EEEEEERKNS1_12basic_stringIcNS1_11char_traitsIcEENS4_IcEEEERKNS_8LocationERKT_E5empty = internal global i64 0, align 8
@_ZZN10core_errorL8FindVUIDIN14sync_vuid_maps10QueueErrorENSt3__13mapIS2_NS3_6vectorINS_5EntryENS3_9allocatorIS6_EEEENS3_4lessIS2_EENS7_INS3_4pairIKS2_S9_EEEEEEEERKNS3_12basic_stringIcNS3_11char_traitsIcEENS7_IcEEEET_RKNS_8LocationERKT0_E5empty = internal global %"class.std::__1::basic_string" zeroinitializer, align 8
@_ZGVZN10core_errorL8FindVUIDIN14sync_vuid_maps10QueueErrorENSt3__13mapIS2_NS3_6vectorINS_5EntryENS3_9allocatorIS6_EEEENS3_4lessIS2_EENS7_INS3_4pairIKS2_S9_EEEEEEEERKNS3_12basic_stringIcNS3_11char_traitsIcEENS7_IcEEEET_RKNS_8LocationERKT0_E5empty = internal global i64 0, align 8
@_ZZN10core_errorL8FindVUIDI13VkImageLayoutNSt3__13mapIS1_NS2_5arrayINS_5EntryELm2EEENS2_4lessIS1_EENS2_9allocatorINS2_4pairIKS1_S6_EEEEEEEERKNS2_12basic_stringIcNS2_11char_traitsIcEENS9_IcEEEET_RKNS_8LocationERKT0_E5empty = internal global %"class.std::__1::basic_string" zeroinitializer, align 8
@_ZGVZN10core_errorL8FindVUIDI13VkImageLayoutNSt3__13mapIS1_NS2_5arrayINS_5EntryELm2EEENS2_4lessIS1_EENS2_9allocatorINS2_4pairIKS1_S6_EEEEEEEERKNS2_12basic_stringIcNS2_11char_traitsIcEENS9_IcEEEET_RKNS_8LocationERKT0_E5empty = internal global i64 0, align 8
@_ZZN10core_errorL8FindVUIDINSt3__15arrayINS_5EntryELm2EEEEERKNS1_12basic_stringIcNS1_11char_traitsIcEENS1_9allocatorIcEEEERKNS_8LocationERKT_E5empty = internal global %"class.std::__1::basic_string" zeroinitializer, align 8
@_ZGVZN10core_errorL8FindVUIDINSt3__15arrayINS_5EntryELm2EEEEERKNS1_12basic_stringIcNS1_11char_traitsIcEENS1_9allocatorIcEEEERKNS_8LocationERKT_E5empty = internal global i64 0, align 8
@_ZZN10core_errorL8FindVUIDIN14sync_vuid_maps11BufferErrorENSt3__13mapIS2_NS3_5arrayINS_5EntryELm2EEENS3_4lessIS2_EENS3_9allocatorINS3_4pairIKS2_S7_EEEEEEEERKNS3_12basic_stringIcNS3_11char_traitsIcEENSA_IcEEEET_RKNS_8LocationERKT0_E5empty = internal global %"class.std::__1::basic_string" zeroinitializer, align 8
@_ZGVZN10core_errorL8FindVUIDIN14sync_vuid_maps11BufferErrorENSt3__13mapIS2_NS3_5arrayINS_5EntryELm2EEENS3_4lessIS2_EENS3_9allocatorINS3_4pairIKS2_S7_EEEEEEEERKNS3_12basic_stringIcNS3_11char_traitsIcEENSA_IcEEEET_RKNS_8LocationERKT0_E5empty = internal global i64 0, align 8
@_ZZN10core_errorL8FindVUIDIN14sync_vuid_maps10ImageErrorENSt3__13mapIS2_NS3_6vectorINS_5EntryENS3_9allocatorIS6_EEEENS3_4lessIS2_EENS7_INS3_4pairIKS2_S9_EEEEEEEERKNS3_12basic_stringIcNS3_11char_traitsIcEENS7_IcEEEET_RKNS_8LocationERKT0_E5empty = internal global %"class.std::__1::basic_string" zeroinitializer, align 8
@_ZGVZN10core_errorL8FindVUIDIN14sync_vuid_maps10ImageErrorENSt3__13mapIS2_NS3_6vectorINS_5EntryENS3_9allocatorIS6_EEEENS3_4lessIS2_EENS7_INS3_4pairIKS2_S9_EEEEEEEERKNS3_12basic_stringIcNS3_11char_traitsIcEENS7_IcEEEET_RKNS_8LocationERKT0_E5empty = internal global i64 0, align 8
@_ZZN10core_errorL8FindVUIDIN14sync_vuid_maps11SubmitErrorENSt3__13mapIS2_NS3_6vectorINS_5EntryENS3_9allocatorIS6_EEEENS3_4lessIS2_EENS7_INS3_4pairIKS2_S9_EEEEEEEERKNS3_12basic_stringIcNS3_11char_traitsIcEENS7_IcEEEET_RKNS_8LocationERKT0_E5empty = internal global %"class.std::__1::basic_string" zeroinitializer, align 8
@_ZGVZN10core_errorL8FindVUIDIN14sync_vuid_maps11SubmitErrorENSt3__13mapIS2_NS3_6vectorINS_5EntryENS3_9allocatorIS6_EEEENS3_4lessIS2_EENS7_INS3_4pairIKS2_S9_EEEEEEEERKNS3_12basic_stringIcNS3_11char_traitsIcEENS7_IcEEEET_RKNS_8LocationERKT0_E5empty = internal global i64 0, align 8
@llvm.global_ctors = appending global [1 x { i32, void ()*, i8* }] [{ i32, void ()*, i8* } { i32 65535, void ()* @_GLOBAL__sub_I_sync_vuid_maps.cpp, i8* null }]

; Function Attrs: argmemonly nounwind
declare void @llvm.lifetime.start.p0i8(i64 immarg, i8* nocapture) #0

; Function Attrs: argmemonly nounwind
declare void @llvm.lifetime.end.p0i8(i64 immarg, i8* nocapture) #0

; Function Attrs: inlinehint nounwind ssp uwtable
declare void @_ZNSt3__112basic_stringIcNS_11char_traitsIcEENS_9allocatorIcEEED2Ev(%"class.std::__1::basic_string"*) unnamed_addr #1 align 2

; Function Attrs: nounwind ssp uwtable
define linkonce_odr hidden void @_ZNSt3__113unordered_mapINS_12basic_stringIcNS_11char_traitsIcEENS_9allocatorIcEEEEjNS_4hashIS6_EENS_8equal_toIS6_EENS4_INS_4pairIKS6_jEEEEED2Ev(%"class.std::__1::unordered_map"*) unnamed_addr #2 comdat align 2 {
  %2 = getelementptr inbounds %"class.std::__1::unordered_map", %"class.std::__1::unordered_map"* %0, i64 0, i32 0, i32 1, i32 0, i32 0, i32 0
  %3 = load %"struct.std::__1::__hash_node_base"*, %"struct.std::__1::__hash_node_base"** %2, align 8
  %4 = icmp eq %"struct.std::__1::__hash_node_base"* %3, null
  br i1 %4, label %20, label %5

5:                                                ; preds = %1, %17
  %6 = phi %"struct.std::__1::__hash_node_base"* [ %8, %17 ], [ %3, %1 ]
  %7 = getelementptr inbounds %"struct.std::__1::__hash_node_base", %"struct.std::__1::__hash_node_base"* %6, i64 0, i32 0
  %8 = load %"struct.std::__1::__hash_node_base"*, %"struct.std::__1::__hash_node_base"** %7, align 8
  %9 = getelementptr inbounds %"struct.std::__1::__hash_node_base", %"struct.std::__1::__hash_node_base"* %6, i64 2
  %10 = bitcast %"struct.std::__1::__hash_node_base"* %9 to %"struct.std::__1::basic_string<char, std::__1::char_traits<char>, std::__1::allocator<char> >::__short"*
  %11 = getelementptr inbounds %"struct.std::__1::basic_string<char, std::__1::char_traits<char>, std::__1::allocator<char> >::__short", %"struct.std::__1::basic_string<char, std::__1::char_traits<char>, std::__1::allocator<char> >::__short"* %10, i64 0, i32 1, i32 0
  %12 = load i8, i8* %11, align 1
  %13 = icmp slt i8 %12, 0
  br i1 %13, label %14, label %17

14:                                               ; preds = %5
  %15 = bitcast %"struct.std::__1::__hash_node_base"* %9 to i8**
  %16 = load i8*, i8** %15, align 8
  tail call void @_ZdlPv(i8* %16) #14
  br label %17

17:                                               ; preds = %14, %5
  %18 = bitcast %"struct.std::__1::__hash_node_base"* %6 to i8*
  tail call void @_ZdlPv(i8* %18) #14
  %19 = icmp eq %"struct.std::__1::__hash_node_base"* %8, null
  br i1 %19, label %20, label %5

20:                                               ; preds = %17, %1
  %21 = getelementptr inbounds %"class.std::__1::unordered_map", %"class.std::__1::unordered_map"* %0, i64 0, i32 0, i32 0, i32 0, i32 0, i32 0
  %22 = load %"struct.std::__1::__hash_node_base"**, %"struct.std::__1::__hash_node_base"*** %21, align 8
  store %"struct.std::__1::__hash_node_base"** null, %"struct.std::__1::__hash_node_base"*** %21, align 8
  %23 = icmp eq %"struct.std::__1::__hash_node_base"** %22, null
  br i1 %23, label %26, label %24

24:                                               ; preds = %20
  %25 = bitcast %"struct.std::__1::__hash_node_base"** %22 to i8*
  tail call void @_ZdlPv(i8* %25) #14
  br label %26

26:                                               ; preds = %20, %24
  ret void
}

; Function Attrs: nofree nounwind
declare i32 @__cxa_atexit(void (i8*)*, i8*, i8*) local_unnamed_addr #3

; Function Attrs: nounwind ssp uwtable
define weak_odr hidden %struct._debug_report_data* @_Z15GetLayerDataPtrI18_debug_report_dataEPT_PvRNSt3__113unordered_mapIS3_S2_NS4_4hashIS3_EENS4_8equal_toIS3_EENS4_9allocatorINS4_4pairIKS3_S2_EEEEEE(i8*, %"class.std::__1::unordered_map.143"* dereferenceable(40)) local_unnamed_addr #2 comdat {
  %3 = alloca %"class.std::__1::tuple", align 8
  %4 = alloca %"class.std::__1::tuple.336", align 1
  %5 = alloca i8*, align 8
  %6 = ptrtoint i8* %0 to i64
  %7 = lshr i64 %6, 32
  %8 = shl i64 %6, 3
  %9 = and i64 %8, 4294967288
  %10 = add nuw nsw i64 %9, 8
  %11 = xor i64 %10, %7
  %12 = mul i64 %11, -7070675565921424023
  %13 = lshr i64 %12, 47
  %14 = xor i64 %12, %7
  %15 = xor i64 %14, %13
  %16 = mul i64 %15, -7070675565921424023
  %17 = lshr i64 %16, 47
  %18 = xor i64 %17, %16
  %19 = mul i64 %18, -7070675565921424023
  %20 = getelementptr inbounds %"class.std::__1::unordered_map.143", %"class.std::__1::unordered_map.143"* %1, i64 0, i32 0, i32 0, i32 0, i32 1, i32 0, i32 0, i32 0, i32 0
  %21 = load i64, i64* %20, align 8
  %22 = icmp eq i64 %21, 0
  br i1 %22, label %71, label %23

23:                                               ; preds = %2
  %24 = tail call i64 @llvm.ctpop.i64(i64 %21) #15, !range !2
  %25 = icmp ugt i64 %24, 1
  br i1 %25, label %29, label %26

26:                                               ; preds = %23
  %27 = add i64 %21, -1
  %28 = and i64 %27, %19
  br label %33

29:                                               ; preds = %23
  %30 = icmp ult i64 %19, %21
  br i1 %30, label %33, label %31

31:                                               ; preds = %29
  %32 = urem i64 %19, %21
  br label %33

33:                                               ; preds = %31, %29, %26
  %34 = phi i64 [ %28, %26 ], [ %32, %31 ], [ %19, %29 ]
  %35 = getelementptr inbounds %"class.std::__1::unordered_map.143", %"class.std::__1::unordered_map.143"* %1, i64 0, i32 0, i32 0, i32 0, i32 0, i32 0
  %36 = load %"struct.std::__1::__hash_node_base.148"**, %"struct.std::__1::__hash_node_base.148"*** %35, align 8
  %37 = getelementptr inbounds %"struct.std::__1::__hash_node_base.148"*, %"struct.std::__1::__hash_node_base.148"** %36, i64 %34
  %38 = load %"struct.std::__1::__hash_node_base.148"*, %"struct.std::__1::__hash_node_base.148"** %37, align 8
  %39 = icmp eq %"struct.std::__1::__hash_node_base.148"* %38, null
  br i1 %39, label %71, label %40

40:                                               ; preds = %33
  %41 = getelementptr inbounds %"struct.std::__1::__hash_node_base.148", %"struct.std::__1::__hash_node_base.148"* %38, i64 0, i32 0
  %42 = load %"struct.std::__1::__hash_node_base.148"*, %"struct.std::__1::__hash_node_base.148"** %41, align 8
  %43 = icmp eq %"struct.std::__1::__hash_node_base.148"* %42, null
  br i1 %43, label %71, label %44

44:                                               ; preds = %40
  %45 = add i64 %21, -1
  br label %46

46:                                               ; preds = %67, %44
  %47 = phi %"struct.std::__1::__hash_node_base.148"* [ %42, %44 ], [ %69, %67 ]
  %48 = getelementptr inbounds %"struct.std::__1::__hash_node_base.148", %"struct.std::__1::__hash_node_base.148"* %47, i64 1
  %49 = bitcast %"struct.std::__1::__hash_node_base.148"* %48 to i64*
  %50 = load i64, i64* %49, align 8
  %51 = icmp eq i64 %50, %19
  br i1 %51, label %62, label %52

52:                                               ; preds = %46
  br i1 %25, label %55, label %53

53:                                               ; preds = %52
  %54 = and i64 %50, %45
  br label %59

55:                                               ; preds = %52
  %56 = icmp ult i64 %50, %21
  br i1 %56, label %59, label %57

57:                                               ; preds = %55
  %58 = urem i64 %50, %21
  br label %59

59:                                               ; preds = %57, %55, %53
  %60 = phi i64 [ %54, %53 ], [ %58, %57 ], [ %50, %55 ]
  %61 = icmp eq i64 %60, %34
  br i1 %61, label %67, label %71

62:                                               ; preds = %46
  %63 = getelementptr inbounds %"struct.std::__1::__hash_node_base.148", %"struct.std::__1::__hash_node_base.148"* %47, i64 2
  %64 = bitcast %"struct.std::__1::__hash_node_base.148"* %63 to i8**
  %65 = load i8*, i8** %64, align 8
  %66 = icmp eq i8* %65, %0
  br i1 %66, label %103, label %67

67:                                               ; preds = %62, %59
  %68 = getelementptr inbounds %"struct.std::__1::__hash_node_base.148", %"struct.std::__1::__hash_node_base.148"* %47, i64 0, i32 0
  %69 = load %"struct.std::__1::__hash_node_base.148"*, %"struct.std::__1::__hash_node_base.148"** %68, align 8
  %70 = icmp eq %"struct.std::__1::__hash_node_base.148"* %69, null
  br i1 %70, label %71, label %46

71:                                               ; preds = %59, %67, %33, %2, %40
  %72 = tail call i8* @_Znwm(i64 328) #14
  %73 = bitcast i8* %72 to %struct._debug_report_data*
  %74 = getelementptr inbounds i8, i8* %72, i64 40
  %75 = getelementptr inbounds i8, i8* %72, i64 72
  %76 = bitcast i8* %75 to i32*
  tail call void @llvm.memset.p0i8.i64(i8* align 8 %74, i8 0, i64 32, i1 false) #15
  tail call void @llvm.memset.p0i8.i64(i8* nonnull align 8 %72, i8 0, i64 34, i1 false) #15
  store i32 1065353216, i32* %76, align 4
  %77 = getelementptr inbounds i8, i8* %72, i64 80
  %78 = getelementptr inbounds i8, i8* %72, i64 112
  %79 = bitcast i8* %78 to i32*
  tail call void @llvm.memset.p0i8.i64(i8* align 8 %77, i8 0, i64 32, i1 false) #15
  store i32 1065353216, i32* %79, align 4
  %80 = getelementptr inbounds i8, i8* %72, i64 120
  %81 = getelementptr inbounds i8, i8* %72, i64 152
  %82 = bitcast i8* %81 to i32*
  tail call void @llvm.memset.p0i8.i64(i8* align 8 %80, i8 0, i64 32, i1 false) #15
  store i32 1065353216, i32* %82, align 4
  %83 = getelementptr inbounds i8, i8* %72, i64 160
  %84 = getelementptr inbounds i8, i8* %72, i64 192
  %85 = bitcast i8* %84 to i32*
  tail call void @llvm.memset.p0i8.i64(i8* align 8 %83, i8 0, i64 32, i1 false) #15
  store i32 1065353216, i32* %85, align 4
  %86 = getelementptr inbounds i8, i8* %72, i64 200
  %87 = getelementptr inbounds i8, i8* %72, i64 272
  %88 = getelementptr inbounds i8, i8* %72, i64 304
  %89 = bitcast i8* %88 to i32*
  tail call void @llvm.memset.p0i8.i64(i8* align 8 %87, i8 0, i64 32, i1 false) #15
  tail call void @llvm.memset.p0i8.i64(i8* align 8 %86, i8 0, i64 68, i1 false) #15
  store i32 1065353216, i32* %89, align 4
  %90 = getelementptr inbounds i8, i8* %72, i64 312
  %91 = bitcast i8* %90 to i8**
  store i8* null, i8** %91, align 8
  %92 = getelementptr inbounds i8, i8* %72, i64 320
  store i8 0, i8* %92, align 8
  %93 = bitcast i8** %5 to i8*
  call void @llvm.lifetime.start.p0i8(i64 8, i8* nonnull %93) #15
  %94 = bitcast i8** %5 to i64*
  store i64 %6, i64* %94, align 8
  %95 = getelementptr inbounds %"class.std::__1::unordered_map.143", %"class.std::__1::unordered_map.143"* %1, i64 0, i32 0
  %96 = bitcast %"class.std::__1::tuple"* %3 to i8*
  call void @llvm.lifetime.start.p0i8(i64 8, i8* nonnull %96) #15
  %97 = getelementptr inbounds %"class.std::__1::tuple", %"class.std::__1::tuple"* %3, i64 0, i32 0, i32 0, i32 0
  store i8** %5, i8*** %97, align 8
  %98 = getelementptr inbounds %"class.std::__1::tuple.336", %"class.std::__1::tuple.336"* %4, i64 0, i32 0
  call void @llvm.lifetime.start.p0i8(i64 1, i8* nonnull %98) #15
  %99 = call { %"struct.std::__1::__hash_node_base.148"*, i8 } @_ZNSt3__112__hash_tableINS_17__hash_value_typeIPvP18_debug_report_dataEENS_22__unordered_map_hasherIS2_S5_NS_4hashIS2_EENS_8equal_toIS2_EELb1EEENS_21__unordered_map_equalIS2_S5_SA_S8_Lb1EEENS_9allocatorIS5_EEE25__emplace_unique_key_argsIS2_JRKNS_21piecewise_construct_tENS_5tupleIJOS2_EEENSL_IJEEEEEENS_4pairINS_15__hash_iteratorIPNS_11__hash_nodeIS5_S2_EEEEbEERKT_DpOT0_(%"class.std::__1::__hash_table.144"* %95, i8** nonnull dereferenceable(8) %5, %"struct.std::__1::piecewise_construct_t"* nonnull dereferenceable(1) @_ZNSt3__1L19piecewise_constructE, %"class.std::__1::tuple"* nonnull dereferenceable(8) %3, %"class.std::__1::tuple.336"* nonnull dereferenceable(1) %4) #15
  %100 = extractvalue { %"struct.std::__1::__hash_node_base.148"*, i8 } %99, 0
  %101 = getelementptr inbounds %"struct.std::__1::__hash_node_base.148", %"struct.std::__1::__hash_node_base.148"* %100, i64 3
  call void @llvm.lifetime.end.p0i8(i64 1, i8* nonnull %98) #15
  call void @llvm.lifetime.end.p0i8(i64 8, i8* nonnull %96) #15
  %102 = bitcast %"struct.std::__1::__hash_node_base.148"* %101 to i8**
  store i8* %72, i8** %102, align 8
  call void @llvm.lifetime.end.p0i8(i64 8, i8* nonnull %93) #15
  br label %107

103:                                              ; preds = %62
  %104 = getelementptr inbounds %"struct.std::__1::__hash_node_base.148", %"struct.std::__1::__hash_node_base.148"* %47, i64 3
  %105 = bitcast %"struct.std::__1::__hash_node_base.148"* %104 to %struct._debug_report_data**
  %106 = load %struct._debug_report_data*, %struct._debug_report_data** %105, align 8
  br label %107

107:                                              ; preds = %103, %71
  %108 = phi %struct._debug_report_data* [ %73, %71 ], [ %106, %103 ]
  ret %struct._debug_report_data* %108
}

; Function Attrs: nobuiltin nofree
declare noalias nonnull i8* @_Znwm(i64) local_unnamed_addr #4

; Function Attrs: nounwind ssp uwtable
define linkonce_odr hidden void @_ZNSt3__13setINS_12basic_stringIcNS_11char_traitsIcEENS_9allocatorIcEEEENS_4lessIS6_EENS4_IS6_EEED2Ev(%"class.std::__1::set"*) unnamed_addr #2 comdat align 2 {
  %2 = getelementptr inbounds %"class.std::__1::set", %"class.std::__1::set"* %0, i64 0, i32 0
  %3 = getelementptr inbounds %"class.std::__1::set", %"class.std::__1::set"* %0, i64 0, i32 0, i32 1, i32 0, i32 0
  %4 = bitcast %"class.std::__1::__tree_end_node"* %3 to %"class.std::__1::__tree_node"**
  %5 = load %"class.std::__1::__tree_node"*, %"class.std::__1::__tree_node"** %4, align 8
  tail call void @_ZNSt3__16__treeINS_12basic_stringIcNS_11char_traitsIcEENS_9allocatorIcEEEENS_4lessIS6_EENS4_IS6_EEE7destroyEPNS_11__tree_nodeIS6_PvEE(%"class.std::__1::__tree"* %2, %"class.std::__1::__tree_node"* %5) #15
  ret void
}

; Function Attrs: nounwind ssp uwtable
define linkonce_odr hidden void @_ZNSt3__14pairIKNS_12basic_stringIcNS_11char_traitsIcEENS_9allocatorIcEEEES6_EC2IRA36_KcRA29_SA_Lb0EEEOT_OT0_(%"struct.std::__1::pair.205"*, [36 x i8]* dereferenceable(36), [29 x i8]* dereferenceable(29)) unnamed_addr #2 comdat align 2 {
  %4 = getelementptr inbounds [36 x i8], [36 x i8]* %1, i64 0, i64 0
  %5 = tail call i64 @strlen(i8* %4) #15
  %6 = icmp ugt i64 %5, -17
  br i1 %6, label %7, label %9

7:                                                ; preds = %3
  %8 = bitcast %"struct.std::__1::pair.205"* %0 to %"class.std::__1::__basic_string_common"*
  tail call void @_ZNKSt3__121__basic_string_commonILb1EE20__throw_length_errorEv(%"class.std::__1::__basic_string_common"* %8) #16
  unreachable

9:                                                ; preds = %3
  %10 = icmp ult i64 %5, 23
  br i1 %10, label %19, label %11

11:                                               ; preds = %9
  %12 = add nuw i64 %5, 16
  %13 = and i64 %12, -16
  %14 = tail call i8* @_Znwm(i64 %13) #14
  %15 = getelementptr inbounds %"struct.std::__1::pair.205", %"struct.std::__1::pair.205"* %0, i64 0, i32 0, i32 0, i32 0, i32 0, i32 0, i32 0, i32 0
  store i8* %14, i8** %15, align 8
  %16 = or i64 %13, -9223372036854775808
  %17 = getelementptr inbounds %"struct.std::__1::pair.205", %"struct.std::__1::pair.205"* %0, i64 0, i32 0, i32 0, i32 0, i32 0, i32 0, i32 0, i32 2
  store i64 %16, i64* %17, align 8
  %18 = getelementptr inbounds %"struct.std::__1::pair.205", %"struct.std::__1::pair.205"* %0, i64 0, i32 0, i32 0, i32 0, i32 0, i32 0, i32 0, i32 1
  store i64 %5, i64* %18, align 8
  br label %25

19:                                               ; preds = %9
  %20 = trunc i64 %5 to i8
  %21 = bitcast %"struct.std::__1::pair.205"* %0 to %"struct.std::__1::basic_string<char, std::__1::char_traits<char>, std::__1::allocator<char> >::__short"*
  %22 = getelementptr inbounds %"struct.std::__1::basic_string<char, std::__1::char_traits<char>, std::__1::allocator<char> >::__short", %"struct.std::__1::basic_string<char, std::__1::char_traits<char>, std::__1::allocator<char> >::__short"* %21, i64 0, i32 1, i32 0
  store i8 %20, i8* %22, align 1
  %23 = bitcast %"struct.std::__1::pair.205"* %0 to i8*
  %24 = icmp eq i64 %5, 0
  br i1 %24, label %27, label %25

25:                                               ; preds = %19, %11
  %26 = phi i8* [ %14, %11 ], [ %23, %19 ]
  tail call void @llvm.memcpy.p0i8.p0i8.i64(i8* align 1 %26, i8* align 1 %4, i64 %5, i1 false) #15
  br label %27

27:                                               ; preds = %19, %25
  %28 = phi i8* [ %23, %19 ], [ %26, %25 ]
  %29 = getelementptr inbounds i8, i8* %28, i64 %5
  store i8 0, i8* %29, align 1
  %30 = getelementptr inbounds %"struct.std::__1::pair.205", %"struct.std::__1::pair.205"* %0, i64 0, i32 1
  %31 = getelementptr inbounds [29 x i8], [29 x i8]* %2, i64 0, i64 0
  %32 = tail call i64 @strlen(i8* %31) #15
  %33 = icmp ugt i64 %32, -17
  br i1 %33, label %34, label %36

34:                                               ; preds = %27
  %35 = bitcast %"class.std::__1::basic_string"* %30 to %"class.std::__1::__basic_string_common"*
  tail call void @_ZNKSt3__121__basic_string_commonILb1EE20__throw_length_errorEv(%"class.std::__1::__basic_string_common"* %35) #16
  unreachable

36:                                               ; preds = %27
  %37 = icmp ult i64 %32, 23
  br i1 %37, label %46, label %38

38:                                               ; preds = %36
  %39 = add nuw i64 %32, 16
  %40 = and i64 %39, -16
  %41 = tail call i8* @_Znwm(i64 %40) #14
  %42 = getelementptr inbounds %"class.std::__1::basic_string", %"class.std::__1::basic_string"* %30, i64 0, i32 0, i32 0, i32 0, i32 0, i32 0, i32 0
  store i8* %41, i8** %42, align 8
  %43 = or i64 %40, -9223372036854775808
  %44 = getelementptr inbounds %"struct.std::__1::pair.205", %"struct.std::__1::pair.205"* %0, i64 0, i32 1, i32 0, i32 0, i32 0, i32 0, i32 0, i32 2
  store i64 %43, i64* %44, align 8
  %45 = getelementptr inbounds %"struct.std::__1::pair.205", %"struct.std::__1::pair.205"* %0, i64 0, i32 1, i32 0, i32 0, i32 0, i32 0, i32 0, i32 1
  store i64 %32, i64* %45, align 8
  br label %52

46:                                               ; preds = %36
  %47 = trunc i64 %32 to i8
  %48 = bitcast %"class.std::__1::basic_string"* %30 to %"struct.std::__1::basic_string<char, std::__1::char_traits<char>, std::__1::allocator<char> >::__short"*
  %49 = getelementptr inbounds %"struct.std::__1::basic_string<char, std::__1::char_traits<char>, std::__1::allocator<char> >::__short", %"struct.std::__1::basic_string<char, std::__1::char_traits<char>, std::__1::allocator<char> >::__short"* %48, i64 0, i32 1, i32 0
  store i8 %47, i8* %49, align 1
  %50 = bitcast %"class.std::__1::basic_string"* %30 to i8*
  %51 = icmp eq i64 %32, 0
  br i1 %51, label %54, label %52

52:                                               ; preds = %46, %38
  %53 = phi i8* [ %41, %38 ], [ %50, %46 ]
  tail call void @llvm.memcpy.p0i8.p0i8.i64(i8* align 1 %53, i8* align 1 %31, i64 %32, i1 false) #15
  br label %54

54:                                               ; preds = %46, %52
  %55 = phi i8* [ %50, %46 ], [ %53, %52 ]
  %56 = getelementptr inbounds i8, i8* %55, i64 %32
  store i8 0, i8* %56, align 1
  ret void
}

; Function Attrs: nounwind ssp uwtable
define linkonce_odr hidden void @_ZNSt3__14pairIKNS_12basic_stringIcNS_11char_traitsIcEENS_9allocatorIcEEEES6_EC2IRA23_KcRA17_SA_Lb0EEEOT_OT0_(%"struct.std::__1::pair.205"*, [23 x i8]* dereferenceable(23), [17 x i8]* dereferenceable(17)) unnamed_addr #2 comdat align 2 {
  %4 = getelementptr inbounds [23 x i8], [23 x i8]* %1, i64 0, i64 0
  %5 = tail call i64 @strlen(i8* %4) #15
  %6 = icmp ugt i64 %5, -17
  br i1 %6, label %7, label %9

7:                                                ; preds = %3
  %8 = bitcast %"struct.std::__1::pair.205"* %0 to %"class.std::__1::__basic_string_common"*
  tail call void @_ZNKSt3__121__basic_string_commonILb1EE20__throw_length_errorEv(%"class.std::__1::__basic_string_common"* %8) #16
  unreachable

9:                                                ; preds = %3
  %10 = icmp ult i64 %5, 23
  br i1 %10, label %19, label %11

11:                                               ; preds = %9
  %12 = add nuw i64 %5, 16
  %13 = and i64 %12, -16
  %14 = tail call i8* @_Znwm(i64 %13) #14
  %15 = getelementptr inbounds %"struct.std::__1::pair.205", %"struct.std::__1::pair.205"* %0, i64 0, i32 0, i32 0, i32 0, i32 0, i32 0, i32 0, i32 0
  store i8* %14, i8** %15, align 8
  %16 = or i64 %13, -9223372036854775808
  %17 = getelementptr inbounds %"struct.std::__1::pair.205", %"struct.std::__1::pair.205"* %0, i64 0, i32 0, i32 0, i32 0, i32 0, i32 0, i32 0, i32 2
  store i64 %16, i64* %17, align 8
  %18 = getelementptr inbounds %"struct.std::__1::pair.205", %"struct.std::__1::pair.205"* %0, i64 0, i32 0, i32 0, i32 0, i32 0, i32 0, i32 0, i32 1
  store i64 %5, i64* %18, align 8
  br label %25

19:                                               ; preds = %9
  %20 = trunc i64 %5 to i8
  %21 = bitcast %"struct.std::__1::pair.205"* %0 to %"struct.std::__1::basic_string<char, std::__1::char_traits<char>, std::__1::allocator<char> >::__short"*
  %22 = getelementptr inbounds %"struct.std::__1::basic_string<char, std::__1::char_traits<char>, std::__1::allocator<char> >::__short", %"struct.std::__1::basic_string<char, std::__1::char_traits<char>, std::__1::allocator<char> >::__short"* %21, i64 0, i32 1, i32 0
  store i8 %20, i8* %22, align 1
  %23 = bitcast %"struct.std::__1::pair.205"* %0 to i8*
  %24 = icmp eq i64 %5, 0
  br i1 %24, label %27, label %25

25:                                               ; preds = %19, %11
  %26 = phi i8* [ %14, %11 ], [ %23, %19 ]
  tail call void @llvm.memcpy.p0i8.p0i8.i64(i8* align 1 %26, i8* align 1 %4, i64 %5, i1 false) #15
  br label %27

27:                                               ; preds = %19, %25
  %28 = phi i8* [ %23, %19 ], [ %26, %25 ]
  %29 = getelementptr inbounds i8, i8* %28, i64 %5
  store i8 0, i8* %29, align 1
  %30 = getelementptr inbounds %"struct.std::__1::pair.205", %"struct.std::__1::pair.205"* %0, i64 0, i32 1
  %31 = getelementptr inbounds [17 x i8], [17 x i8]* %2, i64 0, i64 0
  %32 = tail call i64 @strlen(i8* %31) #15
  %33 = icmp ugt i64 %32, -17
  br i1 %33, label %34, label %36

34:                                               ; preds = %27
  %35 = bitcast %"class.std::__1::basic_string"* %30 to %"class.std::__1::__basic_string_common"*
  tail call void @_ZNKSt3__121__basic_string_commonILb1EE20__throw_length_errorEv(%"class.std::__1::__basic_string_common"* %35) #16
  unreachable

36:                                               ; preds = %27
  %37 = icmp ult i64 %32, 23
  br i1 %37, label %46, label %38

38:                                               ; preds = %36
  %39 = add nuw i64 %32, 16
  %40 = and i64 %39, -16
  %41 = tail call i8* @_Znwm(i64 %40) #14
  %42 = getelementptr inbounds %"class.std::__1::basic_string", %"class.std::__1::basic_string"* %30, i64 0, i32 0, i32 0, i32 0, i32 0, i32 0, i32 0
  store i8* %41, i8** %42, align 8
  %43 = or i64 %40, -9223372036854775808
  %44 = getelementptr inbounds %"struct.std::__1::pair.205", %"struct.std::__1::pair.205"* %0, i64 0, i32 1, i32 0, i32 0, i32 0, i32 0, i32 0, i32 2
  store i64 %43, i64* %44, align 8
  %45 = getelementptr inbounds %"struct.std::__1::pair.205", %"struct.std::__1::pair.205"* %0, i64 0, i32 1, i32 0, i32 0, i32 0, i32 0, i32 0, i32 1
  store i64 %32, i64* %45, align 8
  br label %52

46:                                               ; preds = %36
  %47 = trunc i64 %32 to i8
  %48 = bitcast %"class.std::__1::basic_string"* %30 to %"struct.std::__1::basic_string<char, std::__1::char_traits<char>, std::__1::allocator<char> >::__short"*
  %49 = getelementptr inbounds %"struct.std::__1::basic_string<char, std::__1::char_traits<char>, std::__1::allocator<char> >::__short", %"struct.std::__1::basic_string<char, std::__1::char_traits<char>, std::__1::allocator<char> >::__short"* %48, i64 0, i32 1, i32 0
  store i8 %47, i8* %49, align 1
  %50 = bitcast %"class.std::__1::basic_string"* %30 to i8*
  %51 = icmp eq i64 %32, 0
  br i1 %51, label %54, label %52

52:                                               ; preds = %46, %38
  %53 = phi i8* [ %41, %38 ], [ %50, %46 ]
  tail call void @llvm.memcpy.p0i8.p0i8.i64(i8* align 1 %53, i8* align 1 %31, i64 %32, i1 false) #15
  br label %54

54:                                               ; preds = %46, %52
  %55 = phi i8* [ %50, %46 ], [ %53, %52 ]
  %56 = getelementptr inbounds i8, i8* %55, i64 %32
  store i8 0, i8* %56, align 1
  ret void
}

; Function Attrs: nounwind ssp uwtable
define linkonce_odr hidden void @_ZNSt3__14pairIKNS_12basic_stringIcNS_11char_traitsIcEENS_9allocatorIcEEEES6_EC2IRA22_KcRA17_SA_Lb0EEEOT_OT0_(%"struct.std::__1::pair.205"*, [22 x i8]* dereferenceable(22), [17 x i8]* dereferenceable(17)) unnamed_addr #2 comdat align 2 {
  %4 = getelementptr inbounds [22 x i8], [22 x i8]* %1, i64 0, i64 0
  %5 = tail call i64 @strlen(i8* %4) #15
  %6 = icmp ugt i64 %5, -17
  br i1 %6, label %7, label %9

7:                                                ; preds = %3
  %8 = bitcast %"struct.std::__1::pair.205"* %0 to %"class.std::__1::__basic_string_common"*
  tail call void @_ZNKSt3__121__basic_string_commonILb1EE20__throw_length_errorEv(%"class.std::__1::__basic_string_common"* %8) #16
  unreachable

9:                                                ; preds = %3
  %10 = icmp ult i64 %5, 23
  br i1 %10, label %19, label %11

11:                                               ; preds = %9
  %12 = add nuw i64 %5, 16
  %13 = and i64 %12, -16
  %14 = tail call i8* @_Znwm(i64 %13) #14
  %15 = getelementptr inbounds %"struct.std::__1::pair.205", %"struct.std::__1::pair.205"* %0, i64 0, i32 0, i32 0, i32 0, i32 0, i32 0, i32 0, i32 0
  store i8* %14, i8** %15, align 8
  %16 = or i64 %13, -9223372036854775808
  %17 = getelementptr inbounds %"struct.std::__1::pair.205", %"struct.std::__1::pair.205"* %0, i64 0, i32 0, i32 0, i32 0, i32 0, i32 0, i32 0, i32 2
  store i64 %16, i64* %17, align 8
  %18 = getelementptr inbounds %"struct.std::__1::pair.205", %"struct.std::__1::pair.205"* %0, i64 0, i32 0, i32 0, i32 0, i32 0, i32 0, i32 0, i32 1
  store i64 %5, i64* %18, align 8
  br label %25

19:                                               ; preds = %9
  %20 = trunc i64 %5 to i8
  %21 = bitcast %"struct.std::__1::pair.205"* %0 to %"struct.std::__1::basic_string<char, std::__1::char_traits<char>, std::__1::allocator<char> >::__short"*
  %22 = getelementptr inbounds %"struct.std::__1::basic_string<char, std::__1::char_traits<char>, std::__1::allocator<char> >::__short", %"struct.std::__1::basic_string<char, std::__1::char_traits<char>, std::__1::allocator<char> >::__short"* %21, i64 0, i32 1, i32 0
  store i8 %20, i8* %22, align 1
  %23 = bitcast %"struct.std::__1::pair.205"* %0 to i8*
  %24 = icmp eq i64 %5, 0
  br i1 %24, label %27, label %25

25:                                               ; preds = %19, %11
  %26 = phi i8* [ %14, %11 ], [ %23, %19 ]
  tail call void @llvm.memcpy.p0i8.p0i8.i64(i8* align 1 %26, i8* align 1 %4, i64 %5, i1 false) #15
  br label %27

27:                                               ; preds = %19, %25
  %28 = phi i8* [ %23, %19 ], [ %26, %25 ]
  %29 = getelementptr inbounds i8, i8* %28, i64 %5
  store i8 0, i8* %29, align 1
  %30 = getelementptr inbounds %"struct.std::__1::pair.205", %"struct.std::__1::pair.205"* %0, i64 0, i32 1
  %31 = getelementptr inbounds [17 x i8], [17 x i8]* %2, i64 0, i64 0
  %32 = tail call i64 @strlen(i8* %31) #15
  %33 = icmp ugt i64 %32, -17
  br i1 %33, label %34, label %36

34:                                               ; preds = %27
  %35 = bitcast %"class.std::__1::basic_string"* %30 to %"class.std::__1::__basic_string_common"*
  tail call void @_ZNKSt3__121__basic_string_commonILb1EE20__throw_length_errorEv(%"class.std::__1::__basic_string_common"* %35) #16
  unreachable

36:                                               ; preds = %27
  %37 = icmp ult i64 %32, 23
  br i1 %37, label %46, label %38

38:                                               ; preds = %36
  %39 = add nuw i64 %32, 16
  %40 = and i64 %39, -16
  %41 = tail call i8* @_Znwm(i64 %40) #14
  %42 = getelementptr inbounds %"class.std::__1::basic_string", %"class.std::__1::basic_string"* %30, i64 0, i32 0, i32 0, i32 0, i32 0, i32 0, i32 0
  store i8* %41, i8** %42, align 8
  %43 = or i64 %40, -9223372036854775808
  %44 = getelementptr inbounds %"struct.std::__1::pair.205", %"struct.std::__1::pair.205"* %0, i64 0, i32 1, i32 0, i32 0, i32 0, i32 0, i32 0, i32 2
  store i64 %43, i64* %44, align 8
  %45 = getelementptr inbounds %"struct.std::__1::pair.205", %"struct.std::__1::pair.205"* %0, i64 0, i32 1, i32 0, i32 0, i32 0, i32 0, i32 0, i32 1
  store i64 %32, i64* %45, align 8
  br label %52

46:                                               ; preds = %36
  %47 = trunc i64 %32 to i8
  %48 = bitcast %"class.std::__1::basic_string"* %30 to %"struct.std::__1::basic_string<char, std::__1::char_traits<char>, std::__1::allocator<char> >::__short"*
  %49 = getelementptr inbounds %"struct.std::__1::basic_string<char, std::__1::char_traits<char>, std::__1::allocator<char> >::__short", %"struct.std::__1::basic_string<char, std::__1::char_traits<char>, std::__1::allocator<char> >::__short"* %48, i64 0, i32 1, i32 0
  store i8 %47, i8* %49, align 1
  %50 = bitcast %"class.std::__1::basic_string"* %30 to i8*
  %51 = icmp eq i64 %32, 0
  br i1 %51, label %54, label %52

52:                                               ; preds = %46, %38
  %53 = phi i8* [ %41, %38 ], [ %50, %46 ]
  tail call void @llvm.memcpy.p0i8.p0i8.i64(i8* align 1 %53, i8* align 1 %31, i64 %32, i1 false) #15
  br label %54

54:                                               ; preds = %46, %52
  %55 = phi i8* [ %50, %46 ], [ %53, %52 ]
  %56 = getelementptr inbounds i8, i8* %55, i64 %32
  store i8 0, i8* %56, align 1
  ret void
}

; Function Attrs: nounwind ssp uwtable
define linkonce_odr hidden void @_ZNSt3__14pairIKNS_12basic_stringIcNS_11char_traitsIcEENS_9allocatorIcEEEES6_EC2IRA39_KcRA27_SA_Lb0EEEOT_OT0_(%"struct.std::__1::pair.205"*, [39 x i8]* dereferenceable(39), [27 x i8]* dereferenceable(27)) unnamed_addr #2 comdat align 2 {
  %4 = getelementptr inbounds [39 x i8], [39 x i8]* %1, i64 0, i64 0
  %5 = tail call i64 @strlen(i8* %4) #15
  %6 = icmp ugt i64 %5, -17
  br i1 %6, label %7, label %9

7:                                                ; preds = %3
  %8 = bitcast %"struct.std::__1::pair.205"* %0 to %"class.std::__1::__basic_string_common"*
  tail call void @_ZNKSt3__121__basic_string_commonILb1EE20__throw_length_errorEv(%"class.std::__1::__basic_string_common"* %8) #16
  unreachable

9:                                                ; preds = %3
  %10 = icmp ult i64 %5, 23
  br i1 %10, label %19, label %11

11:                                               ; preds = %9
  %12 = add nuw i64 %5, 16
  %13 = and i64 %12, -16
  %14 = tail call i8* @_Znwm(i64 %13) #14
  %15 = getelementptr inbounds %"struct.std::__1::pair.205", %"struct.std::__1::pair.205"* %0, i64 0, i32 0, i32 0, i32 0, i32 0, i32 0, i32 0, i32 0
  store i8* %14, i8** %15, align 8
  %16 = or i64 %13, -9223372036854775808
  %17 = getelementptr inbounds %"struct.std::__1::pair.205", %"struct.std::__1::pair.205"* %0, i64 0, i32 0, i32 0, i32 0, i32 0, i32 0, i32 0, i32 2
  store i64 %16, i64* %17, align 8
  %18 = getelementptr inbounds %"struct.std::__1::pair.205", %"struct.std::__1::pair.205"* %0, i64 0, i32 0, i32 0, i32 0, i32 0, i32 0, i32 0, i32 1
  store i64 %5, i64* %18, align 8
  br label %25

19:                                               ; preds = %9
  %20 = trunc i64 %5 to i8
  %21 = bitcast %"struct.std::__1::pair.205"* %0 to %"struct.std::__1::basic_string<char, std::__1::char_traits<char>, std::__1::allocator<char> >::__short"*
  %22 = getelementptr inbounds %"struct.std::__1::basic_string<char, std::__1::char_traits<char>, std::__1::allocator<char> >::__short", %"struct.std::__1::basic_string<char, std::__1::char_traits<char>, std::__1::allocator<char> >::__short"* %21, i64 0, i32 1, i32 0
  store i8 %20, i8* %22, align 1
  %23 = bitcast %"struct.std::__1::pair.205"* %0 to i8*
  %24 = icmp eq i64 %5, 0
  br i1 %24, label %27, label %25

25:                                               ; preds = %19, %11
  %26 = phi i8* [ %14, %11 ], [ %23, %19 ]
  tail call void @llvm.memcpy.p0i8.p0i8.i64(i8* align 1 %26, i8* align 1 %4, i64 %5, i1 false) #15
  br label %27

27:                                               ; preds = %19, %25
  %28 = phi i8* [ %23, %19 ], [ %26, %25 ]
  %29 = getelementptr inbounds i8, i8* %28, i64 %5
  store i8 0, i8* %29, align 1
  %30 = getelementptr inbounds %"struct.std::__1::pair.205", %"struct.std::__1::pair.205"* %0, i64 0, i32 1
  %31 = getelementptr inbounds [27 x i8], [27 x i8]* %2, i64 0, i64 0
  %32 = tail call i64 @strlen(i8* %31) #15
  %33 = icmp ugt i64 %32, -17
  br i1 %33, label %34, label %36

34:                                               ; preds = %27
  %35 = bitcast %"class.std::__1::basic_string"* %30 to %"class.std::__1::__basic_string_common"*
  tail call void @_ZNKSt3__121__basic_string_commonILb1EE20__throw_length_errorEv(%"class.std::__1::__basic_string_common"* %35) #16
  unreachable

36:                                               ; preds = %27
  %37 = icmp ult i64 %32, 23
  br i1 %37, label %46, label %38

38:                                               ; preds = %36
  %39 = add nuw i64 %32, 16
  %40 = and i64 %39, -16
  %41 = tail call i8* @_Znwm(i64 %40) #14
  %42 = getelementptr inbounds %"class.std::__1::basic_string", %"class.std::__1::basic_string"* %30, i64 0, i32 0, i32 0, i32 0, i32 0, i32 0, i32 0
  store i8* %41, i8** %42, align 8
  %43 = or i64 %40, -9223372036854775808
  %44 = getelementptr inbounds %"struct.std::__1::pair.205", %"struct.std::__1::pair.205"* %0, i64 0, i32 1, i32 0, i32 0, i32 0, i32 0, i32 0, i32 2
  store i64 %43, i64* %44, align 8
  %45 = getelementptr inbounds %"struct.std::__1::pair.205", %"struct.std::__1::pair.205"* %0, i64 0, i32 1, i32 0, i32 0, i32 0, i32 0, i32 0, i32 1
  store i64 %32, i64* %45, align 8
  br label %52

46:                                               ; preds = %36
  %47 = trunc i64 %32 to i8
  %48 = bitcast %"class.std::__1::basic_string"* %30 to %"struct.std::__1::basic_string<char, std::__1::char_traits<char>, std::__1::allocator<char> >::__short"*
  %49 = getelementptr inbounds %"struct.std::__1::basic_string<char, std::__1::char_traits<char>, std::__1::allocator<char> >::__short", %"struct.std::__1::basic_string<char, std::__1::char_traits<char>, std::__1::allocator<char> >::__short"* %48, i64 0, i32 1, i32 0
  store i8 %47, i8* %49, align 1
  %50 = bitcast %"class.std::__1::basic_string"* %30 to i8*
  %51 = icmp eq i64 %32, 0
  br i1 %51, label %54, label %52

52:                                               ; preds = %46, %38
  %53 = phi i8* [ %41, %38 ], [ %50, %46 ]
  tail call void @llvm.memcpy.p0i8.p0i8.i64(i8* align 1 %53, i8* align 1 %31, i64 %32, i1 false) #15
  br label %54

54:                                               ; preds = %46, %52
  %55 = phi i8* [ %50, %46 ], [ %53, %52 ]
  %56 = getelementptr inbounds i8, i8* %55, i64 %32
  store i8 0, i8* %56, align 1
  ret void
}

; Function Attrs: nounwind ssp uwtable
define linkonce_odr hidden void @_ZNSt3__14pairIKNS_12basic_stringIcNS_11char_traitsIcEENS_9allocatorIcEEEES6_EC2IRA26_KcRA25_SA_Lb0EEEOT_OT0_(%"struct.std::__1::pair.205"*, [26 x i8]* dereferenceable(26), [25 x i8]* dereferenceable(25)) unnamed_addr #2 comdat align 2 {
  %4 = getelementptr inbounds [26 x i8], [26 x i8]* %1, i64 0, i64 0
  %5 = tail call i64 @strlen(i8* %4) #15
  %6 = icmp ugt i64 %5, -17
  br i1 %6, label %7, label %9

7:                                                ; preds = %3
  %8 = bitcast %"struct.std::__1::pair.205"* %0 to %"class.std::__1::__basic_string_common"*
  tail call void @_ZNKSt3__121__basic_string_commonILb1EE20__throw_length_errorEv(%"class.std::__1::__basic_string_common"* %8) #16
  unreachable

9:                                                ; preds = %3
  %10 = icmp ult i64 %5, 23
  br i1 %10, label %19, label %11

11:                                               ; preds = %9
  %12 = add nuw i64 %5, 16
  %13 = and i64 %12, -16
  %14 = tail call i8* @_Znwm(i64 %13) #14
  %15 = getelementptr inbounds %"struct.std::__1::pair.205", %"struct.std::__1::pair.205"* %0, i64 0, i32 0, i32 0, i32 0, i32 0, i32 0, i32 0, i32 0
  store i8* %14, i8** %15, align 8
  %16 = or i64 %13, -9223372036854775808
  %17 = getelementptr inbounds %"struct.std::__1::pair.205", %"struct.std::__1::pair.205"* %0, i64 0, i32 0, i32 0, i32 0, i32 0, i32 0, i32 0, i32 2
  store i64 %16, i64* %17, align 8
  %18 = getelementptr inbounds %"struct.std::__1::pair.205", %"struct.std::__1::pair.205"* %0, i64 0, i32 0, i32 0, i32 0, i32 0, i32 0, i32 0, i32 1
  store i64 %5, i64* %18, align 8
  br label %25

19:                                               ; preds = %9
  %20 = trunc i64 %5 to i8
  %21 = bitcast %"struct.std::__1::pair.205"* %0 to %"struct.std::__1::basic_string<char, std::__1::char_traits<char>, std::__1::allocator<char> >::__short"*
  %22 = getelementptr inbounds %"struct.std::__1::basic_string<char, std::__1::char_traits<char>, std::__1::allocator<char> >::__short", %"struct.std::__1::basic_string<char, std::__1::char_traits<char>, std::__1::allocator<char> >::__short"* %21, i64 0, i32 1, i32 0
  store i8 %20, i8* %22, align 1
  %23 = bitcast %"struct.std::__1::pair.205"* %0 to i8*
  %24 = icmp eq i64 %5, 0
  br i1 %24, label %27, label %25

25:                                               ; preds = %19, %11
  %26 = phi i8* [ %14, %11 ], [ %23, %19 ]
  tail call void @llvm.memcpy.p0i8.p0i8.i64(i8* align 1 %26, i8* align 1 %4, i64 %5, i1 false) #15
  br label %27

27:                                               ; preds = %19, %25
  %28 = phi i8* [ %23, %19 ], [ %26, %25 ]
  %29 = getelementptr inbounds i8, i8* %28, i64 %5
  store i8 0, i8* %29, align 1
  %30 = getelementptr inbounds %"struct.std::__1::pair.205", %"struct.std::__1::pair.205"* %0, i64 0, i32 1
  %31 = getelementptr inbounds [25 x i8], [25 x i8]* %2, i64 0, i64 0
  %32 = tail call i64 @strlen(i8* %31) #15
  %33 = icmp ugt i64 %32, -17
  br i1 %33, label %34, label %36

34:                                               ; preds = %27
  %35 = bitcast %"class.std::__1::basic_string"* %30 to %"class.std::__1::__basic_string_common"*
  tail call void @_ZNKSt3__121__basic_string_commonILb1EE20__throw_length_errorEv(%"class.std::__1::__basic_string_common"* %35) #16
  unreachable

36:                                               ; preds = %27
  %37 = icmp ult i64 %32, 23
  br i1 %37, label %46, label %38

38:                                               ; preds = %36
  %39 = add nuw i64 %32, 16
  %40 = and i64 %39, -16
  %41 = tail call i8* @_Znwm(i64 %40) #14
  %42 = getelementptr inbounds %"class.std::__1::basic_string", %"class.std::__1::basic_string"* %30, i64 0, i32 0, i32 0, i32 0, i32 0, i32 0, i32 0
  store i8* %41, i8** %42, align 8
  %43 = or i64 %40, -9223372036854775808
  %44 = getelementptr inbounds %"struct.std::__1::pair.205", %"struct.std::__1::pair.205"* %0, i64 0, i32 1, i32 0, i32 0, i32 0, i32 0, i32 0, i32 2
  store i64 %43, i64* %44, align 8
  %45 = getelementptr inbounds %"struct.std::__1::pair.205", %"struct.std::__1::pair.205"* %0, i64 0, i32 1, i32 0, i32 0, i32 0, i32 0, i32 0, i32 1
  store i64 %32, i64* %45, align 8
  br label %52

46:                                               ; preds = %36
  %47 = trunc i64 %32 to i8
  %48 = bitcast %"class.std::__1::basic_string"* %30 to %"struct.std::__1::basic_string<char, std::__1::char_traits<char>, std::__1::allocator<char> >::__short"*
  %49 = getelementptr inbounds %"struct.std::__1::basic_string<char, std::__1::char_traits<char>, std::__1::allocator<char> >::__short", %"struct.std::__1::basic_string<char, std::__1::char_traits<char>, std::__1::allocator<char> >::__short"* %48, i64 0, i32 1, i32 0
  store i8 %47, i8* %49, align 1
  %50 = bitcast %"class.std::__1::basic_string"* %30 to i8*
  %51 = icmp eq i64 %32, 0
  br i1 %51, label %54, label %52

52:                                               ; preds = %46, %38
  %53 = phi i8* [ %41, %38 ], [ %50, %46 ]
  tail call void @llvm.memcpy.p0i8.p0i8.i64(i8* align 1 %53, i8* align 1 %31, i64 %32, i1 false) #15
  br label %54

54:                                               ; preds = %46, %52
  %55 = phi i8* [ %50, %46 ], [ %53, %52 ]
  %56 = getelementptr inbounds i8, i8* %55, i64 %32
  store i8 0, i8* %56, align 1
  ret void
}

; Function Attrs: nounwind ssp uwtable
define linkonce_odr hidden void @_ZNSt3__14pairIKNS_12basic_stringIcNS_11char_traitsIcEENS_9allocatorIcEEEES6_EC2IRA36_KcRA18_SA_Lb0EEEOT_OT0_(%"struct.std::__1::pair.205"*, [36 x i8]* dereferenceable(36), [18 x i8]* dereferenceable(18)) unnamed_addr #2 comdat align 2 {
  %4 = getelementptr inbounds [36 x i8], [36 x i8]* %1, i64 0, i64 0
  %5 = tail call i64 @strlen(i8* %4) #15
  %6 = icmp ugt i64 %5, -17
  br i1 %6, label %7, label %9

7:                                                ; preds = %3
  %8 = bitcast %"struct.std::__1::pair.205"* %0 to %"class.std::__1::__basic_string_common"*
  tail call void @_ZNKSt3__121__basic_string_commonILb1EE20__throw_length_errorEv(%"class.std::__1::__basic_string_common"* %8) #16
  unreachable

9:                                                ; preds = %3
  %10 = icmp ult i64 %5, 23
  br i1 %10, label %19, label %11

11:                                               ; preds = %9
  %12 = add nuw i64 %5, 16
  %13 = and i64 %12, -16
  %14 = tail call i8* @_Znwm(i64 %13) #14
  %15 = getelementptr inbounds %"struct.std::__1::pair.205", %"struct.std::__1::pair.205"* %0, i64 0, i32 0, i32 0, i32 0, i32 0, i32 0, i32 0, i32 0
  store i8* %14, i8** %15, align 8
  %16 = or i64 %13, -9223372036854775808
  %17 = getelementptr inbounds %"struct.std::__1::pair.205", %"struct.std::__1::pair.205"* %0, i64 0, i32 0, i32 0, i32 0, i32 0, i32 0, i32 0, i32 2
  store i64 %16, i64* %17, align 8
  %18 = getelementptr inbounds %"struct.std::__1::pair.205", %"struct.std::__1::pair.205"* %0, i64 0, i32 0, i32 0, i32 0, i32 0, i32 0, i32 0, i32 1
  store i64 %5, i64* %18, align 8
  br label %25

19:                                               ; preds = %9
  %20 = trunc i64 %5 to i8
  %21 = bitcast %"struct.std::__1::pair.205"* %0 to %"struct.std::__1::basic_string<char, std::__1::char_traits<char>, std::__1::allocator<char> >::__short"*
  %22 = getelementptr inbounds %"struct.std::__1::basic_string<char, std::__1::char_traits<char>, std::__1::allocator<char> >::__short", %"struct.std::__1::basic_string<char, std::__1::char_traits<char>, std::__1::allocator<char> >::__short"* %21, i64 0, i32 1, i32 0
  store i8 %20, i8* %22, align 1
  %23 = bitcast %"struct.std::__1::pair.205"* %0 to i8*
  %24 = icmp eq i64 %5, 0
  br i1 %24, label %27, label %25

25:                                               ; preds = %19, %11
  %26 = phi i8* [ %14, %11 ], [ %23, %19 ]
  tail call void @llvm.memcpy.p0i8.p0i8.i64(i8* align 1 %26, i8* align 1 %4, i64 %5, i1 false) #15
  br label %27

27:                                               ; preds = %19, %25
  %28 = phi i8* [ %23, %19 ], [ %26, %25 ]
  %29 = getelementptr inbounds i8, i8* %28, i64 %5
  store i8 0, i8* %29, align 1
  %30 = getelementptr inbounds %"struct.std::__1::pair.205", %"struct.std::__1::pair.205"* %0, i64 0, i32 1
  %31 = getelementptr inbounds [18 x i8], [18 x i8]* %2, i64 0, i64 0
  %32 = tail call i64 @strlen(i8* %31) #15
  %33 = icmp ugt i64 %32, -17
  br i1 %33, label %34, label %36

34:                                               ; preds = %27
  %35 = bitcast %"class.std::__1::basic_string"* %30 to %"class.std::__1::__basic_string_common"*
  tail call void @_ZNKSt3__121__basic_string_commonILb1EE20__throw_length_errorEv(%"class.std::__1::__basic_string_common"* %35) #16
  unreachable

36:                                               ; preds = %27
  %37 = icmp ult i64 %32, 23
  br i1 %37, label %46, label %38

38:                                               ; preds = %36
  %39 = add nuw i64 %32, 16
  %40 = and i64 %39, -16
  %41 = tail call i8* @_Znwm(i64 %40) #14
  %42 = getelementptr inbounds %"class.std::__1::basic_string", %"class.std::__1::basic_string"* %30, i64 0, i32 0, i32 0, i32 0, i32 0, i32 0, i32 0
  store i8* %41, i8** %42, align 8
  %43 = or i64 %40, -9223372036854775808
  %44 = getelementptr inbounds %"struct.std::__1::pair.205", %"struct.std::__1::pair.205"* %0, i64 0, i32 1, i32 0, i32 0, i32 0, i32 0, i32 0, i32 2
  store i64 %43, i64* %44, align 8
  %45 = getelementptr inbounds %"struct.std::__1::pair.205", %"struct.std::__1::pair.205"* %0, i64 0, i32 1, i32 0, i32 0, i32 0, i32 0, i32 0, i32 1
  store i64 %32, i64* %45, align 8
  br label %52

46:                                               ; preds = %36
  %47 = trunc i64 %32 to i8
  %48 = bitcast %"class.std::__1::basic_string"* %30 to %"struct.std::__1::basic_string<char, std::__1::char_traits<char>, std::__1::allocator<char> >::__short"*
  %49 = getelementptr inbounds %"struct.std::__1::basic_string<char, std::__1::char_traits<char>, std::__1::allocator<char> >::__short", %"struct.std::__1::basic_string<char, std::__1::char_traits<char>, std::__1::allocator<char> >::__short"* %48, i64 0, i32 1, i32 0
  store i8 %47, i8* %49, align 1
  %50 = bitcast %"class.std::__1::basic_string"* %30 to i8*
  %51 = icmp eq i64 %32, 0
  br i1 %51, label %54, label %52

52:                                               ; preds = %46, %38
  %53 = phi i8* [ %41, %38 ], [ %50, %46 ]
  tail call void @llvm.memcpy.p0i8.p0i8.i64(i8* align 1 %53, i8* align 1 %31, i64 %32, i1 false) #15
  br label %54

54:                                               ; preds = %46, %52
  %55 = phi i8* [ %50, %46 ], [ %53, %52 ]
  %56 = getelementptr inbounds i8, i8* %55, i64 %32
  store i8 0, i8* %56, align 1
  ret void
}

; Function Attrs: nounwind ssp uwtable
define linkonce_odr hidden void @_ZNSt3__14pairIKNS_12basic_stringIcNS_11char_traitsIcEENS_9allocatorIcEEEES6_EC2IRA20_KcRA15_SA_Lb0EEEOT_OT0_(%"struct.std::__1::pair.205"*, [20 x i8]* dereferenceable(20), [15 x i8]* dereferenceable(15)) unnamed_addr #2 comdat align 2 {
  %4 = getelementptr inbounds [20 x i8], [20 x i8]* %1, i64 0, i64 0
  %5 = tail call i64 @strlen(i8* %4) #15
  %6 = icmp ugt i64 %5, -17
  br i1 %6, label %7, label %9

7:                                                ; preds = %3
  %8 = bitcast %"struct.std::__1::pair.205"* %0 to %"class.std::__1::__basic_string_common"*
  tail call void @_ZNKSt3__121__basic_string_commonILb1EE20__throw_length_errorEv(%"class.std::__1::__basic_string_common"* %8) #16
  unreachable

9:                                                ; preds = %3
  %10 = icmp ult i64 %5, 23
  br i1 %10, label %19, label %11

11:                                               ; preds = %9
  %12 = add nuw i64 %5, 16
  %13 = and i64 %12, -16
  %14 = tail call i8* @_Znwm(i64 %13) #14
  %15 = getelementptr inbounds %"struct.std::__1::pair.205", %"struct.std::__1::pair.205"* %0, i64 0, i32 0, i32 0, i32 0, i32 0, i32 0, i32 0, i32 0
  store i8* %14, i8** %15, align 8
  %16 = or i64 %13, -9223372036854775808
  %17 = getelementptr inbounds %"struct.std::__1::pair.205", %"struct.std::__1::pair.205"* %0, i64 0, i32 0, i32 0, i32 0, i32 0, i32 0, i32 0, i32 2
  store i64 %16, i64* %17, align 8
  %18 = getelementptr inbounds %"struct.std::__1::pair.205", %"struct.std::__1::pair.205"* %0, i64 0, i32 0, i32 0, i32 0, i32 0, i32 0, i32 0, i32 1
  store i64 %5, i64* %18, align 8
  br label %25

19:                                               ; preds = %9
  %20 = trunc i64 %5 to i8
  %21 = bitcast %"struct.std::__1::pair.205"* %0 to %"struct.std::__1::basic_string<char, std::__1::char_traits<char>, std::__1::allocator<char> >::__short"*
  %22 = getelementptr inbounds %"struct.std::__1::basic_string<char, std::__1::char_traits<char>, std::__1::allocator<char> >::__short", %"struct.std::__1::basic_string<char, std::__1::char_traits<char>, std::__1::allocator<char> >::__short"* %21, i64 0, i32 1, i32 0
  store i8 %20, i8* %22, align 1
  %23 = bitcast %"struct.std::__1::pair.205"* %0 to i8*
  %24 = icmp eq i64 %5, 0
  br i1 %24, label %27, label %25

25:                                               ; preds = %19, %11
  %26 = phi i8* [ %14, %11 ], [ %23, %19 ]
  tail call void @llvm.memcpy.p0i8.p0i8.i64(i8* align 1 %26, i8* align 1 %4, i64 %5, i1 false) #15
  br label %27

27:                                               ; preds = %19, %25
  %28 = phi i8* [ %23, %19 ], [ %26, %25 ]
  %29 = getelementptr inbounds i8, i8* %28, i64 %5
  store i8 0, i8* %29, align 1
  %30 = getelementptr inbounds %"struct.std::__1::pair.205", %"struct.std::__1::pair.205"* %0, i64 0, i32 1
  %31 = getelementptr inbounds [15 x i8], [15 x i8]* %2, i64 0, i64 0
  %32 = tail call i64 @strlen(i8* %31) #15
  %33 = icmp ugt i64 %32, -17
  br i1 %33, label %34, label %36

34:                                               ; preds = %27
  %35 = bitcast %"class.std::__1::basic_string"* %30 to %"class.std::__1::__basic_string_common"*
  tail call void @_ZNKSt3__121__basic_string_commonILb1EE20__throw_length_errorEv(%"class.std::__1::__basic_string_common"* %35) #16
  unreachable

36:                                               ; preds = %27
  %37 = icmp ult i64 %32, 23
  br i1 %37, label %46, label %38

38:                                               ; preds = %36
  %39 = add nuw i64 %32, 16
  %40 = and i64 %39, -16
  %41 = tail call i8* @_Znwm(i64 %40) #14
  %42 = getelementptr inbounds %"class.std::__1::basic_string", %"class.std::__1::basic_string"* %30, i64 0, i32 0, i32 0, i32 0, i32 0, i32 0, i32 0
  store i8* %41, i8** %42, align 8
  %43 = or i64 %40, -9223372036854775808
  %44 = getelementptr inbounds %"struct.std::__1::pair.205", %"struct.std::__1::pair.205"* %0, i64 0, i32 1, i32 0, i32 0, i32 0, i32 0, i32 0, i32 2
  store i64 %43, i64* %44, align 8
  %45 = getelementptr inbounds %"struct.std::__1::pair.205", %"struct.std::__1::pair.205"* %0, i64 0, i32 1, i32 0, i32 0, i32 0, i32 0, i32 0, i32 1
  store i64 %32, i64* %45, align 8
  br label %52

46:                                               ; preds = %36
  %47 = trunc i64 %32 to i8
  %48 = bitcast %"class.std::__1::basic_string"* %30 to %"struct.std::__1::basic_string<char, std::__1::char_traits<char>, std::__1::allocator<char> >::__short"*
  %49 = getelementptr inbounds %"struct.std::__1::basic_string<char, std::__1::char_traits<char>, std::__1::allocator<char> >::__short", %"struct.std::__1::basic_string<char, std::__1::char_traits<char>, std::__1::allocator<char> >::__short"* %48, i64 0, i32 1, i32 0
  store i8 %47, i8* %49, align 1
  %50 = bitcast %"class.std::__1::basic_string"* %30 to i8*
  %51 = icmp eq i64 %32, 0
  br i1 %51, label %54, label %52

52:                                               ; preds = %46, %38
  %53 = phi i8* [ %41, %38 ], [ %50, %46 ]
  tail call void @llvm.memcpy.p0i8.p0i8.i64(i8* align 1 %53, i8* align 1 %31, i64 %32, i1 false) #15
  br label %54

54:                                               ; preds = %46, %52
  %55 = phi i8* [ %50, %46 ], [ %53, %52 ]
  %56 = getelementptr inbounds i8, i8* %55, i64 %32
  store i8 0, i8* %56, align 1
  ret void
}

; Function Attrs: nounwind ssp uwtable
define linkonce_odr hidden void @_ZNSt3__14pairIKNS_12basic_stringIcNS_11char_traitsIcEENS_9allocatorIcEEEES6_EC2IRA23_KcRA20_SA_Lb0EEEOT_OT0_(%"struct.std::__1::pair.205"*, [23 x i8]* dereferenceable(23), [20 x i8]* dereferenceable(20)) unnamed_addr #2 comdat align 2 {
  %4 = getelementptr inbounds [23 x i8], [23 x i8]* %1, i64 0, i64 0
  %5 = tail call i64 @strlen(i8* %4) #15
  %6 = icmp ugt i64 %5, -17
  br i1 %6, label %7, label %9

7:                                                ; preds = %3
  %8 = bitcast %"struct.std::__1::pair.205"* %0 to %"class.std::__1::__basic_string_common"*
  tail call void @_ZNKSt3__121__basic_string_commonILb1EE20__throw_length_errorEv(%"class.std::__1::__basic_string_common"* %8) #16
  unreachable

9:                                                ; preds = %3
  %10 = icmp ult i64 %5, 23
  br i1 %10, label %19, label %11

11:                                               ; preds = %9
  %12 = add nuw i64 %5, 16
  %13 = and i64 %12, -16
  %14 = tail call i8* @_Znwm(i64 %13) #14
  %15 = getelementptr inbounds %"struct.std::__1::pair.205", %"struct.std::__1::pair.205"* %0, i64 0, i32 0, i32 0, i32 0, i32 0, i32 0, i32 0, i32 0
  store i8* %14, i8** %15, align 8
  %16 = or i64 %13, -9223372036854775808
  %17 = getelementptr inbounds %"struct.std::__1::pair.205", %"struct.std::__1::pair.205"* %0, i64 0, i32 0, i32 0, i32 0, i32 0, i32 0, i32 0, i32 2
  store i64 %16, i64* %17, align 8
  %18 = getelementptr inbounds %"struct.std::__1::pair.205", %"struct.std::__1::pair.205"* %0, i64 0, i32 0, i32 0, i32 0, i32 0, i32 0, i32 0, i32 1
  store i64 %5, i64* %18, align 8
  br label %25

19:                                               ; preds = %9
  %20 = trunc i64 %5 to i8
  %21 = bitcast %"struct.std::__1::pair.205"* %0 to %"struct.std::__1::basic_string<char, std::__1::char_traits<char>, std::__1::allocator<char> >::__short"*
  %22 = getelementptr inbounds %"struct.std::__1::basic_string<char, std::__1::char_traits<char>, std::__1::allocator<char> >::__short", %"struct.std::__1::basic_string<char, std::__1::char_traits<char>, std::__1::allocator<char> >::__short"* %21, i64 0, i32 1, i32 0
  store i8 %20, i8* %22, align 1
  %23 = bitcast %"struct.std::__1::pair.205"* %0 to i8*
  %24 = icmp eq i64 %5, 0
  br i1 %24, label %27, label %25

25:                                               ; preds = %19, %11
  %26 = phi i8* [ %14, %11 ], [ %23, %19 ]
  tail call void @llvm.memcpy.p0i8.p0i8.i64(i8* align 1 %26, i8* align 1 %4, i64 %5, i1 false) #15
  br label %27

27:                                               ; preds = %19, %25
  %28 = phi i8* [ %23, %19 ], [ %26, %25 ]
  %29 = getelementptr inbounds i8, i8* %28, i64 %5
  store i8 0, i8* %29, align 1
  %30 = getelementptr inbounds %"struct.std::__1::pair.205", %"struct.std::__1::pair.205"* %0, i64 0, i32 1
  %31 = getelementptr inbounds [20 x i8], [20 x i8]* %2, i64 0, i64 0
  %32 = tail call i64 @strlen(i8* %31) #15
  %33 = icmp ugt i64 %32, -17
  br i1 %33, label %34, label %36

34:                                               ; preds = %27
  %35 = bitcast %"class.std::__1::basic_string"* %30 to %"class.std::__1::__basic_string_common"*
  tail call void @_ZNKSt3__121__basic_string_commonILb1EE20__throw_length_errorEv(%"class.std::__1::__basic_string_common"* %35) #16
  unreachable

36:                                               ; preds = %27
  %37 = icmp ult i64 %32, 23
  br i1 %37, label %46, label %38

38:                                               ; preds = %36
  %39 = add nuw i64 %32, 16
  %40 = and i64 %39, -16
  %41 = tail call i8* @_Znwm(i64 %40) #14
  %42 = getelementptr inbounds %"class.std::__1::basic_string", %"class.std::__1::basic_string"* %30, i64 0, i32 0, i32 0, i32 0, i32 0, i32 0, i32 0
  store i8* %41, i8** %42, align 8
  %43 = or i64 %40, -9223372036854775808
  %44 = getelementptr inbounds %"struct.std::__1::pair.205", %"struct.std::__1::pair.205"* %0, i64 0, i32 1, i32 0, i32 0, i32 0, i32 0, i32 0, i32 2
  store i64 %43, i64* %44, align 8
  %45 = getelementptr inbounds %"struct.std::__1::pair.205", %"struct.std::__1::pair.205"* %0, i64 0, i32 1, i32 0, i32 0, i32 0, i32 0, i32 0, i32 1
  store i64 %32, i64* %45, align 8
  br label %52

46:                                               ; preds = %36
  %47 = trunc i64 %32 to i8
  %48 = bitcast %"class.std::__1::basic_string"* %30 to %"struct.std::__1::basic_string<char, std::__1::char_traits<char>, std::__1::allocator<char> >::__short"*
  %49 = getelementptr inbounds %"struct.std::__1::basic_string<char, std::__1::char_traits<char>, std::__1::allocator<char> >::__short", %"struct.std::__1::basic_string<char, std::__1::char_traits<char>, std::__1::allocator<char> >::__short"* %48, i64 0, i32 1, i32 0
  store i8 %47, i8* %49, align 1
  %50 = bitcast %"class.std::__1::basic_string"* %30 to i8*
  %51 = icmp eq i64 %32, 0
  br i1 %51, label %54, label %52

52:                                               ; preds = %46, %38
  %53 = phi i8* [ %41, %38 ], [ %50, %46 ]
  tail call void @llvm.memcpy.p0i8.p0i8.i64(i8* align 1 %53, i8* align 1 %31, i64 %32, i1 false) #15
  br label %54

54:                                               ; preds = %46, %52
  %55 = phi i8* [ %50, %46 ], [ %53, %52 ]
  %56 = getelementptr inbounds i8, i8* %55, i64 %32
  store i8 0, i8* %56, align 1
  ret void
}

; Function Attrs: nounwind ssp uwtable
define linkonce_odr hidden void @_ZNSt3__14pairIKNS_12basic_stringIcNS_11char_traitsIcEENS_9allocatorIcEEEES6_EC2IRA19_KcRA15_SA_Lb0EEEOT_OT0_(%"struct.std::__1::pair.205"*, [19 x i8]* dereferenceable(19), [15 x i8]* dereferenceable(15)) unnamed_addr #2 comdat align 2 {
  %4 = getelementptr inbounds [19 x i8], [19 x i8]* %1, i64 0, i64 0
  %5 = tail call i64 @strlen(i8* %4) #15
  %6 = icmp ugt i64 %5, -17
  br i1 %6, label %7, label %9

7:                                                ; preds = %3
  %8 = bitcast %"struct.std::__1::pair.205"* %0 to %"class.std::__1::__basic_string_common"*
  tail call void @_ZNKSt3__121__basic_string_commonILb1EE20__throw_length_errorEv(%"class.std::__1::__basic_string_common"* %8) #16
  unreachable

9:                                                ; preds = %3
  %10 = icmp ult i64 %5, 23
  br i1 %10, label %19, label %11

11:                                               ; preds = %9
  %12 = add nuw i64 %5, 16
  %13 = and i64 %12, -16
  %14 = tail call i8* @_Znwm(i64 %13) #14
  %15 = getelementptr inbounds %"struct.std::__1::pair.205", %"struct.std::__1::pair.205"* %0, i64 0, i32 0, i32 0, i32 0, i32 0, i32 0, i32 0, i32 0
  store i8* %14, i8** %15, align 8
  %16 = or i64 %13, -9223372036854775808
  %17 = getelementptr inbounds %"struct.std::__1::pair.205", %"struct.std::__1::pair.205"* %0, i64 0, i32 0, i32 0, i32 0, i32 0, i32 0, i32 0, i32 2
  store i64 %16, i64* %17, align 8
  %18 = getelementptr inbounds %"struct.std::__1::pair.205", %"struct.std::__1::pair.205"* %0, i64 0, i32 0, i32 0, i32 0, i32 0, i32 0, i32 0, i32 1
  store i64 %5, i64* %18, align 8
  br label %25

19:                                               ; preds = %9
  %20 = trunc i64 %5 to i8
  %21 = bitcast %"struct.std::__1::pair.205"* %0 to %"struct.std::__1::basic_string<char, std::__1::char_traits<char>, std::__1::allocator<char> >::__short"*
  %22 = getelementptr inbounds %"struct.std::__1::basic_string<char, std::__1::char_traits<char>, std::__1::allocator<char> >::__short", %"struct.std::__1::basic_string<char, std::__1::char_traits<char>, std::__1::allocator<char> >::__short"* %21, i64 0, i32 1, i32 0
  store i8 %20, i8* %22, align 1
  %23 = bitcast %"struct.std::__1::pair.205"* %0 to i8*
  %24 = icmp eq i64 %5, 0
  br i1 %24, label %27, label %25

25:                                               ; preds = %19, %11
  %26 = phi i8* [ %14, %11 ], [ %23, %19 ]
  tail call void @llvm.memcpy.p0i8.p0i8.i64(i8* align 1 %26, i8* align 1 %4, i64 %5, i1 false) #15
  br label %27

27:                                               ; preds = %19, %25
  %28 = phi i8* [ %23, %19 ], [ %26, %25 ]
  %29 = getelementptr inbounds i8, i8* %28, i64 %5
  store i8 0, i8* %29, align 1
  %30 = getelementptr inbounds %"struct.std::__1::pair.205", %"struct.std::__1::pair.205"* %0, i64 0, i32 1
  %31 = getelementptr inbounds [15 x i8], [15 x i8]* %2, i64 0, i64 0
  %32 = tail call i64 @strlen(i8* %31) #15
  %33 = icmp ugt i64 %32, -17
  br i1 %33, label %34, label %36

34:                                               ; preds = %27
  %35 = bitcast %"class.std::__1::basic_string"* %30 to %"class.std::__1::__basic_string_common"*
  tail call void @_ZNKSt3__121__basic_string_commonILb1EE20__throw_length_errorEv(%"class.std::__1::__basic_string_common"* %35) #16
  unreachable

36:                                               ; preds = %27
  %37 = icmp ult i64 %32, 23
  br i1 %37, label %46, label %38

38:                                               ; preds = %36
  %39 = add nuw i64 %32, 16
  %40 = and i64 %39, -16
  %41 = tail call i8* @_Znwm(i64 %40) #14
  %42 = getelementptr inbounds %"class.std::__1::basic_string", %"class.std::__1::basic_string"* %30, i64 0, i32 0, i32 0, i32 0, i32 0, i32 0, i32 0
  store i8* %41, i8** %42, align 8
  %43 = or i64 %40, -9223372036854775808
  %44 = getelementptr inbounds %"struct.std::__1::pair.205", %"struct.std::__1::pair.205"* %0, i64 0, i32 1, i32 0, i32 0, i32 0, i32 0, i32 0, i32 2
  store i64 %43, i64* %44, align 8
  %45 = getelementptr inbounds %"struct.std::__1::pair.205", %"struct.std::__1::pair.205"* %0, i64 0, i32 1, i32 0, i32 0, i32 0, i32 0, i32 0, i32 1
  store i64 %32, i64* %45, align 8
  br label %52

46:                                               ; preds = %36
  %47 = trunc i64 %32 to i8
  %48 = bitcast %"class.std::__1::basic_string"* %30 to %"struct.std::__1::basic_string<char, std::__1::char_traits<char>, std::__1::allocator<char> >::__short"*
  %49 = getelementptr inbounds %"struct.std::__1::basic_string<char, std::__1::char_traits<char>, std::__1::allocator<char> >::__short", %"struct.std::__1::basic_string<char, std::__1::char_traits<char>, std::__1::allocator<char> >::__short"* %48, i64 0, i32 1, i32 0
  store i8 %47, i8* %49, align 1
  %50 = bitcast %"class.std::__1::basic_string"* %30 to i8*
  %51 = icmp eq i64 %32, 0
  br i1 %51, label %54, label %52

52:                                               ; preds = %46, %38
  %53 = phi i8* [ %41, %38 ], [ %50, %46 ]
  tail call void @llvm.memcpy.p0i8.p0i8.i64(i8* align 1 %53, i8* align 1 %31, i64 %32, i1 false) #15
  br label %54

54:                                               ; preds = %46, %52
  %55 = phi i8* [ %50, %46 ], [ %53, %52 ]
  %56 = getelementptr inbounds i8, i8* %55, i64 %32
  store i8 0, i8* %56, align 1
  ret void
}

; Function Attrs: nounwind ssp uwtable
define linkonce_odr hidden void @_ZNSt3__14pairIKNS_12basic_stringIcNS_11char_traitsIcEENS_9allocatorIcEEEES6_EC2IRA22_KcRA20_SA_Lb0EEEOT_OT0_(%"struct.std::__1::pair.205"*, [22 x i8]* dereferenceable(22), [20 x i8]* dereferenceable(20)) unnamed_addr #2 comdat align 2 {
  %4 = getelementptr inbounds [22 x i8], [22 x i8]* %1, i64 0, i64 0
  %5 = tail call i64 @strlen(i8* %4) #15
  %6 = icmp ugt i64 %5, -17
  br i1 %6, label %7, label %9

7:                                                ; preds = %3
  %8 = bitcast %"struct.std::__1::pair.205"* %0 to %"class.std::__1::__basic_string_common"*
  tail call void @_ZNKSt3__121__basic_string_commonILb1EE20__throw_length_errorEv(%"class.std::__1::__basic_string_common"* %8) #16
  unreachable

9:                                                ; preds = %3
  %10 = icmp ult i64 %5, 23
  br i1 %10, label %19, label %11

11:                                               ; preds = %9
  %12 = add nuw i64 %5, 16
  %13 = and i64 %12, -16
  %14 = tail call i8* @_Znwm(i64 %13) #14
  %15 = getelementptr inbounds %"struct.std::__1::pair.205", %"struct.std::__1::pair.205"* %0, i64 0, i32 0, i32 0, i32 0, i32 0, i32 0, i32 0, i32 0
  store i8* %14, i8** %15, align 8
  %16 = or i64 %13, -9223372036854775808
  %17 = getelementptr inbounds %"struct.std::__1::pair.205", %"struct.std::__1::pair.205"* %0, i64 0, i32 0, i32 0, i32 0, i32 0, i32 0, i32 0, i32 2
  store i64 %16, i64* %17, align 8
  %18 = getelementptr inbounds %"struct.std::__1::pair.205", %"struct.std::__1::pair.205"* %0, i64 0, i32 0, i32 0, i32 0, i32 0, i32 0, i32 0, i32 1
  store i64 %5, i64* %18, align 8
  br label %25

19:                                               ; preds = %9
  %20 = trunc i64 %5 to i8
  %21 = bitcast %"struct.std::__1::pair.205"* %0 to %"struct.std::__1::basic_string<char, std::__1::char_traits<char>, std::__1::allocator<char> >::__short"*
  %22 = getelementptr inbounds %"struct.std::__1::basic_string<char, std::__1::char_traits<char>, std::__1::allocator<char> >::__short", %"struct.std::__1::basic_string<char, std::__1::char_traits<char>, std::__1::allocator<char> >::__short"* %21, i64 0, i32 1, i32 0
  store i8 %20, i8* %22, align 1
  %23 = bitcast %"struct.std::__1::pair.205"* %0 to i8*
  %24 = icmp eq i64 %5, 0
  br i1 %24, label %27, label %25

25:                                               ; preds = %19, %11
  %26 = phi i8* [ %14, %11 ], [ %23, %19 ]
  tail call void @llvm.memcpy.p0i8.p0i8.i64(i8* align 1 %26, i8* align 1 %4, i64 %5, i1 false) #15
  br label %27

27:                                               ; preds = %19, %25
  %28 = phi i8* [ %23, %19 ], [ %26, %25 ]
  %29 = getelementptr inbounds i8, i8* %28, i64 %5
  store i8 0, i8* %29, align 1
  %30 = getelementptr inbounds %"struct.std::__1::pair.205", %"struct.std::__1::pair.205"* %0, i64 0, i32 1
  %31 = getelementptr inbounds [20 x i8], [20 x i8]* %2, i64 0, i64 0
  %32 = tail call i64 @strlen(i8* %31) #15
  %33 = icmp ugt i64 %32, -17
  br i1 %33, label %34, label %36

34:                                               ; preds = %27
  %35 = bitcast %"class.std::__1::basic_string"* %30 to %"class.std::__1::__basic_string_common"*
  tail call void @_ZNKSt3__121__basic_string_commonILb1EE20__throw_length_errorEv(%"class.std::__1::__basic_string_common"* %35) #16
  unreachable

36:                                               ; preds = %27
  %37 = icmp ult i64 %32, 23
  br i1 %37, label %46, label %38

38:                                               ; preds = %36
  %39 = add nuw i64 %32, 16
  %40 = and i64 %39, -16
  %41 = tail call i8* @_Znwm(i64 %40) #14
  %42 = getelementptr inbounds %"class.std::__1::basic_string", %"class.std::__1::basic_string"* %30, i64 0, i32 0, i32 0, i32 0, i32 0, i32 0, i32 0
  store i8* %41, i8** %42, align 8
  %43 = or i64 %40, -9223372036854775808
  %44 = getelementptr inbounds %"struct.std::__1::pair.205", %"struct.std::__1::pair.205"* %0, i64 0, i32 1, i32 0, i32 0, i32 0, i32 0, i32 0, i32 2
  store i64 %43, i64* %44, align 8
  %45 = getelementptr inbounds %"struct.std::__1::pair.205", %"struct.std::__1::pair.205"* %0, i64 0, i32 1, i32 0, i32 0, i32 0, i32 0, i32 0, i32 1
  store i64 %32, i64* %45, align 8
  br label %52

46:                                               ; preds = %36
  %47 = trunc i64 %32 to i8
  %48 = bitcast %"class.std::__1::basic_string"* %30 to %"struct.std::__1::basic_string<char, std::__1::char_traits<char>, std::__1::allocator<char> >::__short"*
  %49 = getelementptr inbounds %"struct.std::__1::basic_string<char, std::__1::char_traits<char>, std::__1::allocator<char> >::__short", %"struct.std::__1::basic_string<char, std::__1::char_traits<char>, std::__1::allocator<char> >::__short"* %48, i64 0, i32 1, i32 0
  store i8 %47, i8* %49, align 1
  %50 = bitcast %"class.std::__1::basic_string"* %30 to i8*
  %51 = icmp eq i64 %32, 0
  br i1 %51, label %54, label %52

52:                                               ; preds = %46, %38
  %53 = phi i8* [ %41, %38 ], [ %50, %46 ]
  tail call void @llvm.memcpy.p0i8.p0i8.i64(i8* align 1 %53, i8* align 1 %31, i64 %32, i1 false) #15
  br label %54

54:                                               ; preds = %46, %52
  %55 = phi i8* [ %50, %46 ], [ %53, %52 ]
  %56 = getelementptr inbounds i8, i8* %55, i64 %32
  store i8 0, i8* %56, align 1
  ret void
}

; Function Attrs: nounwind ssp uwtable
define linkonce_odr hidden void @_ZNSt3__14pairIKNS_12basic_stringIcNS_11char_traitsIcEENS_9allocatorIcEEEES6_EC2IRA28_KcRA19_SA_Lb0EEEOT_OT0_(%"struct.std::__1::pair.205"*, [28 x i8]* dereferenceable(28), [19 x i8]* dereferenceable(19)) unnamed_addr #2 comdat align 2 {
  %4 = getelementptr inbounds [28 x i8], [28 x i8]* %1, i64 0, i64 0
  %5 = tail call i64 @strlen(i8* %4) #15
  %6 = icmp ugt i64 %5, -17
  br i1 %6, label %7, label %9

7:                                                ; preds = %3
  %8 = bitcast %"struct.std::__1::pair.205"* %0 to %"class.std::__1::__basic_string_common"*
  tail call void @_ZNKSt3__121__basic_string_commonILb1EE20__throw_length_errorEv(%"class.std::__1::__basic_string_common"* %8) #16
  unreachable

9:                                                ; preds = %3
  %10 = icmp ult i64 %5, 23
  br i1 %10, label %19, label %11

11:                                               ; preds = %9
  %12 = add nuw i64 %5, 16
  %13 = and i64 %12, -16
  %14 = tail call i8* @_Znwm(i64 %13) #14
  %15 = getelementptr inbounds %"struct.std::__1::pair.205", %"struct.std::__1::pair.205"* %0, i64 0, i32 0, i32 0, i32 0, i32 0, i32 0, i32 0, i32 0
  store i8* %14, i8** %15, align 8
  %16 = or i64 %13, -9223372036854775808
  %17 = getelementptr inbounds %"struct.std::__1::pair.205", %"struct.std::__1::pair.205"* %0, i64 0, i32 0, i32 0, i32 0, i32 0, i32 0, i32 0, i32 2
  store i64 %16, i64* %17, align 8
  %18 = getelementptr inbounds %"struct.std::__1::pair.205", %"struct.std::__1::pair.205"* %0, i64 0, i32 0, i32 0, i32 0, i32 0, i32 0, i32 0, i32 1
  store i64 %5, i64* %18, align 8
  br label %25

19:                                               ; preds = %9
  %20 = trunc i64 %5 to i8
  %21 = bitcast %"struct.std::__1::pair.205"* %0 to %"struct.std::__1::basic_string<char, std::__1::char_traits<char>, std::__1::allocator<char> >::__short"*
  %22 = getelementptr inbounds %"struct.std::__1::basic_string<char, std::__1::char_traits<char>, std::__1::allocator<char> >::__short", %"struct.std::__1::basic_string<char, std::__1::char_traits<char>, std::__1::allocator<char> >::__short"* %21, i64 0, i32 1, i32 0
  store i8 %20, i8* %22, align 1
  %23 = bitcast %"struct.std::__1::pair.205"* %0 to i8*
  %24 = icmp eq i64 %5, 0
  br i1 %24, label %27, label %25

25:                                               ; preds = %19, %11
  %26 = phi i8* [ %14, %11 ], [ %23, %19 ]
  tail call void @llvm.memcpy.p0i8.p0i8.i64(i8* align 1 %26, i8* align 1 %4, i64 %5, i1 false) #15
  br label %27

27:                                               ; preds = %19, %25
  %28 = phi i8* [ %23, %19 ], [ %26, %25 ]
  %29 = getelementptr inbounds i8, i8* %28, i64 %5
  store i8 0, i8* %29, align 1
  %30 = getelementptr inbounds %"struct.std::__1::pair.205", %"struct.std::__1::pair.205"* %0, i64 0, i32 1
  %31 = getelementptr inbounds [19 x i8], [19 x i8]* %2, i64 0, i64 0
  %32 = tail call i64 @strlen(i8* %31) #15
  %33 = icmp ugt i64 %32, -17
  br i1 %33, label %34, label %36

34:                                               ; preds = %27
  %35 = bitcast %"class.std::__1::basic_string"* %30 to %"class.std::__1::__basic_string_common"*
  tail call void @_ZNKSt3__121__basic_string_commonILb1EE20__throw_length_errorEv(%"class.std::__1::__basic_string_common"* %35) #16
  unreachable

36:                                               ; preds = %27
  %37 = icmp ult i64 %32, 23
  br i1 %37, label %46, label %38

38:                                               ; preds = %36
  %39 = add nuw i64 %32, 16
  %40 = and i64 %39, -16
  %41 = tail call i8* @_Znwm(i64 %40) #14
  %42 = getelementptr inbounds %"class.std::__1::basic_string", %"class.std::__1::basic_string"* %30, i64 0, i32 0, i32 0, i32 0, i32 0, i32 0, i32 0
  store i8* %41, i8** %42, align 8
  %43 = or i64 %40, -9223372036854775808
  %44 = getelementptr inbounds %"struct.std::__1::pair.205", %"struct.std::__1::pair.205"* %0, i64 0, i32 1, i32 0, i32 0, i32 0, i32 0, i32 0, i32 2
  store i64 %43, i64* %44, align 8
  %45 = getelementptr inbounds %"struct.std::__1::pair.205", %"struct.std::__1::pair.205"* %0, i64 0, i32 1, i32 0, i32 0, i32 0, i32 0, i32 0, i32 1
  store i64 %32, i64* %45, align 8
  br label %52

46:                                               ; preds = %36
  %47 = trunc i64 %32 to i8
  %48 = bitcast %"class.std::__1::basic_string"* %30 to %"struct.std::__1::basic_string<char, std::__1::char_traits<char>, std::__1::allocator<char> >::__short"*
  %49 = getelementptr inbounds %"struct.std::__1::basic_string<char, std::__1::char_traits<char>, std::__1::allocator<char> >::__short", %"struct.std::__1::basic_string<char, std::__1::char_traits<char>, std::__1::allocator<char> >::__short"* %48, i64 0, i32 1, i32 0
  store i8 %47, i8* %49, align 1
  %50 = bitcast %"class.std::__1::basic_string"* %30 to i8*
  %51 = icmp eq i64 %32, 0
  br i1 %51, label %54, label %52

52:                                               ; preds = %46, %38
  %53 = phi i8* [ %41, %38 ], [ %50, %46 ]
  tail call void @llvm.memcpy.p0i8.p0i8.i64(i8* align 1 %53, i8* align 1 %31, i64 %32, i1 false) #15
  br label %54

54:                                               ; preds = %46, %52
  %55 = phi i8* [ %50, %46 ], [ %53, %52 ]
  %56 = getelementptr inbounds i8, i8* %55, i64 %32
  store i8 0, i8* %56, align 1
  ret void
}

; Function Attrs: nounwind ssp uwtable
define linkonce_odr hidden void @_ZNSt3__14pairIKNS_12basic_stringIcNS_11char_traitsIcEENS_9allocatorIcEEEES6_EC2IRA33_KcRA30_SA_Lb0EEEOT_OT0_(%"struct.std::__1::pair.205"*, [33 x i8]* dereferenceable(33), [30 x i8]* dereferenceable(30)) unnamed_addr #2 comdat align 2 {
  %4 = getelementptr inbounds [33 x i8], [33 x i8]* %1, i64 0, i64 0
  %5 = tail call i64 @strlen(i8* %4) #15
  %6 = icmp ugt i64 %5, -17
  br i1 %6, label %7, label %9

7:                                                ; preds = %3
  %8 = bitcast %"struct.std::__1::pair.205"* %0 to %"class.std::__1::__basic_string_common"*
  tail call void @_ZNKSt3__121__basic_string_commonILb1EE20__throw_length_errorEv(%"class.std::__1::__basic_string_common"* %8) #16
  unreachable

9:                                                ; preds = %3
  %10 = icmp ult i64 %5, 23
  br i1 %10, label %19, label %11

11:                                               ; preds = %9
  %12 = add nuw i64 %5, 16
  %13 = and i64 %12, -16
  %14 = tail call i8* @_Znwm(i64 %13) #14
  %15 = getelementptr inbounds %"struct.std::__1::pair.205", %"struct.std::__1::pair.205"* %0, i64 0, i32 0, i32 0, i32 0, i32 0, i32 0, i32 0, i32 0
  store i8* %14, i8** %15, align 8
  %16 = or i64 %13, -9223372036854775808
  %17 = getelementptr inbounds %"struct.std::__1::pair.205", %"struct.std::__1::pair.205"* %0, i64 0, i32 0, i32 0, i32 0, i32 0, i32 0, i32 0, i32 2
  store i64 %16, i64* %17, align 8
  %18 = getelementptr inbounds %"struct.std::__1::pair.205", %"struct.std::__1::pair.205"* %0, i64 0, i32 0, i32 0, i32 0, i32 0, i32 0, i32 0, i32 1
  store i64 %5, i64* %18, align 8
  br label %25

19:                                               ; preds = %9
  %20 = trunc i64 %5 to i8
  %21 = bitcast %"struct.std::__1::pair.205"* %0 to %"struct.std::__1::basic_string<char, std::__1::char_traits<char>, std::__1::allocator<char> >::__short"*
  %22 = getelementptr inbounds %"struct.std::__1::basic_string<char, std::__1::char_traits<char>, std::__1::allocator<char> >::__short", %"struct.std::__1::basic_string<char, std::__1::char_traits<char>, std::__1::allocator<char> >::__short"* %21, i64 0, i32 1, i32 0
  store i8 %20, i8* %22, align 1
  %23 = bitcast %"struct.std::__1::pair.205"* %0 to i8*
  %24 = icmp eq i64 %5, 0
  br i1 %24, label %27, label %25

25:                                               ; preds = %19, %11
  %26 = phi i8* [ %14, %11 ], [ %23, %19 ]
  tail call void @llvm.memcpy.p0i8.p0i8.i64(i8* align 1 %26, i8* align 1 %4, i64 %5, i1 false) #15
  br label %27

27:                                               ; preds = %19, %25
  %28 = phi i8* [ %23, %19 ], [ %26, %25 ]
  %29 = getelementptr inbounds i8, i8* %28, i64 %5
  store i8 0, i8* %29, align 1
  %30 = getelementptr inbounds %"struct.std::__1::pair.205", %"struct.std::__1::pair.205"* %0, i64 0, i32 1
  %31 = getelementptr inbounds [30 x i8], [30 x i8]* %2, i64 0, i64 0
  %32 = tail call i64 @strlen(i8* %31) #15
  %33 = icmp ugt i64 %32, -17
  br i1 %33, label %34, label %36

34:                                               ; preds = %27
  %35 = bitcast %"class.std::__1::basic_string"* %30 to %"class.std::__1::__basic_string_common"*
  tail call void @_ZNKSt3__121__basic_string_commonILb1EE20__throw_length_errorEv(%"class.std::__1::__basic_string_common"* %35) #16
  unreachable

36:                                               ; preds = %27
  %37 = icmp ult i64 %32, 23
  br i1 %37, label %46, label %38

38:                                               ; preds = %36
  %39 = add nuw i64 %32, 16
  %40 = and i64 %39, -16
  %41 = tail call i8* @_Znwm(i64 %40) #14
  %42 = getelementptr inbounds %"class.std::__1::basic_string", %"class.std::__1::basic_string"* %30, i64 0, i32 0, i32 0, i32 0, i32 0, i32 0, i32 0
  store i8* %41, i8** %42, align 8
  %43 = or i64 %40, -9223372036854775808
  %44 = getelementptr inbounds %"struct.std::__1::pair.205", %"struct.std::__1::pair.205"* %0, i64 0, i32 1, i32 0, i32 0, i32 0, i32 0, i32 0, i32 2
  store i64 %43, i64* %44, align 8
  %45 = getelementptr inbounds %"struct.std::__1::pair.205", %"struct.std::__1::pair.205"* %0, i64 0, i32 1, i32 0, i32 0, i32 0, i32 0, i32 0, i32 1
  store i64 %32, i64* %45, align 8
  br label %52

46:                                               ; preds = %36
  %47 = trunc i64 %32 to i8
  %48 = bitcast %"class.std::__1::basic_string"* %30 to %"struct.std::__1::basic_string<char, std::__1::char_traits<char>, std::__1::allocator<char> >::__short"*
  %49 = getelementptr inbounds %"struct.std::__1::basic_string<char, std::__1::char_traits<char>, std::__1::allocator<char> >::__short", %"struct.std::__1::basic_string<char, std::__1::char_traits<char>, std::__1::allocator<char> >::__short"* %48, i64 0, i32 1, i32 0
  store i8 %47, i8* %49, align 1
  %50 = bitcast %"class.std::__1::basic_string"* %30 to i8*
  %51 = icmp eq i64 %32, 0
  br i1 %51, label %54, label %52

52:                                               ; preds = %46, %38
  %53 = phi i8* [ %41, %38 ], [ %50, %46 ]
  tail call void @llvm.memcpy.p0i8.p0i8.i64(i8* align 1 %53, i8* align 1 %31, i64 %32, i1 false) #15
  br label %54

54:                                               ; preds = %46, %52
  %55 = phi i8* [ %50, %46 ], [ %53, %52 ]
  %56 = getelementptr inbounds i8, i8* %55, i64 %32
  store i8 0, i8* %56, align 1
  ret void
}

; Function Attrs: nounwind ssp uwtable
define linkonce_odr hidden void @_ZNSt3__14pairIKNS_12basic_stringIcNS_11char_traitsIcEENS_9allocatorIcEEEES6_EC2IRA34_KcRA29_SA_Lb0EEEOT_OT0_(%"struct.std::__1::pair.205"*, [34 x i8]* dereferenceable(34), [29 x i8]* dereferenceable(29)) unnamed_addr #2 comdat align 2 {
  %4 = getelementptr inbounds [34 x i8], [34 x i8]* %1, i64 0, i64 0
  %5 = tail call i64 @strlen(i8* %4) #15
  %6 = icmp ugt i64 %5, -17
  br i1 %6, label %7, label %9

7:                                                ; preds = %3
  %8 = bitcast %"struct.std::__1::pair.205"* %0 to %"class.std::__1::__basic_string_common"*
  tail call void @_ZNKSt3__121__basic_string_commonILb1EE20__throw_length_errorEv(%"class.std::__1::__basic_string_common"* %8) #16
  unreachable

9:                                                ; preds = %3
  %10 = icmp ult i64 %5, 23
  br i1 %10, label %19, label %11

11:                                               ; preds = %9
  %12 = add nuw i64 %5, 16
  %13 = and i64 %12, -16
  %14 = tail call i8* @_Znwm(i64 %13) #14
  %15 = getelementptr inbounds %"struct.std::__1::pair.205", %"struct.std::__1::pair.205"* %0, i64 0, i32 0, i32 0, i32 0, i32 0, i32 0, i32 0, i32 0
  store i8* %14, i8** %15, align 8
  %16 = or i64 %13, -9223372036854775808
  %17 = getelementptr inbounds %"struct.std::__1::pair.205", %"struct.std::__1::pair.205"* %0, i64 0, i32 0, i32 0, i32 0, i32 0, i32 0, i32 0, i32 2
  store i64 %16, i64* %17, align 8
  %18 = getelementptr inbounds %"struct.std::__1::pair.205", %"struct.std::__1::pair.205"* %0, i64 0, i32 0, i32 0, i32 0, i32 0, i32 0, i32 0, i32 1
  store i64 %5, i64* %18, align 8
  br label %25

19:                                               ; preds = %9
  %20 = trunc i64 %5 to i8
  %21 = bitcast %"struct.std::__1::pair.205"* %0 to %"struct.std::__1::basic_string<char, std::__1::char_traits<char>, std::__1::allocator<char> >::__short"*
  %22 = getelementptr inbounds %"struct.std::__1::basic_string<char, std::__1::char_traits<char>, std::__1::allocator<char> >::__short", %"struct.std::__1::basic_string<char, std::__1::char_traits<char>, std::__1::allocator<char> >::__short"* %21, i64 0, i32 1, i32 0
  store i8 %20, i8* %22, align 1
  %23 = bitcast %"struct.std::__1::pair.205"* %0 to i8*
  %24 = icmp eq i64 %5, 0
  br i1 %24, label %27, label %25

25:                                               ; preds = %19, %11
  %26 = phi i8* [ %14, %11 ], [ %23, %19 ]
  tail call void @llvm.memcpy.p0i8.p0i8.i64(i8* align 1 %26, i8* align 1 %4, i64 %5, i1 false) #15
  br label %27

27:                                               ; preds = %19, %25
  %28 = phi i8* [ %23, %19 ], [ %26, %25 ]
  %29 = getelementptr inbounds i8, i8* %28, i64 %5
  store i8 0, i8* %29, align 1
  %30 = getelementptr inbounds %"struct.std::__1::pair.205", %"struct.std::__1::pair.205"* %0, i64 0, i32 1
  %31 = getelementptr inbounds [29 x i8], [29 x i8]* %2, i64 0, i64 0
  %32 = tail call i64 @strlen(i8* %31) #15
  %33 = icmp ugt i64 %32, -17
  br i1 %33, label %34, label %36

34:                                               ; preds = %27
  %35 = bitcast %"class.std::__1::basic_string"* %30 to %"class.std::__1::__basic_string_common"*
  tail call void @_ZNKSt3__121__basic_string_commonILb1EE20__throw_length_errorEv(%"class.std::__1::__basic_string_common"* %35) #16
  unreachable

36:                                               ; preds = %27
  %37 = icmp ult i64 %32, 23
  br i1 %37, label %46, label %38

38:                                               ; preds = %36
  %39 = add nuw i64 %32, 16
  %40 = and i64 %39, -16
  %41 = tail call i8* @_Znwm(i64 %40) #14
  %42 = getelementptr inbounds %"class.std::__1::basic_string", %"class.std::__1::basic_string"* %30, i64 0, i32 0, i32 0, i32 0, i32 0, i32 0, i32 0
  store i8* %41, i8** %42, align 8
  %43 = or i64 %40, -9223372036854775808
  %44 = getelementptr inbounds %"struct.std::__1::pair.205", %"struct.std::__1::pair.205"* %0, i64 0, i32 1, i32 0, i32 0, i32 0, i32 0, i32 0, i32 2
  store i64 %43, i64* %44, align 8
  %45 = getelementptr inbounds %"struct.std::__1::pair.205", %"struct.std::__1::pair.205"* %0, i64 0, i32 1, i32 0, i32 0, i32 0, i32 0, i32 0, i32 1
  store i64 %32, i64* %45, align 8
  br label %52

46:                                               ; preds = %36
  %47 = trunc i64 %32 to i8
  %48 = bitcast %"class.std::__1::basic_string"* %30 to %"struct.std::__1::basic_string<char, std::__1::char_traits<char>, std::__1::allocator<char> >::__short"*
  %49 = getelementptr inbounds %"struct.std::__1::basic_string<char, std::__1::char_traits<char>, std::__1::allocator<char> >::__short", %"struct.std::__1::basic_string<char, std::__1::char_traits<char>, std::__1::allocator<char> >::__short"* %48, i64 0, i32 1, i32 0
  store i8 %47, i8* %49, align 1
  %50 = bitcast %"class.std::__1::basic_string"* %30 to i8*
  %51 = icmp eq i64 %32, 0
  br i1 %51, label %54, label %52

52:                                               ; preds = %46, %38
  %53 = phi i8* [ %41, %38 ], [ %50, %46 ]
  tail call void @llvm.memcpy.p0i8.p0i8.i64(i8* align 1 %53, i8* align 1 %31, i64 %32, i1 false) #15
  br label %54

54:                                               ; preds = %46, %52
  %55 = phi i8* [ %50, %46 ], [ %53, %52 ]
  %56 = getelementptr inbounds i8, i8* %55, i64 %32
  store i8 0, i8* %56, align 1
  ret void
}

; Function Attrs: nounwind ssp uwtable
define linkonce_odr hidden void @_ZNSt3__14pairIKNS_12basic_stringIcNS_11char_traitsIcEENS_9allocatorIcEEEES6_EC2IRA29_KcRA19_SA_Lb0EEEOT_OT0_(%"struct.std::__1::pair.205"*, [29 x i8]* dereferenceable(29), [19 x i8]* dereferenceable(19)) unnamed_addr #2 comdat align 2 {
  %4 = getelementptr inbounds [29 x i8], [29 x i8]* %1, i64 0, i64 0
  %5 = tail call i64 @strlen(i8* %4) #15
  %6 = icmp ugt i64 %5, -17
  br i1 %6, label %7, label %9

7:                                                ; preds = %3
  %8 = bitcast %"struct.std::__1::pair.205"* %0 to %"class.std::__1::__basic_string_common"*
  tail call void @_ZNKSt3__121__basic_string_commonILb1EE20__throw_length_errorEv(%"class.std::__1::__basic_string_common"* %8) #16
  unreachable

9:                                                ; preds = %3
  %10 = icmp ult i64 %5, 23
  br i1 %10, label %19, label %11

11:                                               ; preds = %9
  %12 = add nuw i64 %5, 16
  %13 = and i64 %12, -16
  %14 = tail call i8* @_Znwm(i64 %13) #14
  %15 = getelementptr inbounds %"struct.std::__1::pair.205", %"struct.std::__1::pair.205"* %0, i64 0, i32 0, i32 0, i32 0, i32 0, i32 0, i32 0, i32 0
  store i8* %14, i8** %15, align 8
  %16 = or i64 %13, -9223372036854775808
  %17 = getelementptr inbounds %"struct.std::__1::pair.205", %"struct.std::__1::pair.205"* %0, i64 0, i32 0, i32 0, i32 0, i32 0, i32 0, i32 0, i32 2
  store i64 %16, i64* %17, align 8
  %18 = getelementptr inbounds %"struct.std::__1::pair.205", %"struct.std::__1::pair.205"* %0, i64 0, i32 0, i32 0, i32 0, i32 0, i32 0, i32 0, i32 1
  store i64 %5, i64* %18, align 8
  br label %25

19:                                               ; preds = %9
  %20 = trunc i64 %5 to i8
  %21 = bitcast %"struct.std::__1::pair.205"* %0 to %"struct.std::__1::basic_string<char, std::__1::char_traits<char>, std::__1::allocator<char> >::__short"*
  %22 = getelementptr inbounds %"struct.std::__1::basic_string<char, std::__1::char_traits<char>, std::__1::allocator<char> >::__short", %"struct.std::__1::basic_string<char, std::__1::char_traits<char>, std::__1::allocator<char> >::__short"* %21, i64 0, i32 1, i32 0
  store i8 %20, i8* %22, align 1
  %23 = bitcast %"struct.std::__1::pair.205"* %0 to i8*
  %24 = icmp eq i64 %5, 0
  br i1 %24, label %27, label %25

25:                                               ; preds = %19, %11
  %26 = phi i8* [ %14, %11 ], [ %23, %19 ]
  tail call void @llvm.memcpy.p0i8.p0i8.i64(i8* align 1 %26, i8* align 1 %4, i64 %5, i1 false) #15
  br label %27

27:                                               ; preds = %19, %25
  %28 = phi i8* [ %23, %19 ], [ %26, %25 ]
  %29 = getelementptr inbounds i8, i8* %28, i64 %5
  store i8 0, i8* %29, align 1
  %30 = getelementptr inbounds %"struct.std::__1::pair.205", %"struct.std::__1::pair.205"* %0, i64 0, i32 1
  %31 = getelementptr inbounds [19 x i8], [19 x i8]* %2, i64 0, i64 0
  %32 = tail call i64 @strlen(i8* %31) #15
  %33 = icmp ugt i64 %32, -17
  br i1 %33, label %34, label %36

34:                                               ; preds = %27
  %35 = bitcast %"class.std::__1::basic_string"* %30 to %"class.std::__1::__basic_string_common"*
  tail call void @_ZNKSt3__121__basic_string_commonILb1EE20__throw_length_errorEv(%"class.std::__1::__basic_string_common"* %35) #16
  unreachable

36:                                               ; preds = %27
  %37 = icmp ult i64 %32, 23
  br i1 %37, label %46, label %38

38:                                               ; preds = %36
  %39 = add nuw i64 %32, 16
  %40 = and i64 %39, -16
  %41 = tail call i8* @_Znwm(i64 %40) #14
  %42 = getelementptr inbounds %"class.std::__1::basic_string", %"class.std::__1::basic_string"* %30, i64 0, i32 0, i32 0, i32 0, i32 0, i32 0, i32 0
  store i8* %41, i8** %42, align 8
  %43 = or i64 %40, -9223372036854775808
  %44 = getelementptr inbounds %"struct.std::__1::pair.205", %"struct.std::__1::pair.205"* %0, i64 0, i32 1, i32 0, i32 0, i32 0, i32 0, i32 0, i32 2
  store i64 %43, i64* %44, align 8
  %45 = getelementptr inbounds %"struct.std::__1::pair.205", %"struct.std::__1::pair.205"* %0, i64 0, i32 1, i32 0, i32 0, i32 0, i32 0, i32 0, i32 1
  store i64 %32, i64* %45, align 8
  br label %52

46:                                               ; preds = %36
  %47 = trunc i64 %32 to i8
  %48 = bitcast %"class.std::__1::basic_string"* %30 to %"struct.std::__1::basic_string<char, std::__1::char_traits<char>, std::__1::allocator<char> >::__short"*
  %49 = getelementptr inbounds %"struct.std::__1::basic_string<char, std::__1::char_traits<char>, std::__1::allocator<char> >::__short", %"struct.std::__1::basic_string<char, std::__1::char_traits<char>, std::__1::allocator<char> >::__short"* %48, i64 0, i32 1, i32 0
  store i8 %47, i8* %49, align 1
  %50 = bitcast %"class.std::__1::basic_string"* %30 to i8*
  %51 = icmp eq i64 %32, 0
  br i1 %51, label %54, label %52

52:                                               ; preds = %46, %38
  %53 = phi i8* [ %41, %38 ], [ %50, %46 ]
  tail call void @llvm.memcpy.p0i8.p0i8.i64(i8* align 1 %53, i8* align 1 %31, i64 %32, i1 false) #15
  br label %54

54:                                               ; preds = %46, %52
  %55 = phi i8* [ %50, %46 ], [ %53, %52 ]
  %56 = getelementptr inbounds i8, i8* %55, i64 %32
  store i8 0, i8* %56, align 1
  ret void
}

; Function Attrs: nounwind ssp uwtable
define linkonce_odr hidden void @_ZNSt3__14pairIKNS_12basic_stringIcNS_11char_traitsIcEENS_9allocatorIcEEEES6_EC2IRA26_KcSC_Lb0EEEOT_OT0_(%"struct.std::__1::pair.205"*, [26 x i8]* dereferenceable(26), [26 x i8]* dereferenceable(26)) unnamed_addr #2 comdat align 2 {
  %4 = getelementptr inbounds [26 x i8], [26 x i8]* %1, i64 0, i64 0
  %5 = tail call i64 @strlen(i8* %4) #15
  %6 = icmp ugt i64 %5, -17
  br i1 %6, label %7, label %9

7:                                                ; preds = %3
  %8 = bitcast %"struct.std::__1::pair.205"* %0 to %"class.std::__1::__basic_string_common"*
  tail call void @_ZNKSt3__121__basic_string_commonILb1EE20__throw_length_errorEv(%"class.std::__1::__basic_string_common"* %8) #16
  unreachable

9:                                                ; preds = %3
  %10 = icmp ult i64 %5, 23
  br i1 %10, label %19, label %11

11:                                               ; preds = %9
  %12 = add nuw i64 %5, 16
  %13 = and i64 %12, -16
  %14 = tail call i8* @_Znwm(i64 %13) #14
  %15 = getelementptr inbounds %"struct.std::__1::pair.205", %"struct.std::__1::pair.205"* %0, i64 0, i32 0, i32 0, i32 0, i32 0, i32 0, i32 0, i32 0
  store i8* %14, i8** %15, align 8
  %16 = or i64 %13, -9223372036854775808
  %17 = getelementptr inbounds %"struct.std::__1::pair.205", %"struct.std::__1::pair.205"* %0, i64 0, i32 0, i32 0, i32 0, i32 0, i32 0, i32 0, i32 2
  store i64 %16, i64* %17, align 8
  %18 = getelementptr inbounds %"struct.std::__1::pair.205", %"struct.std::__1::pair.205"* %0, i64 0, i32 0, i32 0, i32 0, i32 0, i32 0, i32 0, i32 1
  store i64 %5, i64* %18, align 8
  br label %25

19:                                               ; preds = %9
  %20 = trunc i64 %5 to i8
  %21 = bitcast %"struct.std::__1::pair.205"* %0 to %"struct.std::__1::basic_string<char, std::__1::char_traits<char>, std::__1::allocator<char> >::__short"*
  %22 = getelementptr inbounds %"struct.std::__1::basic_string<char, std::__1::char_traits<char>, std::__1::allocator<char> >::__short", %"struct.std::__1::basic_string<char, std::__1::char_traits<char>, std::__1::allocator<char> >::__short"* %21, i64 0, i32 1, i32 0
  store i8 %20, i8* %22, align 1
  %23 = bitcast %"struct.std::__1::pair.205"* %0 to i8*
  %24 = icmp eq i64 %5, 0
  br i1 %24, label %27, label %25

25:                                               ; preds = %19, %11
  %26 = phi i8* [ %14, %11 ], [ %23, %19 ]
  tail call void @llvm.memcpy.p0i8.p0i8.i64(i8* align 1 %26, i8* align 1 %4, i64 %5, i1 false) #15
  br label %27

27:                                               ; preds = %19, %25
  %28 = phi i8* [ %23, %19 ], [ %26, %25 ]
  %29 = getelementptr inbounds i8, i8* %28, i64 %5
  store i8 0, i8* %29, align 1
  %30 = getelementptr inbounds %"struct.std::__1::pair.205", %"struct.std::__1::pair.205"* %0, i64 0, i32 1
  %31 = getelementptr inbounds [26 x i8], [26 x i8]* %2, i64 0, i64 0
  %32 = tail call i64 @strlen(i8* %31) #15
  %33 = icmp ugt i64 %32, -17
  br i1 %33, label %34, label %36

34:                                               ; preds = %27
  %35 = bitcast %"class.std::__1::basic_string"* %30 to %"class.std::__1::__basic_string_common"*
  tail call void @_ZNKSt3__121__basic_string_commonILb1EE20__throw_length_errorEv(%"class.std::__1::__basic_string_common"* %35) #16
  unreachable

36:                                               ; preds = %27
  %37 = icmp ult i64 %32, 23
  br i1 %37, label %46, label %38

38:                                               ; preds = %36
  %39 = add nuw i64 %32, 16
  %40 = and i64 %39, -16
  %41 = tail call i8* @_Znwm(i64 %40) #14
  %42 = getelementptr inbounds %"class.std::__1::basic_string", %"class.std::__1::basic_string"* %30, i64 0, i32 0, i32 0, i32 0, i32 0, i32 0, i32 0
  store i8* %41, i8** %42, align 8
  %43 = or i64 %40, -9223372036854775808
  %44 = getelementptr inbounds %"struct.std::__1::pair.205", %"struct.std::__1::pair.205"* %0, i64 0, i32 1, i32 0, i32 0, i32 0, i32 0, i32 0, i32 2
  store i64 %43, i64* %44, align 8
  %45 = getelementptr inbounds %"struct.std::__1::pair.205", %"struct.std::__1::pair.205"* %0, i64 0, i32 1, i32 0, i32 0, i32 0, i32 0, i32 0, i32 1
  store i64 %32, i64* %45, align 8
  br label %52

46:                                               ; preds = %36
  %47 = trunc i64 %32 to i8
  %48 = bitcast %"class.std::__1::basic_string"* %30 to %"struct.std::__1::basic_string<char, std::__1::char_traits<char>, std::__1::allocator<char> >::__short"*
  %49 = getelementptr inbounds %"struct.std::__1::basic_string<char, std::__1::char_traits<char>, std::__1::allocator<char> >::__short", %"struct.std::__1::basic_string<char, std::__1::char_traits<char>, std::__1::allocator<char> >::__short"* %48, i64 0, i32 1, i32 0
  store i8 %47, i8* %49, align 1
  %50 = bitcast %"class.std::__1::basic_string"* %30 to i8*
  %51 = icmp eq i64 %32, 0
  br i1 %51, label %54, label %52

52:                                               ; preds = %46, %38
  %53 = phi i8* [ %41, %38 ], [ %50, %46 ]
  tail call void @llvm.memcpy.p0i8.p0i8.i64(i8* align 1 %53, i8* align 1 %31, i64 %32, i1 false) #15
  br label %54

54:                                               ; preds = %46, %52
  %55 = phi i8* [ %50, %46 ], [ %53, %52 ]
  %56 = getelementptr inbounds i8, i8* %55, i64 %32
  store i8 0, i8* %56, align 1
  ret void
}

; Function Attrs: nounwind ssp uwtable
define linkonce_odr hidden void @_ZNSt3__14pairIKNS_12basic_stringIcNS_11char_traitsIcEENS_9allocatorIcEEEES6_EC2IRA22_KcRA15_SA_Lb0EEEOT_OT0_(%"struct.std::__1::pair.205"*, [22 x i8]* dereferenceable(22), [15 x i8]* dereferenceable(15)) unnamed_addr #2 comdat align 2 {
  %4 = getelementptr inbounds [22 x i8], [22 x i8]* %1, i64 0, i64 0
  %5 = tail call i64 @strlen(i8* %4) #15
  %6 = icmp ugt i64 %5, -17
  br i1 %6, label %7, label %9

7:                                                ; preds = %3
  %8 = bitcast %"struct.std::__1::pair.205"* %0 to %"class.std::__1::__basic_string_common"*
  tail call void @_ZNKSt3__121__basic_string_commonILb1EE20__throw_length_errorEv(%"class.std::__1::__basic_string_common"* %8) #16
  unreachable

9:                                                ; preds = %3
  %10 = icmp ult i64 %5, 23
  br i1 %10, label %19, label %11

11:                                               ; preds = %9
  %12 = add nuw i64 %5, 16
  %13 = and i64 %12, -16
  %14 = tail call i8* @_Znwm(i64 %13) #14
  %15 = getelementptr inbounds %"struct.std::__1::pair.205", %"struct.std::__1::pair.205"* %0, i64 0, i32 0, i32 0, i32 0, i32 0, i32 0, i32 0, i32 0
  store i8* %14, i8** %15, align 8
  %16 = or i64 %13, -9223372036854775808
  %17 = getelementptr inbounds %"struct.std::__1::pair.205", %"struct.std::__1::pair.205"* %0, i64 0, i32 0, i32 0, i32 0, i32 0, i32 0, i32 0, i32 2
  store i64 %16, i64* %17, align 8
  %18 = getelementptr inbounds %"struct.std::__1::pair.205", %"struct.std::__1::pair.205"* %0, i64 0, i32 0, i32 0, i32 0, i32 0, i32 0, i32 0, i32 1
  store i64 %5, i64* %18, align 8
  br label %25

19:                                               ; preds = %9
  %20 = trunc i64 %5 to i8
  %21 = bitcast %"struct.std::__1::pair.205"* %0 to %"struct.std::__1::basic_string<char, std::__1::char_traits<char>, std::__1::allocator<char> >::__short"*
  %22 = getelementptr inbounds %"struct.std::__1::basic_string<char, std::__1::char_traits<char>, std::__1::allocator<char> >::__short", %"struct.std::__1::basic_string<char, std::__1::char_traits<char>, std::__1::allocator<char> >::__short"* %21, i64 0, i32 1, i32 0
  store i8 %20, i8* %22, align 1
  %23 = bitcast %"struct.std::__1::pair.205"* %0 to i8*
  %24 = icmp eq i64 %5, 0
  br i1 %24, label %27, label %25

25:                                               ; preds = %19, %11
  %26 = phi i8* [ %14, %11 ], [ %23, %19 ]
  tail call void @llvm.memcpy.p0i8.p0i8.i64(i8* align 1 %26, i8* align 1 %4, i64 %5, i1 false) #15
  br label %27

27:                                               ; preds = %19, %25
  %28 = phi i8* [ %23, %19 ], [ %26, %25 ]
  %29 = getelementptr inbounds i8, i8* %28, i64 %5
  store i8 0, i8* %29, align 1
  %30 = getelementptr inbounds %"struct.std::__1::pair.205", %"struct.std::__1::pair.205"* %0, i64 0, i32 1
  %31 = getelementptr inbounds [15 x i8], [15 x i8]* %2, i64 0, i64 0
  %32 = tail call i64 @strlen(i8* %31) #15
  %33 = icmp ugt i64 %32, -17
  br i1 %33, label %34, label %36

34:                                               ; preds = %27
  %35 = bitcast %"class.std::__1::basic_string"* %30 to %"class.std::__1::__basic_string_common"*
  tail call void @_ZNKSt3__121__basic_string_commonILb1EE20__throw_length_errorEv(%"class.std::__1::__basic_string_common"* %35) #16
  unreachable

36:                                               ; preds = %27
  %37 = icmp ult i64 %32, 23
  br i1 %37, label %46, label %38

38:                                               ; preds = %36
  %39 = add nuw i64 %32, 16
  %40 = and i64 %39, -16
  %41 = tail call i8* @_Znwm(i64 %40) #14
  %42 = getelementptr inbounds %"class.std::__1::basic_string", %"class.std::__1::basic_string"* %30, i64 0, i32 0, i32 0, i32 0, i32 0, i32 0, i32 0
  store i8* %41, i8** %42, align 8
  %43 = or i64 %40, -9223372036854775808
  %44 = getelementptr inbounds %"struct.std::__1::pair.205", %"struct.std::__1::pair.205"* %0, i64 0, i32 1, i32 0, i32 0, i32 0, i32 0, i32 0, i32 2
  store i64 %43, i64* %44, align 8
  %45 = getelementptr inbounds %"struct.std::__1::pair.205", %"struct.std::__1::pair.205"* %0, i64 0, i32 1, i32 0, i32 0, i32 0, i32 0, i32 0, i32 1
  store i64 %32, i64* %45, align 8
  br label %52

46:                                               ; preds = %36
  %47 = trunc i64 %32 to i8
  %48 = bitcast %"class.std::__1::basic_string"* %30 to %"struct.std::__1::basic_string<char, std::__1::char_traits<char>, std::__1::allocator<char> >::__short"*
  %49 = getelementptr inbounds %"struct.std::__1::basic_string<char, std::__1::char_traits<char>, std::__1::allocator<char> >::__short", %"struct.std::__1::basic_string<char, std::__1::char_traits<char>, std::__1::allocator<char> >::__short"* %48, i64 0, i32 1, i32 0
  store i8 %47, i8* %49, align 1
  %50 = bitcast %"class.std::__1::basic_string"* %30 to i8*
  %51 = icmp eq i64 %32, 0
  br i1 %51, label %54, label %52

52:                                               ; preds = %46, %38
  %53 = phi i8* [ %41, %38 ], [ %50, %46 ]
  tail call void @llvm.memcpy.p0i8.p0i8.i64(i8* align 1 %53, i8* align 1 %31, i64 %32, i1 false) #15
  br label %54

54:                                               ; preds = %46, %52
  %55 = phi i8* [ %50, %46 ], [ %53, %52 ]
  %56 = getelementptr inbounds i8, i8* %55, i64 %32
  store i8 0, i8* %56, align 1
  ret void
}

; Function Attrs: nounwind ssp uwtable
define linkonce_odr hidden void @_ZNSt3__14pairIKNS_12basic_stringIcNS_11char_traitsIcEENS_9allocatorIcEEEES6_EC2IRA25_KcRA26_SA_Lb0EEEOT_OT0_(%"struct.std::__1::pair.205"*, [25 x i8]* dereferenceable(25), [26 x i8]* dereferenceable(26)) unnamed_addr #2 comdat align 2 {
  %4 = getelementptr inbounds [25 x i8], [25 x i8]* %1, i64 0, i64 0
  %5 = tail call i64 @strlen(i8* %4) #15
  %6 = icmp ugt i64 %5, -17
  br i1 %6, label %7, label %9

7:                                                ; preds = %3
  %8 = bitcast %"struct.std::__1::pair.205"* %0 to %"class.std::__1::__basic_string_common"*
  tail call void @_ZNKSt3__121__basic_string_commonILb1EE20__throw_length_errorEv(%"class.std::__1::__basic_string_common"* %8) #16
  unreachable

9:                                                ; preds = %3
  %10 = icmp ult i64 %5, 23
  br i1 %10, label %19, label %11

11:                                               ; preds = %9
  %12 = add nuw i64 %5, 16
  %13 = and i64 %12, -16
  %14 = tail call i8* @_Znwm(i64 %13) #14
  %15 = getelementptr inbounds %"struct.std::__1::pair.205", %"struct.std::__1::pair.205"* %0, i64 0, i32 0, i32 0, i32 0, i32 0, i32 0, i32 0, i32 0
  store i8* %14, i8** %15, align 8
  %16 = or i64 %13, -9223372036854775808
  %17 = getelementptr inbounds %"struct.std::__1::pair.205", %"struct.std::__1::pair.205"* %0, i64 0, i32 0, i32 0, i32 0, i32 0, i32 0, i32 0, i32 2
  store i64 %16, i64* %17, align 8
  %18 = getelementptr inbounds %"struct.std::__1::pair.205", %"struct.std::__1::pair.205"* %0, i64 0, i32 0, i32 0, i32 0, i32 0, i32 0, i32 0, i32 1
  store i64 %5, i64* %18, align 8
  br label %25

19:                                               ; preds = %9
  %20 = trunc i64 %5 to i8
  %21 = bitcast %"struct.std::__1::pair.205"* %0 to %"struct.std::__1::basic_string<char, std::__1::char_traits<char>, std::__1::allocator<char> >::__short"*
  %22 = getelementptr inbounds %"struct.std::__1::basic_string<char, std::__1::char_traits<char>, std::__1::allocator<char> >::__short", %"struct.std::__1::basic_string<char, std::__1::char_traits<char>, std::__1::allocator<char> >::__short"* %21, i64 0, i32 1, i32 0
  store i8 %20, i8* %22, align 1
  %23 = bitcast %"struct.std::__1::pair.205"* %0 to i8*
  %24 = icmp eq i64 %5, 0
  br i1 %24, label %27, label %25

25:                                               ; preds = %19, %11
  %26 = phi i8* [ %14, %11 ], [ %23, %19 ]
  tail call void @llvm.memcpy.p0i8.p0i8.i64(i8* align 1 %26, i8* align 1 %4, i64 %5, i1 false) #15
  br label %27

27:                                               ; preds = %19, %25
  %28 = phi i8* [ %23, %19 ], [ %26, %25 ]
  %29 = getelementptr inbounds i8, i8* %28, i64 %5
  store i8 0, i8* %29, align 1
  %30 = getelementptr inbounds %"struct.std::__1::pair.205", %"struct.std::__1::pair.205"* %0, i64 0, i32 1
  %31 = getelementptr inbounds [26 x i8], [26 x i8]* %2, i64 0, i64 0
  %32 = tail call i64 @strlen(i8* %31) #15
  %33 = icmp ugt i64 %32, -17
  br i1 %33, label %34, label %36

34:                                               ; preds = %27
  %35 = bitcast %"class.std::__1::basic_string"* %30 to %"class.std::__1::__basic_string_common"*
  tail call void @_ZNKSt3__121__basic_string_commonILb1EE20__throw_length_errorEv(%"class.std::__1::__basic_string_common"* %35) #16
  unreachable

36:                                               ; preds = %27
  %37 = icmp ult i64 %32, 23
  br i1 %37, label %46, label %38

38:                                               ; preds = %36
  %39 = add nuw i64 %32, 16
  %40 = and i64 %39, -16
  %41 = tail call i8* @_Znwm(i64 %40) #14
  %42 = getelementptr inbounds %"class.std::__1::basic_string", %"class.std::__1::basic_string"* %30, i64 0, i32 0, i32 0, i32 0, i32 0, i32 0, i32 0
  store i8* %41, i8** %42, align 8
  %43 = or i64 %40, -9223372036854775808
  %44 = getelementptr inbounds %"struct.std::__1::pair.205", %"struct.std::__1::pair.205"* %0, i64 0, i32 1, i32 0, i32 0, i32 0, i32 0, i32 0, i32 2
  store i64 %43, i64* %44, align 8
  %45 = getelementptr inbounds %"struct.std::__1::pair.205", %"struct.std::__1::pair.205"* %0, i64 0, i32 1, i32 0, i32 0, i32 0, i32 0, i32 0, i32 1
  store i64 %32, i64* %45, align 8
  br label %52

46:                                               ; preds = %36
  %47 = trunc i64 %32 to i8
  %48 = bitcast %"class.std::__1::basic_string"* %30 to %"struct.std::__1::basic_string<char, std::__1::char_traits<char>, std::__1::allocator<char> >::__short"*
  %49 = getelementptr inbounds %"struct.std::__1::basic_string<char, std::__1::char_traits<char>, std::__1::allocator<char> >::__short", %"struct.std::__1::basic_string<char, std::__1::char_traits<char>, std::__1::allocator<char> >::__short"* %48, i64 0, i32 1, i32 0
  store i8 %47, i8* %49, align 1
  %50 = bitcast %"class.std::__1::basic_string"* %30 to i8*
  %51 = icmp eq i64 %32, 0
  br i1 %51, label %54, label %52

52:                                               ; preds = %46, %38
  %53 = phi i8* [ %41, %38 ], [ %50, %46 ]
  tail call void @llvm.memcpy.p0i8.p0i8.i64(i8* align 1 %53, i8* align 1 %31, i64 %32, i1 false) #15
  br label %54

54:                                               ; preds = %46, %52
  %55 = phi i8* [ %50, %46 ], [ %53, %52 ]
  %56 = getelementptr inbounds i8, i8* %55, i64 %32
  store i8 0, i8* %56, align 1
  ret void
}

; Function Attrs: nounwind ssp uwtable
define linkonce_odr hidden void @_ZNSt3__14pairIKNS_12basic_stringIcNS_11char_traitsIcEENS_9allocatorIcEEEES6_EC2IRA31_KcRA26_SA_Lb0EEEOT_OT0_(%"struct.std::__1::pair.205"*, [31 x i8]* dereferenceable(31), [26 x i8]* dereferenceable(26)) unnamed_addr #2 comdat align 2 {
  %4 = getelementptr inbounds [31 x i8], [31 x i8]* %1, i64 0, i64 0
  %5 = tail call i64 @strlen(i8* %4) #15
  %6 = icmp ugt i64 %5, -17
  br i1 %6, label %7, label %9

7:                                                ; preds = %3
  %8 = bitcast %"struct.std::__1::pair.205"* %0 to %"class.std::__1::__basic_string_common"*
  tail call void @_ZNKSt3__121__basic_string_commonILb1EE20__throw_length_errorEv(%"class.std::__1::__basic_string_common"* %8) #16
  unreachable

9:                                                ; preds = %3
  %10 = icmp ult i64 %5, 23
  br i1 %10, label %19, label %11

11:                                               ; preds = %9
  %12 = add nuw i64 %5, 16
  %13 = and i64 %12, -16
  %14 = tail call i8* @_Znwm(i64 %13) #14
  %15 = getelementptr inbounds %"struct.std::__1::pair.205", %"struct.std::__1::pair.205"* %0, i64 0, i32 0, i32 0, i32 0, i32 0, i32 0, i32 0, i32 0
  store i8* %14, i8** %15, align 8
  %16 = or i64 %13, -9223372036854775808
  %17 = getelementptr inbounds %"struct.std::__1::pair.205", %"struct.std::__1::pair.205"* %0, i64 0, i32 0, i32 0, i32 0, i32 0, i32 0, i32 0, i32 2
  store i64 %16, i64* %17, align 8
  %18 = getelementptr inbounds %"struct.std::__1::pair.205", %"struct.std::__1::pair.205"* %0, i64 0, i32 0, i32 0, i32 0, i32 0, i32 0, i32 0, i32 1
  store i64 %5, i64* %18, align 8
  br label %25

19:                                               ; preds = %9
  %20 = trunc i64 %5 to i8
  %21 = bitcast %"struct.std::__1::pair.205"* %0 to %"struct.std::__1::basic_string<char, std::__1::char_traits<char>, std::__1::allocator<char> >::__short"*
  %22 = getelementptr inbounds %"struct.std::__1::basic_string<char, std::__1::char_traits<char>, std::__1::allocator<char> >::__short", %"struct.std::__1::basic_string<char, std::__1::char_traits<char>, std::__1::allocator<char> >::__short"* %21, i64 0, i32 1, i32 0
  store i8 %20, i8* %22, align 1
  %23 = bitcast %"struct.std::__1::pair.205"* %0 to i8*
  %24 = icmp eq i64 %5, 0
  br i1 %24, label %27, label %25

25:                                               ; preds = %19, %11
  %26 = phi i8* [ %14, %11 ], [ %23, %19 ]
  tail call void @llvm.memcpy.p0i8.p0i8.i64(i8* align 1 %26, i8* align 1 %4, i64 %5, i1 false) #15
  br label %27

27:                                               ; preds = %19, %25
  %28 = phi i8* [ %23, %19 ], [ %26, %25 ]
  %29 = getelementptr inbounds i8, i8* %28, i64 %5
  store i8 0, i8* %29, align 1
  %30 = getelementptr inbounds %"struct.std::__1::pair.205", %"struct.std::__1::pair.205"* %0, i64 0, i32 1
  %31 = getelementptr inbounds [26 x i8], [26 x i8]* %2, i64 0, i64 0
  %32 = tail call i64 @strlen(i8* %31) #15
  %33 = icmp ugt i64 %32, -17
  br i1 %33, label %34, label %36

34:                                               ; preds = %27
  %35 = bitcast %"class.std::__1::basic_string"* %30 to %"class.std::__1::__basic_string_common"*
  tail call void @_ZNKSt3__121__basic_string_commonILb1EE20__throw_length_errorEv(%"class.std::__1::__basic_string_common"* %35) #16
  unreachable

36:                                               ; preds = %27
  %37 = icmp ult i64 %32, 23
  br i1 %37, label %46, label %38

38:                                               ; preds = %36
  %39 = add nuw i64 %32, 16
  %40 = and i64 %39, -16
  %41 = tail call i8* @_Znwm(i64 %40) #14
  %42 = getelementptr inbounds %"class.std::__1::basic_string", %"class.std::__1::basic_string"* %30, i64 0, i32 0, i32 0, i32 0, i32 0, i32 0, i32 0
  store i8* %41, i8** %42, align 8
  %43 = or i64 %40, -9223372036854775808
  %44 = getelementptr inbounds %"struct.std::__1::pair.205", %"struct.std::__1::pair.205"* %0, i64 0, i32 1, i32 0, i32 0, i32 0, i32 0, i32 0, i32 2
  store i64 %43, i64* %44, align 8
  %45 = getelementptr inbounds %"struct.std::__1::pair.205", %"struct.std::__1::pair.205"* %0, i64 0, i32 1, i32 0, i32 0, i32 0, i32 0, i32 0, i32 1
  store i64 %32, i64* %45, align 8
  br label %52

46:                                               ; preds = %36
  %47 = trunc i64 %32 to i8
  %48 = bitcast %"class.std::__1::basic_string"* %30 to %"struct.std::__1::basic_string<char, std::__1::char_traits<char>, std::__1::allocator<char> >::__short"*
  %49 = getelementptr inbounds %"struct.std::__1::basic_string<char, std::__1::char_traits<char>, std::__1::allocator<char> >::__short", %"struct.std::__1::basic_string<char, std::__1::char_traits<char>, std::__1::allocator<char> >::__short"* %48, i64 0, i32 1, i32 0
  store i8 %47, i8* %49, align 1
  %50 = bitcast %"class.std::__1::basic_string"* %30 to i8*
  %51 = icmp eq i64 %32, 0
  br i1 %51, label %54, label %52

52:                                               ; preds = %46, %38
  %53 = phi i8* [ %41, %38 ], [ %50, %46 ]
  tail call void @llvm.memcpy.p0i8.p0i8.i64(i8* align 1 %53, i8* align 1 %31, i64 %32, i1 false) #15
  br label %54

54:                                               ; preds = %46, %52
  %55 = phi i8* [ %50, %46 ], [ %53, %52 ]
  %56 = getelementptr inbounds i8, i8* %55, i64 %32
  store i8 0, i8* %56, align 1
  ret void
}

; Function Attrs: nounwind ssp uwtable
define linkonce_odr hidden void @_ZNSt3__14pairIKNS_12basic_stringIcNS_11char_traitsIcEENS_9allocatorIcEEEES6_EC2IRA25_KcRA19_SA_Lb0EEEOT_OT0_(%"struct.std::__1::pair.205"*, [25 x i8]* dereferenceable(25), [19 x i8]* dereferenceable(19)) unnamed_addr #2 comdat align 2 {
  %4 = getelementptr inbounds [25 x i8], [25 x i8]* %1, i64 0, i64 0
  %5 = tail call i64 @strlen(i8* %4) #15
  %6 = icmp ugt i64 %5, -17
  br i1 %6, label %7, label %9

7:                                                ; preds = %3
  %8 = bitcast %"struct.std::__1::pair.205"* %0 to %"class.std::__1::__basic_string_common"*
  tail call void @_ZNKSt3__121__basic_string_commonILb1EE20__throw_length_errorEv(%"class.std::__1::__basic_string_common"* %8) #16
  unreachable

9:                                                ; preds = %3
  %10 = icmp ult i64 %5, 23
  br i1 %10, label %19, label %11

11:                                               ; preds = %9
  %12 = add nuw i64 %5, 16
  %13 = and i64 %12, -16
  %14 = tail call i8* @_Znwm(i64 %13) #14
  %15 = getelementptr inbounds %"struct.std::__1::pair.205", %"struct.std::__1::pair.205"* %0, i64 0, i32 0, i32 0, i32 0, i32 0, i32 0, i32 0, i32 0
  store i8* %14, i8** %15, align 8
  %16 = or i64 %13, -9223372036854775808
  %17 = getelementptr inbounds %"struct.std::__1::pair.205", %"struct.std::__1::pair.205"* %0, i64 0, i32 0, i32 0, i32 0, i32 0, i32 0, i32 0, i32 2
  store i64 %16, i64* %17, align 8
  %18 = getelementptr inbounds %"struct.std::__1::pair.205", %"struct.std::__1::pair.205"* %0, i64 0, i32 0, i32 0, i32 0, i32 0, i32 0, i32 0, i32 1
  store i64 %5, i64* %18, align 8
  br label %25

19:                                               ; preds = %9
  %20 = trunc i64 %5 to i8
  %21 = bitcast %"struct.std::__1::pair.205"* %0 to %"struct.std::__1::basic_string<char, std::__1::char_traits<char>, std::__1::allocator<char> >::__short"*
  %22 = getelementptr inbounds %"struct.std::__1::basic_string<char, std::__1::char_traits<char>, std::__1::allocator<char> >::__short", %"struct.std::__1::basic_string<char, std::__1::char_traits<char>, std::__1::allocator<char> >::__short"* %21, i64 0, i32 1, i32 0
  store i8 %20, i8* %22, align 1
  %23 = bitcast %"struct.std::__1::pair.205"* %0 to i8*
  %24 = icmp eq i64 %5, 0
  br i1 %24, label %27, label %25

25:                                               ; preds = %19, %11
  %26 = phi i8* [ %14, %11 ], [ %23, %19 ]
  tail call void @llvm.memcpy.p0i8.p0i8.i64(i8* align 1 %26, i8* align 1 %4, i64 %5, i1 false) #15
  br label %27

27:                                               ; preds = %19, %25
  %28 = phi i8* [ %23, %19 ], [ %26, %25 ]
  %29 = getelementptr inbounds i8, i8* %28, i64 %5
  store i8 0, i8* %29, align 1
  %30 = getelementptr inbounds %"struct.std::__1::pair.205", %"struct.std::__1::pair.205"* %0, i64 0, i32 1
  %31 = getelementptr inbounds [19 x i8], [19 x i8]* %2, i64 0, i64 0
  %32 = tail call i64 @strlen(i8* %31) #15
  %33 = icmp ugt i64 %32, -17
  br i1 %33, label %34, label %36

34:                                               ; preds = %27
  %35 = bitcast %"class.std::__1::basic_string"* %30 to %"class.std::__1::__basic_string_common"*
  tail call void @_ZNKSt3__121__basic_string_commonILb1EE20__throw_length_errorEv(%"class.std::__1::__basic_string_common"* %35) #16
  unreachable

36:                                               ; preds = %27
  %37 = icmp ult i64 %32, 23
  br i1 %37, label %46, label %38

38:                                               ; preds = %36
  %39 = add nuw i64 %32, 16
  %40 = and i64 %39, -16
  %41 = tail call i8* @_Znwm(i64 %40) #14
  %42 = getelementptr inbounds %"class.std::__1::basic_string", %"class.std::__1::basic_string"* %30, i64 0, i32 0, i32 0, i32 0, i32 0, i32 0, i32 0
  store i8* %41, i8** %42, align 8
  %43 = or i64 %40, -9223372036854775808
  %44 = getelementptr inbounds %"struct.std::__1::pair.205", %"struct.std::__1::pair.205"* %0, i64 0, i32 1, i32 0, i32 0, i32 0, i32 0, i32 0, i32 2
  store i64 %43, i64* %44, align 8
  %45 = getelementptr inbounds %"struct.std::__1::pair.205", %"struct.std::__1::pair.205"* %0, i64 0, i32 1, i32 0, i32 0, i32 0, i32 0, i32 0, i32 1
  store i64 %32, i64* %45, align 8
  br label %52

46:                                               ; preds = %36
  %47 = trunc i64 %32 to i8
  %48 = bitcast %"class.std::__1::basic_string"* %30 to %"struct.std::__1::basic_string<char, std::__1::char_traits<char>, std::__1::allocator<char> >::__short"*
  %49 = getelementptr inbounds %"struct.std::__1::basic_string<char, std::__1::char_traits<char>, std::__1::allocator<char> >::__short", %"struct.std::__1::basic_string<char, std::__1::char_traits<char>, std::__1::allocator<char> >::__short"* %48, i64 0, i32 1, i32 0
  store i8 %47, i8* %49, align 1
  %50 = bitcast %"class.std::__1::basic_string"* %30 to i8*
  %51 = icmp eq i64 %32, 0
  br i1 %51, label %54, label %52

52:                                               ; preds = %46, %38
  %53 = phi i8* [ %41, %38 ], [ %50, %46 ]
  tail call void @llvm.memcpy.p0i8.p0i8.i64(i8* align 1 %53, i8* align 1 %31, i64 %32, i1 false) #15
  br label %54

54:                                               ; preds = %46, %52
  %55 = phi i8* [ %50, %46 ], [ %53, %52 ]
  %56 = getelementptr inbounds i8, i8* %55, i64 %32
  store i8 0, i8* %56, align 1
  ret void
}

; Function Attrs: nounwind ssp uwtable
define linkonce_odr hidden void @_ZNSt3__14pairIKNS_12basic_stringIcNS_11char_traitsIcEENS_9allocatorIcEEEES6_EC2IRA31_KcRA32_SA_Lb0EEEOT_OT0_(%"struct.std::__1::pair.205"*, [31 x i8]* dereferenceable(31), [32 x i8]* dereferenceable(32)) unnamed_addr #2 comdat align 2 {
  %4 = getelementptr inbounds [31 x i8], [31 x i8]* %1, i64 0, i64 0
  %5 = tail call i64 @strlen(i8* %4) #15
  %6 = icmp ugt i64 %5, -17
  br i1 %6, label %7, label %9

7:                                                ; preds = %3
  %8 = bitcast %"struct.std::__1::pair.205"* %0 to %"class.std::__1::__basic_string_common"*
  tail call void @_ZNKSt3__121__basic_string_commonILb1EE20__throw_length_errorEv(%"class.std::__1::__basic_string_common"* %8) #16
  unreachable

9:                                                ; preds = %3
  %10 = icmp ult i64 %5, 23
  br i1 %10, label %19, label %11

11:                                               ; preds = %9
  %12 = add nuw i64 %5, 16
  %13 = and i64 %12, -16
  %14 = tail call i8* @_Znwm(i64 %13) #14
  %15 = getelementptr inbounds %"struct.std::__1::pair.205", %"struct.std::__1::pair.205"* %0, i64 0, i32 0, i32 0, i32 0, i32 0, i32 0, i32 0, i32 0
  store i8* %14, i8** %15, align 8
  %16 = or i64 %13, -9223372036854775808
  %17 = getelementptr inbounds %"struct.std::__1::pair.205", %"struct.std::__1::pair.205"* %0, i64 0, i32 0, i32 0, i32 0, i32 0, i32 0, i32 0, i32 2
  store i64 %16, i64* %17, align 8
  %18 = getelementptr inbounds %"struct.std::__1::pair.205", %"struct.std::__1::pair.205"* %0, i64 0, i32 0, i32 0, i32 0, i32 0, i32 0, i32 0, i32 1
  store i64 %5, i64* %18, align 8
  br label %25

19:                                               ; preds = %9
  %20 = trunc i64 %5 to i8
  %21 = bitcast %"struct.std::__1::pair.205"* %0 to %"struct.std::__1::basic_string<char, std::__1::char_traits<char>, std::__1::allocator<char> >::__short"*
  %22 = getelementptr inbounds %"struct.std::__1::basic_string<char, std::__1::char_traits<char>, std::__1::allocator<char> >::__short", %"struct.std::__1::basic_string<char, std::__1::char_traits<char>, std::__1::allocator<char> >::__short"* %21, i64 0, i32 1, i32 0
  store i8 %20, i8* %22, align 1
  %23 = bitcast %"struct.std::__1::pair.205"* %0 to i8*
  %24 = icmp eq i64 %5, 0
  br i1 %24, label %27, label %25

25:                                               ; preds = %19, %11
  %26 = phi i8* [ %14, %11 ], [ %23, %19 ]
  tail call void @llvm.memcpy.p0i8.p0i8.i64(i8* align 1 %26, i8* align 1 %4, i64 %5, i1 false) #15
  br label %27

27:                                               ; preds = %19, %25
  %28 = phi i8* [ %23, %19 ], [ %26, %25 ]
  %29 = getelementptr inbounds i8, i8* %28, i64 %5
  store i8 0, i8* %29, align 1
  %30 = getelementptr inbounds %"struct.std::__1::pair.205", %"struct.std::__1::pair.205"* %0, i64 0, i32 1
  %31 = getelementptr inbounds [32 x i8], [32 x i8]* %2, i64 0, i64 0
  %32 = tail call i64 @strlen(i8* %31) #15
  %33 = icmp ugt i64 %32, -17
  br i1 %33, label %34, label %36

34:                                               ; preds = %27
  %35 = bitcast %"class.std::__1::basic_string"* %30 to %"class.std::__1::__basic_string_common"*
  tail call void @_ZNKSt3__121__basic_string_commonILb1EE20__throw_length_errorEv(%"class.std::__1::__basic_string_common"* %35) #16
  unreachable

36:                                               ; preds = %27
  %37 = icmp ult i64 %32, 23
  br i1 %37, label %46, label %38

38:                                               ; preds = %36
  %39 = add nuw i64 %32, 16
  %40 = and i64 %39, -16
  %41 = tail call i8* @_Znwm(i64 %40) #14
  %42 = getelementptr inbounds %"class.std::__1::basic_string", %"class.std::__1::basic_string"* %30, i64 0, i32 0, i32 0, i32 0, i32 0, i32 0, i32 0
  store i8* %41, i8** %42, align 8
  %43 = or i64 %40, -9223372036854775808
  %44 = getelementptr inbounds %"struct.std::__1::pair.205", %"struct.std::__1::pair.205"* %0, i64 0, i32 1, i32 0, i32 0, i32 0, i32 0, i32 0, i32 2
  store i64 %43, i64* %44, align 8
  %45 = getelementptr inbounds %"struct.std::__1::pair.205", %"struct.std::__1::pair.205"* %0, i64 0, i32 1, i32 0, i32 0, i32 0, i32 0, i32 0, i32 1
  store i64 %32, i64* %45, align 8
  br label %52

46:                                               ; preds = %36
  %47 = trunc i64 %32 to i8
  %48 = bitcast %"class.std::__1::basic_string"* %30 to %"struct.std::__1::basic_string<char, std::__1::char_traits<char>, std::__1::allocator<char> >::__short"*
  %49 = getelementptr inbounds %"struct.std::__1::basic_string<char, std::__1::char_traits<char>, std::__1::allocator<char> >::__short", %"struct.std::__1::basic_string<char, std::__1::char_traits<char>, std::__1::allocator<char> >::__short"* %48, i64 0, i32 1, i32 0
  store i8 %47, i8* %49, align 1
  %50 = bitcast %"class.std::__1::basic_string"* %30 to i8*
  %51 = icmp eq i64 %32, 0
  br i1 %51, label %54, label %52

52:                                               ; preds = %46, %38
  %53 = phi i8* [ %41, %38 ], [ %50, %46 ]
  tail call void @llvm.memcpy.p0i8.p0i8.i64(i8* align 1 %53, i8* align 1 %31, i64 %32, i1 false) #15
  br label %54

54:                                               ; preds = %46, %52
  %55 = phi i8* [ %50, %46 ], [ %53, %52 ]
  %56 = getelementptr inbounds i8, i8* %55, i64 %32
  store i8 0, i8* %56, align 1
  ret void
}

; Function Attrs: nounwind ssp uwtable
define linkonce_odr hidden void @_ZNSt3__14pairIKNS_12basic_stringIcNS_11char_traitsIcEENS_9allocatorIcEEEES6_EC2IRA28_KcRA25_SA_Lb0EEEOT_OT0_(%"struct.std::__1::pair.205"*, [28 x i8]* dereferenceable(28), [25 x i8]* dereferenceable(25)) unnamed_addr #2 comdat align 2 {
  %4 = getelementptr inbounds [28 x i8], [28 x i8]* %1, i64 0, i64 0
  %5 = tail call i64 @strlen(i8* %4) #15
  %6 = icmp ugt i64 %5, -17
  br i1 %6, label %7, label %9

7:                                                ; preds = %3
  %8 = bitcast %"struct.std::__1::pair.205"* %0 to %"class.std::__1::__basic_string_common"*
  tail call void @_ZNKSt3__121__basic_string_commonILb1EE20__throw_length_errorEv(%"class.std::__1::__basic_string_common"* %8) #16
  unreachable

9:                                                ; preds = %3
  %10 = icmp ult i64 %5, 23
  br i1 %10, label %19, label %11

11:                                               ; preds = %9
  %12 = add nuw i64 %5, 16
  %13 = and i64 %12, -16
  %14 = tail call i8* @_Znwm(i64 %13) #14
  %15 = getelementptr inbounds %"struct.std::__1::pair.205", %"struct.std::__1::pair.205"* %0, i64 0, i32 0, i32 0, i32 0, i32 0, i32 0, i32 0, i32 0
  store i8* %14, i8** %15, align 8
  %16 = or i64 %13, -9223372036854775808
  %17 = getelementptr inbounds %"struct.std::__1::pair.205", %"struct.std::__1::pair.205"* %0, i64 0, i32 0, i32 0, i32 0, i32 0, i32 0, i32 0, i32 2
  store i64 %16, i64* %17, align 8
  %18 = getelementptr inbounds %"struct.std::__1::pair.205", %"struct.std::__1::pair.205"* %0, i64 0, i32 0, i32 0, i32 0, i32 0, i32 0, i32 0, i32 1
  store i64 %5, i64* %18, align 8
  br label %25

19:                                               ; preds = %9
  %20 = trunc i64 %5 to i8
  %21 = bitcast %"struct.std::__1::pair.205"* %0 to %"struct.std::__1::basic_string<char, std::__1::char_traits<char>, std::__1::allocator<char> >::__short"*
  %22 = getelementptr inbounds %"struct.std::__1::basic_string<char, std::__1::char_traits<char>, std::__1::allocator<char> >::__short", %"struct.std::__1::basic_string<char, std::__1::char_traits<char>, std::__1::allocator<char> >::__short"* %21, i64 0, i32 1, i32 0
  store i8 %20, i8* %22, align 1
  %23 = bitcast %"struct.std::__1::pair.205"* %0 to i8*
  %24 = icmp eq i64 %5, 0
  br i1 %24, label %27, label %25

25:                                               ; preds = %19, %11
  %26 = phi i8* [ %14, %11 ], [ %23, %19 ]
  tail call void @llvm.memcpy.p0i8.p0i8.i64(i8* align 1 %26, i8* align 1 %4, i64 %5, i1 false) #15
  br label %27

27:                                               ; preds = %19, %25
  %28 = phi i8* [ %23, %19 ], [ %26, %25 ]
  %29 = getelementptr inbounds i8, i8* %28, i64 %5
  store i8 0, i8* %29, align 1
  %30 = getelementptr inbounds %"struct.std::__1::pair.205", %"struct.std::__1::pair.205"* %0, i64 0, i32 1
  %31 = getelementptr inbounds [25 x i8], [25 x i8]* %2, i64 0, i64 0
  %32 = tail call i64 @strlen(i8* %31) #15
  %33 = icmp ugt i64 %32, -17
  br i1 %33, label %34, label %36

34:                                               ; preds = %27
  %35 = bitcast %"class.std::__1::basic_string"* %30 to %"class.std::__1::__basic_string_common"*
  tail call void @_ZNKSt3__121__basic_string_commonILb1EE20__throw_length_errorEv(%"class.std::__1::__basic_string_common"* %35) #16
  unreachable

36:                                               ; preds = %27
  %37 = icmp ult i64 %32, 23
  br i1 %37, label %46, label %38

38:                                               ; preds = %36
  %39 = add nuw i64 %32, 16
  %40 = and i64 %39, -16
  %41 = tail call i8* @_Znwm(i64 %40) #14
  %42 = getelementptr inbounds %"class.std::__1::basic_string", %"class.std::__1::basic_string"* %30, i64 0, i32 0, i32 0, i32 0, i32 0, i32 0, i32 0
  store i8* %41, i8** %42, align 8
  %43 = or i64 %40, -9223372036854775808
  %44 = getelementptr inbounds %"struct.std::__1::pair.205", %"struct.std::__1::pair.205"* %0, i64 0, i32 1, i32 0, i32 0, i32 0, i32 0, i32 0, i32 2
  store i64 %43, i64* %44, align 8
  %45 = getelementptr inbounds %"struct.std::__1::pair.205", %"struct.std::__1::pair.205"* %0, i64 0, i32 1, i32 0, i32 0, i32 0, i32 0, i32 0, i32 1
  store i64 %32, i64* %45, align 8
  br label %52

46:                                               ; preds = %36
  %47 = trunc i64 %32 to i8
  %48 = bitcast %"class.std::__1::basic_string"* %30 to %"struct.std::__1::basic_string<char, std::__1::char_traits<char>, std::__1::allocator<char> >::__short"*
  %49 = getelementptr inbounds %"struct.std::__1::basic_string<char, std::__1::char_traits<char>, std::__1::allocator<char> >::__short", %"struct.std::__1::basic_string<char, std::__1::char_traits<char>, std::__1::allocator<char> >::__short"* %48, i64 0, i32 1, i32 0
  store i8 %47, i8* %49, align 1
  %50 = bitcast %"class.std::__1::basic_string"* %30 to i8*
  %51 = icmp eq i64 %32, 0
  br i1 %51, label %54, label %52

52:                                               ; preds = %46, %38
  %53 = phi i8* [ %41, %38 ], [ %50, %46 ]
  tail call void @llvm.memcpy.p0i8.p0i8.i64(i8* align 1 %53, i8* align 1 %31, i64 %32, i1 false) #15
  br label %54

54:                                               ; preds = %46, %52
  %55 = phi i8* [ %50, %46 ], [ %53, %52 ]
  %56 = getelementptr inbounds i8, i8* %55, i64 %32
  store i8 0, i8* %56, align 1
  ret void
}

; Function Attrs: nounwind ssp uwtable
define linkonce_odr hidden void @_ZNSt3__14pairIKNS_12basic_stringIcNS_11char_traitsIcEENS_9allocatorIcEEEES6_EC2IRA37_KcRA26_SA_Lb0EEEOT_OT0_(%"struct.std::__1::pair.205"*, [37 x i8]* dereferenceable(37), [26 x i8]* dereferenceable(26)) unnamed_addr #2 comdat align 2 {
  %4 = getelementptr inbounds [37 x i8], [37 x i8]* %1, i64 0, i64 0
  %5 = tail call i64 @strlen(i8* %4) #15
  %6 = icmp ugt i64 %5, -17
  br i1 %6, label %7, label %9

7:                                                ; preds = %3
  %8 = bitcast %"struct.std::__1::pair.205"* %0 to %"class.std::__1::__basic_string_common"*
  tail call void @_ZNKSt3__121__basic_string_commonILb1EE20__throw_length_errorEv(%"class.std::__1::__basic_string_common"* %8) #16
  unreachable

9:                                                ; preds = %3
  %10 = icmp ult i64 %5, 23
  br i1 %10, label %19, label %11

11:                                               ; preds = %9
  %12 = add nuw i64 %5, 16
  %13 = and i64 %12, -16
  %14 = tail call i8* @_Znwm(i64 %13) #14
  %15 = getelementptr inbounds %"struct.std::__1::pair.205", %"struct.std::__1::pair.205"* %0, i64 0, i32 0, i32 0, i32 0, i32 0, i32 0, i32 0, i32 0
  store i8* %14, i8** %15, align 8
  %16 = or i64 %13, -9223372036854775808
  %17 = getelementptr inbounds %"struct.std::__1::pair.205", %"struct.std::__1::pair.205"* %0, i64 0, i32 0, i32 0, i32 0, i32 0, i32 0, i32 0, i32 2
  store i64 %16, i64* %17, align 8
  %18 = getelementptr inbounds %"struct.std::__1::pair.205", %"struct.std::__1::pair.205"* %0, i64 0, i32 0, i32 0, i32 0, i32 0, i32 0, i32 0, i32 1
  store i64 %5, i64* %18, align 8
  br label %25

19:                                               ; preds = %9
  %20 = trunc i64 %5 to i8
  %21 = bitcast %"struct.std::__1::pair.205"* %0 to %"struct.std::__1::basic_string<char, std::__1::char_traits<char>, std::__1::allocator<char> >::__short"*
  %22 = getelementptr inbounds %"struct.std::__1::basic_string<char, std::__1::char_traits<char>, std::__1::allocator<char> >::__short", %"struct.std::__1::basic_string<char, std::__1::char_traits<char>, std::__1::allocator<char> >::__short"* %21, i64 0, i32 1, i32 0
  store i8 %20, i8* %22, align 1
  %23 = bitcast %"struct.std::__1::pair.205"* %0 to i8*
  %24 = icmp eq i64 %5, 0
  br i1 %24, label %27, label %25

25:                                               ; preds = %19, %11
  %26 = phi i8* [ %14, %11 ], [ %23, %19 ]
  tail call void @llvm.memcpy.p0i8.p0i8.i64(i8* align 1 %26, i8* align 1 %4, i64 %5, i1 false) #15
  br label %27

27:                                               ; preds = %19, %25
  %28 = phi i8* [ %23, %19 ], [ %26, %25 ]
  %29 = getelementptr inbounds i8, i8* %28, i64 %5
  store i8 0, i8* %29, align 1
  %30 = getelementptr inbounds %"struct.std::__1::pair.205", %"struct.std::__1::pair.205"* %0, i64 0, i32 1
  %31 = getelementptr inbounds [26 x i8], [26 x i8]* %2, i64 0, i64 0
  %32 = tail call i64 @strlen(i8* %31) #15
  %33 = icmp ugt i64 %32, -17
  br i1 %33, label %34, label %36

34:                                               ; preds = %27
  %35 = bitcast %"class.std::__1::basic_string"* %30 to %"class.std::__1::__basic_string_common"*
  tail call void @_ZNKSt3__121__basic_string_commonILb1EE20__throw_length_errorEv(%"class.std::__1::__basic_string_common"* %35) #16
  unreachable

36:                                               ; preds = %27
  %37 = icmp ult i64 %32, 23
  br i1 %37, label %46, label %38

38:                                               ; preds = %36
  %39 = add nuw i64 %32, 16
  %40 = and i64 %39, -16
  %41 = tail call i8* @_Znwm(i64 %40) #14
  %42 = getelementptr inbounds %"class.std::__1::basic_string", %"class.std::__1::basic_string"* %30, i64 0, i32 0, i32 0, i32 0, i32 0, i32 0, i32 0
  store i8* %41, i8** %42, align 8
  %43 = or i64 %40, -9223372036854775808
  %44 = getelementptr inbounds %"struct.std::__1::pair.205", %"struct.std::__1::pair.205"* %0, i64 0, i32 1, i32 0, i32 0, i32 0, i32 0, i32 0, i32 2
  store i64 %43, i64* %44, align 8
  %45 = getelementptr inbounds %"struct.std::__1::pair.205", %"struct.std::__1::pair.205"* %0, i64 0, i32 1, i32 0, i32 0, i32 0, i32 0, i32 0, i32 1
  store i64 %32, i64* %45, align 8
  br label %52

46:                                               ; preds = %36
  %47 = trunc i64 %32 to i8
  %48 = bitcast %"class.std::__1::basic_string"* %30 to %"struct.std::__1::basic_string<char, std::__1::char_traits<char>, std::__1::allocator<char> >::__short"*
  %49 = getelementptr inbounds %"struct.std::__1::basic_string<char, std::__1::char_traits<char>, std::__1::allocator<char> >::__short", %"struct.std::__1::basic_string<char, std::__1::char_traits<char>, std::__1::allocator<char> >::__short"* %48, i64 0, i32 1, i32 0
  store i8 %47, i8* %49, align 1
  %50 = bitcast %"class.std::__1::basic_string"* %30 to i8*
  %51 = icmp eq i64 %32, 0
  br i1 %51, label %54, label %52

52:                                               ; preds = %46, %38
  %53 = phi i8* [ %41, %38 ], [ %50, %46 ]
  tail call void @llvm.memcpy.p0i8.p0i8.i64(i8* align 1 %53, i8* align 1 %31, i64 %32, i1 false) #15
  br label %54

54:                                               ; preds = %46, %52
  %55 = phi i8* [ %50, %46 ], [ %53, %52 ]
  %56 = getelementptr inbounds i8, i8* %55, i64 %32
  store i8 0, i8* %56, align 1
  ret void
}

; Function Attrs: nounwind ssp uwtable
define linkonce_odr hidden void @_ZNSt3__14pairIKNS_12basic_stringIcNS_11char_traitsIcEENS_9allocatorIcEEEES6_EC2IRA27_KcRA30_SA_Lb0EEEOT_OT0_(%"struct.std::__1::pair.205"*, [27 x i8]* dereferenceable(27), [30 x i8]* dereferenceable(30)) unnamed_addr #2 comdat align 2 {
  %4 = getelementptr inbounds [27 x i8], [27 x i8]* %1, i64 0, i64 0
  %5 = tail call i64 @strlen(i8* %4) #15
  %6 = icmp ugt i64 %5, -17
  br i1 %6, label %7, label %9

7:                                                ; preds = %3
  %8 = bitcast %"struct.std::__1::pair.205"* %0 to %"class.std::__1::__basic_string_common"*
  tail call void @_ZNKSt3__121__basic_string_commonILb1EE20__throw_length_errorEv(%"class.std::__1::__basic_string_common"* %8) #16
  unreachable

9:                                                ; preds = %3
  %10 = icmp ult i64 %5, 23
  br i1 %10, label %19, label %11

11:                                               ; preds = %9
  %12 = add nuw i64 %5, 16
  %13 = and i64 %12, -16
  %14 = tail call i8* @_Znwm(i64 %13) #14
  %15 = getelementptr inbounds %"struct.std::__1::pair.205", %"struct.std::__1::pair.205"* %0, i64 0, i32 0, i32 0, i32 0, i32 0, i32 0, i32 0, i32 0
  store i8* %14, i8** %15, align 8
  %16 = or i64 %13, -9223372036854775808
  %17 = getelementptr inbounds %"struct.std::__1::pair.205", %"struct.std::__1::pair.205"* %0, i64 0, i32 0, i32 0, i32 0, i32 0, i32 0, i32 0, i32 2
  store i64 %16, i64* %17, align 8
  %18 = getelementptr inbounds %"struct.std::__1::pair.205", %"struct.std::__1::pair.205"* %0, i64 0, i32 0, i32 0, i32 0, i32 0, i32 0, i32 0, i32 1
  store i64 %5, i64* %18, align 8
  br label %25

19:                                               ; preds = %9
  %20 = trunc i64 %5 to i8
  %21 = bitcast %"struct.std::__1::pair.205"* %0 to %"struct.std::__1::basic_string<char, std::__1::char_traits<char>, std::__1::allocator<char> >::__short"*
  %22 = getelementptr inbounds %"struct.std::__1::basic_string<char, std::__1::char_traits<char>, std::__1::allocator<char> >::__short", %"struct.std::__1::basic_string<char, std::__1::char_traits<char>, std::__1::allocator<char> >::__short"* %21, i64 0, i32 1, i32 0
  store i8 %20, i8* %22, align 1
  %23 = bitcast %"struct.std::__1::pair.205"* %0 to i8*
  %24 = icmp eq i64 %5, 0
  br i1 %24, label %27, label %25

25:                                               ; preds = %19, %11
  %26 = phi i8* [ %14, %11 ], [ %23, %19 ]
  tail call void @llvm.memcpy.p0i8.p0i8.i64(i8* align 1 %26, i8* align 1 %4, i64 %5, i1 false) #15
  br label %27

27:                                               ; preds = %19, %25
  %28 = phi i8* [ %23, %19 ], [ %26, %25 ]
  %29 = getelementptr inbounds i8, i8* %28, i64 %5
  store i8 0, i8* %29, align 1
  %30 = getelementptr inbounds %"struct.std::__1::pair.205", %"struct.std::__1::pair.205"* %0, i64 0, i32 1
  %31 = getelementptr inbounds [30 x i8], [30 x i8]* %2, i64 0, i64 0
  %32 = tail call i64 @strlen(i8* %31) #15
  %33 = icmp ugt i64 %32, -17
  br i1 %33, label %34, label %36

34:                                               ; preds = %27
  %35 = bitcast %"class.std::__1::basic_string"* %30 to %"class.std::__1::__basic_string_common"*
  tail call void @_ZNKSt3__121__basic_string_commonILb1EE20__throw_length_errorEv(%"class.std::__1::__basic_string_common"* %35) #16
  unreachable

36:                                               ; preds = %27
  %37 = icmp ult i64 %32, 23
  br i1 %37, label %46, label %38

38:                                               ; preds = %36
  %39 = add nuw i64 %32, 16
  %40 = and i64 %39, -16
  %41 = tail call i8* @_Znwm(i64 %40) #14
  %42 = getelementptr inbounds %"class.std::__1::basic_string", %"class.std::__1::basic_string"* %30, i64 0, i32 0, i32 0, i32 0, i32 0, i32 0, i32 0
  store i8* %41, i8** %42, align 8
  %43 = or i64 %40, -9223372036854775808
  %44 = getelementptr inbounds %"struct.std::__1::pair.205", %"struct.std::__1::pair.205"* %0, i64 0, i32 1, i32 0, i32 0, i32 0, i32 0, i32 0, i32 2
  store i64 %43, i64* %44, align 8
  %45 = getelementptr inbounds %"struct.std::__1::pair.205", %"struct.std::__1::pair.205"* %0, i64 0, i32 1, i32 0, i32 0, i32 0, i32 0, i32 0, i32 1
  store i64 %32, i64* %45, align 8
  br label %52

46:                                               ; preds = %36
  %47 = trunc i64 %32 to i8
  %48 = bitcast %"class.std::__1::basic_string"* %30 to %"struct.std::__1::basic_string<char, std::__1::char_traits<char>, std::__1::allocator<char> >::__short"*
  %49 = getelementptr inbounds %"struct.std::__1::basic_string<char, std::__1::char_traits<char>, std::__1::allocator<char> >::__short", %"struct.std::__1::basic_string<char, std::__1::char_traits<char>, std::__1::allocator<char> >::__short"* %48, i64 0, i32 1, i32 0
  store i8 %47, i8* %49, align 1
  %50 = bitcast %"class.std::__1::basic_string"* %30 to i8*
  %51 = icmp eq i64 %32, 0
  br i1 %51, label %54, label %52

52:                                               ; preds = %46, %38
  %53 = phi i8* [ %41, %38 ], [ %50, %46 ]
  tail call void @llvm.memcpy.p0i8.p0i8.i64(i8* align 1 %53, i8* align 1 %31, i64 %32, i1 false) #15
  br label %54

54:                                               ; preds = %46, %52
  %55 = phi i8* [ %50, %46 ], [ %53, %52 ]
  %56 = getelementptr inbounds i8, i8* %55, i64 %32
  store i8 0, i8* %56, align 1
  ret void
}

; Function Attrs: nounwind ssp uwtable
define linkonce_odr hidden void @_ZNSt3__14pairIKNS_12basic_stringIcNS_11char_traitsIcEENS_9allocatorIcEEEES6_EC2IRA19_KcRA22_SA_Lb0EEEOT_OT0_(%"struct.std::__1::pair.205"*, [19 x i8]* dereferenceable(19), [22 x i8]* dereferenceable(22)) unnamed_addr #2 comdat align 2 {
  %4 = getelementptr inbounds [19 x i8], [19 x i8]* %1, i64 0, i64 0
  %5 = tail call i64 @strlen(i8* %4) #15
  %6 = icmp ugt i64 %5, -17
  br i1 %6, label %7, label %9

7:                                                ; preds = %3
  %8 = bitcast %"struct.std::__1::pair.205"* %0 to %"class.std::__1::__basic_string_common"*
  tail call void @_ZNKSt3__121__basic_string_commonILb1EE20__throw_length_errorEv(%"class.std::__1::__basic_string_common"* %8) #16
  unreachable

9:                                                ; preds = %3
  %10 = icmp ult i64 %5, 23
  br i1 %10, label %19, label %11

11:                                               ; preds = %9
  %12 = add nuw i64 %5, 16
  %13 = and i64 %12, -16
  %14 = tail call i8* @_Znwm(i64 %13) #14
  %15 = getelementptr inbounds %"struct.std::__1::pair.205", %"struct.std::__1::pair.205"* %0, i64 0, i32 0, i32 0, i32 0, i32 0, i32 0, i32 0, i32 0
  store i8* %14, i8** %15, align 8
  %16 = or i64 %13, -9223372036854775808
  %17 = getelementptr inbounds %"struct.std::__1::pair.205", %"struct.std::__1::pair.205"* %0, i64 0, i32 0, i32 0, i32 0, i32 0, i32 0, i32 0, i32 2
  store i64 %16, i64* %17, align 8
  %18 = getelementptr inbounds %"struct.std::__1::pair.205", %"struct.std::__1::pair.205"* %0, i64 0, i32 0, i32 0, i32 0, i32 0, i32 0, i32 0, i32 1
  store i64 %5, i64* %18, align 8
  br label %25

19:                                               ; preds = %9
  %20 = trunc i64 %5 to i8
  %21 = bitcast %"struct.std::__1::pair.205"* %0 to %"struct.std::__1::basic_string<char, std::__1::char_traits<char>, std::__1::allocator<char> >::__short"*
  %22 = getelementptr inbounds %"struct.std::__1::basic_string<char, std::__1::char_traits<char>, std::__1::allocator<char> >::__short", %"struct.std::__1::basic_string<char, std::__1::char_traits<char>, std::__1::allocator<char> >::__short"* %21, i64 0, i32 1, i32 0
  store i8 %20, i8* %22, align 1
  %23 = bitcast %"struct.std::__1::pair.205"* %0 to i8*
  %24 = icmp eq i64 %5, 0
  br i1 %24, label %27, label %25

25:                                               ; preds = %19, %11
  %26 = phi i8* [ %14, %11 ], [ %23, %19 ]
  tail call void @llvm.memcpy.p0i8.p0i8.i64(i8* align 1 %26, i8* align 1 %4, i64 %5, i1 false) #15
  br label %27

27:                                               ; preds = %19, %25
  %28 = phi i8* [ %23, %19 ], [ %26, %25 ]
  %29 = getelementptr inbounds i8, i8* %28, i64 %5
  store i8 0, i8* %29, align 1
  %30 = getelementptr inbounds %"struct.std::__1::pair.205", %"struct.std::__1::pair.205"* %0, i64 0, i32 1
  %31 = getelementptr inbounds [22 x i8], [22 x i8]* %2, i64 0, i64 0
  %32 = tail call i64 @strlen(i8* %31) #15
  %33 = icmp ugt i64 %32, -17
  br i1 %33, label %34, label %36

34:                                               ; preds = %27
  %35 = bitcast %"class.std::__1::basic_string"* %30 to %"class.std::__1::__basic_string_common"*
  tail call void @_ZNKSt3__121__basic_string_commonILb1EE20__throw_length_errorEv(%"class.std::__1::__basic_string_common"* %35) #16
  unreachable

36:                                               ; preds = %27
  %37 = icmp ult i64 %32, 23
  br i1 %37, label %46, label %38

38:                                               ; preds = %36
  %39 = add nuw i64 %32, 16
  %40 = and i64 %39, -16
  %41 = tail call i8* @_Znwm(i64 %40) #14
  %42 = getelementptr inbounds %"class.std::__1::basic_string", %"class.std::__1::basic_string"* %30, i64 0, i32 0, i32 0, i32 0, i32 0, i32 0, i32 0
  store i8* %41, i8** %42, align 8
  %43 = or i64 %40, -9223372036854775808
  %44 = getelementptr inbounds %"struct.std::__1::pair.205", %"struct.std::__1::pair.205"* %0, i64 0, i32 1, i32 0, i32 0, i32 0, i32 0, i32 0, i32 2
  store i64 %43, i64* %44, align 8
  %45 = getelementptr inbounds %"struct.std::__1::pair.205", %"struct.std::__1::pair.205"* %0, i64 0, i32 1, i32 0, i32 0, i32 0, i32 0, i32 0, i32 1
  store i64 %32, i64* %45, align 8
  br label %52

46:                                               ; preds = %36
  %47 = trunc i64 %32 to i8
  %48 = bitcast %"class.std::__1::basic_string"* %30 to %"struct.std::__1::basic_string<char, std::__1::char_traits<char>, std::__1::allocator<char> >::__short"*
  %49 = getelementptr inbounds %"struct.std::__1::basic_string<char, std::__1::char_traits<char>, std::__1::allocator<char> >::__short", %"struct.std::__1::basic_string<char, std::__1::char_traits<char>, std::__1::allocator<char> >::__short"* %48, i64 0, i32 1, i32 0
  store i8 %47, i8* %49, align 1
  %50 = bitcast %"class.std::__1::basic_string"* %30 to i8*
  %51 = icmp eq i64 %32, 0
  br i1 %51, label %54, label %52

52:                                               ; preds = %46, %38
  %53 = phi i8* [ %41, %38 ], [ %50, %46 ]
  tail call void @llvm.memcpy.p0i8.p0i8.i64(i8* align 1 %53, i8* align 1 %31, i64 %32, i1 false) #15
  br label %54

54:                                               ; preds = %46, %52
  %55 = phi i8* [ %50, %46 ], [ %53, %52 ]
  %56 = getelementptr inbounds i8, i8* %55, i64 %32
  store i8 0, i8* %56, align 1
  ret void
}

; Function Attrs: nounwind ssp uwtable
define linkonce_odr hidden void @_ZNSt3__14pairIKNS_12basic_stringIcNS_11char_traitsIcEENS_9allocatorIcEEEES6_EC2IRA34_KcRA18_SA_Lb0EEEOT_OT0_(%"struct.std::__1::pair.205"*, [34 x i8]* dereferenceable(34), [18 x i8]* dereferenceable(18)) unnamed_addr #2 comdat align 2 {
  %4 = getelementptr inbounds [34 x i8], [34 x i8]* %1, i64 0, i64 0
  %5 = tail call i64 @strlen(i8* %4) #15
  %6 = icmp ugt i64 %5, -17
  br i1 %6, label %7, label %9

7:                                                ; preds = %3
  %8 = bitcast %"struct.std::__1::pair.205"* %0 to %"class.std::__1::__basic_string_common"*
  tail call void @_ZNKSt3__121__basic_string_commonILb1EE20__throw_length_errorEv(%"class.std::__1::__basic_string_common"* %8) #16
  unreachable

9:                                                ; preds = %3
  %10 = icmp ult i64 %5, 23
  br i1 %10, label %19, label %11

11:                                               ; preds = %9
  %12 = add nuw i64 %5, 16
  %13 = and i64 %12, -16
  %14 = tail call i8* @_Znwm(i64 %13) #14
  %15 = getelementptr inbounds %"struct.std::__1::pair.205", %"struct.std::__1::pair.205"* %0, i64 0, i32 0, i32 0, i32 0, i32 0, i32 0, i32 0, i32 0
  store i8* %14, i8** %15, align 8
  %16 = or i64 %13, -9223372036854775808
  %17 = getelementptr inbounds %"struct.std::__1::pair.205", %"struct.std::__1::pair.205"* %0, i64 0, i32 0, i32 0, i32 0, i32 0, i32 0, i32 0, i32 2
  store i64 %16, i64* %17, align 8
  %18 = getelementptr inbounds %"struct.std::__1::pair.205", %"struct.std::__1::pair.205"* %0, i64 0, i32 0, i32 0, i32 0, i32 0, i32 0, i32 0, i32 1
  store i64 %5, i64* %18, align 8
  br label %25

19:                                               ; preds = %9
  %20 = trunc i64 %5 to i8
  %21 = bitcast %"struct.std::__1::pair.205"* %0 to %"struct.std::__1::basic_string<char, std::__1::char_traits<char>, std::__1::allocator<char> >::__short"*
  %22 = getelementptr inbounds %"struct.std::__1::basic_string<char, std::__1::char_traits<char>, std::__1::allocator<char> >::__short", %"struct.std::__1::basic_string<char, std::__1::char_traits<char>, std::__1::allocator<char> >::__short"* %21, i64 0, i32 1, i32 0
  store i8 %20, i8* %22, align 1
  %23 = bitcast %"struct.std::__1::pair.205"* %0 to i8*
  %24 = icmp eq i64 %5, 0
  br i1 %24, label %27, label %25

25:                                               ; preds = %19, %11
  %26 = phi i8* [ %14, %11 ], [ %23, %19 ]
  tail call void @llvm.memcpy.p0i8.p0i8.i64(i8* align 1 %26, i8* align 1 %4, i64 %5, i1 false) #15
  br label %27

27:                                               ; preds = %19, %25
  %28 = phi i8* [ %23, %19 ], [ %26, %25 ]
  %29 = getelementptr inbounds i8, i8* %28, i64 %5
  store i8 0, i8* %29, align 1
  %30 = getelementptr inbounds %"struct.std::__1::pair.205", %"struct.std::__1::pair.205"* %0, i64 0, i32 1
  %31 = getelementptr inbounds [18 x i8], [18 x i8]* %2, i64 0, i64 0
  %32 = tail call i64 @strlen(i8* %31) #15
  %33 = icmp ugt i64 %32, -17
  br i1 %33, label %34, label %36

34:                                               ; preds = %27
  %35 = bitcast %"class.std::__1::basic_string"* %30 to %"class.std::__1::__basic_string_common"*
  tail call void @_ZNKSt3__121__basic_string_commonILb1EE20__throw_length_errorEv(%"class.std::__1::__basic_string_common"* %35) #16
  unreachable

36:                                               ; preds = %27
  %37 = icmp ult i64 %32, 23
  br i1 %37, label %46, label %38

38:                                               ; preds = %36
  %39 = add nuw i64 %32, 16
  %40 = and i64 %39, -16
  %41 = tail call i8* @_Znwm(i64 %40) #14
  %42 = getelementptr inbounds %"class.std::__1::basic_string", %"class.std::__1::basic_string"* %30, i64 0, i32 0, i32 0, i32 0, i32 0, i32 0, i32 0
  store i8* %41, i8** %42, align 8
  %43 = or i64 %40, -9223372036854775808
  %44 = getelementptr inbounds %"struct.std::__1::pair.205", %"struct.std::__1::pair.205"* %0, i64 0, i32 1, i32 0, i32 0, i32 0, i32 0, i32 0, i32 2
  store i64 %43, i64* %44, align 8
  %45 = getelementptr inbounds %"struct.std::__1::pair.205", %"struct.std::__1::pair.205"* %0, i64 0, i32 1, i32 0, i32 0, i32 0, i32 0, i32 0, i32 1
  store i64 %32, i64* %45, align 8
  br label %52

46:                                               ; preds = %36
  %47 = trunc i64 %32 to i8
  %48 = bitcast %"class.std::__1::basic_string"* %30 to %"struct.std::__1::basic_string<char, std::__1::char_traits<char>, std::__1::allocator<char> >::__short"*
  %49 = getelementptr inbounds %"struct.std::__1::basic_string<char, std::__1::char_traits<char>, std::__1::allocator<char> >::__short", %"struct.std::__1::basic_string<char, std::__1::char_traits<char>, std::__1::allocator<char> >::__short"* %48, i64 0, i32 1, i32 0
  store i8 %47, i8* %49, align 1
  %50 = bitcast %"class.std::__1::basic_string"* %30 to i8*
  %51 = icmp eq i64 %32, 0
  br i1 %51, label %54, label %52

52:                                               ; preds = %46, %38
  %53 = phi i8* [ %41, %38 ], [ %50, %46 ]
  tail call void @llvm.memcpy.p0i8.p0i8.i64(i8* align 1 %53, i8* align 1 %31, i64 %32, i1 false) #15
  br label %54

54:                                               ; preds = %46, %52
  %55 = phi i8* [ %50, %46 ], [ %53, %52 ]
  %56 = getelementptr inbounds i8, i8* %55, i64 %32
  store i8 0, i8* %56, align 1
  ret void
}

; Function Attrs: nounwind ssp uwtable
define linkonce_odr hidden void @_ZNSt3__14pairIKNS_12basic_stringIcNS_11char_traitsIcEENS_9allocatorIcEEEES6_EC2IRA44_KcRA30_SA_Lb0EEEOT_OT0_(%"struct.std::__1::pair.205"*, [44 x i8]* dereferenceable(44), [30 x i8]* dereferenceable(30)) unnamed_addr #2 comdat align 2 {
  %4 = getelementptr inbounds [44 x i8], [44 x i8]* %1, i64 0, i64 0
  %5 = tail call i64 @strlen(i8* %4) #15
  %6 = icmp ugt i64 %5, -17
  br i1 %6, label %7, label %9

7:                                                ; preds = %3
  %8 = bitcast %"struct.std::__1::pair.205"* %0 to %"class.std::__1::__basic_string_common"*
  tail call void @_ZNKSt3__121__basic_string_commonILb1EE20__throw_length_errorEv(%"class.std::__1::__basic_string_common"* %8) #16
  unreachable

9:                                                ; preds = %3
  %10 = icmp ult i64 %5, 23
  br i1 %10, label %19, label %11

11:                                               ; preds = %9
  %12 = add nuw i64 %5, 16
  %13 = and i64 %12, -16
  %14 = tail call i8* @_Znwm(i64 %13) #14
  %15 = getelementptr inbounds %"struct.std::__1::pair.205", %"struct.std::__1::pair.205"* %0, i64 0, i32 0, i32 0, i32 0, i32 0, i32 0, i32 0, i32 0
  store i8* %14, i8** %15, align 8
  %16 = or i64 %13, -9223372036854775808
  %17 = getelementptr inbounds %"struct.std::__1::pair.205", %"struct.std::__1::pair.205"* %0, i64 0, i32 0, i32 0, i32 0, i32 0, i32 0, i32 0, i32 2
  store i64 %16, i64* %17, align 8
  %18 = getelementptr inbounds %"struct.std::__1::pair.205", %"struct.std::__1::pair.205"* %0, i64 0, i32 0, i32 0, i32 0, i32 0, i32 0, i32 0, i32 1
  store i64 %5, i64* %18, align 8
  br label %25

19:                                               ; preds = %9
  %20 = trunc i64 %5 to i8
  %21 = bitcast %"struct.std::__1::pair.205"* %0 to %"struct.std::__1::basic_string<char, std::__1::char_traits<char>, std::__1::allocator<char> >::__short"*
  %22 = getelementptr inbounds %"struct.std::__1::basic_string<char, std::__1::char_traits<char>, std::__1::allocator<char> >::__short", %"struct.std::__1::basic_string<char, std::__1::char_traits<char>, std::__1::allocator<char> >::__short"* %21, i64 0, i32 1, i32 0
  store i8 %20, i8* %22, align 1
  %23 = bitcast %"struct.std::__1::pair.205"* %0 to i8*
  %24 = icmp eq i64 %5, 0
  br i1 %24, label %27, label %25

25:                                               ; preds = %19, %11
  %26 = phi i8* [ %14, %11 ], [ %23, %19 ]
  tail call void @llvm.memcpy.p0i8.p0i8.i64(i8* align 1 %26, i8* align 1 %4, i64 %5, i1 false) #15
  br label %27

27:                                               ; preds = %19, %25
  %28 = phi i8* [ %23, %19 ], [ %26, %25 ]
  %29 = getelementptr inbounds i8, i8* %28, i64 %5
  store i8 0, i8* %29, align 1
  %30 = getelementptr inbounds %"struct.std::__1::pair.205", %"struct.std::__1::pair.205"* %0, i64 0, i32 1
  %31 = getelementptr inbounds [30 x i8], [30 x i8]* %2, i64 0, i64 0
  %32 = tail call i64 @strlen(i8* %31) #15
  %33 = icmp ugt i64 %32, -17
  br i1 %33, label %34, label %36

34:                                               ; preds = %27
  %35 = bitcast %"class.std::__1::basic_string"* %30 to %"class.std::__1::__basic_string_common"*
  tail call void @_ZNKSt3__121__basic_string_commonILb1EE20__throw_length_errorEv(%"class.std::__1::__basic_string_common"* %35) #16
  unreachable

36:                                               ; preds = %27
  %37 = icmp ult i64 %32, 23
  br i1 %37, label %46, label %38

38:                                               ; preds = %36
  %39 = add nuw i64 %32, 16
  %40 = and i64 %39, -16
  %41 = tail call i8* @_Znwm(i64 %40) #14
  %42 = getelementptr inbounds %"class.std::__1::basic_string", %"class.std::__1::basic_string"* %30, i64 0, i32 0, i32 0, i32 0, i32 0, i32 0, i32 0
  store i8* %41, i8** %42, align 8
  %43 = or i64 %40, -9223372036854775808
  %44 = getelementptr inbounds %"struct.std::__1::pair.205", %"struct.std::__1::pair.205"* %0, i64 0, i32 1, i32 0, i32 0, i32 0, i32 0, i32 0, i32 2
  store i64 %43, i64* %44, align 8
  %45 = getelementptr inbounds %"struct.std::__1::pair.205", %"struct.std::__1::pair.205"* %0, i64 0, i32 1, i32 0, i32 0, i32 0, i32 0, i32 0, i32 1
  store i64 %32, i64* %45, align 8
  br label %52

46:                                               ; preds = %36
  %47 = trunc i64 %32 to i8
  %48 = bitcast %"class.std::__1::basic_string"* %30 to %"struct.std::__1::basic_string<char, std::__1::char_traits<char>, std::__1::allocator<char> >::__short"*
  %49 = getelementptr inbounds %"struct.std::__1::basic_string<char, std::__1::char_traits<char>, std::__1::allocator<char> >::__short", %"struct.std::__1::basic_string<char, std::__1::char_traits<char>, std::__1::allocator<char> >::__short"* %48, i64 0, i32 1, i32 0
  store i8 %47, i8* %49, align 1
  %50 = bitcast %"class.std::__1::basic_string"* %30 to i8*
  %51 = icmp eq i64 %32, 0
  br i1 %51, label %54, label %52

52:                                               ; preds = %46, %38
  %53 = phi i8* [ %41, %38 ], [ %50, %46 ]
  tail call void @llvm.memcpy.p0i8.p0i8.i64(i8* align 1 %53, i8* align 1 %31, i64 %32, i1 false) #15
  br label %54

54:                                               ; preds = %46, %52
  %55 = phi i8* [ %50, %46 ], [ %53, %52 ]
  %56 = getelementptr inbounds i8, i8* %55, i64 %32
  store i8 0, i8* %56, align 1
  ret void
}

; Function Attrs: nounwind ssp uwtable
define linkonce_odr hidden void @_ZNSt3__14pairIKNS_12basic_stringIcNS_11char_traitsIcEENS_9allocatorIcEEEES6_EC2IRA36_KcRA30_SA_Lb0EEEOT_OT0_(%"struct.std::__1::pair.205"*, [36 x i8]* dereferenceable(36), [30 x i8]* dereferenceable(30)) unnamed_addr #2 comdat align 2 {
  %4 = getelementptr inbounds [36 x i8], [36 x i8]* %1, i64 0, i64 0
  %5 = tail call i64 @strlen(i8* %4) #15
  %6 = icmp ugt i64 %5, -17
  br i1 %6, label %7, label %9

7:                                                ; preds = %3
  %8 = bitcast %"struct.std::__1::pair.205"* %0 to %"class.std::__1::__basic_string_common"*
  tail call void @_ZNKSt3__121__basic_string_commonILb1EE20__throw_length_errorEv(%"class.std::__1::__basic_string_common"* %8) #16
  unreachable

9:                                                ; preds = %3
  %10 = icmp ult i64 %5, 23
  br i1 %10, label %19, label %11

11:                                               ; preds = %9
  %12 = add nuw i64 %5, 16
  %13 = and i64 %12, -16
  %14 = tail call i8* @_Znwm(i64 %13) #14
  %15 = getelementptr inbounds %"struct.std::__1::pair.205", %"struct.std::__1::pair.205"* %0, i64 0, i32 0, i32 0, i32 0, i32 0, i32 0, i32 0, i32 0
  store i8* %14, i8** %15, align 8
  %16 = or i64 %13, -9223372036854775808
  %17 = getelementptr inbounds %"struct.std::__1::pair.205", %"struct.std::__1::pair.205"* %0, i64 0, i32 0, i32 0, i32 0, i32 0, i32 0, i32 0, i32 2
  store i64 %16, i64* %17, align 8
  %18 = getelementptr inbounds %"struct.std::__1::pair.205", %"struct.std::__1::pair.205"* %0, i64 0, i32 0, i32 0, i32 0, i32 0, i32 0, i32 0, i32 1
  store i64 %5, i64* %18, align 8
  br label %25

19:                                               ; preds = %9
  %20 = trunc i64 %5 to i8
  %21 = bitcast %"struct.std::__1::pair.205"* %0 to %"struct.std::__1::basic_string<char, std::__1::char_traits<char>, std::__1::allocator<char> >::__short"*
  %22 = getelementptr inbounds %"struct.std::__1::basic_string<char, std::__1::char_traits<char>, std::__1::allocator<char> >::__short", %"struct.std::__1::basic_string<char, std::__1::char_traits<char>, std::__1::allocator<char> >::__short"* %21, i64 0, i32 1, i32 0
  store i8 %20, i8* %22, align 1
  %23 = bitcast %"struct.std::__1::pair.205"* %0 to i8*
  %24 = icmp eq i64 %5, 0
  br i1 %24, label %27, label %25

25:                                               ; preds = %19, %11
  %26 = phi i8* [ %14, %11 ], [ %23, %19 ]
  tail call void @llvm.memcpy.p0i8.p0i8.i64(i8* align 1 %26, i8* align 1 %4, i64 %5, i1 false) #15
  br label %27

27:                                               ; preds = %19, %25
  %28 = phi i8* [ %23, %19 ], [ %26, %25 ]
  %29 = getelementptr inbounds i8, i8* %28, i64 %5
  store i8 0, i8* %29, align 1
  %30 = getelementptr inbounds %"struct.std::__1::pair.205", %"struct.std::__1::pair.205"* %0, i64 0, i32 1
  %31 = getelementptr inbounds [30 x i8], [30 x i8]* %2, i64 0, i64 0
  %32 = tail call i64 @strlen(i8* %31) #15
  %33 = icmp ugt i64 %32, -17
  br i1 %33, label %34, label %36

34:                                               ; preds = %27
  %35 = bitcast %"class.std::__1::basic_string"* %30 to %"class.std::__1::__basic_string_common"*
  tail call void @_ZNKSt3__121__basic_string_commonILb1EE20__throw_length_errorEv(%"class.std::__1::__basic_string_common"* %35) #16
  unreachable

36:                                               ; preds = %27
  %37 = icmp ult i64 %32, 23
  br i1 %37, label %46, label %38

38:                                               ; preds = %36
  %39 = add nuw i64 %32, 16
  %40 = and i64 %39, -16
  %41 = tail call i8* @_Znwm(i64 %40) #14
  %42 = getelementptr inbounds %"class.std::__1::basic_string", %"class.std::__1::basic_string"* %30, i64 0, i32 0, i32 0, i32 0, i32 0, i32 0, i32 0
  store i8* %41, i8** %42, align 8
  %43 = or i64 %40, -9223372036854775808
  %44 = getelementptr inbounds %"struct.std::__1::pair.205", %"struct.std::__1::pair.205"* %0, i64 0, i32 1, i32 0, i32 0, i32 0, i32 0, i32 0, i32 2
  store i64 %43, i64* %44, align 8
  %45 = getelementptr inbounds %"struct.std::__1::pair.205", %"struct.std::__1::pair.205"* %0, i64 0, i32 1, i32 0, i32 0, i32 0, i32 0, i32 0, i32 1
  store i64 %32, i64* %45, align 8
  br label %52

46:                                               ; preds = %36
  %47 = trunc i64 %32 to i8
  %48 = bitcast %"class.std::__1::basic_string"* %30 to %"struct.std::__1::basic_string<char, std::__1::char_traits<char>, std::__1::allocator<char> >::__short"*
  %49 = getelementptr inbounds %"struct.std::__1::basic_string<char, std::__1::char_traits<char>, std::__1::allocator<char> >::__short", %"struct.std::__1::basic_string<char, std::__1::char_traits<char>, std::__1::allocator<char> >::__short"* %48, i64 0, i32 1, i32 0
  store i8 %47, i8* %49, align 1
  %50 = bitcast %"class.std::__1::basic_string"* %30 to i8*
  %51 = icmp eq i64 %32, 0
  br i1 %51, label %54, label %52

52:                                               ; preds = %46, %38
  %53 = phi i8* [ %41, %38 ], [ %50, %46 ]
  tail call void @llvm.memcpy.p0i8.p0i8.i64(i8* align 1 %53, i8* align 1 %31, i64 %32, i1 false) #15
  br label %54

54:                                               ; preds = %46, %52
  %55 = phi i8* [ %50, %46 ], [ %53, %52 ]
  %56 = getelementptr inbounds i8, i8* %55, i64 %32
  store i8 0, i8* %56, align 1
  ret void
}

; Function Attrs: nounwind ssp uwtable
define linkonce_odr hidden void @_ZNSt3__14pairIKNS_12basic_stringIcNS_11char_traitsIcEENS_9allocatorIcEEEES6_EC2IRA27_KcRA19_SA_Lb0EEEOT_OT0_(%"struct.std::__1::pair.205"*, [27 x i8]* dereferenceable(27), [19 x i8]* dereferenceable(19)) unnamed_addr #2 comdat align 2 {
  %4 = getelementptr inbounds [27 x i8], [27 x i8]* %1, i64 0, i64 0
  %5 = tail call i64 @strlen(i8* %4) #15
  %6 = icmp ugt i64 %5, -17
  br i1 %6, label %7, label %9

7:                                                ; preds = %3
  %8 = bitcast %"struct.std::__1::pair.205"* %0 to %"class.std::__1::__basic_string_common"*
  tail call void @_ZNKSt3__121__basic_string_commonILb1EE20__throw_length_errorEv(%"class.std::__1::__basic_string_common"* %8) #16
  unreachable

9:                                                ; preds = %3
  %10 = icmp ult i64 %5, 23
  br i1 %10, label %19, label %11

11:                                               ; preds = %9
  %12 = add nuw i64 %5, 16
  %13 = and i64 %12, -16
  %14 = tail call i8* @_Znwm(i64 %13) #14
  %15 = getelementptr inbounds %"struct.std::__1::pair.205", %"struct.std::__1::pair.205"* %0, i64 0, i32 0, i32 0, i32 0, i32 0, i32 0, i32 0, i32 0
  store i8* %14, i8** %15, align 8
  %16 = or i64 %13, -9223372036854775808
  %17 = getelementptr inbounds %"struct.std::__1::pair.205", %"struct.std::__1::pair.205"* %0, i64 0, i32 0, i32 0, i32 0, i32 0, i32 0, i32 0, i32 2
  store i64 %16, i64* %17, align 8
  %18 = getelementptr inbounds %"struct.std::__1::pair.205", %"struct.std::__1::pair.205"* %0, i64 0, i32 0, i32 0, i32 0, i32 0, i32 0, i32 0, i32 1
  store i64 %5, i64* %18, align 8
  br label %25

19:                                               ; preds = %9
  %20 = trunc i64 %5 to i8
  %21 = bitcast %"struct.std::__1::pair.205"* %0 to %"struct.std::__1::basic_string<char, std::__1::char_traits<char>, std::__1::allocator<char> >::__short"*
  %22 = getelementptr inbounds %"struct.std::__1::basic_string<char, std::__1::char_traits<char>, std::__1::allocator<char> >::__short", %"struct.std::__1::basic_string<char, std::__1::char_traits<char>, std::__1::allocator<char> >::__short"* %21, i64 0, i32 1, i32 0
  store i8 %20, i8* %22, align 1
  %23 = bitcast %"struct.std::__1::pair.205"* %0 to i8*
  %24 = icmp eq i64 %5, 0
  br i1 %24, label %27, label %25

25:                                               ; preds = %19, %11
  %26 = phi i8* [ %14, %11 ], [ %23, %19 ]
  tail call void @llvm.memcpy.p0i8.p0i8.i64(i8* align 1 %26, i8* align 1 %4, i64 %5, i1 false) #15
  br label %27

27:                                               ; preds = %19, %25
  %28 = phi i8* [ %23, %19 ], [ %26, %25 ]
  %29 = getelementptr inbounds i8, i8* %28, i64 %5
  store i8 0, i8* %29, align 1
  %30 = getelementptr inbounds %"struct.std::__1::pair.205", %"struct.std::__1::pair.205"* %0, i64 0, i32 1
  %31 = getelementptr inbounds [19 x i8], [19 x i8]* %2, i64 0, i64 0
  %32 = tail call i64 @strlen(i8* %31) #15
  %33 = icmp ugt i64 %32, -17
  br i1 %33, label %34, label %36

34:                                               ; preds = %27
  %35 = bitcast %"class.std::__1::basic_string"* %30 to %"class.std::__1::__basic_string_common"*
  tail call void @_ZNKSt3__121__basic_string_commonILb1EE20__throw_length_errorEv(%"class.std::__1::__basic_string_common"* %35) #16
  unreachable

36:                                               ; preds = %27
  %37 = icmp ult i64 %32, 23
  br i1 %37, label %46, label %38

38:                                               ; preds = %36
  %39 = add nuw i64 %32, 16
  %40 = and i64 %39, -16
  %41 = tail call i8* @_Znwm(i64 %40) #14
  %42 = getelementptr inbounds %"class.std::__1::basic_string", %"class.std::__1::basic_string"* %30, i64 0, i32 0, i32 0, i32 0, i32 0, i32 0, i32 0
  store i8* %41, i8** %42, align 8
  %43 = or i64 %40, -9223372036854775808
  %44 = getelementptr inbounds %"struct.std::__1::pair.205", %"struct.std::__1::pair.205"* %0, i64 0, i32 1, i32 0, i32 0, i32 0, i32 0, i32 0, i32 2
  store i64 %43, i64* %44, align 8
  %45 = getelementptr inbounds %"struct.std::__1::pair.205", %"struct.std::__1::pair.205"* %0, i64 0, i32 1, i32 0, i32 0, i32 0, i32 0, i32 0, i32 1
  store i64 %32, i64* %45, align 8
  br label %52

46:                                               ; preds = %36
  %47 = trunc i64 %32 to i8
  %48 = bitcast %"class.std::__1::basic_string"* %30 to %"struct.std::__1::basic_string<char, std::__1::char_traits<char>, std::__1::allocator<char> >::__short"*
  %49 = getelementptr inbounds %"struct.std::__1::basic_string<char, std::__1::char_traits<char>, std::__1::allocator<char> >::__short", %"struct.std::__1::basic_string<char, std::__1::char_traits<char>, std::__1::allocator<char> >::__short"* %48, i64 0, i32 1, i32 0
  store i8 %47, i8* %49, align 1
  %50 = bitcast %"class.std::__1::basic_string"* %30 to i8*
  %51 = icmp eq i64 %32, 0
  br i1 %51, label %54, label %52

52:                                               ; preds = %46, %38
  %53 = phi i8* [ %41, %38 ], [ %50, %46 ]
  tail call void @llvm.memcpy.p0i8.p0i8.i64(i8* align 1 %53, i8* align 1 %31, i64 %32, i1 false) #15
  br label %54

54:                                               ; preds = %46, %52
  %55 = phi i8* [ %50, %46 ], [ %53, %52 ]
  %56 = getelementptr inbounds i8, i8* %55, i64 %32
  store i8 0, i8* %56, align 1
  ret void
}

; Function Attrs: nounwind ssp uwtable
define linkonce_odr hidden void @_ZNSt3__14pairIKNS_12basic_stringIcNS_11char_traitsIcEENS_9allocatorIcEEEES6_EC2IRA34_KcRA30_SA_Lb0EEEOT_OT0_(%"struct.std::__1::pair.205"*, [34 x i8]* dereferenceable(34), [30 x i8]* dereferenceable(30)) unnamed_addr #2 comdat align 2 {
  %4 = getelementptr inbounds [34 x i8], [34 x i8]* %1, i64 0, i64 0
  %5 = tail call i64 @strlen(i8* %4) #15
  %6 = icmp ugt i64 %5, -17
  br i1 %6, label %7, label %9

7:                                                ; preds = %3
  %8 = bitcast %"struct.std::__1::pair.205"* %0 to %"class.std::__1::__basic_string_common"*
  tail call void @_ZNKSt3__121__basic_string_commonILb1EE20__throw_length_errorEv(%"class.std::__1::__basic_string_common"* %8) #16
  unreachable

9:                                                ; preds = %3
  %10 = icmp ult i64 %5, 23
  br i1 %10, label %19, label %11

11:                                               ; preds = %9
  %12 = add nuw i64 %5, 16
  %13 = and i64 %12, -16
  %14 = tail call i8* @_Znwm(i64 %13) #14
  %15 = getelementptr inbounds %"struct.std::__1::pair.205", %"struct.std::__1::pair.205"* %0, i64 0, i32 0, i32 0, i32 0, i32 0, i32 0, i32 0, i32 0
  store i8* %14, i8** %15, align 8
  %16 = or i64 %13, -9223372036854775808
  %17 = getelementptr inbounds %"struct.std::__1::pair.205", %"struct.std::__1::pair.205"* %0, i64 0, i32 0, i32 0, i32 0, i32 0, i32 0, i32 0, i32 2
  store i64 %16, i64* %17, align 8
  %18 = getelementptr inbounds %"struct.std::__1::pair.205", %"struct.std::__1::pair.205"* %0, i64 0, i32 0, i32 0, i32 0, i32 0, i32 0, i32 0, i32 1
  store i64 %5, i64* %18, align 8
  br label %25

19:                                               ; preds = %9
  %20 = trunc i64 %5 to i8
  %21 = bitcast %"struct.std::__1::pair.205"* %0 to %"struct.std::__1::basic_string<char, std::__1::char_traits<char>, std::__1::allocator<char> >::__short"*
  %22 = getelementptr inbounds %"struct.std::__1::basic_string<char, std::__1::char_traits<char>, std::__1::allocator<char> >::__short", %"struct.std::__1::basic_string<char, std::__1::char_traits<char>, std::__1::allocator<char> >::__short"* %21, i64 0, i32 1, i32 0
  store i8 %20, i8* %22, align 1
  %23 = bitcast %"struct.std::__1::pair.205"* %0 to i8*
  %24 = icmp eq i64 %5, 0
  br i1 %24, label %27, label %25

25:                                               ; preds = %19, %11
  %26 = phi i8* [ %14, %11 ], [ %23, %19 ]
  tail call void @llvm.memcpy.p0i8.p0i8.i64(i8* align 1 %26, i8* align 1 %4, i64 %5, i1 false) #15
  br label %27

27:                                               ; preds = %19, %25
  %28 = phi i8* [ %23, %19 ], [ %26, %25 ]
  %29 = getelementptr inbounds i8, i8* %28, i64 %5
  store i8 0, i8* %29, align 1
  %30 = getelementptr inbounds %"struct.std::__1::pair.205", %"struct.std::__1::pair.205"* %0, i64 0, i32 1
  %31 = getelementptr inbounds [30 x i8], [30 x i8]* %2, i64 0, i64 0
  %32 = tail call i64 @strlen(i8* %31) #15
  %33 = icmp ugt i64 %32, -17
  br i1 %33, label %34, label %36

34:                                               ; preds = %27
  %35 = bitcast %"class.std::__1::basic_string"* %30 to %"class.std::__1::__basic_string_common"*
  tail call void @_ZNKSt3__121__basic_string_commonILb1EE20__throw_length_errorEv(%"class.std::__1::__basic_string_common"* %35) #16
  unreachable

36:                                               ; preds = %27
  %37 = icmp ult i64 %32, 23
  br i1 %37, label %46, label %38

38:                                               ; preds = %36
  %39 = add nuw i64 %32, 16
  %40 = and i64 %39, -16
  %41 = tail call i8* @_Znwm(i64 %40) #14
  %42 = getelementptr inbounds %"class.std::__1::basic_string", %"class.std::__1::basic_string"* %30, i64 0, i32 0, i32 0, i32 0, i32 0, i32 0, i32 0
  store i8* %41, i8** %42, align 8
  %43 = or i64 %40, -9223372036854775808
  %44 = getelementptr inbounds %"struct.std::__1::pair.205", %"struct.std::__1::pair.205"* %0, i64 0, i32 1, i32 0, i32 0, i32 0, i32 0, i32 0, i32 2
  store i64 %43, i64* %44, align 8
  %45 = getelementptr inbounds %"struct.std::__1::pair.205", %"struct.std::__1::pair.205"* %0, i64 0, i32 1, i32 0, i32 0, i32 0, i32 0, i32 0, i32 1
  store i64 %32, i64* %45, align 8
  br label %52

46:                                               ; preds = %36
  %47 = trunc i64 %32 to i8
  %48 = bitcast %"class.std::__1::basic_string"* %30 to %"struct.std::__1::basic_string<char, std::__1::char_traits<char>, std::__1::allocator<char> >::__short"*
  %49 = getelementptr inbounds %"struct.std::__1::basic_string<char, std::__1::char_traits<char>, std::__1::allocator<char> >::__short", %"struct.std::__1::basic_string<char, std::__1::char_traits<char>, std::__1::allocator<char> >::__short"* %48, i64 0, i32 1, i32 0
  store i8 %47, i8* %49, align 1
  %50 = bitcast %"class.std::__1::basic_string"* %30 to i8*
  %51 = icmp eq i64 %32, 0
  br i1 %51, label %54, label %52

52:                                               ; preds = %46, %38
  %53 = phi i8* [ %41, %38 ], [ %50, %46 ]
  tail call void @llvm.memcpy.p0i8.p0i8.i64(i8* align 1 %53, i8* align 1 %31, i64 %32, i1 false) #15
  br label %54

54:                                               ; preds = %46, %52
  %55 = phi i8* [ %50, %46 ], [ %53, %52 ]
  %56 = getelementptr inbounds i8, i8* %55, i64 %32
  store i8 0, i8* %56, align 1
  ret void
}

; Function Attrs: nounwind ssp uwtable
define linkonce_odr hidden void @_ZNSt3__14pairIKNS_12basic_stringIcNS_11char_traitsIcEENS_9allocatorIcEEEES6_EC2IRA33_KcRA18_SA_Lb0EEEOT_OT0_(%"struct.std::__1::pair.205"*, [33 x i8]* dereferenceable(33), [18 x i8]* dereferenceable(18)) unnamed_addr #2 comdat align 2 {
  %4 = getelementptr inbounds [33 x i8], [33 x i8]* %1, i64 0, i64 0
  %5 = tail call i64 @strlen(i8* %4) #15
  %6 = icmp ugt i64 %5, -17
  br i1 %6, label %7, label %9

7:                                                ; preds = %3
  %8 = bitcast %"struct.std::__1::pair.205"* %0 to %"class.std::__1::__basic_string_common"*
  tail call void @_ZNKSt3__121__basic_string_commonILb1EE20__throw_length_errorEv(%"class.std::__1::__basic_string_common"* %8) #16
  unreachable

9:                                                ; preds = %3
  %10 = icmp ult i64 %5, 23
  br i1 %10, label %19, label %11

11:                                               ; preds = %9
  %12 = add nuw i64 %5, 16
  %13 = and i64 %12, -16
  %14 = tail call i8* @_Znwm(i64 %13) #14
  %15 = getelementptr inbounds %"struct.std::__1::pair.205", %"struct.std::__1::pair.205"* %0, i64 0, i32 0, i32 0, i32 0, i32 0, i32 0, i32 0, i32 0
  store i8* %14, i8** %15, align 8
  %16 = or i64 %13, -9223372036854775808
  %17 = getelementptr inbounds %"struct.std::__1::pair.205", %"struct.std::__1::pair.205"* %0, i64 0, i32 0, i32 0, i32 0, i32 0, i32 0, i32 0, i32 2
  store i64 %16, i64* %17, align 8
  %18 = getelementptr inbounds %"struct.std::__1::pair.205", %"struct.std::__1::pair.205"* %0, i64 0, i32 0, i32 0, i32 0, i32 0, i32 0, i32 0, i32 1
  store i64 %5, i64* %18, align 8
  br label %25

19:                                               ; preds = %9
  %20 = trunc i64 %5 to i8
  %21 = bitcast %"struct.std::__1::pair.205"* %0 to %"struct.std::__1::basic_string<char, std::__1::char_traits<char>, std::__1::allocator<char> >::__short"*
  %22 = getelementptr inbounds %"struct.std::__1::basic_string<char, std::__1::char_traits<char>, std::__1::allocator<char> >::__short", %"struct.std::__1::basic_string<char, std::__1::char_traits<char>, std::__1::allocator<char> >::__short"* %21, i64 0, i32 1, i32 0
  store i8 %20, i8* %22, align 1
  %23 = bitcast %"struct.std::__1::pair.205"* %0 to i8*
  %24 = icmp eq i64 %5, 0
  br i1 %24, label %27, label %25

25:                                               ; preds = %19, %11
  %26 = phi i8* [ %14, %11 ], [ %23, %19 ]
  tail call void @llvm.memcpy.p0i8.p0i8.i64(i8* align 1 %26, i8* align 1 %4, i64 %5, i1 false) #15
  br label %27

27:                                               ; preds = %19, %25
  %28 = phi i8* [ %23, %19 ], [ %26, %25 ]
  %29 = getelementptr inbounds i8, i8* %28, i64 %5
  store i8 0, i8* %29, align 1
  %30 = getelementptr inbounds %"struct.std::__1::pair.205", %"struct.std::__1::pair.205"* %0, i64 0, i32 1
  %31 = getelementptr inbounds [18 x i8], [18 x i8]* %2, i64 0, i64 0
  %32 = tail call i64 @strlen(i8* %31) #15
  %33 = icmp ugt i64 %32, -17
  br i1 %33, label %34, label %36

34:                                               ; preds = %27
  %35 = bitcast %"class.std::__1::basic_string"* %30 to %"class.std::__1::__basic_string_common"*
  tail call void @_ZNKSt3__121__basic_string_commonILb1EE20__throw_length_errorEv(%"class.std::__1::__basic_string_common"* %35) #16
  unreachable

36:                                               ; preds = %27
  %37 = icmp ult i64 %32, 23
  br i1 %37, label %46, label %38

38:                                               ; preds = %36
  %39 = add nuw i64 %32, 16
  %40 = and i64 %39, -16
  %41 = tail call i8* @_Znwm(i64 %40) #14
  %42 = getelementptr inbounds %"class.std::__1::basic_string", %"class.std::__1::basic_string"* %30, i64 0, i32 0, i32 0, i32 0, i32 0, i32 0, i32 0
  store i8* %41, i8** %42, align 8
  %43 = or i64 %40, -9223372036854775808
  %44 = getelementptr inbounds %"struct.std::__1::pair.205", %"struct.std::__1::pair.205"* %0, i64 0, i32 1, i32 0, i32 0, i32 0, i32 0, i32 0, i32 2
  store i64 %43, i64* %44, align 8
  %45 = getelementptr inbounds %"struct.std::__1::pair.205", %"struct.std::__1::pair.205"* %0, i64 0, i32 1, i32 0, i32 0, i32 0, i32 0, i32 0, i32 1
  store i64 %32, i64* %45, align 8
  br label %52

46:                                               ; preds = %36
  %47 = trunc i64 %32 to i8
  %48 = bitcast %"class.std::__1::basic_string"* %30 to %"struct.std::__1::basic_string<char, std::__1::char_traits<char>, std::__1::allocator<char> >::__short"*
  %49 = getelementptr inbounds %"struct.std::__1::basic_string<char, std::__1::char_traits<char>, std::__1::allocator<char> >::__short", %"struct.std::__1::basic_string<char, std::__1::char_traits<char>, std::__1::allocator<char> >::__short"* %48, i64 0, i32 1, i32 0
  store i8 %47, i8* %49, align 1
  %50 = bitcast %"class.std::__1::basic_string"* %30 to i8*
  %51 = icmp eq i64 %32, 0
  br i1 %51, label %54, label %52

52:                                               ; preds = %46, %38
  %53 = phi i8* [ %41, %38 ], [ %50, %46 ]
  tail call void @llvm.memcpy.p0i8.p0i8.i64(i8* align 1 %53, i8* align 1 %31, i64 %32, i1 false) #15
  br label %54

54:                                               ; preds = %46, %52
  %55 = phi i8* [ %50, %46 ], [ %53, %52 ]
  %56 = getelementptr inbounds i8, i8* %55, i64 %32
  store i8 0, i8* %56, align 1
  ret void
}

; Function Attrs: nounwind ssp uwtable
define linkonce_odr hidden void @_ZNSt3__14pairIKNS_12basic_stringIcNS_11char_traitsIcEENS_9allocatorIcEEEES6_EC2IRA42_KcRA30_SA_Lb0EEEOT_OT0_(%"struct.std::__1::pair.205"*, [42 x i8]* dereferenceable(42), [30 x i8]* dereferenceable(30)) unnamed_addr #2 comdat align 2 {
  %4 = getelementptr inbounds [42 x i8], [42 x i8]* %1, i64 0, i64 0
  %5 = tail call i64 @strlen(i8* %4) #15
  %6 = icmp ugt i64 %5, -17
  br i1 %6, label %7, label %9

7:                                                ; preds = %3
  %8 = bitcast %"struct.std::__1::pair.205"* %0 to %"class.std::__1::__basic_string_common"*
  tail call void @_ZNKSt3__121__basic_string_commonILb1EE20__throw_length_errorEv(%"class.std::__1::__basic_string_common"* %8) #16
  unreachable

9:                                                ; preds = %3
  %10 = icmp ult i64 %5, 23
  br i1 %10, label %19, label %11

11:                                               ; preds = %9
  %12 = add nuw i64 %5, 16
  %13 = and i64 %12, -16
  %14 = tail call i8* @_Znwm(i64 %13) #14
  %15 = getelementptr inbounds %"struct.std::__1::pair.205", %"struct.std::__1::pair.205"* %0, i64 0, i32 0, i32 0, i32 0, i32 0, i32 0, i32 0, i32 0
  store i8* %14, i8** %15, align 8
  %16 = or i64 %13, -9223372036854775808
  %17 = getelementptr inbounds %"struct.std::__1::pair.205", %"struct.std::__1::pair.205"* %0, i64 0, i32 0, i32 0, i32 0, i32 0, i32 0, i32 0, i32 2
  store i64 %16, i64* %17, align 8
  %18 = getelementptr inbounds %"struct.std::__1::pair.205", %"struct.std::__1::pair.205"* %0, i64 0, i32 0, i32 0, i32 0, i32 0, i32 0, i32 0, i32 1
  store i64 %5, i64* %18, align 8
  br label %25

19:                                               ; preds = %9
  %20 = trunc i64 %5 to i8
  %21 = bitcast %"struct.std::__1::pair.205"* %0 to %"struct.std::__1::basic_string<char, std::__1::char_traits<char>, std::__1::allocator<char> >::__short"*
  %22 = getelementptr inbounds %"struct.std::__1::basic_string<char, std::__1::char_traits<char>, std::__1::allocator<char> >::__short", %"struct.std::__1::basic_string<char, std::__1::char_traits<char>, std::__1::allocator<char> >::__short"* %21, i64 0, i32 1, i32 0
  store i8 %20, i8* %22, align 1
  %23 = bitcast %"struct.std::__1::pair.205"* %0 to i8*
  %24 = icmp eq i64 %5, 0
  br i1 %24, label %27, label %25

25:                                               ; preds = %19, %11
  %26 = phi i8* [ %14, %11 ], [ %23, %19 ]
  tail call void @llvm.memcpy.p0i8.p0i8.i64(i8* align 1 %26, i8* align 1 %4, i64 %5, i1 false) #15
  br label %27

27:                                               ; preds = %19, %25
  %28 = phi i8* [ %23, %19 ], [ %26, %25 ]
  %29 = getelementptr inbounds i8, i8* %28, i64 %5
  store i8 0, i8* %29, align 1
  %30 = getelementptr inbounds %"struct.std::__1::pair.205", %"struct.std::__1::pair.205"* %0, i64 0, i32 1
  %31 = getelementptr inbounds [30 x i8], [30 x i8]* %2, i64 0, i64 0
  %32 = tail call i64 @strlen(i8* %31) #15
  %33 = icmp ugt i64 %32, -17
  br i1 %33, label %34, label %36

34:                                               ; preds = %27
  %35 = bitcast %"class.std::__1::basic_string"* %30 to %"class.std::__1::__basic_string_common"*
  tail call void @_ZNKSt3__121__basic_string_commonILb1EE20__throw_length_errorEv(%"class.std::__1::__basic_string_common"* %35) #16
  unreachable

36:                                               ; preds = %27
  %37 = icmp ult i64 %32, 23
  br i1 %37, label %46, label %38

38:                                               ; preds = %36
  %39 = add nuw i64 %32, 16
  %40 = and i64 %39, -16
  %41 = tail call i8* @_Znwm(i64 %40) #14
  %42 = getelementptr inbounds %"class.std::__1::basic_string", %"class.std::__1::basic_string"* %30, i64 0, i32 0, i32 0, i32 0, i32 0, i32 0, i32 0
  store i8* %41, i8** %42, align 8
  %43 = or i64 %40, -9223372036854775808
  %44 = getelementptr inbounds %"struct.std::__1::pair.205", %"struct.std::__1::pair.205"* %0, i64 0, i32 1, i32 0, i32 0, i32 0, i32 0, i32 0, i32 2
  store i64 %43, i64* %44, align 8
  %45 = getelementptr inbounds %"struct.std::__1::pair.205", %"struct.std::__1::pair.205"* %0, i64 0, i32 1, i32 0, i32 0, i32 0, i32 0, i32 0, i32 1
  store i64 %32, i64* %45, align 8
  br label %52

46:                                               ; preds = %36
  %47 = trunc i64 %32 to i8
  %48 = bitcast %"class.std::__1::basic_string"* %30 to %"struct.std::__1::basic_string<char, std::__1::char_traits<char>, std::__1::allocator<char> >::__short"*
  %49 = getelementptr inbounds %"struct.std::__1::basic_string<char, std::__1::char_traits<char>, std::__1::allocator<char> >::__short", %"struct.std::__1::basic_string<char, std::__1::char_traits<char>, std::__1::allocator<char> >::__short"* %48, i64 0, i32 1, i32 0
  store i8 %47, i8* %49, align 1
  %50 = bitcast %"class.std::__1::basic_string"* %30 to i8*
  %51 = icmp eq i64 %32, 0
  br i1 %51, label %54, label %52

52:                                               ; preds = %46, %38
  %53 = phi i8* [ %41, %38 ], [ %50, %46 ]
  tail call void @llvm.memcpy.p0i8.p0i8.i64(i8* align 1 %53, i8* align 1 %31, i64 %32, i1 false) #15
  br label %54

54:                                               ; preds = %46, %52
  %55 = phi i8* [ %50, %46 ], [ %53, %52 ]
  %56 = getelementptr inbounds i8, i8* %55, i64 %32
  store i8 0, i8* %56, align 1
  ret void
}

; Function Attrs: nounwind ssp uwtable
define linkonce_odr hidden void @_ZNSt3__14pairIKNS_12basic_stringIcNS_11char_traitsIcEENS_9allocatorIcEEEES6_EC2IRA20_KcRA22_SA_Lb0EEEOT_OT0_(%"struct.std::__1::pair.205"*, [20 x i8]* dereferenceable(20), [22 x i8]* dereferenceable(22)) unnamed_addr #2 comdat align 2 {
  %4 = getelementptr inbounds [20 x i8], [20 x i8]* %1, i64 0, i64 0
  %5 = tail call i64 @strlen(i8* %4) #15
  %6 = icmp ugt i64 %5, -17
  br i1 %6, label %7, label %9

7:                                                ; preds = %3
  %8 = bitcast %"struct.std::__1::pair.205"* %0 to %"class.std::__1::__basic_string_common"*
  tail call void @_ZNKSt3__121__basic_string_commonILb1EE20__throw_length_errorEv(%"class.std::__1::__basic_string_common"* %8) #16
  unreachable

9:                                                ; preds = %3
  %10 = icmp ult i64 %5, 23
  br i1 %10, label %19, label %11

11:                                               ; preds = %9
  %12 = add nuw i64 %5, 16
  %13 = and i64 %12, -16
  %14 = tail call i8* @_Znwm(i64 %13) #14
  %15 = getelementptr inbounds %"struct.std::__1::pair.205", %"struct.std::__1::pair.205"* %0, i64 0, i32 0, i32 0, i32 0, i32 0, i32 0, i32 0, i32 0
  store i8* %14, i8** %15, align 8
  %16 = or i64 %13, -9223372036854775808
  %17 = getelementptr inbounds %"struct.std::__1::pair.205", %"struct.std::__1::pair.205"* %0, i64 0, i32 0, i32 0, i32 0, i32 0, i32 0, i32 0, i32 2
  store i64 %16, i64* %17, align 8
  %18 = getelementptr inbounds %"struct.std::__1::pair.205", %"struct.std::__1::pair.205"* %0, i64 0, i32 0, i32 0, i32 0, i32 0, i32 0, i32 0, i32 1
  store i64 %5, i64* %18, align 8
  br label %25

19:                                               ; preds = %9
  %20 = trunc i64 %5 to i8
  %21 = bitcast %"struct.std::__1::pair.205"* %0 to %"struct.std::__1::basic_string<char, std::__1::char_traits<char>, std::__1::allocator<char> >::__short"*
  %22 = getelementptr inbounds %"struct.std::__1::basic_string<char, std::__1::char_traits<char>, std::__1::allocator<char> >::__short", %"struct.std::__1::basic_string<char, std::__1::char_traits<char>, std::__1::allocator<char> >::__short"* %21, i64 0, i32 1, i32 0
  store i8 %20, i8* %22, align 1
  %23 = bitcast %"struct.std::__1::pair.205"* %0 to i8*
  %24 = icmp eq i64 %5, 0
  br i1 %24, label %27, label %25

25:                                               ; preds = %19, %11
  %26 = phi i8* [ %14, %11 ], [ %23, %19 ]
  tail call void @llvm.memcpy.p0i8.p0i8.i64(i8* align 1 %26, i8* align 1 %4, i64 %5, i1 false) #15
  br label %27

27:                                               ; preds = %19, %25
  %28 = phi i8* [ %23, %19 ], [ %26, %25 ]
  %29 = getelementptr inbounds i8, i8* %28, i64 %5
  store i8 0, i8* %29, align 1
  %30 = getelementptr inbounds %"struct.std::__1::pair.205", %"struct.std::__1::pair.205"* %0, i64 0, i32 1
  %31 = getelementptr inbounds [22 x i8], [22 x i8]* %2, i64 0, i64 0
  %32 = tail call i64 @strlen(i8* %31) #15
  %33 = icmp ugt i64 %32, -17
  br i1 %33, label %34, label %36

34:                                               ; preds = %27
  %35 = bitcast %"class.std::__1::basic_string"* %30 to %"class.std::__1::__basic_string_common"*
  tail call void @_ZNKSt3__121__basic_string_commonILb1EE20__throw_length_errorEv(%"class.std::__1::__basic_string_common"* %35) #16
  unreachable

36:                                               ; preds = %27
  %37 = icmp ult i64 %32, 23
  br i1 %37, label %46, label %38

38:                                               ; preds = %36
  %39 = add nuw i64 %32, 16
  %40 = and i64 %39, -16
  %41 = tail call i8* @_Znwm(i64 %40) #14
  %42 = getelementptr inbounds %"class.std::__1::basic_string", %"class.std::__1::basic_string"* %30, i64 0, i32 0, i32 0, i32 0, i32 0, i32 0, i32 0
  store i8* %41, i8** %42, align 8
  %43 = or i64 %40, -9223372036854775808
  %44 = getelementptr inbounds %"struct.std::__1::pair.205", %"struct.std::__1::pair.205"* %0, i64 0, i32 1, i32 0, i32 0, i32 0, i32 0, i32 0, i32 2
  store i64 %43, i64* %44, align 8
  %45 = getelementptr inbounds %"struct.std::__1::pair.205", %"struct.std::__1::pair.205"* %0, i64 0, i32 1, i32 0, i32 0, i32 0, i32 0, i32 0, i32 1
  store i64 %32, i64* %45, align 8
  br label %52

46:                                               ; preds = %36
  %47 = trunc i64 %32 to i8
  %48 = bitcast %"class.std::__1::basic_string"* %30 to %"struct.std::__1::basic_string<char, std::__1::char_traits<char>, std::__1::allocator<char> >::__short"*
  %49 = getelementptr inbounds %"struct.std::__1::basic_string<char, std::__1::char_traits<char>, std::__1::allocator<char> >::__short", %"struct.std::__1::basic_string<char, std::__1::char_traits<char>, std::__1::allocator<char> >::__short"* %48, i64 0, i32 1, i32 0
  store i8 %47, i8* %49, align 1
  %50 = bitcast %"class.std::__1::basic_string"* %30 to i8*
  %51 = icmp eq i64 %32, 0
  br i1 %51, label %54, label %52

52:                                               ; preds = %46, %38
  %53 = phi i8* [ %41, %38 ], [ %50, %46 ]
  tail call void @llvm.memcpy.p0i8.p0i8.i64(i8* align 1 %53, i8* align 1 %31, i64 %32, i1 false) #15
  br label %54

54:                                               ; preds = %46, %52
  %55 = phi i8* [ %50, %46 ], [ %53, %52 ]
  %56 = getelementptr inbounds i8, i8* %55, i64 %32
  store i8 0, i8* %56, align 1
  ret void
}

; Function Attrs: nounwind ssp uwtable
define linkonce_odr hidden void @_ZNSt3__14pairIKNS_12basic_stringIcNS_11char_traitsIcEENS_9allocatorIcEEEES6_EC2IRA27_KcRA22_SA_Lb0EEEOT_OT0_(%"struct.std::__1::pair.205"*, [27 x i8]* dereferenceable(27), [22 x i8]* dereferenceable(22)) unnamed_addr #2 comdat align 2 {
  %4 = getelementptr inbounds [27 x i8], [27 x i8]* %1, i64 0, i64 0
  %5 = tail call i64 @strlen(i8* %4) #15
  %6 = icmp ugt i64 %5, -17
  br i1 %6, label %7, label %9

7:                                                ; preds = %3
  %8 = bitcast %"struct.std::__1::pair.205"* %0 to %"class.std::__1::__basic_string_common"*
  tail call void @_ZNKSt3__121__basic_string_commonILb1EE20__throw_length_errorEv(%"class.std::__1::__basic_string_common"* %8) #16
  unreachable

9:                                                ; preds = %3
  %10 = icmp ult i64 %5, 23
  br i1 %10, label %19, label %11

11:                                               ; preds = %9
  %12 = add nuw i64 %5, 16
  %13 = and i64 %12, -16
  %14 = tail call i8* @_Znwm(i64 %13) #14
  %15 = getelementptr inbounds %"struct.std::__1::pair.205", %"struct.std::__1::pair.205"* %0, i64 0, i32 0, i32 0, i32 0, i32 0, i32 0, i32 0, i32 0
  store i8* %14, i8** %15, align 8
  %16 = or i64 %13, -9223372036854775808
  %17 = getelementptr inbounds %"struct.std::__1::pair.205", %"struct.std::__1::pair.205"* %0, i64 0, i32 0, i32 0, i32 0, i32 0, i32 0, i32 0, i32 2
  store i64 %16, i64* %17, align 8
  %18 = getelementptr inbounds %"struct.std::__1::pair.205", %"struct.std::__1::pair.205"* %0, i64 0, i32 0, i32 0, i32 0, i32 0, i32 0, i32 0, i32 1
  store i64 %5, i64* %18, align 8
  br label %25

19:                                               ; preds = %9
  %20 = trunc i64 %5 to i8
  %21 = bitcast %"struct.std::__1::pair.205"* %0 to %"struct.std::__1::basic_string<char, std::__1::char_traits<char>, std::__1::allocator<char> >::__short"*
  %22 = getelementptr inbounds %"struct.std::__1::basic_string<char, std::__1::char_traits<char>, std::__1::allocator<char> >::__short", %"struct.std::__1::basic_string<char, std::__1::char_traits<char>, std::__1::allocator<char> >::__short"* %21, i64 0, i32 1, i32 0
  store i8 %20, i8* %22, align 1
  %23 = bitcast %"struct.std::__1::pair.205"* %0 to i8*
  %24 = icmp eq i64 %5, 0
  br i1 %24, label %27, label %25

25:                                               ; preds = %19, %11
  %26 = phi i8* [ %14, %11 ], [ %23, %19 ]
  tail call void @llvm.memcpy.p0i8.p0i8.i64(i8* align 1 %26, i8* align 1 %4, i64 %5, i1 false) #15
  br label %27

27:                                               ; preds = %19, %25
  %28 = phi i8* [ %23, %19 ], [ %26, %25 ]
  %29 = getelementptr inbounds i8, i8* %28, i64 %5
  store i8 0, i8* %29, align 1
  %30 = getelementptr inbounds %"struct.std::__1::pair.205", %"struct.std::__1::pair.205"* %0, i64 0, i32 1
  %31 = getelementptr inbounds [22 x i8], [22 x i8]* %2, i64 0, i64 0
  %32 = tail call i64 @strlen(i8* %31) #15
  %33 = icmp ugt i64 %32, -17
  br i1 %33, label %34, label %36

34:                                               ; preds = %27
  %35 = bitcast %"class.std::__1::basic_string"* %30 to %"class.std::__1::__basic_string_common"*
  tail call void @_ZNKSt3__121__basic_string_commonILb1EE20__throw_length_errorEv(%"class.std::__1::__basic_string_common"* %35) #16
  unreachable

36:                                               ; preds = %27
  %37 = icmp ult i64 %32, 23
  br i1 %37, label %46, label %38

38:                                               ; preds = %36
  %39 = add nuw i64 %32, 16
  %40 = and i64 %39, -16
  %41 = tail call i8* @_Znwm(i64 %40) #14
  %42 = getelementptr inbounds %"class.std::__1::basic_string", %"class.std::__1::basic_string"* %30, i64 0, i32 0, i32 0, i32 0, i32 0, i32 0, i32 0
  store i8* %41, i8** %42, align 8
  %43 = or i64 %40, -9223372036854775808
  %44 = getelementptr inbounds %"struct.std::__1::pair.205", %"struct.std::__1::pair.205"* %0, i64 0, i32 1, i32 0, i32 0, i32 0, i32 0, i32 0, i32 2
  store i64 %43, i64* %44, align 8
  %45 = getelementptr inbounds %"struct.std::__1::pair.205", %"struct.std::__1::pair.205"* %0, i64 0, i32 1, i32 0, i32 0, i32 0, i32 0, i32 0, i32 1
  store i64 %32, i64* %45, align 8
  br label %52

46:                                               ; preds = %36
  %47 = trunc i64 %32 to i8
  %48 = bitcast %"class.std::__1::basic_string"* %30 to %"struct.std::__1::basic_string<char, std::__1::char_traits<char>, std::__1::allocator<char> >::__short"*
  %49 = getelementptr inbounds %"struct.std::__1::basic_string<char, std::__1::char_traits<char>, std::__1::allocator<char> >::__short", %"struct.std::__1::basic_string<char, std::__1::char_traits<char>, std::__1::allocator<char> >::__short"* %48, i64 0, i32 1, i32 0
  store i8 %47, i8* %49, align 1
  %50 = bitcast %"class.std::__1::basic_string"* %30 to i8*
  %51 = icmp eq i64 %32, 0
  br i1 %51, label %54, label %52

52:                                               ; preds = %46, %38
  %53 = phi i8* [ %41, %38 ], [ %50, %46 ]
  tail call void @llvm.memcpy.p0i8.p0i8.i64(i8* align 1 %53, i8* align 1 %31, i64 %32, i1 false) #15
  br label %54

54:                                               ; preds = %46, %52
  %55 = phi i8* [ %50, %46 ], [ %53, %52 ]
  %56 = getelementptr inbounds i8, i8* %55, i64 %32
  store i8 0, i8* %56, align 1
  ret void
}

; Function Attrs: nounwind ssp uwtable
define linkonce_odr hidden void @_ZNSt3__14pairIKNS_12basic_stringIcNS_11char_traitsIcEENS_9allocatorIcEEEES6_EC2IRA23_KcRA21_SA_Lb0EEEOT_OT0_(%"struct.std::__1::pair.205"*, [23 x i8]* dereferenceable(23), [21 x i8]* dereferenceable(21)) unnamed_addr #2 comdat align 2 {
  %4 = getelementptr inbounds [23 x i8], [23 x i8]* %1, i64 0, i64 0
  %5 = tail call i64 @strlen(i8* %4) #15
  %6 = icmp ugt i64 %5, -17
  br i1 %6, label %7, label %9

7:                                                ; preds = %3
  %8 = bitcast %"struct.std::__1::pair.205"* %0 to %"class.std::__1::__basic_string_common"*
  tail call void @_ZNKSt3__121__basic_string_commonILb1EE20__throw_length_errorEv(%"class.std::__1::__basic_string_common"* %8) #16
  unreachable

9:                                                ; preds = %3
  %10 = icmp ult i64 %5, 23
  br i1 %10, label %19, label %11

11:                                               ; preds = %9
  %12 = add nuw i64 %5, 16
  %13 = and i64 %12, -16
  %14 = tail call i8* @_Znwm(i64 %13) #14
  %15 = getelementptr inbounds %"struct.std::__1::pair.205", %"struct.std::__1::pair.205"* %0, i64 0, i32 0, i32 0, i32 0, i32 0, i32 0, i32 0, i32 0
  store i8* %14, i8** %15, align 8
  %16 = or i64 %13, -9223372036854775808
  %17 = getelementptr inbounds %"struct.std::__1::pair.205", %"struct.std::__1::pair.205"* %0, i64 0, i32 0, i32 0, i32 0, i32 0, i32 0, i32 0, i32 2
  store i64 %16, i64* %17, align 8
  %18 = getelementptr inbounds %"struct.std::__1::pair.205", %"struct.std::__1::pair.205"* %0, i64 0, i32 0, i32 0, i32 0, i32 0, i32 0, i32 0, i32 1
  store i64 %5, i64* %18, align 8
  br label %25

19:                                               ; preds = %9
  %20 = trunc i64 %5 to i8
  %21 = bitcast %"struct.std::__1::pair.205"* %0 to %"struct.std::__1::basic_string<char, std::__1::char_traits<char>, std::__1::allocator<char> >::__short"*
  %22 = getelementptr inbounds %"struct.std::__1::basic_string<char, std::__1::char_traits<char>, std::__1::allocator<char> >::__short", %"struct.std::__1::basic_string<char, std::__1::char_traits<char>, std::__1::allocator<char> >::__short"* %21, i64 0, i32 1, i32 0
  store i8 %20, i8* %22, align 1
  %23 = bitcast %"struct.std::__1::pair.205"* %0 to i8*
  %24 = icmp eq i64 %5, 0
  br i1 %24, label %27, label %25

25:                                               ; preds = %19, %11
  %26 = phi i8* [ %14, %11 ], [ %23, %19 ]
  tail call void @llvm.memcpy.p0i8.p0i8.i64(i8* align 1 %26, i8* align 1 %4, i64 %5, i1 false) #15
  br label %27

27:                                               ; preds = %19, %25
  %28 = phi i8* [ %23, %19 ], [ %26, %25 ]
  %29 = getelementptr inbounds i8, i8* %28, i64 %5
  store i8 0, i8* %29, align 1
  %30 = getelementptr inbounds %"struct.std::__1::pair.205", %"struct.std::__1::pair.205"* %0, i64 0, i32 1
  %31 = getelementptr inbounds [21 x i8], [21 x i8]* %2, i64 0, i64 0
  %32 = tail call i64 @strlen(i8* %31) #15
  %33 = icmp ugt i64 %32, -17
  br i1 %33, label %34, label %36

34:                                               ; preds = %27
  %35 = bitcast %"class.std::__1::basic_string"* %30 to %"class.std::__1::__basic_string_common"*
  tail call void @_ZNKSt3__121__basic_string_commonILb1EE20__throw_length_errorEv(%"class.std::__1::__basic_string_common"* %35) #16
  unreachable

36:                                               ; preds = %27
  %37 = icmp ult i64 %32, 23
  br i1 %37, label %46, label %38

38:                                               ; preds = %36
  %39 = add nuw i64 %32, 16
  %40 = and i64 %39, -16
  %41 = tail call i8* @_Znwm(i64 %40) #14
  %42 = getelementptr inbounds %"class.std::__1::basic_string", %"class.std::__1::basic_string"* %30, i64 0, i32 0, i32 0, i32 0, i32 0, i32 0, i32 0
  store i8* %41, i8** %42, align 8
  %43 = or i64 %40, -9223372036854775808
  %44 = getelementptr inbounds %"struct.std::__1::pair.205", %"struct.std::__1::pair.205"* %0, i64 0, i32 1, i32 0, i32 0, i32 0, i32 0, i32 0, i32 2
  store i64 %43, i64* %44, align 8
  %45 = getelementptr inbounds %"struct.std::__1::pair.205", %"struct.std::__1::pair.205"* %0, i64 0, i32 1, i32 0, i32 0, i32 0, i32 0, i32 0, i32 1
  store i64 %32, i64* %45, align 8
  br label %52

46:                                               ; preds = %36
  %47 = trunc i64 %32 to i8
  %48 = bitcast %"class.std::__1::basic_string"* %30 to %"struct.std::__1::basic_string<char, std::__1::char_traits<char>, std::__1::allocator<char> >::__short"*
  %49 = getelementptr inbounds %"struct.std::__1::basic_string<char, std::__1::char_traits<char>, std::__1::allocator<char> >::__short", %"struct.std::__1::basic_string<char, std::__1::char_traits<char>, std::__1::allocator<char> >::__short"* %48, i64 0, i32 1, i32 0
  store i8 %47, i8* %49, align 1
  %50 = bitcast %"class.std::__1::basic_string"* %30 to i8*
  %51 = icmp eq i64 %32, 0
  br i1 %51, label %54, label %52

52:                                               ; preds = %46, %38
  %53 = phi i8* [ %41, %38 ], [ %50, %46 ]
  tail call void @llvm.memcpy.p0i8.p0i8.i64(i8* align 1 %53, i8* align 1 %31, i64 %32, i1 false) #15
  br label %54

54:                                               ; preds = %46, %52
  %55 = phi i8* [ %50, %46 ], [ %53, %52 ]
  %56 = getelementptr inbounds i8, i8* %55, i64 %32
  store i8 0, i8* %56, align 1
  ret void
}

; Function Attrs: nounwind ssp uwtable
define linkonce_odr hidden void @_ZNSt3__14pairIKNS_12basic_stringIcNS_11char_traitsIcEENS_9allocatorIcEEEES6_EC2IRA25_KcRA20_SA_Lb0EEEOT_OT0_(%"struct.std::__1::pair.205"*, [25 x i8]* dereferenceable(25), [20 x i8]* dereferenceable(20)) unnamed_addr #2 comdat align 2 {
  %4 = getelementptr inbounds [25 x i8], [25 x i8]* %1, i64 0, i64 0
  %5 = tail call i64 @strlen(i8* %4) #15
  %6 = icmp ugt i64 %5, -17
  br i1 %6, label %7, label %9

7:                                                ; preds = %3
  %8 = bitcast %"struct.std::__1::pair.205"* %0 to %"class.std::__1::__basic_string_common"*
  tail call void @_ZNKSt3__121__basic_string_commonILb1EE20__throw_length_errorEv(%"class.std::__1::__basic_string_common"* %8) #16
  unreachable

9:                                                ; preds = %3
  %10 = icmp ult i64 %5, 23
  br i1 %10, label %19, label %11

11:                                               ; preds = %9
  %12 = add nuw i64 %5, 16
  %13 = and i64 %12, -16
  %14 = tail call i8* @_Znwm(i64 %13) #14
  %15 = getelementptr inbounds %"struct.std::__1::pair.205", %"struct.std::__1::pair.205"* %0, i64 0, i32 0, i32 0, i32 0, i32 0, i32 0, i32 0, i32 0
  store i8* %14, i8** %15, align 8
  %16 = or i64 %13, -9223372036854775808
  %17 = getelementptr inbounds %"struct.std::__1::pair.205", %"struct.std::__1::pair.205"* %0, i64 0, i32 0, i32 0, i32 0, i32 0, i32 0, i32 0, i32 2
  store i64 %16, i64* %17, align 8
  %18 = getelementptr inbounds %"struct.std::__1::pair.205", %"struct.std::__1::pair.205"* %0, i64 0, i32 0, i32 0, i32 0, i32 0, i32 0, i32 0, i32 1
  store i64 %5, i64* %18, align 8
  br label %25

19:                                               ; preds = %9
  %20 = trunc i64 %5 to i8
  %21 = bitcast %"struct.std::__1::pair.205"* %0 to %"struct.std::__1::basic_string<char, std::__1::char_traits<char>, std::__1::allocator<char> >::__short"*
  %22 = getelementptr inbounds %"struct.std::__1::basic_string<char, std::__1::char_traits<char>, std::__1::allocator<char> >::__short", %"struct.std::__1::basic_string<char, std::__1::char_traits<char>, std::__1::allocator<char> >::__short"* %21, i64 0, i32 1, i32 0
  store i8 %20, i8* %22, align 1
  %23 = bitcast %"struct.std::__1::pair.205"* %0 to i8*
  %24 = icmp eq i64 %5, 0
  br i1 %24, label %27, label %25

25:                                               ; preds = %19, %11
  %26 = phi i8* [ %14, %11 ], [ %23, %19 ]
  tail call void @llvm.memcpy.p0i8.p0i8.i64(i8* align 1 %26, i8* align 1 %4, i64 %5, i1 false) #15
  br label %27

27:                                               ; preds = %19, %25
  %28 = phi i8* [ %23, %19 ], [ %26, %25 ]
  %29 = getelementptr inbounds i8, i8* %28, i64 %5
  store i8 0, i8* %29, align 1
  %30 = getelementptr inbounds %"struct.std::__1::pair.205", %"struct.std::__1::pair.205"* %0, i64 0, i32 1
  %31 = getelementptr inbounds [20 x i8], [20 x i8]* %2, i64 0, i64 0
  %32 = tail call i64 @strlen(i8* %31) #15
  %33 = icmp ugt i64 %32, -17
  br i1 %33, label %34, label %36

34:                                               ; preds = %27
  %35 = bitcast %"class.std::__1::basic_string"* %30 to %"class.std::__1::__basic_string_common"*
  tail call void @_ZNKSt3__121__basic_string_commonILb1EE20__throw_length_errorEv(%"class.std::__1::__basic_string_common"* %35) #16
  unreachable

36:                                               ; preds = %27
  %37 = icmp ult i64 %32, 23
  br i1 %37, label %46, label %38

38:                                               ; preds = %36
  %39 = add nuw i64 %32, 16
  %40 = and i64 %39, -16
  %41 = tail call i8* @_Znwm(i64 %40) #14
  %42 = getelementptr inbounds %"class.std::__1::basic_string", %"class.std::__1::basic_string"* %30, i64 0, i32 0, i32 0, i32 0, i32 0, i32 0, i32 0
  store i8* %41, i8** %42, align 8
  %43 = or i64 %40, -9223372036854775808
  %44 = getelementptr inbounds %"struct.std::__1::pair.205", %"struct.std::__1::pair.205"* %0, i64 0, i32 1, i32 0, i32 0, i32 0, i32 0, i32 0, i32 2
  store i64 %43, i64* %44, align 8
  %45 = getelementptr inbounds %"struct.std::__1::pair.205", %"struct.std::__1::pair.205"* %0, i64 0, i32 1, i32 0, i32 0, i32 0, i32 0, i32 0, i32 1
  store i64 %32, i64* %45, align 8
  br label %52

46:                                               ; preds = %36
  %47 = trunc i64 %32 to i8
  %48 = bitcast %"class.std::__1::basic_string"* %30 to %"struct.std::__1::basic_string<char, std::__1::char_traits<char>, std::__1::allocator<char> >::__short"*
  %49 = getelementptr inbounds %"struct.std::__1::basic_string<char, std::__1::char_traits<char>, std::__1::allocator<char> >::__short", %"struct.std::__1::basic_string<char, std::__1::char_traits<char>, std::__1::allocator<char> >::__short"* %48, i64 0, i32 1, i32 0
  store i8 %47, i8* %49, align 1
  %50 = bitcast %"class.std::__1::basic_string"* %30 to i8*
  %51 = icmp eq i64 %32, 0
  br i1 %51, label %54, label %52

52:                                               ; preds = %46, %38
  %53 = phi i8* [ %41, %38 ], [ %50, %46 ]
  tail call void @llvm.memcpy.p0i8.p0i8.i64(i8* align 1 %53, i8* align 1 %31, i64 %32, i1 false) #15
  br label %54

54:                                               ; preds = %46, %52
  %55 = phi i8* [ %50, %46 ], [ %53, %52 ]
  %56 = getelementptr inbounds i8, i8* %55, i64 %32
  store i8 0, i8* %56, align 1
  ret void
}

; Function Attrs: nounwind ssp uwtable
define linkonce_odr hidden void @_ZNSt3__14pairIKNS_12basic_stringIcNS_11char_traitsIcEENS_9allocatorIcEEEES6_EC2IRA26_KcRA20_SA_Lb0EEEOT_OT0_(%"struct.std::__1::pair.205"*, [26 x i8]* dereferenceable(26), [20 x i8]* dereferenceable(20)) unnamed_addr #2 comdat align 2 {
  %4 = getelementptr inbounds [26 x i8], [26 x i8]* %1, i64 0, i64 0
  %5 = tail call i64 @strlen(i8* %4) #15
  %6 = icmp ugt i64 %5, -17
  br i1 %6, label %7, label %9

7:                                                ; preds = %3
  %8 = bitcast %"struct.std::__1::pair.205"* %0 to %"class.std::__1::__basic_string_common"*
  tail call void @_ZNKSt3__121__basic_string_commonILb1EE20__throw_length_errorEv(%"class.std::__1::__basic_string_common"* %8) #16
  unreachable

9:                                                ; preds = %3
  %10 = icmp ult i64 %5, 23
  br i1 %10, label %19, label %11

11:                                               ; preds = %9
  %12 = add nuw i64 %5, 16
  %13 = and i64 %12, -16
  %14 = tail call i8* @_Znwm(i64 %13) #14
  %15 = getelementptr inbounds %"struct.std::__1::pair.205", %"struct.std::__1::pair.205"* %0, i64 0, i32 0, i32 0, i32 0, i32 0, i32 0, i32 0, i32 0
  store i8* %14, i8** %15, align 8
  %16 = or i64 %13, -9223372036854775808
  %17 = getelementptr inbounds %"struct.std::__1::pair.205", %"struct.std::__1::pair.205"* %0, i64 0, i32 0, i32 0, i32 0, i32 0, i32 0, i32 0, i32 2
  store i64 %16, i64* %17, align 8
  %18 = getelementptr inbounds %"struct.std::__1::pair.205", %"struct.std::__1::pair.205"* %0, i64 0, i32 0, i32 0, i32 0, i32 0, i32 0, i32 0, i32 1
  store i64 %5, i64* %18, align 8
  br label %25

19:                                               ; preds = %9
  %20 = trunc i64 %5 to i8
  %21 = bitcast %"struct.std::__1::pair.205"* %0 to %"struct.std::__1::basic_string<char, std::__1::char_traits<char>, std::__1::allocator<char> >::__short"*
  %22 = getelementptr inbounds %"struct.std::__1::basic_string<char, std::__1::char_traits<char>, std::__1::allocator<char> >::__short", %"struct.std::__1::basic_string<char, std::__1::char_traits<char>, std::__1::allocator<char> >::__short"* %21, i64 0, i32 1, i32 0
  store i8 %20, i8* %22, align 1
  %23 = bitcast %"struct.std::__1::pair.205"* %0 to i8*
  %24 = icmp eq i64 %5, 0
  br i1 %24, label %27, label %25

25:                                               ; preds = %19, %11
  %26 = phi i8* [ %14, %11 ], [ %23, %19 ]
  tail call void @llvm.memcpy.p0i8.p0i8.i64(i8* align 1 %26, i8* align 1 %4, i64 %5, i1 false) #15
  br label %27

27:                                               ; preds = %19, %25
  %28 = phi i8* [ %23, %19 ], [ %26, %25 ]
  %29 = getelementptr inbounds i8, i8* %28, i64 %5
  store i8 0, i8* %29, align 1
  %30 = getelementptr inbounds %"struct.std::__1::pair.205", %"struct.std::__1::pair.205"* %0, i64 0, i32 1
  %31 = getelementptr inbounds [20 x i8], [20 x i8]* %2, i64 0, i64 0
  %32 = tail call i64 @strlen(i8* %31) #15
  %33 = icmp ugt i64 %32, -17
  br i1 %33, label %34, label %36

34:                                               ; preds = %27
  %35 = bitcast %"class.std::__1::basic_string"* %30 to %"class.std::__1::__basic_string_common"*
  tail call void @_ZNKSt3__121__basic_string_commonILb1EE20__throw_length_errorEv(%"class.std::__1::__basic_string_common"* %35) #16
  unreachable

36:                                               ; preds = %27
  %37 = icmp ult i64 %32, 23
  br i1 %37, label %46, label %38

38:                                               ; preds = %36
  %39 = add nuw i64 %32, 16
  %40 = and i64 %39, -16
  %41 = tail call i8* @_Znwm(i64 %40) #14
  %42 = getelementptr inbounds %"class.std::__1::basic_string", %"class.std::__1::basic_string"* %30, i64 0, i32 0, i32 0, i32 0, i32 0, i32 0, i32 0
  store i8* %41, i8** %42, align 8
  %43 = or i64 %40, -9223372036854775808
  %44 = getelementptr inbounds %"struct.std::__1::pair.205", %"struct.std::__1::pair.205"* %0, i64 0, i32 1, i32 0, i32 0, i32 0, i32 0, i32 0, i32 2
  store i64 %43, i64* %44, align 8
  %45 = getelementptr inbounds %"struct.std::__1::pair.205", %"struct.std::__1::pair.205"* %0, i64 0, i32 1, i32 0, i32 0, i32 0, i32 0, i32 0, i32 1
  store i64 %32, i64* %45, align 8
  br label %52

46:                                               ; preds = %36
  %47 = trunc i64 %32 to i8
  %48 = bitcast %"class.std::__1::basic_string"* %30 to %"struct.std::__1::basic_string<char, std::__1::char_traits<char>, std::__1::allocator<char> >::__short"*
  %49 = getelementptr inbounds %"struct.std::__1::basic_string<char, std::__1::char_traits<char>, std::__1::allocator<char> >::__short", %"struct.std::__1::basic_string<char, std::__1::char_traits<char>, std::__1::allocator<char> >::__short"* %48, i64 0, i32 1, i32 0
  store i8 %47, i8* %49, align 1
  %50 = bitcast %"class.std::__1::basic_string"* %30 to i8*
  %51 = icmp eq i64 %32, 0
  br i1 %51, label %54, label %52

52:                                               ; preds = %46, %38
  %53 = phi i8* [ %41, %38 ], [ %50, %46 ]
  tail call void @llvm.memcpy.p0i8.p0i8.i64(i8* align 1 %53, i8* align 1 %31, i64 %32, i1 false) #15
  br label %54

54:                                               ; preds = %46, %52
  %55 = phi i8* [ %50, %46 ], [ %53, %52 ]
  %56 = getelementptr inbounds i8, i8* %55, i64 %32
  store i8 0, i8* %56, align 1
  ret void
}

; Function Attrs: nounwind ssp uwtable
define linkonce_odr hidden void @_ZNSt3__14pairIKNS_12basic_stringIcNS_11char_traitsIcEENS_9allocatorIcEEEES6_EC2IRA20_KcRA26_SA_Lb0EEEOT_OT0_(%"struct.std::__1::pair.205"*, [20 x i8]* dereferenceable(20), [26 x i8]* dereferenceable(26)) unnamed_addr #2 comdat align 2 {
  %4 = getelementptr inbounds [20 x i8], [20 x i8]* %1, i64 0, i64 0
  %5 = tail call i64 @strlen(i8* %4) #15
  %6 = icmp ugt i64 %5, -17
  br i1 %6, label %7, label %9

7:                                                ; preds = %3
  %8 = bitcast %"struct.std::__1::pair.205"* %0 to %"class.std::__1::__basic_string_common"*
  tail call void @_ZNKSt3__121__basic_string_commonILb1EE20__throw_length_errorEv(%"class.std::__1::__basic_string_common"* %8) #16
  unreachable

9:                                                ; preds = %3
  %10 = icmp ult i64 %5, 23
  br i1 %10, label %19, label %11

11:                                               ; preds = %9
  %12 = add nuw i64 %5, 16
  %13 = and i64 %12, -16
  %14 = tail call i8* @_Znwm(i64 %13) #14
  %15 = getelementptr inbounds %"struct.std::__1::pair.205", %"struct.std::__1::pair.205"* %0, i64 0, i32 0, i32 0, i32 0, i32 0, i32 0, i32 0, i32 0
  store i8* %14, i8** %15, align 8
  %16 = or i64 %13, -9223372036854775808
  %17 = getelementptr inbounds %"struct.std::__1::pair.205", %"struct.std::__1::pair.205"* %0, i64 0, i32 0, i32 0, i32 0, i32 0, i32 0, i32 0, i32 2
  store i64 %16, i64* %17, align 8
  %18 = getelementptr inbounds %"struct.std::__1::pair.205", %"struct.std::__1::pair.205"* %0, i64 0, i32 0, i32 0, i32 0, i32 0, i32 0, i32 0, i32 1
  store i64 %5, i64* %18, align 8
  br label %25

19:                                               ; preds = %9
  %20 = trunc i64 %5 to i8
  %21 = bitcast %"struct.std::__1::pair.205"* %0 to %"struct.std::__1::basic_string<char, std::__1::char_traits<char>, std::__1::allocator<char> >::__short"*
  %22 = getelementptr inbounds %"struct.std::__1::basic_string<char, std::__1::char_traits<char>, std::__1::allocator<char> >::__short", %"struct.std::__1::basic_string<char, std::__1::char_traits<char>, std::__1::allocator<char> >::__short"* %21, i64 0, i32 1, i32 0
  store i8 %20, i8* %22, align 1
  %23 = bitcast %"struct.std::__1::pair.205"* %0 to i8*
  %24 = icmp eq i64 %5, 0
  br i1 %24, label %27, label %25

25:                                               ; preds = %19, %11
  %26 = phi i8* [ %14, %11 ], [ %23, %19 ]
  tail call void @llvm.memcpy.p0i8.p0i8.i64(i8* align 1 %26, i8* align 1 %4, i64 %5, i1 false) #15
  br label %27

27:                                               ; preds = %19, %25
  %28 = phi i8* [ %23, %19 ], [ %26, %25 ]
  %29 = getelementptr inbounds i8, i8* %28, i64 %5
  store i8 0, i8* %29, align 1
  %30 = getelementptr inbounds %"struct.std::__1::pair.205", %"struct.std::__1::pair.205"* %0, i64 0, i32 1
  %31 = getelementptr inbounds [26 x i8], [26 x i8]* %2, i64 0, i64 0
  %32 = tail call i64 @strlen(i8* %31) #15
  %33 = icmp ugt i64 %32, -17
  br i1 %33, label %34, label %36

34:                                               ; preds = %27
  %35 = bitcast %"class.std::__1::basic_string"* %30 to %"class.std::__1::__basic_string_common"*
  tail call void @_ZNKSt3__121__basic_string_commonILb1EE20__throw_length_errorEv(%"class.std::__1::__basic_string_common"* %35) #16
  unreachable

36:                                               ; preds = %27
  %37 = icmp ult i64 %32, 23
  br i1 %37, label %46, label %38

38:                                               ; preds = %36
  %39 = add nuw i64 %32, 16
  %40 = and i64 %39, -16
  %41 = tail call i8* @_Znwm(i64 %40) #14
  %42 = getelementptr inbounds %"class.std::__1::basic_string", %"class.std::__1::basic_string"* %30, i64 0, i32 0, i32 0, i32 0, i32 0, i32 0, i32 0
  store i8* %41, i8** %42, align 8
  %43 = or i64 %40, -9223372036854775808
  %44 = getelementptr inbounds %"struct.std::__1::pair.205", %"struct.std::__1::pair.205"* %0, i64 0, i32 1, i32 0, i32 0, i32 0, i32 0, i32 0, i32 2
  store i64 %43, i64* %44, align 8
  %45 = getelementptr inbounds %"struct.std::__1::pair.205", %"struct.std::__1::pair.205"* %0, i64 0, i32 1, i32 0, i32 0, i32 0, i32 0, i32 0, i32 1
  store i64 %32, i64* %45, align 8
  br label %52

46:                                               ; preds = %36
  %47 = trunc i64 %32 to i8
  %48 = bitcast %"class.std::__1::basic_string"* %30 to %"struct.std::__1::basic_string<char, std::__1::char_traits<char>, std::__1::allocator<char> >::__short"*
  %49 = getelementptr inbounds %"struct.std::__1::basic_string<char, std::__1::char_traits<char>, std::__1::allocator<char> >::__short", %"struct.std::__1::basic_string<char, std::__1::char_traits<char>, std::__1::allocator<char> >::__short"* %48, i64 0, i32 1, i32 0
  store i8 %47, i8* %49, align 1
  %50 = bitcast %"class.std::__1::basic_string"* %30 to i8*
  %51 = icmp eq i64 %32, 0
  br i1 %51, label %54, label %52

52:                                               ; preds = %46, %38
  %53 = phi i8* [ %41, %38 ], [ %50, %46 ]
  tail call void @llvm.memcpy.p0i8.p0i8.i64(i8* align 1 %53, i8* align 1 %31, i64 %32, i1 false) #15
  br label %54

54:                                               ; preds = %46, %52
  %55 = phi i8* [ %50, %46 ], [ %53, %52 ]
  %56 = getelementptr inbounds i8, i8* %55, i64 %32
  store i8 0, i8* %56, align 1
  ret void
}

; Function Attrs: nounwind ssp uwtable
define linkonce_odr hidden void @_ZNSt3__14pairIKNS_12basic_stringIcNS_11char_traitsIcEENS_9allocatorIcEEEES6_EC2IRA18_KcRA15_SA_Lb0EEEOT_OT0_(%"struct.std::__1::pair.205"*, [18 x i8]* dereferenceable(18), [15 x i8]* dereferenceable(15)) unnamed_addr #2 comdat align 2 {
  %4 = getelementptr inbounds [18 x i8], [18 x i8]* %1, i64 0, i64 0
  %5 = tail call i64 @strlen(i8* %4) #15
  %6 = icmp ugt i64 %5, -17
  br i1 %6, label %7, label %9

7:                                                ; preds = %3
  %8 = bitcast %"struct.std::__1::pair.205"* %0 to %"class.std::__1::__basic_string_common"*
  tail call void @_ZNKSt3__121__basic_string_commonILb1EE20__throw_length_errorEv(%"class.std::__1::__basic_string_common"* %8) #16
  unreachable

9:                                                ; preds = %3
  %10 = icmp ult i64 %5, 23
  br i1 %10, label %19, label %11

11:                                               ; preds = %9
  %12 = add nuw i64 %5, 16
  %13 = and i64 %12, -16
  %14 = tail call i8* @_Znwm(i64 %13) #14
  %15 = getelementptr inbounds %"struct.std::__1::pair.205", %"struct.std::__1::pair.205"* %0, i64 0, i32 0, i32 0, i32 0, i32 0, i32 0, i32 0, i32 0
  store i8* %14, i8** %15, align 8
  %16 = or i64 %13, -9223372036854775808
  %17 = getelementptr inbounds %"struct.std::__1::pair.205", %"struct.std::__1::pair.205"* %0, i64 0, i32 0, i32 0, i32 0, i32 0, i32 0, i32 0, i32 2
  store i64 %16, i64* %17, align 8
  %18 = getelementptr inbounds %"struct.std::__1::pair.205", %"struct.std::__1::pair.205"* %0, i64 0, i32 0, i32 0, i32 0, i32 0, i32 0, i32 0, i32 1
  store i64 %5, i64* %18, align 8
  br label %25

19:                                               ; preds = %9
  %20 = trunc i64 %5 to i8
  %21 = bitcast %"struct.std::__1::pair.205"* %0 to %"struct.std::__1::basic_string<char, std::__1::char_traits<char>, std::__1::allocator<char> >::__short"*
  %22 = getelementptr inbounds %"struct.std::__1::basic_string<char, std::__1::char_traits<char>, std::__1::allocator<char> >::__short", %"struct.std::__1::basic_string<char, std::__1::char_traits<char>, std::__1::allocator<char> >::__short"* %21, i64 0, i32 1, i32 0
  store i8 %20, i8* %22, align 1
  %23 = bitcast %"struct.std::__1::pair.205"* %0 to i8*
  %24 = icmp eq i64 %5, 0
  br i1 %24, label %27, label %25

25:                                               ; preds = %19, %11
  %26 = phi i8* [ %14, %11 ], [ %23, %19 ]
  tail call void @llvm.memcpy.p0i8.p0i8.i64(i8* align 1 %26, i8* align 1 %4, i64 %5, i1 false) #15
  br label %27

27:                                               ; preds = %19, %25
  %28 = phi i8* [ %23, %19 ], [ %26, %25 ]
  %29 = getelementptr inbounds i8, i8* %28, i64 %5
  store i8 0, i8* %29, align 1
  %30 = getelementptr inbounds %"struct.std::__1::pair.205", %"struct.std::__1::pair.205"* %0, i64 0, i32 1
  %31 = getelementptr inbounds [15 x i8], [15 x i8]* %2, i64 0, i64 0
  %32 = tail call i64 @strlen(i8* %31) #15
  %33 = icmp ugt i64 %32, -17
  br i1 %33, label %34, label %36

34:                                               ; preds = %27
  %35 = bitcast %"class.std::__1::basic_string"* %30 to %"class.std::__1::__basic_string_common"*
  tail call void @_ZNKSt3__121__basic_string_commonILb1EE20__throw_length_errorEv(%"class.std::__1::__basic_string_common"* %35) #16
  unreachable

36:                                               ; preds = %27
  %37 = icmp ult i64 %32, 23
  br i1 %37, label %46, label %38

38:                                               ; preds = %36
  %39 = add nuw i64 %32, 16
  %40 = and i64 %39, -16
  %41 = tail call i8* @_Znwm(i64 %40) #14
  %42 = getelementptr inbounds %"class.std::__1::basic_string", %"class.std::__1::basic_string"* %30, i64 0, i32 0, i32 0, i32 0, i32 0, i32 0, i32 0
  store i8* %41, i8** %42, align 8
  %43 = or i64 %40, -9223372036854775808
  %44 = getelementptr inbounds %"struct.std::__1::pair.205", %"struct.std::__1::pair.205"* %0, i64 0, i32 1, i32 0, i32 0, i32 0, i32 0, i32 0, i32 2
  store i64 %43, i64* %44, align 8
  %45 = getelementptr inbounds %"struct.std::__1::pair.205", %"struct.std::__1::pair.205"* %0, i64 0, i32 1, i32 0, i32 0, i32 0, i32 0, i32 0, i32 1
  store i64 %32, i64* %45, align 8
  br label %52

46:                                               ; preds = %36
  %47 = trunc i64 %32 to i8
  %48 = bitcast %"class.std::__1::basic_string"* %30 to %"struct.std::__1::basic_string<char, std::__1::char_traits<char>, std::__1::allocator<char> >::__short"*
  %49 = getelementptr inbounds %"struct.std::__1::basic_string<char, std::__1::char_traits<char>, std::__1::allocator<char> >::__short", %"struct.std::__1::basic_string<char, std::__1::char_traits<char>, std::__1::allocator<char> >::__short"* %48, i64 0, i32 1, i32 0
  store i8 %47, i8* %49, align 1
  %50 = bitcast %"class.std::__1::basic_string"* %30 to i8*
  %51 = icmp eq i64 %32, 0
  br i1 %51, label %54, label %52

52:                                               ; preds = %46, %38
  %53 = phi i8* [ %41, %38 ], [ %50, %46 ]
  tail call void @llvm.memcpy.p0i8.p0i8.i64(i8* align 1 %53, i8* align 1 %31, i64 %32, i1 false) #15
  br label %54

54:                                               ; preds = %46, %52
  %55 = phi i8* [ %50, %46 ], [ %53, %52 ]
  %56 = getelementptr inbounds i8, i8* %55, i64 %32
  store i8 0, i8* %56, align 1
  ret void
}

; Function Attrs: nounwind ssp uwtable
define linkonce_odr hidden void @_ZNSt3__14pairIKNS_12basic_stringIcNS_11char_traitsIcEENS_9allocatorIcEEEES6_EC2IRA21_KcRA20_SA_Lb0EEEOT_OT0_(%"struct.std::__1::pair.205"*, [21 x i8]* dereferenceable(21), [20 x i8]* dereferenceable(20)) unnamed_addr #2 comdat align 2 {
  %4 = getelementptr inbounds [21 x i8], [21 x i8]* %1, i64 0, i64 0
  %5 = tail call i64 @strlen(i8* %4) #15
  %6 = icmp ugt i64 %5, -17
  br i1 %6, label %7, label %9

7:                                                ; preds = %3
  %8 = bitcast %"struct.std::__1::pair.205"* %0 to %"class.std::__1::__basic_string_common"*
  tail call void @_ZNKSt3__121__basic_string_commonILb1EE20__throw_length_errorEv(%"class.std::__1::__basic_string_common"* %8) #16
  unreachable

9:                                                ; preds = %3
  %10 = icmp ult i64 %5, 23
  br i1 %10, label %19, label %11

11:                                               ; preds = %9
  %12 = add nuw i64 %5, 16
  %13 = and i64 %12, -16
  %14 = tail call i8* @_Znwm(i64 %13) #14
  %15 = getelementptr inbounds %"struct.std::__1::pair.205", %"struct.std::__1::pair.205"* %0, i64 0, i32 0, i32 0, i32 0, i32 0, i32 0, i32 0, i32 0
  store i8* %14, i8** %15, align 8
  %16 = or i64 %13, -9223372036854775808
  %17 = getelementptr inbounds %"struct.std::__1::pair.205", %"struct.std::__1::pair.205"* %0, i64 0, i32 0, i32 0, i32 0, i32 0, i32 0, i32 0, i32 2
  store i64 %16, i64* %17, align 8
  %18 = getelementptr inbounds %"struct.std::__1::pair.205", %"struct.std::__1::pair.205"* %0, i64 0, i32 0, i32 0, i32 0, i32 0, i32 0, i32 0, i32 1
  store i64 %5, i64* %18, align 8
  br label %25

19:                                               ; preds = %9
  %20 = trunc i64 %5 to i8
  %21 = bitcast %"struct.std::__1::pair.205"* %0 to %"struct.std::__1::basic_string<char, std::__1::char_traits<char>, std::__1::allocator<char> >::__short"*
  %22 = getelementptr inbounds %"struct.std::__1::basic_string<char, std::__1::char_traits<char>, std::__1::allocator<char> >::__short", %"struct.std::__1::basic_string<char, std::__1::char_traits<char>, std::__1::allocator<char> >::__short"* %21, i64 0, i32 1, i32 0
  store i8 %20, i8* %22, align 1
  %23 = bitcast %"struct.std::__1::pair.205"* %0 to i8*
  %24 = icmp eq i64 %5, 0
  br i1 %24, label %27, label %25

25:                                               ; preds = %19, %11
  %26 = phi i8* [ %14, %11 ], [ %23, %19 ]
  tail call void @llvm.memcpy.p0i8.p0i8.i64(i8* align 1 %26, i8* align 1 %4, i64 %5, i1 false) #15
  br label %27

27:                                               ; preds = %19, %25
  %28 = phi i8* [ %23, %19 ], [ %26, %25 ]
  %29 = getelementptr inbounds i8, i8* %28, i64 %5
  store i8 0, i8* %29, align 1
  %30 = getelementptr inbounds %"struct.std::__1::pair.205", %"struct.std::__1::pair.205"* %0, i64 0, i32 1
  %31 = getelementptr inbounds [20 x i8], [20 x i8]* %2, i64 0, i64 0
  %32 = tail call i64 @strlen(i8* %31) #15
  %33 = icmp ugt i64 %32, -17
  br i1 %33, label %34, label %36

34:                                               ; preds = %27
  %35 = bitcast %"class.std::__1::basic_string"* %30 to %"class.std::__1::__basic_string_common"*
  tail call void @_ZNKSt3__121__basic_string_commonILb1EE20__throw_length_errorEv(%"class.std::__1::__basic_string_common"* %35) #16
  unreachable

36:                                               ; preds = %27
  %37 = icmp ult i64 %32, 23
  br i1 %37, label %46, label %38

38:                                               ; preds = %36
  %39 = add nuw i64 %32, 16
  %40 = and i64 %39, -16
  %41 = tail call i8* @_Znwm(i64 %40) #14
  %42 = getelementptr inbounds %"class.std::__1::basic_string", %"class.std::__1::basic_string"* %30, i64 0, i32 0, i32 0, i32 0, i32 0, i32 0, i32 0
  store i8* %41, i8** %42, align 8
  %43 = or i64 %40, -9223372036854775808
  %44 = getelementptr inbounds %"struct.std::__1::pair.205", %"struct.std::__1::pair.205"* %0, i64 0, i32 1, i32 0, i32 0, i32 0, i32 0, i32 0, i32 2
  store i64 %43, i64* %44, align 8
  %45 = getelementptr inbounds %"struct.std::__1::pair.205", %"struct.std::__1::pair.205"* %0, i64 0, i32 1, i32 0, i32 0, i32 0, i32 0, i32 0, i32 1
  store i64 %32, i64* %45, align 8
  br label %52

46:                                               ; preds = %36
  %47 = trunc i64 %32 to i8
  %48 = bitcast %"class.std::__1::basic_string"* %30 to %"struct.std::__1::basic_string<char, std::__1::char_traits<char>, std::__1::allocator<char> >::__short"*
  %49 = getelementptr inbounds %"struct.std::__1::basic_string<char, std::__1::char_traits<char>, std::__1::allocator<char> >::__short", %"struct.std::__1::basic_string<char, std::__1::char_traits<char>, std::__1::allocator<char> >::__short"* %48, i64 0, i32 1, i32 0
  store i8 %47, i8* %49, align 1
  %50 = bitcast %"class.std::__1::basic_string"* %30 to i8*
  %51 = icmp eq i64 %32, 0
  br i1 %51, label %54, label %52

52:                                               ; preds = %46, %38
  %53 = phi i8* [ %41, %38 ], [ %50, %46 ]
  tail call void @llvm.memcpy.p0i8.p0i8.i64(i8* align 1 %53, i8* align 1 %31, i64 %32, i1 false) #15
  br label %54

54:                                               ; preds = %46, %52
  %55 = phi i8* [ %50, %46 ], [ %53, %52 ]
  %56 = getelementptr inbounds i8, i8* %55, i64 %32
  store i8 0, i8* %56, align 1
  ret void
}

; Function Attrs: nounwind ssp uwtable
define linkonce_odr hidden void @_ZNSt3__14pairIKNS_12basic_stringIcNS_11char_traitsIcEENS_9allocatorIcEEEES6_EC2IRA30_KcRA15_SA_Lb0EEEOT_OT0_(%"struct.std::__1::pair.205"*, [30 x i8]* dereferenceable(30), [15 x i8]* dereferenceable(15)) unnamed_addr #2 comdat align 2 {
  %4 = getelementptr inbounds [30 x i8], [30 x i8]* %1, i64 0, i64 0
  %5 = tail call i64 @strlen(i8* %4) #15
  %6 = icmp ugt i64 %5, -17
  br i1 %6, label %7, label %9

7:                                                ; preds = %3
  %8 = bitcast %"struct.std::__1::pair.205"* %0 to %"class.std::__1::__basic_string_common"*
  tail call void @_ZNKSt3__121__basic_string_commonILb1EE20__throw_length_errorEv(%"class.std::__1::__basic_string_common"* %8) #16
  unreachable

9:                                                ; preds = %3
  %10 = icmp ult i64 %5, 23
  br i1 %10, label %19, label %11

11:                                               ; preds = %9
  %12 = add nuw i64 %5, 16
  %13 = and i64 %12, -16
  %14 = tail call i8* @_Znwm(i64 %13) #14
  %15 = getelementptr inbounds %"struct.std::__1::pair.205", %"struct.std::__1::pair.205"* %0, i64 0, i32 0, i32 0, i32 0, i32 0, i32 0, i32 0, i32 0
  store i8* %14, i8** %15, align 8
  %16 = or i64 %13, -9223372036854775808
  %17 = getelementptr inbounds %"struct.std::__1::pair.205", %"struct.std::__1::pair.205"* %0, i64 0, i32 0, i32 0, i32 0, i32 0, i32 0, i32 0, i32 2
  store i64 %16, i64* %17, align 8
  %18 = getelementptr inbounds %"struct.std::__1::pair.205", %"struct.std::__1::pair.205"* %0, i64 0, i32 0, i32 0, i32 0, i32 0, i32 0, i32 0, i32 1
  store i64 %5, i64* %18, align 8
  br label %25

19:                                               ; preds = %9
  %20 = trunc i64 %5 to i8
  %21 = bitcast %"struct.std::__1::pair.205"* %0 to %"struct.std::__1::basic_string<char, std::__1::char_traits<char>, std::__1::allocator<char> >::__short"*
  %22 = getelementptr inbounds %"struct.std::__1::basic_string<char, std::__1::char_traits<char>, std::__1::allocator<char> >::__short", %"struct.std::__1::basic_string<char, std::__1::char_traits<char>, std::__1::allocator<char> >::__short"* %21, i64 0, i32 1, i32 0
  store i8 %20, i8* %22, align 1
  %23 = bitcast %"struct.std::__1::pair.205"* %0 to i8*
  %24 = icmp eq i64 %5, 0
  br i1 %24, label %27, label %25

25:                                               ; preds = %19, %11
  %26 = phi i8* [ %14, %11 ], [ %23, %19 ]
  tail call void @llvm.memcpy.p0i8.p0i8.i64(i8* align 1 %26, i8* align 1 %4, i64 %5, i1 false) #15
  br label %27

27:                                               ; preds = %19, %25
  %28 = phi i8* [ %23, %19 ], [ %26, %25 ]
  %29 = getelementptr inbounds i8, i8* %28, i64 %5
  store i8 0, i8* %29, align 1
  %30 = getelementptr inbounds %"struct.std::__1::pair.205", %"struct.std::__1::pair.205"* %0, i64 0, i32 1
  %31 = getelementptr inbounds [15 x i8], [15 x i8]* %2, i64 0, i64 0
  %32 = tail call i64 @strlen(i8* %31) #15
  %33 = icmp ugt i64 %32, -17
  br i1 %33, label %34, label %36

34:                                               ; preds = %27
  %35 = bitcast %"class.std::__1::basic_string"* %30 to %"class.std::__1::__basic_string_common"*
  tail call void @_ZNKSt3__121__basic_string_commonILb1EE20__throw_length_errorEv(%"class.std::__1::__basic_string_common"* %35) #16
  unreachable

36:                                               ; preds = %27
  %37 = icmp ult i64 %32, 23
  br i1 %37, label %46, label %38

38:                                               ; preds = %36
  %39 = add nuw i64 %32, 16
  %40 = and i64 %39, -16
  %41 = tail call i8* @_Znwm(i64 %40) #14
  %42 = getelementptr inbounds %"class.std::__1::basic_string", %"class.std::__1::basic_string"* %30, i64 0, i32 0, i32 0, i32 0, i32 0, i32 0, i32 0
  store i8* %41, i8** %42, align 8
  %43 = or i64 %40, -9223372036854775808
  %44 = getelementptr inbounds %"struct.std::__1::pair.205", %"struct.std::__1::pair.205"* %0, i64 0, i32 1, i32 0, i32 0, i32 0, i32 0, i32 0, i32 2
  store i64 %43, i64* %44, align 8
  %45 = getelementptr inbounds %"struct.std::__1::pair.205", %"struct.std::__1::pair.205"* %0, i64 0, i32 1, i32 0, i32 0, i32 0, i32 0, i32 0, i32 1
  store i64 %32, i64* %45, align 8
  br label %52

46:                                               ; preds = %36
  %47 = trunc i64 %32 to i8
  %48 = bitcast %"class.std::__1::basic_string"* %30 to %"struct.std::__1::basic_string<char, std::__1::char_traits<char>, std::__1::allocator<char> >::__short"*
  %49 = getelementptr inbounds %"struct.std::__1::basic_string<char, std::__1::char_traits<char>, std::__1::allocator<char> >::__short", %"struct.std::__1::basic_string<char, std::__1::char_traits<char>, std::__1::allocator<char> >::__short"* %48, i64 0, i32 1, i32 0
  store i8 %47, i8* %49, align 1
  %50 = bitcast %"class.std::__1::basic_string"* %30 to i8*
  %51 = icmp eq i64 %32, 0
  br i1 %51, label %54, label %52

52:                                               ; preds = %46, %38
  %53 = phi i8* [ %41, %38 ], [ %50, %46 ]
  tail call void @llvm.memcpy.p0i8.p0i8.i64(i8* align 1 %53, i8* align 1 %31, i64 %32, i1 false) #15
  br label %54

54:                                               ; preds = %46, %52
  %55 = phi i8* [ %50, %46 ], [ %53, %52 ]
  %56 = getelementptr inbounds i8, i8* %55, i64 %32
  store i8 0, i8* %56, align 1
  ret void
}

; Function Attrs: nounwind ssp uwtable
define linkonce_odr hidden void @_ZNSt3__14pairIKNS_12basic_stringIcNS_11char_traitsIcEENS_9allocatorIcEEEES6_EC2IRA33_KcRA27_SA_Lb0EEEOT_OT0_(%"struct.std::__1::pair.205"*, [33 x i8]* dereferenceable(33), [27 x i8]* dereferenceable(27)) unnamed_addr #2 comdat align 2 {
  %4 = getelementptr inbounds [33 x i8], [33 x i8]* %1, i64 0, i64 0
  %5 = tail call i64 @strlen(i8* %4) #15
  %6 = icmp ugt i64 %5, -17
  br i1 %6, label %7, label %9

7:                                                ; preds = %3
  %8 = bitcast %"struct.std::__1::pair.205"* %0 to %"class.std::__1::__basic_string_common"*
  tail call void @_ZNKSt3__121__basic_string_commonILb1EE20__throw_length_errorEv(%"class.std::__1::__basic_string_common"* %8) #16
  unreachable

9:                                                ; preds = %3
  %10 = icmp ult i64 %5, 23
  br i1 %10, label %19, label %11

11:                                               ; preds = %9
  %12 = add nuw i64 %5, 16
  %13 = and i64 %12, -16
  %14 = tail call i8* @_Znwm(i64 %13) #14
  %15 = getelementptr inbounds %"struct.std::__1::pair.205", %"struct.std::__1::pair.205"* %0, i64 0, i32 0, i32 0, i32 0, i32 0, i32 0, i32 0, i32 0
  store i8* %14, i8** %15, align 8
  %16 = or i64 %13, -9223372036854775808
  %17 = getelementptr inbounds %"struct.std::__1::pair.205", %"struct.std::__1::pair.205"* %0, i64 0, i32 0, i32 0, i32 0, i32 0, i32 0, i32 0, i32 2
  store i64 %16, i64* %17, align 8
  %18 = getelementptr inbounds %"struct.std::__1::pair.205", %"struct.std::__1::pair.205"* %0, i64 0, i32 0, i32 0, i32 0, i32 0, i32 0, i32 0, i32 1
  store i64 %5, i64* %18, align 8
  br label %25

19:                                               ; preds = %9
  %20 = trunc i64 %5 to i8
  %21 = bitcast %"struct.std::__1::pair.205"* %0 to %"struct.std::__1::basic_string<char, std::__1::char_traits<char>, std::__1::allocator<char> >::__short"*
  %22 = getelementptr inbounds %"struct.std::__1::basic_string<char, std::__1::char_traits<char>, std::__1::allocator<char> >::__short", %"struct.std::__1::basic_string<char, std::__1::char_traits<char>, std::__1::allocator<char> >::__short"* %21, i64 0, i32 1, i32 0
  store i8 %20, i8* %22, align 1
  %23 = bitcast %"struct.std::__1::pair.205"* %0 to i8*
  %24 = icmp eq i64 %5, 0
  br i1 %24, label %27, label %25

25:                                               ; preds = %19, %11
  %26 = phi i8* [ %14, %11 ], [ %23, %19 ]
  tail call void @llvm.memcpy.p0i8.p0i8.i64(i8* align 1 %26, i8* align 1 %4, i64 %5, i1 false) #15
  br label %27

27:                                               ; preds = %19, %25
  %28 = phi i8* [ %23, %19 ], [ %26, %25 ]
  %29 = getelementptr inbounds i8, i8* %28, i64 %5
  store i8 0, i8* %29, align 1
  %30 = getelementptr inbounds %"struct.std::__1::pair.205", %"struct.std::__1::pair.205"* %0, i64 0, i32 1
  %31 = getelementptr inbounds [27 x i8], [27 x i8]* %2, i64 0, i64 0
  %32 = tail call i64 @strlen(i8* %31) #15
  %33 = icmp ugt i64 %32, -17
  br i1 %33, label %34, label %36

34:                                               ; preds = %27
  %35 = bitcast %"class.std::__1::basic_string"* %30 to %"class.std::__1::__basic_string_common"*
  tail call void @_ZNKSt3__121__basic_string_commonILb1EE20__throw_length_errorEv(%"class.std::__1::__basic_string_common"* %35) #16
  unreachable

36:                                               ; preds = %27
  %37 = icmp ult i64 %32, 23
  br i1 %37, label %46, label %38

38:                                               ; preds = %36
  %39 = add nuw i64 %32, 16
  %40 = and i64 %39, -16
  %41 = tail call i8* @_Znwm(i64 %40) #14
  %42 = getelementptr inbounds %"class.std::__1::basic_string", %"class.std::__1::basic_string"* %30, i64 0, i32 0, i32 0, i32 0, i32 0, i32 0, i32 0
  store i8* %41, i8** %42, align 8
  %43 = or i64 %40, -9223372036854775808
  %44 = getelementptr inbounds %"struct.std::__1::pair.205", %"struct.std::__1::pair.205"* %0, i64 0, i32 1, i32 0, i32 0, i32 0, i32 0, i32 0, i32 2
  store i64 %43, i64* %44, align 8
  %45 = getelementptr inbounds %"struct.std::__1::pair.205", %"struct.std::__1::pair.205"* %0, i64 0, i32 1, i32 0, i32 0, i32 0, i32 0, i32 0, i32 1
  store i64 %32, i64* %45, align 8
  br label %52

46:                                               ; preds = %36
  %47 = trunc i64 %32 to i8
  %48 = bitcast %"class.std::__1::basic_string"* %30 to %"struct.std::__1::basic_string<char, std::__1::char_traits<char>, std::__1::allocator<char> >::__short"*
  %49 = getelementptr inbounds %"struct.std::__1::basic_string<char, std::__1::char_traits<char>, std::__1::allocator<char> >::__short", %"struct.std::__1::basic_string<char, std::__1::char_traits<char>, std::__1::allocator<char> >::__short"* %48, i64 0, i32 1, i32 0
  store i8 %47, i8* %49, align 1
  %50 = bitcast %"class.std::__1::basic_string"* %30 to i8*
  %51 = icmp eq i64 %32, 0
  br i1 %51, label %54, label %52

52:                                               ; preds = %46, %38
  %53 = phi i8* [ %41, %38 ], [ %50, %46 ]
  tail call void @llvm.memcpy.p0i8.p0i8.i64(i8* align 1 %53, i8* align 1 %31, i64 %32, i1 false) #15
  br label %54

54:                                               ; preds = %46, %52
  %55 = phi i8* [ %50, %46 ], [ %53, %52 ]
  %56 = getelementptr inbounds i8, i8* %55, i64 %32
  store i8 0, i8* %56, align 1
  ret void
}

; Function Attrs: nounwind ssp uwtable
define linkonce_odr hidden void @_ZNSt3__14pairIKNS_12basic_stringIcNS_11char_traitsIcEENS_9allocatorIcEEEES6_EC2IRA30_KcRA26_SA_Lb0EEEOT_OT0_(%"struct.std::__1::pair.205"*, [30 x i8]* dereferenceable(30), [26 x i8]* dereferenceable(26)) unnamed_addr #2 comdat align 2 {
  %4 = getelementptr inbounds [30 x i8], [30 x i8]* %1, i64 0, i64 0
  %5 = tail call i64 @strlen(i8* %4) #15
  %6 = icmp ugt i64 %5, -17
  br i1 %6, label %7, label %9

7:                                                ; preds = %3
  %8 = bitcast %"struct.std::__1::pair.205"* %0 to %"class.std::__1::__basic_string_common"*
  tail call void @_ZNKSt3__121__basic_string_commonILb1EE20__throw_length_errorEv(%"class.std::__1::__basic_string_common"* %8) #16
  unreachable

9:                                                ; preds = %3
  %10 = icmp ult i64 %5, 23
  br i1 %10, label %19, label %11

11:                                               ; preds = %9
  %12 = add nuw i64 %5, 16
  %13 = and i64 %12, -16
  %14 = tail call i8* @_Znwm(i64 %13) #14
  %15 = getelementptr inbounds %"struct.std::__1::pair.205", %"struct.std::__1::pair.205"* %0, i64 0, i32 0, i32 0, i32 0, i32 0, i32 0, i32 0, i32 0
  store i8* %14, i8** %15, align 8
  %16 = or i64 %13, -9223372036854775808
  %17 = getelementptr inbounds %"struct.std::__1::pair.205", %"struct.std::__1::pair.205"* %0, i64 0, i32 0, i32 0, i32 0, i32 0, i32 0, i32 0, i32 2
  store i64 %16, i64* %17, align 8
  %18 = getelementptr inbounds %"struct.std::__1::pair.205", %"struct.std::__1::pair.205"* %0, i64 0, i32 0, i32 0, i32 0, i32 0, i32 0, i32 0, i32 1
  store i64 %5, i64* %18, align 8
  br label %25

19:                                               ; preds = %9
  %20 = trunc i64 %5 to i8
  %21 = bitcast %"struct.std::__1::pair.205"* %0 to %"struct.std::__1::basic_string<char, std::__1::char_traits<char>, std::__1::allocator<char> >::__short"*
  %22 = getelementptr inbounds %"struct.std::__1::basic_string<char, std::__1::char_traits<char>, std::__1::allocator<char> >::__short", %"struct.std::__1::basic_string<char, std::__1::char_traits<char>, std::__1::allocator<char> >::__short"* %21, i64 0, i32 1, i32 0
  store i8 %20, i8* %22, align 1
  %23 = bitcast %"struct.std::__1::pair.205"* %0 to i8*
  %24 = icmp eq i64 %5, 0
  br i1 %24, label %27, label %25

25:                                               ; preds = %19, %11
  %26 = phi i8* [ %14, %11 ], [ %23, %19 ]
  tail call void @llvm.memcpy.p0i8.p0i8.i64(i8* align 1 %26, i8* align 1 %4, i64 %5, i1 false) #15
  br label %27

27:                                               ; preds = %19, %25
  %28 = phi i8* [ %23, %19 ], [ %26, %25 ]
  %29 = getelementptr inbounds i8, i8* %28, i64 %5
  store i8 0, i8* %29, align 1
  %30 = getelementptr inbounds %"struct.std::__1::pair.205", %"struct.std::__1::pair.205"* %0, i64 0, i32 1
  %31 = getelementptr inbounds [26 x i8], [26 x i8]* %2, i64 0, i64 0
  %32 = tail call i64 @strlen(i8* %31) #15
  %33 = icmp ugt i64 %32, -17
  br i1 %33, label %34, label %36

34:                                               ; preds = %27
  %35 = bitcast %"class.std::__1::basic_string"* %30 to %"class.std::__1::__basic_string_common"*
  tail call void @_ZNKSt3__121__basic_string_commonILb1EE20__throw_length_errorEv(%"class.std::__1::__basic_string_common"* %35) #16
  unreachable

36:                                               ; preds = %27
  %37 = icmp ult i64 %32, 23
  br i1 %37, label %46, label %38

38:                                               ; preds = %36
  %39 = add nuw i64 %32, 16
  %40 = and i64 %39, -16
  %41 = tail call i8* @_Znwm(i64 %40) #14
  %42 = getelementptr inbounds %"class.std::__1::basic_string", %"class.std::__1::basic_string"* %30, i64 0, i32 0, i32 0, i32 0, i32 0, i32 0, i32 0
  store i8* %41, i8** %42, align 8
  %43 = or i64 %40, -9223372036854775808
  %44 = getelementptr inbounds %"struct.std::__1::pair.205", %"struct.std::__1::pair.205"* %0, i64 0, i32 1, i32 0, i32 0, i32 0, i32 0, i32 0, i32 2
  store i64 %43, i64* %44, align 8
  %45 = getelementptr inbounds %"struct.std::__1::pair.205", %"struct.std::__1::pair.205"* %0, i64 0, i32 1, i32 0, i32 0, i32 0, i32 0, i32 0, i32 1
  store i64 %32, i64* %45, align 8
  br label %52

46:                                               ; preds = %36
  %47 = trunc i64 %32 to i8
  %48 = bitcast %"class.std::__1::basic_string"* %30 to %"struct.std::__1::basic_string<char, std::__1::char_traits<char>, std::__1::allocator<char> >::__short"*
  %49 = getelementptr inbounds %"struct.std::__1::basic_string<char, std::__1::char_traits<char>, std::__1::allocator<char> >::__short", %"struct.std::__1::basic_string<char, std::__1::char_traits<char>, std::__1::allocator<char> >::__short"* %48, i64 0, i32 1, i32 0
  store i8 %47, i8* %49, align 1
  %50 = bitcast %"class.std::__1::basic_string"* %30 to i8*
  %51 = icmp eq i64 %32, 0
  br i1 %51, label %54, label %52

52:                                               ; preds = %46, %38
  %53 = phi i8* [ %41, %38 ], [ %50, %46 ]
  tail call void @llvm.memcpy.p0i8.p0i8.i64(i8* align 1 %53, i8* align 1 %31, i64 %32, i1 false) #15
  br label %54

54:                                               ; preds = %46, %52
  %55 = phi i8* [ %50, %46 ], [ %53, %52 ]
  %56 = getelementptr inbounds i8, i8* %55, i64 %32
  store i8 0, i8* %56, align 1
  ret void
}

; Function Attrs: nounwind ssp uwtable
define linkonce_odr hidden void @_ZNSt3__14pairIKNS_12basic_stringIcNS_11char_traitsIcEENS_9allocatorIcEEEES6_EC2IRA23_KcRA15_SA_Lb0EEEOT_OT0_(%"struct.std::__1::pair.205"*, [23 x i8]* dereferenceable(23), [15 x i8]* dereferenceable(15)) unnamed_addr #2 comdat align 2 {
  %4 = getelementptr inbounds [23 x i8], [23 x i8]* %1, i64 0, i64 0
  %5 = tail call i64 @strlen(i8* %4) #15
  %6 = icmp ugt i64 %5, -17
  br i1 %6, label %7, label %9

7:                                                ; preds = %3
  %8 = bitcast %"struct.std::__1::pair.205"* %0 to %"class.std::__1::__basic_string_common"*
  tail call void @_ZNKSt3__121__basic_string_commonILb1EE20__throw_length_errorEv(%"class.std::__1::__basic_string_common"* %8) #16
  unreachable

9:                                                ; preds = %3
  %10 = icmp ult i64 %5, 23
  br i1 %10, label %19, label %11

11:                                               ; preds = %9
  %12 = add nuw i64 %5, 16
  %13 = and i64 %12, -16
  %14 = tail call i8* @_Znwm(i64 %13) #14
  %15 = getelementptr inbounds %"struct.std::__1::pair.205", %"struct.std::__1::pair.205"* %0, i64 0, i32 0, i32 0, i32 0, i32 0, i32 0, i32 0, i32 0
  store i8* %14, i8** %15, align 8
  %16 = or i64 %13, -9223372036854775808
  %17 = getelementptr inbounds %"struct.std::__1::pair.205", %"struct.std::__1::pair.205"* %0, i64 0, i32 0, i32 0, i32 0, i32 0, i32 0, i32 0, i32 2
  store i64 %16, i64* %17, align 8
  %18 = getelementptr inbounds %"struct.std::__1::pair.205", %"struct.std::__1::pair.205"* %0, i64 0, i32 0, i32 0, i32 0, i32 0, i32 0, i32 0, i32 1
  store i64 %5, i64* %18, align 8
  br label %25

19:                                               ; preds = %9
  %20 = trunc i64 %5 to i8
  %21 = bitcast %"struct.std::__1::pair.205"* %0 to %"struct.std::__1::basic_string<char, std::__1::char_traits<char>, std::__1::allocator<char> >::__short"*
  %22 = getelementptr inbounds %"struct.std::__1::basic_string<char, std::__1::char_traits<char>, std::__1::allocator<char> >::__short", %"struct.std::__1::basic_string<char, std::__1::char_traits<char>, std::__1::allocator<char> >::__short"* %21, i64 0, i32 1, i32 0
  store i8 %20, i8* %22, align 1
  %23 = bitcast %"struct.std::__1::pair.205"* %0 to i8*
  %24 = icmp eq i64 %5, 0
  br i1 %24, label %27, label %25

25:                                               ; preds = %19, %11
  %26 = phi i8* [ %14, %11 ], [ %23, %19 ]
  tail call void @llvm.memcpy.p0i8.p0i8.i64(i8* align 1 %26, i8* align 1 %4, i64 %5, i1 false) #15
  br label %27

27:                                               ; preds = %19, %25
  %28 = phi i8* [ %23, %19 ], [ %26, %25 ]
  %29 = getelementptr inbounds i8, i8* %28, i64 %5
  store i8 0, i8* %29, align 1
  %30 = getelementptr inbounds %"struct.std::__1::pair.205", %"struct.std::__1::pair.205"* %0, i64 0, i32 1
  %31 = getelementptr inbounds [15 x i8], [15 x i8]* %2, i64 0, i64 0
  %32 = tail call i64 @strlen(i8* %31) #15
  %33 = icmp ugt i64 %32, -17
  br i1 %33, label %34, label %36

34:                                               ; preds = %27
  %35 = bitcast %"class.std::__1::basic_string"* %30 to %"class.std::__1::__basic_string_common"*
  tail call void @_ZNKSt3__121__basic_string_commonILb1EE20__throw_length_errorEv(%"class.std::__1::__basic_string_common"* %35) #16
  unreachable

36:                                               ; preds = %27
  %37 = icmp ult i64 %32, 23
  br i1 %37, label %46, label %38

38:                                               ; preds = %36
  %39 = add nuw i64 %32, 16
  %40 = and i64 %39, -16
  %41 = tail call i8* @_Znwm(i64 %40) #14
  %42 = getelementptr inbounds %"class.std::__1::basic_string", %"class.std::__1::basic_string"* %30, i64 0, i32 0, i32 0, i32 0, i32 0, i32 0, i32 0
  store i8* %41, i8** %42, align 8
  %43 = or i64 %40, -9223372036854775808
  %44 = getelementptr inbounds %"struct.std::__1::pair.205", %"struct.std::__1::pair.205"* %0, i64 0, i32 1, i32 0, i32 0, i32 0, i32 0, i32 0, i32 2
  store i64 %43, i64* %44, align 8
  %45 = getelementptr inbounds %"struct.std::__1::pair.205", %"struct.std::__1::pair.205"* %0, i64 0, i32 1, i32 0, i32 0, i32 0, i32 0, i32 0, i32 1
  store i64 %32, i64* %45, align 8
  br label %52

46:                                               ; preds = %36
  %47 = trunc i64 %32 to i8
  %48 = bitcast %"class.std::__1::basic_string"* %30 to %"struct.std::__1::basic_string<char, std::__1::char_traits<char>, std::__1::allocator<char> >::__short"*
  %49 = getelementptr inbounds %"struct.std::__1::basic_string<char, std::__1::char_traits<char>, std::__1::allocator<char> >::__short", %"struct.std::__1::basic_string<char, std::__1::char_traits<char>, std::__1::allocator<char> >::__short"* %48, i64 0, i32 1, i32 0
  store i8 %47, i8* %49, align 1
  %50 = bitcast %"class.std::__1::basic_string"* %30 to i8*
  %51 = icmp eq i64 %32, 0
  br i1 %51, label %54, label %52

52:                                               ; preds = %46, %38
  %53 = phi i8* [ %41, %38 ], [ %50, %46 ]
  tail call void @llvm.memcpy.p0i8.p0i8.i64(i8* align 1 %53, i8* align 1 %31, i64 %32, i1 false) #15
  br label %54

54:                                               ; preds = %46, %52
  %55 = phi i8* [ %50, %46 ], [ %53, %52 ]
  %56 = getelementptr inbounds i8, i8* %55, i64 %32
  store i8 0, i8* %56, align 1
  ret void
}

; Function Attrs: nounwind ssp uwtable
define linkonce_odr hidden void @_ZNSt3__14pairIKNS_12basic_stringIcNS_11char_traitsIcEENS_9allocatorIcEEEES6_EC2IRA26_KcRA27_SA_Lb0EEEOT_OT0_(%"struct.std::__1::pair.205"*, [26 x i8]* dereferenceable(26), [27 x i8]* dereferenceable(27)) unnamed_addr #2 comdat align 2 {
  %4 = getelementptr inbounds [26 x i8], [26 x i8]* %1, i64 0, i64 0
  %5 = tail call i64 @strlen(i8* %4) #15
  %6 = icmp ugt i64 %5, -17
  br i1 %6, label %7, label %9

7:                                                ; preds = %3
  %8 = bitcast %"struct.std::__1::pair.205"* %0 to %"class.std::__1::__basic_string_common"*
  tail call void @_ZNKSt3__121__basic_string_commonILb1EE20__throw_length_errorEv(%"class.std::__1::__basic_string_common"* %8) #16
  unreachable

9:                                                ; preds = %3
  %10 = icmp ult i64 %5, 23
  br i1 %10, label %19, label %11

11:                                               ; preds = %9
  %12 = add nuw i64 %5, 16
  %13 = and i64 %12, -16
  %14 = tail call i8* @_Znwm(i64 %13) #14
  %15 = getelementptr inbounds %"struct.std::__1::pair.205", %"struct.std::__1::pair.205"* %0, i64 0, i32 0, i32 0, i32 0, i32 0, i32 0, i32 0, i32 0
  store i8* %14, i8** %15, align 8
  %16 = or i64 %13, -9223372036854775808
  %17 = getelementptr inbounds %"struct.std::__1::pair.205", %"struct.std::__1::pair.205"* %0, i64 0, i32 0, i32 0, i32 0, i32 0, i32 0, i32 0, i32 2
  store i64 %16, i64* %17, align 8
  %18 = getelementptr inbounds %"struct.std::__1::pair.205", %"struct.std::__1::pair.205"* %0, i64 0, i32 0, i32 0, i32 0, i32 0, i32 0, i32 0, i32 1
  store i64 %5, i64* %18, align 8
  br label %25

19:                                               ; preds = %9
  %20 = trunc i64 %5 to i8
  %21 = bitcast %"struct.std::__1::pair.205"* %0 to %"struct.std::__1::basic_string<char, std::__1::char_traits<char>, std::__1::allocator<char> >::__short"*
  %22 = getelementptr inbounds %"struct.std::__1::basic_string<char, std::__1::char_traits<char>, std::__1::allocator<char> >::__short", %"struct.std::__1::basic_string<char, std::__1::char_traits<char>, std::__1::allocator<char> >::__short"* %21, i64 0, i32 1, i32 0
  store i8 %20, i8* %22, align 1
  %23 = bitcast %"struct.std::__1::pair.205"* %0 to i8*
  %24 = icmp eq i64 %5, 0
  br i1 %24, label %27, label %25

25:                                               ; preds = %19, %11
  %26 = phi i8* [ %14, %11 ], [ %23, %19 ]
  tail call void @llvm.memcpy.p0i8.p0i8.i64(i8* align 1 %26, i8* align 1 %4, i64 %5, i1 false) #15
  br label %27

27:                                               ; preds = %19, %25
  %28 = phi i8* [ %23, %19 ], [ %26, %25 ]
  %29 = getelementptr inbounds i8, i8* %28, i64 %5
  store i8 0, i8* %29, align 1
  %30 = getelementptr inbounds %"struct.std::__1::pair.205", %"struct.std::__1::pair.205"* %0, i64 0, i32 1
  %31 = getelementptr inbounds [27 x i8], [27 x i8]* %2, i64 0, i64 0
  %32 = tail call i64 @strlen(i8* %31) #15
  %33 = icmp ugt i64 %32, -17
  br i1 %33, label %34, label %36

34:                                               ; preds = %27
  %35 = bitcast %"class.std::__1::basic_string"* %30 to %"class.std::__1::__basic_string_common"*
  tail call void @_ZNKSt3__121__basic_string_commonILb1EE20__throw_length_errorEv(%"class.std::__1::__basic_string_common"* %35) #16
  unreachable

36:                                               ; preds = %27
  %37 = icmp ult i64 %32, 23
  br i1 %37, label %46, label %38

38:                                               ; preds = %36
  %39 = add nuw i64 %32, 16
  %40 = and i64 %39, -16
  %41 = tail call i8* @_Znwm(i64 %40) #14
  %42 = getelementptr inbounds %"class.std::__1::basic_string", %"class.std::__1::basic_string"* %30, i64 0, i32 0, i32 0, i32 0, i32 0, i32 0, i32 0
  store i8* %41, i8** %42, align 8
  %43 = or i64 %40, -9223372036854775808
  %44 = getelementptr inbounds %"struct.std::__1::pair.205", %"struct.std::__1::pair.205"* %0, i64 0, i32 1, i32 0, i32 0, i32 0, i32 0, i32 0, i32 2
  store i64 %43, i64* %44, align 8
  %45 = getelementptr inbounds %"struct.std::__1::pair.205", %"struct.std::__1::pair.205"* %0, i64 0, i32 1, i32 0, i32 0, i32 0, i32 0, i32 0, i32 1
  store i64 %32, i64* %45, align 8
  br label %52

46:                                               ; preds = %36
  %47 = trunc i64 %32 to i8
  %48 = bitcast %"class.std::__1::basic_string"* %30 to %"struct.std::__1::basic_string<char, std::__1::char_traits<char>, std::__1::allocator<char> >::__short"*
  %49 = getelementptr inbounds %"struct.std::__1::basic_string<char, std::__1::char_traits<char>, std::__1::allocator<char> >::__short", %"struct.std::__1::basic_string<char, std::__1::char_traits<char>, std::__1::allocator<char> >::__short"* %48, i64 0, i32 1, i32 0
  store i8 %47, i8* %49, align 1
  %50 = bitcast %"class.std::__1::basic_string"* %30 to i8*
  %51 = icmp eq i64 %32, 0
  br i1 %51, label %54, label %52

52:                                               ; preds = %46, %38
  %53 = phi i8* [ %41, %38 ], [ %50, %46 ]
  tail call void @llvm.memcpy.p0i8.p0i8.i64(i8* align 1 %53, i8* align 1 %31, i64 %32, i1 false) #15
  br label %54

54:                                               ; preds = %46, %52
  %55 = phi i8* [ %50, %46 ], [ %53, %52 ]
  %56 = getelementptr inbounds i8, i8* %55, i64 %32
  store i8 0, i8* %56, align 1
  ret void
}

; Function Attrs: nounwind ssp uwtable
define linkonce_odr hidden void @_ZNSt3__14pairIKNS_12basic_stringIcNS_11char_traitsIcEENS_9allocatorIcEEEES6_EC2IRA29_KcRA18_SA_Lb0EEEOT_OT0_(%"struct.std::__1::pair.205"*, [29 x i8]* dereferenceable(29), [18 x i8]* dereferenceable(18)) unnamed_addr #2 comdat align 2 {
  %4 = getelementptr inbounds [29 x i8], [29 x i8]* %1, i64 0, i64 0
  %5 = tail call i64 @strlen(i8* %4) #15
  %6 = icmp ugt i64 %5, -17
  br i1 %6, label %7, label %9

7:                                                ; preds = %3
  %8 = bitcast %"struct.std::__1::pair.205"* %0 to %"class.std::__1::__basic_string_common"*
  tail call void @_ZNKSt3__121__basic_string_commonILb1EE20__throw_length_errorEv(%"class.std::__1::__basic_string_common"* %8) #16
  unreachable

9:                                                ; preds = %3
  %10 = icmp ult i64 %5, 23
  br i1 %10, label %19, label %11

11:                                               ; preds = %9
  %12 = add nuw i64 %5, 16
  %13 = and i64 %12, -16
  %14 = tail call i8* @_Znwm(i64 %13) #14
  %15 = getelementptr inbounds %"struct.std::__1::pair.205", %"struct.std::__1::pair.205"* %0, i64 0, i32 0, i32 0, i32 0, i32 0, i32 0, i32 0, i32 0
  store i8* %14, i8** %15, align 8
  %16 = or i64 %13, -9223372036854775808
  %17 = getelementptr inbounds %"struct.std::__1::pair.205", %"struct.std::__1::pair.205"* %0, i64 0, i32 0, i32 0, i32 0, i32 0, i32 0, i32 0, i32 2
  store i64 %16, i64* %17, align 8
  %18 = getelementptr inbounds %"struct.std::__1::pair.205", %"struct.std::__1::pair.205"* %0, i64 0, i32 0, i32 0, i32 0, i32 0, i32 0, i32 0, i32 1
  store i64 %5, i64* %18, align 8
  br label %25

19:                                               ; preds = %9
  %20 = trunc i64 %5 to i8
  %21 = bitcast %"struct.std::__1::pair.205"* %0 to %"struct.std::__1::basic_string<char, std::__1::char_traits<char>, std::__1::allocator<char> >::__short"*
  %22 = getelementptr inbounds %"struct.std::__1::basic_string<char, std::__1::char_traits<char>, std::__1::allocator<char> >::__short", %"struct.std::__1::basic_string<char, std::__1::char_traits<char>, std::__1::allocator<char> >::__short"* %21, i64 0, i32 1, i32 0
  store i8 %20, i8* %22, align 1
  %23 = bitcast %"struct.std::__1::pair.205"* %0 to i8*
  %24 = icmp eq i64 %5, 0
  br i1 %24, label %27, label %25

25:                                               ; preds = %19, %11
  %26 = phi i8* [ %14, %11 ], [ %23, %19 ]
  tail call void @llvm.memcpy.p0i8.p0i8.i64(i8* align 1 %26, i8* align 1 %4, i64 %5, i1 false) #15
  br label %27

27:                                               ; preds = %19, %25
  %28 = phi i8* [ %23, %19 ], [ %26, %25 ]
  %29 = getelementptr inbounds i8, i8* %28, i64 %5
  store i8 0, i8* %29, align 1
  %30 = getelementptr inbounds %"struct.std::__1::pair.205", %"struct.std::__1::pair.205"* %0, i64 0, i32 1
  %31 = getelementptr inbounds [18 x i8], [18 x i8]* %2, i64 0, i64 0
  %32 = tail call i64 @strlen(i8* %31) #15
  %33 = icmp ugt i64 %32, -17
  br i1 %33, label %34, label %36

34:                                               ; preds = %27
  %35 = bitcast %"class.std::__1::basic_string"* %30 to %"class.std::__1::__basic_string_common"*
  tail call void @_ZNKSt3__121__basic_string_commonILb1EE20__throw_length_errorEv(%"class.std::__1::__basic_string_common"* %35) #16
  unreachable

36:                                               ; preds = %27
  %37 = icmp ult i64 %32, 23
  br i1 %37, label %46, label %38

38:                                               ; preds = %36
  %39 = add nuw i64 %32, 16
  %40 = and i64 %39, -16
  %41 = tail call i8* @_Znwm(i64 %40) #14
  %42 = getelementptr inbounds %"class.std::__1::basic_string", %"class.std::__1::basic_string"* %30, i64 0, i32 0, i32 0, i32 0, i32 0, i32 0, i32 0
  store i8* %41, i8** %42, align 8
  %43 = or i64 %40, -9223372036854775808
  %44 = getelementptr inbounds %"struct.std::__1::pair.205", %"struct.std::__1::pair.205"* %0, i64 0, i32 1, i32 0, i32 0, i32 0, i32 0, i32 0, i32 2
  store i64 %43, i64* %44, align 8
  %45 = getelementptr inbounds %"struct.std::__1::pair.205", %"struct.std::__1::pair.205"* %0, i64 0, i32 1, i32 0, i32 0, i32 0, i32 0, i32 0, i32 1
  store i64 %32, i64* %45, align 8
  br label %52

46:                                               ; preds = %36
  %47 = trunc i64 %32 to i8
  %48 = bitcast %"class.std::__1::basic_string"* %30 to %"struct.std::__1::basic_string<char, std::__1::char_traits<char>, std::__1::allocator<char> >::__short"*
  %49 = getelementptr inbounds %"struct.std::__1::basic_string<char, std::__1::char_traits<char>, std::__1::allocator<char> >::__short", %"struct.std::__1::basic_string<char, std::__1::char_traits<char>, std::__1::allocator<char> >::__short"* %48, i64 0, i32 1, i32 0
  store i8 %47, i8* %49, align 1
  %50 = bitcast %"class.std::__1::basic_string"* %30 to i8*
  %51 = icmp eq i64 %32, 0
  br i1 %51, label %54, label %52

52:                                               ; preds = %46, %38
  %53 = phi i8* [ %41, %38 ], [ %50, %46 ]
  tail call void @llvm.memcpy.p0i8.p0i8.i64(i8* align 1 %53, i8* align 1 %31, i64 %32, i1 false) #15
  br label %54

54:                                               ; preds = %46, %52
  %55 = phi i8* [ %50, %46 ], [ %53, %52 ]
  %56 = getelementptr inbounds i8, i8* %55, i64 %32
  store i8 0, i8* %56, align 1
  ret void
}

; Function Attrs: nounwind ssp uwtable
define linkonce_odr hidden void @_ZNSt3__14pairIKNS_12basic_stringIcNS_11char_traitsIcEENS_9allocatorIcEEEES6_EC2IRA21_KcRA18_SA_Lb0EEEOT_OT0_(%"struct.std::__1::pair.205"*, [21 x i8]* dereferenceable(21), [18 x i8]* dereferenceable(18)) unnamed_addr #2 comdat align 2 {
  %4 = getelementptr inbounds [21 x i8], [21 x i8]* %1, i64 0, i64 0
  %5 = tail call i64 @strlen(i8* %4) #15
  %6 = icmp ugt i64 %5, -17
  br i1 %6, label %7, label %9

7:                                                ; preds = %3
  %8 = bitcast %"struct.std::__1::pair.205"* %0 to %"class.std::__1::__basic_string_common"*
  tail call void @_ZNKSt3__121__basic_string_commonILb1EE20__throw_length_errorEv(%"class.std::__1::__basic_string_common"* %8) #16
  unreachable

9:                                                ; preds = %3
  %10 = icmp ult i64 %5, 23
  br i1 %10, label %19, label %11

11:                                               ; preds = %9
  %12 = add nuw i64 %5, 16
  %13 = and i64 %12, -16
  %14 = tail call i8* @_Znwm(i64 %13) #14
  %15 = getelementptr inbounds %"struct.std::__1::pair.205", %"struct.std::__1::pair.205"* %0, i64 0, i32 0, i32 0, i32 0, i32 0, i32 0, i32 0, i32 0
  store i8* %14, i8** %15, align 8
  %16 = or i64 %13, -9223372036854775808
  %17 = getelementptr inbounds %"struct.std::__1::pair.205", %"struct.std::__1::pair.205"* %0, i64 0, i32 0, i32 0, i32 0, i32 0, i32 0, i32 0, i32 2
  store i64 %16, i64* %17, align 8
  %18 = getelementptr inbounds %"struct.std::__1::pair.205", %"struct.std::__1::pair.205"* %0, i64 0, i32 0, i32 0, i32 0, i32 0, i32 0, i32 0, i32 1
  store i64 %5, i64* %18, align 8
  br label %25

19:                                               ; preds = %9
  %20 = trunc i64 %5 to i8
  %21 = bitcast %"struct.std::__1::pair.205"* %0 to %"struct.std::__1::basic_string<char, std::__1::char_traits<char>, std::__1::allocator<char> >::__short"*
  %22 = getelementptr inbounds %"struct.std::__1::basic_string<char, std::__1::char_traits<char>, std::__1::allocator<char> >::__short", %"struct.std::__1::basic_string<char, std::__1::char_traits<char>, std::__1::allocator<char> >::__short"* %21, i64 0, i32 1, i32 0
  store i8 %20, i8* %22, align 1
  %23 = bitcast %"struct.std::__1::pair.205"* %0 to i8*
  %24 = icmp eq i64 %5, 0
  br i1 %24, label %27, label %25

25:                                               ; preds = %19, %11
  %26 = phi i8* [ %14, %11 ], [ %23, %19 ]
  tail call void @llvm.memcpy.p0i8.p0i8.i64(i8* align 1 %26, i8* align 1 %4, i64 %5, i1 false) #15
  br label %27

27:                                               ; preds = %19, %25
  %28 = phi i8* [ %23, %19 ], [ %26, %25 ]
  %29 = getelementptr inbounds i8, i8* %28, i64 %5
  store i8 0, i8* %29, align 1
  %30 = getelementptr inbounds %"struct.std::__1::pair.205", %"struct.std::__1::pair.205"* %0, i64 0, i32 1
  %31 = getelementptr inbounds [18 x i8], [18 x i8]* %2, i64 0, i64 0
  %32 = tail call i64 @strlen(i8* %31) #15
  %33 = icmp ugt i64 %32, -17
  br i1 %33, label %34, label %36

34:                                               ; preds = %27
  %35 = bitcast %"class.std::__1::basic_string"* %30 to %"class.std::__1::__basic_string_common"*
  tail call void @_ZNKSt3__121__basic_string_commonILb1EE20__throw_length_errorEv(%"class.std::__1::__basic_string_common"* %35) #16
  unreachable

36:                                               ; preds = %27
  %37 = icmp ult i64 %32, 23
  br i1 %37, label %46, label %38

38:                                               ; preds = %36
  %39 = add nuw i64 %32, 16
  %40 = and i64 %39, -16
  %41 = tail call i8* @_Znwm(i64 %40) #14
  %42 = getelementptr inbounds %"class.std::__1::basic_string", %"class.std::__1::basic_string"* %30, i64 0, i32 0, i32 0, i32 0, i32 0, i32 0, i32 0
  store i8* %41, i8** %42, align 8
  %43 = or i64 %40, -9223372036854775808
  %44 = getelementptr inbounds %"struct.std::__1::pair.205", %"struct.std::__1::pair.205"* %0, i64 0, i32 1, i32 0, i32 0, i32 0, i32 0, i32 0, i32 2
  store i64 %43, i64* %44, align 8
  %45 = getelementptr inbounds %"struct.std::__1::pair.205", %"struct.std::__1::pair.205"* %0, i64 0, i32 1, i32 0, i32 0, i32 0, i32 0, i32 0, i32 1
  store i64 %32, i64* %45, align 8
  br label %52

46:                                               ; preds = %36
  %47 = trunc i64 %32 to i8
  %48 = bitcast %"class.std::__1::basic_string"* %30 to %"struct.std::__1::basic_string<char, std::__1::char_traits<char>, std::__1::allocator<char> >::__short"*
  %49 = getelementptr inbounds %"struct.std::__1::basic_string<char, std::__1::char_traits<char>, std::__1::allocator<char> >::__short", %"struct.std::__1::basic_string<char, std::__1::char_traits<char>, std::__1::allocator<char> >::__short"* %48, i64 0, i32 1, i32 0
  store i8 %47, i8* %49, align 1
  %50 = bitcast %"class.std::__1::basic_string"* %30 to i8*
  %51 = icmp eq i64 %32, 0
  br i1 %51, label %54, label %52

52:                                               ; preds = %46, %38
  %53 = phi i8* [ %41, %38 ], [ %50, %46 ]
  tail call void @llvm.memcpy.p0i8.p0i8.i64(i8* align 1 %53, i8* align 1 %31, i64 %32, i1 false) #15
  br label %54

54:                                               ; preds = %46, %52
  %55 = phi i8* [ %50, %46 ], [ %53, %52 ]
  %56 = getelementptr inbounds i8, i8* %55, i64 %32
  store i8 0, i8* %56, align 1
  ret void
}

; Function Attrs: nounwind ssp uwtable
define linkonce_odr hidden void @_ZNSt3__14pairIKNS_12basic_stringIcNS_11char_traitsIcEENS_9allocatorIcEEEES6_EC2IRA32_KcRA29_SA_Lb0EEEOT_OT0_(%"struct.std::__1::pair.205"*, [32 x i8]* dereferenceable(32), [29 x i8]* dereferenceable(29)) unnamed_addr #2 comdat align 2 {
  %4 = getelementptr inbounds [32 x i8], [32 x i8]* %1, i64 0, i64 0
  %5 = tail call i64 @strlen(i8* %4) #15
  %6 = icmp ugt i64 %5, -17
  br i1 %6, label %7, label %9

7:                                                ; preds = %3
  %8 = bitcast %"struct.std::__1::pair.205"* %0 to %"class.std::__1::__basic_string_common"*
  tail call void @_ZNKSt3__121__basic_string_commonILb1EE20__throw_length_errorEv(%"class.std::__1::__basic_string_common"* %8) #16
  unreachable

9:                                                ; preds = %3
  %10 = icmp ult i64 %5, 23
  br i1 %10, label %19, label %11

11:                                               ; preds = %9
  %12 = add nuw i64 %5, 16
  %13 = and i64 %12, -16
  %14 = tail call i8* @_Znwm(i64 %13) #14
  %15 = getelementptr inbounds %"struct.std::__1::pair.205", %"struct.std::__1::pair.205"* %0, i64 0, i32 0, i32 0, i32 0, i32 0, i32 0, i32 0, i32 0
  store i8* %14, i8** %15, align 8
  %16 = or i64 %13, -9223372036854775808
  %17 = getelementptr inbounds %"struct.std::__1::pair.205", %"struct.std::__1::pair.205"* %0, i64 0, i32 0, i32 0, i32 0, i32 0, i32 0, i32 0, i32 2
  store i64 %16, i64* %17, align 8
  %18 = getelementptr inbounds %"struct.std::__1::pair.205", %"struct.std::__1::pair.205"* %0, i64 0, i32 0, i32 0, i32 0, i32 0, i32 0, i32 0, i32 1
  store i64 %5, i64* %18, align 8
  br label %25

19:                                               ; preds = %9
  %20 = trunc i64 %5 to i8
  %21 = bitcast %"struct.std::__1::pair.205"* %0 to %"struct.std::__1::basic_string<char, std::__1::char_traits<char>, std::__1::allocator<char> >::__short"*
  %22 = getelementptr inbounds %"struct.std::__1::basic_string<char, std::__1::char_traits<char>, std::__1::allocator<char> >::__short", %"struct.std::__1::basic_string<char, std::__1::char_traits<char>, std::__1::allocator<char> >::__short"* %21, i64 0, i32 1, i32 0
  store i8 %20, i8* %22, align 1
  %23 = bitcast %"struct.std::__1::pair.205"* %0 to i8*
  %24 = icmp eq i64 %5, 0
  br i1 %24, label %27, label %25

25:                                               ; preds = %19, %11
  %26 = phi i8* [ %14, %11 ], [ %23, %19 ]
  tail call void @llvm.memcpy.p0i8.p0i8.i64(i8* align 1 %26, i8* align 1 %4, i64 %5, i1 false) #15
  br label %27

27:                                               ; preds = %19, %25
  %28 = phi i8* [ %23, %19 ], [ %26, %25 ]
  %29 = getelementptr inbounds i8, i8* %28, i64 %5
  store i8 0, i8* %29, align 1
  %30 = getelementptr inbounds %"struct.std::__1::pair.205", %"struct.std::__1::pair.205"* %0, i64 0, i32 1
  %31 = getelementptr inbounds [29 x i8], [29 x i8]* %2, i64 0, i64 0
  %32 = tail call i64 @strlen(i8* %31) #15
  %33 = icmp ugt i64 %32, -17
  br i1 %33, label %34, label %36

34:                                               ; preds = %27
  %35 = bitcast %"class.std::__1::basic_string"* %30 to %"class.std::__1::__basic_string_common"*
  tail call void @_ZNKSt3__121__basic_string_commonILb1EE20__throw_length_errorEv(%"class.std::__1::__basic_string_common"* %35) #16
  unreachable

36:                                               ; preds = %27
  %37 = icmp ult i64 %32, 23
  br i1 %37, label %46, label %38

38:                                               ; preds = %36
  %39 = add nuw i64 %32, 16
  %40 = and i64 %39, -16
  %41 = tail call i8* @_Znwm(i64 %40) #14
  %42 = getelementptr inbounds %"class.std::__1::basic_string", %"class.std::__1::basic_string"* %30, i64 0, i32 0, i32 0, i32 0, i32 0, i32 0, i32 0
  store i8* %41, i8** %42, align 8
  %43 = or i64 %40, -9223372036854775808
  %44 = getelementptr inbounds %"struct.std::__1::pair.205", %"struct.std::__1::pair.205"* %0, i64 0, i32 1, i32 0, i32 0, i32 0, i32 0, i32 0, i32 2
  store i64 %43, i64* %44, align 8
  %45 = getelementptr inbounds %"struct.std::__1::pair.205", %"struct.std::__1::pair.205"* %0, i64 0, i32 1, i32 0, i32 0, i32 0, i32 0, i32 0, i32 1
  store i64 %32, i64* %45, align 8
  br label %52

46:                                               ; preds = %36
  %47 = trunc i64 %32 to i8
  %48 = bitcast %"class.std::__1::basic_string"* %30 to %"struct.std::__1::basic_string<char, std::__1::char_traits<char>, std::__1::allocator<char> >::__short"*
  %49 = getelementptr inbounds %"struct.std::__1::basic_string<char, std::__1::char_traits<char>, std::__1::allocator<char> >::__short", %"struct.std::__1::basic_string<char, std::__1::char_traits<char>, std::__1::allocator<char> >::__short"* %48, i64 0, i32 1, i32 0
  store i8 %47, i8* %49, align 1
  %50 = bitcast %"class.std::__1::basic_string"* %30 to i8*
  %51 = icmp eq i64 %32, 0
  br i1 %51, label %54, label %52

52:                                               ; preds = %46, %38
  %53 = phi i8* [ %41, %38 ], [ %50, %46 ]
  tail call void @llvm.memcpy.p0i8.p0i8.i64(i8* align 1 %53, i8* align 1 %31, i64 %32, i1 false) #15
  br label %54

54:                                               ; preds = %46, %52
  %55 = phi i8* [ %50, %46 ], [ %53, %52 ]
  %56 = getelementptr inbounds i8, i8* %55, i64 %32
  store i8 0, i8* %56, align 1
  ret void
}

; Function Attrs: nounwind ssp uwtable
define linkonce_odr hidden void @_ZNSt3__14pairIKNS_12basic_stringIcNS_11char_traitsIcEENS_9allocatorIcEEEES6_EC2IRA24_KcRA26_SA_Lb0EEEOT_OT0_(%"struct.std::__1::pair.205"*, [24 x i8]* dereferenceable(24), [26 x i8]* dereferenceable(26)) unnamed_addr #2 comdat align 2 {
  %4 = getelementptr inbounds [24 x i8], [24 x i8]* %1, i64 0, i64 0
  %5 = tail call i64 @strlen(i8* %4) #15
  %6 = icmp ugt i64 %5, -17
  br i1 %6, label %7, label %9

7:                                                ; preds = %3
  %8 = bitcast %"struct.std::__1::pair.205"* %0 to %"class.std::__1::__basic_string_common"*
  tail call void @_ZNKSt3__121__basic_string_commonILb1EE20__throw_length_errorEv(%"class.std::__1::__basic_string_common"* %8) #16
  unreachable

9:                                                ; preds = %3
  %10 = icmp ult i64 %5, 23
  br i1 %10, label %19, label %11

11:                                               ; preds = %9
  %12 = add nuw i64 %5, 16
  %13 = and i64 %12, -16
  %14 = tail call i8* @_Znwm(i64 %13) #14
  %15 = getelementptr inbounds %"struct.std::__1::pair.205", %"struct.std::__1::pair.205"* %0, i64 0, i32 0, i32 0, i32 0, i32 0, i32 0, i32 0, i32 0
  store i8* %14, i8** %15, align 8
  %16 = or i64 %13, -9223372036854775808
  %17 = getelementptr inbounds %"struct.std::__1::pair.205", %"struct.std::__1::pair.205"* %0, i64 0, i32 0, i32 0, i32 0, i32 0, i32 0, i32 0, i32 2
  store i64 %16, i64* %17, align 8
  %18 = getelementptr inbounds %"struct.std::__1::pair.205", %"struct.std::__1::pair.205"* %0, i64 0, i32 0, i32 0, i32 0, i32 0, i32 0, i32 0, i32 1
  store i64 %5, i64* %18, align 8
  br label %25

19:                                               ; preds = %9
  %20 = trunc i64 %5 to i8
  %21 = bitcast %"struct.std::__1::pair.205"* %0 to %"struct.std::__1::basic_string<char, std::__1::char_traits<char>, std::__1::allocator<char> >::__short"*
  %22 = getelementptr inbounds %"struct.std::__1::basic_string<char, std::__1::char_traits<char>, std::__1::allocator<char> >::__short", %"struct.std::__1::basic_string<char, std::__1::char_traits<char>, std::__1::allocator<char> >::__short"* %21, i64 0, i32 1, i32 0
  store i8 %20, i8* %22, align 1
  %23 = bitcast %"struct.std::__1::pair.205"* %0 to i8*
  %24 = icmp eq i64 %5, 0
  br i1 %24, label %27, label %25

25:                                               ; preds = %19, %11
  %26 = phi i8* [ %14, %11 ], [ %23, %19 ]
  tail call void @llvm.memcpy.p0i8.p0i8.i64(i8* align 1 %26, i8* align 1 %4, i64 %5, i1 false) #15
  br label %27

27:                                               ; preds = %19, %25
  %28 = phi i8* [ %23, %19 ], [ %26, %25 ]
  %29 = getelementptr inbounds i8, i8* %28, i64 %5
  store i8 0, i8* %29, align 1
  %30 = getelementptr inbounds %"struct.std::__1::pair.205", %"struct.std::__1::pair.205"* %0, i64 0, i32 1
  %31 = getelementptr inbounds [26 x i8], [26 x i8]* %2, i64 0, i64 0
  %32 = tail call i64 @strlen(i8* %31) #15
  %33 = icmp ugt i64 %32, -17
  br i1 %33, label %34, label %36

34:                                               ; preds = %27
  %35 = bitcast %"class.std::__1::basic_string"* %30 to %"class.std::__1::__basic_string_common"*
  tail call void @_ZNKSt3__121__basic_string_commonILb1EE20__throw_length_errorEv(%"class.std::__1::__basic_string_common"* %35) #16
  unreachable

36:                                               ; preds = %27
  %37 = icmp ult i64 %32, 23
  br i1 %37, label %46, label %38

38:                                               ; preds = %36
  %39 = add nuw i64 %32, 16
  %40 = and i64 %39, -16
  %41 = tail call i8* @_Znwm(i64 %40) #14
  %42 = getelementptr inbounds %"class.std::__1::basic_string", %"class.std::__1::basic_string"* %30, i64 0, i32 0, i32 0, i32 0, i32 0, i32 0, i32 0
  store i8* %41, i8** %42, align 8
  %43 = or i64 %40, -9223372036854775808
  %44 = getelementptr inbounds %"struct.std::__1::pair.205", %"struct.std::__1::pair.205"* %0, i64 0, i32 1, i32 0, i32 0, i32 0, i32 0, i32 0, i32 2
  store i64 %43, i64* %44, align 8
  %45 = getelementptr inbounds %"struct.std::__1::pair.205", %"struct.std::__1::pair.205"* %0, i64 0, i32 1, i32 0, i32 0, i32 0, i32 0, i32 0, i32 1
  store i64 %32, i64* %45, align 8
  br label %52

46:                                               ; preds = %36
  %47 = trunc i64 %32 to i8
  %48 = bitcast %"class.std::__1::basic_string"* %30 to %"struct.std::__1::basic_string<char, std::__1::char_traits<char>, std::__1::allocator<char> >::__short"*
  %49 = getelementptr inbounds %"struct.std::__1::basic_string<char, std::__1::char_traits<char>, std::__1::allocator<char> >::__short", %"struct.std::__1::basic_string<char, std::__1::char_traits<char>, std::__1::allocator<char> >::__short"* %48, i64 0, i32 1, i32 0
  store i8 %47, i8* %49, align 1
  %50 = bitcast %"class.std::__1::basic_string"* %30 to i8*
  %51 = icmp eq i64 %32, 0
  br i1 %51, label %54, label %52

52:                                               ; preds = %46, %38
  %53 = phi i8* [ %41, %38 ], [ %50, %46 ]
  tail call void @llvm.memcpy.p0i8.p0i8.i64(i8* align 1 %53, i8* align 1 %31, i64 %32, i1 false) #15
  br label %54

54:                                               ; preds = %46, %52
  %55 = phi i8* [ %50, %46 ], [ %53, %52 ]
  %56 = getelementptr inbounds i8, i8* %55, i64 %32
  store i8 0, i8* %56, align 1
  ret void
}

; Function Attrs: nounwind ssp uwtable
define linkonce_odr hidden void @_ZNSt3__14pairIKNS_12basic_stringIcNS_11char_traitsIcEENS_9allocatorIcEEEES6_EC2IRA23_KcRA26_SA_Lb0EEEOT_OT0_(%"struct.std::__1::pair.205"*, [23 x i8]* dereferenceable(23), [26 x i8]* dereferenceable(26)) unnamed_addr #2 comdat align 2 {
  %4 = getelementptr inbounds [23 x i8], [23 x i8]* %1, i64 0, i64 0
  %5 = tail call i64 @strlen(i8* %4) #15
  %6 = icmp ugt i64 %5, -17
  br i1 %6, label %7, label %9

7:                                                ; preds = %3
  %8 = bitcast %"struct.std::__1::pair.205"* %0 to %"class.std::__1::__basic_string_common"*
  tail call void @_ZNKSt3__121__basic_string_commonILb1EE20__throw_length_errorEv(%"class.std::__1::__basic_string_common"* %8) #16
  unreachable

9:                                                ; preds = %3
  %10 = icmp ult i64 %5, 23
  br i1 %10, label %19, label %11

11:                                               ; preds = %9
  %12 = add nuw i64 %5, 16
  %13 = and i64 %12, -16
  %14 = tail call i8* @_Znwm(i64 %13) #14
  %15 = getelementptr inbounds %"struct.std::__1::pair.205", %"struct.std::__1::pair.205"* %0, i64 0, i32 0, i32 0, i32 0, i32 0, i32 0, i32 0, i32 0
  store i8* %14, i8** %15, align 8
  %16 = or i64 %13, -9223372036854775808
  %17 = getelementptr inbounds %"struct.std::__1::pair.205", %"struct.std::__1::pair.205"* %0, i64 0, i32 0, i32 0, i32 0, i32 0, i32 0, i32 0, i32 2
  store i64 %16, i64* %17, align 8
  %18 = getelementptr inbounds %"struct.std::__1::pair.205", %"struct.std::__1::pair.205"* %0, i64 0, i32 0, i32 0, i32 0, i32 0, i32 0, i32 0, i32 1
  store i64 %5, i64* %18, align 8
  br label %25

19:                                               ; preds = %9
  %20 = trunc i64 %5 to i8
  %21 = bitcast %"struct.std::__1::pair.205"* %0 to %"struct.std::__1::basic_string<char, std::__1::char_traits<char>, std::__1::allocator<char> >::__short"*
  %22 = getelementptr inbounds %"struct.std::__1::basic_string<char, std::__1::char_traits<char>, std::__1::allocator<char> >::__short", %"struct.std::__1::basic_string<char, std::__1::char_traits<char>, std::__1::allocator<char> >::__short"* %21, i64 0, i32 1, i32 0
  store i8 %20, i8* %22, align 1
  %23 = bitcast %"struct.std::__1::pair.205"* %0 to i8*
  %24 = icmp eq i64 %5, 0
  br i1 %24, label %27, label %25

25:                                               ; preds = %19, %11
  %26 = phi i8* [ %14, %11 ], [ %23, %19 ]
  tail call void @llvm.memcpy.p0i8.p0i8.i64(i8* align 1 %26, i8* align 1 %4, i64 %5, i1 false) #15
  br label %27

27:                                               ; preds = %19, %25
  %28 = phi i8* [ %23, %19 ], [ %26, %25 ]
  %29 = getelementptr inbounds i8, i8* %28, i64 %5
  store i8 0, i8* %29, align 1
  %30 = getelementptr inbounds %"struct.std::__1::pair.205", %"struct.std::__1::pair.205"* %0, i64 0, i32 1
  %31 = getelementptr inbounds [26 x i8], [26 x i8]* %2, i64 0, i64 0
  %32 = tail call i64 @strlen(i8* %31) #15
  %33 = icmp ugt i64 %32, -17
  br i1 %33, label %34, label %36

34:                                               ; preds = %27
  %35 = bitcast %"class.std::__1::basic_string"* %30 to %"class.std::__1::__basic_string_common"*
  tail call void @_ZNKSt3__121__basic_string_commonILb1EE20__throw_length_errorEv(%"class.std::__1::__basic_string_common"* %35) #16
  unreachable

36:                                               ; preds = %27
  %37 = icmp ult i64 %32, 23
  br i1 %37, label %46, label %38

38:                                               ; preds = %36
  %39 = add nuw i64 %32, 16
  %40 = and i64 %39, -16
  %41 = tail call i8* @_Znwm(i64 %40) #14
  %42 = getelementptr inbounds %"class.std::__1::basic_string", %"class.std::__1::basic_string"* %30, i64 0, i32 0, i32 0, i32 0, i32 0, i32 0, i32 0
  store i8* %41, i8** %42, align 8
  %43 = or i64 %40, -9223372036854775808
  %44 = getelementptr inbounds %"struct.std::__1::pair.205", %"struct.std::__1::pair.205"* %0, i64 0, i32 1, i32 0, i32 0, i32 0, i32 0, i32 0, i32 2
  store i64 %43, i64* %44, align 8
  %45 = getelementptr inbounds %"struct.std::__1::pair.205", %"struct.std::__1::pair.205"* %0, i64 0, i32 1, i32 0, i32 0, i32 0, i32 0, i32 0, i32 1
  store i64 %32, i64* %45, align 8
  br label %52

46:                                               ; preds = %36
  %47 = trunc i64 %32 to i8
  %48 = bitcast %"class.std::__1::basic_string"* %30 to %"struct.std::__1::basic_string<char, std::__1::char_traits<char>, std::__1::allocator<char> >::__short"*
  %49 = getelementptr inbounds %"struct.std::__1::basic_string<char, std::__1::char_traits<char>, std::__1::allocator<char> >::__short", %"struct.std::__1::basic_string<char, std::__1::char_traits<char>, std::__1::allocator<char> >::__short"* %48, i64 0, i32 1, i32 0
  store i8 %47, i8* %49, align 1
  %50 = bitcast %"class.std::__1::basic_string"* %30 to i8*
  %51 = icmp eq i64 %32, 0
  br i1 %51, label %54, label %52

52:                                               ; preds = %46, %38
  %53 = phi i8* [ %41, %38 ], [ %50, %46 ]
  tail call void @llvm.memcpy.p0i8.p0i8.i64(i8* align 1 %53, i8* align 1 %31, i64 %32, i1 false) #15
  br label %54

54:                                               ; preds = %46, %52
  %55 = phi i8* [ %50, %46 ], [ %53, %52 ]
  %56 = getelementptr inbounds i8, i8* %55, i64 %32
  store i8 0, i8* %56, align 1
  ret void
}

; Function Attrs: nounwind ssp uwtable
define linkonce_odr hidden void @_ZNSt3__14pairIKNS_12basic_stringIcNS_11char_traitsIcEENS_9allocatorIcEEEES6_EC2IRA29_KcRA26_SA_Lb0EEEOT_OT0_(%"struct.std::__1::pair.205"*, [29 x i8]* dereferenceable(29), [26 x i8]* dereferenceable(26)) unnamed_addr #2 comdat align 2 {
  %4 = getelementptr inbounds [29 x i8], [29 x i8]* %1, i64 0, i64 0
  %5 = tail call i64 @strlen(i8* %4) #15
  %6 = icmp ugt i64 %5, -17
  br i1 %6, label %7, label %9

7:                                                ; preds = %3
  %8 = bitcast %"struct.std::__1::pair.205"* %0 to %"class.std::__1::__basic_string_common"*
  tail call void @_ZNKSt3__121__basic_string_commonILb1EE20__throw_length_errorEv(%"class.std::__1::__basic_string_common"* %8) #16
  unreachable

9:                                                ; preds = %3
  %10 = icmp ult i64 %5, 23
  br i1 %10, label %19, label %11

11:                                               ; preds = %9
  %12 = add nuw i64 %5, 16
  %13 = and i64 %12, -16
  %14 = tail call i8* @_Znwm(i64 %13) #14
  %15 = getelementptr inbounds %"struct.std::__1::pair.205", %"struct.std::__1::pair.205"* %0, i64 0, i32 0, i32 0, i32 0, i32 0, i32 0, i32 0, i32 0
  store i8* %14, i8** %15, align 8
  %16 = or i64 %13, -9223372036854775808
  %17 = getelementptr inbounds %"struct.std::__1::pair.205", %"struct.std::__1::pair.205"* %0, i64 0, i32 0, i32 0, i32 0, i32 0, i32 0, i32 0, i32 2
  store i64 %16, i64* %17, align 8
  %18 = getelementptr inbounds %"struct.std::__1::pair.205", %"struct.std::__1::pair.205"* %0, i64 0, i32 0, i32 0, i32 0, i32 0, i32 0, i32 0, i32 1
  store i64 %5, i64* %18, align 8
  br label %25

19:                                               ; preds = %9
  %20 = trunc i64 %5 to i8
  %21 = bitcast %"struct.std::__1::pair.205"* %0 to %"struct.std::__1::basic_string<char, std::__1::char_traits<char>, std::__1::allocator<char> >::__short"*
  %22 = getelementptr inbounds %"struct.std::__1::basic_string<char, std::__1::char_traits<char>, std::__1::allocator<char> >::__short", %"struct.std::__1::basic_string<char, std::__1::char_traits<char>, std::__1::allocator<char> >::__short"* %21, i64 0, i32 1, i32 0
  store i8 %20, i8* %22, align 1
  %23 = bitcast %"struct.std::__1::pair.205"* %0 to i8*
  %24 = icmp eq i64 %5, 0
  br i1 %24, label %27, label %25

25:                                               ; preds = %19, %11
  %26 = phi i8* [ %14, %11 ], [ %23, %19 ]
  tail call void @llvm.memcpy.p0i8.p0i8.i64(i8* align 1 %26, i8* align 1 %4, i64 %5, i1 false) #15
  br label %27

27:                                               ; preds = %19, %25
  %28 = phi i8* [ %23, %19 ], [ %26, %25 ]
  %29 = getelementptr inbounds i8, i8* %28, i64 %5
  store i8 0, i8* %29, align 1
  %30 = getelementptr inbounds %"struct.std::__1::pair.205", %"struct.std::__1::pair.205"* %0, i64 0, i32 1
  %31 = getelementptr inbounds [26 x i8], [26 x i8]* %2, i64 0, i64 0
  %32 = tail call i64 @strlen(i8* %31) #15
  %33 = icmp ugt i64 %32, -17
  br i1 %33, label %34, label %36

34:                                               ; preds = %27
  %35 = bitcast %"class.std::__1::basic_string"* %30 to %"class.std::__1::__basic_string_common"*
  tail call void @_ZNKSt3__121__basic_string_commonILb1EE20__throw_length_errorEv(%"class.std::__1::__basic_string_common"* %35) #16
  unreachable

36:                                               ; preds = %27
  %37 = icmp ult i64 %32, 23
  br i1 %37, label %46, label %38

38:                                               ; preds = %36
  %39 = add nuw i64 %32, 16
  %40 = and i64 %39, -16
  %41 = tail call i8* @_Znwm(i64 %40) #14
  %42 = getelementptr inbounds %"class.std::__1::basic_string", %"class.std::__1::basic_string"* %30, i64 0, i32 0, i32 0, i32 0, i32 0, i32 0, i32 0
  store i8* %41, i8** %42, align 8
  %43 = or i64 %40, -9223372036854775808
  %44 = getelementptr inbounds %"struct.std::__1::pair.205", %"struct.std::__1::pair.205"* %0, i64 0, i32 1, i32 0, i32 0, i32 0, i32 0, i32 0, i32 2
  store i64 %43, i64* %44, align 8
  %45 = getelementptr inbounds %"struct.std::__1::pair.205", %"struct.std::__1::pair.205"* %0, i64 0, i32 1, i32 0, i32 0, i32 0, i32 0, i32 0, i32 1
  store i64 %32, i64* %45, align 8
  br label %52

46:                                               ; preds = %36
  %47 = trunc i64 %32 to i8
  %48 = bitcast %"class.std::__1::basic_string"* %30 to %"struct.std::__1::basic_string<char, std::__1::char_traits<char>, std::__1::allocator<char> >::__short"*
  %49 = getelementptr inbounds %"struct.std::__1::basic_string<char, std::__1::char_traits<char>, std::__1::allocator<char> >::__short", %"struct.std::__1::basic_string<char, std::__1::char_traits<char>, std::__1::allocator<char> >::__short"* %48, i64 0, i32 1, i32 0
  store i8 %47, i8* %49, align 1
  %50 = bitcast %"class.std::__1::basic_string"* %30 to i8*
  %51 = icmp eq i64 %32, 0
  br i1 %51, label %54, label %52

52:                                               ; preds = %46, %38
  %53 = phi i8* [ %41, %38 ], [ %50, %46 ]
  tail call void @llvm.memcpy.p0i8.p0i8.i64(i8* align 1 %53, i8* align 1 %31, i64 %32, i1 false) #15
  br label %54

54:                                               ; preds = %46, %52
  %55 = phi i8* [ %50, %46 ], [ %53, %52 ]
  %56 = getelementptr inbounds i8, i8* %55, i64 %32
  store i8 0, i8* %56, align 1
  ret void
}

; Function Attrs: nounwind ssp uwtable
define linkonce_odr hidden void @_ZNSt3__14pairIKNS_12basic_stringIcNS_11char_traitsIcEENS_9allocatorIcEEEES6_EC2IRA23_KcRA19_SA_Lb0EEEOT_OT0_(%"struct.std::__1::pair.205"*, [23 x i8]* dereferenceable(23), [19 x i8]* dereferenceable(19)) unnamed_addr #2 comdat align 2 {
  %4 = getelementptr inbounds [23 x i8], [23 x i8]* %1, i64 0, i64 0
  %5 = tail call i64 @strlen(i8* %4) #15
  %6 = icmp ugt i64 %5, -17
  br i1 %6, label %7, label %9

7:                                                ; preds = %3
  %8 = bitcast %"struct.std::__1::pair.205"* %0 to %"class.std::__1::__basic_string_common"*
  tail call void @_ZNKSt3__121__basic_string_commonILb1EE20__throw_length_errorEv(%"class.std::__1::__basic_string_common"* %8) #16
  unreachable

9:                                                ; preds = %3
  %10 = icmp ult i64 %5, 23
  br i1 %10, label %19, label %11

11:                                               ; preds = %9
  %12 = add nuw i64 %5, 16
  %13 = and i64 %12, -16
  %14 = tail call i8* @_Znwm(i64 %13) #14
  %15 = getelementptr inbounds %"struct.std::__1::pair.205", %"struct.std::__1::pair.205"* %0, i64 0, i32 0, i32 0, i32 0, i32 0, i32 0, i32 0, i32 0
  store i8* %14, i8** %15, align 8
  %16 = or i64 %13, -9223372036854775808
  %17 = getelementptr inbounds %"struct.std::__1::pair.205", %"struct.std::__1::pair.205"* %0, i64 0, i32 0, i32 0, i32 0, i32 0, i32 0, i32 0, i32 2
  store i64 %16, i64* %17, align 8
  %18 = getelementptr inbounds %"struct.std::__1::pair.205", %"struct.std::__1::pair.205"* %0, i64 0, i32 0, i32 0, i32 0, i32 0, i32 0, i32 0, i32 1
  store i64 %5, i64* %18, align 8
  br label %25

19:                                               ; preds = %9
  %20 = trunc i64 %5 to i8
  %21 = bitcast %"struct.std::__1::pair.205"* %0 to %"struct.std::__1::basic_string<char, std::__1::char_traits<char>, std::__1::allocator<char> >::__short"*
  %22 = getelementptr inbounds %"struct.std::__1::basic_string<char, std::__1::char_traits<char>, std::__1::allocator<char> >::__short", %"struct.std::__1::basic_string<char, std::__1::char_traits<char>, std::__1::allocator<char> >::__short"* %21, i64 0, i32 1, i32 0
  store i8 %20, i8* %22, align 1
  %23 = bitcast %"struct.std::__1::pair.205"* %0 to i8*
  %24 = icmp eq i64 %5, 0
  br i1 %24, label %27, label %25

25:                                               ; preds = %19, %11
  %26 = phi i8* [ %14, %11 ], [ %23, %19 ]
  tail call void @llvm.memcpy.p0i8.p0i8.i64(i8* align 1 %26, i8* align 1 %4, i64 %5, i1 false) #15
  br label %27

27:                                               ; preds = %19, %25
  %28 = phi i8* [ %23, %19 ], [ %26, %25 ]
  %29 = getelementptr inbounds i8, i8* %28, i64 %5
  store i8 0, i8* %29, align 1
  %30 = getelementptr inbounds %"struct.std::__1::pair.205", %"struct.std::__1::pair.205"* %0, i64 0, i32 1
  %31 = getelementptr inbounds [19 x i8], [19 x i8]* %2, i64 0, i64 0
  %32 = tail call i64 @strlen(i8* %31) #15
  %33 = icmp ugt i64 %32, -17
  br i1 %33, label %34, label %36

34:                                               ; preds = %27
  %35 = bitcast %"class.std::__1::basic_string"* %30 to %"class.std::__1::__basic_string_common"*
  tail call void @_ZNKSt3__121__basic_string_commonILb1EE20__throw_length_errorEv(%"class.std::__1::__basic_string_common"* %35) #16
  unreachable

36:                                               ; preds = %27
  %37 = icmp ult i64 %32, 23
  br i1 %37, label %46, label %38

38:                                               ; preds = %36
  %39 = add nuw i64 %32, 16
  %40 = and i64 %39, -16
  %41 = tail call i8* @_Znwm(i64 %40) #14
  %42 = getelementptr inbounds %"class.std::__1::basic_string", %"class.std::__1::basic_string"* %30, i64 0, i32 0, i32 0, i32 0, i32 0, i32 0, i32 0
  store i8* %41, i8** %42, align 8
  %43 = or i64 %40, -9223372036854775808
  %44 = getelementptr inbounds %"struct.std::__1::pair.205", %"struct.std::__1::pair.205"* %0, i64 0, i32 1, i32 0, i32 0, i32 0, i32 0, i32 0, i32 2
  store i64 %43, i64* %44, align 8
  %45 = getelementptr inbounds %"struct.std::__1::pair.205", %"struct.std::__1::pair.205"* %0, i64 0, i32 1, i32 0, i32 0, i32 0, i32 0, i32 0, i32 1
  store i64 %32, i64* %45, align 8
  br label %52

46:                                               ; preds = %36
  %47 = trunc i64 %32 to i8
  %48 = bitcast %"class.std::__1::basic_string"* %30 to %"struct.std::__1::basic_string<char, std::__1::char_traits<char>, std::__1::allocator<char> >::__short"*
  %49 = getelementptr inbounds %"struct.std::__1::basic_string<char, std::__1::char_traits<char>, std::__1::allocator<char> >::__short", %"struct.std::__1::basic_string<char, std::__1::char_traits<char>, std::__1::allocator<char> >::__short"* %48, i64 0, i32 1, i32 0
  store i8 %47, i8* %49, align 1
  %50 = bitcast %"class.std::__1::basic_string"* %30 to i8*
  %51 = icmp eq i64 %32, 0
  br i1 %51, label %54, label %52

52:                                               ; preds = %46, %38
  %53 = phi i8* [ %41, %38 ], [ %50, %46 ]
  tail call void @llvm.memcpy.p0i8.p0i8.i64(i8* align 1 %53, i8* align 1 %31, i64 %32, i1 false) #15
  br label %54

54:                                               ; preds = %46, %52
  %55 = phi i8* [ %50, %46 ], [ %53, %52 ]
  %56 = getelementptr inbounds i8, i8* %55, i64 %32
  store i8 0, i8* %56, align 1
  ret void
}

; Function Attrs: nounwind ssp uwtable
define linkonce_odr hidden void @_ZNSt3__14pairIKNS_12basic_stringIcNS_11char_traitsIcEENS_9allocatorIcEEEES6_EC2IRA32_KcSC_Lb0EEEOT_OT0_(%"struct.std::__1::pair.205"*, [32 x i8]* dereferenceable(32), [32 x i8]* dereferenceable(32)) unnamed_addr #2 comdat align 2 {
  %4 = getelementptr inbounds [32 x i8], [32 x i8]* %1, i64 0, i64 0
  %5 = tail call i64 @strlen(i8* %4) #15
  %6 = icmp ugt i64 %5, -17
  br i1 %6, label %7, label %9

7:                                                ; preds = %3
  %8 = bitcast %"struct.std::__1::pair.205"* %0 to %"class.std::__1::__basic_string_common"*
  tail call void @_ZNKSt3__121__basic_string_commonILb1EE20__throw_length_errorEv(%"class.std::__1::__basic_string_common"* %8) #16
  unreachable

9:                                                ; preds = %3
  %10 = icmp ult i64 %5, 23
  br i1 %10, label %19, label %11

11:                                               ; preds = %9
  %12 = add nuw i64 %5, 16
  %13 = and i64 %12, -16
  %14 = tail call i8* @_Znwm(i64 %13) #14
  %15 = getelementptr inbounds %"struct.std::__1::pair.205", %"struct.std::__1::pair.205"* %0, i64 0, i32 0, i32 0, i32 0, i32 0, i32 0, i32 0, i32 0
  store i8* %14, i8** %15, align 8
  %16 = or i64 %13, -9223372036854775808
  %17 = getelementptr inbounds %"struct.std::__1::pair.205", %"struct.std::__1::pair.205"* %0, i64 0, i32 0, i32 0, i32 0, i32 0, i32 0, i32 0, i32 2
  store i64 %16, i64* %17, align 8
  %18 = getelementptr inbounds %"struct.std::__1::pair.205", %"struct.std::__1::pair.205"* %0, i64 0, i32 0, i32 0, i32 0, i32 0, i32 0, i32 0, i32 1
  store i64 %5, i64* %18, align 8
  br label %25

19:                                               ; preds = %9
  %20 = trunc i64 %5 to i8
  %21 = bitcast %"struct.std::__1::pair.205"* %0 to %"struct.std::__1::basic_string<char, std::__1::char_traits<char>, std::__1::allocator<char> >::__short"*
  %22 = getelementptr inbounds %"struct.std::__1::basic_string<char, std::__1::char_traits<char>, std::__1::allocator<char> >::__short", %"struct.std::__1::basic_string<char, std::__1::char_traits<char>, std::__1::allocator<char> >::__short"* %21, i64 0, i32 1, i32 0
  store i8 %20, i8* %22, align 1
  %23 = bitcast %"struct.std::__1::pair.205"* %0 to i8*
  %24 = icmp eq i64 %5, 0
  br i1 %24, label %27, label %25

25:                                               ; preds = %19, %11
  %26 = phi i8* [ %14, %11 ], [ %23, %19 ]
  tail call void @llvm.memcpy.p0i8.p0i8.i64(i8* align 1 %26, i8* align 1 %4, i64 %5, i1 false) #15
  br label %27

27:                                               ; preds = %19, %25
  %28 = phi i8* [ %23, %19 ], [ %26, %25 ]
  %29 = getelementptr inbounds i8, i8* %28, i64 %5
  store i8 0, i8* %29, align 1
  %30 = getelementptr inbounds %"struct.std::__1::pair.205", %"struct.std::__1::pair.205"* %0, i64 0, i32 1
  %31 = getelementptr inbounds [32 x i8], [32 x i8]* %2, i64 0, i64 0
  %32 = tail call i64 @strlen(i8* %31) #15
  %33 = icmp ugt i64 %32, -17
  br i1 %33, label %34, label %36

34:                                               ; preds = %27
  %35 = bitcast %"class.std::__1::basic_string"* %30 to %"class.std::__1::__basic_string_common"*
  tail call void @_ZNKSt3__121__basic_string_commonILb1EE20__throw_length_errorEv(%"class.std::__1::__basic_string_common"* %35) #16
  unreachable

36:                                               ; preds = %27
  %37 = icmp ult i64 %32, 23
  br i1 %37, label %46, label %38

38:                                               ; preds = %36
  %39 = add nuw i64 %32, 16
  %40 = and i64 %39, -16
  %41 = tail call i8* @_Znwm(i64 %40) #14
  %42 = getelementptr inbounds %"class.std::__1::basic_string", %"class.std::__1::basic_string"* %30, i64 0, i32 0, i32 0, i32 0, i32 0, i32 0, i32 0
  store i8* %41, i8** %42, align 8
  %43 = or i64 %40, -9223372036854775808
  %44 = getelementptr inbounds %"struct.std::__1::pair.205", %"struct.std::__1::pair.205"* %0, i64 0, i32 1, i32 0, i32 0, i32 0, i32 0, i32 0, i32 2
  store i64 %43, i64* %44, align 8
  %45 = getelementptr inbounds %"struct.std::__1::pair.205", %"struct.std::__1::pair.205"* %0, i64 0, i32 1, i32 0, i32 0, i32 0, i32 0, i32 0, i32 1
  store i64 %32, i64* %45, align 8
  br label %52

46:                                               ; preds = %36
  %47 = trunc i64 %32 to i8
  %48 = bitcast %"class.std::__1::basic_string"* %30 to %"struct.std::__1::basic_string<char, std::__1::char_traits<char>, std::__1::allocator<char> >::__short"*
  %49 = getelementptr inbounds %"struct.std::__1::basic_string<char, std::__1::char_traits<char>, std::__1::allocator<char> >::__short", %"struct.std::__1::basic_string<char, std::__1::char_traits<char>, std::__1::allocator<char> >::__short"* %48, i64 0, i32 1, i32 0
  store i8 %47, i8* %49, align 1
  %50 = bitcast %"class.std::__1::basic_string"* %30 to i8*
  %51 = icmp eq i64 %32, 0
  br i1 %51, label %54, label %52

52:                                               ; preds = %46, %38
  %53 = phi i8* [ %41, %38 ], [ %50, %46 ]
  tail call void @llvm.memcpy.p0i8.p0i8.i64(i8* align 1 %53, i8* align 1 %31, i64 %32, i1 false) #15
  br label %54

54:                                               ; preds = %46, %52
  %55 = phi i8* [ %50, %46 ], [ %53, %52 ]
  %56 = getelementptr inbounds i8, i8* %55, i64 %32
  store i8 0, i8* %56, align 1
  ret void
}

; Function Attrs: nounwind ssp uwtable
define linkonce_odr hidden void @_ZNSt3__14pairIKNS_12basic_stringIcNS_11char_traitsIcEENS_9allocatorIcEEEES6_EC2IRA30_KcRA19_SA_Lb0EEEOT_OT0_(%"struct.std::__1::pair.205"*, [30 x i8]* dereferenceable(30), [19 x i8]* dereferenceable(19)) unnamed_addr #2 comdat align 2 {
  %4 = getelementptr inbounds [30 x i8], [30 x i8]* %1, i64 0, i64 0
  %5 = tail call i64 @strlen(i8* %4) #15
  %6 = icmp ugt i64 %5, -17
  br i1 %6, label %7, label %9

7:                                                ; preds = %3
  %8 = bitcast %"struct.std::__1::pair.205"* %0 to %"class.std::__1::__basic_string_common"*
  tail call void @_ZNKSt3__121__basic_string_commonILb1EE20__throw_length_errorEv(%"class.std::__1::__basic_string_common"* %8) #16
  unreachable

9:                                                ; preds = %3
  %10 = icmp ult i64 %5, 23
  br i1 %10, label %19, label %11

11:                                               ; preds = %9
  %12 = add nuw i64 %5, 16
  %13 = and i64 %12, -16
  %14 = tail call i8* @_Znwm(i64 %13) #14
  %15 = getelementptr inbounds %"struct.std::__1::pair.205", %"struct.std::__1::pair.205"* %0, i64 0, i32 0, i32 0, i32 0, i32 0, i32 0, i32 0, i32 0
  store i8* %14, i8** %15, align 8
  %16 = or i64 %13, -9223372036854775808
  %17 = getelementptr inbounds %"struct.std::__1::pair.205", %"struct.std::__1::pair.205"* %0, i64 0, i32 0, i32 0, i32 0, i32 0, i32 0, i32 0, i32 2
  store i64 %16, i64* %17, align 8
  %18 = getelementptr inbounds %"struct.std::__1::pair.205", %"struct.std::__1::pair.205"* %0, i64 0, i32 0, i32 0, i32 0, i32 0, i32 0, i32 0, i32 1
  store i64 %5, i64* %18, align 8
  br label %25

19:                                               ; preds = %9
  %20 = trunc i64 %5 to i8
  %21 = bitcast %"struct.std::__1::pair.205"* %0 to %"struct.std::__1::basic_string<char, std::__1::char_traits<char>, std::__1::allocator<char> >::__short"*
  %22 = getelementptr inbounds %"struct.std::__1::basic_string<char, std::__1::char_traits<char>, std::__1::allocator<char> >::__short", %"struct.std::__1::basic_string<char, std::__1::char_traits<char>, std::__1::allocator<char> >::__short"* %21, i64 0, i32 1, i32 0
  store i8 %20, i8* %22, align 1
  %23 = bitcast %"struct.std::__1::pair.205"* %0 to i8*
  %24 = icmp eq i64 %5, 0
  br i1 %24, label %27, label %25

25:                                               ; preds = %19, %11
  %26 = phi i8* [ %14, %11 ], [ %23, %19 ]
  tail call void @llvm.memcpy.p0i8.p0i8.i64(i8* align 1 %26, i8* align 1 %4, i64 %5, i1 false) #15
  br label %27

27:                                               ; preds = %19, %25
  %28 = phi i8* [ %23, %19 ], [ %26, %25 ]
  %29 = getelementptr inbounds i8, i8* %28, i64 %5
  store i8 0, i8* %29, align 1
  %30 = getelementptr inbounds %"struct.std::__1::pair.205", %"struct.std::__1::pair.205"* %0, i64 0, i32 1
  %31 = getelementptr inbounds [19 x i8], [19 x i8]* %2, i64 0, i64 0
  %32 = tail call i64 @strlen(i8* %31) #15
  %33 = icmp ugt i64 %32, -17
  br i1 %33, label %34, label %36

34:                                               ; preds = %27
  %35 = bitcast %"class.std::__1::basic_string"* %30 to %"class.std::__1::__basic_string_common"*
  tail call void @_ZNKSt3__121__basic_string_commonILb1EE20__throw_length_errorEv(%"class.std::__1::__basic_string_common"* %35) #16
  unreachable

36:                                               ; preds = %27
  %37 = icmp ult i64 %32, 23
  br i1 %37, label %46, label %38

38:                                               ; preds = %36
  %39 = add nuw i64 %32, 16
  %40 = and i64 %39, -16
  %41 = tail call i8* @_Znwm(i64 %40) #14
  %42 = getelementptr inbounds %"class.std::__1::basic_string", %"class.std::__1::basic_string"* %30, i64 0, i32 0, i32 0, i32 0, i32 0, i32 0, i32 0
  store i8* %41, i8** %42, align 8
  %43 = or i64 %40, -9223372036854775808
  %44 = getelementptr inbounds %"struct.std::__1::pair.205", %"struct.std::__1::pair.205"* %0, i64 0, i32 1, i32 0, i32 0, i32 0, i32 0, i32 0, i32 2
  store i64 %43, i64* %44, align 8
  %45 = getelementptr inbounds %"struct.std::__1::pair.205", %"struct.std::__1::pair.205"* %0, i64 0, i32 1, i32 0, i32 0, i32 0, i32 0, i32 0, i32 1
  store i64 %32, i64* %45, align 8
  br label %52

46:                                               ; preds = %36
  %47 = trunc i64 %32 to i8
  %48 = bitcast %"class.std::__1::basic_string"* %30 to %"struct.std::__1::basic_string<char, std::__1::char_traits<char>, std::__1::allocator<char> >::__short"*
  %49 = getelementptr inbounds %"struct.std::__1::basic_string<char, std::__1::char_traits<char>, std::__1::allocator<char> >::__short", %"struct.std::__1::basic_string<char, std::__1::char_traits<char>, std::__1::allocator<char> >::__short"* %48, i64 0, i32 1, i32 0
  store i8 %47, i8* %49, align 1
  %50 = bitcast %"class.std::__1::basic_string"* %30 to i8*
  %51 = icmp eq i64 %32, 0
  br i1 %51, label %54, label %52

52:                                               ; preds = %46, %38
  %53 = phi i8* [ %41, %38 ], [ %50, %46 ]
  tail call void @llvm.memcpy.p0i8.p0i8.i64(i8* align 1 %53, i8* align 1 %31, i64 %32, i1 false) #15
  br label %54

54:                                               ; preds = %46, %52
  %55 = phi i8* [ %50, %46 ], [ %53, %52 ]
  %56 = getelementptr inbounds i8, i8* %55, i64 %32
  store i8 0, i8* %56, align 1
  ret void
}

; Function Attrs: nounwind ssp uwtable
define linkonce_odr hidden void @_ZNSt3__14pairIKNS_12basic_stringIcNS_11char_traitsIcEENS_9allocatorIcEEEES6_EC2IRA21_KcRA26_SA_Lb0EEEOT_OT0_(%"struct.std::__1::pair.205"*, [21 x i8]* dereferenceable(21), [26 x i8]* dereferenceable(26)) unnamed_addr #2 comdat align 2 {
  %4 = getelementptr inbounds [21 x i8], [21 x i8]* %1, i64 0, i64 0
  %5 = tail call i64 @strlen(i8* %4) #15
  %6 = icmp ugt i64 %5, -17
  br i1 %6, label %7, label %9

7:                                                ; preds = %3
  %8 = bitcast %"struct.std::__1::pair.205"* %0 to %"class.std::__1::__basic_string_common"*
  tail call void @_ZNKSt3__121__basic_string_commonILb1EE20__throw_length_errorEv(%"class.std::__1::__basic_string_common"* %8) #16
  unreachable

9:                                                ; preds = %3
  %10 = icmp ult i64 %5, 23
  br i1 %10, label %19, label %11

11:                                               ; preds = %9
  %12 = add nuw i64 %5, 16
  %13 = and i64 %12, -16
  %14 = tail call i8* @_Znwm(i64 %13) #14
  %15 = getelementptr inbounds %"struct.std::__1::pair.205", %"struct.std::__1::pair.205"* %0, i64 0, i32 0, i32 0, i32 0, i32 0, i32 0, i32 0, i32 0
  store i8* %14, i8** %15, align 8
  %16 = or i64 %13, -9223372036854775808
  %17 = getelementptr inbounds %"struct.std::__1::pair.205", %"struct.std::__1::pair.205"* %0, i64 0, i32 0, i32 0, i32 0, i32 0, i32 0, i32 0, i32 2
  store i64 %16, i64* %17, align 8
  %18 = getelementptr inbounds %"struct.std::__1::pair.205", %"struct.std::__1::pair.205"* %0, i64 0, i32 0, i32 0, i32 0, i32 0, i32 0, i32 0, i32 1
  store i64 %5, i64* %18, align 8
  br label %25

19:                                               ; preds = %9
  %20 = trunc i64 %5 to i8
  %21 = bitcast %"struct.std::__1::pair.205"* %0 to %"struct.std::__1::basic_string<char, std::__1::char_traits<char>, std::__1::allocator<char> >::__short"*
  %22 = getelementptr inbounds %"struct.std::__1::basic_string<char, std::__1::char_traits<char>, std::__1::allocator<char> >::__short", %"struct.std::__1::basic_string<char, std::__1::char_traits<char>, std::__1::allocator<char> >::__short"* %21, i64 0, i32 1, i32 0
  store i8 %20, i8* %22, align 1
  %23 = bitcast %"struct.std::__1::pair.205"* %0 to i8*
  %24 = icmp eq i64 %5, 0
  br i1 %24, label %27, label %25

25:                                               ; preds = %19, %11
  %26 = phi i8* [ %14, %11 ], [ %23, %19 ]
  tail call void @llvm.memcpy.p0i8.p0i8.i64(i8* align 1 %26, i8* align 1 %4, i64 %5, i1 false) #15
  br label %27

27:                                               ; preds = %19, %25
  %28 = phi i8* [ %23, %19 ], [ %26, %25 ]
  %29 = getelementptr inbounds i8, i8* %28, i64 %5
  store i8 0, i8* %29, align 1
  %30 = getelementptr inbounds %"struct.std::__1::pair.205", %"struct.std::__1::pair.205"* %0, i64 0, i32 1
  %31 = getelementptr inbounds [26 x i8], [26 x i8]* %2, i64 0, i64 0
  %32 = tail call i64 @strlen(i8* %31) #15
  %33 = icmp ugt i64 %32, -17
  br i1 %33, label %34, label %36

34:                                               ; preds = %27
  %35 = bitcast %"class.std::__1::basic_string"* %30 to %"class.std::__1::__basic_string_common"*
  tail call void @_ZNKSt3__121__basic_string_commonILb1EE20__throw_length_errorEv(%"class.std::__1::__basic_string_common"* %35) #16
  unreachable

36:                                               ; preds = %27
  %37 = icmp ult i64 %32, 23
  br i1 %37, label %46, label %38

38:                                               ; preds = %36
  %39 = add nuw i64 %32, 16
  %40 = and i64 %39, -16
  %41 = tail call i8* @_Znwm(i64 %40) #14
  %42 = getelementptr inbounds %"class.std::__1::basic_string", %"class.std::__1::basic_string"* %30, i64 0, i32 0, i32 0, i32 0, i32 0, i32 0, i32 0
  store i8* %41, i8** %42, align 8
  %43 = or i64 %40, -9223372036854775808
  %44 = getelementptr inbounds %"struct.std::__1::pair.205", %"struct.std::__1::pair.205"* %0, i64 0, i32 1, i32 0, i32 0, i32 0, i32 0, i32 0, i32 2
  store i64 %43, i64* %44, align 8
  %45 = getelementptr inbounds %"struct.std::__1::pair.205", %"struct.std::__1::pair.205"* %0, i64 0, i32 1, i32 0, i32 0, i32 0, i32 0, i32 0, i32 1
  store i64 %32, i64* %45, align 8
  br label %52

46:                                               ; preds = %36
  %47 = trunc i64 %32 to i8
  %48 = bitcast %"class.std::__1::basic_string"* %30 to %"struct.std::__1::basic_string<char, std::__1::char_traits<char>, std::__1::allocator<char> >::__short"*
  %49 = getelementptr inbounds %"struct.std::__1::basic_string<char, std::__1::char_traits<char>, std::__1::allocator<char> >::__short", %"struct.std::__1::basic_string<char, std::__1::char_traits<char>, std::__1::allocator<char> >::__short"* %48, i64 0, i32 1, i32 0
  store i8 %47, i8* %49, align 1
  %50 = bitcast %"class.std::__1::basic_string"* %30 to i8*
  %51 = icmp eq i64 %32, 0
  br i1 %51, label %54, label %52

52:                                               ; preds = %46, %38
  %53 = phi i8* [ %41, %38 ], [ %50, %46 ]
  tail call void @llvm.memcpy.p0i8.p0i8.i64(i8* align 1 %53, i8* align 1 %31, i64 %32, i1 false) #15
  br label %54

54:                                               ; preds = %46, %52
  %55 = phi i8* [ %50, %46 ], [ %53, %52 ]
  %56 = getelementptr inbounds i8, i8* %55, i64 %32
  store i8 0, i8* %56, align 1
  ret void
}

; Function Attrs: nounwind ssp uwtable
define linkonce_odr hidden void @_ZNSt3__14pairIKNS_12basic_stringIcNS_11char_traitsIcEENS_9allocatorIcEEEES6_EC2IRA25_KcRA24_SA_Lb0EEEOT_OT0_(%"struct.std::__1::pair.205"*, [25 x i8]* dereferenceable(25), [24 x i8]* dereferenceable(24)) unnamed_addr #2 comdat align 2 {
  %4 = getelementptr inbounds [25 x i8], [25 x i8]* %1, i64 0, i64 0
  %5 = tail call i64 @strlen(i8* %4) #15
  %6 = icmp ugt i64 %5, -17
  br i1 %6, label %7, label %9

7:                                                ; preds = %3
  %8 = bitcast %"struct.std::__1::pair.205"* %0 to %"class.std::__1::__basic_string_common"*
  tail call void @_ZNKSt3__121__basic_string_commonILb1EE20__throw_length_errorEv(%"class.std::__1::__basic_string_common"* %8) #16
  unreachable

9:                                                ; preds = %3
  %10 = icmp ult i64 %5, 23
  br i1 %10, label %19, label %11

11:                                               ; preds = %9
  %12 = add nuw i64 %5, 16
  %13 = and i64 %12, -16
  %14 = tail call i8* @_Znwm(i64 %13) #14
  %15 = getelementptr inbounds %"struct.std::__1::pair.205", %"struct.std::__1::pair.205"* %0, i64 0, i32 0, i32 0, i32 0, i32 0, i32 0, i32 0, i32 0
  store i8* %14, i8** %15, align 8
  %16 = or i64 %13, -9223372036854775808
  %17 = getelementptr inbounds %"struct.std::__1::pair.205", %"struct.std::__1::pair.205"* %0, i64 0, i32 0, i32 0, i32 0, i32 0, i32 0, i32 0, i32 2
  store i64 %16, i64* %17, align 8
  %18 = getelementptr inbounds %"struct.std::__1::pair.205", %"struct.std::__1::pair.205"* %0, i64 0, i32 0, i32 0, i32 0, i32 0, i32 0, i32 0, i32 1
  store i64 %5, i64* %18, align 8
  br label %25

19:                                               ; preds = %9
  %20 = trunc i64 %5 to i8
  %21 = bitcast %"struct.std::__1::pair.205"* %0 to %"struct.std::__1::basic_string<char, std::__1::char_traits<char>, std::__1::allocator<char> >::__short"*
  %22 = getelementptr inbounds %"struct.std::__1::basic_string<char, std::__1::char_traits<char>, std::__1::allocator<char> >::__short", %"struct.std::__1::basic_string<char, std::__1::char_traits<char>, std::__1::allocator<char> >::__short"* %21, i64 0, i32 1, i32 0
  store i8 %20, i8* %22, align 1
  %23 = bitcast %"struct.std::__1::pair.205"* %0 to i8*
  %24 = icmp eq i64 %5, 0
  br i1 %24, label %27, label %25

25:                                               ; preds = %19, %11
  %26 = phi i8* [ %14, %11 ], [ %23, %19 ]
  tail call void @llvm.memcpy.p0i8.p0i8.i64(i8* align 1 %26, i8* align 1 %4, i64 %5, i1 false) #15
  br label %27

27:                                               ; preds = %19, %25
  %28 = phi i8* [ %23, %19 ], [ %26, %25 ]
  %29 = getelementptr inbounds i8, i8* %28, i64 %5
  store i8 0, i8* %29, align 1
  %30 = getelementptr inbounds %"struct.std::__1::pair.205", %"struct.std::__1::pair.205"* %0, i64 0, i32 1
  %31 = getelementptr inbounds [24 x i8], [24 x i8]* %2, i64 0, i64 0
  %32 = tail call i64 @strlen(i8* %31) #15
  %33 = icmp ugt i64 %32, -17
  br i1 %33, label %34, label %36

34:                                               ; preds = %27
  %35 = bitcast %"class.std::__1::basic_string"* %30 to %"class.std::__1::__basic_string_common"*
  tail call void @_ZNKSt3__121__basic_string_commonILb1EE20__throw_length_errorEv(%"class.std::__1::__basic_string_common"* %35) #16
  unreachable

36:                                               ; preds = %27
  %37 = icmp ult i64 %32, 23
  br i1 %37, label %46, label %38

38:                                               ; preds = %36
  %39 = add nuw i64 %32, 16
  %40 = and i64 %39, -16
  %41 = tail call i8* @_Znwm(i64 %40) #14
  %42 = getelementptr inbounds %"class.std::__1::basic_string", %"class.std::__1::basic_string"* %30, i64 0, i32 0, i32 0, i32 0, i32 0, i32 0, i32 0
  store i8* %41, i8** %42, align 8
  %43 = or i64 %40, -9223372036854775808
  %44 = getelementptr inbounds %"struct.std::__1::pair.205", %"struct.std::__1::pair.205"* %0, i64 0, i32 1, i32 0, i32 0, i32 0, i32 0, i32 0, i32 2
  store i64 %43, i64* %44, align 8
  %45 = getelementptr inbounds %"struct.std::__1::pair.205", %"struct.std::__1::pair.205"* %0, i64 0, i32 1, i32 0, i32 0, i32 0, i32 0, i32 0, i32 1
  store i64 %32, i64* %45, align 8
  br label %52

46:                                               ; preds = %36
  %47 = trunc i64 %32 to i8
  %48 = bitcast %"class.std::__1::basic_string"* %30 to %"struct.std::__1::basic_string<char, std::__1::char_traits<char>, std::__1::allocator<char> >::__short"*
  %49 = getelementptr inbounds %"struct.std::__1::basic_string<char, std::__1::char_traits<char>, std::__1::allocator<char> >::__short", %"struct.std::__1::basic_string<char, std::__1::char_traits<char>, std::__1::allocator<char> >::__short"* %48, i64 0, i32 1, i32 0
  store i8 %47, i8* %49, align 1
  %50 = bitcast %"class.std::__1::basic_string"* %30 to i8*
  %51 = icmp eq i64 %32, 0
  br i1 %51, label %54, label %52

52:                                               ; preds = %46, %38
  %53 = phi i8* [ %41, %38 ], [ %50, %46 ]
  tail call void @llvm.memcpy.p0i8.p0i8.i64(i8* align 1 %53, i8* align 1 %31, i64 %32, i1 false) #15
  br label %54

54:                                               ; preds = %46, %52
  %55 = phi i8* [ %50, %46 ], [ %53, %52 ]
  %56 = getelementptr inbounds i8, i8* %55, i64 %32
  store i8 0, i8* %56, align 1
  ret void
}

; Function Attrs: nounwind ssp uwtable
define linkonce_odr hidden void @_ZNSt3__14pairIKNS_12basic_stringIcNS_11char_traitsIcEENS_9allocatorIcEEEES6_EC2IRA35_KcRA32_SA_Lb0EEEOT_OT0_(%"struct.std::__1::pair.205"*, [35 x i8]* dereferenceable(35), [32 x i8]* dereferenceable(32)) unnamed_addr #2 comdat align 2 {
  %4 = getelementptr inbounds [35 x i8], [35 x i8]* %1, i64 0, i64 0
  %5 = tail call i64 @strlen(i8* %4) #15
  %6 = icmp ugt i64 %5, -17
  br i1 %6, label %7, label %9

7:                                                ; preds = %3
  %8 = bitcast %"struct.std::__1::pair.205"* %0 to %"class.std::__1::__basic_string_common"*
  tail call void @_ZNKSt3__121__basic_string_commonILb1EE20__throw_length_errorEv(%"class.std::__1::__basic_string_common"* %8) #16
  unreachable

9:                                                ; preds = %3
  %10 = icmp ult i64 %5, 23
  br i1 %10, label %19, label %11

11:                                               ; preds = %9
  %12 = add nuw i64 %5, 16
  %13 = and i64 %12, -16
  %14 = tail call i8* @_Znwm(i64 %13) #14
  %15 = getelementptr inbounds %"struct.std::__1::pair.205", %"struct.std::__1::pair.205"* %0, i64 0, i32 0, i32 0, i32 0, i32 0, i32 0, i32 0, i32 0
  store i8* %14, i8** %15, align 8
  %16 = or i64 %13, -9223372036854775808
  %17 = getelementptr inbounds %"struct.std::__1::pair.205", %"struct.std::__1::pair.205"* %0, i64 0, i32 0, i32 0, i32 0, i32 0, i32 0, i32 0, i32 2
  store i64 %16, i64* %17, align 8
  %18 = getelementptr inbounds %"struct.std::__1::pair.205", %"struct.std::__1::pair.205"* %0, i64 0, i32 0, i32 0, i32 0, i32 0, i32 0, i32 0, i32 1
  store i64 %5, i64* %18, align 8
  br label %25

19:                                               ; preds = %9
  %20 = trunc i64 %5 to i8
  %21 = bitcast %"struct.std::__1::pair.205"* %0 to %"struct.std::__1::basic_string<char, std::__1::char_traits<char>, std::__1::allocator<char> >::__short"*
  %22 = getelementptr inbounds %"struct.std::__1::basic_string<char, std::__1::char_traits<char>, std::__1::allocator<char> >::__short", %"struct.std::__1::basic_string<char, std::__1::char_traits<char>, std::__1::allocator<char> >::__short"* %21, i64 0, i32 1, i32 0
  store i8 %20, i8* %22, align 1
  %23 = bitcast %"struct.std::__1::pair.205"* %0 to i8*
  %24 = icmp eq i64 %5, 0
  br i1 %24, label %27, label %25

25:                                               ; preds = %19, %11
  %26 = phi i8* [ %14, %11 ], [ %23, %19 ]
  tail call void @llvm.memcpy.p0i8.p0i8.i64(i8* align 1 %26, i8* align 1 %4, i64 %5, i1 false) #15
  br label %27

27:                                               ; preds = %19, %25
  %28 = phi i8* [ %23, %19 ], [ %26, %25 ]
  %29 = getelementptr inbounds i8, i8* %28, i64 %5
  store i8 0, i8* %29, align 1
  %30 = getelementptr inbounds %"struct.std::__1::pair.205", %"struct.std::__1::pair.205"* %0, i64 0, i32 1
  %31 = getelementptr inbounds [32 x i8], [32 x i8]* %2, i64 0, i64 0
  %32 = tail call i64 @strlen(i8* %31) #15
  %33 = icmp ugt i64 %32, -17
  br i1 %33, label %34, label %36

34:                                               ; preds = %27
  %35 = bitcast %"class.std::__1::basic_string"* %30 to %"class.std::__1::__basic_string_common"*
  tail call void @_ZNKSt3__121__basic_string_commonILb1EE20__throw_length_errorEv(%"class.std::__1::__basic_string_common"* %35) #16
  unreachable

36:                                               ; preds = %27
  %37 = icmp ult i64 %32, 23
  br i1 %37, label %46, label %38

38:                                               ; preds = %36
  %39 = add nuw i64 %32, 16
  %40 = and i64 %39, -16
  %41 = tail call i8* @_Znwm(i64 %40) #14
  %42 = getelementptr inbounds %"class.std::__1::basic_string", %"class.std::__1::basic_string"* %30, i64 0, i32 0, i32 0, i32 0, i32 0, i32 0, i32 0
  store i8* %41, i8** %42, align 8
  %43 = or i64 %40, -9223372036854775808
  %44 = getelementptr inbounds %"struct.std::__1::pair.205", %"struct.std::__1::pair.205"* %0, i64 0, i32 1, i32 0, i32 0, i32 0, i32 0, i32 0, i32 2
  store i64 %43, i64* %44, align 8
  %45 = getelementptr inbounds %"struct.std::__1::pair.205", %"struct.std::__1::pair.205"* %0, i64 0, i32 1, i32 0, i32 0, i32 0, i32 0, i32 0, i32 1
  store i64 %32, i64* %45, align 8
  br label %52

46:                                               ; preds = %36
  %47 = trunc i64 %32 to i8
  %48 = bitcast %"class.std::__1::basic_string"* %30 to %"struct.std::__1::basic_string<char, std::__1::char_traits<char>, std::__1::allocator<char> >::__short"*
  %49 = getelementptr inbounds %"struct.std::__1::basic_string<char, std::__1::char_traits<char>, std::__1::allocator<char> >::__short", %"struct.std::__1::basic_string<char, std::__1::char_traits<char>, std::__1::allocator<char> >::__short"* %48, i64 0, i32 1, i32 0
  store i8 %47, i8* %49, align 1
  %50 = bitcast %"class.std::__1::basic_string"* %30 to i8*
  %51 = icmp eq i64 %32, 0
  br i1 %51, label %54, label %52

52:                                               ; preds = %46, %38
  %53 = phi i8* [ %41, %38 ], [ %50, %46 ]
  tail call void @llvm.memcpy.p0i8.p0i8.i64(i8* align 1 %53, i8* align 1 %31, i64 %32, i1 false) #15
  br label %54

54:                                               ; preds = %46, %52
  %55 = phi i8* [ %50, %46 ], [ %53, %52 ]
  %56 = getelementptr inbounds i8, i8* %55, i64 %32
  store i8 0, i8* %56, align 1
  ret void
}

; Function Attrs: nounwind ssp uwtable
define linkonce_odr hidden void @_ZNSt3__14pairIKNS_12basic_stringIcNS_11char_traitsIcEENS_9allocatorIcEEEES6_EC2IRA26_KcRA23_SA_Lb0EEEOT_OT0_(%"struct.std::__1::pair.205"*, [26 x i8]* dereferenceable(26), [23 x i8]* dereferenceable(23)) unnamed_addr #2 comdat align 2 {
  %4 = getelementptr inbounds [26 x i8], [26 x i8]* %1, i64 0, i64 0
  %5 = tail call i64 @strlen(i8* %4) #15
  %6 = icmp ugt i64 %5, -17
  br i1 %6, label %7, label %9

7:                                                ; preds = %3
  %8 = bitcast %"struct.std::__1::pair.205"* %0 to %"class.std::__1::__basic_string_common"*
  tail call void @_ZNKSt3__121__basic_string_commonILb1EE20__throw_length_errorEv(%"class.std::__1::__basic_string_common"* %8) #16
  unreachable

9:                                                ; preds = %3
  %10 = icmp ult i64 %5, 23
  br i1 %10, label %19, label %11

11:                                               ; preds = %9
  %12 = add nuw i64 %5, 16
  %13 = and i64 %12, -16
  %14 = tail call i8* @_Znwm(i64 %13) #14
  %15 = getelementptr inbounds %"struct.std::__1::pair.205", %"struct.std::__1::pair.205"* %0, i64 0, i32 0, i32 0, i32 0, i32 0, i32 0, i32 0, i32 0
  store i8* %14, i8** %15, align 8
  %16 = or i64 %13, -9223372036854775808
  %17 = getelementptr inbounds %"struct.std::__1::pair.205", %"struct.std::__1::pair.205"* %0, i64 0, i32 0, i32 0, i32 0, i32 0, i32 0, i32 0, i32 2
  store i64 %16, i64* %17, align 8
  %18 = getelementptr inbounds %"struct.std::__1::pair.205", %"struct.std::__1::pair.205"* %0, i64 0, i32 0, i32 0, i32 0, i32 0, i32 0, i32 0, i32 1
  store i64 %5, i64* %18, align 8
  br label %25

19:                                               ; preds = %9
  %20 = trunc i64 %5 to i8
  %21 = bitcast %"struct.std::__1::pair.205"* %0 to %"struct.std::__1::basic_string<char, std::__1::char_traits<char>, std::__1::allocator<char> >::__short"*
  %22 = getelementptr inbounds %"struct.std::__1::basic_string<char, std::__1::char_traits<char>, std::__1::allocator<char> >::__short", %"struct.std::__1::basic_string<char, std::__1::char_traits<char>, std::__1::allocator<char> >::__short"* %21, i64 0, i32 1, i32 0
  store i8 %20, i8* %22, align 1
  %23 = bitcast %"struct.std::__1::pair.205"* %0 to i8*
  %24 = icmp eq i64 %5, 0
  br i1 %24, label %27, label %25

25:                                               ; preds = %19, %11
  %26 = phi i8* [ %14, %11 ], [ %23, %19 ]
  tail call void @llvm.memcpy.p0i8.p0i8.i64(i8* align 1 %26, i8* align 1 %4, i64 %5, i1 false) #15
  br label %27

27:                                               ; preds = %19, %25
  %28 = phi i8* [ %23, %19 ], [ %26, %25 ]
  %29 = getelementptr inbounds i8, i8* %28, i64 %5
  store i8 0, i8* %29, align 1
  %30 = getelementptr inbounds %"struct.std::__1::pair.205", %"struct.std::__1::pair.205"* %0, i64 0, i32 1
  %31 = getelementptr inbounds [23 x i8], [23 x i8]* %2, i64 0, i64 0
  %32 = tail call i64 @strlen(i8* %31) #15
  %33 = icmp ugt i64 %32, -17
  br i1 %33, label %34, label %36

34:                                               ; preds = %27
  %35 = bitcast %"class.std::__1::basic_string"* %30 to %"class.std::__1::__basic_string_common"*
  tail call void @_ZNKSt3__121__basic_string_commonILb1EE20__throw_length_errorEv(%"class.std::__1::__basic_string_common"* %35) #16
  unreachable

36:                                               ; preds = %27
  %37 = icmp ult i64 %32, 23
  br i1 %37, label %46, label %38

38:                                               ; preds = %36
  %39 = add nuw i64 %32, 16
  %40 = and i64 %39, -16
  %41 = tail call i8* @_Znwm(i64 %40) #14
  %42 = getelementptr inbounds %"class.std::__1::basic_string", %"class.std::__1::basic_string"* %30, i64 0, i32 0, i32 0, i32 0, i32 0, i32 0, i32 0
  store i8* %41, i8** %42, align 8
  %43 = or i64 %40, -9223372036854775808
  %44 = getelementptr inbounds %"struct.std::__1::pair.205", %"struct.std::__1::pair.205"* %0, i64 0, i32 1, i32 0, i32 0, i32 0, i32 0, i32 0, i32 2
  store i64 %43, i64* %44, align 8
  %45 = getelementptr inbounds %"struct.std::__1::pair.205", %"struct.std::__1::pair.205"* %0, i64 0, i32 1, i32 0, i32 0, i32 0, i32 0, i32 0, i32 1
  store i64 %32, i64* %45, align 8
  br label %52

46:                                               ; preds = %36
  %47 = trunc i64 %32 to i8
  %48 = bitcast %"class.std::__1::basic_string"* %30 to %"struct.std::__1::basic_string<char, std::__1::char_traits<char>, std::__1::allocator<char> >::__short"*
  %49 = getelementptr inbounds %"struct.std::__1::basic_string<char, std::__1::char_traits<char>, std::__1::allocator<char> >::__short", %"struct.std::__1::basic_string<char, std::__1::char_traits<char>, std::__1::allocator<char> >::__short"* %48, i64 0, i32 1, i32 0
  store i8 %47, i8* %49, align 1
  %50 = bitcast %"class.std::__1::basic_string"* %30 to i8*
  %51 = icmp eq i64 %32, 0
  br i1 %51, label %54, label %52

52:                                               ; preds = %46, %38
  %53 = phi i8* [ %41, %38 ], [ %50, %46 ]
  tail call void @llvm.memcpy.p0i8.p0i8.i64(i8* align 1 %53, i8* align 1 %31, i64 %32, i1 false) #15
  br label %54

54:                                               ; preds = %46, %52
  %55 = phi i8* [ %50, %46 ], [ %53, %52 ]
  %56 = getelementptr inbounds i8, i8* %55, i64 %32
  store i8 0, i8* %56, align 1
  ret void
}

; Function Attrs: nounwind ssp uwtable
define linkonce_odr hidden void @_ZNSt3__14pairIKNS_12basic_stringIcNS_11char_traitsIcEENS_9allocatorIcEEEES6_EC2IRA38_KcRA23_SA_Lb0EEEOT_OT0_(%"struct.std::__1::pair.205"*, [38 x i8]* dereferenceable(38), [23 x i8]* dereferenceable(23)) unnamed_addr #2 comdat align 2 {
  %4 = getelementptr inbounds [38 x i8], [38 x i8]* %1, i64 0, i64 0
  %5 = tail call i64 @strlen(i8* %4) #15
  %6 = icmp ugt i64 %5, -17
  br i1 %6, label %7, label %9

7:                                                ; preds = %3
  %8 = bitcast %"struct.std::__1::pair.205"* %0 to %"class.std::__1::__basic_string_common"*
  tail call void @_ZNKSt3__121__basic_string_commonILb1EE20__throw_length_errorEv(%"class.std::__1::__basic_string_common"* %8) #16
