; ModuleID = '../../components/sync/driver/sync_driver_switches.cc'
source_filename = "../../components/sync/driver/sync_driver_switches.cc"
target datalayout = "e-m:e-i64:64-f80:128-n8:16:32:64-S128"
target triple = "x86_64-unknown-linux-gnu"

module asm ".symver exp, exp@GLIBC_2.2.5"
module asm ".symver exp2, exp2@GLIBC_2.2.5"
module asm ".symver exp2f, exp2f@GLIBC_2.2.5"
module asm ".symver expf, expf@GLIBC_2.2.5"
module asm ".symver lgamma, lgamma@GLIBC_2.2.5"
module asm ".symver lgammaf, lgammaf@GLIBC_2.2.5"
module asm ".symver lgammal, lgammal@GLIBC_2.2.5"
module asm ".symver log, log@GLIBC_2.2.5"
module asm ".symver log2, log2@GLIBC_2.2.5"
module asm ".symver log2f, log2f@GLIBC_2.2.5"
module asm ".symver logf, logf@GLIBC_2.2.5"
module asm ".symver pow, pow@GLIBC_2.2.5"
module asm ".symver powf, powf@GLIBC_2.2.5"

%"struct.base::Feature" = type { i8*, i32 }
%"struct.base::FeatureParam" = type { %"struct.base::Feature"*, i8*, %"class.base::TimeDelta" }
%"class.base::TimeDelta" = type { i64 }
%"class.base::CommandLine" = type { %"class.std::__1::vector", %"class.std::__1::map", i64 }
%"class.std::__1::vector" = type { %"class.std::__1::__vector_base" }
%"class.std::__1::__vector_base" = type { %"class.std::__1::basic_string"*, %"class.std::__1::basic_string"*, %"class.std::__1::__compressed_pair.1" }
%"class.std::__1::basic_string" = type { %"class.std::__1::__compressed_pair" }
%"class.std::__1::__compressed_pair" = type { %"struct.std::__1::__compressed_pair_elem" }
%"struct.std::__1::__compressed_pair_elem" = type { %"struct.std::__1::basic_string<char, std::__1::char_traits<char>, std::__1::allocator<char> >::__rep" }
%"struct.std::__1::basic_string<char, std::__1::char_traits<char>, std::__1::allocator<char> >::__rep" = type { %union.anon }
%union.anon = type { %"struct.std::__1::basic_string<char, std::__1::char_traits<char>, std::__1::allocator<char> >::__long" }
%"struct.std::__1::basic_string<char, std::__1::char_traits<char>, std::__1::allocator<char> >::__long" = type { i8*, i64, i64 }
%"class.std::__1::__compressed_pair.1" = type { %"struct.std::__1::__compressed_pair_elem.2" }
%"struct.std::__1::__compressed_pair_elem.2" = type { %"class.std::__1::basic_string"* }
%"class.std::__1::map" = type { %"class.std::__1::__tree" }
%"class.std::__1::__tree" = type { %"class.std::__1::__tree_end_node"*, %"class.std::__1::__compressed_pair.6", %"class.std::__1::__compressed_pair.11" }
%"class.std::__1::__tree_end_node" = type { %"class.std::__1::__tree_node_base"* }
%"class.std::__1::__tree_node_base" = type opaque
%"class.std::__1::__compressed_pair.6" = type { %"struct.std::__1::__compressed_pair_elem.7" }
%"struct.std::__1::__compressed_pair_elem.7" = type { %"class.std::__1::__tree_end_node" }
%"class.std::__1::__compressed_pair.11" = type { %"struct.std::__1::__compressed_pair_elem.12" }
%"struct.std::__1::__compressed_pair_elem.12" = type { i64 }

@_ZN8switches12kDisableSyncE = hidden constant [13 x i8] c"disable-sync\00", align 1
@_ZN8switches34kSyncDeferredStartupTimeoutSecondsE = hidden local_unnamed_addr constant [38 x i8] c"sync-deferred-startup-timeout-seconds\00", align 16
@_ZN8switches27kSyncDisableDeferredStartupE = hidden local_unnamed_addr constant [30 x i8] c"sync-disable-deferred-startup\00", align 16
@_ZN8switches34kSyncIncludeSpecificsInProtocolLogE = hidden local_unnamed_addr constant [23 x i8] c"sync-include-specifics\00", align 16
@_ZN8switches30kSyncShortInitialRetryOverrideE = hidden local_unnamed_addr constant [34 x i8] c"sync-short-initial-retry-override\00", align 16
@_ZN8switches27kSyncShortNudgeDelayForTestE = hidden local_unnamed_addr constant [32 x i8] c"sync-short-nudge-delay-for-test\00", align 16
@.str = private unnamed_addr constant [63 x i8] c"SyncAllowAutofillWalletDataInTransportModeWithCustomPassphrase\00", align 1
@_ZN8switches55kSyncAllowWalletDataInTransportModeWithCustomPassphraseE = hidden local_unnamed_addr constant %"struct.base::Feature" { i8* getelementptr inbounds ([63 x i8], [63 x i8]* @.str, i32 0, i32 0), i32 0 }, align 8
@.str.2 = private unnamed_addr constant [28 x i8] c"SyncAutofillWalletOfferData\00", align 1
@_ZN8switches28kSyncAutofillWalletOfferDataE = hidden local_unnamed_addr constant %"struct.base::Feature" { i8* getelementptr inbounds ([28 x i8], [28 x i8]* @.str.2, i32 0, i32 0), i32 1 }, align 8
@.str.3 = private unnamed_addr constant [23 x i8] c"SyncWifiConfigurations\00", align 1
@_ZN8switches23kSyncWifiConfigurationsE = hidden local_unnamed_addr constant %"struct.base::Feature" { i8* getelementptr inbounds ([23 x i8], [23 x i8]* @.str.3, i32 0, i32 0), i32 1 }, align 8
@.str.4 = private unnamed_addr constant [34 x i8] c"DecoupleSyncFromAndroidMasterSync\00", align 1
@_ZN8switches34kDecoupleSyncFromAndroidMasterSyncE = hidden local_unnamed_addr constant %"struct.base::Feature" { i8* getelementptr inbounds ([34 x i8], [34 x i8]* @.str.4, i32 0, i32 0), i32 1 }, align 8
@.str.5 = private unnamed_addr constant [27 x i8] c"SyncRequiresPoliciesLoaded\00", align 1
@_ZN8switches27kSyncRequiresPoliciesLoadedE = hidden constant %"struct.base::Feature" { i8* getelementptr inbounds ([27 x i8], [27 x i8]* @.str.5, i32 0, i32 0), i32 0 }, align 8
@.str.6 = private unnamed_addr constant [22 x i8] c"SyncPolicyLoadTimeout\00", align 1
@_ZN8switches22kSyncPolicyLoadTimeoutE = hidden local_unnamed_addr constant %"struct.base::FeatureParam" { %"struct.base::Feature"* @_ZN8switches27kSyncRequiresPoliciesLoadedE, i8* getelementptr inbounds ([22 x i8], [22 x i8]* @.str.6, i32 0, i32 0), %"class.base::TimeDelta" { i64 10000000 } }, align 8
@.str.7 = private unnamed_addr constant [42 x i8] c"SyncSupportTrustedVaultPassphraseRecovery\00", align 1
@_ZN8switches42kSyncSupportTrustedVaultPassphraseRecoveryE = hidden local_unnamed_addr constant %"struct.base::Feature" { i8* getelementptr inbounds ([42 x i8], [42 x i8]* @.str.7, i32 0, i32 0), i32 0 }, align 8
@.str.8 = private unnamed_addr constant [27 x i8] c"SyncOfferTrustedVaultOptIn\00", align 1
@_ZN8switches27kSyncOfferTrustedVaultOptInE = hidden local_unnamed_addr constant %"struct.base::Feature" { i8* getelementptr inbounds ([27 x i8], [27 x i8]* @.str.8, i32 0, i32 0), i32 0 }, align 8

; Function Attrs: nounwind ssp uwtable
define hidden zeroext i1 @_ZN8switches19IsSyncAllowedByFlagEv() local_unnamed_addr #0 {
  %1 = tail call %"class.base::CommandLine"* @_ZN4base11CommandLine17ForCurrentProcessEv() #2
  %2 = tail call zeroext i1 @_ZNK4base11CommandLine9HasSwitchEPKc(%"class.base::CommandLine"* %1, i8* getelementptr inbounds ([13 x i8], [13 x i8]* @_ZN8switches12kDisableSyncE, i64 0, i64 0)) #2
  %3 = xor i1 %2, true
  ret i1 %3
}

declare %"class.base::CommandLine"* @_ZN4base11CommandLine17ForCurrentProcessEv() local_unnamed_addr #1

declare zeroext i1 @_ZNK4base11CommandLine9HasSwitchEPKc(%"class.base::CommandLine"*, i8*) local_unnamed_addr #1

attributes #0 = { nounwind ssp uwtable "correctly-rounded-divide-sqrt-fp-math"="false" "disable-tail-calls"="false" "less-precise-fpmad"="false" "min-legal-vector-width"="0" "no-frame-pointer-elim"="false" "no-frame-pointer-elim-non-leaf" "no-infs-fp-math"="false" "no-jump-tables"="false" "no-nans-fp-math"="false" "no-signed-zeros-fp-math"="false" "no-trapping-math"="false" "null-pointer-is-valid"="true" "stack-protector-buffer-size"="4" "target-cpu"="x86-64" "target-features"="+cx8,+fxsr,+mmx,+sse,+sse2,+sse3,+x87" "unsafe-fp-math"="false" "use-soft-float"="false" }
attributes #1 = { "correctly-rounded-divide-sqrt-fp-math"="false" "disable-tail-calls"="false" "less-precise-fpmad"="false" "no-frame-pointer-elim"="false" "no-frame-pointer-elim-non-leaf" "no-infs-fp-math"="false" "no-nans-fp-math"="false" "no-signed-zeros-fp-math"="false" "no-trapping-math"="false" "null-pointer-is-valid"="true" "stack-protector-buffer-size"="4" "target-cpu"="x86-64" "target-features"="+cx8,+fxsr,+mmx,+sse,+sse2,+sse3,+x87" "unsafe-fp-math"="false" "use-soft-float"="false" }
attributes #2 = { nounwind }

!llvm.module.flags = !{!0, !1}

!0 = !{i32 1, !"wchar_size", i32 4}
!1 = !{i32 7, !"PIC Level", i32 2}
