; ModuleID = 'gen/third_party/metrics_proto/system_profile.pb.cc'
source_filename = "gen/third_party/metrics_proto/system_profile.pb.cc"
target datalayout = "e-m:e-i64:64-f80:128-n8:16:32:64-S128"
target triple = "x86_64-unknown-linux-gnu"

module asm ".symver exp, exp@GLIBC_2.2.5"
module asm ".symver exp2, exp2@GLIBC_2.2.5"
module asm ".symver exp2f, exp2f@GLIBC_2.2.5"
module asm ".symver expf, expf@GLIBC_2.2.5"
module asm ".symver lgamma, lgamma@GLIBC_2.2.5"
module asm ".symver lgammaf, lgammaf@GLIBC_2.2.5"
module asm ".symver lgammal, lgammal@GLIBC_2.2.5"
module asm ".symver log, log@GLIBC_2.2.5"
module asm ".symver log2, log2@GLIBC_2.2.5"
module asm ".symver log2f, log2f@GLIBC_2.2.5"
module asm ".symver logf, logf@GLIBC_2.2.5"
module asm ".symver pow, pow@GLIBC_2.2.5"
module asm ".symver powf, powf@GLIBC_2.2.5"

%"class.metrics::SystemProfileProto_OS_ArcDefaultTypeInternal" = type { %"class.google::protobuf::internal::ExplicitlyConstructed" }
%"class.google::protobuf::internal::ExplicitlyConstructed" = type { %"union.google::protobuf::internal::ExplicitlyConstructed<metrics::SystemProfileProto_OS_Arc>::AlignedUnion" }
%"union.google::protobuf::internal::ExplicitlyConstructed<metrics::SystemProfileProto_OS_Arc>::AlignedUnion" = type { i64, [24 x i8] }
%"class.metrics::SystemProfileProto_OSDefaultTypeInternal" = type { %"class.google::protobuf::internal::ExplicitlyConstructed.0" }
%"class.google::protobuf::internal::ExplicitlyConstructed.0" = type { %"union.google::protobuf::internal::ExplicitlyConstructed<metrics::SystemProfileProto_OS>::AlignedUnion" }
%"union.google::protobuf::internal::ExplicitlyConstructed<metrics::SystemProfileProto_OS>::AlignedUnion" = type { i64, [72 x i8] }
%"class.metrics::SystemProfileProto_Hardware_CPUDefaultTypeInternal" = type { %"class.google::protobuf::internal::ExplicitlyConstructed.1" }
%"class.google::protobuf::internal::ExplicitlyConstructed.1" = type { %"union.google::protobuf::internal::ExplicitlyConstructed<metrics::SystemProfileProto_Hardware_CPU>::AlignedUnion" }
%"union.google::protobuf::internal::ExplicitlyConstructed<metrics::SystemProfileProto_Hardware_CPU>::AlignedUnion" = type { i64, [40 x i8] }
%"class.metrics::SystemProfileProto_Hardware_GraphicsDefaultTypeInternal" = type { %"class.google::protobuf::internal::ExplicitlyConstructed.2" }
%"class.google::protobuf::internal::ExplicitlyConstructed.2" = type { %"union.google::protobuf::internal::ExplicitlyConstructed<metrics::SystemProfileProto_Hardware_Graphics>::AlignedUnion" }
%"union.google::protobuf::internal::ExplicitlyConstructed<metrics::SystemProfileProto_Hardware_Graphics>::AlignedUnion" = type { i64, [48 x i8] }
%"class.metrics::SystemProfileProto_Hardware_InternalStorageDeviceDefaultTypeInternal" = type { %"class.google::protobuf::internal::ExplicitlyConstructed.3" }
%"class.google::protobuf::internal::ExplicitlyConstructed.3" = type { %"union.google::protobuf::internal::ExplicitlyConstructed<metrics::SystemProfileProto_Hardware_InternalStorageDevice>::AlignedUnion" }
%"union.google::protobuf::internal::ExplicitlyConstructed<metrics::SystemProfileProto_Hardware_InternalStorageDevice>::AlignedUnion" = type { i64, [64 x i8] }
%"class.metrics::SystemProfileProto_Hardware_DriveDefaultTypeInternal" = type { %"class.google::protobuf::internal::ExplicitlyConstructed.4" }
%"class.google::protobuf::internal::ExplicitlyConstructed.4" = type { %"union.google::protobuf::internal::ExplicitlyConstructed<metrics::SystemProfileProto_Hardware_Drive>::AlignedUnion" }
%"union.google::protobuf::internal::ExplicitlyConstructed<metrics::SystemProfileProto_Hardware_Drive>::AlignedUnion" = type { i64, [24 x i8] }
%"class.metrics::SystemProfileProto_HardwareDefaultTypeInternal" = type { %"class.google::protobuf::internal::ExplicitlyConstructed.5" }
%"class.google::protobuf::internal::ExplicitlyConstructed.5" = type { %"union.google::protobuf::internal::ExplicitlyConstructed<metrics::SystemProfileProto_Hardware>::AlignedUnion" }
%"union.google::protobuf::internal::ExplicitlyConstructed<metrics::SystemProfileProto_Hardware>::AlignedUnion" = type { i64, [152 x i8] }
%"class.metrics::SystemProfileProto_NetworkDefaultTypeInternal" = type { %"class.google::protobuf::internal::ExplicitlyConstructed.6" }
%"class.google::protobuf::internal::ExplicitlyConstructed.6" = type { %"union.google::protobuf::internal::ExplicitlyConstructed<metrics::SystemProfileProto_Network>::AlignedUnion" }
%"union.google::protobuf::internal::ExplicitlyConstructed<metrics::SystemProfileProto_Network>::AlignedUnion" = type { i64, [40 x i8] }
%"class.metrics::SystemProfileProto_GoogleUpdate_ProductInfoDefaultTypeInternal" = type { %"class.google::protobuf::internal::ExplicitlyConstructed.7" }
%"class.google::protobuf::internal::ExplicitlyConstructed.7" = type { %"union.google::protobuf::internal::ExplicitlyConstructed<metrics::SystemProfileProto_GoogleUpdate_ProductInfo>::AlignedUnion" }
%"union.google::protobuf::internal::ExplicitlyConstructed<metrics::SystemProfileProto_GoogleUpdate_ProductInfo>::AlignedUnion" = type { i64, [48 x i8] }
%"class.metrics::SystemProfileProto_GoogleUpdateDefaultTypeInternal" = type { %"class.google::protobuf::internal::ExplicitlyConstructed.8" }
%"class.google::protobuf::internal::ExplicitlyConstructed.8" = type { %"union.google::protobuf::internal::ExplicitlyConstructed<metrics::SystemProfileProto_GoogleUpdate>::AlignedUnion" }
%"union.google::protobuf::internal::ExplicitlyConstructed<metrics::SystemProfileProto_GoogleUpdate>::AlignedUnion" = type { i64, [56 x i8] }
%"class.metrics::SystemProfileProto_PluginDefaultTypeInternal" = type { %"class.google::protobuf::internal::ExplicitlyConstructed.9" }
%"class.google::protobuf::internal::ExplicitlyConstructed.9" = type { %"union.google::protobuf::internal::ExplicitlyConstructed<metrics::SystemProfileProto_Plugin>::AlignedUnion" }
%"union.google::protobuf::internal::ExplicitlyConstructed<metrics::SystemProfileProto_Plugin>::AlignedUnion" = type { i64, [48 x i8] }
%"class.metrics::SystemProfileProto_Stability_PluginStabilityDefaultTypeInternal" = type { %"class.google::protobuf::internal::ExplicitlyConstructed.10" }
%"class.google::protobuf::internal::ExplicitlyConstructed.10" = type { %"union.google::protobuf::internal::ExplicitlyConstructed<metrics::SystemProfileProto_Stability_PluginStability>::AlignedUnion" }
%"union.google::protobuf::internal::ExplicitlyConstructed<metrics::SystemProfileProto_Stability_PluginStability>::AlignedUnion" = type { i64, [40 x i8] }
%"class.metrics::SystemProfileProto_StabilityDefaultTypeInternal" = type { %"class.google::protobuf::internal::ExplicitlyConstructed.11" }
%"class.google::protobuf::internal::ExplicitlyConstructed.11" = type { %"union.google::protobuf::internal::ExplicitlyConstructed<metrics::SystemProfileProto_Stability>::AlignedUnion" }
%"union.google::protobuf::internal::ExplicitlyConstructed<metrics::SystemProfileProto_Stability>::AlignedUnion" = type { i64, [144 x i8] }
%"class.metrics::SystemProfileProto_FieldTrialDefaultTypeInternal" = type { %"class.google::protobuf::internal::ExplicitlyConstructed.12" }
%"class.google::protobuf::internal::ExplicitlyConstructed.12" = type { %"union.google::protobuf::internal::ExplicitlyConstructed<metrics::SystemProfileProto_FieldTrial>::AlignedUnion" }
%"union.google::protobuf::internal::ExplicitlyConstructed<metrics::SystemProfileProto_FieldTrial>::AlignedUnion" = type { i64, [24 x i8] }
%"class.metrics::SystemProfileProto_ExternalAudioVideoDevice_AudioDescriptionDefaultTypeInternal" = type { %"class.google::protobuf::internal::ExplicitlyConstructed.13" }
%"class.google::protobuf::internal::ExplicitlyConstructed.13" = type { %"union.google::protobuf::internal::ExplicitlyConstructed<metrics::SystemProfileProto_ExternalAudioVideoDevice_AudioDescription>::AlignedUnion" }
%"union.google::protobuf::internal::ExplicitlyConstructed<metrics::SystemProfileProto_ExternalAudioVideoDevice_AudioDescription>::AlignedUnion" = type { i64, [56 x i8] }
%"class.metrics::SystemProfileProto_ExternalAudioVideoDevice_CECCommandDefaultTypeInternal" = type { %"class.google::protobuf::internal::ExplicitlyConstructed.14" }
%"class.google::protobuf::internal::ExplicitlyConstructed.14" = type { %"union.google::protobuf::internal::ExplicitlyConstructed<metrics::SystemProfileProto_ExternalAudioVideoDevice_CECCommand>::AlignedUnion" }
%"union.google::protobuf::internal::ExplicitlyConstructed<metrics::SystemProfileProto_ExternalAudioVideoDevice_CECCommand>::AlignedUnion" = type { i64, [48 x i8] }
%"class.metrics::SystemProfileProto_ExternalAudioVideoDeviceDefaultTypeInternal" = type { %"class.google::protobuf::internal::ExplicitlyConstructed.15" }
%"class.google::protobuf::internal::ExplicitlyConstructed.15" = type { %"union.google::protobuf::internal::ExplicitlyConstructed<metrics::SystemProfileProto_ExternalAudioVideoDevice>::AlignedUnion" }
%"union.google::protobuf::internal::ExplicitlyConstructed<metrics::SystemProfileProto_ExternalAudioVideoDevice>::AlignedUnion" = type { i64, [168 x i8] }
%"class.metrics::SystemProfileProto_ExternalAccessPointDefaultTypeInternal" = type { %"class.google::protobuf::internal::ExplicitlyConstructed.16" }
%"class.google::protobuf::internal::ExplicitlyConstructed.16" = type { %"union.google::protobuf::internal::ExplicitlyConstructed<metrics::SystemProfileProto_ExternalAccessPoint>::AlignedUnion" }
%"union.google::protobuf::internal::ExplicitlyConstructed<metrics::SystemProfileProto_ExternalAccessPoint>::AlignedUnion" = type { i64, [48 x i8] }
%"class.metrics::SystemProfileProto_AntiVirusProductDefaultTypeInternal" = type { %"class.google::protobuf::internal::ExplicitlyConstructed.17" }
%"class.google::protobuf::internal::ExplicitlyConstructed.17" = type { %"union.google::protobuf::internal::ExplicitlyConstructed<metrics::SystemProfileProto_AntiVirusProduct>::AlignedUnion" }
%"union.google::protobuf::internal::ExplicitlyConstructed<metrics::SystemProfileProto_AntiVirusProduct>::AlignedUnion" = type { i64, [48 x i8] }
%"class.metrics::SystemProfileProto_ChromeComponentDefaultTypeInternal" = type { %"class.google::protobuf::internal::ExplicitlyConstructed.18" }
%"class.google::protobuf::internal::ExplicitlyConstructed.18" = type { %"union.google::protobuf::internal::ExplicitlyConstructed<metrics::SystemProfileProto_ChromeComponent>::AlignedUnion" }
%"union.google::protobuf::internal::ExplicitlyConstructed<metrics::SystemProfileProto_ChromeComponent>::AlignedUnion" = type { i64, [32 x i8] }
%"class.metrics::SystemProfileProto_LinkedAndroidPhoneDataDefaultTypeInternal" = type { %"class.google::protobuf::internal::ExplicitlyConstructed.19" }
%"class.google::protobuf::internal::ExplicitlyConstructed.19" = type { %"union.google::protobuf::internal::ExplicitlyConstructed<metrics::SystemProfileProto_LinkedAndroidPhoneData>::AlignedUnion" }
%"union.google::protobuf::internal::ExplicitlyConstructed<metrics::SystemProfileProto_LinkedAndroidPhoneData>::AlignedUnion" = type { i64, [24 x i8] }
%"class.metrics::SystemProfileProtoDefaultTypeInternal" = type { %"class.google::protobuf::internal::ExplicitlyConstructed.20" }
%"class.google::protobuf::internal::ExplicitlyConstructed.20" = type { %"union.google::protobuf::internal::ExplicitlyConstructed<metrics::SystemProfileProto>::AlignedUnion" }
%"union.google::protobuf::internal::ExplicitlyConstructed<metrics::SystemProfileProto>::AlignedUnion" = type { i64, [368 x i8] }
%"struct.google::protobuf::internal::SCCInfo.23" = type { %"struct.google::protobuf::internal::SCCInfoBase", [0 x i8*] }
%"struct.google::protobuf::internal::SCCInfoBase" = type { %"struct.std::__1::atomic", i32, i32, void ()* }
%"struct.std::__1::atomic" = type { %"struct.std::__1::__atomic_base" }
%"struct.std::__1::__atomic_base" = type { %"struct.std::__1::__atomic_base.21" }
%"struct.std::__1::__atomic_base.21" = type { %"struct.std::__1::__cxx_atomic_impl" }
%"struct.std::__1::__cxx_atomic_impl" = type { %"struct.std::__1::__cxx_atomic_base_impl" }
%"struct.std::__1::__cxx_atomic_base_impl" = type { i32 }
%"struct.google::protobuf::internal::EnumEntry" = type <{ %"class.google::protobuf::StringPiece", i32, [4 x i8] }>
%"class.google::protobuf::StringPiece" = type { i8*, i64 }
%"class.google::protobuf::internal::ExplicitlyConstructed.27" = type { %"union.google::protobuf::internal::ExplicitlyConstructed<std::__1::basic_string<char, std::__1::char_traits<char>, std::__1::allocator<char> > >::AlignedUnion" }
%"union.google::protobuf::internal::ExplicitlyConstructed<std::__1::basic_string<char, std::__1::char_traits<char>, std::__1::allocator<char> > >::AlignedUnion" = type { i64, [16 x i8] }
%"class.metrics::SystemProfileProto_OS_Arc" = type { %"class.google::protobuf::MessageLite", %"class.google::protobuf::internal::HasBits", %"class.google::protobuf::internal::CachedSize", %"struct.google::protobuf::internal::ArenaStringPtr" }
%"class.google::protobuf::MessageLite" = type { i32 (...)**, %"class.google::protobuf::internal::InternalMetadata" }
%"class.google::protobuf::internal::InternalMetadata" = type { i8* }
%"class.google::protobuf::internal::HasBits" = type { [1 x i32] }
%"class.google::protobuf::internal::CachedSize" = type { %"struct.std::__1::atomic" }
%"struct.google::protobuf::internal::ArenaStringPtr" = type { %"class.std::__1::basic_string"* }
%"class.std::__1::basic_string" = type { %"class.std::__1::__compressed_pair" }
%"class.std::__1::__compressed_pair" = type { %"struct.std::__1::__compressed_pair_elem" }
%"struct.std::__1::__compressed_pair_elem" = type { %"struct.std::__1::basic_string<char, std::__1::char_traits<char>, std::__1::allocator<char> >::__rep" }
%"struct.std::__1::basic_string<char, std::__1::char_traits<char>, std::__1::allocator<char> >::__rep" = type { %union.anon }
%union.anon = type { %"struct.std::__1::basic_string<char, std::__1::char_traits<char>, std::__1::allocator<char> >::__long" }
%"struct.std::__1::basic_string<char, std::__1::char_traits<char>, std::__1::allocator<char> >::__long" = type { i8*, i64, i64 }
%"class.google::protobuf::Arena" = type { %"class.google::protobuf::internal::ArenaImpl", void (%"class.std::type_info"*, i64, i8*)*, void (%"class.google::protobuf::Arena"*, i8*, i64)*, void (%"class.google::protobuf::Arena"*, i8*, i64)*, i8* }
%"class.google::protobuf::internal::ArenaImpl" = type { %"struct.std::__1::atomic.28", %"struct.std::__1::atomic.28", %"struct.std::__1::atomic.32", %"class.google::protobuf::internal::ArenaImpl::Block"*, i64, %"struct.google::protobuf::internal::ArenaImpl::Options" }
%"struct.std::__1::atomic.28" = type { %"struct.std::__1::__atomic_base.29" }
%"struct.std::__1::__atomic_base.29" = type { %"struct.std::__1::__cxx_atomic_impl.30" }
%"struct.std::__1::__cxx_atomic_impl.30" = type { %"struct.std::__1::__cxx_atomic_base_impl.31" }
%"struct.std::__1::__cxx_atomic_base_impl.31" = type { %"class.google::protobuf::internal::ArenaImpl::SerialArena"* }
%"class.google::protobuf::internal::ArenaImpl::SerialArena" = type { %"class.google::protobuf::internal::ArenaImpl"*, i8*, %"class.google::protobuf::internal::ArenaImpl::Block"*, %"struct.google::protobuf::internal::ArenaImpl::CleanupChunk"*, %"class.google::protobuf::internal::ArenaImpl::SerialArena"*, i8*, i8*, %"struct.google::protobuf::internal::ArenaImpl::CleanupNode"*, %"struct.google::protobuf::internal::ArenaImpl::CleanupNode"* }
%"struct.google::protobuf::internal::ArenaImpl::CleanupChunk" = type { i64, %"struct.google::protobuf::internal::ArenaImpl::CleanupChunk"*, [1 x %"struct.google::protobuf::internal::ArenaImpl::CleanupNode"] }
%"struct.google::protobuf::internal::ArenaImpl::CleanupNode" = type { i8*, void (i8*)* }
%"struct.std::__1::atomic.32" = type { %"struct.std::__1::__atomic_base.33" }
%"struct.std::__1::__atomic_base.33" = type { %"struct.std::__1::__atomic_base.34" }
%"struct.std::__1::__atomic_base.34" = type { %"struct.std::__1::__cxx_atomic_impl.35" }
%"struct.std::__1::__cxx_atomic_impl.35" = type { %"struct.std::__1::__cxx_atomic_base_impl.36" }
%"struct.std::__1::__cxx_atomic_base_impl.36" = type { i64 }
%"class.google::protobuf::internal::ArenaImpl::Block" = type { %"class.google::protobuf::internal::ArenaImpl::Block"*, i64, i64 }
%"struct.google::protobuf::internal::ArenaImpl::Options" = type { i64, i64, i8*, i64, i8* (i64)*, void (i8*, i64)* }
%"class.std::type_info" = type { i32 (...)**, i8* }
%"class.metrics::SystemProfileProto_OS" = type <{ %"class.google::protobuf::MessageLite", %"class.google::protobuf::internal::HasBits", %"class.google::protobuf::internal::CachedSize", %"struct.google::protobuf::internal::ArenaStringPtr", %"struct.google::protobuf::internal::ArenaStringPtr", %"struct.google::protobuf::internal::ArenaStringPtr", %"struct.google::protobuf::internal::ArenaStringPtr", %"struct.google::protobuf::internal::ArenaStringPtr", %"class.metrics::SystemProfileProto_OS_Arc"*, i8, [7 x i8] }>
%"class.metrics::SystemProfileProto_Hardware_CPU" = type <{ %"class.google::protobuf::MessageLite", %"class.google::protobuf::internal::HasBits", %"class.google::protobuf::internal::CachedSize", %"struct.google::protobuf::internal::ArenaStringPtr", i32, i32, i8, [7 x i8] }>
%"class.metrics::SystemProfileProto_Hardware_Graphics" = type { %"class.google::protobuf::MessageLite", %"class.google::protobuf::internal::HasBits", %"class.google::protobuf::internal::CachedSize", %"struct.google::protobuf::internal::ArenaStringPtr", %"struct.google::protobuf::internal::ArenaStringPtr", %"struct.google::protobuf::internal::ArenaStringPtr", i32, i32 }
%"class.metrics::SystemProfileProto_Hardware_InternalStorageDevice" = type <{ %"class.google::protobuf::MessageLite", %"class.google::protobuf::internal::HasBits", %"class.google::protobuf::internal::CachedSize", %"struct.google::protobuf::internal::ArenaStringPtr", i64, i32, i32, i64, i32, i32, i32, [4 x i8] }>
%"class.metrics::SystemProfileProto_Hardware_Drive" = type <{ %"class.google::protobuf::MessageLite", %"class.google::protobuf::internal::HasBits", %"class.google::protobuf::internal::CachedSize", i8, [7 x i8] }>
%"class.metrics::SystemProfileProto_Hardware" = type <{ %"class.google::protobuf::MessageLite", %"class.google::protobuf::internal::HasBits", %"class.google::protobuf::internal::CachedSize", %"class.google::protobuf::RepeatedPtrField", %"struct.google::protobuf::internal::ArenaStringPtr", %"struct.google::protobuf::internal::ArenaStringPtr", %"struct.google::protobuf::internal::ArenaStringPtr", %"struct.google::protobuf::internal::ArenaStringPtr", %"class.metrics::SystemProfileProto_Hardware_Graphics"*, %"class.metrics::SystemProfileProto_Hardware_CPU"*, %"class.metrics::SystemProfileProto_Hardware_Drive"*, %"class.metrics::SystemProfileProto_Hardware_Drive"*, i64, i64, i32, i32, i32, float, float, float, i8, [7 x i8] }>
%"class.google::protobuf::RepeatedPtrField" = type { %"class.google::protobuf::internal::RepeatedPtrFieldBase" }
%"class.google::protobuf::internal::RepeatedPtrFieldBase" = type { %"class.google::protobuf::Arena"*, i32, i32, %"struct.google::protobuf::internal::RepeatedPtrFieldBase::Rep"* }
%"struct.google::protobuf::internal::RepeatedPtrFieldBase::Rep" = type { i32, [268435454 x i8*] }
%"class.metrics::SystemProfileProto_Network" = type <{ %"class.google::protobuf::MessageLite", %"class.google::protobuf::internal::HasBits", %"class.google::protobuf::internal::CachedSize", i32, i8, i8, [2 x i8], i32, i32, i32, [4 x i8] }>
%"class.metrics::SystemProfileProto_GoogleUpdate_ProductInfo" = type <{ %"class.google::protobuf::MessageLite", %"class.google::protobuf::internal::HasBits", %"class.google::protobuf::internal::CachedSize", %"struct.google::protobuf::internal::ArenaStringPtr", i64, i32, i32, i32, [4 x i8] }>
%"class.metrics::SystemProfileProto_GoogleUpdate" = type <{ %"class.google::protobuf::MessageLite", %"class.google::protobuf::internal::HasBits", %"class.google::protobuf::internal::CachedSize", %"class.metrics::SystemProfileProto_GoogleUpdate_ProductInfo"*, %"class.metrics::SystemProfileProto_GoogleUpdate_ProductInfo"*, i64, i64, i8, [7 x i8] }>
%"class.metrics::SystemProfileProto_Plugin" = type <{ %"class.google::protobuf::MessageLite", %"class.google::protobuf::internal::HasBits", %"class.google::protobuf::internal::CachedSize", %"struct.google::protobuf::internal::ArenaStringPtr", %"struct.google::protobuf::internal::ArenaStringPtr", %"struct.google::protobuf::internal::ArenaStringPtr", i8, i8, [6 x i8] }>
%"class.metrics::SystemProfileProto_Stability_PluginStability" = type { %"class.google::protobuf::MessageLite", %"class.google::protobuf::internal::HasBits", %"class.google::protobuf::internal::CachedSize", %"class.metrics::SystemProfileProto_Plugin"*, i32, i32, i32, i32 }
%"class.metrics::SystemProfileProto_Stability" = type { %"class.google::protobuf::MessageLite", %"class.google::protobuf::internal::HasBits", %"class.google::protobuf::internal::CachedSize", %"class.google::protobuf::RepeatedPtrField.37", i64, i32, i32, i32, i32, i32, i32, i32, i32, i32, i32, i32, i32, i32, i32, i32, i32, i64, i32, i32, i32, i8, i32, i32 }
%"class.google::protobuf::RepeatedPtrField.37" = type { %"class.google::protobuf::internal::RepeatedPtrFieldBase" }
%"class.metrics::SystemProfileProto_FieldTrial" = type { %"class.google::protobuf::MessageLite", %"class.google::protobuf::internal::HasBits", %"class.google::protobuf::internal::CachedSize", i32, i32 }
%"class.metrics::SystemProfileProto_ExternalAudioVideoDevice_AudioDescription" = type <{ %"class.google::protobuf::MessageLite", %"class.google::protobuf::internal::HasBits", %"class.google::protobuf::internal::CachedSize", %"class.google::protobuf::RepeatedField", i32, i32, i32, i32, i32, [4 x i8] }>
%"class.google::protobuf::RepeatedField" = type { i32, i32, i8* }
%"class.metrics::SystemProfileProto_ExternalAudioVideoDevice_CECCommand" = type <{ %"class.google::protobuf::MessageLite", %"class.google::protobuf::internal::HasBits", %"class.google::protobuf::internal::CachedSize", i32, i32, i32, i32, i32, i32, i32, [4 x i8] }>
%"class.metrics::SystemProfileProto_ExternalAudioVideoDevice" = type <{ %"class.google::protobuf::MessageLite", %"class.google::protobuf::internal::HasBits", %"class.google::protobuf::internal::CachedSize", %"class.google::protobuf::RepeatedField", %"class.google::protobuf::RepeatedPtrField.39", %"class.google::protobuf::RepeatedPtrField.40", %"struct.google::protobuf::internal::ArenaStringPtr", %"struct.google::protobuf::internal::ArenaStringPtr", %"struct.google::protobuf::internal::ArenaStringPtr", i32, i32, i32, i32, i32, i32, i32, i32, i32, i32, i8, i8, i8, i8, i32, i8, [3 x i8], i32, i32, [4 x i8] }>
%"class.google::protobuf::RepeatedPtrField.39" = type { %"class.google::protobuf::internal::RepeatedPtrFieldBase" }
%"class.google::protobuf::RepeatedPtrField.40" = type { %"class.google::protobuf::internal::RepeatedPtrFieldBase" }
%"class.metrics::SystemProfileProto_ExternalAccessPoint" = type { %"class.google::protobuf::MessageLite", %"class.google::protobuf::internal::HasBits", %"class.google::protobuf::internal::CachedSize", %"struct.google::protobuf::internal::ArenaStringPtr", %"struct.google::protobuf::internal::ArenaStringPtr", %"struct.google::protobuf::internal::ArenaStringPtr", %"struct.google::protobuf::internal::ArenaStringPtr" }
%"class.metrics::SystemProfileProto_AntiVirusProduct" = type <{ %"class.google::protobuf::MessageLite", %"class.google::protobuf::internal::HasBits", %"class.google::protobuf::internal::CachedSize", %"struct.google::protobuf::internal::ArenaStringPtr", %"struct.google::protobuf::internal::ArenaStringPtr", i32, i32, i32, [4 x i8] }>
%"class.metrics::SystemProfileProto_ChromeComponent" = type { %"class.google::protobuf::MessageLite", %"class.google::protobuf::internal::HasBits", %"class.google::protobuf::internal::CachedSize", %"struct.google::protobuf::internal::ArenaStringPtr", i32, i32 }
%"class.metrics::SystemProfileProto_LinkedAndroidPhoneData" = type <{ %"class.google::protobuf::MessageLite", %"class.google::protobuf::internal::HasBits", %"class.google::protobuf::internal::CachedSize", i32, i8, i8, i8, i8 }>
%"class.metrics::SystemProfileProto" = type <{ %"class.google::protobuf::MessageLite", %"class.google::protobuf::internal::HasBits", %"class.google::protobuf::internal::CachedSize", %"class.google::protobuf::RepeatedPtrField.43", %"class.google::protobuf::RepeatedPtrField.44", %"class.google::protobuf::RepeatedPtrField.45", %"class.google::protobuf::RepeatedField", %"class.google::protobuf::RepeatedPtrField.46", %"class.google::protobuf::RepeatedPtrField.47", %"class.google::protobuf::RepeatedPtrField.48", %"class.google::protobuf::RepeatedField.49", %"struct.std::__1::atomic", [4 x i8], %"struct.google::protobuf::internal::ArenaStringPtr", %"struct.google::protobuf::internal::ArenaStringPtr", %"struct.google::protobuf::internal::ArenaStringPtr", %"struct.google::protobuf::internal::ArenaStringPtr", %"struct.google::protobuf::internal::ArenaStringPtr", %"struct.google::protobuf::internal::ArenaStringPtr", %"class.metrics::SystemProfileProto_OS"*, %"class.metrics::SystemProfileProto_Hardware"*, %"class.metrics::SystemProfileProto_Stability"*, %"class.metrics::SystemProfileProto_GoogleUpdate"*, %"class.metrics::SystemProfileProto_Network"*, %"class.metrics::SystemProfileProto_ExternalAccessPoint"*, %"class.metrics::SystemProfileProto_LinkedAndroidPhoneData"*, i64, i64, i32, i32, i64, i32, i32, i8, i8, i8, i8, i32, i32, i32, i32, [4 x i8] }>
%"class.google::protobuf::RepeatedPtrField.43" = type { %"class.google::protobuf::internal::RepeatedPtrFieldBase" }
%"class.google::protobuf::RepeatedPtrField.44" = type { %"class.google::protobuf::internal::RepeatedPtrFieldBase" }
%"class.google::protobuf::RepeatedPtrField.45" = type { %"class.google::protobuf::internal::RepeatedPtrFieldBase" }
%"class.google::protobuf::RepeatedPtrField.46" = type { %"class.google::protobuf::internal::RepeatedPtrFieldBase" }
%"class.google::protobuf::RepeatedPtrField.47" = type { %"class.google::protobuf::internal::RepeatedPtrFieldBase" }
%"class.google::protobuf::RepeatedPtrField.48" = type { %"class.google::protobuf::internal::RepeatedPtrFieldBase" }
%"class.google::protobuf::RepeatedField.49" = type { i32, i32, i8* }
%"struct.std::__1::basic_string<char, std::__1::char_traits<char>, std::__1::allocator<char> >::__short" = type { [23 x i8], %struct.anon }
%struct.anon = type { i8 }
%"struct.google::protobuf::internal::InternalMetadata::Container" = type { %"struct.google::protobuf::internal::InternalMetadata::ContainerBase", %"class.std::__1::basic_string" }
%"struct.google::protobuf::internal::InternalMetadata::ContainerBase" = type { %"class.google::protobuf::Arena"* }
%"class.google::protobuf::internal::ParseContext" = type { %"class.google::protobuf::internal::EpsCopyInputStream", i32, i32, %"struct.google::protobuf::internal::ParseContext::Data" }
%"class.google::protobuf::internal::EpsCopyInputStream" = type { i8*, i8*, i8*, i32, i32, %"class.google::protobuf::io::ZeroCopyInputStream"*, [32 x i8], i64, i32, i32 }
%"class.google::protobuf::io::ZeroCopyInputStream" = type { i32 (...)** }
%"struct.google::protobuf::internal::ParseContext::Data" = type { %"class.google::protobuf::DescriptorPool"*, %"class.google::protobuf::MessageFactory"* }
%"class.google::protobuf::DescriptorPool" = type opaque
%"class.google::protobuf::MessageFactory" = type opaque
%"class.google::protobuf::io::EpsCopyOutputStream" = type <{ i8*, i8*, [32 x i8], %"class.google::protobuf::io::ZeroCopyOutputStream"*, i8, i8, i8, [5 x i8] }>
%"class.google::protobuf::io::ZeroCopyOutputStream" = type { i32 (...)** }
%class.anon = type <{ i8*, i1 (i32)*, %"class.google::protobuf::internal::InternalMetadata"*, i32, [4 x i8] }>
%"class.metrics::ExtensionInstallProto" = type <{ %"class.google::protobuf::MessageLite", %"class.google::protobuf::internal::HasBits", %"class.google::protobuf::internal::CachedSize", %"class.google::protobuf::RepeatedField", i32, i32, i32, i32, i8, i8, i8, i8, i8, i8, i8, i8, i32, i32, i8, [7 x i8] }>

$_ZN6google8protobuf8internal12ParseContext12ParseMessageIN7metrics25SystemProfileProto_OS_ArcEEEPKcPT_S7_ = comdat any

$_ZN6google8protobuf8internal12ParseContext12ParseMessageIN7metrics36SystemProfileProto_Hardware_GraphicsEEEPKcPT_S7_ = comdat any

$_ZN6google8protobuf8internal12ParseContext12ParseMessageIN7metrics31SystemProfileProto_Hardware_CPUEEEPKcPT_S7_ = comdat any

$_ZN6google8protobuf8internal12ParseContext12ParseMessageIN7metrics33SystemProfileProto_Hardware_DriveEEEPKcPT_S7_ = comdat any

$_ZN6google8protobuf8internal12ParseContext12ParseMessageIN7metrics49SystemProfileProto_Hardware_InternalStorageDeviceEEEPKcPT_S7_ = comdat any

$_ZN6google8protobuf8internal12ParseContext12ParseMessageIN7metrics43SystemProfileProto_GoogleUpdate_ProductInfoEEEPKcPT_S7_ = comdat any

$_ZN6google8protobuf8internal12ParseContext12ParseMessageIN7metrics25SystemProfileProto_PluginEEEPKcPT_S7_ = comdat any

$_ZN6google8protobuf8internal12ParseContext12ParseMessageIN7metrics44SystemProfileProto_Stability_PluginStabilityEEEPKcPT_S7_ = comdat any

$_ZN6google8protobuf8internal12ParseContext12ParseMessageIN7metrics60SystemProfileProto_ExternalAudioVideoDevice_AudioDescriptionEEEPKcPT_S7_ = comdat any

$_ZN6google8protobuf8internal12ParseContext12ParseMessageIN7metrics54SystemProfileProto_ExternalAudioVideoDevice_CECCommandEEEPKcPT_S7_ = comdat any

$_ZN7metrics18SystemProfileProto10SharedDtorEv = comdat any

$_ZN6google8protobuf8internal12ParseContext12ParseMessageIN7metrics21SystemProfileProto_OSEEEPKcPT_S7_ = comdat any

$_ZN6google8protobuf8internal12ParseContext12ParseMessageIN7metrics27SystemProfileProto_HardwareEEEPKcPT_S7_ = comdat any

$_ZN6google8protobuf8internal12ParseContext12ParseMessageIN7metrics28SystemProfileProto_StabilityEEEPKcPT_S7_ = comdat any

$_ZN6google8protobuf8internal12ParseContext12ParseMessageIN7metrics29SystemProfileProto_FieldTrialEEEPKcPT_S7_ = comdat any

$_ZN6google8protobuf8internal12ParseContext12ParseMessageIN7metrics31SystemProfileProto_GoogleUpdateEEEPKcPT_S7_ = comdat any

$_ZN6google8protobuf8internal12ParseContext12ParseMessageIN7metrics26SystemProfileProto_NetworkEEEPKcPT_S7_ = comdat any

$_ZN6google8protobuf8internal12ParseContext12ParseMessageIN7metrics43SystemProfileProto_ExternalAudioVideoDeviceEEEPKcPT_S7_ = comdat any

$_ZN6google8protobuf8internal12ParseContext12ParseMessageIN7metrics38SystemProfileProto_ExternalAccessPointEEEPKcPT_S7_ = comdat any

$_ZN6google8protobuf8internal12ParseContext12ParseMessageIN7metrics35SystemProfileProto_AntiVirusProductEEEPKcPT_S7_ = comdat any

$_ZN6google8protobuf8internal12ParseContext12ParseMessageIN7metrics34SystemProfileProto_ChromeComponentEEEPKcPT_S7_ = comdat any

$_ZN6google8protobuf8internal12ParseContext12ParseMessageIN7metrics21ExtensionInstallProtoEEEPKcPT_S7_ = comdat any

$_ZN6google8protobuf8internal12ParseContext12ParseMessageIN7metrics41SystemProfileProto_LinkedAndroidPhoneDataEEEPKcPT_S7_ = comdat any

$_ZNK7metrics25SystemProfileProto_OS_Arc3NewEv = comdat any

$_ZNK7metrics25SystemProfileProto_OS_Arc3NewEPN6google8protobuf5ArenaE = comdat any

$_ZNK7metrics25SystemProfileProto_OS_Arc13GetCachedSizeEv = comdat any

$_ZNK6google8protobuf11MessageLite16InternalGetTableEv = comdat any

$_ZNK7metrics21SystemProfileProto_OS3NewEv = comdat any

$_ZNK7metrics21SystemProfileProto_OS3NewEPN6google8protobuf5ArenaE = comdat any

$_ZNK7metrics21SystemProfileProto_OS13GetCachedSizeEv = comdat any

$_ZNK7metrics31SystemProfileProto_Hardware_CPU3NewEv = comdat any

$_ZNK7metrics31SystemProfileProto_Hardware_CPU3NewEPN6google8protobuf5ArenaE = comdat any

$_ZNK7metrics31SystemProfileProto_Hardware_CPU13GetCachedSizeEv = comdat any

$_ZNK7metrics36SystemProfileProto_Hardware_Graphics3NewEv = comdat any

$_ZNK7metrics36SystemProfileProto_Hardware_Graphics3NewEPN6google8protobuf5ArenaE = comdat any

$_ZNK7metrics36SystemProfileProto_Hardware_Graphics13GetCachedSizeEv = comdat any

$_ZNK7metrics49SystemProfileProto_Hardware_InternalStorageDevice3NewEv = comdat any

$_ZNK7metrics49SystemProfileProto_Hardware_InternalStorageDevice3NewEPN6google8protobuf5ArenaE = comdat any

$_ZNK7metrics49SystemProfileProto_Hardware_InternalStorageDevice13GetCachedSizeEv = comdat any

$_ZNK7metrics33SystemProfileProto_Hardware_Drive3NewEv = comdat any

$_ZNK7metrics33SystemProfileProto_Hardware_Drive3NewEPN6google8protobuf5ArenaE = comdat any

$_ZNK7metrics33SystemProfileProto_Hardware_Drive13GetCachedSizeEv = comdat any

$_ZNK7metrics27SystemProfileProto_Hardware3NewEv = comdat any

$_ZNK7metrics27SystemProfileProto_Hardware3NewEPN6google8protobuf5ArenaE = comdat any

$_ZNK7metrics27SystemProfileProto_Hardware13GetCachedSizeEv = comdat any

$_ZNK7metrics26SystemProfileProto_Network3NewEv = comdat any

$_ZNK7metrics26SystemProfileProto_Network3NewEPN6google8protobuf5ArenaE = comdat any

$_ZNK7metrics26SystemProfileProto_Network13GetCachedSizeEv = comdat any

$_ZNK7metrics43SystemProfileProto_GoogleUpdate_ProductInfo3NewEv = comdat any

$_ZNK7metrics43SystemProfileProto_GoogleUpdate_ProductInfo3NewEPN6google8protobuf5ArenaE = comdat any

$_ZNK7metrics43SystemProfileProto_GoogleUpdate_ProductInfo13GetCachedSizeEv = comdat any

$_ZNK7metrics31SystemProfileProto_GoogleUpdate3NewEv = comdat any

$_ZNK7metrics31SystemProfileProto_GoogleUpdate3NewEPN6google8protobuf5ArenaE = comdat any

$_ZNK7metrics31SystemProfileProto_GoogleUpdate13GetCachedSizeEv = comdat any

$_ZNK7metrics25SystemProfileProto_Plugin3NewEv = comdat any

$_ZNK7metrics25SystemProfileProto_Plugin3NewEPN6google8protobuf5ArenaE = comdat any

$_ZNK7metrics25SystemProfileProto_Plugin13GetCachedSizeEv = comdat any

$_ZNK7metrics44SystemProfileProto_Stability_PluginStability3NewEv = comdat any

$_ZNK7metrics44SystemProfileProto_Stability_PluginStability3NewEPN6google8protobuf5ArenaE = comdat any

$_ZNK7metrics44SystemProfileProto_Stability_PluginStability13GetCachedSizeEv = comdat any

$_ZNK7metrics28SystemProfileProto_Stability3NewEv = comdat any

$_ZNK7metrics28SystemProfileProto_Stability3NewEPN6google8protobuf5ArenaE = comdat any

$_ZNK7metrics28SystemProfileProto_Stability13GetCachedSizeEv = comdat any

$_ZNK7metrics29SystemProfileProto_FieldTrial3NewEv = comdat any

$_ZNK7metrics29SystemProfileProto_FieldTrial3NewEPN6google8protobuf5ArenaE = comdat any

$_ZNK7metrics29SystemProfileProto_FieldTrial13GetCachedSizeEv = comdat any

$_ZNK7metrics60SystemProfileProto_ExternalAudioVideoDevice_AudioDescription3NewEv = comdat any

$_ZNK7metrics60SystemProfileProto_ExternalAudioVideoDevice_AudioDescription3NewEPN6google8protobuf5ArenaE = comdat any

$_ZNK7metrics60SystemProfileProto_ExternalAudioVideoDevice_AudioDescription13GetCachedSizeEv = comdat any

$_ZNK7metrics54SystemProfileProto_ExternalAudioVideoDevice_CECCommand3NewEv = comdat any

$_ZNK7metrics54SystemProfileProto_ExternalAudioVideoDevice_CECCommand3NewEPN6google8protobuf5ArenaE = comdat any

$_ZNK7metrics54SystemProfileProto_ExternalAudioVideoDevice_CECCommand13GetCachedSizeEv = comdat any

$_ZNK7metrics43SystemProfileProto_ExternalAudioVideoDevice3NewEv = comdat any

$_ZNK7metrics43SystemProfileProto_ExternalAudioVideoDevice3NewEPN6google8protobuf5ArenaE = comdat any

$_ZNK7metrics43SystemProfileProto_ExternalAudioVideoDevice13GetCachedSizeEv = comdat any

$_ZNK7metrics38SystemProfileProto_ExternalAccessPoint3NewEv = comdat any

$_ZNK7metrics38SystemProfileProto_ExternalAccessPoint3NewEPN6google8protobuf5ArenaE = comdat any

$_ZNK7metrics38SystemProfileProto_ExternalAccessPoint13GetCachedSizeEv = comdat any

$_ZNK7metrics35SystemProfileProto_AntiVirusProduct3NewEv = comdat any

$_ZNK7metrics35SystemProfileProto_AntiVirusProduct3NewEPN6google8protobuf5ArenaE = comdat any

$_ZNK7metrics35SystemProfileProto_AntiVirusProduct13GetCachedSizeEv = comdat any

$_ZNK7metrics34SystemProfileProto_ChromeComponent3NewEv = comdat any

$_ZNK7metrics34SystemProfileProto_ChromeComponent3NewEPN6google8protobuf5ArenaE = comdat any

$_ZNK7metrics34SystemProfileProto_ChromeComponent13GetCachedSizeEv = comdat any

$_ZNK7metrics41SystemProfileProto_LinkedAndroidPhoneData3NewEv = comdat any

$_ZNK7metrics41SystemProfileProto_LinkedAndroidPhoneData3NewEPN6google8protobuf5ArenaE = comdat any

$_ZNK7metrics41SystemProfileProto_LinkedAndroidPhoneData13GetCachedSizeEv = comdat any

$_ZNK7metrics18SystemProfileProto3NewEv = comdat any

$_ZNK7metrics18SystemProfileProto3NewEPN6google8protobuf5ArenaE = comdat any

$_ZNK7metrics18SystemProfileProto13GetCachedSizeEv = comdat any

$_ZN6google8protobuf8internal14ArenaStringPtr14CreateInstanceEPNS0_5ArenaEPKNSt3__112basic_stringIcNS5_11char_traitsIcEENS5_9allocatorIcEEEE = comdat any

$_ZN6google8protobuf8internal21arena_destruct_objectINSt3__112basic_stringIcNS3_11char_traitsIcEENS3_9allocatorIcEEEEEEvPv = comdat any

$_ZN6google8protobuf8internal16InternalMetadata27mutable_unknown_fields_slowINSt3__112basic_stringIcNS4_11char_traitsIcEENS4_9allocatorIcEEEEEEPT_v = comdat any

$_ZN6google8protobuf8internal21arena_destruct_objectINS1_16InternalMetadata9ContainerINSt3__112basic_stringIcNS5_11char_traitsIcEENS5_9allocatorIcEEEEEEEEvPv = comdat any

$_ZN6google8protobuf8internal18GenericTypeHandlerIN7metrics49SystemProfileProto_Hardware_InternalStorageDeviceEE5MergeERKS4_PS4_ = comdat any

$_ZN6google8protobuf8internal18GenericTypeHandlerIN7metrics44SystemProfileProto_Stability_PluginStabilityEE5MergeERKS4_PS4_ = comdat any

$_ZN6google8protobuf8internal18EpsCopyInputStream16ReadPackedVarintIZNS1_16PackedEnumParserINSt3__112basic_stringIcNS5_11char_traitsIcEENS5_9allocatorIcEEEEEEPKcPvSD_PNS1_12ParseContextEPFbiEPNS1_16InternalMetadataEiEUlmE_EESD_SD_T_ = comdat any

$_ZN6google8protobuf8internal18GenericTypeHandlerIN7metrics60SystemProfileProto_ExternalAudioVideoDevice_AudioDescriptionEE5MergeERKS4_PS4_ = comdat any

$_ZN6google8protobuf8internal18GenericTypeHandlerIN7metrics54SystemProfileProto_ExternalAudioVideoDevice_CECCommandEE5MergeERKS4_PS4_ = comdat any

$_ZN6google8protobuf8internal18GenericTypeHandlerIN7metrics25SystemProfileProto_PluginEE5MergeERKS4_PS4_ = comdat any

$_ZN6google8protobuf8internal18GenericTypeHandlerIN7metrics29SystemProfileProto_FieldTrialEE5MergeERKS4_PS4_ = comdat any

$_ZN6google8protobuf8internal18GenericTypeHandlerIN7metrics43SystemProfileProto_ExternalAudioVideoDeviceEE5MergeERKS4_PS4_ = comdat any

$_ZN6google8protobuf8internal18GenericTypeHandlerIN7metrics35SystemProfileProto_AntiVirusProductEE5MergeERKS4_PS4_ = comdat any

$_ZN6google8protobuf8internal18GenericTypeHandlerIN7metrics34SystemProfileProto_ChromeComponentEE5MergeERKS4_PS4_ = comdat any

$_ZN6google8protobuf8internal18GenericTypeHandlerIN7metrics21ExtensionInstallProtoEE5MergeERKS4_PS4_ = comdat any

@_ZN7metrics44_SystemProfileProto_OS_Arc_default_instance_E = hidden global %"class.metrics::SystemProfileProto_OS_ArcDefaultTypeInternal" zeroinitializer, align 8
@_ZN7metrics40_SystemProfileProto_OS_default_instance_E = hidden global %"class.metrics::SystemProfileProto_OSDefaultTypeInternal" zeroinitializer, align 8
@_ZN7metrics50_SystemProfileProto_Hardware_CPU_default_instance_E = hidden global %"class.metrics::SystemProfileProto_Hardware_CPUDefaultTypeInternal" zeroinitializer, align 8
@_ZN7metrics55_SystemProfileProto_Hardware_Graphics_default_instance_E = hidden global %"class.metrics::SystemProfileProto_Hardware_GraphicsDefaultTypeInternal" zeroinitializer, align 8
@_ZN7metrics68_SystemProfileProto_Hardware_InternalStorageDevice_default_instance_E = hidden global %"class.metrics::SystemProfileProto_Hardware_InternalStorageDeviceDefaultTypeInternal" zeroinitializer, align 8
@_ZN7metrics52_SystemProfileProto_Hardware_Drive_default_instance_E = hidden global %"class.metrics::SystemProfileProto_Hardware_DriveDefaultTypeInternal" zeroinitializer, align 8
@_ZN7metrics46_SystemProfileProto_Hardware_default_instance_E = hidden global %"class.metrics::SystemProfileProto_HardwareDefaultTypeInternal" zeroinitializer, align 8
@_ZN7metrics45_SystemProfileProto_Network_default_instance_E = hidden global %"class.metrics::SystemProfileProto_NetworkDefaultTypeInternal" zeroinitializer, align 8
@_ZN7metrics62_SystemProfileProto_GoogleUpdate_ProductInfo_default_instance_E = hidden global %"class.metrics::SystemProfileProto_GoogleUpdate_ProductInfoDefaultTypeInternal" zeroinitializer, align 8
@_ZN7metrics50_SystemProfileProto_GoogleUpdate_default_instance_E = hidden global %"class.metrics::SystemProfileProto_GoogleUpdateDefaultTypeInternal" zeroinitializer, align 8
@_ZN7metrics44_SystemProfileProto_Plugin_default_instance_E = hidden global %"class.metrics::SystemProfileProto_PluginDefaultTypeInternal" zeroinitializer, align 8
@_ZN7metrics63_SystemProfileProto_Stability_PluginStability_default_instance_E = hidden global %"class.metrics::SystemProfileProto_Stability_PluginStabilityDefaultTypeInternal" zeroinitializer, align 8
@_ZN7metrics47_SystemProfileProto_Stability_default_instance_E = hidden global %"class.metrics::SystemProfileProto_StabilityDefaultTypeInternal" zeroinitializer, align 8
@_ZN7metrics48_SystemProfileProto_FieldTrial_default_instance_E = hidden global %"class.metrics::SystemProfileProto_FieldTrialDefaultTypeInternal" zeroinitializer, align 8
@_ZN7metrics79_SystemProfileProto_ExternalAudioVideoDevice_AudioDescription_default_instance_E = hidden global %"class.metrics::SystemProfileProto_ExternalAudioVideoDevice_AudioDescriptionDefaultTypeInternal" zeroinitializer, align 8
@_ZN7metrics73_SystemProfileProto_ExternalAudioVideoDevice_CECCommand_default_instance_E = hidden global %"class.metrics::SystemProfileProto_ExternalAudioVideoDevice_CECCommandDefaultTypeInternal" zeroinitializer, align 8
@_ZN7metrics62_SystemProfileProto_ExternalAudioVideoDevice_default_instance_E = hidden global %"class.metrics::SystemProfileProto_ExternalAudioVideoDeviceDefaultTypeInternal" zeroinitializer, align 8
@_ZN7metrics57_SystemProfileProto_ExternalAccessPoint_default_instance_E = hidden global %"class.metrics::SystemProfileProto_ExternalAccessPointDefaultTypeInternal" zeroinitializer, align 8
@_ZN7metrics54_SystemProfileProto_AntiVirusProduct_default_instance_E = hidden global %"class.metrics::SystemProfileProto_AntiVirusProductDefaultTypeInternal" zeroinitializer, align 8
@_ZN7metrics53_SystemProfileProto_ChromeComponent_default_instance_E = hidden global %"class.metrics::SystemProfileProto_ChromeComponentDefaultTypeInternal" zeroinitializer, align 8
@_ZN7metrics60_SystemProfileProto_LinkedAndroidPhoneData_default_instance_E = hidden global %"class.metrics::SystemProfileProto_LinkedAndroidPhoneDataDefaultTypeInternal" zeroinitializer, align 8
@_ZN7metrics37_SystemProfileProto_default_instance_E = hidden global %"class.metrics::SystemProfileProtoDefaultTypeInternal" zeroinitializer, align 8
@scc_info_ExtensionInstallProto_extension_5finstall_2eproto = external global %"struct.google::protobuf::internal::SCCInfo.23", align 8
@scc_info_SystemProfileProto_system_5fprofile_2eproto = hidden global { { { { i32 } }, i32, i32, void ()* }, [13 x i8*] } { { { { i32 } }, i32, i32, void ()* } { { { i32 } } { { i32 } { i32 -1 } }, i32 13, i32 0, void ()* @_ZL64InitDefaultsscc_info_SystemProfileProto_system_5fprofile_2eprotov }, [13 x i8*] [i8* bitcast ({ { { { i32 } }, i32, i32, void ()* }, [1 x i8*] }* @scc_info_SystemProfileProto_OS_system_5fprofile_2eproto to i8*), i8* bitcast ({ { { { i32 } }, i32, i32, void ()* }, [4 x i8*] }* @scc_info_SystemProfileProto_Hardware_system_5fprofile_2eproto to i8*), i8* bitcast ({ { { { i32 } }, i32, i32, void ()* }, [0 x i8*] }* @scc_info_SystemProfileProto_Network_system_5fprofile_2eproto to i8*), i8* bitcast ({ { { { i32 } }, i32, i32, void ()* }, [1 x i8*] }* @scc_info_SystemProfileProto_GoogleUpdate_system_5fprofile_2eproto to i8*), i8* bitcast ({ { { { i32 } }, i32, i32, void ()* }, [0 x i8*] }* @scc_info_SystemProfileProto_Plugin_system_5fprofile_2eproto to i8*), i8* bitcast ({ { { { i32 } }, i32, i32, void ()* }, [1 x i8*] }* @scc_info_SystemProfileProto_Stability_system_5fprofile_2eproto to i8*), i8* bitcast ({ { { { i32 } }, i32, i32, void ()* }, [0 x i8*] }* @scc_info_SystemProfileProto_FieldTrial_system_5fprofile_2eproto to i8*), i8* bitcast ({ { { { i32 } }, i32, i32, void ()* }, [2 x i8*] }* @scc_info_SystemProfileProto_ExternalAudioVideoDevice_system_5fprofile_2eproto to i8*), i8* bitcast ({ { { { i32 } }, i32, i32, void ()* }, [0 x i8*] }* @scc_info_SystemProfileProto_ExternalAccessPoint_system_5fprofile_2eproto to i8*), i8* bitcast ({ { { { i32 } }, i32, i32, void ()* }, [0 x i8*] }* @scc_info_SystemProfileProto_AntiVirusProduct_system_5fprofile_2eproto to i8*), i8* bitcast ({ { { { i32 } }, i32, i32, void ()* }, [0 x i8*] }* @scc_info_SystemProfileProto_ChromeComponent_system_5fprofile_2eproto to i8*), i8* bitcast (%"struct.google::protobuf::internal::SCCInfo.23"* @scc_info_ExtensionInstallProto_extension_5finstall_2eproto to i8*), i8* bitcast ({ { { { i32 } }, i32, i32, void ()* }, [0 x i8*] }* @scc_info_SystemProfileProto_LinkedAndroidPhoneData_system_5fprofile_2eproto to i8*)] }, align 8
@scc_info_SystemProfileProto_AntiVirusProduct_system_5fprofile_2eproto = hidden global { { { { i32 } }, i32, i32, void ()* }, [0 x i8*] } { { { { i32 } }, i32, i32, void ()* } { { { i32 } } { { i32 } { i32 -1 } }, i32 0, i32 0, void ()* @_ZL81InitDefaultsscc_info_SystemProfileProto_AntiVirusProduct_system_5fprofile_2eprotov }, [0 x i8*] zeroinitializer }, align 8
@scc_info_SystemProfileProto_ChromeComponent_system_5fprofile_2eproto = hidden global { { { { i32 } }, i32, i32, void ()* }, [0 x i8*] } { { { { i32 } }, i32, i32, void ()* } { { { i32 } } { { i32 } { i32 -1 } }, i32 0, i32 0, void ()* @_ZL80InitDefaultsscc_info_SystemProfileProto_ChromeComponent_system_5fprofile_2eprotov }, [0 x i8*] zeroinitializer }, align 8
@scc_info_SystemProfileProto_ExternalAccessPoint_system_5fprofile_2eproto = hidden global { { { { i32 } }, i32, i32, void ()* }, [0 x i8*] } { { { { i32 } }, i32, i32, void ()* } { { { i32 } } { { i32 } { i32 -1 } }, i32 0, i32 0, void ()* @_ZL84InitDefaultsscc_info_SystemProfileProto_ExternalAccessPoint_system_5fprofile_2eprotov }, [0 x i8*] zeroinitializer }, align 8
@scc_info_SystemProfileProto_ExternalAudioVideoDevice_system_5fprofile_2eproto = hidden global { { { { i32 } }, i32, i32, void ()* }, [2 x i8*] } { { { { i32 } }, i32, i32, void ()* } { { { i32 } } { { i32 } { i32 -1 } }, i32 2, i32 0, void ()* @_ZL89InitDefaultsscc_info_SystemProfileProto_ExternalAudioVideoDevice_system_5fprofile_2eprotov }, [2 x i8*] [i8* bitcast ({ { { { i32 } }, i32, i32, void ()* }, [0 x i8*] }* @scc_info_SystemProfileProto_ExternalAudioVideoDevice_AudioDescription_system_5fprofile_2eproto to i8*), i8* bitcast ({ { { { i32 } }, i32, i32, void ()* }, [0 x i8*] }* @scc_info_SystemProfileProto_ExternalAudioVideoDevice_CECCommand_system_5fprofile_2eproto to i8*)] }, align 8
@scc_info_SystemProfileProto_ExternalAudioVideoDevice_AudioDescription_system_5fprofile_2eproto = hidden global { { { { i32 } }, i32, i32, void ()* }, [0 x i8*] } { { { { i32 } }, i32, i32, void ()* } { { { i32 } } { { i32 } { i32 -1 } }, i32 0, i32 0, void ()* @_ZL106InitDefaultsscc_info_SystemProfileProto_ExternalAudioVideoDevice_AudioDescription_system_5fprofile_2eprotov }, [0 x i8*] zeroinitializer }, align 8
@scc_info_SystemProfileProto_ExternalAudioVideoDevice_CECCommand_system_5fprofile_2eproto = hidden global { { { { i32 } }, i32, i32, void ()* }, [0 x i8*] } { { { { i32 } }, i32, i32, void ()* } { { { i32 } } { { i32 } { i32 -1 } }, i32 0, i32 0, void ()* @_ZL100InitDefaultsscc_info_SystemProfileProto_ExternalAudioVideoDevice_CECCommand_system_5fprofile_2eprotov }, [0 x i8*] zeroinitializer }, align 8
@scc_info_SystemProfileProto_FieldTrial_system_5fprofile_2eproto = hidden global { { { { i32 } }, i32, i32, void ()* }, [0 x i8*] } { { { { i32 } }, i32, i32, void ()* } { { { i32 } } { { i32 } { i32 -1 } }, i32 0, i32 0, void ()* @_ZL75InitDefaultsscc_info_SystemProfileProto_FieldTrial_system_5fprofile_2eprotov }, [0 x i8*] zeroinitializer }, align 8
@scc_info_SystemProfileProto_GoogleUpdate_system_5fprofile_2eproto = hidden global { { { { i32 } }, i32, i32, void ()* }, [1 x i8*] } { { { { i32 } }, i32, i32, void ()* } { { { i32 } } { { i32 } { i32 -1 } }, i32 1, i32 0, void ()* @_ZL77InitDefaultsscc_info_SystemProfileProto_GoogleUpdate_system_5fprofile_2eprotov }, [1 x i8*] [i8* bitcast ({ { { { i32 } }, i32, i32, void ()* }, [0 x i8*] }* @scc_info_SystemProfileProto_GoogleUpdate_ProductInfo_system_5fprofile_2eproto to i8*)] }, align 8
@scc_info_SystemProfileProto_GoogleUpdate_ProductInfo_system_5fprofile_2eproto = hidden global { { { { i32 } }, i32, i32, void ()* }, [0 x i8*] } { { { { i32 } }, i32, i32, void ()* } { { { i32 } } { { i32 } { i32 -1 } }, i32 0, i32 0, void ()* @_ZL89InitDefaultsscc_info_SystemProfileProto_GoogleUpdate_ProductInfo_system_5fprofile_2eprotov }, [0 x i8*] zeroinitializer }, align 8
@scc_info_SystemProfileProto_Hardware_system_5fprofile_2eproto = hidden global { { { { i32 } }, i32, i32, void ()* }, [4 x i8*] } { { { { i32 } }, i32, i32, void ()* } { { { i32 } } { { i32 } { i32 -1 } }, i32 4, i32 0, void ()* @_ZL73InitDefaultsscc_info_SystemProfileProto_Hardware_system_5fprofile_2eprotov }, [4 x i8*] [i8* bitcast ({ { { { i32 } }, i32, i32, void ()* }, [0 x i8*] }* @scc_info_SystemProfileProto_Hardware_CPU_system_5fprofile_2eproto to i8*), i8* bitcast ({ { { { i32 } }, i32, i32, void ()* }, [0 x i8*] }* @scc_info_SystemProfileProto_Hardware_Graphics_system_5fprofile_2eproto to i8*), i8* bitcast ({ { { { i32 } }, i32, i32, void ()* }, [0 x i8*] }* @scc_info_SystemProfileProto_Hardware_InternalStorageDevice_system_5fprofile_2eproto to i8*), i8* bitcast ({ { { { i32 } }, i32, i32, void ()* }, [0 x i8*] }* @scc_info_SystemProfileProto_Hardware_Drive_system_5fprofile_2eproto to i8*)] }, align 8
@scc_info_SystemProfileProto_Hardware_CPU_system_5fprofile_2eproto = hidden global { { { { i32 } }, i32, i32, void ()* }, [0 x i8*] } { { { { i32 } }, i32, i32, void ()* } { { { i32 } } { { i32 } { i32 -1 } }, i32 0, i32 0, void ()* @_ZL77InitDefaultsscc_info_SystemProfileProto_Hardware_CPU_system_5fprofile_2eprotov }, [0 x i8*] zeroinitializer }, align 8
@scc_info_SystemProfileProto_Hardware_Drive_system_5fprofile_2eproto = hidden global { { { { i32 } }, i32, i32, void ()* }, [0 x i8*] } { { { { i32 } }, i32, i32, void ()* } { { { i32 } } { { i32 } { i32 -1 } }, i32 0, i32 0, void ()* @_ZL79InitDefaultsscc_info_SystemProfileProto_Hardware_Drive_system_5fprofile_2eprotov }, [0 x i8*] zeroinitializer }, align 8
@scc_info_SystemProfileProto_Hardware_Graphics_system_5fprofile_2eproto = hidden global { { { { i32 } }, i32, i32, void ()* }, [0 x i8*] } { { { { i32 } }, i32, i32, void ()* } { { { i32 } } { { i32 } { i32 -1 } }, i32 0, i32 0, void ()* @_ZL82InitDefaultsscc_info_SystemProfileProto_Hardware_Graphics_system_5fprofile_2eprotov }, [0 x i8*] zeroinitializer }, align 8
@scc_info_SystemProfileProto_Hardware_InternalStorageDevice_system_5fprofile_2eproto = hidden global { { { { i32 } }, i32, i32, void ()* }, [0 x i8*] } { { { { i32 } }, i32, i32, void ()* } { { { i32 } } { { i32 } { i32 -1 } }, i32 0, i32 0, void ()* @_ZL95InitDefaultsscc_info_SystemProfileProto_Hardware_InternalStorageDevice_system_5fprofile_2eprotov }, [0 x i8*] zeroinitializer }, align 8
@scc_info_SystemProfileProto_LinkedAndroidPhoneData_system_5fprofile_2eproto = hidden global { { { { i32 } }, i32, i32, void ()* }, [0 x i8*] } { { { { i32 } }, i32, i32, void ()* } { { { i32 } } { { i32 } { i32 -1 } }, i32 0, i32 0, void ()* @_ZL87InitDefaultsscc_info_SystemProfileProto_LinkedAndroidPhoneData_system_5fprofile_2eprotov }, [0 x i8*] zeroinitializer }, align 8
@scc_info_SystemProfileProto_Network_system_5fprofile_2eproto = hidden global { { { { i32 } }, i32, i32, void ()* }, [0 x i8*] } { { { { i32 } }, i32, i32, void ()* } { { { i32 } } { { i32 } { i32 -1 } }, i32 0, i32 0, void ()* @_ZL72InitDefaultsscc_info_SystemProfileProto_Network_system_5fprofile_2eprotov }, [0 x i8*] zeroinitializer }, align 8
@scc_info_SystemProfileProto_OS_system_5fprofile_2eproto = hidden global { { { { i32 } }, i32, i32, void ()* }, [1 x i8*] } { { { { i32 } }, i32, i32, void ()* } { { { i32 } } { { i32 } { i32 -1 } }, i32 1, i32 0, void ()* @_ZL67InitDefaultsscc_info_SystemProfileProto_OS_system_5fprofile_2eprotov }, [1 x i8*] [i8* bitcast ({ { { { i32 } }, i32, i32, void ()* }, [0 x i8*] }* @scc_info_SystemProfileProto_OS_Arc_system_5fprofile_2eproto to i8*)] }, align 8
@scc_info_SystemProfileProto_OS_Arc_system_5fprofile_2eproto = hidden global { { { { i32 } }, i32, i32, void ()* }, [0 x i8*] } { { { { i32 } }, i32, i32, void ()* } { { { i32 } } { { i32 } { i32 -1 } }, i32 0, i32 0, void ()* @_ZL71InitDefaultsscc_info_SystemProfileProto_OS_Arc_system_5fprofile_2eprotov }, [0 x i8*] zeroinitializer }, align 8
@scc_info_SystemProfileProto_Plugin_system_5fprofile_2eproto = hidden global { { { { i32 } }, i32, i32, void ()* }, [0 x i8*] } { { { { i32 } }, i32, i32, void ()* } { { { i32 } } { { i32 } { i32 -1 } }, i32 0, i32 0, void ()* @_ZL71InitDefaultsscc_info_SystemProfileProto_Plugin_system_5fprofile_2eprotov }, [0 x i8*] zeroinitializer }, align 8
@scc_info_SystemProfileProto_Stability_system_5fprofile_2eproto = hidden global { { { { i32 } }, i32, i32, void ()* }, [1 x i8*] } { { { { i32 } }, i32, i32, void ()* } { { { i32 } } { { i32 } { i32 -1 } }, i32 1, i32 0, void ()* @_ZL74InitDefaultsscc_info_SystemProfileProto_Stability_system_5fprofile_2eprotov }, [1 x i8*] [i8* bitcast ({ { { { i32 } }, i32, i32, void ()* }, [1 x i8*] }* @scc_info_SystemProfileProto_Stability_PluginStability_system_5fprofile_2eproto to i8*)] }, align 8
@scc_info_SystemProfileProto_Stability_PluginStability_system_5fprofile_2eproto = hidden global { { { { i32 } }, i32, i32, void ()* }, [1 x i8*] } { { { { i32 } }, i32, i32, void ()* } { { { i32 } } { { i32 } { i32 -1 } }, i32 1, i32 0, void ()* @_ZL90InitDefaultsscc_info_SystemProfileProto_Stability_PluginStability_system_5fprofile_2eprotov }, [1 x i8*] [i8* bitcast ({ { { { i32 } }, i32, i32, void ()* }, [0 x i8*] }* @scc_info_SystemProfileProto_Plugin_system_5fprofile_2eproto to i8*)] }, align 8
@_ZN7metricsL62SystemProfileProto_Hardware_InternalStorageDevice_Type_entriesE = internal constant [5 x %"struct.google::protobuf::internal::EnumEntry"] [%"struct.google::protobuf::internal::EnumEntry" <{ %"class.google::protobuf::StringPiece" { i8* getelementptr inbounds ([63 x i8], [63 x i8]* @_ZN7metricsL60SystemProfileProto_Hardware_InternalStorageDevice_Type_namesE, i64 0, i64 0), i64 9 }, i32 1, [4 x i8] zeroinitializer }>, %"struct.google::protobuf::internal::EnumEntry" <{ %"class.google::protobuf::StringPiece" { i8* getelementptr inbounds ([63 x i8], [63 x i8]* @_ZN7metricsL60SystemProfileProto_Hardware_InternalStorageDevice_Type_namesE, i64 0, i64 9), i64 9 }, i32 2, [4 x i8] zeroinitializer }>, %"struct.google::protobuf::internal::EnumEntry" <{ %"class.google::protobuf::StringPiece" { i8* getelementptr inbounds ([63 x i8], [63 x i8]* @_ZN7metricsL60SystemProfileProto_Hardware_InternalStorageDevice_Type_namesE, i64 0, i64 18), i64 24 }, i32 4, [4 x i8] zeroinitializer }>, %"struct.google::protobuf::internal::EnumEntry" <{ %"class.google::protobuf::StringPiece" { i8* getelementptr inbounds ([63 x i8], [63 x i8]* @_ZN7metricsL60SystemProfileProto_Hardware_InternalStorageDevice_Type_namesE, i64 0, i64 42), i64 8 }, i32 3, [4 x i8] zeroinitializer }>, %"struct.google::protobuf::internal::EnumEntry" <{ %"class.google::protobuf::StringPiece" { i8* getelementptr inbounds ([63 x i8], [63 x i8]* @_ZN7metricsL60SystemProfileProto_Hardware_InternalStorageDevice_Type_namesE, i64 0, i64 50), i64 12 }, i32 0, [4 x i8] zeroinitializer }>], align 16
@_ZN7metricsL60SystemProfileProto_Hardware_InternalStorageDevice_Type_namesE = internal constant [63 x i8] c"TYPE_EMMCTYPE_NVMETYPE_SD_EXPRESS_INTERNALTYPE_UFSTYPE_UNKNOWN\00", align 16
@_ZZN7metrics59SystemProfileProto_Hardware_InternalStorageDevice_Type_NameENS_54SystemProfileProto_Hardware_InternalStorageDevice_TypeEE5dummy = internal global i8 0, align 1
@_ZGVZN7metrics59SystemProfileProto_Hardware_InternalStorageDevice_Type_NameENS_54SystemProfileProto_Hardware_InternalStorageDevice_TypeEE5dummy = internal global i64 0, align 8
@_ZN7metricsL72SystemProfileProto_Hardware_InternalStorageDevice_Type_entries_by_numberE = internal constant [5 x i32] [i32 4, i32 0, i32 1, i32 3, i32 2], align 16
@_ZN7metricsL62SystemProfileProto_Hardware_InternalStorageDevice_Type_stringsE = internal global [5 x %"class.google::protobuf::internal::ExplicitlyConstructed.27"] zeroinitializer, align 16
@_ZN7metrics49SystemProfileProto_Hardware_InternalStorageDevice12TYPE_UNKNOWNE = hidden local_unnamed_addr constant i32 0, align 4
@_ZN7metrics49SystemProfileProto_Hardware_InternalStorageDevice9TYPE_EMMCE = hidden local_unnamed_addr constant i32 1, align 4
@_ZN7metrics49SystemProfileProto_Hardware_InternalStorageDevice9TYPE_NVMEE = hidden local_unnamed_addr constant i32 2, align 4
@_ZN7metrics49SystemProfileProto_Hardware_InternalStorageDevice8TYPE_UFSE = hidden local_unnamed_addr constant i32 3, align 4
@_ZN7metrics49SystemProfileProto_Hardware_InternalStorageDevice24TYPE_SD_EXPRESS_INTERNALE = hidden local_unnamed_addr constant i32 4, align 4
@_ZN7metrics49SystemProfileProto_Hardware_InternalStorageDevice8Type_MINE = hidden local_unnamed_addr constant i32 0, align 4
@_ZN7metrics49SystemProfileProto_Hardware_InternalStorageDevice8Type_MAXE = hidden local_unnamed_addr constant i32 4, align 4
@_ZN7metrics49SystemProfileProto_Hardware_InternalStorageDevice14Type_ARRAYSIZEE = hidden local_unnamed_addr constant i32 5, align 4
@_ZN7metricsL65SystemProfileProto_Hardware_InternalStorageDevice_Purpose_entriesE = internal constant [4 x %"struct.google::protobuf::internal::EnumEntry"] [%"struct.google::protobuf::internal::EnumEntry" <{ %"class.google::protobuf::StringPiece" { i8* getelementptr inbounds ([57 x i8], [57 x i8]* @_ZN7metricsL63SystemProfileProto_Hardware_InternalStorageDevice_Purpose_namesE, i64 0, i64 0), i64 12 }, i32 1, [4 x i8] zeroinitializer }>, %"struct.google::protobuf::internal::EnumEntry" <{ %"class.google::protobuf::StringPiece" { i8* getelementptr inbounds ([57 x i8], [57 x i8]* @_ZN7metricsL63SystemProfileProto_Hardware_InternalStorageDevice_Purpose_namesE, i64 0, i64 12), i64 17 }, i32 3, [4 x i8] zeroinitializer }>, %"struct.google::protobuf::internal::EnumEntry" <{ %"class.google::protobuf::StringPiece" { i8* getelementptr inbounds ([57 x i8], [57 x i8]* @_ZN7metricsL63SystemProfileProto_Hardware_InternalStorageDevice_Purpose_namesE, i64 0, i64 29), i64 12 }, i32 2, [4 x i8] zeroinitializer }>, %"struct.google::protobuf::internal::EnumEntry" <{ %"class.google::protobuf::StringPiece" { i8* getelementptr inbounds ([57 x i8], [57 x i8]* @_ZN7metricsL63SystemProfileProto_Hardware_InternalStorageDevice_Purpose_namesE, i64 0, i64 41), i64 15 }, i32 0, [4 x i8] zeroinitializer }>], align 16
@_ZN7metricsL63SystemProfileProto_Hardware_InternalStorageDevice_Purpose_namesE = internal constant [57 x i8] c"PURPOSE_BOOTPURPOSE_BOOT_SWAPPURPOSE_SWAPPURPOSE_UNKNOWN\00", align 16
@_ZZN7metrics62SystemProfileProto_Hardware_InternalStorageDevice_Purpose_NameENS_57SystemProfileProto_Hardware_InternalStorageDevice_PurposeEE5dummy = internal global i8 0, align 1
@_ZGVZN7metrics62SystemProfileProto_Hardware_InternalStorageDevice_Purpose_NameENS_57SystemProfileProto_Hardware_InternalStorageDevice_PurposeEE5dummy = internal global i64 0, align 8
@_ZN7metricsL75SystemProfileProto_Hardware_InternalStorageDevice_Purpose_entries_by_numberE = internal constant [4 x i32] [i32 3, i32 0, i32 2, i32 1], align 16
@_ZN7metricsL65SystemProfileProto_Hardware_InternalStorageDevice_Purpose_stringsE = internal global [4 x %"class.google::protobuf::internal::ExplicitlyConstructed.27"] zeroinitializer, align 16
@_ZN7metrics49SystemProfileProto_Hardware_InternalStorageDevice15PURPOSE_UNKNOWNE = hidden local_unnamed_addr constant i32 0, align 4
@_ZN7metrics49SystemProfileProto_Hardware_InternalStorageDevice12PURPOSE_BOOTE = hidden local_unnamed_addr constant i32 1, align 4
@_ZN7metrics49SystemProfileProto_Hardware_InternalStorageDevice12PURPOSE_SWAPE = hidden local_unnamed_addr constant i32 2, align 4
@_ZN7metrics49SystemProfileProto_Hardware_InternalStorageDevice17PURPOSE_BOOT_SWAPE = hidden local_unnamed_addr constant i32 3, align 4
@_ZN7metrics49SystemProfileProto_Hardware_InternalStorageDevice11Purpose_MINE = hidden local_unnamed_addr constant i32 0, align 4
@_ZN7metrics49SystemProfileProto_Hardware_InternalStorageDevice11Purpose_MAXE = hidden local_unnamed_addr constant i32 3, align 4
@_ZN7metrics49SystemProfileProto_Hardware_InternalStorageDevice17Purpose_ARRAYSIZEE = hidden local_unnamed_addr constant i32 4, align 4
@_ZN7metricsL49SystemProfileProto_Network_ConnectionType_entriesE = internal constant [10 x %"struct.google::protobuf::internal::EnumEntry"] [%"struct.google::protobuf::internal::EnumEntry" <{ %"class.google::protobuf::StringPiece" { i8* getelementptr inbounds ([160 x i8], [160 x i8]* @_ZN7metricsL47SystemProfileProto_Network_ConnectionType_namesE, i64 0, i64 0), i64 13 }, i32 3, [4 x i8] zeroinitializer }>, %"struct.google::protobuf::internal::EnumEntry" <{ %"class.google::protobuf::StringPiece" { i8* getelementptr inbounds ([160 x i8], [160 x i8]* @_ZN7metricsL47SystemProfileProto_Network_ConnectionType_namesE, i64 0, i64 13), i64 13 }, i32 4, [4 x i8] zeroinitializer }>, %"struct.google::protobuf::internal::EnumEntry" <{ %"class.google::protobuf::StringPiece" { i8* getelementptr inbounds ([160 x i8], [160 x i8]* @_ZN7metricsL47SystemProfileProto_Network_ConnectionType_namesE, i64 0, i64 26), i64 13 }, i32 5, [4 x i8] zeroinitializer }>, %"struct.google::protobuf::internal::EnumEntry" <{ %"class.google::protobuf::StringPiece" { i8* getelementptr inbounds ([160 x i8], [160 x i8]* @_ZN7metricsL47SystemProfileProto_Network_ConnectionType_namesE, i64 0, i64 39), i64 13 }, i32 9, [4 x i8] zeroinitializer }>, %"struct.google::protobuf::internal::EnumEntry" <{ %"class.google::protobuf::StringPiece" { i8* getelementptr inbounds ([160 x i8], [160 x i8]* @_ZN7metricsL47SystemProfileProto_Network_ConnectionType_namesE, i64 0, i64 52), i64 20 }, i32 8, [4 x i8] zeroinitializer }>, %"struct.google::protobuf::internal::EnumEntry" <{ %"class.google::protobuf::StringPiece" { i8* getelementptr inbounds ([160 x i8], [160 x i8]* @_ZN7metricsL47SystemProfileProto_Network_ConnectionType_namesE, i64 0, i64 72), i64 20 }, i32 6, [4 x i8] zeroinitializer }>, %"struct.google::protobuf::internal::EnumEntry" <{ %"class.google::protobuf::StringPiece" { i8* getelementptr inbounds ([160 x i8], [160 x i8]* @_ZN7metricsL47SystemProfileProto_Network_ConnectionType_namesE, i64 0, i64 92), i64 19 }, i32 1, [4 x i8] zeroinitializer }>, %"struct.google::protobuf::internal::EnumEntry" <{ %"class.google::protobuf::StringPiece" { i8* getelementptr inbounds ([160 x i8], [160 x i8]* @_ZN7metricsL47SystemProfileProto_Network_ConnectionType_namesE, i64 0, i64 111), i64 15 }, i32 7, [4 x i8] zeroinitializer }>, %"struct.google::protobuf::internal::EnumEntry" <{ %"class.google::protobuf::StringPiece" { i8* getelementptr inbounds ([160 x i8], [160 x i8]* @_ZN7metricsL47SystemProfileProto_Network_ConnectionType_namesE, i64 0, i64 126), i64 18 }, i32 0, [4 x i8] zeroinitializer }>, %"struct.google::protobuf::internal::EnumEntry" <{ %"class.google::protobuf::StringPiece" { i8* getelementptr inbounds ([160 x i8], [160 x i8]* @_ZN7metricsL47SystemProfileProto_Network_ConnectionType_namesE, i64 0, i64 144), i64 15 }, i32 2, [4 x i8] zeroinitializer }>], align 16
@_ZN7metricsL47SystemProfileProto_Network_ConnectionType_namesE = internal constant [160 x i8] c"CONNECTION_2GCONNECTION_3GCONNECTION_4GCONNECTION_5GCONNECTION_AMBIGUOUSCONNECTION_BLUETOOTHCONNECTION_ETHERNETCONNECTION_NONECONNECTION_UNKNOWNCONNECTION_WIFI\00", align 16
@_ZZN7metrics46SystemProfileProto_Network_ConnectionType_NameENS_41SystemProfileProto_Network_ConnectionTypeEE5dummy = internal global i8 0, align 1
@_ZGVZN7metrics46SystemProfileProto_Network_ConnectionType_NameENS_41SystemProfileProto_Network_ConnectionTypeEE5dummy = internal global i64 0, align 8
@_ZN7metricsL59SystemProfileProto_Network_ConnectionType_entries_by_numberE = internal constant [10 x i32] [i32 8, i32 6, i32 9, i32 0, i32 1, i32 2, i32 5, i32 7, i32 4, i32 3], align 16
@_ZN7metricsL49SystemProfileProto_Network_ConnectionType_stringsE = internal global [10 x %"class.google::protobuf::internal::ExplicitlyConstructed.27"] zeroinitializer, align 16
@_ZN7metrics26SystemProfileProto_Network18CONNECTION_UNKNOWNE = hidden local_unnamed_addr constant i32 0, align 4
@_ZN7metrics26SystemProfileProto_Network19CONNECTION_ETHERNETE = hidden local_unnamed_addr constant i32 1, align 4
@_ZN7metrics26SystemProfileProto_Network15CONNECTION_WIFIE = hidden local_unnamed_addr constant i32 2, align 4
@_ZN7metrics26SystemProfileProto_Network13CONNECTION_2GE = hidden local_unnamed_addr constant i32 3, align 4
@_ZN7metrics26SystemProfileProto_Network13CONNECTION_3GE = hidden local_unnamed_addr constant i32 4, align 4
@_ZN7metrics26SystemProfileProto_Network13CONNECTION_4GE = hidden local_unnamed_addr constant i32 5, align 4
@_ZN7metrics26SystemProfileProto_Network20CONNECTION_BLUETOOTHE = hidden local_unnamed_addr constant i32 6, align 4
@_ZN7metrics26SystemProfileProto_Network15CONNECTION_NONEE = hidden local_unnamed_addr constant i32 7, align 4
@_ZN7metrics26SystemProfileProto_Network20CONNECTION_AMBIGUOUSE = hidden local_unnamed_addr constant i32 8, align 4
@_ZN7metrics26SystemProfileProto_Network13CONNECTION_5GE = hidden local_unnamed_addr constant i32 9, align 4
@_ZN7metrics26SystemProfileProto_Network18ConnectionType_MINE = hidden local_unnamed_addr constant i32 0, align 4
@_ZN7metrics26SystemProfileProto_Network18ConnectionType_MAXE = hidden local_unnamed_addr constant i32 9, align 4
@_ZN7metrics26SystemProfileProto_Network24ConnectionType_ARRAYSIZEE = hidden local_unnamed_addr constant i32 10, align 4
@_ZN7metricsL55SystemProfileProto_Network_WifiPHYLayerProtocol_entriesE = internal constant [10 x %"struct.google::protobuf::internal::EnumEntry"] [%"struct.google::protobuf::internal::EnumEntry" <{ %"class.google::protobuf::StringPiece" { i8* getelementptr inbounds ([269 x i8], [269 x i8]* @_ZN7metricsL53SystemProfileProto_Network_WifiPHYLayerProtocol_namesE, i64 0, i64 0), i64 25 }, i32 2, [4 x i8] zeroinitializer }>, %"struct.google::protobuf::internal::EnumEntry" <{ %"class.google::protobuf::StringPiece" { i8* getelementptr inbounds ([269 x i8], [269 x i8]* @_ZN7metricsL53SystemProfileProto_Network_WifiPHYLayerProtocol_namesE, i64 0, i64 25), i64 26 }, i32 7, [4 x i8] zeroinitializer }>, %"struct.google::protobuf::internal::EnumEntry" <{ %"class.google::protobuf::StringPiece" { i8* getelementptr inbounds ([269 x i8], [269 x i8]* @_ZN7metricsL53SystemProfileProto_Network_WifiPHYLayerProtocol_namesE, i64 0, i64 51), i64 26 }, i32 8, [4 x i8] zeroinitializer }>, %"struct.google::protobuf::internal::EnumEntry" <{ %"class.google::protobuf::StringPiece" { i8* getelementptr inbounds ([269 x i8], [269 x i8]* @_ZN7metricsL53SystemProfileProto_Network_WifiPHYLayerProtocol_namesE, i64 0, i64 77), i64 31 }, i32 1, [4 x i8] zeroinitializer }>, %"struct.google::protobuf::internal::EnumEntry" <{ %"class.google::protobuf::StringPiece" { i8* getelementptr inbounds ([269 x i8], [269 x i8]* @_ZN7metricsL53SystemProfileProto_Network_WifiPHYLayerProtocol_namesE, i64 0, i64 108), i64 26 }, i32 9, [4 x i8] zeroinitializer }>, %"struct.google::protobuf::internal::EnumEntry" <{ %"class.google::protobuf::StringPiece" { i8* getelementptr inbounds ([269 x i8], [269 x i8]* @_ZN7metricsL53SystemProfileProto_Network_WifiPHYLayerProtocol_namesE, i64 0, i64 134), i64 25 }, i32 3, [4 x i8] zeroinitializer }>, %"struct.google::protobuf::internal::EnumEntry" <{ %"class.google::protobuf::StringPiece" { i8* getelementptr inbounds ([269 x i8], [269 x i8]* @_ZN7metricsL53SystemProfileProto_Network_WifiPHYLayerProtocol_namesE, i64 0, i64 159), i64 25 }, i32 4, [4 x i8] zeroinitializer }>, %"struct.google::protobuf::internal::EnumEntry" <{ %"class.google::protobuf::StringPiece" { i8* getelementptr inbounds ([269 x i8], [269 x i8]* @_ZN7metricsL53SystemProfileProto_Network_WifiPHYLayerProtocol_namesE, i64 0, i64 184), i64 25 }, i32 5, [4 x i8] zeroinitializer }>, %"struct.google::protobuf::internal::EnumEntry" <{ %"class.google::protobuf::StringPiece" { i8* getelementptr inbounds ([269 x i8], [269 x i8]* @_ZN7metricsL53SystemProfileProto_Network_WifiPHYLayerProtocol_namesE, i64 0, i64 209), i64 28 }, i32 0, [4 x i8] zeroinitializer }>, %"struct.google::protobuf::internal::EnumEntry" <{ %"class.google::protobuf::StringPiece" { i8* getelementptr inbounds ([269 x i8], [269 x i8]* @_ZN7metricsL53SystemProfileProto_Network_WifiPHYLayerProtocol_namesE, i64 0, i64 237), i64 31 }, i32 6, [4 x i8] zeroinitializer }>], align 16
@_ZN7metricsL53SystemProfileProto_Network_WifiPHYLayerProtocol_namesE = internal constant [269 x i8] c"WIFI_PHY_LAYER_PROTOCOL_AWIFI_PHY_LAYER_PROTOCOL_ACWIFI_PHY_LAYER_PROTOCOL_ADWIFI_PHY_LAYER_PROTOCOL_ANCIENTWIFI_PHY_LAYER_PROTOCOL_AXWIFI_PHY_LAYER_PROTOCOL_BWIFI_PHY_LAYER_PROTOCOL_GWIFI_PHY_LAYER_PROTOCOL_NWIFI_PHY_LAYER_PROTOCOL_NONEWIFI_PHY_LAYER_PROTOCOL_UNKNOWN\00", align 16
@_ZZN7metrics52SystemProfileProto_Network_WifiPHYLayerProtocol_NameENS_47SystemProfileProto_Network_WifiPHYLayerProtocolEE5dummy = internal global i8 0, align 1
@_ZGVZN7metrics52SystemProfileProto_Network_WifiPHYLayerProtocol_NameENS_47SystemProfileProto_Network_WifiPHYLayerProtocolEE5dummy = internal global i64 0, align 8
@_ZN7metricsL65SystemProfileProto_Network_WifiPHYLayerProtocol_entries_by_numberE = internal constant [10 x i32] [i32 8, i32 3, i32 0, i32 5, i32 6, i32 7, i32 9, i32 1, i32 2, i32 4], align 16
@_ZN7metricsL55SystemProfileProto_Network_WifiPHYLayerProtocol_stringsE = internal global [10 x %"class.google::protobuf::internal::ExplicitlyConstructed.27"] zeroinitializer, align 16
@_ZN7metrics26SystemProfileProto_Network28WIFI_PHY_LAYER_PROTOCOL_NONEE = hidden local_unnamed_addr constant i32 0, align 4
@_ZN7metrics26SystemProfileProto_Network31WIFI_PHY_LAYER_PROTOCOL_ANCIENTE = hidden local_unnamed_addr constant i32 1, align 4
@_ZN7metrics26SystemProfileProto_Network25WIFI_PHY_LAYER_PROTOCOL_AE = hidden local_unnamed_addr constant i32 2, align 4
@_ZN7metrics26SystemProfileProto_Network25WIFI_PHY_LAYER_PROTOCOL_BE = hidden local_unnamed_addr constant i32 3, align 4
@_ZN7metrics26SystemProfileProto_Network25WIFI_PHY_LAYER_PROTOCOL_GE = hidden local_unnamed_addr constant i32 4, align 4
@_ZN7metrics26SystemProfileProto_Network25WIFI_PHY_LAYER_PROTOCOL_NE = hidden local_unnamed_addr constant i32 5, align 4
@_ZN7metrics26SystemProfileProto_Network31WIFI_PHY_LAYER_PROTOCOL_UNKNOWNE = hidden local_unnamed_addr constant i32 6, align 4
@_ZN7metrics26SystemProfileProto_Network26WIFI_PHY_LAYER_PROTOCOL_ACE = hidden local_unnamed_addr constant i32 7, align 4
@_ZN7metrics26SystemProfileProto_Network26WIFI_PHY_LAYER_PROTOCOL_ADE = hidden local_unnamed_addr constant i32 8, align 4
@_ZN7metrics26SystemProfileProto_Network26WIFI_PHY_LAYER_PROTOCOL_AXE = hidden local_unnamed_addr constant i32 9, align 4
@_ZN7metrics26SystemProfileProto_Network24WifiPHYLayerProtocol_MINE = hidden local_unnamed_addr constant i32 0, align 4
@_ZN7metrics26SystemProfileProto_Network24WifiPHYLayerProtocol_MAXE = hidden local_unnamed_addr constant i32 9, align 4
@_ZN7metrics26SystemProfileProto_Network30WifiPHYLayerProtocol_ARRAYSIZEE = hidden local_unnamed_addr constant i32 10, align 4
@_ZN7metricsL58SystemProfileProto_Network_EffectiveConnectionType_entriesE = internal constant [7 x %"struct.google::protobuf::internal::EnumEntry"] [%"struct.google::protobuf::internal::EnumEntry" <{ %"class.google::protobuf::StringPiece" { i8* getelementptr inbounds ([230 x i8], [230 x i8]* @_ZN7metricsL56SystemProfileProto_Network_EffectiveConnectionType_namesE, i64 0, i64 0), i64 46 }, i32 1, [4 x i8] zeroinitializer }>, %"struct.google::protobuf::internal::EnumEntry" <{ %"class.google::protobuf::StringPiece" { i8* getelementptr inbounds ([230 x i8], [230 x i8]* @_ZN7metricsL56SystemProfileProto_Network_EffectiveConnectionType_namesE, i64 0, i64 46), i64 28 }, i32 4, [4 x i8] zeroinitializer }>, %"struct.google::protobuf::internal::EnumEntry" <{ %"class.google::protobuf::StringPiece" { i8* getelementptr inbounds ([230 x i8], [230 x i8]* @_ZN7metricsL56SystemProfileProto_Network_EffectiveConnectionType_namesE, i64 0, i64 74), i64 28 }, i32 5, [4 x i8] zeroinitializer }>, %"struct.google::protobuf::internal::EnumEntry" <{ %"class.google::protobuf::StringPiece" { i8* getelementptr inbounds ([230 x i8], [230 x i8]* @_ZN7metricsL56SystemProfileProto_Network_EffectiveConnectionType_namesE, i64 0, i64 102), i64 28 }, i32 6, [4 x i8] zeroinitializer }>, %"struct.google::protobuf::internal::EnumEntry" <{ %"class.google::protobuf::StringPiece" { i8* getelementptr inbounds ([230 x i8], [230 x i8]* @_ZN7metricsL56SystemProfileProto_Network_EffectiveConnectionType_namesE, i64 0, i64 130), i64 33 }, i32 2, [4 x i8] zeroinitializer }>, %"struct.google::protobuf::internal::EnumEntry" <{ %"class.google::protobuf::StringPiece" { i8* getelementptr inbounds ([230 x i8], [230 x i8]* @_ZN7metricsL56SystemProfileProto_Network_EffectiveConnectionType_namesE, i64 0, i64 163), i64 33 }, i32 3, [4 x i8] zeroinitializer }>, %"struct.google::protobuf::internal::EnumEntry" <{ %"class.google::protobuf::StringPiece" { i8* getelementptr inbounds ([230 x i8], [230 x i8]* @_ZN7metricsL56SystemProfileProto_Network_EffectiveConnectionType_namesE, i64 0, i64 196), i64 33 }, i32 0, [4 x i8] zeroinitializer }>], align 16
@_ZN7metricsL56SystemProfileProto_Network_EffectiveConnectionType_namesE = internal constant [230 x i8] c"DEPRECATED_EFFECTIVE_CONNECTION_TYPE_AMBIGUOUSEFFECTIVE_CONNECTION_TYPE_2GEFFECTIVE_CONNECTION_TYPE_3GEFFECTIVE_CONNECTION_TYPE_4GEFFECTIVE_CONNECTION_TYPE_OFFLINEEFFECTIVE_CONNECTION_TYPE_SLOW_2GEFFECTIVE_CONNECTION_TYPE_UNKNOWN\00", align 16
@_ZZN7metrics55SystemProfileProto_Network_EffectiveConnectionType_NameENS_50SystemProfileProto_Network_EffectiveConnectionTypeEE5dummy = internal global i8 0, align 1
@_ZGVZN7metrics55SystemProfileProto_Network_EffectiveConnectionType_NameENS_50SystemProfileProto_Network_EffectiveConnectionTypeEE5dummy = internal global i64 0, align 8
@_ZN7metricsL68SystemProfileProto_Network_EffectiveConnectionType_entries_by_numberE = internal constant [7 x i32] [i32 6, i32 0, i32 4, i32 5, i32 1, i32 2, i32 3], align 16
@_ZN7metricsL58SystemProfileProto_Network_EffectiveConnectionType_stringsE = internal global [7 x %"class.google::protobuf::internal::ExplicitlyConstructed.27"] zeroinitializer, align 16
@_ZN7metrics26SystemProfileProto_Network33EFFECTIVE_CONNECTION_TYPE_UNKNOWNE = hidden local_unnamed_addr constant i32 0, align 4
@_ZN7metrics26SystemProfileProto_Network46DEPRECATED_EFFECTIVE_CONNECTION_TYPE_AMBIGUOUSE = hidden local_unnamed_addr constant i32 1, align 4
@_ZN7metrics26SystemProfileProto_Network33EFFECTIVE_CONNECTION_TYPE_OFFLINEE = hidden local_unnamed_addr constant i32 2, align 4
@_ZN7metrics26SystemProfileProto_Network33EFFECTIVE_CONNECTION_TYPE_SLOW_2GE = hidden local_unnamed_addr constant i32 3, align 4
@_ZN7metrics26SystemProfileProto_Network28EFFECTIVE_CONNECTION_TYPE_2GE = hidden local_unnamed_addr constant i32 4, align 4
@_ZN7metrics26SystemProfileProto_Network28EFFECTIVE_CONNECTION_TYPE_3GE = hidden local_unnamed_addr constant i32 5, align 4
@_ZN7metrics26SystemProfileProto_Network28EFFECTIVE_CONNECTION_TYPE_4GE = hidden local_unnamed_addr constant i32 6, align 4
@_ZN7metrics26SystemProfileProto_Network27EffectiveConnectionType_MINE = hidden local_unnamed_addr constant i32 0, align 4
@_ZN7metrics26SystemProfileProto_Network27EffectiveConnectionType_MAXE = hidden local_unnamed_addr constant i32 6, align 4
@_ZN7metrics26SystemProfileProto_Network33EffectiveConnectionType_ARRAYSIZEE = hidden local_unnamed_addr constant i32 7, align 4
@_ZN7metricsL65SystemProfileProto_GoogleUpdate_ProductInfo_InstallResult_entriesE = internal constant [5 x %"struct.google::protobuf::internal::EnumEntry"] [%"struct.google::protobuf::internal::EnumEntry" <{ %"class.google::protobuf::StringPiece" { i8* getelementptr inbounds ([146 x i8], [146 x i8]* @_ZN7metricsL63SystemProfileProto_GoogleUpdate_ProductInfo_InstallResult_namesE, i64 0, i64 0), i64 24 }, i32 4, [4 x i8] zeroinitializer }>, %"struct.google::protobuf::internal::EnumEntry" <{ %"class.google::protobuf::StringPiece" { i8* getelementptr inbounds ([146 x i8], [146 x i8]* @_ZN7metricsL63SystemProfileProto_GoogleUpdate_ProductInfo_InstallResult_namesE, i64 0, i64 24), i64 34 }, i32 1, [4 x i8] zeroinitializer }>, %"struct.google::protobuf::internal::EnumEntry" <{ %"class.google::protobuf::StringPiece" { i8* getelementptr inbounds ([146 x i8], [146 x i8]* @_ZN7metricsL63SystemProfileProto_GoogleUpdate_ProductInfo_InstallResult_namesE, i64 0, i64 58), i64 31 }, i32 2, [4 x i8] zeroinitializer }>, %"struct.google::protobuf::internal::EnumEntry" <{ %"class.google::protobuf::StringPiece" { i8* getelementptr inbounds ([146 x i8], [146 x i8]* @_ZN7metricsL63SystemProfileProto_GoogleUpdate_ProductInfo_InstallResult_namesE, i64 0, i64 89), i64 34 }, i32 3, [4 x i8] zeroinitializer }>, %"struct.google::protobuf::internal::EnumEntry" <{ %"class.google::protobuf::StringPiece" { i8* getelementptr inbounds ([146 x i8], [146 x i8]* @_ZN7metricsL63SystemProfileProto_GoogleUpdate_ProductInfo_InstallResult_namesE, i64 0, i64 123), i64 22 }, i32 0, [4 x i8] zeroinitializer }>], align 16
@_ZN7metricsL63SystemProfileProto_GoogleUpdate_ProductInfo_InstallResult_namesE = internal constant [146 x i8] c"INSTALL_RESULT_EXIT_CODEINSTALL_RESULT_FAILED_CUSTOM_ERRORINSTALL_RESULT_FAILED_MSI_ERRORINSTALL_RESULT_FAILED_SYSTEM_ERRORINSTALL_RESULT_SUCCESS\00", align 16
@_ZZN7metrics62SystemProfileProto_GoogleUpdate_ProductInfo_InstallResult_NameENS_57SystemProfileProto_GoogleUpdate_ProductInfo_InstallResultEE5dummy = internal global i8 0, align 1
@_ZGVZN7metrics62SystemProfileProto_GoogleUpdate_ProductInfo_InstallResult_NameENS_57SystemProfileProto_GoogleUpdate_ProductInfo_InstallResultEE5dummy = internal global i64 0, align 8
@_ZN7metricsL75SystemProfileProto_GoogleUpdate_ProductInfo_InstallResult_entries_by_numberE = internal constant [5 x i32] [i32 4, i32 1, i32 2, i32 3, i32 0], align 16
@_ZN7metricsL65SystemProfileProto_GoogleUpdate_ProductInfo_InstallResult_stringsE = internal global [5 x %"class.google::protobuf::internal::ExplicitlyConstructed.27"] zeroinitializer, align 16
@_ZN7metrics43SystemProfileProto_GoogleUpdate_ProductInfo22INSTALL_RESULT_SUCCESSE = hidden local_unnamed_addr constant i32 0, align 4
@_ZN7metrics43SystemProfileProto_GoogleUpdate_ProductInfo34INSTALL_RESULT_FAILED_CUSTOM_ERRORE = hidden local_unnamed_addr constant i32 1, align 4
@_ZN7metrics43SystemProfileProto_GoogleUpdate_ProductInfo31INSTALL_RESULT_FAILED_MSI_ERRORE = hidden local_unnamed_addr constant i32 2, align 4
@_ZN7metrics43SystemProfileProto_GoogleUpdate_ProductInfo34INSTALL_RESULT_FAILED_SYSTEM_ERRORE = hidden local_unnamed_addr constant i32 3, align 4
@_ZN7metrics43SystemProfileProto_GoogleUpdate_ProductInfo24INSTALL_RESULT_EXIT_CODEE = hidden local_unnamed_addr constant i32 4, align 4
@_ZN7metrics43SystemProfileProto_GoogleUpdate_ProductInfo17InstallResult_MINE = hidden local_unnamed_addr constant i32 0, align 4
@_ZN7metrics43SystemProfileProto_GoogleUpdate_ProductInfo17InstallResult_MAXE = hidden local_unnamed_addr constant i32 4, align 4
@_ZN7metrics43SystemProfileProto_GoogleUpdate_ProductInfo23InstallResult_ARRAYSIZEE = hidden local_unnamed_addr constant i32 5, align 4
@_ZN7metricsL80SystemProfileProto_ExternalAudioVideoDevice_AudioDescription_AudioFormat_entriesE = internal constant [15 x %"struct.google::protobuf::internal::EnumEntry"] [%"struct.google::protobuf::internal::EnumEntry" <{ %"class.google::protobuf::StringPiece" { i8* getelementptr inbounds ([297 x i8], [297 x i8]* @_ZN7metricsL78SystemProfileProto_ExternalAudioVideoDevice_AudioDescription_AudioFormat_namesE, i64 0, i64 0), i64 16 }, i32 6, [4 x i8] zeroinitializer }>, %"struct.google::protobuf::internal::EnumEntry" <{ %"class.google::protobuf::StringPiece" { i8* getelementptr inbounds ([297 x i8], [297 x i8]* @_ZN7metricsL78SystemProfileProto_ExternalAudioVideoDevice_AudioDescription_AudioFormat_namesE, i64 0, i64 16), i64 17 }, i32 2, [4 x i8] zeroinitializer }>, %"struct.google::protobuf::internal::EnumEntry" <{ %"class.google::protobuf::StringPiece" { i8* getelementptr inbounds ([297 x i8], [297 x i8]* @_ZN7metricsL78SystemProfileProto_ExternalAudioVideoDevice_AudioDescription_AudioFormat_namesE, i64 0, i64 33), i64 18 }, i32 8, [4 x i8] zeroinitializer }>, %"struct.google::protobuf::internal::EnumEntry" <{ %"class.google::protobuf::StringPiece" { i8* getelementptr inbounds ([297 x i8], [297 x i8]* @_ZN7metricsL78SystemProfileProto_ExternalAudioVideoDevice_AudioDescription_AudioFormat_namesE, i64 0, i64 51), i64 20 }, i32 10, [4 x i8] zeroinitializer }>, %"struct.google::protobuf::internal::EnumEntry" <{ %"class.google::protobuf::StringPiece" { i8* getelementptr inbounds ([297 x i8], [297 x i8]* @_ZN7metricsL78SystemProfileProto_ExternalAudioVideoDevice_AudioDescription_AudioFormat_namesE, i64 0, i64 71), i64 22 }, i32 13, [4 x i8] zeroinitializer }>, %"struct.google::protobuf::internal::EnumEntry" <{ %"class.google::protobuf::StringPiece" { i8* getelementptr inbounds ([297 x i8], [297 x i8]* @_ZN7metricsL78SystemProfileProto_ExternalAudioVideoDevice_AudioDescription_AudioFormat_namesE, i64 0, i64 93), i64 16 }, i32 7, [4 x i8] zeroinitializer }>, %"struct.google::protobuf::internal::EnumEntry" <{ %"class.google::protobuf::StringPiece" { i8* getelementptr inbounds ([297 x i8], [297 x i8]* @_ZN7metricsL78SystemProfileProto_ExternalAudioVideoDevice_AudioDescription_AudioFormat_namesE, i64 0, i64 109), i64 19 }, i32 11, [4 x i8] zeroinitializer }>, %"struct.google::protobuf::internal::EnumEntry" <{ %"class.google::protobuf::StringPiece" { i8* getelementptr inbounds ([297 x i8], [297 x i8]* @_ZN7metricsL78SystemProfileProto_ExternalAudioVideoDevice_AudioDescription_AudioFormat_namesE, i64 0, i64 128), i64 17 }, i32 1, [4 x i8] zeroinitializer }>, %"struct.google::protobuf::internal::EnumEntry" <{ %"class.google::protobuf::StringPiece" { i8* getelementptr inbounds ([297 x i8], [297 x i8]* @_ZN7metricsL78SystemProfileProto_ExternalAudioVideoDevice_AudioDescription_AudioFormat_namesE, i64 0, i64 145), i64 30 }, i32 14, [4 x i8] zeroinitializer }>, %"struct.google::protobuf::internal::EnumEntry" <{ %"class.google::protobuf::StringPiece" { i8* getelementptr inbounds ([297 x i8], [297 x i8]* @_ZN7metricsL78SystemProfileProto_ExternalAudioVideoDevice_AudioDescription_AudioFormat_namesE, i64 0, i64 175), i64 29 }, i32 12, [4 x i8] zeroinitializer }>, %"struct.google::protobuf::internal::EnumEntry" <{ %"class.google::protobuf::StringPiece" { i8* getelementptr inbounds ([297 x i8], [297 x i8]* @_ZN7metricsL78SystemProfileProto_ExternalAudioVideoDevice_AudioDescription_AudioFormat_namesE, i64 0, i64 204), i64 16 }, i32 4, [4 x i8] zeroinitializer }>, %"struct.google::protobuf::internal::EnumEntry" <{ %"class.google::protobuf::StringPiece" { i8* getelementptr inbounds ([297 x i8], [297 x i8]* @_ZN7metricsL78SystemProfileProto_ExternalAudioVideoDevice_AudioDescription_AudioFormat_namesE, i64 0, i64 220), i64 18 }, i32 3, [4 x i8] zeroinitializer }>, %"struct.google::protobuf::internal::EnumEntry" <{ %"class.google::protobuf::StringPiece" { i8* getelementptr inbounds ([297 x i8], [297 x i8]* @_ZN7metricsL78SystemProfileProto_ExternalAudioVideoDevice_AudioDescription_AudioFormat_namesE, i64 0, i64 238), i64 18 }, i32 5, [4 x i8] zeroinitializer }>, %"struct.google::protobuf::internal::EnumEntry" <{ %"class.google::protobuf::StringPiece" { i8* getelementptr inbounds ([297 x i8], [297 x i8]* @_ZN7metricsL78SystemProfileProto_ExternalAudioVideoDevice_AudioDescription_AudioFormat_namesE, i64 0, i64 256), i64 20 }, i32 9, [4 x i8] zeroinitializer }>, %"struct.google::protobuf::internal::EnumEntry" <{ %"class.google::protobuf::StringPiece" { i8* getelementptr inbounds ([297 x i8], [297 x i8]* @_ZN7metricsL78SystemProfileProto_ExternalAudioVideoDevice_AudioDescription_AudioFormat_namesE, i64 0, i64 276), i64 20 }, i32 0, [4 x i8] zeroinitializer }>], align 16
@_ZN7metricsL78SystemProfileProto_ExternalAudioVideoDevice_AudioDescription_AudioFormat_namesE = internal constant [297 x i8] c"AUDIO_FORMAT_AACAUDIO_FORMAT_AC_3AUDIO_FORMAT_ATRACAUDIO_FORMAT_DD_PLUSAUDIO_FORMAT_DST_AUDIOAUDIO_FORMAT_DTSAUDIO_FORMAT_DTS_HDAUDIO_FORMAT_LPCMAUDIO_FORMAT_MICROSOFT_WMA_PROAUDIO_FORMAT_MLP_DOLBY_TRUEHDAUDIO_FORMAT_MP3AUDIO_FORMAT_MPEG1AUDIO_FORMAT_MPEG2AUDIO_FORMAT_ONE_BITAUDIO_FORMAT_UNKNOWN\00", align 16
@_ZZN7metrics77SystemProfileProto_ExternalAudioVideoDevice_AudioDescription_AudioFormat_NameENS_72SystemProfileProto_ExternalAudioVideoDevice_AudioDescription_AudioFormatEE5dummy = internal global i8 0, align 1
@_ZGVZN7metrics77SystemProfileProto_ExternalAudioVideoDevice_AudioDescription_AudioFormat_NameENS_72SystemProfileProto_ExternalAudioVideoDevice_AudioDescription_AudioFormatEE5dummy = internal global i64 0, align 8
@_ZN7metricsL90SystemProfileProto_ExternalAudioVideoDevice_AudioDescription_AudioFormat_entries_by_numberE = internal constant [15 x i32] [i32 14, i32 7, i32 1, i32 11, i32 10, i32 12, i32 0, i32 5, i32 2, i32 13, i32 3, i32 6, i32 9, i32 4, i32 8], align 16
@_ZN7metricsL80SystemProfileProto_ExternalAudioVideoDevice_AudioDescription_AudioFormat_stringsE = internal global [15 x %"class.google::protobuf::internal::ExplicitlyConstructed.27"] zeroinitializer, align 16
@_ZN7metrics60SystemProfileProto_ExternalAudioVideoDevice_AudioDescription20AUDIO_FORMAT_UNKNOWNE = hidden local_unnamed_addr constant i32 0, align 4
@_ZN7metrics60SystemProfileProto_ExternalAudioVideoDevice_AudioDescription17AUDIO_FORMAT_LPCME = hidden local_unnamed_addr constant i32 1, align 4
@_ZN7metrics60SystemProfileProto_ExternalAudioVideoDevice_AudioDescription17AUDIO_FORMAT_AC_3E = hidden local_unnamed_addr constant i32 2, align 4
@_ZN7metrics60SystemProfileProto_ExternalAudioVideoDevice_AudioDescription18AUDIO_FORMAT_MPEG1E = hidden local_unnamed_addr constant i32 3, align 4
@_ZN7metrics60SystemProfileProto_ExternalAudioVideoDevice_AudioDescription16AUDIO_FORMAT_MP3E = hidden local_unnamed_addr constant i32 4, align 4
@_ZN7metrics60SystemProfileProto_ExternalAudioVideoDevice_AudioDescription18AUDIO_FORMAT_MPEG2E = hidden local_unnamed_addr constant i32 5, align 4
@_ZN7metrics60SystemProfileProto_ExternalAudioVideoDevice_AudioDescription16AUDIO_FORMAT_AACE = hidden local_unnamed_addr constant i32 6, align 4
@_ZN7metrics60SystemProfileProto_ExternalAudioVideoDevice_AudioDescription16AUDIO_FORMAT_DTSE = hidden local_unnamed_addr constant i32 7, align 4
@_ZN7metrics60SystemProfileProto_ExternalAudioVideoDevice_AudioDescription18AUDIO_FORMAT_ATRACE = hidden local_unnamed_addr constant i32 8, align 4
@_ZN7metrics60SystemProfileProto_ExternalAudioVideoDevice_AudioDescription20AUDIO_FORMAT_ONE_BITE = hidden local_unnamed_addr constant i32 9, align 4
@_ZN7metrics60SystemProfileProto_ExternalAudioVideoDevice_AudioDescription20AUDIO_FORMAT_DD_PLUSE = hidden local_unnamed_addr constant i32 10, align 4
@_ZN7metrics60SystemProfileProto_ExternalAudioVideoDevice_AudioDescription19AUDIO_FORMAT_DTS_HDE = hidden local_unnamed_addr constant i32 11, align 4
@_ZN7metrics60SystemProfileProto_ExternalAudioVideoDevice_AudioDescription29AUDIO_FORMAT_MLP_DOLBY_TRUEHDE = hidden local_unnamed_addr constant i32 12, align 4
@_ZN7metrics60SystemProfileProto_ExternalAudioVideoDevice_AudioDescription22AUDIO_FORMAT_DST_AUDIOE = hidden local_unnamed_addr constant i32 13, align 4
@_ZN7metrics60SystemProfileProto_ExternalAudioVideoDevice_AudioDescription30AUDIO_FORMAT_MICROSOFT_WMA_PROE = hidden local_unnamed_addr constant i32 14, align 4
@_ZN7metrics60SystemProfileProto_ExternalAudioVideoDevice_AudioDescription15AudioFormat_MINE = hidden local_unnamed_addr constant i32 0, align 4
@_ZN7metrics60SystemProfileProto_ExternalAudioVideoDevice_AudioDescription15AudioFormat_MAXE = hidden local_unnamed_addr constant i32 14, align 4
@_ZN7metrics60SystemProfileProto_ExternalAudioVideoDevice_AudioDescription21AudioFormat_ARRAYSIZEE = hidden local_unnamed_addr constant i32 15, align 4
@_ZN7metricsL79SystemProfileProto_ExternalAudioVideoDevice_AudioDescription_OutputMode_entriesE = internal constant [2 x %"struct.google::protobuf::internal::EnumEntry"] [%"struct.google::protobuf::internal::EnumEntry" <{ %"class.google::protobuf::StringPiece" { i8* getelementptr inbounds ([14 x i8], [14 x i8]* @_ZN7metricsL77SystemProfileProto_ExternalAudioVideoDevice_AudioDescription_OutputMode_namesE, i64 0, i64 0), i64 6 }, i32 0, [4 x i8] zeroinitializer }>, %"struct.google::protobuf::internal::EnumEntry" <{ %"class.google::protobuf::StringPiece" { i8* getelementptr inbounds ([14 x i8], [14 x i8]* @_ZN7metricsL77SystemProfileProto_ExternalAudioVideoDevice_AudioDescription_OutputMode_namesE, i64 0, i64 6), i64 7 }, i32 1, [4 x i8] zeroinitializer }>], align 16
@_ZN7metricsL77SystemProfileProto_ExternalAudioVideoDevice_AudioDescription_OutputMode_namesE = internal constant [14 x i8] c"ANALOGDIGITAL\00", align 1
@_ZZN7metrics76SystemProfileProto_ExternalAudioVideoDevice_AudioDescription_OutputMode_NameENS_71SystemProfileProto_ExternalAudioVideoDevice_AudioDescription_OutputModeEE5dummy = internal global i8 0, align 1
@_ZGVZN7metrics76SystemProfileProto_ExternalAudioVideoDevice_AudioDescription_OutputMode_NameENS_71SystemProfileProto_ExternalAudioVideoDevice_AudioDescription_OutputModeEE5dummy = internal global i64 0, align 8
@_ZN7metricsL89SystemProfileProto_ExternalAudioVideoDevice_AudioDescription_OutputMode_entries_by_numberE = internal constant [2 x i32] [i32 0, i32 1], align 4
@_ZN7metricsL79SystemProfileProto_ExternalAudioVideoDevice_AudioDescription_OutputMode_stringsE = internal global [2 x %"class.google::protobuf::internal::ExplicitlyConstructed.27"] zeroinitializer, align 16
@_ZN7metrics60SystemProfileProto_ExternalAudioVideoDevice_AudioDescription6ANALOGE = hidden local_unnamed_addr constant i32 0, align 4
@_ZN7metrics60SystemProfileProto_ExternalAudioVideoDevice_AudioDescription7DIGITALE = hidden local_unnamed_addr constant i32 1, align 4
@_ZN7metrics60SystemProfileProto_ExternalAudioVideoDevice_AudioDescription14OutputMode_MINE = hidden local_unnamed_addr constant i32 0, align 4
@_ZN7metrics60SystemProfileProto_ExternalAudioVideoDevice_AudioDescription14OutputMode_MAXE = hidden local_unnamed_addr constant i32 1, align 4
@_ZN7metrics60SystemProfileProto_ExternalAudioVideoDevice_AudioDescription20OutputMode_ARRAYSIZEE = hidden local_unnamed_addr constant i32 2, align 4
@_ZN7metricsL64SystemProfileProto_ExternalAudioVideoDevice_AVDeviceType_entriesE = internal constant [6 x %"struct.google::protobuf::internal::EnumEntry"] [%"struct.google::protobuf::internal::EnumEntry" <{ %"class.google::protobuf::StringPiece" { i8* getelementptr inbounds ([131 x i8], [131 x i8]* @_ZN7metricsL62SystemProfileProto_ExternalAudioVideoDevice_AVDeviceType_namesE, i64 0, i64 0), i64 27 }, i32 5, [4 x i8] zeroinitializer }>, %"struct.google::protobuf::internal::EnumEntry" <{ %"class.google::protobuf::StringPiece" { i8* getelementptr inbounds ([131 x i8], [131 x i8]* @_ZN7metricsL62SystemProfileProto_ExternalAudioVideoDevice_AVDeviceType_namesE, i64 0, i64 27), i64 21 }, i32 4, [4 x i8] zeroinitializer }>, %"struct.google::protobuf::internal::EnumEntry" <{ %"class.google::protobuf::StringPiece" { i8* getelementptr inbounds ([131 x i8], [131 x i8]* @_ZN7metricsL62SystemProfileProto_ExternalAudioVideoDevice_AVDeviceType_namesE, i64 0, i64 48), i64 23 }, i32 2, [4 x i8] zeroinitializer }>, %"struct.google::protobuf::internal::EnumEntry" <{ %"class.google::protobuf::StringPiece" { i8* getelementptr inbounds ([131 x i8], [131 x i8]* @_ZN7metricsL62SystemProfileProto_ExternalAudioVideoDevice_AVDeviceType_namesE, i64 0, i64 71), i64 20 }, i32 3, [4 x i8] zeroinitializer }>, %"struct.google::protobuf::internal::EnumEntry" <{ %"class.google::protobuf::StringPiece" { i8* getelementptr inbounds ([131 x i8], [131 x i8]* @_ZN7metricsL62SystemProfileProto_ExternalAudioVideoDevice_AVDeviceType_namesE, i64 0, i64 91), i64 17 }, i32 1, [4 x i8] zeroinitializer }>, %"struct.google::protobuf::internal::EnumEntry" <{ %"class.google::protobuf::StringPiece" { i8* getelementptr inbounds ([131 x i8], [131 x i8]* @_ZN7metricsL62SystemProfileProto_ExternalAudioVideoDevice_AVDeviceType_namesE, i64 0, i64 108), i64 22 }, i32 0, [4 x i8] zeroinitializer }>], align 16
@_ZN7metricsL62SystemProfileProto_ExternalAudioVideoDevice_AVDeviceType_namesE = internal constant [131 x i8] c"AV_DEVICE_TYPE_AUDIO_SYSTEMAV_DEVICE_TYPE_PLAYERAV_DEVICE_TYPE_RECORDERAV_DEVICE_TYPE_TUNERAV_DEVICE_TYPE_TVAV_DEVICE_TYPE_UNKNOWN\00", align 16
@_ZZN7metrics61SystemProfileProto_ExternalAudioVideoDevice_AVDeviceType_NameENS_56SystemProfileProto_ExternalAudioVideoDevice_AVDeviceTypeEE5dummy = internal global i8 0, align 1
@_ZGVZN7metrics61SystemProfileProto_ExternalAudioVideoDevice_AVDeviceType_NameENS_56SystemProfileProto_ExternalAudioVideoDevice_AVDeviceTypeEE5dummy = internal global i64 0, align 8
@_ZN7metricsL74SystemProfileProto_ExternalAudioVideoDevice_AVDeviceType_entries_by_numberE = internal constant [6 x i32] [i32 5, i32 4, i32 2, i32 3, i32 1, i32 0], align 16
@_ZN7metricsL64SystemProfileProto_ExternalAudioVideoDevice_AVDeviceType_stringsE = internal global [6 x %"class.google::protobuf::internal::ExplicitlyConstructed.27"] zeroinitializer, align 16
@_ZN7metrics43SystemProfileProto_ExternalAudioVideoDevice22AV_DEVICE_TYPE_UNKNOWNE = hidden local_unnamed_addr constant i32 0, align 4
@_ZN7metrics43SystemProfileProto_ExternalAudioVideoDevice17AV_DEVICE_TYPE_TVE = hidden local_unnamed_addr constant i32 1, align 4
@_ZN7metrics43SystemProfileProto_ExternalAudioVideoDevice23AV_DEVICE_TYPE_RECORDERE = hidden local_unnamed_addr constant i32 2, align 4
@_ZN7metrics43SystemProfileProto_ExternalAudioVideoDevice20AV_DEVICE_TYPE_TUNERE = hidden local_unnamed_addr constant i32 3, align 4
@_ZN7metrics43SystemProfileProto_ExternalAudioVideoDevice21AV_DEVICE_TYPE_PLAYERE = hidden local_unnamed_addr constant i32 4, align 4
@_ZN7metrics43SystemProfileProto_ExternalAudioVideoDevice27AV_DEVICE_TYPE_AUDIO_SYSTEME = hidden local_unnamed_addr constant i32 5, align 4
@_ZN7metrics43SystemProfileProto_ExternalAudioVideoDevice16AVDeviceType_MINE = hidden local_unnamed_addr constant i32 0, align 4
@_ZN7metrics43SystemProfileProto_ExternalAudioVideoDevice16AVDeviceType_MAXE = hidden local_unnamed_addr constant i32 5, align 4
@_ZN7metrics43SystemProfileProto_ExternalAudioVideoDevice22AVDeviceType_ARRAYSIZEE = hidden local_unnamed_addr constant i32 6, align 4
@_ZN7metricsL65SystemProfileProto_ExternalAudioVideoDevice_ColorEncoding_entriesE = internal constant [5 x %"struct.google::protobuf::internal::EnumEntry"] [%"struct.google::protobuf::internal::EnumEntry" <{ %"class.google::protobuf::StringPiece" { i8* getelementptr inbounds ([104 x i8], [104 x i8]* @_ZN7metricsL63SystemProfileProto_ExternalAudioVideoDevice_ColorEncoding_namesE, i64 0, i64 0), i64 18 }, i32 1, [4 x i8] zeroinitializer }>, %"struct.google::protobuf::internal::EnumEntry" <{ %"class.google::protobuf::StringPiece" { i8* getelementptr inbounds ([104 x i8], [104 x i8]* @_ZN7metricsL63SystemProfileProto_ExternalAudioVideoDevice_ColorEncoding_namesE, i64 0, i64 18), i64 22 }, i32 0, [4 x i8] zeroinitializer }>, %"struct.google::protobuf::internal::EnumEntry" <{ %"class.google::protobuf::StringPiece" { i8* getelementptr inbounds ([104 x i8], [104 x i8]* @_ZN7metricsL63SystemProfileProto_ExternalAudioVideoDevice_ColorEncoding_namesE, i64 0, i64 40), i64 21 }, i32 4, [4 x i8] zeroinitializer }>, %"struct.google::protobuf::internal::EnumEntry" <{ %"class.google::protobuf::StringPiece" { i8* getelementptr inbounds ([104 x i8], [104 x i8]* @_ZN7metricsL63SystemProfileProto_ExternalAudioVideoDevice_ColorEncoding_namesE, i64 0, i64 61), i64 21 }, i32 3, [4 x i8] zeroinitializer }>, %"struct.google::protobuf::internal::EnumEntry" <{ %"class.google::protobuf::StringPiece" { i8* getelementptr inbounds ([104 x i8], [104 x i8]* @_ZN7metricsL63SystemProfileProto_ExternalAudioVideoDevice_ColorEncoding_namesE, i64 0, i64 82), i64 21 }, i32 2, [4 x i8] zeroinitializer }>], align 16
@_ZN7metricsL63SystemProfileProto_ExternalAudioVideoDevice_ColorEncoding_namesE = internal constant [104 x i8] c"COLOR_ENCODING_RGBCOLOR_ENCODING_UNKNOWNCOLOR_ENCODING_YUV420COLOR_ENCODING_YUV422COLOR_ENCODING_YUV444\00", align 16
@_ZZN7metrics62SystemProfileProto_ExternalAudioVideoDevice_ColorEncoding_NameENS_57SystemProfileProto_ExternalAudioVideoDevice_ColorEncodingEE5dummy = internal global i8 0, align 1
@_ZGVZN7metrics62SystemProfileProto_ExternalAudioVideoDevice_ColorEncoding_NameENS_57SystemProfileProto_ExternalAudioVideoDevice_ColorEncodingEE5dummy = internal global i64 0, align 8
@_ZN7metricsL75SystemProfileProto_ExternalAudioVideoDevice_ColorEncoding_entries_by_numberE = internal constant [5 x i32] [i32 1, i32 0, i32 4, i32 3, i32 2], align 16
@_ZN7metricsL65SystemProfileProto_ExternalAudioVideoDevice_ColorEncoding_stringsE = internal global [5 x %"class.google::protobuf::internal::ExplicitlyConstructed.27"] zeroinitializer, align 16
@_ZN7metrics43SystemProfileProto_ExternalAudioVideoDevice22COLOR_ENCODING_UNKNOWNE = hidden local_unnamed_addr constant i32 0, align 4
@_ZN7metrics43SystemProfileProto_ExternalAudioVideoDevice18COLOR_ENCODING_RGBE = hidden local_unnamed_addr constant i32 1, align 4
@_ZN7metrics43SystemProfileProto_ExternalAudioVideoDevice21COLOR_ENCODING_YUV444E = hidden local_unnamed_addr constant i32 2, align 4
@_ZN7metrics43SystemProfileProto_ExternalAudioVideoDevice21COLOR_ENCODING_YUV422E = hidden local_unnamed_addr constant i32 3, align 4
@_ZN7metrics43SystemProfileProto_ExternalAudioVideoDevice21COLOR_ENCODING_YUV420E = hidden local_unnamed_addr constant i32 4, align 4
@_ZN7metrics43SystemProfileProto_ExternalAudioVideoDevice17ColorEncoding_MINE = hidden local_unnamed_addr constant i32 0, align 4
@_ZN7metrics43SystemProfileProto_ExternalAudioVideoDevice17ColorEncoding_MAXE = hidden local_unnamed_addr constant i32 4, align 4
@_ZN7metrics43SystemProfileProto_ExternalAudioVideoDevice23ColorEncoding_ARRAYSIZEE = hidden local_unnamed_addr constant i32 5, align 4
@_ZN7metricsL34SystemProfileProto_Channel_entriesE = internal constant [5 x %"struct.google::protobuf::internal::EnumEntry"] [%"struct.google::protobuf::internal::EnumEntry" <{ %"class.google::protobuf::StringPiece" { i8* getelementptr inbounds ([67 x i8], [67 x i8]* @_ZN7metricsL32SystemProfileProto_Channel_namesE, i64 0, i64 0), i64 12 }, i32 3, [4 x i8] zeroinitializer }>, %"struct.google::protobuf::internal::EnumEntry" <{ %"class.google::protobuf::StringPiece" { i8* getelementptr inbounds ([67 x i8], [67 x i8]* @_ZN7metricsL32SystemProfileProto_Channel_namesE, i64 0, i64 12), i64 14 }, i32 1, [4 x i8] zeroinitializer }>, %"struct.google::protobuf::internal::EnumEntry" <{ %"class.google::protobuf::StringPiece" { i8* getelementptr inbounds ([67 x i8], [67 x i8]* @_ZN7metricsL32SystemProfileProto_Channel_namesE, i64 0, i64 26), i64 11 }, i32 2, [4 x i8] zeroinitializer }>, %"struct.google::protobuf::internal::EnumEntry" <{ %"class.google::protobuf::StringPiece" { i8* getelementptr inbounds ([67 x i8], [67 x i8]* @_ZN7metricsL32SystemProfileProto_Channel_namesE, i64 0, i64 37), i64 14 }, i32 4, [4 x i8] zeroinitializer }>, %"struct.google::protobuf::internal::EnumEntry" <{ %"class.google::protobuf::StringPiece" { i8* getelementptr inbounds ([67 x i8], [67 x i8]* @_ZN7metricsL32SystemProfileProto_Channel_namesE, i64 0, i64 51), i64 15 }, i32 0, [4 x i8] zeroinitializer }>], align 16
@_ZN7metricsL32SystemProfileProto_Channel_namesE = internal constant [67 x i8] c"CHANNEL_BETACHANNEL_CANARYCHANNEL_DEVCHANNEL_STABLECHANNEL_UNKNOWN\00", align 16
@_ZZN7metrics31SystemProfileProto_Channel_NameENS_26SystemProfileProto_ChannelEE5dummy = internal global i8 0, align 1
@_ZGVZN7metrics31SystemProfileProto_Channel_NameENS_26SystemProfileProto_ChannelEE5dummy = internal global i64 0, align 8
@_ZN7metricsL44SystemProfileProto_Channel_entries_by_numberE = internal constant [5 x i32] [i32 4, i32 1, i32 2, i32 0, i32 3], align 16
@_ZN7metricsL34SystemProfileProto_Channel_stringsE = internal global [5 x %"class.google::protobuf::internal::ExplicitlyConstructed.27"] zeroinitializer, align 16
@_ZN7metrics18SystemProfileProto15CHANNEL_UNKNOWNE = hidden local_unnamed_addr constant i32 0, align 4
@_ZN7metrics18SystemProfileProto14CHANNEL_CANARYE = hidden local_unnamed_addr constant i32 1, align 4
@_ZN7metrics18SystemProfileProto11CHANNEL_DEVE = hidden local_unnamed_addr constant i32 2, align 4
@_ZN7metrics18SystemProfileProto12CHANNEL_BETAE = hidden local_unnamed_addr constant i32 3, align 4
@_ZN7metrics18SystemProfileProto14CHANNEL_STABLEE = hidden local_unnamed_addr constant i32 4, align 4
@_ZN7metrics18SystemProfileProto11Channel_MINE = hidden local_unnamed_addr constant i32 0, align 4
@_ZN7metrics18SystemProfileProto11Channel_MAXE = hidden local_unnamed_addr constant i32 4, align 4
@_ZN7metrics18SystemProfileProto17Channel_ARRAYSIZEE = hidden local_unnamed_addr constant i32 5, align 4
@_ZN7metricsL42SystemProfileProto_ExtensionsState_entriesE = internal constant [4 x %"struct.google::protobuf::internal::EnumEntry"] [%"struct.google::protobuf::internal::EnumEntry" <{ %"class.google::protobuf::StringPiece" { i8* getelementptr inbounds ([68 x i8], [68 x i8]* @_ZN7metricsL40SystemProfileProto_ExtensionsState_namesE, i64 0, i64 0), i64 12 }, i32 3, [4 x i8] zeroinitializer }>, %"struct.google::protobuf::internal::EnumEntry" <{ %"class.google::protobuf::StringPiece" { i8* getelementptr inbounds ([68 x i8], [68 x i8]* @_ZN7metricsL40SystemProfileProto_ExtensionsState_namesE, i64 0, i64 12), i64 13 }, i32 0, [4 x i8] zeroinitializer }>, %"struct.google::protobuf::internal::EnumEntry" <{ %"class.google::protobuf::StringPiece" { i8* getelementptr inbounds ([68 x i8], [68 x i8]* @_ZN7metricsL40SystemProfileProto_ExtensionsState_namesE, i64 0, i64 25), i64 22 }, i32 2, [4 x i8] zeroinitializer }>, %"struct.google::protobuf::internal::EnumEntry" <{ %"class.google::protobuf::StringPiece" { i8* getelementptr inbounds ([68 x i8], [68 x i8]* @_ZN7metricsL40SystemProfileProto_ExtensionsState_namesE, i64 0, i64 47), i64 20 }, i32 1, [4 x i8] zeroinitializer }>], align 16
@_ZN7metricsL40SystemProfileProto_ExtensionsState_namesE = internal constant [68 x i8] c"HAS_OFFSTORENO_EXTENSIONSNO_OFFSTORE_UNVERIFIEDNO_OFFSTORE_VERIFIED\00", align 16
@_ZZN7metrics39SystemProfileProto_ExtensionsState_NameENS_34SystemProfileProto_ExtensionsStateEE5dummy = internal global i8 0, align 1
@_ZGVZN7metrics39SystemProfileProto_ExtensionsState_NameENS_34SystemProfileProto_ExtensionsStateEE5dummy = internal global i64 0, align 8
@_ZN7metricsL52SystemProfileProto_ExtensionsState_entries_by_numberE = internal constant [4 x i32] [i32 1, i32 3, i32 2, i32 0], align 16
@_ZN7metricsL42SystemProfileProto_ExtensionsState_stringsE = internal global [4 x %"class.google::protobuf::internal::ExplicitlyConstructed.27"] zeroinitializer, align 16
@_ZN7metrics18SystemProfileProto13NO_EXTENSIONSE = hidden local_unnamed_addr constant i32 0, align 4
@_ZN7metrics18SystemProfileProto20NO_OFFSTORE_VERIFIEDE = hidden local_unnamed_addr constant i32 1, align 4
@_ZN7metrics18SystemProfileProto22NO_OFFSTORE_UNVERIFIEDE = hidden local_unnamed_addr constant i32 2, align 4
@_ZN7metrics18SystemProfileProto12HAS_OFFSTOREE = hidden local_unnamed_addr constant i32 3, align 4
@_ZN7metrics18SystemProfileProto19ExtensionsState_MINE = hidden local_unnamed_addr constant i32 0, align 4
@_ZN7metrics18SystemProfileProto19ExtensionsState_MAXE = hidden local_unnamed_addr constant i32 3, align 4
@_ZN7metrics18SystemProfileProto25ExtensionsState_ARRAYSIZEE = hidden local_unnamed_addr constant i32 4, align 4
@_ZN7metricsL42SystemProfileProto_UmaDefaultState_entriesE = internal constant [4 x %"struct.google::protobuf::internal::EnumEntry"] [%"struct.google::protobuf::internal::EnumEntry" <{ %"class.google::protobuf::StringPiece" { i8* getelementptr inbounds ([46 x i8], [46 x i8]* @_ZN7metricsL40SystemProfileProto_UmaDefaultState_namesE, i64 0, i64 0), i64 6 }, i32 0, [4 x i8] zeroinitializer }>, %"struct.google::protobuf::internal::EnumEntry" <{ %"class.google::protobuf::StringPiece" { i8* getelementptr inbounds ([46 x i8], [46 x i8]* @_ZN7metricsL40SystemProfileProto_UmaDefaultState_namesE, i64 0, i64 6), i64 7 }, i32 1, [4 x i8] zeroinitializer }>, %"struct.google::protobuf::internal::EnumEntry" <{ %"class.google::protobuf::StringPiece" { i8* getelementptr inbounds ([46 x i8], [46 x i8]* @_ZN7metricsL40SystemProfileProto_UmaDefaultState_namesE, i64 0, i64 13), i64 11 }, i32 3, [4 x i8] zeroinitializer }>, %"struct.google::protobuf::internal::EnumEntry" <{ %"class.google::protobuf::StringPiece" { i8* getelementptr inbounds ([46 x i8], [46 x i8]* @_ZN7metricsL40SystemProfileProto_UmaDefaultState_namesE, i64 0, i64 24), i64 21 }, i32 2, [4 x i8] zeroinitializer }>], align 16
@_ZN7metricsL40SystemProfileProto_UmaDefaultState_namesE = internal constant [46 x i8] c"OPT_INOPT_OUTOPT_UNKNOWNPOLICY_FORCED_ENABLED\00", align 16
@_ZZN7metrics39SystemProfileProto_UmaDefaultState_NameENS_34SystemProfileProto_UmaDefaultStateEE5dummy = internal global i8 0, align 1
@_ZGVZN7metrics39SystemProfileProto_UmaDefaultState_NameENS_34SystemProfileProto_UmaDefaultStateEE5dummy = internal global i64 0, align 8
@_ZN7metricsL52SystemProfileProto_UmaDefaultState_entries_by_numberE = internal constant [4 x i32] [i32 0, i32 1, i32 3, i32 2], align 16
@_ZN7metricsL42SystemProfileProto_UmaDefaultState_stringsE = internal global [4 x %"class.google::protobuf::internal::ExplicitlyConstructed.27"] zeroinitializer, align 16
@_ZN7metrics18SystemProfileProto6OPT_INE = hidden local_unnamed_addr constant i32 0, align 4
@_ZN7metrics18SystemProfileProto7OPT_OUTE = hidden local_unnamed_addr constant i32 1, align 4
@_ZN7metrics18SystemProfileProto21POLICY_FORCED_ENABLEDE = hidden local_unnamed_addr constant i32 2, align 4
@_ZN7metrics18SystemProfileProto11OPT_UNKNOWNE = hidden local_unnamed_addr constant i32 3, align 4
@_ZN7metrics18SystemProfileProto19UmaDefaultState_MINE = hidden local_unnamed_addr constant i32 0, align 4
@_ZN7metrics18SystemProfileProto19UmaDefaultState_MAXE = hidden local_unnamed_addr constant i32 3, align 4
@_ZN7metrics18SystemProfileProto25UmaDefaultState_ARRAYSIZEE = hidden local_unnamed_addr constant i32 4, align 4
@_ZN7metricsL41SystemProfileProto_AntiVirusState_entriesE = internal constant [4 x %"struct.google::protobuf::internal::EnumEntry"] [%"struct.google::protobuf::internal::EnumEntry" <{ %"class.google::protobuf::StringPiece" { i8* getelementptr inbounds ([44 x i8], [44 x i8]* @_ZN7metricsL39SystemProfileProto_AntiVirusState_namesE, i64 0, i64 0), i64 13 }, i32 3, [4 x i8] zeroinitializer }>, %"struct.google::protobuf::internal::EnumEntry" <{ %"class.google::protobuf::StringPiece" { i8* getelementptr inbounds ([44 x i8], [44 x i8]* @_ZN7metricsL39SystemProfileProto_AntiVirusState_namesE, i64 0, i64 13), i64 9 }, i32 1, [4 x i8] zeroinitializer }>, %"struct.google::protobuf::internal::EnumEntry" <{ %"class.google::protobuf::StringPiece" { i8* getelementptr inbounds ([44 x i8], [44 x i8]* @_ZN7metricsL39SystemProfileProto_AntiVirusState_namesE, i64 0, i64 22), i64 8 }, i32 0, [4 x i8] zeroinitializer }>, %"struct.google::protobuf::internal::EnumEntry" <{ %"class.google::protobuf::StringPiece" { i8* getelementptr inbounds ([44 x i8], [44 x i8]* @_ZN7metricsL39SystemProfileProto_AntiVirusState_namesE, i64 0, i64 30), i64 13 }, i32 2, [4 x i8] zeroinitializer }>], align 16
@_ZN7metricsL39SystemProfileProto_AntiVirusState_namesE = internal constant [44 x i8] c"STATE_EXPIREDSTATE_OFFSTATE_ONSTATE_SNOOZED\00", align 16
@_ZZN7metrics38SystemProfileProto_AntiVirusState_NameENS_33SystemProfileProto_AntiVirusStateEE5dummy = internal global i8 0, align 1
@_ZGVZN7metrics38SystemProfileProto_AntiVirusState_NameENS_33SystemProfileProto_AntiVirusStateEE5dummy = internal global i64 0, align 8
@_ZN7metricsL51SystemProfileProto_AntiVirusState_entries_by_numberE = internal constant [4 x i32] [i32 2, i32 1, i32 3, i32 0], align 16
@_ZN7metricsL41SystemProfileProto_AntiVirusState_stringsE = internal global [4 x %"class.google::protobuf::internal::ExplicitlyConstructed.27"] zeroinitializer, align 16
@_ZN7metrics18SystemProfileProto8STATE_ONE = hidden local_unnamed_addr constant i32 0, align 4
@_ZN7metrics18SystemProfileProto9STATE_OFFE = hidden local_unnamed_addr constant i32 1, align 4
@_ZN7metrics18SystemProfileProto13STATE_SNOOZEDE = hidden local_unnamed_addr constant i32 2, align 4
@_ZN7metrics18SystemProfileProto13STATE_EXPIREDE = hidden local_unnamed_addr constant i32 3, align 4
@_ZN7metrics18SystemProfileProto18AntiVirusState_MINE = hidden local_unnamed_addr constant i32 0, align 4
@_ZN7metrics18SystemProfileProto18AntiVirusState_MAXE = hidden local_unnamed_addr constant i32 3, align 4
@_ZN7metrics18SystemProfileProto24AntiVirusState_ARRAYSIZEE = hidden local_unnamed_addr constant i32 4, align 4
@_ZN7metricsL38SystemProfileProto_ComponentId_entriesE = internal constant [28 x %"struct.google::protobuf::internal::EnumEntry"] [%"struct.google::protobuf::internal::EnumEntry" <{ %"class.google::protobuf::StringPiece" { i8* getelementptr inbounds ([413 x i8], [413 x i8]* @_ZN7metricsL36SystemProfileProto_ComponentId_namesE, i64 0, i64 0), i64 24 }, i32 28, [4 x i8] zeroinitializer }>, %"struct.google::protobuf::internal::EnumEntry" <{ %"class.google::protobuf::StringPiece" { i8* getelementptr inbounds ([413 x i8], [413 x i8]* @_ZN7metricsL36SystemProfileProto_ComponentId_namesE, i64 0, i64 24), i64 8 }, i32 23, [4 x i8] zeroinitializer }>, %"struct.google::protobuf::internal::EnumEntry" <{ %"class.google::protobuf::StringPiece" { i8* getelementptr inbounds ([413 x i8], [413 x i8]* @_ZN7metricsL36SystemProfileProto_ComponentId_namesE, i64 0, i64 32), i64 7 }, i32 10, [4 x i8] zeroinitializer }>, %"struct.google::protobuf::internal::EnumEntry" <{ %"class.google::protobuf::StringPiece" { i8* getelementptr inbounds ([413 x i8], [413 x i8]* @_ZN7metricsL36SystemProfileProto_ComponentId_namesE, i64 0, i64 39), i64 14 }, i32 26, [4 x i8] zeroinitializer }>, %"struct.google::protobuf::internal::EnumEntry" <{ %"class.google::protobuf::StringPiece" { i8* getelementptr inbounds ([413 x i8], [413 x i8]* @_ZN7metricsL36SystemProfileProto_ComponentId_namesE, i64 0, i64 53), i64 12 }, i32 15, [4 x i8] zeroinitializer }>, %"struct.google::protobuf::internal::EnumEntry" <{ %"class.google::protobuf::StringPiece" { i8* getelementptr inbounds ([413 x i8], [413 x i8]* @_ZN7metricsL36SystemProfileProto_ComponentId_namesE, i64 0, i64 65), i64 19 }, i32 24, [4 x i8] zeroinitializer }>, %"struct.google::protobuf::internal::EnumEntry" <{ %"class.google::protobuf::StringPiece" { i8* getelementptr inbounds ([413 x i8], [413 x i8]* @_ZN7metricsL36SystemProfileProto_ComponentId_namesE, i64 0, i64 84), i64 20 }, i32 19, [4 x i8] zeroinitializer }>, %"struct.google::protobuf::internal::EnumEntry" <{ %"class.google::protobuf::StringPiece" { i8* getelementptr inbounds ([413 x i8], [413 x i8]* @_ZN7metricsL36SystemProfileProto_ComponentId_namesE, i64 0, i64 104), i64 26 }, i32 14, [4 x i8] zeroinitializer }>, %"struct.google::protobuf::internal::EnumEntry" <{ %"class.google::protobuf::StringPiece" { i8* getelementptr inbounds ([413 x i8], [413 x i8]* @_ZN7metricsL36SystemProfileProto_ComponentId_namesE, i64 0, i64 130), i64 18 }, i32 2, [4 x i8] zeroinitializer }>, %"struct.google::protobuf::internal::EnumEntry" <{ %"class.google::protobuf::StringPiece" { i8* getelementptr inbounds ([413 x i8], [413 x i8]* @_ZN7metricsL36SystemProfileProto_ComponentId_namesE, i64 0, i64 148), i64 22 }, i32 25, [4 x i8] zeroinitializer }>, %"struct.google::protobuf::internal::EnumEntry" <{ %"class.google::protobuf::StringPiece" { i8* getelementptr inbounds ([413 x i8], [413 x i8]* @_ZN7metricsL36SystemProfileProto_ComponentId_namesE, i64 0, i64 170), i64 18 }, i32 18, [4 x i8] zeroinitializer }>, %"struct.google::protobuf::internal::EnumEntry" <{ %"class.google::protobuf::StringPiece" { i8* getelementptr inbounds ([413 x i8], [413 x i8]* @_ZN7metricsL36SystemProfileProto_ComponentId_namesE, i64 0, i64 188), i64 13 }, i32 3, [4 x i8] zeroinitializer }>, %"struct.google::protobuf::internal::EnumEntry" <{ %"class.google::protobuf::StringPiece" { i8* getelementptr inbounds ([413 x i8], [413 x i8]* @_ZN7metricsL36SystemProfileProto_ComponentId_namesE, i64 0, i64 201), i64 12 }, i32 4, [4 x i8] zeroinitializer }>, %"struct.google::protobuf::internal::EnumEntry" <{ %"class.google::protobuf::StringPiece" { i8* getelementptr inbounds ([413 x i8], [413 x i8]* @_ZN7metricsL36SystemProfileProto_ComponentId_namesE, i64 0, i64 213), i64 21 }, i32 5, [4 x i8] zeroinitializer }>, %"struct.google::protobuf::internal::EnumEntry" <{ %"class.google::protobuf::StringPiece" { i8* getelementptr inbounds ([413 x i8], [413 x i8]* @_ZN7metricsL36SystemProfileProto_ComponentId_namesE, i64 0, i64 234), i64 5 }, i32 6, [4 x i8] zeroinitializer }>, %"struct.google::protobuf::internal::EnumEntry" <{ %"class.google::protobuf::StringPiece" { i8* getelementptr inbounds ([413 x i8], [413 x i8]* @_ZN7metricsL36SystemProfileProto_ComponentId_namesE, i64 0, i64 239), i64 8 }, i32 7, [4 x i8] zeroinitializer }>, %"struct.google::protobuf::internal::EnumEntry" <{ %"class.google::protobuf::StringPiece" { i8* getelementptr inbounds ([413 x i8], [413 x i8]* @_ZN7metricsL36SystemProfileProto_ComponentId_namesE, i64 0, i64 247), i64 16 }, i32 22, [4 x i8] zeroinitializer }>, %"struct.google::protobuf::internal::EnumEntry" <{ %"class.google::protobuf::StringPiece" { i8* getelementptr inbounds ([413 x i8], [413 x i8]* @_ZN7metricsL36SystemProfileProto_ComponentId_namesE, i64 0, i64 263), i64 17 }, i32 21, [4 x i8] zeroinitializer }>, %"struct.google::protobuf::internal::EnumEntry" <{ %"class.google::protobuf::StringPiece" { i8* getelementptr inbounds ([413 x i8], [413 x i8]* @_ZN7metricsL36SystemProfileProto_ComponentId_namesE, i64 0, i64 280), i64 22 }, i32 17, [4 x i8] zeroinitializer }>, %"struct.google::protobuf::internal::EnumEntry" <{ %"class.google::protobuf::StringPiece" { i8* getelementptr inbounds ([413 x i8], [413 x i8]* @_ZN7metricsL36SystemProfileProto_ComponentId_namesE, i64 0, i64 302), i64 19 }, i32 8, [4 x i8] zeroinitializer }>, %"struct.google::protobuf::internal::EnumEntry" <{ %"class.google::protobuf::StringPiece" { i8* getelementptr inbounds ([413 x i8], [413 x i8]* @_ZN7metricsL36SystemProfileProto_ComponentId_namesE, i64 0, i64 321), i64 16 }, i32 16, [4 x i8] zeroinitializer }>, %"struct.google::protobuf::internal::EnumEntry" <{ %"class.google::protobuf::StringPiece" { i8* getelementptr inbounds ([413 x i8], [413 x i8]* @_ZN7metricsL36SystemProfileProto_ComponentId_namesE, i64 0, i64 337), i64 7 }, i32 9, [4 x i8] zeroinitializer }>, %"struct.google::protobuf::internal::EnumEntry" <{ %"class.google::protobuf::StringPiece" { i8* getelementptr inbounds ([413 x i8], [413 x i8]* @_ZN7metricsL36SystemProfileProto_ComponentId_namesE, i64 0, i64 344), i64 18 }, i32 11, [4 x i8] zeroinitializer }>, %"struct.google::protobuf::internal::EnumEntry" <{ %"class.google::protobuf::StringPiece" { i8* getelementptr inbounds ([413 x i8], [413 x i8]* @_ZN7metricsL36SystemProfileProto_ComponentId_namesE, i64 0, i64 362), i64 11 }, i32 12, [4 x i8] zeroinitializer }>, %"struct.google::protobuf::internal::EnumEntry" <{ %"class.google::protobuf::StringPiece" { i8* getelementptr inbounds ([413 x i8], [413 x i8]* @_ZN7metricsL36SystemProfileProto_ComponentId_namesE, i64 0, i64 373), i64 7 }, i32 1, [4 x i8] zeroinitializer }>, %"struct.google::protobuf::internal::EnumEntry" <{ %"class.google::protobuf::StringPiece" { i8* getelementptr inbounds ([413 x i8], [413 x i8]* @_ZN7metricsL36SystemProfileProto_ComponentId_namesE, i64 0, i64 380), i64 9 }, i32 20, [4 x i8] zeroinitializer }>, %"struct.google::protobuf::internal::EnumEntry" <{ %"class.google::protobuf::StringPiece" { i8* getelementptr inbounds ([413 x i8], [413 x i8]* @_ZN7metricsL36SystemProfileProto_ComponentId_namesE, i64 0, i64 389), i64 12 }, i32 13, [4 x i8] zeroinitializer }>, %"struct.google::protobuf::internal::EnumEntry" <{ %"class.google::protobuf::StringPiece" { i8* getelementptr inbounds ([413 x i8], [413 x i8]* @_ZN7metricsL36SystemProfileProto_ComponentId_namesE, i64 0, i64 401), i64 11 }, i32 27, [4 x i8] zeroinitializer }>], align 16
@_ZN7metricsL36SystemProfileProto_ComponentId_namesE = internal constant [413 x i8] c"AUTOFILL_REGEX_CONSTANTSCELLULARCRL_SETCROS_SMART_DIMCROS_TERMINADEMO_MODE_RESOURCESDOWNLOADABLE_STRINGSEPSON_INKJET_PRINTER_ESCPRFILE_TYPE_POLICIESON_DEVICE_HEAD_SUGGESTOPTIMIZATION_HINTSORIGIN_TRIALSPEPPER_FLASHPEPPER_FLASH_CHROMEOSPNACLRECOVERYRTANALYTICS_FULLRTANALYTICS_LIGHTSPEECH_SYNTHESIS_SV_SESSL_ERROR_ASSISTANTSTAR_CUPS_DRIVERSTH_SETSUBRESOURCE_FILTERSW_REPORTERUNKNOWNVR_ASSETSWIDEVINE_CDMZXCVBN_DATA\00", align 16
@_ZZN7metrics35SystemProfileProto_ComponentId_NameENS_30SystemProfileProto_ComponentIdEE5dummy = internal global i8 0, align 1
@_ZGVZN7metrics35SystemProfileProto_ComponentId_NameENS_30SystemProfileProto_ComponentIdEE5dummy = internal global i64 0, align 8
@_ZN7metricsL48SystemProfileProto_ComponentId_entries_by_numberE = internal constant [28 x i32] [i32 24, i32 8, i32 11, i32 12, i32 13, i32 14, i32 15, i32 19, i32 21, i32 2, i32 22, i32 23, i32 26, i32 7, i32 4, i32 20, i32 18, i32 10, i32 6, i32 25, i32 17, i32 16, i32 1, i32 5, i32 9, i32 3, i32 27, i32 0], align 16
@_ZN7metricsL38SystemProfileProto_ComponentId_stringsE = internal global [28 x %"class.google::protobuf::internal::ExplicitlyConstructed.27"] zeroinitializer, align 16
@_ZN7metrics18SystemProfileProto7UNKNOWNE = hidden local_unnamed_addr constant i32 1, align 4
@_ZN7metrics18SystemProfileProto18FILE_TYPE_POLICIESE = hidden local_unnamed_addr constant i32 2, align 4
@_ZN7metrics18SystemProfileProto13ORIGIN_TRIALSE = hidden local_unnamed_addr constant i32 3, align 4
@_ZN7metrics18SystemProfileProto12PEPPER_FLASHE = hidden local_unnamed_addr constant i32 4, align 4
@_ZN7metrics18SystemProfileProto21PEPPER_FLASH_CHROMEOSE = hidden local_unnamed_addr constant i32 5, align 4
@_ZN7metrics18SystemProfileProto5PNACLE = hidden local_unnamed_addr constant i32 6, align 4
@_ZN7metrics18SystemProfileProto8RECOVERYE = hidden local_unnamed_addr constant i32 7, align 4
@_ZN7metrics18SystemProfileProto19SSL_ERROR_ASSISTANTE = hidden local_unnamed_addr constant i32 8, align 4
@_ZN7metrics18SystemProfileProto7STH_SETE = hidden local_unnamed_addr constant i32 9, align 4
@_ZN7metrics18SystemProfileProto7CRL_SETE = hidden local_unnamed_addr constant i32 10, align 4
@_ZN7metrics18SystemProfileProto18SUBRESOURCE_FILTERE = hidden local_unnamed_addr constant i32 11, align 4
@_ZN7metrics18SystemProfileProto11SW_REPORTERE = hidden local_unnamed_addr constant i32 12, align 4
@_ZN7metrics18SystemProfileProto12WIDEVINE_CDME = hidden local_unnamed_addr constant i32 13, align 4
@_ZN7metrics18SystemProfileProto26EPSON_INKJET_PRINTER_ESCPRE = hidden local_unnamed_addr constant i32 14, align 4
@_ZN7metrics18SystemProfileProto12CROS_TERMINAE = hidden local_unnamed_addr constant i32 15, align 4
@_ZN7metrics18SystemProfileProto16STAR_CUPS_DRIVERE = hidden local_unnamed_addr constant i32 16, align 4
@_ZN7metrics18SystemProfileProto22SPEECH_SYNTHESIS_SV_SEE = hidden local_unnamed_addr constant i32 17, align 4
@_ZN7metrics18SystemProfileProto18OPTIMIZATION_HINTSE = hidden local_unnamed_addr constant i32 18, align 4
@_ZN7metrics18SystemProfileProto20DOWNLOADABLE_STRINGSE = hidden local_unnamed_addr constant i32 19, align 4
@_ZN7metrics18SystemProfileProto9VR_ASSETSE = hidden local_unnamed_addr constant i32 20, align 4
@_ZN7metrics18SystemProfileProto17RTANALYTICS_LIGHTE = hidden local_unnamed_addr constant i32 21, align 4
@_ZN7metrics18SystemProfileProto16RTANALYTICS_FULLE = hidden local_unnamed_addr constant i32 22, align 4
@_ZN7metrics18SystemProfileProto8CELLULARE = hidden local_unnamed_addr constant i32 23, align 4
@_ZN7metrics18SystemProfileProto19DEMO_MODE_RESOURCESE = hidden local_unnamed_addr constant i32 24, align 4
@_ZN7metrics18SystemProfileProto22ON_DEVICE_HEAD_SUGGESTE = hidden local_unnamed_addr constant i32 25, align 4
@_ZN7metrics18SystemProfileProto14CROS_SMART_DIME = hidden local_unnamed_addr constant i32 26, align 4
@_ZN7metrics18SystemProfileProto11ZXCVBN_DATAE = hidden local_unnamed_addr constant i32 27, align 4
@_ZN7metrics18SystemProfileProto24AUTOFILL_REGEX_CONSTANTSE = hidden local_unnamed_addr constant i32 28, align 4
@_ZN7metrics18SystemProfileProto15ComponentId_MINE = hidden local_unnamed_addr constant i32 1, align 4
@_ZN7metrics18SystemProfileProto15ComponentId_MAXE = hidden local_unnamed_addr constant i32 28, align 4
@_ZN7metrics18SystemProfileProto21ComponentId_ARRAYSIZEE = hidden local_unnamed_addr constant i32 29, align 4
@_ZN7metricsL43SystemProfileProto_InstallerPackage_entriesE = internal constant [4 x %"struct.google::protobuf::internal::EnumEntry"] [%"struct.google::protobuf::internal::EnumEntry" <{ %"class.google::protobuf::StringPiece" { i8* getelementptr inbounds ([106 x i8], [106 x i8]* @_ZN7metricsL41SystemProfileProto_InstallerPackage_namesE, i64 0, i64 0), i64 35 }, i32 2, [4 x i8] zeroinitializer }>, %"struct.google::protobuf::internal::EnumEntry" <{ %"class.google::protobuf::StringPiece" { i8* getelementptr inbounds ([106 x i8], [106 x i8]* @_ZN7metricsL41SystemProfileProto_InstallerPackage_namesE, i64 0, i64 35), i64 22 }, i32 1, [4 x i8] zeroinitializer }>, %"struct.google::protobuf::internal::EnumEntry" <{ %"class.google::protobuf::StringPiece" { i8* getelementptr inbounds ([106 x i8], [106 x i8]* @_ZN7metricsL41SystemProfileProto_InstallerPackage_namesE, i64 0, i64 57), i64 23 }, i32 3, [4 x i8] zeroinitializer }>, %"struct.google::protobuf::internal::EnumEntry" <{ %"class.google::protobuf::StringPiece" { i8* getelementptr inbounds ([106 x i8], [106 x i8]* @_ZN7metricsL41SystemProfileProto_InstallerPackage_namesE, i64 0, i64 80), i64 25 }, i32 0, [4 x i8] zeroinitializer }>], align 16
@_ZN7metricsL41SystemProfileProto_InstallerPackage_namesE = internal constant [106 x i8] c"INSTALLER_PACKAGE_GOOGLE_PLAY_STOREINSTALLER_PACKAGE_NONEINSTALLER_PACKAGE_OTHERINSTALLER_PACKAGE_UNKNOWN\00", align 16
@_ZZN7metrics40SystemProfileProto_InstallerPackage_NameENS_35SystemProfileProto_InstallerPackageEE5dummy = internal global i8 0, align 1
@_ZGVZN7metrics40SystemProfileProto_InstallerPackage_NameENS_35SystemProfileProto_InstallerPackageEE5dummy = internal global i64 0, align 8
@_ZN7metricsL53SystemProfileProto_InstallerPackage_entries_by_numberE = internal constant [4 x i32] [i32 3, i32 1, i32 0, i32 2], align 16
@_ZN7metricsL43SystemProfileProto_InstallerPackage_stringsE = internal global [4 x %"class.google::protobuf::internal::ExplicitlyConstructed.27"] zeroinitializer, align 16
@_ZN7metrics18SystemProfileProto25INSTALLER_PACKAGE_UNKNOWNE = hidden local_unnamed_addr constant i32 0, align 4
@_ZN7metrics18SystemProfileProto22INSTALLER_PACKAGE_NONEE = hidden local_unnamed_addr constant i32 1, align 4
@_ZN7metrics18SystemProfileProto35INSTALLER_PACKAGE_GOOGLE_PLAY_STOREE = hidden local_unnamed_addr constant i32 2, align 4
@_ZN7metrics18SystemProfileProto23INSTALLER_PACKAGE_OTHERE = hidden local_unnamed_addr constant i32 3, align 4
@_ZN7metrics18SystemProfileProto20InstallerPackage_MINE = hidden local_unnamed_addr constant i32 0, align 4
@_ZN7metrics18SystemProfileProto20InstallerPackage_MAXE = hidden local_unnamed_addr constant i32 3, align 4
@_ZN7metrics18SystemProfileProto26InstallerPackage_ARRAYSIZEE = hidden local_unnamed_addr constant i32 4, align 4
@_ZTVN7metrics25SystemProfileProto_OS_ArcE = hidden unnamed_addr constant { [16 x i8*] } { [16 x i8*] [i8* null, i8* null, i8* bitcast (void (%"class.metrics::SystemProfileProto_OS_Arc"*)* @_ZN7metrics25SystemProfileProto_OS_ArcD2Ev to i8*), i8* bitcast (void (%"class.metrics::SystemProfileProto_OS_Arc"*)* @_ZN7metrics25SystemProfileProto_OS_ArcD0Ev to i8*), i8* bitcast (void (%"class.std::__1::basic_string"*, %"class.metrics::SystemProfileProto_OS_Arc"*)* @_ZNK7metrics25SystemProfileProto_OS_Arc11GetTypeNameEv to i8*), i8* bitcast (%"class.metrics::SystemProfileProto_OS_Arc"* (%"class.metrics::SystemProfileProto_OS_Arc"*)* @_ZNK7metrics25SystemProfileProto_OS_Arc3NewEv to i8*), i8* bitcast (%"class.metrics::SystemProfileProto_OS_Arc"* (%"class.metrics::SystemProfileProto_OS_Arc"*, %"class.google::protobuf::Arena"*)* @_ZNK7metrics25SystemProfileProto_OS_Arc3NewEPN6google8protobuf5ArenaE to i8*), i8* bitcast (void (%"class.metrics::SystemProfileProto_OS_Arc"*)* @_ZN7metrics25SystemProfileProto_OS_Arc5ClearEv to i8*), i8* bitcast (i1 (%"class.metrics::SystemProfileProto_OS_Arc"*)* @_ZNK7metrics25SystemProfileProto_OS_Arc13IsInitializedEv to i8*), i8* bitcast (void (%"class.std::__1::basic_string"*, %"class.google::protobuf::MessageLite"*)* @_ZNK6google8protobuf11MessageLite25InitializationErrorStringEv to i8*), i8* bitcast (void (%"class.metrics::SystemProfileProto_OS_Arc"*, %"class.google::protobuf::MessageLite"*)* @_ZN7metrics25SystemProfileProto_OS_Arc21CheckTypeAndMergeFromERKN6google8protobuf11MessageLiteE to i8*), i8* bitcast (i64 (%"class.metrics::SystemProfileProto_OS_Arc"*)* @_ZNK7metrics25SystemProfileProto_OS_Arc12ByteSizeLongEv to i8*), i8* bitcast (i32 (%"class.metrics::SystemProfileProto_OS_Arc"*)* @_ZNK7metrics25SystemProfileProto_OS_Arc13GetCachedSizeEv to i8*), i8* bitcast (i8* (%"class.metrics::SystemProfileProto_OS_Arc"*, i8*, %"class.google::protobuf::internal::ParseContext"*)* @_ZN7metrics25SystemProfileProto_OS_Arc14_InternalParseEPKcPN6google8protobuf8internal12ParseContextE to i8*), i8* bitcast (i8* (%"class.metrics::SystemProfileProto_OS_Arc"*, i8*, %"class.google::protobuf::io::EpsCopyOutputStream"*)* @_ZNK7metrics25SystemProfileProto_OS_Arc18_InternalSerializeEPhPN6google8protobuf2io19EpsCopyOutputStreamE to i8*), i8* bitcast (i8* (%"class.google::protobuf::MessageLite"*)* @_ZNK6google8protobuf11MessageLite16InternalGetTableEv to i8*)] }, align 8
@.str = private unnamed_addr constant [51 x i8] c"gen/third_party/metrics_proto/system_profile.pb.cc\00", align 1
@.str.38 = private unnamed_addr constant [34 x i8] c"metrics.SystemProfileProto.OS.Arc\00", align 1
@_ZTVN7metrics21SystemProfileProto_OSE = hidden unnamed_addr constant { [16 x i8*] } { [16 x i8*] [i8* null, i8* null, i8* bitcast (void (%"class.metrics::SystemProfileProto_OS"*)* @_ZN7metrics21SystemProfileProto_OSD2Ev to i8*), i8* bitcast (void (%"class.metrics::SystemProfileProto_OS"*)* @_ZN7metrics21SystemProfileProto_OSD0Ev to i8*), i8* bitcast (void (%"class.std::__1::basic_string"*, %"class.metrics::SystemProfileProto_OS"*)* @_ZNK7metrics21SystemProfileProto_OS11GetTypeNameEv to i8*), i8* bitcast (%"class.metrics::SystemProfileProto_OS"* (%"class.metrics::SystemProfileProto_OS"*)* @_ZNK7metrics21SystemProfileProto_OS3NewEv to i8*), i8* bitcast (%"class.metrics::SystemProfileProto_OS"* (%"class.metrics::SystemProfileProto_OS"*, %"class.google::protobuf::Arena"*)* @_ZNK7metrics21SystemProfileProto_OS3NewEPN6google8protobuf5ArenaE to i8*), i8* bitcast (void (%"class.metrics::SystemProfileProto_OS"*)* @_ZN7metrics21SystemProfileProto_OS5ClearEv to i8*), i8* bitcast (i1 (%"class.metrics::SystemProfileProto_OS"*)* @_ZNK7metrics21SystemProfileProto_OS13IsInitializedEv to i8*), i8* bitcast (void (%"class.std::__1::basic_string"*, %"class.google::protobuf::MessageLite"*)* @_ZNK6google8protobuf11MessageLite25InitializationErrorStringEv to i8*), i8* bitcast (void (%"class.metrics::SystemProfileProto_OS"*, %"class.google::protobuf::MessageLite"*)* @_ZN7metrics21SystemProfileProto_OS21CheckTypeAndMergeFromERKN6google8protobuf11MessageLiteE to i8*), i8* bitcast (i64 (%"class.metrics::SystemProfileProto_OS"*)* @_ZNK7metrics21SystemProfileProto_OS12ByteSizeLongEv to i8*), i8* bitcast (i32 (%"class.metrics::SystemProfileProto_OS"*)* @_ZNK7metrics21SystemProfileProto_OS13GetCachedSizeEv to i8*), i8* bitcast (i8* (%"class.metrics::SystemProfileProto_OS"*, i8*, %"class.google::protobuf::internal::ParseContext"*)* @_ZN7metrics21SystemProfileProto_OS14_InternalParseEPKcPN6google8protobuf8internal12ParseContextE to i8*), i8* bitcast (i8* (%"class.metrics::SystemProfileProto_OS"*, i8*, %"class.google::protobuf::io::EpsCopyOutputStream"*)* @_ZNK7metrics21SystemProfileProto_OS18_InternalSerializeEPhPN6google8protobuf2io19EpsCopyOutputStreamE to i8*), i8* bitcast (i8* (%"class.google::protobuf::MessageLite"*)* @_ZNK6google8protobuf11MessageLite16InternalGetTableEv to i8*)] }, align 8
@.str.40 = private unnamed_addr constant [30 x i8] c"metrics.SystemProfileProto.OS\00", align 1
@_ZTVN7metrics31SystemProfileProto_Hardware_CPUE = hidden unnamed_addr constant { [16 x i8*] } { [16 x i8*] [i8* null, i8* null, i8* bitcast (void (%"class.metrics::SystemProfileProto_Hardware_CPU"*)* @_ZN7metrics31SystemProfileProto_Hardware_CPUD2Ev to i8*), i8* bitcast (void (%"class.metrics::SystemProfileProto_Hardware_CPU"*)* @_ZN7metrics31SystemProfileProto_Hardware_CPUD0Ev to i8*), i8* bitcast (void (%"class.std::__1::basic_string"*, %"class.metrics::SystemProfileProto_Hardware_CPU"*)* @_ZNK7metrics31SystemProfileProto_Hardware_CPU11GetTypeNameEv to i8*), i8* bitcast (%"class.metrics::SystemProfileProto_Hardware_CPU"* (%"class.metrics::SystemProfileProto_Hardware_CPU"*)* @_ZNK7metrics31SystemProfileProto_Hardware_CPU3NewEv to i8*), i8* bitcast (%"class.metrics::SystemProfileProto_Hardware_CPU"* (%"class.metrics::SystemProfileProto_Hardware_CPU"*, %"class.google::protobuf::Arena"*)* @_ZNK7metrics31SystemProfileProto_Hardware_CPU3NewEPN6google8protobuf5ArenaE to i8*), i8* bitcast (void (%"class.metrics::SystemProfileProto_Hardware_CPU"*)* @_ZN7metrics31SystemProfileProto_Hardware_CPU5ClearEv to i8*), i8* bitcast (i1 (%"class.metrics::SystemProfileProto_Hardware_CPU"*)* @_ZNK7metrics31SystemProfileProto_Hardware_CPU13IsInitializedEv to i8*), i8* bitcast (void (%"class.std::__1::basic_string"*, %"class.google::protobuf::MessageLite"*)* @_ZNK6google8protobuf11MessageLite25InitializationErrorStringEv to i8*), i8* bitcast (void (%"class.metrics::SystemProfileProto_Hardware_CPU"*, %"class.google::protobuf::MessageLite"*)* @_ZN7metrics31SystemProfileProto_Hardware_CPU21CheckTypeAndMergeFromERKN6google8protobuf11MessageLiteE to i8*), i8* bitcast (i64 (%"class.metrics::SystemProfileProto_Hardware_CPU"*)* @_ZNK7metrics31SystemProfileProto_Hardware_CPU12ByteSizeLongEv to i8*), i8* bitcast (i32 (%"class.metrics::SystemProfileProto_Hardware_CPU"*)* @_ZNK7metrics31SystemProfileProto_Hardware_CPU13GetCachedSizeEv to i8*), i8* bitcast (i8* (%"class.metrics::SystemProfileProto_Hardware_CPU"*, i8*, %"class.google::protobuf::internal::ParseContext"*)* @_ZN7metrics31SystemProfileProto_Hardware_CPU14_InternalParseEPKcPN6google8protobuf8internal12ParseContextE to i8*), i8* bitcast (i8* (%"class.metrics::SystemProfileProto_Hardware_CPU"*, i8*, %"class.google::protobuf::io::EpsCopyOutputStream"*)* @_ZNK7metrics31SystemProfileProto_Hardware_CPU18_InternalSerializeEPhPN6google8protobuf2io19EpsCopyOutputStreamE to i8*), i8* bitcast (i8* (%"class.google::protobuf::MessageLite"*)* @_ZNK6google8protobuf11MessageLite16InternalGetTableEv to i8*)] }, align 8
@.str.41 = private unnamed_addr constant [40 x i8] c"metrics.SystemProfileProto.Hardware.CPU\00", align 1
@_ZTVN7metrics36SystemProfileProto_Hardware_GraphicsE = hidden unnamed_addr constant { [16 x i8*] } { [16 x i8*] [i8* null, i8* null, i8* bitcast (void (%"class.metrics::SystemProfileProto_Hardware_Graphics"*)* @_ZN7metrics36SystemProfileProto_Hardware_GraphicsD2Ev to i8*), i8* bitcast (void (%"class.metrics::SystemProfileProto_Hardware_Graphics"*)* @_ZN7metrics36SystemProfileProto_Hardware_GraphicsD0Ev to i8*), i8* bitcast (void (%"class.std::__1::basic_string"*, %"class.metrics::SystemProfileProto_Hardware_Graphics"*)* @_ZNK7metrics36SystemProfileProto_Hardware_Graphics11GetTypeNameEv to i8*), i8* bitcast (%"class.metrics::SystemProfileProto_Hardware_Graphics"* (%"class.metrics::SystemProfileProto_Hardware_Graphics"*)* @_ZNK7metrics36SystemProfileProto_Hardware_Graphics3NewEv to i8*), i8* bitcast (%"class.metrics::SystemProfileProto_Hardware_Graphics"* (%"class.metrics::SystemProfileProto_Hardware_Graphics"*, %"class.google::protobuf::Arena"*)* @_ZNK7metrics36SystemProfileProto_Hardware_Graphics3NewEPN6google8protobuf5ArenaE to i8*), i8* bitcast (void (%"class.metrics::SystemProfileProto_Hardware_Graphics"*)* @_ZN7metrics36SystemProfileProto_Hardware_Graphics5ClearEv to i8*), i8* bitcast (i1 (%"class.metrics::SystemProfileProto_Hardware_Graphics"*)* @_ZNK7metrics36SystemProfileProto_Hardware_Graphics13IsInitializedEv to i8*), i8* bitcast (void (%"class.std::__1::basic_string"*, %"class.google::protobuf::MessageLite"*)* @_ZNK6google8protobuf11MessageLite25InitializationErrorStringEv to i8*), i8* bitcast (void (%"class.metrics::SystemProfileProto_Hardware_Graphics"*, %"class.google::protobuf::MessageLite"*)* @_ZN7metrics36SystemProfileProto_Hardware_Graphics21CheckTypeAndMergeFromERKN6google8protobuf11MessageLiteE to i8*), i8* bitcast (i64 (%"class.metrics::SystemProfileProto_Hardware_Graphics"*)* @_ZNK7metrics36SystemProfileProto_Hardware_Graphics12ByteSizeLongEv to i8*), i8* bitcast (i32 (%"class.metrics::SystemProfileProto_Hardware_Graphics"*)* @_ZNK7metrics36SystemProfileProto_Hardware_Graphics13GetCachedSizeEv to i8*), i8* bitcast (i8* (%"class.metrics::SystemProfileProto_Hardware_Graphics"*, i8*, %"class.google::protobuf::internal::ParseContext"*)* @_ZN7metrics36SystemProfileProto_Hardware_Graphics14_InternalParseEPKcPN6google8protobuf8internal12ParseContextE to i8*), i8* bitcast (i8* (%"class.metrics::SystemProfileProto_Hardware_Graphics"*, i8*, %"class.google::protobuf::io::EpsCopyOutputStream"*)* @_ZNK7metrics36SystemProfileProto_Hardware_Graphics18_InternalSerializeEPhPN6google8protobuf2io19EpsCopyOutputStreamE to i8*), i8* bitcast (i8* (%"class.google::protobuf::MessageLite"*)* @_ZNK6google8protobuf11MessageLite16InternalGetTableEv to i8*)] }, align 8
@.str.42 = private unnamed_addr constant [45 x i8] c"metrics.SystemProfileProto.Hardware.Graphics\00", align 1
@_ZTVN7metrics49SystemProfileProto_Hardware_InternalStorageDeviceE = hidden unnamed_addr constant { [16 x i8*] } { [16 x i8*] [i8* null, i8* null, i8* bitcast (void (%"class.metrics::SystemProfileProto_Hardware_InternalStorageDevice"*)* @_ZN7metrics49SystemProfileProto_Hardware_InternalStorageDeviceD2Ev to i8*), i8* bitcast (void (%"class.metrics::SystemProfileProto_Hardware_InternalStorageDevice"*)* @_ZN7metrics49SystemProfileProto_Hardware_InternalStorageDeviceD0Ev to i8*), i8* bitcast (void (%"class.std::__1::basic_string"*, %"class.metrics::SystemProfileProto_Hardware_InternalStorageDevice"*)* @_ZNK7metrics49SystemProfileProto_Hardware_InternalStorageDevice11GetTypeNameEv to i8*), i8* bitcast (%"class.metrics::SystemProfileProto_Hardware_InternalStorageDevice"* (%"class.metrics::SystemProfileProto_Hardware_InternalStorageDevice"*)* @_ZNK7metrics49SystemProfileProto_Hardware_InternalStorageDevice3NewEv to i8*), i8* bitcast (%"class.metrics::SystemProfileProto_Hardware_InternalStorageDevice"* (%"class.metrics::SystemProfileProto_Hardware_InternalStorageDevice"*, %"class.google::protobuf::Arena"*)* @_ZNK7metrics49SystemProfileProto_Hardware_InternalStorageDevice3NewEPN6google8protobuf5ArenaE to i8*), i8* bitcast (void (%"class.metrics::SystemProfileProto_Hardware_InternalStorageDevice"*)* @_ZN7metrics49SystemProfileProto_Hardware_InternalStorageDevice5ClearEv to i8*), i8* bitcast (i1 (%"class.metrics::SystemProfileProto_Hardware_InternalStorageDevice"*)* @_ZNK7metrics49SystemProfileProto_Hardware_InternalStorageDevice13IsInitializedEv to i8*), i8* bitcast (void (%"class.std::__1::basic_string"*, %"class.google::protobuf::MessageLite"*)* @_ZNK6google8protobuf11MessageLite25InitializationErrorStringEv to i8*), i8* bitcast (void (%"class.metrics::SystemProfileProto_Hardware_InternalStorageDevice"*, %"class.google::protobuf::MessageLite"*)* @_ZN7metrics49SystemProfileProto_Hardware_InternalStorageDevice21CheckTypeAndMergeFromERKN6google8protobuf11MessageLiteE to i8*), i8* bitcast (i64 (%"class.metrics::SystemProfileProto_Hardware_InternalStorageDevice"*)* @_ZNK7metrics49SystemProfileProto_Hardware_InternalStorageDevice12ByteSizeLongEv to i8*), i8* bitcast (i32 (%"class.metrics::SystemProfileProto_Hardware_InternalStorageDevice"*)* @_ZNK7metrics49SystemProfileProto_Hardware_InternalStorageDevice13GetCachedSizeEv to i8*), i8* bitcast (i8* (%"class.metrics::SystemProfileProto_Hardware_InternalStorageDevice"*, i8*, %"class.google::protobuf::internal::ParseContext"*)* @_ZN7metrics49SystemProfileProto_Hardware_InternalStorageDevice14_InternalParseEPKcPN6google8protobuf8internal12ParseContextE to i8*), i8* bitcast (i8* (%"class.metrics::SystemProfileProto_Hardware_InternalStorageDevice"*, i8*, %"class.google::protobuf::io::EpsCopyOutputStream"*)* @_ZNK7metrics49SystemProfileProto_Hardware_InternalStorageDevice18_InternalSerializeEPhPN6google8protobuf2io19EpsCopyOutputStreamE to i8*), i8* bitcast (i8* (%"class.google::protobuf::MessageLite"*)* @_ZNK6google8protobuf11MessageLite16InternalGetTableEv to i8*)] }, align 8
@.str.43 = private unnamed_addr constant [58 x i8] c"metrics.SystemProfileProto.Hardware.InternalStorageDevice\00", align 1
@_ZTVN7metrics33SystemProfileProto_Hardware_DriveE = hidden unnamed_addr constant { [16 x i8*] } { [16 x i8*] [i8* null, i8* null, i8* bitcast (void (%"class.metrics::SystemProfileProto_Hardware_Drive"*)* @_ZN7metrics33SystemProfileProto_Hardware_DriveD2Ev to i8*), i8* bitcast (void (%"class.metrics::SystemProfileProto_Hardware_Drive"*)* @_ZN7metrics33SystemProfileProto_Hardware_DriveD0Ev to i8*), i8* bitcast (void (%"class.std::__1::basic_string"*, %"class.metrics::SystemProfileProto_Hardware_Drive"*)* @_ZNK7metrics33SystemProfileProto_Hardware_Drive11GetTypeNameEv to i8*), i8* bitcast (%"class.metrics::SystemProfileProto_Hardware_Drive"* (%"class.metrics::SystemProfileProto_Hardware_Drive"*)* @_ZNK7metrics33SystemProfileProto_Hardware_Drive3NewEv to i8*), i8* bitcast (%"class.metrics::SystemProfileProto_Hardware_Drive"* (%"class.metrics::SystemProfileProto_Hardware_Drive"*, %"class.google::protobuf::Arena"*)* @_ZNK7metrics33SystemProfileProto_Hardware_Drive3NewEPN6google8protobuf5ArenaE to i8*), i8* bitcast (void (%"class.metrics::SystemProfileProto_Hardware_Drive"*)* @_ZN7metrics33SystemProfileProto_Hardware_Drive5ClearEv to i8*), i8* bitcast (i1 (%"class.metrics::SystemProfileProto_Hardware_Drive"*)* @_ZNK7metrics33SystemProfileProto_Hardware_Drive13IsInitializedEv to i8*), i8* bitcast (void (%"class.std::__1::basic_string"*, %"class.google::protobuf::MessageLite"*)* @_ZNK6google8protobuf11MessageLite25InitializationErrorStringEv to i8*), i8* bitcast (void (%"class.metrics::SystemProfileProto_Hardware_Drive"*, %"class.google::protobuf::MessageLite"*)* @_ZN7metrics33SystemProfileProto_Hardware_Drive21CheckTypeAndMergeFromERKN6google8protobuf11MessageLiteE to i8*), i8* bitcast (i64 (%"class.metrics::SystemProfileProto_Hardware_Drive"*)* @_ZNK7metrics33SystemProfileProto_Hardware_Drive12ByteSizeLongEv to i8*), i8* bitcast (i32 (%"class.metrics::SystemProfileProto_Hardware_Drive"*)* @_ZNK7metrics33SystemProfileProto_Hardware_Drive13GetCachedSizeEv to i8*), i8* bitcast (i8* (%"class.metrics::SystemProfileProto_Hardware_Drive"*, i8*, %"class.google::protobuf::internal::ParseContext"*)* @_ZN7metrics33SystemProfileProto_Hardware_Drive14_InternalParseEPKcPN6google8protobuf8internal12ParseContextE to i8*), i8* bitcast (i8* (%"class.metrics::SystemProfileProto_Hardware_Drive"*, i8*, %"class.google::protobuf::io::EpsCopyOutputStream"*)* @_ZNK7metrics33SystemProfileProto_Hardware_Drive18_InternalSerializeEPhPN6google8protobuf2io19EpsCopyOutputStreamE to i8*), i8* bitcast (i8* (%"class.google::protobuf::MessageLite"*)* @_ZNK6google8protobuf11MessageLite16InternalGetTableEv to i8*)] }, align 8
@.str.44 = private unnamed_addr constant [42 x i8] c"metrics.SystemProfileProto.Hardware.Drive\00", align 1
@_ZTVN7metrics27SystemProfileProto_HardwareE = hidden unnamed_addr constant { [16 x i8*] } { [16 x i8*] [i8* null, i8* null, i8* bitcast (void (%"class.metrics::SystemProfileProto_Hardware"*)* @_ZN7metrics27SystemProfileProto_HardwareD2Ev to i8*), i8* bitcast (void (%"class.metrics::SystemProfileProto_Hardware"*)* @_ZN7metrics27SystemProfileProto_HardwareD0Ev to i8*), i8* bitcast (void (%"class.std::__1::basic_string"*, %"class.metrics::SystemProfileProto_Hardware"*)* @_ZNK7metrics27SystemProfileProto_Hardware11GetTypeNameEv to i8*), i8* bitcast (%"class.metrics::SystemProfileProto_Hardware"* (%"class.metrics::SystemProfileProto_Hardware"*)* @_ZNK7metrics27SystemProfileProto_Hardware3NewEv to i8*), i8* bitcast (%"class.metrics::SystemProfileProto_Hardware"* (%"class.metrics::SystemProfileProto_Hardware"*, %"class.google::protobuf::Arena"*)* @_ZNK7metrics27SystemProfileProto_Hardware3NewEPN6google8protobuf5ArenaE to i8*), i8* bitcast (void (%"class.metrics::SystemProfileProto_Hardware"*)* @_ZN7metrics27SystemProfileProto_Hardware5ClearEv to i8*), i8* bitcast (i1 (%"class.metrics::SystemProfileProto_Hardware"*)* @_ZNK7metrics27SystemProfileProto_Hardware13IsInitializedEv to i8*), i8* bitcast (void (%"class.std::__1::basic_string"*, %"class.google::protobuf::MessageLite"*)* @_ZNK6google8protobuf11MessageLite25InitializationErrorStringEv to i8*), i8* bitcast (void (%"class.metrics::SystemProfileProto_Hardware"*, %"class.google::protobuf::MessageLite"*)* @_ZN7metrics27SystemProfileProto_Hardware21CheckTypeAndMergeFromERKN6google8protobuf11MessageLiteE to i8*), i8* bitcast (i64 (%"class.metrics::SystemProfileProto_Hardware"*)* @_ZNK7metrics27SystemProfileProto_Hardware12ByteSizeLongEv to i8*), i8* bitcast (i32 (%"class.metrics::SystemProfileProto_Hardware"*)* @_ZNK7metrics27SystemProfileProto_Hardware13GetCachedSizeEv to i8*), i8* bitcast (i8* (%"class.metrics::SystemProfileProto_Hardware"*, i8*, %"class.google::protobuf::internal::ParseContext"*)* @_ZN7metrics27SystemProfileProto_Hardware14_InternalParseEPKcPN6google8protobuf8internal12ParseContextE to i8*), i8* bitcast (i8* (%"class.metrics::SystemProfileProto_Hardware"*, i8*, %"class.google::protobuf::io::EpsCopyOutputStream"*)* @_ZNK7metrics27SystemProfileProto_Hardware18_InternalSerializeEPhPN6google8protobuf2io19EpsCopyOutputStreamE to i8*), i8* bitcast (i8* (%"class.google::protobuf::MessageLite"*)* @_ZNK6google8protobuf11MessageLite16InternalGetTableEv to i8*)] }, align 8
@.str.49 = private unnamed_addr constant [36 x i8] c"metrics.SystemProfileProto.Hardware\00", align 1
@_ZTVN7metrics26SystemProfileProto_NetworkE = hidden unnamed_addr constant { [16 x i8*] } { [16 x i8*] [i8* null, i8* null, i8* bitcast (void (%"class.metrics::SystemProfileProto_Network"*)* @_ZN7metrics26SystemProfileProto_NetworkD2Ev to i8*), i8* bitcast (void (%"class.metrics::SystemProfileProto_Network"*)* @_ZN7metrics26SystemProfileProto_NetworkD0Ev to i8*), i8* bitcast (void (%"class.std::__1::basic_string"*, %"class.metrics::SystemProfileProto_Network"*)* @_ZNK7metrics26SystemProfileProto_Network11GetTypeNameEv to i8*), i8* bitcast (%"class.metrics::SystemProfileProto_Network"* (%"class.metrics::SystemProfileProto_Network"*)* @_ZNK7metrics26SystemProfileProto_Network3NewEv to i8*), i8* bitcast (%"class.metrics::SystemProfileProto_Network"* (%"class.metrics::SystemProfileProto_Network"*, %"class.google::protobuf::Arena"*)* @_ZNK7metrics26SystemProfileProto_Network3NewEPN6google8protobuf5ArenaE to i8*), i8* bitcast (void (%"class.metrics::SystemProfileProto_Network"*)* @_ZN7metrics26SystemProfileProto_Network5ClearEv to i8*), i8* bitcast (i1 (%"class.metrics::SystemProfileProto_Network"*)* @_ZNK7metrics26SystemProfileProto_Network13IsInitializedEv to i8*), i8* bitcast (void (%"class.std::__1::basic_string"*, %"class.google::protobuf::MessageLite"*)* @_ZNK6google8protobuf11MessageLite25InitializationErrorStringEv to i8*), i8* bitcast (void (%"class.metrics::SystemProfileProto_Network"*, %"class.google::protobuf::MessageLite"*)* @_ZN7metrics26SystemProfileProto_Network21CheckTypeAndMergeFromERKN6google8protobuf11MessageLiteE to i8*), i8* bitcast (i64 (%"class.metrics::SystemProfileProto_Network"*)* @_ZNK7metrics26SystemProfileProto_Network12ByteSizeLongEv to i8*), i8* bitcast (i32 (%"class.metrics::SystemProfileProto_Network"*)* @_ZNK7metrics26SystemProfileProto_Network13GetCachedSizeEv to i8*), i8* bitcast (i8* (%"class.metrics::SystemProfileProto_Network"*, i8*, %"class.google::protobuf::internal::ParseContext"*)* @_ZN7metrics26SystemProfileProto_Network14_InternalParseEPKcPN6google8protobuf8internal12ParseContextE to i8*), i8* bitcast (i8* (%"class.metrics::SystemProfileProto_Network"*, i8*, %"class.google::protobuf::io::EpsCopyOutputStream"*)* @_ZNK7metrics26SystemProfileProto_Network18_InternalSerializeEPhPN6google8protobuf2io19EpsCopyOutputStreamE to i8*), i8* bitcast (i8* (%"class.google::protobuf::MessageLite"*)* @_ZNK6google8protobuf11MessageLite16InternalGetTableEv to i8*)] }, align 8
@.str.50 = private unnamed_addr constant [35 x i8] c"metrics.SystemProfileProto.Network\00", align 1
@_ZTVN7metrics43SystemProfileProto_GoogleUpdate_ProductInfoE = hidden unnamed_addr constant { [16 x i8*] } { [16 x i8*] [i8* null, i8* null, i8* bitcast (void (%"class.metrics::SystemProfileProto_GoogleUpdate_ProductInfo"*)* @_ZN7metrics43SystemProfileProto_GoogleUpdate_ProductInfoD2Ev to i8*), i8* bitcast (void (%"class.metrics::SystemProfileProto_GoogleUpdate_ProductInfo"*)* @_ZN7metrics43SystemProfileProto_GoogleUpdate_ProductInfoD0Ev to i8*), i8* bitcast (void (%"class.std::__1::basic_string"*, %"class.metrics::SystemProfileProto_GoogleUpdate_ProductInfo"*)* @_ZNK7metrics43SystemProfileProto_GoogleUpdate_ProductInfo11GetTypeNameEv to i8*), i8* bitcast (%"class.metrics::SystemProfileProto_GoogleUpdate_ProductInfo"* (%"class.metrics::SystemProfileProto_GoogleUpdate_ProductInfo"*)* @_ZNK7metrics43SystemProfileProto_GoogleUpdate_ProductInfo3NewEv to i8*), i8* bitcast (%"class.metrics::SystemProfileProto_GoogleUpdate_ProductInfo"* (%"class.metrics::SystemProfileProto_GoogleUpdate_ProductInfo"*, %"class.google::protobuf::Arena"*)* @_ZNK7metrics43SystemProfileProto_GoogleUpdate_ProductInfo3NewEPN6google8protobuf5ArenaE to i8*), i8* bitcast (void (%"class.metrics::SystemProfileProto_GoogleUpdate_ProductInfo"*)* @_ZN7metrics43SystemProfileProto_GoogleUpdate_ProductInfo5ClearEv to i8*), i8* bitcast (i1 (%"class.metrics::SystemProfileProto_GoogleUpdate_ProductInfo"*)* @_ZNK7metrics43SystemProfileProto_GoogleUpdate_ProductInfo13IsInitializedEv to i8*), i8* bitcast (void (%"class.std::__1::basic_string"*, %"class.google::protobuf::MessageLite"*)* @_ZNK6google8protobuf11MessageLite25InitializationErrorStringEv to i8*), i8* bitcast (void (%"class.metrics::SystemProfileProto_GoogleUpdate_ProductInfo"*, %"class.google::protobuf::MessageLite"*)* @_ZN7metrics43SystemProfileProto_GoogleUpdate_ProductInfo21CheckTypeAndMergeFromERKN6google8protobuf11MessageLiteE to i8*), i8* bitcast (i64 (%"class.metrics::SystemProfileProto_GoogleUpdate_ProductInfo"*)* @_ZNK7metrics43SystemProfileProto_GoogleUpdate_ProductInfo12ByteSizeLongEv to i8*), i8* bitcast (i32 (%"class.metrics::SystemProfileProto_GoogleUpdate_ProductInfo"*)* @_ZNK7metrics43SystemProfileProto_GoogleUpdate_ProductInfo13GetCachedSizeEv to i8*), i8* bitcast (i8* (%"class.metrics::SystemProfileProto_GoogleUpdate_ProductInfo"*, i8*, %"class.google::protobuf::internal::ParseContext"*)* @_ZN7metrics43SystemProfileProto_GoogleUpdate_ProductInfo14_InternalParseEPKcPN6google8protobuf8internal12ParseContextE to i8*), i8* bitcast (i8* (%"class.metrics::SystemProfileProto_GoogleUpdate_ProductInfo"*, i8*, %"class.google::protobuf::io::EpsCopyOutputStream"*)* @_ZNK7metrics43SystemProfileProto_GoogleUpdate_ProductInfo18_InternalSerializeEPhPN6google8protobuf2io19EpsCopyOutputStreamE to i8*), i8* bitcast (i8* (%"class.google::protobuf::MessageLite"*)* @_ZNK6google8protobuf11MessageLite16InternalGetTableEv to i8*)] }, align 8
@.str.51 = private unnamed_addr constant [52 x i8] c"metrics.SystemProfileProto.GoogleUpdate.ProductInfo\00", align 1
@_ZTVN7metrics31SystemProfileProto_GoogleUpdateE = hidden unnamed_addr constant { [16 x i8*] } { [16 x i8*] [i8* null, i8* null, i8* bitcast (void (%"class.metrics::SystemProfileProto_GoogleUpdate"*)* @_ZN7metrics31SystemProfileProto_GoogleUpdateD2Ev to i8*), i8* bitcast (void (%"class.metrics::SystemProfileProto_GoogleUpdate"*)* @_ZN7metrics31SystemProfileProto_GoogleUpdateD0Ev to i8*), i8* bitcast (void (%"class.std::__1::basic_string"*, %"class.metrics::SystemProfileProto_GoogleUpdate"*)* @_ZNK7metrics31SystemProfileProto_GoogleUpdate11GetTypeNameEv to i8*), i8* bitcast (%"class.metrics::SystemProfileProto_GoogleUpdate"* (%"class.metrics::SystemProfileProto_GoogleUpdate"*)* @_ZNK7metrics31SystemProfileProto_GoogleUpdate3NewEv to i8*), i8* bitcast (%"class.metrics::SystemProfileProto_GoogleUpdate"* (%"class.metrics::SystemProfileProto_GoogleUpdate"*, %"class.google::protobuf::Arena"*)* @_ZNK7metrics31SystemProfileProto_GoogleUpdate3NewEPN6google8protobuf5ArenaE to i8*), i8* bitcast (void (%"class.metrics::SystemProfileProto_GoogleUpdate"*)* @_ZN7metrics31SystemProfileProto_GoogleUpdate5ClearEv to i8*), i8* bitcast (i1 (%"class.metrics::SystemProfileProto_GoogleUpdate"*)* @_ZNK7metrics31SystemProfileProto_GoogleUpdate13IsInitializedEv to i8*), i8* bitcast (void (%"class.std::__1::basic_string"*, %"class.google::protobuf::MessageLite"*)* @_ZNK6google8protobuf11MessageLite25InitializationErrorStringEv to i8*), i8* bitcast (void (%"class.metrics::SystemProfileProto_GoogleUpdate"*, %"class.google::protobuf::MessageLite"*)* @_ZN7metrics31SystemProfileProto_GoogleUpdate21CheckTypeAndMergeFromERKN6google8protobuf11MessageLiteE to i8*), i8* bitcast (i64 (%"class.metrics::SystemProfileProto_GoogleUpdate"*)* @_ZNK7metrics31SystemProfileProto_GoogleUpdate12ByteSizeLongEv to i8*), i8* bitcast (i32 (%"class.metrics::SystemProfileProto_GoogleUpdate"*)* @_ZNK7metrics31SystemProfileProto_GoogleUpdate13GetCachedSizeEv to i8*), i8* bitcast (i8* (%"class.metrics::SystemProfileProto_GoogleUpdate"*, i8*, %"class.google::protobuf::internal::ParseContext"*)* @_ZN7metrics31SystemProfileProto_GoogleUpdate14_InternalParseEPKcPN6google8protobuf8internal12ParseContextE to i8*), i8* bitcast (i8* (%"class.metrics::SystemProfileProto_GoogleUpdate"*, i8*, %"class.google::protobuf::io::EpsCopyOutputStream"*)* @_ZNK7metrics31SystemProfileProto_GoogleUpdate18_InternalSerializeEPhPN6google8protobuf2io19EpsCopyOutputStreamE to i8*), i8* bitcast (i8* (%"class.google::protobuf::MessageLite"*)* @_ZNK6google8protobuf11MessageLite16InternalGetTableEv to i8*)] }, align 8
@.str.54 = private unnamed_addr constant [40 x i8] c"metrics.SystemProfileProto.GoogleUpdate\00", align 1
@_ZTVN7metrics25SystemProfileProto_PluginE = hidden unnamed_addr constant { [16 x i8*] } { [16 x i8*] [i8* null, i8* null, i8* bitcast (void (%"class.metrics::SystemProfileProto_Plugin"*)* @_ZN7metrics25SystemProfileProto_PluginD2Ev to i8*), i8* bitcast (void (%"class.metrics::SystemProfileProto_Plugin"*)* @_ZN7metrics25SystemProfileProto_PluginD0Ev to i8*), i8* bitcast (void (%"class.std::__1::basic_string"*, %"class.metrics::SystemProfileProto_Plugin"*)* @_ZNK7metrics25SystemProfileProto_Plugin11GetTypeNameEv to i8*), i8* bitcast (%"class.metrics::SystemProfileProto_Plugin"* (%"class.metrics::SystemProfileProto_Plugin"*)* @_ZNK7metrics25SystemProfileProto_Plugin3NewEv to i8*), i8* bitcast (%"class.metrics::SystemProfileProto_Plugin"* (%"class.metrics::SystemProfileProto_Plugin"*, %"class.google::protobuf::Arena"*)* @_ZNK7metrics25SystemProfileProto_Plugin3NewEPN6google8protobuf5ArenaE to i8*), i8* bitcast (void (%"class.metrics::SystemProfileProto_Plugin"*)* @_ZN7metrics25SystemProfileProto_Plugin5ClearEv to i8*), i8* bitcast (i1 (%"class.metrics::SystemProfileProto_Plugin"*)* @_ZNK7metrics25SystemProfileProto_Plugin13IsInitializedEv to i8*), i8* bitcast (void (%"class.std::__1::basic_string"*, %"class.google::protobuf::MessageLite"*)* @_ZNK6google8protobuf11MessageLite25InitializationErrorStringEv to i8*), i8* bitcast (void (%"class.metrics::SystemProfileProto_Plugin"*, %"class.google::protobuf::MessageLite"*)* @_ZN7metrics25SystemProfileProto_Plugin21CheckTypeAndMergeFromERKN6google8protobuf11MessageLiteE to i8*), i8* bitcast (i64 (%"class.metrics::SystemProfileProto_Plugin"*)* @_ZNK7metrics25SystemProfileProto_Plugin12ByteSizeLongEv to i8*), i8* bitcast (i32 (%"class.metrics::SystemProfileProto_Plugin"*)* @_ZNK7metrics25SystemProfileProto_Plugin13GetCachedSizeEv to i8*), i8* bitcast (i8* (%"class.metrics::SystemProfileProto_Plugin"*, i8*, %"class.google::protobuf::internal::ParseContext"*)* @_ZN7metrics25SystemProfileProto_Plugin14_InternalParseEPKcPN6google8protobuf8internal12ParseContextE to i8*), i8* bitcast (i8* (%"class.metrics::SystemProfileProto_Plugin"*, i8*, %"class.google::protobuf::io::EpsCopyOutputStream"*)* @_ZNK7metrics25SystemProfileProto_Plugin18_InternalSerializeEPhPN6google8protobuf2io19EpsCopyOutputStreamE to i8*), i8* bitcast (i8* (%"class.google::protobuf::MessageLite"*)* @_ZNK6google8protobuf11MessageLite16InternalGetTableEv to i8*)] }, align 8
@.str.55 = private unnamed_addr constant [34 x i8] c"metrics.SystemProfileProto.Plugin\00", align 1
@_ZTVN7metrics44SystemProfileProto_Stability_PluginStabilityE = hidden unnamed_addr constant { [16 x i8*] } { [16 x i8*] [i8* null, i8* null, i8* bitcast (void (%"class.metrics::SystemProfileProto_Stability_PluginStability"*)* @_ZN7metrics44SystemProfileProto_Stability_PluginStabilityD2Ev to i8*), i8* bitcast (void (%"class.metrics::SystemProfileProto_Stability_PluginStability"*)* @_ZN7metrics44SystemProfileProto_Stability_PluginStabilityD0Ev to i8*), i8* bitcast (void (%"class.std::__1::basic_string"*, %"class.metrics::SystemProfileProto_Stability_PluginStability"*)* @_ZNK7metrics44SystemProfileProto_Stability_PluginStability11GetTypeNameEv to i8*), i8* bitcast (%"class.metrics::SystemProfileProto_Stability_PluginStability"* (%"class.metrics::SystemProfileProto_Stability_PluginStability"*)* @_ZNK7metrics44SystemProfileProto_Stability_PluginStability3NewEv to i8*), i8* bitcast (%"class.metrics::SystemProfileProto_Stability_PluginStability"* (%"class.metrics::SystemProfileProto_Stability_PluginStability"*, %"class.google::protobuf::Arena"*)* @_ZNK7metrics44SystemProfileProto_Stability_PluginStability3NewEPN6google8protobuf5ArenaE to i8*), i8* bitcast (void (%"class.metrics::SystemProfileProto_Stability_PluginStability"*)* @_ZN7metrics44SystemProfileProto_Stability_PluginStability5ClearEv to i8*), i8* bitcast (i1 (%"class.metrics::SystemProfileProto_Stability_PluginStability"*)* @_ZNK7metrics44SystemProfileProto_Stability_PluginStability13IsInitializedEv to i8*), i8* bitcast (void (%"class.std::__1::basic_string"*, %"class.google::protobuf::MessageLite"*)* @_ZNK6google8protobuf11MessageLite25InitializationErrorStringEv to i8*), i8* bitcast (void (%"class.metrics::SystemProfileProto_Stability_PluginStability"*, %"class.google::protobuf::MessageLite"*)* @_ZN7metrics44SystemProfileProto_Stability_PluginStability21CheckTypeAndMergeFromERKN6google8protobuf11MessageLiteE to i8*), i8* bitcast (i64 (%"class.metrics::SystemProfileProto_Stability_PluginStability"*)* @_ZNK7metrics44SystemProfileProto_Stability_PluginStability12ByteSizeLongEv to i8*), i8* bitcast (i32 (%"class.metrics::SystemProfileProto_Stability_PluginStability"*)* @_ZNK7metrics44SystemProfileProto_Stability_PluginStability13GetCachedSizeEv to i8*), i8* bitcast (i8* (%"class.metrics::SystemProfileProto_Stability_PluginStability"*, i8*, %"class.google::protobuf::internal::ParseContext"*)* @_ZN7metrics44SystemProfileProto_Stability_PluginStability14_InternalParseEPKcPN6google8protobuf8internal12ParseContextE to i8*), i8* bitcast (i8* (%"class.metrics::SystemProfileProto_Stability_PluginStability"*, i8*, %"class.google::protobuf::io::EpsCopyOutputStream"*)* @_ZNK7metrics44SystemProfileProto_Stability_PluginStability18_InternalSerializeEPhPN6google8protobuf2io19EpsCopyOutputStreamE to i8*), i8* bitcast (i8* (%"class.google::protobuf::MessageLite"*)* @_ZNK6google8protobuf11MessageLite16InternalGetTableEv to i8*)] }, align 8
@.str.57 = private unnamed_addr constant [53 x i8] c"metrics.SystemProfileProto.Stability.PluginStability\00", align 1
@_ZTVN7metrics28SystemProfileProto_StabilityE = hidden unnamed_addr constant { [16 x i8*] } { [16 x i8*] [i8* null, i8* null, i8* bitcast (void (%"class.metrics::SystemProfileProto_Stability"*)* @_ZN7metrics28SystemProfileProto_StabilityD2Ev to i8*), i8* bitcast (void (%"class.metrics::SystemProfileProto_Stability"*)* @_ZN7metrics28SystemProfileProto_StabilityD0Ev to i8*), i8* bitcast (void (%"class.std::__1::basic_string"*, %"class.metrics::SystemProfileProto_Stability"*)* @_ZNK7metrics28SystemProfileProto_Stability11GetTypeNameEv to i8*), i8* bitcast (%"class.metrics::SystemProfileProto_Stability"* (%"class.metrics::SystemProfileProto_Stability"*)* @_ZNK7metrics28SystemProfileProto_Stability3NewEv to i8*), i8* bitcast (%"class.metrics::SystemProfileProto_Stability"* (%"class.metrics::SystemProfileProto_Stability"*, %"class.google::protobuf::Arena"*)* @_ZNK7metrics28SystemProfileProto_Stability3NewEPN6google8protobuf5ArenaE to i8*), i8* bitcast (void (%"class.metrics::SystemProfileProto_Stability"*)* @_ZN7metrics28SystemProfileProto_Stability5ClearEv to i8*), i8* bitcast (i1 (%"class.metrics::SystemProfileProto_Stability"*)* @_ZNK7metrics28SystemProfileProto_Stability13IsInitializedEv to i8*), i8* bitcast (void (%"class.std::__1::basic_string"*, %"class.google::protobuf::MessageLite"*)* @_ZNK6google8protobuf11MessageLite25InitializationErrorStringEv to i8*), i8* bitcast (void (%"class.metrics::SystemProfileProto_Stability"*, %"class.google::protobuf::MessageLite"*)* @_ZN7metrics28SystemProfileProto_Stability21CheckTypeAndMergeFromERKN6google8protobuf11MessageLiteE to i8*), i8* bitcast (i64 (%"class.metrics::SystemProfileProto_Stability"*)* @_ZNK7metrics28SystemProfileProto_Stability12ByteSizeLongEv to i8*), i8* bitcast (i32 (%"class.metrics::SystemProfileProto_Stability"*)* @_ZNK7metrics28SystemProfileProto_Stability13GetCachedSizeEv to i8*), i8* bitcast (i8* (%"class.metrics::SystemProfileProto_Stability"*, i8*, %"class.google::protobuf::internal::ParseContext"*)* @_ZN7metrics28SystemProfileProto_Stability14_InternalParseEPKcPN6google8protobuf8internal12ParseContextE to i8*), i8* bitcast (i8* (%"class.metrics::SystemProfileProto_Stability"*, i8*, %"class.google::protobuf::io::EpsCopyOutputStream"*)* @_ZNK7metrics28SystemProfileProto_Stability18_InternalSerializeEPhPN6google8protobuf2io19EpsCopyOutputStreamE to i8*), i8* bitcast (i8* (%"class.google::protobuf::MessageLite"*)* @_ZNK6google8protobuf11MessageLite16InternalGetTableEv to i8*)] }, align 8
@.str.58 = private unnamed_addr constant [37 x i8] c"metrics.SystemProfileProto.Stability\00", align 1
@_ZTVN7metrics29SystemProfileProto_FieldTrialE = hidden unnamed_addr constant { [16 x i8*] } { [16 x i8*] [i8* null, i8* null, i8* bitcast (void (%"class.metrics::SystemProfileProto_FieldTrial"*)* @_ZN7metrics29SystemProfileProto_FieldTrialD2Ev to i8*), i8* bitcast (void (%"class.metrics::SystemProfileProto_FieldTrial"*)* @_ZN7metrics29SystemProfileProto_FieldTrialD0Ev to i8*), i8* bitcast (void (%"class.std::__1::basic_string"*, %"class.metrics::SystemProfileProto_FieldTrial"*)* @_ZNK7metrics29SystemProfileProto_FieldTrial11GetTypeNameEv to i8*), i8* bitcast (%"class.metrics::SystemProfileProto_FieldTrial"* (%"class.metrics::SystemProfileProto_FieldTrial"*)* @_ZNK7metrics29SystemProfileProto_FieldTrial3NewEv to i8*), i8* bitcast (%"class.metrics::SystemProfileProto_FieldTrial"* (%"class.metrics::SystemProfileProto_FieldTrial"*, %"class.google::protobuf::Arena"*)* @_ZNK7metrics29SystemProfileProto_FieldTrial3NewEPN6google8protobuf5ArenaE to i8*), i8* bitcast (void (%"class.metrics::SystemProfileProto_FieldTrial"*)* @_ZN7metrics29SystemProfileProto_FieldTrial5ClearEv to i8*), i8* bitcast (i1 (%"class.metrics::SystemProfileProto_FieldTrial"*)* @_ZNK7metrics29SystemProfileProto_FieldTrial13IsInitializedEv to i8*), i8* bitcast (void (%"class.std::__1::basic_string"*, %"class.google::protobuf::MessageLite"*)* @_ZNK6google8protobuf11MessageLite25InitializationErrorStringEv to i8*), i8* bitcast (void (%"class.metrics::SystemProfileProto_FieldTrial"*, %"class.google::protobuf::MessageLite"*)* @_ZN7metrics29SystemProfileProto_FieldTrial21CheckTypeAndMergeFromERKN6google8protobuf11MessageLiteE to i8*), i8* bitcast (i64 (%"class.metrics::SystemProfileProto_FieldTrial"*)* @_ZNK7metrics29SystemProfileProto_FieldTrial12ByteSizeLongEv to i8*), i8* bitcast (i32 (%"class.metrics::SystemProfileProto_FieldTrial"*)* @_ZNK7metrics29SystemProfileProto_FieldTrial13GetCachedSizeEv to i8*), i8* bitcast (i8* (%"class.metrics::SystemProfileProto_FieldTrial"*, i8*, %"class.google::protobuf::internal::ParseContext"*)* @_ZN7metrics29SystemProfileProto_FieldTrial14_InternalParseEPKcPN6google8protobuf8internal12ParseContextE to i8*), i8* bitcast (i8* (%"class.metrics::SystemProfileProto_FieldTrial"*, i8*, %"class.google::protobuf::io::EpsCopyOutputStream"*)* @_ZNK7metrics29SystemProfileProto_FieldTrial18_InternalSerializeEPhPN6google8protobuf2io19EpsCopyOutputStreamE to i8*), i8* bitcast (i8* (%"class.google::protobuf::MessageLite"*)* @_ZNK6google8protobuf11MessageLite16InternalGetTableEv to i8*)] }, align 8
@.str.59 = private unnamed_addr constant [38 x i8] c"metrics.SystemProfileProto.FieldTrial\00", align 1
@_ZTVN7metrics60SystemProfileProto_ExternalAudioVideoDevice_AudioDescriptionE = hidden unnamed_addr constant { [16 x i8*] } { [16 x i8*] [i8* null, i8* null, i8* bitcast (void (%"class.metrics::SystemProfileProto_ExternalAudioVideoDevice_AudioDescription"*)* @_ZN7metrics60SystemProfileProto_ExternalAudioVideoDevice_AudioDescriptionD2Ev to i8*), i8* bitcast (void (%"class.metrics::SystemProfileProto_ExternalAudioVideoDevice_AudioDescription"*)* @_ZN7metrics60SystemProfileProto_ExternalAudioVideoDevice_AudioDescriptionD0Ev to i8*), i8* bitcast (void (%"class.std::__1::basic_string"*, %"class.metrics::SystemProfileProto_ExternalAudioVideoDevice_AudioDescription"*)* @_ZNK7metrics60SystemProfileProto_ExternalAudioVideoDevice_AudioDescription11GetTypeNameEv to i8*), i8* bitcast (%"class.metrics::SystemProfileProto_ExternalAudioVideoDevice_AudioDescription"* (%"class.metrics::SystemProfileProto_ExternalAudioVideoDevice_AudioDescription"*)* @_ZNK7metrics60SystemProfileProto_ExternalAudioVideoDevice_AudioDescription3NewEv to i8*), i8* bitcast (%"class.metrics::SystemProfileProto_ExternalAudioVideoDevice_AudioDescription"* (%"class.metrics::SystemProfileProto_ExternalAudioVideoDevice_AudioDescription"*, %"class.google::protobuf::Arena"*)* @_ZNK7metrics60SystemProfileProto_ExternalAudioVideoDevice_AudioDescription3NewEPN6google8protobuf5ArenaE to i8*), i8* bitcast (void (%"class.metrics::SystemProfileProto_ExternalAudioVideoDevice_AudioDescription"*)* @_ZN7metrics60SystemProfileProto_ExternalAudioVideoDevice_AudioDescription5ClearEv to i8*), i8* bitcast (i1 (%"class.metrics::SystemProfileProto_ExternalAudioVideoDevice_AudioDescription"*)* @_ZNK7metrics60SystemProfileProto_ExternalAudioVideoDevice_AudioDescription13IsInitializedEv to i8*), i8* bitcast (void (%"class.std::__1::basic_string"*, %"class.google::protobuf::MessageLite"*)* @_ZNK6google8protobuf11MessageLite25InitializationErrorStringEv to i8*), i8* bitcast (void (%"class.metrics::SystemProfileProto_ExternalAudioVideoDevice_AudioDescription"*, %"class.google::protobuf::MessageLite"*)* @_ZN7metrics60SystemProfileProto_ExternalAudioVideoDevice_AudioDescription21CheckTypeAndMergeFromERKN6google8protobuf11MessageLiteE to i8*), i8* bitcast (i64 (%"class.metrics::SystemProfileProto_ExternalAudioVideoDevice_AudioDescription"*)* @_ZNK7metrics60SystemProfileProto_ExternalAudioVideoDevice_AudioDescription12ByteSizeLongEv to i8*), i8* bitcast (i32 (%"class.metrics::SystemProfileProto_ExternalAudioVideoDevice_AudioDescription"*)* @_ZNK7metrics60SystemProfileProto_ExternalAudioVideoDevice_AudioDescription13GetCachedSizeEv to i8*), i8* bitcast (i8* (%"class.metrics::SystemProfileProto_ExternalAudioVideoDevice_AudioDescription"*, i8*, %"class.google::protobuf::internal::ParseContext"*)* @_ZN7metrics60SystemProfileProto_ExternalAudioVideoDevice_AudioDescription14_InternalParseEPKcPN6google8protobuf8internal12ParseContextE to i8*), i8* bitcast (i8* (%"class.metrics::SystemProfileProto_ExternalAudioVideoDevice_AudioDescription"*, i8*, %"class.google::protobuf::io::EpsCopyOutputStream"*)* @_ZNK7metrics60SystemProfileProto_ExternalAudioVideoDevice_AudioDescription18_InternalSerializeEPhPN6google8protobuf2io19EpsCopyOutputStreamE to i8*), i8* bitcast (i8* (%"class.google::protobuf::MessageLite"*)* @_ZNK6google8protobuf11MessageLite16InternalGetTableEv to i8*)] }, align 8
@.str.60 = private unnamed_addr constant [69 x i8] c"metrics.SystemProfileProto.ExternalAudioVideoDevice.AudioDescription\00", align 1
@_ZTVN7metrics54SystemProfileProto_ExternalAudioVideoDevice_CECCommandE = hidden unnamed_addr constant { [16 x i8*] } { [16 x i8*] [i8* null, i8* null, i8* bitcast (void (%"class.metrics::SystemProfileProto_ExternalAudioVideoDevice_CECCommand"*)* @_ZN7metrics54SystemProfileProto_ExternalAudioVideoDevice_CECCommandD2Ev to i8*), i8* bitcast (void (%"class.metrics::SystemProfileProto_ExternalAudioVideoDevice_CECCommand"*)* @_ZN7metrics54SystemProfileProto_ExternalAudioVideoDevice_CECCommandD0Ev to i8*), i8* bitcast (void (%"class.std::__1::basic_string"*, %"class.metrics::SystemProfileProto_ExternalAudioVideoDevice_CECCommand"*)* @_ZNK7metrics54SystemProfileProto_ExternalAudioVideoDevice_CECCommand11GetTypeNameEv to i8*), i8* bitcast (%"class.metrics::SystemProfileProto_ExternalAudioVideoDevice_CECCommand"* (%"class.metrics::SystemProfileProto_ExternalAudioVideoDevice_CECCommand"*)* @_ZNK7metrics54SystemProfileProto_ExternalAudioVideoDevice_CECCommand3NewEv to i8*), i8* bitcast (%"class.metrics::SystemProfileProto_ExternalAudioVideoDevice_CECCommand"* (%"class.metrics::SystemProfileProto_ExternalAudioVideoDevice_CECCommand"*, %"class.google::protobuf::Arena"*)* @_ZNK7metrics54SystemProfileProto_ExternalAudioVideoDevice_CECCommand3NewEPN6google8protobuf5ArenaE to i8*), i8* bitcast (void (%"class.metrics::SystemProfileProto_ExternalAudioVideoDevice_CECCommand"*)* @_ZN7metrics54SystemProfileProto_ExternalAudioVideoDevice_CECCommand5ClearEv to i8*), i8* bitcast (i1 (%"class.metrics::SystemProfileProto_ExternalAudioVideoDevice_CECCommand"*)* @_ZNK7metrics54SystemProfileProto_ExternalAudioVideoDevice_CECCommand13IsInitializedEv to i8*), i8* bitcast (void (%"class.std::__1::basic_string"*, %"class.google::protobuf::MessageLite"*)* @_ZNK6google8protobuf11MessageLite25InitializationErrorStringEv to i8*), i8* bitcast (void (%"class.metrics::SystemProfileProto_ExternalAudioVideoDevice_CECCommand"*, %"class.google::protobuf::MessageLite"*)* @_ZN7metrics54SystemProfileProto_ExternalAudioVideoDevice_CECCommand21CheckTypeAndMergeFromERKN6google8protobuf11MessageLiteE to i8*), i8* bitcast (i64 (%"class.metrics::SystemProfileProto_ExternalAudioVideoDevice_CECCommand"*)* @_ZNK7metrics54SystemProfileProto_ExternalAudioVideoDevice_CECCommand12ByteSizeLongEv to i8*), i8* bitcast (i32 (%"class.metrics::SystemProfileProto_ExternalAudioVideoDevice_CECCommand"*)* @_ZNK7metrics54SystemProfileProto_ExternalAudioVideoDevice_CECCommand13GetCachedSizeEv to i8*), i8* bitcast (i8* (%"class.metrics::SystemProfileProto_ExternalAudioVideoDevice_CECCommand"*, i8*, %"class.google::protobuf::internal::ParseContext"*)* @_ZN7metrics54SystemProfileProto_ExternalAudioVideoDevice_CECCommand14_InternalParseEPKcPN6google8protobuf8internal12ParseContextE to i8*), i8* bitcast (i8* (%"class.metrics::SystemProfileProto_ExternalAudioVideoDevice_CECCommand"*, i8*, %"class.google::protobuf::io::EpsCopyOutputStream"*)* @_ZNK7metrics54SystemProfileProto_ExternalAudioVideoDevice_CECCommand18_InternalSerializeEPhPN6google8protobuf2io19EpsCopyOutputStreamE to i8*), i8* bitcast (i8* (%"class.google::protobuf::MessageLite"*)* @_ZNK6google8protobuf11MessageLite16InternalGetTableEv to i8*)] }, align 8
@.str.61 = private unnamed_addr constant [63 x i8] c"metrics.SystemProfileProto.ExternalAudioVideoDevice.CECCommand\00", align 1
@_ZTVN7metrics43SystemProfileProto_ExternalAudioVideoDeviceE = hidden unnamed_addr constant { [16 x i8*] } { [16 x i8*] [i8* null, i8* null, i8* bitcast (void (%"class.metrics::SystemProfileProto_ExternalAudioVideoDevice"*)* @_ZN7metrics43SystemProfileProto_ExternalAudioVideoDeviceD2Ev to i8*), i8* bitcast (void (%"class.metrics::SystemProfileProto_ExternalAudioVideoDevice"*)* @_ZN7metrics43SystemProfileProto_ExternalAudioVideoDeviceD0Ev to i8*), i8* bitcast (void (%"class.std::__1::basic_string"*, %"class.metrics::SystemProfileProto_ExternalAudioVideoDevice"*)* @_ZNK7metrics43SystemProfileProto_ExternalAudioVideoDevice11GetTypeNameEv to i8*), i8* bitcast (%"class.metrics::SystemProfileProto_ExternalAudioVideoDevice"* (%"class.metrics::SystemProfileProto_ExternalAudioVideoDevice"*)* @_ZNK7metrics43SystemProfileProto_ExternalAudioVideoDevice3NewEv to i8*), i8* bitcast (%"class.metrics::SystemProfileProto_ExternalAudioVideoDevice"* (%"class.metrics::SystemProfileProto_ExternalAudioVideoDevice"*, %"class.google::protobuf::Arena"*)* @_ZNK7metrics43SystemProfileProto_ExternalAudioVideoDevice3NewEPN6google8protobuf5ArenaE to i8*), i8* bitcast (void (%"class.metrics::SystemProfileProto_ExternalAudioVideoDevice"*)* @_ZN7metrics43SystemProfileProto_ExternalAudioVideoDevice5ClearEv to i8*), i8* bitcast (i1 (%"class.metrics::SystemProfileProto_ExternalAudioVideoDevice"*)* @_ZNK7metrics43SystemProfileProto_ExternalAudioVideoDevice13IsInitializedEv to i8*), i8* bitcast (void (%"class.std::__1::basic_string"*, %"class.google::protobuf::MessageLite"*)* @_ZNK6google8protobuf11MessageLite25InitializationErrorStringEv to i8*), i8* bitcast (void (%"class.metrics::SystemProfileProto_ExternalAudioVideoDevice"*, %"class.google::protobuf::MessageLite"*)* @_ZN7metrics43SystemProfileProto_ExternalAudioVideoDevice21CheckTypeAndMergeFromERKN6google8protobuf11MessageLiteE to i8*), i8* bitcast (i64 (%"class.metrics::SystemProfileProto_ExternalAudioVideoDevice"*)* @_ZNK7metrics43SystemProfileProto_ExternalAudioVideoDevice12ByteSizeLongEv to i8*), i8* bitcast (i32 (%"class.metrics::SystemProfileProto_ExternalAudioVideoDevice"*)* @_ZNK7metrics43SystemProfileProto_ExternalAudioVideoDevice13GetCachedSizeEv to i8*), i8* bitcast (i8* (%"class.metrics::SystemProfileProto_ExternalAudioVideoDevice"*, i8*, %"class.google::protobuf::internal::ParseContext"*)* @_ZN7metrics43SystemProfileProto_ExternalAudioVideoDevice14_InternalParseEPKcPN6google8protobuf8internal12ParseContextE to i8*), i8* bitcast (i8* (%"class.metrics::SystemProfileProto_ExternalAudioVideoDevice"*, i8*, %"class.google::protobuf::io::EpsCopyOutputStream"*)* @_ZNK7metrics43SystemProfileProto_ExternalAudioVideoDevice18_InternalSerializeEPhPN6google8protobuf2io19EpsCopyOutputStreamE to i8*), i8* bitcast (i8* (%"class.google::protobuf::MessageLite"*)* @_ZNK6google8protobuf11MessageLite16InternalGetTableEv to i8*)] }, align 8
@.str.62 = private unnamed_addr constant [52 x i8] c"metrics.SystemProfileProto.ExternalAudioVideoDevice\00", align 1
@_ZTVN7metrics38SystemProfileProto_ExternalAccessPointE = hidden unnamed_addr constant { [16 x i8*] } { [16 x i8*] [i8* null, i8* null, i8* bitcast (void (%"class.metrics::SystemProfileProto_ExternalAccessPoint"*)* @_ZN7metrics38SystemProfileProto_ExternalAccessPointD2Ev to i8*), i8* bitcast (void (%"class.metrics::SystemProfileProto_ExternalAccessPoint"*)* @_ZN7metrics38SystemProfileProto_ExternalAccessPointD0Ev to i8*), i8* bitcast (void (%"class.std::__1::basic_string"*, %"class.metrics::SystemProfileProto_ExternalAccessPoint"*)* @_ZNK7metrics38SystemProfileProto_ExternalAccessPoint11GetTypeNameEv to i8*), i8* bitcast (%"class.metrics::SystemProfileProto_ExternalAccessPoint"* (%"class.metrics::SystemProfileProto_ExternalAccessPoint"*)* @_ZNK7metrics38SystemProfileProto_ExternalAccessPoint3NewEv to i8*), i8* bitcast (%"class.metrics::SystemProfileProto_ExternalAccessPoint"* (%"class.metrics::SystemProfileProto_ExternalAccessPoint"*, %"class.google::protobuf::Arena"*)* @_ZNK7metrics38SystemProfileProto_ExternalAccessPoint3NewEPN6google8protobuf5ArenaE to i8*), i8* bitcast (void (%"class.metrics::SystemProfileProto_ExternalAccessPoint"*)* @_ZN7metrics38SystemProfileProto_ExternalAccessPoint5ClearEv to i8*), i8* bitcast (i1 (%"class.metrics::SystemProfileProto_ExternalAccessPoint"*)* @_ZNK7metrics38SystemProfileProto_ExternalAccessPoint13IsInitializedEv to i8*), i8* bitcast (void (%"class.std::__1::basic_string"*, %"class.google::protobuf::MessageLite"*)* @_ZNK6google8protobuf11MessageLite25InitializationErrorStringEv to i8*), i8* bitcast (void (%"class.metrics::SystemProfileProto_ExternalAccessPoint"*, %"class.google::protobuf::MessageLite"*)* @_ZN7metrics38SystemProfileProto_ExternalAccessPoint21CheckTypeAndMergeFromERKN6google8protobuf11MessageLiteE to i8*), i8* bitcast (i64 (%"class.metrics::SystemProfileProto_ExternalAccessPoint"*)* @_ZNK7metrics38SystemProfileProto_ExternalAccessPoint12ByteSizeLongEv to i8*), i8* bitcast (i32 (%"class.metrics::SystemProfileProto_ExternalAccessPoint"*)* @_ZNK7metrics38SystemProfileProto_ExternalAccessPoint13GetCachedSizeEv to i8*), i8* bitcast (i8* (%"class.metrics::SystemProfileProto_ExternalAccessPoint"*, i8*, %"class.google::protobuf::internal::ParseContext"*)* @_ZN7metrics38SystemProfileProto_ExternalAccessPoint14_InternalParseEPKcPN6google8protobuf8internal12ParseContextE to i8*), i8* bitcast (i8* (%"class.metrics::SystemProfileProto_ExternalAccessPoint"*, i8*, %"class.google::protobuf::io::EpsCopyOutputStream"*)* @_ZNK7metrics38SystemProfileProto_ExternalAccessPoint18_InternalSerializeEPhPN6google8protobuf2io19EpsCopyOutputStreamE to i8*), i8* bitcast (i8* (%"class.google::protobuf::MessageLite"*)* @_ZNK6google8protobuf11MessageLite16InternalGetTableEv to i8*)] }, align 8
@.str.63 = private unnamed_addr constant [47 x i8] c"metrics.SystemProfileProto.ExternalAccessPoint\00", align 1
@_ZTVN7metrics35SystemProfileProto_AntiVirusProductE = hidden unnamed_addr constant { [16 x i8*] } { [16 x i8*] [i8* null, i8* null, i8* bitcast (void (%"class.metrics::SystemProfileProto_AntiVirusProduct"*)* @_ZN7metrics35SystemProfileProto_AntiVirusProductD2Ev to i8*), i8* bitcast (void (%"class.metrics::SystemProfileProto_AntiVirusProduct"*)* @_ZN7metrics35SystemProfileProto_AntiVirusProductD0Ev to i8*), i8* bitcast (void (%"class.std::__1::basic_string"*, %"class.metrics::SystemProfileProto_AntiVirusProduct"*)* @_ZNK7metrics35SystemProfileProto_AntiVirusProduct11GetTypeNameEv to i8*), i8* bitcast (%"class.metrics::SystemProfileProto_AntiVirusProduct"* (%"class.metrics::SystemProfileProto_AntiVirusProduct"*)* @_ZNK7metrics35SystemProfileProto_AntiVirusProduct3NewEv to i8*), i8* bitcast (%"class.metrics::SystemProfileProto_AntiVirusProduct"* (%"class.metrics::SystemProfileProto_AntiVirusProduct"*, %"class.google::protobuf::Arena"*)* @_ZNK7metrics35SystemProfileProto_AntiVirusProduct3NewEPN6google8protobuf5ArenaE to i8*), i8* bitcast (void (%"class.metrics::SystemProfileProto_AntiVirusProduct"*)* @_ZN7metrics35SystemProfileProto_AntiVirusProduct5ClearEv to i8*), i8* bitcast (i1 (%"class.metrics::SystemProfileProto_AntiVirusProduct"*)* @_ZNK7metrics35SystemProfileProto_AntiVirusProduct13IsInitializedEv to i8*), i8* bitcast (void (%"class.std::__1::basic_string"*, %"class.google::protobuf::MessageLite"*)* @_ZNK6google8protobuf11MessageLite25InitializationErrorStringEv to i8*), i8* bitcast (void (%"class.metrics::SystemProfileProto_AntiVirusProduct"*, %"class.google::protobuf::MessageLite"*)* @_ZN7metrics35SystemProfileProto_AntiVirusProduct21CheckTypeAndMergeFromERKN6google8protobuf11MessageLiteE to i8*), i8* bitcast (i64 (%"class.metrics::SystemProfileProto_AntiVirusProduct"*)* @_ZNK7metrics35SystemProfileProto_AntiVirusProduct12ByteSizeLongEv to i8*), i8* bitcast (i32 (%"class.metrics::SystemProfileProto_AntiVirusProduct"*)* @_ZNK7metrics35SystemProfileProto_AntiVirusProduct13GetCachedSizeEv to i8*), i8* bitcast (i8* (%"class.metrics::SystemProfileProto_AntiVirusProduct"*, i8*, %"class.google::protobuf::internal::ParseContext"*)* @_ZN7metrics35SystemProfileProto_AntiVirusProduct14_InternalParseEPKcPN6google8protobuf8internal12ParseContextE to i8*), i8* bitcast (i8* (%"class.metrics::SystemProfileProto_AntiVirusProduct"*, i8*, %"class.google::protobuf::io::EpsCopyOutputStream"*)* @_ZNK7metrics35SystemProfileProto_AntiVirusProduct18_InternalSerializeEPhPN6google8protobuf2io19EpsCopyOutputStreamE to i8*), i8* bitcast (i8* (%"class.google::protobuf::MessageLite"*)* @_ZNK6google8protobuf11MessageLite16InternalGetTableEv to i8*)] }, align 8
@.str.64 = private unnamed_addr constant [44 x i8] c"metrics.SystemProfileProto.AntiVirusProduct\00", align 1
@_ZTVN7metrics34SystemProfileProto_ChromeComponentE = hidden unnamed_addr constant { [16 x i8*] } { [16 x i8*] [i8* null, i8* null, i8* bitcast (void (%"class.metrics::SystemProfileProto_ChromeComponent"*)* @_ZN7metrics34SystemProfileProto_ChromeComponentD2Ev to i8*), i8* bitcast (void (%"class.metrics::SystemProfileProto_ChromeComponent"*)* @_ZN7metrics34SystemProfileProto_ChromeComponentD0Ev to i8*), i8* bitcast (void (%"class.std::__1::basic_string"*, %"class.metrics::SystemProfileProto_ChromeComponent"*)* @_ZNK7metrics34SystemProfileProto_ChromeComponent11GetTypeNameEv to i8*), i8* bitcast (%"class.metrics::SystemProfileProto_ChromeComponent"* (%"class.metrics::SystemProfileProto_ChromeComponent"*)* @_ZNK7metrics34SystemProfileProto_ChromeComponent3NewEv to i8*), i8* bitcast (%"class.metrics::SystemProfileProto_ChromeComponent"* (%"class.metrics::SystemProfileProto_ChromeComponent"*, %"class.google::protobuf::Arena"*)* @_ZNK7metrics34SystemProfileProto_ChromeComponent3NewEPN6google8protobuf5ArenaE to i8*), i8* bitcast (void (%"class.metrics::SystemProfileProto_ChromeComponent"*)* @_ZN7metrics34SystemProfileProto_ChromeComponent5ClearEv to i8*), i8* bitcast (i1 (%"class.metrics::SystemProfileProto_ChromeComponent"*)* @_ZNK7metrics34SystemProfileProto_ChromeComponent13IsInitializedEv to i8*), i8* bitcast (void (%"class.std::__1::basic_string"*, %"class.google::protobuf::MessageLite"*)* @_ZNK6google8protobuf11MessageLite25InitializationErrorStringEv to i8*), i8* bitcast (void (%"class.metrics::SystemProfileProto_ChromeComponent"*, %"class.google::protobuf::MessageLite"*)* @_ZN7metrics34SystemProfileProto_ChromeComponent21CheckTypeAndMergeFromERKN6google8protobuf11MessageLiteE to i8*), i8* bitcast (i64 (%"class.metrics::SystemProfileProto_ChromeComponent"*)* @_ZNK7metrics34SystemProfileProto_ChromeComponent12ByteSizeLongEv to i8*), i8* bitcast (i32 (%"class.metrics::SystemProfileProto_ChromeComponent"*)* @_ZNK7metrics34SystemProfileProto_ChromeComponent13GetCachedSizeEv to i8*), i8* bitcast (i8* (%"class.metrics::SystemProfileProto_ChromeComponent"*, i8*, %"class.google::protobuf::internal::ParseContext"*)* @_ZN7metrics34SystemProfileProto_ChromeComponent14_InternalParseEPKcPN6google8protobuf8internal12ParseContextE to i8*), i8* bitcast (i8* (%"class.metrics::SystemProfileProto_ChromeComponent"*, i8*, %"class.google::protobuf::io::EpsCopyOutputStream"*)* @_ZNK7metrics34SystemProfileProto_ChromeComponent18_InternalSerializeEPhPN6google8protobuf2io19EpsCopyOutputStreamE to i8*), i8* bitcast (i8* (%"class.google::protobuf::MessageLite"*)* @_ZNK6google8protobuf11MessageLite16InternalGetTableEv to i8*)] }, align 8
@.str.65 = private unnamed_addr constant [43 x i8] c"metrics.SystemProfileProto.ChromeComponent\00", align 1
@_ZTVN7metrics41SystemProfileProto_LinkedAndroidPhoneDataE = hidden unnamed_addr constant { [16 x i8*] } { [16 x i8*] [i8* null, i8* null, i8* bitcast (void (%"class.metrics::SystemProfileProto_LinkedAndroidPhoneData"*)* @_ZN7metrics41SystemProfileProto_LinkedAndroidPhoneDataD2Ev to i8*), i8* bitcast (void (%"class.metrics::SystemProfileProto_LinkedAndroidPhoneData"*)* @_ZN7metrics41SystemProfileProto_LinkedAndroidPhoneDataD0Ev to i8*), i8* bitcast (void (%"class.std::__1::basic_string"*, %"class.metrics::SystemProfileProto_LinkedAndroidPhoneData"*)* @_ZNK7metrics41SystemProfileProto_LinkedAndroidPhoneData11GetTypeNameEv to i8*), i8* bitcast (%"class.metrics::SystemProfileProto_LinkedAndroidPhoneData"* (%"class.metrics::SystemProfileProto_LinkedAndroidPhoneData"*)* @_ZNK7metrics41SystemProfileProto_LinkedAndroidPhoneData3NewEv to i8*), i8* bitcast (%"class.metrics::SystemProfileProto_LinkedAndroidPhoneData"* (%"class.metrics::SystemProfileProto_LinkedAndroidPhoneData"*, %"class.google::protobuf::Arena"*)* @_ZNK7metrics41SystemProfileProto_LinkedAndroidPhoneData3NewEPN6google8protobuf5ArenaE to i8*), i8* bitcast (void (%"class.metrics::SystemProfileProto_LinkedAndroidPhoneData"*)* @_ZN7metrics41SystemProfileProto_LinkedAndroidPhoneData5ClearEv to i8*), i8* bitcast (i1 (%"class.metrics::SystemProfileProto_LinkedAndroidPhoneData"*)* @_ZNK7metrics41SystemProfileProto_LinkedAndroidPhoneData13IsInitializedEv to i8*), i8* bitcast (void (%"class.std::__1::basic_string"*, %"class.google::protobuf::MessageLite"*)* @_ZNK6google8protobuf11MessageLite25InitializationErrorStringEv to i8*), i8* bitcast (void (%"class.metrics::SystemProfileProto_LinkedAndroidPhoneData"*, %"class.google::protobuf::MessageLite"*)* @_ZN7metrics41SystemProfileProto_LinkedAndroidPhoneData21CheckTypeAndMergeFromERKN6google8protobuf11MessageLiteE to i8*), i8* bitcast (i64 (%"class.metrics::SystemProfileProto_LinkedAndroidPhoneData"*)* @_ZNK7metrics41SystemProfileProto_LinkedAndroidPhoneData12ByteSizeLongEv to i8*), i8* bitcast (i32 (%"class.metrics::SystemProfileProto_LinkedAndroidPhoneData"*)* @_ZNK7metrics41SystemProfileProto_LinkedAndroidPhoneData13GetCachedSizeEv to i8*), i8* bitcast (i8* (%"class.metrics::SystemProfileProto_LinkedAndroidPhoneData"*, i8*, %"class.google::protobuf::internal::ParseContext"*)* @_ZN7metrics41SystemProfileProto_LinkedAndroidPhoneData14_InternalParseEPKcPN6google8protobuf8internal12ParseContextE to i8*), i8* bitcast (i8* (%"class.metrics::SystemProfileProto_LinkedAndroidPhoneData"*, i8*, %"class.google::protobuf::io::EpsCopyOutputStream"*)* @_ZNK7metrics41SystemProfileProto_LinkedAndroidPhoneData18_InternalSerializeEPhPN6google8protobuf2io19EpsCopyOutputStreamE to i8*), i8* bitcast (i8* (%"class.google::protobuf::MessageLite"*)* @_ZNK6google8protobuf11MessageLite16InternalGetTableEv to i8*)] }, align 8
@.str.66 = private unnamed_addr constant [50 x i8] c"metrics.SystemProfileProto.LinkedAndroidPhoneData\00", align 1
@_ZTVN7metrics18SystemProfileProtoE = hidden unnamed_addr constant { [16 x i8*] } { [16 x i8*] [i8* null, i8* null, i8* bitcast (void (%"class.metrics::SystemProfileProto"*)* @_ZN7metrics18SystemProfileProtoD2Ev to i8*), i8* bitcast (void (%"class.metrics::SystemProfileProto"*)* @_ZN7metrics18SystemProfileProtoD0Ev to i8*), i8* bitcast (void (%"class.std::__1::basic_string"*, %"class.metrics::SystemProfileProto"*)* @_ZNK7metrics18SystemProfileProto11GetTypeNameEv to i8*), i8* bitcast (%"class.metrics::SystemProfileProto"* (%"class.metrics::SystemProfileProto"*)* @_ZNK7metrics18SystemProfileProto3NewEv to i8*), i8* bitcast (%"class.metrics::SystemProfileProto"* (%"class.metrics::SystemProfileProto"*, %"class.google::protobuf::Arena"*)* @_ZNK7metrics18SystemProfileProto3NewEPN6google8protobuf5ArenaE to i8*), i8* bitcast (void (%"class.metrics::SystemProfileProto"*)* @_ZN7metrics18SystemProfileProto5ClearEv to i8*), i8* bitcast (i1 (%"class.metrics::SystemProfileProto"*)* @_ZNK7metrics18SystemProfileProto13IsInitializedEv to i8*), i8* bitcast (void (%"class.std::__1::basic_string"*, %"class.google::protobuf::MessageLite"*)* @_ZNK6google8protobuf11MessageLite25InitializationErrorStringEv to i8*), i8* bitcast (void (%"class.metrics::SystemProfileProto"*, %"class.google::protobuf::MessageLite"*)* @_ZN7metrics18SystemProfileProto21CheckTypeAndMergeFromERKN6google8protobuf11MessageLiteE to i8*), i8* bitcast (i64 (%"class.metrics::SystemProfileProto"*)* @_ZNK7metrics18SystemProfileProto12ByteSizeLongEv to i8*), i8* bitcast (i32 (%"class.metrics::SystemProfileProto"*)* @_ZNK7metrics18SystemProfileProto13GetCachedSizeEv to i8*), i8* bitcast (i8* (%"class.metrics::SystemProfileProto"*, i8*, %"class.google::protobuf::internal::ParseContext"*)* @_ZN7metrics18SystemProfileProto14_InternalParseEPKcPN6google8protobuf8internal12ParseContextE to i8*), i8* bitcast (i8* (%"class.metrics::SystemProfileProto"*, i8*, %"class.google::protobuf::io::EpsCopyOutputStream"*)* @_ZNK7metrics18SystemProfileProto18_InternalSerializeEPhPN6google8protobuf2io19EpsCopyOutputStreamE to i8*), i8* bitcast (i8* (%"class.google::protobuf::MessageLite"*)* @_ZNK6google8protobuf11MessageLite16InternalGetTableEv to i8*)] }, align 8
@.str.74 = private unnamed_addr constant [27 x i8] c"metrics.SystemProfileProto\00", align 1
@_ZN6google8protobuf8internal26fixed_address_empty_stringE = external global %"class.google::protobuf::internal::ExplicitlyConstructed.27", align 8
@.str.101 = private unnamed_addr constant [25 x i8] c"size_t to int conversion\00", align 1
@__const._ZN6google8protobuf8internal9ExpectTagILj162EEEbPKc.buf = private unnamed_addr constant [2 x i8] c"\A2\01", align 1
@__const._ZN6google8protobuf8internal9ExpectTagILj178EEEbPKc.buf = private unnamed_addr constant [2 x i8] c"\B2\01", align 1
@__const._ZN6google8protobuf8internal9ExpectTagILj144EEEbPKc.buf = private unnamed_addr constant [2 x i8] c"\90\01", align 1
@__const._ZN6google8protobuf8internal9ExpectTagILj186EEEbPKc.buf = private unnamed_addr constant [2 x i8] c"\BA\01", align 1
@__const._ZN6google8protobuf8internal9ExpectTagILj194EEEbPKc.buf = private unnamed_addr constant [2 x i8] c"\C2\01", align 1
@__const._ZN6google8protobuf8internal9ExpectTagILj202EEEbPKc.buf = private unnamed_addr constant [2 x i8] c"\CA\01", align 1
@llvm.global_ctors = appending global [0 x { i32, void ()*, i8* }] zeroinitializer

@_ZN7metrics25SystemProfileProto_OS_ArcC1EPN6google8protobuf5ArenaE = hidden unnamed_addr alias void (%"class.metrics::SystemProfileProto_OS_Arc"*, %"class.google::protobuf::Arena"*), void (%"class.metrics::SystemProfileProto_OS_Arc"*, %"class.google::protobuf::Arena"*)* @_ZN7metrics25SystemProfileProto_OS_ArcC2EPN6google8protobuf5ArenaE
@_ZN7metrics25SystemProfileProto_OS_ArcC1ERKS0_ = hidden unnamed_addr alias void (%"class.metrics::SystemProfileProto_OS_Arc"*, %"class.metrics::SystemProfileProto_OS_Arc"*), void (%"class.metrics::SystemProfileProto_OS_Arc"*, %"class.metrics::SystemProfileProto_OS_Arc"*)* @_ZN7metrics25SystemProfileProto_OS_ArcC2ERKS0_
@_ZN7metrics25SystemProfileProto_OS_ArcD1Ev = hidden unnamed_addr alias void (%"class.metrics::SystemProfileProto_OS_Arc"*), void (%"class.metrics::SystemProfileProto_OS_Arc"*)* @_ZN7metrics25SystemProfileProto_OS_ArcD2Ev
@_ZN7metrics21SystemProfileProto_OSC1EPN6google8protobuf5ArenaE = hidden unnamed_addr alias void (%"class.metrics::SystemProfileProto_OS"*, %"class.google::protobuf::Arena"*), void (%"class.metrics::SystemProfileProto_OS"*, %"class.google::protobuf::Arena"*)* @_ZN7metrics21SystemProfileProto_OSC2EPN6google8protobuf5ArenaE
@_ZN7metrics21SystemProfileProto_OSC1ERKS0_ = hidden unnamed_addr alias void (%"class.metrics::SystemProfileProto_OS"*, %"class.metrics::SystemProfileProto_OS"*), void (%"class.metrics::SystemProfileProto_OS"*, %"class.metrics::SystemProfileProto_OS"*)* @_ZN7metrics21SystemProfileProto_OSC2ERKS0_
@_ZN7metrics21SystemProfileProto_OSD1Ev = hidden unnamed_addr alias void (%"class.metrics::SystemProfileProto_OS"*), void (%"class.metrics::SystemProfileProto_OS"*)* @_ZN7metrics21SystemProfileProto_OSD2Ev
@_ZN7metrics31SystemProfileProto_Hardware_CPUC1EPN6google8protobuf5ArenaE = hidden unnamed_addr alias void (%"class.metrics::SystemProfileProto_Hardware_CPU"*, %"class.google::protobuf::Arena"*), void (%"class.metrics::SystemProfileProto_Hardware_CPU"*, %"class.google::protobuf::Arena"*)* @_ZN7metrics31SystemProfileProto_Hardware_CPUC2EPN6google8protobuf5ArenaE
@_ZN7metrics31SystemProfileProto_Hardware_CPUC1ERKS0_ = hidden unnamed_addr alias void (%"class.metrics::SystemProfileProto_Hardware_CPU"*, %"class.metrics::SystemProfileProto_Hardware_CPU"*), void (%"class.metrics::SystemProfileProto_Hardware_CPU"*, %"class.metrics::SystemProfileProto_Hardware_CPU"*)* @_ZN7metrics31SystemProfileProto_Hardware_CPUC2ERKS0_
@_ZN7metrics31SystemProfileProto_Hardware_CPUD1Ev = hidden unnamed_addr alias void (%"class.metrics::SystemProfileProto_Hardware_CPU"*), void (%"class.metrics::SystemProfileProto_Hardware_CPU"*)* @_ZN7metrics31SystemProfileProto_Hardware_CPUD2Ev
@_ZN7metrics36SystemProfileProto_Hardware_GraphicsC1EPN6google8protobuf5ArenaE = hidden unnamed_addr alias void (%"class.metrics::SystemProfileProto_Hardware_Graphics"*, %"class.google::protobuf::Arena"*), void (%"class.metrics::SystemProfileProto_Hardware_Graphics"*, %"class.google::protobuf::Arena"*)* @_ZN7metrics36SystemProfileProto_Hardware_GraphicsC2EPN6google8protobuf5ArenaE
@_ZN7metrics36SystemProfileProto_Hardware_GraphicsC1ERKS0_ = hidden unnamed_addr alias void (%"class.metrics::SystemProfileProto_Hardware_Graphics"*, %"class.metrics::SystemProfileProto_Hardware_Graphics"*), void (%"class.metrics::SystemProfileProto_Hardware_Graphics"*, %"class.metrics::SystemProfileProto_Hardware_Graphics"*)* @_ZN7metrics36SystemProfileProto_Hardware_GraphicsC2ERKS0_
@_ZN7metrics36SystemProfileProto_Hardware_GraphicsD1Ev = hidden unnamed_addr alias void (%"class.metrics::SystemProfileProto_Hardware_Graphics"*), void (%"class.metrics::SystemProfileProto_Hardware_Graphics"*)* @_ZN7metrics36SystemProfileProto_Hardware_GraphicsD2Ev
@_ZN7metrics49SystemProfileProto_Hardware_InternalStorageDeviceC1EPN6google8protobuf5ArenaE = hidden unnamed_addr alias void (%"class.metrics::SystemProfileProto_Hardware_InternalStorageDevice"*, %"class.google::protobuf::Arena"*), void (%"class.metrics::SystemProfileProto_Hardware_InternalStorageDevice"*, %"class.google::protobuf::Arena"*)* @_ZN7metrics49SystemProfileProto_Hardware_InternalStorageDeviceC2EPN6google8protobuf5ArenaE
@_ZN7metrics49SystemProfileProto_Hardware_InternalStorageDeviceC1ERKS0_ = hidden unnamed_addr alias void (%"class.metrics::SystemProfileProto_Hardware_InternalStorageDevice"*, %"class.metrics::SystemProfileProto_Hardware_InternalStorageDevice"*), void (%"class.metrics::SystemProfileProto_Hardware_InternalStorageDevice"*, %"class.metrics::SystemProfileProto_Hardware_InternalStorageDevice"*)* @_ZN7metrics49SystemProfileProto_Hardware_InternalStorageDeviceC2ERKS0_
@_ZN7metrics49SystemProfileProto_Hardware_InternalStorageDeviceD1Ev = hidden unnamed_addr alias void (%"class.metrics::SystemProfileProto_Hardware_InternalStorageDevice"*), void (%"class.metrics::SystemProfileProto_Hardware_InternalStorageDevice"*)* @_ZN7metrics49SystemProfileProto_Hardware_InternalStorageDeviceD2Ev
@_ZN7metrics33SystemProfileProto_Hardware_DriveC1EPN6google8protobuf5ArenaE = hidden unnamed_addr alias void (%"class.metrics::SystemProfileProto_Hardware_Drive"*, %"class.google::protobuf::Arena"*), void (%"class.metrics::SystemProfileProto_Hardware_Drive"*, %"class.google::protobuf::Arena"*)* @_ZN7metrics33SystemProfileProto_Hardware_DriveC2EPN6google8protobuf5ArenaE
@_ZN7metrics33SystemProfileProto_Hardware_DriveC1ERKS0_ = hidden unnamed_addr alias void (%"class.metrics::SystemProfileProto_Hardware_Drive"*, %"class.metrics::SystemProfileProto_Hardware_Drive"*), void (%"class.metrics::SystemProfileProto_Hardware_Drive"*, %"class.metrics::SystemProfileProto_Hardware_Drive"*)* @_ZN7metrics33SystemProfileProto_Hardware_DriveC2ERKS0_
@_ZN7metrics33SystemProfileProto_Hardware_DriveD1Ev = hidden unnamed_addr alias void (%"class.metrics::SystemProfileProto_Hardware_Drive"*), void (%"class.metrics::SystemProfileProto_Hardware_Drive"*)* @_ZN7metrics33SystemProfileProto_Hardware_DriveD2Ev
@_ZN7metrics27SystemProfileProto_HardwareC1EPN6google8protobuf5ArenaE = hidden unnamed_addr alias void (%"class.metrics::SystemProfileProto_Hardware"*, %"class.google::protobuf::Arena"*), void (%"class.metrics::SystemProfileProto_Hardware"*, %"class.google::protobuf::Arena"*)* @_ZN7metrics27SystemProfileProto_HardwareC2EPN6google8protobuf5ArenaE
@_ZN7metrics27SystemProfileProto_HardwareC1ERKS0_ = hidden unnamed_addr alias void (%"class.metrics::SystemProfileProto_Hardware"*, %"class.metrics::SystemProfileProto_Hardware"*), void (%"class.metrics::SystemProfileProto_Hardware"*, %"class.metrics::SystemProfileProto_Hardware"*)* @_ZN7metrics27SystemProfileProto_HardwareC2ERKS0_
@_ZN7metrics27SystemProfileProto_HardwareD1Ev = hidden unnamed_addr alias void (%"class.metrics::SystemProfileProto_Hardware"*), void (%"class.metrics::SystemProfileProto_Hardware"*)* @_ZN7metrics27SystemProfileProto_HardwareD2Ev
@_ZN7metrics26SystemProfileProto_NetworkC1EPN6google8protobuf5ArenaE = hidden unnamed_addr alias void (%"class.metrics::SystemProfileProto_Network"*, %"class.google::protobuf::Arena"*), void (%"class.metrics::SystemProfileProto_Network"*, %"class.google::protobuf::Arena"*)* @_ZN7metrics26SystemProfileProto_NetworkC2EPN6google8protobuf5ArenaE
@_ZN7metrics26SystemProfileProto_NetworkC1ERKS0_ = hidden unnamed_addr alias void (%"class.metrics::SystemProfileProto_Network"*, %"class.metrics::SystemProfileProto_Network"*), void (%"class.metrics::SystemProfileProto_Network"*, %"class.metrics::SystemProfileProto_Network"*)* @_ZN7metrics26SystemProfileProto_NetworkC2ERKS0_
@_ZN7metrics26SystemProfileProto_NetworkD1Ev = hidden unnamed_addr alias void (%"class.metrics::SystemProfileProto_Network"*), void (%"class.metrics::SystemProfileProto_Network"*)* @_ZN7metrics26SystemProfileProto_NetworkD2Ev
@_ZN7metrics43SystemProfileProto_GoogleUpdate_ProductInfoC1EPN6google8protobuf5ArenaE = hidden unnamed_addr alias void (%"class.metrics::SystemProfileProto_GoogleUpdate_ProductInfo"*, %"class.google::protobuf::Arena"*), void (%"class.metrics::SystemProfileProto_GoogleUpdate_ProductInfo"*, %"class.google::protobuf::Arena"*)* @_ZN7metrics43SystemProfileProto_GoogleUpdate_ProductInfoC2EPN6google8protobuf5ArenaE
@_ZN7metrics43SystemProfileProto_GoogleUpdate_ProductInfoC1ERKS0_ = hidden unnamed_addr alias void (%"class.metrics::SystemProfileProto_GoogleUpdate_ProductInfo"*, %"class.metrics::SystemProfileProto_GoogleUpdate_ProductInfo"*), void (%"class.metrics::SystemProfileProto_GoogleUpdate_ProductInfo"*, %"class.metrics::SystemProfileProto_GoogleUpdate_ProductInfo"*)* @_ZN7metrics43SystemProfileProto_GoogleUpdate_ProductInfoC2ERKS0_
@_ZN7metrics43SystemProfileProto_GoogleUpdate_ProductInfoD1Ev = hidden unnamed_addr alias void (%"class.metrics::SystemProfileProto_GoogleUpdate_ProductInfo"*), void (%"class.metrics::SystemProfileProto_GoogleUpdate_ProductInfo"*)* @_ZN7metrics43SystemProfileProto_GoogleUpdate_ProductInfoD2Ev
@_ZN7metrics31SystemProfileProto_GoogleUpdateC1EPN6google8protobuf5ArenaE = hidden unnamed_addr alias void (%"class.metrics::SystemProfileProto_GoogleUpdate"*, %"class.google::protobuf::Arena"*), void (%"class.metrics::SystemProfileProto_GoogleUpdate"*, %"class.google::protobuf::Arena"*)* @_ZN7metrics31SystemProfileProto_GoogleUpdateC2EPN6google8protobuf5ArenaE
@_ZN7metrics31SystemProfileProto_GoogleUpdateC1ERKS0_ = hidden unnamed_addr alias void (%"class.metrics::SystemProfileProto_GoogleUpdate"*, %"class.metrics::SystemProfileProto_GoogleUpdate"*), void (%"class.metrics::SystemProfileProto_GoogleUpdate"*, %"class.metrics::SystemProfileProto_GoogleUpdate"*)* @_ZN7metrics31SystemProfileProto_GoogleUpdateC2ERKS0_
@_ZN7metrics31SystemProfileProto_GoogleUpdateD1Ev = hidden unnamed_addr alias void (%"class.metrics::SystemProfileProto_GoogleUpdate"*), void (%"class.metrics::SystemProfileProto_GoogleUpdate"*)* @_ZN7metrics31SystemProfileProto_GoogleUpdateD2Ev
@_ZN7metrics25SystemProfileProto_PluginC1EPN6google8protobuf5ArenaE = hidden unnamed_addr alias void (%"class.metrics::SystemProfileProto_Plugin"*, %"class.google::protobuf::Arena"*), void (%"class.metrics::SystemProfileProto_Plugin"*, %"class.google::protobuf::Arena"*)* @_ZN7metrics25SystemProfileProto_PluginC2EPN6google8protobuf5ArenaE
@_ZN7metrics25SystemProfileProto_PluginC1ERKS0_ = hidden unnamed_addr alias void (%"class.metrics::SystemProfileProto_Plugin"*, %"class.metrics::SystemProfileProto_Plugin"*), void (%"class.metrics::SystemProfileProto_Plugin"*, %"class.metrics::SystemProfileProto_Plugin"*)* @_ZN7metrics25SystemProfileProto_PluginC2ERKS0_
@_ZN7metrics25SystemProfileProto_PluginD1Ev = hidden unnamed_addr alias void (%"class.metrics::SystemProfileProto_Plugin"*), void (%"class.metrics::SystemProfileProto_Plugin"*)* @_ZN7metrics25SystemProfileProto_PluginD2Ev
@_ZN7metrics44SystemProfileProto_Stability_PluginStabilityC1EPN6google8protobuf5ArenaE = hidden unnamed_addr alias void (%"class.metrics::SystemProfileProto_Stability_PluginStability"*, %"class.google::protobuf::Arena"*), void (%"class.metrics::SystemProfileProto_Stability_PluginStability"*, %"class.google::protobuf::Arena"*)* @_ZN7metrics44SystemProfileProto_Stability_PluginStabilityC2EPN6google8protobuf5ArenaE
@_ZN7metrics44SystemProfileProto_Stability_PluginStabilityC1ERKS0_ = hidden unnamed_addr alias void (%"class.metrics::SystemProfileProto_Stability_PluginStability"*, %"class.metrics::SystemProfileProto_Stability_PluginStability"*), void (%"class.metrics::SystemProfileProto_Stability_PluginStability"*, %"class.metrics::SystemProfileProto_Stability_PluginStability"*)* @_ZN7metrics44SystemProfileProto_Stability_PluginStabilityC2ERKS0_
@_ZN7metrics44SystemProfileProto_Stability_PluginStabilityD1Ev = hidden unnamed_addr alias void (%"class.metrics::SystemProfileProto_Stability_PluginStability"*), void (%"class.metrics::SystemProfileProto_Stability_PluginStability"*)* @_ZN7metrics44SystemProfileProto_Stability_PluginStabilityD2Ev
@_ZN7metrics28SystemProfileProto_StabilityC1EPN6google8protobuf5ArenaE = hidden unnamed_addr alias void (%"class.metrics::SystemProfileProto_Stability"*, %"class.google::protobuf::Arena"*), void (%"class.metrics::SystemProfileProto_Stability"*, %"class.google::protobuf::Arena"*)* @_ZN7metrics28SystemProfileProto_StabilityC2EPN6google8protobuf5ArenaE
@_ZN7metrics28SystemProfileProto_StabilityC1ERKS0_ = hidden unnamed_addr alias void (%"class.metrics::SystemProfileProto_Stability"*, %"class.metrics::SystemProfileProto_Stability"*), void (%"class.metrics::SystemProfileProto_Stability"*, %"class.metrics::SystemProfileProto_Stability"*)* @_ZN7metrics28SystemProfileProto_StabilityC2ERKS0_
@_ZN7metrics28SystemProfileProto_StabilityD1Ev = hidden unnamed_addr alias void (%"class.metrics::SystemProfileProto_Stability"*), void (%"class.metrics::SystemProfileProto_Stability"*)* @_ZN7metrics28SystemProfileProto_StabilityD2Ev
@_ZN7metrics29SystemProfileProto_FieldTrialC1EPN6google8protobuf5ArenaE = hidden unnamed_addr alias void (%"class.metrics::SystemProfileProto_FieldTrial"*, %"class.google::protobuf::Arena"*), void (%"class.metrics::SystemProfileProto_FieldTrial"*, %"class.google::protobuf::Arena"*)* @_ZN7metrics29SystemProfileProto_FieldTrialC2EPN6google8protobuf5ArenaE
@_ZN7metrics29SystemProfileProto_FieldTrialC1ERKS0_ = hidden unnamed_addr alias void (%"class.metrics::SystemProfileProto_FieldTrial"*, %"class.metrics::SystemProfileProto_FieldTrial"*), void (%"class.metrics::SystemProfileProto_FieldTrial"*, %"class.metrics::SystemProfileProto_FieldTrial"*)* @_ZN7metrics29SystemProfileProto_FieldTrialC2ERKS0_
@_ZN7metrics29SystemProfileProto_FieldTrialD1Ev = hidden unnamed_addr alias void (%"class.metrics::SystemProfileProto_FieldTrial"*), void (%"class.metrics::SystemProfileProto_FieldTrial"*)* @_ZN7metrics29SystemProfileProto_FieldTrialD2Ev
@_ZN7metrics60SystemProfileProto_ExternalAudioVideoDevice_AudioDescriptionC1EPN6google8protobuf5ArenaE = hidden unnamed_addr alias void (%"class.metrics::SystemProfileProto_ExternalAudioVideoDevice_AudioDescription"*, %"class.google::protobuf::Arena"*), void (%"class.metrics::SystemProfileProto_ExternalAudioVideoDevice_AudioDescription"*, %"class.google::protobuf::Arena"*)* @_ZN7metrics60SystemProfileProto_ExternalAudioVideoDevice_AudioDescriptionC2EPN6google8protobuf5ArenaE
@_ZN7metrics60SystemProfileProto_ExternalAudioVideoDevice_AudioDescriptionC1ERKS0_ = hidden unnamed_addr alias void (%"class.metrics::SystemProfileProto_ExternalAudioVideoDevice_AudioDescription"*, %"class.metrics::SystemProfileProto_ExternalAudioVideoDevice_AudioDescription"*), void (%"class.metrics::SystemProfileProto_ExternalAudioVideoDevice_AudioDescription"*, %"class.metrics::SystemProfileProto_ExternalAudioVideoDevice_AudioDescription"*)* @_ZN7metrics60SystemProfileProto_ExternalAudioVideoDevice_AudioDescriptionC2ERKS0_
@_ZN7metrics60SystemProfileProto_ExternalAudioVideoDevice_AudioDescriptionD1Ev = hidden unnamed_addr alias void (%"class.metrics::SystemProfileProto_ExternalAudioVideoDevice_AudioDescription"*), void (%"class.metrics::SystemProfileProto_ExternalAudioVideoDevice_AudioDescription"*)* @_ZN7metrics60SystemProfileProto_ExternalAudioVideoDevice_AudioDescriptionD2Ev
@_ZN7metrics54SystemProfileProto_ExternalAudioVideoDevice_CECCommandC1EPN6google8protobuf5ArenaE = hidden unnamed_addr alias void (%"class.metrics::SystemProfileProto_ExternalAudioVideoDevice_CECCommand"*, %"class.google::protobuf::Arena"*), void (%"class.metrics::SystemProfileProto_ExternalAudioVideoDevice_CECCommand"*, %"class.google::protobuf::Arena"*)* @_ZN7metrics54SystemProfileProto_ExternalAudioVideoDevice_CECCommandC2EPN6google8protobuf5ArenaE
@_ZN7metrics54SystemProfileProto_ExternalAudioVideoDevice_CECCommandC1ERKS0_ = hidden unnamed_addr alias void (%"class.metrics::SystemProfileProto_ExternalAudioVideoDevice_CECCommand"*, %"class.metrics::SystemProfileProto_ExternalAudioVideoDevice_CECCommand"*), void (%"class.metrics::SystemProfileProto_ExternalAudioVideoDevice_CECCommand"*, %"class.metrics::SystemProfileProto_ExternalAudioVideoDevice_CECCommand"*)* @_ZN7metrics54SystemProfileProto_ExternalAudioVideoDevice_CECCommandC2ERKS0_
@_ZN7metrics54SystemProfileProto_ExternalAudioVideoDevice_CECCommandD1Ev = hidden unnamed_addr alias void (%"class.metrics::SystemProfileProto_ExternalAudioVideoDevice_CECCommand"*), void (%"class.metrics::SystemProfileProto_ExternalAudioVideoDevice_CECCommand"*)* @_ZN7metrics54SystemProfileProto_ExternalAudioVideoDevice_CECCommandD2Ev
@_ZN7metrics43SystemProfileProto_ExternalAudioVideoDeviceC1EPN6google8protobuf5ArenaE = hidden unnamed_addr alias void (%"class.metrics::SystemProfileProto_ExternalAudioVideoDevice"*, %"class.google::protobuf::Arena"*), void (%"class.metrics::SystemProfileProto_ExternalAudioVideoDevice"*, %"class.google::protobuf::Arena"*)* @_ZN7metrics43SystemProfileProto_ExternalAudioVideoDeviceC2EPN6google8protobuf5ArenaE
@_ZN7metrics43SystemProfileProto_ExternalAudioVideoDeviceC1ERKS0_ = hidden unnamed_addr alias void (%"class.metrics::SystemProfileProto_ExternalAudioVideoDevice"*, %"class.metrics::SystemProfileProto_ExternalAudioVideoDevice"*), void (%"class.metrics::SystemProfileProto_ExternalAudioVideoDevice"*, %"class.metrics::SystemProfileProto_ExternalAudioVideoDevice"*)* @_ZN7metrics43SystemProfileProto_ExternalAudioVideoDeviceC2ERKS0_
@_ZN7metrics43SystemProfileProto_ExternalAudioVideoDeviceD1Ev = hidden unnamed_addr alias void (%"class.metrics::SystemProfileProto_ExternalAudioVideoDevice"*), void (%"class.metrics::SystemProfileProto_ExternalAudioVideoDevice"*)* @_ZN7metrics43SystemProfileProto_ExternalAudioVideoDeviceD2Ev
@_ZN7metrics38SystemProfileProto_ExternalAccessPointC1EPN6google8protobuf5ArenaE = hidden unnamed_addr alias void (%"class.metrics::SystemProfileProto_ExternalAccessPoint"*, %"class.google::protobuf::Arena"*), void (%"class.metrics::SystemProfileProto_ExternalAccessPoint"*, %"class.google::protobuf::Arena"*)* @_ZN7metrics38SystemProfileProto_ExternalAccessPointC2EPN6google8protobuf5ArenaE
@_ZN7metrics38SystemProfileProto_ExternalAccessPointC1ERKS0_ = hidden unnamed_addr alias void (%"class.metrics::SystemProfileProto_ExternalAccessPoint"*, %"class.metrics::SystemProfileProto_ExternalAccessPoint"*), void (%"class.metrics::SystemProfileProto_ExternalAccessPoint"*, %"class.metrics::SystemProfileProto_ExternalAccessPoint"*)* @_ZN7metrics38SystemProfileProto_ExternalAccessPointC2ERKS0_
@_ZN7metrics38SystemProfileProto_ExternalAccessPointD1Ev = hidden unnamed_addr alias void (%"class.metrics::SystemProfileProto_ExternalAccessPoint"*), void (%"class.metrics::SystemProfileProto_ExternalAccessPoint"*)* @_ZN7metrics38SystemProfileProto_ExternalAccessPointD2Ev
@_ZN7metrics35SystemProfileProto_AntiVirusProductC1EPN6google8protobuf5ArenaE = hidden unnamed_addr alias void (%"class.metrics::SystemProfileProto_AntiVirusProduct"*, %"class.google::protobuf::Arena"*), void (%"class.metrics::SystemProfileProto_AntiVirusProduct"*, %"class.google::protobuf::Arena"*)* @_ZN7metrics35SystemProfileProto_AntiVirusProductC2EPN6google8protobuf5ArenaE
@_ZN7metrics35SystemProfileProto_AntiVirusProductC1ERKS0_ = hidden unnamed_addr alias void (%"class.metrics::SystemProfileProto_AntiVirusProduct"*, %"class.metrics::SystemProfileProto_AntiVirusProduct"*), void (%"class.metrics::SystemProfileProto_AntiVirusProduct"*, %"class.metrics::SystemProfileProto_AntiVirusProduct"*)* @_ZN7metrics35SystemProfileProto_AntiVirusProductC2ERKS0_
@_ZN7metrics35SystemProfileProto_AntiVirusProductD1Ev = hidden unnamed_addr alias void (%"class.metrics::SystemProfileProto_AntiVirusProduct"*), void (%"class.metrics::SystemProfileProto_AntiVirusProduct"*)* @_ZN7metrics35SystemProfileProto_AntiVirusProductD2Ev
@_ZN7metrics34SystemProfileProto_ChromeComponentC1EPN6google8protobuf5ArenaE = hidden unnamed_addr alias void (%"class.metrics::SystemProfileProto_ChromeComponent"*, %"class.google::protobuf::Arena"*), void (%"class.metrics::SystemProfileProto_ChromeComponent"*, %"class.google::protobuf::Arena"*)* @_ZN7metrics34SystemProfileProto_ChromeComponentC2EPN6google8protobuf5ArenaE
@_ZN7metrics34SystemProfileProto_ChromeComponentC1ERKS0_ = hidden unnamed_addr alias void (%"class.metrics::SystemProfileProto_ChromeComponent"*, %"class.metrics::SystemProfileProto_ChromeComponent"*), void (%"class.metrics::SystemProfileProto_ChromeComponent"*, %"class.metrics::SystemProfileProto_ChromeComponent"*)* @_ZN7metrics34SystemProfileProto_ChromeComponentC2ERKS0_
@_ZN7metrics34SystemProfileProto_ChromeComponentD1Ev = hidden unnamed_addr alias void (%"class.metrics::SystemProfileProto_ChromeComponent"*), void (%"class.metrics::SystemProfileProto_ChromeComponent"*)* @_ZN7metrics34SystemProfileProto_ChromeComponentD2Ev
@_ZN7metrics41SystemProfileProto_LinkedAndroidPhoneDataC1EPN6google8protobuf5ArenaE = hidden unnamed_addr alias void (%"class.metrics::SystemProfileProto_LinkedAndroidPhoneData"*, %"class.google::protobuf::Arena"*), void (%"class.metrics::SystemProfileProto_LinkedAndroidPhoneData"*, %"class.google::protobuf::Arena"*)* @_ZN7metrics41SystemProfileProto_LinkedAndroidPhoneDataC2EPN6google8protobuf5ArenaE
@_ZN7metrics41SystemProfileProto_LinkedAndroidPhoneDataC1ERKS0_ = hidden unnamed_addr alias void (%"class.metrics::SystemProfileProto_LinkedAndroidPhoneData"*, %"class.metrics::SystemProfileProto_LinkedAndroidPhoneData"*), void (%"class.metrics::SystemProfileProto_LinkedAndroidPhoneData"*, %"class.metrics::SystemProfileProto_LinkedAndroidPhoneData"*)* @_ZN7metrics41SystemProfileProto_LinkedAndroidPhoneDataC2ERKS0_
@_ZN7metrics41SystemProfileProto_LinkedAndroidPhoneDataD1Ev = hidden unnamed_addr alias void (%"class.metrics::SystemProfileProto_LinkedAndroidPhoneData"*), void (%"class.metrics::SystemProfileProto_LinkedAndroidPhoneData"*)* @_ZN7metrics41SystemProfileProto_LinkedAndroidPhoneDataD2Ev
@_ZN7metrics18SystemProfileProtoC1EPN6google8protobuf5ArenaE = hidden unnamed_addr alias void (%"class.metrics::SystemProfileProto"*, %"class.google::protobuf::Arena"*), void (%"class.metrics::SystemProfileProto"*, %"class.google::protobuf::Arena"*)* @_ZN7metrics18SystemProfileProtoC2EPN6google8protobuf5ArenaE
@_ZN7metrics18SystemProfileProtoC1ERKS0_ = hidden unnamed_addr alias void (%"class.metrics::SystemProfileProto"*, %"class.metrics::SystemProfileProto"*), void (%"class.metrics::SystemProfileProto"*, %"class.metrics::SystemProfileProto"*)* @_ZN7metrics18SystemProfileProtoC2ERKS0_
@_ZN7metrics18SystemProfileProtoD1Ev = hidden unnamed_addr alias void (%"class.metrics::SystemProfileProto"*), void (%"class.metrics::SystemProfileProto"*)* @_ZN7metrics18SystemProfileProtoD2Ev

; Function Attrs: nounwind ssp uwtable
define internal void @_ZL64InitDefaultsscc_info_SystemProfileProto_system_5fprofile_2eprotov() #0 {
  tail call void @_ZN6google8protobuf8internal13VerifyVersionEiiPKc(i32 3013000, i32 3013000, i8* getelementptr inbounds ([51 x i8], [51 x i8]* @.str, i64 0, i64 0)) #15
  store %"class.google::protobuf::Arena"* null, %"class.google::protobuf::Arena"** bitcast (i8* getelementptr inbounds (%"class.metrics::SystemProfileProtoDefaultTypeInternal", %"class.metrics::SystemProfileProtoDefaultTypeInternal"* @_ZN7metrics37_SystemProfileProto_default_instance_E, i64 0, i32 0, i32 0, i32 1, i64 0) to %"class.google::protobuf::Arena"**), align 8
  store i32 (...)** bitcast (i8** getelementptr inbounds ({ [16 x i8*] }, { [16 x i8*] }* @_ZTVN7metrics18SystemProfileProtoE, i64 0, inrange i32 0, i64 2) to i32 (...)**), i32 (...)*** bitcast (%"class.metrics::SystemProfileProtoDefaultTypeInternal"* @_ZN7metrics37_SystemProfileProto_default_instance_E to i32 (...)***), align 8
  tail call void @llvm.memset.p0i8.i64(i8* align 8 getelementptr inbounds (%"class.metrics::SystemProfileProtoDefaultTypeInternal", %"class.metrics::SystemProfileProtoDefaultTypeInternal"* @_ZN7metrics37_SystemProfileProto_default_instance_E, i64 0, i32 0, i32 0, i32 1, i64 8), i8 0, i64 184, i1 false) #15
  %1 = load atomic i32, i32* getelementptr inbounds ({ { { { i32 } }, i32, i32, void ()* }, [13 x i8*] }, { { { { i32 } }, i32, i32, void ()* }, [13 x i8*] }* @scc_info_SystemProfileProto_system_5fprofile_2eproto, i64 0, i32 0, i32 0, i32 0, i32 0) acquire, align 8
  %2 = icmp eq i32 %1, 0
  br i1 %2, label %4, label %3, !prof !2

3:                                                ; preds = %0
  tail call void @_ZN6google8protobuf8internal11InitSCCImplEPNS1_11SCCInfoBaseE(%"struct.google::protobuf::internal::SCCInfoBase"* bitcast ({ { { { i32 } }, i32, i32, void ()* }, [13 x i8*] }* @scc_info_SystemProfileProto_system_5fprofile_2eproto to %"struct.google::protobuf::internal::SCCInfoBase"*)) #15
  br label %4

4:                                                ; preds = %0, %3
  store <2 x %"class.std::__1::basic_string"*> <%"class.std::__1::basic_string"* bitcast (%"class.google::protobuf::internal::ExplicitlyConstructed.27"* @_ZN6google8protobuf8internal26fixed_address_empty_stringE to %"class.std::__1::basic_string"*), %"class.std::__1::basic_string"* bitcast (%"class.google::protobuf::internal::ExplicitlyConstructed.27"* @_ZN6google8protobuf8internal26fixed_address_empty_stringE to %"class.std::__1::basic_string"*)>, <2 x %"class.std::__1::basic_string"*>* bitcast (i8* getelementptr inbounds (%"class.metrics::SystemProfileProtoDefaultTypeInternal", %"class.metrics::SystemProfileProtoDefaultTypeInternal"* @_ZN7metrics37_SystemProfileProto_default_instance_E, i64 0, i32 0, i32 0, i32 1, i64 200) to <2 x %"class.std::__1::basic_string"*>*), align 8
  store <2 x %"class.std::__1::basic_string"*> <%"class.std::__1::basic_string"* bitcast (%"class.google::protobuf::internal::ExplicitlyConstructed.27"* @_ZN6google8protobuf8internal26fixed_address_empty_stringE to %"class.std::__1::basic_string"*), %"class.std::__1::basic_string"* bitcast (%"class.google::protobuf::internal::ExplicitlyConstructed.27"* @_ZN6google8protobuf8internal26fixed_address_empty_stringE to %"class.std::__1::basic_string"*)>, <2 x %"class.std::__1::basic_string"*>* bitcast (i8* getelementptr inbounds (%"class.metrics::SystemProfileProtoDefaultTypeInternal", %"class.metrics::SystemProfileProtoDefaultTypeInternal"* @_ZN7metrics37_SystemProfileProto_default_instance_E, i64 0, i32 0, i32 0, i32 1, i64 216) to <2 x %"class.std::__1::basic_string"*>*), align 8
  store <2 x %"class.std::__1::basic_string"*> <%"class.std::__1::basic_string"* bitcast (%"class.google::protobuf::internal::ExplicitlyConstructed.27"* @_ZN6google8protobuf8internal26fixed_address_empty_stringE to %"class.std::__1::basic_string"*), %"class.std::__1::basic_string"* bitcast (%"class.google::protobuf::internal::ExplicitlyConstructed.27"* @_ZN6google8protobuf8internal26fixed_address_empty_stringE to %"class.std::__1::basic_string"*)>, <2 x %"class.std::__1::basic_string"*>* bitcast (i8* getelementptr inbounds (%"class.metrics::SystemProfileProtoDefaultTypeInternal", %"class.metrics::SystemProfileProtoDefaultTypeInternal"* @_ZN7metrics37_SystemProfileProto_default_instance_E, i64 0, i32 0, i32 0, i32 1, i64 232) to <2 x %"class.std::__1::basic_string"*>*), align 8
  tail call void @llvm.memset.p0i8.i64(i8* align 8 getelementptr inbounds (%"class.metrics::SystemProfileProtoDefaultTypeInternal", %"class.metrics::SystemProfileProtoDefaultTypeInternal"* @_ZN7metrics37_SystemProfileProto_default_instance_E, i64 0, i32 0, i32 0, i32 1, i64 248), i8 0, i64 116, i1 false) #15
  tail call void @_ZN6google8protobuf8internal13OnShutdownRunEPFvPKvES3_(void (i8*)* nonnull @_ZN6google8protobuf8internal14DestroyMessageEPKv, i8* bitcast (%"class.metrics::SystemProfileProtoDefaultTypeInternal"* @_ZN7metrics37_SystemProfileProto_default_instance_E to i8*)) #15
  ret void
}

; Function Attrs: nounwind ssp uwtable
define internal void @_ZL81InitDefaultsscc_info_SystemProfileProto_AntiVirusProduct_system_5fprofile_2eprotov() #0 {
  tail call void @_ZN6google8protobuf8internal13VerifyVersionEiiPKc(i32 3013000, i32 3013000, i8* getelementptr inbounds ([51 x i8], [51 x i8]* @.str, i64 0, i64 0)) #15
  store %"class.google::protobuf::Arena"* null, %"class.google::protobuf::Arena"** bitcast (i8* getelementptr inbounds (%"class.metrics::SystemProfileProto_AntiVirusProductDefaultTypeInternal", %"class.metrics::SystemProfileProto_AntiVirusProductDefaultTypeInternal"* @_ZN7metrics54_SystemProfileProto_AntiVirusProduct_default_instance_E, i64 0, i32 0, i32 0, i32 1, i64 0) to %"class.google::protobuf::Arena"**), align 8
  store i32 (...)** bitcast (i8** getelementptr inbounds ({ [16 x i8*] }, { [16 x i8*] }* @_ZTVN7metrics35SystemProfileProto_AntiVirusProductE, i64 0, inrange i32 0, i64 2) to i32 (...)**), i32 (...)*** bitcast (%"class.metrics::SystemProfileProto_AntiVirusProductDefaultTypeInternal"* @_ZN7metrics54_SystemProfileProto_AntiVirusProduct_default_instance_E to i32 (...)***), align 8
  store i32 0, i32* bitcast (i8* getelementptr inbounds (%"class.metrics::SystemProfileProto_AntiVirusProductDefaultTypeInternal", %"class.metrics::SystemProfileProto_AntiVirusProductDefaultTypeInternal"* @_ZN7metrics54_SystemProfileProto_AntiVirusProduct_default_instance_E, i64 0, i32 0, i32 0, i32 1, i64 8) to i32*), align 8
  store i32 0, i32* bitcast (i8* getelementptr inbounds (%"class.metrics::SystemProfileProto_AntiVirusProductDefaultTypeInternal", %"class.metrics::SystemProfileProto_AntiVirusProductDefaultTypeInternal"* @_ZN7metrics54_SystemProfileProto_AntiVirusProduct_default_instance_E, i64 0, i32 0, i32 0, i32 1, i64 12) to i32*), align 4
  %1 = load atomic i32, i32* getelementptr inbounds ({ { { { i32 } }, i32, i32, void ()* }, [0 x i8*] }, { { { { i32 } }, i32, i32, void ()* }, [0 x i8*] }* @scc_info_SystemProfileProto_AntiVirusProduct_system_5fprofile_2eproto, i64 0, i32 0, i32 0, i32 0, i32 0) acquire, align 8
  %2 = icmp eq i32 %1, 0
  br i1 %2, label %4, label %3, !prof !2

3:                                                ; preds = %0
  tail call void @_ZN6google8protobuf8internal11InitSCCImplEPNS1_11SCCInfoBaseE(%"struct.google::protobuf::internal::SCCInfoBase"* bitcast ({ { { { i32 } }, i32, i32, void ()* }, [0 x i8*] }* @scc_info_SystemProfileProto_AntiVirusProduct_system_5fprofile_2eproto to %"struct.google::protobuf::internal::SCCInfoBase"*)) #15
  br label %4

4:                                                ; preds = %0, %3
  store <2 x %"class.std::__1::basic_string"*> <%"class.std::__1::basic_string"* bitcast (%"class.google::protobuf::internal::ExplicitlyConstructed.27"* @_ZN6google8protobuf8internal26fixed_address_empty_stringE to %"class.std::__1::basic_string"*), %"class.std::__1::basic_string"* bitcast (%"class.google::protobuf::internal::ExplicitlyConstructed.27"* @_ZN6google8protobuf8internal26fixed_address_empty_stringE to %"class.std::__1::basic_string"*)>, <2 x %"class.std::__1::basic_string"*>* bitcast (i8* getelementptr inbounds (%"class.metrics::SystemProfileProto_AntiVirusProductDefaultTypeInternal", %"class.metrics::SystemProfileProto_AntiVirusProductDefaultTypeInternal"* @_ZN7metrics54_SystemProfileProto_AntiVirusProduct_default_instance_E, i64 0, i32 0, i32 0, i32 1, i64 16) to <2 x %"class.std::__1::basic_string"*>*), align 8
  tail call void @llvm.memset.p0i8.i64(i8* align 8 getelementptr inbounds (%"class.metrics::SystemProfileProto_AntiVirusProductDefaultTypeInternal", %"class.metrics::SystemProfileProto_AntiVirusProductDefaultTypeInternal"* @_ZN7metrics54_SystemProfileProto_AntiVirusProduct_default_instance_E, i64 0, i32 0, i32 0, i32 1, i64 32), i8 0, i64 12, i1 false) #15
  tail call void @_ZN6google8protobuf8internal13OnShutdownRunEPFvPKvES3_(void (i8*)* nonnull @_ZN6google8protobuf8internal14DestroyMessageEPKv, i8* bitcast (%"class.metrics::SystemProfileProto_AntiVirusProductDefaultTypeInternal"* @_ZN7metrics54_SystemProfileProto_AntiVirusProduct_default_instance_E to i8*)) #15
  ret void
}

; Function Attrs: nounwind ssp uwtable
define internal void @_ZL80InitDefaultsscc_info_SystemProfileProto_ChromeComponent_system_5fprofile_2eprotov() #0 {
  tail call void @_ZN6google8protobuf8internal13VerifyVersionEiiPKc(i32 3013000, i32 3013000, i8* getelementptr inbounds ([51 x i8], [51 x i8]* @.str, i64 0, i64 0)) #15
  store %"class.google::protobuf::Arena"* null, %"class.google::protobuf::Arena"** bitcast (i8* getelementptr inbounds (%"class.metrics::SystemProfileProto_ChromeComponentDefaultTypeInternal", %"class.metrics::SystemProfileProto_ChromeComponentDefaultTypeInternal"* @_ZN7metrics53_SystemProfileProto_ChromeComponent_default_instance_E, i64 0, i32 0, i32 0, i32 1, i64 0) to %"class.google::protobuf::Arena"**), align 8
  store i32 (...)** bitcast (i8** getelementptr inbounds ({ [16 x i8*] }, { [16 x i8*] }* @_ZTVN7metrics34SystemProfileProto_ChromeComponentE, i64 0, inrange i32 0, i64 2) to i32 (...)**), i32 (...)*** bitcast (%"class.metrics::SystemProfileProto_ChromeComponentDefaultTypeInternal"* @_ZN7metrics53_SystemProfileProto_ChromeComponent_default_instance_E to i32 (...)***), align 8
  store i32 0, i32* bitcast (i8* getelementptr inbounds (%"class.metrics::SystemProfileProto_ChromeComponentDefaultTypeInternal", %"class.metrics::SystemProfileProto_ChromeComponentDefaultTypeInternal"* @_ZN7metrics53_SystemProfileProto_ChromeComponent_default_instance_E, i64 0, i32 0, i32 0, i32 1, i64 8) to i32*), align 8
  store i32 0, i32* bitcast (i8* getelementptr inbounds (%"class.metrics::SystemProfileProto_ChromeComponentDefaultTypeInternal", %"class.metrics::SystemProfileProto_ChromeComponentDefaultTypeInternal"* @_ZN7metrics53_SystemProfileProto_ChromeComponent_default_instance_E, i64 0, i32 0, i32 0, i32 1, i64 12) to i32*), align 4
  %1 = load atomic i32, i32* getelementptr inbounds ({ { { { i32 } }, i32, i32, void ()* }, [0 x i8*] }, { { { { i32 } }, i32, i32, void ()* }, [0 x i8*] }* @scc_info_SystemProfileProto_ChromeComponent_system_5fprofile_2eproto, i64 0, i32 0, i32 0, i32 0, i32 0) acquire, align 8
  %2 = icmp eq i32 %1, 0
  br i1 %2, label %4, label %3, !prof !2

3:                                                ; preds = %0
  tail call void @_ZN6google8protobuf8internal11InitSCCImplEPNS1_11SCCInfoBaseE(%"struct.google::protobuf::internal::SCCInfoBase"* bitcast ({ { { { i32 } }, i32, i32, void ()* }, [0 x i8*] }* @scc_info_SystemProfileProto_ChromeComponent_system_5fprofile_2eproto to %"struct.google::protobuf::internal::SCCInfoBase"*)) #15
  br label %4

4:                                                ; preds = %0, %3
  store %"class.std::__1::basic_string"* bitcast (%"class.google::protobuf::internal::ExplicitlyConstructed.27"* @_ZN6google8protobuf8internal26fixed_address_empty_stringE to %"class.std::__1::basic_string"*), %"class.std::__1::basic_string"** bitcast (i8* getelementptr inbounds (%"class.metrics::SystemProfileProto_ChromeComponentDefaultTypeInternal", %"class.metrics::SystemProfileProto_ChromeComponentDefaultTypeInternal"* @_ZN7metrics53_SystemProfileProto_ChromeComponent_default_instance_E, i64 0, i32 0, i32 0, i32 1, i64 16) to %"class.std::__1::basic_string"**), align 8
  store i32 0, i32* bitcast (i8* getelementptr inbounds (%"class.metrics::SystemProfileProto_ChromeComponentDefaultTypeInternal", %"class.metrics::SystemProfileProto_ChromeComponentDefaultTypeInternal"* @_ZN7metrics53_SystemProfileProto_ChromeComponent_default_instance_E, i64 0, i32 0, i32 0, i32 1, i64 24) to i32*), align 8
  store i32 1, i32* bitcast (i8* getelementptr inbounds (%"class.metrics::SystemProfileProto_ChromeComponentDefaultTypeInternal", %"class.metrics::SystemProfileProto_ChromeComponentDefaultTypeInternal"* @_ZN7metrics53_SystemProfileProto_ChromeComponent_default_instance_E, i64 0, i32 0, i32 0, i32 1, i64 28) to i32*), align 4
  tail call void @_ZN6google8protobuf8internal13OnShutdownRunEPFvPKvES3_(void (i8*)* nonnull @_ZN6google8protobuf8internal14DestroyMessageEPKv, i8* bitcast (%"class.metrics::SystemProfileProto_ChromeComponentDefaultTypeInternal"* @_ZN7metrics53_SystemProfileProto_ChromeComponent_default_instance_E to i8*)) #15
  ret void
}

; Function Attrs: nounwind ssp uwtable
define internal void @_ZL84InitDefaultsscc_info_SystemProfileProto_ExternalAccessPoint_system_5fprofile_2eprotov() #0 {
  tail call void @_ZN6google8protobuf8internal13VerifyVersionEiiPKc(i32 3013000, i32 3013000, i8* getelementptr inbounds ([51 x i8], [51 x i8]* @.str, i64 0, i64 0)) #15
  store %"class.google::protobuf::Arena"* null, %"class.google::protobuf::Arena"** bitcast (i8* getelementptr inbounds (%"class.metrics::SystemProfileProto_ExternalAccessPointDefaultTypeInternal", %"class.metrics::SystemProfileProto_ExternalAccessPointDefaultTypeInternal"* @_ZN7metrics57_SystemProfileProto_ExternalAccessPoint_default_instance_E, i64 0, i32 0, i32 0, i32 1, i64 0) to %"class.google::protobuf::Arena"**), align 8
  store i32 (...)** bitcast (i8** getelementptr inbounds ({ [16 x i8*] }, { [16 x i8*] }* @_ZTVN7metrics38SystemProfileProto_ExternalAccessPointE, i64 0, inrange i32 0, i64 2) to i32 (...)**), i32 (...)*** bitcast (%"class.metrics::SystemProfileProto_ExternalAccessPointDefaultTypeInternal"* @_ZN7metrics57_SystemProfileProto_ExternalAccessPoint_default_instance_E to i32 (...)***), align 8
  store i32 0, i32* bitcast (i8* getelementptr inbounds (%"class.metrics::SystemProfileProto_ExternalAccessPointDefaultTypeInternal", %"class.metrics::SystemProfileProto_ExternalAccessPointDefaultTypeInternal"* @_ZN7metrics57_SystemProfileProto_ExternalAccessPoint_default_instance_E, i64 0, i32 0, i32 0, i32 1, i64 8) to i32*), align 8
  store i32 0, i32* bitcast (i8* getelementptr inbounds (%"class.metrics::SystemProfileProto_ExternalAccessPointDefaultTypeInternal", %"class.metrics::SystemProfileProto_ExternalAccessPointDefaultTypeInternal"* @_ZN7metrics57_SystemProfileProto_ExternalAccessPoint_default_instance_E, i64 0, i32 0, i32 0, i32 1, i64 12) to i32*), align 4
  %1 = load atomic i32, i32* getelementptr inbounds ({ { { { i32 } }, i32, i32, void ()* }, [0 x i8*] }, { { { { i32 } }, i32, i32, void ()* }, [0 x i8*] }* @scc_info_SystemProfileProto_ExternalAccessPoint_system_5fprofile_2eproto, i64 0, i32 0, i32 0, i32 0, i32 0) acquire, align 8
  %2 = icmp eq i32 %1, 0
  br i1 %2, label %4, label %3, !prof !2

3:                                                ; preds = %0
  tail call void @_ZN6google8protobuf8internal11InitSCCImplEPNS1_11SCCInfoBaseE(%"struct.google::protobuf::internal::SCCInfoBase"* bitcast ({ { { { i32 } }, i32, i32, void ()* }, [0 x i8*] }* @scc_info_SystemProfileProto_ExternalAccessPoint_system_5fprofile_2eproto to %"struct.google::protobuf::internal::SCCInfoBase"*)) #15
  br label %4

4:                                                ; preds = %0, %3
  store <2 x %"class.std::__1::basic_string"*> <%"class.std::__1::basic_string"* bitcast (%"class.google::protobuf::internal::ExplicitlyConstructed.27"* @_ZN6google8protobuf8internal26fixed_address_empty_stringE to %"class.std::__1::basic_string"*), %"class.std::__1::basic_string"* bitcast (%"class.google::protobuf::internal::ExplicitlyConstructed.27"* @_ZN6google8protobuf8internal26fixed_address_empty_stringE to %"class.std::__1::basic_string"*)>, <2 x %"class.std::__1::basic_string"*>* bitcast (i8* getelementptr inbounds (%"class.metrics::SystemProfileProto_ExternalAccessPointDefaultTypeInternal", %"class.metrics::SystemProfileProto_ExternalAccessPointDefaultTypeInternal"* @_ZN7metrics57_SystemProfileProto_ExternalAccessPoint_default_instance_E, i64 0, i32 0, i32 0, i32 1, i64 16) to <2 x %"class.std::__1::basic_string"*>*), align 8
  store <2 x %"class.std::__1::basic_string"*> <%"class.std::__1::basic_string"* bitcast (%"class.google::protobuf::internal::ExplicitlyConstructed.27"* @_ZN6google8protobuf8internal26fixed_address_empty_stringE to %"class.std::__1::basic_string"*), %"class.std::__1::basic_string"* bitcast (%"class.google::protobuf::internal::ExplicitlyConstructed.27"* @_ZN6google8protobuf8internal26fixed_address_empty_stringE to %"class.std::__1::basic_string"*)>, <2 x %"class.std::__1::basic_string"*>* bitcast (i8* getelementptr inbounds (%"class.metrics::SystemProfileProto_ExternalAccessPointDefaultTypeInternal", %"class.metrics::SystemProfileProto_ExternalAccessPointDefaultTypeInternal"* @_ZN7metrics57_SystemProfileProto_ExternalAccessPoint_default_instance_E, i64 0, i32 0, i32 0, i32 1, i64 32) to <2 x %"class.std::__1::basic_string"*>*), align 8
  tail call void @_ZN6google8protobuf8internal13OnShutdownRunEPFvPKvES3_(void (i8*)* nonnull @_ZN6google8protobuf8internal14DestroyMessageEPKv, i8* bitcast (%"class.metrics::SystemProfileProto_ExternalAccessPointDefaultTypeInternal"* @_ZN7metrics57_SystemProfileProto_ExternalAccessPoint_default_instance_E to i8*)) #15
  ret void
}

; Function Attrs: nounwind ssp uwtable
define internal void @_ZL89InitDefaultsscc_info_SystemProfileProto_ExternalAudioVideoDevice_system_5fprofile_2eprotov() #0 {
  tail call void @_ZN6google8protobuf8internal13VerifyVersionEiiPKc(i32 3013000, i32 3013000, i8* getelementptr inbounds ([51 x i8], [51 x i8]* @.str, i64 0, i64 0)) #15
  store %"class.google::protobuf::Arena"* null, %"class.google::protobuf::Arena"** bitcast (i8* getelementptr inbounds (%"class.metrics::SystemProfileProto_ExternalAudioVideoDeviceDefaultTypeInternal", %"class.metrics::SystemProfileProto_ExternalAudioVideoDeviceDefaultTypeInternal"* @_ZN7metrics62_SystemProfileProto_ExternalAudioVideoDevice_default_instance_E, i64 0, i32 0, i32 0, i32 1, i64 0) to %"class.google::protobuf::Arena"**), align 8
  store i32 (...)** bitcast (i8** getelementptr inbounds ({ [16 x i8*] }, { [16 x i8*] }* @_ZTVN7metrics43SystemProfileProto_ExternalAudioVideoDeviceE, i64 0, inrange i32 0, i64 2) to i32 (...)**), i32 (...)*** bitcast (%"class.metrics::SystemProfileProto_ExternalAudioVideoDeviceDefaultTypeInternal"* @_ZN7metrics62_SystemProfileProto_ExternalAudioVideoDevice_default_instance_E to i32 (...)***), align 8
  tail call void @llvm.memset.p0i8.i64(i8* align 8 getelementptr inbounds (%"class.metrics::SystemProfileProto_ExternalAudioVideoDeviceDefaultTypeInternal", %"class.metrics::SystemProfileProto_ExternalAudioVideoDeviceDefaultTypeInternal"* @_ZN7metrics62_SystemProfileProto_ExternalAudioVideoDevice_default_instance_E, i64 0, i32 0, i32 0, i32 1, i64 8), i8 0, i64 72, i1 false) #15
  %1 = load atomic i32, i32* getelementptr inbounds ({ { { { i32 } }, i32, i32, void ()* }, [2 x i8*] }, { { { { i32 } }, i32, i32, void ()* }, [2 x i8*] }* @scc_info_SystemProfileProto_ExternalAudioVideoDevice_system_5fprofile_2eproto, i64 0, i32 0, i32 0, i32 0, i32 0) acquire, align 8
  %2 = icmp eq i32 %1, 0
  br i1 %2, label %4, label %3, !prof !2

3:                                                ; preds = %0
  tail call void @_ZN6google8protobuf8internal11InitSCCImplEPNS1_11SCCInfoBaseE(%"struct.google::protobuf::internal::SCCInfoBase"* bitcast ({ { { { i32 } }, i32, i32, void ()* }, [2 x i8*] }* @scc_info_SystemProfileProto_ExternalAudioVideoDevice_system_5fprofile_2eproto to %"struct.google::protobuf::internal::SCCInfoBase"*)) #15
  br label %4

4:                                                ; preds = %0, %3
  store <2 x %"class.std::__1::basic_string"*> <%"class.std::__1::basic_string"* bitcast (%"class.google::protobuf::internal::ExplicitlyConstructed.27"* @_ZN6google8protobuf8internal26fixed_address_empty_stringE to %"class.std::__1::basic_string"*), %"class.std::__1::basic_string"* bitcast (%"class.google::protobuf::internal::ExplicitlyConstructed.27"* @_ZN6google8protobuf8internal26fixed_address_empty_stringE to %"class.std::__1::basic_string"*)>, <2 x %"class.std::__1::basic_string"*>* bitcast (i8* getelementptr inbounds (%"class.metrics::SystemProfileProto_ExternalAudioVideoDeviceDefaultTypeInternal", %"class.metrics::SystemProfileProto_ExternalAudioVideoDeviceDefaultTypeInternal"* @_ZN7metrics62_SystemProfileProto_ExternalAudioVideoDevice_default_instance_E, i64 0, i32 0, i32 0, i32 1, i64 80) to <2 x %"class.std::__1::basic_string"*>*), align 8
  store %"class.std::__1::basic_string"* bitcast (%"class.google::protobuf::internal::ExplicitlyConstructed.27"* @_ZN6google8protobuf8internal26fixed_address_empty_stringE to %"class.std::__1::basic_string"*), %"class.std::__1::basic_string"** bitcast (i8* getelementptr inbounds (%"class.metrics::SystemProfileProto_ExternalAudioVideoDeviceDefaultTypeInternal", %"class.metrics::SystemProfileProto_ExternalAudioVideoDeviceDefaultTypeInternal"* @_ZN7metrics62_SystemProfileProto_ExternalAudioVideoDevice_default_instance_E, i64 0, i32 0, i32 0, i32 1, i64 96) to %"class.std::__1::basic_string"**), align 8
  tail call void @llvm.memset.p0i8.i64(i8* align 8 getelementptr inbounds (%"class.metrics::SystemProfileProto_ExternalAudioVideoDeviceDefaultTypeInternal", %"class.metrics::SystemProfileProto_ExternalAudioVideoDeviceDefaultTypeInternal"* @_ZN7metrics62_SystemProfileProto_ExternalAudioVideoDevice_default_instance_E, i64 0, i32 0, i32 0, i32 1, i64 104), i8 0, i64 60, i1 false) #15
  tail call void @_ZN6google8protobuf8internal13OnShutdownRunEPFvPKvES3_(void (i8*)* nonnull @_ZN6google8protobuf8internal14DestroyMessageEPKv, i8* bitcast (%"class.metrics::SystemProfileProto_ExternalAudioVideoDeviceDefaultTypeInternal"* @_ZN7metrics62_SystemProfileProto_ExternalAudioVideoDevice_default_instance_E to i8*)) #15
  ret void
}

; Function Attrs: nounwind ssp uwtable
define internal void @_ZL106InitDefaultsscc_info_SystemProfileProto_ExternalAudioVideoDevice_AudioDescription_system_5fprofile_2eprotov() #0 {
  tail call void @_ZN6google8protobuf8internal13VerifyVersionEiiPKc(i32 3013000, i32 3013000, i8* getelementptr inbounds ([51 x i8], [51 x i8]* @.str, i64 0, i64 0)) #15
  store %"class.google::protobuf::Arena"* null, %"class.google::protobuf::Arena"** bitcast (i8* getelementptr inbounds (%"class.metrics::SystemProfileProto_ExternalAudioVideoDevice_AudioDescriptionDefaultTypeInternal", %"class.metrics::SystemProfileProto_ExternalAudioVideoDevice_AudioDescriptionDefaultTypeInternal"* @_ZN7metrics79_SystemProfileProto_ExternalAudioVideoDevice_AudioDescription_default_instance_E, i64 0, i32 0, i32 0, i32 1, i64 0) to %"class.google::protobuf::Arena"**), align 8
  store i32 (...)** bitcast (i8** getelementptr inbounds ({ [16 x i8*] }, { [16 x i8*] }* @_ZTVN7metrics60SystemProfileProto_ExternalAudioVideoDevice_AudioDescriptionE, i64 0, inrange i32 0, i64 2) to i32 (...)**), i32 (...)*** bitcast (%"class.metrics::SystemProfileProto_ExternalAudioVideoDevice_AudioDescriptionDefaultTypeInternal"* @_ZN7metrics79_SystemProfileProto_ExternalAudioVideoDevice_AudioDescription_default_instance_E to i32 (...)***), align 8
  tail call void @llvm.memset.p0i8.i64(i8* align 8 getelementptr inbounds (%"class.metrics::SystemProfileProto_ExternalAudioVideoDevice_AudioDescriptionDefaultTypeInternal", %"class.metrics::SystemProfileProto_ExternalAudioVideoDevice_AudioDescriptionDefaultTypeInternal"* @_ZN7metrics79_SystemProfileProto_ExternalAudioVideoDevice_AudioDescription_default_instance_E, i64 0, i32 0, i32 0, i32 1, i64 8), i8 0, i64 44, i1 false) #15
  tail call void @_ZN6google8protobuf8internal13OnShutdownRunEPFvPKvES3_(void (i8*)* nonnull @_ZN6google8protobuf8internal14DestroyMessageEPKv, i8* bitcast (%"class.metrics::SystemProfileProto_ExternalAudioVideoDevice_AudioDescriptionDefaultTypeInternal"* @_ZN7metrics79_SystemProfileProto_ExternalAudioVideoDevice_AudioDescription_default_instance_E to i8*)) #15
  ret void
}

; Function Attrs: nounwind ssp uwtable
define internal void @_ZL100InitDefaultsscc_info_SystemProfileProto_ExternalAudioVideoDevice_CECCommand_system_5fprofile_2eprotov() #0 {
  tail call void @_ZN6google8protobuf8internal13VerifyVersionEiiPKc(i32 3013000, i32 3013000, i8* getelementptr inbounds ([51 x i8], [51 x i8]* @.str, i64 0, i64 0)) #15
  store %"class.google::protobuf::Arena"* null, %"class.google::protobuf::Arena"** bitcast (i8* getelementptr inbounds (%"class.metrics::SystemProfileProto_ExternalAudioVideoDevice_CECCommandDefaultTypeInternal", %"class.metrics::SystemProfileProto_ExternalAudioVideoDevice_CECCommandDefaultTypeInternal"* @_ZN7metrics73_SystemProfileProto_ExternalAudioVideoDevice_CECCommand_default_instance_E, i64 0, i32 0, i32 0, i32 1, i64 0) to %"class.google::protobuf::Arena"**), align 8
  store i32 (...)** bitcast (i8** getelementptr inbounds ({ [16 x i8*] }, { [16 x i8*] }* @_ZTVN7metrics54SystemProfileProto_ExternalAudioVideoDevice_CECCommandE, i64 0, inrange i32 0, i64 2) to i32 (...)**), i32 (...)*** bitcast (%"class.metrics::SystemProfileProto_ExternalAudioVideoDevice_CECCommandDefaultTypeInternal"* @_ZN7metrics73_SystemProfileProto_ExternalAudioVideoDevice_CECCommand_default_instance_E to i32 (...)***), align 8
  tail call void @llvm.memset.p0i8.i64(i8* align 8 getelementptr inbounds (%"class.metrics::SystemProfileProto_ExternalAudioVideoDevice_CECCommandDefaultTypeInternal", %"class.metrics::SystemProfileProto_ExternalAudioVideoDevice_CECCommandDefaultTypeInternal"* @_ZN7metrics73_SystemProfileProto_ExternalAudioVideoDevice_CECCommand_default_instance_E, i64 0, i32 0, i32 0, i32 1, i64 8), i8 0, i64 36, i1 false) #15
  tail call void @_ZN6google8protobuf8internal13OnShutdownRunEPFvPKvES3_(void (i8*)* nonnull @_ZN6google8protobuf8internal14DestroyMessageEPKv, i8* bitcast (%"class.metrics::SystemProfileProto_ExternalAudioVideoDevice_CECCommandDefaultTypeInternal"* @_ZN7metrics73_SystemProfileProto_ExternalAudioVideoDevice_CECCommand_default_instance_E to i8*)) #15
  ret void
}

; Function Attrs: nounwind ssp uwtable
define internal void @_ZL75InitDefaultsscc_info_SystemProfileProto_FieldTrial_system_5fprofile_2eprotov() #0 {
  tail call void @_ZN6google8protobuf8internal13VerifyVersionEiiPKc(i32 3013000, i32 3013000, i8* getelementptr inbounds ([51 x i8], [51 x i8]* @.str, i64 0, i64 0)) #15
  store %"class.google::protobuf::Arena"* null, %"class.google::protobuf::Arena"** bitcast (i8* getelementptr inbounds (%"class.metrics::SystemProfileProto_FieldTrialDefaultTypeInternal", %"class.metrics::SystemProfileProto_FieldTrialDefaultTypeInternal"* @_ZN7metrics48_SystemProfileProto_FieldTrial_default_instance_E, i64 0, i32 0, i32 0, i32 1, i64 0) to %"class.google::protobuf::Arena"**), align 8
  store i32 (...)** bitcast (i8** getelementptr inbounds ({ [16 x i8*] }, { [16 x i8*] }* @_ZTVN7metrics29SystemProfileProto_FieldTrialE, i64 0, inrange i32 0, i64 2) to i32 (...)**), i32 (...)*** bitcast (%"class.metrics::SystemProfileProto_FieldTrialDefaultTypeInternal"* @_ZN7metrics48_SystemProfileProto_FieldTrial_default_instance_E to i32 (...)***), align 8
  tail call void @llvm.memset.p0i8.i64(i8* align 8 getelementptr inbounds (%"class.metrics::SystemProfileProto_FieldTrialDefaultTypeInternal", %"class.metrics::SystemProfileProto_FieldTrialDefaultTypeInternal"* @_ZN7metrics48_SystemProfileProto_FieldTrial_default_instance_E, i64 0, i32 0, i32 0, i32 1, i64 8), i8 0, i64 16, i1 false) #15
  tail call void @_ZN6google8protobuf8internal13OnShutdownRunEPFvPKvES3_(void (i8*)* nonnull @_ZN6google8protobuf8internal14DestroyMessageEPKv, i8* bitcast (%"class.metrics::SystemProfileProto_FieldTrialDefaultTypeInternal"* @_ZN7metrics48_SystemProfileProto_FieldTrial_default_instance_E to i8*)) #15
  ret void
}

; Function Attrs: nounwind ssp uwtable
define internal void @_ZL77InitDefaultsscc_info_SystemProfileProto_GoogleUpdate_system_5fprofile_2eprotov() #0 {
  tail call void @_ZN6google8protobuf8internal13VerifyVersionEiiPKc(i32 3013000, i32 3013000, i8* getelementptr inbounds ([51 x i8], [51 x i8]* @.str, i64 0, i64 0)) #15
  store %"class.google::protobuf::Arena"* null, %"class.google::protobuf::Arena"** bitcast (i8* getelementptr inbounds (%"class.metrics::SystemProfileProto_GoogleUpdateDefaultTypeInternal", %"class.metrics::SystemProfileProto_GoogleUpdateDefaultTypeInternal"* @_ZN7metrics50_SystemProfileProto_GoogleUpdate_default_instance_E, i64 0, i32 0, i32 0, i32 1, i64 0) to %"class.google::protobuf::Arena"**), align 8
  store i32 (...)** bitcast (i8** getelementptr inbounds ({ [16 x i8*] }, { [16 x i8*] }* @_ZTVN7metrics31SystemProfileProto_GoogleUpdateE, i64 0, inrange i32 0, i64 2) to i32 (...)**), i32 (...)*** bitcast (%"class.metrics::SystemProfileProto_GoogleUpdateDefaultTypeInternal"* @_ZN7metrics50_SystemProfileProto_GoogleUpdate_default_instance_E to i32 (...)***), align 8
  store i32 0, i32* bitcast (i8* getelementptr inbounds (%"class.metrics::SystemProfileProto_GoogleUpdateDefaultTypeInternal", %"class.metrics::SystemProfileProto_GoogleUpdateDefaultTypeInternal"* @_ZN7metrics50_SystemProfileProto_GoogleUpdate_default_instance_E, i64 0, i32 0, i32 0, i32 1, i64 8) to i32*), align 8
  store i32 0, i32* bitcast (i8* getelementptr inbounds (%"class.metrics::SystemProfileProto_GoogleUpdateDefaultTypeInternal", %"class.metrics::SystemProfileProto_GoogleUpdateDefaultTypeInternal"* @_ZN7metrics50_SystemProfileProto_GoogleUpdate_default_instance_E, i64 0, i32 0, i32 0, i32 1, i64 12) to i32*), align 4
  %1 = load atomic i32, i32* getelementptr inbounds ({ { { { i32 } }, i32, i32, void ()* }, [1 x i8*] }, { { { { i32 } }, i32, i32, void ()* }, [1 x i8*] }* @scc_info_SystemProfileProto_GoogleUpdate_system_5fprofile_2eproto, i64 0, i32 0, i32 0, i32 0, i32 0) acquire, align 8
  %2 = icmp eq i32 %1, 0
  br i1 %2, label %4, label %3, !prof !2

3:                                                ; preds = %0
  tail call void @_ZN6google8protobuf8internal11InitSCCImplEPNS1_11SCCInfoBaseE(%"struct.google::protobuf::internal::SCCInfoBase"* bitcast ({ { { { i32 } }, i32, i32, void ()* }, [1 x i8*] }* @scc_info_SystemProfileProto_GoogleUpdate_system_5fprofile_2eproto to %"struct.google::protobuf::internal::SCCInfoBase"*)) #15
  br label %4

4:                                                ; preds = %0, %3
  tail call void @llvm.memset.p0i8.i64(i8* align 8 getelementptr inbounds (%"class.metrics::SystemProfileProto_GoogleUpdateDefaultTypeInternal", %"class.metrics::SystemProfileProto_GoogleUpdateDefaultTypeInternal"* @_ZN7metrics50_SystemProfileProto_GoogleUpdate_default_instance_E, i64 0, i32 0, i32 0, i32 1, i64 16), i8 0, i64 33, i1 false) #15
  tail call void @_ZN6google8protobuf8internal13OnShutdownRunEPFvPKvES3_(void (i8*)* nonnull @_ZN6google8protobuf8internal14DestroyMessageEPKv, i8* bitcast (%"class.metrics::SystemProfileProto_GoogleUpdateDefaultTypeInternal"* @_ZN7metrics50_SystemProfileProto_GoogleUpdate_default_instance_E to i8*)) #15
  ret void
}

; Function Attrs: nounwind ssp uwtable
define internal void @_ZL89InitDefaultsscc_info_SystemProfileProto_GoogleUpdate_ProductInfo_system_5fprofile_2eprotov() #0 {
  tail call void @_ZN6google8protobuf8internal13VerifyVersionEiiPKc(i32 3013000, i32 3013000, i8* getelementptr inbounds ([51 x i8], [51 x i8]* @.str, i64 0, i64 0)) #15
  store %"class.google::protobuf::Arena"* null, %"class.google::protobuf::Arena"** bitcast (i8* getelementptr inbounds (%"class.metrics::SystemProfileProto_GoogleUpdate_ProductInfoDefaultTypeInternal", %"class.metrics::SystemProfileProto_GoogleUpdate_ProductInfoDefaultTypeInternal"* @_ZN7metrics62_SystemProfileProto_GoogleUpdate_ProductInfo_default_instance_E, i64 0, i32 0, i32 0, i32 1, i64 0) to %"class.google::protobuf::Arena"**), align 8
  store i32 (...)** bitcast (i8** getelementptr inbounds ({ [16 x i8*] }, { [16 x i8*] }* @_ZTVN7metrics43SystemProfileProto_GoogleUpdate_ProductInfoE, i64 0, inrange i32 0, i64 2) to i32 (...)**), i32 (...)*** bitcast (%"class.metrics::SystemProfileProto_GoogleUpdate_ProductInfoDefaultTypeInternal"* @_ZN7metrics62_SystemProfileProto_GoogleUpdate_ProductInfo_default_instance_E to i32 (...)***), align 8
  store i32 0, i32* bitcast (i8* getelementptr inbounds (%"class.metrics::SystemProfileProto_GoogleUpdate_ProductInfoDefaultTypeInternal", %"class.metrics::SystemProfileProto_GoogleUpdate_ProductInfoDefaultTypeInternal"* @_ZN7metrics62_SystemProfileProto_GoogleUpdate_ProductInfo_default_instance_E, i64 0, i32 0, i32 0, i32 1, i64 8) to i32*), align 8
  store i32 0, i32* bitcast (i8* getelementptr inbounds (%"class.metrics::SystemProfileProto_GoogleUpdate_ProductInfoDefaultTypeInternal", %"class.metrics::SystemProfileProto_GoogleUpdate_ProductInfoDefaultTypeInternal"* @_ZN7metrics62_SystemProfileProto_GoogleUpdate_ProductInfo_default_instance_E, i64 0, i32 0, i32 0, i32 1, i64 12) to i32*), align 4
  %1 = load atomic i32, i32* getelementptr inbounds ({ { { { i32 } }, i32, i32, void ()* }, [0 x i8*] }, { { { { i32 } }, i32, i32, void ()* }, [0 x i8*] }* @scc_info_SystemProfileProto_GoogleUpdate_ProductInfo_system_5fprofile_2eproto, i64 0, i32 0, i32 0, i32 0, i32 0) acquire, align 8
  %2 = icmp eq i32 %1, 0
  br i1 %2, label %4, label %3, !prof !2

3:                                                ; preds = %0
  tail call void @_ZN6google8protobuf8internal11InitSCCImplEPNS1_11SCCInfoBaseE(%"struct.google::protobuf::internal::SCCInfoBase"* bitcast ({ { { { i32 } }, i32, i32, void ()* }, [0 x i8*] }* @scc_info_SystemProfileProto_GoogleUpdate_ProductInfo_system_5fprofile_2eproto to %"struct.google::protobuf::internal::SCCInfoBase"*)) #15
  br label %4

4:                                                ; preds = %0, %3
  store %"class.std::__1::basic_string"* bitcast (%"class.google::protobuf::internal::ExplicitlyConstructed.27"* @_ZN6google8protobuf8internal26fixed_address_empty_stringE to %"class.std::__1::basic_string"*), %"class.std::__1::basic_string"** bitcast (i8* getelementptr inbounds (%"class.metrics::SystemProfileProto_GoogleUpdate_ProductInfoDefaultTypeInternal", %"class.metrics::SystemProfileProto_GoogleUpdate_ProductInfoDefaultTypeInternal"* @_ZN7metrics62_SystemProfileProto_GoogleUpdate_ProductInfo_default_instance_E, i64 0, i32 0, i32 0, i32 1, i64 16) to %"class.std::__1::basic_string"**), align 8
  tail call void @llvm.memset.p0i8.i64(i8* align 8 getelementptr inbounds (%"class.metrics::SystemProfileProto_GoogleUpdate_ProductInfoDefaultTypeInternal", %"class.metrics::SystemProfileProto_GoogleUpdate_ProductInfoDefaultTypeInternal"* @_ZN7metrics62_SystemProfileProto_GoogleUpdate_ProductInfo_default_instance_E, i64 0, i32 0, i32 0, i32 1, i64 24), i8 0, i64 20, i1 false) #15
  tail call void @_ZN6google8protobuf8internal13OnShutdownRunEPFvPKvES3_(void (i8*)* nonnull @_ZN6google8protobuf8internal14DestroyMessageEPKv, i8* bitcast (%"class.metrics::SystemProfileProto_GoogleUpdate_ProductInfoDefaultTypeInternal"* @_ZN7metrics62_SystemProfileProto_GoogleUpdate_ProductInfo_default_instance_E to i8*)) #15
  ret void
}

; Function Attrs: nounwind ssp uwtable
define internal void @_ZL73InitDefaultsscc_info_SystemProfileProto_Hardware_system_5fprofile_2eprotov() #0 {
  tail call void @_ZN6google8protobuf8internal13VerifyVersionEiiPKc(i32 3013000, i32 3013000, i8* getelementptr inbounds ([51 x i8], [51 x i8]* @.str, i64 0, i64 0)) #15
  store %"class.google::protobuf::Arena"* null, %"class.google::protobuf::Arena"** bitcast (i8* getelementptr inbounds (%"class.metrics::SystemProfileProto_HardwareDefaultTypeInternal", %"class.metrics::SystemProfileProto_HardwareDefaultTypeInternal"* @_ZN7metrics46_SystemProfileProto_Hardware_default_instance_E, i64 0, i32 0, i32 0, i32 1, i64 0) to %"class.google::protobuf::Arena"**), align 8
  store i32 (...)** bitcast (i8** getelementptr inbounds ({ [16 x i8*] }, { [16 x i8*] }* @_ZTVN7metrics27SystemProfileProto_HardwareE, i64 0, inrange i32 0, i64 2) to i32 (...)**), i32 (...)*** bitcast (%"class.metrics::SystemProfileProto_HardwareDefaultTypeInternal"* @_ZN7metrics46_SystemProfileProto_Hardware_default_instance_E to i32 (...)***), align 8
  tail call void @llvm.memset.p0i8.i64(i8* align 8 getelementptr inbounds (%"class.metrics::SystemProfileProto_HardwareDefaultTypeInternal", %"class.metrics::SystemProfileProto_HardwareDefaultTypeInternal"* @_ZN7metrics46_SystemProfileProto_Hardware_default_instance_E, i64 0, i32 0, i32 0, i32 1, i64 8), i8 0, i64 32, i1 false) #15
  %1 = load atomic i32, i32* getelementptr inbounds ({ { { { i32 } }, i32, i32, void ()* }, [4 x i8*] }, { { { { i32 } }, i32, i32, void ()* }, [4 x i8*] }* @scc_info_SystemProfileProto_Hardware_system_5fprofile_2eproto, i64 0, i32 0, i32 0, i32 0, i32 0) acquire, align 8
  %2 = icmp eq i32 %1, 0
  br i1 %2, label %4, label %3, !prof !2

3:                                                ; preds = %0
  tail call void @_ZN6google8protobuf8internal11InitSCCImplEPNS1_11SCCInfoBaseE(%"struct.google::protobuf::internal::SCCInfoBase"* bitcast ({ { { { i32 } }, i32, i32, void ()* }, [4 x i8*] }* @scc_info_SystemProfileProto_Hardware_system_5fprofile_2eproto to %"struct.google::protobuf::internal::SCCInfoBase"*)) #15
  br label %4

4:                                                ; preds = %0, %3
  store <2 x %"class.std::__1::basic_string"*> <%"class.std::__1::basic_string"* bitcast (%"class.google::protobuf::internal::ExplicitlyConstructed.27"* @_ZN6google8protobuf8internal26fixed_address_empty_stringE to %"class.std::__1::basic_string"*), %"class.std::__1::basic_string"* bitcast (%"class.google::protobuf::internal::ExplicitlyConstructed.27"* @_ZN6google8protobuf8internal26fixed_address_empty_stringE to %"class.std::__1::basic_string"*)>, <2 x %"class.std::__1::basic_string"*>* bitcast (i8* getelementptr inbounds (%"class.metrics::SystemProfileProto_HardwareDefaultTypeInternal", %"class.metrics::SystemProfileProto_HardwareDefaultTypeInternal"* @_ZN7metrics46_SystemProfileProto_Hardware_default_instance_E, i64 0, i32 0, i32 0, i32 1, i64 40) to <2 x %"class.std::__1::basic_string"*>*), align 8
  store <2 x %"class.std::__1::basic_string"*> <%"class.std::__1::basic_string"* bitcast (%"class.google::protobuf::internal::ExplicitlyConstructed.27"* @_ZN6google8protobuf8internal26fixed_address_empty_stringE to %"class.std::__1::basic_string"*), %"class.std::__1::basic_string"* bitcast (%"class.google::protobuf::internal::ExplicitlyConstructed.27"* @_ZN6google8protobuf8internal26fixed_address_empty_stringE to %"class.std::__1::basic_string"*)>, <2 x %"class.std::__1::basic_string"*>* bitcast (i8* getelementptr inbounds (%"class.metrics::SystemProfileProto_HardwareDefaultTypeInternal", %"class.metrics::SystemProfileProto_HardwareDefaultTypeInternal"* @_ZN7metrics46_SystemProfileProto_Hardware_default_instance_E, i64 0, i32 0, i32 0, i32 1, i64 56) to <2 x %"class.std::__1::basic_string"*>*), align 8
  tail call void @llvm.memset.p0i8.i64(i8* align 8 getelementptr inbounds (%"class.metrics::SystemProfileProto_HardwareDefaultTypeInternal", %"class.metrics::SystemProfileProto_HardwareDefaultTypeInternal"* @_ZN7metrics46_SystemProfileProto_Hardware_default_instance_E, i64 0, i32 0, i32 0, i32 1, i64 72), i8 0, i64 73, i1 false) #15
  tail call void @_ZN6google8protobuf8internal13OnShutdownRunEPFvPKvES3_(void (i8*)* nonnull @_ZN6google8protobuf8internal14DestroyMessageEPKv, i8* bitcast (%"class.metrics::SystemProfileProto_HardwareDefaultTypeInternal"* @_ZN7metrics46_SystemProfileProto_Hardware_default_instance_E to i8*)) #15
  ret void
}

; Function Attrs: nounwind ssp uwtable
define internal void @_ZL77InitDefaultsscc_info_SystemProfileProto_Hardware_CPU_system_5fprofile_2eprotov() #0 {
  tail call void @_ZN6google8protobuf8internal13VerifyVersionEiiPKc(i32 3013000, i32 3013000, i8* getelementptr inbounds ([51 x i8], [51 x i8]* @.str, i64 0, i64 0)) #15
  store %"class.google::protobuf::Arena"* null, %"class.google::protobuf::Arena"** bitcast (i8* getelementptr inbounds (%"class.metrics::SystemProfileProto_Hardware_CPUDefaultTypeInternal", %"class.metrics::SystemProfileProto_Hardware_CPUDefaultTypeInternal"* @_ZN7metrics50_SystemProfileProto_Hardware_CPU_default_instance_E, i64 0, i32 0, i32 0, i32 1, i64 0) to %"class.google::protobuf::Arena"**), align 8
  store i32 (...)** bitcast (i8** getelementptr inbounds ({ [16 x i8*] }, { [16 x i8*] }* @_ZTVN7metrics31SystemProfileProto_Hardware_CPUE, i64 0, inrange i32 0, i64 2) to i32 (...)**), i32 (...)*** bitcast (%"class.metrics::SystemProfileProto_Hardware_CPUDefaultTypeInternal"* @_ZN7metrics50_SystemProfileProto_Hardware_CPU_default_instance_E to i32 (...)***), align 8
  store i32 0, i32* bitcast (i8* getelementptr inbounds (%"class.metrics::SystemProfileProto_Hardware_CPUDefaultTypeInternal", %"class.metrics::SystemProfileProto_Hardware_CPUDefaultTypeInternal"* @_ZN7metrics50_SystemProfileProto_Hardware_CPU_default_instance_E, i64 0, i32 0, i32 0, i32 1, i64 8) to i32*), align 8
  store i32 0, i32* bitcast (i8* getelementptr inbounds (%"class.metrics::SystemProfileProto_Hardware_CPUDefaultTypeInternal", %"class.metrics::SystemProfileProto_Hardware_CPUDefaultTypeInternal"* @_ZN7metrics50_SystemProfileProto_Hardware_CPU_default_instance_E, i64 0, i32 0, i32 0, i32 1, i64 12) to i32*), align 4
  %1 = load atomic i32, i32* getelementptr inbounds ({ { { { i32 } }, i32, i32, void ()* }, [0 x i8*] }, { { { { i32 } }, i32, i32, void ()* }, [0 x i8*] }* @scc_info_SystemProfileProto_Hardware_CPU_system_5fprofile_2eproto, i64 0, i32 0, i32 0, i32 0, i32 0) acquire, align 8
  %2 = icmp eq i32 %1, 0
  br i1 %2, label %4, label %3, !prof !2

3:                                                ; preds = %0
  tail call void @_ZN6google8protobuf8internal11InitSCCImplEPNS1_11SCCInfoBaseE(%"struct.google::protobuf::internal::SCCInfoBase"* bitcast ({ { { { i32 } }, i32, i32, void ()* }, [0 x i8*] }* @scc_info_SystemProfileProto_Hardware_CPU_system_5fprofile_2eproto to %"struct.google::protobuf::internal::SCCInfoBase"*)) #15
  br label %4

4:                                                ; preds = %0, %3
  store %"class.std::__1::basic_string"* bitcast (%"class.google::protobuf::internal::ExplicitlyConstructed.27"* @_ZN6google8protobuf8internal26fixed_address_empty_stringE to %"class.std::__1::basic_string"*), %"class.std::__1::basic_string"** bitcast (i8* getelementptr inbounds (%"class.metrics::SystemProfileProto_Hardware_CPUDefaultTypeInternal", %"class.metrics::SystemProfileProto_Hardware_CPUDefaultTypeInternal"* @_ZN7metrics50_SystemProfileProto_Hardware_CPU_default_instance_E, i64 0, i32 0, i32 0, i32 1, i64 16) to %"class.std::__1::basic_string"**), align 8
  tail call void @llvm.memset.p0i8.i64(i8* align 8 getelementptr inbounds (%"class.metrics::SystemProfileProto_Hardware_CPUDefaultTypeInternal", %"class.metrics::SystemProfileProto_Hardware_CPUDefaultTypeInternal"* @_ZN7metrics50_SystemProfileProto_Hardware_CPU_default_instance_E, i64 0, i32 0, i32 0, i32 1, i64 24), i8 0, i64 9, i1 false) #15
  tail call void @_ZN6google8protobuf8internal13OnShutdownRunEPFvPKvES3_(void (i8*)* nonnull @_ZN6google8protobuf8internal14DestroyMessageEPKv, i8* bitcast (%"class.metrics::SystemProfileProto_Hardware_CPUDefaultTypeInternal"* @_ZN7metrics50_SystemProfileProto_Hardware_CPU_default_instance_E to i8*)) #15
  ret void
}

; Function Attrs: nounwind ssp uwtable
define internal void @_ZL79InitDefaultsscc_info_SystemProfileProto_Hardware_Drive_system_5fprofile_2eprotov() #0 {
  tail call void @_ZN6google8protobuf8internal13VerifyVersionEiiPKc(i32 3013000, i32 3013000, i8* getelementptr inbounds ([51 x i8], [51 x i8]* @.str, i64 0, i64 0)) #15
  store %"class.google::protobuf::Arena"* null, %"class.google::protobuf::Arena"** bitcast (i8* getelementptr inbounds (%"class.metrics::SystemProfileProto_Hardware_DriveDefaultTypeInternal", %"class.metrics::SystemProfileProto_Hardware_DriveDefaultTypeInternal"* @_ZN7metrics52_SystemProfileProto_Hardware_Drive_default_instance_E, i64 0, i32 0, i32 0, i32 1, i64 0) to %"class.google::protobuf::Arena"**), align 8
  store i32 (...)** bitcast (i8** getelementptr inbounds ({ [16 x i8*] }, { [16 x i8*] }* @_ZTVN7metrics33SystemProfileProto_Hardware_DriveE, i64 0, inrange i32 0, i64 2) to i32 (...)**), i32 (...)*** bitcast (%"class.metrics::SystemProfileProto_Hardware_DriveDefaultTypeInternal"* @_ZN7metrics52_SystemProfileProto_Hardware_Drive_default_instance_E to i32 (...)***), align 8
  tail call void @llvm.memset.p0i8.i64(i8* align 8 getelementptr inbounds (%"class.metrics::SystemProfileProto_Hardware_DriveDefaultTypeInternal", %"class.metrics::SystemProfileProto_Hardware_DriveDefaultTypeInternal"* @_ZN7metrics52_SystemProfileProto_Hardware_Drive_default_instance_E, i64 0, i32 0, i32 0, i32 1, i64 8), i8 0, i64 9, i1 false) #15
  tail call void @_ZN6google8protobuf8internal13OnShutdownRunEPFvPKvES3_(void (i8*)* nonnull @_ZN6google8protobuf8internal14DestroyMessageEPKv, i8* bitcast (%"class.metrics::SystemProfileProto_Hardware_DriveDefaultTypeInternal"* @_ZN7metrics52_SystemProfileProto_Hardware_Drive_default_instance_E to i8*)) #15
  ret void
}

; Function Attrs: nounwind ssp uwtable
define internal void @_ZL82InitDefaultsscc_info_SystemProfileProto_Hardware_Graphics_system_5fprofile_2eprotov() #0 {
  tail call void @_ZN6google8protobuf8internal13VerifyVersionEiiPKc(i32 3013000, i32 3013000, i8* getelementptr inbounds ([51 x i8], [51 x i8]* @.str, i64 0, i64 0)) #15
  store %"class.google::protobuf::Arena"* null, %"class.google::protobuf::Arena"** bitcast (i8* getelementptr inbounds (%"class.metrics::SystemProfileProto_Hardware_GraphicsDefaultTypeInternal", %"class.metrics::SystemProfileProto_Hardware_GraphicsDefaultTypeInternal"* @_ZN7metrics55_SystemProfileProto_Hardware_Graphics_default_instance_E, i64 0, i32 0, i32 0, i32 1, i64 0) to %"class.google::protobuf::Arena"**), align 8
  store i32 (...)** bitcast (i8** getelementptr inbounds ({ [16 x i8*] }, { [16 x i8*] }* @_ZTVN7metrics36SystemProfileProto_Hardware_GraphicsE, i64 0, inrange i32 0, i64 2) to i32 (...)**), i32 (...)*** bitcast (%"class.metrics::SystemProfileProto_Hardware_GraphicsDefaultTypeInternal"* @_ZN7metrics55_SystemProfileProto_Hardware_Graphics_default_instance_E to i32 (...)***), align 8
  store i32 0, i32* bitcast (i8* getelementptr inbounds (%"class.metrics::SystemProfileProto_Hardware_GraphicsDefaultTypeInternal", %"class.metrics::SystemProfileProto_Hardware_GraphicsDefaultTypeInternal"* @_ZN7metrics55_SystemProfileProto_Hardware_Graphics_default_instance_E, i64 0, i32 0, i32 0, i32 1, i64 8) to i32*), align 8
  store i32 0, i32* bitcast (i8* getelementptr inbounds (%"class.metrics::SystemProfileProto_Hardware_GraphicsDefaultTypeInternal", %"class.metrics::SystemProfileProto_Hardware_GraphicsDefaultTypeInternal"* @_ZN7metrics55_SystemProfileProto_Hardware_Graphics_default_instance_E, i64 0, i32 0, i32 0, i32 1, i64 12) to i32*), align 4
  %1 = load atomic i32, i32* getelementptr inbounds ({ { { { i32 } }, i32, i32, void ()* }, [0 x i8*] }, { { { { i32 } }, i32, i32, void ()* }, [0 x i8*] }* @scc_info_SystemProfileProto_Hardware_Graphics_system_5fprofile_2eproto, i64 0, i32 0, i32 0, i32 0, i32 0) acquire, align 8
  %2 = icmp eq i32 %1, 0
  br i1 %2, label %4, label %3, !prof !2

3:                                                ; preds = %0
  tail call void @_ZN6google8protobuf8internal11InitSCCImplEPNS1_11SCCInfoBaseE(%"struct.google::protobuf::internal::SCCInfoBase"* bitcast ({ { { { i32 } }, i32, i32, void ()* }, [0 x i8*] }* @scc_info_SystemProfileProto_Hardware_Graphics_system_5fprofile_2eproto to %"struct.google::protobuf::internal::SCCInfoBase"*)) #15
  br label %4

4:                                                ; preds = %0, %3
  store <2 x %"class.std::__1::basic_string"*> <%"class.std::__1::basic_string"* bitcast (%"class.google::protobuf::internal::ExplicitlyConstructed.27"* @_ZN6google8protobuf8internal26fixed_address_empty_stringE to %"class.std::__1::basic_string"*), %"class.std::__1::basic_string"* bitcast (%"class.google::protobuf::internal::ExplicitlyConstructed.27"* @_ZN6google8protobuf8internal26fixed_address_empty_stringE to %"class.std::__1::basic_string"*)>, <2 x %"class.std::__1::basic_string"*>* bitcast (i8* getelementptr inbounds (%"class.metrics::SystemProfileProto_Hardware_GraphicsDefaultTypeInternal", %"class.metrics::SystemProfileProto_Hardware_GraphicsDefaultTypeInternal"* @_ZN7metrics55_SystemProfileProto_Hardware_Graphics_default_instance_E, i64 0, i32 0, i32 0, i32 1, i64 16) to <2 x %"class.std::__1::basic_string"*>*), align 8
  store %"class.std::__1::basic_string"* bitcast (%"class.google::protobuf::internal::ExplicitlyConstructed.27"* @_ZN6google8protobuf8internal26fixed_address_empty_stringE to %"class.std::__1::basic_string"*), %"class.std::__1::basic_string"** bitcast (i8* getelementptr inbounds (%"class.metrics::SystemProfileProto_Hardware_GraphicsDefaultTypeInternal", %"class.metrics::SystemProfileProto_Hardware_GraphicsDefaultTypeInternal"* @_ZN7metrics55_SystemProfileProto_Hardware_Graphics_default_instance_E, i64 0, i32 0, i32 0, i32 1, i64 32) to %"class.std::__1::basic_string"**), align 8
  store i64 0, i64* bitcast (i8* getelementptr inbounds (%"class.metrics::SystemProfileProto_Hardware_GraphicsDefaultTypeInternal", %"class.metrics::SystemProfileProto_Hardware_GraphicsDefaultTypeInternal"* @_ZN7metrics55_SystemProfileProto_Hardware_Graphics_default_instance_E, i64 0, i32 0, i32 0, i32 1, i64 40) to i64*), align 8
  tail call void @_ZN6google8protobuf8internal13OnShutdownRunEPFvPKvES3_(void (i8*)* nonnull @_ZN6google8protobuf8internal14DestroyMessageEPKv, i8* bitcast (%"class.metrics::SystemProfileProto_Hardware_GraphicsDefaultTypeInternal"* @_ZN7metrics55_SystemProfileProto_Hardware_Graphics_default_instance_E to i8*)) #15
  ret void
}

; Function Attrs: nounwind ssp uwtable
define internal void @_ZL95InitDefaultsscc_info_SystemProfileProto_Hardware_InternalStorageDevice_system_5fprofile_2eprotov() #0 {
  tail call void @_ZN6google8protobuf8internal13VerifyVersionEiiPKc(i32 3013000, i32 3013000, i8* getelementptr inbounds ([51 x i8], [51 x i8]* @.str, i64 0, i64 0)) #15
  store %"class.google::protobuf::Arena"* null, %"class.google::protobuf::Arena"** bitcast (i8* getelementptr inbounds (%"class.metrics::SystemProfileProto_Hardware_InternalStorageDeviceDefaultTypeInternal", %"class.metrics::SystemProfileProto_Hardware_InternalStorageDeviceDefaultTypeInternal"* @_ZN7metrics68_SystemProfileProto_Hardware_InternalStorageDevice_default_instance_E, i64 0, i32 0, i32 0, i32 1, i64 0) to %"class.google::protobuf::Arena"**), align 8
  store i32 (...)** bitcast (i8** getelementptr inbounds ({ [16 x i8*] }, { [16 x i8*] }* @_ZTVN7metrics49SystemProfileProto_Hardware_InternalStorageDeviceE, i64 0, inrange i32 0, i64 2) to i32 (...)**), i32 (...)*** bitcast (%"class.metrics::SystemProfileProto_Hardware_InternalStorageDeviceDefaultTypeInternal"* @_ZN7metrics68_SystemProfileProto_Hardware_InternalStorageDevice_default_instance_E to i32 (...)***), align 8
  store i32 0, i32* bitcast (i8* getelementptr inbounds (%"class.metrics::SystemProfileProto_Hardware_InternalStorageDeviceDefaultTypeInternal", %"class.metrics::SystemProfileProto_Hardware_InternalStorageDeviceDefaultTypeInternal"* @_ZN7metrics68_SystemProfileProto_Hardware_InternalStorageDevice_default_instance_E, i64 0, i32 0, i32 0, i32 1, i64 8) to i32*), align 8
  store i32 0, i32* bitcast (i8* getelementptr inbounds (%"class.metrics::SystemProfileProto_Hardware_InternalStorageDeviceDefaultTypeInternal", %"class.metrics::SystemProfileProto_Hardware_InternalStorageDeviceDefaultTypeInternal"* @_ZN7metrics68_SystemProfileProto_Hardware_InternalStorageDevice_default_instance_E, i64 0, i32 0, i32 0, i32 1, i64 12) to i32*), align 4
  %1 = load atomic i32, i32* getelementptr inbounds ({ { { { i32 } }, i32, i32, void ()* }, [0 x i8*] }, { { { { i32 } }, i32, i32, void ()* }, [0 x i8*] }* @scc_info_SystemProfileProto_Hardware_InternalStorageDevice_system_5fprofile_2eproto, i64 0, i32 0, i32 0, i32 0, i32 0) acquire, align 8
  %2 = icmp eq i32 %1, 0
  br i1 %2, label %4, label %3, !prof !2

3:                                                ; preds = %0
  tail call void @_ZN6google8protobuf8internal11InitSCCImplEPNS1_11SCCInfoBaseE(%"struct.google::protobuf::internal::SCCInfoBase"* bitcast ({ { { { i32 } }, i32, i32, void ()* }, [0 x i8*] }* @scc_info_SystemProfileProto_Hardware_InternalStorageDevice_system_5fprofile_2eproto to %"struct.google::protobuf::internal::SCCInfoBase"*)) #15
  br label %4

4:                                                ; preds = %0, %3
  store %"class.std::__1::basic_string"* bitcast (%"class.google::protobuf::internal::ExplicitlyConstructed.27"* @_ZN6google8protobuf8internal26fixed_address_empty_stringE to %"class.std::__1::basic_string"*), %"class.std::__1::basic_string"** bitcast (i8* getelementptr inbounds (%"class.metrics::SystemProfileProto_Hardware_InternalStorageDeviceDefaultTypeInternal", %"class.metrics::SystemProfileProto_Hardware_InternalStorageDeviceDefaultTypeInternal"* @_ZN7metrics68_SystemProfileProto_Hardware_InternalStorageDevice_default_instance_E, i64 0, i32 0, i32 0, i32 1, i64 16) to %"class.std::__1::basic_string"**), align 8
  tail call void @llvm.memset.p0i8.i64(i8* align 8 getelementptr inbounds (%"class.metrics::SystemProfileProto_Hardware_InternalStorageDeviceDefaultTypeInternal", %"class.metrics::SystemProfileProto_Hardware_InternalStorageDeviceDefaultTypeInternal"* @_ZN7metrics68_SystemProfileProto_Hardware_InternalStorageDevice_default_instance_E, i64 0, i32 0, i32 0, i32 1, i64 24), i8 0, i64 36, i1 false) #15
  tail call void @_ZN6google8protobuf8internal13OnShutdownRunEPFvPKvES3_(void (i8*)* nonnull @_ZN6google8protobuf8internal14DestroyMessageEPKv, i8* bitcast (%"class.metrics::SystemProfileProto_Hardware_InternalStorageDeviceDefaultTypeInternal"* @_ZN7metrics68_SystemProfileProto_Hardware_InternalStorageDevice_default_instance_E to i8*)) #15
  ret void
}

; Function Attrs: nounwind ssp uwtable
define internal void @_ZL87InitDefaultsscc_info_SystemProfileProto_LinkedAndroidPhoneData_system_5fprofile_2eprotov() #0 {
  tail call void @_ZN6google8protobuf8internal13VerifyVersionEiiPKc(i32 3013000, i32 3013000, i8* getelementptr inbounds ([51 x i8], [51 x i8]* @.str, i64 0, i64 0)) #15
  store %"class.google::protobuf::Arena"* null, %"class.google::protobuf::Arena"** bitcast (i8* getelementptr inbounds (%"class.metrics::SystemProfileProto_LinkedAndroidPhoneDataDefaultTypeInternal", %"class.metrics::SystemProfileProto_LinkedAndroidPhoneDataDefaultTypeInternal"* @_ZN7metrics60_SystemProfileProto_LinkedAndroidPhoneData_default_instance_E, i64 0, i32 0, i32 0, i32 1, i64 0) to %"class.google::protobuf::Arena"**), align 8
  store i32 (...)** bitcast (i8** getelementptr inbounds ({ [16 x i8*] }, { [16 x i8*] }* @_ZTVN7metrics41SystemProfileProto_LinkedAndroidPhoneDataE, i64 0, inrange i32 0, i64 2) to i32 (...)**), i32 (...)*** bitcast (%"class.metrics::SystemProfileProto_LinkedAndroidPhoneDataDefaultTypeInternal"* @_ZN7metrics60_SystemProfileProto_LinkedAndroidPhoneData_default_instance_E to i32 (...)***), align 8
  tail call void @llvm.memset.p0i8.i64(i8* align 8 getelementptr inbounds (%"class.metrics::SystemProfileProto_LinkedAndroidPhoneDataDefaultTypeInternal", %"class.metrics::SystemProfileProto_LinkedAndroidPhoneDataDefaultTypeInternal"* @_ZN7metrics60_SystemProfileProto_LinkedAndroidPhoneData_default_instance_E, i64 0, i32 0, i32 0, i32 1, i64 8), i8 0, i64 15, i1 false) #15
  tail call void @_ZN6google8protobuf8internal13OnShutdownRunEPFvPKvES3_(void (i8*)* nonnull @_ZN6google8protobuf8internal14DestroyMessageEPKv, i8* bitcast (%"class.metrics::SystemProfileProto_LinkedAndroidPhoneDataDefaultTypeInternal"* @_ZN7metrics60_SystemProfileProto_LinkedAndroidPhoneData_default_instance_E to i8*)) #15
  ret void
}

; Function Attrs: nounwind ssp uwtable
define internal void @_ZL72InitDefaultsscc_info_SystemProfileProto_Network_system_5fprofile_2eprotov() #0 {
  tail call void @_ZN6google8protobuf8internal13VerifyVersionEiiPKc(i32 3013000, i32 3013000, i8* getelementptr inbounds ([51 x i8], [51 x i8]* @.str, i64 0, i64 0)) #15
  store %"class.google::protobuf::Arena"* null, %"class.google::protobuf::Arena"** bitcast (i8* getelementptr inbounds (%"class.metrics::SystemProfileProto_NetworkDefaultTypeInternal", %"class.metrics::SystemProfileProto_NetworkDefaultTypeInternal"* @_ZN7metrics45_SystemProfileProto_Network_default_instance_E, i64 0, i32 0, i32 0, i32 1, i64 0) to %"class.google::protobuf::Arena"**), align 8
  store i32 (...)** bitcast (i8** getelementptr inbounds ({ [16 x i8*] }, { [16 x i8*] }* @_ZTVN7metrics26SystemProfileProto_NetworkE, i64 0, inrange i32 0, i64 2) to i32 (...)**), i32 (...)*** bitcast (%"class.metrics::SystemProfileProto_NetworkDefaultTypeInternal"* @_ZN7metrics45_SystemProfileProto_Network_default_instance_E to i32 (...)***), align 8
  tail call void @llvm.memset.p0i8.i64(i8* align 8 getelementptr inbounds (%"class.metrics::SystemProfileProto_NetworkDefaultTypeInternal", %"class.metrics::SystemProfileProto_NetworkDefaultTypeInternal"* @_ZN7metrics45_SystemProfileProto_Network_default_instance_E, i64 0, i32 0, i32 0, i32 1, i64 8), i8 0, i64 28, i1 false) #15
  tail call void @_ZN6google8protobuf8internal13OnShutdownRunEPFvPKvES3_(void (i8*)* nonnull @_ZN6google8protobuf8internal14DestroyMessageEPKv, i8* bitcast (%"class.metrics::SystemProfileProto_NetworkDefaultTypeInternal"* @_ZN7metrics45_SystemProfileProto_Network_default_instance_E to i8*)) #15
  ret void
}

; Function Attrs: nounwind ssp uwtable
define internal void @_ZL67InitDefaultsscc_info_SystemProfileProto_OS_system_5fprofile_2eprotov() #0 {
  tail call void @_ZN6google8protobuf8internal13VerifyVersionEiiPKc(i32 3013000, i32 3013000, i8* getelementptr inbounds ([51 x i8], [51 x i8]* @.str, i64 0, i64 0)) #15
  store %"class.google::protobuf::Arena"* null, %"class.google::protobuf::Arena"** bitcast (i8* getelementptr inbounds (%"class.metrics::SystemProfileProto_OSDefaultTypeInternal", %"class.metrics::SystemProfileProto_OSDefaultTypeInternal"* @_ZN7metrics40_SystemProfileProto_OS_default_instance_E, i64 0, i32 0, i32 0, i32 1, i64 0) to %"class.google::protobuf::Arena"**), align 8
  store i32 (...)** bitcast (i8** getelementptr inbounds ({ [16 x i8*] }, { [16 x i8*] }* @_ZTVN7metrics21SystemProfileProto_OSE, i64 0, inrange i32 0, i64 2) to i32 (...)**), i32 (...)*** bitcast (%"class.metrics::SystemProfileProto_OSDefaultTypeInternal"* @_ZN7metrics40_SystemProfileProto_OS_default_instance_E to i32 (...)***), align 8
  store i32 0, i32* bitcast (i8* getelementptr inbounds (%"class.metrics::SystemProfileProto_OSDefaultTypeInternal", %"class.metrics::SystemProfileProto_OSDefaultTypeInternal"* @_ZN7metrics40_SystemProfileProto_OS_default_instance_E, i64 0, i32 0, i32 0, i32 1, i64 8) to i32*), align 8
  store i32 0, i32* bitcast (i8* getelementptr inbounds (%"class.metrics::SystemProfileProto_OSDefaultTypeInternal", %"class.metrics::SystemProfileProto_OSDefaultTypeInternal"* @_ZN7metrics40_SystemProfileProto_OS_default_instance_E, i64 0, i32 0, i32 0, i32 1, i64 12) to i32*), align 4
  %1 = load atomic i32, i32* getelementptr inbounds ({ { { { i32 } }, i32, i32, void ()* }, [1 x i8*] }, { { { { i32 } }, i32, i32, void ()* }, [1 x i8*] }* @scc_info_SystemProfileProto_OS_system_5fprofile_2eproto, i64 0, i32 0, i32 0, i32 0, i32 0) acquire, align 8
  %2 = icmp eq i32 %1, 0
  br i1 %2, label %4, label %3, !prof !2

3:                                                ; preds = %0
  tail call void @_ZN6google8protobuf8internal11InitSCCImplEPNS1_11SCCInfoBaseE(%"struct.google::protobuf::internal::SCCInfoBase"* bitcast ({ { { { i32 } }, i32, i32, void ()* }, [1 x i8*] }* @scc_info_SystemProfileProto_OS_system_5fprofile_2eproto to %"struct.google::protobuf::internal::SCCInfoBase"*)) #15
  br label %4

4:                                                ; preds = %0, %3
  store <2 x %"class.std::__1::basic_string"*> <%"class.std::__1::basic_string"* bitcast (%"class.google::protobuf::internal::ExplicitlyConstructed.27"* @_ZN6google8protobuf8internal26fixed_address_empty_stringE to %"class.std::__1::basic_string"*), %"class.std::__1::basic_string"* bitcast (%"class.google::protobuf::internal::ExplicitlyConstructed.27"* @_ZN6google8protobuf8internal26fixed_address_empty_stringE to %"class.std::__1::basic_string"*)>, <2 x %"class.std::__1::basic_string"*>* bitcast (i8* getelementptr inbounds (%"class.metrics::SystemProfileProto_OSDefaultTypeInternal", %"class.metrics::SystemProfileProto_OSDefaultTypeInternal"* @_ZN7metrics40_SystemProfileProto_OS_default_instance_E, i64 0, i32 0, i32 0, i32 1, i64 16) to <2 x %"class.std::__1::basic_string"*>*), align 8
  store <2 x %"class.std::__1::basic_string"*> <%"class.std::__1::basic_string"* bitcast (%"class.google::protobuf::internal::ExplicitlyConstructed.27"* @_ZN6google8protobuf8internal26fixed_address_empty_stringE to %"class.std::__1::basic_string"*), %"class.std::__1::basic_string"* bitcast (%"class.google::protobuf::internal::ExplicitlyConstructed.27"* @_ZN6google8protobuf8internal26fixed_address_empty_stringE to %"class.std::__1::basic_string"*)>, <2 x %"class.std::__1::basic_string"*>* bitcast (i8* getelementptr inbounds (%"class.metrics::SystemProfileProto_OSDefaultTypeInternal", %"class.metrics::SystemProfileProto_OSDefaultTypeInternal"* @_ZN7metrics40_SystemProfileProto_OS_default_instance_E, i64 0, i32 0, i32 0, i32 1, i64 32) to <2 x %"class.std::__1::basic_string"*>*), align 8
  store %"class.std::__1::basic_string"* bitcast (%"class.google::protobuf::internal::ExplicitlyConstructed.27"* @_ZN6google8protobuf8internal26fixed_address_empty_stringE to %"class.std::__1::basic_string"*), %"class.std::__1::basic_string"** bitcast (i8* getelementptr inbounds (%"class.metrics::SystemProfileProto_OSDefaultTypeInternal", %"class.metrics::SystemProfileProto_OSDefaultTypeInternal"* @_ZN7metrics40_SystemProfileProto_OS_default_instance_E, i64 0, i32 0, i32 0, i32 1, i64 48) to %"class.std::__1::basic_string"**), align 8
  tail call void @llvm.memset.p0i8.i64(i8* align 8 getelementptr inbounds (%"class.metrics::SystemProfileProto_OSDefaultTypeInternal", %"class.metrics::SystemProfileProto_OSDefaultTypeInternal"* @_ZN7metrics40_SystemProfileProto_OS_default_instance_E, i64 0, i32 0, i32 0, i32 1, i64 56), i8 0, i64 9, i1 false) #15
  tail call void @_ZN6google8protobuf8internal13OnShutdownRunEPFvPKvES3_(void (i8*)* nonnull @_ZN6google8protobuf8internal14DestroyMessageEPKv, i8* bitcast (%"class.metrics::SystemProfileProto_OSDefaultTypeInternal"* @_ZN7metrics40_SystemProfileProto_OS_default_instance_E to i8*)) #15
  ret void
}

; Function Attrs: nounwind ssp uwtable
define internal void @_ZL71InitDefaultsscc_info_SystemProfileProto_OS_Arc_system_5fprofile_2eprotov() #0 {
  tail call void @_ZN6google8protobuf8internal13VerifyVersionEiiPKc(i32 3013000, i32 3013000, i8* getelementptr inbounds ([51 x i8], [51 x i8]* @.str, i64 0, i64 0)) #15
  store %"class.google::protobuf::Arena"* null, %"class.google::protobuf::Arena"** bitcast (i8* getelementptr inbounds (%"class.metrics::SystemProfileProto_OS_ArcDefaultTypeInternal", %"class.metrics::SystemProfileProto_OS_ArcDefaultTypeInternal"* @_ZN7metrics44_SystemProfileProto_OS_Arc_default_instance_E, i64 0, i32 0, i32 0, i32 1, i64 0) to %"class.google::protobuf::Arena"**), align 8
  store i32 (...)** bitcast (i8** getelementptr inbounds ({ [16 x i8*] }, { [16 x i8*] }* @_ZTVN7metrics25SystemProfileProto_OS_ArcE, i64 0, inrange i32 0, i64 2) to i32 (...)**), i32 (...)*** bitcast (%"class.metrics::SystemProfileProto_OS_ArcDefaultTypeInternal"* @_ZN7metrics44_SystemProfileProto_OS_Arc_default_instance_E to i32 (...)***), align 8
  store i32 0, i32* bitcast (i8* getelementptr inbounds (%"class.metrics::SystemProfileProto_OS_ArcDefaultTypeInternal", %"class.metrics::SystemProfileProto_OS_ArcDefaultTypeInternal"* @_ZN7metrics44_SystemProfileProto_OS_Arc_default_instance_E, i64 0, i32 0, i32 0, i32 1, i64 8) to i32*), align 8
  store i32 0, i32* bitcast (i8* getelementptr inbounds (%"class.metrics::SystemProfileProto_OS_ArcDefaultTypeInternal", %"class.metrics::SystemProfileProto_OS_ArcDefaultTypeInternal"* @_ZN7metrics44_SystemProfileProto_OS_Arc_default_instance_E, i64 0, i32 0, i32 0, i32 1, i64 12) to i32*), align 4
  %1 = load atomic i32, i32* getelementptr inbounds ({ { { { i32 } }, i32, i32, void ()* }, [0 x i8*] }, { { { { i32 } }, i32, i32, void ()* }, [0 x i8*] }* @scc_info_SystemProfileProto_OS_Arc_system_5fprofile_2eproto, i64 0, i32 0, i32 0, i32 0, i32 0) acquire, align 8
  %2 = icmp eq i32 %1, 0
  br i1 %2, label %4, label %3, !prof !2

3:                                                ; preds = %0
  tail call void @_ZN6google8protobuf8internal11InitSCCImplEPNS1_11SCCInfoBaseE(%"struct.google::protobuf::internal::SCCInfoBase"* bitcast ({ { { { i32 } }, i32, i32, void ()* }, [0 x i8*] }* @scc_info_SystemProfileProto_OS_Arc_system_5fprofile_2eproto to %"struct.google::protobuf::internal::SCCInfoBase"*)) #15
  br label %4

4:                                                ; preds = %0, %3
  store %"class.std::__1::basic_string"* bitcast (%"class.google::protobuf::internal::ExplicitlyConstructed.27"* @_ZN6google8protobuf8internal26fixed_address_empty_stringE to %"class.std::__1::basic_string"*), %"class.std::__1::basic_string"** bitcast (i8* getelementptr inbounds (%"class.metrics::SystemProfileProto_OS_ArcDefaultTypeInternal", %"class.metrics::SystemProfileProto_OS_ArcDefaultTypeInternal"* @_ZN7metrics44_SystemProfileProto_OS_Arc_default_instance_E, i64 0, i32 0, i32 0, i32 1, i64 16) to %"class.std::__1::basic_string"**), align 8
  tail call void @_ZN6google8protobuf8internal13OnShutdownRunEPFvPKvES3_(void (i8*)* nonnull @_ZN6google8protobuf8internal14DestroyMessageEPKv, i8* bitcast (%"class.metrics::SystemProfileProto_OS_ArcDefaultTypeInternal"* @_ZN7metrics44_SystemProfileProto_OS_Arc_default_instance_E to i8*)) #15
  ret void
}

; Function Attrs: nounwind ssp uwtable
define internal void @_ZL71InitDefaultsscc_info_SystemProfileProto_Plugin_system_5fprofile_2eprotov() #0 {
  tail call void @_ZN6google8protobuf8internal13VerifyVersionEiiPKc(i32 3013000, i32 3013000, i8* getelementptr inbounds ([51 x i8], [51 x i8]* @.str, i64 0, i64 0)) #15
  store %"class.google::protobuf::Arena"* null, %"class.google::protobuf::Arena"** bitcast (i8* getelementptr inbounds (%"class.metrics::SystemProfileProto_PluginDefaultTypeInternal", %"class.metrics::SystemProfileProto_PluginDefaultTypeInternal"* @_ZN7metrics44_SystemProfileProto_Plugin_default_instance_E, i64 0, i32 0, i32 0, i32 1, i64 0) to %"class.google::protobuf::Arena"**), align 8
  store i32 (...)** bitcast (i8** getelementptr inbounds ({ [16 x i8*] }, { [16 x i8*] }* @_ZTVN7metrics25SystemProfileProto_PluginE, i64 0, inrange i32 0, i64 2) to i32 (...)**), i32 (...)*** bitcast (%"class.metrics::SystemProfileProto_PluginDefaultTypeInternal"* @_ZN7metrics44_SystemProfileProto_Plugin_default_instance_E to i32 (...)***), align 8
  store i32 0, i32* bitcast (i8* getelementptr inbounds (%"class.metrics::SystemProfileProto_PluginDefaultTypeInternal", %"class.metrics::SystemProfileProto_PluginDefaultTypeInternal"* @_ZN7metrics44_SystemProfileProto_Plugin_default_instance_E, i64 0, i32 0, i32 0, i32 1, i64 8) to i32*), align 8
  store i32 0, i32* bitcast (i8* getelementptr inbounds (%"class.metrics::SystemProfileProto_PluginDefaultTypeInternal", %"class.metrics::SystemProfileProto_PluginDefaultTypeInternal"* @_ZN7metrics44_SystemProfileProto_Plugin_default_instance_E, i64 0, i32 0, i32 0, i32 1, i64 12) to i32*), align 4
  %1 = load atomic i32, i32* getelementptr inbounds ({ { { { i32 } }, i32, i32, void ()* }, [0 x i8*] }, { { { { i32 } }, i32, i32, void ()* }, [0 x i8*] }* @scc_info_SystemProfileProto_Plugin_system_5fprofile_2eproto, i64 0, i32 0, i32 0, i32 0, i32 0) acquire, align 8
  %2 = icmp eq i32 %1, 0
  br i1 %2, label %4, label %3, !prof !2

3:                                                ; preds = %0
  tail call void @_ZN6google8protobuf8internal11InitSCCImplEPNS1_11SCCInfoBaseE(%"struct.google::protobuf::internal::SCCInfoBase"* bitcast ({ { { { i32 } }, i32, i32, void ()* }, [0 x i8*] }* @scc_info_SystemProfileProto_Plugin_system_5fprofile_2eproto to %"struct.google::protobuf::internal::SCCInfoBase"*)) #15
  br label %4

4:                                                ; preds = %0, %3
  store <2 x %"class.std::__1::basic_string"*> <%"class.std::__1::basic_string"* bitcast (%"class.google::protobuf::internal::ExplicitlyConstructed.27"* @_ZN6google8protobuf8internal26fixed_address_empty_stringE to %"class.std::__1::basic_string"*), %"class.std::__1::basic_string"* bitcast (%"class.google::protobuf::internal::ExplicitlyConstructed.27"* @_ZN6google8protobuf8internal26fixed_address_empty_stringE to %"class.std::__1::basic_string"*)>, <2 x %"class.std::__1::basic_string"*>* bitcast (i8* getelementptr inbounds (%"class.metrics::SystemProfileProto_PluginDefaultTypeInternal", %"class.metrics::SystemProfileProto_PluginDefaultTypeInternal"* @_ZN7metrics44_SystemProfileProto_Plugin_default_instance_E, i64 0, i32 0, i32 0, i32 1, i64 16) to <2 x %"class.std::__1::basic_string"*>*), align 8
  store %"class.std::__1::basic_string"* bitcast (%"class.google::protobuf::internal::ExplicitlyConstructed.27"* @_ZN6google8protobuf8internal26fixed_address_empty_stringE to %"class.std::__1::basic_string"*), %"class.std::__1::basic_string"** bitcast (i8* getelementptr inbounds (%"class.metrics::SystemProfileProto_PluginDefaultTypeInternal", %"class.metrics::SystemProfileProto_PluginDefaultTypeInternal"* @_ZN7metrics44_SystemProfileProto_Plugin_default_instance_E, i64 0, i32 0, i32 0, i32 1, i64 32) to %"class.std::__1::basic_string"**), align 8
  store i16 0, i16* bitcast (i8* getelementptr inbounds (%"class.metrics::SystemProfileProto_PluginDefaultTypeInternal", %"class.metrics::SystemProfileProto_PluginDefaultTypeInternal"* @_ZN7metrics44_SystemProfileProto_Plugin_default_instance_E, i64 0, i32 0, i32 0, i32 1, i64 40) to i16*), align 8
  tail call void @_ZN6google8protobuf8internal13OnShutdownRunEPFvPKvES3_(void (i8*)* nonnull @_ZN6google8protobuf8internal14DestroyMessageEPKv, i8* bitcast (%"class.metrics::SystemProfileProto_PluginDefaultTypeInternal"* @_ZN7metrics44_SystemProfileProto_Plugin_default_instance_E to i8*)) #15
  ret void
}

; Function Attrs: nounwind ssp uwtable
define internal void @_ZL74InitDefaultsscc_info_SystemProfileProto_Stability_system_5fprofile_2eprotov() #0 {
  tail call void @_ZN6google8protobuf8internal13VerifyVersionEiiPKc(i32 3013000, i32 3013000, i8* getelementptr inbounds ([51 x i8], [51 x i8]* @.str, i64 0, i64 0)) #15
  store %"class.google::protobuf::Arena"* null, %"class.google::protobuf::Arena"** bitcast (i8* getelementptr inbounds (%"class.metrics::SystemProfileProto_StabilityDefaultTypeInternal", %"class.metrics::SystemProfileProto_StabilityDefaultTypeInternal"* @_ZN7metrics47_SystemProfileProto_Stability_default_instance_E, i64 0, i32 0, i32 0, i32 1, i64 0) to %"class.google::protobuf::Arena"**), align 8
  store i32 (...)** bitcast (i8** getelementptr inbounds ({ [16 x i8*] }, { [16 x i8*] }* @_ZTVN7metrics28SystemProfileProto_StabilityE, i64 0, inrange i32 0, i64 2) to i32 (...)**), i32 (...)*** bitcast (%"class.metrics::SystemProfileProto_StabilityDefaultTypeInternal"* @_ZN7metrics47_SystemProfileProto_Stability_default_instance_E to i32 (...)***), align 8
  tail call void @llvm.memset.p0i8.i64(i8* align 8 getelementptr inbounds (%"class.metrics::SystemProfileProto_StabilityDefaultTypeInternal", %"class.metrics::SystemProfileProto_StabilityDefaultTypeInternal"* @_ZN7metrics47_SystemProfileProto_Stability_default_instance_E, i64 0, i32 0, i32 0, i32 1, i64 8), i8 0, i64 32, i1 false) #15
  %1 = load atomic i32, i32* getelementptr inbounds ({ { { { i32 } }, i32, i32, void ()* }, [1 x i8*] }, { { { { i32 } }, i32, i32, void ()* }, [1 x i8*] }* @scc_info_SystemProfileProto_Stability_system_5fprofile_2eproto, i64 0, i32 0, i32 0, i32 0, i32 0) acquire, align 8
  %2 = icmp eq i32 %1, 0
  br i1 %2, label %4, label %3, !prof !2

3:                                                ; preds = %0
  tail call void @_ZN6google8protobuf8internal11InitSCCImplEPNS1_11SCCInfoBaseE(%"struct.google::protobuf::internal::SCCInfoBase"* bitcast ({ { { { i32 } }, i32, i32, void ()* }, [1 x i8*] }* @scc_info_SystemProfileProto_Stability_system_5fprofile_2eproto to %"struct.google::protobuf::internal::SCCInfoBase"*)) #15
  br label %4

4:                                                ; preds = %0, %3
  tail call void @llvm.memset.p0i8.i64(i8* align 8 getelementptr inbounds (%"class.metrics::SystemProfileProto_StabilityDefaultTypeInternal", %"class.metrics::SystemProfileProto_StabilityDefaultTypeInternal"* @_ZN7metrics47_SystemProfileProto_Stability_default_instance_E, i64 0, i32 0, i32 0, i32 1, i64 40), i8 0, i64 104, i1 false) #15
  tail call void @_ZN6google8protobuf8internal13OnShutdownRunEPFvPKvES3_(void (i8*)* nonnull @_ZN6google8protobuf8internal14DestroyMessageEPKv, i8* bitcast (%"class.metrics::SystemProfileProto_StabilityDefaultTypeInternal"* @_ZN7metrics47_SystemProfileProto_Stability_default_instance_E to i8*)) #15
  ret void
}

; Function Attrs: nounwind ssp uwtable
define internal void @_ZL90InitDefaultsscc_info_SystemProfileProto_Stability_PluginStability_system_5fprofile_2eprotov() #0 {
  tail call void @_ZN6google8protobuf8internal13VerifyVersionEiiPKc(i32 3013000, i32 3013000, i8* getelementptr inbounds ([51 x i8], [51 x i8]* @.str, i64 0, i64 0)) #15
  store %"class.google::protobuf::Arena"* null, %"class.google::protobuf::Arena"** bitcast (i8* getelementptr inbounds (%"class.metrics::SystemProfileProto_Stability_PluginStabilityDefaultTypeInternal", %"class.metrics::SystemProfileProto_Stability_PluginStabilityDefaultTypeInternal"* @_ZN7metrics63_SystemProfileProto_Stability_PluginStability_default_instance_E, i64 0, i32 0, i32 0, i32 1, i64 0) to %"class.google::protobuf::Arena"**), align 8
  store i32 (...)** bitcast (i8** getelementptr inbounds ({ [16 x i8*] }, { [16 x i8*] }* @_ZTVN7metrics44SystemProfileProto_Stability_PluginStabilityE, i64 0, inrange i32 0, i64 2) to i32 (...)**), i32 (...)*** bitcast (%"class.metrics::SystemProfileProto_Stability_PluginStabilityDefaultTypeInternal"* @_ZN7metrics63_SystemProfileProto_Stability_PluginStability_default_instance_E to i32 (...)***), align 8
  store i32 0, i32* bitcast (i8* getelementptr inbounds (%"class.metrics::SystemProfileProto_Stability_PluginStabilityDefaultTypeInternal", %"class.metrics::SystemProfileProto_Stability_PluginStabilityDefaultTypeInternal"* @_ZN7metrics63_SystemProfileProto_Stability_PluginStability_default_instance_E, i64 0, i32 0, i32 0, i32 1, i64 8) to i32*), align 8
  store i32 0, i32* bitcast (i8* getelementptr inbounds (%"class.metrics::SystemProfileProto_Stability_PluginStabilityDefaultTypeInternal", %"class.metrics::SystemProfileProto_Stability_PluginStabilityDefaultTypeInternal"* @_ZN7metrics63_SystemProfileProto_Stability_PluginStability_default_instance_E, i64 0, i32 0, i32 0, i32 1, i64 12) to i32*), align 4
  %1 = load atomic i32, i32* getelementptr inbounds ({ { { { i32 } }, i32, i32, void ()* }, [1 x i8*] }, { { { { i32 } }, i32, i32, void ()* }, [1 x i8*] }* @scc_info_SystemProfileProto_Stability_PluginStability_system_5fprofile_2eproto, i64 0, i32 0, i32 0, i32 0, i32 0) acquire, align 8
  %2 = icmp eq i32 %1, 0
  br i1 %2, label %4, label %3, !prof !2

3:                                                ; preds = %0
  tail call void @_ZN6google8protobuf8internal11InitSCCImplEPNS1_11SCCInfoBaseE(%"struct.google::protobuf::internal::SCCInfoBase"* bitcast ({ { { { i32 } }, i32, i32, void ()* }, [1 x i8*] }* @scc_info_SystemProfileProto_Stability_PluginStability_system_5fprofile_2eproto to %"struct.google::protobuf::internal::SCCInfoBase"*)) #15
  br label %4

4:                                                ; preds = %0, %3
  tail call void @llvm.memset.p0i8.i64(i8* align 8 getelementptr inbounds (%"class.metrics::SystemProfileProto_Stability_PluginStabilityDefaultTypeInternal", %"class.metrics::SystemProfileProto_Stability_PluginStabilityDefaultTypeInternal"* @_ZN7metrics63_SystemProfileProto_Stability_PluginStability_default_instance_E, i64 0, i32 0, i32 0, i32 1, i64 16), i8 0, i64 24, i1 false) #15
  tail call void @_ZN6google8protobuf8internal13OnShutdownRunEPFvPKvES3_(void (i8*)* nonnull @_ZN6google8protobuf8internal14DestroyMessageEPKv, i8* bitcast (%"class.metrics::SystemProfileProto_Stability_PluginStabilityDefaultTypeInternal"* @_ZN7metrics63_SystemProfileProto_Stability_PluginStability_default_instance_E to i8*)) #15
  ret void
}

; Function Attrs: norecurse nounwind readnone ssp uwtable
define hidden zeroext i1 @_ZN7metrics62SystemProfileProto_Hardware_InternalStorageDevice_Type_IsValidEi(i32) local_unnamed_addr #1 {
  %2 = icmp ult i32 %0, 5
  ret i1 %2
}

; Function Attrs: argmemonly nounwind
declare {}* @llvm.invariant.start.p0i8(i64 immarg, i8* nocapture) #2

; Function Attrs: nounwind ssp uwtable
define hidden dereferenceable(24) %"class.std::__1::basic_string"* @_ZN7metrics59SystemProfileProto_Hardware_InternalStorageDevice_Type_NameENS_54SystemProfileProto_Hardware_InternalStorageDevice_TypeE(i32) local_unnamed_addr #0 {
  %2 = load atomic i8, i8* bitcast (i64* @_ZGVZN7metrics59SystemProfileProto_Hardware_InternalStorageDevice_Type_NameENS_54SystemProfileProto_Hardware_InternalStorageDevice_TypeEE5dummy to i8*) acquire, align 8
  %3 = icmp eq i8 %2, 0
  br i1 %3, label %4, label %11, !prof !3

4:                                                ; preds = %1
  %5 = tail call i32 @__cxa_guard_acquire(i64* nonnull @_ZGVZN7metrics59SystemProfileProto_Hardware_InternalStorageDevice_Type_NameENS_54SystemProfileProto_Hardware_InternalStorageDevice_TypeEE5dummy) #15
  %6 = icmp eq i32 %5, 0
  br i1 %6, label %11, label %7

7:                                                ; preds = %4
  %8 = tail call zeroext i1 @_ZN6google8protobuf8internal21InitializeEnumStringsEPKNS1_9EnumEntryEPKimPNS1_21ExplicitlyConstructedINSt3__112basic_stringIcNS8_11char_traitsIcEENS8_9allocatorIcEEEEEE(%"struct.google::protobuf::internal::EnumEntry"* getelementptr inbounds ([5 x %"struct.google::protobuf::internal::EnumEntry"], [5 x %"struct.google::protobuf::internal::EnumEntry"]* @_ZN7metricsL62SystemProfileProto_Hardware_InternalStorageDevice_Type_entriesE, i64 0, i64 0), i32* getelementptr inbounds ([5 x i32], [5 x i32]* @_ZN7metricsL72SystemProfileProto_Hardware_InternalStorageDevice_Type_entries_by_numberE, i64 0, i64 0), i64 5, %"class.google::protobuf::internal::ExplicitlyConstructed.27"* getelementptr inbounds ([5 x %"class.google::protobuf::internal::ExplicitlyConstructed.27"], [5 x %"class.google::protobuf::internal::ExplicitlyConstructed.27"]* @_ZN7metricsL62SystemProfileProto_Hardware_InternalStorageDevice_Type_stringsE, i64 0, i64 0)) #15
  %9 = zext i1 %8 to i8
  store i8 %9, i8* @_ZZN7metrics59SystemProfileProto_Hardware_InternalStorageDevice_Type_NameENS_54SystemProfileProto_Hardware_InternalStorageDevice_TypeEE5dummy, align 1
  %10 = tail call {}* @llvm.invariant.start.p0i8(i64 1, i8* nonnull @_ZZN7metrics59SystemProfileProto_Hardware_InternalStorageDevice_Type_NameENS_54SystemProfileProto_Hardware_InternalStorageDevice_TypeEE5dummy)
  tail call void @__cxa_guard_release(i64* nonnull @_ZGVZN7metrics59SystemProfileProto_Hardware_InternalStorageDevice_Type_NameENS_54SystemProfileProto_Hardware_InternalStorageDevice_TypeEE5dummy) #15
  br label %11

11:                                               ; preds = %4, %7, %1
  %12 = tail call i32 @_ZN6google8protobuf8internal14LookUpEnumNameEPKNS1_9EnumEntryEPKimi(%"struct.google::protobuf::internal::EnumEntry"* getelementptr inbounds ([5 x %"struct.google::protobuf::internal::EnumEntry"], [5 x %"struct.google::protobuf::internal::EnumEntry"]* @_ZN7metricsL62SystemProfileProto_Hardware_InternalStorageDevice_Type_entriesE, i64 0, i64 0), i32* getelementptr inbounds ([5 x i32], [5 x i32]* @_ZN7metricsL72SystemProfileProto_Hardware_InternalStorageDevice_Type_entries_by_numberE, i64 0, i64 0), i64 5, i32 %0) #15
  %13 = icmp eq i32 %12, -1
  br i1 %13, label %14, label %16

14:                                               ; preds = %11
  %15 = tail call dereferenceable(24) %"class.std::__1::basic_string"* @_ZN6google8protobuf8internal14GetEmptyStringEv() #15
  br label %20

16:                                               ; preds = %11
  %17 = sext i32 %12 to i64
  %18 = getelementptr inbounds [5 x %"class.google::protobuf::internal::ExplicitlyConstructed.27"], [5 x %"class.google::protobuf::internal::ExplicitlyConstructed.27"]* @_ZN7metricsL62SystemProfileProto_Hardware_InternalStorageDevice_Type_stringsE, i64 0, i64 %17
  %19 = bitcast %"class.google::protobuf::internal::ExplicitlyConstructed.27"* %18 to %"class.std::__1::basic_string"*
  br label %20

20:                                               ; preds = %16, %14
  %21 = phi %"class.std::__1::basic_string"* [ %15, %14 ], [ %19, %16 ]
  ret %"class.std::__1::basic_string"* %21
}

; Function Attrs: nofree nounwind
declare i32 @__cxa_guard_acquire(i64*) local_unnamed_addr #3

declare zeroext i1 @_ZN6google8protobuf8internal21InitializeEnumStringsEPKNS1_9EnumEntryEPKimPNS1_21ExplicitlyConstructedINSt3__112basic_stringIcNS8_11char_traitsIcEENS8_9allocatorIcEEEEEE(%"struct.google::protobuf::internal::EnumEntry"*, i32*, i64, %"class.google::protobuf::internal::ExplicitlyConstructed.27"*) local_unnamed_addr #4

; Function Attrs: nofree nounwind
declare void @__cxa_guard_release(i64*) local_unnamed_addr #3

; Function Attrs: argmemonly nounwind
declare void @llvm.lifetime.start.p0i8(i64 immarg, i8* nocapture) #2

declare i32 @_ZN6google8protobuf8internal14LookUpEnumNameEPKNS1_9EnumEntryEPKimi(%"struct.google::protobuf::internal::EnumEntry"*, i32*, i64, i32) local_unnamed_addr #4

declare dereferenceable(24) %"class.std::__1::basic_string"* @_ZN6google8protobuf8internal14GetEmptyStringEv() local_unnamed_addr #4

; Function Attrs: argmemonly nounwind
declare void @llvm.lifetime.end.p0i8(i64 immarg, i8* nocapture) #2

; Function Attrs: nounwind ssp uwtable
define hidden zeroext i1 @_ZN7metrics60SystemProfileProto_Hardware_InternalStorageDevice_Type_ParseERKNSt3__112basic_stringIcNS0_11char_traitsIcEENS0_9allocatorIcEEEEPNS_54SystemProfileProto_Hardware_InternalStorageDevice_TypeE(%"class.std::__1::basic_string"* dereferenceable(24), i32* nocapture) local_unnamed_addr #0 {
  %3 = alloca i32, align 4
  %4 = bitcast i32* %3 to i8*
  call void @llvm.lifetime.start.p0i8(i64 4, i8* nonnull %4) #15
  store i32 -1431655766, i32* %3, align 4
  %5 = bitcast %"class.std::__1::basic_string"* %0 to %"struct.std::__1::basic_string<char, std::__1::char_traits<char>, std::__1::allocator<char> >::__short"*
  %6 = getelementptr inbounds %"struct.std::__1::basic_string<char, std::__1::char_traits<char>, std::__1::allocator<char> >::__short", %"struct.std::__1::basic_string<char, std::__1::char_traits<char>, std::__1::allocator<char> >::__short"* %5, i64 0, i32 1, i32 0
  %7 = load i8, i8* %6, align 1
  %8 = icmp slt i8 %7, 0
  %9 = getelementptr inbounds %"class.std::__1::basic_string", %"class.std::__1::basic_string"* %0, i64 0, i32 0, i32 0, i32 0, i32 0, i32 0, i32 0
  %10 = load i8*, i8** %9, align 8
  %11 = bitcast %"class.std::__1::basic_string"* %0 to i8*
  %12 = select i1 %8, i8* %10, i8* %11
  br i1 %8, label %15, label %13

13:                                               ; preds = %2
  %14 = zext i8 %7 to i64
  br label %20

15:                                               ; preds = %2
  %16 = getelementptr inbounds %"class.std::__1::basic_string", %"class.std::__1::basic_string"* %0, i64 0, i32 0, i32 0, i32 0, i32 0, i32 0, i32 1
  %17 = load i64, i64* %16, align 8
  %18 = icmp slt i64 %17, 0
  br i1 %18, label %19, label %20

19:                                               ; preds = %15
  tail call void @_ZN6google8protobuf11StringPiece18LogFatalSizeTooBigEmPKc(i64 %17, i8* getelementptr inbounds ([25 x i8], [25 x i8]* @.str.101, i64 0, i64 0)) #15
  br label %20

20:                                               ; preds = %13, %15, %19
  %21 = phi i64 [ %14, %13 ], [ %17, %15 ], [ %17, %19 ]
  %22 = call zeroext i1 @_ZN6google8protobuf8internal15LookUpEnumValueEPKNS1_9EnumEntryEmNS0_11StringPieceEPi(%"struct.google::protobuf::internal::EnumEntry"* getelementptr inbounds ([5 x %"struct.google::protobuf::internal::EnumEntry"], [5 x %"struct.google::protobuf::internal::EnumEntry"]* @_ZN7metricsL62SystemProfileProto_Hardware_InternalStorageDevice_Type_entriesE, i64 0, i64 0), i64 5, i8* %12, i64 %21, i32* nonnull %3) #15
  br i1 %22, label %23, label %25

23:                                               ; preds = %20
  %24 = load i32, i32* %3, align 4
  store i32 %24, i32* %1, align 4
  br label %25

25:                                               ; preds = %23, %20
  call void @llvm.lifetime.end.p0i8(i64 4, i8* nonnull %4) #15
  ret i1 %22
}

declare zeroext i1 @_ZN6google8protobuf8internal15LookUpEnumValueEPKNS1_9EnumEntryEmNS0_11StringPieceEPi(%"struct.google::protobuf::internal::EnumEntry"*, i64, i8*, i64, i32*) local_unnamed_addr #4

; Function Attrs: norecurse nounwind readnone ssp uwtable
define hidden zeroext i1 @_ZN7metrics65SystemProfileProto_Hardware_InternalStorageDevice_Purpose_IsValidEi(i32) local_unnamed_addr #1 {
  %2 = icmp ult i32 %0, 4
  ret i1 %2
}

; Function Attrs: nounwind ssp uwtable
define hidden dereferenceable(24) %"class.std::__1::basic_string"* @_ZN7metrics62SystemProfileProto_Hardware_InternalStorageDevice_Purpose_NameENS_57SystemProfileProto_Hardware_InternalStorageDevice_PurposeE(i32) local_unnamed_addr #0 {
  %2 = load atomic i8, i8* bitcast (i64* @_ZGVZN7metrics62SystemProfileProto_Hardware_InternalStorageDevice_Purpose_NameENS_57SystemProfileProto_Hardware_InternalStorageDevice_PurposeEE5dummy to i8*) acquire, align 8
  %3 = icmp eq i8 %2, 0
  br i1 %3, label %4, label %11, !prof !3

4:                                                ; preds = %1
  %5 = tail call i32 @__cxa_guard_acquire(i64* nonnull @_ZGVZN7metrics62SystemProfileProto_Hardware_InternalStorageDevice_Purpose_NameENS_57SystemProfileProto_Hardware_InternalStorageDevice_PurposeEE5dummy) #15
  %6 = icmp eq i32 %5, 0
  br i1 %6, label %11, label %7

7:                                                ; preds = %4
  %8 = tail call zeroext i1 @_ZN6google8protobuf8internal21InitializeEnumStringsEPKNS1_9EnumEntryEPKimPNS1_21ExplicitlyConstructedINSt3__112basic_stringIcNS8_11char_traitsIcEENS8_9allocatorIcEEEEEE(%"struct.google::protobuf::internal::EnumEntry"* getelementptr inbounds ([4 x %"struct.google::protobuf::internal::EnumEntry"], [4 x %"struct.google::protobuf::internal::EnumEntry"]* @_ZN7metricsL65SystemProfileProto_Hardware_InternalStorageDevice_Purpose_entriesE, i64 0, i64 0), i32* getelementptr inbounds ([4 x i32], [4 x i32]* @_ZN7metricsL75SystemProfileProto_Hardware_InternalStorageDevice_Purpose_entries_by_numberE, i64 0, i64 0), i64 4, %"class.google::protobuf::internal::ExplicitlyConstructed.27"* getelementptr inbounds ([4 x %"class.google::protobuf::internal::ExplicitlyConstructed.27"], [4 x %"class.google::protobuf::internal::ExplicitlyConstructed.27"]* @_ZN7metricsL65SystemProfileProto_Hardware_InternalStorageDevice_Purpose_stringsE, i64 0, i64 0)) #15
  %9 = zext i1 %8 to i8
  store i8 %9, i8* @_ZZN7metrics62SystemProfileProto_Hardware_InternalStorageDevice_Purpose_NameENS_57SystemProfileProto_Hardware_InternalStorageDevice_PurposeEE5dummy, align 1
  %10 = tail call {}* @llvm.invariant.start.p0i8(i64 1, i8* nonnull @_ZZN7metrics62SystemProfileProto_Hardware_InternalStorageDevice_Purpose_NameENS_57SystemProfileProto_Hardware_InternalStorageDevice_PurposeEE5dummy)
  tail call void @__cxa_guard_release(i64* nonnull @_ZGVZN7metrics62SystemProfileProto_Hardware_InternalStorageDevice_Purpose_NameENS_57SystemProfileProto_Hardware_InternalStorageDevice_PurposeEE5dummy) #15
  br label %11

11:                                               ; preds = %4, %7, %1
  %12 = tail call i32 @_ZN6google8protobuf8internal14LookUpEnumNameEPKNS1_9EnumEntryEPKimi(%"struct.google::protobuf::internal::EnumEntry"* getelementptr inbounds ([4 x %"struct.google::protobuf::internal::EnumEntry"], [4 x %"struct.google::protobuf::internal::EnumEntry"]* @_ZN7metricsL65SystemProfileProto_Hardware_InternalStorageDevice_Purpose_entriesE, i64 0, i64 0), i32* getelementptr inbounds ([4 x i32], [4 x i32]* @_ZN7metricsL75SystemProfileProto_Hardware_InternalStorageDevice_Purpose_entries_by_numberE, i64 0, i64 0), i64 4, i32 %0) #15
  %13 = icmp eq i32 %12, -1
  br i1 %13, label %14, label %16

14:                                               ; preds = %11
  %15 = tail call dereferenceable(24) %"class.std::__1::basic_string"* @_ZN6google8protobuf8internal14GetEmptyStringEv() #15
  br label %20

16:                                               ; preds = %11
  %17 = sext i32 %12 to i64
  %18 = getelementptr inbounds [4 x %"class.google::protobuf::internal::ExplicitlyConstructed.27"], [4 x %"class.google::protobuf::internal::ExplicitlyConstructed.27"]* @_ZN7metricsL65SystemProfileProto_Hardware_InternalStorageDevice_Purpose_stringsE, i64 0, i64 %17
  %19 = bitcast %"class.google::protobuf::internal::ExplicitlyConstructed.27"* %18 to %"class.std::__1::basic_string"*
  br label %20

20:                                               ; preds = %16, %14
  %21 = phi %"class.std::__1::basic_string"* [ %15, %14 ], [ %19, %16 ]
  ret %"class.std::__1::basic_string"* %21
}

; Function Attrs: nounwind ssp uwtable
define hidden zeroext i1 @_ZN7metrics63SystemProfileProto_Hardware_InternalStorageDevice_Purpose_ParseERKNSt3__112basic_stringIcNS0_11char_traitsIcEENS0_9allocatorIcEEEEPNS_57SystemProfileProto_Hardware_InternalStorageDevice_PurposeE(%"class.std::__1::basic_string"* dereferenceable(24), i32* nocapture) local_unnamed_addr #0 {
  %3 = alloca i32, align 4
  %4 = bitcast i32* %3 to i8*
  call void @llvm.lifetime.start.p0i8(i64 4, i8* nonnull %4) #15
  store i32 -1431655766, i32* %3, align 4
  %5 = bitcast %"class.std::__1::basic_string"* %0 to %"struct.std::__1::basic_string<char, std::__1::char_traits<char>, std::__1::allocator<char> >::__short"*
  %6 = getelementptr inbounds %"struct.std::__1::basic_string<char, std::__1::char_traits<char>, std::__1::allocator<char> >::__short", %"struct.std::__1::basic_string<char, std::__1::char_traits<char>, std::__1::allocator<char> >::__short"* %5, i64 0, i32 1, i32 0
  %7 = load i8, i8* %6, align 1
  %8 = icmp slt i8 %7, 0
  %9 = getelementptr inbounds %"class.std::__1::basic_string", %"class.std::__1::basic_string"* %0, i64 0, i32 0, i32 0, i32 0, i32 0, i32 0, i32 0
  %10 = load i8*, i8** %9, align 8
  %11 = bitcast %"class.std::__1::basic_string"* %0 to i8*
  %12 = select i1 %8, i8* %10, i8* %11
  br i1 %8, label %15, label %13

13:                                               ; preds = %2
  %14 = zext i8 %7 to i64
  br label %20

15:                                               ; preds = %2
  %16 = getelementptr inbounds %"class.std::__1::basic_string", %"class.std::__1::basic_string"* %0, i64 0, i32 0, i32 0, i32 0, i32 0, i32 0, i32 1
  %17 = load i64, i64* %16, align 8
  %18 = icmp slt i64 %17, 0
  br i1 %18, label %19, label %20

19:                                               ; preds = %15
  tail call void @_ZN6google8protobuf11StringPiece18LogFatalSizeTooBigEmPKc(i64 %17, i8* getelementptr inbounds ([25 x i8], [25 x i8]* @.str.101, i64 0, i64 0)) #15
  br label %20

20:                                               ; preds = %13, %15, %19
  %21 = phi i64 [ %14, %13 ], [ %17, %15 ], [ %17, %19 ]
  %22 = call zeroext i1 @_ZN6google8protobuf8internal15LookUpEnumValueEPKNS1_9EnumEntryEmNS0_11StringPieceEPi(%"struct.google::protobuf::internal::EnumEntry"* getelementptr inbounds ([4 x %"struct.google::protobuf::internal::EnumEntry"], [4 x %"struct.google::protobuf::internal::EnumEntry"]* @_ZN7metricsL65SystemProfileProto_Hardware_InternalStorageDevice_Purpose_entriesE, i64 0, i64 0), i64 4, i8* %12, i64 %21, i32* nonnull %3) #15
  br i1 %22, label %23, label %25

23:                                               ; preds = %20
  %24 = load i32, i32* %3, align 4
  store i32 %24, i32* %1, align 4
  br label %25

25:                                               ; preds = %23, %20
  call void @llvm.lifetime.end.p0i8(i64 4, i8* nonnull %4) #15
  ret i1 %22
}

; Function Attrs: norecurse nounwind readnone ssp uwtable
define hidden zeroext i1 @_ZN7metrics49SystemProfileProto_Network_ConnectionType_IsValidEi(i32) local_unnamed_addr #1 {
  %2 = icmp ult i32 %0, 10
  ret i1 %2
}

; Function Attrs: nounwind ssp uwtable
define hidden dereferenceable(24) %"class.std::__1::basic_string"* @_ZN7metrics46SystemProfileProto_Network_ConnectionType_NameENS_41SystemProfileProto_Network_ConnectionTypeE(i32) local_unnamed_addr #0 {
  %2 = load atomic i8, i8* bitcast (i64* @_ZGVZN7metrics46SystemProfileProto_Network_ConnectionType_NameENS_41SystemProfileProto_Network_ConnectionTypeEE5dummy to i8*) acquire, align 8
  %3 = icmp eq i8 %2, 0
  br i1 %3, label %4, label %11, !prof !3

4:                                                ; preds = %1
  %5 = tail call i32 @__cxa_guard_acquire(i64* nonnull @_ZGVZN7metrics46SystemProfileProto_Network_ConnectionType_NameENS_41SystemProfileProto_Network_ConnectionTypeEE5dummy) #15
  %6 = icmp eq i32 %5, 0
  br i1 %6, label %11, label %7

7:                                                ; preds = %4
  %8 = tail call zeroext i1 @_ZN6google8protobuf8internal21InitializeEnumStringsEPKNS1_9EnumEntryEPKimPNS1_21ExplicitlyConstructedINSt3__112basic_stringIcNS8_11char_traitsIcEENS8_9allocatorIcEEEEEE(%"struct.google::protobuf::internal::EnumEntry"* getelementptr inbounds ([10 x %"struct.google::protobuf::internal::EnumEntry"], [10 x %"struct.google::protobuf::internal::EnumEntry"]* @_ZN7metricsL49SystemProfileProto_Network_ConnectionType_entriesE, i64 0, i64 0), i32* getelementptr inbounds ([10 x i32], [10 x i32]* @_ZN7metricsL59SystemProfileProto_Network_ConnectionType_entries_by_numberE, i64 0, i64 0), i64 10, %"class.google::protobuf::internal::ExplicitlyConstructed.27"* getelementptr inbounds ([10 x %"class.google::protobuf::internal::ExplicitlyConstructed.27"], [10 x %"class.google::protobuf::internal::ExplicitlyConstructed.27"]* @_ZN7metricsL49SystemProfileProto_Network_ConnectionType_stringsE, i64 0, i64 0)) #15
  %9 = zext i1 %8 to i8
  store i8 %9, i8* @_ZZN7metrics46SystemProfileProto_Network_ConnectionType_NameENS_41SystemProfileProto_Network_ConnectionTypeEE5dummy, align 1
  %10 = tail call {}* @llvm.invariant.start.p0i8(i64 1, i8* nonnull @_ZZN7metrics46SystemProfileProto_Network_ConnectionType_NameENS_41SystemProfileProto_Network_ConnectionTypeEE5dummy)
  tail call void @__cxa_guard_release(i64* nonnull @_ZGVZN7metrics46SystemProfileProto_Network_ConnectionType_NameENS_41SystemProfileProto_Network_ConnectionTypeEE5dummy) #15
  br label %11

11:                                               ; preds = %4, %7, %1
  %12 = tail call i32 @_ZN6google8protobuf8internal14LookUpEnumNameEPKNS1_9EnumEntryEPKimi(%"struct.google::protobuf::internal::EnumEntry"* getelementptr inbounds ([10 x %"struct.google::protobuf::internal::EnumEntry"], [10 x %"struct.google::protobuf::internal::EnumEntry"]* @_ZN7metricsL49SystemProfileProto_Network_ConnectionType_entriesE, i64 0, i64 0), i32* getelementptr inbounds ([10 x i32], [10 x i32]* @_ZN7metricsL59SystemProfileProto_Network_ConnectionType_entries_by_numberE, i64 0, i64 0), i64 10, i32 %0) #15
  %13 = icmp eq i32 %12, -1
  br i1 %13, label %14, label %16

14:                                               ; preds = %11
  %15 = tail call dereferenceable(24) %"class.std::__1::basic_string"* @_ZN6google8protobuf8internal14GetEmptyStringEv() #15
  br label %20

16:                                               ; preds = %11
  %17 = sext i32 %12 to i64
  %18 = getelementptr inbounds [10 x %"class.google::protobuf::internal::ExplicitlyConstructed.27"], [10 x %"class.google::protobuf::internal::ExplicitlyConstructed.27"]* @_ZN7metricsL49SystemProfileProto_Network_ConnectionType_stringsE, i64 0, i64 %17
  %19 = bitcast %"class.google::protobuf::internal::ExplicitlyConstructed.27"* %18 to %"class.std::__1::basic_string"*
  br label %20

20:                                               ; preds = %16, %14
  %21 = phi %"class.std::__1::basic_string"* [ %15, %14 ], [ %19, %16 ]
  ret %"class.std::__1::basic_string"* %21
}

; Function Attrs: nounwind ssp uwtable
define hidden zeroext i1 @_ZN7metrics47SystemProfileProto_Network_ConnectionType_ParseERKNSt3__112basic_stringIcNS0_11char_traitsIcEENS0_9allocatorIcEEEEPNS_41SystemProfileProto_Network_ConnectionTypeE(%"class.std::__1::basic_string"* dereferenceable(24), i32* nocapture) local_unnamed_addr #0 {
  %3 = alloca i32, align 4
  %4 = bitcast i32* %3 to i8*
  call void @llvm.lifetime.start.p0i8(i64 4, i8* nonnull %4) #15
  store i32 -1431655766, i32* %3, align 4
  %5 = bitcast %"class.std::__1::basic_string"* %0 to %"struct.std::__1::basic_string<char, std::__1::char_traits<char>, std::__1::allocator<char> >::__short"*
  %6 = getelementptr inbounds %"struct.std::__1::basic_string<char, std::__1::char_traits<char>, std::__1::allocator<char> >::__short", %"struct.std::__1::basic_string<char, std::__1::char_traits<char>, std::__1::allocator<char> >::__short"* %5, i64 0, i32 1, i32 0
  %7 = load i8, i8* %6, align 1
  %8 = icmp slt i8 %7, 0
  %9 = getelementptr inbounds %"class.std::__1::basic_string", %"class.std::__1::basic_string"* %0, i64 0, i32 0, i32 0, i32 0, i32 0, i32 0, i32 0
  %10 = load i8*, i8** %9, align 8
  %11 = bitcast %"class.std::__1::basic_string"* %0 to i8*
  %12 = select i1 %8, i8* %10, i8* %11
  br i1 %8, label %15, label %13

13:                                               ; preds = %2
  %14 = zext i8 %7 to i64
  br label %20

15:                                               ; preds = %2
  %16 = getelementptr inbounds %"class.std::__1::basic_string", %"class.std::__1::basic_string"* %0, i64 0, i32 0, i32 0, i32 0, i32 0, i32 0, i32 1
  %17 = load i64, i64* %16, align 8
  %18 = icmp slt i64 %17, 0
  br i1 %18, label %19, label %20

19:                                               ; preds = %15
  tail call void @_ZN6google8protobuf11StringPiece18LogFatalSizeTooBigEmPKc(i64 %17, i8* getelementptr inbounds ([25 x i8], [25 x i8]* @.str.101, i64 0, i64 0)) #15
  br label %20

20:                                               ; preds = %13, %15, %19
  %21 = phi i64 [ %14, %13 ], [ %17, %15 ], [ %17, %19 ]
  %22 = call zeroext i1 @_ZN6google8protobuf8internal15LookUpEnumValueEPKNS1_9EnumEntryEmNS0_11StringPieceEPi(%"struct.google::protobuf::internal::EnumEntry"* getelementptr inbounds ([10 x %"struct.google::protobuf::internal::EnumEntry"], [10 x %"struct.google::protobuf::internal::EnumEntry"]* @_ZN7metricsL49SystemProfileProto_Network_ConnectionType_entriesE, i64 0, i64 0), i64 10, i8* %12, i64 %21, i32* nonnull %3) #15
  br i1 %22, label %23, label %25

23:                                               ; preds = %20
  %24 = load i32, i32* %3, align 4
  store i32 %24, i32* %1, align 4
  br label %25

25:                                               ; preds = %23, %20
  call void @llvm.lifetime.end.p0i8(i64 4, i8* nonnull %4) #15
  ret i1 %22
}

; Function Attrs: norecurse nounwind readnone ssp uwtable
define hidden zeroext i1 @_ZN7metrics55SystemProfileProto_Network_WifiPHYLayerProtocol_IsValidEi(i32) local_unnamed_addr #1 {
  %2 = icmp ult i32 %0, 10
  ret i1 %2
}

; Function Attrs: nounwind ssp uwtable
define hidden dereferenceable(24) %"class.std::__1::basic_string"* @_ZN7metrics52SystemProfileProto_Network_WifiPHYLayerProtocol_NameENS_47SystemProfileProto_Network_WifiPHYLayerProtocolE(i32) local_unnamed_addr #0 {
  %2 = load atomic i8, i8* bitcast (i64* @_ZGVZN7metrics52SystemProfileProto_Network_WifiPHYLayerProtocol_NameENS_47SystemProfileProto_Network_WifiPHYLayerProtocolEE5dummy to i8*) acquire, align 8
  %3 = icmp eq i8 %2, 0
  br i1 %3, label %4, label %11, !prof !3

4:                                                ; preds = %1
  %5 = tail call i32 @__cxa_guard_acquire(i64* nonnull @_ZGVZN7metrics52SystemProfileProto_Network_WifiPHYLayerProtocol_NameENS_47SystemProfileProto_Network_WifiPHYLayerProtocolEE5dummy) #15
  %6 = icmp eq i32 %5, 0
  br i1 %6, label %11, label %7

7:                                                ; preds = %4
  %8 = tail call zeroext i1 @_ZN6google8protobuf8internal21InitializeEnumStringsEPKNS1_9EnumEntryEPKimPNS1_21ExplicitlyConstructedINSt3__112basic_stringIcNS8_11char_traitsIcEENS8_9allocatorIcEEEEEE(%"struct.google::protobuf::internal::EnumEntry"* getelementptr inbounds ([10 x %"struct.google::protobuf::internal::EnumEntry"], [10 x %"struct.google::protobuf::internal::EnumEntry"]* @_ZN7metricsL55SystemProfileProto_Network_WifiPHYLayerProtocol_entriesE, i64 0, i64 0), i32* getelementptr inbounds ([10 x i32], [10 x i32]* @_ZN7metricsL65SystemProfileProto_Network_WifiPHYLayerProtocol_entries_by_numberE, i64 0, i64 0), i64 10, %"class.google::protobuf::internal::ExplicitlyConstructed.27"* getelementptr inbounds ([10 x %"class.google::protobuf::internal::ExplicitlyConstructed.27"], [10 x %"class.google::protobuf::internal::ExplicitlyConstructed.27"]* @_ZN7metricsL55SystemProfileProto_Network_WifiPHYLayerProtocol_stringsE, i64 0, i64 0)) #15
  %9 = zext i1 %8 to i8
  store i8 %9, i8* @_ZZN7metrics52SystemProfileProto_Network_WifiPHYLayerProtocol_NameENS_47SystemProfileProto_Network_WifiPHYLayerProtocolEE5dummy, align 1
  %10 = tail call {}* @llvm.invariant.start.p0i8(i64 1, i8* nonnull @_ZZN7metrics52SystemProfileProto_Network_WifiPHYLayerProtocol_NameENS_47SystemProfileProto_Network_WifiPHYLayerProtocolEE5dummy)
  tail call void @__cxa_guard_release(i64* nonnull @_ZGVZN7metrics52SystemProfileProto_Network_WifiPHYLayerProtocol_NameENS_47SystemProfileProto_Network_WifiPHYLayerProtocolEE5dummy) #15
  br label %11

11:                                               ; preds = %4, %7, %1
  %12 = tail call i32 @_ZN6google8protobuf8internal14LookUpEnumNameEPKNS1_9EnumEntryEPKimi(%"struct.google::protobuf::internal::EnumEntry"* getelementptr inbounds ([10 x %"struct.google::protobuf::internal::EnumEntry"], [10 x %"struct.google::protobuf::internal::EnumEntry"]* @_ZN7metricsL55SystemProfileProto_Network_WifiPHYLayerProtocol_entriesE, i64 0, i64 0), i32* getelementptr inbounds ([10 x i32], [10 x i32]* @_ZN7metricsL65SystemProfileProto_Network_WifiPHYLayerProtocol_entries_by_numberE, i64 0, i64 0), i64 10, i32 %0) #15
  %13 = icmp eq i32 %12, -1
  br i1 %13, label %14, label %16

14:                                               ; preds = %11
  %15 = tail call dereferenceable(24) %"class.std::__1::basic_string"* @_ZN6google8protobuf8internal14GetEmptyStringEv() #15
  br label %20

16:                                               ; preds = %11
  %17 = sext i32 %12 to i64
  %18 = getelementptr inbounds [10 x %"class.google::protobuf::internal::ExplicitlyConstructed.27"], [10 x %"class.google::protobuf::internal::ExplicitlyConstructed.27"]* @_ZN7metricsL55SystemProfileProto_Network_WifiPHYLayerProtocol_stringsE, i64 0, i64 %17
  %19 = bitcast %"class.google::protobuf::internal::ExplicitlyConstructed.27"* %18 to %"class.std::__1::basic_string"*
  br label %20

20:                                               ; preds = %16, %14
  %21 = phi %"class.std::__1::basic_string"* [ %15, %14 ], [ %19, %16 ]
  ret %"class.std::__1::basic_string"* %21
}

; Function Attrs: nounwind ssp uwtable
define hidden zeroext i1 @_ZN7metrics53SystemProfileProto_Network_WifiPHYLayerProtocol_ParseERKNSt3__112basic_stringIcNS0_11char_traitsIcEENS0_9allocatorIcEEEEPNS_47SystemProfileProto_Network_WifiPHYLayerProtocolE(%"class.std::__1::basic_string"* dereferenceable(24), i32* nocapture) local_unnamed_addr #0 {
  %3 = alloca i32, align 4
  %4 = bitcast i32* %3 to i8*
  call void @llvm.lifetime.start.p0i8(i64 4, i8* nonnull %4) #15
  store i32 -1431655766, i32* %3, align 4
  %5 = bitcast %"class.std::__1::basic_string"* %0 to %"struct.std::__1::basic_string<char, std::__1::char_traits<char>, std::__1::allocator<char> >::__short"*
  %6 = getelementptr inbounds %"struct.std::__1::basic_string<char, std::__1::char_traits<char>, std::__1::allocator<char> >::__short", %"struct.std::__1::basic_string<char, std::__1::char_traits<char>, std::__1::allocator<char> >::__short"* %5, i64 0, i32 1, i32 0
  %7 = load i8, i8* %6, align 1
  %8 = icmp slt i8 %7, 0
  %9 = getelementptr inbounds %"class.std::__1::basic_string", %"class.std::__1::basic_string"* %0, i64 0, i32 0, i32 0, i32 0, i32 0, i32 0, i32 0
  %10 = load i8*, i8** %9, align 8
  %11 = bitcast %"class.std::__1::basic_string"* %0 to i8*
  %12 = select i1 %8, i8* %10, i8* %11
  br i1 %8, label %15, label %13

13:                                               ; preds = %2
  %14 = zext i8 %7 to i64
  br label %20

15:                                               ; preds = %2
  %16 = getelementptr inbounds %"class.std::__1::basic_string", %"class.std::__1::basic_string"* %0, i64 0, i32 0, i32 0, i32 0, i32 0, i32 0, i32 1
  %17 = load i64, i64* %16, align 8
  %18 = icmp slt i64 %17, 0
  br i1 %18, label %19, label %20

19:                                               ; preds = %15
  tail call void @_ZN6google8protobuf11StringPiece18LogFatalSizeTooBigEmPKc(i64 %17, i8* getelementptr inbounds ([25 x i8], [25 x i8]* @.str.101, i64 0, i64 0)) #15
  br label %20

20:                                               ; preds = %13, %15, %19
  %21 = phi i64 [ %14, %13 ], [ %17, %15 ], [ %17, %19 ]
  %22 = call zeroext i1 @_ZN6google8protobuf8internal15LookUpEnumValueEPKNS1_9EnumEntryEmNS0_11StringPieceEPi(%"struct.google::protobuf::internal::EnumEntry"* getelementptr inbounds ([10 x %"struct.google::protobuf::internal::EnumEntry"], [10 x %"struct.google::protobuf::internal::EnumEntry"]* @_ZN7metricsL55SystemProfileProto_Network_WifiPHYLayerProtocol_entriesE, i64 0, i64 0), i64 10, i8* %12, i64 %21, i32* nonnull %3) #15
  br i1 %22, label %23, label %25

23:                                               ; preds = %20
  %24 = load i32, i32* %3, align 4
  store i32 %24, i32* %1, align 4
  br label %25

25:                                               ; preds = %23, %20
  call void @llvm.lifetime.end.p0i8(i64 4, i8* nonnull %4) #15
  ret i1 %22
}

; Function Attrs: norecurse nounwind readnone ssp uwtable
define hidden zeroext i1 @_ZN7metrics58SystemProfileProto_Network_EffectiveConnectionType_IsValidEi(i32) local_unnamed_addr #1 {
  %2 = icmp ult i32 %0, 7
  ret i1 %2
}

; Function Attrs: nounwind ssp uwtable
define hidden dereferenceable(24) %"class.std::__1::basic_string"* @_ZN7metrics55SystemProfileProto_Network_EffectiveConnectionType_NameENS_50SystemProfileProto_Network_EffectiveConnectionTypeE(i32) local_unnamed_addr #0 {
  %2 = load atomic i8, i8* bitcast (i64* @_ZGVZN7metrics55SystemProfileProto_Network_EffectiveConnectionType_NameENS_50SystemProfileProto_Network_EffectiveConnectionTypeEE5dummy to i8*) acquire, align 8
  %3 = icmp eq i8 %2, 0
  br i1 %3, label %4, label %11, !prof !3

4:                                                ; preds = %1
  %5 = tail call i32 @__cxa_guard_acquire(i64* nonnull @_ZGVZN7metrics55SystemProfileProto_Network_EffectiveConnectionType_NameENS_50SystemProfileProto_Network_EffectiveConnectionTypeEE5dummy) #15
  %6 = icmp eq i32 %5, 0
  br i1 %6, label %11, label %7

7:                                                ; preds = %4
  %8 = tail call zeroext i1 @_ZN6google8protobuf8internal21InitializeEnumStringsEPKNS1_9EnumEntryEPKimPNS1_21ExplicitlyConstructedINSt3__112basic_stringIcNS8_11char_traitsIcEENS8_9allocatorIcEEEEEE(%"struct.google::protobuf::internal::EnumEntry"* getelementptr inbounds ([7 x %"struct.google::protobuf::internal::EnumEntry"], [7 x %"struct.google::protobuf::internal::EnumEntry"]* @_ZN7metricsL58SystemProfileProto_Network_EffectiveConnectionType_entriesE, i64 0, i64 0), i32* getelementptr inbounds ([7 x i32], [7 x i32]* @_ZN7metricsL68SystemProfileProto_Network_EffectiveConnectionType_entries_by_numberE, i64 0, i64 0), i64 7, %"class.google::protobuf::internal::ExplicitlyConstructed.27"* getelementptr inbounds ([7 x %"class.google::protobuf::internal::ExplicitlyConstructed.27"], [7 x %"class.google::protobuf::internal::ExplicitlyConstructed.27"]* @_ZN7metricsL58SystemProfileProto_Network_EffectiveConnectionType_stringsE, i64 0, i64 0)) #15
  %9 = zext i1 %8 to i8
  store i8 %9, i8* @_ZZN7metrics55SystemProfileProto_Network_EffectiveConnectionType_NameENS_50SystemProfileProto_Network_EffectiveConnectionTypeEE5dummy, align 1
  %10 = tail call {}* @llvm.invariant.start.p0i8(i64 1, i8* nonnull @_ZZN7metrics55SystemProfileProto_Network_EffectiveConnectionType_NameENS_50SystemProfileProto_Network_EffectiveConnectionTypeEE5dummy)
  tail call void @__cxa_guard_release(i64* nonnull @_ZGVZN7metrics55SystemProfileProto_Network_EffectiveConnectionType_NameENS_50SystemProfileProto_Network_EffectiveConnectionTypeEE5dummy) #15
  br label %11

11:                                               ; preds = %4, %7, %1
  %12 = tail call i32 @_ZN6google8protobuf8internal14LookUpEnumNameEPKNS1_9EnumEntryEPKimi(%"struct.google::protobuf::internal::EnumEntry"* getelementptr inbounds ([7 x %"struct.google::protobuf::internal::EnumEntry"], [7 x %"struct.google::protobuf::internal::EnumEntry"]* @_ZN7metricsL58SystemProfileProto_Network_EffectiveConnectionType_entriesE, i64 0, i64 0), i32* getelementptr inbounds ([7 x i32], [7 x i32]* @_ZN7metricsL68SystemProfileProto_Network_EffectiveConnectionType_entries_by_numberE, i64 0, i64 0), i64 7, i32 %0) #15
  %13 = icmp eq i32 %12, -1
  br i1 %13, label %14, label %16

14:                                               ; preds = %11
  %15 = tail call dereferenceable(24) %"class.std::__1::basic_string"* @_ZN6google8protobuf8internal14GetEmptyStringEv() #15
  br label %20

16:                                               ; preds = %11
  %17 = sext i32 %12 to i64
  %18 = getelementptr inbounds [7 x %"class.google::protobuf::internal::ExplicitlyConstructed.27"], [7 x %"class.google::protobuf::internal::ExplicitlyConstructed.27"]* @_ZN7metricsL58SystemProfileProto_Network_EffectiveConnectionType_stringsE, i64 0, i64 %17
  %19 = bitcast %"class.google::protobuf::internal::ExplicitlyConstructed.27"* %18 to %"class.std::__1::basic_string"*
  br label %20

20:                                               ; preds = %16, %14
  %21 = phi %"class.std::__1::basic_string"* [ %15, %14 ], [ %19, %16 ]
  ret %"class.std::__1::basic_string"* %21
}

; Function Attrs: nounwind ssp uwtable
define hidden zeroext i1 @_ZN7metrics56SystemProfileProto_Network_EffectiveConnectionType_ParseERKNSt3__112basic_stringIcNS0_11char_traitsIcEENS0_9allocatorIcEEEEPNS_50SystemProfileProto_Network_EffectiveConnectionTypeE(%"class.std::__1::basic_string"* dereferenceable(24), i32* nocapture) local_unnamed_addr #0 {
  %3 = alloca i32, align 4
  %4 = bitcast i32* %3 to i8*
  call void @llvm.lifetime.start.p0i8(i64 4, i8* nonnull %4) #15
  store i32 -1431655766, i32* %3, align 4
  %5 = bitcast %"class.std::__1::basic_string"* %0 to %"struct.std::__1::basic_string<char, std::__1::char_traits<char>, std::__1::allocator<char> >::__short"*
  %6 = getelementptr inbounds %"struct.std::__1::basic_string<char, std::__1::char_traits<char>, std::__1::allocator<char> >::__short", %"struct.std::__1::basic_string<char, std::__1::char_traits<char>, std::__1::allocator<char> >::__short"* %5, i64 0, i32 1, i32 0
  %7 = load i8, i8* %6, align 1
  %8 = icmp slt i8 %7, 0
  %9 = getelementptr inbounds %"class.std::__1::basic_string", %"class.std::__1::basic_string"* %0, i64 0, i32 0, i32 0, i32 0, i32 0, i32 0, i32 0
  %10 = load i8*, i8** %9, align 8
  %11 = bitcast %"class.std::__1::basic_string"* %0 to i8*
  %12 = select i1 %8, i8* %10, i8* %11
  br i1 %8, label %15, label %13

13:                                               ; preds = %2
  %14 = zext i8 %7 to i64
  br label %20

15:                                               ; preds = %2
  %16 = getelementptr inbounds %"class.std::__1::basic_string", %"class.std::__1::basic_string"* %0, i64 0, i32 0, i32 0, i32 0, i32 0, i32 0, i32 1
  %17 = load i64, i64* %16, align 8
  %18 = icmp slt i64 %17, 0
  br i1 %18, label %19, label %20

19:                                               ; preds = %15
  tail call void @_ZN6google8protobuf11StringPiece18LogFatalSizeTooBigEmPKc(i64 %17, i8* getelementptr inbounds ([25 x i8], [25 x i8]* @.str.101, i64 0, i64 0)) #15
  br label %20

20:                                               ; preds = %13, %15, %19
  %21 = phi i64 [ %14, %13 ], [ %17, %15 ], [ %17, %19 ]
  %22 = call zeroext i1 @_ZN6google8protobuf8internal15LookUpEnumValueEPKNS1_9EnumEntryEmNS0_11StringPieceEPi(%"struct.google::protobuf::internal::EnumEntry"* getelementptr inbounds ([7 x %"struct.google::protobuf::internal::EnumEntry"], [7 x %"struct.google::protobuf::internal::EnumEntry"]* @_ZN7metricsL58SystemProfileProto_Network_EffectiveConnectionType_entriesE, i64 0, i64 0), i64 7, i8* %12, i64 %21, i32* nonnull %3) #15
  br i1 %22, label %23, label %25

23:                                               ; preds = %20
  %24 = load i32, i32* %3, align 4
  store i32 %24, i32* %1, align 4
  br label %25

25:                                               ; preds = %23, %20
  call void @llvm.lifetime.end.p0i8(i64 4, i8* nonnull %4) #15
  ret i1 %22
}

; Function Attrs: norecurse nounwind readnone ssp uwtable
define hidden zeroext i1 @_ZN7metrics65SystemProfileProto_GoogleUpdate_ProductInfo_InstallResult_IsValidEi(i32) local_unnamed_addr #1 {
  %2 = icmp ult i32 %0, 5
  ret i1 %2
}

; Function Attrs: nounwind ssp uwtable
define hidden dereferenceable(24) %"class.std::__1::basic_string"* @_ZN7metrics62SystemProfileProto_GoogleUpdate_ProductInfo_InstallResult_NameENS_57SystemProfileProto_GoogleUpdate_ProductInfo_InstallResultE(i32) local_unnamed_addr #0 {
  %2 = load atomic i8, i8* bitcast (i64* @_ZGVZN7metrics62SystemProfileProto_GoogleUpdate_ProductInfo_InstallResult_NameENS_57SystemProfileProto_GoogleUpdate_ProductInfo_InstallResultEE5dummy to i8*) acquire, align 8
  %3 = icmp eq i8 %2, 0
  br i1 %3, label %4, label %11, !prof !3

4:                                                ; preds = %1
  %5 = tail call i32 @__cxa_guard_acquire(i64* nonnull @_ZGVZN7metrics62SystemProfileProto_GoogleUpdate_ProductInfo_InstallResult_NameENS_57SystemProfileProto_GoogleUpdate_ProductInfo_InstallResultEE5dummy) #15
  %6 = icmp eq i32 %5, 0
  br i1 %6, label %11, label %7

7:                                                ; preds = %4
  %8 = tail call zeroext i1 @_ZN6google8protobuf8internal21InitializeEnumStringsEPKNS1_9EnumEntryEPKimPNS1_21ExplicitlyConstructedINSt3__112basic_stringIcNS8_11char_traitsIcEENS8_9allocatorIcEEEEEE(%"struct.google::protobuf::internal::EnumEntry"* getelementptr inbounds ([5 x %"struct.google::protobuf::internal::EnumEntry"], [5 x %"struct.google::protobuf::internal::EnumEntry"]* @_ZN7metricsL65SystemProfileProto_GoogleUpdate_ProductInfo_InstallResult_entriesE, i64 0, i64 0), i32* getelementptr inbounds ([5 x i32], [5 x i32]* @_ZN7metricsL75SystemProfileProto_GoogleUpdate_ProductInfo_InstallResult_entries_by_numberE, i64 0, i64 0), i64 5, %"class.google::protobuf::internal::ExplicitlyConstructed.27"* getelementptr inbounds ([5 x %"class.google::protobuf::internal::ExplicitlyConstructed.27"], [5 x %"class.google::protobuf::internal::ExplicitlyConstructed.27"]* @_ZN7metricsL65SystemProfileProto_GoogleUpdate_ProductInfo_InstallResult_stringsE, i64 0, i64 0)) #15
  %9 = zext i1 %8 to i8
  store i8 %9, i8* @_ZZN7metrics62SystemProfileProto_GoogleUpdate_ProductInfo_InstallResult_NameENS_57SystemProfileProto_GoogleUpdate_ProductInfo_InstallResultEE5dummy, align 1
  %10 = tail call {}* @llvm.invariant.start.p0i8(i64 1, i8* nonnull @_ZZN7metrics62SystemProfileProto_GoogleUpdate_ProductInfo_InstallResult_NameENS_57SystemProfileProto_GoogleUpdate_ProductInfo_InstallResultEE5dummy)
  tail call void @__cxa_guard_release(i64* nonnull @_ZGVZN7metrics62SystemProfileProto_GoogleUpdate_ProductInfo_InstallResult_NameENS_57SystemProfileProto_GoogleUpdate_ProductInfo_InstallResultEE5dummy) #15
  br label %11

11:                                               ; preds = %4, %7, %1
  %12 = tail call i32 @_ZN6google8protobuf8internal14LookUpEnumNameEPKNS1_9EnumEntryEPKimi(%"struct.google::protobuf::internal::EnumEntry"* getelementptr inbounds ([5 x %"struct.google::protobuf::internal::EnumEntry"], [5 x %"struct.google::protobuf::internal::EnumEntry"]* @_ZN7metricsL65SystemProfileProto_GoogleUpdate_ProductInfo_InstallResult_entriesE, i64 0, i64 0), i32* getelementptr inbounds ([5 x i32], [5 x i32]* @_ZN7metricsL75SystemProfileProto_GoogleUpdate_ProductInfo_InstallResult_entries_by_numberE, i64 0, i64 0), i64 5, i32 %0) #15
  %13 = icmp eq i32 %12, -1
  br i1 %13, label %14, label %16

14:                                               ; preds = %11
  %15 = tail call dereferenceable(24) %"class.std::__1::basic_string"* @_ZN6google8protobuf8internal14GetEmptyStringEv() #15
  br label %20

16:                                               ; preds = %11
  %17 = sext i32 %12 to i64
  %18 = getelementptr inbounds [5 x %"class.google::protobuf::internal::ExplicitlyConstructed.27"], [5 x %"class.google::protobuf::internal::ExplicitlyConstructed.27"]* @_ZN7metricsL65SystemProfileProto_GoogleUpdate_ProductInfo_InstallResult_stringsE, i64 0, i64 %17
  %19 = bitcast %"class.google::protobuf::internal::ExplicitlyConstructed.27"* %18 to %"class.std::__1::basic_string"*
  br label %20

20:                                               ; preds = %16, %14
  %21 = phi %"class.std::__1::basic_string"* [ %15, %14 ], [ %19, %16 ]
  ret %"class.std::__1::basic_string"* %21
}

; Function Attrs: nounwind ssp uwtable
define hidden zeroext i1 @_ZN7metrics63SystemProfileProto_GoogleUpdate_ProductInfo_InstallResult_ParseERKNSt3__112basic_stringIcNS0_11char_traitsIcEENS0_9allocatorIcEEEEPNS_57SystemProfileProto_GoogleUpdate_ProductInfo_InstallResultE(%"class.std::__1::basic_string"* dereferenceable(24), i32* nocapture) local_unnamed_addr #0 {
  %3 = alloca i32, align 4
  %4 = bitcast i32* %3 to i8*
  call void @llvm.lifetime.start.p0i8(i64 4, i8* nonnull %4) #15
  store i32 -1431655766, i32* %3, align 4
  %5 = bitcast %"class.std::__1::basic_string"* %0 to %"struct.std::__1::basic_string<char, std::__1::char_traits<char>, std::__1::allocator<char> >::__short"*
  %6 = getelementptr inbounds %"struct.std::__1::basic_string<char, std::__1::char_traits<char>, std::__1::allocator<char> >::__short", %"struct.std::__1::basic_string<char, std::__1::char_traits<char>, std::__1::allocator<char> >::__short"* %5, i64 0, i32 1, i32 0
  %7 = load i8, i8* %6, align 1
  %8 = icmp slt i8 %7, 0
  %9 = getelementptr inbounds %"class.std::__1::basic_string", %"class.std::__1::basic_string"* %0, i64 0, i32 0, i32 0, i32 0, i32 0, i32 0, i32 0
  %10 = load i8*, i8** %9, align 8
  %11 = bitcast %"class.std::__1::basic_string"* %0 to i8*
  %12 = select i1 %8, i8* %10, i8* %11
  br i1 %8, label %15, label %13

13:                                               ; preds = %2
  %14 = zext i8 %7 to i64
  br label %20

15:                                               ; preds = %2
  %16 = getelementptr inbounds %"class.std::__1::basic_string", %"class.std::__1::basic_string"* %0, i64 0, i32 0, i32 0, i32 0, i32 0, i32 0, i32 1
  %17 = load i64, i64* %16, align 8
  %18 = icmp slt i64 %17, 0
  br i1 %18, label %19, label %20

19:                                               ; preds = %15
  tail call void @_ZN6google8protobuf11StringPiece18LogFatalSizeTooBigEmPKc(i64 %17, i8* getelementptr inbounds ([25 x i8], [25 x i8]* @.str.101, i64 0, i64 0)) #15
  br label %20

20:                                               ; preds = %13, %15, %19
  %21 = phi i64 [ %14, %13 ], [ %17, %15 ], [ %17, %19 ]
  %22 = call zeroext i1 @_ZN6google8protobuf8internal15LookUpEnumValueEPKNS1_9EnumEntryEmNS0_11StringPieceEPi(%"struct.google::protobuf::internal::EnumEntry"* getelementptr inbounds ([5 x %"struct.google::protobuf::internal::EnumEntry"], [5 x %"struct.google::protobuf::internal::EnumEntry"]* @_ZN7metricsL65SystemProfileProto_GoogleUpdate_ProductInfo_InstallResult_entriesE, i64 0, i64 0), i64 5, i8* %12, i64 %21, i32* nonnull %3) #15
  br i1 %22, label %23, label %25

23:                                               ; preds = %20
  %24 = load i32, i32* %3, align 4
  store i32 %24, i32* %1, align 4
  br label %25

25:                                               ; preds = %23, %20
  call void @llvm.lifetime.end.p0i8(i64 4, i8* nonnull %4) #15
  ret i1 %22
}

; Function Attrs: norecurse nounwind readnone ssp uwtable
define hidden zeroext i1 @_ZN7metrics80SystemProfileProto_ExternalAudioVideoDevice_AudioDescription_AudioFormat_IsValidEi(i32) local_unnamed_addr #1 {
  %2 = icmp ult i32 %0, 15
  ret i1 %2
}

; Function Attrs: nounwind ssp uwtable
define hidden dereferenceable(24) %"class.std::__1::basic_string"* @_ZN7metrics77SystemProfileProto_ExternalAudioVideoDevice_AudioDescription_AudioFormat_NameENS_72SystemProfileProto_ExternalAudioVideoDevice_AudioDescription_AudioFormatE(i32) local_unnamed_addr #0 {
  %2 = load atomic i8, i8* bitcast (i64* @_ZGVZN7metrics77SystemProfileProto_ExternalAudioVideoDevice_AudioDescription_AudioFormat_NameENS_72SystemProfileProto_ExternalAudioVideoDevice_AudioDescription_AudioFormatEE5dummy to i8*) acquire, align 8
  %3 = icmp eq i8 %2, 0
  br i1 %3, label %4, label %11, !prof !3

4:                                                ; preds = %1
  %5 = tail call i32 @__cxa_guard_acquire(i64* nonnull @_ZGVZN7metrics77SystemProfileProto_ExternalAudioVideoDevice_AudioDescription_AudioFormat_NameENS_72SystemProfileProto_ExternalAudioVideoDevice_AudioDescription_AudioFormatEE5dummy) #15
  %6 = icmp eq i32 %5, 0
  br i1 %6, label %11, label %7

7:                                                ; preds = %4
  %8 = tail call zeroext i1 @_ZN6google8protobuf8internal21InitializeEnumStringsEPKNS1_9EnumEntryEPKimPNS1_21ExplicitlyConstructedINSt3__112basic_stringIcNS8_11char_traitsIcEENS8_9allocatorIcEEEEEE(%"struct.google::protobuf::internal::EnumEntry"* getelementptr inbounds ([15 x %"struct.google::protobuf::internal::EnumEntry"], [15 x %"struct.google::protobuf::internal::EnumEntry"]* @_ZN7metricsL80SystemProfileProto_ExternalAudioVideoDevice_AudioDescription_AudioFormat_entriesE, i64 0, i64 0), i32* getelementptr inbounds ([15 x i32], [15 x i32]* @_ZN7metricsL90SystemProfileProto_ExternalAudioVideoDevice_AudioDescription_AudioFormat_entries_by_numberE, i64 0, i64 0), i64 15, %"class.google::protobuf::internal::ExplicitlyConstructed.27"* getelementptr inbounds ([15 x %"class.google::protobuf::internal::ExplicitlyConstructed.27"], [15 x %"class.google::protobuf::internal::ExplicitlyConstructed.27"]* @_ZN7metricsL80SystemProfileProto_ExternalAudioVideoDevice_AudioDescription_AudioFormat_stringsE, i64 0, i64 0)) #15
  %9 = zext i1 %8 to i8
  store i8 %9, i8* @_ZZN7metrics77SystemProfileProto_ExternalAudioVideoDevice_AudioDescription_AudioFormat_NameENS_72SystemProfileProto_ExternalAudioVideoDevice_AudioDescription_AudioFormatEE5dummy, align 1
  %10 = tail call {}* @llvm.invariant.start.p0i8(i64 1, i8* nonnull @_ZZN7metrics77SystemProfileProto_ExternalAudioVideoDevice_AudioDescription_AudioFormat_NameENS_72SystemProfileProto_ExternalAudioVideoDevice_AudioDescription_AudioFormatEE5dummy)
  tail call void @__cxa_guard_release(i64* nonnull @_ZGVZN7metrics77SystemProfileProto_ExternalAudioVideoDevice_AudioDescription_AudioFormat_NameENS_72SystemProfileProto_ExternalAudioVideoDevice_AudioDescription_AudioFormatEE5dummy) #15
  br label %11

11:                                               ; preds = %4, %7, %1
  %12 = tail call i32 @_ZN6google8protobuf8internal14LookUpEnumNameEPKNS1_9EnumEntryEPKimi(%"struct.google::protobuf::internal::EnumEntry"* getelementptr inbounds ([15 x %"struct.google::protobuf::internal::EnumEntry"], [15 x %"struct.google::protobuf::internal::EnumEntry"]* @_ZN7metricsL80SystemProfileProto_ExternalAudioVideoDevice_AudioDescription_AudioFormat_entriesE, i64 0, i64 0), i32* getelementptr inbounds ([15 x i32], [15 x i32]* @_ZN7metricsL90SystemProfileProto_ExternalAudioVideoDevice_AudioDescription_AudioFormat_entries_by_numberE, i64 0, i64 0), i64 15, i32 %0) #15
  %13 = icmp eq i32 %12, -1
  br i1 %13, label %14, label %16

14:                                               ; preds = %11
  %15 = tail call dereferenceable(24) %"class.std::__1::basic_string"* @_ZN6google8protobuf8internal14GetEmptyStringEv() #15
  br label %20

16:                                               ; preds = %11
  %17 = sext i32 %12 to i64
  %18 = getelementptr inbounds [15 x %"class.google::protobuf::internal::ExplicitlyConstructed.27"], [15 x %"class.google::protobuf::internal::ExplicitlyConstructed.27"]* @_ZN7metricsL80SystemProfileProto_ExternalAudioVideoDevice_AudioDescription_AudioFormat_stringsE, i64 0, i64 %17
  %19 = bitcast %"class.google::protobuf::internal::ExplicitlyConstructed.27"* %18 to %"class.std::__1::basic_string"*
  br label %20

20:                                               ; preds = %16, %14
  %21 = phi %"class.std::__1::basic_string"* [ %15, %14 ], [ %19, %16 ]
  ret %"class.std::__1::basic_string"* %21
}

; Function Attrs: nounwind ssp uwtable
define hidden zeroext i1 @_ZN7metrics78SystemProfileProto_ExternalAudioVideoDevice_AudioDescription_AudioFormat_ParseERKNSt3__112basic_stringIcNS0_11char_traitsIcEENS0_9allocatorIcEEEEPNS_72SystemProfileProto_ExternalAudioVideoDevice_AudioDescription_AudioFormatE(%"class.std::__1::basic_string"* dereferenceable(24), i32* nocapture) local_unnamed_addr #0 {
  %3 = alloca i32, align 4
  %4 = bitcast i32* %3 to i8*
  call void @llvm.lifetime.start.p0i8(i64 4, i8* nonnull %4) #15
  store i32 -1431655766, i32* %3, align 4
  %5 = bitcast %"class.std::__1::basic_string"* %0 to %"struct.std::__1::basic_string<char, std::__1::char_traits<char>, std::__1::allocator<char> >::__short"*
  %6 = getelementptr inbounds %"struct.std::__1::basic_string<char, std::__1::char_traits<char>, std::__1::allocator<char> >::__short", %"struct.std::__1::basic_string<char, std::__1::char_traits<char>, std::__1::allocator<char> >::__short"* %5, i64 0, i32 1, i32 0
  %7 = load i8, i8* %6, align 1
  %8 = icmp slt i8 %7, 0
  %9 = getelementptr inbounds %"class.std::__1::basic_string", %"class.std::__1::basic_string"* %0, i64 0, i32 0, i32 0, i32 0, i32 0, i32 0, i32 0
  %10 = load i8*, i8** %9, align 8
  %11 = bitcast %"class.std::__1::basic_string"* %0 to i8*
  %12 = select i1 %8, i8* %10, i8* %11
  br i1 %8, label %15, label %13

13:                                               ; preds = %2
  %14 = zext i8 %7 to i64
  br label %20

15:                                               ; preds = %2
  %16 = getelementptr inbounds %"class.std::__1::basic_string", %"class.std::__1::basic_string"* %0, i64 0, i32 0, i32 0, i32 0, i32 0, i32 0, i32 1
  %17 = load i64, i64* %16, align 8
  %18 = icmp slt i64 %17, 0
  br i1 %18, label %19, label %20

19:                                               ; preds = %15
  tail call void @_ZN6google8protobuf11StringPiece18LogFatalSizeTooBigEmPKc(i64 %17, i8* getelementptr inbounds ([25 x i8], [25 x i8]* @.str.101, i64 0, i64 0)) #15
  br label %20

20:                                               ; preds = %13, %15, %19
  %21 = phi i64 [ %14, %13 ], [ %17, %15 ], [ %17, %19 ]
  %22 = call zeroext i1 @_ZN6google8protobuf8internal15LookUpEnumValueEPKNS1_9EnumEntryEmNS0_11StringPieceEPi(%"struct.google::protobuf::internal::EnumEntry"* getelementptr inbounds ([15 x %"struct.google::protobuf::internal::EnumEntry"], [15 x %"struct.google::protobuf::internal::EnumEntry"]* @_ZN7metricsL80SystemProfileProto_ExternalAudioVideoDevice_AudioDescription_AudioFormat_entriesE, i64 0, i64 0), i64 15, i8* %12, i64 %21, i32* nonnull %3) #15
  br i1 %22, label %23, label %25

23:                                               ; preds = %20
  %24 = load i32, i32* %3, align 4
  store i32 %24, i32* %1, align 4
  br label %25

25:                                               ; preds = %23, %20
  call void @llvm.lifetime.end.p0i8(i64 4, i8* nonnull %4) #15
  ret i1 %22
}

; Function Attrs: norecurse nounwind readnone ssp uwtable
define hidden zeroext i1 @_ZN7metrics79SystemProfileProto_ExternalAudioVideoDevice_AudioDescription_OutputMode_IsValidEi(i32) local_unnamed_addr #1 {
  %2 = icmp ult i32 %0, 2
  ret i1 %2
}

; Function Attrs: nounwind ssp uwtable
define hidden dereferenceable(24) %"class.std::__1::basic_string"* @_ZN7metrics76SystemProfileProto_ExternalAudioVideoDevice_AudioDescription_OutputMode_NameENS_71SystemProfileProto_ExternalAudioVideoDevice_AudioDescription_OutputModeE(i32) local_unnamed_addr #0 {
  %2 = load atomic i8, i8* bitcast (i64* @_ZGVZN7metrics76SystemProfileProto_ExternalAudioVideoDevice_AudioDescription_OutputMode_NameENS_71SystemProfileProto_ExternalAudioVideoDevice_AudioDescription_OutputModeEE5dummy to i8*) acquire, align 8
  %3 = icmp eq i8 %2, 0
  br i1 %3, label %4, label %11, !prof !3

4:                                                ; preds = %1
  %5 = tail call i32 @__cxa_guard_acquire(i64* nonnull @_ZGVZN7metrics76SystemProfileProto_ExternalAudioVideoDevice_AudioDescription_OutputMode_NameENS_71SystemProfileProto_ExternalAudioVideoDevice_AudioDescription_OutputModeEE5dummy) #15
  %6 = icmp eq i32 %5, 0
  br i1 %6, label %11, label %7

7:                                                ; preds = %4
  %8 = tail call zeroext i1 @_ZN6google8protobuf8internal21InitializeEnumStringsEPKNS1_9EnumEntryEPKimPNS1_21ExplicitlyConstructedINSt3__112basic_stringIcNS8_11char_traitsIcEENS8_9allocatorIcEEEEEE(%"struct.google::protobuf::internal::EnumEntry"* getelementptr inbounds ([2 x %"struct.google::protobuf::internal::EnumEntry"], [2 x %"struct.google::protobuf::internal::EnumEntry"]* @_ZN7metricsL79SystemProfileProto_ExternalAudioVideoDevice_AudioDescription_OutputMode_entriesE, i64 0, i64 0), i32* getelementptr inbounds ([2 x i32], [2 x i32]* @_ZN7metricsL89SystemProfileProto_ExternalAudioVideoDevice_AudioDescription_OutputMode_entries_by_numberE, i64 0, i64 0), i64 2, %"class.google::protobuf::internal::ExplicitlyConstructed.27"* getelementptr inbounds ([2 x %"class.google::protobuf::internal::ExplicitlyConstructed.27"], [2 x %"class.google::protobuf::internal::ExplicitlyConstructed.27"]* @_ZN7metricsL79SystemProfileProto_ExternalAudioVideoDevice_AudioDescription_OutputMode_stringsE, i64 0, i64 0)) #15
  %9 = zext i1 %8 to i8
  store i8 %9, i8* @_ZZN7metrics76SystemProfileProto_ExternalAudioVideoDevice_AudioDescription_OutputMode_NameENS_71SystemProfileProto_ExternalAudioVideoDevice_AudioDescription_OutputModeEE5dummy, align 1
  %10 = tail call {}* @llvm.invariant.start.p0i8(i64 1, i8* nonnull @_ZZN7metrics76SystemProfileProto_ExternalAudioVideoDevice_AudioDescription_OutputMode_NameENS_71SystemProfileProto_ExternalAudioVideoDevice_AudioDescription_OutputModeEE5dummy)
  tail call void @__cxa_guard_release(i64* nonnull @_ZGVZN7metrics76SystemProfileProto_ExternalAudioVideoDevice_AudioDescription_OutputMode_NameENS_71SystemProfileProto_ExternalAudioVideoDevice_AudioDescription_OutputModeEE5dummy) #15
  br label %11

11:                                               ; preds = %4, %7, %1
  %12 = tail call i32 @_ZN6google8protobuf8internal14LookUpEnumNameEPKNS1_9EnumEntryEPKimi(%"struct.google::protobuf::internal::EnumEntry"* getelementptr inbounds ([2 x %"struct.google::protobuf::internal::EnumEntry"], [2 x %"struct.google::protobuf::internal::EnumEntry"]* @_ZN7metricsL79SystemProfileProto_ExternalAudioVideoDevice_AudioDescription_OutputMode_entriesE, i64 0, i64 0), i32* getelementptr inbounds ([2 x i32], [2 x i32]* @_ZN7metricsL89SystemProfileProto_ExternalAudioVideoDevice_AudioDescription_OutputMode_entries_by_numberE, i64 0, i64 0), i64 2, i32 %0) #15
  %13 = icmp eq i32 %12, -1
  br i1 %13, label %14, label %16

14:                                               ; preds = %11
  %15 = tail call dereferenceable(24) %"class.std::__1::basic_string"* @_ZN6google8protobuf8internal14GetEmptyStringEv() #15
  br label %20

16:                                               ; preds = %11
  %17 = sext i32 %12 to i64
  %18 = getelementptr inbounds [2 x %"class.google::protobuf::internal::ExplicitlyConstructed.27"], [2 x %"class.google::protobuf::internal::ExplicitlyConstructed.27"]* @_ZN7metricsL79SystemProfileProto_ExternalAudioVideoDevice_AudioDescription_OutputMode_stringsE, i64 0, i64 %17
  %19 = bitcast %"class.google::protobuf::internal::ExplicitlyConstructed.27"* %18 to %"class.std::__1::basic_string"*
  br label %20

20:                                               ; preds = %16, %14
  %21 = phi %"class.std::__1::basic_string"* [ %15, %14 ], [ %19, %16 ]
  ret %"class.std::__1::basic_string"* %21
}

; Function Attrs: nounwind ssp uwtable
define hidden zeroext i1 @_ZN7metrics77SystemProfileProto_ExternalAudioVideoDevice_AudioDescription_OutputMode_ParseERKNSt3__112basic_stringIcNS0_11char_traitsIcEENS0_9allocatorIcEEEEPNS_71SystemProfileProto_ExternalAudioVideoDevice_AudioDescription_OutputModeE(%"class.std::__1::basic_string"* dereferenceable(24), i32* nocapture) local_unnamed_addr #0 {
  %3 = alloca i32, align 4
  %4 = bitcast i32* %3 to i8*
  call void @llvm.lifetime.start.p0i8(i64 4, i8* nonnull %4) #15
  store i32 -1431655766, i32* %3, align 4
  %5 = bitcast %"class.std::__1::basic_string"* %0 to %"struct.std::__1::basic_string<char, std::__1::char_traits<char>, std::__1::allocator<char> >::__short"*
  %6 = getelementptr inbounds %"struct.std::__1::basic_string<char, std::__1::char_traits<char>, std::__1::allocator<char> >::__short", %"struct.std::__1::basic_string<char, std::__1::char_traits<char>, std::__1::allocator<char> >::__short"* %5, i64 0, i32 1, i32 0
  %7 = load i8, i8* %6, align 1
  %8 = icmp slt i8 %7, 0
  %9 = getelementptr inbounds %"class.std::__1::basic_string", %"class.std::__1::basic_string"* %0, i64 0, i32 0, i32 0, i32 0, i32 0, i32 0, i32 0
  %10 = load i8*, i8** %9, align 8
  %11 = bitcast %"class.std::__1::basic_string"* %0 to i8*
  %12 = select i1 %8, i8* %10, i8* %11
  br i1 %8, label %15, label %13

13:                                               ; preds = %2
  %14 = zext i8 %7 to i64
  br label %20

15:                                               ; preds = %2
  %16 = getelementptr inbounds %"class.std::__1::basic_string", %"class.std::__1::basic_string"* %0, i64 0, i32 0, i32 0, i32 0, i32 0, i32 0, i32 1
  %17 = load i64, i64* %16, align 8
  %18 = icmp slt i64 %17, 0
  br i1 %18, label %19, label %20

19:                                               ; preds = %15
  tail call void @_ZN6google8protobuf11StringPiece18LogFatalSizeTooBigEmPKc(i64 %17, i8* getelementptr inbounds ([25 x i8], [25 x i8]* @.str.101, i64 0, i64 0)) #15
  br label %20

20:                                               ; preds = %13, %15, %19
  %21 = phi i64 [ %14, %13 ], [ %17, %15 ], [ %17, %19 ]
  %22 = call zeroext i1 @_ZN6google8protobuf8internal15LookUpEnumValueEPKNS1_9EnumEntryEmNS0_11StringPieceEPi(%"struct.google::protobuf::internal::EnumEntry"* getelementptr inbounds ([2 x %"struct.google::protobuf::internal::EnumEntry"], [2 x %"struct.google::protobuf::internal::EnumEntry"]* @_ZN7metricsL79SystemProfileProto_ExternalAudioVideoDevice_AudioDescription_OutputMode_entriesE, i64 0, i64 0), i64 2, i8* %12, i64 %21, i32* nonnull %3) #15
  br i1 %22, label %23, label %25

23:                                               ; preds = %20
  %24 = load i32, i32* %3, align 4
  store i32 %24, i32* %1, align 4
  br label %25

25:                                               ; preds = %23, %20
  call void @llvm.lifetime.end.p0i8(i64 4, i8* nonnull %4) #15
  ret i1 %22
}

; Function Attrs: norecurse nounwind readnone ssp uwtable
define hidden zeroext i1 @_ZN7metrics64SystemProfileProto_ExternalAudioVideoDevice_AVDeviceType_IsValidEi(i32) #1 {
  %2 = icmp ult i32 %0, 6
  ret i1 %2
}

; Function Attrs: nounwind ssp uwtable
define hidden dereferenceable(24) %"class.std::__1::basic_string"* @_ZN7metrics61SystemProfileProto_ExternalAudioVideoDevice_AVDeviceType_NameENS_56SystemProfileProto_ExternalAudioVideoDevice_AVDeviceTypeE(i32) local_unnamed_addr #0 {
  %2 = load atomic i8, i8* bitcast (i64* @_ZGVZN7metrics61SystemProfileProto_ExternalAudioVideoDevice_AVDeviceType_NameENS_56SystemProfileProto_ExternalAudioVideoDevice_AVDeviceTypeEE5dummy to i8*) acquire, align 8
  %3 = icmp eq i8 %2, 0
  br i1 %3, label %4, label %11, !prof !3

4:                                                ; preds = %1
  %5 = tail call i32 @__cxa_guard_acquire(i64* nonnull @_ZGVZN7metrics61SystemProfileProto_ExternalAudioVideoDevice_AVDeviceType_NameENS_56SystemProfileProto_ExternalAudioVideoDevice_AVDeviceTypeEE5dummy) #15
  %6 = icmp eq i32 %5, 0
  br i1 %6, label %11, label %7

7:                                                ; preds = %4
  %8 = tail call zeroext i1 @_ZN6google8protobuf8internal21InitializeEnumStringsEPKNS1_9EnumEntryEPKimPNS1_21ExplicitlyConstructedINSt3__112basic_stringIcNS8_11char_traitsIcEENS8_9allocatorIcEEEEEE(%"struct.google::protobuf::internal::EnumEntry"* getelementptr inbounds ([6 x %"struct.google::protobuf::internal::EnumEntry"], [6 x %"struct.google::protobuf::internal::EnumEntry"]* @_ZN7metricsL64SystemProfileProto_ExternalAudioVideoDevice_AVDeviceType_entriesE, i64 0, i64 0), i32* getelementptr inbounds ([6 x i32], [6 x i32]* @_ZN7metricsL74SystemProfileProto_ExternalAudioVideoDevice_AVDeviceType_entries_by_numberE, i64 0, i64 0), i64 6, %"class.google::protobuf::internal::ExplicitlyConstructed.27"* getelementptr inbounds ([6 x %"class.google::protobuf::internal::ExplicitlyConstructed.27"], [6 x %"class.google::protobuf::internal::ExplicitlyConstructed.27"]* @_ZN7metricsL64SystemProfileProto_ExternalAudioVideoDevice_AVDeviceType_stringsE, i64 0, i64 0)) #15
  %9 = zext i1 %8 to i8
  store i8 %9, i8* @_ZZN7metrics61SystemProfileProto_ExternalAudioVideoDevice_AVDeviceType_NameENS_56SystemProfileProto_ExternalAudioVideoDevice_AVDeviceTypeEE5dummy, align 1
  %10 = tail call {}* @llvm.invariant.start.p0i8(i64 1, i8* nonnull @_ZZN7metrics61SystemProfileProto_ExternalAudioVideoDevice_AVDeviceType_NameENS_56SystemProfileProto_ExternalAudioVideoDevice_AVDeviceTypeEE5dummy)
  tail call void @__cxa_guard_release(i64* nonnull @_ZGVZN7metrics61SystemProfileProto_ExternalAudioVideoDevice_AVDeviceType_NameENS_56SystemProfileProto_ExternalAudioVideoDevice_AVDeviceTypeEE5dummy) #15
  br label %11

11:                                               ; preds = %4, %7, %1
  %12 = tail call i32 @_ZN6google8protobuf8internal14LookUpEnumNameEPKNS1_9EnumEntryEPKimi(%"struct.google::protobuf::internal::EnumEntry"* getelementptr inbounds ([6 x %"struct.google::protobuf::internal::EnumEntry"], [6 x %"struct.google::protobuf::internal::EnumEntry"]* @_ZN7metricsL64SystemProfileProto_ExternalAudioVideoDevice_AVDeviceType_entriesE, i64 0, i64 0), i32* getelementptr inbounds ([6 x i32], [6 x i32]* @_ZN7metricsL74SystemProfileProto_ExternalAudioVideoDevice_AVDeviceType_entries_by_numberE, i64 0, i64 0), i64 6, i32 %0) #15
  %13 = icmp eq i32 %12, -1
  br i1 %13, label %14, label %16

14:                                               ; preds = %11
  %15 = tail call dereferenceable(24) %"class.std::__1::basic_string"* @_ZN6google8protobuf8internal14GetEmptyStringEv() #15
  br label %20

16:                                               ; preds = %11
  %17 = sext i32 %12 to i64
  %18 = getelementptr inbounds [6 x %"class.google::protobuf::internal::ExplicitlyConstructed.27"], [6 x %"class.google::protobuf::internal::ExplicitlyConstructed.27"]* @_ZN7metricsL64SystemProfileProto_ExternalAudioVideoDevice_AVDeviceType_stringsE, i64 0, i64 %17
  %19 = bitcast %"class.google::protobuf::internal::ExplicitlyConstructed.27"* %18 to %"class.std::__1::basic_string"*
  br label %20

20:                                               ; preds = %16, %14
  %21 = phi %"class.std::__1::basic_string"* [ %15, %14 ], [ %19, %16 ]
  ret %"class.std::__1::basic_string"* %21
}

; Function Attrs: nounwind ssp uwtable
define hidden zeroext i1 @_ZN7metrics62SystemProfileProto_ExternalAudioVideoDevice_AVDeviceType_ParseERKNSt3__112basic_stringIcNS0_11char_traitsIcEENS0_9allocatorIcEEEEPNS_56SystemProfileProto_ExternalAudioVideoDevice_AVDeviceTypeE(%"class.std::__1::basic_string"* dereferenceable(24), i32* nocapture) local_unnamed_addr #0 {
  %3 = alloca i32, align 4
  %4 = bitcast i32* %3 to i8*
  call void @llvm.lifetime.start.p0i8(i64 4, i8* nonnull %4) #15
  store i32 -1431655766, i32* %3, align 4
  %5 = bitcast %"class.std::__1::basic_string"* %0 to %"struct.std::__1::basic_string<char, std::__1::char_traits<char>, std::__1::allocator<char> >::__short"*
  %6 = getelementptr inbounds %"struct.std::__1::basic_string<char, std::__1::char_traits<char>, std::__1::allocator<char> >::__short", %"struct.std::__1::basic_string<char, std::__1::char_traits<char>, std::__1::allocator<char> >::__short"* %5, i64 0, i32 1, i32 0
  %7 = load i8, i8* %6, align 1
  %8 = icmp slt i8 %7, 0
  %9 = getelementptr inbounds %"class.std::__1::basic_string", %"class.std::__1::basic_string"* %0, i64 0, i32 0, i32 0, i32 0, i32 0, i32 0, i32 0
  %10 = load i8*, i8** %9, align 8
  %11 = bitcast %"class.std::__1::basic_string"* %0 to i8*
  %12 = select i1 %8, i8* %10, i8* %11
  br i1 %8, label %15, label %13

13:                                               ; preds = %2
  %14 = zext i8 %7 to i64
  br label %20

15:                                               ; preds = %2
  %16 = getelementptr inbounds %"class.std::__1::basic_string", %"class.std::__1::basic_string"* %0, i64 0, i32 0, i32 0, i32 0, i32 0, i32 0, i32 1
  %17 = load i64, i64* %16, align 8
  %18 = icmp slt i64 %17, 0
  br i1 %18, label %19, label %20

19:                                               ; preds = %15
  tail call void @_ZN6google8protobuf11StringPiece18LogFatalSizeTooBigEmPKc(i64 %17, i8* getelementptr inbounds ([25 x i8], [25 x i8]* @.str.101, i64 0, i64 0)) #15
  br label %20

20:                                               ; preds = %13, %15, %19
  %21 = phi i64 [ %14, %13 ], [ %17, %15 ], [ %17, %19 ]
  %22 = call zeroext i1 @_ZN6google8protobuf8internal15LookUpEnumValueEPKNS1_9EnumEntryEmNS0_11StringPieceEPi(%"struct.google::protobuf::internal::EnumEntry"* getelementptr inbounds ([6 x %"struct.google::protobuf::internal::EnumEntry"], [6 x %"struct.google::protobuf::internal::EnumEntry"]* @_ZN7metricsL64SystemProfileProto_ExternalAudioVideoDevice_AVDeviceType_entriesE, i64 0, i64 0), i64 6, i8* %12, i64 %21, i32* nonnull %3) #15
  br i1 %22, label %23, label %25

23:                                               ; preds = %20
  %24 = load i32, i32* %3, align 4
  store i32 %24, i32* %1, align 4
  br label %25

25:                                               ; preds = %23, %20
  call void @llvm.lifetime.end.p0i8(i64 4, i8* nonnull %4) #15
  ret i1 %22
}

; Function Attrs: norecurse nounwind readnone ssp uwtable
define hidden zeroext i1 @_ZN7metrics65SystemProfileProto_ExternalAudioVideoDevice_ColorEncoding_IsValidEi(i32) local_unnamed_addr #1 {
  %2 = icmp ult i32 %0, 5
  ret i1 %2
}

; Function Attrs: nounwind ssp uwtable
define hidden dereferenceable(24) %"class.std::__1::basic_string"* @_ZN7metrics62SystemProfileProto_ExternalAudioVideoDevice_ColorEncoding_NameENS_57SystemProfileProto_ExternalAudioVideoDevice_ColorEncodingE(i32) local_unnamed_addr #0 {
  %2 = load atomic i8, i8* bitcast (i64* @_ZGVZN7metrics62SystemProfileProto_ExternalAudioVideoDevice_ColorEncoding_NameENS_57SystemProfileProto_ExternalAudioVideoDevice_ColorEncodingEE5dummy to i8*) acquire, align 8
  %3 = icmp eq i8 %2, 0
  br i1 %3, label %4, label %11, !prof !3

4:                                                ; preds = %1
  %5 = tail call i32 @__cxa_guard_acquire(i64* nonnull @_ZGVZN7metrics62SystemProfileProto_ExternalAudioVideoDevice_ColorEncoding_NameENS_57SystemProfileProto_ExternalAudioVideoDevice_ColorEncodingEE5dummy) #15
  %6 = icmp eq i32 %5, 0
  br i1 %6, label %11, label %7

7:                                                ; preds = %4
  %8 = tail call zeroext i1 @_ZN6google8protobuf8internal21InitializeEnumStringsEPKNS1_9EnumEntryEPKimPNS1_21ExplicitlyConstructedINSt3__112basic_stringIcNS8_11char_traitsIcEENS8_9allocatorIcEEEEEE(%"struct.google::protobuf::internal::EnumEntry"* getelementptr inbounds ([5 x %"struct.google::protobuf::internal::EnumEntry"], [5 x %"struct.google::protobuf::internal::EnumEntry"]* @_ZN7metricsL65SystemProfileProto_ExternalAudioVideoDevice_ColorEncoding_entriesE, i64 0, i64 0), i32* getelementptr inbounds ([5 x i32], [5 x i32]* @_ZN7metricsL75SystemProfileProto_ExternalAudioVideoDevice_ColorEncoding_entries_by_numberE, i64 0, i64 0), i64 5, %"class.google::protobuf::internal::ExplicitlyConstructed.27"* getelementptr inbounds ([5 x %"class.google::protobuf::internal::ExplicitlyConstructed.27"], [5 x %"class.google::protobuf::internal::ExplicitlyConstructed.27"]* @_ZN7metricsL65SystemProfileProto_ExternalAudioVideoDevice_ColorEncoding_stringsE, i64 0, i64 0)) #15
  %9 = zext i1 %8 to i8
  store i8 %9, i8* @_ZZN7metrics62SystemProfileProto_ExternalAudioVideoDevice_ColorEncoding_NameENS_57SystemProfileProto_ExternalAudioVideoDevice_ColorEncodingEE5dummy, align 1
  %10 = tail call {}* @llvm.invariant.start.p0i8(i64 1, i8* nonnull @_ZZN7metrics62SystemProfileProto_ExternalAudioVideoDevice_ColorEncoding_NameENS_57SystemProfileProto_ExternalAudioVideoDevice_ColorEncodingEE5dummy)
  tail call void @__cxa_guard_release(i64* nonnull @_ZGVZN7metrics62SystemProfileProto_ExternalAudioVideoDevice_ColorEncoding_NameENS_57SystemProfileProto_ExternalAudioVideoDevice_ColorEncodingEE5dummy) #15
  br label %11

11:                                               ; preds = %4, %7, %1
  %12 = tail call i32 @_ZN6google8protobuf8internal14LookUpEnumNameEPKNS1_9EnumEntryEPKimi(%"struct.google::protobuf::internal::EnumEntry"* getelementptr inbounds ([5 x %"struct.google::protobuf::internal::EnumEntry"], [5 x %"struct.google::protobuf::internal::EnumEntry"]* @_ZN7metricsL65SystemProfileProto_ExternalAudioVideoDevice_ColorEncoding_entriesE, i64 0, i64 0), i32* getelementptr inbounds ([5 x i32], [5 x i32]* @_ZN7metricsL75SystemProfileProto_ExternalAudioVideoDevice_ColorEncoding_entries_by_numberE, i64 0, i64 0), i64 5, i32 %0) #15
  %13 = icmp eq i32 %12, -1
  br i1 %13, label %14, label %16

14:                                               ; preds = %11
  %15 = tail call dereferenceable(24) %"class.std::__1::basic_string"* @_ZN6google8protobuf8internal14GetEmptyStringEv() #15
  br label %20

16:                                               ; preds = %11
  %17 = sext i32 %12 to i64
  %18 = getelementptr inbounds [5 x %"class.google::protobuf::internal::ExplicitlyConstructed.27"], [5 x %"class.google::protobuf::internal::ExplicitlyConstructed.27"]* @_ZN7metricsL65SystemProfileProto_ExternalAudioVideoDevice_ColorEncoding_stringsE, i64 0, i64 %17
  %19 = bitcast %"class.google::protobuf::internal::ExplicitlyConstructed.27"* %18 to %"class.std::__1::basic_string"*
  br label %20

20:                                               ; preds = %16, %14
  %21 = phi %"class.std::__1::basic_string"* [ %15, %14 ], [ %19, %16 ]
  ret %"class.std::__1::basic_string"* %21
}

; Function Attrs: nounwind ssp uwtable
define hidden zeroext i1 @_ZN7metrics63SystemProfileProto_ExternalAudioVideoDevice_ColorEncoding_ParseERKNSt3__112basic_stringIcNS0_11char_traitsIcEENS0_9allocatorIcEEEEPNS_57SystemProfileProto_ExternalAudioVideoDevice_ColorEncodingE(%"class.std::__1::basic_string"* dereferenceable(24), i32* nocapture) local_unnamed_addr #0 {
  %3 = alloca i32, align 4
  %4 = bitcast i32* %3 to i8*
  call void @llvm.lifetime.start.p0i8(i64 4, i8* nonnull %4) #15
  store i32 -1431655766, i32* %3, align 4
  %5 = bitcast %"class.std::__1::basic_string"* %0 to %"struct.std::__1::basic_string<char, std::__1::char_traits<char>, std::__1::allocator<char> >::__short"*
  %6 = getelementptr inbounds %"struct.std::__1::basic_string<char, std::__1::char_traits<char>, std::__1::allocator<char> >::__short", %"struct.std::__1::basic_string<char, std::__1::char_traits<char>, std::__1::allocator<char> >::__short"* %5, i64 0, i32 1, i32 0
  %7 = load i8, i8* %6, align 1
  %8 = icmp slt i8 %7, 0
  %9 = getelementptr inbounds %"class.std::__1::basic_string", %"class.std::__1::basic_string"* %0, i64 0, i32 0, i32 0, i32 0, i32 0, i32 0, i32 0
  %10 = load i8*, i8** %9, align 8
  %11 = bitcast %"class.std::__1::basic_string"* %0 to i8*
  %12 = select i1 %8, i8* %10, i8* %11
  br i1 %8, label %15, label %13

13:                                               ; preds = %2
  %14 = zext i8 %7 to i64
  br label %20

15:                                               ; preds = %2
  %16 = getelementptr inbounds %"class.std::__1::basic_string", %"class.std::__1::basic_string"* %0, i64 0, i32 0, i32 0, i32 0, i32 0, i32 0, i32 1
  %17 = load i64, i64* %16, align 8
  %18 = icmp slt i64 %17, 0
  br i1 %18, label %19, label %20

19:                                               ; preds = %15
  tail call void @_ZN6google8protobuf11StringPiece18LogFatalSizeTooBigEmPKc(i64 %17, i8* getelementptr inbounds ([25 x i8], [25 x i8]* @.str.101, i64 0, i64 0)) #15
  br label %20

20:                                               ; preds = %13, %15, %19
  %21 = phi i64 [ %14, %13 ], [ %17, %15 ], [ %17, %19 ]
  %22 = call zeroext i1 @_ZN6google8protobuf8internal15LookUpEnumValueEPKNS1_9EnumEntryEmNS0_11StringPieceEPi(%"struct.google::protobuf::internal::EnumEntry"* getelementptr inbounds ([5 x %"struct.google::protobuf::internal::EnumEntry"], [5 x %"struct.google::protobuf::internal::EnumEntry"]* @_ZN7metricsL65SystemProfileProto_ExternalAudioVideoDevice_ColorEncoding_entriesE, i64 0, i64 0), i64 5, i8* %12, i64 %21, i32* nonnull %3) #15
  br i1 %22, label %23, label %25

23:                                               ; preds = %20
  %24 = load i32, i32* %3, align 4
  store i32 %24, i32* %1, align 4
  br label %25

25:                                               ; preds = %23, %20
  call void @llvm.lifetime.end.p0i8(i64 4, i8* nonnull %4) #15
  ret i1 %22
}

; Function Attrs: norecurse nounwind readnone ssp uwtable
define hidden zeroext i1 @_ZN7metrics34SystemProfileProto_Channel_IsValidEi(i32) local_unnamed_addr #1 {
  %2 = icmp ult i32 %0, 5
  ret i1 %2
}

; Function Attrs: nounwind ssp uwtable
define hidden dereferenceable(24) %"class.std::__1::basic_string"* @_ZN7metrics31SystemProfileProto_Channel_NameENS_26SystemProfileProto_ChannelE(i32) local_unnamed_addr #0 {
  %2 = load atomic i8, i8* bitcast (i64* @_ZGVZN7metrics31SystemProfileProto_Channel_NameENS_26SystemProfileProto_ChannelEE5dummy to i8*) acquire, align 8
  %3 = icmp eq i8 %2, 0
  br i1 %3, label %4, label %11, !prof !3

4:                                                ; preds = %1
  %5 = tail call i32 @__cxa_guard_acquire(i64* nonnull @_ZGVZN7metrics31SystemProfileProto_Channel_NameENS_26SystemProfileProto_ChannelEE5dummy) #15
  %6 = icmp eq i32 %5, 0
  br i1 %6, label %11, label %7

7:                                                ; preds = %4
  %8 = tail call zeroext i1 @_ZN6google8protobuf8internal21InitializeEnumStringsEPKNS1_9EnumEntryEPKimPNS1_21ExplicitlyConstructedINSt3__112basic_stringIcNS8_11char_traitsIcEENS8_9allocatorIcEEEEEE(%"struct.google::protobuf::internal::EnumEntry"* getelementptr inbounds ([5 x %"struct.google::protobuf::internal::EnumEntry"], [5 x %"struct.google::protobuf::internal::EnumEntry"]* @_ZN7metricsL34SystemProfileProto_Channel_entriesE, i64 0, i64 0), i32* getelementptr inbounds ([5 x i32], [5 x i32]* @_ZN7metricsL44SystemProfileProto_Channel_entries_by_numberE, i64 0, i64 0), i64 5, %"class.google::protobuf::internal::ExplicitlyConstructed.27"* getelementptr inbounds ([5 x %"class.google::protobuf::internal::ExplicitlyConstructed.27"], [5 x %"class.google::protobuf::internal::ExplicitlyConstructed.27"]* @_ZN7metricsL34SystemProfileProto_Channel_stringsE, i64 0, i64 0)) #15
  %9 = zext i1 %8 to i8
  store i8 %9, i8* @_ZZN7metrics31SystemProfileProto_Channel_NameENS_26SystemProfileProto_ChannelEE5dummy, align 1
  %10 = tail call {}* @llvm.invariant.start.p0i8(i64 1, i8* nonnull @_ZZN7metrics31SystemProfileProto_Channel_NameENS_26SystemProfileProto_ChannelEE5dummy)
  tail call void @__cxa_guard_release(i64* nonnull @_ZGVZN7metrics31SystemProfileProto_Channel_NameENS_26SystemProfileProto_ChannelEE5dummy) #15
  br label %11

11:                                               ; preds = %4, %7, %1
  %12 = tail call i32 @_ZN6google8protobuf8internal14LookUpEnumNameEPKNS1_9EnumEntryEPKimi(%"struct.google::protobuf::internal::EnumEntry"* getelementptr inbounds ([5 x %"struct.google::protobuf::internal::EnumEntry"], [5 x %"struct.google::protobuf::internal::EnumEntry"]* @_ZN7metricsL34SystemProfileProto_Channel_entriesE, i64 0, i64 0), i32* getelementptr inbounds ([5 x i32], [5 x i32]* @_ZN7metricsL44SystemProfileProto_Channel_entries_by_numberE, i64 0, i64 0), i64 5, i32 %0) #15
  %13 = icmp eq i32 %12, -1
  br i1 %13, label %14, label %16

14:                                               ; preds = %11
  %15 = tail call dereferenceable(24) %"class.std::__1::basic_string"* @_ZN6google8protobuf8internal14GetEmptyStringEv() #15
  br label %20

16:                                               ; preds = %11
  %17 = sext i32 %12 to i64
  %18 = getelementptr inbounds [5 x %"class.google::protobuf::internal::ExplicitlyConstructed.27"], [5 x %"class.google::protobuf::internal::ExplicitlyConstructed.27"]* @_ZN7metricsL34SystemProfileProto_Channel_stringsE, i64 0, i64 %17
  %19 = bitcast %"class.google::protobuf::internal::ExplicitlyConstructed.27"* %18 to %"class.std::__1::basic_string"*
  br label %20

20:                                               ; preds = %16, %14
  %21 = phi %"class.std::__1::basic_string"* [ %15, %14 ], [ %19, %16 ]
  ret %"class.std::__1::basic_string"* %21
}

; Function Attrs: nounwind ssp uwtable
define hidden zeroext i1 @_ZN7metrics32SystemProfileProto_Channel_ParseERKNSt3__112basic_stringIcNS0_11char_traitsIcEENS0_9allocatorIcEEEEPNS_26SystemProfileProto_ChannelE(%"class.std::__1::basic_string"* dereferenceable(24), i32* nocapture) local_unnamed_addr #0 {
  %3 = alloca i32, align 4
  %4 = bitcast i32* %3 to i8*
  call void @llvm.lifetime.start.p0i8(i64 4, i8* nonnull %4) #15
  store i32 -1431655766, i32* %3, align 4
  %5 = bitcast %"class.std::__1::basic_string"* %0 to %"struct.std::__1::basic_string<char, std::__1::char_traits<char>, std::__1::allocator<char> >::__short"*
  %6 = getelementptr inbounds %"struct.std::__1::basic_string<char, std::__1::char_traits<char>, std::__1::allocator<char> >::__short", %"struct.std::__1::basic_string<char, std::__1::char_traits<char>, std::__1::allocator<char> >::__short"* %5, i64 0, i32 1, i32 0
  %7 = load i8, i8* %6, align 1
  %8 = icmp slt i8 %7, 0
  %9 = getelementptr inbounds %"class.std::__1::basic_string", %"class.std::__1::basic_string"* %0, i64 0, i32 0, i32 0, i32 0, i32 0, i32 0, i32 0
  %10 = load i8*, i8** %9, align 8
  %11 = bitcast %"class.std::__1::basic_string"* %0 to i8*
  %12 = select i1 %8, i8* %10, i8* %11
  br i1 %8, label %15, label %13

13:                                               ; preds = %2
  %14 = zext i8 %7 to i64
  br label %20

15:                                               ; preds = %2
  %16 = getelementptr inbounds %"class.std::__1::basic_string", %"class.std::__1::basic_string"* %0, i64 0, i32 0, i32 0, i32 0, i32 0, i32 0, i32 1
  %17 = load i64, i64* %16, align 8
  %18 = icmp slt i64 %17, 0
  br i1 %18, label %19, label %20

19:                                               ; preds = %15
  tail call void @_ZN6google8protobuf11StringPiece18LogFatalSizeTooBigEmPKc(i64 %17, i8* getelementptr inbounds ([25 x i8], [25 x i8]* @.str.101, i64 0, i64 0)) #15
  br label %20

20:                                               ; preds = %13, %15, %19
  %21 = phi i64 [ %14, %13 ], [ %17, %15 ], [ %17, %19 ]
  %22 = call zeroext i1 @_ZN6google8protobuf8internal15LookUpEnumValueEPKNS1_9EnumEntryEmNS0_11StringPieceEPi(%"struct.google::protobuf::internal::EnumEntry"* getelementptr inbounds ([5 x %"struct.google::protobuf::internal::EnumEntry"], [5 x %"struct.google::protobuf::internal::EnumEntry"]* @_ZN7metricsL34SystemProfileProto_Channel_entriesE, i64 0, i64 0), i64 5, i8* %12, i64 %21, i32* nonnull %3) #15
  br i1 %22, label %23, label %25

23:                                               ; preds = %20
  %24 = load i32, i32* %3, align 4
  store i32 %24, i32* %1, align 4
  br label %25

25:                                               ; preds = %23, %20
  call void @llvm.lifetime.end.p0i8(i64 4, i8* nonnull %4) #15
  ret i1 %22
}

; Function Attrs: norecurse nounwind readnone ssp uwtable
define hidden zeroext i1 @_ZN7metrics42SystemProfileProto_ExtensionsState_IsValidEi(i32) local_unnamed_addr #1 {
  %2 = icmp ult i32 %0, 4
  ret i1 %2
}

; Function Attrs: nounwind ssp uwtable
define hidden dereferenceable(24) %"class.std::__1::basic_string"* @_ZN7metrics39SystemProfileProto_ExtensionsState_NameENS_34SystemProfileProto_ExtensionsStateE(i32) local_unnamed_addr #0 {
  %2 = load atomic i8, i8* bitcast (i64* @_ZGVZN7metrics39SystemProfileProto_ExtensionsState_NameENS_34SystemProfileProto_ExtensionsStateEE5dummy to i8*) acquire, align 8
  %3 = icmp eq i8 %2, 0
  br i1 %3, label %4, label %11, !prof !3

4:                                                ; preds = %1
  %5 = tail call i32 @__cxa_guard_acquire(i64* nonnull @_ZGVZN7metrics39SystemProfileProto_ExtensionsState_NameENS_34SystemProfileProto_ExtensionsStateEE5dummy) #15
  %6 = icmp eq i32 %5, 0
  br i1 %6, label %11, label %7

7:                                                ; preds = %4
  %8 = tail call zeroext i1 @_ZN6google8protobuf8internal21InitializeEnumStringsEPKNS1_9EnumEntryEPKimPNS1_21ExplicitlyConstructedINSt3__112basic_stringIcNS8_11char_traitsIcEENS8_9allocatorIcEEEEEE(%"struct.google::protobuf::internal::EnumEntry"* getelementptr inbounds ([4 x %"struct.google::protobuf::internal::EnumEntry"], [4 x %"struct.google::protobuf::internal::EnumEntry"]* @_ZN7metricsL42SystemProfileProto_ExtensionsState_entriesE, i64 0, i64 0), i32* getelementptr inbounds ([4 x i32], [4 x i32]* @_ZN7metricsL52SystemProfileProto_ExtensionsState_entries_by_numberE, i64 0, i64 0), i64 4, %"class.google::protobuf::internal::ExplicitlyConstructed.27"* getelementptr inbounds ([4 x %"class.google::protobuf::internal::ExplicitlyConstructed.27"], [4 x %"class.google::protobuf::internal::ExplicitlyConstructed.27"]* @_ZN7metricsL42SystemProfileProto_ExtensionsState_stringsE, i64 0, i64 0)) #15
  %9 = zext i1 %8 to i8
  store i8 %9, i8* @_ZZN7metrics39SystemProfileProto_ExtensionsState_NameENS_34SystemProfileProto_ExtensionsStateEE5dummy, align 1
  %10 = tail call {}* @llvm.invariant.start.p0i8(i64 1, i8* nonnull @_ZZN7metrics39SystemProfileProto_ExtensionsState_NameENS_34SystemProfileProto_ExtensionsStateEE5dummy)
  tail call void @__cxa_guard_release(i64* nonnull @_ZGVZN7metrics39SystemProfileProto_ExtensionsState_NameENS_34SystemProfileProto_ExtensionsStateEE5dummy) #15
  br label %11

11:                                               ; preds = %4, %7, %1
  %12 = tail call i32 @_ZN6google8protobuf8internal14LookUpEnumNameEPKNS1_9EnumEntryEPKimi(%"struct.google::protobuf::internal::EnumEntry"* getelementptr inbounds ([4 x %"struct.google::protobuf::internal::EnumEntry"], [4 x %"struct.google::protobuf::internal::EnumEntry"]* @_ZN7metricsL42SystemProfileProto_ExtensionsState_entriesE, i64 0, i64 0), i32* getelementptr inbounds ([4 x i32], [4 x i32]* @_ZN7metricsL52SystemProfileProto_ExtensionsState_entries_by_numberE, i64 0, i64 0), i64 4, i32 %0) #15
  %13 = icmp eq i32 %12, -1
  br i1 %13, label %14, label %16

14:                                               ; preds = %11
  %15 = tail call dereferenceable(24) %"class.std::__1::basic_string"* @_ZN6google8protobuf8internal14GetEmptyStringEv() #15
  br label %20

16:                                               ; preds = %11
  %17 = sext i32 %12 to i64
  %18 = getelementptr inbounds [4 x %"class.google::protobuf::internal::ExplicitlyConstructed.27"], [4 x %"class.google::protobuf::internal::ExplicitlyConstructed.27"]* @_ZN7metricsL42SystemProfileProto_ExtensionsState_stringsE, i64 0, i64 %17
  %19 = bitcast %"class.google::protobuf::internal::ExplicitlyConstructed.27"* %18 to %"class.std::__1::basic_string"*
  br label %20

20:                                               ; preds = %16, %14
  %21 = phi %"class.std::__1::basic_string"* [ %15, %14 ], [ %19, %16 ]
  ret %"class.std::__1::basic_string"* %21
}

; Function Attrs: nounwind ssp uwtable
define hidden zeroext i1 @_ZN7metrics40SystemProfileProto_ExtensionsState_ParseERKNSt3__112basic_stringIcNS0_11char_traitsIcEENS0_9allocatorIcEEEEPNS_34SystemProfileProto_ExtensionsStateE(%"class.std::__1::basic_string"* dereferenceable(24), i32* nocapture) local_unnamed_addr #0 {
  %3 = alloca i32, align 4
  %4 = bitcast i32* %3 to i8*
  call void @llvm.lifetime.start.p0i8(i64 4, i8* nonnull %4) #15
  store i32 -1431655766, i32* %3, align 4
  %5 = bitcast %"class.std::__1::basic_string"* %0 to %"struct.std::__1::basic_string<char, std::__1::char_traits<char>, std::__1::allocator<char> >::__short"*
  %6 = getelementptr inbounds %"struct.std::__1::basic_string<char, std::__1::char_traits<char>, std::__1::allocator<char> >::__short", %"struct.std::__1::basic_string<char, std::__1::char_traits<char>, std::__1::allocator<char> >::__short"* %5, i64 0, i32 1, i32 0
  %7 = load i8, i8* %6, align 1
  %8 = icmp slt i8 %7, 0
  %9 = getelementptr inbounds %"class.std::__1::basic_string", %"class.std::__1::basic_string"* %0, i64 0, i32 0, i32 0, i32 0, i32 0, i32 0, i32 0
  %10 = load i8*, i8** %9, align 8
  %11 = bitcast %"class.std::__1::basic_string"* %0 to i8*
  %12 = select i1 %8, i8* %10, i8* %11
  br i1 %8, label %15, label %13

13:                                               ; preds = %2
  %14 = zext i8 %7 to i64
  br label %20

15:                                               ; preds = %2
  %16 = getelementptr inbounds %"class.std::__1::basic_string", %"class.std::__1::basic_string"* %0, i64 0, i32 0, i32 0, i32 0, i32 0, i32 0, i32 1
  %17 = load i64, i64* %16, align 8
  %18 = icmp slt i64 %17, 0
  br i1 %18, label %19, label %20

19:                                               ; preds = %15
  tail call void @_ZN6google8protobuf11StringPiece18LogFatalSizeTooBigEmPKc(i64 %17, i8* getelementptr inbounds ([25 x i8], [25 x i8]* @.str.101, i64 0, i64 0)) #15
  br label %20

20:                                               ; preds = %13, %15, %19
  %21 = phi i64 [ %14, %13 ], [ %17, %15 ], [ %17, %19 ]
  %22 = call zeroext i1 @_ZN6google8protobuf8internal15LookUpEnumValueEPKNS1_9EnumEntryEmNS0_11StringPieceEPi(%"struct.google::protobuf::internal::EnumEntry"* getelementptr inbounds ([4 x %"struct.google::protobuf::internal::EnumEntry"], [4 x %"struct.google::protobuf::internal::EnumEntry"]* @_ZN7metricsL42SystemProfileProto_ExtensionsState_entriesE, i64 0, i64 0), i64 4, i8* %12, i64 %21, i32* nonnull %3) #15
  br i1 %22, label %23, label %25

23:                                               ; preds = %20
  %24 = load i32, i32* %3, align 4
  store i32 %24, i32* %1, align 4
  br label %25

25:                                               ; preds = %23, %20
  call void @llvm.lifetime.end.p0i8(i64 4, i8* nonnull %4) #15
  ret i1 %22
}

; Function Attrs: norecurse nounwind readnone ssp uwtable
define hidden zeroext i1 @_ZN7metrics42SystemProfileProto_UmaDefaultState_IsValidEi(i32) local_unnamed_addr #1 {
  %2 = icmp ult i32 %0, 4
  ret i1 %2
}

; Function Attrs: nounwind ssp uwtable
define hidden dereferenceable(24) %"class.std::__1::basic_string"* @_ZN7metrics39SystemProfileProto_UmaDefaultState_NameENS_34SystemProfileProto_UmaDefaultStateE(i32) local_unnamed_addr #0 {
  %2 = load atomic i8, i8* bitcast (i64* @_ZGVZN7metrics39SystemProfileProto_UmaDefaultState_NameENS_34SystemProfileProto_UmaDefaultStateEE5dummy to i8*) acquire, align 8
  %3 = icmp eq i8 %2, 0
  br i1 %3, label %4, label %11, !prof !3

4:                                                ; preds = %1
  %5 = tail call i32 @__cxa_guard_acquire(i64* nonnull @_ZGVZN7metrics39SystemProfileProto_UmaDefaultState_NameENS_34SystemProfileProto_UmaDefaultStateEE5dummy) #15
  %6 = icmp eq i32 %5, 0
  br i1 %6, label %11, label %7

7:                                                ; preds = %4
  %8 = tail call zeroext i1 @_ZN6google8protobuf8internal21InitializeEnumStringsEPKNS1_9EnumEntryEPKimPNS1_21ExplicitlyConstructedINSt3__112basic_stringIcNS8_11char_traitsIcEENS8_9allocatorIcEEEEEE(%"struct.google::protobuf::internal::EnumEntry"* getelementptr inbounds ([4 x %"struct.google::protobuf::internal::EnumEntry"], [4 x %"struct.google::protobuf::internal::EnumEntry"]* @_ZN7metricsL42SystemProfileProto_UmaDefaultState_entriesE, i64 0, i64 0), i32* getelementptr inbounds ([4 x i32], [4 x i32]* @_ZN7metricsL52SystemProfileProto_UmaDefaultState_entries_by_numberE, i64 0, i64 0), i64 4, %"class.google::protobuf::internal::ExplicitlyConstructed.27"* getelementptr inbounds ([4 x %"class.google::protobuf::internal::ExplicitlyConstructed.27"], [4 x %"class.google::protobuf::internal::ExplicitlyConstructed.27"]* @_ZN7metricsL42SystemProfileProto_UmaDefaultState_stringsE, i64 0, i64 0)) #15
  %9 = zext i1 %8 to i8
  store i8 %9, i8* @_ZZN7metrics39SystemProfileProto_UmaDefaultState_NameENS_34SystemProfileProto_UmaDefaultStateEE5dummy, align 1
  %10 = tail call {}* @llvm.invariant.start.p0i8(i64 1, i8* nonnull @_ZZN7metrics39SystemProfileProto_UmaDefaultState_NameENS_34SystemProfileProto_UmaDefaultStateEE5dummy)
  tail call void @__cxa_guard_release(i64* nonnull @_ZGVZN7metrics39SystemProfileProto_UmaDefaultState_NameENS_34SystemProfileProto_UmaDefaultStateEE5dummy) #15
  br label %11

11:                                               ; preds = %4, %7, %1
  %12 = tail call i32 @_ZN6google8protobuf8internal14LookUpEnumNameEPKNS1_9EnumEntryEPKimi(%"struct.google::protobuf::internal::EnumEntry"* getelementptr inbounds ([4 x %"struct.google::protobuf::internal::EnumEntry"], [4 x %"struct.google::protobuf::internal::EnumEntry"]* @_ZN7metricsL42SystemProfileProto_UmaDefaultState_entriesE, i64 0, i64 0), i32* getelementptr inbounds ([4 x i32], [4 x i32]* @_ZN7metricsL52SystemProfileProto_UmaDefaultState_entries_by_numberE, i64 0, i64 0), i64 4, i32 %0) #15
  %13 = icmp eq i32 %12, -1
  br i1 %13, label %14, label %16

14:                                               ; preds = %11
  %15 = tail call dereferenceable(24) %"class.std::__1::basic_string"* @_ZN6google8protobuf8internal14GetEmptyStringEv() #15
  br label %20

16:                                               ; preds = %11
  %17 = sext i32 %12 to i64
  %18 = getelementptr inbounds [4 x %"class.google::protobuf::internal::ExplicitlyConstructed.27"], [4 x %"class.google::protobuf::internal::ExplicitlyConstructed.27"]* @_ZN7metricsL42SystemProfileProto_UmaDefaultState_stringsE, i64 0, i64 %17
  %19 = bitcast %"class.google::protobuf::internal::ExplicitlyConstructed.27"* %18 to %"class.std::__1::basic_string"*
  br label %20

20:                                               ; preds = %16, %14
  %21 = phi %"class.std::__1::basic_string"* [ %15, %14 ], [ %19, %16 ]
  ret %"class.std::__1::basic_string"* %21
}

; Function Attrs: nounwind ssp uwtable
define hidden zeroext i1 @_ZN7metrics40SystemProfileProto_UmaDefaultState_ParseERKNSt3__112basic_stringIcNS0_11char_traitsIcEENS0_9allocatorIcEEEEPNS_34SystemProfileProto_UmaDefaultStateE(%"class.std::__1::basic_string"* dereferenceable(24), i32* nocapture) local_unnamed_addr #0 {
  %3 = alloca i32, align 4
  %4 = bitcast i32* %3 to i8*
  call void @llvm.lifetime.start.p0i8(i64 4, i8* nonnull %4) #15
  store i32 -1431655766, i32* %3, align 4
  %5 = bitcast %"class.std::__1::basic_string"* %0 to %"struct.std::__1::basic_string<char, std::__1::char_traits<char>, std::__1::allocator<char> >::__short"*
  %6 = getelementptr inbounds %"struct.std::__1::basic_string<char, std::__1::char_traits<char>, std::__1::allocator<char> >::__short", %"struct.std::__1::basic_string<char, std::__1::char_traits<char>, std::__1::allocator<char> >::__short"* %5, i64 0, i32 1, i32 0
  %7 = load i8, i8* %6, align 1
  %8 = icmp slt i8 %7, 0
  %9 = getelementptr inbounds %"class.std::__1::basic_string", %"class.std::__1::basic_string"* %0, i64 0, i32 0, i32 0, i32 0, i32 0, i32 0, i32 0
  %10 = load i8*, i8** %9, align 8
  %11 = bitcast %"class.std::__1::basic_string"* %0 to i8*
  %12 = select i1 %8, i8* %10, i8* %11
  br i1 %8, label %15, label %13

13:                                               ; preds = %2
  %14 = zext i8 %7 to i64
  br label %20

15:                                               ; preds = %2
  %16 = getelementptr inbounds %"class.std::__1::basic_string", %"class.std::__1::basic_string"* %0, i64 0, i32 0, i32 0, i32 0, i32 0, i32 0, i32 1
  %17 = load i64, i64* %16, align 8
  %18 = icmp slt i64 %17, 0
  br i1 %18, label %19, label %20

19:                                               ; preds = %15
  tail call void @_ZN6google8protobuf11StringPiece18LogFatalSizeTooBigEmPKc(i64 %17, i8* getelementptr inbounds ([25 x i8], [25 x i8]* @.str.101, i64 0, i64 0)) #15
  br label %20

20:                                               ; preds = %13, %15, %19
  %21 = phi i64 [ %14, %13 ], [ %17, %15 ], [ %17, %19 ]
  %22 = call zeroext i1 @_ZN6google8protobuf8internal15LookUpEnumValueEPKNS1_9EnumEntryEmNS0_11StringPieceEPi(%"struct.google::protobuf::internal::EnumEntry"* getelementptr inbounds ([4 x %"struct.google::protobuf::internal::EnumEntry"], [4 x %"struct.google::protobuf::internal::EnumEntry"]* @_ZN7metricsL42SystemProfileProto_UmaDefaultState_entriesE, i64 0, i64 0), i64 4, i8* %12, i64 %21, i32* nonnull %3) #15
  br i1 %22, label %23, label %25

23:                                               ; preds = %20
  %24 = load i32, i32* %3, align 4
  store i32 %24, i32* %1, align 4
  br label %25

25:                                               ; preds = %23, %20
  call void @llvm.lifetime.end.p0i8(i64 4, i8* nonnull %4) #15
  ret i1 %22
}

; Function Attrs: norecurse nounwind readnone ssp uwtable
define hidden zeroext i1 @_ZN7metrics41SystemProfileProto_AntiVirusState_IsValidEi(i32) local_unnamed_addr #1 {
  %2 = icmp ult i32 %0, 4
  ret i1 %2
}

; Function Attrs: nounwind ssp uwtable
define hidden dereferenceable(24) %"class.std::__1::basic_string"* @_ZN7metrics38SystemProfileProto_AntiVirusState_NameENS_33SystemProfileProto_AntiVirusStateE(i32) local_unnamed_addr #0 {
  %2 = load atomic i8, i8* bitcast (i64* @_ZGVZN7metrics38SystemProfileProto_AntiVirusState_NameENS_33SystemProfileProto_AntiVirusStateEE5dummy to i8*) acquire, align 8
  %3 = icmp eq i8 %2, 0
  br i1 %3, label %4, label %11, !prof !3

4:                                                ; preds = %1
  %5 = tail call i32 @__cxa_guard_acquire(i64* nonnull @_ZGVZN7metrics38SystemProfileProto_AntiVirusState_NameENS_33SystemProfileProto_AntiVirusStateEE5dummy) #15
  %6 = icmp eq i32 %5, 0
  br i1 %6, label %11, label %7

7:                                                ; preds = %4
  %8 = tail call zeroext i1 @_ZN6google8protobuf8internal21InitializeEnumStringsEPKNS1_9EnumEntryEPKimPNS1_21ExplicitlyConstructedINSt3__112basic_stringIcNS8_11char_traitsIcEENS8_9allocatorIcEEEEEE(%"struct.google::protobuf::internal::EnumEntry"* getelementptr inbounds ([4 x %"struct.google::protobuf::internal::EnumEntry"], [4 x %"struct.google::protobuf::internal::EnumEntry"]* @_ZN7metricsL41SystemProfileProto_AntiVirusState_entriesE, i64 0, i64 0), i32* getelementptr inbounds ([4 x i32], [4 x i32]* @_ZN7metricsL51SystemProfileProto_AntiVirusState_entries_by_numberE, i64 0, i64 0), i64 4, %"class.google::protobuf::internal::ExplicitlyConstructed.27"* getelementptr inbounds ([4 x %"class.google::protobuf::internal::ExplicitlyConstructed.27"], [4 x %"class.google::protobuf::internal::ExplicitlyConstructed.27"]* @_ZN7metricsL41SystemProfileProto_AntiVirusState_stringsE, i64 0, i64 0)) #15
  %9 = zext i1 %8 to i8
  store i8 %9, i8* @_ZZN7metrics38SystemProfileProto_AntiVirusState_NameENS_33SystemProfileProto_AntiVirusStateEE5dummy, align 1
  %10 = tail call {}* @llvm.invariant.start.p0i8(i64 1, i8* nonnull @_ZZN7metrics38SystemProfileProto_AntiVirusState_NameENS_33SystemProfileProto_AntiVirusStateEE5dummy)
  tail call void @__cxa_guard_release(i64* nonnull @_ZGVZN7metrics38SystemProfileProto_AntiVirusState_NameENS_33SystemProfileProto_AntiVirusStateEE5dummy) #15
  br label %11

11:                                               ; preds = %4, %7, %1
  %12 = tail call i32 @_ZN6google8protobuf8internal14LookUpEnumNameEPKNS1_9EnumEntryEPKimi(%"struct.google::protobuf::internal::EnumEntry"* getelementptr inbounds ([4 x %"struct.google::protobuf::internal::EnumEntry"], [4 x %"struct.google::protobuf::internal::EnumEntry"]* @_ZN7metricsL41SystemProfileProto_AntiVirusState_entriesE, i64 0, i64 0), i32* getelementptr inbounds ([4 x i32], [4 x i32]* @_ZN7metricsL51SystemProfileProto_AntiVirusState_entries_by_numberE, i64 0, i64 0), i64 4, i32 %0) #15
  %13 = icmp eq i32 %12, -1
  br i1 %13, label %14, label %16

14:                                               ; preds = %11
  %15 = tail call dereferenceable(24) %"class.std::__1::basic_string"* @_ZN6google8protobuf8internal14GetEmptyStringEv() #15
  br label %20

16:                                               ; preds = %11
  %17 = sext i32 %12 to i64
  %18 = getelementptr inbounds [4 x %"class.google::protobuf::internal::ExplicitlyConstructed.27"], [4 x %"class.google::protobuf::internal::ExplicitlyConstructed.27"]* @_ZN7metricsL41SystemProfileProto_AntiVirusState_stringsE, i64 0, i64 %17
  %19 = bitcast %"class.google::protobuf::internal::ExplicitlyConstructed.27"* %18 to %"class.std::__1::basic_string"*
  br label %20

20:                                               ; preds = %16, %14
  %21 = phi %"class.std::__1::basic_string"* [ %15, %14 ], [ %19, %16 ]
  ret %"class.std::__1::basic_string"* %21
}

; Function Attrs: nounwind ssp uwtable
define hidden zeroext i1 @_ZN7metrics39SystemProfileProto_AntiVirusState_ParseERKNSt3__112basic_stringIcNS0_11char_traitsIcEENS0_9allocatorIcEEEEPNS_33SystemProfileProto_AntiVirusStateE(%"class.std::__1::basic_string"* dereferenceable(24), i32* nocapture) local_unnamed_addr #0 {
  %3 = alloca i32, align 4
  %4 = bitcast i32* %3 to i8*
  call void @llvm.lifetime.start.p0i8(i64 4, i8* nonnull %4) #15
  store i32 -1431655766, i32* %3, align 4
  %5 = bitcast %"class.std::__1::basic_string"* %0 to %"struct.std::__1::basic_string<char, std::__1::char_traits<char>, std::__1::allocator<char> >::__short"*
  %6 = getelementptr inbounds %"struct.std::__1::basic_string<char, std::__1::char_traits<char>, std::__1::allocator<char> >::__short", %"struct.std::__1::basic_string<char, std::__1::char_traits<char>, std::__1::allocator<char> >::__short"* %5, i64 0, i32 1, i32 0
  %7 = load i8, i8* %6, align 1
  %8 = icmp slt i8 %7, 0
  %9 = getelementptr inbounds %"class.std::__1::basic_string", %"class.std::__1::basic_string"* %0, i64 0, i32 0, i32 0, i32 0, i32 0, i32 0, i32 0
  %10 = load i8*, i8** %9, align 8
  %11 = bitcast %"class.std::__1::basic_string"* %0 to i8*
  %12 = select i1 %8, i8* %10, i8* %11
  br i1 %8, label %15, label %13

13:                                               ; preds = %2
  %14 = zext i8 %7 to i64
  br label %20

15:                                               ; preds = %2
  %16 = getelementptr inbounds %"class.std::__1::basic_string", %"class.std::__1::basic_string"* %0, i64 0, i32 0, i32 0, i32 0, i32 0, i32 0, i32 1
  %17 = load i64, i64* %16, align 8
  %18 = icmp slt i64 %17, 0
  br i1 %18, label %19, label %20

19:                                               ; preds = %15
  tail call void @_ZN6google8protobuf11StringPiece18LogFatalSizeTooBigEmPKc(i64 %17, i8* getelementptr inbounds ([25 x i8], [25 x i8]* @.str.101, i64 0, i64 0)) #15
  br label %20

20:                                               ; preds = %13, %15, %19
  %21 = phi i64 [ %14, %13 ], [ %17, %15 ], [ %17, %19 ]
  %22 = call zeroext i1 @_ZN6google8protobuf8internal15LookUpEnumValueEPKNS1_9EnumEntryEmNS0_11StringPieceEPi(%"struct.google::protobuf::internal::EnumEntry"* getelementptr inbounds ([4 x %"struct.google::protobuf::internal::EnumEntry"], [4 x %"struct.google::protobuf::internal::EnumEntry"]* @_ZN7metricsL41SystemProfileProto_AntiVirusState_entriesE, i64 0, i64 0), i64 4, i8* %12, i64 %21, i32* nonnull %3) #15
  br i1 %22, label %23, label %25

23:                                               ; preds = %20
  %24 = load i32, i32* %3, align 4
  store i32 %24, i32* %1, align 4
  br label %25

25:                                               ; preds = %23, %20
  call void @llvm.lifetime.end.p0i8(i64 4, i8* nonnull %4) #15
  ret i1 %22
}

; Function Attrs: norecurse nounwind readnone ssp uwtable
define hidden zeroext i1 @_ZN7metrics38SystemProfileProto_ComponentId_IsValidEi(i32) local_unnamed_addr #1 {
  %2 = add i32 %0, -1
  %3 = icmp ult i32 %2, 28
  ret i1 %3
}

; Function Attrs: nounwind ssp uwtable
define hidden dereferenceable(24) %"class.std::__1::basic_string"* @_ZN7metrics35SystemProfileProto_ComponentId_NameENS_30SystemProfileProto_ComponentIdE(i32) local_unnamed_addr #0 {
  %2 = load atomic i8, i8* bitcast (i64* @_ZGVZN7metrics35SystemProfileProto_ComponentId_NameENS_30SystemProfileProto_ComponentIdEE5dummy to i8*) acquire, align 8
  %3 = icmp eq i8 %2, 0
  br i1 %3, label %4, label %11, !prof !3

4:                                                ; preds = %1
  %5 = tail call i32 @__cxa_guard_acquire(i64* nonnull @_ZGVZN7metrics35SystemProfileProto_ComponentId_NameENS_30SystemProfileProto_ComponentIdEE5dummy) #15
  %6 = icmp eq i32 %5, 0
  br i1 %6, label %11, label %7

7:                                                ; preds = %4
  %8 = tail call zeroext i1 @_ZN6google8protobuf8internal21InitializeEnumStringsEPKNS1_9EnumEntryEPKimPNS1_21ExplicitlyConstructedINSt3__112basic_stringIcNS8_11char_traitsIcEENS8_9allocatorIcEEEEEE(%"struct.google::protobuf::internal::EnumEntry"* getelementptr inbounds ([28 x %"struct.google::protobuf::internal::EnumEntry"], [28 x %"struct.google::protobuf::internal::EnumEntry"]* @_ZN7metricsL38SystemProfileProto_ComponentId_entriesE, i64 0, i64 0), i32* getelementptr inbounds ([28 x i32], [28 x i32]* @_ZN7metricsL48SystemProfileProto_ComponentId_entries_by_numberE, i64 0, i64 0), i64 28, %"class.google::protobuf::internal::ExplicitlyConstructed.27"* getelementptr inbounds ([28 x %"class.google::protobuf::internal::ExplicitlyConstructed.27"], [28 x %"class.google::protobuf::internal::ExplicitlyConstructed.27"]* @_ZN7metricsL38SystemProfileProto_ComponentId_stringsE, i64 0, i64 0)) #15
  %9 = zext i1 %8 to i8
  store i8 %9, i8* @_ZZN7metrics35SystemProfileProto_ComponentId_NameENS_30SystemProfileProto_ComponentIdEE5dummy, align 1
  %10 = tail call {}* @llvm.invariant.start.p0i8(i64 1, i8* nonnull @_ZZN7metrics35SystemProfileProto_ComponentId_NameENS_30SystemProfileProto_ComponentIdEE5dummy)
  tail call void @__cxa_guard_release(i64* nonnull @_ZGVZN7metrics35SystemProfileProto_ComponentId_NameENS_30SystemProfileProto_ComponentIdEE5dummy) #15
  br label %11

11:                                               ; preds = %4, %7, %1
  %12 = tail call i32 @_ZN6google8protobuf8internal14LookUpEnumNameEPKNS1_9EnumEntryEPKimi(%"struct.google::protobuf::internal::EnumEntry"* getelementptr inbounds ([28 x %"struct.google::protobuf::internal::EnumEntry"], [28 x %"struct.google::protobuf::internal::EnumEntry"]* @_ZN7metricsL38SystemProfileProto_ComponentId_entriesE, i64 0, i64 0), i32* getelementptr inbounds ([28 x i32], [28 x i32]* @_ZN7metricsL48SystemProfileProto_ComponentId_entries_by_numberE, i64 0, i64 0), i64 28, i32 %0) #15
  %13 = icmp eq i32 %12, -1
  br i1 %13, label %14, label %16

14:                                               ; preds = %11
  %15 = tail call dereferenceable(24) %"class.std::__1::basic_string"* @_ZN6google8protobuf8internal14GetEmptyStringEv() #15
  br label %20

16:                                               ; preds = %11
  %17 = sext i32 %12 to i64
  %18 = getelementptr inbounds [28 x %"class.google::protobuf::internal::ExplicitlyConstructed.27"], [28 x %"class.google::protobuf::internal::ExplicitlyConstructed.27"]* @_ZN7metricsL38SystemProfileProto_ComponentId_stringsE, i64 0, i64 %17
  %19 = bitcast %"class.google::protobuf::internal::ExplicitlyConstructed.27"* %18 to %"class.std::__1::basic_string"*
  br label %20

20:                                               ; preds = %16, %14
  %21 = phi %"class.std::__1::basic_string"* [ %15, %14 ], [ %19, %16 ]
  ret %"class.std::__1::basic_string"* %21
}

; Function Attrs: nounwind ssp uwtable
define hidden zeroext i1 @_ZN7metrics36SystemProfileProto_ComponentId_ParseERKNSt3__112basic_stringIcNS0_11char_traitsIcEENS0_9allocatorIcEEEEPNS_30SystemProfileProto_ComponentIdE(%"class.std::__1::basic_string"* dereferenceable(24), i32* nocapture) local_unnamed_addr #0 {
  %3 = alloca i32, align 4
  %4 = bitcast i32* %3 to i8*
  call void @llvm.lifetime.start.p0i8(i64 4, i8* nonnull %4) #15
  store i32 -1431655766, i32* %3, align 4
  %5 = bitcast %"class.std::__1::basic_string"* %0 to %"struct.std::__1::basic_string<char, std::__1::char_traits<char>, std::__1::allocator<char> >::__short"*
  %6 = getelementptr inbounds %"struct.std::__1::basic_string<char, std::__1::char_traits<char>, std::__1::allocator<char> >::__short", %"struct.std::__1::basic_string<char, std::__1::char_traits<char>, std::__1::allocator<char> >::__short"* %5, i64 0, i32 1, i32 0
  %7 = load i8, i8* %6, align 1
  %8 = icmp slt i8 %7, 0
  %9 = getelementptr inbounds %"class.std::__1::basic_string", %"class.std::__1::basic_string"* %0, i64 0, i32 0, i32 0, i32 0, i32 0, i32 0, i32 0
  %10 = load i8*, i8** %9, align 8
  %11 = bitcast %"class.std::__1::basic_string"* %0 to i8*
  %12 = select i1 %8, i8* %10, i8* %11
  br i1 %8, label %15, label %13

13:                                               ; preds = %2
  %14 = zext i8 %7 to i64
  br label %20

15:                                               ; preds = %2
  %16 = getelementptr inbounds %"class.std::__1::basic_string", %"class.std::__1::basic_string"* %0, i64 0, i32 0, i32 0, i32 0, i32 0, i32 0, i32 1
  %17 = load i64, i64* %16, align 8
  %18 = icmp slt i64 %17, 0
  br i1 %18, label %19, label %20

19:                                               ; preds = %15
  tail call void @_ZN6google8protobuf11StringPiece18LogFatalSizeTooBigEmPKc(i64 %17, i8* getelementptr inbounds ([25 x i8], [25 x i8]* @.str.101, i64 0, i64 0)) #15
  br label %20

20:                                               ; preds = %13, %15, %19
  %21 = phi i64 [ %14, %13 ], [ %17, %15 ], [ %17, %19 ]
  %22 = call zeroext i1 @_ZN6google8protobuf8internal15LookUpEnumValueEPKNS1_9EnumEntryEmNS0_11StringPieceEPi(%"struct.google::protobuf::internal::EnumEntry"* getelementptr inbounds ([28 x %"struct.google::protobuf::internal::EnumEntry"], [28 x %"struct.google::protobuf::internal::EnumEntry"]* @_ZN7metricsL38SystemProfileProto_ComponentId_entriesE, i64 0, i64 0), i64 28, i8* %12, i64 %21, i32* nonnull %3) #15
  br i1 %22, label %23, label %25

23:                                               ; preds = %20
  %24 = load i32, i32* %3, align 4
  store i32 %24, i32* %1, align 4
  br label %25

25:                                               ; preds = %23, %20
  call void @llvm.lifetime.end.p0i8(i64 4, i8* nonnull %4) #15
  ret i1 %22
}

; Function Attrs: norecurse nounwind readnone ssp uwtable
define hidden zeroext i1 @_ZN7metrics43SystemProfileProto_InstallerPackage_IsValidEi(i32) local_unnamed_addr #1 {
  %2 = icmp ult i32 %0, 4
  ret i1 %2
}

; Function Attrs: nounwind ssp uwtable
define hidden dereferenceable(24) %"class.std::__1::basic_string"* @_ZN7metrics40SystemProfileProto_InstallerPackage_NameENS_35SystemProfileProto_InstallerPackageE(i32) local_unnamed_addr #0 {
  %2 = load atomic i8, i8* bitcast (i64* @_ZGVZN7metrics40SystemProfileProto_InstallerPackage_NameENS_35SystemProfileProto_InstallerPackageEE5dummy to i8*) acquire, align 8
  %3 = icmp eq i8 %2, 0
  br i1 %3, label %4, label %11, !prof !3

4:                                                ; preds = %1
  %5 = tail call i32 @__cxa_guard_acquire(i64* nonnull @_ZGVZN7metrics40SystemProfileProto_InstallerPackage_NameENS_35SystemProfileProto_InstallerPackageEE5dummy) #15
  %6 = icmp eq i32 %5, 0
  br i1 %6, label %11, label %7

7:                                                ; preds = %4
  %8 = tail call zeroext i1 @_ZN6google8protobuf8internal21InitializeEnumStringsEPKNS1_9EnumEntryEPKimPNS1_21ExplicitlyConstructedINSt3__112basic_stringIcNS8_11char_traitsIcEENS8_9allocatorIcEEEEEE(%"struct.google::protobuf::internal::EnumEntry"* getelementptr inbounds ([4 x %"struct.google::protobuf::internal::EnumEntry"], [4 x %"struct.google::protobuf::internal::EnumEntry"]* @_ZN7metricsL43SystemProfileProto_InstallerPackage_entriesE, i64 0, i64 0), i32* getelementptr inbounds ([4 x i32], [4 x i32]* @_ZN7metricsL53SystemProfileProto_InstallerPackage_entries_by_numberE, i64 0, i64 0), i64 4, %"class.google::protobuf::internal::ExplicitlyConstructed.27"* getelementptr inbounds ([4 x %"class.google::protobuf::internal::ExplicitlyConstructed.27"], [4 x %"class.google::protobuf::internal::ExplicitlyConstructed.27"]* @_ZN7metricsL43SystemProfileProto_InstallerPackage_stringsE, i64 0, i64 0)) #15
  %9 = zext i1 %8 to i8
  store i8 %9, i8* @_ZZN7metrics40SystemProfileProto_InstallerPackage_NameENS_35SystemProfileProto_InstallerPackageEE5dummy, align 1
  %10 = tail call {}* @llvm.invariant.start.p0i8(i64 1, i8* nonnull @_ZZN7metrics40SystemProfileProto_InstallerPackage_NameENS_35SystemProfileProto_InstallerPackageEE5dummy)
  tail call void @__cxa_guard_release(i64* nonnull @_ZGVZN7metrics40SystemProfileProto_InstallerPackage_NameENS_35SystemProfileProto_InstallerPackageEE5dummy) #15
  br label %11

11:                                               ; preds = %4, %7, %1
  %12 = tail call i32 @_ZN6google8protobuf8internal14LookUpEnumNameEPKNS1_9EnumEntryEPKimi(%"struct.google::protobuf::internal::EnumEntry"* getelementptr inbounds ([4 x %"struct.google::protobuf::internal::EnumEntry"], [4 x %"struct.google::protobuf::internal::EnumEntry"]* @_ZN7metricsL43SystemProfileProto_InstallerPackage_entriesE, i64 0, i64 0), i32* getelementptr inbounds ([4 x i32], [4 x i32]* @_ZN7metricsL53SystemProfileProto_InstallerPackage_entries_by_numberE, i64 0, i64 0), i64 4, i32 %0) #15
  %13 = icmp eq i32 %12, -1
  br i1 %13, label %14, label %16

14:                                               ; preds = %11
  %15 = tail call dereferenceable(24) %"class.std::__1::basic_string"* @_ZN6google8protobuf8internal14GetEmptyStringEv() #15
  br label %20

16:                                               ; preds = %11
  %17 = sext i32 %12 to i64
  %18 = getelementptr inbounds [4 x %"class.google::protobuf::internal::ExplicitlyConstructed.27"], [4 x %"class.google::protobuf::internal::ExplicitlyConstructed.27"]* @_ZN7metricsL43SystemProfileProto_InstallerPackage_stringsE, i64 0, i64 %17
  %19 = bitcast %"class.google::protobuf::internal::ExplicitlyConstructed.27"* %18 to %"class.std::__1::basic_string"*
  br label %20

20:                                               ; preds = %16, %14
  %21 = phi %"class.std::__1::basic_string"* [ %15, %14 ], [ %19, %16 ]
  ret %"class.std::__1::basic_string"* %21
}

; Function Attrs: nounwind ssp uwtable
define hidden zeroext i1 @_ZN7metrics41SystemProfileProto_InstallerPackage_ParseERKNSt3__112basic_stringIcNS0_11char_traitsIcEENS0_9allocatorIcEEEEPNS_35SystemProfileProto_InstallerPackageE(%"class.std::__1::basic_string"* dereferenceable(24), i32* nocapture) local_unnamed_addr #0 {
  %3 = alloca i32, align 4
  %4 = bitcast i32* %3 to i8*
  call void @llvm.lifetime.start.p0i8(i64 4, i8* nonnull %4) #15
  store i32 -1431655766, i32* %3, align 4
  %5 = bitcast %"class.std::__1::basic_string"* %0 to %"struct.std::__1::basic_string<char, std::__1::char_traits<char>, std::__1::allocator<char> >::__short"*
  %6 = getelementptr inbounds %"struct.std::__1::basic_string<char, std::__1::char_traits<char>, std::__1::allocator<char> >::__short", %"struct.std::__1::basic_string<char, std::__1::char_traits<char>, std::__1::allocator<char> >::__short"* %5, i64 0, i32 1, i32 0
  %7 = load i8, i8* %6, align 1
  %8 = icmp slt i8 %7, 0
  %9 = getelementptr inbounds %"class.std::__1::basic_string", %"class.std::__1::basic_string"* %0, i64 0, i32 0, i32 0, i32 0, i32 0, i32 0, i32 0
  %10 = load i8*, i8** %9, align 8
  %11 = bitcast %"class.std::__1::basic_string"* %0 to i8*
  %12 = select i1 %8, i8* %10, i8* %11
  br i1 %8, label %15, label %13

13:                                               ; preds = %2
  %14 = zext i8 %7 to i64
  br label %20

15:                                               ; preds = %2
  %16 = getelementptr inbounds %"class.std::__1::basic_string", %"class.std::__1::basic_string"* %0, i64 0, i32 0, i32 0, i32 0, i32 0, i32 0, i32 1
  %17 = load i64, i64* %16, align 8
  %18 = icmp slt i64 %17, 0
  br i1 %18, label %19, label %20

19:                                               ; preds = %15
  tail call void @_ZN6google8protobuf11StringPiece18LogFatalSizeTooBigEmPKc(i64 %17, i8* getelementptr inbounds ([25 x i8], [25 x i8]* @.str.101, i64 0, i64 0)) #15
  br label %20

20:                                               ; preds = %13, %15, %19
  %21 = phi i64 [ %14, %13 ], [ %17, %15 ], [ %17, %19 ]
  %22 = call zeroext i1 @_ZN6google8protobuf8internal15LookUpEnumValueEPKNS1_9EnumEntryEmNS0_11StringPieceEPi(%"struct.google::protobuf::internal::EnumEntry"* getelementptr inbounds ([4 x %"struct.google::protobuf::internal::EnumEntry"], [4 x %"struct.google::protobuf::internal::EnumEntry"]* @_ZN7metricsL43SystemProfileProto_InstallerPackage_entriesE, i64 0, i64 0), i64 4, i8* %12, i64 %21, i32* nonnull %3) #15
  br i1 %22, label %23, label %25

23:                                               ; preds = %20
  %24 = load i32, i32* %3, align 4
  store i32 %24, i32* %1, align 4
  br label %25

25:                                               ; preds = %23, %20
  call void @llvm.lifetime.end.p0i8(i64 4, i8* nonnull %4) #15
  ret i1 %22
}

; Function Attrs: nounwind ssp uwtable
define hidden void @_ZN7metrics25SystemProfileProto_OS_ArcC2EPN6google8protobuf5ArenaE(%"class.metrics::SystemProfileProto_OS_Arc"* nocapture, %"class.google::protobuf::Arena"*) unnamed_addr #0 align 2 {
  %3 = getelementptr inbounds %"class.metrics::SystemProfileProto_OS_Arc", %"class.metrics::SystemProfileProto_OS_Arc"* %0, i64 0, i32 0, i32 0
  %4 = getelementptr inbounds %"class.metrics::SystemProfileProto_OS_Arc", %"class.metrics::SystemProfileProto_OS_Arc"* %0, i64 0, i32 0, i32 1
  %5 = bitcast %"class.google::protobuf::internal::InternalMetadata"* %4 to %"class.google::protobuf::Arena"**
  store %"class.google::protobuf::Arena"* %1, %"class.google::protobuf::Arena"** %5, align 8
  store i32 (...)** bitcast (i8** getelementptr inbounds ({ [16 x i8*] }, { [16 x i8*] }* @_ZTVN7metrics25SystemProfileProto_OS_ArcE, i64 0, inrange i32 0, i64 2) to i32 (...)**), i32 (...)*** %3, align 8
  %6 = getelementptr inbounds %"class.metrics::SystemProfileProto_OS_Arc", %"class.metrics::SystemProfileProto_OS_Arc"* %0, i64 0, i32 1, i32 0, i64 0
  store i32 0, i32* %6, align 4
  %7 = getelementptr inbounds %"class.metrics::SystemProfileProto_OS_Arc", %"class.metrics::SystemProfileProto_OS_Arc"* %0, i64 0, i32 2, i32 0, i32 0, i32 0, i32 0, i32 0, i32 0
  store i32 0, i32* %7, align 4
  %8 = load atomic i32, i32* getelementptr inbounds ({ { { { i32 } }, i32, i32, void ()* }, [0 x i8*] }, { { { { i32 } }, i32, i32, void ()* }, [0 x i8*] }* @scc_info_SystemProfileProto_OS_Arc_system_5fprofile_2eproto, i64 0, i32 0, i32 0, i32 0, i32 0) acquire, align 8
  %9 = icmp eq i32 %8, 0
  br i1 %9, label %11, label %10, !prof !2

10:                                               ; preds = %2
  tail call void @_ZN6google8protobuf8internal11InitSCCImplEPNS1_11SCCInfoBaseE(%"struct.google::protobuf::internal::SCCInfoBase"* bitcast ({ { { { i32 } }, i32, i32, void ()* }, [0 x i8*] }* @scc_info_SystemProfileProto_OS_Arc_system_5fprofile_2eproto to %"struct.google::protobuf::internal::SCCInfoBase"*)) #15
  br label %11

11:                                               ; preds = %2, %10
  %12 = getelementptr inbounds %"class.metrics::SystemProfileProto_OS_Arc", %"class.metrics::SystemProfileProto_OS_Arc"* %0, i64 0, i32 3, i32 0
  store %"class.std::__1::basic_string"* bitcast (%"class.google::protobuf::internal::ExplicitlyConstructed.27"* @_ZN6google8protobuf8internal26fixed_address_empty_stringE to %"class.std::__1::basic_string"*), %"class.std::__1::basic_string"** %12, align 8
  ret void
}

; Function Attrs: nounwind ssp uwtable
define hidden void @_ZN7metrics25SystemProfileProto_OS_ArcC2ERKS0_(%"class.metrics::SystemProfileProto_OS_Arc"*, %"class.metrics::SystemProfileProto_OS_Arc"* nocapture readonly dereferenceable(32)) unnamed_addr #0 align 2 {
  %3 = getelementptr inbounds %"class.metrics::SystemProfileProto_OS_Arc", %"class.metrics::SystemProfileProto_OS_Arc"* %0, i64 0, i32 0, i32 0
  %4 = getelementptr inbounds %"class.metrics::SystemProfileProto_OS_Arc", %"class.metrics::SystemProfileProto_OS_Arc"* %0, i64 0, i32 0, i32 1, i32 0
  store i8* null, i8** %4, align 8
  store i32 (...)** bitcast (i8** getelementptr inbounds ({ [16 x i8*] }, { [16 x i8*] }* @_ZTVN7metrics25SystemProfileProto_OS_ArcE, i64 0, inrange i32 0, i64 2) to i32 (...)**), i32 (...)*** %3, align 8
  %5 = getelementptr inbounds %"class.metrics::SystemProfileProto_OS_Arc", %"class.metrics::SystemProfileProto_OS_Arc"* %1, i64 0, i32 1, i32 0, i64 0
  %6 = getelementptr inbounds %"class.metrics::SystemProfileProto_OS_Arc", %"class.metrics::SystemProfileProto_OS_Arc"* %0, i64 0, i32 1, i32 0, i64 0
  %7 = load i32, i32* %5, align 8
  store i32 %7, i32* %6, align 8
  %8 = getelementptr inbounds %"class.metrics::SystemProfileProto_OS_Arc", %"class.metrics::SystemProfileProto_OS_Arc"* %0, i64 0, i32 2, i32 0, i32 0, i32 0, i32 0, i32 0, i32 0
  store i32 0, i32* %8, align 4
  %9 = getelementptr inbounds %"class.metrics::SystemProfileProto_OS_Arc", %"class.metrics::SystemProfileProto_OS_Arc"* %0, i64 0, i32 0, i32 1
  %10 = getelementptr inbounds %"class.metrics::SystemProfileProto_OS_Arc", %"class.metrics::SystemProfileProto_OS_Arc"* %1, i64 0, i32 0, i32 1
  %11 = bitcast %"class.google::protobuf::internal::InternalMetadata"* %10 to i64*
  %12 = load i64, i64* %11, align 8
  %13 = and i64 %12, 1
  %14 = icmp eq i64 %13, 0
  br i1 %14, label %33, label %15

15:                                               ; preds = %2
  %16 = and i64 %12, -2
  %17 = inttoptr i64 %16 to %"struct.google::protobuf::internal::InternalMetadata::Container"*
  %18 = getelementptr inbounds %"struct.google::protobuf::internal::InternalMetadata::Container", %"struct.google::protobuf::internal::InternalMetadata::Container"* %17, i64 0, i32 1
  %19 = tail call %"class.std::__1::basic_string"* @_ZN6google8protobuf8internal16InternalMetadata27mutable_unknown_fields_slowINSt3__112basic_stringIcNS4_11char_traitsIcEENS4_9allocatorIcEEEEEEPT_v(%"class.google::protobuf::internal::InternalMetadata"* %9) #15
  %20 = bitcast %"class.std::__1::basic_string"* %18 to %"struct.std::__1::basic_string<char, std::__1::char_traits<char>, std::__1::allocator<char> >::__short"*
  %21 = getelementptr inbounds %"struct.std::__1::basic_string<char, std::__1::char_traits<char>, std::__1::allocator<char> >::__short", %"struct.std::__1::basic_string<char, std::__1::char_traits<char>, std::__1::allocator<char> >::__short"* %20, i64 0, i32 1, i32 0
  %22 = load i8, i8* %21, align 1
  %23 = icmp slt i8 %22, 0
  %24 = getelementptr inbounds %"class.std::__1::basic_string", %"class.std::__1::basic_string"* %18, i64 0, i32 0, i32 0, i32 0, i32 0, i32 0, i32 0
  %25 = load i8*, i8** %24, align 8
  %26 = getelementptr inbounds %"struct.google::protobuf::internal::InternalMetadata::Container", %"struct.google::protobuf::internal::InternalMetadata::Container"* %17, i64 0, i32 1, i32 0, i32 0, i32 0, i32 0, i32 0, i32 1
  %27 = load i64, i64* %26, align 8
  %28 = bitcast %"class.std::__1::basic_string"* %18 to i8*
  %29 = zext i8 %22 to i64
  %30 = select i1 %23, i8* %25, i8* %28
  %31 = select i1 %23, i64 %27, i64 %29
  %32 = tail call dereferenceable(24) %"class.std::__1::basic_string"* @_ZNSt3__112basic_stringIcNS_11char_traitsIcEENS_9allocatorIcEEE6appendEPKcm(%"class.std::__1::basic_string"* %19, i8* %30, i64 %31) #15
  br label %33

33:                                               ; preds = %2, %15
  %34 = getelementptr inbounds %"class.metrics::SystemProfileProto_OS_Arc", %"class.metrics::SystemProfileProto_OS_Arc"* %0, i64 0, i32 3
  %35 = getelementptr inbounds %"struct.google::protobuf::internal::ArenaStringPtr", %"struct.google::protobuf::internal::ArenaStringPtr"* %34, i64 0, i32 0
  store %"class.std::__1::basic_string"* bitcast (%"class.google::protobuf::internal::ExplicitlyConstructed.27"* @_ZN6google8protobuf8internal26fixed_address_empty_stringE to %"class.std::__1::basic_string"*), %"class.std::__1::basic_string"** %35, align 8
  %36 = load i32, i32* %5, align 4
  %37 = and i32 %36, 1
  %38 = icmp eq i32 %37, 0
  br i1 %38, label %55, label %39

39:                                               ; preds = %33
  %40 = getelementptr inbounds %"class.metrics::SystemProfileProto_OS_Arc", %"class.metrics::SystemProfileProto_OS_Arc"* %1, i64 0, i32 3, i32 0
  %41 = load %"class.std::__1::basic_string"*, %"class.std::__1::basic_string"** %40, align 8
  %42 = bitcast %"class.google::protobuf::internal::InternalMetadata"* %9 to i64*
  %43 = load i64, i64* %42, align 8
  %44 = and i64 %43, 1
  %45 = icmp eq i64 %44, 0
  %46 = and i64 %43, -2
  br i1 %45, label %51, label %47, !prof !2

47:                                               ; preds = %39
  %48 = inttoptr i64 %46 to %"struct.google::protobuf::internal::InternalMetadata::ContainerBase"*
  %49 = getelementptr inbounds %"struct.google::protobuf::internal::InternalMetadata::ContainerBase", %"struct.google::protobuf::internal::InternalMetadata::ContainerBase"* %48, i64 0, i32 0
  %50 = load %"class.google::protobuf::Arena"*, %"class.google::protobuf::Arena"** %49, align 8
  br label %53

51:                                               ; preds = %39
  %52 = inttoptr i64 %46 to %"class.google::protobuf::Arena"*
  br label %53

53:                                               ; preds = %47, %51
  %54 = phi %"class.google::protobuf::Arena"* [ %50, %47 ], [ %52, %51 ]
  tail call void @_ZN6google8protobuf8internal14ArenaStringPtr14CreateInstanceEPNS0_5ArenaEPKNSt3__112basic_stringIcNS5_11char_traitsIcEENS5_9allocatorIcEEEE(%"struct.google::protobuf::internal::ArenaStringPtr"* %34, %"class.google::protobuf::Arena"* %54, %"class.std::__1::basic_string"* %41) #15
  br label %55

55:                                               ; preds = %33, %53
  ret void
}

; Function Attrs: argmemonly nounwind
declare void @llvm.memcpy.p0i8.p0i8.i64(i8* nocapture writeonly, i8* nocapture readonly, i64, i1 immarg) #2

; Function Attrs: nounwind ssp uwtable
define hidden void @_ZN7metrics25SystemProfileProto_OS_ArcD2Ev(%"class.metrics::SystemProfileProto_OS_Arc"*) unnamed_addr #0 align 2 {
  %2 = getelementptr inbounds %"class.metrics::SystemProfileProto_OS_Arc", %"class.metrics::SystemProfileProto_OS_Arc"* %0, i64 0, i32 0, i32 0
  store i32 (...)** bitcast (i8** getelementptr inbounds ({ [16 x i8*] }, { [16 x i8*] }* @_ZTVN7metrics25SystemProfileProto_OS_ArcE, i64 0, inrange i32 0, i64 2) to i32 (...)**), i32 (...)*** %2, align 8
  %3 = getelementptr inbounds %"class.metrics::SystemProfileProto_OS_Arc", %"class.metrics::SystemProfileProto_OS_Arc"* %0, i64 0, i32 3
  tail call void @_ZN6google8protobuf8internal14ArenaStringPtr14DestroyNoArenaEPKNSt3__112basic_stringIcNS3_11char_traitsIcEENS3_9allocatorIcEEEE(%"struct.google::protobuf::internal::ArenaStringPtr"* %3, %"class.std::__1::basic_string"* bitcast (%"class.google::protobuf::internal::ExplicitlyConstructed.27"* @_ZN6google8protobuf8internal26fixed_address_empty_stringE to %"class.std::__1::basic_string"*)) #15
  %4 = getelementptr inbounds %"class.metrics::SystemProfileProto_OS_Arc", %"class.metrics::SystemProfileProto_OS_Arc"* %0, i64 0, i32 0, i32 1
  %5 = bitcast %"class.google::protobuf::internal::InternalMetadata"* %4 to i64*
  %6 = load i64, i64* %5, align 8
  %7 = and i64 %6, 1
  %8 = icmp eq i64 %7, 0
  br i1 %8, label %29, label %9

9:                                                ; preds = %1
  %10 = and i64 %6, -2
  %11 = inttoptr i64 %10 to %"struct.google::protobuf::internal::InternalMetadata::ContainerBase"*
  %12 = getelementptr inbounds %"struct.google::protobuf::internal::InternalMetadata::ContainerBase", %"struct.google::protobuf::internal::InternalMetadata::ContainerBase"* %11, i64 0, i32 0
  %13 = load %"class.google::protobuf::Arena"*, %"class.google::protobuf::Arena"** %12, align 8
  %14 = icmp ne %"class.google::protobuf::Arena"* %13, null
  %15 = icmp eq i64 %10, 0
  %16 = or i1 %15, %14
  br i1 %16, label %29, label %17

17:                                               ; preds = %9
  %18 = inttoptr i64 %10 to %"struct.google::protobuf::internal::InternalMetadata::Container"*
  %19 = getelementptr inbounds %"struct.google::protobuf::internal::InternalMetadata::Container", %"struct.google::protobuf::internal::InternalMetadata::Container"* %18, i64 0, i32 1
  %20 = bitcast %"class.std::__1::basic_string"* %19 to %"struct.std::__1::basic_string<char, std::__1::char_traits<char>, std::__1::allocator<char> >::__short"*
  %21 = getelementptr inbounds %"struct.std::__1::basic_string<char, std::__1::char_traits<char>, std::__1::allocator<char> >::__short", %"struct.std::__1::basic_string<char, std::__1::char_traits<char>, std::__1::allocator<char> >::__short"* %20, i64 0, i32 1, i32 0
  %22 = load i8, i8* %21, align 1
  %23 = icmp slt i8 %22, 0
  br i1 %23, label %24, label %27

24:                                               ; preds = %17
  %25 = getelementptr inbounds %"class.std::__1::basic_string", %"class.std::__1::basic_string"* %19, i64 0, i32 0, i32 0, i32 0, i32 0, i32 0, i32 0
  %26 = load i8*, i8** %25, align 8
  tail call void @_ZdlPv(i8* %26) #16
  br label %27

27:                                               ; preds = %24, %17
  %28 = inttoptr i64 %10 to i8*
  tail call void @_ZdlPv(i8* %28) #16
  br label %29

29:                                               ; preds = %1, %9, %27
  ret void
}

; Function Attrs: nounwind ssp uwtable
define hidden void @_ZN7metrics25SystemProfileProto_OS_ArcD0Ev(%"class.metrics::SystemProfileProto_OS_Arc"*) unnamed_addr #0 align 2 {
  %2 = getelementptr inbounds %"class.metrics::SystemProfileProto_OS_Arc", %"class.metrics::SystemProfileProto_OS_Arc"* %0, i64 0, i32 0, i32 0
  store i32 (...)** bitcast (i8** getelementptr inbounds ({ [16 x i8*] }, { [16 x i8*] }* @_ZTVN7metrics25SystemProfileProto_OS_ArcE, i64 0, inrange i32 0, i64 2) to i32 (...)**), i32 (...)*** %2, align 8
  %3 = getelementptr inbounds %"class.metrics::SystemProfileProto_OS_Arc", %"class.metrics::SystemProfileProto_OS_Arc"* %0, i64 0, i32 3
  tail call void @_ZN6google8protobuf8internal14ArenaStringPtr14DestroyNoArenaEPKNSt3__112basic_stringIcNS3_11char_traitsIcEENS3_9allocatorIcEEEE(%"struct.google::protobuf::internal::ArenaStringPtr"* %3, %"class.std::__1::basic_string"* bitcast (%"class.google::protobuf::internal::ExplicitlyConstructed.27"* @_ZN6google8protobuf8internal26fixed_address_empty_stringE to %"class.std::__1::basic_string"*)) #15
  %4 = getelementptr inbounds %"class.metrics::SystemProfileProto_OS_Arc", %"class.metrics::SystemProfileProto_OS_Arc"* %0, i64 0, i32 0, i32 1
  %5 = bitcast %"class.google::protobuf::internal::InternalMetadata"* %4 to i64*
  %6 = load i64, i64* %5, align 8
  %7 = and i64 %6, 1
  %8 = icmp eq i64 %7, 0
  br i1 %8, label %29, label %9

9:                                                ; preds = %1
  %10 = and i64 %6, -2
  %11 = inttoptr i64 %10 to %"struct.google::protobuf::internal::InternalMetadata::ContainerBase"*
  %12 = getelementptr inbounds %"struct.google::protobuf::internal::InternalMetadata::ContainerBase", %"struct.google::protobuf::internal::InternalMetadata::ContainerBase"* %11, i64 0, i32 0
  %13 = load %"class.google::protobuf::Arena"*, %"class.google::protobuf::Arena"** %12, align 8
  %14 = icmp ne %"class.google::protobuf::Arena"* %13, null
  %15 = icmp eq i64 %10, 0
  %16 = or i1 %15, %14
  br i1 %16, label %29, label %17

17:                                               ; preds = %9
  %18 = inttoptr i64 %10 to %"struct.google::protobuf::internal::InternalMetadata::Container"*
  %19 = getelementptr inbounds %"struct.google::protobuf::internal::InternalMetadata::Container", %"struct.google::protobuf::internal::InternalMetadata::Container"* %18, i64 0, i32 1
  %20 = bitcast %"class.std::__1::basic_string"* %19 to %"struct.std::__1::basic_string<char, std::__1::char_traits<char>, std::__1::allocator<char> >::__short"*
  %21 = getelementptr inbounds %"struct.std::__1::basic_string<char, std::__1::char_traits<char>, std::__1::allocator<char> >::__short", %"struct.std::__1::basic_string<char, std::__1::char_traits<char>, std::__1::allocator<char> >::__short"* %20, i64 0, i32 1, i32 0
  %22 = load i8, i8* %21, align 1
  %23 = icmp slt i8 %22, 0
  br i1 %23, label %24, label %27

24:                                               ; preds = %17
  %25 = getelementptr inbounds %"class.std::__1::basic_string", %"class.std::__1::basic_string"* %19, i64 0, i32 0, i32 0, i32 0, i32 0, i32 0, i32 0
  %26 = load i8*, i8** %25, align 8
  tail call void @_ZdlPv(i8* %26) #16
  br label %27

27:                                               ; preds = %24, %17
  %28 = inttoptr i64 %10 to i8*
  tail call void @_ZdlPv(i8* %28) #16
  br label %29

29:                                               ; preds = %1, %9, %27
  %30 = bitcast %"class.metrics::SystemProfileProto_OS_Arc"* %0 to i8*
  tail call void @_ZdlPv(i8* %30) #16
  ret void
}

; Function Attrs: nobuiltin nounwind
declare void @_ZdlPv(i8*) local_unnamed_addr #5

; Function Attrs: norecurse nounwind readnone ssp uwtable
define hidden void @_ZN7metrics25SystemProfileProto_OS_Arc9ArenaDtorEPv(i8* nocapture) local_unnamed_addr #1 align 2 {
  ret void
}

; Function Attrs: nofree norecurse nounwind ssp uwtable
define hidden void @_ZNK7metrics25SystemProfileProto_OS_Arc13SetCachedSizeEi(%"class.metrics::SystemProfileProto_OS_Arc"* nocapture, i32) local_unnamed_addr #6 align 2 {
  %3 = getelementptr inbounds %"class.metrics::SystemProfileProto_OS_Arc", %"class.metrics::SystemProfileProto_OS_Arc"* %0, i64 0, i32 2, i32 0, i32 0, i32 0, i32 0, i32 0, i32 0
  store atomic i32 %1, i32* %3 monotonic, align 4
  ret void
}

; Function Attrs: nounwind ssp uwtable
define hidden dereferenceable(32) %"class.metrics::SystemProfileProto_OS_Arc"* @_ZN7metrics25SystemProfileProto_OS_Arc16default_instanceEv() local_unnamed_addr #0 align 2 {
  %1 = load atomic i32, i32* getelementptr inbounds ({ { { { i32 } }, i32, i32, void ()* }, [0 x i8*] }, { { { { i32 } }, i32, i32, void ()* }, [0 x i8*] }* @scc_info_SystemProfileProto_OS_Arc_system_5fprofile_2eproto, i64 0, i32 0, i32 0, i32 0, i32 0) acquire, align 8
  %2 = icmp eq i32 %1, 0
  br i1 %2, label %4, label %3, !prof !2

3:                                                ; preds = %0
  tail call void @_ZN6google8protobuf8internal11InitSCCImplEPNS1_11SCCInfoBaseE(%"struct.google::protobuf::internal::SCCInfoBase"* bitcast ({ { { { i32 } }, i32, i32, void ()* }, [0 x i8*] }* @scc_info_SystemProfileProto_OS_Arc_system_5fprofile_2eproto to %"struct.google::protobuf::internal::SCCInfoBase"*)) #15
  br label %4

4:                                                ; preds = %0, %3
  ret %"class.metrics::SystemProfileProto_OS_Arc"* bitcast (%"class.metrics::SystemProfileProto_OS_ArcDefaultTypeInternal"* @_ZN7metrics44_SystemProfileProto_OS_Arc_default_instance_E to %"class.metrics::SystemProfileProto_OS_Arc"*)
}

; Function Attrs: nofree norecurse nounwind ssp uwtable
define hidden void @_ZN7metrics25SystemProfileProto_OS_Arc5ClearEv(%"class.metrics::SystemProfileProto_OS_Arc"* nocapture) unnamed_addr #6 align 2 {
  %2 = getelementptr inbounds %"class.metrics::SystemProfileProto_OS_Arc", %"class.metrics::SystemProfileProto_OS_Arc"* %0, i64 0, i32 1, i32 0, i64 0
  %3 = load i32, i32* %2, align 4
  %4 = and i32 %3, 1
  %5 = icmp eq i32 %4, 0
  br i1 %5, label %19, label %6

6:                                                ; preds = %1
  %7 = getelementptr inbounds %"class.metrics::SystemProfileProto_OS_Arc", %"class.metrics::SystemProfileProto_OS_Arc"* %0, i64 0, i32 3, i32 0
  %8 = load %"class.std::__1::basic_string"*, %"class.std::__1::basic_string"** %7, align 8
  %9 = bitcast %"class.std::__1::basic_string"* %8 to %"struct.std::__1::basic_string<char, std::__1::char_traits<char>, std::__1::allocator<char> >::__short"*
  %10 = getelementptr inbounds %"struct.std::__1::basic_string<char, std::__1::char_traits<char>, std::__1::allocator<char> >::__short", %"struct.std::__1::basic_string<char, std::__1::char_traits<char>, std::__1::allocator<char> >::__short"* %9, i64 0, i32 1, i32 0
  %11 = load i8, i8* %10, align 1
  %12 = icmp slt i8 %11, 0
  br i1 %12, label %13, label %17

13:                                               ; preds = %6
  %14 = getelementptr inbounds %"class.std::__1::basic_string", %"class.std::__1::basic_string"* %8, i64 0, i32 0, i32 0, i32 0, i32 0, i32 0, i32 0
  %15 = load i8*, i8** %14, align 8
  store i8 0, i8* %15, align 1
  %16 = getelementptr inbounds %"class.std::__1::basic_string", %"class.std::__1::basic_string"* %8, i64 0, i32 0, i32 0, i32 0, i32 0, i32 0, i32 1
  store i64 0, i64* %16, align 8
  br label %19

17:                                               ; preds = %6
  %18 = bitcast %"class.std::__1::basic_string"* %8 to i8*
  store i8 0, i8* %18, align 1
  store i8 0, i8* %10, align 1
  br label %19

19:                                               ; preds = %17, %13, %1
  store i32 0, i32* %2, align 4
  %20 = getelementptr inbounds %"class.metrics::SystemProfileProto_OS_Arc", %"class.metrics::SystemProfileProto_OS_Arc"* %0, i64 0, i32 0, i32 1
  %21 = bitcast %"class.google::protobuf::internal::InternalMetadata"* %20 to i64*
  %22 = load i64, i64* %21, align 8
  %23 = and i64 %22, 1
  %24 = icmp eq i64 %23, 0
  br i1 %24, label %39, label %25

25:                                               ; preds = %19
  %26 = and i64 %22, -2
  %27 = inttoptr i64 %26 to %"struct.google::protobuf::internal::InternalMetadata::Container"*
  %28 = getelementptr inbounds %"struct.google::protobuf::internal::InternalMetadata::Container", %"struct.google::protobuf::internal::InternalMetadata::Container"* %27, i64 0, i32 1
  %29 = bitcast %"class.std::__1::basic_string"* %28 to %"struct.std::__1::basic_string<char, std::__1::char_traits<char>, std::__1::allocator<char> >::__short"*
  %30 = getelementptr inbounds %"struct.std::__1::basic_string<char, std::__1::char_traits<char>, std::__1::allocator<char> >::__short", %"struct.std::__1::basic_string<char, std::__1::char_traits<char>, std::__1::allocator<char> >::__short"* %29, i64 0, i32 1, i32 0
  %31 = load i8, i8* %30, align 1
  %32 = icmp slt i8 %31, 0
  br i1 %32, label %33, label %37

33:                                               ; preds = %25
  %34 = getelementptr inbounds %"class.std::__1::basic_string", %"class.std::__1::basic_string"* %28, i64 0, i32 0, i32 0, i32 0, i32 0, i32 0, i32 0
  %35 = load i8*, i8** %34, align 8
  store i8 0, i8* %35, align 1
  %36 = getelementptr inbounds %"struct.google::protobuf::internal::InternalMetadata::Container", %"struct.google::protobuf::internal::InternalMetadata::Container"* %27, i64 0, i32 1, i32 0, i32 0, i32 0, i32 0, i32 0, i32 1
  store i64 0, i64* %36, align 8
  br label %39

37:                                               ; preds = %25
  %38 = bitcast %"class.std::__1::basic_string"* %28 to i8*
  store i8 0, i8* %38, align 2
  store i8 0, i8* %30, align 1
  br label %39

39:                                               ; preds = %19, %33, %37
  ret void
}

; Function Attrs: nounwind ssp uwtable
define hidden i8* @_ZN7metrics25SystemProfileProto_OS_Arc14_InternalParseEPKcPN6google8protobuf8internal12ParseContextE(%"class.metrics::SystemProfileProto_OS_Arc"*, i8*, %"class.google::protobuf::internal::ParseContext"*) unnamed_addr #0 align 2 {
  %4 = getelementptr inbounds %"class.google::protobuf::internal::ParseContext", %"class.google::protobuf::internal::ParseContext"* %2, i64 0, i32 0
  %5 = getelementptr inbounds %"class.google::protobuf::internal::ParseContext", %"class.google::protobuf::internal::ParseContext"* %2, i64 0, i32 2
  %6 = getelementptr inbounds %"class.google::protobuf::internal::ParseContext", %"class.google::protobuf::internal::ParseContext"* %2, i64 0, i32 0, i32 0
  %7 = getelementptr inbounds %"class.google::protobuf::internal::ParseContext", %"class.google::protobuf::internal::ParseContext"* %2, i64 0, i32 0, i32 1
  %8 = bitcast i8** %7 to i64*
  %9 = getelementptr inbounds %"class.google::protobuf::internal::ParseContext", %"class.google::protobuf::internal::ParseContext"* %2, i64 0, i32 0, i32 4
  %10 = getelementptr inbounds %"class.metrics::SystemProfileProto_OS_Arc", %"class.metrics::SystemProfileProto_OS_Arc"* %0, i64 0, i32 0, i32 1
  %11 = bitcast %"class.google::protobuf::internal::InternalMetadata"* %10 to i64*
  %12 = getelementptr inbounds %"class.metrics::SystemProfileProto_OS_Arc", %"class.metrics::SystemProfileProto_OS_Arc"* %0, i64 0, i32 1, i32 0, i64 0
  %13 = getelementptr inbounds %"class.metrics::SystemProfileProto_OS_Arc", %"class.metrics::SystemProfileProto_OS_Arc"* %0, i64 0, i32 3
  %14 = getelementptr inbounds %"struct.google::protobuf::internal::ArenaStringPtr", %"struct.google::protobuf::internal::ArenaStringPtr"* %13, i64 0, i32 0
  br label %15

15:                                               ; preds = %81, %3
  %16 = phi i8* [ %1, %3 ], [ %82, %81 ]
  %17 = load i32, i32* %5, align 4
  %18 = load i8*, i8** %6, align 8
  %19 = icmp ult i8* %16, %18
  br i1 %19, label %33, label %20, !prof !2

20:                                               ; preds = %15
  %21 = load i64, i64* %8, align 8
  %22 = ptrtoint i8* %16 to i64
  %23 = sub i64 %22, %21
  %24 = load i32, i32* %9, align 4
  %25 = sext i32 %24 to i64
  %26 = icmp eq i64 %23, %25
  br i1 %26, label %105, label %27

27:                                               ; preds = %20
  %28 = tail call { i8*, i8 } @_ZN6google8protobuf8internal18EpsCopyInputStream12DoneFallbackEPKci(%"class.google::protobuf::internal::EpsCopyInputStream"* %4, i8* %16, i32 %17) #15
  %29 = extractvalue { i8*, i8 } %28, 0
  %30 = extractvalue { i8*, i8 } %28, 1
  %31 = and i8 %30, 1
  %32 = icmp eq i8 %31, 0
  br i1 %32, label %33, label %105

33:                                               ; preds = %27, %15
  %34 = phi i8* [ %29, %27 ], [ %16, %15 ]
  %35 = load i8, i8* %34, align 1
  %36 = zext i8 %35 to i32
  %37 = icmp sgt i8 %35, -1
  %38 = getelementptr inbounds i8, i8* %34, i64 1
  br i1 %37, label %52, label %39

39:                                               ; preds = %33
  %40 = load i8, i8* %38, align 1
  %41 = zext i8 %40 to i32
  %42 = shl nuw nsw i32 %41, 7
  %43 = add nsw i32 %36, -128
  %44 = add nsw i32 %43, %42
  %45 = icmp sgt i8 %40, -1
  br i1 %45, label %46, label %48

46:                                               ; preds = %39
  %47 = getelementptr inbounds i8, i8* %34, i64 2
  br label %52

48:                                               ; preds = %39
  %49 = tail call { i8*, i32 } @_ZN6google8protobuf8internal15ReadTagFallbackEPKcj(i8* %34, i32 %44) #15
  %50 = extractvalue { i8*, i32 } %49, 0
  %51 = extractvalue { i8*, i32 } %49, 1
  br label %52

52:                                               ; preds = %33, %46, %48
  %53 = phi i32 [ %44, %46 ], [ %51, %48 ], [ %36, %33 ]
  %54 = phi i8* [ %47, %46 ], [ %50, %48 ], [ %38, %33 ]
  %55 = icmp eq i8* %54, null
  br i1 %55, label %105, label %56, !prof !4

56:                                               ; preds = %52
  %57 = icmp eq i32 %53, 10
  br i1 %57, label %58, label %83, !prof !5

58:                                               ; preds = %56
  %59 = load i32, i32* %12, align 4
  %60 = or i32 %59, 1
  store i32 %60, i32* %12, align 4
  %61 = load i64, i64* %11, align 8
  %62 = and i64 %61, 1
  %63 = icmp eq i64 %62, 0
  %64 = and i64 %61, -2
  br i1 %63, label %69, label %65, !prof !2

65:                                               ; preds = %58
  %66 = inttoptr i64 %64 to %"struct.google::protobuf::internal::InternalMetadata::ContainerBase"*
  %67 = getelementptr inbounds %"struct.google::protobuf::internal::InternalMetadata::ContainerBase", %"struct.google::protobuf::internal::InternalMetadata::ContainerBase"* %66, i64 0, i32 0
  %68 = load %"class.google::protobuf::Arena"*, %"class.google::protobuf::Arena"** %67, align 8
  br label %71

69:                                               ; preds = %58
  %70 = inttoptr i64 %64 to %"class.google::protobuf::Arena"*
  br label %71

71:                                               ; preds = %69, %65
  %72 = phi %"class.google::protobuf::Arena"* [ %68, %65 ], [ %70, %69 ]
  %73 = load %"class.std::__1::basic_string"*, %"class.std::__1::basic_string"** %14, align 8
  %74 = icmp eq %"class.std::__1::basic_string"* %73, bitcast (%"class.google::protobuf::internal::ExplicitlyConstructed.27"* @_ZN6google8protobuf8internal26fixed_address_empty_stringE to %"class.std::__1::basic_string"*)
  br i1 %74, label %75, label %77

75:                                               ; preds = %71
  tail call void @_ZN6google8protobuf8internal14ArenaStringPtr14CreateInstanceEPNS0_5ArenaEPKNSt3__112basic_stringIcNS5_11char_traitsIcEENS5_9allocatorIcEEEE(%"struct.google::protobuf::internal::ArenaStringPtr"* %13, %"class.google::protobuf::Arena"* %72, %"class.std::__1::basic_string"* bitcast (%"class.google::protobuf::internal::ExplicitlyConstructed.27"* @_ZN6google8protobuf8internal26fixed_address_empty_stringE to %"class.std::__1::basic_string"*)) #15
  %76 = load %"class.std::__1::basic_string"*, %"class.std::__1::basic_string"** %14, align 8
  br label %77

77:                                               ; preds = %71, %75
  %78 = phi %"class.std::__1::basic_string"* [ %76, %75 ], [ %73, %71 ]
  %79 = tail call i8* @_ZN6google8protobuf8internal24InlineGreedyStringParserEPNSt3__112basic_stringIcNS2_11char_traitsIcEENS2_9allocatorIcEEEEPKcPNS1_12ParseContextE(%"class.std::__1::basic_string"* %78, i8* nonnull %54, %"class.google::protobuf::internal::ParseContext"* %2) #15
  %80 = icmp eq i8* %79, null
  br i1 %80, label %105, label %81

81:                                               ; preds = %77, %101
  %82 = phi i8* [ %103, %101 ], [ %79, %77 ]
  br label %15

83:                                               ; preds = %56
  %84 = and i32 %53, 7
  %85 = icmp eq i32 %84, 4
  %86 = icmp eq i32 %53, 0
  %87 = or i1 %86, %85
  br i1 %87, label %88, label %91

88:                                               ; preds = %83
  %89 = add i32 %53, -1
  %90 = getelementptr inbounds %"class.google::protobuf::internal::ParseContext", %"class.google::protobuf::internal::ParseContext"* %2, i64 0, i32 0, i32 8
  store i32 %89, i32* %90, align 8
  br label %105

91:                                               ; preds = %83
  %92 = load i64, i64* %11, align 8
  %93 = and i64 %92, 1
  %94 = icmp eq i64 %93, 0
  br i1 %94, label %99, label %95, !prof !4

95:                                               ; preds = %91
  %96 = and i64 %92, -2
  %97 = inttoptr i64 %96 to %"struct.google::protobuf::internal::InternalMetadata::Container"*
  %98 = getelementptr inbounds %"struct.google::protobuf::internal::InternalMetadata::Container", %"struct.google::protobuf::internal::InternalMetadata::Container"* %97, i64 0, i32 1
  br label %101

99:                                               ; preds = %91
  %100 = tail call %"class.std::__1::basic_string"* @_ZN6google8protobuf8internal16InternalMetadata27mutable_unknown_fields_slowINSt3__112basic_stringIcNS4_11char_traitsIcEENS4_9allocatorIcEEEEEEPT_v(%"class.google::protobuf::internal::InternalMetadata"* %10) #15
  br label %101

101:                                              ; preds = %95, %99
  %102 = phi %"class.std::__1::basic_string"* [ %98, %95 ], [ %100, %99 ]
  %103 = tail call i8* @_ZN6google8protobuf8internal17UnknownFieldParseEjPNSt3__112basic_stringIcNS2_11char_traitsIcEENS2_9allocatorIcEEEEPKcPNS1_12ParseContextE(i32 %53, %"class.std::__1::basic_string"* %102, i8* nonnull %54, %"class.google::protobuf::internal::ParseContext"* %2) #15
  %104 = icmp eq i8* %103, null
  br i1 %104, label %105, label %81

105:                                              ; preds = %77, %20, %101, %52, %27, %88
  %106 = phi i8* [ %54, %88 ], [ null, %77 ], [ null, %52 ], [ null, %101 ], [ %16, %20 ], [ %29, %27 ]
  ret i8* %106
}

declare i8* @_ZN6google8protobuf8internal24InlineGreedyStringParserEPNSt3__112basic_stringIcNS2_11char_traitsIcEENS2_9allocatorIcEEEEPKcPNS1_12ParseContextE(%"class.std::__1::basic_string"*, i8*, %"class.google::protobuf::internal::ParseContext"*) local_unnamed_addr #4

declare i8* @_ZN6google8protobuf8internal17UnknownFieldParseEjPNSt3__112basic_stringIcNS2_11char_traitsIcEENS2_9allocatorIcEEEEPKcPNS1_12ParseContextE(i32, %"class.std::__1::basic_string"*, i8*, %"class.google::protobuf::internal::ParseContext"*) local_unnamed_addr #4

; Function Attrs: nounwind ssp uwtable
define hidden i8* @_ZNK7metrics25SystemProfileProto_OS_Arc18_InternalSerializeEPhPN6google8protobuf2io19EpsCopyOutputStreamE(%"class.metrics::SystemProfileProto_OS_Arc"* nocapture readonly, i8*, %"class.google::protobuf::io::EpsCopyOutputStream"*) unnamed_addr #0 align 2 {
  %4 = getelementptr inbounds %"class.metrics::SystemProfileProto_OS_Arc", %"class.metrics::SystemProfileProto_OS_Arc"* %0, i64 0, i32 1, i32 0, i64 0
  %5 = load i32, i32* %4, align 4
  %6 = and i32 %5, 1
  %7 = icmp eq i32 %6, 0
  br i1 %7, label %42, label %8

8:                                                ; preds = %3
  %9 = getelementptr inbounds %"class.metrics::SystemProfileProto_OS_Arc", %"class.metrics::SystemProfileProto_OS_Arc"* %0, i64 0, i32 3, i32 0
  %10 = load %"class.std::__1::basic_string"*, %"class.std::__1::basic_string"** %9, align 8
  %11 = bitcast %"class.std::__1::basic_string"* %10 to %"struct.std::__1::basic_string<char, std::__1::char_traits<char>, std::__1::allocator<char> >::__short"*
  %12 = getelementptr inbounds %"struct.std::__1::basic_string<char, std::__1::char_traits<char>, std::__1::allocator<char> >::__short", %"struct.std::__1::basic_string<char, std::__1::char_traits<char>, std::__1::allocator<char> >::__short"* %11, i64 0, i32 1, i32 0
  %13 = load i8, i8* %12, align 1
  %14 = icmp slt i8 %13, 0
  br i1 %14, label %17, label %15

15:                                               ; preds = %8
  %16 = zext i8 %13 to i64
  br label %21

17:                                               ; preds = %8
  %18 = getelementptr inbounds %"class.std::__1::basic_string", %"class.std::__1::basic_string"* %10, i64 0, i32 0, i32 0, i32 0, i32 0, i32 0, i32 1
  %19 = load i64, i64* %18, align 8
  %20 = icmp sgt i64 %19, 127
  br i1 %20, label %29, label %21, !prof !4

21:                                               ; preds = %17, %15
  %22 = phi i64 [ %16, %15 ], [ %19, %17 ]
  %23 = bitcast %"class.google::protobuf::io::EpsCopyOutputStream"* %2 to i64*
  %24 = load i64, i64* %23, align 8
  %25 = ptrtoint i8* %1 to i64
  %26 = sub i64 14, %25
  %27 = add i64 %26, %24
  %28 = icmp slt i64 %27, %22
  br i1 %28, label %29, label %31, !prof !4

29:                                               ; preds = %21, %17
  %30 = tail call i8* @_ZN6google8protobuf2io19EpsCopyOutputStream30WriteStringMaybeAliasedOutlineEjRKNSt3__112basic_stringIcNS3_11char_traitsIcEENS3_9allocatorIcEEEEPh(%"class.google::protobuf::io::EpsCopyOutputStream"* %2, i32 1, %"class.std::__1::basic_string"* dereferenceable(24) %10, i8* %1) #15
  br label %42

31:                                               ; preds = %21
  store i8 10, i8* %1, align 1
  %32 = getelementptr inbounds i8, i8* %1, i64 1
  %33 = trunc i64 %22 to i8
  %34 = getelementptr inbounds i8, i8* %1, i64 2
  store i8 %33, i8* %32, align 1
  %35 = load i8, i8* %12, align 1
  %36 = icmp slt i8 %35, 0
  %37 = getelementptr inbounds %"class.std::__1::basic_string", %"class.std::__1::basic_string"* %10, i64 0, i32 0, i32 0, i32 0, i32 0, i32 0, i32 0
  %38 = load i8*, i8** %37, align 8
  %39 = bitcast %"class.std::__1::basic_string"* %10 to i8*
  %40 = select i1 %36, i8* %38, i8* %39
  tail call void @llvm.memcpy.p0i8.p0i8.i64(i8* align 1 %34, i8* align 1 %40, i64 %22, i1 false) #15
  %41 = getelementptr inbounds i8, i8* %34, i64 %22
  br label %42

42:                                               ; preds = %31, %29, %3
  %43 = phi i8* [ %1, %3 ], [ %30, %29 ], [ %41, %31 ]
  %44 = getelementptr inbounds %"class.metrics::SystemProfileProto_OS_Arc", %"class.metrics::SystemProfileProto_OS_Arc"* %0, i64 0, i32 0, i32 1
  %45 = bitcast %"class.google::protobuf::internal::InternalMetadata"* %44 to i64*
  %46 = load i64, i64* %45, align 8
  %47 = and i64 %46, 1
  %48 = icmp eq i64 %47, 0
  br i1 %48, label %80, label %49, !prof !2

49:                                               ; preds = %42
  %50 = and i64 %46, -2
  %51 = inttoptr i64 %50 to %"struct.google::protobuf::internal::InternalMetadata::Container"*
  %52 = getelementptr inbounds %"struct.google::protobuf::internal::InternalMetadata::Container", %"struct.google::protobuf::internal::InternalMetadata::Container"* %51, i64 0, i32 1
  %53 = bitcast %"class.std::__1::basic_string"* %52 to %"struct.std::__1::basic_string<char, std::__1::char_traits<char>, std::__1::allocator<char> >::__short"*
  %54 = getelementptr inbounds %"struct.std::__1::basic_string<char, std::__1::char_traits<char>, std::__1::allocator<char> >::__short", %"struct.std::__1::basic_string<char, std::__1::char_traits<char>, std::__1::allocator<char> >::__short"* %53, i64 0, i32 1, i32 0
  %55 = load i8, i8* %54, align 1
  %56 = icmp slt i8 %55, 0
  br i1 %56, label %57, label %62

57:                                               ; preds = %49
  %58 = getelementptr inbounds %"class.std::__1::basic_string", %"class.std::__1::basic_string"* %52, i64 0, i32 0, i32 0, i32 0, i32 0, i32 0, i32 0
  %59 = load i8*, i8** %58, align 8
  %60 = getelementptr inbounds %"struct.google::protobuf::internal::InternalMetadata::Container", %"struct.google::protobuf::internal::InternalMetadata::Container"* %51, i64 0, i32 1, i32 0, i32 0, i32 0, i32 0, i32 0, i32 1
  %61 = load i64, i64* %60, align 8
  br label %65

62:                                               ; preds = %49
  %63 = bitcast %"class.std::__1::basic_string"* %52 to i8*
  %64 = zext i8 %55 to i64
  br label %65

65:                                               ; preds = %57, %62
  %66 = phi i8* [ %59, %57 ], [ %63, %62 ]
  %67 = phi i64 [ %61, %57 ], [ %64, %62 ]
  %68 = bitcast %"class.google::protobuf::io::EpsCopyOutputStream"* %2 to i64*
  %69 = load i64, i64* %68, align 8
  %70 = ptrtoint i8* %43 to i64
  %71 = sub i64 %69, %70
  %72 = shl i64 %67, 32
  %73 = ashr exact i64 %72, 32
  %74 = icmp slt i64 %71, %73
  br i1 %74, label %75, label %78, !prof !4

75:                                               ; preds = %65
  %76 = trunc i64 %67 to i32
  %77 = tail call i8* @_ZN6google8protobuf2io19EpsCopyOutputStream16WriteRawFallbackEPKviPh(%"class.google::protobuf::io::EpsCopyOutputStream"* %2, i8* %66, i32 %76, i8* %43) #15
  br label %80

78:                                               ; preds = %65
  tail call void @llvm.memcpy.p0i8.p0i8.i64(i8* align 1 %43, i8* align 1 %66, i64 %73, i1 false) #15
  %79 = getelementptr inbounds i8, i8* %43, i64 %73
  br label %80

80:                                               ; preds = %42, %78, %75
  %81 = phi i8* [ %43, %42 ], [ %77, %75 ], [ %79, %78 ]
  ret i8* %81
}

; Function Attrs: nounwind ssp uwtable
define hidden i64 @_ZNK7metrics25SystemProfileProto_OS_Arc12ByteSizeLongEv(%"class.metrics::SystemProfileProto_OS_Arc"* nocapture) unnamed_addr #0 align 2 {
  %2 = getelementptr inbounds %"class.metrics::SystemProfileProto_OS_Arc", %"class.metrics::SystemProfileProto_OS_Arc"* %0, i64 0, i32 1, i32 0, i64 0
  %3 = load i32, i32* %2, align 4
  %4 = and i32 %3, 1
  %5 = icmp eq i32 %4, 0
  br i1 %5, label %27, label %6

6:                                                ; preds = %1
  %7 = getelementptr inbounds %"class.metrics::SystemProfileProto_OS_Arc", %"class.metrics::SystemProfileProto_OS_Arc"* %0, i64 0, i32 3, i32 0
  %8 = load %"class.std::__1::basic_string"*, %"class.std::__1::basic_string"** %7, align 8
  %9 = bitcast %"class.std::__1::basic_string"* %8 to %"struct.std::__1::basic_string<char, std::__1::char_traits<char>, std::__1::allocator<char> >::__short"*
  %10 = getelementptr inbounds %"struct.std::__1::basic_string<char, std::__1::char_traits<char>, std::__1::allocator<char> >::__short", %"struct.std::__1::basic_string<char, std::__1::char_traits<char>, std::__1::allocator<char> >::__short"* %9, i64 0, i32 1, i32 0
  %11 = load i8, i8* %10, align 1
  %12 = icmp slt i8 %11, 0
  %13 = getelementptr inbounds %"class.std::__1::basic_string", %"class.std::__1::basic_string"* %8, i64 0, i32 0, i32 0, i32 0, i32 0, i32 0, i32 1
  %14 = load i64, i64* %13, align 8
  %15 = zext i8 %11 to i64
  %16 = select i1 %12, i64 %14, i64 %15
  %17 = trunc i64 %16 to i32
  %18 = or i32 %17, 1
  %19 = tail call i32 @llvm.ctlz.i32(i32 %18, i1 true) #15, !range !6
  %20 = xor i32 %19, 31
  %21 = mul nuw nsw i32 %20, 9
  %22 = add nuw nsw i32 %21, 73
  %23 = lshr i32 %22, 6
  %24 = zext i32 %23 to i64
  %25 = add i64 %16, 1
  %26 = add i64 %25, %24
  br label %27

27:                                               ; preds = %1, %6
  %28 = phi i64 [ %26, %6 ], [ 0, %1 ]
  %29 = getelementptr inbounds %"class.metrics::SystemProfileProto_OS_Arc", %"class.metrics::SystemProfileProto_OS_Arc"* %0, i64 0, i32 0, i32 1
  %30 = bitcast %"class.google::protobuf::internal::InternalMetadata"* %29 to i64*
  %31 = load i64, i64* %30, align 8
  %32 = and i64 %31, 1
  %33 = icmp eq i64 %32, 0
  br i1 %33, label %50, label %34, !prof !2

34:                                               ; preds = %27
  %35 = and i64 %31, -2
  %36 = inttoptr i64 %35 to %"struct.google::protobuf::internal::InternalMetadata::Container"*
  %37 = getelementptr inbounds %"struct.google::protobuf::internal::InternalMetadata::Container", %"struct.google::protobuf::internal::InternalMetadata::Container"* %36, i64 0, i32 1
  %38 = bitcast %"class.std::__1::basic_string"* %37 to %"struct.std::__1::basic_string<char, std::__1::char_traits<char>, std::__1::allocator<char> >::__short"*
  %39 = getelementptr inbounds %"struct.std::__1::basic_string<char, std::__1::char_traits<char>, std::__1::allocator<char> >::__short", %"struct.std::__1::basic_string<char, std::__1::char_traits<char>, std::__1::allocator<char> >::__short"* %38, i64 0, i32 1, i32 0
  %40 = load i8, i8* %39, align 1
  %41 = icmp slt i8 %40, 0
  br i1 %41, label %42, label %45

42:                                               ; preds = %34
  %43 = getelementptr inbounds %"struct.google::protobuf::internal::InternalMetadata::Container", %"struct.google::protobuf::internal::InternalMetadata::Container"* %36, i64 0, i32 1, i32 0, i32 0, i32 0, i32 0, i32 0, i32 1
  %44 = load i64, i64* %43, align 8
  br label %47

45:                                               ; preds = %34
  %46 = zext i8 %40 to i64
  br label %47

47:                                               ; preds = %42, %45
  %48 = phi i64 [ %44, %42 ], [ %46, %45 ]
  %49 = add i64 %48, %28
  br label %50

50:                                               ; preds = %27, %47
  %51 = phi i64 [ %49, %47 ], [ %28, %27 ]
  %52 = trunc i64 %51 to i32
  %53 = getelementptr inbounds %"class.metrics::SystemProfileProto_OS_Arc", %"class.metrics::SystemProfileProto_OS_Arc"* %0, i64 0, i32 2, i32 0, i32 0, i32 0, i32 0, i32 0, i32 0
  store atomic i32 %52, i32* %53 monotonic, align 4
  ret i64 %51
}

; Function Attrs: nounwind ssp uwtable
define hidden void @_ZN7metrics25SystemProfileProto_OS_Arc21CheckTypeAndMergeFromERKN6google8protobuf11MessageLiteE(%"class.metrics::SystemProfileProto_OS_Arc"*, %"class.google::protobuf::MessageLite"* nocapture readonly dereferenceable(16)) unnamed_addr #0 align 2 {
  %3 = bitcast %"class.google::protobuf::MessageLite"* %1 to %"class.metrics::SystemProfileProto_OS_Arc"*
  tail call void @_ZN7metrics25SystemProfileProto_OS_Arc9MergeFromERKS0_(%"class.metrics::SystemProfileProto_OS_Arc"* %0, %"class.metrics::SystemProfileProto_OS_Arc"* dereferenceable(32) %3)
  ret void
}

; Function Attrs: nounwind ssp uwtable
define hidden void @_ZN7metrics25SystemProfileProto_OS_Arc9MergeFromERKS0_(%"class.metrics::SystemProfileProto_OS_Arc"*, %"class.metrics::SystemProfileProto_OS_Arc"* nocapture readonly dereferenceable(32)) local_unnamed_addr #0 align 2 {
  %3 = getelementptr inbounds %"class.metrics::SystemProfileProto_OS_Arc", %"class.metrics::SystemProfileProto_OS_Arc"* %0, i64 0, i32 0, i32 1
  %4 = getelementptr inbounds %"class.metrics::SystemProfileProto_OS_Arc", %"class.metrics::SystemProfileProto_OS_Arc"* %1, i64 0, i32 0, i32 1
  %5 = bitcast %"class.google::protobuf::internal::InternalMetadata"* %4 to i64*
  %6 = load i64, i64* %5, align 8
  %7 = and i64 %6, 1
  %8 = icmp eq i64 %7, 0
  br i1 %8, label %38, label %9

9:                                                ; preds = %2
  %10 = and i64 %6, -2
  %11 = inttoptr i64 %10 to %"struct.google::protobuf::internal::InternalMetadata::Container"*
  %12 = getelementptr inbounds %"struct.google::protobuf::internal::InternalMetadata::Container", %"struct.google::protobuf::internal::InternalMetadata::Container"* %11, i64 0, i32 1
  %13 = bitcast %"class.google::protobuf::internal::InternalMetadata"* %3 to i64*
  %14 = load i64, i64* %13, align 8
  %15 = and i64 %14, 1
  %16 = icmp eq i64 %15, 0
  br i1 %16, label %21, label %17, !prof !4

17:                                               ; preds = %9
  %18 = and i64 %14, -2
  %19 = inttoptr i64 %18 to %"struct.google::protobuf::internal::InternalMetadata::Container"*
  %20 = getelementptr inbounds %"struct.google::protobuf::internal::InternalMetadata::Container", %"struct.google::protobuf::internal::InternalMetadata::Container"* %19, i64 0, i32 1
  br label %23

21:                                               ; preds = %9
  %22 = tail call %"class.std::__1::basic_string"* @_ZN6google8protobuf8internal16InternalMetadata27mutable_unknown_fields_slowINSt3__112basic_stringIcNS4_11char_traitsIcEENS4_9allocatorIcEEEEEEPT_v(%"class.google::protobuf::internal::InternalMetadata"* %3) #15
  br label %23

23:                                               ; preds = %21, %17
  %24 = phi %"class.std::__1::basic_string"* [ %20, %17 ], [ %22, %21 ]
  %25 = bitcast %"class.std::__1::basic_string"* %12 to %"struct.std::__1::basic_string<char, std::__1::char_traits<char>, std::__1::allocator<char> >::__short"*
  %26 = getelementptr inbounds %"struct.std::__1::basic_string<char, std::__1::char_traits<char>, std::__1::allocator<char> >::__short", %"struct.std::__1::basic_string<char, std::__1::char_traits<char>, std::__1::allocator<char> >::__short"* %25, i64 0, i32 1, i32 0
  %27 = load i8, i8* %26, align 1
  %28 = icmp slt i8 %27, 0
  %29 = getelementptr inbounds %"class.std::__1::basic_string", %"class.std::__1::basic_string"* %12, i64 0, i32 0, i32 0, i32 0, i32 0, i32 0, i32 0
  %30 = load i8*, i8** %29, align 8
  %31 = getelementptr inbounds %"struct.google::protobuf::internal::InternalMetadata::Container", %"struct.google::protobuf::internal::InternalMetadata::Container"* %11, i64 0, i32 1, i32 0, i32 0, i32 0, i32 0, i32 0, i32 1
  %32 = load i64, i64* %31, align 8
  %33 = bitcast %"class.std::__1::basic_string"* %12 to i8*
  %34 = zext i8 %27 to i64
  %35 = select i1 %28, i8* %30, i8* %33
  %36 = select i1 %28, i64 %32, i64 %34
  %37 = tail call dereferenceable(24) %"class.std::__1::basic_string"* @_ZNSt3__112basic_stringIcNS_11char_traitsIcEENS_9allocatorIcEEE6appendEPKcm(%"class.std::__1::basic_string"* %24, i8* %35, i64 %36) #15
  br label %38

38:                                               ; preds = %2, %23
  %39 = getelementptr inbounds %"class.metrics::SystemProfileProto_OS_Arc", %"class.metrics::SystemProfileProto_OS_Arc"* %1, i64 0, i32 1, i32 0, i64 0
  %40 = load i32, i32* %39, align 4
  %41 = and i32 %40, 1
  %42 = icmp eq i32 %41, 0
  br i1 %42, label %98, label %43

43:                                               ; preds = %38
  %44 = getelementptr inbounds %"class.metrics::SystemProfileProto_OS_Arc", %"class.metrics::SystemProfileProto_OS_Arc"* %1, i64 0, i32 3, i32 0
  %45 = load %"class.std::__1::basic_string"*, %"class.std::__1::basic_string"** %44, align 8
  %46 = getelementptr inbounds %"class.metrics::SystemProfileProto_OS_Arc", %"class.metrics::SystemProfileProto_OS_Arc"* %0, i64 0, i32 1, i32 0, i64 0
  %47 = load i32, i32* %46, align 4
  %48 = or i32 %47, 1
  store i32 %48, i32* %46, align 4
  %49 = getelementptr inbounds %"class.metrics::SystemProfileProto_OS_Arc", %"class.metrics::SystemProfileProto_OS_Arc"* %0, i64 0, i32 3
  %50 = bitcast %"class.google::protobuf::internal::InternalMetadata"* %3 to i64*
  %51 = load i64, i64* %50, align 8
  %52 = and i64 %51, 1
  %53 = icmp eq i64 %52, 0
  %54 = and i64 %51, -2
  br i1 %53, label %59, label %55, !prof !2

55:                                               ; preds = %43
  %56 = inttoptr i64 %54 to %"struct.google::protobuf::internal::InternalMetadata::ContainerBase"*
  %57 = getelementptr inbounds %"struct.google::protobuf::internal::InternalMetadata::ContainerBase", %"struct.google::protobuf::internal::InternalMetadata::ContainerBase"* %56, i64 0, i32 0
  %58 = load %"class.google::protobuf::Arena"*, %"class.google::protobuf::Arena"** %57, align 8
  br label %61

59:                                               ; preds = %43
  %60 = inttoptr i64 %54 to %"class.google::protobuf::Arena"*
  br label %61

61:                                               ; preds = %59, %55
  %62 = phi %"class.google::protobuf::Arena"* [ %58, %55 ], [ %60, %59 ]
  %63 = getelementptr inbounds %"struct.google::protobuf::internal::ArenaStringPtr", %"struct.google::protobuf::internal::ArenaStringPtr"* %49, i64 0, i32 0
  %64 = load %"class.std::__1::basic_string"*, %"class.std::__1::basic_string"** %63, align 8
  %65 = icmp eq %"class.std::__1::basic_string"* %64, bitcast (%"class.google::protobuf::internal::ExplicitlyConstructed.27"* @_ZN6google8protobuf8internal26fixed_address_empty_stringE to %"class.std::__1::basic_string"*)
  br i1 %65, label %66, label %67

66:                                               ; preds = %61
  tail call void @_ZN6google8protobuf8internal14ArenaStringPtr14CreateInstanceEPNS0_5ArenaEPKNSt3__112basic_stringIcNS5_11char_traitsIcEENS5_9allocatorIcEEEE(%"struct.google::protobuf::internal::ArenaStringPtr"* %49, %"class.google::protobuf::Arena"* %62, %"class.std::__1::basic_string"* %45) #15
  br label %98

67:                                               ; preds = %61
  %68 = icmp eq %"class.std::__1::basic_string"* %64, %45
  br i1 %68, label %98, label %69

69:                                               ; preds = %67
  %70 = bitcast %"class.std::__1::basic_string"* %64 to %"struct.std::__1::basic_string<char, std::__1::char_traits<char>, std::__1::allocator<char> >::__short"*
  %71 = getelementptr inbounds %"struct.std::__1::basic_string<char, std::__1::char_traits<char>, std::__1::allocator<char> >::__short", %"struct.std::__1::basic_string<char, std::__1::char_traits<char>, std::__1::allocator<char> >::__short"* %70, i64 0, i32 1, i32 0
  %72 = load i8, i8* %71, align 1
  %73 = icmp slt i8 %72, 0
  %74 = bitcast %"class.std::__1::basic_string"* %45 to %"struct.std::__1::basic_string<char, std::__1::char_traits<char>, std::__1::allocator<char> >::__short"*
  %75 = getelementptr inbounds %"struct.std::__1::basic_string<char, std::__1::char_traits<char>, std::__1::allocator<char> >::__short", %"struct.std::__1::basic_string<char, std::__1::char_traits<char>, std::__1::allocator<char> >::__short"* %74, i64 0, i32 1, i32 0
  %76 = load i8, i8* %75, align 1
  %77 = icmp slt i8 %76, 0
  br i1 %73, label %88, label %78

78:                                               ; preds = %69
  br i1 %77, label %82, label %79

79:                                               ; preds = %78
  %80 = bitcast %"class.std::__1::basic_string"* %64 to i8*
  %81 = bitcast %"class.std::__1::basic_string"* %45 to i8*
  tail call void @llvm.memcpy.p0i8.p0i8.i64(i8* align 8 %80, i8* align 8 %81, i64 24, i1 false) #15
  br label %98

82:                                               ; preds = %78
  %83 = getelementptr inbounds %"class.std::__1::basic_string", %"class.std::__1::basic_string"* %45, i64 0, i32 0, i32 0, i32 0, i32 0, i32 0, i32 0
  %84 = load i8*, i8** %83, align 8
  %85 = getelementptr inbounds %"class.std::__1::basic_string", %"class.std::__1::basic_string"* %45, i64 0, i32 0, i32 0, i32 0, i32 0, i32 0, i32 1
  %86 = load i64, i64* %85, align 8
  %87 = tail call dereferenceable(24) %"class.std::__1::basic_string"* @_ZNSt3__112basic_stringIcNS_11char_traitsIcEENS_9allocatorIcEEE17__assign_no_aliasILb1EEERS5_PKcm(%"class.std::__1::basic_string"* %64, i8* %84, i64 %86) #15
  br label %98

88:                                               ; preds = %69
  %89 = getelementptr inbounds %"class.std::__1::basic_string", %"class.std::__1::basic_string"* %45, i64 0, i32 0, i32 0, i32 0, i32 0, i32 0, i32 0
  %90 = load i8*, i8** %89, align 8
  %91 = getelementptr inbounds %"class.std::__1::basic_string", %"class.std::__1::basic_string"* %45, i64 0, i32 0, i32 0, i32 0, i32 0, i32 0, i32 1
  %92 = load i64, i64* %91, align 8
  %93 = bitcast %"class.std::__1::basic_string"* %45 to i8*
  %94 = zext i8 %76 to i64
  %95 = select i1 %77, i8* %90, i8* %93
  %96 = select i1 %77, i64 %92, i64 %94
  %97 = tail call dereferenceable(24) %"class.std::__1::basic_string"* @_ZNSt3__112basic_stringIcNS_11char_traitsIcEENS_9allocatorIcEEE17__assign_no_aliasILb0EEERS5_PKcm(%"class.std::__1::basic_string"* %64, i8* %95, i64 %96) #15
  br label %98

98:                                               ; preds = %38, %88, %82, %79, %67, %66
  ret void
}

; Function Attrs: nounwind ssp uwtable
define hidden void @_ZN7metrics25SystemProfileProto_OS_Arc8CopyFromERKS0_(%"class.metrics::SystemProfileProto_OS_Arc"*, %"class.metrics::SystemProfileProto_OS_Arc"* readonly dereferenceable(32)) local_unnamed_addr #0 align 2 {
  %3 = icmp eq %"class.metrics::SystemProfileProto_OS_Arc"* %1, %0
  br i1 %3, label %43, label %4

4:                                                ; preds = %2
  %5 = getelementptr inbounds %"class.metrics::SystemProfileProto_OS_Arc", %"class.metrics::SystemProfileProto_OS_Arc"* %0, i64 0, i32 1, i32 0, i64 0
  %6 = load i32, i32* %5, align 4
  %7 = and i32 %6, 1
  %8 = icmp eq i32 %7, 0
  br i1 %8, label %22, label %9

9:                                                ; preds = %4
  %10 = getelementptr inbounds %"class.metrics::SystemProfileProto_OS_Arc", %"class.metrics::SystemProfileProto_OS_Arc"* %0, i64 0, i32 3, i32 0
  %11 = load %"class.std::__1::basic_string"*, %"class.std::__1::basic_string"** %10, align 8
  %12 = bitcast %"class.std::__1::basic_string"* %11 to %"struct.std::__1::basic_string<char, std::__1::char_traits<char>, std::__1::allocator<char> >::__short"*
  %13 = getelementptr inbounds %"struct.std::__1::basic_string<char, std::__1::char_traits<char>, std::__1::allocator<char> >::__short", %"struct.std::__1::basic_string<char, std::__1::char_traits<char>, std::__1::allocator<char> >::__short"* %12, i64 0, i32 1, i32 0
  %14 = load i8, i8* %13, align 1
  %15 = icmp slt i8 %14, 0
  br i1 %15, label %16, label %20

16:                                               ; preds = %9
  %17 = getelementptr inbounds %"class.std::__1::basic_string", %"class.std::__1::basic_string"* %11, i64 0, i32 0, i32 0, i32 0, i32 0, i32 0, i32 0
  %18 = load i8*, i8** %17, align 8
  store i8 0, i8* %18, align 1
  %19 = getelementptr inbounds %"class.std::__1::basic_string", %"class.std::__1::basic_string"* %11, i64 0, i32 0, i32 0, i32 0, i32 0, i32 0, i32 1
  store i64 0, i64* %19, align 8
  br label %22

20:                                               ; preds = %9
  %21 = bitcast %"class.std::__1::basic_string"* %11 to i8*
  store i8 0, i8* %21, align 1
  store i8 0, i8* %13, align 1
  br label %22

22:                                               ; preds = %20, %16, %4
  store i32 0, i32* %5, align 4
  %23 = getelementptr inbounds %"class.metrics::SystemProfileProto_OS_Arc", %"class.metrics::SystemProfileProto_OS_Arc"* %0, i64 0, i32 0, i32 1
  %24 = bitcast %"class.google::protobuf::internal::InternalMetadata"* %23 to i64*
  %25 = load i64, i64* %24, align 8
  %26 = and i64 %25, 1
  %27 = icmp eq i64 %26, 0
  br i1 %27, label %42, label %28

28:                                               ; preds = %22
  %29 = and i64 %25, -2
  %30 = inttoptr i64 %29 to %"struct.google::protobuf::internal::InternalMetadata::Container"*
  %31 = getelementptr inbounds %"struct.google::protobuf::internal::InternalMetadata::Container", %"struct.google::protobuf::internal::InternalMetadata::Container"* %30, i64 0, i32 1
  %32 = bitcast %"class.std::__1::basic_string"* %31 to %"struct.std::__1::basic_string<char, std::__1::char_traits<char>, std::__1::allocator<char> >::__short"*
  %33 = getelementptr inbounds %"struct.std::__1::basic_string<char, std::__1::char_traits<char>, std::__1::allocator<char> >::__short", %"struct.std::__1::basic_string<char, std::__1::char_traits<char>, std::__1::allocator<char> >::__short"* %32, i64 0, i32 1, i32 0
  %34 = load i8, i8* %33, align 1
  %35 = icmp slt i8 %34, 0
  br i1 %35, label %36, label %40

36:                                               ; preds = %28
  %37 = getelementptr inbounds %"class.std::__1::basic_string", %"class.std::__1::basic_string"* %31, i64 0, i32 0, i32 0, i32 0, i32 0, i32 0, i32 0
  %38 = load i8*, i8** %37, align 8
  store i8 0, i8* %38, align 1
  %39 = getelementptr inbounds %"struct.google::protobuf::internal::InternalMetadata::Container", %"struct.google::protobuf::internal::InternalMetadata::Container"* %30, i64 0, i32 1, i32 0, i32 0, i32 0, i32 0, i32 0, i32 1
  store i64 0, i64* %39, align 8
  br label %42

40:                                               ; preds = %28
  %41 = bitcast %"class.std::__1::basic_string"* %31 to i8*
  store i8 0, i8* %41, align 2
  store i8 0, i8* %33, align 1
  br label %42

42:                                               ; preds = %22, %36, %40
  tail call void @_ZN7metrics25SystemProfileProto_OS_Arc9MergeFromERKS0_(%"class.metrics::SystemProfileProto_OS_Arc"* %0, %"class.metrics::SystemProfileProto_OS_Arc"* dereferenceable(32) %1)
  br label %43

43:                                               ; preds = %2, %42
  ret void
}

; Function Attrs: norecurse nounwind readnone ssp uwtable
define hidden zeroext i1 @_ZNK7metrics25SystemProfileProto_OS_Arc13IsInitializedEv(%"class.metrics::SystemProfileProto_OS_Arc"* nocapture readnone) unnamed_addr #1 align 2 {
  ret i1 true
}

; Function Attrs: nounwind ssp uwtable
define hidden void @_ZN7metrics25SystemProfileProto_OS_Arc12InternalSwapEPS0_(%"class.metrics::SystemProfileProto_OS_Arc"*, %"class.metrics::SystemProfileProto_OS_Arc"*) local_unnamed_addr #0 align 2 {
  %3 = getelementptr inbounds %"class.metrics::SystemProfileProto_OS_Arc", %"class.metrics::SystemProfileProto_OS_Arc"* %0, i64 0, i32 0, i32 1
  %4 = getelementptr inbounds %"class.metrics::SystemProfileProto_OS_Arc", %"class.metrics::SystemProfileProto_OS_Arc"* %1, i64 0, i32 0, i32 1
  %5 = bitcast %"class.google::protobuf::internal::InternalMetadata"* %3 to i64*
  %6 = load i64, i64* %5, align 8
  %7 = bitcast %"class.google::protobuf::internal::InternalMetadata"* %4 to i64*
  %8 = load i64, i64* %7, align 8
  %9 = or i64 %8, %6
  %10 = and i64 %9, 1
  %11 = icmp eq i64 %10, 0
  br i1 %11, label %43, label %12

12:                                               ; preds = %2
  %13 = and i64 %8, 1
  %14 = icmp eq i64 %13, 0
  br i1 %14, label %19, label %15, !prof !4

15:                                               ; preds = %12
  %16 = and i64 %8, -2
  %17 = inttoptr i64 %16 to %"struct.google::protobuf::internal::InternalMetadata::Container"*
  %18 = getelementptr inbounds %"struct.google::protobuf::internal::InternalMetadata::Container", %"struct.google::protobuf::internal::InternalMetadata::Container"* %17, i64 0, i32 1
  br label %22

19:                                               ; preds = %12
  %20 = tail call %"class.std::__1::basic_string"* @_ZN6google8protobuf8internal16InternalMetadata27mutable_unknown_fields_slowINSt3__112basic_stringIcNS4_11char_traitsIcEENS4_9allocatorIcEEEEEEPT_v(%"class.google::protobuf::internal::InternalMetadata"* %4) #15
  %21 = load i64, i64* %5, align 8
  br label %22

22:                                               ; preds = %19, %15
  %23 = phi i64 [ %6, %15 ], [ %21, %19 ]
  %24 = phi %"class.std::__1::basic_string"* [ %18, %15 ], [ %20, %19 ]
  %25 = and i64 %23, 1
  %26 = icmp eq i64 %25, 0
  br i1 %26, label %31, label %27, !prof !4

27:                                               ; preds = %22
  %28 = and i64 %23, -2
  %29 = inttoptr i64 %28 to %"struct.google::protobuf::internal::InternalMetadata::Container"*
  %30 = getelementptr inbounds %"struct.google::protobuf::internal::InternalMetadata::Container", %"struct.google::protobuf::internal::InternalMetadata::Container"* %29, i64 0, i32 1
  br label %33

31:                                               ; preds = %22
  %32 = tail call %"class.std::__1::basic_string"* @_ZN6google8protobuf8internal16InternalMetadata27mutable_unknown_fields_slowINSt3__112basic_stringIcNS4_11char_traitsIcEENS4_9allocatorIcEEEEEEPT_v(%"class.google::protobuf::internal::InternalMetadata"* %3) #15
  br label %33

33:                                               ; preds = %31, %27
  %34 = phi %"class.std::__1::basic_string"* [ %30, %27 ], [ %32, %31 ]
  %35 = bitcast %"class.std::__1::basic_string"* %34 to <2 x i64>*
  %36 = load <2 x i64>, <2 x i64>* %35, align 8
  %37 = getelementptr inbounds %"class.std::__1::basic_string", %"class.std::__1::basic_string"* %34, i64 0, i32 0, i32 0, i32 0, i32 0, i32 0, i32 2
  %38 = load i64, i64* %37, align 8
  %39 = bitcast %"class.std::__1::basic_string"* %34 to i8*
  %40 = bitcast %"class.std::__1::basic_string"* %24 to i8*
  tail call void @llvm.memcpy.p0i8.p0i8.i64(i8* align 8 %39, i8* align 8 %40, i64 24, i1 false) #15
  %41 = bitcast %"class.std::__1::basic_string"* %24 to <2 x i64>*
  store <2 x i64> %36, <2 x i64>* %41, align 8
  %42 = getelementptr inbounds %"class.std::__1::basic_string", %"class.std::__1::basic_string"* %24, i64 0, i32 0, i32 0, i32 0, i32 0, i32 0, i32 2
  store i64 %38, i64* %42, align 8
  br label %43

43:                                               ; preds = %2, %33
  %44 = getelementptr inbounds %"class.metrics::SystemProfileProto_OS_Arc", %"class.metrics::SystemProfileProto_OS_Arc"* %0, i64 0, i32 1, i32 0, i64 0
  %45 = getelementptr inbounds %"class.metrics::SystemProfileProto_OS_Arc", %"class.metrics::SystemProfileProto_OS_Arc"* %1, i64 0, i32 1, i32 0, i64 0
  %46 = load i32, i32* %44, align 4
  %47 = load i32, i32* %45, align 4
  store i32 %47, i32* %44, align 4
  store i32 %46, i32* %45, align 4
  %48 = getelementptr inbounds %"class.metrics::SystemProfileProto_OS_Arc", %"class.metrics::SystemProfileProto_OS_Arc"* %0, i64 0, i32 3
  %49 = getelementptr inbounds %"class.metrics::SystemProfileProto_OS_Arc", %"class.metrics::SystemProfileProto_OS_Arc"* %1, i64 0, i32 3
  %50 = bitcast %"struct.google::protobuf::internal::ArenaStringPtr"* %48 to i64*
  %51 = load i64, i64* %50, align 8
  %52 = bitcast %"struct.google::protobuf::internal::ArenaStringPtr"* %49 to i64*
  %53 = load i64, i64* %52, align 8
  store i64 %53, i64* %50, align 8
  store i64 %51, i64* %52, align 8
  ret void
}

; Function Attrs: nounwind ssp uwtable
define hidden void @_ZNK7metrics25SystemProfileProto_OS_Arc11GetTypeNameEv(%"class.std::__1::basic_string"* noalias sret, %"class.metrics::SystemProfileProto_OS_Arc"* nocapture readnone) unnamed_addr #0 align 2 {
  %3 = tail call i8* @_Znwm(i64 48) #16
  %4 = getelementptr inbounds %"class.std::__1::basic_string", %"class.std::__1::basic_string"* %0, i64 0, i32 0, i32 0, i32 0, i32 0, i32 0, i32 0
  store i8* %3, i8** %4, align 8
  %5 = getelementptr inbounds %"class.std::__1::basic_string", %"class.std::__1::basic_string"* %0, i64 0, i32 0, i32 0, i32 0, i32 0, i32 0, i32 1
  %6 = bitcast i64* %5 to <2 x i64>*
  store <2 x i64> <i64 33, i64 -9223372036854775760>, <2 x i64>* %6, align 8
  tail call void @llvm.memcpy.p0i8.p0i8.i64(i8* nonnull align 1 %3, i8* align 1 getelementptr inbounds ([34 x i8], [34 x i8]* @.str.38, i64 0, i64 0), i64 33, i1 false) #15
  %7 = getelementptr inbounds i8, i8* %3, i64 33
  store i8 0, i8* %7, align 1
  ret void
}

; Function Attrs: norecurse nounwind readonly ssp uwtable
define hidden dereferenceable(32) %"class.metrics::SystemProfileProto_OS_Arc"* @_ZN7metrics21SystemProfileProto_OS9_Internal3arcEPKS0_(%"class.metrics::SystemProfileProto_OS"* nocapture readonly) local_unnamed_addr #7 align 2 {
  %2 = getelementptr inbounds %"class.metrics::SystemProfileProto_OS", %"class.metrics::SystemProfileProto_OS"* %0, i64 0, i32 8
  %3 = load %"class.metrics::SystemProfileProto_OS_Arc"*, %"class.metrics::SystemProfileProto_OS_Arc"** %2, align 8
  ret %"class.metrics::SystemProfileProto_OS_Arc"* %3
}

; Function Attrs: nounwind ssp uwtable
define hidden void @_ZN7metrics21SystemProfileProto_OSC2EPN6google8protobuf5ArenaE(%"class.metrics::SystemProfileProto_OS"* nocapture, %"class.google::protobuf::Arena"*) unnamed_addr #0 align 2 {
  %3 = getelementptr inbounds %"class.metrics::SystemProfileProto_OS", %"class.metrics::SystemProfileProto_OS"* %0, i64 0, i32 0, i32 0
  %4 = getelementptr inbounds %"class.metrics::SystemProfileProto_OS", %"class.metrics::SystemProfileProto_OS"* %0, i64 0, i32 0, i32 1
  %5 = bitcast %"class.google::protobuf::internal::InternalMetadata"* %4 to %"class.google::protobuf::Arena"**
  store %"class.google::protobuf::Arena"* %1, %"class.google::protobuf::Arena"** %5, align 8
  store i32 (...)** bitcast (i8** getelementptr inbounds ({ [16 x i8*] }, { [16 x i8*] }* @_ZTVN7metrics21SystemProfileProto_OSE, i64 0, inrange i32 0, i64 2) to i32 (...)**), i32 (...)*** %3, align 8
  %6 = getelementptr inbounds %"class.metrics::SystemProfileProto_OS", %"class.metrics::SystemProfileProto_OS"* %0, i64 0, i32 1, i32 0, i64 0
  store i32 0, i32* %6, align 4
  %7 = getelementptr inbounds %"class.metrics::SystemProfileProto_OS", %"class.metrics::SystemProfileProto_OS"* %0, i64 0, i32 2, i32 0, i32 0, i32 0, i32 0, i32 0, i32 0
  store i32 0, i32* %7, align 4
  %8 = load atomic i32, i32* getelementptr inbounds ({ { { { i32 } }, i32, i32, void ()* }, [1 x i8*] }, { { { { i32 } }, i32, i32, void ()* }, [1 x i8*] }* @scc_info_SystemProfileProto_OS_system_5fprofile_2eproto, i64 0, i32 0, i32 0, i32 0, i32 0) acquire, align 8
  %9 = icmp eq i32 %8, 0
  br i1 %9, label %11, label %10, !prof !2

10:                                               ; preds = %2
  tail call void @_ZN6google8protobuf8internal11InitSCCImplEPNS1_11SCCInfoBaseE(%"struct.google::protobuf::internal::SCCInfoBase"* bitcast ({ { { { i32 } }, i32, i32, void ()* }, [1 x i8*] }* @scc_info_SystemProfileProto_OS_system_5fprofile_2eproto to %"struct.google::protobuf::internal::SCCInfoBase"*)) #15
  br label %11

11:                                               ; preds = %2, %10
  %12 = getelementptr inbounds %"class.metrics::SystemProfileProto_OS", %"class.metrics::SystemProfileProto_OS"* %0, i64 0, i32 3, i32 0
  %13 = bitcast %"class.std::__1::basic_string"** %12 to <2 x %"class.std::__1::basic_string"*>*
  store <2 x %"class.std::__1::basic_string"*> <%"class.std::__1::basic_string"* bitcast (%"class.google::protobuf::internal::ExplicitlyConstructed.27"* @_ZN6google8protobuf8internal26fixed_address_empty_stringE to %"class.std::__1::basic_string"*), %"class.std::__1::basic_string"* bitcast (%"class.google::protobuf::internal::ExplicitlyConstructed.27"* @_ZN6google8protobuf8internal26fixed_address_empty_stringE to %"class.std::__1::basic_string"*)>, <2 x %"class.std::__1::basic_string"*>* %13, align 8
  %14 = getelementptr inbounds %"class.metrics::SystemProfileProto_OS", %"class.metrics::SystemProfileProto_OS"* %0, i64 0, i32 5, i32 0
  %15 = bitcast %"class.std::__1::basic_string"** %14 to <2 x %"class.std::__1::basic_string"*>*
  store <2 x %"class.std::__1::basic_string"*> <%"class.std::__1::basic_string"* bitcast (%"class.google::protobuf::internal::ExplicitlyConstructed.27"* @_ZN6google8protobuf8internal26fixed_address_empty_stringE to %"class.std::__1::basic_string"*), %"class.std::__1::basic_string"* bitcast (%"class.google::protobuf::internal::ExplicitlyConstructed.27"* @_ZN6google8protobuf8internal26fixed_address_empty_stringE to %"class.std::__1::basic_string"*)>, <2 x %"class.std::__1::basic_string"*>* %15, align 8
  %16 = getelementptr inbounds %"class.metrics::SystemProfileProto_OS", %"class.metrics::SystemProfileProto_OS"* %0, i64 0, i32 7, i32 0
  store %"class.std::__1::basic_string"* bitcast (%"class.google::protobuf::internal::ExplicitlyConstructed.27"* @_ZN6google8protobuf8internal26fixed_address_empty_stringE to %"class.std::__1::basic_string"*), %"class.std::__1::basic_string"** %16, align 8
  %17 = getelementptr inbounds %"class.metrics::SystemProfileProto_OS", %"class.metrics::SystemProfileProto_OS"* %0, i64 0, i32 8
  %18 = bitcast %"class.metrics::SystemProfileProto_OS_Arc"** %17 to i8*
  tail call void @llvm.memset.p0i8.i64(i8* align 1 %18, i8 0, i64 9, i1 false) #15
  ret void
}

; Function Attrs: nounwind ssp uwtable
define hidden void @_ZN7metrics21SystemProfileProto_OSC2ERKS0_(%"class.metrics::SystemProfileProto_OS"*, %"class.metrics::SystemProfileProto_OS"* nocapture readonly dereferenceable(80)) unnamed_addr #0 align 2 {
  %3 = getelementptr inbounds %"class.metrics::SystemProfileProto_OS", %"class.metrics::SystemProfileProto_OS"* %0, i64 0, i32 0, i32 0
  %4 = getelementptr inbounds %"class.metrics::SystemProfileProto_OS", %"class.metrics::SystemProfileProto_OS"* %0, i64 0, i32 0, i32 1, i32 0
  store i8* null, i8** %4, align 8
  store i32 (...)** bitcast (i8** getelementptr inbounds ({ [16 x i8*] }, { [16 x i8*] }* @_ZTVN7metrics21SystemProfileProto_OSE, i64 0, inrange i32 0, i64 2) to i32 (...)**), i32 (...)*** %3, align 8
  %5 = getelementptr inbounds %"class.metrics::SystemProfileProto_OS", %"class.metrics::SystemProfileProto_OS"* %1, i64 0, i32 1, i32 0, i64 0
  %6 = getelementptr inbounds %"class.metrics::SystemProfileProto_OS", %"class.metrics::SystemProfileProto_OS"* %0, i64 0, i32 1, i32 0, i64 0
  %7 = load i32, i32* %5, align 8
  store i32 %7, i32* %6, align 8
  %8 = getelementptr inbounds %"class.metrics::SystemProfileProto_OS", %"class.metrics::SystemProfileProto_OS"* %0, i64 0, i32 2, i32 0, i32 0, i32 0, i32 0, i32 0, i32 0
  store i32 0, i32* %8, align 4
  %9 = getelementptr inbounds %"class.metrics::SystemProfileProto_OS", %"class.metrics::SystemProfileProto_OS"* %0, i64 0, i32 0, i32 1
  %10 = getelementptr inbounds %"class.metrics::SystemProfileProto_OS", %"class.metrics::SystemProfileProto_OS"* %1, i64 0, i32 0, i32 1
  %11 = bitcast %"class.google::protobuf::internal::InternalMetadata"* %10 to i64*
  %12 = load i64, i64* %11, align 8
  %13 = and i64 %12, 1
  %14 = icmp eq i64 %13, 0
  br i1 %14, label %33, label %15

15:                                               ; preds = %2
  %16 = and i64 %12, -2
  %17 = inttoptr i64 %16 to %"struct.google::protobuf::internal::InternalMetadata::Container"*
  %18 = getelementptr inbounds %"struct.google::protobuf::internal::InternalMetadata::Container", %"struct.google::protobuf::internal::InternalMetadata::Container"* %17, i64 0, i32 1
  %19 = tail call %"class.std::__1::basic_string"* @_ZN6google8protobuf8internal16InternalMetadata27mutable_unknown_fields_slowINSt3__112basic_stringIcNS4_11char_traitsIcEENS4_9allocatorIcEEEEEEPT_v(%"class.google::protobuf::internal::InternalMetadata"* %9) #15
  %20 = bitcast %"class.std::__1::basic_string"* %18 to %"struct.std::__1::basic_string<char, std::__1::char_traits<char>, std::__1::allocator<char> >::__short"*
  %21 = getelementptr inbounds %"struct.std::__1::basic_string<char, std::__1::char_traits<char>, std::__1::allocator<char> >::__short", %"struct.std::__1::basic_string<char, std::__1::char_traits<char>, std::__1::allocator<char> >::__short"* %20, i64 0, i32 1, i32 0
  %22 = load i8, i8* %21, align 1
  %23 = icmp slt i8 %22, 0
  %24 = getelementptr inbounds %"class.std::__1::basic_string", %"class.std::__1::basic_string"* %18, i64 0, i32 0, i32 0, i32 0, i32 0, i32 0, i32 0
  %25 = load i8*, i8** %24, align 8
  %26 = getelementptr inbounds %"struct.google::protobuf::internal::InternalMetadata::Container", %"struct.google::protobuf::internal::InternalMetadata::Container"* %17, i64 0, i32 1, i32 0, i32 0, i32 0, i32 0, i32 0, i32 1
  %27 = load i64, i64* %26, align 8
  %28 = bitcast %"class.std::__1::basic_string"* %18 to i8*
  %29 = zext i8 %22 to i64
  %30 = select i1 %23, i8* %25, i8* %28
  %31 = select i1 %23, i64 %27, i64 %29
  %32 = tail call dereferenceable(24) %"class.std::__1::basic_string"* @_ZNSt3__112basic_stringIcNS_11char_traitsIcEENS_9allocatorIcEEE6appendEPKcm(%"class.std::__1::basic_string"* %19, i8* %30, i64 %31) #15
  br label %33

33:                                               ; preds = %2, %15
  %34 = getelementptr inbounds %"class.metrics::SystemProfileProto_OS", %"class.metrics::SystemProfileProto_OS"* %0, i64 0, i32 3
  %35 = getelementptr inbounds %"struct.google::protobuf::internal::ArenaStringPtr", %"struct.google::protobuf::internal::ArenaStringPtr"* %34, i64 0, i32 0
  store %"class.std::__1::basic_string"* bitcast (%"class.google::protobuf::internal::ExplicitlyConstructed.27"* @_ZN6google8protobuf8internal26fixed_address_empty_stringE to %"class.std::__1::basic_string"*), %"class.std::__1::basic_string"** %35, align 8
  %36 = load i32, i32* %5, align 4
  %37 = and i32 %36, 1
  %38 = icmp eq i32 %37, 0
  br i1 %38, label %55, label %39

39:                                               ; preds = %33
  %40 = getelementptr inbounds %"class.metrics::SystemProfileProto_OS", %"class.metrics::SystemProfileProto_OS"* %1, i64 0, i32 3, i32 0
  %41 = load %"class.std::__1::basic_string"*, %"class.std::__1::basic_string"** %40, align 8
  %42 = bitcast %"class.google::protobuf::internal::InternalMetadata"* %9 to i64*
  %43 = load i64, i64* %42, align 8
  %44 = and i64 %43, 1
  %45 = icmp eq i64 %44, 0
  %46 = and i64 %43, -2
  br i1 %45, label %51, label %47, !prof !2

47:                                               ; preds = %39
  %48 = inttoptr i64 %46 to %"struct.google::protobuf::internal::InternalMetadata::ContainerBase"*
  %49 = getelementptr inbounds %"struct.google::protobuf::internal::InternalMetadata::ContainerBase", %"struct.google::protobuf::internal::InternalMetadata::ContainerBase"* %48, i64 0, i32 0
  %50 = load %"class.google::protobuf::Arena"*, %"class.google::protobuf::Arena"** %49, align 8
  br label %53

51:                                               ; preds = %39
  %52 = inttoptr i64 %46 to %"class.google::protobuf::Arena"*
  br label %53

53:                                               ; preds = %47, %51
  %54 = phi %"class.google::protobuf::Arena"* [ %50, %47 ], [ %52, %51 ]
  tail call void @_ZN6google8protobuf8internal14ArenaStringPtr14CreateInstanceEPNS0_5ArenaEPKNSt3__112basic_stringIcNS5_11char_traitsIcEENS5_9allocatorIcEEEE(%"struct.google::protobuf::internal::ArenaStringPtr"* %34, %"class.google::protobuf::Arena"* %54, %"class.std::__1::basic_string"* %41) #15
  br label %55

55:                                               ; preds = %33, %53
  %56 = getelementptr inbounds %"class.metrics::SystemProfileProto_OS", %"class.metrics::SystemProfileProto_OS"* %0, i64 0, i32 4
  %57 = getelementptr inbounds %"struct.google::protobuf::internal::ArenaStringPtr", %"struct.google::protobuf::internal::ArenaStringPtr"* %56, i64 0, i32 0
  store %"class.std::__1::basic_string"* bitcast (%"class.google::protobuf::internal::ExplicitlyConstructed.27"* @_ZN6google8protobuf8internal26fixed_address_empty_stringE to %"class.std::__1::basic_string"*), %"class.std::__1::basic_string"** %57, align 8
  %58 = load i32, i32* %5, align 4
  %59 = and i32 %58, 2
  %60 = icmp eq i32 %59, 0
  br i1 %60, label %77, label %61

61:                                               ; preds = %55
  %62 = getelementptr inbounds %"class.metrics::SystemProfileProto_OS", %"class.metrics::SystemProfileProto_OS"* %1, i64 0, i32 4, i32 0
  %63 = load %"class.std::__1::basic_string"*, %"class.std::__1::basic_string"** %62, align 8
  %64 = bitcast %"class.google::protobuf::internal::InternalMetadata"* %9 to i64*
  %65 = load i64, i64* %64, align 8
  %66 = and i64 %65, 1
  %67 = icmp eq i64 %66, 0
  %68 = and i64 %65, -2
  br i1 %67, label %73, label %69, !prof !2

69:                                               ; preds = %61
  %70 = inttoptr i64 %68 to %"struct.google::protobuf::internal::InternalMetadata::ContainerBase"*
  %71 = getelementptr inbounds %"struct.google::protobuf::internal::InternalMetadata::ContainerBase", %"struct.google::protobuf::internal::InternalMetadata::ContainerBase"* %70, i64 0, i32 0
  %72 = load %"class.google::protobuf::Arena"*, %"class.google::protobuf::Arena"** %71, align 8
  br label %75

73:                                               ; preds = %61
  %74 = inttoptr i64 %68 to %"class.google::protobuf::Arena"*
  br label %75

75:                                               ; preds = %69, %73
  %76 = phi %"class.google::protobuf::Arena"* [ %72, %69 ], [ %74, %73 ]
  tail call void @_ZN6google8protobuf8internal14ArenaStringPtr14CreateInstanceEPNS0_5ArenaEPKNSt3__112basic_stringIcNS5_11char_traitsIcEENS5_9allocatorIcEEEE(%"struct.google::protobuf::internal::ArenaStringPtr"* %56, %"class.google::protobuf::Arena"* %76, %"class.std::__1::basic_string"* %63) #15
  br label %77

77:                                               ; preds = %55, %75
  %78 = getelementptr inbounds %"class.metrics::SystemProfileProto_OS", %"class.metrics::SystemProfileProto_OS"* %0, i64 0, i32 5
  %79 = getelementptr inbounds %"struct.google::protobuf::internal::ArenaStringPtr", %"struct.google::protobuf::internal::ArenaStringPtr"* %78, i64 0, i32 0
  store %"class.std::__1::basic_string"* bitcast (%"class.google::protobuf::internal::ExplicitlyConstructed.27"* @_ZN6google8protobuf8internal26fixed_address_empty_stringE to %"class.std::__1::basic_string"*), %"class.std::__1::basic_string"** %79, align 8
  %80 = load i32, i32* %5, align 4
  %81 = and i32 %80, 4
  %82 = icmp eq i32 %81, 0
  br i1 %82, label %99, label %83

83:                                               ; preds = %77
  %84 = getelementptr inbounds %"class.metrics::SystemProfileProto_OS", %"class.metrics::SystemProfileProto_OS"* %1, i64 0, i32 5, i32 0
  %85 = load %"class.std::__1::basic_string"*, %"class.std::__1::basic_string"** %84, align 8
  %86 = bitcast %"class.google::protobuf::internal::InternalMetadata"* %9 to i64*
  %87 = load i64, i64* %86, align 8
  %88 = and i64 %87, 1
  %89 = icmp eq i64 %88, 0
  %90 = and i64 %87, -2
  br i1 %89, label %95, label %91, !prof !2

91:                                               ; preds = %83
  %92 = inttoptr i64 %90 to %"struct.google::protobuf::internal::InternalMetadata::ContainerBase"*
  %93 = getelementptr inbounds %"struct.google::protobuf::internal::InternalMetadata::ContainerBase", %"struct.google::protobuf::internal::InternalMetadata::ContainerBase"* %92, i64 0, i32 0
  %94 = load %"class.google::protobuf::Arena"*, %"class.google::protobuf::Arena"** %93, align 8
  br label %97

95:                                               ; preds = %83
  %96 = inttoptr i64 %90 to %"class.google::protobuf::Arena"*
  br label %97

97:                                               ; preds = %91, %95
  %98 = phi %"class.google::protobuf::Arena"* [ %94, %91 ], [ %96, %95 ]
  tail call void @_ZN6google8protobuf8internal14ArenaStringPtr14CreateInstanceEPNS0_5ArenaEPKNSt3__112basic_stringIcNS5_11char_traitsIcEENS5_9allocatorIcEEEE(%"struct.google::protobuf::internal::ArenaStringPtr"* %78, %"class.google::protobuf::Arena"* %98, %"class.std::__1::basic_string"* %85) #15
  br label %99

99:                                               ; preds = %77, %97
  %100 = getelementptr inbounds %"class.metrics::SystemProfileProto_OS", %"class.metrics::SystemProfileProto_OS"* %0, i64 0, i32 6
  %101 = getelementptr inbounds %"struct.google::protobuf::internal::ArenaStringPtr", %"struct.google::protobuf::internal::ArenaStringPtr"* %100, i64 0, i32 0
  store %"class.std::__1::basic_string"* bitcast (%"class.google::protobuf::internal::ExplicitlyConstructed.27"* @_ZN6google8protobuf8internal26fixed_address_empty_stringE to %"class.std::__1::basic_string"*), %"class.std::__1::basic_string"** %101, align 8
  %102 = load i32, i32* %5, align 4
  %103 = and i32 %102, 8
  %104 = icmp eq i32 %103, 0
  br i1 %104, label %121, label %105

105:                                              ; preds = %99
  %106 = getelementptr inbounds %"class.metrics::SystemProfileProto_OS", %"class.metrics::SystemProfileProto_OS"* %1, i64 0, i32 6, i32 0
  %107 = load %"class.std::__1::basic_string"*, %"class.std::__1::basic_string"** %106, align 8
  %108 = bitcast %"class.google::protobuf::internal::InternalMetadata"* %9 to i64*
  %109 = load i64, i64* %108, align 8
  %110 = and i64 %109, 1
  %111 = icmp eq i64 %110, 0
  %112 = and i64 %109, -2
  br i1 %111, label %117, label %113, !prof !2

113:                                              ; preds = %105
  %114 = inttoptr i64 %112 to %"struct.google::protobuf::internal::InternalMetadata::ContainerBase"*
  %115 = getelementptr inbounds %"struct.google::protobuf::internal::InternalMetadata::ContainerBase", %"struct.google::protobuf::internal::InternalMetadata::ContainerBase"* %114, i64 0, i32 0
  %116 = load %"class.google::protobuf::Arena"*, %"class.google::protobuf::Arena"** %115, align 8
  br label %119

117:                                              ; preds = %105
  %118 = inttoptr i64 %112 to %"class.google::protobuf::Arena"*
  br label %119

119:                                              ; preds = %113, %117
  %120 = phi %"class.google::protobuf::Arena"* [ %116, %113 ], [ %118, %117 ]
  tail call void @_ZN6google8protobuf8internal14ArenaStringPtr14CreateInstanceEPNS0_5ArenaEPKNSt3__112basic_stringIcNS5_11char_traitsIcEENS5_9allocatorIcEEEE(%"struct.google::protobuf::internal::ArenaStringPtr"* %100, %"class.google::protobuf::Arena"* %120, %"class.std::__1::basic_string"* %107) #15
  br label %121

121:                                              ; preds = %99, %119
  %122 = getelementptr inbounds %"class.metrics::SystemProfileProto_OS", %"class.metrics::SystemProfileProto_OS"* %0, i64 0, i32 7
  %123 = getelementptr inbounds %"struct.google::protobuf::internal::ArenaStringPtr", %"struct.google::protobuf::internal::ArenaStringPtr"* %122, i64 0, i32 0
  store %"class.std::__1::basic_string"* bitcast (%"class.google::protobuf::internal::ExplicitlyConstructed.27"* @_ZN6google8protobuf8internal26fixed_address_empty_stringE to %"class.std::__1::basic_string"*), %"class.std::__1::basic_string"** %123, align 8
  %124 = load i32, i32* %5, align 4
  %125 = and i32 %124, 16
  %126 = icmp eq i32 %125, 0
  br i1 %126, label %144, label %127

127:                                              ; preds = %121
  %128 = getelementptr inbounds %"class.metrics::SystemProfileProto_OS", %"class.metrics::SystemProfileProto_OS"* %1, i64 0, i32 7, i32 0
  %129 = load %"class.std::__1::basic_string"*, %"class.std::__1::basic_string"** %128, align 8
  %130 = bitcast %"class.google::protobuf::internal::InternalMetadata"* %9 to i64*
  %131 = load i64, i64* %130, align 8
  %132 = and i64 %131, 1
  %133 = icmp eq i64 %132, 0
  %134 = and i64 %131, -2
  br i1 %133, label %139, label %135, !prof !2

135:                                              ; preds = %127
  %136 = inttoptr i64 %134 to %"struct.google::protobuf::internal::InternalMetadata::ContainerBase"*
  %137 = getelementptr inbounds %"struct.google::protobuf::internal::InternalMetadata::ContainerBase", %"struct.google::protobuf::internal::InternalMetadata::ContainerBase"* %136, i64 0, i32 0
  %138 = load %"class.google::protobuf::Arena"*, %"class.google::protobuf::Arena"** %137, align 8
  br label %141

139:                                              ; preds = %127
  %140 = inttoptr i64 %134 to %"class.google::protobuf::Arena"*
  br label %141

141:                                              ; preds = %135, %139
  %142 = phi %"class.google::protobuf::Arena"* [ %138, %135 ], [ %140, %139 ]
  tail call void @_ZN6google8protobuf8internal14ArenaStringPtr14CreateInstanceEPNS0_5ArenaEPKNSt3__112basic_stringIcNS5_11char_traitsIcEENS5_9allocatorIcEEEE(%"struct.google::protobuf::internal::ArenaStringPtr"* %122, %"class.google::protobuf::Arena"* %142, %"class.std::__1::basic_string"* %129) #15
  %143 = load i32, i32* %5, align 4
  br label %144

144:                                              ; preds = %121, %141
  %145 = phi i32 [ %124, %121 ], [ %143, %141 ]
  %146 = and i32 %145, 32
  %147 = icmp eq i32 %146, 0
  br i1 %147, label %155, label %148

148:                                              ; preds = %144
  %149 = getelementptr inbounds %"class.metrics::SystemProfileProto_OS", %"class.metrics::SystemProfileProto_OS"* %1, i64 0, i32 8
  %150 = load %"class.metrics::SystemProfileProto_OS_Arc"*, %"class.metrics::SystemProfileProto_OS_Arc"** %149, align 8, !nonnull !7
  %151 = tail call i8* @_Znwm(i64 32) #16
  %152 = bitcast i8* %151 to %"class.metrics::SystemProfileProto_OS_Arc"*
  tail call void @_ZN7metrics25SystemProfileProto_OS_ArcC2ERKS0_(%"class.metrics::SystemProfileProto_OS_Arc"* nonnull %152, %"class.metrics::SystemProfileProto_OS_Arc"* nonnull dereferenceable(32) %150)
  %153 = getelementptr inbounds %"class.metrics::SystemProfileProto_OS", %"class.metrics::SystemProfileProto_OS"* %0, i64 0, i32 8
  %154 = bitcast %"class.metrics::SystemProfileProto_OS_Arc"** %153 to i8**
  store i8* %151, i8** %154, align 8
  br label %157

155:                                              ; preds = %144
  %156 = getelementptr inbounds %"class.metrics::SystemProfileProto_OS", %"class.metrics::SystemProfileProto_OS"* %0, i64 0, i32 8
  store %"class.metrics::SystemProfileProto_OS_Arc"* null, %"class.metrics::SystemProfileProto_OS_Arc"** %156, align 8
  br label %157

157:                                              ; preds = %155, %148
  %158 = getelementptr inbounds %"class.metrics::SystemProfileProto_OS", %"class.metrics::SystemProfileProto_OS"* %1, i64 0, i32 9
  %159 = load i8, i8* %158, align 8, !range !8
  %160 = getelementptr inbounds %"class.metrics::SystemProfileProto_OS", %"class.metrics::SystemProfileProto_OS"* %0, i64 0, i32 9
  store i8 %159, i8* %160, align 8
  ret void
}

; Function Attrs: nobuiltin nofree
declare noalias nonnull i8* @_Znwm(i64) local_unnamed_addr #8

; Function Attrs: nounwind ssp uwtable
define hidden void @_ZN7metrics21SystemProfileProto_OSD2Ev(%"class.metrics::SystemProfileProto_OS"*) unnamed_addr #0 align 2 {
  %2 = getelementptr inbounds %"class.metrics::SystemProfileProto_OS", %"class.metrics::SystemProfileProto_OS"* %0, i64 0, i32 0, i32 0
  store i32 (...)** bitcast (i8** getelementptr inbounds ({ [16 x i8*] }, { [16 x i8*] }* @_ZTVN7metrics21SystemProfileProto_OSE, i64 0, inrange i32 0, i64 2) to i32 (...)**), i32 (...)*** %2, align 8
  %3 = getelementptr inbounds %"class.metrics::SystemProfileProto_OS", %"class.metrics::SystemProfileProto_OS"* %0, i64 0, i32 3
  tail call void @_ZN6google8protobuf8internal14ArenaStringPtr14DestroyNoArenaEPKNSt3__112basic_stringIcNS3_11char_traitsIcEENS3_9allocatorIcEEEE(%"struct.google::protobuf::internal::ArenaStringPtr"* %3, %"class.std::__1::basic_string"* bitcast (%"class.google::protobuf::internal::ExplicitlyConstructed.27"* @_ZN6google8protobuf8internal26fixed_address_empty_stringE to %"class.std::__1::basic_string"*)) #15
  %4 = getelementptr inbounds %"class.metrics::SystemProfileProto_OS", %"class.metrics::SystemProfileProto_OS"* %0, i64 0, i32 4
  tail call void @_ZN6google8protobuf8internal14ArenaStringPtr14DestroyNoArenaEPKNSt3__112basic_stringIcNS3_11char_traitsIcEENS3_9allocatorIcEEEE(%"struct.google::protobuf::internal::ArenaStringPtr"* %4, %"class.std::__1::basic_string"* bitcast (%"class.google::protobuf::internal::ExplicitlyConstructed.27"* @_ZN6google8protobuf8internal26fixed_address_empty_stringE to %"class.std::__1::basic_string"*)) #15
  %5 = getelementptr inbounds %"class.metrics::SystemProfileProto_OS", %"class.metrics::SystemProfileProto_OS"* %0, i64 0, i32 5
  tail call void @_ZN6google8protobuf8internal14ArenaStringPtr14DestroyNoArenaEPKNSt3__112basic_stringIcNS3_11char_traitsIcEENS3_9allocatorIcEEEE(%"struct.google::protobuf::internal::ArenaStringPtr"* %5, %"class.std::__1::basic_string"* bitcast (%"class.google::protobuf::internal::ExplicitlyConstructed.27"* @_ZN6google8protobuf8internal26fixed_address_empty_stringE to %"class.std::__1::basic_string"*)) #15
  %6 = getelementptr inbounds %"class.metrics::SystemProfileProto_OS", %"class.metrics::SystemProfileProto_OS"* %0, i64 0, i32 6
  tail call void @_ZN6google8protobuf8internal14ArenaStringPtr14DestroyNoArenaEPKNSt3__112basic_stringIcNS3_11char_traitsIcEENS3_9allocatorIcEEEE(%"struct.google::protobuf::internal::ArenaStringPtr"* %6, %"class.std::__1::basic_string"* bitcast (%"class.google::protobuf::internal::ExplicitlyConstructed.27"* @_ZN6google8protobuf8internal26fixed_address_empty_stringE to %"class.std::__1::basic_string"*)) #15
  %7 = getelementptr inbounds %"class.metrics::SystemProfileProto_OS", %"class.metrics::SystemProfileProto_OS"* %0, i64 0, i32 7
  tail call void @_ZN6google8protobuf8internal14ArenaStringPtr14DestroyNoArenaEPKNSt3__112basic_stringIcNS3_11char_traitsIcEENS3_9allocatorIcEEEE(%"struct.google::protobuf::internal::ArenaStringPtr"* %7, %"class.std::__1::basic_string"* bitcast (%"class.google::protobuf::internal::ExplicitlyConstructed.27"* @_ZN6google8protobuf8internal26fixed_address_empty_stringE to %"class.std::__1::basic_string"*)) #15
  %8 = icmp eq %"class.metrics::SystemProfileProto_OS"* %0, bitcast (%"class.metrics::SystemProfileProto_OSDefaultTypeInternal"* @_ZN7metrics40_SystemProfileProto_OS_default_instance_E to %"class.metrics::SystemProfileProto_OS"*)
  br i1 %8, label %18, label %9

9:                                                ; preds = %1
  %10 = getelementptr inbounds %"class.metrics::SystemProfileProto_OS", %"class.metrics::SystemProfileProto_OS"* %0, i64 0, i32 8
  %11 = load %"class.metrics::SystemProfileProto_OS_Arc"*, %"class.metrics::SystemProfileProto_OS_Arc"** %10, align 8
  %12 = icmp eq %"class.metrics::SystemProfileProto_OS_Arc"* %11, null
  br i1 %12, label %18, label %13

13:                                               ; preds = %9
  %14 = bitcast %"class.metrics::SystemProfileProto_OS_Arc"* %11 to void (%"class.metrics::SystemProfileProto_OS_Arc"*)***
  %15 = load void (%"class.metrics::SystemProfileProto_OS_Arc"*)**, void (%"class.metrics::SystemProfileProto_OS_Arc"*)*** %14, align 8
  %16 = getelementptr inbounds void (%"class.metrics::SystemProfileProto_OS_Arc"*)*, void (%"class.metrics::SystemProfileProto_OS_Arc"*)** %15, i64 1
  %17 = load void (%"class.metrics::SystemProfileProto_OS_Arc"*)*, void (%"class.metrics::SystemProfileProto_OS_Arc"*)** %16, align 8
  tail call void %17(%"class.metrics::SystemProfileProto_OS_Arc"* nonnull %11) #15
  br label %18

18:                                               ; preds = %1, %9, %13
  %19 = getelementptr inbounds %"class.metrics::SystemProfileProto_OS", %"class.metrics::SystemProfileProto_OS"* %0, i64 0, i32 0, i32 1
  %20 = bitcast %"class.google::protobuf::internal::InternalMetadata"* %19 to i64*
  %21 = load i64, i64* %20, align 8
  %22 = and i64 %21, 1
  %23 = icmp eq i64 %22, 0
  br i1 %23, label %44, label %24

24:                                               ; preds = %18
  %25 = and i64 %21, -2
  %26 = inttoptr i64 %25 to %"struct.google::protobuf::internal::InternalMetadata::ContainerBase"*
  %27 = getelementptr inbounds %"struct.google::protobuf::internal::InternalMetadata::ContainerBase", %"struct.google::protobuf::internal::InternalMetadata::ContainerBase"* %26, i64 0, i32 0
  %28 = load %"class.google::protobuf::Arena"*, %"class.google::protobuf::Arena"** %27, align 8
  %29 = icmp ne %"class.google::protobuf::Arena"* %28, null
  %30 = icmp eq i64 %25, 0
  %31 = or i1 %30, %29
  br i1 %31, label %44, label %32

32:                                               ; preds = %24
  %33 = inttoptr i64 %25 to %"struct.google::protobuf::internal::InternalMetadata::Container"*
  %34 = getelementptr inbounds %"struct.google::protobuf::internal::InternalMetadata::Container", %"struct.google::protobuf::internal::InternalMetadata::Container"* %33, i64 0, i32 1
  %35 = bitcast %"class.std::__1::basic_string"* %34 to %"struct.std::__1::basic_string<char, std::__1::char_traits<char>, std::__1::allocator<char> >::__short"*
  %36 = getelementptr inbounds %"struct.std::__1::basic_string<char, std::__1::char_traits<char>, std::__1::allocator<char> >::__short", %"struct.std::__1::basic_string<char, std::__1::char_traits<char>, std::__1::allocator<char> >::__short"* %35, i64 0, i32 1, i32 0
  %37 = load i8, i8* %36, align 1
  %38 = icmp slt i8 %37, 0
  br i1 %38, label %39, label %42

39:                                               ; preds = %32
  %40 = getelementptr inbounds %"class.std::__1::basic_string", %"class.std::__1::basic_string"* %34, i64 0, i32 0, i32 0, i32 0, i32 0, i32 0, i32 0
  %41 = load i8*, i8** %40, align 8
  tail call void @_ZdlPv(i8* %41) #16
  br label %42

42:                                               ; preds = %39, %32
  %43 = inttoptr i64 %25 to i8*
  tail call void @_ZdlPv(i8* %43) #16
  br label %44

44:                                               ; preds = %18, %24, %42
  ret void
}

; Function Attrs: nounwind ssp uwtable
define hidden void @_ZN7metrics21SystemProfileProto_OSD0Ev(%"class.metrics::SystemProfileProto_OS"*) unnamed_addr #0 align 2 {
  tail call void @_ZN7metrics21SystemProfileProto_OSD2Ev(%"class.metrics::SystemProfileProto_OS"* %0) #15
  %2 = bitcast %"class.metrics::SystemProfileProto_OS"* %0 to i8*
  tail call void @_ZdlPv(i8* %2) #16
  ret void
}

; Function Attrs: norecurse nounwind readnone ssp uwtable
define hidden void @_ZN7metrics21SystemProfileProto_OS9ArenaDtorEPv(i8* nocapture) local_unnamed_addr #1 align 2 {
  ret void
}

; Function Attrs: nofree norecurse nounwind ssp uwtable
define hidden void @_ZNK7metrics21SystemProfileProto_OS13SetCachedSizeEi(%"class.metrics::SystemProfileProto_OS"* nocapture, i32) local_unnamed_addr #6 align 2 {
  %3 = getelementptr inbounds %"class.metrics::SystemProfileProto_OS", %"class.metrics::SystemProfileProto_OS"* %0, i64 0, i32 2, i32 0, i32 0, i32 0, i32 0, i32 0, i32 0
  store atomic i32 %1, i32* %3 monotonic, align 4
  ret void
}

; Function Attrs: nounwind ssp uwtable
define hidden dereferenceable(80) %"class.metrics::SystemProfileProto_OS"* @_ZN7metrics21SystemProfileProto_OS16default_instanceEv() local_unnamed_addr #0 align 2 {
  %1 = load atomic i32, i32* getelementptr inbounds ({ { { { i32 } }, i32, i32, void ()* }, [1 x i8*] }, { { { { i32 } }, i32, i32, void ()* }, [1 x i8*] }* @scc_info_SystemProfileProto_OS_system_5fprofile_2eproto, i64 0, i32 0, i32 0, i32 0, i32 0) acquire, align 8
  %2 = icmp eq i32 %1, 0
  br i1 %2, label %4, label %3, !prof !2

3:                                                ; preds = %0
  tail call void @_ZN6google8protobuf8internal11InitSCCImplEPNS1_11SCCInfoBaseE(%"struct.google::protobuf::internal::SCCInfoBase"* bitcast ({ { { { i32 } }, i32, i32, void ()* }, [1 x i8*] }* @scc_info_SystemProfileProto_OS_system_5fprofile_2eproto to %"struct.google::protobuf::internal::SCCInfoBase"*)) #15
  br label %4

4:                                                ; preds = %0, %3
  ret %"class.metrics::SystemProfileProto_OS"* bitcast (%"class.metrics::SystemProfileProto_OSDefaultTypeInternal"* @_ZN7metrics40_SystemProfileProto_OS_default_instance_E to %"class.metrics::SystemProfileProto_OS"*)
}

; Function Attrs: nofree norecurse nounwind ssp uwtable
define hidden void @_ZN7metrics21SystemProfileProto_OS5ClearEv(%"class.metrics::SystemProfileProto_OS"* nocapture) unnamed_addr #6 align 2 {
  %2 = getelementptr inbounds %"class.metrics::SystemProfileProto_OS", %"class.metrics::SystemProfileProto_OS"* %0, i64 0, i32 1, i32 0, i64 0
  %3 = load i32, i32* %2, align 4
  %4 = and i32 %3, 63
  %5 = icmp eq i32 %4, 0
  br i1 %5, label %129, label %6

6:                                                ; preds = %1
  %7 = and i32 %3, 1
  %8 = icmp eq i32 %7, 0
  br i1 %8, label %22, label %9

9:                                                ; preds = %6
  %10 = getelementptr inbounds %"class.metrics::SystemProfileProto_OS", %"class.metrics::SystemProfileProto_OS"* %0, i64 0, i32 3, i32 0
  %11 = load %"class.std::__1::basic_string"*, %"class.std::__1::basic_string"** %10, align 8
  %12 = bitcast %"class.std::__1::basic_string"* %11 to %"struct.std::__1::basic_string<char, std::__1::char_traits<char>, std::__1::allocator<char> >::__short"*
  %13 = getelementptr inbounds %"struct.std::__1::basic_string<char, std::__1::char_traits<char>, std::__1::allocator<char> >::__short", %"struct.std::__1::basic_string<char, std::__1::char_traits<char>, std::__1::allocator<char> >::__short"* %12, i64 0, i32 1, i32 0
  %14 = load i8, i8* %13, align 1
  %15 = icmp slt i8 %14, 0
  br i1 %15, label %16, label %20

16:                                               ; preds = %9
  %17 = getelementptr inbounds %"class.std::__1::basic_string", %"class.std::__1::basic_string"* %11, i64 0, i32 0, i32 0, i32 0, i32 0, i32 0, i32 0
  %18 = load i8*, i8** %17, align 8
  store i8 0, i8* %18, align 1
  %19 = getelementptr inbounds %"class.std::__1::basic_string", %"class.std::__1::basic_string"* %11, i64 0, i32 0, i32 0, i32 0, i32 0, i32 0, i32 1
  store i64 0, i64* %19, align 8
  br label %22

20:                                               ; preds = %9
  %21 = bitcast %"class.std::__1::basic_string"* %11 to i8*
  store i8 0, i8* %21, align 1
  store i8 0, i8* %13, align 1
  br label %22

22:                                               ; preds = %20, %16, %6
  %23 = and i32 %3, 2
  %24 = icmp eq i32 %23, 0
  br i1 %24, label %38, label %25

25:                                               ; preds = %22
  %26 = getelementptr inbounds %"class.metrics::SystemProfileProto_OS", %"class.metrics::SystemProfileProto_OS"* %0, i64 0, i32 4, i32 0
  %27 = load %"class.std::__1::basic_string"*, %"class.std::__1::basic_string"** %26, align 8
  %28 = bitcast %"class.std::__1::basic_string"* %27 to %"struct.std::__1::basic_string<char, std::__1::char_traits<char>, std::__1::allocator<char> >::__short"*
  %29 = getelementptr inbounds %"struct.std::__1::basic_string<char, std::__1::char_traits<char>, std::__1::allocator<char> >::__short", %"struct.std::__1::basic_string<char, std::__1::char_traits<char>, std::__1::allocator<char> >::__short"* %28, i64 0, i32 1, i32 0
  %30 = load i8, i8* %29, align 1
  %31 = icmp slt i8 %30, 0
  br i1 %31, label %32, label %36

32:                                               ; preds = %25
  %33 = getelementptr inbounds %"class.std::__1::basic_string", %"class.std::__1::basic_string"* %27, i64 0, i32 0, i32 0, i32 0, i32 0, i32 0, i32 0
  %34 = load i8*, i8** %33, align 8
  store i8 0, i8* %34, align 1
  %35 = getelementptr inbounds %"class.std::__1::basic_string", %"class.std::__1::basic_string"* %27, i64 0, i32 0, i32 0, i32 0, i32 0, i32 0, i32 1
  store i64 0, i64* %35, align 8
  br label %38

36:                                               ; preds = %25
