; ModuleID = '../../extensions/browser/api/system_display/system_display_api.cc'
source_filename = "../../extensions/browser/api/system_display/system_display_api.cc"
target datalayout = "e-m:e-i64:64-f80:128-n8:16:32:64-S128"
target triple = "x86_64-unknown-linux-gnu"

module asm ".symver exp, exp@GLIBC_2.2.5"
module asm ".symver exp2, exp2@GLIBC_2.2.5"
module asm ".symver exp2f, exp2f@GLIBC_2.2.5"
module asm ".symver expf, expf@GLIBC_2.2.5"
module asm ".symver lgamma, lgamma@GLIBC_2.2.5"
module asm ".symver lgammaf, lgammaf@GLIBC_2.2.5"
module asm ".symver lgammal, lgammal@GLIBC_2.2.5"
module asm ".symver log, log@GLIBC_2.2.5"
module asm ".symver log2, log2@GLIBC_2.2.5"
module asm ".symver log2f, log2f@GLIBC_2.2.5"
module asm ".symver logf, logf@GLIBC_2.2.5"
module asm ".symver pow, pow@GLIBC_2.2.5"
module asm ".symver powf, powf@GLIBC_2.2.5"

%"class.extensions::(anonymous namespace)::OverscanTracker" = type { %"class.std::__1::map.358" }
%"class.std::__1::map.358" = type { %"class.std::__1::__tree.359" }
%"class.std::__1::__tree.359" = type { %"class.std::__1::__tree_end_node"*, %"class.std::__1::__compressed_pair.360", %"class.std::__1::__compressed_pair.364" }
%"class.std::__1::__tree_end_node" = type { %"class.std::__1::__tree_node_base"* }
%"class.std::__1::__tree_node_base" = type <{ %"class.std::__1::__tree_end_node", %"class.std::__1::__tree_node_base"*, %"class.std::__1::__tree_end_node"*, i8, [7 x i8] }>
%"class.std::__1::__compressed_pair.360" = type { %"struct.std::__1::__compressed_pair_elem.4" }
%"struct.std::__1::__compressed_pair_elem.4" = type { %"class.std::__1::__tree_end_node" }
%"class.std::__1::__compressed_pair.364" = type { %"struct.std::__1::__compressed_pair_elem.9" }
%"struct.std::__1::__compressed_pair_elem.9" = type { i64 }
%"class.extensions::SystemDisplayCrOSRestrictedFunction" = type { %class.ExtensionFunction.base, [4 x i8] }
%class.ExtensionFunction.base = type <{ i32 (...)**, %"class.base::RefCountedThreadSafe", [4 x i8], %class.scoped_refptr, %"class.std::__1::unique_ptr.133", %"class.base::ElapsedTimer", %"class.std::__1::unique_ptr.133", %"class.std::__1::basic_string", %"class.base::OnceCallback", i32, [4 x i8], i8*, i8*, %class.GURL, i8, i8, i8, i8, i32, i32, i32, i64, %"class.std::__1::unique_ptr.141", i8, [7 x i8], %"class.base::WeakPtr", %"class.content::BrowserContext"*, %"class.content::BrowserContext"*, %"class.base::CallbackListSubscription", %"class.content::RenderFrameHost"*, %"class.std::__1::unique_ptr.155", %"class.std::__1::vector.161", i32 }>
%"class.base::RefCountedThreadSafe" = type { %"class.base::subtle::RefCountedThreadSafeBase" }
%"class.base::subtle::RefCountedThreadSafeBase" = type { %"class.base::AtomicRefCount" }
%"class.base::AtomicRefCount" = type { %"struct.std::__1::atomic" }
%"struct.std::__1::atomic" = type { %"struct.std::__1::__atomic_base" }
%"struct.std::__1::__atomic_base" = type { %"struct.std::__1::__atomic_base.0" }
%"struct.std::__1::__atomic_base.0" = type { %"struct.std::__1::__cxx_atomic_impl" }
%"struct.std::__1::__cxx_atomic_impl" = type { %"struct.std::__1::__cxx_atomic_base_impl" }
%"struct.std::__1::__cxx_atomic_base_impl" = type { i32 }
%class.scoped_refptr = type { %"class.extensions::Extension"* }
%"class.extensions::Extension" = type { %"class.base::RefCountedThreadSafe.1", %"class.std::__1::basic_string", %"class.std::__1::basic_string", %"class.std::__1::basic_string", i32, %"class.base::FilePath", %"class.extensions::URLPatternSet", %"class.std::__1::unique_ptr", %"class.std::__1::unique_ptr.14", %"class.std::__1::vector", %class.GURL, %"class.base::Version", %"class.std::__1::basic_string", %"class.std::__1::basic_string", i8, %"class.std::__1::basic_string", %"class.std::__1::unique_ptr.83", %"class.std::__1::map.124", i8, %"class.base::ThreadChecker", i8, i8, i8, i32, %"class.base::GUID" }
%"class.base::RefCountedThreadSafe.1" = type { %"class.base::subtle::RefCountedThreadSafeBase" }
%"class.base::FilePath" = type { %"class.std::__1::basic_string" }
%"class.extensions::URLPatternSet" = type { %"class.std::__1::set" }
%"class.std::__1::set" = type { %"class.std::__1::__tree" }
%"class.std::__1::__tree" = type { %"class.std::__1::__tree_end_node"*, %"class.std::__1::__compressed_pair.3", %"class.std::__1::__compressed_pair.8" }
%"class.std::__1::__compressed_pair.3" = type { %"struct.std::__1::__compressed_pair_elem.4" }
%"class.std::__1::__compressed_pair.8" = type { %"struct.std::__1::__compressed_pair_elem.9" }
%"class.std::__1::unique_ptr" = type { %"class.std::__1::__compressed_pair.11" }
%"class.std::__1::__compressed_pair.11" = type { %"struct.std::__1::__compressed_pair_elem.12" }
%"struct.std::__1::__compressed_pair_elem.12" = type { %"class.extensions::PermissionsParser"* }
%"class.extensions::PermissionsParser" = type opaque
%"class.std::__1::unique_ptr.14" = type { %"class.std::__1::__compressed_pair.15" }
%"class.std::__1::__compressed_pair.15" = type { %"struct.std::__1::__compressed_pair_elem.16" }
%"struct.std::__1::__compressed_pair_elem.16" = type { %"class.extensions::PermissionsData"* }
%"class.extensions::PermissionsData" = type { i32 (...)**, %"class.std::__1::basic_string", i32, i32, %"class.base::Lock", %"class.std::__1::unique_ptr.17", %"class.std::__1::unique_ptr.17", %"class.extensions::URLPatternSet", %"class.extensions::URLPatternSet", %"class.absl::optional", %"class.std::__1::map.45", %"class.std::__1::unique_ptr.56" }
%"class.base::Lock" = type { %"class.base::internal::LockImpl" }
%"class.base::internal::LockImpl" = type { %union.pthread_mutex_t }
%union.pthread_mutex_t = type { %struct.__pthread_mutex_s }
%struct.__pthread_mutex_s = type { i32, i32, i32, i32, i32, i16, i16, %struct.__pthread_internal_list }
%struct.__pthread_internal_list = type { %struct.__pthread_internal_list*, %struct.__pthread_internal_list* }
%"class.std::__1::unique_ptr.17" = type { %"class.std::__1::__compressed_pair.18" }
%"class.std::__1::__compressed_pair.18" = type { %"struct.std::__1::__compressed_pair_elem.19" }
%"struct.std::__1::__compressed_pair_elem.19" = type { %"class.extensions::PermissionSet"* }
%"class.extensions::PermissionSet" = type { %"class.extensions::APIPermissionSet", %"class.extensions::ManifestPermissionSet", %"class.extensions::URLPatternSet", %"class.extensions::URLPatternSet", %"class.extensions::URLPatternSet", i32, i32 }
%"class.extensions::APIPermissionSet" = type { %"class.extensions::BaseSetOperators" }
%"class.extensions::BaseSetOperators" = type { %"class.std::__1::map" }
%"class.std::__1::map" = type { %"class.std::__1::__tree.20" }
%"class.std::__1::__tree.20" = type { %"class.std::__1::__tree_end_node"*, %"class.std::__1::__compressed_pair.21", %"class.std::__1::__compressed_pair.25" }
%"class.std::__1::__compressed_pair.21" = type { %"struct.std::__1::__compressed_pair_elem.4" }
%"class.std::__1::__compressed_pair.25" = type { %"struct.std::__1::__compressed_pair_elem.9" }
%"class.extensions::ManifestPermissionSet" = type { %"class.extensions::BaseSetOperators.29" }
%"class.extensions::BaseSetOperators.29" = type { %"class.std::__1::map.30" }
%"class.std::__1::map.30" = type { %"class.std::__1::__tree.31" }
%"class.std::__1::__tree.31" = type { %"class.std::__1::__tree_end_node"*, %"class.std::__1::__compressed_pair.32", %"class.std::__1::__compressed_pair.36" }
%"class.std::__1::__compressed_pair.32" = type { %"struct.std::__1::__compressed_pair_elem.4" }
%"class.std::__1::__compressed_pair.36" = type { %"struct.std::__1::__compressed_pair_elem.9" }
%"class.absl::optional" = type { %"class.absl::optional_internal::optional_data" }
%"class.absl::optional_internal::optional_data" = type { %"class.absl::optional_internal::optional_data_base" }
%"class.absl::optional_internal::optional_data_base" = type { %"class.absl::optional_internal::optional_data_dtor_base" }
%"class.absl::optional_internal::optional_data_dtor_base" = type { i8, %union.anon.44 }
%union.anon.44 = type { i32 }
%"class.std::__1::map.45" = type { %"class.std::__1::__tree.46" }
%"class.std::__1::__tree.46" = type { %"class.std::__1::__tree_end_node"*, %"class.std::__1::__compressed_pair.47", %"class.std::__1::__compressed_pair.51" }
%"class.std::__1::__compressed_pair.47" = type { %"struct.std::__1::__compressed_pair_elem.4" }
%"class.std::__1::__compressed_pair.51" = type { %"struct.std::__1::__compressed_pair_elem.9" }
%"class.std::__1::unique_ptr.56" = type { %"class.std::__1::__compressed_pair.57" }
%"class.std::__1::__compressed_pair.57" = type { %"struct.std::__1::__compressed_pair_elem.58" }
%"struct.std::__1::__compressed_pair_elem.58" = type { %"class.base::ThreadChecker"* }
%"class.std::__1::vector" = type { %"class.std::__1::__vector_base" }
%"class.std::__1::__vector_base" = type { %"struct.extensions::InstallWarning"*, %"struct.extensions::InstallWarning"*, %"class.std::__1::__compressed_pair.65" }
%"struct.extensions::InstallWarning" = type { %"class.std::__1::basic_string", %"class.std::__1::basic_string", %"class.std::__1::basic_string" }
%"class.std::__1::__compressed_pair.65" = type { %"struct.std::__1::__compressed_pair_elem.66" }
%"struct.std::__1::__compressed_pair_elem.66" = type { %"struct.extensions::InstallWarning"* }
%"class.base::Version" = type { %"class.std::__1::vector.76" }
%"class.std::__1::vector.76" = type { %"class.std::__1::__vector_base.77" }
%"class.std::__1::__vector_base.77" = type { i32*, i32*, %"class.std::__1::__compressed_pair.78" }
%"class.std::__1::__compressed_pair.78" = type { %"struct.std::__1::__compressed_pair_elem.79" }
%"struct.std::__1::__compressed_pair_elem.79" = type { i32* }
%"class.std::__1::unique_ptr.83" = type { %"class.std::__1::__compressed_pair.84" }
%"class.std::__1::__compressed_pair.84" = type { %"struct.std::__1::__compressed_pair_elem.85" }
%"struct.std::__1::__compressed_pair_elem.85" = type { %"class.extensions::Manifest"* }
%"class.extensions::Manifest" = type { %"class.std::__1::basic_string", %"class.extensions::HashedExtensionId", i32, %"class.std::__1::unique_ptr.86", %"class.std::__1::unique_ptr.86", i32, i32 }
%"class.extensions::HashedExtensionId" = type { %"class.std::__1::basic_string" }
%"class.std::__1::unique_ptr.86" = type { %"class.std::__1::__compressed_pair.87" }
%"class.std::__1::__compressed_pair.87" = type { %"struct.std::__1::__compressed_pair_elem.88" }
%"struct.std::__1::__compressed_pair_elem.88" = type { %"class.base::DictionaryValue"* }
%"class.base::DictionaryValue" = type { %"class.base::Value" }
%"class.base::Value" = type { %"class.absl::variant" }
%"class.absl::variant" = type { %"class.absl::variant_internal::VariantCopyAssignBaseNontrivial" }
%"class.absl::variant_internal::VariantCopyAssignBaseNontrivial" = type { %"class.absl::variant_internal::VariantMoveAssignBaseNontrivial" }
%"class.absl::variant_internal::VariantMoveAssignBaseNontrivial" = type { %"class.absl::variant_internal::VariantCopyBaseNontrivial" }
%"class.absl::variant_internal::VariantCopyBaseNontrivial" = type { %"class.absl::variant_internal::VariantMoveBaseNontrivial" }
%"class.absl::variant_internal::VariantMoveBaseNontrivial" = type { %"class.absl::variant_internal::VariantStateBaseDestructorNontrivial" }
%"class.absl::variant_internal::VariantStateBaseDestructorNontrivial" = type { %"class.absl::variant_internal::VariantStateBase" }
%"class.absl::variant_internal::VariantStateBase" = type { %"union.absl::variant_internal::DestructibleUnionImpl", i64 }
%"union.absl::variant_internal::DestructibleUnionImpl" = type { %"union.absl::variant_internal::DestructibleUnionImpl.89" }
%"union.absl::variant_internal::DestructibleUnionImpl.89" = type { %"union.absl::variant_internal::DestructibleUnionImpl.90" }
%"union.absl::variant_internal::DestructibleUnionImpl.90" = type { %"union.absl::variant_internal::DestructibleUnionImpl.91" }
%"union.absl::variant_internal::DestructibleUnionImpl.91" = type { %"union.absl::variant_internal::DestructibleUnionImpl.92" }
%"union.absl::variant_internal::DestructibleUnionImpl.92" = type { %"class.std::__1::basic_string" }
%"class.std::__1::map.124" = type { %"class.std::__1::__tree.125" }
%"class.std::__1::__tree.125" = type { %"class.std::__1::__tree_end_node"*, %"class.std::__1::__compressed_pair.126", %"class.std::__1::__compressed_pair.130" }
%"class.std::__1::__compressed_pair.126" = type { %"struct.std::__1::__compressed_pair_elem.4" }
%"class.std::__1::__compressed_pair.130" = type { %"struct.std::__1::__compressed_pair_elem.9" }
%"class.base::ThreadChecker" = type { i8 }
%"class.base::GUID" = type { %"class.std::__1::basic_string" }
%"class.base::ElapsedTimer" = type { %"class.base::TimeTicks" }
%"class.base::TimeTicks" = type { %"class.base::time_internal::TimeBase" }
%"class.base::time_internal::TimeBase" = type { i64 }
%"class.std::__1::unique_ptr.133" = type { %"class.std::__1::__compressed_pair.134" }
%"class.std::__1::__compressed_pair.134" = type { %"struct.std::__1::__compressed_pair_elem.135" }
%"struct.std::__1::__compressed_pair_elem.135" = type { %"class.base::ListValue"* }
%"class.base::ListValue" = type { %"class.base::Value" }
%"class.std::__1::basic_string" = type { %"class.std::__1::__compressed_pair" }
%"class.std::__1::__compressed_pair" = type { %"struct.std::__1::__compressed_pair_elem" }
%"struct.std::__1::__compressed_pair_elem" = type { %"struct.std::__1::basic_string<char, std::__1::char_traits<char>, std::__1::allocator<char> >::__rep" }
%"struct.std::__1::basic_string<char, std::__1::char_traits<char>, std::__1::allocator<char> >::__rep" = type { %union.anon }
%union.anon = type { %"struct.std::__1::basic_string<char, std::__1::char_traits<char>, std::__1::allocator<char> >::__long" }
%"struct.std::__1::basic_string<char, std::__1::char_traits<char>, std::__1::allocator<char> >::__long" = type { i8*, i64, i64 }
%"class.base::OnceCallback" = type { %"class.base::internal::CallbackBase" }
%"class.base::internal::CallbackBase" = type { %class.scoped_refptr.139 }
%class.scoped_refptr.139 = type { %"class.base::internal::BindStateBase"* }
%"class.base::internal::BindStateBase" = type { %"class.base::RefCountedThreadSafe.140", void ()*, void (%"class.base::internal::BindStateBase"*)*, i1 (%"class.base::internal::BindStateBase"*, i32)* }
%"class.base::RefCountedThreadSafe.140" = type { %"class.base::subtle::RefCountedThreadSafeBase" }
%class.GURL = type { %"class.std::__1::basic_string", i8, %"struct.url::Parsed", %"class.std::__1::unique_ptr.70" }
%"struct.url::Parsed" = type { %"struct.url::Component", %"struct.url::Component", %"struct.url::Component", %"struct.url::Component", %"struct.url::Component", %"struct.url::Component", %"struct.url::Component", %"struct.url::Component", i8, %"struct.url::Parsed"* }
%"struct.url::Component" = type { i32, i32 }
%"class.std::__1::unique_ptr.70" = type { %"class.std::__1::__compressed_pair.71" }
%"class.std::__1::__compressed_pair.71" = type { %"struct.std::__1::__compressed_pair_elem.72" }
%"struct.std::__1::__compressed_pair_elem.72" = type { %class.GURL* }
%"class.std::__1::unique_ptr.141" = type { %"class.std::__1::__compressed_pair.142" }
%"class.std::__1::__compressed_pair.142" = type { %"struct.std::__1::__compressed_pair_elem.143" }
%"struct.std::__1::__compressed_pair_elem.143" = type { i32* }
%"class.base::WeakPtr" = type { %"class.base::internal::WeakPtrBase" }
%"class.base::internal::WeakPtrBase" = type { %"class.base::internal::WeakReference", i64 }
%"class.base::internal::WeakReference" = type { %class.scoped_refptr.147 }
%class.scoped_refptr.147 = type { %"class.base::internal::WeakReference::Flag"* }
%"class.base::internal::WeakReference::Flag" = type <{ %"class.base::RefCountedThreadSafe.148", %"class.base::AtomicFlag", [3 x i8] }>
%"class.base::RefCountedThreadSafe.148" = type { %"class.base::subtle::RefCountedThreadSafeBase" }
%"class.base::AtomicFlag" = type { %"struct.std::__1::atomic.149" }
%"struct.std::__1::atomic.149" = type { %"struct.std::__1::__atomic_base.150" }
%"struct.std::__1::__atomic_base.150" = type { %"struct.std::__1::__atomic_base.151" }
%"struct.std::__1::__atomic_base.151" = type { %"struct.std::__1::__cxx_atomic_impl.152" }
%"struct.std::__1::__cxx_atomic_impl.152" = type { %"struct.std::__1::__cxx_atomic_base_impl.153" }
%"struct.std::__1::__cxx_atomic_base_impl.153" = type { i8 }
%"class.content::BrowserContext" = type opaque
%"class.base::CallbackListSubscription" = type { %"class.base::OnceCallback.154" }
%"class.base::OnceCallback.154" = type { %"class.base::internal::CallbackBase" }
%"class.content::RenderFrameHost" = type { %"class.IPC::Listener", %"class.IPC::Sender" }
%"class.IPC::Listener" = type { i32 (...)** }
%"class.IPC::Sender" = type { i32 (...)** }
%"class.std::__1::unique_ptr.155" = type { %"class.std::__1::__compressed_pair.156" }
%"class.std::__1::__compressed_pair.156" = type { %"struct.std::__1::__compressed_pair_elem.157" }
%"struct.std::__1::__compressed_pair_elem.157" = type { %"class.ExtensionFunction::RenderFrameHostTracker"* }
%"class.ExtensionFunction::RenderFrameHostTracker" = type opaque
%"class.std::__1::vector.161" = type { %"class.std::__1::__vector_base.162" }
%"class.std::__1::__vector_base.162" = type { %"class.std::__1::basic_string"*, %"class.std::__1::basic_string"*, %"class.std::__1::__compressed_pair.163" }
%"class.std::__1::__compressed_pair.163" = type { %"struct.std::__1::__compressed_pair_elem.164" }
%"struct.std::__1::__compressed_pair_elem.164" = type { %"class.std::__1::basic_string"* }
%class.ExtensionFunction = type <{ i32 (...)**, %"class.base::RefCountedThreadSafe", [4 x i8], %class.scoped_refptr, %"class.std::__1::unique_ptr.133", %"class.base::ElapsedTimer", %"class.std::__1::unique_ptr.133", %"class.std::__1::basic_string", %"class.base::OnceCallback", i32, [4 x i8], i8*, i8*, %class.GURL, i8, i8, i8, i8, i32, i32, i32, i64, %"class.std::__1::unique_ptr.141", i8, [7 x i8], %"class.base::WeakPtr", %"class.content::BrowserContext"*, %"class.content::BrowserContext"*, %"class.base::CallbackListSubscription", %"class.content::RenderFrameHost"*, %"class.std::__1::unique_ptr.155", %"class.std::__1::vector.161", i32, [4 x i8] }>
%"class.ExtensionFunction::ResponseActionObject" = type { i32 (...)** }
%"class.extensions::SystemDisplayGetInfoFunction" = type { %class.ExtensionFunction.base, [4 x i8] }
%"class.base::OnceCallback.193" = type { %"class.base::internal::CallbackBase" }
%"struct.extensions::api::system_display::GetInfo::Params" = type { %"class.std::__1::unique_ptr.177" }
%"class.std::__1::unique_ptr.177" = type { %"class.std::__1::__compressed_pair.178" }
%"class.std::__1::__compressed_pair.178" = type { %"struct.std::__1::__compressed_pair_elem.179" }
%"struct.std::__1::__compressed_pair_elem.179" = type { %"struct.extensions::api::system_display::GetInfoFlags"* }
%"struct.extensions::api::system_display::GetInfoFlags" = type { %"class.std::__1::unique_ptr.180" }
%"class.std::__1::unique_ptr.180" = type { %"class.std::__1::__compressed_pair.181" }
%"class.std::__1::__compressed_pair.181" = type { %"struct.std::__1::__compressed_pair_elem.182" }
%"struct.std::__1::__compressed_pair_elem.182" = type { i8* }
%"class.extensions::DisplayInfoProvider" = type { %"class.display::DisplayObserver" }
%"class.display::DisplayObserver" = type { %"class.base::CheckedObserver" }
%"class.base::CheckedObserver" = type { i32 (...)**, %"class.base::WeakPtrFactory" }
%"class.base::WeakPtrFactory" = type { %"class.base::internal::WeakPtrFactoryBase" }
%"class.base::internal::WeakPtrFactoryBase" = type { %"class.base::internal::WeakReferenceOwner", i64 }
%"class.base::internal::WeakReferenceOwner" = type { %class.scoped_refptr.192 }
%class.scoped_refptr.192 = type { %"class.base::internal::WeakReference::Flag"* }
%"class.std::__1::vector.194" = type { %"class.std::__1::__vector_base.195" }
%"class.std::__1::__vector_base.195" = type { %"struct.extensions::api::system_display::DisplayUnitInfo"*, %"struct.extensions::api::system_display::DisplayUnitInfo"*, %"class.std::__1::__compressed_pair.221" }
%"struct.extensions::api::system_display::DisplayUnitInfo" = type { %"class.std::__1::basic_string", %"class.std::__1::basic_string", %"class.std::__1::unique_ptr.196", %"class.std::__1::basic_string", %"class.std::__1::vector.161", i8, i8, i8, i8, %"class.std::__1::unique_ptr.180", double, double, i32, %"struct.extensions::api::system_display::Bounds", %"struct.extensions::api::system_display::Insets", %"struct.extensions::api::system_display::Bounds", %"class.std::__1::vector.202", i8, i8, %"class.std::__1::vector.215", double }
%"class.std::__1::unique_ptr.196" = type { %"class.std::__1::__compressed_pair.197" }
%"class.std::__1::__compressed_pair.197" = type { %"struct.std::__1::__compressed_pair_elem.198" }
%"struct.std::__1::__compressed_pair_elem.198" = type { %"struct.extensions::api::system_display::Edid"* }
%"struct.extensions::api::system_display::Edid" = type <{ %"class.std::__1::basic_string", %"class.std::__1::basic_string", i32, [4 x i8] }>
%"struct.extensions::api::system_display::Insets" = type { i32, i32, i32, i32 }
%"struct.extensions::api::system_display::Bounds" = type { i32, i32, i32, i32 }
%"class.std::__1::vector.202" = type { %"class.std::__1::__vector_base.203" }
%"class.std::__1::__vector_base.203" = type { %"struct.extensions::api::system_display::DisplayMode"*, %"struct.extensions::api::system_display::DisplayMode"*, %"class.std::__1::__compressed_pair.210" }
%"struct.extensions::api::system_display::DisplayMode" = type { i32, i32, i32, i32, %"class.std::__1::unique_ptr.204", double, double, i8, i8, %"class.std::__1::unique_ptr.180" }
%"class.std::__1::unique_ptr.204" = type { %"class.std::__1::__compressed_pair.205" }
%"class.std::__1::__compressed_pair.205" = type { %"struct.std::__1::__compressed_pair_elem.206" }
%"struct.std::__1::__compressed_pair_elem.206" = type { double* }
%"class.std::__1::__compressed_pair.210" = type { %"struct.std::__1::__compressed_pair_elem.211" }
%"struct.std::__1::__compressed_pair_elem.211" = type { %"struct.extensions::api::system_display::DisplayMode"* }
%"class.std::__1::vector.215" = type { %"class.std::__1::__vector_base.216" }
%"class.std::__1::__vector_base.216" = type { double*, double*, %"class.std::__1::__compressed_pair.217" }
%"class.std::__1::__compressed_pair.217" = type { %"struct.std::__1::__compressed_pair_elem.206" }
%"class.std::__1::__compressed_pair.221" = type { %"struct.std::__1::__compressed_pair_elem.222" }
%"struct.std::__1::__compressed_pair_elem.222" = type { %"struct.extensions::api::system_display::DisplayUnitInfo"* }
%"class.std::__1::vector.110" = type { %"class.std::__1::__vector_base.111" }
%"class.std::__1::__vector_base.111" = type { %"class.base::Value"*, %"class.base::Value"*, %"class.std::__1::__compressed_pair.112" }
%"class.std::__1::__compressed_pair.112" = type { %"struct.std::__1::__compressed_pair_elem.113" }
%"struct.std::__1::__compressed_pair_elem.113" = type { %"class.base::Value"* }
%"class.ExtensionFunction::ResponseValueObject" = type { i32 (...)** }
%"class.extensions::SystemDisplayGetDisplayLayoutFunction" = type { %"class.extensions::SystemDisplayCrOSRestrictedFunction.base", [4 x i8] }
%"class.extensions::SystemDisplayCrOSRestrictedFunction.base" = type { %class.ExtensionFunction.base }
%"class.base::OnceCallback.232" = type { %"class.base::internal::CallbackBase" }
%"class.std::__1::vector.233" = type { %"class.std::__1::__vector_base.234" }
%"class.std::__1::__vector_base.234" = type { %"struct.extensions::api::system_display::DisplayLayout"*, %"struct.extensions::api::system_display::DisplayLayout"*, %"class.std::__1::__compressed_pair.235" }
%"struct.extensions::api::system_display::DisplayLayout" = type { %"class.std::__1::basic_string", %"class.std::__1::basic_string", i32, i32 }
%"class.std::__1::__compressed_pair.235" = type { %"struct.std::__1::__compressed_pair_elem.236" }
%"struct.std::__1::__compressed_pair_elem.236" = type { %"struct.extensions::api::system_display::DisplayLayout"* }
%"class.extensions::SystemDisplaySetDisplayPropertiesFunction" = type { %"class.extensions::SystemDisplayCrOSRestrictedFunction.base", [4 x i8] }
%"class.base::OnceCallback.268" = type { %"class.base::internal::CallbackBase" }
%"struct.extensions::api::system_display::SetDisplayProperties::Params" = type { %"class.std::__1::basic_string", %"struct.extensions::api::system_display::DisplayProperties" }
%"struct.extensions::api::system_display::DisplayProperties" = type { %"class.std::__1::unique_ptr.180", %"class.std::__1::unique_ptr.243", %"class.std::__1::unique_ptr.180", %"class.std::__1::unique_ptr.248", %"class.std::__1::unique_ptr.254", %"class.std::__1::unique_ptr.254", %"class.std::__1::unique_ptr.254", %"class.std::__1::unique_ptr.260", %"class.std::__1::unique_ptr.204" }
%"class.std::__1::unique_ptr.243" = type { %"class.std::__1::__compressed_pair.244" }
%"class.std::__1::__compressed_pair.244" = type { %"struct.std::__1::__compressed_pair_elem.164" }
%"class.std::__1::unique_ptr.248" = type { %"class.std::__1::__compressed_pair.249" }
%"class.std::__1::__compressed_pair.249" = type { %"struct.std::__1::__compressed_pair_elem.250" }
%"struct.std::__1::__compressed_pair_elem.250" = type { %"struct.extensions::api::system_display::Insets"* }
%"class.std::__1::unique_ptr.254" = type { %"class.std::__1::__compressed_pair.255" }
%"class.std::__1::__compressed_pair.255" = type { %"struct.std::__1::__compressed_pair_elem.256" }
%"struct.std::__1::__compressed_pair_elem.256" = type { i32* }
%"class.std::__1::unique_ptr.260" = type { %"class.std::__1::__compressed_pair.261" }
%"class.std::__1::__compressed_pair.261" = type { %"struct.std::__1::__compressed_pair_elem.211" }
%"class.absl::optional.269" = type { %"class.absl::optional_internal::optional_data.270" }
%"class.absl::optional_internal::optional_data.270" = type { %"class.absl::optional_internal::optional_data_base.271" }
%"class.absl::optional_internal::optional_data_base.271" = type { %"class.absl::optional_internal::optional_data_dtor_base.272" }
%"class.absl::optional_internal::optional_data_dtor_base.272" = type { i8, %union.anon.273 }
%union.anon.273 = type { %"class.std::__1::basic_string" }
%"struct.std::__1::basic_string<char, std::__1::char_traits<char>, std::__1::allocator<char> >::__short" = type { [23 x i8], %struct.anon }
%struct.anon = type { i8 }
%"class.extensions::SystemDisplaySetDisplayLayoutFunction" = type { %"class.extensions::SystemDisplayCrOSRestrictedFunction.base", [4 x i8] }
%"struct.extensions::api::system_display::SetDisplayLayout::Params" = type { %"class.std::__1::vector.233" }
%"class.extensions::SystemDisplayEnableUnifiedDesktopFunction" = type { %"class.extensions::SystemDisplayCrOSRestrictedFunction.base", [4 x i8] }
%"struct.extensions::api::system_display::EnableUnifiedDesktop::Params" = type { i8 }
%"class.extensions::SystemDisplayOverscanCalibrationStartFunction" = type { %"class.extensions::SystemDisplayCrOSRestrictedFunction.base", [4 x i8] }
%"struct.extensions::api::system_display::OverscanCalibrationStart::Params" = type { %"class.std::__1::basic_string" }
%"class.content::WebContents" = type <{ %"class.content::PageNavigator", %"class.base::SupportsUserData.base", [7 x i8] }>
%"class.content::PageNavigator" = type { i32 (...)** }
%"class.base::SupportsUserData.base" = type <{ i32 (...)**, %"class.std::__1::map.292", %"class.base::SequenceCheckerDoNothing" }>
%"class.std::__1::map.292" = type { %"class.std::__1::__tree.293" }
%"class.std::__1::__tree.293" = type { %"class.std::__1::__tree_end_node"*, %"class.std::__1::__compressed_pair.294", %"class.std::__1::__compressed_pair.298" }
%"class.std::__1::__compressed_pair.294" = type { %"struct.std::__1::__compressed_pair_elem.4" }
%"class.std::__1::__compressed_pair.298" = type { %"struct.std::__1::__compressed_pair_elem.9" }
%"class.base::SequenceCheckerDoNothing" = type { i8 }
%"class.extensions::(anonymous namespace)::OverscanTracker::OverscanWebObserver" = type { %"class.content::WebContentsObserver", %"class.std::__1::set.369" }
%"class.content::WebContentsObserver" = type { %"class.IPC::Listener", %"class.content::WebContents"* }
%"class.std::__1::set.369" = type { %"class.std::__1::__tree.370" }
%"class.std::__1::__tree.370" = type { %"class.std::__1::__tree_end_node"*, %"class.std::__1::__compressed_pair.371", %"class.std::__1::__compressed_pair.375" }
%"class.std::__1::__compressed_pair.371" = type { %"struct.std::__1::__compressed_pair_elem.4" }
%"class.std::__1::__compressed_pair.375" = type { %"struct.std::__1::__compressed_pair_elem.9" }
%"class.extensions::SystemDisplayOverscanCalibrationAdjustFunction" = type { %"class.extensions::SystemDisplayCrOSRestrictedFunction.base", [4 x i8] }
%"struct.extensions::api::system_display::OverscanCalibrationAdjust::Params" = type { %"class.std::__1::basic_string", %"struct.extensions::api::system_display::Insets" }
%"class.extensions::SystemDisplayOverscanCalibrationResetFunction" = type { %"class.extensions::SystemDisplayCrOSRestrictedFunction.base", [4 x i8] }
%"struct.extensions::api::system_display::OverscanCalibrationReset::Params" = type { %"class.std::__1::basic_string" }
%"class.extensions::SystemDisplayOverscanCalibrationCompleteFunction" = type { %"class.extensions::SystemDisplayCrOSRestrictedFunction.base", [4 x i8] }
%"struct.extensions::api::system_display::OverscanCalibrationComplete::Params" = type { %"class.std::__1::basic_string" }
%"class.std::__1::__tree_node" = type { %"class.std::__1::__tree_node_base.base", %"struct.std::__1::__value_type" }
%"class.std::__1::__tree_node_base.base" = type <{ %"class.std::__1::__tree_end_node", %"class.std::__1::__tree_node_base"*, %"class.std::__1::__tree_end_node"*, i8 }>
%"struct.std::__1::__value_type" = type { %"struct.std::__1::pair.377" }
%"struct.std::__1::pair.377" = type { %"class.content::WebContents"*, %"class.std::__1::unique_ptr.378" }
%"class.std::__1::unique_ptr.378" = type { %"class.std::__1::__compressed_pair.379" }
%"class.std::__1::__compressed_pair.379" = type { %"struct.std::__1::__compressed_pair_elem.380" }
%"struct.std::__1::__compressed_pair_elem.380" = type { %"class.extensions::(anonymous namespace)::OverscanTracker::OverscanWebObserver"* }
%"class.extensions::SystemDisplayShowNativeTouchCalibrationFunction" = type { %"class.extensions::SystemDisplayCrOSRestrictedFunction.base", [4 x i8] }
%"struct.extensions::api::system_display::ShowNativeTouchCalibration::Params" = type { %"class.std::__1::basic_string" }
%"class.extensions::SystemDisplayStartCustomTouchCalibrationFunction" = type { %"class.extensions::SystemDisplayCrOSRestrictedFunction.base", [4 x i8] }
%"struct.extensions::api::system_display::StartCustomTouchCalibration::Params" = type { %"class.std::__1::basic_string" }
%"class.extensions::SystemDisplayCompleteCustomTouchCalibrationFunction" = type { %"class.extensions::SystemDisplayCrOSRestrictedFunction.base", [4 x i8] }
%"struct.extensions::api::system_display::CompleteCustomTouchCalibration::Params" = type { %"struct.extensions::api::system_display::TouchCalibrationPairQuad", %"struct.extensions::api::system_display::Bounds" }
%"struct.extensions::api::system_display::TouchCalibrationPairQuad" = type { %"struct.extensions::api::system_display::TouchCalibrationPair", %"struct.extensions::api::system_display::TouchCalibrationPair", %"struct.extensions::api::system_display::TouchCalibrationPair", %"struct.extensions::api::system_display::TouchCalibrationPair" }
%"struct.extensions::api::system_display::TouchCalibrationPair" = type { %"struct.extensions::api::system_display::Point", %"struct.extensions::api::system_display::Point" }
%"struct.extensions::api::system_display::Point" = type { i32, i32 }
%"class.extensions::SystemDisplayClearTouchCalibrationFunction" = type { %"class.extensions::SystemDisplayCrOSRestrictedFunction.base", [4 x i8] }
%"struct.extensions::api::system_display::ClearTouchCalibration::Params" = type { %"class.std::__1::basic_string" }
%"class.extensions::SystemDisplaySetMirrorModeFunction" = type { %"class.extensions::SystemDisplayCrOSRestrictedFunction.base", [4 x i8] }
%"struct.extensions::api::system_display::SetMirrorMode::Params" = type { %"struct.extensions::api::system_display::MirrorModeInfo" }
%"struct.extensions::api::system_display::MirrorModeInfo" = type { i32, %"class.std::__1::unique_ptr.243", %"class.std::__1::unique_ptr.348" }
%"class.std::__1::unique_ptr.348" = type { %"class.std::__1::__compressed_pair.349" }
%"class.std::__1::__compressed_pair.349" = type { %"struct.std::__1::__compressed_pair_elem.350" }
%"struct.std::__1::__compressed_pair_elem.350" = type { %"class.std::__1::vector.161"* }
%"class.std::__1::list" = type opaque
%"class.IPC::Message" = type { %"class.base::Pickle", i8, %class.scoped_refptr.357 }
%"class.base::Pickle" = type { i32 (...)**, %"struct.base::Pickle::Header"*, i64, i64, i64 }
%"struct.base::Pickle::Header" = type { i32 }
%class.scoped_refptr.357 = type { %"class.IPC::MessageAttachmentSet"* }
%"class.IPC::MessageAttachmentSet" = type opaque
%"class.mojo::ScopedInterfaceEndpointHandle" = type { %class.scoped_refptr.384 }
%class.scoped_refptr.384 = type { %"class.mojo::ScopedInterfaceEndpointHandle::State"* }
%"class.mojo::ScopedInterfaceEndpointHandle::State" = type opaque
%"class.std::__1::__tree_node.423" = type { %"class.std::__1::__tree_node_base.base", %"class.std::__1::basic_string" }
%"class.blink::mojom::CaptureHandleConfig" = type opaque
%"class.content::RenderViewHost" = type opaque
%"class.content::RenderProcessHost" = type opaque
%"class.content::NavigationHandle" = type { %"class.base::SupportsUserData.base", [7 x i8] }
%"struct.content::GlobalRequestID" = type { i32, i32 }
%"class.blink::mojom::ResourceLoadInfo" = type opaque
%"struct.content::CookieAccessDetails" = type <{ i32, [4 x i8], %class.GURL, %class.GURL, %"class.std::__1::vector.385", i8, [7 x i8] }>
%"class.std::__1::vector.385" = type { %"class.std::__1::__vector_base.386" }
%"class.std::__1::__vector_base.386" = type { %"class.net::CanonicalCookie"*, %"class.net::CanonicalCookie"*, %"class.std::__1::__compressed_pair.388" }
%"class.net::CanonicalCookie" = type { %"class.std::__1::basic_string", %"class.std::__1::basic_string", %"class.std::__1::basic_string", %"class.std::__1::basic_string", %"class.base::Time", %"class.base::Time", %"class.base::Time", i8, i8, i32, i32, i8, i32, i32 }
%"class.base::Time" = type { %"class.base::time_internal::TimeBase.387" }
%"class.base::time_internal::TimeBase.387" = type { i64 }
%"class.std::__1::__compressed_pair.388" = type { %"struct.std::__1::__compressed_pair_elem.389" }
%"struct.std::__1::__compressed_pair_elem.389" = type { %"class.net::CanonicalCookie"* }
%"struct.content::LoadCommittedDetails" = type opaque
%"struct.content::PrunedDetails" = type opaque
%"struct.content::EntryChangedDetails" = type opaque
%"struct.content::Referrer" = type <{ %class.GURL, i32, [4 x i8] }>
%"class.blink::WebInputEvent" = type { i32 (...)**, float, %"class.gfx::Vector2dF", %"class.base::TimeTicks", i32, i32 }
%"class.gfx::Vector2dF" = type { float, float }
%"class.gfx::Size" = type { i32, i32 }
%"class.content::NavigationEntry" = type opaque
%"struct.blink::UserAgentOverride" = type { %"class.std::__1::basic_string", %"class.absl::optional.393" }
%"class.absl::optional.393" = type { %"class.absl::optional_internal::optional_data.394" }
%"class.absl::optional_internal::optional_data.394" = type { %"class.absl::optional_internal::optional_data_base.395" }
%"class.absl::optional_internal::optional_data_base.395" = type { %"class.absl::optional_internal::optional_data_dtor_base.396" }
%"class.absl::optional_internal::optional_data_dtor_base.396" = type { i8, [7 x i8], %union.anon.397 }
%union.anon.397 = type { %"struct.blink::UserAgentMetadata" }
%"struct.blink::UserAgentMetadata" = type <{ %"class.std::__1::vector.398", %"class.std::__1::basic_string", %"class.std::__1::basic_string", %"class.std::__1::basic_string", %"class.std::__1::basic_string", %"class.std::__1::basic_string", i8, [7 x i8] }>
%"class.std::__1::vector.398" = type { %"class.std::__1::__vector_base.399" }
%"class.std::__1::__vector_base.399" = type { %"struct.blink::UserAgentBrandVersion"*, %"struct.blink::UserAgentBrandVersion"*, %"class.std::__1::__compressed_pair.400" }
%"struct.blink::UserAgentBrandVersion" = type { %"class.std::__1::basic_string", %"class.std::__1::basic_string" }
%"class.std::__1::__compressed_pair.400" = type { %"struct.std::__1::__compressed_pair_elem.401" }
%"struct.std::__1::__compressed_pair_elem.401" = type { %"struct.blink::UserAgentBrandVersion"* }
%"class.std::__1::vector.405" = type opaque
%"struct.content::AXEventNotificationDetails" = type opaque
%"class.std::__1::vector.406" = type opaque
%"class.std::__1::basic_string.407" = type { %"class.std::__1::__compressed_pair.408" }
%"class.std::__1::__compressed_pair.408" = type { %"struct.std::__1::__compressed_pair_elem.409" }
%"struct.std::__1::__compressed_pair_elem.409" = type { %"struct.std::__1::basic_string<char16_t, std::__1::char_traits<char16_t>, std::__1::allocator<char16_t> >::__rep" }
%"struct.std::__1::basic_string<char16_t, std::__1::char_traits<char16_t>, std::__1::allocator<char16_t> >::__rep" = type { %union.anon.410 }
%union.anon.410 = type { %"struct.std::__1::basic_string<char16_t, std::__1::char_traits<char16_t>, std::__1::allocator<char16_t> >::__long" }
%"struct.std::__1::basic_string<char16_t, std::__1::char_traits<char16_t>, std::__1::allocator<char16_t> >::__long" = type { i16*, i64, i64 }
%"class.absl::optional.416" = type opaque
%"struct.content::WebContentsObserver::MediaPlayerInfo" = type { i8, i8 }
%"struct.content::MediaPlayerId" = type opaque
%"class.content::RenderWidgetHost" = type opaque
%"struct.content::FocusedNodeDetails" = type opaque
%"class.absl::optional.417" = type { %"class.absl::optional_internal::optional_data.418" }
%"class.absl::optional_internal::optional_data.418" = type { %"class.absl::optional_internal::optional_data_base.419" }
%"class.absl::optional_internal::optional_data_base.419" = type { %"class.absl::optional_internal::optional_data_dtor_base.420" }
%"class.absl::optional_internal::optional_data_dtor_base.420" = type { i8, %union.anon.421 }
%union.anon.421 = type { %class.GURL }
%"class.mojo::ScopedHandleBase" = type { %"class.mojo::MessagePipeHandle" }
%"class.mojo::MessagePipeHandle" = type { %"class.mojo::Handle" }
%"class.mojo::Handle" = type { i32 }
%"struct.std::__1::pair.422" = type opaque
%"class.base::Location" = type { i8*, i8*, i32, i8* }
%"class.base::SingleThreadTaskRunner" = type { %"class.base::SequencedTaskRunner.base", [4 x i8] }
%"class.base::SequencedTaskRunner.base" = type { %"class.base::TaskRunner.base" }
%"class.base::TaskRunner.base" = type <{ i32 (...)**, %"class.base::RefCountedThreadSafe.450" }>
%"class.base::RefCountedThreadSafe.450" = type { %"class.base::subtle::RefCountedThreadSafeBase" }
%"class.base::SequencedTaskRunner" = type { %"class.base::TaskRunner.base", [4 x i8] }
%"class.base::TaskRunner" = type <{ i32 (...)**, %"class.base::RefCountedThreadSafe.450", [4 x i8] }>

$_ZNK17ExtensionFunction23GetQuotaLimitHeuristicsEPNSt3__14listINS0_10unique_ptrIN10extensions19QuotaLimitHeuristicENS0_14default_deleteIS4_EEEENS0_9allocatorIS7_EEEE = comdat any

$_ZN10extensions35SystemDisplayCrOSRestrictedFunctionD0Ev = comdat any

$_ZN10extensions28SystemDisplayGetInfoFunctionD0Ev = comdat any

$_ZN10extensions37SystemDisplayGetDisplayLayoutFunctionD0Ev = comdat any

$_ZN10extensions41SystemDisplaySetDisplayPropertiesFunctionD0Ev = comdat any

$_ZN10extensions37SystemDisplaySetDisplayLayoutFunctionD0Ev = comdat any

$_ZN10extensions41SystemDisplayEnableUnifiedDesktopFunctionD0Ev = comdat any

$_ZN10extensions45SystemDisplayOverscanCalibrationStartFunctionD0Ev = comdat any

$_ZN10extensions46SystemDisplayOverscanCalibrationAdjustFunctionD0Ev = comdat any

$_ZN10extensions45SystemDisplayOverscanCalibrationResetFunctionD0Ev = comdat any

$_ZN10extensions48SystemDisplayOverscanCalibrationCompleteFunctionD0Ev = comdat any

$_ZN10extensions47SystemDisplayShowNativeTouchCalibrationFunctionD0Ev = comdat any

$_ZN10extensions48SystemDisplayStartCustomTouchCalibrationFunctionD0Ev = comdat any

$_ZN10extensions51SystemDisplayCompleteCustomTouchCalibrationFunctionD0Ev = comdat any

$_ZN10extensions42SystemDisplayClearTouchCalibrationFunctionD0Ev = comdat any

$_ZN10extensions34SystemDisplaySetMirrorModeFunctionD0Ev = comdat any

$_ZN3IPC8Listener18OnChannelConnectedEi = comdat any

$_ZN3IPC8Listener14OnChannelErrorEv = comdat any

$_ZN3IPC8Listener20OnBadMessageReceivedERKNS_7MessageE = comdat any

$_ZN3IPC8Listener28OnAssociatedInterfaceRequestERKNSt3__112basic_stringIcNS1_11char_traitsIcEENS1_9allocatorIcEEEEN4mojo29ScopedInterfaceEndpointHandleE = comdat any

$_ZN3IPC8Listener15OnChannelDeniedEv = comdat any

$_ZN3IPC8Listener20OnChannelListenErrorEv = comdat any

$_ZN7content19WebContentsObserver18RenderFrameCreatedEPNS_15RenderFrameHostE = comdat any

$_ZN7content19WebContentsObserver22RenderFrameHostChangedEPNS_15RenderFrameHostES2_ = comdat any

$_ZN7content19WebContentsObserver12FrameDeletedEi = comdat any

$_ZN7content19WebContentsObserver27RenderFrameHostStateChangedEPNS_15RenderFrameHostENS1_14LifecycleStateES3_ = comdat any

$_ZN7content19WebContentsObserver20CaptureTargetChangedEv = comdat any

$_ZN7content19WebContentsObserver27OnCaptureHandleConfigUpdateERKN5blink5mojom19CaptureHandleConfigE = comdat any

$_ZN7content19WebContentsObserver15RenderViewReadyEv = comdat any

$_ZN7content19WebContentsObserver17RenderViewDeletedEPNS_14RenderViewHostE = comdat any

$_ZN7content19WebContentsObserver17RenderProcessGoneEN4base17TerminationStatusE = comdat any

$_ZN7content19WebContentsObserver21RenderViewHostChangedEPNS_14RenderViewHostES2_ = comdat any

$_ZN7content19WebContentsObserver22OnRendererUnresponsiveEPNS_17RenderProcessHostE = comdat any

$_ZN7content19WebContentsObserver20OnRendererResponsiveEPNS_17RenderProcessHostE = comdat any

$_ZN7content19WebContentsObserver18DidStartNavigationEPNS_16NavigationHandleE = comdat any

$_ZN7content19WebContentsObserver21DidRedirectNavigationEPNS_16NavigationHandleE = comdat any

$_ZN7content19WebContentsObserver23ReadyToCommitNavigationEPNS_16NavigationHandleE = comdat any

$_ZN7content19WebContentsObserver19DidFinishNavigationEPNS_16NavigationHandleE = comdat any

$_ZN7content19WebContentsObserver17DidActivatePortalEPNS_11WebContentsEN4base9TimeTicksE = comdat any

$_ZN7content19WebContentsObserver15DidStartLoadingEv = comdat any

$_ZN7content19WebContentsObserver18DidReceiveResponseEv = comdat any

$_ZN7content19WebContentsObserver14DidStopLoadingEv = comdat any

$_ZN7content19WebContentsObserver19LoadProgressChangedEd = comdat any

$_ZN7content19WebContentsObserver28DocumentAvailableInMainFrameEPNS_15RenderFrameHostE = comdat any

$_ZN7content19WebContentsObserver34DocumentOnLoadCompletedInMainFrameEPNS_15RenderFrameHostE = comdat any

$_ZN7content19WebContentsObserver16DOMContentLoadedEPNS_15RenderFrameHostE = comdat any

$_ZN7content19WebContentsObserver13DidFinishLoadEPNS_15RenderFrameHostERK4GURL = comdat any

$_ZN7content19WebContentsObserver11DidFailLoadEPNS_15RenderFrameHostERK4GURLi = comdat any

$_ZN7content19WebContentsObserver29DidChangeVisibleSecurityStateEv = comdat any

$_ZN7content19WebContentsObserver30DidLoadResourceFromMemoryCacheEPNS_15RenderFrameHostERK4GURLRKNSt3__112basic_stringIcNS6_11char_traitsIcEENS6_9allocatorIcEEEEN7network5mojom18RequestDestinationE = comdat any

$_ZN7content19WebContentsObserver20ResourceLoadCompleteEPNS_15RenderFrameHostERKNS_15GlobalRequestIDERKN5blink5mojom16ResourceLoadInfoE = comdat any

$_ZN7content19WebContentsObserver17OnCookiesAccessedEPNS_15RenderFrameHostERKNS_19CookieAccessDetailsE = comdat any

$_ZN7content19WebContentsObserver17OnCookiesAccessedEPNS_16NavigationHandleERKNS_19CookieAccessDetailsE = comdat any

$_ZN7content19WebContentsObserver24NavigationEntryCommittedERKNS_20LoadCommittedDetailsE = comdat any

$_ZN7content19WebContentsObserver20NavigationListPrunedERKNS_13PrunedDetailsE = comdat any

$_ZN7content19WebContentsObserver24NavigationEntriesDeletedEv = comdat any

$_ZN7content19WebContentsObserver22NavigationEntryChangedERKNS_19EntryChangedDetailsE = comdat any

$_ZN7content19WebContentsObserver19DidOpenRequestedURLEPNS_11WebContentsEPNS_15RenderFrameHostERK4GURLRKNS_8ReferrerE21WindowOpenDispositionN2ui14PageTransitionEbb = comdat any

$_ZN7content19WebContentsObserver29DidFirstVisuallyNonEmptyPaintEv = comdat any

$_ZN7content19WebContentsObserver17NavigationStoppedEv = comdat any

$_ZN7content19WebContentsObserver21DidGetUserInteractionERKN5blink13WebInputEventE = comdat any

$_ZN7content19WebContentsObserver20DidGetIgnoredUIEventEv = comdat any

$_ZN7content19WebContentsObserver19OnVisibilityChangedENS_10VisibilityE = comdat any

$_ZN7content19WebContentsObserver19MainFrameWasResizedEb = comdat any

$_ZN7content19WebContentsObserver16FrameNameChangedEPNS_15RenderFrameHostERKNSt3__112basic_stringIcNS3_11char_traitsIcEENS3_9allocatorIcEEEE = comdat any

$_ZN7content19WebContentsObserver27FrameReceivedUserActivationEPNS_15RenderFrameHostE = comdat any

$_ZN7content19WebContentsObserver24FrameDisplayStateChangedEPNS_15RenderFrameHostEb = comdat any

$_ZN7content19WebContentsObserver16FrameSizeChangedEPNS_15RenderFrameHostERKN3gfx4SizeE = comdat any

$_ZN7content19WebContentsObserver11TitleWasSetEPNS_15NavigationEntryE = comdat any

$_ZN7content19WebContentsObserver16AppCacheAccessedERK4GURLb = comdat any

$_ZN7content19WebContentsObserver21PepperInstanceCreatedEv = comdat any

$_ZN7content19WebContentsObserver21PepperInstanceDeletedEv = comdat any

$_ZN7content19WebContentsObserver18ViewportFitChangedEN5blink5mojom11ViewportFitE = comdat any

$_ZN7content19WebContentsObserver13PluginCrashedERKN4base8FilePathEi = comdat any

$_ZN7content19WebContentsObserver23PluginHungStatusChangedEiRKN4base8FilePathEb = comdat any

$_ZN7content19WebContentsObserver23InnerWebContentsCreatedEPNS_11WebContentsE = comdat any

$_ZN7content19WebContentsObserver24InnerWebContentsAttachedEPNS_11WebContentsEPNS_15RenderFrameHostEb = comdat any

$_ZN7content19WebContentsObserver24InnerWebContentsDetachedEPNS_11WebContentsE = comdat any

$_ZN7content19WebContentsObserver24DidCloneToNewWebContentsEPNS_11WebContentsES2_ = comdat any

$_ZN7content19WebContentsObserver20WebContentsDestroyedEv = comdat any

$_ZN7content19WebContentsObserver20UserAgentOverrideSetERKN5blink17UserAgentOverrideE = comdat any

$_ZN7content19WebContentsObserver19DidUpdateFaviconURLEPNS_15RenderFrameHostERKNSt3__16vectorIN4mojo9StructPtrIN5blink5mojom10FaviconURLEEENS3_9allocatorISA_EEEE = comdat any

$_ZN7content19WebContentsObserver19OnAudioStateChangedEb = comdat any

$_ZN7content19WebContentsObserver24OnFrameAudioStateChangedEPNS_15RenderFrameHostEb = comdat any

$_ZN7content19WebContentsObserver37OnIsConnectedToBluetoothDeviceChangedEb = comdat any

$_ZN7content19WebContentsObserver25DidUpdateAudioMutingStateEb = comdat any

$_ZN7content19WebContentsObserver29DidToggleFullscreenModeForTabEbb = comdat any

$_ZN7content19WebContentsObserver20DidAcquireFullscreenEPNS_15RenderFrameHostE = comdat any

$_ZN7content19WebContentsObserver32DidChangeVerticalScrollDirectionEN3viz23VerticalScrollDirectionE = comdat any

$_ZN7content19WebContentsObserver27BeforeFormRepostWarningShowEv = comdat any

$_ZN7content19WebContentsObserver17BeforeUnloadFiredEbRKN4base9TimeTicksE = comdat any

$_ZN7content19WebContentsObserver27BeforeUnloadDialogCancelledEv = comdat any

$_ZN7content19WebContentsObserver30AXTreeIDForMainFrameHasChangedEv = comdat any

$_ZN7content19WebContentsObserver26AccessibilityEventReceivedERKNS_26AXEventNotificationDetailsE = comdat any

$_ZN7content19WebContentsObserver36AccessibilityLocationChangesReceivedERKNSt3__16vectorINS_35AXLocationChangeNotificationDetailsENS1_9allocatorIS3_EEEE = comdat any

$_ZN7content19WebContentsObserver19DidChangeThemeColorEv = comdat any

$_ZN7content19WebContentsObserver24OnBackgroundColorChangedEv = comdat any

$_ZN7content19WebContentsObserver24OnDidAddMessageToConsoleEPNS_15RenderFrameHostEN5blink5mojom19ConsoleMessageLevelERKNSt3__112basic_stringIDsNS6_11char_traitsIDsEENS6_9allocatorIDsEEEEiSE_RKN4absl8optionalISC_EE = comdat any

$_ZN7content19WebContentsObserver19MediaStartedPlayingERKNS0_15MediaPlayerInfoERKNS_13MediaPlayerIdE = comdat any

$_ZN7content19WebContentsObserver19MediaStoppedPlayingERKNS0_15MediaPlayerInfoERKNS_13MediaPlayerIdENS0_18MediaStoppedReasonE = comdat any

$_ZN7content19WebContentsObserver12MediaResizedERKN3gfx4SizeERKNS_13MediaPlayerIdE = comdat any

$_ZN7content19WebContentsObserver33MediaEffectivelyFullscreenChangedEb = comdat any

$_ZN7content19WebContentsObserver28MediaPictureInPictureChangedEb = comdat any

$_ZN7content19WebContentsObserver23MediaMutedStatusChangedERKNS_13MediaPlayerIdEb = comdat any

$_ZN7content19WebContentsObserver20MediaBufferUnderflowERKNS_13MediaPlayerIdE = comdat any

$_ZN7content19WebContentsObserver15MediaPlayerSeekERKNS_13MediaPlayerIdE = comdat any

$_ZN7content19WebContentsObserver14MediaDestroyedERKNS_13MediaPlayerIdE = comdat any

$_ZN7content19WebContentsObserver24OnPageScaleFactorChangedEf = comdat any

$_ZN7content19WebContentsObserver7OnPasteEv = comdat any

$_ZN7content19WebContentsObserver20OnWebContentsFocusedEPNS_16RenderWidgetHostE = comdat any

$_ZN7content19WebContentsObserver22OnWebContentsLostFocusEPNS_16RenderWidgetHostE = comdat any

$_ZN7content19WebContentsObserver20OnFocusChangedInPageEPNS_18FocusedNodeDetailsE = comdat any

$_ZN7content19WebContentsObserver23DidUpdateWebManifestURLEPNS_15RenderFrameHostERKN4absl8optionalI4GURLEE = comdat any

$_ZN7content19WebContentsObserver27OnInterfaceRequestFromFrameEPNS_15RenderFrameHostERKNSt3__112basic_stringIcNS3_11char_traitsIcEENS3_9allocatorIcEEEEPN4mojo16ScopedHandleBaseINSC_17MessagePipeHandleEEE = comdat any

$_ZN7content19WebContentsObserver27AudioContextPlaybackStartedERKNSt3__14pairIPNS_15RenderFrameHostEiEE = comdat any

$_ZN7content19WebContentsObserver27AudioContextPlaybackStoppedERKNSt3__14pairIPNS_15RenderFrameHostEiEE = comdat any

$_ZN7content19WebContentsObserver23OnServiceWorkerAccessedEPNS_15RenderFrameHostERK4GURLNS_24AllowServiceWorkerResultE = comdat any

$_ZN7content19WebContentsObserver23OnServiceWorkerAccessedEPNS_16NavigationHandleERK4GURLNS_24AllowServiceWorkerResultE = comdat any

$_ZNSt3__16__treeINS_12basic_stringIcNS_11char_traitsIcEENS_9allocatorIcEEEENS_4lessIS6_EENS4_IS6_EEE7destroyEPNS_11__tree_nodeIS6_PvEE = comdat any

$_ZNSt3__113__tree_removeIPNS_16__tree_node_baseIPvEEEEvT_S5_ = comdat any

$_ZNSt3__127__tree_balance_after_insertIPNS_16__tree_node_baseIPvEEEEvT_S5_ = comdat any

$_ZNSt3__16__treeINS_12basic_stringIcNS_11char_traitsIcEENS_9allocatorIcEEEENS_4lessIS6_EENS4_IS6_EEE25__emplace_unique_key_argsIS6_JRKS6_EEENS_4pairINS_15__tree_iteratorIS6_PNS_11__tree_nodeIS6_PvEElEEbEERKT_DpOT0_ = comdat any

$_ZNSt3__16__treeINS_12basic_stringIcNS_11char_traitsIcEENS_9allocatorIcEEEENS_4lessIS6_EENS4_IS6_EEE12__find_equalIS6_EERPNS_16__tree_node_baseIPvEERPNS_15__tree_end_nodeISF_EERKT_ = comdat any

$_ZNSt3__16__treeINS_12basic_stringIcNS_11char_traitsIcEENS_9allocatorIcEEEENS_4lessIS6_EENS4_IS6_EEE4findIS6_EENS_15__tree_iteratorIS6_PNS_11__tree_nodeIS6_PvEElEERKT_ = comdat any

$_ZN4base8internal7InvokerINS0_9BindStateIMN10extensions28SystemDisplayGetInfoFunctionEFvNSt3__16vectorINS3_3api14system_display15DisplayUnitInfoENS5_9allocatorIS9_EEEEEJ13scoped_refptrIS4_EEEEFvSC_EE7RunOnceEPNS0_13BindStateBaseEOSC_ = comdat any

$_ZN4base8internal9BindStateIMN10extensions28SystemDisplayGetInfoFunctionEFvNSt3__16vectorINS2_3api14system_display15DisplayUnitInfoENS4_9allocatorIS8_EEEEEJ13scoped_refptrIS3_EEE7DestroyEPKNS0_13BindStateBaseE = comdat any

$_ZN7content13BrowserThread14DeleteOnThreadILNS0_2IDE0EE8DestructI17ExtensionFunctionEEvPKT_ = comdat any

$_ZN4base12DeleteHelperI17ExtensionFunctionE8DoDeleteEPKv = comdat any

$_ZN4base8internal7InvokerINS0_9BindStateIMN10extensions37SystemDisplayGetDisplayLayoutFunctionEFvNSt3__16vectorINS3_3api14system_display13DisplayLayoutENS5_9allocatorIS9_EEEEEJ13scoped_refptrIS4_EEEEFvSC_EE7RunOnceEPNS0_13BindStateBaseEOSC_ = comdat any

$_ZN4base8internal9BindStateIMN10extensions37SystemDisplayGetDisplayLayoutFunctionEFvNSt3__16vectorINS2_3api14system_display13DisplayLayoutENS4_9allocatorIS8_EEEEEJ13scoped_refptrIS3_EEE7DestroyEPKNS0_13BindStateBaseE = comdat any

$_ZN4base8internal7InvokerINS0_9BindStateIMN10extensions41SystemDisplaySetDisplayPropertiesFunctionEFvN4absl8optionalINSt3__112basic_stringIcNS7_11char_traitsIcEENS7_9allocatorIcEEEEEEEJ13scoped_refptrIS4_EEEEFvSE_EE7RunOnceEPNS0_13BindStateBaseEOSE_ = comdat any

$_ZN4base8internal9BindStateIMN10extensions41SystemDisplaySetDisplayPropertiesFunctionEFvN4absl8optionalINSt3__112basic_stringIcNS6_11char_traitsIcEENS6_9allocatorIcEEEEEEEJ13scoped_refptrIS3_EEE7DestroyEPKNS0_13BindStateBaseE = comdat any

$_ZN4base8internal7InvokerINS0_9BindStateIMN10extensions37SystemDisplaySetDisplayLayoutFunctionEFvN4absl8optionalINSt3__112basic_stringIcNS7_11char_traitsIcEENS7_9allocatorIcEEEEEEEJ13scoped_refptrIS4_EEEEFvSE_EE7RunOnceEPNS0_13BindStateBaseEOSE_ = comdat any

$_ZN4base8internal9BindStateIMN10extensions37SystemDisplaySetDisplayLayoutFunctionEFvN4absl8optionalINSt3__112basic_stringIcNS6_11char_traitsIcEENS6_9allocatorIcEEEEEEEJ13scoped_refptrIS3_EEE7DestroyEPKNS0_13BindStateBaseE = comdat any

$_ZN4base8internal7InvokerINS0_9BindStateIMN10extensions47SystemDisplayShowNativeTouchCalibrationFunctionEFvN4absl8optionalINSt3__112basic_stringIcNS7_11char_traitsIcEENS7_9allocatorIcEEEEEEEJ13scoped_refptrIS4_EEEEFvSE_EE7RunOnceEPNS0_13BindStateBaseEOSE_ = comdat any

$_ZN4base8internal9BindStateIMN10extensions47SystemDisplayShowNativeTouchCalibrationFunctionEFvN4absl8optionalINSt3__112basic_stringIcNS6_11char_traitsIcEENS6_9allocatorIcEEEEEEEJ13scoped_refptrIS3_EEE7DestroyEPKNS0_13BindStateBaseE = comdat any

$_ZN4base8internal7InvokerINS0_9BindStateIMN10extensions34SystemDisplaySetMirrorModeFunctionEFvN4absl8optionalINSt3__112basic_stringIcNS7_11char_traitsIcEENS7_9allocatorIcEEEEEEEJ13scoped_refptrIS4_EEEEFvSE_EE7RunOnceEPNS0_13BindStateBaseEOSE_ = comdat any

$_ZN4base8internal9BindStateIMN10extensions34SystemDisplaySetMirrorModeFunctionEFvN4absl8optionalINSt3__112basic_stringIcNS6_11char_traitsIcEENS6_9allocatorIcEEEEEEEJ13scoped_refptrIS3_EEE7DestroyEPKNS0_13BindStateBaseE = comdat any

@_ZN10extensions35SystemDisplayCrOSRestrictedFunction14kCrosOnlyErrorE = hidden constant [37 x i8] c"Function available only on ChromeOS.\00", align 16
@_ZN10extensions35SystemDisplayCrOSRestrictedFunction15kKioskOnlyErrorE = hidden local_unnamed_addr constant [64 x i8] c"Only kiosk enabled extensions are allowed to use this function.\00", align 16
@.str = private unnamed_addr constant [21 x i8] c"Invalid display ID: \00", align 1
@.str.1 = private unnamed_addr constant [19 x i8] c"Invalid parameters\00", align 1
@.str.2 = private unnamed_addr constant [41 x i8] c"Calibration not started for display ID: \00", align 1
@.str.3 = private unnamed_addr constant [52 x i8] c"Custom touch calibration not available for display.\00", align 1
@.str.4 = private unnamed_addr constant [44 x i8] c"Custom touch calibration completion failed.\00", align 1
@.str.5 = private unnamed_addr constant [47 x i8] c"Failed to clear custom touch calibration data.\00", align 1
@_ZTVN10extensions35SystemDisplayCrOSRestrictedFunctionE = hidden unnamed_addr constant { [16 x i8*] } { [16 x i8*] [i8* null, i8* null, i8* bitcast (i1 (%"class.extensions::SystemDisplayCrOSRestrictedFunction"*, %"class.std::__1::basic_string"*)* @_ZN10extensions35SystemDisplayCrOSRestrictedFunction16PreRunValidationEPNSt3__112basic_stringIcNS1_11char_traitsIcEENS1_9allocatorIcEEEE to i8*), i8* bitcast (void ()* @__cxa_pure_virtual to i8*), i8* bitcast (i1 (%class.ExtensionFunction*)* @_ZNK17ExtensionFunction23ShouldSkipQuotaLimitingEv to i8*), i8* bitcast (void (%class.ExtensionFunction*, %"class.std::__1::list"*)* @_ZNK17ExtensionFunction23GetQuotaLimitHeuristicsEPNSt3__14listINS0_10unique_ptrIN10extensions19QuotaLimitHeuristicENS0_14default_deleteIS4_EEEENS0_9allocatorIS7_EEEE to i8*), i8* bitcast (void (%class.ExtensionFunction*, %"class.std::__1::basic_string"*)* @_ZN17ExtensionFunction15OnQuotaExceededENSt3__112basic_stringIcNS0_11char_traitsIcEENS0_9allocatorIcEEEE to i8*), i8* bitcast (%"class.std::__1::basic_string"* (%class.ExtensionFunction*)* @_ZNK17ExtensionFunction8GetErrorEv to i8*), i8* bitcast (void (%class.ExtensionFunction*)* @_ZN17ExtensionFunction13SetBadMessageEv to i8*), i8* bitcast (void (%class.ExtensionFunction*, i8*)* @_ZN17ExtensionFunction7SetNameEPKc to i8*), i8* bitcast (i1 (%class.ExtensionFunction*, %"class.IPC::Message"*)* @_ZN17ExtensionFunction17OnMessageReceivedERKN3IPC7MessageE to i8*), i8* bitcast (void (%class.ExtensionFunction*)* @_ZN17ExtensionFunction18OnServiceWorkerAckEv to i8*), i8* bitcast (void (%class.ExtensionFunction*)* @_ZN17ExtensionFunctionD2Ev to i8*), i8* bitcast (void (%"class.extensions::SystemDisplayCrOSRestrictedFunction"*)* @_ZN10extensions35SystemDisplayCrOSRestrictedFunctionD0Ev to i8*), i8* bitcast (void (%class.ExtensionFunction*)* @_ZN17ExtensionFunction11OnRespondedEv to i8*), i8* bitcast (i1 (%"class.extensions::SystemDisplayCrOSRestrictedFunction"*)* @_ZN10extensions35SystemDisplayCrOSRestrictedFunction29ShouldRestrictToKioskAndWebUIEv to i8*)] }, align 8
@_ZTVN10extensions28SystemDisplayGetInfoFunctionE = hidden unnamed_addr constant { [15 x i8*] } { [15 x i8*] [i8* null, i8* null, i8* bitcast (i1 (%class.ExtensionFunction*, %"class.std::__1::basic_string"*)* @_ZN17ExtensionFunction16PreRunValidationEPNSt3__112basic_stringIcNS0_11char_traitsIcEENS0_9allocatorIcEEEE to i8*), i8* bitcast (%"class.ExtensionFunction::ResponseActionObject"* (%"class.extensions::SystemDisplayGetInfoFunction"*)* @_ZN10extensions28SystemDisplayGetInfoFunction3RunEv to i8*), i8* bitcast (i1 (%class.ExtensionFunction*)* @_ZNK17ExtensionFunction23ShouldSkipQuotaLimitingEv to i8*), i8* bitcast (void (%class.ExtensionFunction*, %"class.std::__1::list"*)* @_ZNK17ExtensionFunction23GetQuotaLimitHeuristicsEPNSt3__14listINS0_10unique_ptrIN10extensions19QuotaLimitHeuristicENS0_14default_deleteIS4_EEEENS0_9allocatorIS7_EEEE to i8*), i8* bitcast (void (%class.ExtensionFunction*, %"class.std::__1::basic_string"*)* @_ZN17ExtensionFunction15OnQuotaExceededENSt3__112basic_stringIcNS0_11char_traitsIcEENS0_9allocatorIcEEEE to i8*), i8* bitcast (%"class.std::__1::basic_string"* (%class.ExtensionFunction*)* @_ZNK17ExtensionFunction8GetErrorEv to i8*), i8* bitcast (void (%class.ExtensionFunction*)* @_ZN17ExtensionFunction13SetBadMessageEv to i8*), i8* bitcast (void (%class.ExtensionFunction*, i8*)* @_ZN17ExtensionFunction7SetNameEPKc to i8*), i8* bitcast (i1 (%class.ExtensionFunction*, %"class.IPC::Message"*)* @_ZN17ExtensionFunction17OnMessageReceivedERKN3IPC7MessageE to i8*), i8* bitcast (void (%class.ExtensionFunction*)* @_ZN17ExtensionFunction18OnServiceWorkerAckEv to i8*), i8* bitcast (void (%class.ExtensionFunction*)* @_ZN17ExtensionFunctionD2Ev to i8*), i8* bitcast (void (%"class.extensions::SystemDisplayGetInfoFunction"*)* @_ZN10extensions28SystemDisplayGetInfoFunctionD0Ev to i8*), i8* bitcast (void (%class.ExtensionFunction*)* @_ZN17ExtensionFunction11OnRespondedEv to i8*)] }, align 8
@_ZTVN10extensions37SystemDisplayGetDisplayLayoutFunctionE = hidden unnamed_addr constant { [16 x i8*] } { [16 x i8*] [i8* null, i8* null, i8* bitcast (i1 (%"class.extensions::SystemDisplayCrOSRestrictedFunction"*, %"class.std::__1::basic_string"*)* @_ZN10extensions35SystemDisplayCrOSRestrictedFunction16PreRunValidationEPNSt3__112basic_stringIcNS1_11char_traitsIcEENS1_9allocatorIcEEEE to i8*), i8* bitcast (%"class.ExtensionFunction::ResponseActionObject"* (%"class.extensions::SystemDisplayGetDisplayLayoutFunction"*)* @_ZN10extensions37SystemDisplayGetDisplayLayoutFunction3RunEv to i8*), i8* bitcast (i1 (%class.ExtensionFunction*)* @_ZNK17ExtensionFunction23ShouldSkipQuotaLimitingEv to i8*), i8* bitcast (void (%class.ExtensionFunction*, %"class.std::__1::list"*)* @_ZNK17ExtensionFunction23GetQuotaLimitHeuristicsEPNSt3__14listINS0_10unique_ptrIN10extensions19QuotaLimitHeuristicENS0_14default_deleteIS4_EEEENS0_9allocatorIS7_EEEE to i8*), i8* bitcast (void (%class.ExtensionFunction*, %"class.std::__1::basic_string"*)* @_ZN17ExtensionFunction15OnQuotaExceededENSt3__112basic_stringIcNS0_11char_traitsIcEENS0_9allocatorIcEEEE to i8*), i8* bitcast (%"class.std::__1::basic_string"* (%class.ExtensionFunction*)* @_ZNK17ExtensionFunction8GetErrorEv to i8*), i8* bitcast (void (%class.ExtensionFunction*)* @_ZN17ExtensionFunction13SetBadMessageEv to i8*), i8* bitcast (void (%class.ExtensionFunction*, i8*)* @_ZN17ExtensionFunction7SetNameEPKc to i8*), i8* bitcast (i1 (%class.ExtensionFunction*, %"class.IPC::Message"*)* @_ZN17ExtensionFunction17OnMessageReceivedERKN3IPC7MessageE to i8*), i8* bitcast (void (%class.ExtensionFunction*)* @_ZN17ExtensionFunction18OnServiceWorkerAckEv to i8*), i8* bitcast (void (%class.ExtensionFunction*)* @_ZN17ExtensionFunctionD2Ev to i8*), i8* bitcast (void (%"class.extensions::SystemDisplayGetDisplayLayoutFunction"*)* @_ZN10extensions37SystemDisplayGetDisplayLayoutFunctionD0Ev to i8*), i8* bitcast (void (%class.ExtensionFunction*)* @_ZN17ExtensionFunction11OnRespondedEv to i8*), i8* bitcast (i1 (%"class.extensions::SystemDisplayGetDisplayLayoutFunction"*)* @_ZN10extensions37SystemDisplayGetDisplayLayoutFunction29ShouldRestrictToKioskAndWebUIEv to i8*)] }, align 8
@_ZTVN10extensions41SystemDisplaySetDisplayPropertiesFunctionE = hidden unnamed_addr constant { [16 x i8*] } { [16 x i8*] [i8* null, i8* null, i8* bitcast (i1 (%"class.extensions::SystemDisplayCrOSRestrictedFunction"*, %"class.std::__1::basic_string"*)* @_ZN10extensions35SystemDisplayCrOSRestrictedFunction16PreRunValidationEPNSt3__112basic_stringIcNS1_11char_traitsIcEENS1_9allocatorIcEEEE to i8*), i8* bitcast (%"class.ExtensionFunction::ResponseActionObject"* (%"class.extensions::SystemDisplaySetDisplayPropertiesFunction"*)* @_ZN10extensions41SystemDisplaySetDisplayPropertiesFunction3RunEv to i8*), i8* bitcast (i1 (%class.ExtensionFunction*)* @_ZNK17ExtensionFunction23ShouldSkipQuotaLimitingEv to i8*), i8* bitcast (void (%class.ExtensionFunction*, %"class.std::__1::list"*)* @_ZNK17ExtensionFunction23GetQuotaLimitHeuristicsEPNSt3__14listINS0_10unique_ptrIN10extensions19QuotaLimitHeuristicENS0_14default_deleteIS4_EEEENS0_9allocatorIS7_EEEE to i8*), i8* bitcast (void (%class.ExtensionFunction*, %"class.std::__1::basic_string"*)* @_ZN17ExtensionFunction15OnQuotaExceededENSt3__112basic_stringIcNS0_11char_traitsIcEENS0_9allocatorIcEEEE to i8*), i8* bitcast (%"class.std::__1::basic_string"* (%class.ExtensionFunction*)* @_ZNK17ExtensionFunction8GetErrorEv to i8*), i8* bitcast (void (%class.ExtensionFunction*)* @_ZN17ExtensionFunction13SetBadMessageEv to i8*), i8* bitcast (void (%class.ExtensionFunction*, i8*)* @_ZN17ExtensionFunction7SetNameEPKc to i8*), i8* bitcast (i1 (%class.ExtensionFunction*, %"class.IPC::Message"*)* @_ZN17ExtensionFunction17OnMessageReceivedERKN3IPC7MessageE to i8*), i8* bitcast (void (%class.ExtensionFunction*)* @_ZN17ExtensionFunction18OnServiceWorkerAckEv to i8*), i8* bitcast (void (%class.ExtensionFunction*)* @_ZN17ExtensionFunctionD2Ev to i8*), i8* bitcast (void (%"class.extensions::SystemDisplaySetDisplayPropertiesFunction"*)* @_ZN10extensions41SystemDisplaySetDisplayPropertiesFunctionD0Ev to i8*), i8* bitcast (void (%class.ExtensionFunction*)* @_ZN17ExtensionFunction11OnRespondedEv to i8*), i8* bitcast (i1 (%"class.extensions::SystemDisplayCrOSRestrictedFunction"*)* @_ZN10extensions35SystemDisplayCrOSRestrictedFunction29ShouldRestrictToKioskAndWebUIEv to i8*)] }, align 8
@_ZTVN10extensions37SystemDisplaySetDisplayLayoutFunctionE = hidden unnamed_addr constant { [16 x i8*] } { [16 x i8*] [i8* null, i8* null, i8* bitcast (i1 (%"class.extensions::SystemDisplayCrOSRestrictedFunction"*, %"class.std::__1::basic_string"*)* @_ZN10extensions35SystemDisplayCrOSRestrictedFunction16PreRunValidationEPNSt3__112basic_stringIcNS1_11char_traitsIcEENS1_9allocatorIcEEEE to i8*), i8* bitcast (%"class.ExtensionFunction::ResponseActionObject"* (%"class.extensions::SystemDisplaySetDisplayLayoutFunction"*)* @_ZN10extensions37SystemDisplaySetDisplayLayoutFunction3RunEv to i8*), i8* bitcast (i1 (%class.ExtensionFunction*)* @_ZNK17ExtensionFunction23ShouldSkipQuotaLimitingEv to i8*), i8* bitcast (void (%class.ExtensionFunction*, %"class.std::__1::list"*)* @_ZNK17ExtensionFunction23GetQuotaLimitHeuristicsEPNSt3__14listINS0_10unique_ptrIN10extensions19QuotaLimitHeuristicENS0_14default_deleteIS4_EEEENS0_9allocatorIS7_EEEE to i8*), i8* bitcast (void (%class.ExtensionFunction*, %"class.std::__1::basic_string"*)* @_ZN17ExtensionFunction15OnQuotaExceededENSt3__112basic_stringIcNS0_11char_traitsIcEENS0_9allocatorIcEEEE to i8*), i8* bitcast (%"class.std::__1::basic_string"* (%class.ExtensionFunction*)* @_ZNK17ExtensionFunction8GetErrorEv to i8*), i8* bitcast (void (%class.ExtensionFunction*)* @_ZN17ExtensionFunction13SetBadMessageEv to i8*), i8* bitcast (void (%class.ExtensionFunction*, i8*)* @_ZN17ExtensionFunction7SetNameEPKc to i8*), i8* bitcast (i1 (%class.ExtensionFunction*, %"class.IPC::Message"*)* @_ZN17ExtensionFunction17OnMessageReceivedERKN3IPC7MessageE to i8*), i8* bitcast (void (%class.ExtensionFunction*)* @_ZN17ExtensionFunction18OnServiceWorkerAckEv to i8*), i8* bitcast (void (%class.ExtensionFunction*)* @_ZN17ExtensionFunctionD2Ev to i8*), i8* bitcast (void (%"class.extensions::SystemDisplaySetDisplayLayoutFunction"*)* @_ZN10extensions37SystemDisplaySetDisplayLayoutFunctionD0Ev to i8*), i8* bitcast (void (%class.ExtensionFunction*)* @_ZN17ExtensionFunction11OnRespondedEv to i8*), i8* bitcast (i1 (%"class.extensions::SystemDisplayCrOSRestrictedFunction"*)* @_ZN10extensions35SystemDisplayCrOSRestrictedFunction29ShouldRestrictToKioskAndWebUIEv to i8*)] }, align 8
@_ZTVN10extensions41SystemDisplayEnableUnifiedDesktopFunctionE = hidden unnamed_addr constant { [16 x i8*] } { [16 x i8*] [i8* null, i8* null, i8* bitcast (i1 (%"class.extensions::SystemDisplayCrOSRestrictedFunction"*, %"class.std::__1::basic_string"*)* @_ZN10extensions35SystemDisplayCrOSRestrictedFunction16PreRunValidationEPNSt3__112basic_stringIcNS1_11char_traitsIcEENS1_9allocatorIcEEEE to i8*), i8* bitcast (%"class.ExtensionFunction::ResponseActionObject"* (%"class.extensions::SystemDisplayEnableUnifiedDesktopFunction"*)* @_ZN10extensions41SystemDisplayEnableUnifiedDesktopFunction3RunEv to i8*), i8* bitcast (i1 (%class.ExtensionFunction*)* @_ZNK17ExtensionFunction23ShouldSkipQuotaLimitingEv to i8*), i8* bitcast (void (%class.ExtensionFunction*, %"class.std::__1::list"*)* @_ZNK17ExtensionFunction23GetQuotaLimitHeuristicsEPNSt3__14listINS0_10unique_ptrIN10extensions19QuotaLimitHeuristicENS0_14default_deleteIS4_EEEENS0_9allocatorIS7_EEEE to i8*), i8* bitcast (void (%class.ExtensionFunction*, %"class.std::__1::basic_string"*)* @_ZN17ExtensionFunction15OnQuotaExceededENSt3__112basic_stringIcNS0_11char_traitsIcEENS0_9allocatorIcEEEE to i8*), i8* bitcast (%"class.std::__1::basic_string"* (%class.ExtensionFunction*)* @_ZNK17ExtensionFunction8GetErrorEv to i8*), i8* bitcast (void (%class.ExtensionFunction*)* @_ZN17ExtensionFunction13SetBadMessageEv to i8*), i8* bitcast (void (%class.ExtensionFunction*, i8*)* @_ZN17ExtensionFunction7SetNameEPKc to i8*), i8* bitcast (i1 (%class.ExtensionFunction*, %"class.IPC::Message"*)* @_ZN17ExtensionFunction17OnMessageReceivedERKN3IPC7MessageE to i8*), i8* bitcast (void (%class.ExtensionFunction*)* @_ZN17ExtensionFunction18OnServiceWorkerAckEv to i8*), i8* bitcast (void (%class.ExtensionFunction*)* @_ZN17ExtensionFunctionD2Ev to i8*), i8* bitcast (void (%"class.extensions::SystemDisplayEnableUnifiedDesktopFunction"*)* @_ZN10extensions41SystemDisplayEnableUnifiedDesktopFunctionD0Ev to i8*), i8* bitcast (void (%class.ExtensionFunction*)* @_ZN17ExtensionFunction11OnRespondedEv to i8*), i8* bitcast (i1 (%"class.extensions::SystemDisplayCrOSRestrictedFunction"*)* @_ZN10extensions35SystemDisplayCrOSRestrictedFunction29ShouldRestrictToKioskAndWebUIEv to i8*)] }, align 8
@_ZTVN10extensions45SystemDisplayOverscanCalibrationStartFunctionE = hidden unnamed_addr constant { [16 x i8*] } { [16 x i8*] [i8* null, i8* null, i8* bitcast (i1 (%"class.extensions::SystemDisplayCrOSRestrictedFunction"*, %"class.std::__1::basic_string"*)* @_ZN10extensions35SystemDisplayCrOSRestrictedFunction16PreRunValidationEPNSt3__112basic_stringIcNS1_11char_traitsIcEENS1_9allocatorIcEEEE to i8*), i8* bitcast (%"class.ExtensionFunction::ResponseActionObject"* (%"class.extensions::SystemDisplayOverscanCalibrationStartFunction"*)* @_ZN10extensions45SystemDisplayOverscanCalibrationStartFunction3RunEv to i8*), i8* bitcast (i1 (%class.ExtensionFunction*)* @_ZNK17ExtensionFunction23ShouldSkipQuotaLimitingEv to i8*), i8* bitcast (void (%class.ExtensionFunction*, %"class.std::__1::list"*)* @_ZNK17ExtensionFunction23GetQuotaLimitHeuristicsEPNSt3__14listINS0_10unique_ptrIN10extensions19QuotaLimitHeuristicENS0_14default_deleteIS4_EEEENS0_9allocatorIS7_EEEE to i8*), i8* bitcast (void (%class.ExtensionFunction*, %"class.std::__1::basic_string"*)* @_ZN17ExtensionFunction15OnQuotaExceededENSt3__112basic_stringIcNS0_11char_traitsIcEENS0_9allocatorIcEEEE to i8*), i8* bitcast (%"class.std::__1::basic_string"* (%class.ExtensionFunction*)* @_ZNK17ExtensionFunction8GetErrorEv to i8*), i8* bitcast (void (%class.ExtensionFunction*)* @_ZN17ExtensionFunction13SetBadMessageEv to i8*), i8* bitcast (void (%class.ExtensionFunction*, i8*)* @_ZN17ExtensionFunction7SetNameEPKc to i8*), i8* bitcast (i1 (%class.ExtensionFunction*, %"class.IPC::Message"*)* @_ZN17ExtensionFunction17OnMessageReceivedERKN3IPC7MessageE to i8*), i8* bitcast (void (%class.ExtensionFunction*)* @_ZN17ExtensionFunction18OnServiceWorkerAckEv to i8*), i8* bitcast (void (%class.ExtensionFunction*)* @_ZN17ExtensionFunctionD2Ev to i8*), i8* bitcast (void (%"class.extensions::SystemDisplayOverscanCalibrationStartFunction"*)* @_ZN10extensions45SystemDisplayOverscanCalibrationStartFunctionD0Ev to i8*), i8* bitcast (void (%class.ExtensionFunction*)* @_ZN17ExtensionFunction11OnRespondedEv to i8*), i8* bitcast (i1 (%"class.extensions::SystemDisplayCrOSRestrictedFunction"*)* @_ZN10extensions35SystemDisplayCrOSRestrictedFunction29ShouldRestrictToKioskAndWebUIEv to i8*)] }, align 8
@_ZTVN10extensions46SystemDisplayOverscanCalibrationAdjustFunctionE = hidden unnamed_addr constant { [16 x i8*] } { [16 x i8*] [i8* null, i8* null, i8* bitcast (i1 (%"class.extensions::SystemDisplayCrOSRestrictedFunction"*, %"class.std::__1::basic_string"*)* @_ZN10extensions35SystemDisplayCrOSRestrictedFunction16PreRunValidationEPNSt3__112basic_stringIcNS1_11char_traitsIcEENS1_9allocatorIcEEEE to i8*), i8* bitcast (%"class.ExtensionFunction::ResponseActionObject"* (%"class.extensions::SystemDisplayOverscanCalibrationAdjustFunction"*)* @_ZN10extensions46SystemDisplayOverscanCalibrationAdjustFunction3RunEv to i8*), i8* bitcast (i1 (%class.ExtensionFunction*)* @_ZNK17ExtensionFunction23ShouldSkipQuotaLimitingEv to i8*), i8* bitcast (void (%class.ExtensionFunction*, %"class.std::__1::list"*)* @_ZNK17ExtensionFunction23GetQuotaLimitHeuristicsEPNSt3__14listINS0_10unique_ptrIN10extensions19QuotaLimitHeuristicENS0_14default_deleteIS4_EEEENS0_9allocatorIS7_EEEE to i8*), i8* bitcast (void (%class.ExtensionFunction*, %"class.std::__1::basic_string"*)* @_ZN17ExtensionFunction15OnQuotaExceededENSt3__112basic_stringIcNS0_11char_traitsIcEENS0_9allocatorIcEEEE to i8*), i8* bitcast (%"class.std::__1::basic_string"* (%class.ExtensionFunction*)* @_ZNK17ExtensionFunction8GetErrorEv to i8*), i8* bitcast (void (%class.ExtensionFunction*)* @_ZN17ExtensionFunction13SetBadMessageEv to i8*), i8* bitcast (void (%class.ExtensionFunction*, i8*)* @_ZN17ExtensionFunction7SetNameEPKc to i8*), i8* bitcast (i1 (%class.ExtensionFunction*, %"class.IPC::Message"*)* @_ZN17ExtensionFunction17OnMessageReceivedERKN3IPC7MessageE to i8*), i8* bitcast (void (%class.ExtensionFunction*)* @_ZN17ExtensionFunction18OnServiceWorkerAckEv to i8*), i8* bitcast (void (%class.ExtensionFunction*)* @_ZN17ExtensionFunctionD2Ev to i8*), i8* bitcast (void (%"class.extensions::SystemDisplayOverscanCalibrationAdjustFunction"*)* @_ZN10extensions46SystemDisplayOverscanCalibrationAdjustFunctionD0Ev to i8*), i8* bitcast (void (%class.ExtensionFunction*)* @_ZN17ExtensionFunction11OnRespondedEv to i8*), i8* bitcast (i1 (%"class.extensions::SystemDisplayCrOSRestrictedFunction"*)* @_ZN10extensions35SystemDisplayCrOSRestrictedFunction29ShouldRestrictToKioskAndWebUIEv to i8*)] }, align 8
@_ZTVN10extensions45SystemDisplayOverscanCalibrationResetFunctionE = hidden unnamed_addr constant { [16 x i8*] } { [16 x i8*] [i8* null, i8* null, i8* bitcast (i1 (%"class.extensions::SystemDisplayCrOSRestrictedFunction"*, %"class.std::__1::basic_string"*)* @_ZN10extensions35SystemDisplayCrOSRestrictedFunction16PreRunValidationEPNSt3__112basic_stringIcNS1_11char_traitsIcEENS1_9allocatorIcEEEE to i8*), i8* bitcast (%"class.ExtensionFunction::ResponseActionObject"* (%"class.extensions::SystemDisplayOverscanCalibrationResetFunction"*)* @_ZN10extensions45SystemDisplayOverscanCalibrationResetFunction3RunEv to i8*), i8* bitcast (i1 (%class.ExtensionFunction*)* @_ZNK17ExtensionFunction23ShouldSkipQuotaLimitingEv to i8*), i8* bitcast (void (%class.ExtensionFunction*, %"class.std::__1::list"*)* @_ZNK17ExtensionFunction23GetQuotaLimitHeuristicsEPNSt3__14listINS0_10unique_ptrIN10extensions19QuotaLimitHeuristicENS0_14default_deleteIS4_EEEENS0_9allocatorIS7_EEEE to i8*), i8* bitcast (void (%class.ExtensionFunction*, %"class.std::__1::basic_string"*)* @_ZN17ExtensionFunction15OnQuotaExceededENSt3__112basic_stringIcNS0_11char_traitsIcEENS0_9allocatorIcEEEE to i8*), i8* bitcast (%"class.std::__1::basic_string"* (%class.ExtensionFunction*)* @_ZNK17ExtensionFunction8GetErrorEv to i8*), i8* bitcast (void (%class.ExtensionFunction*)* @_ZN17ExtensionFunction13SetBadMessageEv to i8*), i8* bitcast (void (%class.ExtensionFunction*, i8*)* @_ZN17ExtensionFunction7SetNameEPKc to i8*), i8* bitcast (i1 (%class.ExtensionFunction*, %"class.IPC::Message"*)* @_ZN17ExtensionFunction17OnMessageReceivedERKN3IPC7MessageE to i8*), i8* bitcast (void (%class.ExtensionFunction*)* @_ZN17ExtensionFunction18OnServiceWorkerAckEv to i8*), i8* bitcast (void (%class.ExtensionFunction*)* @_ZN17ExtensionFunctionD2Ev to i8*), i8* bitcast (void (%"class.extensions::SystemDisplayOverscanCalibrationResetFunction"*)* @_ZN10extensions45SystemDisplayOverscanCalibrationResetFunctionD0Ev to i8*), i8* bitcast (void (%class.ExtensionFunction*)* @_ZN17ExtensionFunction11OnRespondedEv to i8*), i8* bitcast (i1 (%"class.extensions::SystemDisplayCrOSRestrictedFunction"*)* @_ZN10extensions35SystemDisplayCrOSRestrictedFunction29ShouldRestrictToKioskAndWebUIEv to i8*)] }, align 8
@_ZTVN10extensions48SystemDisplayOverscanCalibrationCompleteFunctionE = hidden unnamed_addr constant { [16 x i8*] } { [16 x i8*] [i8* null, i8* null, i8* bitcast (i1 (%"class.extensions::SystemDisplayCrOSRestrictedFunction"*, %"class.std::__1::basic_string"*)* @_ZN10extensions35SystemDisplayCrOSRestrictedFunction16PreRunValidationEPNSt3__112basic_stringIcNS1_11char_traitsIcEENS1_9allocatorIcEEEE to i8*), i8* bitcast (%"class.ExtensionFunction::ResponseActionObject"* (%"class.extensions::SystemDisplayOverscanCalibrationCompleteFunction"*)* @_ZN10extensions48SystemDisplayOverscanCalibrationCompleteFunction3RunEv to i8*), i8* bitcast (i1 (%class.ExtensionFunction*)* @_ZNK17ExtensionFunction23ShouldSkipQuotaLimitingEv to i8*), i8* bitcast (void (%class.ExtensionFunction*, %"class.std::__1::list"*)* @_ZNK17ExtensionFunction23GetQuotaLimitHeuristicsEPNSt3__14listINS0_10unique_ptrIN10extensions19QuotaLimitHeuristicENS0_14default_deleteIS4_EEEENS0_9allocatorIS7_EEEE to i8*), i8* bitcast (void (%class.ExtensionFunction*, %"class.std::__1::basic_string"*)* @_ZN17ExtensionFunction15OnQuotaExceededENSt3__112basic_stringIcNS0_11char_traitsIcEENS0_9allocatorIcEEEE to i8*), i8* bitcast (%"class.std::__1::basic_string"* (%class.ExtensionFunction*)* @_ZNK17ExtensionFunction8GetErrorEv to i8*), i8* bitcast (void (%class.ExtensionFunction*)* @_ZN17ExtensionFunction13SetBadMessageEv to i8*), i8* bitcast (void (%class.ExtensionFunction*, i8*)* @_ZN17ExtensionFunction7SetNameEPKc to i8*), i8* bitcast (i1 (%class.ExtensionFunction*, %"class.IPC::Message"*)* @_ZN17ExtensionFunction17OnMessageReceivedERKN3IPC7MessageE to i8*), i8* bitcast (void (%class.ExtensionFunction*)* @_ZN17ExtensionFunction18OnServiceWorkerAckEv to i8*), i8* bitcast (void (%class.ExtensionFunction*)* @_ZN17ExtensionFunctionD2Ev to i8*), i8* bitcast (void (%"class.extensions::SystemDisplayOverscanCalibrationCompleteFunction"*)* @_ZN10extensions48SystemDisplayOverscanCalibrationCompleteFunctionD0Ev to i8*), i8* bitcast (void (%class.ExtensionFunction*)* @_ZN17ExtensionFunction11OnRespondedEv to i8*), i8* bitcast (i1 (%"class.extensions::SystemDisplayCrOSRestrictedFunction"*)* @_ZN10extensions35SystemDisplayCrOSRestrictedFunction29ShouldRestrictToKioskAndWebUIEv to i8*)] }, align 8
@_ZTVN10extensions47SystemDisplayShowNativeTouchCalibrationFunctionE = hidden unnamed_addr constant { [16 x i8*] } { [16 x i8*] [i8* null, i8* null, i8* bitcast (i1 (%"class.extensions::SystemDisplayCrOSRestrictedFunction"*, %"class.std::__1::basic_string"*)* @_ZN10extensions35SystemDisplayCrOSRestrictedFunction16PreRunValidationEPNSt3__112basic_stringIcNS1_11char_traitsIcEENS1_9allocatorIcEEEE to i8*), i8* bitcast (%"class.ExtensionFunction::ResponseActionObject"* (%"class.extensions::SystemDisplayShowNativeTouchCalibrationFunction"*)* @_ZN10extensions47SystemDisplayShowNativeTouchCalibrationFunction3RunEv to i8*), i8* bitcast (i1 (%class.ExtensionFunction*)* @_ZNK17ExtensionFunction23ShouldSkipQuotaLimitingEv to i8*), i8* bitcast (void (%class.ExtensionFunction*, %"class.std::__1::list"*)* @_ZNK17ExtensionFunction23GetQuotaLimitHeuristicsEPNSt3__14listINS0_10unique_ptrIN10extensions19QuotaLimitHeuristicENS0_14default_deleteIS4_EEEENS0_9allocatorIS7_EEEE to i8*), i8* bitcast (void (%class.ExtensionFunction*, %"class.std::__1::basic_string"*)* @_ZN17ExtensionFunction15OnQuotaExceededENSt3__112basic_stringIcNS0_11char_traitsIcEENS0_9allocatorIcEEEE to i8*), i8* bitcast (%"class.std::__1::basic_string"* (%class.ExtensionFunction*)* @_ZNK17ExtensionFunction8GetErrorEv to i8*), i8* bitcast (void (%class.ExtensionFunction*)* @_ZN17ExtensionFunction13SetBadMessageEv to i8*), i8* bitcast (void (%class.ExtensionFunction*, i8*)* @_ZN17ExtensionFunction7SetNameEPKc to i8*), i8* bitcast (i1 (%class.ExtensionFunction*, %"class.IPC::Message"*)* @_ZN17ExtensionFunction17OnMessageReceivedERKN3IPC7MessageE to i8*), i8* bitcast (void (%class.ExtensionFunction*)* @_ZN17ExtensionFunction18OnServiceWorkerAckEv to i8*), i8* bitcast (void (%class.ExtensionFunction*)* @_ZN17ExtensionFunctionD2Ev to i8*), i8* bitcast (void (%"class.extensions::SystemDisplayShowNativeTouchCalibrationFunction"*)* @_ZN10extensions47SystemDisplayShowNativeTouchCalibrationFunctionD0Ev to i8*), i8* bitcast (void (%class.ExtensionFunction*)* @_ZN17ExtensionFunction11OnRespondedEv to i8*), i8* bitcast (i1 (%"class.extensions::SystemDisplayCrOSRestrictedFunction"*)* @_ZN10extensions35SystemDisplayCrOSRestrictedFunction29ShouldRestrictToKioskAndWebUIEv to i8*)] }, align 8
@_ZTVN10extensions48SystemDisplayStartCustomTouchCalibrationFunctionE = hidden unnamed_addr constant { [16 x i8*] } { [16 x i8*] [i8* null, i8* null, i8* bitcast (i1 (%"class.extensions::SystemDisplayCrOSRestrictedFunction"*, %"class.std::__1::basic_string"*)* @_ZN10extensions35SystemDisplayCrOSRestrictedFunction16PreRunValidationEPNSt3__112basic_stringIcNS1_11char_traitsIcEENS1_9allocatorIcEEEE to i8*), i8* bitcast (%"class.ExtensionFunction::ResponseActionObject"* (%"class.extensions::SystemDisplayStartCustomTouchCalibrationFunction"*)* @_ZN10extensions48SystemDisplayStartCustomTouchCalibrationFunction3RunEv to i8*), i8* bitcast (i1 (%class.ExtensionFunction*)* @_ZNK17ExtensionFunction23ShouldSkipQuotaLimitingEv to i8*), i8* bitcast (void (%class.ExtensionFunction*, %"class.std::__1::list"*)* @_ZNK17ExtensionFunction23GetQuotaLimitHeuristicsEPNSt3__14listINS0_10unique_ptrIN10extensions19QuotaLimitHeuristicENS0_14default_deleteIS4_EEEENS0_9allocatorIS7_EEEE to i8*), i8* bitcast (void (%class.ExtensionFunction*, %"class.std::__1::basic_string"*)* @_ZN17ExtensionFunction15OnQuotaExceededENSt3__112basic_stringIcNS0_11char_traitsIcEENS0_9allocatorIcEEEE to i8*), i8* bitcast (%"class.std::__1::basic_string"* (%class.ExtensionFunction*)* @_ZNK17ExtensionFunction8GetErrorEv to i8*), i8* bitcast (void (%class.ExtensionFunction*)* @_ZN17ExtensionFunction13SetBadMessageEv to i8*), i8* bitcast (void (%class.ExtensionFunction*, i8*)* @_ZN17ExtensionFunction7SetNameEPKc to i8*), i8* bitcast (i1 (%class.ExtensionFunction*, %"class.IPC::Message"*)* @_ZN17ExtensionFunction17OnMessageReceivedERKN3IPC7MessageE to i8*), i8* bitcast (void (%class.ExtensionFunction*)* @_ZN17ExtensionFunction18OnServiceWorkerAckEv to i8*), i8* bitcast (void (%class.ExtensionFunction*)* @_ZN17ExtensionFunctionD2Ev to i8*), i8* bitcast (void (%"class.extensions::SystemDisplayStartCustomTouchCalibrationFunction"*)* @_ZN10extensions48SystemDisplayStartCustomTouchCalibrationFunctionD0Ev to i8*), i8* bitcast (void (%class.ExtensionFunction*)* @_ZN17ExtensionFunction11OnRespondedEv to i8*), i8* bitcast (i1 (%"class.extensions::SystemDisplayCrOSRestrictedFunction"*)* @_ZN10extensions35SystemDisplayCrOSRestrictedFunction29ShouldRestrictToKioskAndWebUIEv to i8*)] }, align 8
@_ZTVN10extensions51SystemDisplayCompleteCustomTouchCalibrationFunctionE = hidden unnamed_addr constant { [16 x i8*] } { [16 x i8*] [i8* null, i8* null, i8* bitcast (i1 (%"class.extensions::SystemDisplayCrOSRestrictedFunction"*, %"class.std::__1::basic_string"*)* @_ZN10extensions35SystemDisplayCrOSRestrictedFunction16PreRunValidationEPNSt3__112basic_stringIcNS1_11char_traitsIcEENS1_9allocatorIcEEEE to i8*), i8* bitcast (%"class.ExtensionFunction::ResponseActionObject"* (%"class.extensions::SystemDisplayCompleteCustomTouchCalibrationFunction"*)* @_ZN10extensions51SystemDisplayCompleteCustomTouchCalibrationFunction3RunEv to i8*), i8* bitcast (i1 (%class.ExtensionFunction*)* @_ZNK17ExtensionFunction23ShouldSkipQuotaLimitingEv to i8*), i8* bitcast (void (%class.ExtensionFunction*, %"class.std::__1::list"*)* @_ZNK17ExtensionFunction23GetQuotaLimitHeuristicsEPNSt3__14listINS0_10unique_ptrIN10extensions19QuotaLimitHeuristicENS0_14default_deleteIS4_EEEENS0_9allocatorIS7_EEEE to i8*), i8* bitcast (void (%class.ExtensionFunction*, %"class.std::__1::basic_string"*)* @_ZN17ExtensionFunction15OnQuotaExceededENSt3__112basic_stringIcNS0_11char_traitsIcEENS0_9allocatorIcEEEE to i8*), i8* bitcast (%"class.std::__1::basic_string"* (%class.ExtensionFunction*)* @_ZNK17ExtensionFunction8GetErrorEv to i8*), i8* bitcast (void (%class.ExtensionFunction*)* @_ZN17ExtensionFunction13SetBadMessageEv to i8*), i8* bitcast (void (%class.ExtensionFunction*, i8*)* @_ZN17ExtensionFunction7SetNameEPKc to i8*), i8* bitcast (i1 (%class.ExtensionFunction*, %"class.IPC::Message"*)* @_ZN17ExtensionFunction17OnMessageReceivedERKN3IPC7MessageE to i8*), i8* bitcast (void (%class.ExtensionFunction*)* @_ZN17ExtensionFunction18OnServiceWorkerAckEv to i8*), i8* bitcast (void (%class.ExtensionFunction*)* @_ZN17ExtensionFunctionD2Ev to i8*), i8* bitcast (void (%"class.extensions::SystemDisplayCompleteCustomTouchCalibrationFunction"*)* @_ZN10extensions51SystemDisplayCompleteCustomTouchCalibrationFunctionD0Ev to i8*), i8* bitcast (void (%class.ExtensionFunction*)* @_ZN17ExtensionFunction11OnRespondedEv to i8*), i8* bitcast (i1 (%"class.extensions::SystemDisplayCrOSRestrictedFunction"*)* @_ZN10extensions35SystemDisplayCrOSRestrictedFunction29ShouldRestrictToKioskAndWebUIEv to i8*)] }, align 8
@_ZTVN10extensions42SystemDisplayClearTouchCalibrationFunctionE = hidden unnamed_addr constant { [16 x i8*] } { [16 x i8*] [i8* null, i8* null, i8* bitcast (i1 (%"class.extensions::SystemDisplayCrOSRestrictedFunction"*, %"class.std::__1::basic_string"*)* @_ZN10extensions35SystemDisplayCrOSRestrictedFunction16PreRunValidationEPNSt3__112basic_stringIcNS1_11char_traitsIcEENS1_9allocatorIcEEEE to i8*), i8* bitcast (%"class.ExtensionFunction::ResponseActionObject"* (%"class.extensions::SystemDisplayClearTouchCalibrationFunction"*)* @_ZN10extensions42SystemDisplayClearTouchCalibrationFunction3RunEv to i8*), i8* bitcast (i1 (%class.ExtensionFunction*)* @_ZNK17ExtensionFunction23ShouldSkipQuotaLimitingEv to i8*), i8* bitcast (void (%class.ExtensionFunction*, %"class.std::__1::list"*)* @_ZNK17ExtensionFunction23GetQuotaLimitHeuristicsEPNSt3__14listINS0_10unique_ptrIN10extensions19QuotaLimitHeuristicENS0_14default_deleteIS4_EEEENS0_9allocatorIS7_EEEE to i8*), i8* bitcast (void (%class.ExtensionFunction*, %"class.std::__1::basic_string"*)* @_ZN17ExtensionFunction15OnQuotaExceededENSt3__112basic_stringIcNS0_11char_traitsIcEENS0_9allocatorIcEEEE to i8*), i8* bitcast (%"class.std::__1::basic_string"* (%class.ExtensionFunction*)* @_ZNK17ExtensionFunction8GetErrorEv to i8*), i8* bitcast (void (%class.ExtensionFunction*)* @_ZN17ExtensionFunction13SetBadMessageEv to i8*), i8* bitcast (void (%class.ExtensionFunction*, i8*)* @_ZN17ExtensionFunction7SetNameEPKc to i8*), i8* bitcast (i1 (%class.ExtensionFunction*, %"class.IPC::Message"*)* @_ZN17ExtensionFunction17OnMessageReceivedERKN3IPC7MessageE to i8*), i8* bitcast (void (%class.ExtensionFunction*)* @_ZN17ExtensionFunction18OnServiceWorkerAckEv to i8*), i8* bitcast (void (%class.ExtensionFunction*)* @_ZN17ExtensionFunctionD2Ev to i8*), i8* bitcast (void (%"class.extensions::SystemDisplayClearTouchCalibrationFunction"*)* @_ZN10extensions42SystemDisplayClearTouchCalibrationFunctionD0Ev to i8*), i8* bitcast (void (%class.ExtensionFunction*)* @_ZN17ExtensionFunction11OnRespondedEv to i8*), i8* bitcast (i1 (%"class.extensions::SystemDisplayCrOSRestrictedFunction"*)* @_ZN10extensions35SystemDisplayCrOSRestrictedFunction29ShouldRestrictToKioskAndWebUIEv to i8*)] }, align 8
@_ZTVN10extensions34SystemDisplaySetMirrorModeFunctionE = hidden unnamed_addr constant { [16 x i8*] } { [16 x i8*] [i8* null, i8* null, i8* bitcast (i1 (%"class.extensions::SystemDisplayCrOSRestrictedFunction"*, %"class.std::__1::basic_string"*)* @_ZN10extensions35SystemDisplayCrOSRestrictedFunction16PreRunValidationEPNSt3__112basic_stringIcNS1_11char_traitsIcEENS1_9allocatorIcEEEE to i8*), i8* bitcast (%"class.ExtensionFunction::ResponseActionObject"* (%"class.extensions::SystemDisplaySetMirrorModeFunction"*)* @_ZN10extensions34SystemDisplaySetMirrorModeFunction3RunEv to i8*), i8* bitcast (i1 (%class.ExtensionFunction*)* @_ZNK17ExtensionFunction23ShouldSkipQuotaLimitingEv to i8*), i8* bitcast (void (%class.ExtensionFunction*, %"class.std::__1::list"*)* @_ZNK17ExtensionFunction23GetQuotaLimitHeuristicsEPNSt3__14listINS0_10unique_ptrIN10extensions19QuotaLimitHeuristicENS0_14default_deleteIS4_EEEENS0_9allocatorIS7_EEEE to i8*), i8* bitcast (void (%class.ExtensionFunction*, %"class.std::__1::basic_string"*)* @_ZN17ExtensionFunction15OnQuotaExceededENSt3__112basic_stringIcNS0_11char_traitsIcEENS0_9allocatorIcEEEE to i8*), i8* bitcast (%"class.std::__1::basic_string"* (%class.ExtensionFunction*)* @_ZNK17ExtensionFunction8GetErrorEv to i8*), i8* bitcast (void (%class.ExtensionFunction*)* @_ZN17ExtensionFunction13SetBadMessageEv to i8*), i8* bitcast (void (%class.ExtensionFunction*, i8*)* @_ZN17ExtensionFunction7SetNameEPKc to i8*), i8* bitcast (i1 (%class.ExtensionFunction*, %"class.IPC::Message"*)* @_ZN17ExtensionFunction17OnMessageReceivedERKN3IPC7MessageE to i8*), i8* bitcast (void (%class.ExtensionFunction*)* @_ZN17ExtensionFunction18OnServiceWorkerAckEv to i8*), i8* bitcast (void (%class.ExtensionFunction*)* @_ZN17ExtensionFunctionD2Ev to i8*), i8* bitcast (void (%"class.extensions::SystemDisplaySetMirrorModeFunction"*)* @_ZN10extensions34SystemDisplaySetMirrorModeFunctionD0Ev to i8*), i8* bitcast (void (%class.ExtensionFunction*)* @_ZN17ExtensionFunction11OnRespondedEv to i8*), i8* bitcast (i1 (%"class.extensions::SystemDisplayCrOSRestrictedFunction"*)* @_ZN10extensions35SystemDisplayCrOSRestrictedFunction29ShouldRestrictToKioskAndWebUIEv to i8*)] }, align 8
@_ZN10extensions12_GLOBAL__N_118g_overscan_trackerE = internal unnamed_addr global %"class.extensions::(anonymous namespace)::OverscanTracker"* null, align 8
@_ZTVN10extensions12_GLOBAL__N_115OverscanTracker19OverscanWebObserverE = internal unnamed_addr constant { [109 x i8*] } { [109 x i8*] [i8* null, i8* null, i8* bitcast (i1 (%"class.content::WebContentsObserver"*, %"class.IPC::Message"*)* @_ZN7content19WebContentsObserver17OnMessageReceivedERKN3IPC7MessageE to i8*), i8* bitcast (void (%"class.IPC::Listener"*, i32)* @_ZN3IPC8Listener18OnChannelConnectedEi to i8*), i8* bitcast (void (%"class.IPC::Listener"*)* @_ZN3IPC8Listener14OnChannelErrorEv to i8*), i8* bitcast (void (%"class.IPC::Listener"*, %"class.IPC::Message"*)* @_ZN3IPC8Listener20OnBadMessageReceivedERKNS_7MessageE to i8*), i8* bitcast (void (%"class.IPC::Listener"*, %"class.std::__1::basic_string"*, %"class.mojo::ScopedInterfaceEndpointHandle"*)* @_ZN3IPC8Listener28OnAssociatedInterfaceRequestERKNSt3__112basic_stringIcNS1_11char_traitsIcEENS1_9allocatorIcEEEEN4mojo29ScopedInterfaceEndpointHandleE to i8*), i8* bitcast (void (%"class.IPC::Listener"*)* @_ZN3IPC8Listener15OnChannelDeniedEv to i8*), i8* bitcast (void (%"class.IPC::Listener"*)* @_ZN3IPC8Listener20OnChannelListenErrorEv to i8*), i8* bitcast (void (%"class.extensions::(anonymous namespace)::OverscanTracker::OverscanWebObserver"*)* @_ZN10extensions12_GLOBAL__N_115OverscanTracker19OverscanWebObserverD2Ev to i8*), i8* bitcast (void (%"class.extensions::(anonymous namespace)::OverscanTracker::OverscanWebObserver"*)* @_ZN10extensions12_GLOBAL__N_115OverscanTracker19OverscanWebObserverD0Ev to i8*), i8* bitcast (void (%"class.content::WebContentsObserver"*, %"class.content::RenderFrameHost"*)* @_ZN7content19WebContentsObserver18RenderFrameCreatedEPNS_15RenderFrameHostE to i8*), i8* bitcast (void (%"class.extensions::(anonymous namespace)::OverscanTracker::OverscanWebObserver"*, %"class.content::RenderFrameHost"*)* @_ZN10extensions12_GLOBAL__N_115OverscanTracker19OverscanWebObserver18RenderFrameDeletedEPN7content15RenderFrameHostE to i8*), i8* bitcast (void (%"class.content::WebContentsObserver"*, %"class.content::RenderFrameHost"*, %"class.content::RenderFrameHost"*)* @_ZN7content19WebContentsObserver22RenderFrameHostChangedEPNS_15RenderFrameHostES2_ to i8*), i8* bitcast (void (%"class.content::WebContentsObserver"*, i32)* @_ZN7content19WebContentsObserver12FrameDeletedEi to i8*), i8* bitcast (void (%"class.content::WebContentsObserver"*, %"class.content::RenderFrameHost"*, i32, i32)* @_ZN7content19WebContentsObserver27RenderFrameHostStateChangedEPNS_15RenderFrameHostENS1_14LifecycleStateES3_ to i8*), i8* bitcast (void (%"class.content::WebContentsObserver"*)* @_ZN7content19WebContentsObserver20CaptureTargetChangedEv to i8*), i8* bitcast (void (%"class.content::WebContentsObserver"*, %"class.blink::mojom::CaptureHandleConfig"*)* @_ZN7content19WebContentsObserver27OnCaptureHandleConfigUpdateERKN5blink5mojom19CaptureHandleConfigE to i8*), i8* bitcast (void (%"class.content::WebContentsObserver"*)* @_ZN7content19WebContentsObserver15RenderViewReadyEv to i8*), i8* bitcast (void (%"class.content::WebContentsObserver"*, %"class.content::RenderViewHost"*)* @_ZN7content19WebContentsObserver17RenderViewDeletedEPNS_14RenderViewHostE to i8*), i8* bitcast (void (%"class.content::WebContentsObserver"*, i32)* @_ZN7content19WebContentsObserver17RenderProcessGoneEN4base17TerminationStatusE to i8*), i8* bitcast (void (%"class.content::WebContentsObserver"*, %"class.content::RenderViewHost"*, %"class.content::RenderViewHost"*)* @_ZN7content19WebContentsObserver21RenderViewHostChangedEPNS_14RenderViewHostES2_ to i8*), i8* bitcast (void (%"class.content::WebContentsObserver"*, %"class.content::RenderProcessHost"*)* @_ZN7content19WebContentsObserver22OnRendererUnresponsiveEPNS_17RenderProcessHostE to i8*), i8* bitcast (void (%"class.content::WebContentsObserver"*, %"class.content::RenderProcessHost"*)* @_ZN7content19WebContentsObserver20OnRendererResponsiveEPNS_17RenderProcessHostE to i8*), i8* bitcast (void (%"class.content::WebContentsObserver"*, %"class.content::NavigationHandle"*)* @_ZN7content19WebContentsObserver18DidStartNavigationEPNS_16NavigationHandleE to i8*), i8* bitcast (void (%"class.content::WebContentsObserver"*, %"class.content::NavigationHandle"*)* @_ZN7content19WebContentsObserver21DidRedirectNavigationEPNS_16NavigationHandleE to i8*), i8* bitcast (void (%"class.content::WebContentsObserver"*, %"class.content::NavigationHandle"*)* @_ZN7content19WebContentsObserver23ReadyToCommitNavigationEPNS_16NavigationHandleE to i8*), i8* bitcast (void (%"class.content::WebContentsObserver"*, %"class.content::NavigationHandle"*)* @_ZN7content19WebContentsObserver19DidFinishNavigationEPNS_16NavigationHandleE to i8*), i8* bitcast (void (%"class.content::WebContentsObserver"*, %"class.content::WebContents"*, i64)* @_ZN7content19WebContentsObserver17DidActivatePortalEPNS_11WebContentsEN4base9TimeTicksE to i8*), i8* bitcast (void (%"class.content::WebContentsObserver"*)* @_ZN7content19WebContentsObserver15DidStartLoadingEv to i8*), i8* bitcast (void (%"class.content::WebContentsObserver"*)* @_ZN7content19WebContentsObserver18DidReceiveResponseEv to i8*), i8* bitcast (void (%"class.content::WebContentsObserver"*)* @_ZN7content19WebContentsObserver14DidStopLoadingEv to i8*), i8* bitcast (void (%"class.content::WebContentsObserver"*, double)* @_ZN7content19WebContentsObserver19LoadProgressChangedEd to i8*), i8* bitcast (void (%"class.content::WebContentsObserver"*, %"class.content::RenderFrameHost"*)* @_ZN7content19WebContentsObserver28DocumentAvailableInMainFrameEPNS_15RenderFrameHostE to i8*), i8* bitcast (void (%"class.content::WebContentsObserver"*, %"class.content::RenderFrameHost"*)* @_ZN7content19WebContentsObserver34DocumentOnLoadCompletedInMainFrameEPNS_15RenderFrameHostE to i8*), i8* bitcast (void (%"class.content::WebContentsObserver"*, %"class.content::RenderFrameHost"*)* @_ZN7content19WebContentsObserver16DOMContentLoadedEPNS_15RenderFrameHostE to i8*), i8* bitcast (void (%"class.content::WebContentsObserver"*, %"class.content::RenderFrameHost"*, %class.GURL*)* @_ZN7content19WebContentsObserver13DidFinishLoadEPNS_15RenderFrameHostERK4GURL to i8*), i8* bitcast (void (%"class.content::WebContentsObserver"*, %"class.content::RenderFrameHost"*, %class.GURL*, i32)* @_ZN7content19WebContentsObserver11DidFailLoadEPNS_15RenderFrameHostERK4GURLi to i8*), i8* bitcast (void (%"class.content::WebContentsObserver"*)* @_ZN7content19WebContentsObserver29DidChangeVisibleSecurityStateEv to i8*), i8* bitcast (void (%"class.content::WebContentsObserver"*, %"class.content::RenderFrameHost"*, %class.GURL*, %"class.std::__1::basic_string"*, i32)* @_ZN7content19WebContentsObserver30DidLoadResourceFromMemoryCacheEPNS_15RenderFrameHostERK4GURLRKNSt3__112basic_stringIcNS6_11char_traitsIcEENS6_9allocatorIcEEEEN7network5mojom18RequestDestinationE to i8*), i8* bitcast (void (%"class.content::WebContentsObserver"*, %"class.content::RenderFrameHost"*, %"struct.content::GlobalRequestID"*, %"class.blink::mojom::ResourceLoadInfo"*)* @_ZN7content19WebContentsObserver20ResourceLoadCompleteEPNS_15RenderFrameHostERKNS_15GlobalRequestIDERKN5blink5mojom16ResourceLoadInfoE to i8*), i8* bitcast (void (%"class.content::WebContentsObserver"*, %"class.content::RenderFrameHost"*, %"struct.content::CookieAccessDetails"*)* @_ZN7content19WebContentsObserver17OnCookiesAccessedEPNS_15RenderFrameHostERKNS_19CookieAccessDetailsE to i8*), i8* bitcast (void (%"class.content::WebContentsObserver"*, %"class.content::NavigationHandle"*, %"struct.content::CookieAccessDetails"*)* @_ZN7content19WebContentsObserver17OnCookiesAccessedEPNS_16NavigationHandleERKNS_19CookieAccessDetailsE to i8*), i8* bitcast (void (%"class.content::WebContentsObserver"*, %"struct.content::LoadCommittedDetails"*)* @_ZN7content19WebContentsObserver24NavigationEntryCommittedERKNS_20LoadCommittedDetailsE to i8*), i8* bitcast (void (%"class.content::WebContentsObserver"*, %"struct.content::PrunedDetails"*)* @_ZN7content19WebContentsObserver20NavigationListPrunedERKNS_13PrunedDetailsE to i8*), i8* bitcast (void (%"class.content::WebContentsObserver"*)* @_ZN7content19WebContentsObserver24NavigationEntriesDeletedEv to i8*), i8* bitcast (void (%"class.content::WebContentsObserver"*, %"struct.content::EntryChangedDetails"*)* @_ZN7content19WebContentsObserver22NavigationEntryChangedERKNS_19EntryChangedDetailsE to i8*), i8* bitcast (void (%"class.content::WebContentsObserver"*, %"class.content::WebContents"*, %"class.content::RenderFrameHost"*, %class.GURL*, %"struct.content::Referrer"*, i32, i32, i1, i1)* @_ZN7content19WebContentsObserver19DidOpenRequestedURLEPNS_11WebContentsEPNS_15RenderFrameHostERK4GURLRKNS_8ReferrerE21WindowOpenDispositionN2ui14PageTransitionEbb to i8*), i8* bitcast (void (%"class.content::WebContentsObserver"*)* @_ZN7content19WebContentsObserver29DidFirstVisuallyNonEmptyPaintEv to i8*), i8* bitcast (void (%"class.content::WebContentsObserver"*)* @_ZN7content19WebContentsObserver17NavigationStoppedEv to i8*), i8* bitcast (void (%"class.content::WebContentsObserver"*, %"class.blink::WebInputEvent"*)* @_ZN7content19WebContentsObserver21DidGetUserInteractionERKN5blink13WebInputEventE to i8*), i8* bitcast (void (%"class.content::WebContentsObserver"*)* @_ZN7content19WebContentsObserver20DidGetIgnoredUIEventEv to i8*), i8* bitcast (void (%"class.content::WebContentsObserver"*, i32)* @_ZN7content19WebContentsObserver19OnVisibilityChangedENS_10VisibilityE to i8*), i8* bitcast (void (%"class.content::WebContentsObserver"*, i1)* @_ZN7content19WebContentsObserver19MainFrameWasResizedEb to i8*), i8* bitcast (void (%"class.content::WebContentsObserver"*, %"class.content::RenderFrameHost"*, %"class.std::__1::basic_string"*)* @_ZN7content19WebContentsObserver16FrameNameChangedEPNS_15RenderFrameHostERKNSt3__112basic_stringIcNS3_11char_traitsIcEENS3_9allocatorIcEEEE to i8*), i8* bitcast (void (%"class.content::WebContentsObserver"*, %"class.content::RenderFrameHost"*)* @_ZN7content19WebContentsObserver27FrameReceivedUserActivationEPNS_15RenderFrameHostE to i8*), i8* bitcast (void (%"class.content::WebContentsObserver"*, %"class.content::RenderFrameHost"*, i1)* @_ZN7content19WebContentsObserver24FrameDisplayStateChangedEPNS_15RenderFrameHostEb to i8*), i8* bitcast (void (%"class.content::WebContentsObserver"*, %"class.content::RenderFrameHost"*, %"class.gfx::Size"*)* @_ZN7content19WebContentsObserver16FrameSizeChangedEPNS_15RenderFrameHostERKN3gfx4SizeE to i8*), i8* bitcast (void (%"class.content::WebContentsObserver"*, %"class.content::NavigationEntry"*)* @_ZN7content19WebContentsObserver11TitleWasSetEPNS_15NavigationEntryE to i8*), i8* bitcast (void (%"class.content::WebContentsObserver"*, %class.GURL*, i1)* @_ZN7content19WebContentsObserver16AppCacheAccessedERK4GURLb to i8*), i8* bitcast (void (%"class.content::WebContentsObserver"*)* @_ZN7content19WebContentsObserver21PepperInstanceCreatedEv to i8*), i8* bitcast (void (%"class.content::WebContentsObserver"*)* @_ZN7content19WebContentsObserver21PepperInstanceDeletedEv to i8*), i8* bitcast (void (%"class.content::WebContentsObserver"*, i32)* @_ZN7content19WebContentsObserver18ViewportFitChangedEN5blink5mojom11ViewportFitE to i8*), i8* bitcast (void (%"class.content::WebContentsObserver"*, %"class.base::FilePath"*, i32)* @_ZN7content19WebContentsObserver13PluginCrashedERKN4base8FilePathEi to i8*), i8* bitcast (void (%"class.content::WebContentsObserver"*, i32, %"class.base::FilePath"*, i1)* @_ZN7content19WebContentsObserver23PluginHungStatusChangedEiRKN4base8FilePathEb to i8*), i8* bitcast (void (%"class.content::WebContentsObserver"*, %"class.content::WebContents"*)* @_ZN7content19WebContentsObserver23InnerWebContentsCreatedEPNS_11WebContentsE to i8*), i8* bitcast (void (%"class.content::WebContentsObserver"*, %"class.content::WebContents"*, %"class.content::RenderFrameHost"*, i1)* @_ZN7content19WebContentsObserver24InnerWebContentsAttachedEPNS_11WebContentsEPNS_15RenderFrameHostEb to i8*), i8* bitcast (void (%"class.content::WebContentsObserver"*, %"class.content::WebContents"*)* @_ZN7content19WebContentsObserver24InnerWebContentsDetachedEPNS_11WebContentsE to i8*), i8* bitcast (void (%"class.content::WebContentsObserver"*, %"class.content::WebContents"*, %"class.content::WebContents"*)* @_ZN7content19WebContentsObserver24DidCloneToNewWebContentsEPNS_11WebContentsES2_ to i8*), i8* bitcast (void (%"class.content::WebContentsObserver"*)* @_ZN7content19WebContentsObserver20WebContentsDestroyedEv to i8*), i8* bitcast (void (%"class.content::WebContentsObserver"*, %"struct.blink::UserAgentOverride"*)* @_ZN7content19WebContentsObserver20UserAgentOverrideSetERKN5blink17UserAgentOverrideE to i8*), i8* bitcast (void (%"class.content::WebContentsObserver"*, %"class.content::RenderFrameHost"*, %"class.std::__1::vector.405"*)* @_ZN7content19WebContentsObserver19DidUpdateFaviconURLEPNS_15RenderFrameHostERKNSt3__16vectorIN4mojo9StructPtrIN5blink5mojom10FaviconURLEEENS3_9allocatorISA_EEEE to i8*), i8* bitcast (void (%"class.content::WebContentsObserver"*, i1)* @_ZN7content19WebContentsObserver19OnAudioStateChangedEb to i8*), i8* bitcast (void (%"class.content::WebContentsObserver"*, %"class.content::RenderFrameHost"*, i1)* @_ZN7content19WebContentsObserver24OnFrameAudioStateChangedEPNS_15RenderFrameHostEb to i8*), i8* bitcast (void (%"class.content::WebContentsObserver"*, i1)* @_ZN7content19WebContentsObserver37OnIsConnectedToBluetoothDeviceChangedEb to i8*), i8* bitcast (void (%"class.content::WebContentsObserver"*, i1)* @_ZN7content19WebContentsObserver25DidUpdateAudioMutingStateEb to i8*), i8* bitcast (void (%"class.content::WebContentsObserver"*, i1, i1)* @_ZN7content19WebContentsObserver29DidToggleFullscreenModeForTabEbb to i8*), i8* bitcast (void (%"class.content::WebContentsObserver"*, %"class.content::RenderFrameHost"*)* @_ZN7content19WebContentsObserver20DidAcquireFullscreenEPNS_15RenderFrameHostE to i8*), i8* bitcast (void (%"class.content::WebContentsObserver"*, i32)* @_ZN7content19WebContentsObserver32DidChangeVerticalScrollDirectionEN3viz23VerticalScrollDirectionE to i8*), i8* bitcast (void (%"class.content::WebContentsObserver"*)* @_ZN7content19WebContentsObserver27BeforeFormRepostWarningShowEv to i8*), i8* bitcast (void (%"class.content::WebContentsObserver"*, i1, %"class.base::TimeTicks"*)* @_ZN7content19WebContentsObserver17BeforeUnloadFiredEbRKN4base9TimeTicksE to i8*), i8* bitcast (void (%"class.content::WebContentsObserver"*)* @_ZN7content19WebContentsObserver27BeforeUnloadDialogCancelledEv to i8*), i8* bitcast (void (%"class.content::WebContentsObserver"*)* @_ZN7content19WebContentsObserver30AXTreeIDForMainFrameHasChangedEv to i8*), i8* bitcast (void (%"class.content::WebContentsObserver"*, %"struct.content::AXEventNotificationDetails"*)* @_ZN7content19WebContentsObserver26AccessibilityEventReceivedERKNS_26AXEventNotificationDetailsE to i8*), i8* bitcast (void (%"class.content::WebContentsObserver"*, %"class.std::__1::vector.406"*)* @_ZN7content19WebContentsObserver36AccessibilityLocationChangesReceivedERKNSt3__16vectorINS_35AXLocationChangeNotificationDetailsENS1_9allocatorIS3_EEEE to i8*), i8* bitcast (void (%"class.content::WebContentsObserver"*)* @_ZN7content19WebContentsObserver19DidChangeThemeColorEv to i8*), i8* bitcast (void (%"class.content::WebContentsObserver"*)* @_ZN7content19WebContentsObserver24OnBackgroundColorChangedEv to i8*), i8* bitcast (void (%"class.content::WebContentsObserver"*, %"class.content::RenderFrameHost"*, i32, %"class.std::__1::basic_string.407"*, i32, %"class.std::__1::basic_string.407"*, %"class.absl::optional.416"*)* @_ZN7content19WebContentsObserver24OnDidAddMessageToConsoleEPNS_15RenderFrameHostEN5blink5mojom19ConsoleMessageLevelERKNSt3__112basic_stringIDsNS6_11char_traitsIDsEENS6_9allocatorIDsEEEEiSE_RKN4absl8optionalISC_EE to i8*), i8* bitcast (void (%"class.content::WebContentsObserver"*, %"struct.content::WebContentsObserver::MediaPlayerInfo"*, %"struct.content::MediaPlayerId"*)* @_ZN7content19WebContentsObserver19MediaStartedPlayingERKNS0_15MediaPlayerInfoERKNS_13MediaPlayerIdE to i8*), i8* bitcast (void (%"class.content::WebContentsObserver"*, %"struct.content::WebContentsObserver::MediaPlayerInfo"*, %"struct.content::MediaPlayerId"*, i32)* @_ZN7content19WebContentsObserver19MediaStoppedPlayingERKNS0_15MediaPlayerInfoERKNS_13MediaPlayerIdENS0_18MediaStoppedReasonE to i8*), i8* bitcast (void (%"class.content::WebContentsObserver"*, %"class.gfx::Size"*, %"struct.content::MediaPlayerId"*)* @_ZN7content19WebContentsObserver12MediaResizedERKN3gfx4SizeERKNS_13MediaPlayerIdE to i8*), i8* bitcast (void (%"class.content::WebContentsObserver"*, i1)* @_ZN7content19WebContentsObserver33MediaEffectivelyFullscreenChangedEb to i8*), i8* bitcast (void (%"class.content::WebContentsObserver"*, i1)* @_ZN7content19WebContentsObserver28MediaPictureInPictureChangedEb to i8*), i8* bitcast (void (%"class.content::WebContentsObserver"*, %"struct.content::MediaPlayerId"*, i1)* @_ZN7content19WebContentsObserver23MediaMutedStatusChangedERKNS_13MediaPlayerIdEb to i8*), i8* bitcast (void (%"class.content::WebContentsObserver"*, %"struct.content::MediaPlayerId"*)* @_ZN7content19WebContentsObserver20MediaBufferUnderflowERKNS_13MediaPlayerIdE to i8*), i8* bitcast (void (%"class.content::WebContentsObserver"*, %"struct.content::MediaPlayerId"*)* @_ZN7content19WebContentsObserver15MediaPlayerSeekERKNS_13MediaPlayerIdE to i8*), i8* bitcast (void (%"class.content::WebContentsObserver"*, %"struct.content::MediaPlayerId"*)* @_ZN7content19WebContentsObserver14MediaDestroyedERKNS_13MediaPlayerIdE to i8*), i8* bitcast (void (%"class.content::WebContentsObserver"*, float)* @_ZN7content19WebContentsObserver24OnPageScaleFactorChangedEf to i8*), i8* bitcast (void (%"class.content::WebContentsObserver"*)* @_ZN7content19WebContentsObserver7OnPasteEv to i8*), i8* bitcast (i1 (%"class.content::WebContentsObserver"*, %"class.IPC::Message"*, %"class.content::RenderFrameHost"*)* @_ZN7content19WebContentsObserver17OnMessageReceivedERKN3IPC7MessageEPNS_15RenderFrameHostE to i8*), i8* bitcast (void (%"class.content::WebContentsObserver"*, %"class.content::RenderWidgetHost"*)* @_ZN7content19WebContentsObserver20OnWebContentsFocusedEPNS_16RenderWidgetHostE to i8*), i8* bitcast (void (%"class.content::WebContentsObserver"*, %"class.content::RenderWidgetHost"*)* @_ZN7content19WebContentsObserver22OnWebContentsLostFocusEPNS_16RenderWidgetHostE to i8*), i8* bitcast (void (%"class.content::WebContentsObserver"*, %"struct.content::FocusedNodeDetails"*)* @_ZN7content19WebContentsObserver20OnFocusChangedInPageEPNS_18FocusedNodeDetailsE to i8*), i8* bitcast (void (%"class.content::WebContentsObserver"*, %"class.content::RenderFrameHost"*, %"class.absl::optional.417"*)* @_ZN7content19WebContentsObserver23DidUpdateWebManifestURLEPNS_15RenderFrameHostERKN4absl8optionalI4GURLEE to i8*), i8* bitcast (void (%"class.content::WebContentsObserver"*, %"class.content::RenderFrameHost"*, %"class.std::__1::basic_string"*, %"class.mojo::ScopedHandleBase"*)* @_ZN7content19WebContentsObserver27OnInterfaceRequestFromFrameEPNS_15RenderFrameHostERKNSt3__112basic_stringIcNS3_11char_traitsIcEENS3_9allocatorIcEEEEPN4mojo16ScopedHandleBaseINSC_17MessagePipeHandleEEE to i8*), i8* bitcast (void (%"class.content::WebContentsObserver"*, %"struct.std::__1::pair.422"*)* @_ZN7content19WebContentsObserver27AudioContextPlaybackStartedERKNSt3__14pairIPNS_15RenderFrameHostEiEE to i8*), i8* bitcast (void (%"class.content::WebContentsObserver"*, %"struct.std::__1::pair.422"*)* @_ZN7content19WebContentsObserver27AudioContextPlaybackStoppedERKNSt3__14pairIPNS_15RenderFrameHostEiEE to i8*), i8* bitcast (void (%"class.content::WebContentsObserver"*, %"class.content::RenderFrameHost"*, %class.GURL*, i24)* @_ZN7content19WebContentsObserver23OnServiceWorkerAccessedEPNS_15RenderFrameHostERK4GURLNS_24AllowServiceWorkerResultE to i8*), i8* bitcast (void (%"class.content::WebContentsObserver"*, %"class.content::NavigationHandle"*, %class.GURL*, i24)* @_ZN7content19WebContentsObserver23OnServiceWorkerAccessedEPNS_16NavigationHandleERK4GURLNS_24AllowServiceWorkerResultE to i8*)] }, align 8
@.str.7 = private unnamed_addr constant [9 x i8] c"Destruct\00", align 1
@.str.8 = private unnamed_addr constant [46 x i8] c"../../content/public/browser/browser_thread.h\00", align 1

; Function Attrs: nounwind ssp uwtable
define hidden zeroext i1 @_ZN10extensions35SystemDisplayCrOSRestrictedFunction16PreRunValidationEPNSt3__112basic_stringIcNS1_11char_traitsIcEENS1_9allocatorIcEEEE(%"class.extensions::SystemDisplayCrOSRestrictedFunction"*, %"class.std::__1::basic_string"*) unnamed_addr #0 align 2 {
  %3 = bitcast %"class.extensions::SystemDisplayCrOSRestrictedFunction"* %0 to %class.ExtensionFunction*
  %4 = tail call zeroext i1 @_ZN17ExtensionFunction16PreRunValidationEPNSt3__112basic_stringIcNS0_11char_traitsIcEENS0_9allocatorIcEEEE(%class.ExtensionFunction* %3, %"class.std::__1::basic_string"* %1) #9
  br i1 %4, label %5, label %7

5:                                                ; preds = %2
  %6 = tail call dereferenceable(24) %"class.std::__1::basic_string"* @_ZNSt3__112basic_stringIcNS_11char_traitsIcEENS_9allocatorIcEEE17__assign_externalEPKcm(%"class.std::__1::basic_string"* %1, i8* getelementptr inbounds ([37 x i8], [37 x i8]* @_ZN10extensions35SystemDisplayCrOSRestrictedFunction14kCrosOnlyErrorE, i64 0, i64 0), i64 36) #9
  br label %7

7:                                                ; preds = %5, %2
  ret i1 false
}

declare zeroext i1 @_ZN17ExtensionFunction16PreRunValidationEPNSt3__112basic_stringIcNS0_11char_traitsIcEENS0_9allocatorIcEEEE(%class.ExtensionFunction*, %"class.std::__1::basic_string"*) unnamed_addr #1

; Function Attrs: nounwind ssp uwtable
define hidden zeroext i1 @_ZN10extensions35SystemDisplayCrOSRestrictedFunction29ShouldRestrictToKioskAndWebUIEv(%"class.extensions::SystemDisplayCrOSRestrictedFunction"* nocapture readonly) unnamed_addr #0 align 2 {
  %2 = getelementptr inbounds %"class.extensions::SystemDisplayCrOSRestrictedFunction", %"class.extensions::SystemDisplayCrOSRestrictedFunction"* %0, i64 0, i32 0, i32 3, i32 0
  %3 = load %"class.extensions::Extension"*, %"class.extensions::Extension"** %2, align 8
  %4 = icmp eq %"class.extensions::Extension"* %3, null
  br i1 %4, label %10, label %5

5:                                                ; preds = %1
  %6 = getelementptr inbounds %"class.extensions::Extension", %"class.extensions::Extension"* %3, i64 0, i32 8, i32 0, i32 0, i32 0
  %7 = load %"class.extensions::PermissionsData"*, %"class.extensions::PermissionsData"** %6, align 8
  %8 = tail call zeroext i1 @_ZNK10extensions15PermissionsData16HasAPIPermissionENS_5mojom15APIPermissionIDE(%"class.extensions::PermissionsData"* %7, i32 16) #9
  %9 = xor i1 %8, true
  br label %10

10:                                               ; preds = %1, %5
  %11 = phi i1 [ true, %1 ], [ %9, %5 ]
  ret i1 %11
}

; Function Attrs: nounwind ssp uwtable
define hidden %"class.ExtensionFunction::ResponseActionObject"* @_ZN10extensions28SystemDisplayGetInfoFunction3RunEv(%"class.extensions::SystemDisplayGetInfoFunction"*) unnamed_addr #0 align 2 {
  %2 = alloca %"class.base::OnceCallback.193", align 8
  %3 = bitcast %"class.extensions::SystemDisplayGetInfoFunction"* %0 to %class.ExtensionFunction*
  %4 = getelementptr inbounds %"class.extensions::SystemDisplayGetInfoFunction", %"class.extensions::SystemDisplayGetInfoFunction"* %0, i64 0, i32 0, i32 4, i32 0, i32 0, i32 0
  %5 = load %"class.base::ListValue"*, %"class.base::ListValue"** %4, align 8
  %6 = tail call %"struct.extensions::api::system_display::GetInfo::Params"* @_ZN10extensions3api14system_display7GetInfo6Params6CreateERKN4base9ListValueE(%"class.base::ListValue"* dereferenceable(32) %5) #9
  %7 = getelementptr inbounds %"struct.extensions::api::system_display::GetInfo::Params", %"struct.extensions::api::system_display::GetInfo::Params"* %6, i64 0, i32 0, i32 0, i32 0, i32 0
  %8 = load %"struct.extensions::api::system_display::GetInfoFlags"*, %"struct.extensions::api::system_display::GetInfoFlags"** %7, align 8
  %9 = icmp eq %"struct.extensions::api::system_display::GetInfoFlags"* %8, null
  br i1 %9, label %17, label %10

10:                                               ; preds = %1
  %11 = getelementptr inbounds %"struct.extensions::api::system_display::GetInfoFlags", %"struct.extensions::api::system_display::GetInfoFlags"* %8, i64 0, i32 0, i32 0, i32 0, i32 0
  %12 = load i8*, i8** %11, align 8
  %13 = icmp eq i8* %12, null
  br i1 %13, label %17, label %14

14:                                               ; preds = %10
  %15 = load i8, i8* %12, align 1, !range !2
  %16 = icmp ne i8 %15, 0
  br label %17

17:                                               ; preds = %10, %1, %14
  %18 = phi i1 [ false, %10 ], [ false, %1 ], [ %16, %14 ]
  %19 = tail call %"class.extensions::DisplayInfoProvider"* @_ZN10extensions19DisplayInfoProvider3GetEv() #9
  %20 = tail call i8* @_Znwm(i64 56) #10, !noalias !3
  %21 = bitcast i8* %20 to %"class.base::internal::BindStateBase"*
  tail call void @_ZN4base8internal13BindStateBaseC2EPFvvEPFvPKS1_E(%"class.base::internal::BindStateBase"* nonnull %21, void ()* bitcast (void (%"class.base::internal::BindStateBase"*, %"class.std::__1::vector.194"*)* @_ZN4base8internal7InvokerINS0_9BindStateIMN10extensions28SystemDisplayGetInfoFunctionEFvNSt3__16vectorINS3_3api14system_display15DisplayUnitInfoENS5_9allocatorIS9_EEEEEJ13scoped_refptrIS4_EEEEFvSC_EE7RunOnceEPNS0_13BindStateBaseEOSC_ to void ()*), void (%"class.base::internal::BindStateBase"*)* nonnull @_ZN4base8internal9BindStateIMN10extensions28SystemDisplayGetInfoFunctionEFvNSt3__16vectorINS2_3api14system_display15DisplayUnitInfoENS4_9allocatorIS8_EEEEEJ13scoped_refptrIS3_EEE7DestroyEPKNS0_13BindStateBaseE) #9, !noalias !3
  %22 = getelementptr inbounds i8, i8* %20, i64 32
  %23 = bitcast i8* %22 to <2 x i64>*
  store <2 x i64> <i64 ptrtoint (void (%"class.extensions::SystemDisplayGetInfoFunction"*, %"class.std::__1::vector.194"*)* @_ZN10extensions28SystemDisplayGetInfoFunction8ResponseENSt3__16vectorINS_3api14system_display15DisplayUnitInfoENS1_9allocatorIS5_EEEE to i64), i64 0>, <2 x i64>* %23, align 8, !noalias !3
  %24 = getelementptr inbounds i8, i8* %20, i64 48
  %25 = bitcast i8* %24 to %"class.extensions::SystemDisplayGetInfoFunction"**
  store %"class.extensions::SystemDisplayGetInfoFunction"* %0, %"class.extensions::SystemDisplayGetInfoFunction"** %25, align 8, !noalias !3
  %26 = icmp eq %"class.extensions::SystemDisplayGetInfoFunction"* %0, null
  br i1 %26, label %30, label %27

27:                                               ; preds = %17
  %28 = getelementptr inbounds %"class.extensions::SystemDisplayGetInfoFunction", %"class.extensions::SystemDisplayGetInfoFunction"* %0, i64 0, i32 0, i32 1, i32 0, i32 0, i32 0, i32 0, i32 0, i32 0, i32 0, i32 0
  %29 = atomicrmw add i32* %28, i32 1 monotonic, !noalias !3
  br label %30

30:                                               ; preds = %17, %27
  %31 = bitcast %"class.base::OnceCallback.193"* %2 to i8**
  store i8* %20, i8** %31, align 8, !alias.scope !3
  %32 = bitcast %"class.extensions::DisplayInfoProvider"* %19 to void (%"class.extensions::DisplayInfoProvider"*, i1, %"class.base::OnceCallback.193"*)***
  %33 = load void (%"class.extensions::DisplayInfoProvider"*, i1, %"class.base::OnceCallback.193"*)**, void (%"class.extensions::DisplayInfoProvider"*, i1, %"class.base::OnceCallback.193"*)*** %32, align 8
  %34 = getelementptr inbounds void (%"class.extensions::DisplayInfoProvider"*, i1, %"class.base::OnceCallback.193"*)*, void (%"class.extensions::DisplayInfoProvider"*, i1, %"class.base::OnceCallback.193"*)** %33, i64 12
  %35 = load void (%"class.extensions::DisplayInfoProvider"*, i1, %"class.base::OnceCallback.193"*)*, void (%"class.extensions::DisplayInfoProvider"*, i1, %"class.base::OnceCallback.193"*)** %34, align 8
  call void %35(%"class.extensions::DisplayInfoProvider"* %19, i1 zeroext %18, %"class.base::OnceCallback.193"* nonnull %2) #9
  %36 = getelementptr inbounds %"class.base::OnceCallback.193", %"class.base::OnceCallback.193"* %2, i64 0, i32 0
  call void @_ZN4base8internal12CallbackBaseD2Ev(%"class.base::internal::CallbackBase"* nonnull %36) #9
  %37 = call %"class.ExtensionFunction::ResponseActionObject"* @_ZN17ExtensionFunction12RespondLaterEv(%class.ExtensionFunction* %3) #9
  %38 = icmp eq %"struct.extensions::api::system_display::GetInfo::Params"* %6, null
  br i1 %38, label %41, label %39

39:                                               ; preds = %30
  call void @_ZN10extensions3api14system_display7GetInfo6ParamsD1Ev(%"struct.extensions::api::system_display::GetInfo::Params"* nonnull %6) #9
  %40 = bitcast %"struct.extensions::api::system_display::GetInfo::Params"* %6 to i8*
  call void @_ZdlPv(i8* %40) #10
  br label %41

41:                                               ; preds = %30, %39
  ret %"class.ExtensionFunction::ResponseActionObject"* %37
}

; Function Attrs: argmemonly nounwind
declare void @llvm.lifetime.start.p0i8(i64 immarg, i8* nocapture) #2

declare %"struct.extensions::api::system_display::GetInfo::Params"* @_ZN10extensions3api14system_display7GetInfo6Params6CreateERKN4base9ListValueE(%"class.base::ListValue"* dereferenceable(32)) local_unnamed_addr #1

declare %"class.extensions::DisplayInfoProvider"* @_ZN10extensions19DisplayInfoProvider3GetEv() local_unnamed_addr #1

; Function Attrs: nounwind ssp uwtable
define hidden void @_ZN10extensions28SystemDisplayGetInfoFunction8ResponseENSt3__16vectorINS_3api14system_display15DisplayUnitInfoENS1_9allocatorIS5_EEEE(%"class.extensions::SystemDisplayGetInfoFunction"*, %"class.std::__1::vector.194"*) #0 align 2 {
  %3 = alloca %"class.std::__1::vector.110", align 8
  %4 = bitcast %"class.extensions::SystemDisplayGetInfoFunction"* %0 to %class.ExtensionFunction*
  call void @_ZN10extensions3api14system_display7GetInfo7Results6CreateERKNSt3__16vectorINS1_15DisplayUnitInfoENS4_9allocatorIS6_EEEE(%"class.std::__1::vector.110"* nonnull sret %3, %"class.std::__1::vector.194"* dereferenceable(24) %1) #9
  %5 = call %"class.ExtensionFunction::ResponseValueObject"* @_ZN17ExtensionFunction12ArgumentListENSt3__16vectorIN4base5ValueENS0_9allocatorIS3_EEEE(%class.ExtensionFunction* %4, %"class.std::__1::vector.110"* nonnull %3) #9
  call void @_ZN17ExtensionFunction7RespondENSt3__110unique_ptrINS_19ResponseValueObjectENS0_14default_deleteIS2_EEEE(%class.ExtensionFunction* %4, %"class.ExtensionFunction::ResponseValueObject"* %5) #9
  %6 = getelementptr inbounds %"class.std::__1::vector.110", %"class.std::__1::vector.110"* %3, i64 0, i32 0, i32 0
  %7 = load %"class.base::Value"*, %"class.base::Value"** %6, align 8
  %8 = icmp eq %"class.base::Value"* %7, null
  br i1 %8, label %23, label %9

9:                                                ; preds = %2
  %10 = bitcast %"class.base::Value"* %7 to i8*
  %11 = getelementptr inbounds %"class.std::__1::vector.110", %"class.std::__1::vector.110"* %3, i64 0, i32 0, i32 1
  %12 = load %"class.base::Value"*, %"class.base::Value"** %11, align 8
  %13 = icmp eq %"class.base::Value"* %12, %7
  br i1 %13, label %21, label %14

14:                                               ; preds = %9, %14
  %15 = phi %"class.base::Value"* [ %16, %14 ], [ %12, %9 ]
  %16 = getelementptr inbounds %"class.base::Value", %"class.base::Value"* %15, i64 -1
  call void @_ZN4base5ValueD1Ev(%"class.base::Value"* %16) #9
  %17 = icmp eq %"class.base::Value"* %16, %7
  br i1 %17, label %18, label %14

18:                                               ; preds = %14
  %19 = bitcast %"class.std::__1::vector.110"* %3 to i8**
  %20 = load i8*, i8** %19, align 8
  br label %21

21:                                               ; preds = %18, %9
  %22 = phi i8* [ %20, %18 ], [ %10, %9 ]
  store %"class.base::Value"* %7, %"class.base::Value"** %11, align 8
  call void @_ZdlPv(i8* %22) #10
  br label %23

23:                                               ; preds = %2, %21
  ret void
}

; Function Attrs: nounwind
declare void @_ZN4base8internal12CallbackBaseD2Ev(%"class.base::internal::CallbackBase"*) unnamed_addr #3

; Function Attrs: argmemonly nounwind
declare void @llvm.lifetime.end.p0i8(i64 immarg, i8* nocapture) #2

declare %"class.ExtensionFunction::ResponseActionObject"* @_ZN17ExtensionFunction12RespondLaterEv(%class.ExtensionFunction*) local_unnamed_addr #1

declare void @_ZN17ExtensionFunction7RespondENSt3__110unique_ptrINS_19ResponseValueObjectENS0_14default_deleteIS2_EEEE(%class.ExtensionFunction*, %"class.ExtensionFunction::ResponseValueObject"*) local_unnamed_addr #1

declare %"class.ExtensionFunction::ResponseValueObject"* @_ZN17ExtensionFunction12ArgumentListENSt3__16vectorIN4base5ValueENS0_9allocatorIS3_EEEE(%class.ExtensionFunction*, %"class.std::__1::vector.110"*) local_unnamed_addr #1

declare void @_ZN10extensions3api14system_display7GetInfo7Results6CreateERKNSt3__16vectorINS1_15DisplayUnitInfoENS4_9allocatorIS6_EEEE(%"class.std::__1::vector.110"* sret, %"class.std::__1::vector.194"* dereferenceable(24)) local_unnamed_addr #1

; Function Attrs: nounwind ssp uwtable
define hidden %"class.ExtensionFunction::ResponseActionObject"* @_ZN10extensions37SystemDisplayGetDisplayLayoutFunction3RunEv(%"class.extensions::SystemDisplayGetDisplayLayoutFunction"*) unnamed_addr #0 align 2 {
  %2 = alloca %"class.base::OnceCallback.232", align 8
  %3 = tail call %"class.extensions::DisplayInfoProvider"* @_ZN10extensions19DisplayInfoProvider3GetEv() #9
  %4 = tail call i8* @_Znwm(i64 56) #10, !noalias !8
  %5 = bitcast i8* %4 to %"class.base::internal::BindStateBase"*
  tail call void @_ZN4base8internal13BindStateBaseC2EPFvvEPFvPKS1_E(%"class.base::internal::BindStateBase"* nonnull %5, void ()* bitcast (void (%"class.base::internal::BindStateBase"*, %"class.std::__1::vector.233"*)* @_ZN4base8internal7InvokerINS0_9BindStateIMN10extensions37SystemDisplayGetDisplayLayoutFunctionEFvNSt3__16vectorINS3_3api14system_display13DisplayLayoutENS5_9allocatorIS9_EEEEEJ13scoped_refptrIS4_EEEEFvSC_EE7RunOnceEPNS0_13BindStateBaseEOSC_ to void ()*), void (%"class.base::internal::BindStateBase"*)* nonnull @_ZN4base8internal9BindStateIMN10extensions37SystemDisplayGetDisplayLayoutFunctionEFvNSt3__16vectorINS2_3api14system_display13DisplayLayoutENS4_9allocatorIS8_EEEEEJ13scoped_refptrIS3_EEE7DestroyEPKNS0_13BindStateBaseE) #9, !noalias !8
  %6 = getelementptr inbounds i8, i8* %4, i64 32
  %7 = bitcast i8* %6 to <2 x i64>*
  store <2 x i64> <i64 ptrtoint (void (%"class.extensions::SystemDisplayGetDisplayLayoutFunction"*, %"class.std::__1::vector.233"*)* @_ZN10extensions37SystemDisplayGetDisplayLayoutFunction8ResponseENSt3__16vectorINS_3api14system_display13DisplayLayoutENS1_9allocatorIS5_EEEE to i64), i64 0>, <2 x i64>* %7, align 8, !noalias !8
  %8 = getelementptr inbounds i8, i8* %4, i64 48
  %9 = bitcast i8* %8 to %"class.extensions::SystemDisplayGetDisplayLayoutFunction"**
  store %"class.extensions::SystemDisplayGetDisplayLayoutFunction"* %0, %"class.extensions::SystemDisplayGetDisplayLayoutFunction"** %9, align 8, !noalias !8
  %10 = icmp eq %"class.extensions::SystemDisplayGetDisplayLayoutFunction"* %0, null
  br i1 %10, label %14, label %11

11:                                               ; preds = %1
  %12 = getelementptr inbounds %"class.extensions::SystemDisplayGetDisplayLayoutFunction", %"class.extensions::SystemDisplayGetDisplayLayoutFunction"* %0, i64 0, i32 0, i32 0, i32 1, i32 0, i32 0, i32 0, i32 0, i32 0, i32 0, i32 0, i32 0
  %13 = atomicrmw add i32* %12, i32 1 monotonic, !noalias !8
  br label %14

14:                                               ; preds = %1, %11
  %15 = bitcast %"class.base::OnceCallback.232"* %2 to i8**
  store i8* %4, i8** %15, align 8, !alias.scope !8
  %16 = bitcast %"class.extensions::DisplayInfoProvider"* %3 to void (%"class.extensions::DisplayInfoProvider"*, %"class.base::OnceCallback.232"*)***
  %17 = load void (%"class.extensions::DisplayInfoProvider"*, %"class.base::OnceCallback.232"*)**, void (%"class.extensions::DisplayInfoProvider"*, %"class.base::OnceCallback.232"*)*** %16, align 8
  %18 = getelementptr inbounds void (%"class.extensions::DisplayInfoProvider"*, %"class.base::OnceCallback.232"*)*, void (%"class.extensions::DisplayInfoProvider"*, %"class.base::OnceCallback.232"*)** %17, i64 13
  %19 = load void (%"class.extensions::DisplayInfoProvider"*, %"class.base::OnceCallback.232"*)*, void (%"class.extensions::DisplayInfoProvider"*, %"class.base::OnceCallback.232"*)** %18, align 8
  call void %19(%"class.extensions::DisplayInfoProvider"* %3, %"class.base::OnceCallback.232"* nonnull %2) #9
  %20 = getelementptr inbounds %"class.base::OnceCallback.232", %"class.base::OnceCallback.232"* %2, i64 0, i32 0
  call void @_ZN4base8internal12CallbackBaseD2Ev(%"class.base::internal::CallbackBase"* nonnull %20) #9
  %21 = bitcast %"class.extensions::SystemDisplayGetDisplayLayoutFunction"* %0 to %class.ExtensionFunction*
  %22 = call %"class.ExtensionFunction::ResponseActionObject"* @_ZN17ExtensionFunction12RespondLaterEv(%class.ExtensionFunction* %21) #9
  ret %"class.ExtensionFunction::ResponseActionObject"* %22
}

; Function Attrs: nounwind ssp uwtable
define hidden void @_ZN10extensions37SystemDisplayGetDisplayLayoutFunction8ResponseENSt3__16vectorINS_3api14system_display13DisplayLayoutENS1_9allocatorIS5_EEEE(%"class.extensions::SystemDisplayGetDisplayLayoutFunction"*, %"class.std::__1::vector.233"*) #0 align 2 {
  %3 = alloca %"class.std::__1::vector.110", align 8
  %4 = bitcast %"class.extensions::SystemDisplayGetDisplayLayoutFunction"* %0 to %class.ExtensionFunction*
  call void @_ZN10extensions3api14system_display16GetDisplayLayout7Results6CreateERKNSt3__16vectorINS1_13DisplayLayoutENS4_9allocatorIS6_EEEE(%"class.std::__1::vector.110"* nonnull sret %3, %"class.std::__1::vector.233"* dereferenceable(24) %1) #9
  %5 = call %"class.ExtensionFunction::ResponseValueObject"* @_ZN17ExtensionFunction12ArgumentListENSt3__16vectorIN4base5ValueENS0_9allocatorIS3_EEEE(%class.ExtensionFunction* %4, %"class.std::__1::vector.110"* nonnull %3) #9
  call void @_ZN17ExtensionFunction7RespondENSt3__110unique_ptrINS_19ResponseValueObjectENS0_14default_deleteIS2_EEEE(%class.ExtensionFunction* %4, %"class.ExtensionFunction::ResponseValueObject"* %5) #9
  %6 = getelementptr inbounds %"class.std::__1::vector.110", %"class.std::__1::vector.110"* %3, i64 0, i32 0, i32 0
  %7 = load %"class.base::Value"*, %"class.base::Value"** %6, align 8
  %8 = icmp eq %"class.base::Value"* %7, null
  br i1 %8, label %23, label %9

9:                                                ; preds = %2
  %10 = bitcast %"class.base::Value"* %7 to i8*
  %11 = getelementptr inbounds %"class.std::__1::vector.110", %"class.std::__1::vector.110"* %3, i64 0, i32 0, i32 1
  %12 = load %"class.base::Value"*, %"class.base::Value"** %11, align 8
  %13 = icmp eq %"class.base::Value"* %12, %7
  br i1 %13, label %21, label %14

14:                                               ; preds = %9, %14
  %15 = phi %"class.base::Value"* [ %16, %14 ], [ %12, %9 ]
  %16 = getelementptr inbounds %"class.base::Value", %"class.base::Value"* %15, i64 -1
  call void @_ZN4base5ValueD1Ev(%"class.base::Value"* %16) #9
  %17 = icmp eq %"class.base::Value"* %16, %7
  br i1 %17, label %18, label %14

18:                                               ; preds = %14
  %19 = bitcast %"class.std::__1::vector.110"* %3 to i8**
  %20 = load i8*, i8** %19, align 8
  br label %21

21:                                               ; preds = %18, %9
  %22 = phi i8* [ %20, %18 ], [ %10, %9 ]
  store %"class.base::Value"* %7, %"class.base::Value"** %11, align 8
  call void @_ZdlPv(i8* %22) #10
  br label %23

23:                                               ; preds = %2, %21
  ret void
}

declare void @_ZN10extensions3api14system_display16GetDisplayLayout7Results6CreateERKNSt3__16vectorINS1_13DisplayLayoutENS4_9allocatorIS6_EEEE(%"class.std::__1::vector.110"* sret, %"class.std::__1::vector.233"* dereferenceable(24)) local_unnamed_addr #1

; Function Attrs: norecurse nounwind readnone ssp uwtable
define hidden zeroext i1 @_ZN10extensions37SystemDisplayGetDisplayLayoutFunction29ShouldRestrictToKioskAndWebUIEv(%"class.extensions::SystemDisplayGetDisplayLayoutFunction"* nocapture readnone) unnamed_addr #4 align 2 {
  ret i1 false
}

; Function Attrs: nounwind ssp uwtable
define hidden %"class.ExtensionFunction::ResponseActionObject"* @_ZN10extensions41SystemDisplaySetDisplayPropertiesFunction3RunEv(%"class.extensions::SystemDisplaySetDisplayPropertiesFunction"*) unnamed_addr #0 align 2 {
  %2 = alloca %"class.base::OnceCallback.268", align 8
  %3 = bitcast %"class.extensions::SystemDisplaySetDisplayPropertiesFunction"* %0 to %class.ExtensionFunction*
  %4 = getelementptr inbounds %"class.extensions::SystemDisplaySetDisplayPropertiesFunction", %"class.extensions::SystemDisplaySetDisplayPropertiesFunction"* %0, i64 0, i32 0, i32 0, i32 4, i32 0, i32 0, i32 0
  %5 = load %"class.base::ListValue"*, %"class.base::ListValue"** %4, align 8
  %6 = tail call %"struct.extensions::api::system_display::SetDisplayProperties::Params"* @_ZN10extensions3api14system_display20SetDisplayProperties6Params6CreateERKN4base9ListValueE(%"class.base::ListValue"* dereferenceable(32) %5) #9
  %7 = tail call %"class.extensions::DisplayInfoProvider"* @_ZN10extensions19DisplayInfoProvider3GetEv() #9
  %8 = getelementptr inbounds %"struct.extensions::api::system_display::SetDisplayProperties::Params", %"struct.extensions::api::system_display::SetDisplayProperties::Params"* %6, i64 0, i32 0
  %9 = getelementptr inbounds %"struct.extensions::api::system_display::SetDisplayProperties::Params", %"struct.extensions::api::system_display::SetDisplayProperties::Params"* %6, i64 0, i32 1
  %10 = tail call i8* @_Znwm(i64 56) #10, !noalias !13
  %11 = bitcast i8* %10 to %"class.base::internal::BindStateBase"*
  tail call void @_ZN4base8internal13BindStateBaseC2EPFvvEPFvPKS1_E(%"class.base::internal::BindStateBase"* nonnull %11, void ()* bitcast (void (%"class.base::internal::BindStateBase"*, %"class.absl::optional.269"*)* @_ZN4base8internal7InvokerINS0_9BindStateIMN10extensions41SystemDisplaySetDisplayPropertiesFunctionEFvN4absl8optionalINSt3__112basic_stringIcNS7_11char_traitsIcEENS7_9allocatorIcEEEEEEEJ13scoped_refptrIS4_EEEEFvSE_EE7RunOnceEPNS0_13BindStateBaseEOSE_ to void ()*), void (%"class.base::internal::BindStateBase"*)* nonnull @_ZN4base8internal9BindStateIMN10extensions41SystemDisplaySetDisplayPropertiesFunctionEFvN4absl8optionalINSt3__112basic_stringIcNS6_11char_traitsIcEENS6_9allocatorIcEEEEEEEJ13scoped_refptrIS3_EEE7DestroyEPKNS0_13BindStateBaseE) #9, !noalias !13
  %12 = getelementptr inbounds i8, i8* %10, i64 32
  %13 = bitcast i8* %12 to <2 x i64>*
  store <2 x i64> <i64 ptrtoint (void (%"class.extensions::SystemDisplaySetDisplayPropertiesFunction"*, %"class.absl::optional.269"*)* @_ZN10extensions41SystemDisplaySetDisplayPropertiesFunction8ResponseEN4absl8optionalINSt3__112basic_stringIcNS3_11char_traitsIcEENS3_9allocatorIcEEEEEE to i64), i64 0>, <2 x i64>* %13, align 8, !noalias !13
  %14 = getelementptr inbounds i8, i8* %10, i64 48
  %15 = bitcast i8* %14 to %"class.extensions::SystemDisplaySetDisplayPropertiesFunction"**
  store %"class.extensions::SystemDisplaySetDisplayPropertiesFunction"* %0, %"class.extensions::SystemDisplaySetDisplayPropertiesFunction"** %15, align 8, !noalias !13
  %16 = icmp eq %"class.extensions::SystemDisplaySetDisplayPropertiesFunction"* %0, null
  br i1 %16, label %20, label %17

17:                                               ; preds = %1
  %18 = getelementptr inbounds %"class.extensions::SystemDisplaySetDisplayPropertiesFunction", %"class.extensions::SystemDisplaySetDisplayPropertiesFunction"* %0, i64 0, i32 0, i32 0, i32 1, i32 0, i32 0, i32 0, i32 0, i32 0, i32 0, i32 0, i32 0
  %19 = atomicrmw add i32* %18, i32 1 monotonic, !noalias !13
  br label %20

20:                                               ; preds = %1, %17
  %21 = bitcast %"class.base::OnceCallback.268"* %2 to i8**
  store i8* %10, i8** %21, align 8, !alias.scope !13
  %22 = bitcast %"class.extensions::DisplayInfoProvider"* %7 to void (%"class.extensions::DisplayInfoProvider"*, %"class.std::__1::basic_string"*, %"struct.extensions::api::system_display::DisplayProperties"*, %"class.base::OnceCallback.268"*)***
  %23 = load void (%"class.extensions::DisplayInfoProvider"*, %"class.std::__1::basic_string"*, %"struct.extensions::api::system_display::DisplayProperties"*, %"class.base::OnceCallback.268"*)**, void (%"class.extensions::DisplayInfoProvider"*, %"class.std::__1::basic_string"*, %"struct.extensions::api::system_display::DisplayProperties"*, %"class.base::OnceCallback.268"*)*** %22, align 8
  %24 = getelementptr inbounds void (%"class.extensions::DisplayInfoProvider"*, %"class.std::__1::basic_string"*, %"struct.extensions::api::system_display::DisplayProperties"*, %"class.base::OnceCallback.268"*)*, void (%"class.extensions::DisplayInfoProvider"*, %"class.std::__1::basic_string"*, %"struct.extensions::api::system_display::DisplayProperties"*, %"class.base::OnceCallback.268"*)** %23, i64 9
  %25 = load void (%"class.extensions::DisplayInfoProvider"*, %"class.std::__1::basic_string"*, %"struct.extensions::api::system_display::DisplayProperties"*, %"class.base::OnceCallback.268"*)*, void (%"class.extensions::DisplayInfoProvider"*, %"class.std::__1::basic_string"*, %"struct.extensions::api::system_display::DisplayProperties"*, %"class.base::OnceCallback.268"*)** %24, align 8
  call void %25(%"class.extensions::DisplayInfoProvider"* %7, %"class.std::__1::basic_string"* dereferenceable(24) %8, %"struct.extensions::api::system_display::DisplayProperties"* dereferenceable(72) %9, %"class.base::OnceCallback.268"* nonnull %2) #9
  %26 = getelementptr inbounds %"class.base::OnceCallback.268", %"class.base::OnceCallback.268"* %2, i64 0, i32 0
  call void @_ZN4base8internal12CallbackBaseD2Ev(%"class.base::internal::CallbackBase"* nonnull %26) #9
  %27 = call %"class.ExtensionFunction::ResponseActionObject"* @_ZN17ExtensionFunction12RespondLaterEv(%class.ExtensionFunction* %3) #9
  %28 = icmp eq %"struct.extensions::api::system_display::SetDisplayProperties::Params"* %6, null
  br i1 %28, label %31, label %29

29:                                               ; preds = %20
  call void @_ZN10extensions3api14system_display20SetDisplayProperties6ParamsD1Ev(%"struct.extensions::api::system_display::SetDisplayProperties::Params"* nonnull %6) #9
  %30 = bitcast %"struct.extensions::api::system_display::SetDisplayProperties::Params"* %6 to i8*
  call void @_ZdlPv(i8* %30) #10
  br label %31

31:                                               ; preds = %20, %29
  ret %"class.ExtensionFunction::ResponseActionObject"* %27
}

declare %"struct.extensions::api::system_display::SetDisplayProperties::Params"* @_ZN10extensions3api14system_display20SetDisplayProperties6Params6CreateERKN4base9ListValueE(%"class.base::ListValue"* dereferenceable(32)) local_unnamed_addr #1

; Function Attrs: nounwind ssp uwtable
define hidden void @_ZN10extensions41SystemDisplaySetDisplayPropertiesFunction8ResponseEN4absl8optionalINSt3__112basic_stringIcNS3_11char_traitsIcEENS3_9allocatorIcEEEEEE(%"class.extensions::SystemDisplaySetDisplayPropertiesFunction"*, %"class.absl::optional.269"* nocapture readonly) #0 align 2 {
  %3 = alloca %"class.std::__1::basic_string", align 8
  %4 = bitcast %"class.extensions::SystemDisplaySetDisplayPropertiesFunction"* %0 to %class.ExtensionFunction*
  %5 = getelementptr inbounds %"class.absl::optional.269", %"class.absl::optional.269"* %1, i64 0, i32 0, i32 0, i32 0, i32 0
  %6 = load i8, i8* %5, align 8, !range !2
  %7 = icmp eq i8 %6, 0
  br i1 %7, label %31, label %8

8:                                                ; preds = %2
  %9 = getelementptr inbounds %"class.absl::optional.269", %"class.absl::optional.269"* %1, i64 0, i32 0, i32 0, i32 0, i32 1, i32 0
  %10 = bitcast %"class.std::__1::basic_string"* %9 to %"struct.std::__1::basic_string<char, std::__1::char_traits<char>, std::__1::allocator<char> >::__short"*
  %11 = getelementptr inbounds %"struct.std::__1::basic_string<char, std::__1::char_traits<char>, std::__1::allocator<char> >::__short", %"struct.std::__1::basic_string<char, std::__1::char_traits<char>, std::__1::allocator<char> >::__short"* %10, i64 0, i32 1, i32 0
  %12 = load i8, i8* %11, align 1
  %13 = icmp slt i8 %12, 0
  br i1 %13, label %17, label %14

14:                                               ; preds = %8
  %15 = bitcast %"class.std::__1::basic_string"* %3 to i8*
  %16 = bitcast %"class.std::__1::basic_string"* %9 to i8*
  call void @llvm.memcpy.p0i8.p0i8.i64(i8* nonnull align 8 %15, i8* align 8 %16, i64 24, i1 false) #9
  br label %22

17:                                               ; preds = %8
  %18 = getelementptr inbounds %"class.std::__1::basic_string", %"class.std::__1::basic_string"* %9, i64 0, i32 0, i32 0, i32 0, i32 0, i32 0, i32 0
  %19 = load i8*, i8** %18, align 8
  %20 = getelementptr inbounds %"class.absl::optional.269", %"class.absl::optional.269"* %1, i64 0, i32 0, i32 0, i32 0, i32 1, i32 0, i32 0, i32 0, i32 0, i32 0, i32 0, i32 1
  %21 = load i64, i64* %20, align 8
  call void @_ZNSt3__112basic_stringIcNS_11char_traitsIcEENS_9allocatorIcEEE25__init_copy_ctor_externalEPKcm(%"class.std::__1::basic_string"* nonnull %3, i8* %19, i64 %21) #9
  br label %22

22:                                               ; preds = %14, %17
  %23 = call %"class.ExtensionFunction::ResponseValueObject"* @_ZN17ExtensionFunction5ErrorENSt3__112basic_stringIcNS0_11char_traitsIcEENS0_9allocatorIcEEEE(%class.ExtensionFunction* %4, %"class.std::__1::basic_string"* nonnull %3) #9
  call void @_ZN17ExtensionFunction7RespondENSt3__110unique_ptrINS_19ResponseValueObjectENS0_14default_deleteIS2_EEEE(%class.ExtensionFunction* %4, %"class.ExtensionFunction::ResponseValueObject"* %23) #9
  %24 = bitcast %"class.std::__1::basic_string"* %3 to %"struct.std::__1::basic_string<char, std::__1::char_traits<char>, std::__1::allocator<char> >::__short"*
  %25 = getelementptr inbounds %"struct.std::__1::basic_string<char, std::__1::char_traits<char>, std::__1::allocator<char> >::__short", %"struct.std::__1::basic_string<char, std::__1::char_traits<char>, std::__1::allocator<char> >::__short"* %24, i64 0, i32 1, i32 0
  %26 = load i8, i8* %25, align 1
  %27 = icmp slt i8 %26, 0
  br i1 %27, label %28, label %33

28:                                               ; preds = %22
  %29 = getelementptr inbounds %"class.std::__1::basic_string", %"class.std::__1::basic_string"* %3, i64 0, i32 0, i32 0, i32 0, i32 0, i32 0, i32 0
  %30 = load i8*, i8** %29, align 8
  call void @_ZdlPv(i8* %30) #10
  br label %33

31:                                               ; preds = %2
  %32 = tail call %"class.ExtensionFunction::ResponseValueObject"* @_ZN17ExtensionFunction11NoArgumentsEv(%class.ExtensionFunction* %4) #9
  tail call void @_ZN17ExtensionFunction7RespondENSt3__110unique_ptrINS_19ResponseValueObjectENS0_14default_deleteIS2_EEEE(%class.ExtensionFunction* %4, %"class.ExtensionFunction::ResponseValueObject"* %32) #9
  br label %33

33:                                               ; preds = %28, %22, %31
  ret void
}

declare %"class.ExtensionFunction::ResponseValueObject"* @_ZN17ExtensionFunction5ErrorENSt3__112basic_stringIcNS0_11char_traitsIcEENS0_9allocatorIcEEEE(%class.ExtensionFunction*, %"class.std::__1::basic_string"*) local_unnamed_addr #1

declare %"class.ExtensionFunction::ResponseValueObject"* @_ZN17ExtensionFunction11NoArgumentsEv(%class.ExtensionFunction*) local_unnamed_addr #1

; Function Attrs: nounwind ssp uwtable
define hidden %"class.ExtensionFunction::ResponseActionObject"* @_ZN10extensions37SystemDisplaySetDisplayLayoutFunction3RunEv(%"class.extensions::SystemDisplaySetDisplayLayoutFunction"*) unnamed_addr #0 align 2 {
  %2 = alloca %"class.base::OnceCallback.268", align 8
  %3 = bitcast %"class.extensions::SystemDisplaySetDisplayLayoutFunction"* %0 to %class.ExtensionFunction*
  %4 = getelementptr inbounds %"class.extensions::SystemDisplaySetDisplayLayoutFunction", %"class.extensions::SystemDisplaySetDisplayLayoutFunction"* %0, i64 0, i32 0, i32 0, i32 4, i32 0, i32 0, i32 0
  %5 = load %"class.base::ListValue"*, %"class.base::ListValue"** %4, align 8
  %6 = tail call %"struct.extensions::api::system_display::SetDisplayLayout::Params"* @_ZN10extensions3api14system_display16SetDisplayLayout6Params6CreateERKN4base9ListValueE(%"class.base::ListValue"* dereferenceable(32) %5) #9
  %7 = tail call %"class.extensions::DisplayInfoProvider"* @_ZN10extensions19DisplayInfoProvider3GetEv() #9
  %8 = getelementptr inbounds %"struct.extensions::api::system_display::SetDisplayLayout::Params", %"struct.extensions::api::system_display::SetDisplayLayout::Params"* %6, i64 0, i32 0
  %9 = tail call i8* @_Znwm(i64 56) #10, !noalias !18
  %10 = bitcast i8* %9 to %"class.base::internal::BindStateBase"*
  tail call void @_ZN4base8internal13BindStateBaseC2EPFvvEPFvPKS1_E(%"class.base::internal::BindStateBase"* nonnull %10, void ()* bitcast (void (%"class.base::internal::BindStateBase"*, %"class.absl::optional.269"*)* @_ZN4base8internal7InvokerINS0_9BindStateIMN10extensions37SystemDisplaySetDisplayLayoutFunctionEFvN4absl8optionalINSt3__112basic_stringIcNS7_11char_traitsIcEENS7_9allocatorIcEEEEEEEJ13scoped_refptrIS4_EEEEFvSE_EE7RunOnceEPNS0_13BindStateBaseEOSE_ to void ()*), void (%"class.base::internal::BindStateBase"*)* nonnull @_ZN4base8internal9BindStateIMN10extensions37SystemDisplaySetDisplayLayoutFunctionEFvN4absl8optionalINSt3__112basic_stringIcNS6_11char_traitsIcEENS6_9allocatorIcEEEEEEEJ13scoped_refptrIS3_EEE7DestroyEPKNS0_13BindStateBaseE) #9, !noalias !18
  %11 = getelementptr inbounds i8, i8* %9, i64 32
  %12 = bitcast i8* %11 to <2 x i64>*
  store <2 x i64> <i64 ptrtoint (void (%"class.extensions::SystemDisplaySetDisplayLayoutFunction"*, %"class.absl::optional.269"*)* @_ZN10extensions37SystemDisplaySetDisplayLayoutFunction8ResponseEN4absl8optionalINSt3__112basic_stringIcNS3_11char_traitsIcEENS3_9allocatorIcEEEEEE to i64), i64 0>, <2 x i64>* %12, align 8, !noalias !18
  %13 = getelementptr inbounds i8, i8* %9, i64 48
  %14 = bitcast i8* %13 to %"class.extensions::SystemDisplaySetDisplayLayoutFunction"**
  store %"class.extensions::SystemDisplaySetDisplayLayoutFunction"* %0, %"class.extensions::SystemDisplaySetDisplayLayoutFunction"** %14, align 8, !noalias !18
  %15 = icmp eq %"class.extensions::SystemDisplaySetDisplayLayoutFunction"* %0, null
  br i1 %15, label %19, label %16

16:                                               ; preds = %1
  %17 = getelementptr inbounds %"class.extensions::SystemDisplaySetDisplayLayoutFunction", %"class.extensions::SystemDisplaySetDisplayLayoutFunction"* %0, i64 0, i32 0, i32 0, i32 1, i32 0, i32 0, i32 0, i32 0, i32 0, i32 0, i32 0, i32 0
  %18 = atomicrmw add i32* %17, i32 1 monotonic, !noalias !18
  br label %19

19:                                               ; preds = %1, %16
  %20 = bitcast %"class.base::OnceCallback.268"* %2 to i8**
  store i8* %9, i8** %20, align 8, !alias.scope !18
  %21 = bitcast %"class.extensions::DisplayInfoProvider"* %7 to void (%"class.extensions::DisplayInfoProvider"*, %"class.std::__1::vector.233"*, %"class.base::OnceCallback.268"*)***
  %22 = load void (%"class.extensions::DisplayInfoProvider"*, %"class.std::__1::vector.233"*, %"class.base::OnceCallback.268"*)**, void (%"class.extensions::DisplayInfoProvider"*, %"class.std::__1::vector.233"*, %"class.base::OnceCallback.268"*)*** %21, align 8
  %23 = getelementptr inbounds void (%"class.extensions::DisplayInfoProvider"*, %"class.std::__1::vector.233"*, %"class.base::OnceCallback.268"*)*, void (%"class.extensions::DisplayInfoProvider"*, %"class.std::__1::vector.233"*, %"class.base::OnceCallback.268"*)** %22, i64 10
  %24 = load void (%"class.extensions::DisplayInfoProvider"*, %"class.std::__1::vector.233"*, %"class.base::OnceCallback.268"*)*, void (%"class.extensions::DisplayInfoProvider"*, %"class.std::__1::vector.233"*, %"class.base::OnceCallback.268"*)** %23, align 8
  call void %24(%"class.extensions::DisplayInfoProvider"* %7, %"class.std::__1::vector.233"* dereferenceable(24) %8, %"class.base::OnceCallback.268"* nonnull %2) #9
  %25 = getelementptr inbounds %"class.base::OnceCallback.268", %"class.base::OnceCallback.268"* %2, i64 0, i32 0
  call void @_ZN4base8internal12CallbackBaseD2Ev(%"class.base::internal::CallbackBase"* nonnull %25) #9
  %26 = call %"class.ExtensionFunction::ResponseActionObject"* @_ZN17ExtensionFunction12RespondLaterEv(%class.ExtensionFunction* %3) #9
  %27 = icmp eq %"struct.extensions::api::system_display::SetDisplayLayout::Params"* %6, null
  br i1 %27, label %30, label %28

28:                                               ; preds = %19
  call void @_ZN10extensions3api14system_display16SetDisplayLayout6ParamsD1Ev(%"struct.extensions::api::system_display::SetDisplayLayout::Params"* nonnull %6) #9
  %29 = bitcast %"struct.extensions::api::system_display::SetDisplayLayout::Params"* %6 to i8*
  call void @_ZdlPv(i8* %29) #10
  br label %30

30:                                               ; preds = %19, %28
  ret %"class.ExtensionFunction::ResponseActionObject"* %26
}

declare %"struct.extensions::api::system_display::SetDisplayLayout::Params"* @_ZN10extensions3api14system_display16SetDisplayLayout6Params6CreateERKN4base9ListValueE(%"class.base::ListValue"* dereferenceable(32)) local_unnamed_addr #1

; Function Attrs: nounwind ssp uwtable
define hidden void @_ZN10extensions37SystemDisplaySetDisplayLayoutFunction8ResponseEN4absl8optionalINSt3__112basic_stringIcNS3_11char_traitsIcEENS3_9allocatorIcEEEEEE(%"class.extensions::SystemDisplaySetDisplayLayoutFunction"*, %"class.absl::optional.269"* nocapture readonly) #0 align 2 {
  %3 = alloca %"class.std::__1::basic_string", align 8
  %4 = bitcast %"class.extensions::SystemDisplaySetDisplayLayoutFunction"* %0 to %class.ExtensionFunction*
  %5 = getelementptr inbounds %"class.absl::optional.269", %"class.absl::optional.269"* %1, i64 0, i32 0, i32 0, i32 0, i32 0
  %6 = load i8, i8* %5, align 8, !range !2
  %7 = icmp eq i8 %6, 0
  br i1 %7, label %31, label %8

8:                                                ; preds = %2
  %9 = getelementptr inbounds %"class.absl::optional.269", %"class.absl::optional.269"* %1, i64 0, i32 0, i32 0, i32 0, i32 1, i32 0
  %10 = bitcast %"class.std::__1::basic_string"* %9 to %"struct.std::__1::basic_string<char, std::__1::char_traits<char>, std::__1::allocator<char> >::__short"*
  %11 = getelementptr inbounds %"struct.std::__1::basic_string<char, std::__1::char_traits<char>, std::__1::allocator<char> >::__short", %"struct.std::__1::basic_string<char, std::__1::char_traits<char>, std::__1::allocator<char> >::__short"* %10, i64 0, i32 1, i32 0
  %12 = load i8, i8* %11, align 1
  %13 = icmp slt i8 %12, 0
  br i1 %13, label %17, label %14

14:                                               ; preds = %8
  %15 = bitcast %"class.std::__1::basic_string"* %3 to i8*
  %16 = bitcast %"class.std::__1::basic_string"* %9 to i8*
  call void @llvm.memcpy.p0i8.p0i8.i64(i8* nonnull align 8 %15, i8* align 8 %16, i64 24, i1 false) #9
  br label %22

17:                                               ; preds = %8
  %18 = getelementptr inbounds %"class.std::__1::basic_string", %"class.std::__1::basic_string"* %9, i64 0, i32 0, i32 0, i32 0, i32 0, i32 0, i32 0
  %19 = load i8*, i8** %18, align 8
  %20 = getelementptr inbounds %"class.absl::optional.269", %"class.absl::optional.269"* %1, i64 0, i32 0, i32 0, i32 0, i32 1, i32 0, i32 0, i32 0, i32 0, i32 0, i32 0, i32 1
  %21 = load i64, i64* %20, align 8
  call void @_ZNSt3__112basic_stringIcNS_11char_traitsIcEENS_9allocatorIcEEE25__init_copy_ctor_externalEPKcm(%"class.std::__1::basic_string"* nonnull %3, i8* %19, i64 %21) #9
  br label %22

22:                                               ; preds = %14, %17
  %23 = call %"class.ExtensionFunction::ResponseValueObject"* @_ZN17ExtensionFunction5ErrorENSt3__112basic_stringIcNS0_11char_traitsIcEENS0_9allocatorIcEEEE(%class.ExtensionFunction* %4, %"class.std::__1::basic_string"* nonnull %3) #9
  call void @_ZN17ExtensionFunction7RespondENSt3__110unique_ptrINS_19ResponseValueObjectENS0_14default_deleteIS2_EEEE(%class.ExtensionFunction* %4, %"class.ExtensionFunction::ResponseValueObject"* %23) #9
  %24 = bitcast %"class.std::__1::basic_string"* %3 to %"struct.std::__1::basic_string<char, std::__1::char_traits<char>, std::__1::allocator<char> >::__short"*
  %25 = getelementptr inbounds %"struct.std::__1::basic_string<char, std::__1::char_traits<char>, std::__1::allocator<char> >::__short", %"struct.std::__1::basic_string<char, std::__1::char_traits<char>, std::__1::allocator<char> >::__short"* %24, i64 0, i32 1, i32 0
  %26 = load i8, i8* %25, align 1
  %27 = icmp slt i8 %26, 0
  br i1 %27, label %28, label %33

28:                                               ; preds = %22
  %29 = getelementptr inbounds %"class.std::__1::basic_string", %"class.std::__1::basic_string"* %3, i64 0, i32 0, i32 0, i32 0, i32 0, i32 0, i32 0
  %30 = load i8*, i8** %29, align 8
  call void @_ZdlPv(i8* %30) #10
  br label %33

31:                                               ; preds = %2
  %32 = tail call %"class.ExtensionFunction::ResponseValueObject"* @_ZN17ExtensionFunction11NoArgumentsEv(%class.ExtensionFunction* %4) #9
  tail call void @_ZN17ExtensionFunction7RespondENSt3__110unique_ptrINS_19ResponseValueObjectENS0_14default_deleteIS2_EEEE(%class.ExtensionFunction* %4, %"class.ExtensionFunction::ResponseValueObject"* %32) #9
  br label %33

33:                                               ; preds = %28, %22, %31
  ret void
}

; Function Attrs: nounwind ssp uwtable
define hidden %"class.ExtensionFunction::ResponseActionObject"* @_ZN10extensions41SystemDisplayEnableUnifiedDesktopFunction3RunEv(%"class.extensions::SystemDisplayEnableUnifiedDesktopFunction"*) unnamed_addr #0 align 2 {
  %2 = bitcast %"class.extensions::SystemDisplayEnableUnifiedDesktopFunction"* %0 to %class.ExtensionFunction*
  %3 = getelementptr inbounds %"class.extensions::SystemDisplayEnableUnifiedDesktopFunction", %"class.extensions::SystemDisplayEnableUnifiedDesktopFunction"* %0, i64 0, i32 0, i32 0, i32 4, i32 0, i32 0, i32 0
  %4 = load %"class.base::ListValue"*, %"class.base::ListValue"** %3, align 8
  %5 = tail call %"struct.extensions::api::system_display::EnableUnifiedDesktop::Params"* @_ZN10extensions3api14system_display20EnableUnifiedDesktop6Params6CreateERKN4base9ListValueE(%"class.base::ListValue"* dereferenceable(32) %4) #9
  %6 = tail call %"class.extensions::DisplayInfoProvider"* @_ZN10extensions19DisplayInfoProvider3GetEv() #9
  %7 = getelementptr inbounds %"struct.extensions::api::system_display::EnableUnifiedDesktop::Params", %"struct.extensions::api::system_display::EnableUnifiedDesktop::Params"* %5, i64 0, i32 0
  %8 = load i8, i8* %7, align 1, !range !2
  %9 = icmp ne i8 %8, 0
  %10 = bitcast %"class.extensions::DisplayInfoProvider"* %6 to void (%"class.extensions::DisplayInfoProvider"*, i1)***
  %11 = load void (%"class.extensions::DisplayInfoProvider"*, i1)**, void (%"class.extensions::DisplayInfoProvider"*, i1)*** %10, align 8
  %12 = getelementptr inbounds void (%"class.extensions::DisplayInfoProvider"*, i1)*, void (%"class.extensions::DisplayInfoProvider"*, i1)** %11, i64 11
  %13 = load void (%"class.extensions::DisplayInfoProvider"*, i1)*, void (%"class.extensions::DisplayInfoProvider"*, i1)** %12, align 8
  tail call void %13(%"class.extensions::DisplayInfoProvider"* %6, i1 zeroext %9) #9
  %14 = tail call %"class.ExtensionFunction::ResponseValueObject"* @_ZN17ExtensionFunction11NoArgumentsEv(%class.ExtensionFunction* %2) #9
  %15 = tail call %"class.ExtensionFunction::ResponseActionObject"* @_ZN17ExtensionFunction10RespondNowENSt3__110unique_ptrINS_19ResponseValueObjectENS0_14default_deleteIS2_EEEE(%class.ExtensionFunction* %2, %"class.ExtensionFunction::ResponseValueObject"* %14) #9
  %16 = icmp eq %"struct.extensions::api::system_display::EnableUnifiedDesktop::Params"* %5, null
  br i1 %16, label %18, label %17

17:                                               ; preds = %1
  tail call void @_ZN10extensions3api14system_display20EnableUnifiedDesktop6ParamsD1Ev(%"struct.extensions::api::system_display::EnableUnifiedDesktop::Params"* nonnull %5) #9
  tail call void @_ZdlPv(i8* %7) #10
  br label %18

18:                                               ; preds = %1, %17
  ret %"class.ExtensionFunction::ResponseActionObject"* %15
}

declare %"struct.extensions::api::system_display::EnableUnifiedDesktop::Params"* @_ZN10extensions3api14system_display20EnableUnifiedDesktop6Params6CreateERKN4base9ListValueE(%"class.base::ListValue"* dereferenceable(32)) local_unnamed_addr #1

declare %"class.ExtensionFunction::ResponseActionObject"* @_ZN17ExtensionFunction10RespondNowENSt3__110unique_ptrINS_19ResponseValueObjectENS0_14default_deleteIS2_EEEE(%class.ExtensionFunction*, %"class.ExtensionFunction::ResponseValueObject"*) local_unnamed_addr #1

; Function Attrs: nounwind ssp uwtable
define hidden %"class.ExtensionFunction::ResponseActionObject"* @_ZN10extensions45SystemDisplayOverscanCalibrationStartFunction3RunEv(%"class.extensions::SystemDisplayOverscanCalibrationStartFunction"*) unnamed_addr #0 align 2 {
  %2 = alloca %"class.std::__1::basic_string", align 8
  %3 = bitcast %"class.extensions::SystemDisplayOverscanCalibrationStartFunction"* %0 to %class.ExtensionFunction*
  %4 = getelementptr inbounds %"class.extensions::SystemDisplayOverscanCalibrationStartFunction", %"class.extensions::SystemDisplayOverscanCalibrationStartFunction"* %0, i64 0, i32 0, i32 0, i32 4, i32 0, i32 0, i32 0
  %5 = load %"class.base::ListValue"*, %"class.base::ListValue"** %4, align 8
  %6 = tail call %"struct.extensions::api::system_display::OverscanCalibrationStart::Params"* @_ZN10extensions3api14system_display24OverscanCalibrationStart6Params6CreateERKN4base9ListValueE(%"class.base::ListValue"* dereferenceable(32) %5) #9
  %7 = tail call %"class.extensions::DisplayInfoProvider"* @_ZN10extensions19DisplayInfoProvider3GetEv() #9
  %8 = getelementptr inbounds %"struct.extensions::api::system_display::OverscanCalibrationStart::Params", %"struct.extensions::api::system_display::OverscanCalibrationStart::Params"* %6, i64 0, i32 0
  %9 = bitcast %"class.extensions::DisplayInfoProvider"* %7 to i1 (%"class.extensions::DisplayInfoProvider"*, %"class.std::__1::basic_string"*)***
  %10 = load i1 (%"class.extensions::DisplayInfoProvider"*, %"class.std::__1::basic_string"*)**, i1 (%"class.extensions::DisplayInfoProvider"*, %"class.std::__1::basic_string"*)*** %9, align 8
  %11 = getelementptr inbounds i1 (%"class.extensions::DisplayInfoProvider"*, %"class.std::__1::basic_string"*)*, i1 (%"class.extensions::DisplayInfoProvider"*, %"class.std::__1::basic_string"*)** %10, i64 16
  %12 = load i1 (%"class.extensions::DisplayInfoProvider"*, %"class.std::__1::basic_string"*)*, i1 (%"class.extensions::DisplayInfoProvider"*, %"class.std::__1::basic_string"*)** %11, align 8
  %13 = tail call zeroext i1 %12(%"class.extensions::DisplayInfoProvider"* %7, %"class.std::__1::basic_string"* dereferenceable(24) %8) #9
  br i1 %13, label %24, label %14

14:                                               ; preds = %1
  call void @_ZNSt3__1plIcNS_11char_traitsIcEENS_9allocatorIcEEEENS_12basic_stringIT_T0_T1_EEPKS6_RKS9_(%"class.std::__1::basic_string"* nonnull sret %2, i8* getelementptr inbounds ([21 x i8], [21 x i8]* @.str, i64 0, i64 0), %"class.std::__1::basic_string"* dereferenceable(24) %8) #9
  %15 = call %"class.ExtensionFunction::ResponseValueObject"* @_ZN17ExtensionFunction5ErrorENSt3__112basic_stringIcNS0_11char_traitsIcEENS0_9allocatorIcEEEE(%class.ExtensionFunction* %3, %"class.std::__1::basic_string"* nonnull %2) #9
  %16 = call %"class.ExtensionFunction::ResponseActionObject"* @_ZN17ExtensionFunction10RespondNowENSt3__110unique_ptrINS_19ResponseValueObjectENS0_14default_deleteIS2_EEEE(%class.ExtensionFunction* %3, %"class.ExtensionFunction::ResponseValueObject"* %15) #9
  %17 = bitcast %"class.std::__1::basic_string"* %2 to %"struct.std::__1::basic_string<char, std::__1::char_traits<char>, std::__1::allocator<char> >::__short"*
  %18 = getelementptr inbounds %"struct.std::__1::basic_string<char, std::__1::char_traits<char>, std::__1::allocator<char> >::__short", %"struct.std::__1::basic_string<char, std::__1::char_traits<char>, std::__1::allocator<char> >::__short"* %17, i64 0, i32 1, i32 0
  %19 = load i8, i8* %18, align 1
  %20 = icmp slt i8 %19, 0
  br i1 %20, label %21, label %40

21:                                               ; preds = %14
  %22 = getelementptr inbounds %"class.std::__1::basic_string", %"class.std::__1::basic_string"* %2, i64 0, i32 0, i32 0, i32 0, i32 0, i32 0, i32 0
  %23 = load i8*, i8** %22, align 8
  call void @_ZdlPv(i8* %23) #10
  br label %40

24:                                               ; preds = %1
  %25 = tail call %"class.content::WebContents"* @_ZN17ExtensionFunction20GetSenderWebContentsEv(%class.ExtensionFunction* %3) #9
  %26 = load %"class.extensions::(anonymous namespace)::OverscanTracker"*, %"class.extensions::(anonymous namespace)::OverscanTracker"** @_ZN10extensions12_GLOBAL__N_118g_overscan_trackerE, align 8
  %27 = icmp eq %"class.extensions::(anonymous namespace)::OverscanTracker"* %26, null
  br i1 %27, label %28, label %33

28:                                               ; preds = %24
  %29 = tail call i8* @_Znwm(i64 24) #10
  %30 = getelementptr inbounds i8, i8* %29, i64 8
  tail call void @llvm.memset.p0i8.i64(i8* align 8 %30, i8 0, i64 16, i1 false) #9
  %31 = bitcast i8* %29 to i8**
  store i8* %30, i8** %31, align 8
  store i8* %29, i8** bitcast (%"class.extensions::(anonymous namespace)::OverscanTracker"** @_ZN10extensions12_GLOBAL__N_118g_overscan_trackerE to i8**), align 8
  %32 = bitcast i8* %29 to %"class.extensions::(anonymous namespace)::OverscanTracker"*
  br label %33

33:                                               ; preds = %24, %28
  %34 = phi %"class.extensions::(anonymous namespace)::OverscanTracker"* [ %26, %24 ], [ %32, %28 ]
  %35 = tail call fastcc %"class.extensions::(anonymous namespace)::OverscanTracker::OverscanWebObserver"* @_ZN10extensions12_GLOBAL__N_115OverscanTracker11GetObserverEPN7content11WebContentsEb(%"class.extensions::(anonymous namespace)::OverscanTracker"* nonnull %34, %"class.content::WebContents"* %25, i1 zeroext true) #9
  %36 = getelementptr inbounds %"class.extensions::(anonymous namespace)::OverscanTracker::OverscanWebObserver", %"class.extensions::(anonymous namespace)::OverscanTracker::OverscanWebObserver"* %35, i64 0, i32 1, i32 0
  %37 = tail call { %"class.std::__1::__tree_end_node"*, i8 } @_ZNSt3__16__treeINS_12basic_stringIcNS_11char_traitsIcEENS_9allocatorIcEEEENS_4lessIS6_EENS4_IS6_EEE25__emplace_unique_key_argsIS6_JRKS6_EEENS_4pairINS_15__tree_iteratorIS6_PNS_11__tree_nodeIS6_PvEElEEbEERKT_DpOT0_(%"class.std::__1::__tree.370"* %36, %"class.std::__1::basic_string"* dereferenceable(24) %8, %"class.std::__1::basic_string"* dereferenceable(24) %8) #9
  %38 = tail call %"class.ExtensionFunction::ResponseValueObject"* @_ZN17ExtensionFunction11NoArgumentsEv(%class.ExtensionFunction* %3) #9
  %39 = tail call %"class.ExtensionFunction::ResponseActionObject"* @_ZN17ExtensionFunction10RespondNowENSt3__110unique_ptrINS_19ResponseValueObjectENS0_14default_deleteIS2_EEEE(%class.ExtensionFunction* %3, %"class.ExtensionFunction::ResponseValueObject"* %38) #9
  br label %40

40:                                               ; preds = %21, %14, %33
  %41 = phi %"class.ExtensionFunction::ResponseActionObject"* [ %39, %33 ], [ %16, %14 ], [ %16, %21 ]
  %42 = icmp eq %"struct.extensions::api::system_display::OverscanCalibrationStart::Params"* %6, null
  br i1 %42, label %45, label %43

43:                                               ; preds = %40
  call void @_ZN10extensions3api14system_display24OverscanCalibrationStart6ParamsD1Ev(%"struct.extensions::api::system_display::OverscanCalibrationStart::Params"* nonnull %6) #9
  %44 = bitcast %"struct.extensions::api::system_display::OverscanCalibrationStart::Params"* %6 to i8*
  call void @_ZdlPv(i8* %44) #10
  br label %45

45:                                               ; preds = %40, %43
  ret %"class.ExtensionFunction::ResponseActionObject"* %41
}

declare %"struct.extensions::api::system_display::OverscanCalibrationStart::Params"* @_ZN10extensions3api14system_display24OverscanCalibrationStart6Params6CreateERKN4base9ListValueE(%"class.base::ListValue"* dereferenceable(32)) local_unnamed_addr #1

declare void @_ZNSt3__1plIcNS_11char_traitsIcEENS_9allocatorIcEEEENS_12basic_stringIT_T0_T1_EEPKS6_RKS9_(%"class.std::__1::basic_string"* sret, i8*, %"class.std::__1::basic_string"* dereferenceable(24)) local_unnamed_addr #1

declare %"class.content::WebContents"* @_ZN17ExtensionFunction20GetSenderWebContentsEv(%class.ExtensionFunction*) local_unnamed_addr #1

; Function Attrs: nounwind ssp uwtable
define hidden %"class.ExtensionFunction::ResponseActionObject"* @_ZN10extensions46SystemDisplayOverscanCalibrationAdjustFunction3RunEv(%"class.extensions::SystemDisplayOverscanCalibrationAdjustFunction"*) unnamed_addr #0 align 2 {
  %2 = alloca %"class.std::__1::basic_string", align 8
  %3 = alloca %"class.std::__1::basic_string", align 8
  %4 = bitcast %"class.extensions::SystemDisplayOverscanCalibrationAdjustFunction"* %0 to %class.ExtensionFunction*
  %5 = getelementptr inbounds %"class.extensions::SystemDisplayOverscanCalibrationAdjustFunction", %"class.extensions::SystemDisplayOverscanCalibrationAdjustFunction"* %0, i64 0, i32 0, i32 0, i32 4, i32 0, i32 0, i32 0
  %6 = load %"class.base::ListValue"*, %"class.base::ListValue"** %5, align 8
  %7 = tail call %"struct.extensions::api::system_display::OverscanCalibrationAdjust::Params"* @_ZN10extensions3api14system_display25OverscanCalibrationAdjust6Params6CreateERKN4base9ListValueE(%"class.base::ListValue"* dereferenceable(32) %6) #9
  %8 = icmp eq %"struct.extensions::api::system_display::OverscanCalibrationAdjust::Params"* %7, null
  br i1 %8, label %9, label %21

9:                                                ; preds = %1
  %10 = bitcast %"class.std::__1::basic_string"* %2 to %"struct.std::__1::basic_string<char, std::__1::char_traits<char>, std::__1::allocator<char> >::__short"*
  %11 = getelementptr inbounds %"struct.std::__1::basic_string<char, std::__1::char_traits<char>, std::__1::allocator<char> >::__short", %"struct.std::__1::basic_string<char, std::__1::char_traits<char>, std::__1::allocator<char> >::__short"* %10, i64 0, i32 1, i32 0
  store i8 18, i8* %11, align 1
  %12 = bitcast %"class.std::__1::basic_string"* %2 to i8*
  call void @llvm.memcpy.p0i8.p0i8.i64(i8* nonnull align 8 %12, i8* align 1 getelementptr inbounds ([19 x i8], [19 x i8]* @.str.1, i64 0, i64 0), i64 18, i1 false) #9
  %13 = getelementptr inbounds i8, i8* %12, i64 18
  store i8 0, i8* %13, align 2
  %14 = call %"class.ExtensionFunction::ResponseValueObject"* @_ZN17ExtensionFunction5ErrorENSt3__112basic_stringIcNS0_11char_traitsIcEENS0_9allocatorIcEEEE(%class.ExtensionFunction* %4, %"class.std::__1::basic_string"* nonnull %2) #9
  %15 = call %"class.ExtensionFunction::ResponseActionObject"* @_ZN17ExtensionFunction10RespondNowENSt3__110unique_ptrINS_19ResponseValueObjectENS0_14default_deleteIS2_EEEE(%class.ExtensionFunction* %4, %"class.ExtensionFunction::ResponseValueObject"* %14) #9
  %16 = load i8, i8* %11, align 1
  %17 = icmp slt i8 %16, 0
  br i1 %17, label %18, label %49

18:                                               ; preds = %9
  %19 = getelementptr inbounds %"class.std::__1::basic_string", %"class.std::__1::basic_string"* %2, i64 0, i32 0, i32 0, i32 0, i32 0, i32 0, i32 0
  %20 = load i8*, i8** %19, align 8
  br label %46

21:                                               ; preds = %1
  %22 = tail call %"class.extensions::DisplayInfoProvider"* @_ZN10extensions19DisplayInfoProvider3GetEv() #9
  %23 = getelementptr inbounds %"struct.extensions::api::system_display::OverscanCalibrationAdjust::Params", %"struct.extensions::api::system_display::OverscanCalibrationAdjust::Params"* %7, i64 0, i32 0
  %24 = getelementptr inbounds %"struct.extensions::api::system_display::OverscanCalibrationAdjust::Params", %"struct.extensions::api::system_display::OverscanCalibrationAdjust::Params"* %7, i64 0, i32 1
  %25 = bitcast %"class.extensions::DisplayInfoProvider"* %22 to i1 (%"class.extensions::DisplayInfoProvider"*, %"class.std::__1::basic_string"*, %"struct.extensions::api::system_display::Insets"*)***
  %26 = load i1 (%"class.extensions::DisplayInfoProvider"*, %"class.std::__1::basic_string"*, %"struct.extensions::api::system_display::Insets"*)**, i1 (%"class.extensions::DisplayInfoProvider"*, %"class.std::__1::basic_string"*, %"struct.extensions::api::system_display::Insets"*)*** %25, align 8
  %27 = getelementptr inbounds i1 (%"class.extensions::DisplayInfoProvider"*, %"class.std::__1::basic_string"*, %"struct.extensions::api::system_display::Insets"*)*, i1 (%"class.extensions::DisplayInfoProvider"*, %"class.std::__1::basic_string"*, %"struct.extensions::api::system_display::Insets"*)** %26, i64 17
  %28 = load i1 (%"class.extensions::DisplayInfoProvider"*, %"class.std::__1::basic_string"*, %"struct.extensions::api::system_display::Insets"*)*, i1 (%"class.extensions::DisplayInfoProvider"*, %"class.std::__1::basic_string"*, %"struct.extensions::api::system_display::Insets"*)** %27, align 8
  %29 = tail call zeroext i1 %28(%"class.extensions::DisplayInfoProvider"* %22, %"class.std::__1::basic_string"* dereferenceable(24) %23, %"struct.extensions::api::system_display::Insets"* dereferenceable(16) %24) #9
  br i1 %29, label %40, label %30

30:                                               ; preds = %21
  call void @_ZNSt3__1plIcNS_11char_traitsIcEENS_9allocatorIcEEEENS_12basic_stringIT_T0_T1_EEPKS6_RKS9_(%"class.std::__1::basic_string"* nonnull sret %3, i8* getelementptr inbounds ([41 x i8], [41 x i8]* @.str.2, i64 0, i64 0), %"class.std::__1::basic_string"* dereferenceable(24) %23) #9
  %31 = call %"class.ExtensionFunction::ResponseValueObject"* @_ZN17ExtensionFunction5ErrorENSt3__112basic_stringIcNS0_11char_traitsIcEENS0_9allocatorIcEEEE(%class.ExtensionFunction* %4, %"class.std::__1::basic_string"* nonnull %3) #9
  %32 = call %"class.ExtensionFunction::ResponseActionObject"* @_ZN17ExtensionFunction10RespondNowENSt3__110unique_ptrINS_19ResponseValueObjectENS0_14default_deleteIS2_EEEE(%class.ExtensionFunction* %4, %"class.ExtensionFunction::ResponseValueObject"* %31) #9
  %33 = bitcast %"class.std::__1::basic_string"* %3 to %"struct.std::__1::basic_string<char, std::__1::char_traits<char>, std::__1::allocator<char> >::__short"*
  %34 = getelementptr inbounds %"struct.std::__1::basic_string<char, std::__1::char_traits<char>, std::__1::allocator<char> >::__short", %"struct.std::__1::basic_string<char, std::__1::char_traits<char>, std::__1::allocator<char> >::__short"* %33, i64 0, i32 1, i32 0
  %35 = load i8, i8* %34, align 1
  %36 = icmp slt i8 %35, 0
  br i1 %36, label %37, label %43

37:                                               ; preds = %30
  %38 = getelementptr inbounds %"class.std::__1::basic_string", %"class.std::__1::basic_string"* %3, i64 0, i32 0, i32 0, i32 0, i32 0, i32 0, i32 0
  %39 = load i8*, i8** %38, align 8
  call void @_ZdlPv(i8* %39) #10
  br label %43

40:                                               ; preds = %21
  %41 = tail call %"class.ExtensionFunction::ResponseValueObject"* @_ZN17ExtensionFunction11NoArgumentsEv(%class.ExtensionFunction* %4) #9
  %42 = tail call %"class.ExtensionFunction::ResponseActionObject"* @_ZN17ExtensionFunction10RespondNowENSt3__110unique_ptrINS_19ResponseValueObjectENS0_14default_deleteIS2_EEEE(%class.ExtensionFunction* %4, %"class.ExtensionFunction::ResponseValueObject"* %41) #9
  br label %43

43:                                               ; preds = %37, %30, %40
  %44 = phi %"class.ExtensionFunction::ResponseActionObject"* [ %32, %37 ], [ %32, %30 ], [ %42, %40 ]
  call void @_ZN10extensions3api14system_display25OverscanCalibrationAdjust6ParamsD1Ev(%"struct.extensions::api::system_display::OverscanCalibrationAdjust::Params"* nonnull %7) #9
  %45 = bitcast %"struct.extensions::api::system_display::OverscanCalibrationAdjust::Params"* %7 to i8*
  br label %46

46:                                               ; preds = %43, %18
  %47 = phi i8* [ %20, %18 ], [ %45, %43 ]
  %48 = phi %"class.ExtensionFunction::ResponseActionObject"* [ %15, %18 ], [ %44, %43 ]
  call void @_ZdlPv(i8* %47) #10
  br label %49

49:                                               ; preds = %46, %9
  %50 = phi %"class.ExtensionFunction::ResponseActionObject"* [ %15, %9 ], [ %48, %46 ]
  ret %"class.ExtensionFunction::ResponseActionObject"* %50
}

declare %"struct.extensions::api::system_display::OverscanCalibrationAdjust::Params"* @_ZN10extensions3api14system_display25OverscanCalibrationAdjust6Params6CreateERKN4base9ListValueE(%"class.base::ListValue"* dereferenceable(32)) local_unnamed_addr #1

; Function Attrs: nounwind ssp uwtable
define hidden %"class.ExtensionFunction::ResponseActionObject"* @_ZN10extensions45SystemDisplayOverscanCalibrationResetFunction3RunEv(%"class.extensions::SystemDisplayOverscanCalibrationResetFunction"*) unnamed_addr #0 align 2 {
  %2 = alloca %"class.std::__1::basic_string", align 8
  %3 = bitcast %"class.extensions::SystemDisplayOverscanCalibrationResetFunction"* %0 to %class.ExtensionFunction*
  %4 = getelementptr inbounds %"class.extensions::SystemDisplayOverscanCalibrationResetFunction", %"class.extensions::SystemDisplayOverscanCalibrationResetFunction"* %0, i64 0, i32 0, i32 0, i32 4, i32 0, i32 0, i32 0
  %5 = load %"class.base::ListValue"*, %"class.base::ListValue"** %4, align 8
  %6 = tail call %"struct.extensions::api::system_display::OverscanCalibrationReset::Params"* @_ZN10extensions3api14system_display24OverscanCalibrationReset6Params6CreateERKN4base9ListValueE(%"class.base::ListValue"* dereferenceable(32) %5) #9
  %7 = tail call %"class.extensions::DisplayInfoProvider"* @_ZN10extensions19DisplayInfoProvider3GetEv() #9
  %8 = getelementptr inbounds %"struct.extensions::api::system_display::OverscanCalibrationReset::Params", %"struct.extensions::api::system_display::OverscanCalibrationReset::Params"* %6, i64 0, i32 0
  %9 = bitcast %"class.extensions::DisplayInfoProvider"* %7 to i1 (%"class.extensions::DisplayInfoProvider"*, %"class.std::__1::basic_string"*)***
  %10 = load i1 (%"class.extensions::DisplayInfoProvider"*, %"class.std::__1::basic_string"*)**, i1 (%"class.extensions::DisplayInfoProvider"*, %"class.std::__1::basic_string"*)*** %9, align 8
  %11 = getelementptr inbounds i1 (%"class.extensions::DisplayInfoProvider"*, %"class.std::__1::basic_string"*)*, i1 (%"class.extensions::DisplayInfoProvider"*, %"class.std::__1::basic_string"*)** %10, i64 18
  %12 = load i1 (%"class.extensions::DisplayInfoProvider"*, %"class.std::__1::basic_string"*)*, i1 (%"class.extensions::DisplayInfoProvider"*, %"class.std::__1::basic_string"*)** %11, align 8
  %13 = tail call zeroext i1 %12(%"class.extensions::DisplayInfoProvider"* %7, %"class.std::__1::basic_string"* dereferenceable(24) %8) #9
  br i1 %13, label %24, label %14

14:                                               ; preds = %1
  call void @_ZNSt3__1plIcNS_11char_traitsIcEENS_9allocatorIcEEEENS_12basic_stringIT_T0_T1_EEPKS6_RKS9_(%"class.std::__1::basic_string"* nonnull sret %2, i8* getelementptr inbounds ([41 x i8], [41 x i8]* @.str.2, i64 0, i64 0), %"class.std::__1::basic_string"* dereferenceable(24) %8) #9
  %15 = call %"class.ExtensionFunction::ResponseValueObject"* @_ZN17ExtensionFunction5ErrorENSt3__112basic_stringIcNS0_11char_traitsIcEENS0_9allocatorIcEEEE(%class.ExtensionFunction* %3, %"class.std::__1::basic_string"* nonnull %2) #9
  %16 = call %"class.ExtensionFunction::ResponseActionObject"* @_ZN17ExtensionFunction10RespondNowENSt3__110unique_ptrINS_19ResponseValueObjectENS0_14default_deleteIS2_EEEE(%class.ExtensionFunction* %3, %"class.ExtensionFunction::ResponseValueObject"* %15) #9
  %17 = bitcast %"class.std::__1::basic_string"* %2 to %"struct.std::__1::basic_string<char, std::__1::char_traits<char>, std::__1::allocator<char> >::__short"*
  %18 = getelementptr inbounds %"struct.std::__1::basic_string<char, std::__1::char_traits<char>, std::__1::allocator<char> >::__short", %"struct.std::__1::basic_string<char, std::__1::char_traits<char>, std::__1::allocator<char> >::__short"* %17, i64 0, i32 1, i32 0
  %19 = load i8, i8* %18, align 1
  %20 = icmp slt i8 %19, 0
  br i1 %20, label %21, label %27

21:                                               ; preds = %14
  %22 = getelementptr inbounds %"class.std::__1::basic_string", %"class.std::__1::basic_string"* %2, i64 0, i32 0, i32 0, i32 0, i32 0, i32 0, i32 0
  %23 = load i8*, i8** %22, align 8
  call void @_ZdlPv(i8* %23) #10
  br label %27

24:                                               ; preds = %1
  %25 = tail call %"class.ExtensionFunction::ResponseValueObject"* @_ZN17ExtensionFunction11NoArgumentsEv(%class.ExtensionFunction* %3) #9
  %26 = tail call %"class.ExtensionFunction::ResponseActionObject"* @_ZN17ExtensionFunction10RespondNowENSt3__110unique_ptrINS_19ResponseValueObjectENS0_14default_deleteIS2_EEEE(%class.ExtensionFunction* %3, %"class.ExtensionFunction::ResponseValueObject"* %25) #9
  br label %27

27:                                               ; preds = %21, %14, %24
  %28 = phi %"class.ExtensionFunction::ResponseActionObject"* [ %26, %24 ], [ %16, %14 ], [ %16, %21 ]
  %29 = icmp eq %"struct.extensions::api::system_display::OverscanCalibrationReset::Params"* %6, null
  br i1 %29, label %32, label %30

30:                                               ; preds = %27
  call void @_ZN10extensions3api14system_display24OverscanCalibrationReset6ParamsD1Ev(%"struct.extensions::api::system_display::OverscanCalibrationReset::Params"* nonnull %6) #9
  %31 = bitcast %"struct.extensions::api::system_display::OverscanCalibrationReset::Params"* %6 to i8*
  call void @_ZdlPv(i8* %31) #10
  br label %32

32:                                               ; preds = %27, %30
  ret %"class.ExtensionFunction::ResponseActionObject"* %28
}

declare %"struct.extensions::api::system_display::OverscanCalibrationReset::Params"* @_ZN10extensions3api14system_display24OverscanCalibrationReset6Params6CreateERKN4base9ListValueE(%"class.base::ListValue"* dereferenceable(32)) local_unnamed_addr #1

; Function Attrs: nounwind ssp uwtable
define hidden %"class.ExtensionFunction::ResponseActionObject"* @_ZN10extensions48SystemDisplayOverscanCalibrationCompleteFunction3RunEv(%"class.extensions::SystemDisplayOverscanCalibrationCompleteFunction"*) unnamed_addr #0 align 2 {
  %2 = alloca %"class.std::__1::basic_string", align 8
  %3 = bitcast %"class.extensions::SystemDisplayOverscanCalibrationCompleteFunction"* %0 to %class.ExtensionFunction*
  %4 = getelementptr inbounds %"class.extensions::SystemDisplayOverscanCalibrationCompleteFunction", %"class.extensions::SystemDisplayOverscanCalibrationCompleteFunction"* %0, i64 0, i32 0, i32 0, i32 4, i32 0, i32 0, i32 0
  %5 = load %"class.base::ListValue"*, %"class.base::ListValue"** %4, align 8
  %6 = tail call %"struct.extensions::api::system_display::OverscanCalibrationComplete::Params"* @_ZN10extensions3api14system_display27OverscanCalibrationComplete6Params6CreateERKN4base9ListValueE(%"class.base::ListValue"* dereferenceable(32) %5) #9
  %7 = tail call %"class.extensions::DisplayInfoProvider"* @_ZN10extensions19DisplayInfoProvider3GetEv() #9
  %8 = getelementptr inbounds %"struct.extensions::api::system_display::OverscanCalibrationComplete::Params", %"struct.extensions::api::system_display::OverscanCalibrationComplete::Params"* %6, i64 0, i32 0
  %9 = bitcast %"class.extensions::DisplayInfoProvider"* %7 to i1 (%"class.extensions::DisplayInfoProvider"*, %"class.std::__1::basic_string"*)***
  %10 = load i1 (%"class.extensions::DisplayInfoProvider"*, %"class.std::__1::basic_string"*)**, i1 (%"class.extensions::DisplayInfoProvider"*, %"class.std::__1::basic_string"*)*** %9, align 8
  %11 = getelementptr inbounds i1 (%"class.extensions::DisplayInfoProvider"*, %"class.std::__1::basic_string"*)*, i1 (%"class.extensions::DisplayInfoProvider"*, %"class.std::__1::basic_string"*)** %10, i64 19
  %12 = load i1 (%"class.extensions::DisplayInfoProvider"*, %"class.std::__1::basic_string"*)*, i1 (%"class.extensions::DisplayInfoProvider"*, %"class.std::__1::basic_string"*)** %11, align 8
  %13 = tail call zeroext i1 %12(%"class.extensions::DisplayInfoProvider"* %7, %"class.std::__1::basic_string"* dereferenceable(24) %8) #9
  br i1 %13, label %24, label %14

14:                                               ; preds = %1
  call void @_ZNSt3__1plIcNS_11char_traitsIcEENS_9allocatorIcEEEENS_12basic_stringIT_T0_T1_EEPKS6_RKS9_(%"class.std::__1::basic_string"* nonnull sret %2, i8* getelementptr inbounds ([41 x i8], [41 x i8]* @.str.2, i64 0, i64 0), %"class.std::__1::basic_string"* dereferenceable(24) %8) #9
  %15 = call %"class.ExtensionFunction::ResponseValueObject"* @_ZN17ExtensionFunction5ErrorENSt3__112basic_stringIcNS0_11char_traitsIcEENS0_9allocatorIcEEEE(%class.ExtensionFunction* %3, %"class.std::__1::basic_string"* nonnull %2) #9
  %16 = call %"class.ExtensionFunction::ResponseActionObject"* @_ZN17ExtensionFunction10RespondNowENSt3__110unique_ptrINS_19ResponseValueObjectENS0_14default_deleteIS2_EEEE(%class.ExtensionFunction* %3, %"class.ExtensionFunction::ResponseValueObject"* %15) #9
  %17 = bitcast %"class.std::__1::basic_string"* %2 to %"struct.std::__1::basic_string<char, std::__1::char_traits<char>, std::__1::allocator<char> >::__short"*
  %18 = getelementptr inbounds %"struct.std::__1::basic_string<char, std::__1::char_traits<char>, std::__1::allocator<char> >::__short", %"struct.std::__1::basic_string<char, std::__1::char_traits<char>, std::__1::allocator<char> >::__short"* %17, i64 0, i32 1, i32 0
  %19 = load i8, i8* %18, align 1
  %20 = icmp slt i8 %19, 0
  br i1 %20, label %21, label %128

21:                                               ; preds = %14
  %22 = getelementptr inbounds %"class.std::__1::basic_string", %"class.std::__1::basic_string"* %2, i64 0, i32 0, i32 0, i32 0, i32 0, i32 0, i32 0
  %23 = load i8*, i8** %22, align 8
  call void @_ZdlPv(i8* %23) #10
  br label %128

24:                                               ; preds = %1
  %25 = tail call %"class.content::WebContents"* @_ZN17ExtensionFunction20GetSenderWebContentsEv(%class.ExtensionFunction* %3) #9
  %26 = load %"class.extensions::(anonymous namespace)::OverscanTracker"*, %"class.extensions::(anonymous namespace)::OverscanTracker"** @_ZN10extensions12_GLOBAL__N_118g_overscan_trackerE, align 8
  %27 = icmp eq %"class.extensions::(anonymous namespace)::OverscanTracker"* %26, null
  br i1 %27, label %125, label %28

28:                                               ; preds = %24
  %29 = getelementptr inbounds %"class.extensions::(anonymous namespace)::OverscanTracker", %"class.extensions::(anonymous namespace)::OverscanTracker"* %26, i64 0, i32 0, i32 0, i32 1, i32 0, i32 0
  %30 = bitcast %"class.std::__1::__tree_end_node"* %29 to %"class.std::__1::__tree_node"**
  %31 = load %"class.std::__1::__tree_node"*, %"class.std::__1::__tree_node"** %30, align 8
  %32 = icmp eq %"class.std::__1::__tree_node"* %31, null
  br i1 %32, label %125, label %33

33:                                               ; preds = %28, %33
  %34 = phi %"class.std::__1::__tree_end_node"* [ %44, %33 ], [ %29, %28 ]
  %35 = phi %"class.std::__1::__tree_node"* [ %45, %33 ], [ %31, %28 ]
  %36 = getelementptr inbounds %"class.std::__1::__tree_node", %"class.std::__1::__tree_node"* %35, i64 0, i32 1, i32 0, i32 0
  %37 = load %"class.content::WebContents"*, %"class.content::WebContents"** %36, align 8
  %38 = icmp ult %"class.content::WebContents"* %37, %25
  %39 = getelementptr inbounds %"class.std::__1::__tree_node", %"class.std::__1::__tree_node"* %35, i64 0, i32 0, i32 1
  %40 = bitcast %"class.std::__1::__tree_node_base"** %39 to %"class.std::__1::__tree_node"**
  %41 = getelementptr inbounds %"class.std::__1::__tree_node", %"class.std::__1::__tree_node"* %35, i64 0, i32 0, i32 0
  %42 = bitcast %"class.std::__1::__tree_node"* %35 to %"class.std::__1::__tree_node"**
  %43 = select i1 %38, %"class.std::__1::__tree_node"** %40, %"class.std::__1::__tree_node"** %42
  %44 = select i1 %38, %"class.std::__1::__tree_end_node"* %34, %"class.std::__1::__tree_end_node"* %41
  %45 = load %"class.std::__1::__tree_node"*, %"class.std::__1::__tree_node"** %43, align 8
  %46 = icmp eq %"class.std::__1::__tree_node"* %45, null
  br i1 %46, label %47, label %33

47:                                               ; preds = %33
  %48 = icmp eq %"class.std::__1::__tree_end_node"* %44, %29
  br i1 %48, label %125, label %49

49:                                               ; preds = %47
  %50 = getelementptr inbounds %"class.std::__1::__tree_end_node", %"class.std::__1::__tree_end_node"* %44, i64 4
  %51 = bitcast %"class.std::__1::__tree_end_node"* %50 to %"class.content::WebContents"**
  %52 = load %"class.content::WebContents"*, %"class.content::WebContents"** %51, align 8
  %53 = icmp ugt %"class.content::WebContents"* %52, %25
  br i1 %53, label %125, label %54

54:                                               ; preds = %49
  %55 = getelementptr inbounds %"class.std::__1::__tree_end_node", %"class.std::__1::__tree_end_node"* %44, i64 5
  %56 = bitcast %"class.std::__1::__tree_end_node"* %55 to %"class.extensions::(anonymous namespace)::OverscanTracker::OverscanWebObserver"**
  %57 = load %"class.extensions::(anonymous namespace)::OverscanTracker::OverscanWebObserver"*, %"class.extensions::(anonymous namespace)::OverscanTracker::OverscanWebObserver"** %56, align 8
  %58 = icmp eq %"class.extensions::(anonymous namespace)::OverscanTracker::OverscanWebObserver"* %57, null
  br i1 %58, label %125, label %59

59:                                               ; preds = %54
  %60 = getelementptr inbounds %"class.extensions::(anonymous namespace)::OverscanTracker::OverscanWebObserver", %"class.extensions::(anonymous namespace)::OverscanTracker::OverscanWebObserver"* %57, i64 0, i32 1
  %61 = getelementptr inbounds %"class.std::__1::set.369", %"class.std::__1::set.369"* %60, i64 0, i32 0
  %62 = tail call %"class.std::__1::__tree_end_node"* @_ZNSt3__16__treeINS_12basic_stringIcNS_11char_traitsIcEENS_9allocatorIcEEEENS_4lessIS6_EENS4_IS6_EEE4findIS6_EENS_15__tree_iteratorIS6_PNS_11__tree_nodeIS6_PvEElEERKT_(%"class.std::__1::__tree.370"* %61, %"class.std::__1::basic_string"* dereferenceable(24) %8) #9
  %63 = getelementptr inbounds %"class.extensions::(anonymous namespace)::OverscanTracker::OverscanWebObserver", %"class.extensions::(anonymous namespace)::OverscanTracker::OverscanWebObserver"* %57, i64 0, i32 1, i32 0, i32 1, i32 0, i32 0
  %64 = icmp eq %"class.std::__1::__tree_end_node"* %62, %63
  br i1 %64, label %118, label %65

65:                                               ; preds = %59
  %66 = getelementptr inbounds %"class.std::__1::__tree_end_node", %"class.std::__1::__tree_end_node"* %62, i64 1, i32 0
  %67 = load %"class.std::__1::__tree_node_base"*, %"class.std::__1::__tree_node_base"** %66, align 8
  %68 = icmp eq %"class.std::__1::__tree_node_base"* %67, null
  br i1 %68, label %69, label %77

69:                                               ; preds = %65
  %70 = bitcast %"class.std::__1::__tree_end_node"* %62 to %"class.std::__1::__tree_node_base"*
  %71 = getelementptr inbounds %"class.std::__1::__tree_end_node", %"class.std::__1::__tree_end_node"* %62, i64 2
  %72 = bitcast %"class.std::__1::__tree_end_node"* %71 to %"class.std::__1::__tree_end_node"**
  %73 = load %"class.std::__1::__tree_end_node"*, %"class.std::__1::__tree_end_node"** %72, align 8
  %74 = getelementptr inbounds %"class.std::__1::__tree_end_node", %"class.std::__1::__tree_end_node"* %73, i64 0, i32 0
  %75 = load %"class.std::__1::__tree_node_base"*, %"class.std::__1::__tree_node_base"** %74, align 8
  %76 = icmp eq %"class.std::__1::__tree_node_base"* %75, %70
  br i1 %76, label %93, label %84

77:                                               ; preds = %65, %77
  %78 = phi %"class.std::__1::__tree_node_base"* [ %80, %77 ], [ %67, %65 ]
  %79 = getelementptr inbounds %"class.std::__1::__tree_node_base", %"class.std::__1::__tree_node_base"* %78, i64 0, i32 0, i32 0
  %80 = load %"class.std::__1::__tree_node_base"*, %"class.std::__1::__tree_node_base"** %79, align 8
  %81 = icmp eq %"class.std::__1::__tree_node_base"* %80, null
  br i1 %81, label %82, label %77

82:                                               ; preds = %77
  %83 = getelementptr inbounds %"class.std::__1::__tree_node_base", %"class.std::__1::__tree_node_base"* %78, i64 0, i32 0
  br label %93

84:                                               ; preds = %69, %84
  %85 = phi %"class.std::__1::__tree_end_node"** [ %88, %84 ], [ %72, %69 ]
  %86 = bitcast %"class.std::__1::__tree_end_node"** %85 to %"class.std::__1::__tree_node_base"**
  %87 = load %"class.std::__1::__tree_node_base"*, %"class.std::__1::__tree_node_base"** %86, align 8
  %88 = getelementptr inbounds %"class.std::__1::__tree_node_base", %"class.std::__1::__tree_node_base"* %87, i64 0, i32 2
  %89 = load %"class.std::__1::__tree_end_node"*, %"class.std::__1::__tree_end_node"** %88, align 8
  %90 = getelementptr inbounds %"class.std::__1::__tree_end_node", %"class.std::__1::__tree_end_node"* %89, i64 0, i32 0
  %91 = load %"class.std::__1::__tree_node_base"*, %"class.std::__1::__tree_node_base"** %90, align 8
  %92 = icmp eq %"class.std::__1::__tree_node_base"* %91, %87
  br i1 %92, label %93, label %84

93:                                               ; preds = %84, %82, %69
  %94 = phi %"class.std::__1::__tree_end_node"* [ %83, %82 ], [ %73, %69 ], [ %89, %84 ]
  %95 = getelementptr inbounds %"class.std::__1::set.369", %"class.std::__1::set.369"* %60, i64 0, i32 0, i32 0
  %96 = load %"class.std::__1::__tree_end_node"*, %"class.std::__1::__tree_end_node"** %95, align 8
  %97 = icmp eq %"class.std::__1::__tree_end_node"* %96, %62
  br i1 %97, label %98, label %101

98:                                               ; preds = %93
  %99 = ptrtoint %"class.std::__1::__tree_end_node"* %94 to i64
  %100 = bitcast %"class.std::__1::set.369"* %60 to i64*
  store i64 %99, i64* %100, align 8
  br label %101

101:                                              ; preds = %98, %93
  %102 = getelementptr inbounds %"class.extensions::(anonymous namespace)::OverscanTracker::OverscanWebObserver", %"class.extensions::(anonymous namespace)::OverscanTracker::OverscanWebObserver"* %57, i64 0, i32 1, i32 0, i32 2, i32 0, i32 0
  %103 = load i64, i64* %102, align 8
  %104 = add i64 %103, -1
  store i64 %104, i64* %102, align 8
  %105 = getelementptr inbounds %"class.extensions::(anonymous namespace)::OverscanTracker::OverscanWebObserver", %"class.extensions::(anonymous namespace)::OverscanTracker::OverscanWebObserver"* %57, i64 0, i32 1, i32 0, i32 1, i32 0, i32 0, i32 0
  %106 = load %"class.std::__1::__tree_node_base"*, %"class.std::__1::__tree_node_base"** %105, align 8
  %107 = bitcast %"class.std::__1::__tree_end_node"* %62 to %"class.std::__1::__tree_node_base"*
  tail call void @_ZNSt3__113__tree_removeIPNS_16__tree_node_baseIPvEEEEvT_S5_(%"class.std::__1::__tree_node_base"* %106, %"class.std::__1::__tree_node_base"* %107) #9
  %108 = getelementptr inbounds %"class.std::__1::__tree_end_node", %"class.std::__1::__tree_end_node"* %62, i64 4
  %109 = bitcast %"class.std::__1::__tree_end_node"* %108 to %"struct.std::__1::basic_string<char, std::__1::char_traits<char>, std::__1::allocator<char> >::__short"*
  %110 = getelementptr inbounds %"struct.std::__1::basic_string<char, std::__1::char_traits<char>, std::__1::allocator<char> >::__short", %"struct.std::__1::basic_string<char, std::__1::char_traits<char>, std::__1::allocator<char> >::__short"* %109, i64 0, i32 1, i32 0
  %111 = load i8, i8* %110, align 1
  %112 = icmp slt i8 %111, 0
  br i1 %112, label %113, label %116

113:                                              ; preds = %101
  %114 = bitcast %"class.std::__1::__tree_end_node"* %108 to i8**
  %115 = load i8*, i8** %114, align 8
  tail call void @_ZdlPv(i8* %115) #10
  br label %116

116:                                              ; preds = %113, %101
  %117 = bitcast %"class.std::__1::__tree_end_node"* %62 to i8*
  tail call void @_ZdlPv(i8* %117) #10
  br label %118

118:                                              ; preds = %116, %59
  %119 = getelementptr inbounds %"class.extensions::(anonymous namespace)::OverscanTracker::OverscanWebObserver", %"class.extensions::(anonymous namespace)::OverscanTracker::OverscanWebObserver"* %57, i64 0, i32 1, i32 0, i32 2, i32 0, i32 0
  %120 = load i64, i64* %119, align 8
  %121 = icmp eq i64 %120, 0
  br i1 %121, label %122, label %125

122:                                              ; preds = %118
  %123 = getelementptr inbounds %"class.extensions::(anonymous namespace)::OverscanTracker::OverscanWebObserver", %"class.extensions::(anonymous namespace)::OverscanTracker::OverscanWebObserver"* %57, i64 0, i32 0
  %124 = tail call %"class.content::WebContents"* @_ZNK7content19WebContentsObserver12web_contentsEv(%"class.content::WebContentsObserver"* %123) #9
  tail call fastcc void @_ZN10extensions12_GLOBAL__N_115OverscanTracker14RemoveObserverEPN7content11WebContentsE(%"class.content::WebContents"* %124) #9
  br label %125

125:                                              ; preds = %24, %28, %47, %49, %54, %118, %122
  %126 = tail call %"class.ExtensionFunction::ResponseValueObject"* @_ZN17ExtensionFunction11NoArgumentsEv(%class.ExtensionFunction* %3) #9
  %127 = tail call %"class.ExtensionFunction::ResponseActionObject"* @_ZN17ExtensionFunction10RespondNowENSt3__110unique_ptrINS_19ResponseValueObjectENS0_14default_deleteIS2_EEEE(%class.ExtensionFunction* %3, %"class.ExtensionFunction::ResponseValueObject"* %126) #9
  br label %128

128:                                              ; preds = %21, %14, %125
  %129 = phi %"class.ExtensionFunction::ResponseActionObject"* [ %127, %125 ], [ %16, %14 ], [ %16, %21 ]
  %130 = icmp eq %"struct.extensions::api::system_display::OverscanCalibrationComplete::Params"* %6, null
  br i1 %130, label %133, label %131

131:                                              ; preds = %128
  call void @_ZN10extensions3api14system_display27OverscanCalibrationComplete6ParamsD1Ev(%"struct.extensions::api::system_display::OverscanCalibrationComplete::Params"* nonnull %6) #9
  %132 = bitcast %"struct.extensions::api::system_display::OverscanCalibrationComplete::Params"* %6 to i8*
  call void @_ZdlPv(i8* %132) #10
  br label %133

133:                                              ; preds = %128, %131
  ret %"class.ExtensionFunction::ResponseActionObject"* %129
}

declare %"struct.extensions::api::system_display::OverscanCalibrationComplete::Params"* @_ZN10extensions3api14system_display27OverscanCalibrationComplete6Params6CreateERKN4base9ListValueE(%"class.base::ListValue"* dereferenceable(32)) local_unnamed_addr #1

; Function Attrs: nounwind ssp uwtable
define hidden %"class.ExtensionFunction::ResponseActionObject"* @_ZN10extensions47SystemDisplayShowNativeTouchCalibrationFunction3RunEv(%"class.extensions::SystemDisplayShowNativeTouchCalibrationFunction"*) unnamed_addr #0 align 2 {
  %2 = alloca %"class.base::OnceCallback.268", align 8
  %3 = bitcast %"class.extensions::SystemDisplayShowNativeTouchCalibrationFunction"* %0 to %class.ExtensionFunction*
  %4 = getelementptr inbounds %"class.extensions::SystemDisplayShowNativeTouchCalibrationFunction", %"class.extensions::SystemDisplayShowNativeTouchCalibrationFunction"* %0, i64 0, i32 0, i32 0, i32 4, i32 0, i32 0, i32 0
  %5 = load %"class.base::ListValue"*, %"class.base::ListValue"** %4, align 8
  %6 = tail call %"struct.extensions::api::system_display::ShowNativeTouchCalibration::Params"* @_ZN10extensions3api14system_display26ShowNativeTouchCalibration6Params6CreateERKN4base9ListValueE(%"class.base::ListValue"* dereferenceable(32) %5) #9
  %7 = tail call %"class.extensions::DisplayInfoProvider"* @_ZN10extensions19DisplayInfoProvider3GetEv() #9
  %8 = getelementptr inbounds %"struct.extensions::api::system_display::ShowNativeTouchCalibration::Params", %"struct.extensions::api::system_display::ShowNativeTouchCalibration::Params"* %6, i64 0, i32 0
  %9 = tail call i8* @_Znwm(i64 56) #10, !noalias !23
  %10 = bitcast i8* %9 to %"class.base::internal::BindStateBase"*
  tail call void @_ZN4base8internal13BindStateBaseC2EPFvvEPFvPKS1_E(%"class.base::internal::BindStateBase"* nonnull %10, void ()* bitcast (void (%"class.base::internal::BindStateBase"*, %"class.absl::optional.269"*)* @_ZN4base8internal7InvokerINS0_9BindStateIMN10extensions47SystemDisplayShowNativeTouchCalibrationFunctionEFvN4absl8optionalINSt3__112basic_stringIcNS7_11char_traitsIcEENS7_9allocatorIcEEEEEEEJ13scoped_refptrIS4_EEEEFvSE_EE7RunOnceEPNS0_13BindStateBaseEOSE_ to void ()*), void (%"class.base::internal::BindStateBase"*)* nonnull @_ZN4base8internal9BindStateIMN10extensions47SystemDisplayShowNativeTouchCalibrationFunctionEFvN4absl8optionalINSt3__112basic_stringIcNS6_11char_traitsIcEENS6_9allocatorIcEEEEEEEJ13scoped_refptrIS3_EEE7DestroyEPKNS0_13BindStateBaseE) #9, !noalias !23
  %11 = getelementptr inbounds i8, i8* %9, i64 32
  %12 = bitcast i8* %11 to <2 x i64>*
  store <2 x i64> <i64 ptrtoint (void (%"class.extensions::SystemDisplayShowNativeTouchCalibrationFunction"*, %"class.absl::optional.269"*)* @_ZN10extensions47SystemDisplayShowNativeTouchCalibrationFunction21OnCalibrationCompleteEN4absl8optionalINSt3__112basic_stringIcNS3_11char_traitsIcEENS3_9allocatorIcEEEEEE to i64), i64 0>, <2 x i64>* %12, align 8, !noalias !23
  %13 = getelementptr inbounds i8, i8* %9, i64 48
  %14 = bitcast i8* %13 to %"class.extensions::SystemDisplayShowNativeTouchCalibrationFunction"**
  store %"class.extensions::SystemDisplayShowNativeTouchCalibrationFunction"* %0, %"class.extensions::SystemDisplayShowNativeTouchCalibrationFunction"** %14, align 8, !noalias !23
  %15 = icmp eq %"class.extensions::SystemDisplayShowNativeTouchCalibrationFunction"* %0, null
  br i1 %15, label %19, label %16

16:                                               ; preds = %1
  %17 = getelementptr inbounds %"class.extensions::SystemDisplayShowNativeTouchCalibrationFunction", %"class.extensions::SystemDisplayShowNativeTouchCalibrationFunction"* %0, i64 0, i32 0, i32 0, i32 1, i32 0, i32 0, i32 0, i32 0, i32 0, i32 0, i32 0, i32 0
  %18 = atomicrmw add i32* %17, i32 1 monotonic, !noalias !23
  br label %19

19:                                               ; preds = %1, %16
  %20 = bitcast %"class.base::OnceCallback.268"* %2 to i8**
  store i8* %9, i8** %20, align 8, !alias.scope !23
  %21 = bitcast %"class.extensions::DisplayInfoProvider"* %7 to void (%"class.extensions::DisplayInfoProvider"*, %"class.std::__1::basic_string"*, %"class.base::OnceCallback.268"*)***
  %22 = load void (%"class.extensions::DisplayInfoProvider"*, %"class.std::__1::basic_string"*, %"class.base::OnceCallback.268"*)**, void (%"class.extensions::DisplayInfoProvider"*, %"class.std::__1::basic_string"*, %"class.base::OnceCallback.268"*)*** %21, align 8
  %23 = getelementptr inbounds void (%"class.extensions::DisplayInfoProvider"*, %"class.std::__1::basic_string"*, %"class.base::OnceCallback.268"*)*, void (%"class.extensions::DisplayInfoProvider"*, %"class.std::__1::basic_string"*, %"class.base::OnceCallback.268"*)** %22, i64 20
  %24 = load void (%"class.extensions::DisplayInfoProvider"*, %"class.std::__1::basic_string"*, %"class.base::OnceCallback.268"*)*, void (%"class.extensions::DisplayInfoProvider"*, %"class.std::__1::basic_string"*, %"class.base::OnceCallback.268"*)** %23, align 8
  call void %24(%"class.extensions::DisplayInfoProvider"* %7, %"class.std::__1::basic_string"* dereferenceable(24) %8, %"class.base::OnceCallback.268"* nonnull %2) #9
  %25 = getelementptr inbounds %"class.base::OnceCallback.268", %"class.base::OnceCallback.268"* %2, i64 0, i32 0
  call void @_ZN4base8internal12CallbackBaseD2Ev(%"class.base::internal::CallbackBase"* nonnull %25) #9
  %26 = call %"class.ExtensionFunction::ResponseActionObject"* @_ZN17ExtensionFunction12RespondLaterEv(%class.ExtensionFunction* %3) #9
  %27 = icmp eq %"struct.extensions::api::system_display::ShowNativeTouchCalibration::Params"* %6, null
  br i1 %27, label %30, label %28

28:                                               ; preds = %19
  call void @_ZN10extensions3api14system_display26ShowNativeTouchCalibration6ParamsD1Ev(%"struct.extensions::api::system_display::ShowNativeTouchCalibration::Params"* nonnull %6) #9
  %29 = bitcast %"struct.extensions::api::system_display::ShowNativeTouchCalibration::Params"* %6 to i8*
  call void @_ZdlPv(i8* %29) #10
  br label %30

30:                                               ; preds = %19, %28
  ret %"class.ExtensionFunction::ResponseActionObject"* %26
}

declare %"struct.extensions::api::system_display::ShowNativeTouchCalibration::Params"* @_ZN10extensions3api14system_display26ShowNativeTouchCalibration6Params6CreateERKN4base9ListValueE(%"class.base::ListValue"* dereferenceable(32)) local_unnamed_addr #1

; Function Attrs: nounwind ssp uwtable
define hidden void @_ZN10extensions47SystemDisplayShowNativeTouchCalibrationFunction21OnCalibrationCompleteEN4absl8optionalINSt3__112basic_stringIcNS3_11char_traitsIcEENS3_9allocatorIcEEEEEE(%"class.extensions::SystemDisplayShowNativeTouchCalibrationFunction"*, %"class.absl::optional.269"* nocapture readonly) #0 align 2 {
  %3 = alloca %"class.std::__1::basic_string", align 8
  %4 = alloca %"class.base::Value", align 8
  %5 = bitcast %"class.extensions::SystemDisplayShowNativeTouchCalibrationFunction"* %0 to %class.ExtensionFunction*
  %6 = getelementptr inbounds %"class.absl::optional.269", %"class.absl::optional.269"* %1, i64 0, i32 0, i32 0, i32 0, i32 0
  %7 = load i8, i8* %6, align 8, !range !2
  %8 = icmp eq i8 %7, 0
  br i1 %8, label %23, label %9

9:                                                ; preds = %2
  %10 = getelementptr inbounds %"class.absl::optional.269", %"class.absl::optional.269"* %1, i64 0, i32 0, i32 0, i32 0, i32 1, i32 0
  %11 = bitcast %"class.std::__1::basic_string"* %10 to %"struct.std::__1::basic_string<char, std::__1::char_traits<char>, std::__1::allocator<char> >::__short"*
  %12 = getelementptr inbounds %"struct.std::__1::basic_string<char, std::__1::char_traits<char>, std::__1::allocator<char> >::__short", %"struct.std::__1::basic_string<char, std::__1::char_traits<char>, std::__1::allocator<char> >::__short"* %11, i64 0, i32 1, i32 0
  %13 = load i8, i8* %12, align 1
  %14 = icmp slt i8 %13, 0
  br i1 %14, label %18, label %15

15:                                               ; preds = %9
  %16 = bitcast %"class.std::__1::basic_string"* %3 to i8*
  %17 = bitcast %"class.std::__1::basic_string"* %10 to i8*
  call void @llvm.memcpy.p0i8.p0i8.i64(i8* nonnull align 8 %16, i8* align 8 %17, i64 24, i1 false) #9
  br label %25

18:                                               ; preds = %9
  %19 = getelementptr inbounds %"class.std::__1::basic_string", %"class.std::__1::basic_string"* %10, i64 0, i32 0, i32 0, i32 0, i32 0, i32 0, i32 0
  %20 = load i8*, i8** %19, align 8
  %21 = getelementptr inbounds %"class.absl::optional.269", %"class.absl::optional.269"* %1, i64 0, i32 0, i32 0, i32 0, i32 1, i32 0, i32 0, i32 0, i32 0, i32 0, i32 0, i32 1
  %22 = load i64, i64* %21, align 8
  call void @_ZNSt3__112basic_stringIcNS_11char_traitsIcEENS_9allocatorIcEEE25__init_copy_ctor_externalEPKcm(%"class.std::__1::basic_string"* nonnull %3, i8* %20, i64 %22) #9
  br label %25

23:                                               ; preds = %2
  call void @_ZN4base5ValueC1Eb(%"class.base::Value"* nonnull %4, i1 zeroext true) #9
  %24 = call %"class.ExtensionFunction::ResponseValueObject"* @_ZN17ExtensionFunction11OneArgumentEN4base5ValueE(%class.ExtensionFunction* %5, %"class.base::Value"* nonnull %4) #9
  call void @_ZN17ExtensionFunction7RespondENSt3__110unique_ptrINS_19ResponseValueObjectENS0_14default_deleteIS2_EEEE(%class.ExtensionFunction* %5, %"class.ExtensionFunction::ResponseValueObject"* %24) #9
  call void @_ZN4base5ValueD1Ev(%"class.base::Value"* nonnull %4) #9
  br label %34

25:                                               ; preds = %15, %18
  %26 = call %"class.ExtensionFunction::ResponseValueObject"* @_ZN17ExtensionFunction5ErrorENSt3__112basic_stringIcNS0_11char_traitsIcEENS0_9allocatorIcEEEE(%class.ExtensionFunction* %5, %"class.std::__1::basic_string"* nonnull %3) #9
  call void @_ZN17ExtensionFunction7RespondENSt3__110unique_ptrINS_19ResponseValueObjectENS0_14default_deleteIS2_EEEE(%class.ExtensionFunction* %5, %"class.ExtensionFunction::ResponseValueObject"* %26) #9
  %27 = bitcast %"class.std::__1::basic_string"* %3 to %"struct.std::__1::basic_string<char, std::__1::char_traits<char>, std::__1::allocator<char> >::__short"*
  %28 = getelementptr inbounds %"struct.std::__1::basic_string<char, std::__1::char_traits<char>, std::__1::allocator<char> >::__short", %"struct.std::__1::basic_string<char, std::__1::char_traits<char>, std::__1::allocator<char> >::__short"* %27, i64 0, i32 1, i32 0
  %29 = load i8, i8* %28, align 1
  %30 = icmp slt i8 %29, 0
  br i1 %30, label %31, label %34

31:                                               ; preds = %25
  %32 = getelementptr inbounds %"class.std::__1::basic_string", %"class.std::__1::basic_string"* %3, i64 0, i32 0, i32 0, i32 0, i32 0, i32 0, i32 0
  %33 = load i8*, i8** %32, align 8
  call void @_ZdlPv(i8* %33) #10
  br label %34

34:                                               ; preds = %31, %25, %23
  ret void
}

declare %"class.ExtensionFunction::ResponseValueObject"* @_ZN17ExtensionFunction11OneArgumentEN4base5ValueE(%class.ExtensionFunction*, %"class.base::Value"*) local_unnamed_addr #1

declare void @_ZN4base5ValueC1Eb(%"class.base::Value"*, i1 zeroext) unnamed_addr #1

; Function Attrs: nounwind
declare void @_ZN4base5ValueD1Ev(%"class.base::Value"*) unnamed_addr #3

; Function Attrs: nounwind ssp uwtable
define hidden %"class.ExtensionFunction::ResponseActionObject"* @_ZN10extensions48SystemDisplayStartCustomTouchCalibrationFunction3RunEv(%"class.extensions::SystemDisplayStartCustomTouchCalibrationFunction"*) unnamed_addr #0 align 2 {
  %2 = alloca %"class.std::__1::basic_string", align 8
  %3 = bitcast %"class.extensions::SystemDisplayStartCustomTouchCalibrationFunction"* %0 to %class.ExtensionFunction*
  %4 = getelementptr inbounds %"class.extensions::SystemDisplayStartCustomTouchCalibrationFunction", %"class.extensions::SystemDisplayStartCustomTouchCalibrationFunction"* %0, i64 0, i32 0, i32 0, i32 4, i32 0, i32 0, i32 0
  %5 = load %"class.base::ListValue"*, %"class.base::ListValue"** %4, align 8
  %6 = tail call %"struct.extensions::api::system_display::StartCustomTouchCalibration::Params"* @_ZN10extensions3api14system_display27StartCustomTouchCalibration6Params6CreateERKN4base9ListValueE(%"class.base::ListValue"* dereferenceable(32) %5) #9
  %7 = tail call %"class.extensions::DisplayInfoProvider"* @_ZN10extensions19DisplayInfoProvider3GetEv() #9
  %8 = getelementptr inbounds %"struct.extensions::api::system_display::StartCustomTouchCalibration::Params", %"struct.extensions::api::system_display::StartCustomTouchCalibration::Params"* %6, i64 0, i32 0
  %9 = bitcast %"class.extensions::DisplayInfoProvider"* %7 to i1 (%"class.extensions::DisplayInfoProvider"*, %"class.std::__1::basic_string"*)***
  %10 = load i1 (%"class.extensions::DisplayInfoProvider"*, %"class.std::__1::basic_string"*)**, i1 (%"class.extensions::DisplayInfoProvider"*, %"class.std::__1::basic_string"*)*** %9, align 8
  %11 = getelementptr inbounds i1 (%"class.extensions::DisplayInfoProvider"*, %"class.std::__1::basic_string"*)*, i1 (%"class.extensions::DisplayInfoProvider"*, %"class.std::__1::basic_string"*)** %10, i64 21
  %12 = load i1 (%"class.extensions::DisplayInfoProvider"*, %"class.std::__1::basic_string"*)*, i1 (%"class.extensions::DisplayInfoProvider"*, %"class.std::__1::basic_string"*)** %11, align 8
  %13 = tail call zeroext i1 %12(%"class.extensions::DisplayInfoProvider"* %7, %"class.std::__1::basic_string"* dereferenceable(24) %8) #9
  br i1 %13, label %28, label %14

14:                                               ; preds = %1
  %15 = tail call i8* @_Znwm(i64 64) #10
  %16 = getelementptr inbounds %"class.std::__1::basic_string", %"class.std::__1::basic_string"* %2, i64 0, i32 0, i32 0, i32 0, i32 0, i32 0, i32 0
  store i8* %15, i8** %16, align 8
  %17 = getelementptr inbounds %"class.std::__1::basic_string", %"class.std::__1::basic_string"* %2, i64 0, i32 0, i32 0, i32 0, i32 0, i32 0, i32 1
  %18 = bitcast i64* %17 to <2 x i64>*
  store <2 x i64> <i64 51, i64 -9223372036854775744>, <2 x i64>* %18, align 8
  tail call void @llvm.memcpy.p0i8.p0i8.i64(i8* nonnull align 1 %15, i8* align 1 getelementptr inbounds ([52 x i8], [52 x i8]* @.str.3, i64 0, i64 0), i64 51, i1 false) #9
  %19 = getelementptr inbounds i8, i8* %15, i64 51
  store i8 0, i8* %19, align 1
  %20 = call %"class.ExtensionFunction::ResponseValueObject"* @_ZN17ExtensionFunction5ErrorENSt3__112basic_stringIcNS0_11char_traitsIcEENS0_9allocatorIcEEEE(%class.ExtensionFunction* %3, %"class.std::__1::basic_string"* nonnull %2) #9
  %21 = call %"class.ExtensionFunction::ResponseActionObject"* @_ZN17ExtensionFunction10RespondNowENSt3__110unique_ptrINS_19ResponseValueObjectENS0_14default_deleteIS2_EEEE(%class.ExtensionFunction* %3, %"class.ExtensionFunction::ResponseValueObject"* %20) #9
  %22 = bitcast %"class.std::__1::basic_string"* %2 to %"struct.std::__1::basic_string<char, std::__1::char_traits<char>, std::__1::allocator<char> >::__short"*
  %23 = getelementptr inbounds %"struct.std::__1::basic_string<char, std::__1::char_traits<char>, std::__1::allocator<char> >::__short", %"struct.std::__1::basic_string<char, std::__1::char_traits<char>, std::__1::allocator<char> >::__short"* %22, i64 0, i32 1, i32 0
  %24 = load i8, i8* %23, align 1
  %25 = icmp slt i8 %24, 0
  br i1 %25, label %26, label %31

26:                                               ; preds = %14
  %27 = load i8*, i8** %16, align 8
  call void @_ZdlPv(i8* %27) #10
  br label %31

28:                                               ; preds = %1
  %29 = tail call %"class.ExtensionFunction::ResponseValueObject"* @_ZN17ExtensionFunction11NoArgumentsEv(%class.ExtensionFunction* %3) #9
  %30 = tail call %"class.ExtensionFunction::ResponseActionObject"* @_ZN17ExtensionFunction10RespondNowENSt3__110unique_ptrINS_19ResponseValueObjectENS0_14default_deleteIS2_EEEE(%class.ExtensionFunction* %3, %"class.ExtensionFunction::ResponseValueObject"* %29) #9
  br label %31

31:                                               ; preds = %26, %14, %28
  %32 = phi %"class.ExtensionFunction::ResponseActionObject"* [ %30, %28 ], [ %21, %14 ], [ %21, %26 ]
  %33 = icmp eq %"struct.extensions::api::system_display::StartCustomTouchCalibration::Params"* %6, null
  br i1 %33, label %36, label %34

34:                                               ; preds = %31
  call void @_ZN10extensions3api14system_display27StartCustomTouchCalibration6ParamsD1Ev(%"struct.extensions::api::system_display::StartCustomTouchCalibration::Params"* nonnull %6) #9
  %35 = bitcast %"struct.extensions::api::system_display::StartCustomTouchCalibration::Params"* %6 to i8*
  call void @_ZdlPv(i8* %35) #10
  br label %36

36:                                               ; preds = %31, %34
  ret %"class.ExtensionFunction::ResponseActionObject"* %32
}

declare %"struct.extensions::api::system_display::StartCustomTouchCalibration::Params"* @_ZN10extensions3api14system_display27StartCustomTouchCalibration6Params6CreateERKN4base9ListValueE(%"class.base::ListValue"* dereferenceable(32)) local_unnamed_addr #1

; Function Attrs: nounwind ssp uwtable
define hidden %"class.ExtensionFunction::ResponseActionObject"* @_ZN10extensions51SystemDisplayCompleteCustomTouchCalibrationFunction3RunEv(%"class.extensions::SystemDisplayCompleteCustomTouchCalibrationFunction"*) unnamed_addr #0 align 2 {
  %2 = alloca %"class.std::__1::basic_string", align 8
  %3 = bitcast %"class.extensions::SystemDisplayCompleteCustomTouchCalibrationFunction"* %0 to %class.ExtensionFunction*
  %4 = getelementptr inbounds %"class.extensions::SystemDisplayCompleteCustomTouchCalibrationFunction", %"class.extensions::SystemDisplayCompleteCustomTouchCalibrationFunction"* %0, i64 0, i32 0, i32 0, i32 4, i32 0, i32 0, i32 0
  %5 = load %"class.base::ListValue"*, %"class.base::ListValue"** %4, align 8
  %6 = tail call %"struct.extensions::api::system_display::CompleteCustomTouchCalibration::Params"* @_ZN10extensions3api14system_display30CompleteCustomTouchCalibration6Params6CreateERKN4base9ListValueE(%"class.base::ListValue"* dereferenceable(32) %5) #9
  %7 = tail call %"class.extensions::DisplayInfoProvider"* @_ZN10extensions19DisplayInfoProvider3GetEv() #9
  %8 = getelementptr inbounds %"struct.extensions::api::system_display::CompleteCustomTouchCalibration::Params", %"struct.extensions::api::system_display::CompleteCustomTouchCalibration::Params"* %6, i64 0, i32 0
  %9 = getelementptr inbounds %"struct.extensions::api::system_display::CompleteCustomTouchCalibration::Params", %"struct.extensions::api::system_display::CompleteCustomTouchCalibration::Params"* %6, i64 0, i32 1
  %10 = bitcast %"class.extensions::DisplayInfoProvider"* %7 to i1 (%"class.extensions::DisplayInfoProvider"*, %"struct.extensions::api::system_display::TouchCalibrationPairQuad"*, %"struct.extensions::api::system_display::Bounds"*)***
  %11 = load i1 (%"class.extensions::DisplayInfoProvider"*, %"struct.extensions::api::system_display::TouchCalibrationPairQuad"*, %"struct.extensions::api::system_display::Bounds"*)**, i1 (%"class.extensions::DisplayInfoProvider"*, %"struct.extensions::api::system_display::TouchCalibrationPairQuad"*, %"struct.extensions::api::system_display::Bounds"*)*** %10, align 8
  %12 = getelementptr inbounds i1 (%"class.extensions::DisplayInfoProvider"*, %"struct.extensions::api::system_display::TouchCalibrationPairQuad"*, %"struct.extensions::api::system_display::Bounds"*)*, i1 (%"class.extensions::DisplayInfoProvider"*, %"struct.extensions::api::system_display::TouchCalibrationPairQuad"*, %"struct.extensions::api::system_display::Bounds"*)** %11, i64 22
  %13 = load i1 (%"class.extensions::DisplayInfoProvider"*, %"struct.extensions::api::system_display::TouchCalibrationPairQuad"*, %"struct.extensions::api::system_display::Bounds"*)*, i1 (%"class.extensions::DisplayInfoProvider"*, %"struct.extensions::api::system_display::TouchCalibrationPairQuad"*, %"struct.extensions::api::system_display::Bounds"*)** %12, align 8
  %14 = tail call zeroext i1 %13(%"class.extensions::DisplayInfoProvider"* %7, %"struct.extensions::api::system_display::TouchCalibrationPairQuad"* dereferenceable(64) %8, %"struct.extensions::api::system_display::Bounds"* dereferenceable(16) %9) #9
  br i1 %14, label %29, label %15

15:                                               ; preds = %1
  %16 = tail call i8* @_Znwm(i64 48) #10
  %17 = getelementptr inbounds %"class.std::__1::basic_string", %"class.std::__1::basic_string"* %2, i64 0, i32 0, i32 0, i32 0, i32 0, i32 0, i32 0
  store i8* %16, i8** %17, align 8
  %18 = getelementptr inbounds %"class.std::__1::basic_string", %"class.std::__1::basic_string"* %2, i64 0, i32 0, i32 0, i32 0, i32 0, i32 0, i32 1
  %19 = bitcast i64* %18 to <2 x i64>*
  store <2 x i64> <i64 43, i64 -9223372036854775760>, <2 x i64>* %19, align 8
  tail call void @llvm.memcpy.p0i8.p0i8.i64(i8* nonnull align 1 %16, i8* align 1 getelementptr inbounds ([44 x i8], [44 x i8]* @.str.4, i64 0, i64 0), i64 43, i1 false) #9
  %20 = getelementptr inbounds i8, i8* %16, i64 43
  store i8 0, i8* %20, align 1
  %21 = call %"class.ExtensionFunction::ResponseValueObject"* @_ZN17ExtensionFunction5ErrorENSt3__112basic_stringIcNS0_11char_traitsIcEENS0_9allocatorIcEEEE(%class.ExtensionFunction* %3, %"class.std::__1::basic_string"* nonnull %2) #9
  %22 = call %"class.ExtensionFunction::ResponseActionObject"* @_ZN17ExtensionFunction10RespondNowENSt3__110unique_ptrINS_19ResponseValueObjectENS0_14default_deleteIS2_EEEE(%class.ExtensionFunction* %3, %"class.ExtensionFunction::ResponseValueObject"* %21) #9
  %23 = bitcast %"class.std::__1::basic_string"* %2 to %"struct.std::__1::basic_string<char, std::__1::char_traits<char>, std::__1::allocator<char> >::__short"*
  %24 = getelementptr inbounds %"struct.std::__1::basic_string<char, std::__1::char_traits<char>, std::__1::allocator<char> >::__short", %"struct.std::__1::basic_string<char, std::__1::char_traits<char>, std::__1::allocator<char> >::__short"* %23, i64 0, i32 1, i32 0
  %25 = load i8, i8* %24, align 1
  %26 = icmp slt i8 %25, 0
  br i1 %26, label %27, label %32

27:                                               ; preds = %15
  %28 = load i8*, i8** %17, align 8
  call void @_ZdlPv(i8* %28) #10
  br label %32

29:                                               ; preds = %1
  %30 = tail call %"class.ExtensionFunction::ResponseValueObject"* @_ZN17ExtensionFunction11NoArgumentsEv(%class.ExtensionFunction* %3) #9
  %31 = tail call %"class.ExtensionFunction::ResponseActionObject"* @_ZN17ExtensionFunction10RespondNowENSt3__110unique_ptrINS_19ResponseValueObjectENS0_14default_deleteIS2_EEEE(%class.ExtensionFunction* %3, %"class.ExtensionFunction::ResponseValueObject"* %30) #9
  br label %32

32:                                               ; preds = %27, %15, %29
  %33 = phi %"class.ExtensionFunction::ResponseActionObject"* [ %31, %29 ], [ %22, %15 ], [ %22, %27 ]
  %34 = icmp eq %"struct.extensions::api::system_display::CompleteCustomTouchCalibration::Params"* %6, null
  br i1 %34, label %37, label %35

35:                                               ; preds = %32
  call void @_ZN10extensions3api14system_display30CompleteCustomTouchCalibration6ParamsD1Ev(%"struct.extensions::api::system_display::CompleteCustomTouchCalibration::Params"* nonnull %6) #9
  %36 = bitcast %"struct.extensions::api::system_display::CompleteCustomTouchCalibration::Params"* %6 to i8*
  call void @_ZdlPv(i8* %36) #10
  br label %37

37:                                               ; preds = %32, %35
  ret %"class.ExtensionFunction::ResponseActionObject"* %33
}

declare %"struct.extensions::api::system_display::CompleteCustomTouchCalibration::Params"* @_ZN10extensions3api14system_display30CompleteCustomTouchCalibration6Params6CreateERKN4base9ListValueE(%"class.base::ListValue"* dereferenceable(32)) local_unnamed_addr #1

; Function Attrs: nounwind ssp uwtable
define hidden %"class.ExtensionFunction::ResponseActionObject"* @_ZN10extensions42SystemDisplayClearTouchCalibrationFunction3RunEv(%"class.extensions::SystemDisplayClearTouchCalibrationFunction"*) unnamed_addr #0 align 2 {
  %2 = alloca %"class.std::__1::basic_string", align 8
  %3 = bitcast %"class.extensions::SystemDisplayClearTouchCalibrationFunction"* %0 to %class.ExtensionFunction*
  %4 = getelementptr inbounds %"class.extensions::SystemDisplayClearTouchCalibrationFunction", %"class.extensions::SystemDisplayClearTouchCalibrationFunction"* %0, i64 0, i32 0, i32 0, i32 4, i32 0, i32 0, i32 0
  %5 = load %"class.base::ListValue"*, %"class.base::ListValue"** %4, align 8
  %6 = tail call %"struct.extensions::api::system_display::ClearTouchCalibration::Params"* @_ZN10extensions3api14system_display21ClearTouchCalibration6Params6CreateERKN4base9ListValueE(%"class.base::ListValue"* dereferenceable(32) %5) #9
  %7 = tail call %"class.extensions::DisplayInfoProvider"* @_ZN10extensions19DisplayInfoProvider3GetEv() #9
  %8 = getelementptr inbounds %"struct.extensions::api::system_display::ClearTouchCalibration::Params", %"struct.extensions::api::system_display::ClearTouchCalibration::Params"* %6, i64 0, i32 0
  %9 = bitcast %"class.extensions::DisplayInfoProvider"* %7 to i1 (%"class.extensions::DisplayInfoProvider"*, %"class.std::__1::basic_string"*)***
  %10 = load i1 (%"class.extensions::DisplayInfoProvider"*, %"class.std::__1::basic_string"*)**, i1 (%"class.extensions::DisplayInfoProvider"*, %"class.std::__1::basic_string"*)*** %9, align 8
  %11 = getelementptr inbounds i1 (%"class.extensions::DisplayInfoProvider"*, %"class.std::__1::basic_string"*)*, i1 (%"class.extensions::DisplayInfoProvider"*, %"class.std::__1::basic_string"*)** %10, i64 23
  %12 = load i1 (%"class.extensions::DisplayInfoProvider"*, %"class.std::__1::basic_string"*)*, i1 (%"class.extensions::DisplayInfoProvider"*, %"class.std::__1::basic_string"*)** %11, align 8
  %13 = tail call zeroext i1 %12(%"class.extensions::DisplayInfoProvider"* %7, %"class.std::__1::basic_string"* dereferenceable(24) %8) #9
  br i1 %13, label %28, label %14

14:                                               ; preds = %1
  %15 = tail call i8* @_Znwm(i64 48) #10
  %16 = getelementptr inbounds %"class.std::__1::basic_string", %"class.std::__1::basic_string"* %2, i64 0, i32 0, i32 0, i32 0, i32 0, i32 0, i32 0
  store i8* %15, i8** %16, align 8
  %17 = getelementptr inbounds %"class.std::__1::basic_string", %"class.std::__1::basic_string"* %2, i64 0, i32 0, i32 0, i32 0, i32 0, i32 0, i32 1
  %18 = bitcast i64* %17 to <2 x i64>*
  store <2 x i64> <i64 46, i64 -9223372036854775760>, <2 x i64>* %18, align 8
  tail call void @llvm.memcpy.p0i8.p0i8.i64(i8* nonnull align 1 %15, i8* align 1 getelementptr inbounds ([47 x i8], [47 x i8]* @.str.5, i64 0, i64 0), i64 46, i1 false) #9
  %19 = getelementptr inbounds i8, i8* %15, i64 46
  store i8 0, i8* %19, align 1
  %20 = call %"class.ExtensionFunction::ResponseValueObject"* @_ZN17ExtensionFunction5ErrorENSt3__112basic_stringIcNS0_11char_traitsIcEENS0_9allocatorIcEEEE(%class.ExtensionFunction* %3, %"class.std::__1::basic_string"* nonnull %2) #9
  %21 = call %"class.ExtensionFunction::ResponseActionObject"* @_ZN17ExtensionFunction10RespondNowENSt3__110unique_ptrINS_19ResponseValueObjectENS0_14default_deleteIS2_EEEE(%class.ExtensionFunction* %3, %"class.ExtensionFunction::ResponseValueObject"* %20) #9
  %22 = bitcast %"class.std::__1::basic_string"* %2 to %"struct.std::__1::basic_string<char, std::__1::char_traits<char>, std::__1::allocator<char> >::__short"*
  %23 = getelementptr inbounds %"struct.std::__1::basic_string<char, std::__1::char_traits<char>, std::__1::allocator<char> >::__short", %"struct.std::__1::basic_string<char, std::__1::char_traits<char>, std::__1::allocator<char> >::__short"* %22, i64 0, i32 1, i32 0
  %24 = load i8, i8* %23, align 1
  %25 = icmp slt i8 %24, 0
  br i1 %25, label %26, label %31

26:                                               ; preds = %14
  %27 = load i8*, i8** %16, align 8
  call void @_ZdlPv(i8* %27) #10
  br label %31

28:                                               ; preds = %1
  %29 = tail call %"class.ExtensionFunction::ResponseValueObject"* @_ZN17ExtensionFunction11NoArgumentsEv(%class.ExtensionFunction* %3) #9
  %30 = tail call %"class.ExtensionFunction::ResponseActionObject"* @_ZN17ExtensionFunction10RespondNowENSt3__110unique_ptrINS_19ResponseValueObjectENS0_14default_deleteIS2_EEEE(%class.ExtensionFunction* %3, %"class.ExtensionFunction::ResponseValueObject"* %29) #9
  br label %31

31:                                               ; preds = %26, %14, %28
  %32 = phi %"class.ExtensionFunction::ResponseActionObject"* [ %30, %28 ], [ %21, %14 ], [ %21, %26 ]
  %33 = icmp eq %"struct.extensions::api::system_display::ClearTouchCalibration::Params"* %6, null
  br i1 %33, label %36, label %34

34:                                               ; preds = %31
  call void @_ZN10extensions3api14system_display21ClearTouchCalibration6ParamsD1Ev(%"struct.extensions::api::system_display::ClearTouchCalibration::Params"* nonnull %6) #9
  %35 = bitcast %"struct.extensions::api::system_display::ClearTouchCalibration::Params"* %6 to i8*
  call void @_ZdlPv(i8* %35) #10
  br label %36

36:                                               ; preds = %31, %34
  ret %"class.ExtensionFunction::ResponseActionObject"* %32
}

declare %"struct.extensions::api::system_display::ClearTouchCalibration::Params"* @_ZN10extensions3api14system_display21ClearTouchCalibration6Params6CreateERKN4base9ListValueE(%"class.base::ListValue"* dereferenceable(32)) local_unnamed_addr #1

; Function Attrs: nounwind ssp uwtable
define hidden %"class.ExtensionFunction::ResponseActionObject"* @_ZN10extensions34SystemDisplaySetMirrorModeFunction3RunEv(%"class.extensions::SystemDisplaySetMirrorModeFunction"*) unnamed_addr #0 align 2 {
  %2 = alloca %"class.base::OnceCallback.268", align 8
  %3 = bitcast %"class.extensions::SystemDisplaySetMirrorModeFunction"* %0 to %class.ExtensionFunction*
  %4 = getelementptr inbounds %"class.extensions::SystemDisplaySetMirrorModeFunction", %"class.extensions::SystemDisplaySetMirrorModeFunction"* %0, i64 0, i32 0, i32 0, i32 4, i32 0, i32 0, i32 0
  %5 = load %"class.base::ListValue"*, %"class.base::ListValue"** %4, align 8
  %6 = tail call %"struct.extensions::api::system_display::SetMirrorMode::Params"* @_ZN10extensions3api14system_display13SetMirrorMode6Params6CreateERKN4base9ListValueE(%"class.base::ListValue"* dereferenceable(32) %5) #9
  %7 = tail call %"class.extensions::DisplayInfoProvider"* @_ZN10extensions19DisplayInfoProvider3GetEv() #9
  %8 = getelementptr inbounds %"struct.extensions::api::system_display::SetMirrorMode::Params", %"struct.extensions::api::system_display::SetMirrorMode::Params"* %6, i64 0, i32 0
  %9 = tail call i8* @_Znwm(i64 56) #10, !noalias !28
  %10 = bitcast i8* %9 to %"class.base::internal::BindStateBase"*
  tail call void @_ZN4base8internal13BindStateBaseC2EPFvvEPFvPKS1_E(%"class.base::internal::BindStateBase"* nonnull %10, void ()* bitcast (void (%"class.base::internal::BindStateBase"*, %"class.absl::optional.269"*)* @_ZN4base8internal7InvokerINS0_9BindStateIMN10extensions34SystemDisplaySetMirrorModeFunctionEFvN4absl8optionalINSt3__112basic_stringIcNS7_11char_traitsIcEENS7_9allocatorIcEEEEEEEJ13scoped_refptrIS4_EEEEFvSE_EE7RunOnceEPNS0_13BindStateBaseEOSE_ to void ()*), void (%"class.base::internal::BindStateBase"*)* nonnull @_ZN4base8internal9BindStateIMN10extensions34SystemDisplaySetMirrorModeFunctionEFvN4absl8optionalINSt3__112basic_stringIcNS6_11char_traitsIcEENS6_9allocatorIcEEEEEEEJ13scoped_refptrIS3_EEE7DestroyEPKNS0_13BindStateBaseE) #9, !noalias !28
  %11 = getelementptr inbounds i8, i8* %9, i64 32
  %12 = bitcast i8* %11 to <2 x i64>*
  store <2 x i64> <i64 ptrtoint (void (%"class.extensions::SystemDisplaySetMirrorModeFunction"*, %"class.absl::optional.269"*)* @_ZN10extensions34SystemDisplaySetMirrorModeFunction8ResponseEN4absl8optionalINSt3__112basic_stringIcNS3_11char_traitsIcEENS3_9allocatorIcEEEEEE to i64), i64 0>, <2 x i64>* %12, align 8, !noalias !28
  %13 = getelementptr inbounds i8, i8* %9, i64 48
  %14 = bitcast i8* %13 to %"class.extensions::SystemDisplaySetMirrorModeFunction"**
  store %"class.extensions::SystemDisplaySetMirrorModeFunction"* %0, %"class.extensions::SystemDisplaySetMirrorModeFunction"** %14, align 8, !noalias !28
  %15 = icmp eq %"class.extensions::SystemDisplaySetMirrorModeFunction"* %0, null
  br i1 %15, label %19, label %16

16:                                               ; preds = %1
  %17 = getelementptr inbounds %"class.extensions::SystemDisplaySetMirrorModeFunction", %"class.extensions::SystemDisplaySetMirrorModeFunction"* %0, i64 0, i32 0, i32 0, i32 1, i32 0, i32 0, i32 0, i32 0, i32 0, i32 0, i32 0, i32 0
  %18 = atomicrmw add i32* %17, i32 1 monotonic, !noalias !28
  br label %19

19:                                               ; preds = %1, %16
  %20 = bitcast %"class.base::OnceCallback.268"* %2 to i8**
  store i8* %9, i8** %20, align 8, !alias.scope !28
  %21 = bitcast %"class.extensions::DisplayInfoProvider"* %7 to void (%"class.extensions::DisplayInfoProvider"*, %"struct.extensions::api::system_display::MirrorModeInfo"*, %"class.base::OnceCallback.268"*)***
  %22 = load void (%"class.extensions::DisplayInfoProvider"*, %"struct.extensions::api::system_display::MirrorModeInfo"*, %"class.base::OnceCallback.268"*)**, void (%"class.extensions::DisplayInfoProvider"*, %"struct.extensions::api::system_display::MirrorModeInfo"*, %"class.base::OnceCallback.268"*)*** %21, align 8
  %23 = getelementptr inbounds void (%"class.extensions::DisplayInfoProvider"*, %"struct.extensions::api::system_display::MirrorModeInfo"*, %"class.base::OnceCallback.268"*)*, void (%"class.extensions::DisplayInfoProvider"*, %"struct.extensions::api::system_display::MirrorModeInfo"*, %"class.base::OnceCallback.268"*)** %22, i64 24
  %24 = load void (%"class.extensions::DisplayInfoProvider"*, %"struct.extensions::api::system_display::MirrorModeInfo"*, %"class.base::OnceCallback.268"*)*, void (%"class.extensions::DisplayInfoProvider"*, %"struct.extensions::api::system_display::MirrorModeInfo"*, %"class.base::OnceCallback.268"*)** %23, align 8
  call void %24(%"class.extensions::DisplayInfoProvider"* %7, %"struct.extensions::api::system_display::MirrorModeInfo"* dereferenceable(24) %8, %"class.base::OnceCallback.268"* nonnull %2) #9
  %25 = getelementptr inbounds %"class.base::OnceCallback.268", %"class.base::OnceCallback.268"* %2, i64 0, i32 0
  call void @_ZN4base8internal12CallbackBaseD2Ev(%"class.base::internal::CallbackBase"* nonnull %25) #9
  %26 = call %"class.ExtensionFunction::ResponseActionObject"* @_ZN17ExtensionFunction12RespondLaterEv(%class.ExtensionFunction* %3) #9
  %27 = icmp eq %"struct.extensions::api::system_display::SetMirrorMode::Params"* %6, null
  br i1 %27, label %30, label %28

28:                                               ; preds = %19
  call void @_ZN10extensions3api14system_display13SetMirrorMode6ParamsD1Ev(%"struct.extensions::api::system_display::SetMirrorMode::Params"* nonnull %6) #9
  %29 = bitcast %"struct.extensions::api::system_display::SetMirrorMode::Params"* %6 to i8*
  call void @_ZdlPv(i8* %29) #10
  br label %30

30:                                               ; preds = %19, %28
  ret %"class.ExtensionFunction::ResponseActionObject"* %26
}

declare %"struct.extensions::api::system_display::SetMirrorMode::Params"* @_ZN10extensions3api14system_display13SetMirrorMode6Params6CreateERKN4base9ListValueE(%"class.base::ListValue"* dereferenceable(32)) local_unnamed_addr #1

; Function Attrs: nounwind ssp uwtable
define hidden void @_ZN10extensions34SystemDisplaySetMirrorModeFunction8ResponseEN4absl8optionalINSt3__112basic_stringIcNS3_11char_traitsIcEENS3_9allocatorIcEEEEEE(%"class.extensions::SystemDisplaySetMirrorModeFunction"*, %"class.absl::optional.269"* nocapture readonly) #0 align 2 {
  %3 = alloca %"class.std::__1::basic_string", align 8
  %4 = bitcast %"class.extensions::SystemDisplaySetMirrorModeFunction"* %0 to %class.ExtensionFunction*
  %5 = getelementptr inbounds %"class.absl::optional.269", %"class.absl::optional.269"* %1, i64 0, i32 0, i32 0, i32 0, i32 0
  %6 = load i8, i8* %5, align 8, !range !2
  %7 = icmp eq i8 %6, 0
  br i1 %7, label %31, label %8

8:                                                ; preds = %2
  %9 = getelementptr inbounds %"class.absl::optional.269", %"class.absl::optional.269"* %1, i64 0, i32 0, i32 0, i32 0, i32 1, i32 0
  %10 = bitcast %"class.std::__1::basic_string"* %9 to %"struct.std::__1::basic_string<char, std::__1::char_traits<char>, std::__1::allocator<char> >::__short"*
  %11 = getelementptr inbounds %"struct.std::__1::basic_string<char, std::__1::char_traits<char>, std::__1::allocator<char> >::__short", %"struct.std::__1::basic_string<char, std::__1::char_traits<char>, std::__1::allocator<char> >::__short"* %10, i64 0, i32 1, i32 0
  %12 = load i8, i8* %11, align 1
  %13 = icmp slt i8 %12, 0
  br i1 %13, label %17, label %14

14:                                               ; preds = %8
  %15 = bitcast %"class.std::__1::basic_string"* %3 to i8*
  %16 = bitcast %"class.std::__1::basic_string"* %9 to i8*
  call void @llvm.memcpy.p0i8.p0i8.i64(i8* nonnull align 8 %15, i8* align 8 %16, i64 24, i1 false) #9
  br label %22

17:                                               ; preds = %8
  %18 = getelementptr inbounds %"class.std::__1::basic_string", %"class.std::__1::basic_string"* %9, i64 0, i32 0, i32 0, i32 0, i32 0, i32 0, i32 0
  %19 = load i8*, i8** %18, align 8
  %20 = getelementptr inbounds %"class.absl::optional.269", %"class.absl::optional.269"* %1, i64 0, i32 0, i32 0, i32 0, i32 1, i32 0, i32 0, i32 0, i32 0, i32 0, i32 0, i32 1
  %21 = load i64, i64* %20, align 8
  call void @_ZNSt3__112basic_stringIcNS_11char_traitsIcEENS_9allocatorIcEEE25__init_copy_ctor_externalEPKcm(%"class.std::__1::basic_string"* nonnull %3, i8* %19, i64 %21) #9
  br label %22

22:                                               ; preds = %14, %17
  %23 = call %"class.ExtensionFunction::ResponseValueObject"* @_ZN17ExtensionFunction5ErrorENSt3__112basic_stringIcNS0_11char_traitsIcEENS0_9allocatorIcEEEE(%class.ExtensionFunction* %4, %"class.std::__1::basic_string"* nonnull %3) #9
  call void @_ZN17ExtensionFunction7RespondENSt3__110unique_ptrINS_19ResponseValueObjectENS0_14default_deleteIS2_EEEE(%class.ExtensionFunction* %4, %"class.ExtensionFunction::ResponseValueObject"* %23) #9
  %24 = bitcast %"class.std::__1::basic_string"* %3 to %"struct.std::__1::basic_string<char, std::__1::char_traits<char>, std::__1::allocator<char> >::__short"*
  %25 = getelementptr inbounds %"struct.std::__1::basic_string<char, std::__1::char_traits<char>, std::__1::allocator<char> >::__short", %"struct.std::__1::basic_string<char, std::__1::char_traits<char>, std::__1::allocator<char> >::__short"* %24, i64 0, i32 1, i32 0
  %26 = load i8, i8* %25, align 1
  %27 = icmp slt i8 %26, 0
  br i1 %27, label %28, label %33

28:                                               ; preds = %22
  %29 = getelementptr inbounds %"class.std::__1::basic_string", %"class.std::__1::basic_string"* %3, i64 0, i32 0, i32 0, i32 0, i32 0, i32 0, i32 0
  %30 = load i8*, i8** %29, align 8
  call void @_ZdlPv(i8* %30) #10
  br label %33

31:                                               ; preds = %2
  %32 = tail call %"class.ExtensionFunction::ResponseValueObject"* @_ZN17ExtensionFunction11NoArgumentsEv(%class.ExtensionFunction* %4) #9
  tail call void @_ZN17ExtensionFunction7RespondENSt3__110unique_ptrINS_19ResponseValueObjectENS0_14default_deleteIS2_EEEE(%class.ExtensionFunction* %4, %"class.ExtensionFunction::ResponseValueObject"* %32) #9
  br label %33

33:                                               ; preds = %28, %22, %31
  ret void
}

declare void @__cxa_pure_virtual() unnamed_addr

declare zeroext i1 @_ZNK17ExtensionFunction23ShouldSkipQuotaLimitingEv(%class.ExtensionFunction*) unnamed_addr #1

; Function Attrs: nounwind ssp uwtable
define linkonce_odr hidden void @_ZNK17ExtensionFunction23GetQuotaLimitHeuristicsEPNSt3__14listINS0_10unique_ptrIN10extensions19QuotaLimitHeuristicENS0_14default_deleteIS4_EEEENS0_9allocatorIS7_EEEE(%class.ExtensionFunction*, %"class.std::__1::list"*) unnamed_addr #0 comdat align 2 {
  ret void
}

declare void @_ZN17ExtensionFunction15OnQuotaExceededENSt3__112basic_stringIcNS0_11char_traitsIcEENS0_9allocatorIcEEEE(%class.ExtensionFunction*, %"class.std::__1::basic_string"*) unnamed_addr #1

declare dereferenceable(24) %"class.std::__1::basic_string"* @_ZNK17ExtensionFunction8GetErrorEv(%class.ExtensionFunction*) unnamed_addr #1

declare void @_ZN17ExtensionFunction13SetBadMessageEv(%class.ExtensionFunction*) unnamed_addr #1

declare void @_ZN17ExtensionFunction7SetNameEPKc(%class.ExtensionFunction*, i8*) unnamed_addr #1

declare zeroext i1 @_ZN17ExtensionFunction17OnMessageReceivedERKN3IPC7MessageE(%class.ExtensionFunction*, %"class.IPC::Message"* dereferenceable(56)) unnamed_addr #1

declare void @_ZN17ExtensionFunction18OnServiceWorkerAckEv(%class.ExtensionFunction*) unnamed_addr #1

; Function Attrs: nounwind ssp uwtable
define linkonce_odr hidden void @_ZN10extensions35SystemDisplayCrOSRestrictedFunctionD0Ev(%"class.extensions::SystemDisplayCrOSRestrictedFunction"*) unnamed_addr #0 comdat align 2 {
  tail call void @llvm.trap() #11
  unreachable
}

declare void @_ZN17ExtensionFunction11OnRespondedEv(%class.ExtensionFunction*) unnamed_addr #1

; Function Attrs: nounwind ssp uwtable
define linkonce_odr hidden void @_ZN10extensions28SystemDisplayGetInfoFunctionD0Ev(%"class.extensions::SystemDisplayGetInfoFunction"*) unnamed_addr #0 comdat align 2 {
  %2 = bitcast %"class.extensions::SystemDisplayGetInfoFunction"* %0 to %class.ExtensionFunction*
  tail call void @_ZN17ExtensionFunctionD2Ev(%class.ExtensionFunction* %2) #9
  %3 = bitcast %"class.extensions::SystemDisplayGetInfoFunction"* %0 to i8*
  tail call void @_ZdlPv(i8* %3) #10
  ret void
}

; Function Attrs: nounwind ssp uwtable
define linkonce_odr hidden void @_ZN10extensions37SystemDisplayGetDisplayLayoutFunctionD0Ev(%"class.extensions::SystemDisplayGetDisplayLayoutFunction"*) unnamed_addr #0 comdat align 2 {
  %2 = bitcast %"class.extensions::SystemDisplayGetDisplayLayoutFunction"* %0 to %class.ExtensionFunction*
  tail call void @_ZN17ExtensionFunctionD2Ev(%class.ExtensionFunction* %2) #9
  %3 = bitcast %"class.extensions::SystemDisplayGetDisplayLayoutFunction"* %0 to i8*
  tail call void @_ZdlPv(i8* %3) #10
  ret void
}

; Function Attrs: nounwind ssp uwtable
define linkonce_odr hidden void @_ZN10extensions41SystemDisplaySetDisplayPropertiesFunctionD0Ev(%"class.extensions::SystemDisplaySetDisplayPropertiesFunction"*) unnamed_addr #0 comdat align 2 {
  %2 = bitcast %"class.extensions::SystemDisplaySetDisplayPropertiesFunction"* %0 to %class.ExtensionFunction*
  tail call void @_ZN17ExtensionFunctionD2Ev(%class.ExtensionFunction* %2) #9
  %3 = bitcast %"class.extensions::SystemDisplaySetDisplayPropertiesFunction"* %0 to i8*
  tail call void @_ZdlPv(i8* %3) #10
  ret void
}

; Function Attrs: nounwind ssp uwtable
define linkonce_odr hidden void @_ZN10extensions37SystemDisplaySetDisplayLayoutFunctionD0Ev(%"class.extensions::SystemDisplaySetDisplayLayoutFunction"*) unnamed_addr #0 comdat align 2 {
  %2 = bitcast %"class.extensions::SystemDisplaySetDisplayLayoutFunction"* %0 to %class.ExtensionFunction*
  tail call void @_ZN17ExtensionFunctionD2Ev(%class.ExtensionFunction* %2) #9
  %3 = bitcast %"class.extensions::SystemDisplaySetDisplayLayoutFunction"* %0 to i8*
  tail call void @_ZdlPv(i8* %3) #10
  ret void
}

; Function Attrs: nounwind ssp uwtable
define linkonce_odr hidden void @_ZN10extensions41SystemDisplayEnableUnifiedDesktopFunctionD0Ev(%"class.extensions::SystemDisplayEnableUnifiedDesktopFunction"*) unnamed_addr #0 comdat align 2 {
  %2 = bitcast %"class.extensions::SystemDisplayEnableUnifiedDesktopFunction"* %0 to %class.ExtensionFunction*
  tail call void @_ZN17ExtensionFunctionD2Ev(%class.ExtensionFunction* %2) #9
  %3 = bitcast %"class.extensions::SystemDisplayEnableUnifiedDesktopFunction"* %0 to i8*
  tail call void @_ZdlPv(i8* %3) #10
  ret void
}

; Function Attrs: nounwind ssp uwtable
define linkonce_odr hidden void @_ZN10extensions45SystemDisplayOverscanCalibrationStartFunctionD0Ev(%"class.extensions::SystemDisplayOverscanCalibrationStartFunction"*) unnamed_addr #0 comdat align 2 {
  %2 = bitcast %"class.extensions::SystemDisplayOverscanCalibrationStartFunction"* %0 to %class.ExtensionFunction*
  tail call void @_ZN17ExtensionFunctionD2Ev(%class.ExtensionFunction* %2) #9
  %3 = bitcast %"class.extensions::SystemDisplayOverscanCalibrationStartFunction"* %0 to i8*
  tail call void @_ZdlPv(i8* %3) #10
  ret void
}

; Function Attrs: nounwind ssp uwtable
define linkonce_odr hidden void @_ZN10extensions46SystemDisplayOverscanCalibrationAdjustFunctionD0Ev(%"class.extensions::SystemDisplayOverscanCalibrationAdjustFunction"*) unnamed_addr #0 comdat align 2 {
  %2 = bitcast %"class.extensions::SystemDisplayOverscanCalibrationAdjustFunction"* %0 to %class.ExtensionFunction*
  tail call void @_ZN17ExtensionFunctionD2Ev(%class.ExtensionFunction* %2) #9
  %3 = bitcast %"class.extensions::SystemDisplayOverscanCalibrationAdjustFunction"* %0 to i8*
  tail call void @_ZdlPv(i8* %3) #10
  ret void
}

; Function Attrs: nounwind ssp uwtable
define linkonce_odr hidden void @_ZN10extensions45SystemDisplayOverscanCalibrationResetFunctionD0Ev(%"class.extensions::SystemDisplayOverscanCalibrationResetFunction"*) unnamed_addr #0 comdat align 2 {
  %2 = bitcast %"class.extensions::SystemDisplayOverscanCalibrationResetFunction"* %0 to %class.ExtensionFunction*
  tail call void @_ZN17ExtensionFunctionD2Ev(%class.ExtensionFunction* %2) #9
  %3 = bitcast %"class.extensions::SystemDisplayOverscanCalibrationResetFunction"* %0 to i8*
  tail call void @_ZdlPv(i8* %3) #10
  ret void
}

; Function Attrs: nounwind ssp uwtable
define linkonce_odr hidden void @_ZN10extensions48SystemDisplayOverscanCalibrationCompleteFunctionD0Ev(%"class.extensions::SystemDisplayOverscanCalibrationCompleteFunction"*) unnamed_addr #0 comdat align 2 {
  %2 = bitcast %"class.extensions::SystemDisplayOverscanCalibrationCompleteFunction"* %0 to %class.ExtensionFunction*
  tail call void @_ZN17ExtensionFunctionD2Ev(%class.ExtensionFunction* %2) #9
  %3 = bitcast %"class.extensions::SystemDisplayOverscanCalibrationCompleteFunction"* %0 to i8*
  tail call void @_ZdlPv(i8* %3) #10
  ret void
}

; Function Attrs: nounwind ssp uwtable
define linkonce_odr hidden void @_ZN10extensions47SystemDisplayShowNativeTouchCalibrationFunctionD0Ev(%"class.extensions::SystemDisplayShowNativeTouchCalibrationFunction"*) unnamed_addr #0 comdat align 2 {
  %2 = bitcast %"class.extensions::SystemDisplayShowNativeTouchCalibrationFunction"* %0 to %class.ExtensionFunction*
  tail call void @_ZN17ExtensionFunctionD2Ev(%class.ExtensionFunction* %2) #9
  %3 = bitcast %"class.extensions::SystemDisplayShowNativeTouchCalibrationFunction"* %0 to i8*
  tail call void @_ZdlPv(i8* %3) #10
  ret void
}

; Function Attrs: nounwind ssp uwtable
define linkonce_odr hidden void @_ZN10extensions48SystemDisplayStartCustomTouchCalibrationFunctionD0Ev(%"class.extensions::SystemDisplayStartCustomTouchCalibrationFunction"*) unnamed_addr #0 comdat align 2 {
  %2 = bitcast %"class.extensions::SystemDisplayStartCustomTouchCalibrationFunction"* %0 to %class.ExtensionFunction*
  tail call void @_ZN17ExtensionFunctionD2Ev(%class.ExtensionFunction* %2) #9
  %3 = bitcast %"class.extensions::SystemDisplayStartCustomTouchCalibrationFunction"* %0 to i8*
  tail call void @_ZdlPv(i8* %3) #10
  ret void
}

; Function Attrs: nounwind ssp uwtable
define linkonce_odr hidden void @_ZN10extensions51SystemDisplayCompleteCustomTouchCalibrationFunctionD0Ev(%"class.extensions::SystemDisplayCompleteCustomTouchCalibrationFunction"*) unnamed_addr #0 comdat align 2 {
  %2 = bitcast %"class.extensions::SystemDisplayCompleteCustomTouchCalibrationFunction"* %0 to %class.ExtensionFunction*
  tail call void @_ZN17ExtensionFunctionD2Ev(%class.ExtensionFunction* %2) #9
  %3 = bitcast %"class.extensions::SystemDisplayCompleteCustomTouchCalibrationFunction"* %0 to i8*
  tail call void @_ZdlPv(i8* %3) #10
  ret void
}

; Function Attrs: nounwind ssp uwtable
define linkonce_odr hidden void @_ZN10extensions42SystemDisplayClearTouchCalibrationFunctionD0Ev(%"class.extensions::SystemDisplayClearTouchCalibrationFunction"*) unnamed_addr #0 comdat align 2 {
  %2 = bitcast %"class.extensions::SystemDisplayClearTouchCalibrationFunction"* %0 to %class.ExtensionFunction*
  tail call void @_ZN17ExtensionFunctionD2Ev(%class.ExtensionFunction* %2) #9
  %3 = bitcast %"class.extensions::SystemDisplayClearTouchCalibrationFunction"* %0 to i8*
  tail call void @_ZdlPv(i8* %3) #10
  ret void
}

; Function Attrs: nounwind
declare void @_ZN17ExtensionFunctionD2Ev(%class.ExtensionFunction*) unnamed_addr #3

; Function Attrs: nounwind ssp uwtable
define linkonce_odr hidden void @_ZN10extensions34SystemDisplaySetMirrorModeFunctionD0Ev(%"class.extensions::SystemDisplaySetMirrorModeFunction"*) unnamed_addr #0 comdat align 2 {
  %2 = bitcast %"class.extensions::SystemDisplaySetMirrorModeFunction"* %0 to %class.ExtensionFunction*
  tail call void @_ZN17ExtensionFunctionD2Ev(%class.ExtensionFunction* %2) #9
  %3 = bitcast %"class.extensions::SystemDisplaySetMirrorModeFunction"* %0 to i8*
  tail call void @_ZdlPv(i8* %3) #10
  ret void
}

declare zeroext i1 @_ZNK10extensions15PermissionsData16HasAPIPermissionENS_5mojom15APIPermissionIDE(%"class.extensions::PermissionsData"*, i32) local_unnamed_addr #1

; Function Attrs: nobuiltin nofree
declare noalias nonnull i8* @_Znwm(i64) local_unnamed_addr #5

; Function Attrs: nounwind ssp uwtable
define internal fastcc %"class.extensions::(anonymous namespace)::OverscanTracker::OverscanWebObserver"* @_ZN10extensions12_GLOBAL__N_115OverscanTracker11GetObserverEPN7content11WebContentsEb(%"class.extensions::(anonymous namespace)::OverscanTracker"*, %"class.content::WebContents"*, i1 zeroext) unnamed_addr #0 align 2 {
  %4 = ptrtoint %"class.content::WebContents"* %1 to i64
  %5 = getelementptr inbounds %"class.extensions::(anonymous namespace)::OverscanTracker", %"class.extensions::(anonymous namespace)::OverscanTracker"* %0, i64 0, i32 0, i32 0, i32 1, i32 0, i32 0
  %6 = bitcast %"class.std::__1::__tree_end_node"* %5 to %"class.std::__1::__tree_node"**
  %7 = load %"class.std::__1::__tree_node"*, %"class.std::__1::__tree_node"** %6, align 8
  %8 = icmp eq %"class.std::__1::__tree_node"* %7, null
  br i1 %8, label %34, label %9

9:                                                ; preds = %3, %9
  %10 = phi %"class.std::__1::__tree_end_node"* [ %20, %9 ], [ %5, %3 ]
  %11 = phi %"class.std::__1::__tree_node"* [ %21, %9 ], [ %7, %3 ]
  %12 = getelementptr inbounds %"class.std::__1::__tree_node", %"class.std::__1::__tree_node"* %11, i64 0, i32 1, i32 0, i32 0
  %13 = load %"class.content::WebContents"*, %"class.content::WebContents"** %12, align 8
  %14 = icmp ult %"class.content::WebContents"* %13, %1
  %15 = getelementptr inbounds %"class.std::__1::__tree_node", %"class.std::__1::__tree_node"* %11, i64 0, i32 0, i32 1
  %16 = bitcast %"class.std::__1::__tree_node_base"** %15 to %"class.std::__1::__tree_node"**
  %17 = getelementptr inbounds %"class.std::__1::__tree_node", %"class.std::__1::__tree_node"* %11, i64 0, i32 0, i32 0
  %18 = bitcast %"class.std::__1::__tree_node"* %11 to %"class.std::__1::__tree_node"**
  %19 = select i1 %14, %"class.std::__1::__tree_node"** %16, %"class.std::__1::__tree_node"** %18
  %20 = select i1 %14, %"class.std::__1::__tree_end_node"* %10, %"class.std::__1::__tree_end_node"* %17
  %21 = load %"class.std::__1::__tree_node"*, %"class.std::__1::__tree_node"** %19, align 8
  %22 = icmp eq %"class.std::__1::__tree_node"* %21, null
  br i1 %22, label %23, label %9

23:                                               ; preds = %9
  %24 = icmp eq %"class.std::__1::__tree_end_node"* %20, %5
  br i1 %24, label %34, label %25

25:                                               ; preds = %23
  %26 = getelementptr inbounds %"class.std::__1::__tree_end_node", %"class.std::__1::__tree_end_node"* %20, i64 4
  %27 = bitcast %"class.std::__1::__tree_end_node"* %26 to %"class.content::WebContents"**
  %28 = load %"class.content::WebContents"*, %"class.content::WebContents"** %27, align 8
  %29 = icmp ugt %"class.content::WebContents"* %28, %1
  br i1 %29, label %34, label %30

30:                                               ; preds = %25
  %31 = getelementptr inbounds %"class.std::__1::__tree_end_node", %"class.std::__1::__tree_end_node"* %20, i64 5
  %32 = bitcast %"class.std::__1::__tree_end_node"* %31 to %"class.extensions::(anonymous namespace)::OverscanTracker::OverscanWebObserver"**
  %33 = load %"class.extensions::(anonymous namespace)::OverscanTracker::OverscanWebObserver"*, %"class.extensions::(anonymous namespace)::OverscanTracker::OverscanWebObserver"** %32, align 8
  br label %121

34:                                               ; preds = %25, %23, %3
  br i1 %2, label %35, label %121

35:                                               ; preds = %34
  %36 = tail call i8* @_Znwm(i64 40) #10
  %37 = bitcast i8* %36 to %"class.extensions::(anonymous namespace)::OverscanTracker::OverscanWebObserver"*
  %38 = bitcast i8* %36 to %"class.content::WebContentsObserver"*
  tail call void @_ZN7content19WebContentsObserverC2EPNS_11WebContentsE(%"class.content::WebContentsObserver"* nonnull %38, %"class.content::WebContents"* %1) #9
  %39 = bitcast i8* %36 to i32 (...)***
  store i32 (...)** bitcast (i8** getelementptr inbounds ({ [109 x i8*] }, { [109 x i8*] }* @_ZTVN10extensions12_GLOBAL__N_115OverscanTracker19OverscanWebObserverE, i64 0, inrange i32 0, i64 2) to i32 (...)**), i32 (...)*** %39, align 8
  %40 = getelementptr inbounds i8, i8* %36, i64 24
  %41 = getelementptr inbounds i8, i8* %36, i64 16
  tail call void @llvm.memset.p0i8.i64(i8* align 8 %40, i8 0, i64 16, i1 false) #9
  %42 = bitcast i8* %41 to i8**
  store i8* %40, i8** %42, align 8
  %43 = ptrtoint i8* %36 to i64
  %44 = load %"class.std::__1::__tree_node"*, %"class.std::__1::__tree_node"** %6, align 8
  %45 = icmp eq %"class.std::__1::__tree_node"* %44, null
  br i1 %45, label %74, label %46

46:                                               ; preds = %35
  %47 = getelementptr inbounds %"class.extensions::(anonymous namespace)::OverscanTracker", %"class.extensions::(anonymous namespace)::OverscanTracker"* %0, i64 0, i32 0, i32 0, i32 1, i32 0, i32 0, i32 0
  br label %48

48:                                               ; preds = %70, %46
  %49 = phi %"class.std::__1::__tree_node"* [ %73, %70 ], [ %44, %46 ]
  %50 = phi %"class.std::__1::__tree_node_base"** [ %72, %70 ], [ %47, %46 ]
  %51 = getelementptr inbounds %"class.std::__1::__tree_node", %"class.std::__1::__tree_node"* %49, i64 0, i32 1, i32 0, i32 0
  %52 = load %"class.content::WebContents"*, %"class.content::WebContents"** %51, align 8
  %53 = icmp ugt %"class.content::WebContents"* %52, %1
  br i1 %53, label %54, label %60

54:                                               ; preds = %48
  %55 = getelementptr inbounds %"class.std::__1::__tree_node", %"class.std::__1::__tree_node"* %49, i64 0, i32 0, i32 0, i32 0
  %56 = load %"class.std::__1::__tree_node_base"*, %"class.std::__1::__tree_node_base"** %55, align 8
  %57 = icmp eq %"class.std::__1::__tree_node_base"* %56, null
  br i1 %57, label %58, label %70

58:                                               ; preds = %54
  %59 = getelementptr inbounds %"class.std::__1::__tree_node", %"class.std::__1::__tree_node"* %49, i64 0, i32 0, i32 0
  br label %76

60:                                               ; preds = %48
  %61 = icmp ult %"class.content::WebContents"* %52, %1
  br i1 %61, label %62, label %68

62:                                               ; preds = %60
  %63 = getelementptr inbounds %"class.std::__1::__tree_node", %"class.std::__1::__tree_node"* %49, i64 0, i32 0, i32 1
  %64 = load %"class.std::__1::__tree_node_base"*, %"class.std::__1::__tree_node_base"** %63, align 8
  %65 = icmp eq %"class.std::__1::__tree_node_base"* %64, null
  br i1 %65, label %66, label %70

66:                                               ; preds = %62
  %67 = getelementptr inbounds %"class.std::__1::__tree_node", %"class.std::__1::__tree_node"* %49, i64 0, i32 0, i32 0
  br label %76

68:                                               ; preds = %60
  %69 = getelementptr inbounds %"class.std::__1::__tree_node", %"class.std::__1::__tree_node"* %49, i64 0, i32 0, i32 0
  br label %76

70:                                               ; preds = %62, %54
  %71 = phi %"class.std::__1::__tree_node_base"* [ %56, %54 ], [ %64, %62 ]
  %72 = phi %"class.std::__1::__tree_node_base"** [ %55, %54 ], [ %63, %62 ]
  %73 = bitcast %"class.std::__1::__tree_node_base"* %71 to %"class.std::__1::__tree_node"*
  br label %48

74:                                               ; preds = %35
  %75 = getelementptr inbounds %"class.std::__1::__tree_end_node", %"class.std::__1::__tree_end_node"* %5, i64 0, i32 0
  br label %76

76:                                               ; preds = %74, %68, %66, %58
  %77 = phi %"class.std::__1::__tree_end_node"* [ %5, %74 ], [ %59, %58 ], [ %67, %66 ], [ %69, %68 ]
  %78 = phi %"class.std::__1::__tree_node_base"** [ %75, %74 ], [ %55, %58 ], [ %63, %66 ], [ %50, %68 ]
  %79 = bitcast %"class.std::__1::__tree_node_base"** %78 to %"class.std::__1::__tree_node"**
  %80 = load %"class.std::__1::__tree_node"*, %"class.std::__1::__tree_node"** %79, align 8
  %81 = icmp eq %"class.std::__1::__tree_node"* %80, null
  br i1 %81, label %82, label %109

82:                                               ; preds = %76
  %83 = tail call i8* @_Znwm(i64 48) #10, !noalias !33
  %84 = getelementptr inbounds i8, i8* %83, i64 32
  %85 = bitcast i8* %84 to i64*
  store i64 %4, i64* %85, align 8, !noalias !33
  %86 = getelementptr inbounds i8, i8* %83, i64 40
  %87 = bitcast i8* %86 to i64*
  store i64 0, i64* %87, align 8, !noalias !33
  %88 = bitcast i8* %83 to %"class.std::__1::__tree_node"*
  %89 = bitcast i8* %83 to %"class.std::__1::__tree_node_base"*
  %90 = getelementptr inbounds i8, i8* %83, i64 16
  %91 = bitcast i8* %90 to %"class.std::__1::__tree_end_node"**
  tail call void @llvm.memset.p0i8.i64(i8* nonnull align 8 %83, i8 0, i64 16, i1 false) #9
  store %"class.std::__1::__tree_end_node"* %77, %"class.std::__1::__tree_end_node"** %91, align 8
  %92 = bitcast %"class.std::__1::__tree_node_base"** %78 to i8**
  store i8* %83, i8** %92, align 8
  %93 = getelementptr inbounds %"class.extensions::(anonymous namespace)::OverscanTracker", %"class.extensions::(anonymous namespace)::OverscanTracker"* %0, i64 0, i32 0, i32 0, i32 0
  %94 = load %"class.std::__1::__tree_end_node"*, %"class.std::__1::__tree_end_node"** %93, align 8
  %95 = getelementptr inbounds %"class.std::__1::__tree_end_node", %"class.std::__1::__tree_end_node"* %94, i64 0, i32 0
  %96 = load %"class.std::__1::__tree_node_base"*, %"class.std::__1::__tree_node_base"** %95, align 8
  %97 = icmp eq %"class.std::__1::__tree_node_base"* %96, null
  br i1 %97, label %102, label %98

98:                                               ; preds = %82
  %99 = ptrtoint %"class.std::__1::__tree_node_base"* %96 to i64
  %100 = bitcast %"class.extensions::(anonymous namespace)::OverscanTracker"* %0 to i64*
  store i64 %99, i64* %100, align 8
  %101 = load %"class.std::__1::__tree_node_base"*, %"class.std::__1::__tree_node_base"** %78, align 8
  br label %102

102:                                              ; preds = %98, %82
  %103 = phi %"class.std::__1::__tree_node_base"* [ %89, %82 ], [ %101, %98 ]
  %104 = getelementptr inbounds %"class.extensions::(anonymous namespace)::OverscanTracker", %"class.extensions::(anonymous namespace)::OverscanTracker"* %0, i64 0, i32 0, i32 0, i32 1, i32 0, i32 0, i32 0
  %105 = load %"class.std::__1::__tree_node_base"*, %"class.std::__1::__tree_node_base"** %104, align 8
  tail call void @_ZNSt3__127__tree_balance_after_insertIPNS_16__tree_node_baseIPvEEEEvT_S5_(%"class.std::__1::__tree_node_base"* %105, %"class.std::__1::__tree_node_base"* %103) #9
  %106 = getelementptr inbounds %"class.extensions::(anonymous namespace)::OverscanTracker", %"class.extensions::(anonymous namespace)::OverscanTracker"* %0, i64 0, i32 0, i32 0, i32 2, i32 0, i32 0
  %107 = load i64, i64* %106, align 8
  %108 = add i64 %107, 1
  store i64 %108, i64* %106, align 8
  br label %109

109:                                              ; preds = %76, %102
  %110 = phi %"class.std::__1::__tree_node"* [ %88, %102 ], [ %80, %76 ]
  %111 = getelementptr inbounds %"class.std::__1::__tree_node", %"class.std::__1::__tree_node"* %110, i64 0, i32 1, i32 0, i32 1
  %112 = getelementptr inbounds %"class.std::__1::unique_ptr.378", %"class.std::__1::unique_ptr.378"* %111, i64 0, i32 0, i32 0, i32 0
  %113 = load %"class.extensions::(anonymous namespace)::OverscanTracker::OverscanWebObserver"*, %"class.extensions::(anonymous namespace)::OverscanTracker::OverscanWebObserver"** %112, align 8
  %114 = bitcast %"class.std::__1::unique_ptr.378"* %111 to i64*
  store i64 %43, i64* %114, align 8
  %115 = icmp eq %"class.extensions::(anonymous namespace)::OverscanTracker::OverscanWebObserver"* %113, null
  br i1 %115, label %121, label %116

116:                                              ; preds = %109
  %117 = bitcast %"class.extensions::(anonymous namespace)::OverscanTracker::OverscanWebObserver"* %113 to void (%"class.extensions::(anonymous namespace)::OverscanTracker::OverscanWebObserver"*)***
  %118 = load void (%"class.extensions::(anonymous namespace)::OverscanTracker::OverscanWebObserver"*)**, void (%"class.extensions::(anonymous namespace)::OverscanTracker::OverscanWebObserver"*)*** %117, align 8
  %119 = getelementptr inbounds void (%"class.extensions::(anonymous namespace)::OverscanTracker::OverscanWebObserver"*)*, void (%"class.extensions::(anonymous namespace)::OverscanTracker::OverscanWebObserver"*)** %118, i64 8
  %120 = load void (%"class.extensions::(anonymous namespace)::OverscanTracker::OverscanWebObserver"*)*, void (%"class.extensions::(anonymous namespace)::OverscanTracker::OverscanWebObserver"*)** %119, align 8
  tail call void %120(%"class.extensions::(anonymous namespace)::OverscanTracker::OverscanWebObserver"* nonnull %113) #9
  br label %121

121:                                              ; preds = %109, %116, %34, %30
  %122 = phi %"class.extensions::(anonymous namespace)::OverscanTracker::OverscanWebObserver"* [ %33, %30 ], [ null, %34 ], [ %37, %116 ], [ %37, %109 ]
  ret %"class.extensions::(anonymous namespace)::OverscanTracker::OverscanWebObserver"* %122
}

; Function Attrs: argmemonly nounwind
declare void @llvm.memcpy.p0i8.p0i8.i64(i8* nocapture writeonly, i8* nocapture readonly, i64, i1 immarg) #2

declare void @_ZN7content19WebContentsObserverC2EPNS_11WebContentsE(%"class.content::WebContentsObserver"*, %"class.content::WebContents"*) unnamed_addr #1

declare zeroext i1 @_ZN7content19WebContentsObserver17OnMessageReceivedERKN3IPC7MessageE(%"class.content::WebContentsObserver"*, %"class.IPC::Message"* dereferenceable(56)) unnamed_addr #1

; Function Attrs: nounwind ssp uwtable
define linkonce_odr hidden void @_ZN3IPC8Listener18OnChannelConnectedEi(%"class.IPC::Listener"*, i32) unnamed_addr #0 comdat align 2 {
  ret void
}

; Function Attrs: nounwind ssp uwtable
define linkonce_odr hidden void @_ZN3IPC8Listener14OnChannelErrorEv(%"class.IPC::Listener"*) unnamed_addr #0 comdat align 2 {
  ret void
}

; Function Attrs: nounwind ssp uwtable
define linkonce_odr hidden void @_ZN3IPC8Listener20OnBadMessageReceivedERKNS_7MessageE(%"class.IPC::Listener"*, %"class.IPC::Message"* dereferenceable(56)) unnamed_addr #0 comdat align 2 {
  ret void
}

; Function Attrs: nounwind ssp uwtable
define linkonce_odr hidden void @_ZN3IPC8Listener28OnAssociatedInterfaceRequestERKNSt3__112basic_stringIcNS1_11char_traitsIcEENS1_9allocatorIcEEEEN4mojo29ScopedInterfaceEndpointHandleE(%"class.IPC::Listener"*, %"class.std::__1::basic_string"* dereferenceable(24), %"class.mojo::ScopedInterfaceEndpointHandle"*) unnamed_addr #0 comdat align 2 {
  ret void
}

; Function Attrs: nounwind ssp uwtable
define linkonce_odr hidden void @_ZN3IPC8Listener15OnChannelDeniedEv(%"class.IPC::Listener"*) unnamed_addr #0 comdat align 2 {
  ret void
}

; Function Attrs: nounwind ssp uwtable
define linkonce_odr hidden void @_ZN3IPC8Listener20OnChannelListenErrorEv(%"class.IPC::Listener"*) unnamed_addr #0 comdat align 2 {
  ret void
}

; Function Attrs: nounwind ssp uwtable
define internal void @_ZN10extensions12_GLOBAL__N_115OverscanTracker19OverscanWebObserverD2Ev(%"class.extensions::(anonymous namespace)::OverscanTracker::OverscanWebObserver"*) unnamed_addr #0 align 2 {
  %2 = getelementptr inbounds %"class.extensions::(anonymous namespace)::OverscanTracker::OverscanWebObserver", %"class.extensions::(anonymous namespace)::OverscanTracker::OverscanWebObserver"* %0, i64 0, i32 0, i32 0, i32 0
  store i32 (...)** bitcast (i8** getelementptr inbounds ({ [109 x i8*] }, { [109 x i8*] }* @_ZTVN10extensions12_GLOBAL__N_115OverscanTracker19OverscanWebObserverE, i64 0, inrange i32 0, i64 2) to i32 (...)**), i32 (...)*** %2, align 8
  %3 = getelementptr inbounds %"class.extensions::(anonymous namespace)::OverscanTracker::OverscanWebObserver", %"class.extensions::(anonymous namespace)::OverscanTracker::OverscanWebObserver"* %0, i64 0, i32 1, i32 0
  %4 = getelementptr inbounds %"class.extensions::(anonymous namespace)::OverscanTracker::OverscanWebObserver", %"class.extensions::(anonymous namespace)::OverscanTracker::OverscanWebObserver"* %0, i64 0, i32 1, i32 0, i32 1, i32 0, i32 0
  %5 = bitcast %"class.std::__1::__tree_end_node"* %4 to %"class.std::__1::__tree_node.423"**
  %6 = load %"class.std::__1::__tree_node.423"*, %"class.std::__1::__tree_node.423"** %5, align 8
  tail call void @_ZNSt3__16__treeINS_12basic_stringIcNS_11char_traitsIcEENS_9allocatorIcEEEENS_4lessIS6_EENS4_IS6_EEE7destroyEPNS_11__tree_nodeIS6_PvEE(%"class.std::__1::__tree.370"* %3, %"class.std::__1::__tree_node.423"* %6) #9
  %7 = getelementptr inbounds %"class.extensions::(anonymous namespace)::OverscanTracker::OverscanWebObserver", %"class.extensions::(anonymous namespace)::OverscanTracker::OverscanWebObserver"* %0, i64 0, i32 0
  tail call void @_ZN7content19WebContentsObserverD2Ev(%"class.content::WebContentsObserver"* %7) #9
  ret void
}

; Function Attrs: nounwind ssp uwtable
define internal void @_ZN10extensions12_GLOBAL__N_115OverscanTracker19OverscanWebObserverD0Ev(%"class.extensions::(anonymous namespace)::OverscanTracker::OverscanWebObserver"*) unnamed_addr #0 align 2 {
  %2 = getelementptr inbounds %"class.extensions::(anonymous namespace)::OverscanTracker::OverscanWebObserver", %"class.extensions::(anonymous namespace)::OverscanTracker::OverscanWebObserver"* %0, i64 0, i32 0, i32 0, i32 0
  store i32 (...)** bitcast (i8** getelementptr inbounds ({ [109 x i8*] }, { [109 x i8*] }* @_ZTVN10extensions12_GLOBAL__N_115OverscanTracker19OverscanWebObserverE, i64 0, inrange i32 0, i64 2) to i32 (...)**), i32 (...)*** %2, align 8
  %3 = getelementptr inbounds %"class.extensions::(anonymous namespace)::OverscanTracker::OverscanWebObserver", %"class.extensions::(anonymous namespace)::OverscanTracker::OverscanWebObserver"* %0, i64 0, i32 1, i32 0
  %4 = getelementptr inbounds %"class.extensions::(anonymous namespace)::OverscanTracker::OverscanWebObserver", %"class.extensions::(anonymous namespace)::OverscanTracker::OverscanWebObserver"* %0, i64 0, i32 1, i32 0, i32 1, i32 0, i32 0
  %5 = bitcast %"class.std::__1::__tree_end_node"* %4 to %"class.std::__1::__tree_node.423"**
  %6 = load %"class.std::__1::__tree_node.423"*, %"class.std::__1::__tree_node.423"** %5, align 8
  tail call void @_ZNSt3__16__treeINS_12basic_stringIcNS_11char_traitsIcEENS_9allocatorIcEEEENS_4lessIS6_EENS4_IS6_EEE7destroyEPNS_11__tree_nodeIS6_PvEE(%"class.std::__1::__tree.370"* %3, %"class.std::__1::__tree_node.423"* %6) #9
  %7 = getelementptr inbounds %"class.extensions::(anonymous namespace)::OverscanTracker::OverscanWebObserver", %"class.extensions::(anonymous namespace)::OverscanTracker::OverscanWebObserver"* %0, i64 0, i32 0
  tail call void @_ZN7content19WebContentsObserverD2Ev(%"class.content::WebContentsObserver"* %7) #9
  %8 = bitcast %"class.extensions::(anonymous namespace)::OverscanTracker::OverscanWebObserver"* %0 to i8*
  tail call void @_ZdlPv(i8* %8) #10
  ret void
}

; Function Attrs: nounwind ssp uwtable
define linkonce_odr hidden void @_ZN7content19WebContentsObserver18RenderFrameCreatedEPNS_15RenderFrameHostE(%"class.content::WebContentsObserver"*, %"class.content::RenderFrameHost"*) unnamed_addr #0 comdat align 2 {
  ret void
}

; Function Attrs: nounwind ssp uwtable
define internal void @_ZN10extensions12_GLOBAL__N_115OverscanTracker19OverscanWebObserver18RenderFrameDeletedEPN7content15RenderFrameHostE(%"class.extensions::(anonymous namespace)::OverscanTracker::OverscanWebObserver"*, %"class.content::RenderFrameHost"* nocapture readnone) unnamed_addr #0 align 2 {
  %3 = getelementptr inbounds %"class.extensions::(anonymous namespace)::OverscanTracker::OverscanWebObserver", %"class.extensions::(anonymous namespace)::OverscanTracker::OverscanWebObserver"* %0, i64 0, i32 1, i32 0, i32 0
  %4 = load %"class.std::__1::__tree_end_node"*, %"class.std::__1::__tree_end_node"** %3, align 8
  %5 = getelementptr inbounds %"class.extensions::(anonymous namespace)::OverscanTracker::OverscanWebObserver", %"class.extensions::(anonymous namespace)::OverscanTracker::OverscanWebObserver"* %0, i64 0, i32 1, i32 0, i32 1, i32 0, i32 0
  %6 = icmp eq %"class.std::__1::__tree_end_node"* %4, %5
  br i1 %6, label %7, label %10

7:                                                ; preds = %53, %2
  %8 = getelementptr inbounds %"class.extensions::(anonymous namespace)::OverscanTracker::OverscanWebObserver", %"class.extensions::(anonymous namespace)::OverscanTracker::OverscanWebObserver"* %0, i64 0, i32 0
  %9 = tail call %"class.content::WebContents"* @_ZNK7content19WebContentsObserver12web_contentsEv(%"class.content::WebContentsObserver"* %8) #9
  tail call fastcc void @_ZN10extensions12_GLOBAL__N_115OverscanTracker14RemoveObserverEPN7content11WebContentsE(%"class.content::WebContents"* %9)
  ret void

10:                                               ; preds = %2, %53
  %11 = phi %"class.std::__1::__tree_end_node"* [ %54, %53 ], [ %4, %2 ]
  %12 = getelementptr inbounds %"class.std::__1::__tree_end_node", %"class.std::__1::__tree_end_node"* %11, i64 4
  %13 = bitcast %"class.std::__1::__tree_end_node"* %12 to %"class.std::__1::basic_string"*
  %14 = tail call %"class.extensions::DisplayInfoProvider"* @_ZN10extensions19DisplayInfoProvider3GetEv() #9
  %15 = bitcast %"class.extensions::DisplayInfoProvider"* %14 to i1 (%"class.extensions::DisplayInfoProvider"*, %"class.std::__1::basic_string"*)***
  %16 = load i1 (%"class.extensions::DisplayInfoProvider"*, %"class.std::__1::basic_string"*)**, i1 (%"class.extensions::DisplayInfoProvider"*, %"class.std::__1::basic_string"*)*** %15, align 8
  %17 = getelementptr inbounds i1 (%"class.extensions::DisplayInfoProvider"*, %"class.std::__1::basic_string"*)*, i1 (%"class.extensions::DisplayInfoProvider"*, %"class.std::__1::basic_string"*)** %16, i64 18
  %18 = load i1 (%"class.extensions::DisplayInfoProvider"*, %"class.std::__1::basic_string"*)*, i1 (%"class.extensions::DisplayInfoProvider"*, %"class.std::__1::basic_string"*)** %17, align 8
  %19 = tail call zeroext i1 %18(%"class.extensions::DisplayInfoProvider"* %14, %"class.std::__1::basic_string"* dereferenceable(24) %13) #9
  %20 = tail call %"class.extensions::DisplayInfoProvider"* @_ZN10extensions19DisplayInfoProvider3GetEv() #9
  %21 = bitcast %"class.extensions::DisplayInfoProvider"* %20 to i1 (%"class.extensions::DisplayInfoProvider"*, %"class.std::__1::basic_string"*)***
  %22 = load i1 (%"class.extensions::DisplayInfoProvider"*, %"class.std::__1::basic_string"*)**, i1 (%"class.extensions::DisplayInfoProvider"*, %"class.std::__1::basic_string"*)*** %21, align 8
  %23 = getelementptr inbounds i1 (%"class.extensions::DisplayInfoProvider"*, %"class.std::__1::basic_string"*)*, i1 (%"class.extensions::DisplayInfoProvider"*, %"class.std::__1::basic_string"*)** %22, i64 19
  %24 = load i1 (%"class.extensions::DisplayInfoProvider"*, %"class.std::__1::basic_string"*)*, i1 (%"class.extensions::DisplayInfoProvider"*, %"class.std::__1::basic_string"*)** %23, align 8
  %25 = tail call zeroext i1 %24(%"class.extensions::DisplayInfoProvider"* %20, %"class.std::__1::basic_string"* dereferenceable(24) %13) #9
  %26 = getelementptr inbounds %"class.std::__1::__tree_end_node", %"class.std::__1::__tree_end_node"* %11, i64 1, i32 0
  %27 = load %"class.std::__1::__tree_node_base"*, %"class.std::__1::__tree_node_base"** %26, align 8
  %28 = icmp eq %"class.std::__1::__tree_node_base"* %27, null
  br i1 %28, label %29, label %37

29:                                               ; preds = %10
  %30 = bitcast %"class.std::__1::__tree_end_node"* %11 to %"class.std::__1::__tree_node_base"*
  %31 = getelementptr inbounds %"class.std::__1::__tree_end_node", %"class.std::__1::__tree_end_node"* %11, i64 2
  %32 = bitcast %"class.std::__1::__tree_end_node"* %31 to %"class.std::__1::__tree_end_node"**
  %33 = load %"class.std::__1::__tree_end_node"*, %"class.std::__1::__tree_end_node"** %32, align 8
  %34 = getelementptr inbounds %"class.std::__1::__tree_end_node", %"class.std::__1::__tree_end_node"* %33, i64 0, i32 0
  %35 = load %"class.std::__1::__tree_node_base"*, %"class.std::__1::__tree_node_base"** %34, align 8
  %36 = icmp eq %"class.std::__1::__tree_node_base"* %35, %30
  br i1 %36, label %53, label %44

37:                                               ; preds = %10, %37
  %38 = phi %"class.std::__1::__tree_node_base"* [ %40, %37 ], [ %27, %10 ]
  %39 = getelementptr inbounds %"class.std::__1::__tree_node_base", %"class.std::__1::__tree_node_base"* %38, i64 0, i32 0, i32 0
  %40 = load %"class.std::__1::__tree_node_base"*, %"class.std::__1::__tree_node_base"** %39, align 8
  %41 = icmp eq %"class.std::__1::__tree_node_base"* %40, null
  br i1 %41, label %42, label %37

42:                                               ; preds = %37
  %43 = getelementptr inbounds %"class.std::__1::__tree_node_base", %"class.std::__1::__tree_node_base"* %38, i64 0, i32 0
  br label %53

44:                                               ; preds = %29, %44
  %45 = phi %"class.std::__1::__tree_end_node"** [ %48, %44 ], [ %32, %29 ]
  %46 = bitcast %"class.std::__1::__tree_end_node"** %45 to %"class.std::__1::__tree_node_base"**
  %47 = load %"class.std::__1::__tree_node_base"*, %"class.std::__1::__tree_node_base"** %46, align 8
  %48 = getelementptr inbounds %"class.std::__1::__tree_node_base", %"class.std::__1::__tree_node_base"* %47, i64 0, i32 2
  %49 = load %"class.std::__1::__tree_end_node"*, %"class.std::__1::__tree_end_node"** %48, align 8
  %50 = getelementptr inbounds %"class.std::__1::__tree_end_node", %"class.std::__1::__tree_end_node"* %49, i64 0, i32 0
  %51 = load %"class.std::__1::__tree_node_base"*, %"class.std::__1::__tree_node_base"** %50, align 8
  %52 = icmp eq %"class.std::__1::__tree_node_base"* %51, %47
  br i1 %52, label %53, label %44

53:                                               ; preds = %44, %29, %42
  %54 = phi %"class.std::__1::__tree_end_node"* [ %43, %42 ], [ %33, %29 ], [ %49, %44 ]
  %55 = icmp eq %"class.std::__1::__tree_end_node"* %54, %5
  br i1 %55, label %7, label %10
}

; Function Attrs: nounwind ssp uwtable
define linkonce_odr hidden void @_ZN7content19WebContentsObserver22RenderFrameHostChangedEPNS_15RenderFrameHostES2_(%"class.content::WebContentsObserver"*, %"class.content::RenderFrameHost"*, %"class.content::RenderFrameHost"*) unnamed_addr #0 comdat align 2 {
  ret void
}

; Function Attrs: nounwind ssp uwtable
define linkonce_odr hidden void @_ZN7content19WebContentsObserver12FrameDeletedEi(%"class.content::WebContentsObserver"*, i32) unnamed_addr #0 comdat align 2 {
  ret void
}

; Function Attrs: nounwind ssp uwtable
define linkonce_odr hidden void @_ZN7content19WebContentsObserver27RenderFrameHostStateChangedEPNS_15RenderFrameHostENS1_14LifecycleStateES3_(%"class.content::WebContentsObserver"*, %"class.content::RenderFrameHost"*, i32, i32) unnamed_addr #0 comdat align 2 {
  ret void
}

; Function Attrs: nounwind ssp uwtable
define linkonce_odr hidden void @_ZN7content19WebContentsObserver20CaptureTargetChangedEv(%"class.content::WebContentsObserver"*) unnamed_addr #0 comdat align 2 {
  ret void
}

; Function Attrs: nounwind ssp uwtable
define linkonce_odr hidden void @_ZN7content19WebContentsObserver27OnCaptureHandleConfigUpdateERKN5blink5mojom19CaptureHandleConfigE(%"class.content::WebContentsObserver"*, %"class.blink::mojom::CaptureHandleConfig"*) unnamed_addr #0 comdat align 2 {
  ret void
}

; Function Attrs: nounwind ssp uwtable
define linkonce_odr hidden void @_ZN7content19WebContentsObserver15RenderViewReadyEv(%"class.content::WebContentsObserver"*) unnamed_addr #0 comdat align 2 {
  ret void
}

; Function Attrs: nounwind ssp uwtable
define linkonce_odr hidden void @_ZN7content19WebContentsObserver17RenderViewDeletedEPNS_14RenderViewHostE(%"class.content::WebContentsObserver"*, %"class.content::RenderViewHost"*) unnamed_addr #0 comdat align 2 {
  ret void
}

; Function Attrs: nounwind ssp uwtable
define linkonce_odr hidden void @_ZN7content19WebContentsObserver17RenderProcessGoneEN4base17TerminationStatusE(%"class.content::WebContentsObserver"*, i32) unnamed_addr #0 comdat align 2 {
  ret void
}

; Function Attrs: nounwind ssp uwtable
define linkonce_odr hidden void @_ZN7content19WebContentsObserver21RenderViewHostChangedEPNS_14RenderViewHostES2_(%"class.content::WebContentsObserver"*, %"class.content::RenderViewHost"*, %"class.content::RenderViewHost"*) unnamed_addr #0 comdat align 2 {
  ret void
}

; Function Attrs: nounwind ssp uwtable
define linkonce_odr hidden void @_ZN7content19WebContentsObserver22OnRendererUnresponsiveEPNS_17RenderProcessHostE(%"class.content::WebContentsObserver"*, %"class.content::RenderProcessHost"*) unnamed_addr #0 comdat align 2 {
  ret void
}

; Function Attrs: nounwind ssp uwtable
define linkonce_odr hidden void @_ZN7content19WebContentsObserver20OnRendererResponsiveEPNS_17RenderProcessHostE(%"class.content::WebContentsObserver"*, %"class.content::RenderProcessHost"*) unnamed_addr #0 comdat align 2 {
  ret void
}

; Function Attrs: nounwind ssp uwtable
define linkonce_odr hidden void @_ZN7content19WebContentsObserver18DidStartNavigationEPNS_16NavigationHandleE(%"class.content::WebContentsObserver"*, %"class.content::NavigationHandle"*) unnamed_addr #0 comdat align 2 {
  ret void
}

; Function Attrs: nounwind ssp uwtable
define linkonce_odr hidden void @_ZN7content19WebContentsObserver21DidRedirectNavigationEPNS_16NavigationHandleE(%"class.content::WebContentsObserver"*, %"class.content::NavigationHandle"*) unnamed_addr #0 comdat align 2 {
  ret void
}

; Function Attrs: nounwind ssp uwtable
define linkonce_odr hidden void @_ZN7content19WebContentsObserver23ReadyToCommitNavigationEPNS_16NavigationHandleE(%"class.content::WebContentsObserver"*, %"class.content::NavigationHandle"*) unnamed_addr #0 comdat align 2 {
  ret void
}

; Function Attrs: nounwind ssp uwtable
define linkonce_odr hidden void @_ZN7content19WebContentsObserver19DidFinishNavigationEPNS_16NavigationHandleE(%"class.content::WebContentsObserver"*, %"class.content::NavigationHandle"*) unnamed_addr #0 comdat align 2 {
  ret void
}

; Function Attrs: nounwind ssp uwtable
define linkonce_odr hidden void @_ZN7content19WebContentsObserver17DidActivatePortalEPNS_11WebContentsEN4base9TimeTicksE(%"class.content::WebContentsObserver"*, %"class.content::WebContents"*, i64) unnamed_addr #0 comdat align 2 {
  ret void
}

; Function Attrs: nounwind ssp uwtable
define linkonce_odr hidden void @_ZN7content19WebContentsObserver15DidStartLoadingEv(%"class.content::WebContentsObserver"*) unnamed_addr #0 comdat align 2 {
  ret void
}

; Function Attrs: nounwind ssp uwtable
define linkonce_odr hidden void @_ZN7content19WebContentsObserver18DidReceiveResponseEv(%"class.content::WebContentsObserver"*) unnamed_addr #0 comdat align 2 {
  ret void
}

; Function Attrs: nounwind ssp uwtable
define linkonce_odr hidden void @_ZN7content19WebContentsObserver14DidStopLoadingEv(%"class.content::WebContentsObserver"*) unnamed_addr #0 comdat align 2 {
  ret void
}

; Function Attrs: nounwind ssp uwtable
define linkonce_odr hidden void @_ZN7content19WebContentsObserver19LoadProgressChangedEd(%"class.content::WebContentsObserver"*, double) unnamed_addr #0 comdat align 2 {
  ret void
}

; Function Attrs: nounwind ssp uwtable
define linkonce_odr hidden void @_ZN7content19WebContentsObserver28DocumentAvailableInMainFrameEPNS_15RenderFrameHostE(%"class.content::WebContentsObserver"*, %"class.content::RenderFrameHost"*) unnamed_addr #0 comdat align 2 {
  ret void
}

; Function Attrs: nounwind ssp uwtable
define linkonce_odr hidden void @_ZN7content19WebContentsObserver34DocumentOnLoadCompletedInMainFrameEPNS_15RenderFrameHostE(%"class.content::WebContentsObserver"*, %"class.content::RenderFrameHost"*) unnamed_addr #0 comdat align 2 {
  ret void
}

; Function Attrs: nounwind ssp uwtable
define linkonce_odr hidden void @_ZN7content19WebContentsObserver16DOMContentLoadedEPNS_15RenderFrameHostE(%"class.content::WebContentsObserver"*, %"class.content::RenderFrameHost"*) unnamed_addr #0 comdat align 2 {
  ret void
}

; Function Attrs: nounwind ssp uwtable
define linkonce_odr hidden void @_ZN7content19WebContentsObserver13DidFinishLoadEPNS_15RenderFrameHostERK4GURL(%"class.content::WebContentsObserver"*, %"class.content::RenderFrameHost"*, %class.GURL* dereferenceable(120)) unnamed_addr #0 comdat align 2 {
  ret void
}

; Function Attrs: nounwind ssp uwtable
define linkonce_odr hidden void @_ZN7content19WebContentsObserver11DidFailLoadEPNS_15RenderFrameHostERK4GURLi(%"class.content::WebContentsObserver"*, %"class.content::RenderFrameHost"*, %class.GURL* dereferenceable(120), i32) unnamed_addr #0 comdat align 2 {
  ret void
}

; Function Attrs: nounwind ssp uwtable
define linkonce_odr hidden void @_ZN7content19WebContentsObserver29DidChangeVisibleSecurityStateEv(%"class.content::WebContentsObserver"*) unnamed_addr #0 comdat align 2 {
  ret void
}

; Function Attrs: nounwind ssp uwtable
define linkonce_odr hidden void @_ZN7content19WebContentsObserver30DidLoadResourceFromMemoryCacheEPNS_15RenderFrameHostERK4GURLRKNSt3__112basic_stringIcNS6_11char_traitsIcEENS6_9allocatorIcEEEEN7network5mojom18RequestDestinationE(%"class.content::WebContentsObserver"*, %"class.content::RenderFrameHost"*, %class.GURL* dereferenceable(120), %"class.std::__1::basic_string"* dereferenceable(24), i32) unnamed_addr #0 comdat align 2 {
  ret void
}

; Function Attrs: nounwind ssp uwtable
define linkonce_odr hidden void @_ZN7content19WebContentsObserver20ResourceLoadCompleteEPNS_15RenderFrameHostERKNS_15GlobalRequestIDERKN5blink5mojom16ResourceLoadInfoE(%"class.content::WebContentsObserver"*, %"class.content::RenderFrameHost"*, %"struct.content::GlobalRequestID"* dereferenceable(8), %"class.blink::mojom::ResourceLoadInfo"*) unnamed_addr #0 comdat align 2 {
  ret void
}

; Function Attrs: nounwind ssp uwtable
define linkonce_odr hidden void @_ZN7content19WebContentsObserver17OnCookiesAccessedEPNS_15RenderFrameHostERKNS_19CookieAccessDetailsE(%"class.content::WebContentsObserver"*, %"class.content::RenderFrameHost"*, %"struct.content::CookieAccessDetails"* dereferenceable(280)) unnamed_addr #0 comdat align 2 {
  ret void
}

; Function Attrs: nounwind ssp uwtable
define linkonce_odr hidden void @_ZN7content19WebContentsObserver17OnCookiesAccessedEPNS_16NavigationHandleERKNS_19CookieAccessDetailsE(%"class.content::WebContentsObserver"*, %"class.content::NavigationHandle"*, %"struct.content::CookieAccessDetails"* dereferenceable(280)) unnamed_addr #0 comdat align 2 {
  ret void
}

; Function Attrs: nounwind ssp uwtable
define linkonce_odr hidden void @_ZN7content19WebContentsObserver24NavigationEntryCommittedERKNS_20LoadCommittedDetailsE(%"class.content::WebContentsObserver"*, %"struct.content::LoadCommittedDetails"*) unnamed_addr #0 comdat align 2 {
  ret void
}

; Function Attrs: nounwind ssp uwtable
define linkonce_odr hidden void @_ZN7content19WebContentsObserver20NavigationListPrunedERKNS_13PrunedDetailsE(%"class.content::WebContentsObserver"*, %"struct.content::PrunedDetails"*) unnamed_addr #0 comdat align 2 {
  ret void
}

; Function Attrs: nounwind ssp uwtable
define linkonce_odr hidden void @_ZN7content19WebContentsObserver24NavigationEntriesDeletedEv(%"class.content::WebContentsObserver"*) unnamed_addr #0 comdat align 2 {
  ret void
}

; Function Attrs: nounwind ssp uwtable
define linkonce_odr hidden void @_ZN7content19WebContentsObserver22NavigationEntryChangedERKNS_19EntryChangedDetailsE(%"class.content::WebContentsObserver"*, %"struct.content::EntryChangedDetails"*) unnamed_addr #0 comdat align 2 {
  ret void
}

; Function Attrs: nounwind ssp uwtable
define linkonce_odr hidden void @_ZN7content19WebContentsObserver19DidOpenRequestedURLEPNS_11WebContentsEPNS_15RenderFrameHostERK4GURLRKNS_8ReferrerE21WindowOpenDispositionN2ui14PageTransitionEbb(%"class.content::WebContentsObserver"*, %"class.content::WebContents"*, %"class.content::RenderFrameHost"*, %class.GURL* dereferenceable(120), %"struct.content::Referrer"* dereferenceable(128), i32, i32, i1 zeroext, i1 zeroext) unnamed_addr #0 comdat align 2 {
  ret void
}

; Function Attrs: nounwind ssp uwtable
define linkonce_odr hidden void @_ZN7content19WebContentsObserver29DidFirstVisuallyNonEmptyPaintEv(%"class.content::WebContentsObserver"*) unnamed_addr #0 comdat align 2 {
  ret void
}

; Function Attrs: nounwind ssp uwtable
define linkonce_odr hidden void @_ZN7content19WebContentsObserver17NavigationStoppedEv(%"class.content::WebContentsObserver"*) unnamed_addr #0 comdat align 2 {
  ret void
}

; Function Attrs: nounwind ssp uwtable
define linkonce_odr hidden void @_ZN7content19WebContentsObserver21DidGetUserInteractionERKN5blink13WebInputEventE(%"class.content::WebContentsObserver"*, %"class.blink::WebInputEvent"* dereferenceable(40)) unnamed_addr #0 comdat align 2 {
  ret void
}

; Function Attrs: nounwind ssp uwtable
define linkonce_odr hidden void @_ZN7content19WebContentsObserver20DidGetIgnoredUIEventEv(%"class.content::WebContentsObserver"*) unnamed_addr #0 comdat align 2 {
  ret void
}

; Function Attrs: nounwind ssp uwtable
define linkonce_odr hidden void @_ZN7content19WebContentsObserver19OnVisibilityChangedENS_10VisibilityE(%"class.content::WebContentsObserver"*, i32) unnamed_addr #0 comdat align 2 {
  ret void
}

; Function Attrs: nounwind ssp uwtable
define linkonce_odr hidden void @_ZN7content19WebContentsObserver19MainFrameWasResizedEb(%"class.content::WebContentsObserver"*, i1 zeroext) unnamed_addr #0 comdat align 2 {
  ret void
}

; Function Attrs: nounwind ssp uwtable
define linkonce_odr hidden void @_ZN7content19WebContentsObserver16FrameNameChangedEPNS_15RenderFrameHostERKNSt3__112basic_stringIcNS3_11char_traitsIcEENS3_9allocatorIcEEEE(%"class.content::WebContentsObserver"*, %"class.content::RenderFrameHost"*, %"class.std::__1::basic_string"* dereferenceable(24)) unnamed_addr #0 comdat align 2 {
  ret void
}

; Function Attrs: nounwind ssp uwtable
define linkonce_odr hidden void @_ZN7content19WebContentsObserver27FrameReceivedUserActivationEPNS_15RenderFrameHostE(%"class.content::WebContentsObserver"*, %"class.content::RenderFrameHost"*) unnamed_addr #0 comdat align 2 {
  ret void
}

; Function Attrs: nounwind ssp uwtable
define linkonce_odr hidden void @_ZN7content19WebContentsObserver24FrameDisplayStateChangedEPNS_15RenderFrameHostEb(%"class.content::WebContentsObserver"*, %"class.content::RenderFrameHost"*, i1 zeroext) unnamed_addr #0 comdat align 2 {
  ret void
}

; Function Attrs: nounwind ssp uwtable
define linkonce_odr hidden void @_ZN7content19WebContentsObserver16FrameSizeChangedEPNS_15RenderFrameHostERKN3gfx4SizeE(%"class.content::WebContentsObserver"*, %"class.content::RenderFrameHost"*, %"class.gfx::Size"* dereferenceable(8)) unnamed_addr #0 comdat align 2 {
  ret void
}

; Function Attrs: nounwind ssp uwtable
define linkonce_odr hidden void @_ZN7content19WebContentsObserver11TitleWasSetEPNS_15NavigationEntryE(%"class.content::WebContentsObserver"*, %"class.content::NavigationEntry"*) unnamed_addr #0 comdat align 2 {
  ret void
}

; Function Attrs: nounwind ssp uwtable
define linkonce_odr hidden void @_ZN7content19WebContentsObserver16AppCacheAccessedERK4GURLb(%"class.content::WebContentsObserver"*, %class.GURL* dereferenceable(120), i1 zeroext) unnamed_addr #0 comdat align 2 {
  ret void
}

; Function Attrs: nounwind ssp uwtable
define linkonce_odr hidden void @_ZN7content19WebContentsObserver21PepperInstanceCreatedEv(%"class.content::WebContentsObserver"*) unnamed_addr #0 comdat align 2 {
  ret void
}

; Function Attrs: nounwind ssp uwtable
define linkonce_odr hidden void @_ZN7content19WebContentsObserver21PepperInstanceDeletedEv(%"class.content::WebContentsObserver"*) unnamed_addr #0 comdat align 2 {
  ret void
}

; Function Attrs: nounwind ssp uwtable
define linkonce_odr hidden void @_ZN7content19WebContentsObserver18ViewportFitChangedEN5blink5mojom11ViewportFitE(%"class.content::WebContentsObserver"*, i32) unnamed_addr #0 comdat align 2 {
  ret void
}

; Function Attrs: nounwind ssp uwtable
define linkonce_odr hidden void @_ZN7content19WebContentsObserver13PluginCrashedERKN4base8FilePathEi(%"class.content::WebContentsObserver"*, %"class.base::FilePath"* dereferenceable(24), i32) unnamed_addr #0 comdat align 2 {
  ret void
}

; Function Attrs: nounwind ssp uwtable
define linkonce_odr hidden void @_ZN7content19WebContentsObserver23PluginHungStatusChangedEiRKN4base8FilePathEb(%"class.content::WebContentsObserver"*, i32, %"class.base::FilePath"* dereferenceable(24), i1 zeroext) unnamed_addr #0 comdat align 2 {
  ret void
}

; Function Attrs: nounwind ssp uwtable
define linkonce_odr hidden void @_ZN7content19WebContentsObserver23InnerWebContentsCreatedEPNS_11WebContentsE(%"class.content::WebContentsObserver"*, %"class.content::WebContents"*) unnamed_addr #0 comdat align 2 {
  ret void
}

; Function Attrs: nounwind ssp uwtable
define linkonce_odr hidden void @_ZN7content19WebContentsObserver24InnerWebContentsAttachedEPNS_11WebContentsEPNS_15RenderFrameHostEb(%"class.content::WebContentsObserver"*, %"class.content::WebContents"*, %"class.content::RenderFrameHost"*, i1 zeroext) unnamed_addr #0 comdat align 2 {
  ret void
}

; Function Attrs: nounwind ssp uwtable
define linkonce_odr hidden void @_ZN7content19WebContentsObserver24InnerWebContentsDetachedEPNS_11WebContentsE(%"class.content::WebContentsObserver"*, %"class.content::WebContents"*) unnamed_addr #0 comdat align 2 {
  ret void
}

; Function Attrs: nounwind ssp uwtable
define linkonce_odr hidden void @_ZN7content19WebContentsObserver24DidCloneToNewWebContentsEPNS_11WebContentsES2_(%"class.content::WebContentsObserver"*, %"class.content::WebContents"*, %"class.content::WebContents"*) unnamed_addr #0 comdat align 2 {
  ret void
}

; Function Attrs: nounwind ssp uwtable
define linkonce_odr hidden void @_ZN7content19WebContentsObserver20WebContentsDestroyedEv(%"class.content::WebContentsObserver"*) unnamed_addr #0 comdat align 2 {
  ret void
}

; Function Attrs: nounwind ssp uwtable
define linkonce_odr hidden void @_ZN7content19WebContentsObserver20UserAgentOverrideSetERKN5blink17UserAgentOverrideE(%"class.content::WebContentsObserver"*, %"struct.blink::UserAgentOverride"* dereferenceable(184)) unnamed_addr #0 comdat align 2 {
  ret void
}

; Function Attrs: nounwind ssp uwtable
define linkonce_odr hidden void @_ZN7content19WebContentsObserver19DidUpdateFaviconURLEPNS_15RenderFrameHostERKNSt3__16vectorIN4mojo9StructPtrIN5blink5mojom10FaviconURLEEENS3_9allocatorISA_EEEE(%"class.content::WebContentsObserver"*, %"class.content::RenderFrameHost"*, %"class.std::__1::vector.405"*) unnamed_addr #0 comdat align 2 {
  ret void
}

; Function Attrs: nounwind ssp uwtable
define linkonce_odr hidden void @_ZN7content19WebContentsObserver19OnAudioStateChangedEb(%"class.content::WebContentsObserver"*, i1 zeroext) unnamed_addr #0 comdat align 2 {
  ret void
}

; Function Attrs: nounwind ssp uwtable
define linkonce_odr hidden void @_ZN7content19WebContentsObserver24OnFrameAudioStateChangedEPNS_15RenderFrameHostEb(%"class.content::WebContentsObserver"*, %"class.content::RenderFrameHost"*, i1 zeroext) unnamed_addr #0 comdat align 2 {
  ret void
}

; Function Attrs: nounwind ssp uwtable
define linkonce_odr hidden void @_ZN7content19WebContentsObserver37OnIsConnectedToBluetoothDeviceChangedEb(%"class.content::WebContentsObserver"*, i1 zeroext) unnamed_addr #0 comdat align 2 {
  ret void
}

; Function Attrs: nounwind ssp uwtable
define linkonce_odr hidden void @_ZN7content19WebContentsObserver25DidUpdateAudioMutingStateEb(%"class.content::WebContentsObserver"*, i1 zeroext) unnamed_addr #0 comdat align 2 {
  ret void
}

; Function Attrs: nounwind ssp uwtable
define linkonce_odr hidden void @_ZN7content19WebContentsObserver29DidToggleFullscreenModeForTabEbb(%"class.content::WebContentsObserver"*, i1 zeroext, i1 zeroext) unnamed_addr #0 comdat align 2 {
  ret void
}

; Function Attrs: nounwind ssp uwtable
define linkonce_odr hidden void @_ZN7content19WebContentsObserver20DidAcquireFullscreenEPNS_15RenderFrameHostE(%"class.content::WebContentsObserver"*, %"class.content::RenderFrameHost"*) unnamed_addr #0 comdat align 2 {
  ret void
}

; Function Attrs: nounwind ssp uwtable
define linkonce_odr hidden void @_ZN7content19WebContentsObserver32DidChangeVerticalScrollDirectionEN3viz23VerticalScrollDirectionE(%"class.content::WebContentsObserver"*, i32) unnamed_addr #0 comdat align 2 {
  ret void
}

; Function Attrs: nounwind ssp uwtable
define linkonce_odr hidden void @_ZN7content19WebContentsObserver27BeforeFormRepostWarningShowEv(%"class.content::WebContentsObserver"*) unnamed_addr #0 comdat align 2 {
  ret void
}

; Function Attrs: nounwind ssp uwtable
define linkonce_odr hidden void @_ZN7content19WebContentsObserver17BeforeUnloadFiredEbRKN4base9TimeTicksE(%"class.content::WebContentsObserver"*, i1 zeroext, %"class.base::TimeTicks"* dereferenceable(8)) unnamed_addr #0 comdat align 2 {
  ret void
}

; Function Attrs: nounwind ssp uwtable
define linkonce_odr hidden void @_ZN7content19WebContentsObserver27BeforeUnloadDialogCancelledEv(%"class.content::WebContentsObserver"*) unnamed_addr #0 comdat align 2 {
  ret void
}

; Function Attrs: nounwind ssp uwtable
define linkonce_odr hidden void @_ZN7content19WebContentsObserver30AXTreeIDForMainFrameHasChangedEv(%"class.content::WebContentsObserver"*) unnamed_addr #0 comdat align 2 {
  ret void
}

; Function Attrs: nounwind ssp uwtable
define linkonce_odr hidden void @_ZN7content19WebContentsObserver26AccessibilityEventReceivedERKNS_26AXEventNotificationDetailsE(%"class.content::WebContentsObserver"*, %"struct.content::AXEventNotificationDetails"*) unnamed_addr #0 comdat align 2 {
  ret void
}

; Function Attrs: nounwind ssp uwtable
define linkonce_odr hidden void @_ZN7content19WebContentsObserver36AccessibilityLocationChangesReceivedERKNSt3__16vectorINS_35AXLocationChangeNotificationDetailsENS1_9allocatorIS3_EEEE(%"class.content::WebContentsObserver"*, %"class.std::__1::vector.406"*) unnamed_addr #0 comdat align 2 {
  ret void
}

; Function Attrs: nounwind ssp uwtable
define linkonce_odr hidden void @_ZN7content19WebContentsObserver19DidChangeThemeColorEv(%"class.content::WebContentsObserver"*) unnamed_addr #0 comdat align 2 {
  ret void
}

; Function Attrs: nounwind ssp uwtable
define linkonce_odr hidden void @_ZN7content19WebContentsObserver24OnBackgroundColorChangedEv(%"class.content::WebContentsObserver"*) unnamed_addr #0 comdat align 2 {
  ret void
}

; Function Attrs: nounwind ssp uwtable
define linkonce_odr hidden void @_ZN7content19WebContentsObserver24OnDidAddMessageToConsoleEPNS_15RenderFrameHostEN5blink5mojom19ConsoleMessageLevelERKNSt3__112basic_stringIDsNS6_11char_traitsIDsEENS6_9allocatorIDsEEEEiSE_RKN4absl8optionalISC_EE(%"class.content::WebContentsObserver"*, %"class.content::RenderFrameHost"*, i32, %"class.std::__1::basic_string.407"* dereferenceable(24), i32, %"class.std::__1::basic_string.407"* dereferenceable(24), %"class.absl::optional.416"*) unnamed_addr #0 comdat align 2 {
  ret void
}

; Function Attrs: nounwind ssp uwtable
define linkonce_odr hidden void @_ZN7content19WebContentsObserver19MediaStartedPlayingERKNS0_15MediaPlayerInfoERKNS_13MediaPlayerIdE(%"class.content::WebContentsObserver"*, %"struct.content::WebContentsObserver::MediaPlayerInfo"* dereferenceable(2), %"struct.content::MediaPlayerId"*) unnamed_addr #0 comdat align 2 {
  ret void
}

; Function Attrs: nounwind ssp uwtable
define linkonce_odr hidden void @_ZN7content19WebContentsObserver19MediaStoppedPlayingERKNS0_15MediaPlayerInfoERKNS_13MediaPlayerIdENS0_18MediaStoppedReasonE(%"class.content::WebContentsObserver"*, %"struct.content::WebContentsObserver::MediaPlayerInfo"* dereferenceable(2), %"struct.content::MediaPlayerId"*, i32) unnamed_addr #0 comdat align 2 {
  ret void
}

; Function Attrs: nounwind ssp uwtable
define linkonce_odr hidden void @_ZN7content19WebContentsObserver12MediaResizedERKN3gfx4SizeERKNS_13MediaPlayerIdE(%"class.content::WebContentsObserver"*, %"class.gfx::Size"* dereferenceable(8), %"struct.content::MediaPlayerId"*) unnamed_addr #0 comdat align 2 {
  ret void
}

; Function Attrs: nounwind ssp uwtable
define linkonce_odr hidden void @_ZN7content19WebContentsObserver33MediaEffectivelyFullscreenChangedEb(%"class.content::WebContentsObserver"*, i1 zeroext) unnamed_addr #0 comdat align 2 {
  ret void
}

; Function Attrs: nounwind ssp uwtable
define linkonce_odr hidden void @_ZN7content19WebContentsObserver28MediaPictureInPictureChangedEb(%"class.content::WebContentsObserver"*, i1 zeroext) unnamed_addr #0 comdat align 2 {
  ret void
}

; Function Attrs: nounwind ssp uwtable
define linkonce_odr hidden void @_ZN7content19WebContentsObserver23MediaMutedStatusChangedERKNS_13MediaPlayerIdEb(%"class.content::WebContentsObserver"*, %"struct.content::MediaPlayerId"*, i1 zeroext) unnamed_addr #0 comdat align 2 {
  ret void
}

; Function Attrs: nounwind ssp uwtable
define linkonce_odr hidden void @_ZN7content19WebContentsObserver20MediaBufferUnderflowERKNS_13MediaPlayerIdE(%"class.content::WebContentsObserver"*, %"struct.content::MediaPlayerId"*) unnamed_addr #0 comdat align 2 {
  ret void
}

; Function Attrs: nounwind ssp uwtable
define linkonce_odr hidden void @_ZN7content19WebContentsObserver15MediaPlayerSeekERKNS_13MediaPlayerIdE(%"class.content::WebContentsObserver"*, %"struct.content::MediaPlayerId"*) unnamed_addr #0 comdat align 2 {
  ret void
}

; Function Attrs: nounwind ssp uwtable
define linkonce_odr hidden void @_ZN7content19WebContentsObserver14MediaDestroyedERKNS_13MediaPlayerIdE(%"class.content::WebContentsObserver"*, %"struct.content::MediaPlayerId"*) unnamed_addr #0 comdat align 2 {
  ret void
}

; Function Attrs: nounwind ssp uwtable
define linkonce_odr hidden void @_ZN7content19WebContentsObserver24OnPageScaleFactorChangedEf(%"class.content::WebContentsObserver"*, float) unnamed_addr #0 comdat align 2 {
  ret void
}

; Function Attrs: nounwind ssp uwtable
define linkonce_odr hidden void @_ZN7content19WebContentsObserver7OnPasteEv(%"class.content::WebContentsObserver"*) unnamed_addr #0 comdat align 2 {
  ret void
}

declare zeroext i1 @_ZN7content19WebContentsObserver17OnMessageReceivedERKN3IPC7MessageEPNS_15RenderFrameHostE(%"class.content::WebContentsObserver"*, %"class.IPC::Message"* dereferenceable(56), %"class.content::RenderFrameHost"*) unnamed_addr #1

; Function Attrs: nounwind ssp uwtable
define linkonce_odr hidden void @_ZN7content19WebContentsObserver20OnWebContentsFocusedEPNS_16RenderWidgetHostE(%"class.content::WebContentsObserver"*, %"class.content::RenderWidgetHost"*) unnamed_addr #0 comdat align 2 {
  ret void
}

; Function Attrs: nounwind ssp uwtable
define linkonce_odr hidden void @_ZN7content19WebContentsObserver22OnWebContentsLostFocusEPNS_16RenderWidgetHostE(%"class.content::WebContentsObserver"*, %"class.content::RenderWidgetHost"*) unnamed_addr #0 comdat align 2 {
  ret void
}

; Function Attrs: nounwind ssp uwtable
define linkonce_odr hidden void @_ZN7content19WebContentsObserver20OnFocusChangedInPageEPNS_18FocusedNodeDetailsE(%"class.content::WebContentsObserver"*, %"struct.content::FocusedNodeDetails"*) unnamed_addr #0 comdat align 2 {
  ret void
}

; Function Attrs: nounwind ssp uwtable
define linkonce_odr hidden void @_ZN7content19WebContentsObserver23DidUpdateWebManifestURLEPNS_15RenderFrameHostERKN4absl8optionalI4GURLEE(%"class.content::WebContentsObserver"*, %"class.content::RenderFrameHost"*, %"class.absl::optional.417"* dereferenceable(128)) unnamed_addr #0 comdat align 2 {
  ret void
}

; Function Attrs: nounwind ssp uwtable
define linkonce_odr hidden void @_ZN7content19WebContentsObserver27OnInterfaceRequestFromFrameEPNS_15RenderFrameHostERKNSt3__112basic_stringIcNS3_11char_traitsIcEENS3_9allocatorIcEEEEPN4mojo16ScopedHandleBaseINSC_17MessagePipeHandleEEE(%"class.content::WebContentsObserver"*, %"class.content::RenderFrameHost"*, %"class.std::__1::basic_string"* dereferenceable(24), %"class.mojo::ScopedHandleBase"*) unnamed_addr #0 comdat align 2 {
  ret void
}

; Function Attrs: nounwind ssp uwtable
define linkonce_odr hidden void @_ZN7content19WebContentsObserver27AudioContextPlaybackStartedERKNSt3__14pairIPNS_15RenderFrameHostEiEE(%"class.content::WebContentsObserver"*, %"struct.std::__1::pair.422"*) unnamed_addr #0 comdat align 2 {
  ret void
}

; Function Attrs: nounwind ssp uwtable
define linkonce_odr hidden void @_ZN7content19WebContentsObserver27AudioContextPlaybackStoppedERKNSt3__14pairIPNS_15RenderFrameHostEiEE(%"class.content::WebContentsObserver"*, %"struct.std::__1::pair.422"*) unnamed_addr #0 comdat align 2 {
  ret void
}

; Function Attrs: nounwind ssp uwtable
define linkonce_odr hidden void @_ZN7content19WebContentsObserver23OnServiceWorkerAccessedEPNS_15RenderFrameHostERK4GURLNS_24AllowServiceWorkerResultE(%"class.content::WebContentsObserver"*, %"class.content::RenderFrameHost"*, %class.GURL* dereferenceable(120), i24) unnamed_addr #0 comdat align 2 {
  ret void
}

; Function Attrs: nounwind ssp uwtable
define linkonce_odr hidden void @_ZN7content19WebContentsObserver23OnServiceWorkerAccessedEPNS_16NavigationHandleERK4GURLNS_24AllowServiceWorkerResultE(%"class.content::WebContentsObserver"*, %"class.content::NavigationHandle"*, %class.GURL* dereferenceable(120), i24) unnamed_addr #0 comdat align 2 {
  ret void
}

; Function Attrs: nounwind
declare void @_ZN7content19WebContentsObserverD2Ev(%"class.content::WebContentsObserver"*) unnamed_addr #3

; Function Attrs: nounwind ssp uwtable
define linkonce_odr hidden void @_ZNSt3__16__treeINS_12basic_stringIcNS_11char_traitsIcEENS_9allocatorIcEEEENS_4lessIS6_EENS4_IS6_EEE7destroyEPNS_11__tree_nodeIS6_PvEE(%"class.std::__1::__tree.370"*, %"class.std::__1::__tree_node.423"*) local_unnamed_addr #0 comdat align 2 {
  %3 = icmp eq %"class.std::__1::__tree_node.423"* %1, null
  br i1 %3, label %20, label %4

4:                                                ; preds = %2
  %5 = bitcast %"class.std::__1::__tree_node.423"* %1 to %"class.std::__1::__tree_node.423"**
  %6 = load %"class.std::__1::__tree_node.423"*, %"class.std::__1::__tree_node.423"** %5, align 8
  tail call void @_ZNSt3__16__treeINS_12basic_stringIcNS_11char_traitsIcEENS_9allocatorIcEEEENS_4lessIS6_EENS4_IS6_EEE7destroyEPNS_11__tree_nodeIS6_PvEE(%"class.std::__1::__tree.370"* %0, %"class.std::__1::__tree_node.423"* %6) #9
  %7 = getelementptr inbounds %"class.std::__1::__tree_node.423", %"class.std::__1::__tree_node.423"* %1, i64 0, i32 0, i32 1
  %8 = bitcast %"class.std::__1::__tree_node_base"** %7 to %"class.std::__1::__tree_node.423"**
  %9 = load %"class.std::__1::__tree_node.423"*, %"class.std::__1::__tree_node.423"** %8, align 8
  tail call void @_ZNSt3__16__treeINS_12basic_stringIcNS_11char_traitsIcEENS_9allocatorIcEEEENS_4lessIS6_EENS4_IS6_EEE7destroyEPNS_11__tree_nodeIS6_PvEE(%"class.std::__1::__tree.370"* %0, %"class.std::__1::__tree_node.423"* %9) #9
  %10 = getelementptr inbounds %"class.std::__1::__tree_node.423", %"class.std::__1::__tree_node.423"* %1, i64 0, i32 1
  %11 = bitcast %"class.std::__1::basic_string"* %10 to %"struct.std::__1::basic_string<char, std::__1::char_traits<char>, std::__1::allocator<char> >::__short"*
  %12 = getelementptr inbounds %"struct.std::__1::basic_string<char, std::__1::char_traits<char>, std::__1::allocator<char> >::__short", %"struct.std::__1::basic_string<char, std::__1::char_traits<char>, std::__1::allocator<char> >::__short"* %11, i64 0, i32 1, i32 0
  %13 = load i8, i8* %12, align 1
  %14 = icmp slt i8 %13, 0
  br i1 %14, label %15, label %18

15:                                               ; preds = %4
  %16 = getelementptr inbounds %"class.std::__1::basic_string", %"class.std::__1::basic_string"* %10, i64 0, i32 0, i32 0, i32 0, i32 0, i32 0, i32 0
  %17 = load i8*, i8** %16, align 8
  tail call void @_ZdlPv(i8* %17) #10
  br label %18

18:                                               ; preds = %4, %15
  %19 = bitcast %"class.std::__1::__tree_node.423"* %1 to i8*
  tail call void @_ZdlPv(i8* %19) #10
  br label %20

20:                                               ; preds = %2, %18
  ret void
}

; Function Attrs: nobuiltin nounwind
declare void @_ZdlPv(i8*) local_unnamed_addr #6

; Function Attrs: nounwind ssp uwtable
define internal fastcc void @_ZN10extensions12_GLOBAL__N_115OverscanTracker14RemoveObserverEPN7content11WebContentsE(%"class.content::WebContents"* readnone) unnamed_addr #0 align 2 {
  %2 = load %"class.extensions::(anonymous namespace)::OverscanTracker"*, %"class.extensions::(anonymous namespace)::OverscanTracker"** @_ZN10extensions12_GLOBAL__N_118g_overscan_trackerE, align 8
  %3 = icmp eq %"class.extensions::(anonymous namespace)::OverscanTracker"* %2, null
  br i1 %3, label %97, label %4

4:                                                ; preds = %1
  %5 = getelementptr inbounds %"class.extensions::(anonymous namespace)::OverscanTracker", %"class.extensions::(anonymous namespace)::OverscanTracker"* %2, i64 0, i32 0, i32 0, i32 1, i32 0, i32 0
  %6 = bitcast %"class.std::__1::__tree_end_node"* %5 to %"class.std::__1::__tree_node"**
  %7 = load %"class.std::__1::__tree_node"*, %"class.std::__1::__tree_node"** %6, align 8
  %8 = icmp eq %"class.std::__1::__tree_node"* %7, null
  %9 = bitcast %"class.std::__1::__tree_node"* %7 to %"class.std::__1::__tree_node_base"*
  br i1 %8, label %83, label %10

10:                                               ; preds = %4, %10
  %11 = phi %"class.std::__1::__tree_end_node"* [ %21, %10 ], [ %5, %4 ]
  %12 = phi %"class.std::__1::__tree_node"* [ %22, %10 ], [ %7, %4 ]
  %13 = getelementptr inbounds %"class.std::__1::__tree_node", %"class.std::__1::__tree_node"* %12, i64 0, i32 1, i32 0, i32 0
  %14 = load %"class.content::WebContents"*, %"class.content::WebContents"** %13, align 8
  %15 = icmp ult %"class.content::WebContents"* %14, %0
  %16 = getelementptr inbounds %"class.std::__1::__tree_node", %"class.std::__1::__tree_node"* %12, i64 0, i32 0, i32 1
  %17 = bitcast %"class.std::__1::__tree_node_base"** %16 to %"class.std::__1::__tree_node"**
  %18 = getelementptr inbounds %"class.std::__1::__tree_node", %"class.std::__1::__tree_node"* %12, i64 0, i32 0, i32 0
  %19 = bitcast %"class.std::__1::__tree_node"* %12 to %"class.std::__1::__tree_node"**
  %20 = select i1 %15, %"class.std::__1::__tree_node"** %17, %"class.std::__1::__tree_node"** %19
  %21 = select i1 %15, %"class.std::__1::__tree_end_node"* %11, %"class.std::__1::__tree_end_node"* %18
  %22 = load %"class.std::__1::__tree_node"*, %"class.std::__1::__tree_node"** %20, align 8
  %23 = icmp eq %"class.std::__1::__tree_node"* %22, null
  br i1 %23, label %24, label %10

24:                                               ; preds = %10
  %25 = icmp eq %"class.std::__1::__tree_end_node"* %21, %5
  br i1 %25, label %83, label %26

26:                                               ; preds = %24
  %27 = getelementptr inbounds %"class.std::__1::__tree_end_node", %"class.std::__1::__tree_end_node"* %21, i64 4
  %28 = bitcast %"class.std::__1::__tree_end_node"* %27 to %"class.content::WebContents"**
  %29 = load %"class.content::WebContents"*, %"class.content::WebContents"** %28, align 8
  %30 = icmp ugt %"class.content::WebContents"* %29, %0
  br i1 %30, label %83, label %31

31:                                               ; preds = %26
  %32 = getelementptr inbounds %"class.std::__1::__tree_end_node", %"class.std::__1::__tree_end_node"* %21, i64 1, i32 0
  %33 = load %"class.std::__1::__tree_node_base"*, %"class.std::__1::__tree_node_base"** %32, align 8
  %34 = icmp eq %"class.std::__1::__tree_node_base"* %33, null
  br i1 %34, label %35, label %43

35:                                               ; preds = %31
  %36 = bitcast %"class.std::__1::__tree_end_node"* %21 to %"class.std::__1::__tree_node_base"*
  %37 = getelementptr inbounds %"class.std::__1::__tree_end_node", %"class.std::__1::__tree_end_node"* %21, i64 2
  %38 = bitcast %"class.std::__1::__tree_end_node"* %37 to %"class.std::__1::__tree_end_node"**
  %39 = load %"class.std::__1::__tree_end_node"*, %"class.std::__1::__tree_end_node"** %38, align 8
  %40 = getelementptr inbounds %"class.std::__1::__tree_end_node", %"class.std::__1::__tree_end_node"* %39, i64 0, i32 0
  %41 = load %"class.std::__1::__tree_node_base"*, %"class.std::__1::__tree_node_base"** %40, align 8
  %42 = icmp eq %"class.std::__1::__tree_node_base"* %41, %36
  br i1 %42, label %59, label %50

43:                                               ; preds = %31, %43
  %44 = phi %"class.std::__1::__tree_node_base"* [ %46, %43 ], [ %33, %31 ]
  %45 = getelementptr inbounds %"class.std::__1::__tree_node_base", %"class.std::__1::__tree_node_base"* %44, i64 0, i32 0, i32 0
  %46 = load %"class.std::__1::__tree_node_base"*, %"class.std::__1::__tree_node_base"** %45, align 8
  %47 = icmp eq %"class.std::__1::__tree_node_base"* %46, null
  br i1 %47, label %48, label %43

48:                                               ; preds = %43
  %49 = getelementptr inbounds %"class.std::__1::__tree_node_base", %"class.std::__1::__tree_node_base"* %44, i64 0, i32 0
  br label %59

50:                                               ; preds = %35, %50
  %51 = phi %"class.std::__1::__tree_end_node"** [ %54, %50 ], [ %38, %35 ]
  %52 = bitcast %"class.std::__1::__tree_end_node"** %51 to %"class.std::__1::__tree_node_base"**
  %53 = load %"class.std::__1::__tree_node_base"*, %"class.std::__1::__tree_node_base"** %52, align 8
  %54 = getelementptr inbounds %"class.std::__1::__tree_node_base", %"class.std::__1::__tree_node_base"* %53, i64 0, i32 2
  %55 = load %"class.std::__1::__tree_end_node"*, %"class.std::__1::__tree_end_node"** %54, align 8
  %56 = getelementptr inbounds %"class.std::__1::__tree_end_node", %"class.std::__1::__tree_end_node"* %55, i64 0, i32 0
  %57 = load %"class.std::__1::__tree_node_base"*, %"class.std::__1::__tree_node_base"** %56, align 8
  %58 = icmp eq %"class.std::__1::__tree_node_base"* %57, %53
  br i1 %58, label %59, label %50

59:                                               ; preds = %50, %48, %35
  %60 = phi %"class.std::__1::__tree_end_node"* [ %49, %48 ], [ %39, %35 ], [ %55, %50 ]
  %61 = getelementptr inbounds %"class.extensions::(anonymous namespace)::OverscanTracker", %"class.extensions::(anonymous namespace)::OverscanTracker"* %2, i64 0, i32 0, i32 0, i32 0
  %62 = load %"class.std::__1::__tree_end_node"*, %"class.std::__1::__tree_end_node"** %61, align 8
  %63 = icmp eq %"class.std::__1::__tree_end_node"* %62, %21
  br i1 %63, label %64, label %67

64:                                               ; preds = %59
  %65 = ptrtoint %"class.std::__1::__tree_end_node"* %60 to i64
  %66 = bitcast %"class.extensions::(anonymous namespace)::OverscanTracker"* %2 to i64*
  store i64 %65, i64* %66, align 8
  br label %67

67:                                               ; preds = %64, %59
  %68 = getelementptr inbounds %"class.extensions::(anonymous namespace)::OverscanTracker", %"class.extensions::(anonymous namespace)::OverscanTracker"* %2, i64 0, i32 0, i32 0, i32 2, i32 0, i32 0
  %69 = load i64, i64* %68, align 8
  %70 = add i64 %69, -1
  store i64 %70, i64* %68, align 8
  %71 = bitcast %"class.std::__1::__tree_end_node"* %21 to %"class.std::__1::__tree_node_base"*
  tail call void @_ZNSt3__113__tree_removeIPNS_16__tree_node_baseIPvEEEEvT_S5_(%"class.std::__1::__tree_node_base"* nonnull %9, %"class.std::__1::__tree_node_base"* %71) #9
  %72 = getelementptr inbounds %"class.std::__1::__tree_end_node", %"class.std::__1::__tree_end_node"* %21, i64 5
  %73 = bitcast %"class.std::__1::__tree_end_node"* %72 to %"class.extensions::(anonymous namespace)::OverscanTracker::OverscanWebObserver"**
  %74 = load %"class.extensions::(anonymous namespace)::OverscanTracker::OverscanWebObserver"*, %"class.extensions::(anonymous namespace)::OverscanTracker::OverscanWebObserver"** %73, align 8
  store %"class.extensions::(anonymous namespace)::OverscanTracker::OverscanWebObserver"* null, %"class.extensions::(anonymous namespace)::OverscanTracker::OverscanWebObserver"** %73, align 8
  %75 = icmp eq %"class.extensions::(anonymous namespace)::OverscanTracker::OverscanWebObserver"* %74, null
  br i1 %75, label %81, label %76

76:                                               ; preds = %67
  %77 = bitcast %"class.extensions::(anonymous namespace)::OverscanTracker::OverscanWebObserver"* %74 to void (%"class.extensions::(anonymous namespace)::OverscanTracker::OverscanWebObserver"*)***
  %78 = load void (%"class.extensions::(anonymous namespace)::OverscanTracker::OverscanWebObserver"*)**, void (%"class.extensions::(anonymous namespace)::OverscanTracker::OverscanWebObserver"*)*** %77, align 8
  %79 = getelementptr inbounds void (%"class.extensions::(anonymous namespace)::OverscanTracker::OverscanWebObserver"*)*, void (%"class.extensions::(anonymous namespace)::OverscanTracker::OverscanWebObserver"*)** %78, i64 8
  %80 = load void (%"class.extensions::(anonymous namespace)::OverscanTracker::OverscanWebObserver"*)*, void (%"class.extensions::(anonymous namespace)::OverscanTracker::OverscanWebObserver"*)** %79, align 8
  tail call void %80(%"class.extensions::(anonymous namespace)::OverscanTracker::OverscanWebObserver"* nonnull %74) #9
  br label %81

81:                                               ; preds = %76, %67
  %82 = bitcast %"class.std::__1::__tree_end_node"* %21 to i8*
  tail call void @_ZdlPv(i8* %82) #10
  br label %83

83:                                               ; preds = %4, %24, %26, %81
  %84 = getelementptr inbounds %"class.extensions::(anonymous namespace)::OverscanTracker", %"class.extensions::(anonymous namespace)::OverscanTracker"* %2, i64 0, i32 0, i32 0, i32 2, i32 0, i32 0
  %85 = load i64, i64* %84, align 8
  %86 = icmp eq i64 %85, 0
  br i1 %86, label %87, label %97

87:                                               ; preds = %83
  %88 = load %"class.extensions::(anonymous namespace)::OverscanTracker"*, %"class.extensions::(anonymous namespace)::OverscanTracker"** @_ZN10extensions12_GLOBAL__N_118g_overscan_trackerE, align 8
  %89 = icmp eq %"class.extensions::(anonymous namespace)::OverscanTracker"* %88, null
  br i1 %89, label %96, label %90

90:                                               ; preds = %87
  %91 = getelementptr inbounds %"class.extensions::(anonymous namespace)::OverscanTracker", %"class.extensions::(anonymous namespace)::OverscanTracker"* %88, i64 0, i32 0, i32 0
  %92 = getelementptr inbounds %"class.extensions::(anonymous namespace)::OverscanTracker", %"class.extensions::(anonymous namespace)::OverscanTracker"* %88, i64 0, i32 0, i32 0, i32 1, i32 0, i32 0
  %93 = bitcast %"class.std::__1::__tree_end_node"* %92 to %"class.std::__1::__tree_node"**
  %94 = load %"class.std::__1::__tree_node"*, %"class.std::__1::__tree_node"** %93, align 8
  tail call fastcc void @_ZNSt3__16__treeINS_12__value_typeIPN7content11WebContentsENS_10unique_ptrIN10extensions12_GLOBAL__N_115OverscanTracker19OverscanWebObserverENS_14default_deleteIS9_EEEEEENS_19__map_value_compareIS4_SD_NS_4lessIS4_EELb1EEENS_9allocatorISD_EEE7destroyEPNS_11__tree_nodeISD_PvEE(%"class.std::__1::__tree.359"* %91, %"class.std::__1::__tree_node"* %94) #9
  %95 = bitcast %"class.extensions::(anonymous namespace)::OverscanTracker"* %88 to i8*
  tail call void @_ZdlPv(i8* %95) #10
  br label %96

96:                                               ; preds = %90, %87
  store %"class.extensions::(anonymous namespace)::OverscanTracker"* null, %"class.extensions::(anonymous namespace)::OverscanTracker"** @_ZN10extensions12_GLOBAL__N_118g_overscan_trackerE, align 8
  br label %97

97:                                               ; preds = %1, %96, %83
  ret void
}

declare %"class.content::WebContents"* @_ZNK7content19WebContentsObserver12web_contentsEv(%"class.content::WebContentsObserver"*) local_unnamed_addr #1

; Function Attrs: nounwind ssp uwtable
define linkonce_odr hidden void @_ZNSt3__113__tree_removeIPNS_16__tree_node_baseIPvEEEEvT_S5_(%"class.std::__1::__tree_node_base"*, %"class.std::__1::__tree_node_base"*) local_unnamed_addr #0 comdat {
  %3 = getelementptr inbounds %"class.std::__1::__tree_node_base", %"class.std::__1::__tree_node_base"* %1, i64 0, i32 0, i32 0
  %4 = load %"class.std::__1::__tree_node_base"*, %"class.std::__1::__tree_node_base"** %3, align 8
  %5 = icmp eq %"class.std::__1::__tree_node_base"* %4, null
  br i1 %5, label %17, label %6

6:                                                ; preds = %2
  %7 = getelementptr inbounds %"class.std::__1::__tree_node_base", %"class.std::__1::__tree_node_base"* %1, i64 0, i32 1
  %8 = load %"class.std::__1::__tree_node_base"*, %"class.std::__1::__tree_node_base"** %7, align 8
  %9 = icmp eq %"class.std::__1::__tree_node_base"* %8, null
  br i1 %9, label %15, label %10

10:                                               ; preds = %6, %10
  %11 = phi %"class.std::__1::__tree_node_base"* [ %13, %10 ], [ %8, %6 ]
  %12 = getelementptr inbounds %"class.std::__1::__tree_node_base", %"class.std::__1::__tree_node_base"* %11, i64 0, i32 0, i32 0
  %13 = load %"class.std::__1::__tree_node_base"*, %"class.std::__1::__tree_node_base"** %12, align 8
  %14 = icmp eq %"class.std::__1::__tree_node_base"* %13, null
  br i1 %14, label %17, label %10

15:                                               ; preds = %6
  %16 = getelementptr inbounds %"class.std::__1::__tree_node_base", %"class.std::__1::__tree_node_base"* %1, i64 0, i32 0, i32 0
  br label %23

17:                                               ; preds = %10, %2
  %18 = phi %"class.std::__1::__tree_node_base"* [ %1, %2 ], [ %11, %10 ]
  %19 = getelementptr inbounds %"class.std::__1::__tree_node_base", %"class.std::__1::__tree_node_base"* %18, i64 0, i32 0, i32 0
  %20 = getelementptr inbounds %"class.std::__1::__tree_node_base", %"class.std::__1::__tree_node_base"* %18, i64 0, i32 1
  %21 = load %"class.std::__1::__tree_node_base"*, %"class.std::__1::__tree_node_base"** %20, align 8
  %22 = icmp eq %"class.std::__1::__tree_node_base"* %21, null
  br i1 %22, label %32, label %23

23:                                               ; preds = %15, %17
  %24 = phi %"class.std::__1::__tree_node_base"** [ %19, %17 ], [ %16, %15 ]
  %25 = phi %"class.std::__1::__tree_node_base"* [ %18, %17 ], [ %1, %15 ]
  %26 = phi %"class.std::__1::__tree_node_base"* [ %21, %17 ], [ %4, %15 ]
  %27 = getelementptr inbounds %"class.std::__1::__tree_node_base", %"class.std::__1::__tree_node_base"* %25, i64 0, i32 2
  %28 = bitcast %"class.std::__1::__tree_end_node"** %27 to i64*
  %29 = load i64, i64* %28, align 8
  %30 = getelementptr inbounds %"class.std::__1::__tree_node_base", %"class.std::__1::__tree_node_base"* %26, i64 0, i32 2
  %31 = bitcast %"class.std::__1::__tree_end_node"** %30 to i64*
  store i64 %29, i64* %31, align 8
  br label %32

32:                                               ; preds = %17, %23
  %33 = phi %"class.std::__1::__tree_node_base"** [ %24, %23 ], [ %19, %17 ]
  %34 = phi %"class.std::__1::__tree_node_base"* [ %25, %23 ], [ %18, %17 ]
  %35 = phi i1 [ true, %23 ], [ false, %17 ]
  %36 = phi %"class.std::__1::__tree_node_base"* [ %26, %23 ], [ null, %17 ]
  %37 = getelementptr inbounds %"class.std::__1::__tree_node_base", %"class.std::__1::__tree_node_base"* %34, i64 0, i32 2
  %38 = load %"class.std::__1::__tree_end_node"*, %"class.std::__1::__tree_end_node"** %37, align 8
  %39 = getelementptr inbounds %"class.std::__1::__tree_end_node", %"class.std::__1::__tree_end_node"* %38, i64 0, i32 0
  %40 = load %"class.std::__1::__tree_node_base"*, %"class.std::__1::__tree_node_base"** %39, align 8
  %41 = icmp eq %"class.std::__1::__tree_node_base"* %40, %34
  br i1 %41, label %42, label %48

42:                                               ; preds = %32
  store %"class.std::__1::__tree_node_base"* %36, %"class.std::__1::__tree_node_base"** %39, align 8
  %43 = icmp eq %"class.std::__1::__tree_node_base"* %34, %0
  br i1 %43, label %55, label %44

44:                                               ; preds = %42
  %45 = bitcast %"class.std::__1::__tree_end_node"** %37 to %"class.std::__1::__tree_node_base"**
  %46 = load %"class.std::__1::__tree_node_base"*, %"class.std::__1::__tree_node_base"** %45, align 8
  %47 = getelementptr inbounds %"class.std::__1::__tree_node_base", %"class.std::__1::__tree_node_base"* %46, i64 0, i32 1
  br label %52

48:                                               ; preds = %32
  %49 = getelementptr inbounds %"class.std::__1::__tree_end_node", %"class.std::__1::__tree_end_node"* %38, i64 1, i32 0
  store %"class.std::__1::__tree_node_base"* %36, %"class.std::__1::__tree_node_base"** %49, align 8
  %50 = load %"class.std::__1::__tree_end_node"*, %"class.std::__1::__tree_end_node"** %37, align 8
  %51 = getelementptr inbounds %"class.std::__1::__tree_end_node", %"class.std::__1::__tree_end_node"* %50, i64 0, i32 0
  br label %52

52:                                               ; preds = %48, %44
  %53 = phi %"class.std::__1::__tree_node_base"** [ %47, %44 ], [ %51, %48 ]
  %54 = load %"class.std::__1::__tree_node_base"*, %"class.std::__1::__tree_node_base"** %53, align 8
  br label %55

55:                                               ; preds = %52, %42
  %56 = phi %"class.std::__1::__tree_node_base"* [ %36, %42 ], [ %0, %52 ]
  %57 = phi %"class.std::__1::__tree_node_base"* [ null, %42 ], [ %54, %52 ]
  %58 = getelementptr inbounds %"class.std::__1::__tree_node_base", %"class.std::__1::__tree_node_base"* %34, i64 0, i32 3
  %59 = load i8, i8* %58, align 8, !range !2
  %60 = icmp ne i8 %59, 0
  %61 = icmp eq %"class.std::__1::__tree_node_base"* %34, %1
  br i1 %61, label %90, label %62

62:                                               ; preds = %55
  %63 = getelementptr inbounds %"class.std::__1::__tree_node_base", %"class.std::__1::__tree_node_base"* %1, i64 0, i32 2
  %64 = bitcast %"class.std::__1::__tree_end_node"** %63 to i64*
  %65 = load i64, i64* %64, align 8
  %66 = bitcast %"class.std::__1::__tree_end_node"** %37 to i64*
  store i64 %65, i64* %66, align 8
  %67 = load %"class.std::__1::__tree_end_node"*, %"class.std::__1::__tree_end_node"** %63, align 8
  %68 = getelementptr inbounds %"class.std::__1::__tree_end_node", %"class.std::__1::__tree_end_node"* %67, i64 0, i32 0
  %69 = load %"class.std::__1::__tree_node_base"*, %"class.std::__1::__tree_node_base"** %68, align 8
  %70 = icmp eq %"class.std::__1::__tree_node_base"* %69, %1
  %71 = inttoptr i64 %65 to %"class.std::__1::__tree_node_base"*
  %72 = getelementptr inbounds %"class.std::__1::__tree_node_base", %"class.std::__1::__tree_node_base"* %71, i64 0, i32 1
  %73 = inttoptr i64 %65 to %"class.std::__1::__tree_end_node"*
  %74 = getelementptr inbounds %"class.std::__1::__tree_end_node", %"class.std::__1::__tree_end_node"* %73, i64 0, i32 0
  %75 = select i1 %70, %"class.std::__1::__tree_node_base"** %74, %"class.std::__1::__tree_node_base"** %72
  store %"class.std::__1::__tree_node_base"* %34, %"class.std::__1::__tree_node_base"** %75, align 8
  %76 = load %"class.std::__1::__tree_node_base"*, %"class.std::__1::__tree_node_base"** %3, align 8
  store %"class.std::__1::__tree_node_base"* %76, %"class.std::__1::__tree_node_base"** %33, align 8
  %77 = getelementptr inbounds %"class.std::__1::__tree_node_base", %"class.std::__1::__tree_node_base"* %34, i64 0, i32 0
  %78 = getelementptr inbounds %"class.std::__1::__tree_node_base", %"class.std::__1::__tree_node_base"* %76, i64 0, i32 2
  store %"class.std::__1::__tree_end_node"* %77, %"class.std::__1::__tree_end_node"** %78, align 8
  %79 = getelementptr inbounds %"class.std::__1::__tree_node_base", %"class.std::__1::__tree_node_base"* %1, i64 0, i32 1
  %80 = load %"class.std::__1::__tree_node_base"*, %"class.std::__1::__tree_node_base"** %79, align 8
  %81 = getelementptr inbounds %"class.std::__1::__tree_node_base", %"class.std::__1::__tree_node_base"* %34, i64 0, i32 1
  store %"class.std::__1::__tree_node_base"* %80, %"class.std::__1::__tree_node_base"** %81, align 8
  %82 = icmp eq %"class.std::__1::__tree_node_base"* %80, null
  br i1 %82, label %85, label %83

83:                                               ; preds = %62
  %84 = getelementptr inbounds %"class.std::__1::__tree_node_base", %"class.std::__1::__tree_node_base"* %80, i64 0, i32 2
  store %"class.std::__1::__tree_end_node"* %77, %"class.std::__1::__tree_end_node"** %84, align 8
  br label %85

85:                                               ; preds = %62, %83
  %86 = getelementptr inbounds %"class.std::__1::__tree_node_base", %"class.std::__1::__tree_node_base"* %1, i64 0, i32 3
  %87 = load i8, i8* %86, align 8, !range !2
  store i8 %87, i8* %58, align 8
  %88 = icmp eq %"class.std::__1::__tree_node_base"* %56, %1
  %89 = select i1 %88, %"class.std::__1::__tree_node_base"* %34, %"class.std::__1::__tree_node_base"* %56
  br label %90

90:                                               ; preds = %85, %55
  %91 = phi %"class.std::__1::__tree_node_base"* [ %56, %55 ], [ %89, %85 ]
  %92 = icmp ne %"class.std::__1::__tree_node_base"* %91, null
  %93 = and i1 %60, %92
  br i1 %93, label %94, label %382

94:                                               ; preds = %90
  br i1 %35, label %95, label %97

95:                                               ; preds = %94
  %96 = getelementptr inbounds %"class.std::__1::__tree_node_base", %"class.std::__1::__tree_node_base"* %36, i64 0, i32 3
  store i8 1, i8* %96, align 8
  br label %382

97:                                               ; preds = %94, %371
  %98 = phi %"class.std::__1::__tree_node_base"* [ %373, %371 ], [ %91, %94 ]
  %99 = phi %"class.std::__1::__tree_node_base"* [ %381, %371 ], [ %57, %94 ]
  %100 = getelementptr inbounds %"class.std::__1::__tree_node_base", %"class.std::__1::__tree_node_base"* %99, i64 0, i32 2
  %101 = load %"class.std::__1::__tree_end_node"*, %"class.std::__1::__tree_end_node"** %100, align 8
  %102 = getelementptr inbounds %"class.std::__1::__tree_end_node", %"class.std::__1::__tree_end_node"* %101, i64 0, i32 0
  %103 = load %"class.std::__1::__tree_node_base"*, %"class.std::__1::__tree_node_base"** %102, align 8
  %104 = icmp eq %"class.std::__1::__tree_node_base"* %103, %99
  %105 = getelementptr inbounds %"class.std::__1::__tree_node_base", %"class.std::__1::__tree_node_base"* %99, i64 0, i32 3
  %106 = load i8, i8* %105, align 8, !range !2
  %107 = icmp ne i8 %106, 0
  br i1 %104, label %242, label %108

108:                                              ; preds = %97
  br i1 %107, label %141, label %109

109:                                              ; preds = %108
  store i8 1, i8* %105, align 8
  %110 = bitcast %"class.std::__1::__tree_end_node"** %100 to %"class.std::__1::__tree_node_base"**
  %111 = getelementptr inbounds %"class.std::__1::__tree_end_node", %"class.std::__1::__tree_end_node"* %101, i64 3
  %112 = bitcast %"class.std::__1::__tree_end_node"* %111 to i8*
  store i8 0, i8* %112, align 8
  %113 = load %"class.std::__1::__tree_node_base"*, %"class.std::__1::__tree_node_base"** %110, align 8
  %114 = getelementptr inbounds %"class.std::__1::__tree_node_base", %"class.std::__1::__tree_node_base"* %113, i64 0, i32 1
  %115 = load %"class.std::__1::__tree_node_base"*, %"class.std::__1::__tree_node_base"** %114, align 8
  %116 = getelementptr inbounds %"class.std::__1::__tree_node_base", %"class.std::__1::__tree_node_base"* %115, i64 0, i32 0, i32 0
  %117 = load %"class.std::__1::__tree_node_base"*, %"class.std::__1::__tree_node_base"** %116, align 8
  store %"class.std::__1::__tree_node_base"* %117, %"class.std::__1::__tree_node_base"** %114, align 8
  %118 = icmp eq %"class.std::__1::__tree_node_base"* %117, null
  br i1 %118, label %122, label %119

119:                                              ; preds = %109
  %120 = getelementptr inbounds %"class.std::__1::__tree_node_base", %"class.std::__1::__tree_node_base"* %113, i64 0, i32 0
  %121 = getelementptr inbounds %"class.std::__1::__tree_node_base", %"class.std::__1::__tree_node_base"* %117, i64 0, i32 2
  store %"class.std::__1::__tree_end_node"* %120, %"class.std::__1::__tree_end_node"** %121, align 8
  br label %122

122:                                              ; preds = %119, %109
  %123 = getelementptr inbounds %"class.std::__1::__tree_node_base", %"class.std::__1::__tree_node_base"* %113, i64 0, i32 2
  %124 = bitcast %"class.std::__1::__tree_end_node"** %123 to i64*
  %125 = load i64, i64* %124, align 8
  %126 = getelementptr inbounds %"class.std::__1::__tree_node_base", %"class.std::__1::__tree_node_base"* %115, i64 0, i32 2
  %127 = bitcast %"class.std::__1::__tree_end_node"** %126 to i64*
  store i64 %125, i64* %127, align 8
  %128 = load %"class.std::__1::__tree_end_node"*, %"class.std::__1::__tree_end_node"** %123, align 8
  %129 = getelementptr inbounds %"class.std::__1::__tree_end_node", %"class.std::__1::__tree_end_node"* %128, i64 0, i32 0
  %130 = load %"class.std::__1::__tree_node_base"*, %"class.std::__1::__tree_node_base"** %129, align 8
  %131 = icmp eq %"class.std::__1::__tree_node_base"* %130, %113
  %132 = getelementptr inbounds %"class.std::__1::__tree_end_node", %"class.std::__1::__tree_end_node"* %128, i64 1, i32 0
  %133 = select i1 %131, %"class.std::__1::__tree_node_base"** %129, %"class.std::__1::__tree_node_base"** %132
  store %"class.std::__1::__tree_node_base"* %115, %"class.std::__1::__tree_node_base"** %133, align 8
  store %"class.std::__1::__tree_node_base"* %113, %"class.std::__1::__tree_node_base"** %116, align 8
  %134 = getelementptr inbounds %"class.std::__1::__tree_node_base", %"class.std::__1::__tree_node_base"* %115, i64 0, i32 0
  store %"class.std::__1::__tree_end_node"* %134, %"class.std::__1::__tree_end_node"** %123, align 8
  %135 = getelementptr inbounds %"class.std::__1::__tree_node_base", %"class.std::__1::__tree_node_base"* %99, i64 0, i32 0, i32 0
  %136 = load %"class.std::__1::__tree_node_base"*, %"class.std::__1::__tree_node_base"** %135, align 8
  %137 = icmp eq %"class.std::__1::__tree_node_base"* %98, %136
  %138 = select i1 %137, %"class.std::__1::__tree_node_base"* %99, %"class.std::__1::__tree_node_base"* %98
  %139 = getelementptr inbounds %"class.std::__1::__tree_node_base", %"class.std::__1::__tree_node_base"* %136, i64 0, i32 1
  %140 = load %"class.std::__1::__tree_node_base"*, %"class.std::__1::__tree_node_base"** %139, align 8
  br label %141

141:                                              ; preds = %122, %108
  %142 = phi %"class.std::__1::__tree_node_base"* [ %98, %108 ], [ %138, %122 ]
  %143 = phi %"class.std::__1::__tree_node_base"* [ %99, %108 ], [ %140, %122 ]
  %144 = getelementptr inbounds %"class.std::__1::__tree_node_base", %"class.std::__1::__tree_node_base"* %143, i64 0, i32 0, i32 0
  %145 = load %"class.std::__1::__tree_node_base"*, %"class.std::__1::__tree_node_base"** %144, align 8
  %146 = icmp eq %"class.std::__1::__tree_node_base"* %145, null
  br i1 %146, label %151, label %147

147:                                              ; preds = %141
  %148 = getelementptr inbounds %"class.std::__1::__tree_node_base", %"class.std::__1::__tree_node_base"* %145, i64 0, i32 3
  %149 = load i8, i8* %148, align 8, !range !2
  %150 = icmp eq i8 %149, 0
  br i1 %150, label %172, label %151

151:                                              ; preds = %147, %141
  %152 = getelementptr inbounds %"class.std::__1::__tree_node_base", %"class.std::__1::__tree_node_base"* %143, i64 0, i32 1
  %153 = load %"class.std::__1::__tree_node_base"*, %"class.std::__1::__tree_node_base"** %152, align 8
  %154 = icmp eq %"class.std::__1::__tree_node_base"* %153, null
  br i1 %154, label %159, label %155

155:                                              ; preds = %151
  %156 = getelementptr inbounds %"class.std::__1::__tree_node_base", %"class.std::__1::__tree_node_base"* %153, i64 0, i32 3
  %157 = load i8, i8* %156, align 8, !range !2
  %158 = icmp eq i8 %157, 0
  br i1 %158, label %177, label %159

159:                                              ; preds = %155, %151
  %160 = getelementptr inbounds %"class.std::__1::__tree_node_base", %"class.std::__1::__tree_node_base"* %143, i64 0, i32 3
  store i8 0, i8* %160, align 8
  %161 = getelementptr inbounds %"class.std::__1::__tree_node_base", %"class.std::__1::__tree_node_base"* %143, i64 0, i32 2
  %162 = bitcast %"class.std::__1::__tree_end_node"** %161 to %"class.std::__1::__tree_node_base"**
  %163 = load %"class.std::__1::__tree_node_base"*, %"class.std::__1::__tree_node_base"** %162, align 8
  %164 = icmp eq %"class.std::__1::__tree_node_base"* %163, %142
  br i1 %164, label %169, label %165

165:                                              ; preds = %159
  %166 = getelementptr inbounds %"class.std::__1::__tree_node_base", %"class.std::__1::__tree_node_base"* %163, i64 0, i32 3
  %167 = load i8, i8* %166, align 8, !range !2
  %168 = icmp eq i8 %167, 0
  br i1 %168, label %169, label %371

169:                                              ; preds = %165, %159
  %170 = phi %"class.std::__1::__tree_node_base"* [ %163, %165 ], [ %142, %159 ]
  %171 = getelementptr inbounds %"class.std::__1::__tree_node_base", %"class.std::__1::__tree_node_base"* %170, i64 0, i32 3
  store i8 1, i8* %171, align 8
  br label %382

172:                                              ; preds = %147
  %173 = getelementptr inbounds %"class.std::__1::__tree_node_base", %"class.std::__1::__tree_node_base"* %143, i64 0, i32 0, i32 0
  %174 = getelementptr inbounds %"class.std::__1::__tree_node_base", %"class.std::__1::__tree_node_base"* %143, i64 0, i32 1
  %175 = load %"class.std::__1::__tree_node_base"*, %"class.std::__1::__tree_node_base"** %174, align 8
  %176 = icmp eq %"class.std::__1::__tree_node_base"* %175, null
  br i1 %176, label %185, label %179

177:                                              ; preds = %155
  %178 = getelementptr inbounds %"class.std::__1::__tree_node_base", %"class.std::__1::__tree_node_base"* %143, i64 0, i32 0, i32 0
  br label %179

179:                                              ; preds = %177, %172
  %180 = phi %"class.std::__1::__tree_node_base"** [ %173, %172 ], [ %178, %177 ]
  %181 = phi %"class.std::__1::__tree_node_base"* [ %175, %172 ], [ %153, %177 ]
  %182 = getelementptr inbounds %"class.std::__1::__tree_node_base", %"class.std::__1::__tree_node_base"* %181, i64 0, i32 3
  %183 = load i8, i8* %182, align 8, !range !2
  %184 = icmp eq i8 %183, 0
  br i1 %184, label %209, label %185

185:                                              ; preds = %179, %172
  %186 = phi %"class.std::__1::__tree_node_base"** [ %180, %179 ], [ %173, %172 ]
  %187 = getelementptr inbounds %"class.std::__1::__tree_node_base", %"class.std::__1::__tree_node_base"* %145, i64 0, i32 3
  store i8 1, i8* %187, align 8
  %188 = getelementptr inbounds %"class.std::__1::__tree_node_base", %"class.std::__1::__tree_node_base"* %143, i64 0, i32 3
  store i8 0, i8* %188, align 8
  %189 = load %"class.std::__1::__tree_node_base"*, %"class.std::__1::__tree_node_base"** %186, align 8
  %190 = getelementptr inbounds %"class.std::__1::__tree_node_base", %"class.std::__1::__tree_node_base"* %189, i64 0, i32 1
  %191 = load %"class.std::__1::__tree_node_base"*, %"class.std::__1::__tree_node_base"** %190, align 8
  store %"class.std::__1::__tree_node_base"* %191, %"class.std::__1::__tree_node_base"** %186, align 8
  %192 = icmp eq %"class.std::__1::__tree_node_base"* %191, null
  br i1 %192, label %196, label %193

193:                                              ; preds = %185
  %194 = getelementptr inbounds %"class.std::__1::__tree_node_base", %"class.std::__1::__tree_node_base"* %143, i64 0, i32 0
  %195 = getelementptr inbounds %"class.std::__1::__tree_node_base", %"class.std::__1::__tree_node_base"* %191, i64 0, i32 2
  store %"class.std::__1::__tree_end_node"* %194, %"class.std::__1::__tree_end_node"** %195, align 8
  br label %196

196:                                              ; preds = %193, %185
  %197 = getelementptr inbounds %"class.std::__1::__tree_node_base", %"class.std::__1::__tree_node_base"* %143, i64 0, i32 2
  %198 = bitcast %"class.std::__1::__tree_end_node"** %197 to i64*
  %199 = load i64, i64* %198, align 8
  %200 = getelementptr inbounds %"class.std::__1::__tree_node_base", %"class.std::__1::__tree_node_base"* %189, i64 0, i32 2
  %201 = bitcast %"class.std::__1::__tree_end_node"** %200 to i64*
  store i64 %199, i64* %201, align 8
  %202 = load %"class.std::__1::__tree_end_node"*, %"class.std::__1::__tree_end_node"** %197, align 8
  %203 = getelementptr inbounds %"class.std::__1::__tree_end_node", %"class.std::__1::__tree_end_node"* %202, i64 0, i32 0
  %204 = load %"class.std::__1::__tree_node_base"*, %"class.std::__1::__tree_node_base"** %203, align 8
  %205 = icmp eq %"class.std::__1::__tree_node_base"* %204, %143
  %206 = getelementptr inbounds %"class.std::__1::__tree_end_node", %"class.std::__1::__tree_end_node"* %202, i64 1, i32 0
  %207 = select i1 %205, %"class.std::__1::__tree_node_base"** %203, %"class.std::__1::__tree_node_base"** %206
  store %"class.std::__1::__tree_node_base"* %189, %"class.std::__1::__tree_node_base"** %207, align 8
  store %"class.std::__1::__tree_node_base"* %143, %"class.std::__1::__tree_node_base"** %190, align 8
  %208 = getelementptr inbounds %"class.std::__1::__tree_node_base", %"class.std::__1::__tree_node_base"* %189, i64 0, i32 0
  store %"class.std::__1::__tree_end_node"* %208, %"class.std::__1::__tree_end_node"** %197, align 8
  br label %209

209:                                              ; preds = %179, %196
  %210 = phi %"class.std::__1::__tree_node_base"* [ %189, %196 ], [ %143, %179 ]
  %211 = getelementptr inbounds %"class.std::__1::__tree_node_base", %"class.std::__1::__tree_node_base"* %210, i64 0, i32 2
  %212 = bitcast %"class.std::__1::__tree_end_node"** %211 to %"class.std::__1::__tree_node_base"**
  %213 = load %"class.std::__1::__tree_node_base"*, %"class.std::__1::__tree_node_base"** %212, align 8
  %214 = getelementptr inbounds %"class.std::__1::__tree_node_base", %"class.std::__1::__tree_node_base"* %213, i64 0, i32 3
  %215 = load i8, i8* %214, align 8, !range !2
  %216 = getelementptr inbounds %"class.std::__1::__tree_node_base", %"class.std::__1::__tree_node_base"* %210, i64 0, i32 3
  store i8 %215, i8* %216, align 8
  store i8 1, i8* %214, align 8
  %217 = getelementptr inbounds %"class.std::__1::__tree_node_base", %"class.std::__1::__tree_node_base"* %210, i64 0, i32 1
  %218 = load %"class.std::__1::__tree_node_base"*, %"class.std::__1::__tree_node_base"** %217, align 8
  %219 = getelementptr inbounds %"class.std::__1::__tree_node_base", %"class.std::__1::__tree_node_base"* %218, i64 0, i32 3
  store i8 1, i8* %219, align 8
  %220 = load %"class.std::__1::__tree_node_base"*, %"class.std::__1::__tree_node_base"** %212, align 8
  %221 = getelementptr inbounds %"class.std::__1::__tree_node_base", %"class.std::__1::__tree_node_base"* %220, i64 0, i32 1
  %222 = load %"class.std::__1::__tree_node_base"*, %"class.std::__1::__tree_node_base"** %221, align 8
  %223 = getelementptr inbounds %"class.std::__1::__tree_node_base", %"class.std::__1::__tree_node_base"* %222, i64 0, i32 0, i32 0
  %224 = load %"class.std::__1::__tree_node_base"*, %"class.std::__1::__tree_node_base"** %223, align 8
  store %"class.std::__1::__tree_node_base"* %224, %"class.std::__1::__tree_node_base"** %221, align 8
  %225 = icmp eq %"class.std::__1::__tree_node_base"* %224, null
  br i1 %225, label %229, label %226

226:                                              ; preds = %209
  %227 = getelementptr inbounds %"class.std::__1::__tree_node_base", %"class.std::__1::__tree_node_base"* %220, i64 0, i32 0
  %228 = getelementptr inbounds %"class.std::__1::__tree_node_base", %"class.std::__1::__tree_node_base"* %224, i64 0, i32 2
  store %"class.std::__1::__tree_end_node"* %227, %"class.std::__1::__tree_end_node"** %228, align 8
  br label %229

229:                                              ; preds = %226, %209
  %230 = getelementptr inbounds %"class.std::__1::__tree_node_base", %"class.std::__1::__tree_node_base"* %220, i64 0, i32 2
  %231 = bitcast %"class.std::__1::__tree_end_node"** %230 to i64*
  %232 = load i64, i64* %231, align 8
  %233 = getelementptr inbounds %"class.std::__1::__tree_node_base", %"class.std::__1::__tree_node_base"* %222, i64 0, i32 2
  %234 = bitcast %"class.std::__1::__tree_end_node"** %233 to i64*
  store i64 %232, i64* %234, align 8
  %235 = load %"class.std::__1::__tree_end_node"*, %"class.std::__1::__tree_end_node"** %230, align 8
  %236 = getelementptr inbounds %"class.std::__1::__tree_end_node", %"class.std::__1::__tree_end_node"* %235, i64 0, i32 0
  %237 = load %"class.std::__1::__tree_node_base"*, %"class.std::__1::__tree_node_base"** %236, align 8
  %238 = icmp eq %"class.std::__1::__tree_node_base"* %237, %220
  %239 = getelementptr inbounds %"class.std::__1::__tree_end_node", %"class.std::__1::__tree_end_node"* %235, i64 1, i32 0
  %240 = select i1 %238, %"class.std::__1::__tree_node_base"** %236, %"class.std::__1::__tree_node_base"** %239
  store %"class.std::__1::__tree_node_base"* %222, %"class.std::__1::__tree_node_base"** %240, align 8
  store %"class.std::__1::__tree_node_base"* %220, %"class.std::__1::__tree_node_base"** %223, align 8
  %241 = getelementptr inbounds %"class.std::__1::__tree_node_base", %"class.std::__1::__tree_node_base"* %222, i64 0, i32 0
  store %"class.std::__1::__tree_end_node"* %241, %"class.std::__1::__tree_end_node"** %230, align 8
  br label %382

242:                                              ; preds = %97
  br i1 %107, label %275, label %243

243:                                              ; preds = %242
  store i8 1, i8* %105, align 8
  %244 = bitcast %"class.std::__1::__tree_end_node"** %100 to %"class.std::__1::__tree_node_base"**
  %245 = getelementptr inbounds %"class.std::__1::__tree_end_node", %"class.std::__1::__tree_end_node"* %101, i64 3
  %246 = bitcast %"class.std::__1::__tree_end_node"* %245 to i8*
  store i8 0, i8* %246, align 8
  %247 = load %"class.std::__1::__tree_node_base"*, %"class.std::__1::__tree_node_base"** %244, align 8
  %248 = getelementptr inbounds %"class.std::__1::__tree_node_base", %"class.std::__1::__tree_node_base"* %247, i64 0, i32 0, i32 0
  %249 = load %"class.std::__1::__tree_node_base"*, %"class.std::__1::__tree_node_base"** %248, align 8
  %250 = getelementptr inbounds %"class.std::__1::__tree_node_base", %"class.std::__1::__tree_node_base"* %249, i64 0, i32 1
  %251 = load %"class.std::__1::__tree_node_base"*, %"class.std::__1::__tree_node_base"** %250, align 8
  store %"class.std::__1::__tree_node_base"* %251, %"class.std::__1::__tree_node_base"** %248, align 8
  %252 = icmp eq %"class.std::__1::__tree_node_base"* %251, null
  br i1 %252, label %256, label %253

253:                                              ; preds = %243
  %254 = getelementptr inbounds %"class.std::__1::__tree_node_base", %"class.std::__1::__tree_node_base"* %247, i64 0, i32 0
  %255 = getelementptr inbounds %"class.std::__1::__tree_node_base", %"class.std::__1::__tree_node_base"* %251, i64 0, i32 2
  store %"class.std::__1::__tree_end_node"* %254, %"class.std::__1::__tree_end_node"** %255, align 8
  br label %256

256:                                              ; preds = %253, %243
  %257 = getelementptr inbounds %"class.std::__1::__tree_node_base", %"class.std::__1::__tree_node_base"* %247, i64 0, i32 2
  %258 = bitcast %"class.std::__1::__tree_end_node"** %257 to i64*
  %259 = load i64, i64* %258, align 8
  %260 = getelementptr inbounds %"class.std::__1::__tree_node_base", %"class.std::__1::__tree_node_base"* %249, i64 0, i32 2
  %261 = bitcast %"class.std::__1::__tree_end_node"** %260 to i64*
  store i64 %259, i64* %261, align 8
  %262 = load %"class.std::__1::__tree_end_node"*, %"class.std::__1::__tree_end_node"** %257, align 8
  %263 = getelementptr inbounds %"class.std::__1::__tree_end_node", %"class.std::__1::__tree_end_node"* %262, i64 0, i32 0
  %264 = load %"class.std::__1::__tree_node_base"*, %"class.std::__1::__tree_node_base"** %263, align 8
  %265 = icmp eq %"class.std::__1::__tree_node_base"* %264, %247
  %266 = getelementptr inbounds %"class.std::__1::__tree_end_node", %"class.std::__1::__tree_end_node"* %262, i64 1, i32 0
  %267 = select i1 %265, %"class.std::__1::__tree_node_base"** %263, %"class.std::__1::__tree_node_base"** %266
  store %"class.std::__1::__tree_node_base"* %249, %"class.std::__1::__tree_node_base"** %267, align 8
  store %"class.std::__1::__tree_node_base"* %247, %"class.std::__1::__tree_node_base"** %250, align 8
  %268 = getelementptr inbounds %"class.std::__1::__tree_node_base", %"class.std::__1::__tree_node_base"* %249, i64 0, i32 0
  store %"class.std::__1::__tree_end_node"* %268, %"class.std::__1::__tree_end_node"** %257, align 8
  %269 = getelementptr inbounds %"class.std::__1::__tree_node_base", %"class.std::__1::__tree_node_base"* %99, i64 0, i32 1
  %270 = load %"class.std::__1::__tree_node_base"*, %"class.std::__1::__tree_node_base"** %269, align 8
  %271 = icmp eq %"class.std::__1::__tree_node_base"* %98, %270
  %272 = select i1 %271, %"class.std::__1::__tree_node_base"* %99, %"class.std::__1::__tree_node_base"* %98
  %273 = getelementptr inbounds %"class.std::__1::__tree_node_base", %"class.std::__1::__tree_node_base"* %270, i64 0, i32 0, i32 0
  %274 = load %"class.std::__1::__tree_node_base"*, %"class.std::__1::__tree_node_base"** %273, align 8
  br label %275

275:                                              ; preds = %256, %242
  %276 = phi %"class.std::__1::__tree_node_base"* [ %98, %242 ], [ %272, %256 ]
  %277 = phi %"class.std::__1::__tree_node_base"* [ %99, %242 ], [ %274, %256 ]
  %278 = getelementptr inbounds %"class.std::__1::__tree_node_base", %"class.std::__1::__tree_node_base"* %277, i64 0, i32 0, i32 0
  %279 = load %"class.std::__1::__tree_node_base"*, %"class.std::__1::__tree_node_base"** %278, align 8
  %280 = icmp eq %"class.std::__1::__tree_node_base"* %279, null
  br i1 %280, label %285, label %281

281:                                              ; preds = %275
  %282 = getelementptr inbounds %"class.std::__1::__tree_node_base", %"class.std::__1::__tree_node_base"* %279, i64 0, i32 3
  %283 = load i8, i8* %282, align 8, !range !2
  %284 = icmp eq i8 %283, 0
  br i1 %284, label %338, label %285

285:                                              ; preds = %281, %275
  %286 = getelementptr inbounds %"class.std::__1::__tree_node_base", %"class.std::__1::__tree_node_base"* %277, i64 0, i32 1
  %287 = load %"class.std::__1::__tree_node_base"*, %"class.std::__1::__tree_node_base"** %286, align 8
  %288 = icmp eq %"class.std::__1::__tree_node_base"* %287, null
  br i1 %288, label %293, label %289

289:                                              ; preds = %285
  %290 = getelementptr inbounds %"class.std::__1::__tree_node_base", %"class.std::__1::__tree_node_base"* %287, i64 0, i32 3
  %291 = load i8, i8* %290, align 8, !range !2
  %292 = icmp eq i8 %291, 0
  br i1 %292, label %305, label %293

293:                                              ; preds = %289, %285
  %294 = getelementptr inbounds %"class.std::__1::__tree_node_base", %"class.std::__1::__tree_node_base"* %277, i64 0, i32 3
  store i8 0, i8* %294, align 8
  %295 = getelementptr inbounds %"class.std::__1::__tree_node_base", %"class.std::__1::__tree_node_base"* %277, i64 0, i32 2
  %296 = bitcast %"class.std::__1::__tree_end_node"** %295 to %"class.std::__1::__tree_node_base"**
  %297 = load %"class.std::__1::__tree_node_base"*, %"class.std::__1::__tree_node_base"** %296, align 8
  %298 = getelementptr inbounds %"class.std::__1::__tree_node_base", %"class.std::__1::__tree_node_base"* %297, i64 0, i32 3
  %299 = load i8, i8* %298, align 8, !range !2
  %300 = icmp eq i8 %299, 0
  %301 = icmp eq %"class.std::__1::__tree_node_base"* %297, %276
  %302 = or i1 %301, %300
  br i1 %302, label %303, label %371

303:                                              ; preds = %293
  %304 = getelementptr inbounds %"class.std::__1::__tree_node_base", %"class.std::__1::__tree_node_base"* %297, i64 0, i32 3
  store i8 1, i8* %304, align 8
  br label %382

305:                                              ; preds = %289
  br i1 %280, label %313, label %306

306:                                              ; preds = %305
  %307 = getelementptr inbounds %"class.std::__1::__tree_node_base", %"class.std::__1::__tree_node_base"* %279, i64 0, i32 3
  %308 = load i8, i8* %307, align 8, !range !2
  %309 = icmp eq i8 %308, 0
  br i1 %309, label %338, label %310

310:                                              ; preds = %306
  %311 = getelementptr inbounds %"class.std::__1::__tree_node_base", %"class.std::__1::__tree_node_base"* %277, i64 0, i32 1
  %312 = load %"class.std::__1::__tree_node_base"*, %"class.std::__1::__tree_node_base"** %311, align 8
  br label %313

313:                                              ; preds = %310, %305
  %314 = phi %"class.std::__1::__tree_node_base"* [ %312, %310 ], [ %287, %305 ]
  %315 = getelementptr inbounds %"class.std::__1::__tree_node_base", %"class.std::__1::__tree_node_base"* %277, i64 0, i32 1
  %316 = getelementptr inbounds %"class.std::__1::__tree_node_base", %"class.std::__1::__tree_node_base"* %314, i64 0, i32 3
  store i8 1, i8* %316, align 8
  %317 = getelementptr inbounds %"class.std::__1::__tree_node_base", %"class.std::__1::__tree_node_base"* %277, i64 0, i32 3
  store i8 0, i8* %317, align 8
  %318 = load %"class.std::__1::__tree_node_base"*, %"class.std::__1::__tree_node_base"** %315, align 8
  %319 = getelementptr inbounds %"class.std::__1::__tree_node_base", %"class.std::__1::__tree_node_base"* %318, i64 0, i32 0, i32 0
  %320 = load %"class.std::__1::__tree_node_base"*, %"class.std::__1::__tree_node_base"** %319, align 8
  store %"class.std::__1::__tree_node_base"* %320, %"class.std::__1::__tree_node_base"** %315, align 8
  %321 = icmp eq %"class.std::__1::__tree_node_base"* %320, null
  br i1 %321, label %325, label %322

322:                                              ; preds = %313
  %323 = getelementptr inbounds %"class.std::__1::__tree_node_base", %"class.std::__1::__tree_node_base"* %277, i64 0, i32 0
  %324 = getelementptr inbounds %"class.std::__1::__tree_node_base", %"class.std::__1::__tree_node_base"* %320, i64 0, i32 2
  store %"class.std::__1::__tree_end_node"* %323, %"class.std::__1::__tree_end_node"** %324, align 8
  br label %325

325:                                              ; preds = %322, %313
  %326 = getelementptr inbounds %"class.std::__1::__tree_node_base", %"class.std::__1::__tree_node_base"* %277, i64 0, i32 2
  %327 = bitcast %"class.std::__1::__tree_end_node"** %326 to i64*
  %328 = load i64, i64* %327, align 8
  %329 = getelementptr inbounds %"class.std::__1::__tree_node_base", %"class.std::__1::__tree_node_base"* %318, i64 0, i32 2
  %330 = bitcast %"class.std::__1::__tree_end_node"** %329 to i64*
  store i64 %328, i64* %330, align 8
  %331 = load %"class.std::__1::__tree_end_node"*, %"class.std::__1::__tree_end_node"** %326, align 8
  %332 = getelementptr inbounds %"class.std::__1::__tree_end_node", %"class.std::__1::__tree_end_node"* %331, i64 0, i32 0
  %333 = load %"class.std::__1::__tree_node_base"*, %"class.std::__1::__tree_node_base"** %332, align 8
  %334 = icmp eq %"class.std::__1::__tree_node_base"* %333, %277
  %335 = getelementptr inbounds %"class.std::__1::__tree_end_node", %"class.std::__1::__tree_end_node"* %331, i64 1, i32 0
  %336 = select i1 %334, %"class.std::__1::__tree_node_base"** %332, %"class.std::__1::__tree_node_base"** %335
  store %"class.std::__1::__tree_node_base"* %318, %"class.std::__1::__tree_node_base"** %336, align 8
  store %"class.std::__1::__tree_node_base"* %277, %"class.std::__1::__tree_node_base"** %319, align 8
  %337 = getelementptr inbounds %"class.std::__1::__tree_node_base", %"class.std::__1::__tree_node_base"* %318, i64 0, i32 0
  store %"class.std::__1::__tree_end_node"* %337, %"class.std::__1::__tree_end_node"** %326, align 8
  br label %338

338:                                              ; preds = %281, %306, %325
  %339 = phi %"class.std::__1::__tree_node_base"* [ %318, %325 ], [ %277, %306 ], [ %277, %281 ]
  %340 = getelementptr inbounds %"class.std::__1::__tree_node_base", %"class.std::__1::__tree_node_base"* %339, i64 0, i32 2
  %341 = bitcast %"class.std::__1::__tree_end_node"** %340 to %"class.std::__1::__tree_node_base"**
  %342 = load %"class.std::__1::__tree_node_base"*, %"class.std::__1::__tree_node_base"** %341, align 8
  %343 = getelementptr inbounds %"class.std::__1::__tree_node_base", %"class.std::__1::__tree_node_base"* %342, i64 0, i32 3
  %344 = load i8, i8* %343, align 8, !range !2
  %345 = getelementptr inbounds %"class.std::__1::__tree_node_base", %"class.std::__1::__tree_node_base"* %339, i64 0, i32 3
  store i8 %344, i8* %345, align 8
  store i8 1, i8* %343, align 8
  %346 = getelementptr inbounds %"class.std::__1::__tree_node_base", %"class.std::__1::__tree_node_base"* %339, i64 0, i32 0, i32 0
  %347 = load %"class.std::__1::__tree_node_base"*, %"class.std::__1::__tree_node_base"** %346, align 8
  %348 = getelementptr inbounds %"class.std::__1::__tree_node_base", %"class.std::__1::__tree_node_base"* %347, i64 0, i32 3
  store i8 1, i8* %348, align 8
  %349 = load %"class.std::__1::__tree_node_base"*, %"class.std::__1::__tree_node_base"** %341, align 8
  %350 = getelementptr inbounds %"class.std::__1::__tree_node_base", %"class.std::__1::__tree_node_base"* %349, i64 0, i32 0, i32 0
  %351 = load %"class.std::__1::__tree_node_base"*, %"class.std::__1::__tree_node_base"** %350, align 8
  %352 = getelementptr inbounds %"class.std::__1::__tree_node_base", %"class.std::__1::__tree_node_base"* %351, i64 0, i32 1
  %353 = load %"class.std::__1::__tree_node_base"*, %"class.std::__1::__tree_node_base"** %352, align 8
  store %"class.std::__1::__tree_node_base"* %353, %"class.std::__1::__tree_node_base"** %350, align 8
  %354 = icmp eq %"class.std::__1::__tree_node_base"* %353, null
  br i1 %354, label %358, label %355

355:                                              ; preds = %338
  %356 = getelementptr inbounds %"class.std::__1::__tree_node_base", %"class.std::__1::__tree_node_base"* %349, i64 0, i32 0
  %357 = getelementptr inbounds %"class.std::__1::__tree_node_base", %"class.std::__1::__tree_node_base"* %353, i64 0, i32 2
  store %"class.std::__1::__tree_end_node"* %356, %"class.std::__1::__tree_end_node"** %357, align 8
  br label %358

358:                                              ; preds = %355, %338
  %359 = getelementptr inbounds %"class.std::__1::__tree_node_base", %"class.std::__1::__tree_node_base"* %349, i64 0, i32 2
  %360 = bitcast %"class.std::__1::__tree_end_node"** %359 to i64*
  %361 = load i64, i64* %360, align 8
  %362 = getelementptr inbounds %"class.std::__1::__tree_node_base", %"class.std::__1::__tree_node_base"* %351, i64 0, i32 2
  %363 = bitcast %"class.std::__1::__tree_end_node"** %362 to i64*
  store i64 %361, i64* %363, align 8
  %364 = load %"class.std::__1::__tree_end_node"*, %"class.std::__1::__tree_end_node"** %359, align 8
  %365 = getelementptr inbounds %"class.std::__1::__tree_end_node", %"class.std::__1::__tree_end_node"* %364, i64 0, i32 0
  %366 = load %"class.std::__1::__tree_node_base"*, %"class.std::__1::__tree_node_base"** %365, align 8
  %367 = icmp eq %"class.std::__1::__tree_node_base"* %366, %349
  %368 = getelementptr inbounds %"class.std::__1::__tree_end_node", %"class.std::__1::__tree_end_node"* %364, i64 1, i32 0
  %369 = select i1 %367, %"class.std::__1::__tree_node_base"** %365, %"class.std::__1::__tree_node_base"** %368
  store %"class.std::__1::__tree_node_base"* %351, %"class.std::__1::__tree_node_base"** %369, align 8
  store %"class.std::__1::__tree_node_base"* %349, %"class.std::__1::__tree_node_base"** %352, align 8
  %370 = getelementptr inbounds %"class.std::__1::__tree_node_base", %"class.std::__1::__tree_node_base"* %351, i64 0, i32 0
  store %"class.std::__1::__tree_end_node"* %370, %"class.std::__1::__tree_end_node"** %359, align 8
  br label %382

371:                                              ; preds = %293, %165
  %372 = phi %"class.std::__1::__tree_node_base"* [ %163, %165 ], [ %297, %293 ]
  %373 = phi %"class.std::__1::__tree_node_base"* [ %142, %165 ], [ %276, %293 ]
  %374 = getelementptr inbounds %"class.std::__1::__tree_node_base", %"class.std::__1::__tree_node_base"* %372, i64 0, i32 2
  %375 = load %"class.std::__1::__tree_end_node"*, %"class.std::__1::__tree_end_node"** %374, align 8
  %376 = getelementptr inbounds %"class.std::__1::__tree_end_node", %"class.std::__1::__tree_end_node"* %375, i64 0, i32 0
  %377 = load %"class.std::__1::__tree_node_base"*, %"class.std::__1::__tree_node_base"** %376, align 8
  %378 = icmp eq %"class.std::__1::__tree_node_base"* %377, %372
  %379 = getelementptr inbounds %"class.std::__1::__tree_end_node", %"class.std::__1::__tree_end_node"* %375, i64 1, i32 0
  %380 = select i1 %378, %"class.std::__1::__tree_node_base"** %379, %"class.std::__1::__tree_node_base"** %376
  %381 = load %"class.std::__1::__tree_node_base"*, %"class.std::__1::__tree_node_base"** %380, align 8
  br label %97

382:                                              ; preds = %95, %358, %303, %229, %169, %90
  ret void
}

; Function Attrs: nounwind ssp uwtable
define internal fastcc void @_ZNSt3__16__treeINS_12__value_typeIPN7content11WebContentsENS_10unique_ptrIN10extensions12_GLOBAL__N_115OverscanTracker19OverscanWebObserverENS_14default_deleteIS9_EEEEEENS_19__map_value_compareIS4_SD_NS_4lessIS4_EELb1EEENS_9allocatorISD_EEE7destroyEPNS_11__tree_nodeISD_PvEE(%"class.std::__1::__tree.359"* readnone, %"class.std::__1::__tree_node"*) unnamed_addr #0 align 2 {
  %3 = icmp eq %"class.std::__1::__tree_node"* %1, null
  br i1 %3, label %20, label %4

4:                                                ; preds = %2
  %5 = bitcast %"class.std::__1::__tree_node"* %1 to %"class.std::__1::__tree_node"**
  %6 = load %"class.std::__1::__tree_node"*, %"class.std::__1::__tree_node"** %5, align 8
  tail call fastcc void @_ZNSt3__16__treeINS_12__value_typeIPN7content11WebContentsENS_10unique_ptrIN10extensions12_GLOBAL__N_115OverscanTracker19OverscanWebObserverENS_14default_deleteIS9_EEEEEENS_19__map_value_compareIS4_SD_NS_4lessIS4_EELb1EEENS_9allocatorISD_EEE7destroyEPNS_11__tree_nodeISD_PvEE(%"class.std::__1::__tree.359"* %0, %"class.std::__1::__tree_node"* %6) #9
  %7 = getelementptr inbounds %"class.std::__1::__tree_node", %"class.std::__1::__tree_node"* %1, i64 0, i32 0, i32 1
  %8 = bitcast %"class.std::__1::__tree_node_base"** %7 to %"class.std::__1::__tree_node"**
  %9 = load %"class.std::__1::__tree_node"*, %"class.std::__1::__tree_node"** %8, align 8
  tail call fastcc void @_ZNSt3__16__treeINS_12__value_typeIPN7content11WebContentsENS_10unique_ptrIN10extensions12_GLOBAL__N_115OverscanTracker19OverscanWebObserverENS_14default_deleteIS9_EEEEEENS_19__map_value_compareIS4_SD_NS_4lessIS4_EELb1EEENS_9allocatorISD_EEE7destroyEPNS_11__tree_nodeISD_PvEE(%"class.std::__1::__tree.359"* %0, %"class.std::__1::__tree_node"* %9) #9
  %10 = getelementptr inbounds %"class.std::__1::__tree_node", %"class.std::__1::__tree_node"* %1, i64 0, i32 1, i32 0, i32 1, i32 0, i32 0, i32 0
  %11 = load %"class.extensions::(anonymous namespace)::OverscanTracker::OverscanWebObserver"*, %"class.extensions::(anonymous namespace)::OverscanTracker::OverscanWebObserver"** %10, align 8
  store %"class.extensions::(anonymous namespace)::OverscanTracker::OverscanWebObserver"* null, %"class.extensions::(anonymous namespace)::OverscanTracker::OverscanWebObserver"** %10, align 8
  %12 = icmp eq %"class.extensions::(anonymous namespace)::OverscanTracker::OverscanWebObserver"* %11, null
  br i1 %12, label %18, label %13

13:                                               ; preds = %4
  %14 = bitcast %"class.extensions::(anonymous namespace)::OverscanTracker::OverscanWebObserver"* %11 to void (%"class.extensions::(anonymous namespace)::OverscanTracker::OverscanWebObserver"*)***
  %15 = load void (%"class.extensions::(anonymous namespace)::OverscanTracker::OverscanWebObserver"*)**, void (%"class.extensions::(anonymous namespace)::OverscanTracker::OverscanWebObserver"*)*** %14, align 8
  %16 = getelementptr inbounds void (%"class.extensions::(anonymous namespace)::OverscanTracker::OverscanWebObserver"*)*, void (%"class.extensions::(anonymous namespace)::OverscanTracker::OverscanWebObserver"*)** %15, i64 8
  %17 = load void (%"class.extensions::(anonymous namespace)::OverscanTracker::OverscanWebObserver"*)*, void (%"class.extensions::(anonymous namespace)::OverscanTracker::OverscanWebObserver"*)** %16, align 8
  tail call void %17(%"class.extensions::(anonymous namespace)::OverscanTracker::OverscanWebObserver"* nonnull %11) #9
  br label %18

18:                                               ; preds = %4, %13
  %19 = bitcast %"class.std::__1::__tree_node"* %1 to i8*
  tail call void @_ZdlPv(i8* %19) #10
  br label %20

20:                                               ; preds = %2, %18
  ret void
}

; Function Attrs: nounwind ssp uwtable
define linkonce_odr hidden void @_ZNSt3__127__tree_balance_after_insertIPNS_16__tree_node_baseIPvEEEEvT_S5_(%"class.std::__1::__tree_node_base"*, %"class.std::__1::__tree_node_base"*) local_unnamed_addr #0 comdat {
  %3 = icmp eq %"class.std::__1::__tree_node_base"* %1, %0
  %4 = getelementptr inbounds %"class.std::__1::__tree_node_base", %"class.std::__1::__tree_node_base"* %1, i64 0, i32 3
  %5 = zext i1 %3 to i8
  store i8 %5, i8* %4, align 8
  br i1 %3, label %156, label %6

6:                                                ; preds = %2, %149
  %7 = phi %"class.std::__1::__tree_node_base"* [ %20, %149 ], [ %1, %2 ]
  %8 = getelementptr inbounds %"class.std::__1::__tree_node_base", %"class.std::__1::__tree_node_base"* %7, i64 0, i32 2
  %9 = bitcast %"class.std::__1::__tree_end_node"** %8 to %"class.std::__1::__tree_node_base"**
  %10 = load %"class.std::__1::__tree_node_base"*, %"class.std::__1::__tree_node_base"** %9, align 8
  %11 = getelementptr inbounds %"class.std::__1::__tree_node_base", %"class.std::__1::__tree_node_base"* %10, i64 0, i32 3
  %12 = load i8, i8* %11, align 8, !range !2
  %13 = icmp eq i8 %12, 0
  br i1 %13, label %14, label %156

14:                                               ; preds = %6
  %15 = getelementptr inbounds %"class.std::__1::__tree_node_base", %"class.std::__1::__tree_node_base"* %10, i64 0, i32 2
  %16 = load %"class.std::__1::__tree_end_node"*, %"class.std::__1::__tree_end_node"** %15, align 8
  %17 = getelementptr inbounds %"class.std::__1::__tree_end_node", %"class.std::__1::__tree_end_node"* %16, i64 0, i32 0
  %18 = load %"class.std::__1::__tree_node_base"*, %"class.std::__1::__tree_node_base"** %17, align 8
  %19 = icmp eq %"class.std::__1::__tree_node_base"* %18, %10
  %20 = bitcast %"class.std::__1::__tree_end_node"* %16 to %"class.std::__1::__tree_node_base"*
  br i1 %19, label %21, label %87

21:                                               ; preds = %14
  %22 = getelementptr inbounds %"class.std::__1::__tree_end_node", %"class.std::__1::__tree_end_node"* %16, i64 1, i32 0
  %23 = load %"class.std::__1::__tree_node_base"*, %"class.std::__1::__tree_node_base"** %22, align 8
  %24 = icmp eq %"class.std::__1::__tree_node_base"* %23, null
  br i1 %24, label %29, label %25

25:                                               ; preds = %21
  %26 = getelementptr inbounds %"class.std::__1::__tree_node_base", %"class.std::__1::__tree_node_base"* %23, i64 0, i32 3
  %27 = load i8, i8* %26, align 8, !range !2
  %28 = icmp eq i8 %27, 0
  br i1 %28, label %149, label %29

29:                                               ; preds = %25, %21
  %30 = getelementptr inbounds %"class.std::__1::__tree_node_base", %"class.std::__1::__tree_node_base"* %10, i64 0, i32 2
  %31 = bitcast %"class.std::__1::__tree_end_node"* %16 to %"class.std::__1::__tree_node_base"*
  %32 = getelementptr inbounds %"class.std::__1::__tree_node_base", %"class.std::__1::__tree_node_base"* %10, i64 0, i32 0, i32 0
  %33 = load %"class.std::__1::__tree_node_base"*, %"class.std::__1::__tree_node_base"** %32, align 8
  %34 = icmp eq %"class.std::__1::__tree_node_base"* %33, %7
  br i1 %34, label %61, label %35

35:                                               ; preds = %29
  %36 = ptrtoint %"class.std::__1::__tree_end_node"* %16 to i64
  %37 = getelementptr inbounds %"class.std::__1::__tree_node_base", %"class.std::__1::__tree_node_base"* %10, i64 0, i32 1
  %38 = load %"class.std::__1::__tree_node_base"*, %"class.std::__1::__tree_node_base"** %37, align 8
  %39 = getelementptr inbounds %"class.std::__1::__tree_node_base", %"class.std::__1::__tree_node_base"* %38, i64 0, i32 0, i32 0
  %40 = load %"class.std::__1::__tree_node_base"*, %"class.std::__1::__tree_node_base"** %39, align 8
  store %"class.std::__1::__tree_node_base"* %40, %"class.std::__1::__tree_node_base"** %37, align 8
  %41 = icmp eq %"class.std::__1::__tree_node_base"* %40, null
  br i1 %41, label %47, label %42

42:                                               ; preds = %35
  %43 = getelementptr inbounds %"class.std::__1::__tree_node_base", %"class.std::__1::__tree_node_base"* %10, i64 0, i32 0
  %44 = getelementptr inbounds %"class.std::__1::__tree_node_base", %"class.std::__1::__tree_node_base"* %40, i64 0, i32 2
  store %"class.std::__1::__tree_end_node"* %43, %"class.std::__1::__tree_end_node"** %44, align 8
  %45 = bitcast %"class.std::__1::__tree_end_node"** %30 to i64*
  %46 = load i64, i64* %45, align 8
  br label %47

47:                                               ; preds = %35, %42
  %48 = phi i64 [ %46, %42 ], [ %36, %35 ]
  %49 = getelementptr inbounds %"class.std::__1::__tree_node_base", %"class.std::__1::__tree_node_base"* %38, i64 0, i32 2
  %50 = bitcast %"class.std::__1::__tree_end_node"** %49 to i64*
  store i64 %48, i64* %50, align 8
  %51 = load %"class.std::__1::__tree_end_node"*, %"class.std::__1::__tree_end_node"** %30, align 8
  %52 = getelementptr inbounds %"class.std::__1::__tree_end_node", %"class.std::__1::__tree_end_node"* %51, i64 0, i32 0
  %53 = load %"class.std::__1::__tree_node_base"*, %"class.std::__1::__tree_node_base"** %52, align 8
  %54 = icmp eq %"class.std::__1::__tree_node_base"* %53, %10
  %55 = getelementptr inbounds %"class.std::__1::__tree_end_node", %"class.std::__1::__tree_end_node"* %51, i64 1, i32 0
  %56 = select i1 %54, %"class.std::__1::__tree_node_base"** %52, %"class.std::__1::__tree_node_base"** %55
  store %"class.std::__1::__tree_node_base"* %38, %"class.std::__1::__tree_node_base"** %56, align 8
  store %"class.std::__1::__tree_node_base"* %10, %"class.std::__1::__tree_node_base"** %39, align 8
  %57 = getelementptr inbounds %"class.std::__1::__tree_node_base", %"class.std::__1::__tree_node_base"* %38, i64 0, i32 0
  store %"class.std::__1::__tree_end_node"* %57, %"class.std::__1::__tree_end_node"** %30, align 8
  %58 = getelementptr inbounds %"class.std::__1::__tree_node_base", %"class.std::__1::__tree_node_base"* %38, i64 0, i32 2
  %59 = bitcast %"class.std::__1::__tree_end_node"** %58 to %"class.std::__1::__tree_node_base"**
  %60 = load %"class.std::__1::__tree_node_base"*, %"class.std::__1::__tree_node_base"** %59, align 8
  br label %61

61:                                               ; preds = %47, %29
  %62 = phi %"class.std::__1::__tree_node_base"* [ %31, %29 ], [ %60, %47 ]
  %63 = phi %"class.std::__1::__tree_node_base"* [ %10, %29 ], [ %38, %47 ]
  %64 = getelementptr inbounds %"class.std::__1::__tree_node_base", %"class.std::__1::__tree_node_base"* %63, i64 0, i32 3
  store i8 1, i8* %64, align 8
  %65 = getelementptr inbounds %"class.std::__1::__tree_node_base", %"class.std::__1::__tree_node_base"* %62, i64 0, i32 3
  store i8 0, i8* %65, align 8
  %66 = getelementptr inbounds %"class.std::__1::__tree_node_base", %"class.std::__1::__tree_node_base"* %62, i64 0, i32 0, i32 0
  %67 = load %"class.std::__1::__tree_node_base"*, %"class.std::__1::__tree_node_base"** %66, align 8
  %68 = getelementptr inbounds %"class.std::__1::__tree_node_base", %"class.std::__1::__tree_node_base"* %67, i64 0, i32 1
  %69 = load %"class.std::__1::__tree_node_base"*, %"class.std::__1::__tree_node_base"** %68, align 8
  store %"class.std::__1::__tree_node_base"* %69, %"class.std::__1::__tree_node_base"** %66, align 8
  %70 = icmp eq %"class.std::__1::__tree_node_base"* %69, null
  br i1 %70, label %74, label %71

71:                                               ; preds = %61
  %72 = getelementptr inbounds %"class.std::__1::__tree_node_base", %"class.std::__1::__tree_node_base"* %62, i64 0, i32 0
  %73 = getelementptr inbounds %"class.std::__1::__tree_node_base", %"class.std::__1::__tree_node_base"* %69, i64 0, i32 2
  store %"class.std::__1::__tree_end_node"* %72, %"class.std::__1::__tree_end_node"** %73, align 8
  br label %74

74:                                               ; preds = %71, %61
  %75 = getelementptr inbounds %"class.std::__1::__tree_node_base", %"class.std::__1::__tree_node_base"* %62, i64 0, i32 2
  %76 = bitcast %"class.std::__1::__tree_end_node"** %75 to i64*
  %77 = load i64, i64* %76, align 8
  %78 = getelementptr inbounds %"class.std::__1::__tree_node_base", %"class.std::__1::__tree_node_base"* %67, i64 0, i32 2
  %79 = bitcast %"class.std::__1::__tree_end_node"** %78 to i64*
  store i64 %77, i64* %79, align 8
  %80 = load %"class.std::__1::__tree_end_node"*, %"class.std::__1::__tree_end_node"** %75, align 8
  %81 = getelementptr inbounds %"class.std::__1::__tree_end_node", %"class.std::__1::__tree_end_node"* %80, i64 0, i32 0
  %82 = load %"class.std::__1::__tree_node_base"*, %"class.std::__1::__tree_node_base"** %81, align 8
  %83 = icmp eq %"class.std::__1::__tree_node_base"* %82, %62
  %84 = getelementptr inbounds %"class.std::__1::__tree_end_node", %"class.std::__1::__tree_end_node"* %80, i64 1, i32 0
  %85 = select i1 %83, %"class.std::__1::__tree_node_base"** %81, %"class.std::__1::__tree_node_base"** %84
  store %"class.std::__1::__tree_node_base"* %67, %"class.std::__1::__tree_node_base"** %85, align 8
  store %"class.std::__1::__tree_node_base"* %62, %"class.std::__1::__tree_node_base"** %68, align 8
  %86 = getelementptr inbounds %"class.std::__1::__tree_node_base", %"class.std::__1::__tree_node_base"* %67, i64 0, i32 0
  store %"class.std::__1::__tree_end_node"* %86, %"class.std::__1::__tree_end_node"** %75, align 8
  br label %156

87:                                               ; preds = %14
  %88 = icmp eq %"class.std::__1::__tree_node_base"* %18, null
  br i1 %88, label %93, label %89

89:                                               ; preds = %87
  %90 = getelementptr inbounds %"class.std::__1::__tree_node_base", %"class.std::__1::__tree_node_base"* %18, i64 0, i32 3
  %91 = load i8, i8* %90, align 8, !range !2
  %92 = icmp eq i8 %91, 0
  br i1 %92, label %149, label %93

93:                                               ; preds = %89, %87
  %94 = getelementptr inbounds %"class.std::__1::__tree_node_base", %"class.std::__1::__tree_node_base"* %10, i64 0, i32 2
  %95 = bitcast %"class.std::__1::__tree_end_node"* %16 to %"class.std::__1::__tree_node_base"*
  %96 = getelementptr inbounds %"class.std::__1::__tree_node_base", %"class.std::__1::__tree_node_base"* %10, i64 0, i32 0, i32 0
  %97 = load %"class.std::__1::__tree_node_base"*, %"class.std::__1::__tree_node_base"** %96, align 8
  %98 = icmp eq %"class.std::__1::__tree_node_base"* %97, %7
  br i1 %98, label %99, label %123

99:                                               ; preds = %93
  %100 = ptrtoint %"class.std::__1::__tree_end_node"* %16 to i64
  %101 = getelementptr inbounds %"class.std::__1::__tree_node_base", %"class.std::__1::__tree_node_base"* %10, i64 0, i32 0, i32 0
  %102 = getelementptr inbounds %"class.std::__1::__tree_node_base", %"class.std::__1::__tree_node_base"* %7, i64 0, i32 1
  %103 = load %"class.std::__1::__tree_node_base"*, %"class.std::__1::__tree_node_base"** %102, align 8
  store %"class.std::__1::__tree_node_base"* %103, %"class.std::__1::__tree_node_base"** %101, align 8
  %104 = icmp eq %"class.std::__1::__tree_node_base"* %103, null
  br i1 %104, label %110, label %105

105:                                              ; preds = %99
  %106 = getelementptr inbounds %"class.std::__1::__tree_node_base", %"class.std::__1::__tree_node_base"* %10, i64 0, i32 0
  %107 = getelementptr inbounds %"class.std::__1::__tree_node_base", %"class.std::__1::__tree_node_base"* %103, i64 0, i32 2
  store %"class.std::__1::__tree_end_node"* %106, %"class.std::__1::__tree_end_node"** %107, align 8
  %108 = bitcast %"class.std::__1::__tree_end_node"** %94 to i64*
  %109 = load i64, i64* %108, align 8
  br label %110

110:                                              ; preds = %99, %105
  %111 = phi i64 [ %109, %105 ], [ %100, %99 ]
  %112 = bitcast %"class.std::__1::__tree_end_node"** %8 to i64*
  store i64 %111, i64* %112, align 8
  %113 = load %"class.std::__1::__tree_end_node"*, %"class.std::__1::__tree_end_node"** %94, align 8
  %114 = getelementptr inbounds %"class.std::__1::__tree_end_node", %"class.std::__1::__tree_end_node"* %113, i64 0, i32 0
  %115 = load %"class.std::__1::__tree_node_base"*, %"class.std::__1::__tree_node_base"** %114, align 8
  %116 = icmp eq %"class.std::__1::__tree_node_base"* %115, %10
  %117 = getelementptr inbounds %"class.std::__1::__tree_end_node", %"class.std::__1::__tree_end_node"* %113, i64 1, i32 0
  %118 = select i1 %116, %"class.std::__1::__tree_node_base"** %114, %"class.std::__1::__tree_node_base"** %117
  store %"class.std::__1::__tree_node_base"* %7, %"class.std::__1::__tree_node_base"** %118, align 8
  store %"class.std::__1::__tree_node_base"* %10, %"class.std::__1::__tree_node_base"** %102, align 8
  %119 = getelementptr inbounds %"class.std::__1::__tree_node_base", %"class.std::__1::__tree_node_base"* %7, i64 0, i32 0
  store %"class.std::__1::__tree_end_node"* %119, %"class.std::__1::__tree_end_node"** %94, align 8
  %120 = getelementptr inbounds %"class.std::__1::__tree_node_base", %"class.std::__1::__tree_node_base"* %7, i64 0, i32 2
  %121 = bitcast %"class.std::__1::__tree_end_node"** %120 to %"class.std::__1::__tree_node_base"**
  %122 = load %"class.std::__1::__tree_node_base"*, %"class.std::__1::__tree_node_base"** %121, align 8
  br label %123

123:                                              ; preds = %93, %110
  %124 = phi %"class.std::__1::__tree_node_base"* [ %122, %110 ], [ %95, %93 ]
  %125 = phi %"class.std::__1::__tree_node_base"* [ %7, %110 ], [ %10, %93 ]
  %126 = getelementptr inbounds %"class.std::__1::__tree_node_base", %"class.std::__1::__tree_node_base"* %125, i64 0, i32 3
  store i8 1, i8* %126, align 8
  %127 = getelementptr inbounds %"class.std::__1::__tree_node_base", %"class.std::__1::__tree_node_base"* %124, i64 0, i32 3
  store i8 0, i8* %127, align 8
  %128 = getelementptr inbounds %"class.std::__1::__tree_node_base", %"class.std::__1::__tree_node_base"* %124, i64 0, i32 1
  %129 = load %"class.std::__1::__tree_node_base"*, %"class.std::__1::__tree_node_base"** %128, align 8
  %130 = getelementptr inbounds %"class.std::__1::__tree_node_base", %"class.std::__1::__tree_node_base"* %129, i64 0, i32 0, i32 0
  %131 = load %"class.std::__1::__tree_node_base"*, %"class.std::__1::__tree_node_base"** %130, align 8
  store %"class.std::__1::__tree_node_base"* %131, %"class.std::__1::__tree_node_base"** %128, align 8
  %132 = icmp eq %"class.std::__1::__tree_node_base"* %131, null
  br i1 %132, label %136, label %133

133:                                              ; preds = %123
  %134 = getelementptr inbounds %"class.std::__1::__tree_node_base", %"class.std::__1::__tree_node_base"* %124, i64 0, i32 0
  %135 = getelementptr inbounds %"class.std::__1::__tree_node_base", %"class.std::__1::__tree_node_base"* %131, i64 0, i32 2
  store %"class.std::__1::__tree_end_node"* %134, %"class.std::__1::__tree_end_node"** %135, align 8
  br label %136

136:                                              ; preds = %133, %123
  %137 = getelementptr inbounds %"class.std::__1::__tree_node_base", %"class.std::__1::__tree_node_base"* %124, i64 0, i32 2
  %138 = bitcast %"class.std::__1::__tree_end_node"** %137 to i64*
  %139 = load i64, i64* %138, align 8
  %140 = getelementptr inbounds %"class.std::__1::__tree_node_base", %"class.std::__1::__tree_node_base"* %129, i64 0, i32 2
  %141 = bitcast %"class.std::__1::__tree_end_node"** %140 to i64*
  store i64 %139, i64* %141, align 8
  %142 = load %"class.std::__1::__tree_end_node"*, %"class.std::__1::__tree_end_node"** %137, align 8
  %143 = getelementptr inbounds %"class.std::__1::__tree_end_node", %"class.std::__1::__tree_end_node"* %142, i64 0, i32 0
  %144 = load %"class.std::__1::__tree_node_base"*, %"class.std::__1::__tree_node_base"** %143, align 8
  %145 = icmp eq %"class.std::__1::__tree_node_base"* %144, %124
  %146 = getelementptr inbounds %"class.std::__1::__tree_end_node", %"class.std::__1::__tree_end_node"* %142, i64 1, i32 0
  %147 = select i1 %145, %"class.std::__1::__tree_node_base"** %143, %"class.std::__1::__tree_node_base"** %146
  store %"class.std::__1::__tree_node_base"* %129, %"class.std::__1::__tree_node_base"** %147, align 8
  store %"class.std::__1::__tree_node_base"* %124, %"class.std::__1::__tree_node_base"** %130, align 8
  %148 = getelementptr inbounds %"class.std::__1::__tree_node_base", %"class.std::__1::__tree_node_base"* %129, i64 0, i32 0
  store %"class.std::__1::__tree_end_node"* %148, %"class.std::__1::__tree_end_node"** %137, align 8
  br label %156

149:                                              ; preds = %89, %25
  %150 = phi i8* [ %26, %25 ], [ %90, %89 ]
  store i8 1, i8* %11, align 8
  %151 = icmp eq %"class.std::__1::__tree_node_base"* %20, %0
  %152 = getelementptr inbounds %"class.std::__1::__tree_end_node", %"class.std::__1::__tree_end_node"* %16, i64 3
  %153 = bitcast %"class.std::__1::__tree_end_node"* %152 to i8*
  %154 = zext i1 %151 to i8
  store i8 %154, i8* %153, align 8
  store i8 1, i8* %150, align 8
  %155 = icmp eq %"class.std::__1::__tree_node_base"* %20, %0
  br i1 %155, label %156, label %6

156:                                              ; preds = %6, %149, %2, %136, %74
  ret void
}

; Function Attrs: nounwind ssp uwtable
define linkonce_odr hidden { %"class.std::__1::__tree_end_node"*, i8 } @_ZNSt3__16__treeINS_12basic_stringIcNS_11char_traitsIcEENS_9allocatorIcEEEENS_4lessIS6_EENS4_IS6_EEE25__emplace_unique_key_argsIS6_JRKS6_EEENS_4pairINS_15__tree_iteratorIS6_PNS_11__tree_nodeIS6_PvEElEEbEERKT_DpOT0_(%"class.std::__1::__tree.370"*, %"class.std::__1::basic_string"* dereferenceable(24), %"class.std::__1::basic_string"* dereferenceable(24)) local_unnamed_addr #0 comdat align 2 {
  %4 = alloca %"class.std::__1::__tree_end_node"*, align 8
  %5 = bitcast %"class.std::__1::__tree_end_node"** %4 to i8*
  call void @llvm.lifetime.start.p0i8(i64 8, i8* nonnull %5) #9
  store %"class.std::__1::__tree_end_node"* inttoptr (i64 -6148914691236517206 to %"class.std::__1::__tree_end_node"*), %"class.std::__1::__tree_end_node"** %4, align 8
  %6 = call dereferenceable(8) %"class.std::__1::__tree_node_base"** @_ZNSt3__16__treeINS_12basic_stringIcNS_11char_traitsIcEENS_9allocatorIcEEEENS_4lessIS6_EENS4_IS6_EEE12__find_equalIS6_EERPNS_16__tree_node_baseIPvEERPNS_15__tree_end_nodeISF_EERKT_(%"class.std::__1::__tree.370"* %0, %"class.std::__1::__tree_end_node"** nonnull dereferenceable(8) %4, %"class.std::__1::basic_string"* dereferenceable(24) %1)
  %7 = bitcast %"class.std::__1::__tree_node_base"** %6 to %"class.std::__1::__tree_node.423"**
  %8 = load %"class.std::__1::__tree_node.423"*, %"class.std::__1::__tree_node.423"** %7, align 8
  %9 = icmp eq %"class.std::__1::__tree_node.423"* %8, null
  br i1 %9, label %10, label %49

10:                                               ; preds = %3
  %11 = call i8* @_Znwm(i64 56) #10, !noalias !36
  %12 = getelementptr inbounds i8, i8* %11, i64 32
  %13 = bitcast %"class.std::__1::basic_string"* %2 to %"struct.std::__1::basic_string<char, std::__1::char_traits<char>, std::__1::allocator<char> >::__short"*
  %14 = getelementptr inbounds %"struct.std::__1::basic_string<char, std::__1::char_traits<char>, std::__1::allocator<char> >::__short", %"struct.std::__1::basic_string<char, std::__1::char_traits<char>, std::__1::allocator<char> >::__short"* %13, i64 0, i32 1, i32 0
  %15 = load i8, i8* %14, align 1, !noalias !36
  %16 = icmp slt i8 %15, 0
  br i1 %16, label %19, label %17

17:                                               ; preds = %10
  %18 = bitcast %"class.std::__1::basic_string"* %2 to i8*
  call void @llvm.memcpy.p0i8.p0i8.i64(i8* align 8 %12, i8* align 8 %18, i64 24, i1 false) #9, !noalias !36
  br label %25

19:                                               ; preds = %10
  %20 = bitcast i8* %12 to %"class.std::__1::basic_string"*
  %21 = getelementptr inbounds %"class.std::__1::basic_string", %"class.std::__1::basic_string"* %2, i64 0, i32 0, i32 0, i32 0, i32 0, i32 0, i32 0
  %22 = load i8*, i8** %21, align 8, !noalias !36
  %23 = getelementptr inbounds %"class.std::__1::basic_string", %"class.std::__1::basic_string"* %2, i64 0, i32 0, i32 0, i32 0, i32 0, i32 0, i32 1
  %24 = load i64, i64* %23, align 8, !noalias !36
  call void @_ZNSt3__112basic_stringIcNS_11char_traitsIcEENS_9allocatorIcEEE25__init_copy_ctor_externalEPKcm(%"class.std::__1::basic_string"* %20, i8* %22, i64 %24) #9, !noalias !36
  br label %25

25:                                               ; preds = %17, %19
  %26 = bitcast %"class.std::__1::__tree_end_node"** %4 to i64*
  %27 = load i64, i64* %26, align 8
  %28 = bitcast i8* %11 to %"class.std::__1::__tree_node.423"*
  %29 = bitcast i8* %11 to %"class.std::__1::__tree_node_base"*
  %30 = getelementptr inbounds i8, i8* %11, i64 16
  call void @llvm.memset.p0i8.i64(i8* nonnull align 8 %11, i8 0, i64 16, i1 false) #9
  %31 = bitcast i8* %30 to i64*
  store i64 %27, i64* %31, align 8
  %32 = bitcast %"class.std::__1::__tree_node_base"** %6 to i8**
  store i8* %11, i8** %32, align 8
  %33 = getelementptr inbounds %"class.std::__1::__tree.370", %"class.std::__1::__tree.370"* %0, i64 0, i32 0
  %34 = load %"class.std::__1::__tree_end_node"*, %"class.std::__1::__tree_end_node"** %33, align 8
  %35 = getelementptr inbounds %"class.std::__1::__tree_end_node", %"class.std::__1::__tree_end_node"* %34, i64 0, i32 0
  %36 = load %"class.std::__1::__tree_node_base"*, %"class.std::__1::__tree_node_base"** %35, align 8
  %37 = icmp eq %"class.std::__1::__tree_node_base"* %36, null
  br i1 %37, label %42, label %38

38:                                               ; preds = %25
  %39 = ptrtoint %"class.std::__1::__tree_node_base"* %36 to i64
  %40 = bitcast %"class.std::__1::__tree.370"* %0 to i64*
  store i64 %39, i64* %40, align 8
  %41 = load %"class.std::__1::__tree_node_base"*, %"class.std::__1::__tree_node_base"** %6, align 8
  br label %42

42:                                               ; preds = %38, %25
  %43 = phi %"class.std::__1::__tree_node_base"* [ %29, %25 ], [ %41, %38 ]
  %44 = getelementptr inbounds %"class.std::__1::__tree.370", %"class.std::__1::__tree.370"* %0, i64 0, i32 1, i32 0, i32 0, i32 0
  %45 = load %"class.std::__1::__tree_node_base"*, %"class.std::__1::__tree_node_base"** %44, align 8
  call void @_ZNSt3__127__tree_balance_after_insertIPNS_16__tree_node_baseIPvEEEEvT_S5_(%"class.std::__1::__tree_node_base"* %45, %"class.std::__1::__tree_node_base"* %43) #9
  %46 = getelementptr inbounds %"class.std::__1::__tree.370", %"class.std::__1::__tree.370"* %0, i64 0, i32 2, i32 0, i32 0
  %47 = load i64, i64* %46, align 8
  %48 = add i64 %47, 1
  store i64 %48, i64* %46, align 8
  br label %49

49:                                               ; preds = %42, %3
  %50 = phi i8 [ 1, %42 ], [ 0, %3 ]
  %51 = phi %"class.std::__1::__tree_node.423"* [ %28, %42 ], [ %8, %3 ]
  %52 = getelementptr inbounds %"class.std::__1::__tree_node.423", %"class.std::__1::__tree_node.423"* %51, i64 0, i32 0, i32 0
  call void @llvm.lifetime.end.p0i8(i64 8, i8* nonnull %5) #9
  %53 = insertvalue { %"class.std::__1::__tree_end_node"*, i8 } undef, %"class.std::__1::__tree_end_node"* %52, 0
  %54 = insertvalue { %"class.std::__1::__tree_end_node"*, i8 } %53, i8 %50, 1
  ret { %"class.std::__1::__tree_end_node"*, i8 } %54
}

; Function Attrs: nounwind ssp uwtable
define linkonce_odr hidden dereferenceable(8) %"class.std::__1::__tree_node_base"** @_ZNSt3__16__treeINS_12basic_stringIcNS_11char_traitsIcEENS_9allocatorIcEEEENS_4lessIS6_EENS4_IS6_EEE12__find_equalIS6_EERPNS_16__tree_node_baseIPvEERPNS_15__tree_end_nodeISF_EERKT_(%"class.std::__1::__tree.370"*, %"class.std::__1::__tree_end_node"** dereferenceable(8), %"class.std::__1::basic_string"* dereferenceable(24)) local_unnamed_addr #0 comdat align 2 {
  %4 = getelementptr inbounds %"class.std::__1::__tree.370", %"class.std::__1::__tree.370"* %0, i64 0, i32 1, i32 0, i32 0
  %5 = bitcast %"class.std::__1::__tree_end_node"* %4 to %"class.std::__1::__tree_node.423"**
  %6 = load %"class.std::__1::__tree_node.423"*, %"class.std::__1::__tree_node.423"** %5, align 8
  %7 = icmp eq %"class.std::__1::__tree_node.423"* %6, null
  br i1 %7, label %79, label %8

8:                                                ; preds = %3
  %9 = getelementptr inbounds %"class.std::__1::__tree.370", %"class.std::__1::__tree.370"* %0, i64 0, i32 1, i32 0, i32 0, i32 0
  %10 = bitcast %"class.std::__1::basic_string"* %2 to %"struct.std::__1::basic_string<char, std::__1::char_traits<char>, std::__1::allocator<char> >::__short"*
  %11 = getelementptr inbounds %"struct.std::__1::basic_string<char, std::__1::char_traits<char>, std::__1::allocator<char> >::__short", %"struct.std::__1::basic_string<char, std::__1::char_traits<char>, std::__1::allocator<char> >::__short"* %10, i64 0, i32 1, i32 0
  %12 = load i8, i8* %11, align 1
  %13 = icmp slt i8 %12, 0
  %14 = getelementptr inbounds %"class.std::__1::basic_string", %"class.std::__1::basic_string"* %2, i64 0, i32 0, i32 0, i32 0, i32 0, i32 0, i32 1
  %15 = load i64, i64* %14, align 8
  %16 = zext i8 %12 to i64
  %17 = select i1 %13, i64 %15, i64 %16
  %18 = getelementptr inbounds %"class.std::__1::basic_string", %"class.std::__1::basic_string"* %2, i64 0, i32 0, i32 0, i32 0, i32 0, i32 0, i32 0
  %19 = load i8*, i8** %18, align 8
  %20 = bitcast %"class.std::__1::basic_string"* %2 to i8*
  %21 = select i1 %13, i8* %19, i8* %20
  br label %22

22:                                               ; preds = %8, %75
  %23 = phi %"class.std::__1::__tree_node.423"* [ %78, %75 ], [ %6, %8 ]
  %24 = phi %"class.std::__1::__tree_node_base"** [ %77, %75 ], [ %9, %8 ]
  %25 = getelementptr inbounds %"class.std::__1::__tree_node.423", %"class.std::__1::__tree_node.423"* %23, i64 0, i32 1
  %26 = bitcast %"class.std::__1::basic_string"* %25 to %"struct.std::__1::basic_string<char, std::__1::char_traits<char>, std::__1::allocator<char> >::__short"*
  %27 = getelementptr inbounds %"struct.std::__1::basic_string<char, std::__1::char_traits<char>, std::__1::allocator<char> >::__short", %"struct.std::__1::basic_string<char, std::__1::char_traits<char>, std::__1::allocator<char> >::__short"* %26, i64 0, i32 1, i32 0
  %28 = load i8, i8* %27, align 1
  %29 = icmp slt i8 %28, 0
  %30 = getelementptr inbounds %"class.std::__1::__tree_node.423", %"class.std::__1::__tree_node.423"* %23, i64 0, i32 1, i32 0, i32 0, i32 0, i32 0, i32 0, i32 1
  %31 = load i64, i64* %30, align 8
  %32 = zext i8 %28 to i64
  %33 = select i1 %29, i64 %31, i64 %32
  %34 = icmp ult i64 %33, %17
  %35 = select i1 %34, i64 %33, i64 %17
  %36 = icmp eq i64 %35, 0
  br i1 %36, label %44, label %37

37:                                               ; preds = %22
  %38 = getelementptr inbounds %"class.std::__1::basic_string", %"class.std::__1::basic_string"* %25, i64 0, i32 0, i32 0, i32 0, i32 0, i32 0, i32 0
  %39 = load i8*, i8** %38, align 8
  %40 = bitcast %"class.std::__1::basic_string"* %25 to i8*
  %41 = select i1 %29, i8* %39, i8* %40
  %42 = tail call i32 @memcmp(i8* %21, i8* %41, i64 %35) #9
  %43 = icmp eq i32 %42, 0
  br i1 %43, label %44, label %46

44:                                               ; preds = %37, %22
  %45 = icmp ult i64 %17, %33
  br i1 %45, label %48, label %54

46:                                               ; preds = %37
  %47 = icmp slt i32 %42, 0
  br i1 %47, label %48, label %60

48:                                               ; preds = %44, %46
  %49 = getelementptr inbounds %"class.std::__1::__tree_node.423", %"class.std::__1::__tree_node.423"* %23, i64 0, i32 0, i32 0, i32 0
  %50 = load %"class.std::__1::__tree_node_base"*, %"class.std::__1::__tree_node_base"** %49, align 8
  %51 = icmp eq %"class.std::__1::__tree_node_base"* %50, null
  br i1 %51, label %52, label %75

52:                                               ; preds = %48
  %53 = getelementptr inbounds %"class.std::__1::__tree_node.423", %"class.std::__1::__tree_node.423"* %23, i64 0, i32 0, i32 0
  store %"class.std::__1::__tree_end_node"* %53, %"class.std::__1::__tree_end_node"** %1, align 8
  br label %81

54:                                               ; preds = %44
  br i1 %36, label %64, label %55

55:                                               ; preds = %54
  %56 = getelementptr inbounds %"class.std::__1::basic_string", %"class.std::__1::basic_string"* %25, i64 0, i32 0, i32 0, i32 0, i32 0, i32 0, i32 0
  %57 = load i8*, i8** %56, align 8
  %58 = bitcast %"class.std::__1::basic_string"* %25 to i8*
  %59 = select i1 %29, i8* %57, i8* %58
  br label %60

60:                                               ; preds = %55, %46
  %61 = phi i8* [ %59, %55 ], [ %41, %46 ]
  %62 = tail call i32 @memcmp(i8* %61, i8* %21, i64 %35) #9
  %63 = icmp eq i32 %62, 0
  br i1 %63, label %64, label %65

64:                                               ; preds = %60, %54
  br i1 %34, label %67, label %73

65:                                               ; preds = %60
  %66 = icmp slt i32 %62, 0
  br i1 %66, label %67, label %73

67:                                               ; preds = %64, %65
  %68 = getelementptr inbounds %"class.std::__1::__tree_node.423", %"class.std::__1::__tree_node.423"* %23, i64 0, i32 0, i32 1
  %69 = load %"class.std::__1::__tree_node_base"*, %"class.std::__1::__tree_node_base"** %68, align 8
  %70 = icmp eq %"class.std::__1::__tree_node_base"* %69, null
  br i1 %70, label %71, label %75

71:                                               ; preds = %67
  %72 = getelementptr inbounds %"class.std::__1::__tree_node.423", %"class.std::__1::__tree_node.423"* %23, i64 0, i32 0, i32 0
  store %"class.std::__1::__tree_end_node"* %72, %"class.std::__1::__tree_end_node"** %1, align 8
  br label %81

73:                                               ; preds = %64, %65
  %74 = getelementptr inbounds %"class.std::__1::__tree_node.423", %"class.std::__1::__tree_node.423"* %23, i64 0, i32 0, i32 0
  store %"class.std::__1::__tree_end_node"* %74, %"class.std::__1::__tree_end_node"** %1, align 8
  br label %81

75:                                               ; preds = %67, %48
  %76 = phi %"class.std::__1::__tree_node_base"* [ %50, %48 ], [ %69, %67 ]
  %77 = phi %"class.std::__1::__tree_node_base"** [ %49, %48 ], [ %68, %67 ]
  %78 = bitcast %"class.std::__1::__tree_node_base"* %76 to %"class.std::__1::__tree_node.423"*
  br label %22

79:                                               ; preds = %3
  store %"class.std::__1::__tree_end_node"* %4, %"class.std::__1::__tree_end_node"** %1, align 8
  %80 = getelementptr inbounds %"class.std::__1::__tree_end_node", %"class.std::__1::__tree_end_node"* %4, i64 0, i32 0
  br label %81

81:                                               ; preds = %79, %73, %71, %52
  %82 = phi %"class.std::__1::__tree_node_base"** [ %49, %52 ], [ %68, %71 ], [ %24, %73 ], [ %80, %79 ]
  ret %"class.std::__1::__tree_node_base"** %82
}

; Function Attrs: nofree nounwind readonly
declare i32 @memcmp(i8* nocapture, i8* nocapture, i64) local_unnamed_addr #7

; Function Attrs: nounwind ssp uwtable
define linkonce_odr hidden %"class.std::__1::__tree_end_node"* @_ZNSt3__16__treeINS_12basic_stringIcNS_11char_traitsIcEENS_9allocatorIcEEEENS_4lessIS6_EENS4_IS6_EEE4findIS6_EENS_15__tree_iteratorIS6_PNS_11__tree_nodeIS6_PvEElEERKT_(%"class.std::__1::__tree.370"*, %"class.std::__1::basic_string"* dereferenceable(24)) local_unnamed_addr #0 comdat align 2 {
  %3 = getelementptr inbounds %"class.std::__1::__tree.370", %"class.std::__1::__tree.370"* %0, i64 0, i32 1, i32 0, i32 0
  %4 = bitcast %"class.std::__1::__tree_end_node"* %3 to %"class.std::__1::__tree_node.423"**
  %5 = load %"class.std::__1::__tree_node.423"*, %"class.std::__1::__tree_node.423"** %4, align 8
  %6 = icmp eq %"class.std::__1::__tree_node.423"* %5, null
  br i1 %6, label %84, label %7

7:                                                ; preds = %2
  %8 = bitcast %"class.std::__1::basic_string"* %1 to %"struct.std::__1::basic_string<char, std::__1::char_traits<char>, std::__1::allocator<char> >::__short"*
  %9 = getelementptr inbounds %"struct.std::__1::basic_string<char, std::__1::char_traits<char>, std::__1::allocator<char> >::__short", %"struct.std::__1::basic_string<char, std::__1::char_traits<char>, std::__1::allocator<char> >::__short"* %8, i64 0, i32 1, i32 0
  %10 = load i8, i8* %9, align 1
  %11 = icmp slt i8 %10, 0
  %12 = getelementptr inbounds %"class.std::__1::basic_string", %"class.std::__1::basic_string"* %1, i64 0, i32 0, i32 0, i32 0, i32 0, i32 0, i32 1
  %13 = load i64, i64* %12, align 8
  %14 = zext i8 %10 to i64
  %15 = select i1 %11, i64 %13, i64 %14
  %16 = getelementptr inbounds %"class.std::__1::basic_string", %"class.std::__1::basic_string"* %1, i64 0, i32 0, i32 0, i32 0, i32 0, i32 0, i32 0
  %17 = load i8*, i8** %16, align 8
  %18 = bitcast %"class.std::__1::basic_string"* %1 to i8*
  %19 = select i1 %11, i8* %17, i8* %18
  br label %20

20:                                               ; preds = %46, %7
  %21 = phi %"class.std::__1::__tree_end_node"* [ %3, %7 ], [ %54, %46 ]
  %22 = phi %"class.std::__1::__tree_node.423"* [ %5, %7 ], [ %55, %46 ]
  %23 = getelementptr inbounds %"class.std::__1::__tree_node.423", %"class.std::__1::__tree_node.423"* %22, i64 0, i32 1
  %24 = bitcast %"class.std::__1::basic_string"* %23 to %"struct.std::__1::basic_string<char, std::__1::char_traits<char>, std::__1::allocator<char> >::__short"*
  %25 = getelementptr inbounds %"struct.std::__1::basic_string<char, std::__1::char_traits<char>, std::__1::allocator<char> >::__short", %"struct.std::__1::basic_string<char, std::__1::char_traits<char>, std::__1::allocator<char> >::__short"* %24, i64 0, i32 1, i32 0
  %26 = load i8, i8* %25, align 1
  %27 = icmp slt i8 %26, 0
  %28 = getelementptr inbounds %"class.std::__1::__tree_node.423", %"class.std::__1::__tree_node.423"* %22, i64 0, i32 1, i32 0, i32 0, i32 0, i32 0, i32 0, i32 1
  %29 = load i64, i64* %28, align 8
  %30 = zext i8 %26 to i64
  %31 = select i1 %27, i64 %29, i64 %30
  %32 = icmp ult i64 %15, %31
  %33 = select i1 %32, i64 %15, i64 %31
  %34 = icmp eq i64 %33, 0
  br i1 %34, label %42, label %35

35:                                               ; preds = %20
  %36 = getelementptr inbounds %"class.std::__1::basic_string", %"class.std::__1::basic_string"* %23, i64 0, i32 0, i32 0, i32 0, i32 0, i32 0, i32 0
  %37 = load i8*, i8** %36, align 8
  %38 = bitcast %"class.std::__1::basic_string"* %23 to i8*
  %39 = select i1 %27, i8* %37, i8* %38
  %40 = tail call i32 @memcmp(i8* %39, i8* %19, i64 %33) #9
  %41 = icmp eq i32 %40, 0
  br i1 %41, label %42, label %46

42:                                               ; preds = %35, %20
  %43 = icmp ult i64 %31, %15
  %44 = zext i1 %32 to i32
  %45 = select i1 %43, i32 -1, i32 %44
  br label %46

46:                                               ; preds = %42, %35
  %47 = phi i32 [ %45, %42 ], [ %40, %35 ]
  %48 = icmp slt i32 %47, 0
  %49 = getelementptr inbounds %"class.std::__1::__tree_node.423", %"class.std::__1::__tree_node.423"* %22, i64 0, i32 0, i32 1
  %50 = bitcast %"class.std::__1::__tree_node_base"** %49 to %"class.std::__1::__tree_node.423"**
  %51 = getelementptr inbounds %"class.std::__1::__tree_node.423", %"class.std::__1::__tree_node.423"* %22, i64 0, i32 0, i32 0
  %52 = bitcast %"class.std::__1::__tree_node.423"* %22 to %"class.std::__1::__tree_node.423"**
  %53 = select i1 %48, %"class.std::__1::__tree_node.423"** %50, %"class.std::__1::__tree_node.423"** %52
  %54 = select i1 %48, %"class.std::__1::__tree_end_node"* %21, %"class.std::__1::__tree_end_node"* %51
  %55 = load %"class.std::__1::__tree_node.423"*, %"class.std::__1::__tree_node.423"** %53, align 8
  %56 = icmp eq %"class.std::__1::__tree_node.423"* %55, null
  br i1 %56, label %57, label %20

57:                                               ; preds = %46
  %58 = icmp eq %"class.std::__1::__tree_end_node"* %54, %3
  br i1 %58, label %84, label %59

59:                                               ; preds = %57
  %60 = getelementptr inbounds %"class.std::__1::__tree_end_node", %"class.std::__1::__tree_end_node"* %54, i64 4
  %61 = bitcast %"class.std::__1::__tree_end_node"* %60 to %"struct.std::__1::basic_string<char, std::__1::char_traits<char>, std::__1::allocator<char> >::__short"*
  %62 = getelementptr inbounds %"struct.std::__1::basic_string<char, std::__1::char_traits<char>, std::__1::allocator<char> >::__short", %"struct.std::__1::basic_string<char, std::__1::char_traits<char>, std::__1::allocator<char> >::__short"* %61, i64 0, i32 1, i32 0
  %63 = load i8, i8* %62, align 1
  %64 = icmp slt i8 %63, 0
  %65 = getelementptr inbounds %"class.std::__1::__tree_end_node", %"class.std::__1::__tree_end_node"* %54, i64 5
  %66 = bitcast %"class.std::__1::__tree_end_node"* %65 to i64*
  %67 = load i64, i64* %66, align 8
  %68 = zext i8 %63 to i64
  %69 = select i1 %64, i64 %67, i64 %68
  %70 = icmp ult i64 %69, %15
  %71 = select i1 %70, i64 %69, i64 %15
  %72 = icmp eq i64 %71, 0
  br i1 %72, label %80, label %73

73:                                               ; preds = %59
  %74 = bitcast %"class.std::__1::__tree_end_node"* %60 to i8**
  %75 = load i8*, i8** %74, align 8
  %76 = bitcast %"class.std::__1::__tree_end_node"* %60 to i8*
  %77 = select i1 %64, i8* %75, i8* %76
  %78 = tail call i32 @memcmp(i8* %19, i8* %77, i64 %71) #9
  %79 = icmp eq i32 %78, 0
  br i1 %79, label %80, label %82

80:                                               ; preds = %73, %59
  %81 = icmp ult i64 %15, %69
  br i1 %81, label %84, label %85

82:                                               ; preds = %73
  %83 = icmp slt i32 %78, 0
  br i1 %83, label %84, label %85

84:                                               ; preds = %57, %80, %2, %82
  br label %85

85:                                               ; preds = %80, %82, %84
  %86 = phi %"class.std::__1::__tree_end_node"* [ %3, %84 ], [ %54, %82 ], [ %54, %80 ]
  ret %"class.std::__1::__tree_end_node"* %86
}

; Function Attrs: cold noreturn nounwind
declare void @llvm.trap() #8

declare void @_ZNSt3__112basic_stringIcNS_11char_traitsIcEENS_9allocatorIcEEE25__init_copy_ctor_externalEPKcm(%"class.std::__1::basic_string"*, i8*, i64) local_unnamed_addr #1

declare dereferenceable(24) %"class.std::__1::basic_string"* @_ZNSt3__112basic_stringIcNS_11char_traitsIcEENS_9allocatorIcEEE17__assign_externalEPKcm(%"class.std::__1::basic_string"*, i8*, i64) local_unnamed_addr #1

; Function Attrs: nounwind
declare void @_ZN10extensions3api14system_display7GetInfo6ParamsD1Ev(%"struct.extensions::api::system_display::GetInfo::Params"*) unnamed_addr #3

; Function Attrs: nounwind ssp uwtable
define linkonce_odr hidden void @_ZN4base8internal7InvokerINS0_9BindStateIMN10extensions28SystemDisplayGetInfoFunctionEFvNSt3__16vectorINS3_3api14system_display15DisplayUnitInfoENS5_9allocatorIS9_EEEEEJ13scoped_refptrIS4_EEEEFvSC_EE7RunOnceEPNS0_13BindStateBaseEOSC_(%"class.base::internal::BindStateBase"*, %"class.std::__1::vector.194"* dereferenceable(24)) #0 comdat align 2 {
  %3 = alloca %"class.std::__1::vector.194", align 16
  %4 = getelementptr inbounds %"class.base::internal::BindStateBase", %"class.base::internal::BindStateBase"* %0, i64 1
  %5 = getelementptr inbounds %"class.base::internal::BindStateBase", %"class.base::internal::BindStateBase"* %0, i64 1, i32 2
  %6 = bitcast %"class.base::internal::BindStateBase"* %4 to i64*
  %7 = load i64, i64* %6, align 8
  %8 = getelementptr inbounds %"class.base::internal::BindStateBase", %"class.base::internal::BindStateBase"* %0, i64 1, i32 1
  %9 = bitcast void ()** %8 to i64*
  %10 = load i64, i64* %9, align 8
  %11 = bitcast %"class.std::__1::vector.194"* %3 to i8*
  call void @llvm.lifetime.start.p0i8(i64 24, i8* nonnull %11) #9
  %12 = bitcast void (%"class.base::internal::BindStateBase"*)** %5 to i8**
  %13 = load i8*, i8** %12, align 8
  %14 = getelementptr inbounds i8, i8* %13, i64 %10
  %15 = bitcast i8* %14 to %"class.extensions::SystemDisplayGetInfoFunction"*
  %16 = and i64 %7, 1
  %17 = icmp eq i64 %16, 0
  br i1 %17, label %25, label %18

18:                                               ; preds = %2
  %19 = bitcast i8* %14 to i8**
  %20 = load i8*, i8** %19, align 8
  %21 = add i64 %7, -1
  %22 = getelementptr i8, i8* %20, i64 %21
  %23 = bitcast i8* %22 to void (%"class.extensions::SystemDisplayGetInfoFunction"*, %"class.std::__1::vector.194"*)**
  %24 = load void (%"class.extensions::SystemDisplayGetInfoFunction"*, %"class.std::__1::vector.194"*)*, void (%"class.extensions::SystemDisplayGetInfoFunction"*, %"class.std::__1::vector.194"*)** %23, align 8
  br label %27

25:                                               ; preds = %2
  %26 = inttoptr i64 %7 to void (%"class.extensions::SystemDisplayGetInfoFunction"*, %"class.std::__1::vector.194"*)*
  br label %27

27:                                               ; preds = %25, %18
  %28 = phi void (%"class.extensions::SystemDisplayGetInfoFunction"*, %"class.std::__1::vector.194"*)* [ %24, %18 ], [ %26, %25 ]
  %29 = bitcast %"class.std::__1::vector.194"* %1 to <2 x i64>*
  %30 = load <2 x i64>, <2 x i64>* %29, align 8
  %31 = getelementptr inbounds %"class.std::__1::vector.194", %"class.std::__1::vector.194"* %3, i64 0, i32 0, i32 1
  %32 = bitcast %"class.std::__1::vector.194"* %3 to <2 x i64>*
  store <2 x i64> %30, <2 x i64>* %32, align 16
  %33 = getelementptr inbounds %"class.std::__1::vector.194", %"class.std::__1::vector.194"* %1, i64 0, i32 0, i32 2, i32 0, i32 0
  %34 = bitcast %"struct.extensions::api::system_display::DisplayUnitInfo"** %33 to i64*
  %35 = load i64, i64* %34, align 8
  %36 = getelementptr inbounds %"class.std::__1::vector.194", %"class.std::__1::vector.194"* %3, i64 0, i32 0, i32 2, i32 0, i32 0
  %37 = bitcast %"struct.extensions::api::system_display::DisplayUnitInfo"** %36 to i64*
  store i64 %35, i64* %37, align 16
  %38 = bitcast %"class.std::__1::vector.194"* %1 to i8*
  tail call void @llvm.memset.p0i8.i64(i8* align 8 %38, i8 0, i64 24, i1 false) #9
  call void %28(%"class.extensions::SystemDisplayGetInfoFunction"* %15, %"class.std::__1::vector.194"* nonnull %3) #9
  %39 = getelementptr inbounds %"class.std::__1::vector.194", %"class.std::__1::vector.194"* %3, i64 0, i32 0, i32 0
  %40 = load %"struct.extensions::api::system_display::DisplayUnitInfo"*, %"struct.extensions::api::system_display::DisplayUnitInfo"** %39, align 16
  %41 = icmp eq %"struct.extensions::api::system_display::DisplayUnitInfo"* %40, null
  br i1 %41, label %55, label %42

42:                                               ; preds = %27
  %43 = bitcast %"struct.extensions::api::system_display::DisplayUnitInfo"* %40 to i8*
  %44 = load %"struct.extensions::api::system_display::DisplayUnitInfo"*, %"struct.extensions::api::system_display::DisplayUnitInfo"** %31, align 8
  %45 = icmp eq %"struct.extensions::api::system_display::DisplayUnitInfo"* %44, %40
  br i1 %45, label %53, label %46

46:                                               ; preds = %42, %46
  %47 = phi %"struct.extensions::api::system_display::DisplayUnitInfo"* [ %48, %46 ], [ %44, %42 ]
  %48 = getelementptr inbounds %"struct.extensions::api::system_display::DisplayUnitInfo", %"struct.extensions::api::system_display::DisplayUnitInfo"* %47, i64 -1
  call void @_ZN10extensions3api14system_display15DisplayUnitInfoD1Ev(%"struct.extensions::api::system_display::DisplayUnitInfo"* %48) #9
  %49 = icmp eq %"struct.extensions::api::system_display::DisplayUnitInfo"* %48, %40
  br i1 %49, label %50, label %46

50:                                               ; preds = %46
  %51 = bitcast %"class.std::__1::vector.194"* %3 to i8**
  %52 = load i8*, i8** %51, align 16
  br label %53

53:                                               ; preds = %50, %42
  %54 = phi i8* [ %52, %50 ], [ %43, %42 ]
  store %"struct.extensions::api::system_display::DisplayUnitInfo"* %40, %"struct.extensions::api::system_display::DisplayUnitInfo"** %31, align 8
  call void @_ZdlPv(i8* %54) #10
  br label %55

55:                                               ; preds = %27, %53
  call void @llvm.lifetime.end.p0i8(i64 24, i8* nonnull %11) #9
  ret void
}

; Function Attrs: nounwind
declare void @_ZN10extensions3api14system_display15DisplayUnitInfoD1Ev(%"struct.extensions::api::system_display::DisplayUnitInfo"*) unnamed_addr #3

; Function Attrs: nounwind ssp uwtable
define linkonce_odr hidden void @_ZN4base8internal9BindStateIMN10extensions28SystemDisplayGetInfoFunctionEFvNSt3__16vectorINS2_3api14system_display15DisplayUnitInfoENS4_9allocatorIS8_EEEEEJ13scoped_refptrIS3_EEE7DestroyEPKNS0_13BindStateBaseE(%"class.base::internal::BindStateBase"*) #0 comdat align 2 {
  %2 = icmp eq %"class.base::internal::BindStateBase"* %0, null
  br i1 %2, label %18, label %3

3:                                                ; preds = %1
  %4 = getelementptr inbounds %"class.base::internal::BindStateBase", %"class.base::internal::BindStateBase"* %0, i64 1, i32 2
  %5 = bitcast void (%"class.base::internal::BindStateBase"*)** %4 to %"class.extensions::SystemDisplayGetInfoFunction"**
  %6 = load %"class.extensions::SystemDisplayGetInfoFunction"*, %"class.extensions::SystemDisplayGetInfoFunction"** %5, align 8
  %7 = icmp eq %"class.extensions::SystemDisplayGetInfoFunction"* %6, null
  br i1 %7, label %16, label %8

8:                                                ; preds = %3
  %9 = getelementptr inbounds %"class.extensions::SystemDisplayGetInfoFunction", %"class.extensions::SystemDisplayGetInfoFunction"* %6, i64 0, i32 0, i32 1
  %10 = getelementptr inbounds %"class.base::RefCountedThreadSafe", %"class.base::RefCountedThreadSafe"* %9, i64 0, i32 0, i32 0, i32 0, i32 0, i32 0, i32 0, i32 0, i32 0
  %11 = atomicrmw sub i32* %10, i32 1 acq_rel
  %12 = icmp eq i32 %11, 1
  br i1 %12, label %13, label %16

13:                                               ; preds = %8
  %14 = getelementptr inbounds %"class.base::RefCountedThreadSafe", %"class.base::RefCountedThreadSafe"* %9, i64 -2
  %15 = bitcast %"class.base::RefCountedThreadSafe"* %14 to %class.ExtensionFunction*
  tail call void @_ZN7content13BrowserThread14DeleteOnThreadILNS0_2IDE0EE8DestructI17ExtensionFunctionEEvPKT_(%class.ExtensionFunction* %15) #9
  br label %16

16:                                               ; preds = %3, %8, %13
  %17 = bitcast %"class.base::internal::BindStateBase"* %0 to i8*
  tail call void @_ZdlPv(i8* %17) #10
  br label %18

18:                                               ; preds = %16, %1
  ret void
}

declare void @_ZN4base8internal13BindStateBaseC2EPFvvEPFvPKS1_E(%"class.base::internal::BindStateBase"*, void ()*, void (%"class.base::internal::BindStateBase"*)*) unnamed_addr #1

; Function Attrs: nounwind ssp uwtable
define linkonce_odr hidden void @_ZN7content13BrowserThread14DeleteOnThreadILNS0_2IDE0EE8DestructI17ExtensionFunctionEEvPKT_(%class.ExtensionFunction*) local_unnamed_addr #0 comdat align 2 {
  %2 = alloca %"class.base::Location", align 8
  %3 = tail call zeroext i1 @_ZN7content13BrowserThread11CurrentlyOnENS0_2IDE(i32 0) #9
  br i1 %3, label %4, label %11

4:                                                ; preds = %1
  %5 = icmp eq %class.ExtensionFunction* %0, null
  br i1 %5, label %27, label %6

6:                                                ; preds = %4
  %7 = bitcast %class.ExtensionFunction* %0 to void (%class.ExtensionFunction*)***
  %8 = load void (%class.ExtensionFunction*)**, void (%class.ExtensionFunction*)*** %7, align 8
  %9 = getelementptr inbounds void (%class.ExtensionFunction*)*, void (%class.ExtensionFunction*)** %8, i64 11
  %10 = load void (%class.ExtensionFunction*)*, void (%class.ExtensionFunction*)** %9, align 8
  tail call void %10(%class.ExtensionFunction* nonnull %0) #9
  br label %27

11:                                               ; preds = %1
  %12 = bitcast %"class.base::Location"* %2 to i8*
  call void @llvm.lifetime.start.p0i8(i64 32, i8* nonnull %12) #9
  call void @_ZN4base8Location7CurrentEPKcS2_i(%"class.base::Location"* nonnull sret %2, i8* getelementptr inbounds ([9 x i8], [9 x i8]* @.str.7, i64 0, i64 0), i8* getelementptr inbounds ([46 x i8], [46 x i8]* @.str.8, i64 0, i64 0), i32 152) #9
  %13 = call %"class.base::SingleThreadTaskRunner"* @_ZN7content13BrowserThread22GetTaskRunnerForThreadENS0_2IDE(i32 0) #9
  %14 = bitcast %"class.base::SingleThreadTaskRunner"* %13 to %"class.base::SequencedTaskRunner"*
  %15 = bitcast %class.ExtensionFunction* %0 to i8*
  %16 = call zeroext i1 @_ZN4base19SequencedTaskRunner27DeleteOrReleaseSoonInternalERKNS_8LocationEPFvPKvES5_(%"class.base::SequencedTaskRunner"* %14, %"class.base::Location"* nonnull dereferenceable(32) %2, void (i8*)* nonnull @_ZN4base12DeleteHelperI17ExtensionFunctionE8DoDeleteEPKv, i8* %15) #9
  %17 = icmp eq %"class.base::SingleThreadTaskRunner"* %13, null
  br i1 %17, label %26, label %18

18:                                               ; preds = %11
  %19 = getelementptr inbounds %"class.base::SingleThreadTaskRunner", %"class.base::SingleThreadTaskRunner"* %13, i64 0, i32 0, i32 0, i32 1
  %20 = getelementptr inbounds %"class.base::RefCountedThreadSafe.450", %"class.base::RefCountedThreadSafe.450"* %19, i64 0, i32 0, i32 0, i32 0, i32 0, i32 0, i32 0, i32 0, i32 0
  %21 = atomicrmw sub i32* %20, i32 1 acq_rel
  %22 = icmp eq i32 %21, 1
  br i1 %22, label %23, label %26

23:                                               ; preds = %18
  %24 = getelementptr inbounds %"class.base::RefCountedThreadSafe.450", %"class.base::RefCountedThreadSafe.450"* %19, i64 -2
  %25 = bitcast %"class.base::RefCountedThreadSafe.450"* %24 to %"class.base::TaskRunner"*
  call void @_ZN4base16TaskRunnerTraits8DestructEPKNS_10TaskRunnerE(%"class.base::TaskRunner"* %25) #9
  br label %26

26:                                               ; preds = %11, %18, %23
  call void @llvm.lifetime.end.p0i8(i64 32, i8* nonnull %12) #9
  br label %27

27:                                               ; preds = %4, %6, %26
  ret void
}

declare zeroext i1 @_ZN7content13BrowserThread11CurrentlyOnENS0_2IDE(i32) local_unnamed_addr #1

declare void @_ZN4base8Location7CurrentEPKcS2_i(%"class.base::Location"* sret, i8*, i8*, i32) local_unnamed_addr #1

declare %"class.base::SingleThreadTaskRunner"* @_ZN7content13BrowserThread22GetTaskRunnerForThreadENS0_2IDE(i32) local_unnamed_addr #1

declare zeroext i1 @_ZN4base19SequencedTaskRunner27DeleteOrReleaseSoonInternalERKNS_8LocationEPFvPKvES5_(%"class.base::SequencedTaskRunner"*, %"class.base::Location"* dereferenceable(32), void (i8*)*, i8*) local_unnamed_addr #1

; Function Attrs: nounwind ssp uwtable
define linkonce_odr hidden void @_ZN4base12DeleteHelperI17ExtensionFunctionE8DoDeleteEPKv(i8*) #0 comdat align 2 {
  %2 = icmp eq i8* %0, null
  br i1 %2, label %9, label %3

3:                                                ; preds = %1
  %4 = bitcast i8* %0 to %class.ExtensionFunction*
  %5 = bitcast i8* %0 to void (%class.ExtensionFunction*)***
  %6 = load void (%class.ExtensionFunction*)**, void (%class.ExtensionFunction*)*** %5, align 8
  %7 = getelementptr inbounds void (%class.ExtensionFunction*)*, void (%class.ExtensionFunction*)** %6, i64 11
  %8 = load void (%class.ExtensionFunction*)*, void (%class.ExtensionFunction*)** %7, align 8
  tail call void %8(%class.ExtensionFunction* nonnull %4) #9
  br label %9

9:                                                ; preds = %3, %1
  ret void
}

declare void @_ZN4base16TaskRunnerTraits8DestructEPKNS_10TaskRunnerE(%"class.base::TaskRunner"*) local_unnamed_addr #1

; Function Attrs: nounwind ssp uwtable
define linkonce_odr hidden void @_ZN4base8internal7InvokerINS0_9BindStateIMN10extensions37SystemDisplayGetDisplayLayoutFunctionEFvNSt3__16vectorINS3_3api14system_display13DisplayLayoutENS5_9allocatorIS9_EEEEEJ13scoped_refptrIS4_EEEEFvSC_EE7RunOnceEPNS0_13BindStateBaseEOSC_(%"class.base::internal::BindStateBase"*, %"class.std::__1::vector.233"* dereferenceable(24)) #0 comdat align 2 {
  %3 = alloca %"class.std::__1::vector.233", align 16
  %4 = getelementptr inbounds %"class.base::internal::BindStateBase", %"class.base::internal::BindStateBase"* %0, i64 1
  %5 = getelementptr inbounds %"class.base::internal::BindStateBase", %"class.base::internal::BindStateBase"* %0, i64 1, i32 2
  %6 = bitcast %"class.base::internal::BindStateBase"* %4 to i64*
  %7 = load i64, i64* %6, align 8
  %8 = getelementptr inbounds %"class.base::internal::BindStateBase", %"class.base::internal::BindStateBase"* %0, i64 1, i32 1
  %9 = bitcast void ()** %8 to i64*
  %10 = load i64, i64* %9, align 8
  %11 = bitcast %"class.std::__1::vector.233"* %3 to i8*
  call void @llvm.lifetime.start.p0i8(i64 24, i8* nonnull %11) #9
  %12 = bitcast void (%"class.base::internal::BindStateBase"*)** %5 to i8**
  %13 = load i8*, i8** %12, align 8
  %14 = getelementptr inbounds i8, i8* %13, i64 %10
  %15 = bitcast i8* %14 to %"class.extensions::SystemDisplayGetDisplayLayoutFunction"*
  %16 = and i64 %7, 1
  %17 = icmp eq i64 %16, 0
  br i1 %17, label %25, label %18

18:                                               ; preds = %2
  %19 = bitcast i8* %14 to i8**
  %20 = load i8*, i8** %19, align 8
  %21 = add i64 %7, -1
  %22 = getelementptr i8, i8* %20, i64 %21
  %23 = bitcast i8* %22 to void (%"class.extensions::SystemDisplayGetDisplayLayoutFunction"*, %"class.std::__1::vector.233"*)**
  %24 = load void (%"class.extensions::SystemDisplayGetDisplayLayoutFunction"*, %"class.std::__1::vector.233"*)*, void (%"class.extensions::SystemDisplayGetDisplayLayoutFunction"*, %"class.std::__1::vector.233"*)** %23, align 8
  br label %27

25:                                               ; preds = %2
  %26 = inttoptr i64 %7 to void (%"class.extensions::SystemDisplayGetDisplayLayoutFunction"*, %"class.std::__1::vector.233"*)*
  br label %27

27:                                               ; preds = %25, %18
  %28 = phi void (%"class.extensions::SystemDisplayGetDisplayLayoutFunction"*, %"class.std::__1::vector.233"*)* [ %24, %18 ], [ %26, %25 ]
  %29 = bitcast %"class.std::__1::vector.233"* %1 to <2 x i64>*
  %30 = load <2 x i64>, <2 x i64>* %29, align 8
  %31 = getelementptr inbounds %"class.std::__1::vector.233", %"class.std::__1::vector.233"* %3, i64 0, i32 0, i32 1
  %32 = bitcast %"class.std::__1::vector.233"* %3 to <2 x i64>*
  store <2 x i64> %30, <2 x i64>* %32, align 16
  %33 = getelementptr inbounds %"class.std::__1::vector.233", %"class.std::__1::vector.233"* %1, i64 0, i32 0, i32 2, i32 0, i32 0
  %34 = bitcast %"struct.extensions::api::system_display::DisplayLayout"** %33 to i64*
  %35 = load i64, i64* %34, align 8
  %36 = getelementptr inbounds %"class.std::__1::vector.233", %"class.std::__1::vector.233"* %3, i64 0, i32 0, i32 2, i32 0, i32 0
  %37 = bitcast %"struct.extensions::api::system_display::DisplayLayout"** %36 to i64*
  store i64 %35, i64* %37, align 16
  %38 = bitcast %"class.std::__1::vector.233"* %1 to i8*
  tail call void @llvm.memset.p0i8.i64(i8* align 8 %38, i8 0, i64 24, i1 false) #9
  call void %28(%"class.extensions::SystemDisplayGetDisplayLayoutFunction"* %15, %"class.std::__1::vector.233"* nonnull %3) #9
  %39 = getelementptr inbounds %"class.std::__1::vector.233", %"class.std::__1::vector.233"* %3, i64 0, i32 0, i32 0
  %40 = load %"struct.extensions::api::system_display::DisplayLayout"*, %"struct.extensions::api::system_display::DisplayLayout"** %39, align 16
  %41 = icmp eq %"struct.extensions::api::system_display::DisplayLayout"* %40, null
  br i1 %41, label %55, label %42

42:                                               ; preds = %27
  %43 = bitcast %"struct.extensions::api::system_display::DisplayLayout"* %40 to i8*
  %44 = load %"struct.extensions::api::system_display::DisplayLayout"*, %"struct.extensions::api::system_display::DisplayLayout"** %31, align 8
  %45 = icmp eq %"struct.extensions::api::system_display::DisplayLayout"* %44, %40
  br i1 %45, label %53, label %46

46:                                               ; preds = %42, %46
  %47 = phi %"struct.extensions::api::system_display::DisplayLayout"* [ %48, %46 ], [ %44, %42 ]
  %48 = getelementptr inbounds %"struct.extensions::api::system_display::DisplayLayout", %"struct.extensions::api::system_display::DisplayLayout"* %47, i64 -1
  call void @_ZN10extensions3api14system_display13DisplayLayoutD1Ev(%"struct.extensions::api::system_display::DisplayLayout"* %48) #9
  %49 = icmp eq %"struct.extensions::api::system_display::DisplayLayout"* %48, %40
  br i1 %49, label %50, label %46

50:                                               ; preds = %46
  %51 = bitcast %"class.std::__1::vector.233"* %3 to i8**
  %52 = load i8*, i8** %51, align 16
  br label %53

53:                                               ; preds = %50, %42
  %54 = phi i8* [ %52, %50 ], [ %43, %42 ]
  store %"struct.extensions::api::system_display::DisplayLayout"* %40, %"struct.extensions::api::system_display::DisplayLayout"** %31, align 8
  call void @_ZdlPv(i8* %54) #10
  br label %55

55:                                               ; preds = %27, %53
  call void @llvm.lifetime.end.p0i8(i64 24, i8* nonnull %11) #9
  ret void
}

; Function Attrs: nounwind
declare void @_ZN10extensions3api14system_display13DisplayLayoutD1Ev(%"struct.extensions::api::system_display::DisplayLayout"*) unnamed_addr #3

; Function Attrs: nounwind ssp uwtable
define linkonce_odr hidden void @_ZN4base8internal9BindStateIMN10extensions37SystemDisplayGetDisplayLayoutFunctionEFvNSt3__16vectorINS2_3api14system_display13DisplayLayoutENS4_9allocatorIS8_EEEEEJ13scoped_refptrIS3_EEE7DestroyEPKNS0_13BindStateBaseE(%"class.base::internal::BindStateBase"*) #0 comdat align 2 {
  %2 = icmp eq %"class.base::internal::BindStateBase"* %0, null
  br i1 %2, label %18, label %3

3:                                                ; preds = %1
  %4 = getelementptr inbounds %"class.base::internal::BindStateBase", %"class.base::internal::BindStateBase"* %0, i64 1, i32 2
  %5 = bitcast void (%"class.base::internal::BindStateBase"*)** %4 to %"class.extensions::SystemDisplayGetDisplayLayoutFunction"**
  %6 = load %"class.extensions::SystemDisplayGetDisplayLayoutFunction"*, %"class.extensions::SystemDisplayGetDisplayLayoutFunction"** %5, align 8
  %7 = icmp eq %"class.extensions::SystemDisplayGetDisplayLayoutFunction"* %6, null
  br i1 %7, label %16, label %8

8:                                                ; preds = %3
  %9 = getelementptr inbounds %"class.extensions::SystemDisplayGetDisplayLayoutFunction", %"class.extensions::SystemDisplayGetDisplayLayoutFunction"* %6, i64 0, i32 0, i32 0, i32 1
  %10 = getelementptr inbounds %"class.base::RefCountedThreadSafe", %"class.base::RefCountedThreadSafe"* %9, i64 0, i32 0, i32 0, i32 0, i32 0, i32 0, i32 0, i32 0, i32 0
  %11 = atomicrmw sub i32* %10, i32 1 acq_rel
  %12 = icmp eq i32 %11, 1
  br i1 %12, label %13, label %16

13:                                               ; preds = %8
  %14 = getelementptr inbounds %"class.base::RefCountedThreadSafe", %"class.base::RefCountedThreadSafe"* %9, i64 -2
  %15 = bitcast %"class.base::RefCountedThreadSafe"* %14 to %class.ExtensionFunction*
  tail call void @_ZN7content13BrowserThread14DeleteOnThreadILNS0_2IDE0EE8DestructI17ExtensionFunctionEEvPKT_(%class.ExtensionFunction* %15) #9
  br label %16

16:                                               ; preds = %3, %8, %13
  %17 = bitcast %"class.base::internal::BindStateBase"* %0 to i8*
  tail call void @_ZdlPv(i8* %17) #10
  br label %18

18:                                               ; preds = %16, %1
  ret void
}

; Function Attrs: nounwind
declare void @_ZN10extensions3api14system_display20SetDisplayProperties6ParamsD1Ev(%"struct.extensions::api::system_display::SetDisplayProperties::Params"*) unnamed_addr #3

; Function Attrs: nounwind ssp uwtable
define linkonce_odr hidden void @_ZN4base8internal7InvokerINS0_9BindStateIMN10extensions41SystemDisplaySetDisplayPropertiesFunctionEFvN4absl8optionalINSt3__112basic_stringIcNS7_11char_traitsIcEENS7_9allocatorIcEEEEEEEJ13scoped_refptrIS4_EEEEFvSE_EE7RunOnceEPNS0_13BindStateBaseEOSE_(%"class.base::internal::BindStateBase"*, %"class.absl::optional.269"* dereferenceable(32)) #0 comdat align 2 {
  %3 = alloca %"class.absl::optional.269", align 8
  %4 = getelementptr inbounds %"class.base::internal::BindStateBase", %"class.base::internal::BindStateBase"* %0, i64 1
  %5 = getelementptr inbounds %"class.base::internal::BindStateBase", %"class.base::internal::BindStateBase"* %0, i64 1, i32 2
  %6 = bitcast %"class.base::internal::BindStateBase"* %4 to i64*
  %7 = load i64, i64* %6, align 8
  %8 = getelementptr inbounds %"class.base::internal::BindStateBase", %"class.base::internal::BindStateBase"* %0, i64 1, i32 1
  %9 = bitcast void ()** %8 to i64*
  %10 = load i64, i64* %9, align 8
  %11 = getelementptr inbounds %"class.absl::optional.269", %"class.absl::optional.269"* %3, i64 0, i32 0, i32 0, i32 0, i32 0
  call void @llvm.lifetime.start.p0i8(i64 32, i8* nonnull %11) #9
  %12 = bitcast void (%"class.base::internal::BindStateBase"*)** %5 to i8**
  %13 = load i8*, i8** %12, align 8
  %14 = getelementptr inbounds i8, i8* %13, i64 %10
  %15 = bitcast i8* %14 to %"class.extensions::SystemDisplaySetDisplayPropertiesFunction"*
  %16 = and i64 %7, 1
  %17 = icmp eq i64 %16, 0
  br i1 %17, label %25, label %18

18:                                               ; preds = %2
  %19 = bitcast i8* %14 to i8**
  %20 = load i8*, i8** %19, align 8
  %21 = add i64 %7, -1
  %22 = getelementptr i8, i8* %20, i64 %21
  %23 = bitcast i8* %22 to void (%"class.extensions::SystemDisplaySetDisplayPropertiesFunction"*, %"class.absl::optional.269"*)**
  %24 = load void (%"class.extensions::SystemDisplaySetDisplayPropertiesFunction"*, %"class.absl::optional.269"*)*, void (%"class.extensions::SystemDisplaySetDisplayPropertiesFunction"*, %"class.absl::optional.269"*)** %23, align 8
  br label %27

25:                                               ; preds = %2
  %26 = inttoptr i64 %7 to void (%"class.extensions::SystemDisplaySetDisplayPropertiesFunction"*, %"class.absl::optional.269"*)*
  br label %27

27:                                               ; preds = %25, %18
  %28 = phi void (%"class.extensions::SystemDisplaySetDisplayPropertiesFunction"*, %"class.absl::optional.269"*)* [ %24, %18 ], [ %26, %25 ]
  %29 = getelementptr inbounds %"class.absl::optional.269", %"class.absl::optional.269"* %1, i64 0, i32 0, i32 0, i32 0, i32 0
  call void @llvm.memset.p0i8.i64(i8* nonnull align 8 %11, i8 0, i64 32, i1 false) #9
  %30 = load i8, i8* %29, align 8, !range !2
  %31 = icmp eq i8 %30, 0
  br i1 %31, label %37, label %32

32:                                               ; preds = %27
  %33 = getelementptr inbounds %"class.absl::optional.269", %"class.absl::optional.269"* %1, i64 0, i32 0, i32 0, i32 0, i32 1, i32 0
  %34 = getelementptr inbounds %"class.absl::optional.269", %"class.absl::optional.269"* %3, i64 0, i32 0, i32 0, i32 0, i32 1, i32 0
  %35 = bitcast %"class.std::__1::basic_string"* %34 to i8*
  %36 = bitcast %"class.std::__1::basic_string"* %33 to i8*
  call void @llvm.memcpy.p0i8.p0i8.i64(i8* align 8 %35, i8* align 8 %36, i64 24, i1 false) #9
  tail call void @llvm.memset.p0i8.i64(i8* align 8 %36, i8 0, i64 24, i1 false) #9
  store i8 1, i8* %11, align 8
  br label %37

37:                                               ; preds = %32, %27
  call void %28(%"class.extensions::SystemDisplaySetDisplayPropertiesFunction"* %15, %"class.absl::optional.269"* nonnull %3) #9
  %38 = load i8, i8* %11, align 8, !range !2
  %39 = icmp eq i8 %38, 0
  br i1 %39, label %50, label %40

40:                                               ; preds = %37
  %41 = getelementptr inbounds %"class.absl::optional.269", %"class.absl::optional.269"* %3, i64 0, i32 0, i32 0, i32 0, i32 1, i32 0
  %42 = bitcast %"class.std::__1::basic_string"* %41 to %"struct.std::__1::basic_string<char, std::__1::char_traits<char>, std::__1::allocator<char> >::__short"*
  %43 = getelementptr inbounds %"struct.std::__1::basic_string<char, std::__1::char_traits<char>, std::__1::allocator<char> >::__short", %"struct.std::__1::basic_string<char, std::__1::char_traits<char>, std::__1::allocator<char> >::__short"* %42, i64 0, i32 1, i32 0
  %44 = load i8, i8* %43, align 1
  %45 = icmp slt i8 %44, 0
  br i1 %45, label %46, label %49

46:                                               ; preds = %40
  %47 = getelementptr inbounds %"class.std::__1::basic_string", %"class.std::__1::basic_string"* %41, i64 0, i32 0, i32 0, i32 0, i32 0, i32 0, i32 0
  %48 = load i8*, i8** %47, align 8
  call void @_ZdlPv(i8* %48) #10
  br label %49

49:                                               ; preds = %46, %40
  store i8 0, i8* %11, align 8
  br label %50

50:                                               ; preds = %37, %49
  call void @llvm.lifetime.end.p0i8(i64 32, i8* nonnull %11) #9
  ret void
}

; Function Attrs: argmemonly nounwind
declare void @llvm.memset.p0i8.i64(i8* nocapture writeonly, i8, i64, i1 immarg) #2

; Function Attrs: nounwind ssp uwtable
define linkonce_odr hidden void @_ZN4base8internal9BindStateIMN10extensions41SystemDisplaySetDisplayPropertiesFunctionEFvN4absl8optionalINSt3__112basic_stringIcNS6_11char_traitsIcEENS6_9allocatorIcEEEEEEEJ13scoped_refptrIS3_EEE7DestroyEPKNS0_13BindStateBaseE(%"class.base::internal::BindStateBase"*) #0 comdat align 2 {
  %2 = icmp eq %"class.base::internal::BindStateBase"* %0, null
  br i1 %2, label %18, label %3

3:                                                ; preds = %1
  %4 = getelementptr inbounds %"class.base::internal::BindStateBase", %"class.base::internal::BindStateBase"* %0, i64 1, i32 2
  %5 = bitcast void (%"class.base::internal::BindStateBase"*)** %4 to %"class.extensions::SystemDisplaySetDisplayPropertiesFunction"**
  %6 = load %"class.extensions::SystemDisplaySetDisplayPropertiesFunction"*, %"class.extensions::SystemDisplaySetDisplayPropertiesFunction"** %5, align 8
  %7 = icmp eq %"class.extensions::SystemDisplaySetDisplayPropertiesFunction"* %6, null
  br i1 %7, label %16, label %8

8:                                                ; preds = %3
  %9 = getelementptr inbounds %"class.extensions::SystemDisplaySetDisplayPropertiesFunction", %"class.extensions::SystemDisplaySetDisplayPropertiesFunction"* %6, i64 0, i32 0, i32 0, i32 1
  %10 = getelementptr inbounds %"class.base::RefCountedThreadSafe", %"class.base::RefCountedThreadSafe"* %9, i64 0, i32 0, i32 0, i32 0, i32 0, i32 0, i32 0, i32 0, i32 0
  %11 = atomicrmw sub i32* %10, i32 1 acq_rel
  %12 = icmp eq i32 %11, 1
  br i1 %12, label %13, label %16

13:                                               ; preds = %8
  %14 = getelementptr inbounds %"class.base::RefCountedThreadSafe", %"class.base::RefCountedThreadSafe"* %9, i64 -2
  %15 = bitcast %"class.base::RefCountedThreadSafe"* %14 to %class.ExtensionFunction*
  tail call void @_ZN7content13BrowserThread14DeleteOnThreadILNS0_2IDE0EE8DestructI17ExtensionFunctionEEvPKT_(%class.ExtensionFunction* %15) #9
  br label %16

16:                                               ; preds = %3, %8, %13
  %17 = bitcast %"class.base::internal::BindStateBase"* %0 to i8*
  tail call void @_ZdlPv(i8* %17) #10
  br label %18

18:                                               ; preds = %16, %1
  ret void
}

; Function Attrs: nounwind
declare void @_ZN10extensions3api14system_display16SetDisplayLayout6ParamsD1Ev(%"struct.extensions::api::system_display::SetDisplayLayout::Params"*) unnamed_addr #3

; Function Attrs: nounwind ssp uwtable
define linkonce_odr hidden void @_ZN4base8internal7InvokerINS0_9BindStateIMN10extensions37SystemDisplaySetDisplayLayoutFunctionEFvN4absl8optionalINSt3__112basic_stringIcNS7_11char_traitsIcEENS7_9allocatorIcEEEEEEEJ13scoped_refptrIS4_EEEEFvSE_EE7RunOnceEPNS0_13BindStateBaseEOSE_(%"class.base::internal::BindStateBase"*, %"class.absl::optional.269"* dereferenceable(32)) #0 comdat align 2 {
  %3 = alloca %"class.absl::optional.269", align 8
  %4 = getelementptr inbounds %"class.base::internal::BindStateBase", %"class.base::internal::BindStateBase"* %0, i64 1
  %5 = getelementptr inbounds %"class.base::internal::BindStateBase", %"class.base::internal::BindStateBase"* %0, i64 1, i32 2
  %6 = bitcast %"class.base::internal::BindStateBase"* %4 to i64*
  %7 = load i64, i64* %6, align 8
  %8 = getelementptr inbounds %"class.base::internal::BindStateBase", %"class.base::internal::BindStateBase"* %0, i64 1, i32 1
  %9 = bitcast void ()** %8 to i64*
  %10 = load i64, i64* %9, align 8
  %11 = getelementptr inbounds %"class.absl::optional.269", %"class.absl::optional.269"* %3, i64 0, i32 0, i32 0, i32 0, i32 0
  call void @llvm.lifetime.start.p0i8(i64 32, i8* nonnull %11) #9
  %12 = bitcast void (%"class.base::internal::BindStateBase"*)** %5 to i8**
  %13 = load i8*, i8** %12, align 8
  %14 = getelementptr inbounds i8, i8* %13, i64 %10
  %15 = bitcast i8* %14 to %"class.extensions::SystemDisplaySetDisplayLayoutFunction"*
  %16 = and i64 %7, 1
  %17 = icmp eq i64 %16, 0
  br i1 %17, label %25, label %18

18:                                               ; preds = %2
  %19 = bitcast i8* %14 to i8**
  %20 = load i8*, i8** %19, align 8
  %21 = add i64 %7, -1
  %22 = getelementptr i8, i8* %20, i64 %21
  %23 = bitcast i8* %22 to void (%"class.extensions::SystemDisplaySetDisplayLayoutFunction"*, %"class.absl::optional.269"*)**
  %24 = load void (%"class.extensions::SystemDisplaySetDisplayLayoutFunction"*, %"class.absl::optional.269"*)*, void (%"class.extensions::SystemDisplaySetDisplayLayoutFunction"*, %"class.absl::optional.269"*)** %23, align 8
  br label %27

25:                                               ; preds = %2
  %26 = inttoptr i64 %7 to void (%"class.extensions::SystemDisplaySetDisplayLayoutFunction"*, %"class.absl::optional.269"*)*
  br label %27

27:                                               ; preds = %25, %18
  %28 = phi void (%"class.extensions::SystemDisplaySetDisplayLayoutFunction"*, %"class.absl::optional.269"*)* [ %24, %18 ], [ %26, %25 ]
  %29 = getelementptr inbounds %"class.absl::optional.269", %"class.absl::optional.269"* %1, i64 0, i32 0, i32 0, i32 0, i32 0
  call void @llvm.memset.p0i8.i64(i8* nonnull align 8 %11, i8 0, i64 32, i1 false) #9
  %30 = load i8, i8* %29, align 8, !range !2
  %31 = icmp eq i8 %30, 0
  br i1 %31, label %37, label %32

32:                                               ; preds = %27
  %33 = getelementptr inbounds %"class.absl::optional.269", %"class.absl::optional.269"* %1, i64 0, i32 0, i32 0, i32 0, i32 1, i32 0
  %34 = getelementptr inbounds %"class.absl::optional.269", %"class.absl::optional.269"* %3, i64 0, i32 0, i32 0, i32 0, i32 1, i32 0
  %35 = bitcast %"class.std::__1::basic_string"* %34 to i8*
  %36 = bitcast %"class.std::__1::basic_string"* %33 to i8*
  call void @llvm.memcpy.p0i8.p0i8.i64(i8* align 8 %35, i8* align 8 %36, i64 24, i1 false) #9
  tail call void @llvm.memset.p0i8.i64(i8* align 8 %36, i8 0, i64 24, i1 false) #9
  store i8 1, i8* %11, align 8
  br label %37

37:                                               ; preds = %32, %27
  call void %28(%"class.extensions::SystemDisplaySetDisplayLayoutFunction"* %15, %"class.absl::optional.269"* nonnull %3) #9
  %38 = load i8, i8* %11, align 8, !range !2
  %39 = icmp eq i8 %38, 0
  br i1 %39, label %50, label %40

40:                                               ; preds = %37
  %41 = getelementptr inbounds %"class.absl::optional.269", %"class.absl::optional.269"* %3, i64 0, i32 0, i32 0, i32 0, i32 1, i32 0
  %42 = bitcast %"class.std::__1::basic_string"* %41 to %"struct.std::__1::basic_string<char, std::__1::char_traits<char>, std::__1::allocator<char> >::__short"*
  %43 = getelementptr inbounds %"struct.std::__1::basic_string<char, std::__1::char_traits<char>, std::__1::allocator<char> >::__short", %"struct.std::__1::basic_string<char, std::__1::char_traits<char>, std::__1::allocator<char> >::__short"* %42, i64 0, i32 1, i32 0
  %44 = load i8, i8* %43, align 1
  %45 = icmp slt i8 %44, 0
  br i1 %45, label %46, label %49

46:                                               ; preds = %40
  %47 = getelementptr inbounds %"class.std::__1::basic_string", %"class.std::__1::basic_string"* %41, i64 0, i32 0, i32 0, i32 0, i32 0, i32 0, i32 0
  %48 = load i8*, i8** %47, align 8
  call void @_ZdlPv(i8* %48) #10
  br label %49

49:                                               ; preds = %46, %40
  store i8 0, i8* %11, align 8
  br label %50

50:                                               ; preds = %37, %49
  call void @llvm.lifetime.end.p0i8(i64 32, i8* nonnull %11) #9
  ret void
}

; Function Attrs: nounwind ssp uwtable
define linkonce_odr hidden void @_ZN4base8internal9BindStateIMN10extensions37SystemDisplaySetDisplayLayoutFunctionEFvN4absl8optionalINSt3__112basic_stringIcNS6_11char_traitsIcEENS6_9allocatorIcEEEEEEEJ13scoped_refptrIS3_EEE7DestroyEPKNS0_13BindStateBaseE(%"class.base::internal::BindStateBase"*) #0 comdat align 2 {
  %2 = icmp eq %"class.base::internal::BindStateBase"* %0, null
  br i1 %2, label %18, label %3

3:                                                ; preds = %1
  %4 = getelementptr inbounds %"class.base::internal::BindStateBase", %"class.base::internal::BindStateBase"* %0, i64 1, i32 2
  %5 = bitcast void (%"class.base::internal::BindStateBase"*)** %4 to %"class.extensions::SystemDisplaySetDisplayLayoutFunction"**
  %6 = load %"class.extensions::SystemDisplaySetDisplayLayoutFunction"*, %"class.extensions::SystemDisplaySetDisplayLayoutFunction"** %5, align 8
  %7 = icmp eq %"class.extensions::SystemDisplaySetDisplayLayoutFunction"* %6, null
  br i1 %7, label %16, label %8

8:                                                ; preds = %3
  %9 = getelementptr inbounds %"class.extensions::SystemDisplaySetDisplayLayoutFunction", %"class.extensions::SystemDisplaySetDisplayLayoutFunction"* %6, i64 0, i32 0, i32 0, i32 1
  %10 = getelementptr inbounds %"class.base::RefCountedThreadSafe", %"class.base::RefCountedThreadSafe"* %9, i64 0, i32 0, i32 0, i32 0, i32 0, i32 0, i32 0, i32 0, i32 0
  %11 = atomicrmw sub i32* %10, i32 1 acq_rel
  %12 = icmp eq i32 %11, 1
  br i1 %12, label %13, label %16

13:                                               ; preds = %8
  %14 = getelementptr inbounds %"class.base::RefCountedThreadSafe", %"class.base::RefCountedThreadSafe"* %9, i64 -2
  %15 = bitcast %"class.base::RefCountedThreadSafe"* %14 to %class.ExtensionFunction*
  tail call void @_ZN7content13BrowserThread14DeleteOnThreadILNS0_2IDE0EE8DestructI17ExtensionFunctionEEvPKT_(%class.ExtensionFunction* %15) #9
  br label %16

16:                                               ; preds = %3, %8, %13
  %17 = bitcast %"class.base::internal::BindStateBase"* %0 to i8*
  tail call void @_ZdlPv(i8* %17) #10
  br label %18

18:                                               ; preds = %16, %1
  ret void
}

; Function Attrs: nounwind
declare void @_ZN10extensions3api14system_display20EnableUnifiedDesktop6ParamsD1Ev(%"struct.extensions::api::system_display::EnableUnifiedDesktop::Params"*) unnamed_addr #3

; Function Attrs: nounwind
declare void @_ZN10extensions3api14system_display24OverscanCalibrationStart6ParamsD1Ev(%"struct.extensions::api::system_display::OverscanCalibrationStart::Params"*) unnamed_addr #3

; Function Attrs: nounwind
declare void @_ZN10extensions3api14system_display25OverscanCalibrationAdjust6ParamsD1Ev(%"struct.extensions::api::system_display::OverscanCalibrationAdjust::Params"*) unnamed_addr #3

; Function Attrs: nounwind
declare void @_ZN10extensions3api14system_display24OverscanCalibrationReset6ParamsD1Ev(%"struct.extensions::api::system_display::OverscanCalibrationReset::Params"*) unnamed_addr #3

; Function Attrs: nounwind
declare void @_ZN10extensions3api14system_display27OverscanCalibrationComplete6ParamsD1Ev(%"struct.extensions::api::system_display::OverscanCalibrationComplete::Params"*) unnamed_addr #3

; Function Attrs: nounwind
declare void @_ZN10extensions3api14system_display26ShowNativeTouchCalibration6ParamsD1Ev(%"struct.extensions::api::system_display::ShowNativeTouchCalibration::Params"*) unnamed_addr #3

; Function Attrs: nounwind ssp uwtable
define linkonce_odr hidden void @_ZN4base8internal7InvokerINS0_9BindStateIMN10extensions47SystemDisplayShowNativeTouchCalibrationFunctionEFvN4absl8optionalINSt3__112basic_stringIcNS7_11char_traitsIcEENS7_9allocatorIcEEEEEEEJ13scoped_refptrIS4_EEEEFvSE_EE7RunOnceEPNS0_13BindStateBaseEOSE_(%"class.base::internal::BindStateBase"*, %"class.absl::optional.269"* dereferenceable(32)) #0 comdat align 2 {
  %3 = alloca %"class.absl::optional.269", align 8
  %4 = getelementptr inbounds %"class.base::internal::BindStateBase", %"class.base::internal::BindStateBase"* %0, i64 1
  %5 = getelementptr inbounds %"class.base::internal::BindStateBase", %"class.base::internal::BindStateBase"* %0, i64 1, i32 2
  %6 = bitcast %"class.base::internal::BindStateBase"* %4 to i64*
  %7 = load i64, i64* %6, align 8
  %8 = getelementptr inbounds %"class.base::internal::BindStateBase", %"class.base::internal::BindStateBase"* %0, i64 1, i32 1
  %9 = bitcast void ()** %8 to i64*
  %10 = load i64, i64* %9, align 8
  %11 = getelementptr inbounds %"class.absl::optional.269", %"class.absl::optional.269"* %3, i64 0, i32 0, i32 0, i32 0, i32 0
  call void @llvm.lifetime.start.p0i8(i64 32, i8* nonnull %11) #9
  %12 = bitcast void (%"class.base::internal::BindStateBase"*)** %5 to i8**
  %13 = load i8*, i8** %12, align 8
  %14 = getelementptr inbounds i8, i8* %13, i64 %10
  %15 = bitcast i8* %14 to %"class.extensions::SystemDisplayShowNativeTouchCalibrationFunction"*
  %16 = and i64 %7, 1
  %17 = icmp eq i64 %16, 0
  br i1 %17, label %25, label %18

18:                                               ; preds = %2
  %19 = bitcast i8* %14 to i8**
  %20 = load i8*, i8** %19, align 8
  %21 = add i64 %7, -1
  %22 = getelementptr i8, i8* %20, i64 %21
  %23 = bitcast i8* %22 to void (%"class.extensions::SystemDisplayShowNativeTouchCalibrationFunction"*, %"class.absl::optional.269"*)**
  %24 = load void (%"class.extensions::SystemDisplayShowNativeTouchCalibrationFunction"*, %"class.absl::optional.269"*)*, void (%"class.extensions::SystemDisplayShowNativeTouchCalibrationFunction"*, %"class.absl::optional.269"*)** %23, align 8
  br label %27

25:                                               ; preds = %2
  %26 = inttoptr i64 %7 to void (%"class.extensions::SystemDisplayShowNativeTouchCalibrationFunction"*, %"class.absl::optional.269"*)*
  br label %27

27:                                               ; preds = %25, %18
  %28 = phi void (%"class.extensions::SystemDisplayShowNativeTouchCalibrationFunction"*, %"class.absl::optional.269"*)* [ %24, %18 ], [ %26, %25 ]
  %29 = getelementptr inbounds %"class.absl::optional.269", %"class.absl::optional.269"* %1, i64 0, i32 0, i32 0, i32 0, i32 0
  call void @llvm.memset.p0i8.i64(i8* nonnull align 8 %11, i8 0, i64 32, i1 false) #9
  %30 = load i8, i8* %29, align 8, !range !2
  %31 = icmp eq i8 %30, 0
  br i1 %31, label %37, label %32

32:                                               ; preds = %27
  %33 = getelementptr inbounds %"class.absl::optional.269", %"class.absl::optional.269"* %1, i64 0, i32 0, i32 0, i32 0, i32 1, i32 0
  %34 = getelementptr inbounds %"class.absl::optional.269", %"class.absl::optional.269"* %3, i64 0, i32 0, i32 0, i32 0, i32 1, i32 0
  %35 = bitcast %"class.std::__1::basic_string"* %34 to i8*
  %36 = bitcast %"class.std::__1::basic_string"* %33 to i8*
  call void @llvm.memcpy.p0i8.p0i8.i64(i8* align 8 %35, i8* align 8 %36, i64 24, i1 false) #9
  tail call void @llvm.memset.p0i8.i64(i8* align 8 %36, i8 0, i64 24, i1 false) #9
  store i8 1, i8* %11, align 8
  br label %37

37:                                               ; preds = %32, %27
  call void %28(%"class.extensions::SystemDisplayShowNativeTouchCalibrationFunction"* %15, %"class.absl::optional.269"* nonnull %3) #9
  %38 = load i8, i8* %11, align 8, !range !2
  %39 = icmp eq i8 %38, 0
  br i1 %39, label %50, label %40

40:                                               ; preds = %37
  %41 = getelementptr inbounds %"class.absl::optional.269", %"class.absl::optional.269"* %3, i64 0, i32 0, i32 0, i32 0, i32 1, i32 0
  %42 = bitcast %"class.std::__1::basic_string"* %41 to %"struct.std::__1::basic_string<char, std::__1::char_traits<char>, std::__1::allocator<char> >::__short"*
  %43 = getelementptr inbounds %"struct.std::__1::basic_string<char, std::__1::char_traits<char>, std::__1::allocator<char> >::__short", %"struct.std::__1::basic_string<char, std::__1::char_traits<char>, std::__1::allocator<char> >::__short"* %42, i64 0, i32 1, i32 0
  %44 = load i8, i8* %43, align 1
  %45 = icmp slt i8 %44, 0
  br i1 %45, label %46, label %49

46:                                               ; preds = %40
  %47 = getelementptr inbounds %"class.std::__1::basic_string", %"class.std::__1::basic_string"* %41, i64 0, i32 0, i32 0, i32 0, i32 0, i32 0, i32 0
  %48 = load i8*, i8** %47, align 8
  call void @_ZdlPv(i8* %48) #10
  br label %49

49:                                               ; preds = %46, %40
  store i8 0, i8* %11, align 8
  br label %50

50:                                               ; preds = %37, %49
  call void @llvm.lifetime.end.p0i8(i64 32, i8* nonnull %11) #9
  ret void
}

; Function Attrs: nounwind ssp uwtable
define linkonce_odr hidden void @_ZN4base8internal9BindStateIMN10extensions47SystemDisplayShowNativeTouchCalibrationFunctionEFvN4absl8optionalINSt3__112basic_stringIcNS6_11char_traitsIcEENS6_9allocatorIcEEEEEEEJ13scoped_refptrIS3_EEE7DestroyEPKNS0_13BindStateBaseE(%"class.base::internal::BindStateBase"*) #0 comdat align 2 {
  %2 = icmp eq %"class.base::internal::BindStateBase"* %0, null
  br i1 %2, label %18, label %3

3:                                                ; preds = %1
  %4 = getelementptr inbounds %"class.base::internal::BindStateBase", %"class.base::internal::BindStateBase"* %0, i64 1, i32 2
  %5 = bitcast void (%"class.base::internal::BindStateBase"*)** %4 to %"class.extensions::SystemDisplayShowNativeTouchCalibrationFunction"**
  %6 = load %"class.extensions::SystemDisplayShowNativeTouchCalibrationFunction"*, %"class.extensions::SystemDisplayShowNativeTouchCalibrationFunction"** %5, align 8
  %7 = icmp eq %"class.extensions::SystemDisplayShowNativeTouchCalibrationFunction"* %6, null
  br i1 %7, label %16, label %8

8:                                                ; preds = %3
  %9 = getelementptr inbounds %"class.extensions::SystemDisplayShowNativeTouchCalibrationFunction", %"class.extensions::SystemDisplayShowNativeTouchCalibrationFunction"* %6, i64 0, i32 0, i32 0, i32 1
  %10 = getelementptr inbounds %"class.base::RefCountedThreadSafe", %"class.base::RefCountedThreadSafe"* %9, i64 0, i32 0, i32 0, i32 0, i32 0, i32 0, i32 0, i32 0, i32 0
  %11 = atomicrmw sub i32* %10, i32 1 acq_rel
  %12 = icmp eq i32 %11, 1
  br i1 %12, label %13, label %16

13:                                               ; preds = %8
  %14 = getelementptr inbounds %"class.base::RefCountedThreadSafe", %"class.base::RefCountedThreadSafe"* %9, i64 -2
  %15 = bitcast %"class.base::RefCountedThreadSafe"* %14 to %class.ExtensionFunction*
  tail call void @_ZN7content13BrowserThread14DeleteOnThreadILNS0_2IDE0EE8DestructI17ExtensionFunctionEEvPKT_(%class.ExtensionFunction* %15) #9
  br label %16

16:                                               ; preds = %3, %8, %13
  %17 = bitcast %"class.base::internal::BindStateBase"* %0 to i8*
  tail call void @_ZdlPv(i8* %17) #10
  br label %18

18:                                               ; preds = %16, %1
  ret void
}

; Function Attrs: nounwind
declare void @_ZN10extensions3api14system_display27StartCustomTouchCalibration6ParamsD1Ev(%"struct.extensions::api::system_display::StartCustomTouchCalibration::Params"*) unnamed_addr #3

; Function Attrs: nounwind
declare void @_ZN10extensions3api14system_display30CompleteCustomTouchCalibration6ParamsD1Ev(%"struct.extensions::api::system_display::CompleteCustomTouchCalibration::Params"*) unnamed_addr #3

; Function Attrs: nounwind
declare void @_ZN10extensions3api14system_display21ClearTouchCalibration6ParamsD1Ev(%"struct.extensions::api::system_display::ClearTouchCalibration::Params"*) unnamed_addr #3

; Function Attrs: nounwind
declare void @_ZN10extensions3api14system_display13SetMirrorMode6ParamsD1Ev(%"struct.extensions::api::system_display::SetMirrorMode::Params"*) unnamed_addr #3

; Function Attrs: nounwind ssp uwtable
define linkonce_odr hidden void @_ZN4base8internal7InvokerINS0_9BindStateIMN10extensions34SystemDisplaySetMirrorModeFunctionEFvN4absl8optionalINSt3__112basic_stringIcNS7_11char_traitsIcEENS7_9allocatorIcEEEEEEEJ13scoped_refptrIS4_EEEEFvSE_EE7RunOnceEPNS0_13BindStateBaseEOSE_(%"class.base::internal::BindStateBase"*, %"class.absl::optional.269"* dereferenceable(32)) #0 comdat align 2 {
  %3 = alloca %"class.absl::optional.269", align 8
  %4 = getelementptr inbounds %"class.base::internal::BindStateBase", %"class.base::internal::BindStateBase"* %0, i64 1
  %5 = getelementptr inbounds %"class.base::internal::BindStateBase", %"class.base::internal::BindStateBase"* %0, i64 1, i32 2
  %6 = bitcast %"class.base::internal::BindStateBase"* %4 to i64*
  %7 = load i64, i64* %6, align 8
  %8 = getelementptr inbounds %"class.base::internal::BindStateBase", %"class.base::internal::BindStateBase"* %0, i64 1, i32 1
  %9 = bitcast void ()** %8 to i64*
  %10 = load i64, i64* %9, align 8
  %11 = getelementptr inbounds %"class.absl::optional.269", %"class.absl::optional.269"* %3, i64 0, i32 0, i32 0, i32 0, i32 0
  call void @llvm.lifetime.start.p0i8(i64 32, i8* nonnull %11) #9
  %12 = bitcast void (%"class.base::internal::BindStateBase"*)** %5 to i8**
  %13 = load i8*, i8** %12, align 8
  %14 = getelementptr inbounds i8, i8* %13, i64 %10
  %15 = bitcast i8* %14 to %"class.extensions::SystemDisplaySetMirrorModeFunction"*
  %16 = and i64 %7, 1
  %17 = icmp eq i64 %16, 0
  br i1 %17, label %25, label %18

18:                                               ; preds = %2
  %19 = bitcast i8* %14 to i8**
  %20 = load i8*, i8** %19, align 8
  %21 = add i64 %7, -1
  %22 = getelementptr i8, i8* %20, i64 %21
  %23 = bitcast i8* %22 to void (%"class.extensions::SystemDisplaySetMirrorModeFunction"*, %"class.absl::optional.269"*)**
  %24 = load void (%"class.extensions::SystemDisplaySetMirrorModeFunction"*, %"class.absl::optional.269"*)*, void (%"class.extensions::SystemDisplaySetMirrorModeFunction"*, %"class.absl::optional.269"*)** %23, align 8
  br label %27

25:                                               ; preds = %2
  %26 = inttoptr i64 %7 to void (%"class.extensions::SystemDisplaySetMirrorModeFunction"*, %"class.absl::optional.269"*)*
  br label %27

27:                                               ; preds = %25, %18
  %28 = phi void (%"class.extensions::SystemDisplaySetMirrorModeFunction"*, %"class.absl::optional.269"*)* [ %24, %18 ], [ %26, %25 ]
  %29 = getelementptr inbounds %"class.absl::optional.269", %"class.absl::optional.269"* %1, i64 0, i32 0, i32 0, i32 0, i32 0
  call void @llvm.memset.p0i8.i64(i8* nonnull align 8 %11, i8 0, i64 32, i1 false) #9
  %30 = load i8, i8* %29, align 8, !range !2
  %31 = icmp eq i8 %30, 0
  br i1 %31, label %37, label %32

32:                                               ; preds = %27
  %33 = getelementptr inbounds %"class.absl::optional.269", %"class.absl::optional.269"* %1, i64 0, i32 0, i32 0, i32 0, i32 1, i32 0
  %34 = getelementptr inbounds %"class.absl::optional.269", %"class.absl::optional.269"* %3, i64 0, i32 0, i32 0, i32 0, i32 1, i32 0
  %35 = bitcast %"class.std::__1::basic_string"* %34 to i8*
  %36 = bitcast %"class.std::__1::basic_string"* %33 to i8*
  call void @llvm.memcpy.p0i8.p0i8.i64(i8* align 8 %35, i8* align 8 %36, i64 24, i1 false) #9
  tail call void @llvm.memset.p0i8.i64(i8* align 8 %36, i8 0, i64 24, i1 false) #9
  store i8 1, i8* %11, align 8
  br label %37

37:                                               ; preds = %32, %27
  call void %28(%"class.extensions::SystemDisplaySetMirrorModeFunction"* %15, %"class.absl::optional.269"* nonnull %3) #9
  %38 = load i8, i8* %11, align 8, !range !2
  %39 = icmp eq i8 %38, 0
  br i1 %39, label %50, label %40

40:                                               ; preds = %37
  %41 = getelementptr inbounds %"class.absl::optional.269", %"class.absl::optional.269"* %3, i64 0, i32 0, i32 0, i32 0, i32 1, i32 0
  %42 = bitcast %"class.std::__1::basic_string"* %41 to %"struct.std::__1::basic_string<char, std::__1::char_traits<char>, std::__1::allocator<char> >::__short"*
  %43 = getelementptr inbounds %"struct.std::__1::basic_string<char, std::__1::char_traits<char>, std::__1::allocator<char> >::__short", %"struct.std::__1::basic_string<char, std::__1::char_traits<char>, std::__1::allocator<char> >::__short"* %42, i64 0, i32 1, i32 0
  %44 = load i8, i8* %43, align 1
  %45 = icmp slt i8 %44, 0
  br i1 %45, label %46, label %49

46:                                               ; preds = %40
  %47 = getelementptr inbounds %"class.std::__1::basic_string", %"class.std::__1::basic_string"* %41, i64 0, i32 0, i32 0, i32 0, i32 0, i32 0, i32 0
  %48 = load i8*, i8** %47, align 8
  call void @_ZdlPv(i8* %48) #10
  br label %49

49:                                               ; preds = %46, %40
  store i8 0, i8* %11, align 8
  br label %50

50:                                               ; preds = %37, %49
  call void @llvm.lifetime.end.p0i8(i64 32, i8* nonnull %11) #9
  ret void
}

; Function Attrs: nounwind ssp uwtable
define linkonce_odr hidden void @_ZN4base8internal9BindStateIMN10extensions34SystemDisplaySetMirrorModeFunctionEFvN4absl8optionalINSt3__112basic_stringIcNS6_11char_traitsIcEENS6_9allocatorIcEEEEEEEJ13scoped_refptrIS3_EEE7DestroyEPKNS0_13BindStateBaseE(%"class.base::internal::BindStateBase"*) #0 comdat align 2 {
  %2 = icmp eq %"class.base::internal::BindStateBase"* %0, null
  br i1 %2, label %18, label %3

3:                                                ; preds = %1
  %4 = getelementptr inbounds %"class.base::internal::BindStateBase", %"class.base::internal::BindStateBase"* %0, i64 1, i32 2
  %5 = bitcast void (%"class.base::internal::BindStateBase"*)** %4 to %"class.extensions::SystemDisplaySetMirrorModeFunction"**
  %6 = load %"class.extensions::SystemDisplaySetMirrorModeFunction"*, %"class.extensions::SystemDisplaySetMirrorModeFunction"** %5, align 8
  %7 = icmp eq %"class.extensions::SystemDisplaySetMirrorModeFunction"* %6, null
  br i1 %7, label %16, label %8

8:                                                ; preds = %3
  %9 = getelementptr inbounds %"class.extensions::SystemDisplaySetMirrorModeFunction", %"class.extensions::SystemDisplaySetMirrorModeFunction"* %6, i64 0, i32 0, i32 0, i32 1
  %10 = getelementptr inbounds %"class.base::RefCountedThreadSafe", %"class.base::RefCountedThreadSafe"* %9, i64 0, i32 0, i32 0, i32 0, i32 0, i32 0, i32 0, i32 0, i32 0
  %11 = atomicrmw sub i32* %10, i32 1 acq_rel
  %12 = icmp eq i32 %11, 1
  br i1 %12, label %13, label %16

13:                                               ; preds = %8
  %14 = getelementptr inbounds %"class.base::RefCountedThreadSafe", %"class.base::RefCountedThreadSafe"* %9, i64 -2
  %15 = bitcast %"class.base::RefCountedThreadSafe"* %14 to %class.ExtensionFunction*
  tail call void @_ZN7content13BrowserThread14DeleteOnThreadILNS0_2IDE0EE8DestructI17ExtensionFunctionEEvPKT_(%class.ExtensionFunction* %15) #9
  br label %16

16:                                               ; preds = %3, %8, %13
  %17 = bitcast %"class.base::internal::BindStateBase"* %0 to i8*
  tail call void @_ZdlPv(i8* %17) #10
  br label %18

18:                                               ; preds = %16, %1
  ret void
}

attributes #0 = { nounwind ssp uwtable "correctly-rounded-divide-sqrt-fp-math"="false" "disable-tail-calls"="false" "less-precise-fpmad"="false" "min-legal-vector-width"="0" "no-frame-pointer-elim"="false" "no-frame-pointer-elim-non-leaf" "no-infs-fp-math"="false" "no-jump-tables"="false" "no-nans-fp-math"="false" "no-signed-zeros-fp-math"="false" "no-trapping-math"="false" "null-pointer-is-valid"="true" "stack-protector-buffer-size"="4" "target-cpu"="x86-64" "target-features"="+cx8,+fxsr,+mmx,+sse,+sse2,+sse3,+x87" "unsafe-fp-math"="false" "use-soft-float"="false" }
attributes #1 = { "correctly-rounded-divide-sqrt-fp-math"="false" "disable-tail-calls"="false" "less-precise-fpmad"="false" "no-frame-pointer-elim"="false" "no-frame-pointer-elim-non-leaf" "no-infs-fp-math"="false" "no-nans-fp-math"="false" "no-signed-zeros-fp-math"="false" "no-trapping-math"="false" "null-pointer-is-valid"="true" "stack-protector-buffer-size"="4" "target-cpu"="x86-64" "target-features"="+cx8,+fxsr,+mmx,+sse,+sse2,+sse3,+x87" "unsafe-fp-math"="false" "use-soft-float"="false" }
attributes #2 = { argmemonly nounwind }
attributes #3 = { nounwind "correctly-rounded-divide-sqrt-fp-math"="false" "disable-tail-calls"="false" "less-precise-fpmad"="false" "no-frame-pointer-elim"="false" "no-frame-pointer-elim-non-leaf" "no-infs-fp-math"="false" "no-nans-fp-math"="false" "no-signed-zeros-fp-math"="false" "no-trapping-math"="false" "null-pointer-is-valid"="true" "stack-protector-buffer-size"="4" "target-cpu"="x86-64" "target-features"="+cx8,+fxsr,+mmx,+sse,+sse2,+sse3,+x87" "unsafe-fp-math"="false" "use-soft-float"="false" }
attributes #4 = { norecurse nounwind readnone ssp uwtable "correctly-rounded-divide-sqrt-fp-math"="false" "disable-tail-calls"="false" "less-precise-fpmad"="false" "min-legal-vector-width"="0" "no-frame-pointer-elim"="false" "no-frame-pointer-elim-non-leaf" "no-infs-fp-math"="false" "no-jump-tables"="false" "no-nans-fp-math"="false" "no-signed-zeros-fp-math"="false" "no-trapping-math"="false" "null-pointer-is-valid"="true" "stack-protector-buffer-size"="4" "target-cpu"="x86-64" "target-features"="+cx8,+fxsr,+mmx,+sse,+sse2,+sse3,+x87" "unsafe-fp-math"="false" "use-soft-float"="false" }
attributes #5 = { nobuiltin nofree "correctly-rounded-divide-sqrt-fp-math"="false" "disable-tail-calls"="false" "less-precise-fpmad"="false" "no-frame-pointer-elim"="false" "no-frame-pointer-elim-non-leaf" "no-infs-fp-math"="false" "no-nans-fp-math"="false" "no-signed-zeros-fp-math"="false" "no-trapping-math"="false" "null-pointer-is-valid"="true" "stack-protector-buffer-size"="4" "target-cpu"="x86-64" "target-features"="+cx8,+fxsr,+mmx,+sse,+sse2,+sse3,+x87" "unsafe-fp-math"="false" "use-soft-float"="false" }
attributes #6 = { nobuiltin nounwind "correctly-rounded-divide-sqrt-fp-math"="false" "disable-tail-calls"="false" "less-precise-fpmad"="false" "no-frame-pointer-elim"="false" "no-frame-pointer-elim-non-leaf" "no-infs-fp-math"="false" "no-nans-fp-math"="false" "no-signed-zeros-fp-math"="false" "no-trapping-math"="false" "null-pointer-is-valid"="true" "stack-protector-buffer-size"="4" "target-cpu"="x86-64" "target-features"="+cx8,+fxsr,+mmx,+sse,+sse2,+sse3,+x87" "unsafe-fp-math"="false" "use-soft-float"="false" }
attributes #7 = { nofree nounwind readonly "correctly-rounded-divide-sqrt-fp-math"="false" "disable-tail-calls"="false" "less-precise-fpmad"="false" "no-frame-pointer-elim"="false" "no-frame-pointer-elim-non-leaf" "no-infs-fp-math"="false" "no-nans-fp-math"="false" "no-signed-zeros-fp-math"="false" "no-trapping-math"="false" "null-pointer-is-valid"="true" "stack-protector-buffer-size"="4" "target-cpu"="x86-64" "target-features"="+cx8,+fxsr,+mmx,+sse,+sse2,+sse3,+x87" "unsafe-fp-math"="false" "use-soft-float"="false" }
attributes #8 = { cold noreturn nounwind }
attributes #9 = { nounwind }
attributes #10 = { builtin nounwind }
attributes #11 = { noreturn nounwind }

!llvm.module.flags = !{!0, !1}

!0 = !{i32 1, !"wchar_size", i32 4}
!1 = !{i32 7, !"PIC Level", i32 2}
!2 = !{i8 0, i8 2}
!3 = !{!4, !6}
!4 = distinct !{!4, !5, !"_ZN4base8internal8BindImplINS_12OnceCallbackEMN10extensions28SystemDisplayGetInfoFunctionEFvNSt3__16vectorINS3_3api14system_display15DisplayUnitInfoENS5_9allocatorIS9_EEEEEJPS4_EEEDcOT0_DpOT1_: argument 0"}
!5 = distinct !{!5, !"_ZN4base8internal8BindImplINS_12OnceCallbackEMN10extensions28SystemDisplayGetInfoFunctionEFvNSt3__16vectorINS3_3api14system_display15DisplayUnitInfoENS5_9allocatorIS9_EEEEEJPS4_EEEDcOT0_DpOT1_"}
!6 = distinct !{!6, !7, !"_ZN4base8BindOnceIMN10extensions28SystemDisplayGetInfoFunctionEFvNSt3__16vectorINS1_3api14system_display15DisplayUnitInfoENS3_9allocatorIS7_EEEEEJPS2_EEENS_12OnceCallbackINS_8internal14BindTypeHelperIT_JDpT0_EE14UnboundRunTypeEEEOSH_DpOSI_: argument 0"}
!7 = distinct !{!7, !"_ZN4base8BindOnceIMN10extensions28SystemDisplayGetInfoFunctionEFvNSt3__16vectorINS1_3api14system_display15DisplayUnitInfoENS3_9allocatorIS7_EEEEEJPS2_EEENS_12OnceCallbackINS_8internal14BindTypeHelperIT_JDpT0_EE14UnboundRunTypeEEEOSH_DpOSI_"}
!8 = !{!9, !11}
!9 = distinct !{!9, !10, !"_ZN4base8internal8BindImplINS_12OnceCallbackEMN10extensions37SystemDisplayGetDisplayLayoutFunctionEFvNSt3__16vectorINS3_3api14system_display13DisplayLayoutENS5_9allocatorIS9_EEEEEJPS4_EEEDcOT0_DpOT1_: argument 0"}
!10 = distinct !{!10, !"_ZN4base8internal8BindImplINS_12OnceCallbackEMN10extensions37SystemDisplayGetDisplayLayoutFunctionEFvNSt3__16vectorINS3_3api14system_display13DisplayLayoutENS5_9allocatorIS9_EEEEEJPS4_EEEDcOT0_DpOT1_"}
!11 = distinct !{!11, !12, !"_ZN4base8BindOnceIMN10extensions37SystemDisplayGetDisplayLayoutFunctionEFvNSt3__16vectorINS1_3api14system_display13DisplayLayoutENS3_9allocatorIS7_EEEEEJPS2_EEENS_12OnceCallbackINS_8internal14BindTypeHelperIT_JDpT0_EE14UnboundRunTypeEEEOSH_DpOSI_: argument 0"}
!12 = distinct !{!12, !"_ZN4base8BindOnceIMN10extensions37SystemDisplayGetDisplayLayoutFunctionEFvNSt3__16vectorINS1_3api14system_display13DisplayLayoutENS3_9allocatorIS7_EEEEEJPS2_EEENS_12OnceCallbackINS_8internal14BindTypeHelperIT_JDpT0_EE14UnboundRunTypeEEEOSH_DpOSI_"}
!13 = !{!14, !16}
!14 = distinct !{!14, !15, !"_ZN4base8internal8BindImplINS_12OnceCallbackEMN10extensions41SystemDisplaySetDisplayPropertiesFunctionEFvN4absl8optionalINSt3__112basic_stringIcNS7_11char_traitsIcEENS7_9allocatorIcEEEEEEEJPS4_EEEDcOT0_DpOT1_: argument 0"}
!15 = distinct !{!15, !"_ZN4base8internal8BindImplINS_12OnceCallbackEMN10extensions41SystemDisplaySetDisplayPropertiesFunctionEFvN4absl8optionalINSt3__112basic_stringIcNS7_11char_traitsIcEENS7_9allocatorIcEEEEEEEJPS4_EEEDcOT0_DpOT1_"}
!16 = distinct !{!16, !17, !"_ZN4base8BindOnceIMN10extensions41SystemDisplaySetDisplayPropertiesFunctionEFvN4absl8optionalINSt3__112basic_stringIcNS5_11char_traitsIcEENS5_9allocatorIcEEEEEEEJPS2_EEENS_12OnceCallbackINS_8internal14BindTypeHelperIT_JDpT0_EE14UnboundRunTypeEEEOSJ_DpOSK_: argument 0"}
!17 = distinct !{!17, !"_ZN4base8BindOnceIMN10extensions41SystemDisplaySetDisplayPropertiesFunctionEFvN4absl8optionalINSt3__112basic_stringIcNS5_11char_traitsIcEENS5_9allocatorIcEEEEEEEJPS2_EEENS_12OnceCallbackINS_8internal14BindTypeHelperIT_JDpT0_EE14UnboundRunTypeEEEOSJ_DpOSK_"}
!18 = !{!19, !21}
!19 = distinct !{!19, !20, !"_ZN4base8internal8BindImplINS_12OnceCallbackEMN10extensions37SystemDisplaySetDisplayLayoutFunctionEFvN4absl8optionalINSt3__112basic_stringIcNS7_11char_traitsIcEENS7_9allocatorIcEEEEEEEJPS4_EEEDcOT0_DpOT1_: argument 0"}
!20 = distinct !{!20, !"_ZN4base8internal8BindImplINS_12OnceCallbackEMN10extensions37SystemDisplaySetDisplayLayoutFunctionEFvN4absl8optionalINSt3__112basic_stringIcNS7_11char_traitsIcEENS7_9allocatorIcEEEEEEEJPS4_EEEDcOT0_DpOT1_"}
!21 = distinct !{!21, !22, !"_ZN4base8BindOnceIMN10extensions37SystemDisplaySetDisplayLayoutFunctionEFvN4absl8optionalINSt3__112basic_stringIcNS5_11char_traitsIcEENS5_9allocatorIcEEEEEEEJPS2_EEENS_12OnceCallbackINS_8internal14BindTypeHelperIT_JDpT0_EE14UnboundRunTypeEEEOSJ_DpOSK_: argument 0"}
!22 = distinct !{!22, !"_ZN4base8BindOnceIMN10extensions37SystemDisplaySetDisplayLayoutFunctionEFvN4absl8optionalINSt3__112basic_stringIcNS5_11char_traitsIcEENS5_9allocatorIcEEEEEEEJPS2_EEENS_12OnceCallbackINS_8internal14BindTypeHelperIT_JDpT0_EE14UnboundRunTypeEEEOSJ_DpOSK_"}
!23 = !{!24, !26}
!24 = distinct !{!24, !25, !"_ZN4base8internal8BindImplINS_12OnceCallbackEMN10extensions47SystemDisplayShowNativeTouchCalibrationFunctionEFvN4absl8optionalINSt3__112basic_stringIcNS7_11char_traitsIcEENS7_9allocatorIcEEEEEEEJPS4_EEEDcOT0_DpOT1_: argument 0"}
!25 = distinct !{!25, !"_ZN4base8internal8BindImplINS_12OnceCallbackEMN10extensions47SystemDisplayShowNativeTouchCalibrationFunctionEFvN4absl8optionalINSt3__112basic_stringIcNS7_11char_traitsIcEENS7_9allocatorIcEEEEEEEJPS4_EEEDcOT0_DpOT1_"}
!26 = distinct !{!26, !27, !"_ZN4base8BindOnceIMN10extensions47SystemDisplayShowNativeTouchCalibrationFunctionEFvN4absl8optionalINSt3__112basic_stringIcNS5_11char_traitsIcEENS5_9allocatorIcEEEEEEEJPS2_EEENS_12OnceCallbackINS_8internal14BindTypeHelperIT_JDpT0_EE14UnboundRunTypeEEEOSJ_DpOSK_: argument 0"}
!27 = distinct !{!27, !"_ZN4base8BindOnceIMN10extensions47SystemDisplayShowNativeTouchCalibrationFunctionEFvN4absl8optionalINSt3__112basic_stringIcNS5_11char_traitsIcEENS5_9allocatorIcEEEEEEEJPS2_EEENS_12OnceCallbackINS_8internal14BindTypeHelperIT_JDpT0_EE14UnboundRunTypeEEEOSJ_DpOSK_"}
!28 = !{!29, !31}
!29 = distinct !{!29, !30, !"_ZN4base8internal8BindImplINS_12OnceCallbackEMN10extensions34SystemDisplaySetMirrorModeFunctionEFvN4absl8optionalINSt3__112basic_stringIcNS7_11char_traitsIcEENS7_9allocatorIcEEEEEEEJPS4_EEEDcOT0_DpOT1_: argument 0"}
!30 = distinct !{!30, !"_ZN4base8internal8BindImplINS_12OnceCallbackEMN10extensions34SystemDisplaySetMirrorModeFunctionEFvN4absl8optionalINSt3__112basic_stringIcNS7_11char_traitsIcEENS7_9allocatorIcEEEEEEEJPS4_EEEDcOT0_DpOT1_"}
!31 = distinct !{!31, !32, !"_ZN4base8BindOnceIMN10extensions34SystemDisplaySetMirrorModeFunctionEFvN4absl8optionalINSt3__112basic_stringIcNS5_11char_traitsIcEENS5_9allocatorIcEEEEEEEJPS2_EEENS_12OnceCallbackINS_8internal14BindTypeHelperIT_JDpT0_EE14UnboundRunTypeEEEOSJ_DpOSK_: argument 0"}
!32 = distinct !{!32, !"_ZN4base8BindOnceIMN10extensions34SystemDisplaySetMirrorModeFunctionEFvN4absl8optionalINSt3__112basic_stringIcNS5_11char_traitsIcEENS5_9allocatorIcEEEEEEEJPS2_EEENS_12OnceCallbackINS_8internal14BindTypeHelperIT_JDpT0_EE14UnboundRunTypeEEEOSJ_DpOSK_"}
!33 = !{!34}
!34 = distinct !{!34, !35, !"_ZNSt3__16__treeINS_12__value_typeIPN7content11WebContentsENS_10unique_ptrIN10extensions12_GLOBAL__N_115OverscanTracker19OverscanWebObserverENS_14default_deleteIS9_EEEEEENS_19__map_value_compareIS4_SD_NS_4lessIS4_EELb1EEENS_9allocatorISD_EEE16__construct_nodeIJRKNS_21piecewise_construct_tENS_5tupleIJRKS4_EEENSP_IJEEEEEENS5_INS_11__tree_nodeISD_PvEENS_22__tree_node_destructorINSI_ISW_EEEEEEDpOT_: argument 0"}
!35 = distinct !{!35, !"_ZNSt3__16__treeINS_12__value_typeIPN7content11WebContentsENS_10unique_ptrIN10extensions12_GLOBAL__N_115OverscanTracker19OverscanWebObserverENS_14default_deleteIS9_EEEEEENS_19__map_value_compareIS4_SD_NS_4lessIS4_EELb1EEENS_9allocatorISD_EEE16__construct_nodeIJRKNS_21piecewise_construct_tENS_5tupleIJRKS4_EEENSP_IJEEEEEENS5_INS_11__tree_nodeISD_PvEENS_22__tree_node_destructorINSI_ISW_EEEEEEDpOT_"}
!36 = !{!37}
!37 = distinct !{!37, !38, !"_ZNSt3__16__treeINS_12basic_stringIcNS_11char_traitsIcEENS_9allocatorIcEEEENS_4lessIS6_EENS4_IS6_EEE16__construct_nodeIJRKS6_EEENS_10unique_ptrINS_11__tree_nodeIS6_PvEENS_22__tree_node_destructorINS4_ISH_EEEEEEDpOT_: argument 0"}
!38 = distinct !{!38, !"_ZNSt3__16__treeINS_12basic_stringIcNS_11char_traitsIcEENS_9allocatorIcEEEENS_4lessIS6_EENS4_IS6_EEE16__construct_nodeIJRKS6_EEENS_10unique_ptrINS_11__tree_nodeIS6_PvEENS_22__tree_node_destructorINS4_ISH_EEEEEEDpOT_"}
