; ModuleID = '../../chrome/browser/extensions/api/tabs/tabs_constants.cc'
source_filename = "../../chrome/browser/extensions/api/tabs/tabs_constants.cc"
target datalayout = "e-m:e-i64:64-f80:128-n8:16:32:64-S128"
target triple = "x86_64-unknown-linux-gnu"

@_ZN10extensions14tabs_constants10kActiveKeyE = hidden local_unnamed_addr constant [7 x i8] c"active\00", align 1
@_ZN10extensions14tabs_constants13kAllFramesKeyE = hidden local_unnamed_addr constant [10 x i8] c"allFrames\00", align 1
@_ZN10extensions14tabs_constants15kAlwaysOnTopKeyE = hidden local_unnamed_addr constant [12 x i8] c"alwaysOnTop\00", align 1
@_ZN10extensions14tabs_constants12kBypassCacheE = hidden local_unnamed_addr constant [12 x i8] c"bypassCache\00", align 1
@_ZN10extensions14tabs_constants8kCodeKeyE = hidden local_unnamed_addr constant [5 x i8] c"code\00", align 1
@_ZN10extensions14tabs_constants17kCurrentWindowKeyE = hidden local_unnamed_addr constant [14 x i8] c"currentWindow\00", align 1
@_ZN10extensions14tabs_constants14kFaviconUrlKeyE = hidden local_unnamed_addr constant [11 x i8] c"favIconUrl\00", align 1
@_ZN10extensions14tabs_constants8kFileKeyE = hidden local_unnamed_addr constant [5 x i8] c"file\00", align 1
@_ZN10extensions14tabs_constants11kFocusedKeyE = hidden local_unnamed_addr constant [8 x i8] c"focused\00", align 1
@_ZN10extensions14tabs_constants10kFormatKeyE = hidden local_unnamed_addr constant [7 x i8] c"format\00", align 1
@_ZN10extensions14tabs_constants13kFromIndexKeyE = hidden local_unnamed_addr constant [10 x i8] c"fromIndex\00", align 1
@_ZN10extensions14tabs_constants11kGroupIdKeyE = hidden local_unnamed_addr constant [8 x i8] c"groupId\00", align 1
@_ZN10extensions14tabs_constants10kHeightKeyE = hidden local_unnamed_addr constant [7 x i8] c"height\00", align 1
@_ZN10extensions14tabs_constants6kIdKeyE = hidden local_unnamed_addr constant [3 x i8] c"id\00", align 1
@_ZN10extensions14tabs_constants13kIncognitoKeyE = hidden local_unnamed_addr constant [10 x i8] c"incognito\00", align 1
@_ZN10extensions14tabs_constants9kIndexKeyE = hidden local_unnamed_addr constant [6 x i8] c"index\00", align 1
@_ZN10extensions14tabs_constants21kLastFocusedWindowKeyE = hidden local_unnamed_addr constant [18 x i8] c"lastFocusedWindow\00", align 16
@_ZN10extensions14tabs_constants8kLeftKeyE = hidden local_unnamed_addr constant [5 x i8] c"left\00", align 1
@_ZN10extensions14tabs_constants15kNewPositionKeyE = hidden local_unnamed_addr constant [12 x i8] c"newPosition\00", align 1
@_ZN10extensions14tabs_constants15kNewWindowIdKeyE = hidden local_unnamed_addr constant [12 x i8] c"newWindowId\00", align 1
@_ZN10extensions14tabs_constants15kOldPositionKeyE = hidden local_unnamed_addr constant [12 x i8] c"oldPosition\00", align 1
@_ZN10extensions14tabs_constants15kOldWindowIdKeyE = hidden local_unnamed_addr constant [12 x i8] c"oldWindowId\00", align 1
@_ZN10extensions14tabs_constants15kOpenerTabIdKeyE = hidden local_unnamed_addr constant [12 x i8] c"openerTabId\00", align 1
@_ZN10extensions14tabs_constants10kPinnedKeyE = hidden local_unnamed_addr constant [7 x i8] c"pinned\00", align 1
@_ZN10extensions14tabs_constants11kAudibleKeyE = hidden local_unnamed_addr constant [8 x i8] c"audible\00", align 1
@_ZN10extensions14tabs_constants13kDiscardedKeyE = hidden local_unnamed_addr constant [10 x i8] c"discarded\00", align 1
@_ZN10extensions14tabs_constants19kAutoDiscardableKeyE = hidden local_unnamed_addr constant [16 x i8] c"autoDiscardable\00", align 16
@_ZN10extensions14tabs_constants9kMutedKeyE = hidden local_unnamed_addr constant [6 x i8] c"muted\00", align 1
@_ZN10extensions14tabs_constants13kMutedInfoKeyE = hidden local_unnamed_addr constant [10 x i8] c"mutedInfo\00", align 1
@_ZN10extensions14tabs_constants11kQualityKeyE = hidden local_unnamed_addr constant [8 x i8] c"quality\00", align 1
@_ZN10extensions14tabs_constants15kHighlightedKeyE = hidden local_unnamed_addr constant [12 x i8] c"highlighted\00", align 1
@_ZN10extensions14tabs_constants9kRunAtKeyE = hidden local_unnamed_addr constant [6 x i8] c"runAt\00", align 1
@_ZN10extensions14tabs_constants12kSelectedKeyE = hidden local_unnamed_addr constant [9 x i8] c"selected\00", align 1
@_ZN10extensions14tabs_constants13kShowStateKeyE = hidden local_unnamed_addr constant [6 x i8] c"state\00", align 1
@_ZN10extensions14tabs_constants10kStatusKeyE = hidden local_unnamed_addr constant [7 x i8] c"status\00", align 1
@_ZN10extensions14tabs_constants9kTabIdKeyE = hidden local_unnamed_addr constant [6 x i8] c"tabId\00", align 1
@_ZN10extensions14tabs_constants10kTabIdsKeyE = hidden local_unnamed_addr constant [7 x i8] c"tabIds\00", align 1
@_ZN10extensions14tabs_constants8kTabsKeyE = hidden local_unnamed_addr constant [5 x i8] c"tabs\00", align 1
@_ZN10extensions14tabs_constants9kTitleKeyE = hidden local_unnamed_addr constant [6 x i8] c"title\00", align 1
@_ZN10extensions14tabs_constants11kToIndexKeyE = hidden local_unnamed_addr constant [8 x i8] c"toIndex\00", align 1
@_ZN10extensions14tabs_constants7kTopKeyE = hidden local_unnamed_addr constant [4 x i8] c"top\00", align 1
@_ZN10extensions14tabs_constants7kUrlKeyE = hidden local_unnamed_addr constant [4 x i8] c"url\00", align 1
@_ZN10extensions14tabs_constants14kPendingUrlKeyE = hidden local_unnamed_addr constant [11 x i8] c"pendingUrl\00", align 1
@_ZN10extensions14tabs_constants14kWindowClosingE = hidden local_unnamed_addr constant [16 x i8] c"isWindowClosing\00", align 16
@_ZN10extensions14tabs_constants9kWidthKeyE = hidden local_unnamed_addr constant [6 x i8] c"width\00", align 1
@_ZN10extensions14tabs_constants12kWindowIdKeyE = hidden local_unnamed_addr constant [9 x i8] c"windowId\00", align 1
@_ZN10extensions14tabs_constants14kWindowTypeKeyE = hidden local_unnamed_addr constant [5 x i8] c"type\00", align 1
@_ZN10extensions14tabs_constants18kWindowTypeLongKeyE = hidden local_unnamed_addr constant [11 x i8] c"windowType\00", align 1
@_ZN10extensions14tabs_constants15kWindowTypesKeyE = hidden local_unnamed_addr constant [12 x i8] c"windowTypes\00", align 1
@_ZN10extensions14tabs_constants17kZoomSettingsModeE = hidden local_unnamed_addr constant [5 x i8] c"mode\00", align 1
@_ZN10extensions14tabs_constants18kZoomSettingsScopeE = hidden local_unnamed_addr constant [6 x i8] c"scope\00", align 1
@_ZN10extensions14tabs_constants21kShowStateValueNormalE = hidden local_unnamed_addr constant [7 x i8] c"normal\00", align 1
@_ZN10extensions14tabs_constants24kShowStateValueMinimizedE = hidden local_unnamed_addr constant [10 x i8] c"minimized\00", align 1
@_ZN10extensions14tabs_constants24kShowStateValueMaximizedE = hidden local_unnamed_addr constant [10 x i8] c"maximized\00", align 1
@_ZN10extensions14tabs_constants25kShowStateValueFullscreenE = hidden local_unnamed_addr constant [11 x i8] c"fullscreen\00", align 1
@_ZN10extensions14tabs_constants31kShowStateValueLockedFullscreenE = hidden local_unnamed_addr constant [18 x i8] c"locked-fullscreen\00", align 16
@_ZN10extensions14tabs_constants22kWindowTypeValueNormalE = hidden local_unnamed_addr constant [7 x i8] c"normal\00", align 1
@_ZN10extensions14tabs_constants21kWindowTypeValuePopupE = hidden local_unnamed_addr constant [6 x i8] c"popup\00", align 1
@_ZN10extensions14tabs_constants19kWindowTypeValueAppE = hidden local_unnamed_addr constant [4 x i8] c"app\00", align 1
@_ZN10extensions14tabs_constants24kWindowTypeValueDevToolsE = hidden local_unnamed_addr constant [9 x i8] c"devtools\00", align 1
@_ZN10extensions14tabs_constants27kCannotZoomDisabledTabErrorE = hidden local_unnamed_addr constant [36 x i8] c"Cannot zoom a tab in disabled mode.\00", align 16
@_ZN10extensions14tabs_constants40kCanOnlyMoveTabsWithinNormalWindowsErrorE = hidden local_unnamed_addr constant [51 x i8] c"Tabs can only be moved to and from normal windows.\00", align 16
@_ZN10extensions14tabs_constants38kCanOnlyMoveTabsWithinSameProfileErrorE = hidden local_unnamed_addr constant [60 x i8] c"Tabs can only be moved between windows in the same profile.\00", align 16
@_ZN10extensions14tabs_constants19kFrameNotFoundErrorE = hidden local_unnamed_addr constant [29 x i8] c"No frame with id * in tab *.\00", align 16
@_ZN10extensions14tabs_constants20kNoCrashBrowserErrorE = hidden local_unnamed_addr constant [39 x i8] c"I'm sorry. I'm afraid I can't do that.\00", align 16
@_ZN10extensions14tabs_constants21kNoCurrentWindowErrorE = hidden local_unnamed_addr constant [18 x i8] c"No current window\00", align 16
@_ZN10extensions14tabs_constants25kNoLastFocusedWindowErrorE = hidden local_unnamed_addr constant [23 x i8] c"No last-focused window\00", align 16
@_ZN10extensions14tabs_constants26kNoTabInBrowserWindowErrorE = hidden local_unnamed_addr constant [35 x i8] c"There is no tab in browser window.\00", align 16
@_ZN10extensions14tabs_constants30kPerOriginOnlyInAutomaticErrorE = hidden local_unnamed_addr constant [56 x i8] c"Can only set scope to \22per-origin\22 in \22automatic\22 mode.\00", align 16
@_ZN10extensions14tabs_constants20kWindowNotFoundErrorE = hidden local_unnamed_addr constant [22 x i8] c"No window with id: *.\00", align 16
@_ZN10extensions14tabs_constants22kTabIndexNotFoundErrorE = hidden local_unnamed_addr constant [20 x i8] c"No tab at index: *.\00", align 16
@_ZN10extensions14tabs_constants22kNotFoundNextPageErrorE = hidden local_unnamed_addr constant [36 x i8] c"Cannot find a next page in history.\00", align 16
@_ZN10extensions14tabs_constants17kTabNotFoundErrorE = hidden local_unnamed_addr constant [19 x i8] c"No tab with id: *.\00", align 16
@_ZN10extensions14tabs_constants17kCannotDiscardTabE = hidden local_unnamed_addr constant [31 x i8] c"Cannot discard tab with id: *.\00", align 16
@_ZN10extensions14tabs_constants23kCannotFindTabToDiscardE = hidden local_unnamed_addr constant [30 x i8] c"Cannot find a tab to discard.\00", align 16
@_ZN10extensions14tabs_constants25kTabStripNotEditableErrorE = hidden local_unnamed_addr constant [62 x i8] c"Tabs cannot be edited right now (user may be dragging a tab).\00", align 16
@_ZN10extensions14tabs_constants30kTabStripNotEditableQueryErrorE = hidden local_unnamed_addr constant [63 x i8] c"Tabs cannot be queried right now (user may be dragging a tab).\00", align 16
@_ZN10extensions14tabs_constants19kNoSelectedTabErrorE = hidden local_unnamed_addr constant [16 x i8] c"No selected tab\00", align 16
@_ZN10extensions14tabs_constants22kNoHighlightedTabErrorE = hidden local_unnamed_addr constant [19 x i8] c"No highlighted tab\00", align 16
@_ZN10extensions14tabs_constants24kIncognitoModeIsDisabledE = hidden local_unnamed_addr constant [28 x i8] c"Incognito mode is disabled.\00", align 16
@_ZN10extensions14tabs_constants22kIncognitoModeIsForcedE = hidden local_unnamed_addr constant [54 x i8] c"Incognito mode is forced. Cannot open normal windows.\00", align 16
@_ZN10extensions14tabs_constants31kURLsNotAllowedInIncognitoErrorE = hidden local_unnamed_addr constant [44 x i8] c"Cannot open URL \22*\22 in an incognito window.\00", align 16
@_ZN10extensions14tabs_constants16kInvalidUrlErrorE = hidden local_unnamed_addr constant [18 x i8] c"Invalid url: \22*\22.\00", align 16
@_ZN10extensions14tabs_constants20kNotImplementedErrorE = hidden local_unnamed_addr constant [33 x i8] c"This call is not yet implemented\00", align 16
@_ZN10extensions14tabs_constants28kSupportedInWindowsOnlyErrorE = hidden local_unnamed_addr constant [26 x i8] c"Supported in Windows only\00", align 16
@_ZN10extensions14tabs_constants23kInvalidWindowTypeErrorE = hidden local_unnamed_addr constant [23 x i8] c"Invalid value for type\00", align 16
@_ZN10extensions14tabs_constants24kInvalidWindowStateErrorE = hidden local_unnamed_addr constant [24 x i8] c"Invalid value for state\00", align 16
@_ZN10extensions14tabs_constants20kScreenshotsDisabledE = hidden local_unnamed_addr constant [37 x i8] c"Taking screenshots has been disabled\00", align 16
@_ZN10extensions14tabs_constants25kScreenshotsDisabledByDlpE = hidden local_unnamed_addr constant [82 x i8] c"Administrator policy disables screen capture when confidential content is visible\00", align 16
@_ZN10extensions14tabs_constants25kCannotUpdateMuteCapturedE = hidden local_unnamed_addr constant [84 x i8] c"Cannot update mute state for tab *, tab has audio or video currently being captured\00", align 16
@_ZN10extensions14tabs_constants37kCannotDetermineLanguageOfUnloadedTabE = hidden local_unnamed_addr constant [42 x i8] c"Cannot determine language: tab not loaded\00", align 16
@_ZN10extensions14tabs_constants45kMissingLockWindowFullscreenPrivatePermissionE = hidden local_unnamed_addr constant [125 x i8] c"Cannot lock window to fullscreen or close a locked fullscreen window without lockWindowFullscreenPrivate manifest permission\00", align 16
@_ZN10extensions14tabs_constants37kJavaScriptUrlsNotAllowedInTabsUpdateE = hidden local_unnamed_addr constant [94 x i8] c"JavaScript URLs are not allowed in chrome.tabs.update. Use chrome.tabs.executeScript instead.\00", align 16
@_ZN10extensions14tabs_constants24kBrowserWindowNotAllowedE = hidden local_unnamed_addr constant [29 x i8] c"Browser windows not allowed.\00", align 16
@_ZN10extensions14tabs_constants32kLockedFullscreenModeNewTabErrorE = hidden local_unnamed_addr constant [60 x i8] c"You cannot create new tabs while in locked fullscreen mode.\00", align 16
@_ZN10extensions14tabs_constants17kGroupParamsErrorE = hidden local_unnamed_addr constant [58 x i8] c"Cannot specify 'createProperties' along with a 'groupId'.\00", align 16
@_ZN10extensions14tabs_constants25kCannotNavigateToDevtoolsE = hidden local_unnamed_addr constant [90 x i8] c"Cannot navigate to a devtools:// page without either the devtools or debugger permission.\00", align 16
@_ZN10extensions14tabs_constants20kCannotHighlightTabsE = hidden local_unnamed_addr constant [75 x i8] c"Cannot change tab highlight. This may be due to user dragging in progress.\00", align 16
@_ZN10extensions14tabs_constants27kNotAllowedForDevToolsErrorE = hidden local_unnamed_addr constant [43 x i8] c"Operation not allowed for DevTools windows\00", align 16

!llvm.module.flags = !{!0, !1}

!0 = !{i32 1, !"wchar_size", i32 4}
!1 = !{i32 7, !"PIC Level", i32 2}
