; ModuleID = 'gen/chrome/browser/search/task_module/task_module.mojom.cc'
source_filename = "gen/chrome/browser/search/task_module/task_module.mojom.cc"
target datalayout = "e-m:e-i64:64-f80:128-n8:16:32:64-S128"
target triple = "x86_64-unknown-linux-gnu"

module asm ".symver exp, exp@GLIBC_2.2.5"
module asm ".symver exp2, exp2@GLIBC_2.2.5"
module asm ".symver exp2f, exp2f@GLIBC_2.2.5"
module asm ".symver expf, expf@GLIBC_2.2.5"
module asm ".symver lgamma, lgamma@GLIBC_2.2.5"
module asm ".symver lgammaf, lgammaf@GLIBC_2.2.5"
module asm ".symver lgammal, lgammal@GLIBC_2.2.5"
module asm ".symver log, log@GLIBC_2.2.5"
module asm ".symver log2, log2@GLIBC_2.2.5"
module asm ".symver log2f, log2f@GLIBC_2.2.5"
module asm ".symver logf, logf@GLIBC_2.2.5"
module asm ".symver pow, pow@GLIBC_2.2.5"
module asm ".symver powf, powf@GLIBC_2.2.5"

%"struct.std::__1::pair" = type { i32, %"struct.mojo::internal::GenericValidationInfo" }
%"struct.mojo::internal::GenericValidationInfo" = type { i1 (i8*, %"class.mojo::internal::ValidationContext"*)*, i1 (i8*, %"class.mojo::internal::ValidationContext"*)* }
%"class.mojo::internal::ValidationContext" = type <{ %"class.mojo::Message"*, i8*, i32, [4 x i8], i64, i64, i32, i32, i32, i32, i32, [4 x i8] }>
%"class.mojo::Message" = type { %"class.mojo::ScopedHandleBase", %"class.mojo::internal::Buffer", %"class.std::__1::vector", %"class.std::__1::vector.16", %"class.mojo::ConnectionGroup::Ref"*, i8, i8, i8* }
%"class.mojo::ScopedHandleBase" = type { %"class.mojo::MessageHandle" }
%"class.mojo::MessageHandle" = type { i64 }
%"class.mojo::internal::Buffer" = type { %"class.mojo::MessageHandle", i64, i8*, i64, i64 }
%"class.std::__1::vector" = type { %"class.std::__1::__vector_base" }
%"class.std::__1::__vector_base" = type { %"class.mojo::ScopedHandleBase.10"*, %"class.mojo::ScopedHandleBase.10"*, %"class.std::__1::__compressed_pair.11" }
%"class.mojo::ScopedHandleBase.10" = type { %"class.mojo::Handle" }
%"class.mojo::Handle" = type { i32 }
%"class.std::__1::__compressed_pair.11" = type { %"struct.std::__1::__compressed_pair_elem.12" }
%"struct.std::__1::__compressed_pair_elem.12" = type { %"class.mojo::ScopedHandleBase.10"* }
%"class.std::__1::vector.16" = type { %"class.std::__1::__vector_base.17" }
%"class.std::__1::__vector_base.17" = type { %"class.mojo::ScopedInterfaceEndpointHandle"*, %"class.mojo::ScopedInterfaceEndpointHandle"*, %"class.std::__1::__compressed_pair.18" }
%"class.mojo::ScopedInterfaceEndpointHandle" = type { %class.scoped_refptr }
%class.scoped_refptr = type { %"class.mojo::ScopedInterfaceEndpointHandle::State"* }
%"class.mojo::ScopedInterfaceEndpointHandle::State" = type opaque
%"class.std::__1::__compressed_pair.18" = type { %"struct.std::__1::__compressed_pair_elem.19" }
%"struct.std::__1::__compressed_pair_elem.19" = type { %"class.mojo::ScopedInterfaceEndpointHandle"* }
%"class.mojo::ConnectionGroup::Ref" = type { i32, %class.scoped_refptr.23 }
%class.scoped_refptr.23 = type { %"class.mojo::ConnectionGroup"* }
%"class.mojo::ConnectionGroup" = type <{ i32 (...)**, %"class.base::RefCountedThreadSafe", [4 x i8], %"class.base::RepeatingCallback", %class.scoped_refptr.27, %"class.mojo::ConnectionGroup::Ref", %"struct.std::__1::atomic.29", [4 x i8] }>
%"class.base::RefCountedThreadSafe" = type { %"class.base::subtle::RefCountedThreadSafeBase" }
%"class.base::subtle::RefCountedThreadSafeBase" = type { %"class.base::AtomicRefCount" }
%"class.base::AtomicRefCount" = type { %"struct.std::__1::atomic" }
%"struct.std::__1::atomic" = type { %"struct.std::__1::__atomic_base" }
%"struct.std::__1::__atomic_base" = type { %"struct.std::__1::__atomic_base.24" }
%"struct.std::__1::__atomic_base.24" = type { %"struct.std::__1::__cxx_atomic_impl" }
%"struct.std::__1::__cxx_atomic_impl" = type { %"struct.std::__1::__cxx_atomic_base_impl" }
%"struct.std::__1::__cxx_atomic_base_impl" = type { i32 }
%"class.base::RepeatingCallback" = type { %"class.base::internal::CallbackBaseCopyable" }
%"class.base::internal::CallbackBaseCopyable" = type { %"class.base::internal::CallbackBase" }
%"class.base::internal::CallbackBase" = type { %class.scoped_refptr.25 }
%class.scoped_refptr.25 = type { %"class.base::internal::BindStateBase"* }
%"class.base::internal::BindStateBase" = type { %"class.base::RefCountedThreadSafe.26", void ()*, void (%"class.base::internal::BindStateBase"*)*, i1 (%"class.base::internal::BindStateBase"*, i32)* }
%"class.base::RefCountedThreadSafe.26" = type { %"class.base::subtle::RefCountedThreadSafeBase" }
%class.scoped_refptr.27 = type { %"class.base::SequencedTaskRunner"* }
%"class.base::SequencedTaskRunner" = type { %"class.base::TaskRunner.base", [4 x i8] }
%"class.base::TaskRunner.base" = type <{ i32 (...)**, %"class.base::RefCountedThreadSafe.28" }>
%"class.base::RefCountedThreadSafe.28" = type { %"class.base::subtle::RefCountedThreadSafeBase" }
%"struct.std::__1::atomic.29" = type { %"struct.std::__1::__atomic_base.30" }
%"struct.std::__1::__atomic_base.30" = type { %"struct.std::__1::__atomic_base.31" }
%"struct.std::__1::__atomic_base.31" = type { %"struct.std::__1::__cxx_atomic_impl.32" }
%"struct.std::__1::__cxx_atomic_impl.32" = type { %"struct.std::__1::__cxx_atomic_base_impl.33" }
%"struct.std::__1::__cxx_atomic_base_impl.33" = type { i32 }
%"class.task_module::mojom::TaskItem" = type { %"class.std::__1::basic_string", %class.GURL, %"class.absl::optional", %"class.std::__1::basic_string", %"class.absl::optional", %class.GURL }
%"class.std::__1::basic_string" = type { %"class.std::__1::__compressed_pair" }
%"class.std::__1::__compressed_pair" = type { %"struct.std::__1::__compressed_pair_elem" }
%"struct.std::__1::__compressed_pair_elem" = type { %"struct.std::__1::basic_string<char, std::__1::char_traits<char>, std::__1::allocator<char> >::__rep" }
%"struct.std::__1::basic_string<char, std::__1::char_traits<char>, std::__1::allocator<char> >::__rep" = type { %union.anon }
%union.anon = type { %"struct.std::__1::basic_string<char, std::__1::char_traits<char>, std::__1::allocator<char> >::__long" }
%"struct.std::__1::basic_string<char, std::__1::char_traits<char>, std::__1::allocator<char> >::__long" = type { i8*, i64, i64 }
%"class.absl::optional" = type { %"class.absl::optional_internal::optional_data" }
%"class.absl::optional_internal::optional_data" = type { %"class.absl::optional_internal::optional_data_base" }
%"class.absl::optional_internal::optional_data_base" = type { %"class.absl::optional_internal::optional_data_dtor_base" }
%"class.absl::optional_internal::optional_data_dtor_base" = type { i8, %union.anon.4 }
%union.anon.4 = type { %"class.std::__1::basic_string" }
%class.GURL = type { %"class.std::__1::basic_string", i8, %"struct.url::Parsed", %"class.std::__1::unique_ptr" }
%"struct.url::Parsed" = type { %"struct.url::Component", %"struct.url::Component", %"struct.url::Component", %"struct.url::Component", %"struct.url::Component", %"struct.url::Component", %"struct.url::Component", %"struct.url::Component", i8, %"struct.url::Parsed"* }
%"struct.url::Component" = type { i32, i32 }
%"class.std::__1::unique_ptr" = type { %"class.std::__1::__compressed_pair.1" }
%"class.std::__1::__compressed_pair.1" = type { %"struct.std::__1::__compressed_pair_elem.2" }
%"struct.std::__1::__compressed_pair_elem.2" = type { %class.GURL* }
%"class.task_module::mojom::RelatedSearch" = type { %"class.std::__1::basic_string", %class.GURL }
%"class.task_module::mojom::Task" = type { %"class.std::__1::basic_string", %"class.std::__1::basic_string", %"class.std::__1::vector.34", %"class.std::__1::vector.47" }
%"class.std::__1::vector.34" = type { %"class.std::__1::__vector_base.35" }
%"class.std::__1::__vector_base.35" = type { %"class.mojo::StructPtr"*, %"class.mojo::StructPtr"*, %"class.std::__1::__compressed_pair.42" }
%"class.mojo::StructPtr" = type { %"class.std::__1::unique_ptr.36" }
%"class.std::__1::unique_ptr.36" = type { %"class.std::__1::__compressed_pair.37" }
%"class.std::__1::__compressed_pair.37" = type { %"struct.std::__1::__compressed_pair_elem.38" }
%"struct.std::__1::__compressed_pair_elem.38" = type { %"class.task_module::mojom::TaskItem"* }
%"class.std::__1::__compressed_pair.42" = type { %"struct.std::__1::__compressed_pair_elem.43" }
%"struct.std::__1::__compressed_pair_elem.43" = type { %"class.mojo::StructPtr"* }
%"class.std::__1::vector.47" = type { %"class.std::__1::__vector_base.48" }
%"class.std::__1::__vector_base.48" = type { %"class.mojo::StructPtr.49"*, %"class.mojo::StructPtr.49"*, %"class.std::__1::__compressed_pair.56" }
%"class.mojo::StructPtr.49" = type { %"class.std::__1::unique_ptr.50" }
%"class.std::__1::unique_ptr.50" = type { %"class.std::__1::__compressed_pair.51" }
%"class.std::__1::__compressed_pair.51" = type { %"struct.std::__1::__compressed_pair_elem.52" }
%"struct.std::__1::__compressed_pair_elem.52" = type { %"class.task_module::mojom::RelatedSearch"* }
%"class.std::__1::__compressed_pair.56" = type { %"struct.std::__1::__compressed_pair_elem.57" }
%"struct.std::__1::__compressed_pair_elem.57" = type { %"class.mojo::StructPtr.49"* }
%"class.task_module::mojom::TaskModuleHandlerProxy" = type { %"class.task_module::mojom::TaskModuleHandler", %"class.mojo::MessageReceiverWithResponder"* }
%"class.task_module::mojom::TaskModuleHandler" = type { i32 (...)** }
%"class.mojo::MessageReceiverWithResponder" = type { %"class.mojo::MessageReceiver" }
%"class.mojo::MessageReceiver" = type { i32 (...)** }
%"struct.std::__1::basic_string<char, std::__1::char_traits<char>, std::__1::allocator<char> >::__short" = type { [23 x i8], %struct.anon }
%struct.anon = type { i8 }
%"class.perfetto::TracedValue" = type <{ %"class.perfetto::protos::pbzero::DebugAnnotation"*, %"class.perfetto::internal::CheckedScope", [7 x i8] }>
%"class.perfetto::protos::pbzero::DebugAnnotation" = type { %"class.protozero::Message.base", [7 x i8] }
%"class.protozero::Message.base" = type <{ %"class.protozero::ScatteredStreamWriter"*, %"class.protozero::MessageArena"*, %"class.protozero::Message"*, i8*, i32, i32, i8 }>
%"class.protozero::ScatteredStreamWriter" = type { %"class.protozero::ScatteredStreamWriter::Delegate"*, %"struct.protozero::ContiguousMemoryRange", i8*, i64 }
%"class.protozero::ScatteredStreamWriter::Delegate" = type { i32 (...)** }
%"struct.protozero::ContiguousMemoryRange" = type { i8*, i8* }
%"class.protozero::MessageArena" = type { %"class.std::__1::list" }
%"class.std::__1::list" = type { %"class.std::__1::__list_imp" }
%"class.std::__1::__list_imp" = type { %"struct.std::__1::__list_node_base", %"class.std::__1::__compressed_pair.5" }
%"struct.std::__1::__list_node_base" = type { %"struct.std::__1::__list_node_base"*, %"struct.std::__1::__list_node_base"* }
%"class.std::__1::__compressed_pair.5" = type { %"struct.std::__1::__compressed_pair_elem.6" }
%"struct.std::__1::__compressed_pair_elem.6" = type { i64 }
%"class.protozero::Message" = type <{ %"class.protozero::ScatteredStreamWriter"*, %"class.protozero::MessageArena"*, %"class.protozero::Message"*, i8*, i32, i32, i8, [7 x i8] }>
%"class.perfetto::internal::CheckedScope" = type { i8 }
%"class.perfetto::TracedDictionary" = type <{ %"class.protozero::Message"*, i32, %"class.perfetto::internal::CheckedScope", [3 x i8] }>
%"class.perfetto::TracedArray" = type <{ %"class.perfetto::protos::pbzero::DebugAnnotation"*, %"class.perfetto::internal::CheckedScope", [7 x i8] }>
%"class.base::OnceCallback" = type { %"class.base::internal::CallbackBase" }
%"class.task_module::mojom::internal::TaskModuleHandler_GetPrimaryTask_Params_Data" = type { %"struct.mojo::internal::StructHeader", i32, [4 x i8] }
%"struct.mojo::internal::StructHeader" = type { i32, i32 }
%"class.mojo::internal::MessageFragment.68" = type { %"class.mojo::Message"*, i64 }
%"class.task_module::mojom::internal::TaskModuleHandler_DismissTask_Params_Data" = type { %"struct.mojo::internal::StructHeader", i32, [4 x i8], %"struct.mojo::internal::Pointer" }
%"struct.mojo::internal::Pointer" = type { i64 }
%"class.mojo::internal::Array_Data" = type { %"struct.mojo::internal::ArrayHeader" }
%"struct.mojo::internal::ArrayHeader" = type { i32, i32 }
%"class.task_module::mojom::internal::TaskModuleHandler_RestoreTask_Params_Data" = type { %"struct.mojo::internal::StructHeader", i32, [4 x i8], %"struct.mojo::internal::Pointer" }
%"class.task_module::mojom::internal::TaskModuleHandler_OnTaskItemClicked_Params_Data" = type { %"struct.mojo::internal::StructHeader", i32, i32 }
%"class.task_module::mojom::internal::TaskModuleHandler_OnRelatedSearchClicked_Params_Data" = type { %"struct.mojo::internal::StructHeader", i32, i32 }
%"class.task_module::mojom::TaskModuleHandler_GetPrimaryTask_ForwardToCallback" = type { %"class.mojo::MessageReceiver", %"class.base::OnceCallback" }
%"class.mojo::StructPtr.73" = type { %"class.std::__1::unique_ptr.74" }
%"class.std::__1::unique_ptr.74" = type { %"class.std::__1::__compressed_pair.75" }
%"class.std::__1::__compressed_pair.75" = type { %"struct.std::__1::__compressed_pair_elem.76" }
%"struct.std::__1::__compressed_pair_elem.76" = type { %"class.task_module::mojom::Task"* }
%"class.task_module::mojom::internal::Task_Data" = type { %"struct.mojo::internal::StructHeader", %"struct.mojo::internal::Pointer", %"struct.mojo::internal::Pointer", %"struct.mojo::internal::Pointer.88", %"struct.mojo::internal::Pointer.89" }
%"struct.mojo::internal::Pointer.88" = type { i64 }
%"struct.mojo::internal::Pointer.89" = type { i64 }
%"class.task_module::mojom::TaskModuleHandler_GetPrimaryTask_ProxyToResponder" = type { i64, i8, %"class.std::__1::unique_ptr.80" }
%"class.std::__1::unique_ptr.80" = type { %"class.std::__1::__compressed_pair.81" }
%"class.std::__1::__compressed_pair.81" = type { %"struct.std::__1::__compressed_pair_elem.82" }
%"struct.std::__1::__compressed_pair_elem.82" = type { %"class.mojo::MessageReceiverWithStatus"* }
%"class.mojo::MessageReceiverWithStatus" = type { %"class.mojo::MessageReceiver" }
%"class.mojo::internal::MessageFragment.87" = type { %"class.mojo::Message"*, i64 }
%"class.task_module::mojom::internal::TaskModuleHandler_GetPrimaryTask_ResponseParams_Data" = type { %"struct.mojo::internal::StructHeader", %"struct.mojo::internal::Pointer.72" }
%"struct.mojo::internal::Pointer.72" = type { i64 }
%"struct.mojo::internal::MessageHeaderV1" = type { %"struct.mojo::internal::MessageHeader", i64 }
%"struct.mojo::internal::MessageHeader" = type { %"struct.mojo::internal::StructHeader", i32, i32, i32, i32 }
%"class.base::TaskAnnotator::ScopedSetIpcHash" = type { %"class.base::TaskAnnotator::ScopedSetIpcHash"*, i32, i8* }
%"class.task_module::mojom::TaskModuleHandlerRequestValidator" = type { %"class.mojo::MessageReceiver" }
%"class.task_module::mojom::TaskModuleHandlerResponseValidator" = type { %"class.mojo::MessageReceiver" }
%"class.task_module::mojom::internal::TaskItem_Data" = type { %"struct.mojo::internal::StructHeader", %"struct.mojo::internal::Pointer", %"struct.mojo::internal::Pointer.90", %"struct.mojo::internal::Pointer", %"struct.mojo::internal::Pointer", %"struct.mojo::internal::Pointer", %"struct.mojo::internal::Pointer.90" }
%"struct.mojo::internal::Pointer.90" = type { i64 }
%"class.task_module::mojom::TaskItemDataView" = type { %"class.task_module::mojom::internal::TaskItem_Data"*, %"class.mojo::Message"* }
%"class.url::mojom::internal::Url_Data" = type { %"struct.mojo::internal::StructHeader", %"struct.mojo::internal::Pointer" }
%"class.task_module::mojom::internal::RelatedSearch_Data" = type { %"struct.mojo::internal::StructHeader", %"struct.mojo::internal::Pointer", %"struct.mojo::internal::Pointer.90" }
%"class.mojo::internal::Array_Data.106" = type { %"struct.mojo::internal::ArrayHeader" }
%"class.mojo::internal::Array_Data.108" = type { %"struct.mojo::internal::ArrayHeader" }
%"class.mojo::internal::MessageFragment.109" = type { %"class.mojo::Message"*, i64 }
%"class.mojo::internal::MessageFragment.113" = type { %"class.mojo::Message"*, i64 }
%"class.mojo::internal::ContainerValidateParams" = type { i32, i8, %"class.mojo::internal::ContainerValidateParams"*, %"class.mojo::internal::ContainerValidateParams"*, i1 (i32, %"class.mojo::internal::ValidationContext"*)* }
%"class.std::__1::__vector_base_common" = type { i8 }

$_ZN11task_module5mojom50TaskModuleHandler_GetPrimaryTask_ForwardToCallbackD2Ev = comdat any

$_ZN11task_module5mojom50TaskModuleHandler_GetPrimaryTask_ForwardToCallbackD0Ev = comdat any

$_ZN11task_module5mojom17TaskModuleHandlerD2Ev = comdat any

$_ZN11task_module5mojom22TaskModuleHandlerProxyD0Ev = comdat any

$_ZN4mojo15MessageReceiverD2Ev = comdat any

$_ZN11task_module5mojom33TaskModuleHandlerRequestValidatorD0Ev = comdat any

$_ZN11task_module5mojom34TaskModuleHandlerResponseValidatorD0Ev = comdat any

$_ZN4base8internal7InvokerINS0_9BindStateIMN11task_module5mojom49TaskModuleHandler_GetPrimaryTask_ProxyToResponderEFvN4mojo9StructPtrINS4_4TaskEEEEJNSt3__110unique_ptrIS5_NSC_14default_deleteIS5_EEEEEEEFvS9_EE7RunOnceEPNS0_13BindStateBaseEOS9_ = comdat any

$_ZN4base8internal9BindStateIMN11task_module5mojom49TaskModuleHandler_GetPrimaryTask_ProxyToResponderEFvN4mojo9StructPtrINS3_4TaskEEEEJNSt3__110unique_ptrIS4_NSB_14default_deleteIS4_EEEEEE7DestroyEPKNS0_13BindStateBaseE = comdat any

$_ZN8perfetto8internal9WriteImplIPN11task_module5mojom13RelatedSearchEEEDTcmclsr17TraceFormatTraitsINS_4base12remove_cvrefIT_E4typeEEE14WriteIntoTraceclL_ZNSt3__17declvalINS_11TracedValueEEEDTclsr3std3__1E9__declvalIS8_ELi0EEEvEEclsr3stdE7declvalIS8_EEEcvv_EENS6_12priority_tagILm3EEESD_OS8_ = comdat any

$_ZN4mojo8internal10SerializerINS_14StringDataViewEKNSt3__112basic_stringIcNS3_11char_traitsIcEENS3_9allocatorIcEEEEE9SerializeERSA_RNS0_15MessageFragmentINS0_10Array_DataIcEEEE = comdat any

$_ZN4mojo8internal10SerializerIN11task_module5mojom12TaskDataViewENS_9StructPtrINS3_4TaskEEEE9SerializeERS7_RNS0_15MessageFragmentINS3_8internal9Task_DataEEE = comdat any

$_ZN4mojo8internal23ContainerValidateParamsD2Ev = comdat any

$_ZN4mojo8internal10SerializerIN11task_module5mojom16TaskItemDataViewEKNS_9StructPtrINS3_8TaskItemEEEE9SerializeERS8_RNS0_15MessageFragmentINS3_8internal13TaskItem_DataEEE = comdat any

$_ZN4mojo8internal10SerializerIN11task_module5mojom21RelatedSearchDataViewEKNS_9StructPtrINS3_13RelatedSearchEEEE9SerializeERS8_RNS0_15MessageFragmentINS3_8internal18RelatedSearch_DataEEE = comdat any

$_ZN4mojo8internal11DeserializeINS_14StringDataViewERPNS0_10Array_DataIcEEN4absl8optionalINSt3__112basic_stringIcNS9_11char_traitsIcEENS9_9allocatorIcEEEEEEJRPNS_7MessageEELPv0EEEbOT0_PT1_DpOT2_ = comdat any

$_ZN4mojo11ArrayTraitsINSt3__16vectorINS_9StructPtrIN11task_module5mojom8TaskItemEEENS1_9allocatorIS7_EEEEE6ResizeERSA_m = comdat any

$_ZN4mojo8internal15ArraySerializerINS_13ArrayDataViewIN11task_module5mojom21RelatedSearchDataViewEEENSt3__16vectorINS_9StructPtrINS4_13RelatedSearchEEENS7_9allocatorISB_EEEENS0_13ArrayIteratorINS_11ArrayTraitsISE_EESE_Lb0EEEvE19DeserializeElementsEPNS0_10Array_DataINS0_7PointerINS4_8internal18RelatedSearch_DataEEEEEPSE_PNS_7MessageE = comdat any

$_ZN4mojo11ArrayTraitsINSt3__16vectorINS_9StructPtrIN11task_module5mojom13RelatedSearchEEENS1_9allocatorIS7_EEEEE6ResizeERSA_m = comdat any

@.str = private unnamed_addr constant [5 x i8] c"name\00", align 1
@.str.2 = private unnamed_addr constant [10 x i8] c"image_url\00", align 1
@.str.3 = private unnamed_addr constant [6 x i8] c"price\00", align 1
@.str.4 = private unnamed_addr constant [5 x i8] c"info\00", align 1
@.str.5 = private unnamed_addr constant [10 x i8] c"site_name\00", align 1
@.str.6 = private unnamed_addr constant [11 x i8] c"target_url\00", align 1
@.str.7 = private unnamed_addr constant [5 x i8] c"text\00", align 1
@.str.8 = private unnamed_addr constant [6 x i8] c"title\00", align 1
@.str.9 = private unnamed_addr constant [11 x i8] c"task_items\00", align 1
@.str.10 = private unnamed_addr constant [17 x i8] c"related_searches\00", align 1
@_ZN11task_module5mojom17TaskModuleHandler5Name_E = hidden constant [36 x i8] c"task_module.mojom.TaskModuleHandler\00", align 16
@_ZTVN11task_module5mojom22TaskModuleHandlerProxyE = hidden unnamed_addr constant { [9 x i8*] } { [9 x i8*] [i8* null, i8* null, i8* bitcast (void (%"class.task_module::mojom::TaskModuleHandler"*)* @_ZN11task_module5mojom17TaskModuleHandlerD2Ev to i8*), i8* bitcast (void (%"class.task_module::mojom::TaskModuleHandlerProxy"*)* @_ZN11task_module5mojom22TaskModuleHandlerProxyD0Ev to i8*), i8* bitcast (void (%"class.task_module::mojom::TaskModuleHandlerProxy"*, i32, %"class.base::OnceCallback"*)* @_ZN11task_module5mojom22TaskModuleHandlerProxy14GetPrimaryTaskENS0_14TaskModuleTypeEN4base12OnceCallbackIFvN4mojo9StructPtrINS0_4TaskEEEEEE to i8*), i8* bitcast (void (%"class.task_module::mojom::TaskModuleHandlerProxy"*, i32, %"class.std::__1::basic_string"*)* @_ZN11task_module5mojom22TaskModuleHandlerProxy11DismissTaskENS0_14TaskModuleTypeERKNSt3__112basic_stringIcNS3_11char_traitsIcEENS3_9allocatorIcEEEE to i8*), i8* bitcast (void (%"class.task_module::mojom::TaskModuleHandlerProxy"*, i32, %"class.std::__1::basic_string"*)* @_ZN11task_module5mojom22TaskModuleHandlerProxy11RestoreTaskENS0_14TaskModuleTypeERKNSt3__112basic_stringIcNS3_11char_traitsIcEENS3_9allocatorIcEEEE to i8*), i8* bitcast (void (%"class.task_module::mojom::TaskModuleHandlerProxy"*, i32, i32)* @_ZN11task_module5mojom22TaskModuleHandlerProxy17OnTaskItemClickedENS0_14TaskModuleTypeEj to i8*), i8* bitcast (void (%"class.task_module::mojom::TaskModuleHandlerProxy"*, i32, i32)* @_ZN11task_module5mojom22TaskModuleHandlerProxy22OnRelatedSearchClickedENS0_14TaskModuleTypeEj to i8*)] }, align 8
@_ZN11task_module5mojomL32kTaskModuleHandlerValidationInfoE = internal constant [5 x %"struct.std::__1::pair"] [%"struct.std::__1::pair" { i32 38747746, %"struct.mojo::internal::GenericValidationInfo" { i1 (i8*, %"class.mojo::internal::ValidationContext"*)* @_ZN11task_module5mojom8internal44TaskModuleHandler_GetPrimaryTask_Params_Data8ValidateEPKvPN4mojo8internal17ValidationContextE, i1 (i8*, %"class.mojo::internal::ValidationContext"*)* @_ZN11task_module5mojom8internal52TaskModuleHandler_GetPrimaryTask_ResponseParams_Data8ValidateEPKvPN4mojo8internal17ValidationContextE } }, %"struct.std::__1::pair" { i32 2137003620, %"struct.mojo::internal::GenericValidationInfo" { i1 (i8*, %"class.mojo::internal::ValidationContext"*)* @_ZN11task_module5mojom8internal41TaskModuleHandler_DismissTask_Params_Data8ValidateEPKvPN4mojo8internal17ValidationContextE, i1 (i8*, %"class.mojo::internal::ValidationContext"*)* null } }, %"struct.std::__1::pair" { i32 552284697, %"struct.mojo::internal::GenericValidationInfo" { i1 (i8*, %"class.mojo::internal::ValidationContext"*)* @_ZN11task_module5mojom8internal41TaskModuleHandler_RestoreTask_Params_Data8ValidateEPKvPN4mojo8internal17ValidationContextE, i1 (i8*, %"class.mojo::internal::ValidationContext"*)* null } }, %"struct.std::__1::pair" { i32 648967778, %"struct.mojo::internal::GenericValidationInfo" { i1 (i8*, %"class.mojo::internal::ValidationContext"*)* @_ZN11task_module5mojom8internal47TaskModuleHandler_OnTaskItemClicked_Params_Data8ValidateEPKvPN4mojo8internal17ValidationContextE, i1 (i8*, %"class.mojo::internal::ValidationContext"*)* null } }, %"struct.std::__1::pair" { i32 1104244522, %"struct.mojo::internal::GenericValidationInfo" { i1 (i8*, %"class.mojo::internal::ValidationContext"*)* @_ZN11task_module5mojom8internal52TaskModuleHandler_OnRelatedSearchClicked_Params_Data8ValidateEPKvPN4mojo8internal17ValidationContextE, i1 (i8*, %"class.mojo::internal::ValidationContext"*)* null } }], align 16
@_ZTVN11task_module5mojom50TaskModuleHandler_GetPrimaryTask_ForwardToCallbackE = hidden unnamed_addr constant { [6 x i8*] } { [6 x i8*] [i8* null, i8* null, i8* bitcast (void (%"class.task_module::mojom::TaskModuleHandler_GetPrimaryTask_ForwardToCallback"*)* @_ZN11task_module5mojom50TaskModuleHandler_GetPrimaryTask_ForwardToCallbackD2Ev to i8*), i8* bitcast (void (%"class.task_module::mojom::TaskModuleHandler_GetPrimaryTask_ForwardToCallback"*)* @_ZN11task_module5mojom50TaskModuleHandler_GetPrimaryTask_ForwardToCallbackD0Ev to i8*), i8* bitcast (i1 (%"class.mojo::MessageReceiver"*)* @_ZN4mojo15MessageReceiver25PrefersSerializedMessagesEv to i8*), i8* bitcast (i1 (%"class.task_module::mojom::TaskModuleHandler_GetPrimaryTask_ForwardToCallback"*, %"class.mojo::Message"*)* @_ZN11task_module5mojom50TaskModuleHandler_GetPrimaryTask_ForwardToCallback6AcceptEPN4mojo7MessageE to i8*)] }, align 8
@_ZTVN11task_module5mojom33TaskModuleHandlerRequestValidatorE = hidden unnamed_addr constant { [6 x i8*] } { [6 x i8*] [i8* null, i8* null, i8* bitcast (void (%"class.mojo::MessageReceiver"*)* @_ZN4mojo15MessageReceiverD2Ev to i8*), i8* bitcast (void (%"class.task_module::mojom::TaskModuleHandlerRequestValidator"*)* @_ZN11task_module5mojom33TaskModuleHandlerRequestValidatorD0Ev to i8*), i8* bitcast (i1 (%"class.mojo::MessageReceiver"*)* @_ZN4mojo15MessageReceiver25PrefersSerializedMessagesEv to i8*), i8* bitcast (i1 (%"class.task_module::mojom::TaskModuleHandlerRequestValidator"*, %"class.mojo::Message"*)* @_ZN11task_module5mojom33TaskModuleHandlerRequestValidator6AcceptEPN4mojo7MessageE to i8*)] }, align 8
@_ZTVN11task_module5mojom34TaskModuleHandlerResponseValidatorE = hidden unnamed_addr constant { [6 x i8*] } { [6 x i8*] [i8* null, i8* null, i8* bitcast (void (%"class.mojo::MessageReceiver"*)* @_ZN4mojo15MessageReceiverD2Ev to i8*), i8* bitcast (void (%"class.task_module::mojom::TaskModuleHandlerResponseValidator"*)* @_ZN11task_module5mojom34TaskModuleHandlerResponseValidatorD0Ev to i8*), i8* bitcast (i1 (%"class.mojo::MessageReceiver"*)* @_ZN4mojo15MessageReceiver25PrefersSerializedMessagesEv to i8*), i8* bitcast (i1 (%"class.task_module::mojom::TaskModuleHandlerResponseValidator"*, %"class.mojo::Message"*)* @_ZN11task_module5mojom34TaskModuleHandlerResponseValidator6AcceptEPN4mojo7MessageE to i8*)] }, align 8

@_ZN11task_module5mojom8TaskItemC1Ev = hidden unnamed_addr alias void (%"class.task_module::mojom::TaskItem"*), void (%"class.task_module::mojom::TaskItem"*)* @_ZN11task_module5mojom8TaskItemC2Ev
@_ZN11task_module5mojom8TaskItemC1ERKNSt3__112basic_stringIcNS2_11char_traitsIcEENS2_9allocatorIcEEEERK4GURLRKN4absl8optionalIS8_EESA_SI_SD_ = hidden unnamed_addr alias void (%"class.task_module::mojom::TaskItem"*, %"class.std::__1::basic_string"*, %class.GURL*, %"class.absl::optional"*, %"class.std::__1::basic_string"*, %"class.absl::optional"*, %class.GURL*), void (%"class.task_module::mojom::TaskItem"*, %"class.std::__1::basic_string"*, %class.GURL*, %"class.absl::optional"*, %"class.std::__1::basic_string"*, %"class.absl::optional"*, %class.GURL*)* @_ZN11task_module5mojom8TaskItemC2ERKNSt3__112basic_stringIcNS2_11char_traitsIcEENS2_9allocatorIcEEEERK4GURLRKN4absl8optionalIS8_EESA_SI_SD_
@_ZN11task_module5mojom8TaskItemD1Ev = hidden unnamed_addr alias void (%"class.task_module::mojom::TaskItem"*), void (%"class.task_module::mojom::TaskItem"*)* @_ZN11task_module5mojom8TaskItemD2Ev
@_ZN11task_module5mojom13RelatedSearchC1Ev = hidden unnamed_addr alias void (%"class.task_module::mojom::RelatedSearch"*), void (%"class.task_module::mojom::RelatedSearch"*)* @_ZN11task_module5mojom13RelatedSearchC2Ev
@_ZN11task_module5mojom13RelatedSearchC1ERKNSt3__112basic_stringIcNS2_11char_traitsIcEENS2_9allocatorIcEEEERK4GURL = hidden unnamed_addr alias void (%"class.task_module::mojom::RelatedSearch"*, %"class.std::__1::basic_string"*, %class.GURL*), void (%"class.task_module::mojom::RelatedSearch"*, %"class.std::__1::basic_string"*, %class.GURL*)* @_ZN11task_module5mojom13RelatedSearchC2ERKNSt3__112basic_stringIcNS2_11char_traitsIcEENS2_9allocatorIcEEEERK4GURL
@_ZN11task_module5mojom13RelatedSearchD1Ev = hidden unnamed_addr alias void (%"class.task_module::mojom::RelatedSearch"*), void (%"class.task_module::mojom::RelatedSearch"*)* @_ZN11task_module5mojom13RelatedSearchD2Ev
@_ZN11task_module5mojom4TaskC1Ev = hidden unnamed_addr alias void (%"class.task_module::mojom::Task"*), void (%"class.task_module::mojom::Task"*)* @_ZN11task_module5mojom4TaskC2Ev
@_ZN11task_module5mojom4TaskC1ERKNSt3__112basic_stringIcNS2_11char_traitsIcEENS2_9allocatorIcEEEESA_NS2_6vectorIN4mojo9StructPtrINS0_8TaskItemEEENS6_ISF_EEEENSB_INSD_INS0_13RelatedSearchEEENS6_ISJ_EEEE = hidden unnamed_addr alias void (%"class.task_module::mojom::Task"*, %"class.std::__1::basic_string"*, %"class.std::__1::basic_string"*, %"class.std::__1::vector.34"*, %"class.std::__1::vector.47"*), void (%"class.task_module::mojom::Task"*, %"class.std::__1::basic_string"*, %"class.std::__1::basic_string"*, %"class.std::__1::vector.34"*, %"class.std::__1::vector.47"*)* @_ZN11task_module5mojom4TaskC2ERKNSt3__112basic_stringIcNS2_11char_traitsIcEENS2_9allocatorIcEEEESA_NS2_6vectorIN4mojo9StructPtrINS0_8TaskItemEEENS6_ISF_EEEENSB_INSD_INS0_13RelatedSearchEEENS6_ISJ_EEEE
@_ZN11task_module5mojom4TaskD1Ev = hidden unnamed_addr alias void (%"class.task_module::mojom::Task"*), void (%"class.task_module::mojom::Task"*)* @_ZN11task_module5mojom4TaskD2Ev
@_ZN11task_module5mojom22TaskModuleHandlerProxyC1EPN4mojo28MessageReceiverWithResponderE = hidden unnamed_addr alias void (%"class.task_module::mojom::TaskModuleHandlerProxy"*, %"class.mojo::MessageReceiverWithResponder"*), void (%"class.task_module::mojom::TaskModuleHandlerProxy"*, %"class.mojo::MessageReceiverWithResponder"*)* @_ZN11task_module5mojom22TaskModuleHandlerProxyC2EPN4mojo28MessageReceiverWithResponderE

; Function Attrs: nounwind ssp uwtable
define hidden void @_ZN11task_module5mojom8TaskItemC2Ev(%"class.task_module::mojom::TaskItem"*) unnamed_addr #0 align 2 {
  %2 = bitcast %"class.task_module::mojom::TaskItem"* %0 to i8*
  tail call void @llvm.memset.p0i8.i64(i8* align 8 %2, i8 0, i64 24, i1 false) #10
  %3 = getelementptr inbounds %"class.task_module::mojom::TaskItem", %"class.task_module::mojom::TaskItem"* %0, i64 0, i32 1
  tail call void @_ZN4GURLC1Ev(%class.GURL* %3) #10
  %4 = getelementptr inbounds %"class.task_module::mojom::TaskItem", %"class.task_module::mojom::TaskItem"* %0, i64 0, i32 2, i32 0, i32 0, i32 0, i32 0
  store i8 0, i8* %4, align 8
  %5 = getelementptr inbounds %"class.task_module::mojom::TaskItem", %"class.task_module::mojom::TaskItem"* %0, i64 0, i32 2, i32 0, i32 0, i32 0, i32 1
  %6 = getelementptr inbounds %"class.task_module::mojom::TaskItem", %"class.task_module::mojom::TaskItem"* %0, i64 0, i32 4, i32 0, i32 0, i32 0, i32 1
  %7 = bitcast %union.anon.4* %6 to i8*
  tail call void @llvm.memset.p0i8.i64(i8* align 8 %7, i8 0, i64 24, i1 false) #10
  %8 = getelementptr inbounds %"class.task_module::mojom::TaskItem", %"class.task_module::mojom::TaskItem"* %0, i64 0, i32 5
  %9 = bitcast %union.anon.4* %5 to i8*
  call void @llvm.memset.p0i8.i64(i8* align 8 %9, i8 0, i64 49, i1 false)
  tail call void @_ZN4GURLC1Ev(%class.GURL* %8) #10
  ret void
}

declare void @_ZN4GURLC1Ev(%class.GURL*) unnamed_addr #1

; Function Attrs: nounwind ssp uwtable
define hidden void @_ZN11task_module5mojom8TaskItemC2ERKNSt3__112basic_stringIcNS2_11char_traitsIcEENS2_9allocatorIcEEEERK4GURLRKN4absl8optionalIS8_EESA_SI_SD_(%"class.task_module::mojom::TaskItem"*, %"class.std::__1::basic_string"* nocapture readonly dereferenceable(24), %class.GURL* dereferenceable(120), %"class.absl::optional"* nocapture readonly dereferenceable(32), %"class.std::__1::basic_string"* nocapture readonly dereferenceable(24), %"class.absl::optional"* nocapture readonly dereferenceable(32), %class.GURL* dereferenceable(120)) unnamed_addr #0 align 2 {
  %8 = bitcast %"class.std::__1::basic_string"* %1 to %"struct.std::__1::basic_string<char, std::__1::char_traits<char>, std::__1::allocator<char> >::__short"*
  %9 = getelementptr inbounds %"struct.std::__1::basic_string<char, std::__1::char_traits<char>, std::__1::allocator<char> >::__short", %"struct.std::__1::basic_string<char, std::__1::char_traits<char>, std::__1::allocator<char> >::__short"* %8, i64 0, i32 1, i32 0
  %10 = load i8, i8* %9, align 1
  %11 = icmp slt i8 %10, 0
  br i1 %11, label %15, label %12

12:                                               ; preds = %7
  %13 = bitcast %"class.task_module::mojom::TaskItem"* %0 to i8*
  %14 = bitcast %"class.std::__1::basic_string"* %1 to i8*
  tail call void @llvm.memcpy.p0i8.p0i8.i64(i8* align 8 %13, i8* align 8 %14, i64 24, i1 false) #10
  br label %21

15:                                               ; preds = %7
  %16 = getelementptr inbounds %"class.task_module::mojom::TaskItem", %"class.task_module::mojom::TaskItem"* %0, i64 0, i32 0
  %17 = getelementptr inbounds %"class.std::__1::basic_string", %"class.std::__1::basic_string"* %1, i64 0, i32 0, i32 0, i32 0, i32 0, i32 0, i32 0
  %18 = load i8*, i8** %17, align 8
  %19 = getelementptr inbounds %"class.std::__1::basic_string", %"class.std::__1::basic_string"* %1, i64 0, i32 0, i32 0, i32 0, i32 0, i32 0, i32 1
  %20 = load i64, i64* %19, align 8
  tail call void @_ZNSt3__112basic_stringIcNS_11char_traitsIcEENS_9allocatorIcEEE25__init_copy_ctor_externalEPKcm(%"class.std::__1::basic_string"* %16, i8* %18, i64 %20) #10
  br label %21

21:                                               ; preds = %12, %15
  %22 = getelementptr inbounds %"class.task_module::mojom::TaskItem", %"class.task_module::mojom::TaskItem"* %0, i64 0, i32 1
  tail call void @_ZN4GURLC1ERKS_(%class.GURL* %22, %class.GURL* dereferenceable(120) %2) #10
  %23 = getelementptr inbounds %"class.task_module::mojom::TaskItem", %"class.task_module::mojom::TaskItem"* %0, i64 0, i32 2, i32 0, i32 0, i32 0, i32 0
  %24 = getelementptr inbounds %"class.absl::optional", %"class.absl::optional"* %3, i64 0, i32 0, i32 0, i32 0, i32 0
  tail call void @llvm.memset.p0i8.i64(i8* align 8 %23, i8 0, i64 32, i1 false) #10
  %25 = load i8, i8* %24, align 8, !range !2
  %26 = icmp eq i8 %25, 0
  br i1 %26, label %43, label %27

27:                                               ; preds = %21
  %28 = getelementptr inbounds %"class.absl::optional", %"class.absl::optional"* %3, i64 0, i32 0, i32 0, i32 0, i32 1, i32 0
  %29 = getelementptr inbounds %"class.task_module::mojom::TaskItem", %"class.task_module::mojom::TaskItem"* %0, i64 0, i32 2, i32 0, i32 0, i32 0, i32 1, i32 0
  %30 = bitcast %"class.std::__1::basic_string"* %28 to %"struct.std::__1::basic_string<char, std::__1::char_traits<char>, std::__1::allocator<char> >::__short"*
  %31 = getelementptr inbounds %"struct.std::__1::basic_string<char, std::__1::char_traits<char>, std::__1::allocator<char> >::__short", %"struct.std::__1::basic_string<char, std::__1::char_traits<char>, std::__1::allocator<char> >::__short"* %30, i64 0, i32 1, i32 0
  %32 = load i8, i8* %31, align 1
  %33 = icmp slt i8 %32, 0
  br i1 %33, label %37, label %34

34:                                               ; preds = %27
  %35 = bitcast %"class.std::__1::basic_string"* %29 to i8*
  %36 = bitcast %"class.std::__1::basic_string"* %28 to i8*
  tail call void @llvm.memcpy.p0i8.p0i8.i64(i8* align 8 %35, i8* align 8 %36, i64 24, i1 false) #10
  br label %42

37:                                               ; preds = %27
  %38 = getelementptr inbounds %"class.std::__1::basic_string", %"class.std::__1::basic_string"* %28, i64 0, i32 0, i32 0, i32 0, i32 0, i32 0, i32 0
  %39 = load i8*, i8** %38, align 8
  %40 = getelementptr inbounds %"class.absl::optional", %"class.absl::optional"* %3, i64 0, i32 0, i32 0, i32 0, i32 1, i32 0, i32 0, i32 0, i32 0, i32 0, i32 0, i32 1
  %41 = load i64, i64* %40, align 8
  tail call void @_ZNSt3__112basic_stringIcNS_11char_traitsIcEENS_9allocatorIcEEE25__init_copy_ctor_externalEPKcm(%"class.std::__1::basic_string"* %29, i8* %39, i64 %41) #10
  br label %42

42:                                               ; preds = %37, %34
  store i8 1, i8* %23, align 8
  br label %43

43:                                               ; preds = %21, %42
  %44 = getelementptr inbounds %"class.task_module::mojom::TaskItem", %"class.task_module::mojom::TaskItem"* %0, i64 0, i32 3
  %45 = bitcast %"class.std::__1::basic_string"* %4 to %"struct.std::__1::basic_string<char, std::__1::char_traits<char>, std::__1::allocator<char> >::__short"*
  %46 = getelementptr inbounds %"struct.std::__1::basic_string<char, std::__1::char_traits<char>, std::__1::allocator<char> >::__short", %"struct.std::__1::basic_string<char, std::__1::char_traits<char>, std::__1::allocator<char> >::__short"* %45, i64 0, i32 1, i32 0
  %47 = load i8, i8* %46, align 1
  %48 = icmp slt i8 %47, 0
  br i1 %48, label %52, label %49

49:                                               ; preds = %43
  %50 = bitcast %"class.std::__1::basic_string"* %44 to i8*
  %51 = bitcast %"class.std::__1::basic_string"* %4 to i8*
  tail call void @llvm.memcpy.p0i8.p0i8.i64(i8* align 8 %50, i8* align 8 %51, i64 24, i1 false) #10
  br label %57

52:                                               ; preds = %43
  %53 = getelementptr inbounds %"class.std::__1::basic_string", %"class.std::__1::basic_string"* %4, i64 0, i32 0, i32 0, i32 0, i32 0, i32 0, i32 0
  %54 = load i8*, i8** %53, align 8
  %55 = getelementptr inbounds %"class.std::__1::basic_string", %"class.std::__1::basic_string"* %4, i64 0, i32 0, i32 0, i32 0, i32 0, i32 0, i32 1
  %56 = load i64, i64* %55, align 8
  tail call void @_ZNSt3__112basic_stringIcNS_11char_traitsIcEENS_9allocatorIcEEE25__init_copy_ctor_externalEPKcm(%"class.std::__1::basic_string"* %44, i8* %54, i64 %56) #10
  br label %57

57:                                               ; preds = %49, %52
  %58 = getelementptr inbounds %"class.task_module::mojom::TaskItem", %"class.task_module::mojom::TaskItem"* %0, i64 0, i32 4, i32 0, i32 0, i32 0, i32 0
  %59 = getelementptr inbounds %"class.absl::optional", %"class.absl::optional"* %5, i64 0, i32 0, i32 0, i32 0, i32 0
  tail call void @llvm.memset.p0i8.i64(i8* align 8 %58, i8 0, i64 32, i1 false) #10
  %60 = load i8, i8* %59, align 8, !range !2
  %61 = icmp eq i8 %60, 0
  br i1 %61, label %78, label %62

62:                                               ; preds = %57
  %63 = getelementptr inbounds %"class.absl::optional", %"class.absl::optional"* %5, i64 0, i32 0, i32 0, i32 0, i32 1, i32 0
  %64 = getelementptr inbounds %"class.task_module::mojom::TaskItem", %"class.task_module::mojom::TaskItem"* %0, i64 0, i32 4, i32 0, i32 0, i32 0, i32 1, i32 0
  %65 = bitcast %"class.std::__1::basic_string"* %63 to %"struct.std::__1::basic_string<char, std::__1::char_traits<char>, std::__1::allocator<char> >::__short"*
  %66 = getelementptr inbounds %"struct.std::__1::basic_string<char, std::__1::char_traits<char>, std::__1::allocator<char> >::__short", %"struct.std::__1::basic_string<char, std::__1::char_traits<char>, std::__1::allocator<char> >::__short"* %65, i64 0, i32 1, i32 0
  %67 = load i8, i8* %66, align 1
  %68 = icmp slt i8 %67, 0
  br i1 %68, label %72, label %69

69:                                               ; preds = %62
  %70 = bitcast %"class.std::__1::basic_string"* %64 to i8*
  %71 = bitcast %"class.std::__1::basic_string"* %63 to i8*
  tail call void @llvm.memcpy.p0i8.p0i8.i64(i8* align 8 %70, i8* align 8 %71, i64 24, i1 false) #10
  br label %77

72:                                               ; preds = %62
  %73 = getelementptr inbounds %"class.std::__1::basic_string", %"class.std::__1::basic_string"* %63, i64 0, i32 0, i32 0, i32 0, i32 0, i32 0, i32 0
  %74 = load i8*, i8** %73, align 8
  %75 = getelementptr inbounds %"class.absl::optional", %"class.absl::optional"* %5, i64 0, i32 0, i32 0, i32 0, i32 1, i32 0, i32 0, i32 0, i32 0, i32 0, i32 0, i32 1
  %76 = load i64, i64* %75, align 8
  tail call void @_ZNSt3__112basic_stringIcNS_11char_traitsIcEENS_9allocatorIcEEE25__init_copy_ctor_externalEPKcm(%"class.std::__1::basic_string"* %64, i8* %74, i64 %76) #10
  br label %77

77:                                               ; preds = %72, %69
  store i8 1, i8* %58, align 8
  br label %78

78:                                               ; preds = %57, %77
  %79 = getelementptr inbounds %"class.task_module::mojom::TaskItem", %"class.task_module::mojom::TaskItem"* %0, i64 0, i32 5
  tail call void @_ZN4GURLC1ERKS_(%class.GURL* %79, %class.GURL* dereferenceable(120) %6) #10
  ret void
}

declare void @_ZN4GURLC1ERKS_(%class.GURL*, %class.GURL* dereferenceable(120)) unnamed_addr #1

; Function Attrs: nounwind ssp uwtable
define hidden void @_ZN11task_module5mojom8TaskItemD2Ev(%"class.task_module::mojom::TaskItem"*) unnamed_addr #0 align 2 {
  %2 = getelementptr inbounds %"class.task_module::mojom::TaskItem", %"class.task_module::mojom::TaskItem"* %0, i64 0, i32 5
  tail call void @_ZN4GURLD1Ev(%class.GURL* %2) #10
  %3 = getelementptr inbounds %"class.task_module::mojom::TaskItem", %"class.task_module::mojom::TaskItem"* %0, i64 0, i32 4, i32 0, i32 0, i32 0, i32 0
  %4 = load i8, i8* %3, align 8, !range !2
  %5 = icmp eq i8 %4, 0
  br i1 %5, label %16, label %6

6:                                                ; preds = %1
  %7 = getelementptr inbounds %"class.task_module::mojom::TaskItem", %"class.task_module::mojom::TaskItem"* %0, i64 0, i32 4, i32 0, i32 0, i32 0, i32 1, i32 0
  %8 = bitcast %"class.std::__1::basic_string"* %7 to %"struct.std::__1::basic_string<char, std::__1::char_traits<char>, std::__1::allocator<char> >::__short"*
  %9 = getelementptr inbounds %"struct.std::__1::basic_string<char, std::__1::char_traits<char>, std::__1::allocator<char> >::__short", %"struct.std::__1::basic_string<char, std::__1::char_traits<char>, std::__1::allocator<char> >::__short"* %8, i64 0, i32 1, i32 0
  %10 = load i8, i8* %9, align 1
  %11 = icmp slt i8 %10, 0
  br i1 %11, label %12, label %15

12:                                               ; preds = %6
  %13 = getelementptr inbounds %"class.std::__1::basic_string", %"class.std::__1::basic_string"* %7, i64 0, i32 0, i32 0, i32 0, i32 0, i32 0, i32 0
  %14 = load i8*, i8** %13, align 8
  tail call void @_ZdlPv(i8* %14) #11
  br label %15

15:                                               ; preds = %12, %6
  store i8 0, i8* %3, align 8
  br label %16

16:                                               ; preds = %1, %15
  %17 = getelementptr inbounds %"class.task_module::mojom::TaskItem", %"class.task_module::mojom::TaskItem"* %0, i64 0, i32 3
  %18 = bitcast %"class.std::__1::basic_string"* %17 to %"struct.std::__1::basic_string<char, std::__1::char_traits<char>, std::__1::allocator<char> >::__short"*
  %19 = getelementptr inbounds %"struct.std::__1::basic_string<char, std::__1::char_traits<char>, std::__1::allocator<char> >::__short", %"struct.std::__1::basic_string<char, std::__1::char_traits<char>, std::__1::allocator<char> >::__short"* %18, i64 0, i32 1, i32 0
  %20 = load i8, i8* %19, align 1
  %21 = icmp slt i8 %20, 0
  br i1 %21, label %22, label %25

22:                                               ; preds = %16
  %23 = getelementptr inbounds %"class.std::__1::basic_string", %"class.std::__1::basic_string"* %17, i64 0, i32 0, i32 0, i32 0, i32 0, i32 0, i32 0
  %24 = load i8*, i8** %23, align 8
  tail call void @_ZdlPv(i8* %24) #11
  br label %25

25:                                               ; preds = %16, %22
  %26 = getelementptr inbounds %"class.task_module::mojom::TaskItem", %"class.task_module::mojom::TaskItem"* %0, i64 0, i32 2, i32 0, i32 0, i32 0, i32 0
  %27 = load i8, i8* %26, align 8, !range !2
  %28 = icmp eq i8 %27, 0
  br i1 %28, label %39, label %29

29:                                               ; preds = %25
  %30 = getelementptr inbounds %"class.task_module::mojom::TaskItem", %"class.task_module::mojom::TaskItem"* %0, i64 0, i32 2, i32 0, i32 0, i32 0, i32 1, i32 0
  %31 = bitcast %"class.std::__1::basic_string"* %30 to %"struct.std::__1::basic_string<char, std::__1::char_traits<char>, std::__1::allocator<char> >::__short"*
  %32 = getelementptr inbounds %"struct.std::__1::basic_string<char, std::__1::char_traits<char>, std::__1::allocator<char> >::__short", %"struct.std::__1::basic_string<char, std::__1::char_traits<char>, std::__1::allocator<char> >::__short"* %31, i64 0, i32 1, i32 0
  %33 = load i8, i8* %32, align 1
  %34 = icmp slt i8 %33, 0
  br i1 %34, label %35, label %38

35:                                               ; preds = %29
  %36 = getelementptr inbounds %"class.std::__1::basic_string", %"class.std::__1::basic_string"* %30, i64 0, i32 0, i32 0, i32 0, i32 0, i32 0, i32 0
  %37 = load i8*, i8** %36, align 8
  tail call void @_ZdlPv(i8* %37) #11
  br label %38

38:                                               ; preds = %35, %29
  store i8 0, i8* %26, align 8
  br label %39

39:                                               ; preds = %25, %38
  %40 = getelementptr inbounds %"class.task_module::mojom::TaskItem", %"class.task_module::mojom::TaskItem"* %0, i64 0, i32 1
  tail call void @_ZN4GURLD1Ev(%class.GURL* %40) #10
  %41 = bitcast %"class.task_module::mojom::TaskItem"* %0 to %"struct.std::__1::basic_string<char, std::__1::char_traits<char>, std::__1::allocator<char> >::__short"*
  %42 = getelementptr inbounds %"struct.std::__1::basic_string<char, std::__1::char_traits<char>, std::__1::allocator<char> >::__short", %"struct.std::__1::basic_string<char, std::__1::char_traits<char>, std::__1::allocator<char> >::__short"* %41, i64 0, i32 1, i32 0
  %43 = load i8, i8* %42, align 1
  %44 = icmp slt i8 %43, 0
  br i1 %44, label %45, label %48

45:                                               ; preds = %39
  %46 = getelementptr inbounds %"class.task_module::mojom::TaskItem", %"class.task_module::mojom::TaskItem"* %0, i64 0, i32 0, i32 0, i32 0, i32 0, i32 0, i32 0, i32 0
  %47 = load i8*, i8** %46, align 8
  tail call void @_ZdlPv(i8* %47) #11
  br label %48

48:                                               ; preds = %39, %45
  ret void
}

; Function Attrs: nounwind
declare void @_ZN4GURLD1Ev(%class.GURL*) unnamed_addr #2

; Function Attrs: nounwind ssp uwtable
define hidden void @_ZNK11task_module5mojom8TaskItem14WriteIntoTraceEN8perfetto11TracedValueE(%"class.task_module::mojom::TaskItem"*, %"class.perfetto::TracedValue"*) local_unnamed_addr #0 align 2 {
  %3 = alloca %"class.perfetto::TracedValue", align 8
  %4 = alloca %"class.perfetto::TracedValue", align 8
  %5 = alloca %"class.perfetto::TracedValue", align 8
  %6 = alloca %"class.perfetto::TracedValue", align 8
  %7 = alloca %"class.perfetto::TracedValue", align 8
  %8 = alloca %"class.perfetto::TracedValue", align 8
  %9 = alloca %"class.perfetto::TracedValue", align 8
  %10 = alloca %"class.perfetto::TracedValue", align 8
  %11 = alloca %"class.perfetto::TracedDictionary", align 8
  %12 = alloca %"class.perfetto::TracedValue", align 8
  %13 = alloca %"class.perfetto::TracedValue", align 8
  %14 = alloca %"class.perfetto::TracedValue", align 8
  %15 = alloca %"class.perfetto::TracedValue", align 8
  %16 = alloca %"class.perfetto::TracedValue", align 8
  %17 = alloca %"class.perfetto::TracedValue", align 8
  %18 = bitcast %"class.perfetto::TracedDictionary"* %11 to i8*
  call void @llvm.lifetime.start.p0i8(i64 16, i8* nonnull %18) #10
  %19 = bitcast %"class.perfetto::TracedDictionary"* %11 to i8*
  call void @llvm.memset.p0i8.i64(i8* nonnull align 8 %19, i8 -86, i64 16, i1 false)
  call void @_ZNO8perfetto11TracedValue15WriteDictionaryEv(%"class.perfetto::TracedDictionary"* nonnull sret %11, %"class.perfetto::TracedValue"* %1) #10
  call void @_ZN8perfetto16TracedDictionary7AddItemENS_12StaticStringE(%"class.perfetto::TracedValue"* nonnull sret %12, %"class.perfetto::TracedDictionary"* nonnull %11, i8* getelementptr inbounds ([5 x i8], [5 x i8]* @.str, i64 0, i64 0)) #10
  %20 = getelementptr inbounds %"class.task_module::mojom::TaskItem", %"class.task_module::mojom::TaskItem"* %0, i64 0, i32 0
  %21 = bitcast %"class.perfetto::TracedValue"* %12 to i8*
  %22 = bitcast %"class.perfetto::TracedValue"* %9 to i8*
  call void @llvm.lifetime.start.p0i8(i64 16, i8* nonnull %22) #10
  call void @llvm.memcpy.p0i8.p0i8.i64(i8* nonnull align 8 %22, i8* nonnull align 8 %21, i64 16, i1 false) #10
  call void @_ZNO8perfetto11TracedValue11WriteStringERKNSt3__112basic_stringIcNS1_11char_traitsIcEENS1_9allocatorIcEEEE(%"class.perfetto::TracedValue"* nonnull %9, %"class.std::__1::basic_string"* dereferenceable(24) %20) #10
  call void @llvm.lifetime.end.p0i8(i64 16, i8* nonnull %22) #10
  call void @_ZN8perfetto16TracedDictionary7AddItemENS_12StaticStringE(%"class.perfetto::TracedValue"* nonnull sret %13, %"class.perfetto::TracedDictionary"* nonnull %11, i8* getelementptr inbounds ([10 x i8], [10 x i8]* @.str.2, i64 0, i64 0)) #10
  %23 = getelementptr inbounds %"class.task_module::mojom::TaskItem", %"class.task_module::mojom::TaskItem"* %0, i64 0, i32 1
  %24 = bitcast %"class.perfetto::TracedValue"* %13 to i8*
  %25 = bitcast %"class.perfetto::TracedValue"* %8 to i8*
  call void @llvm.lifetime.start.p0i8(i64 16, i8* nonnull %25) #10
  call void @llvm.memcpy.p0i8.p0i8.i64(i8* nonnull align 8 %25, i8* nonnull align 8 %24, i64 16, i1 false) #10
  call void @_ZNK4GURL14WriteIntoTraceEN8perfetto11TracedValueE(%class.GURL* %23, %"class.perfetto::TracedValue"* nonnull %8) #10
  call void @llvm.lifetime.end.p0i8(i64 16, i8* nonnull %25) #10
  call void @_ZN8perfetto16TracedDictionary7AddItemENS_12StaticStringE(%"class.perfetto::TracedValue"* nonnull sret %14, %"class.perfetto::TracedDictionary"* nonnull %11, i8* getelementptr inbounds ([6 x i8], [6 x i8]* @.str.3, i64 0, i64 0)) #10
  %26 = bitcast %"class.perfetto::TracedValue"* %14 to i8*
  %27 = bitcast %"class.perfetto::TracedValue"* %7 to i8*
  call void @llvm.lifetime.start.p0i8(i64 16, i8* nonnull %27) #10
  call void @llvm.memcpy.p0i8.p0i8.i64(i8* nonnull align 8 %27, i8* nonnull align 8 %26, i64 16, i1 false) #10
  %28 = getelementptr inbounds %"class.task_module::mojom::TaskItem", %"class.task_module::mojom::TaskItem"* %0, i64 0, i32 2, i32 0, i32 0, i32 0, i32 0
  %29 = load i8, i8* %28, align 8, !range !2
  %30 = icmp eq i8 %29, 0
  br i1 %30, label %31, label %32

31:                                               ; preds = %2
  call void @_ZNO8perfetto11TracedValue12WritePointerEPKv(%"class.perfetto::TracedValue"* nonnull %7, i8* null) #10
  br label %35

32:                                               ; preds = %2
  %33 = getelementptr inbounds %"class.task_module::mojom::TaskItem", %"class.task_module::mojom::TaskItem"* %0, i64 0, i32 2, i32 0, i32 0, i32 0, i32 1, i32 0
  %34 = bitcast %"class.perfetto::TracedValue"* %6 to i8*
  call void @llvm.lifetime.start.p0i8(i64 16, i8* nonnull %34) #10
  call void @llvm.memcpy.p0i8.p0i8.i64(i8* nonnull align 8 %34, i8* nonnull align 8 %27, i64 16, i1 false) #10
  call void @_ZNO8perfetto11TracedValue11WriteStringERKNSt3__112basic_stringIcNS1_11char_traitsIcEENS1_9allocatorIcEEEE(%"class.perfetto::TracedValue"* nonnull %6, %"class.std::__1::basic_string"* dereferenceable(24) %33) #10
  call void @llvm.lifetime.end.p0i8(i64 16, i8* nonnull %34) #10
  br label %35

35:                                               ; preds = %31, %32
  call void @llvm.lifetime.end.p0i8(i64 16, i8* nonnull %27) #10
  call void @_ZN8perfetto16TracedDictionary7AddItemENS_12StaticStringE(%"class.perfetto::TracedValue"* nonnull sret %15, %"class.perfetto::TracedDictionary"* nonnull %11, i8* getelementptr inbounds ([5 x i8], [5 x i8]* @.str.4, i64 0, i64 0)) #10
  %36 = getelementptr inbounds %"class.task_module::mojom::TaskItem", %"class.task_module::mojom::TaskItem"* %0, i64 0, i32 3
  %37 = bitcast %"class.perfetto::TracedValue"* %15 to i8*
  %38 = bitcast %"class.perfetto::TracedValue"* %5 to i8*
  call void @llvm.lifetime.start.p0i8(i64 16, i8* nonnull %38) #10
  call void @llvm.memcpy.p0i8.p0i8.i64(i8* nonnull align 8 %38, i8* nonnull align 8 %37, i64 16, i1 false) #10
  call void @_ZNO8perfetto11TracedValue11WriteStringERKNSt3__112basic_stringIcNS1_11char_traitsIcEENS1_9allocatorIcEEEE(%"class.perfetto::TracedValue"* nonnull %5, %"class.std::__1::basic_string"* dereferenceable(24) %36) #10
  call void @llvm.lifetime.end.p0i8(i64 16, i8* nonnull %38) #10
  call void @_ZN8perfetto16TracedDictionary7AddItemENS_12StaticStringE(%"class.perfetto::TracedValue"* nonnull sret %16, %"class.perfetto::TracedDictionary"* nonnull %11, i8* getelementptr inbounds ([10 x i8], [10 x i8]* @.str.5, i64 0, i64 0)) #10
  %39 = bitcast %"class.perfetto::TracedValue"* %16 to i8*
  %40 = bitcast %"class.perfetto::TracedValue"* %4 to i8*
  call void @llvm.lifetime.start.p0i8(i64 16, i8* nonnull %40) #10
  call void @llvm.memcpy.p0i8.p0i8.i64(i8* nonnull align 8 %40, i8* nonnull align 8 %39, i64 16, i1 false) #10
  %41 = getelementptr inbounds %"class.task_module::mojom::TaskItem", %"class.task_module::mojom::TaskItem"* %0, i64 0, i32 4, i32 0, i32 0, i32 0, i32 0
  %42 = load i8, i8* %41, align 8, !range !2
  %43 = icmp eq i8 %42, 0
  br i1 %43, label %44, label %45

44:                                               ; preds = %35
  call void @_ZNO8perfetto11TracedValue12WritePointerEPKv(%"class.perfetto::TracedValue"* nonnull %4, i8* null) #10
  br label %48

45:                                               ; preds = %35
  %46 = getelementptr inbounds %"class.task_module::mojom::TaskItem", %"class.task_module::mojom::TaskItem"* %0, i64 0, i32 4, i32 0, i32 0, i32 0, i32 1, i32 0
  %47 = bitcast %"class.perfetto::TracedValue"* %3 to i8*
  call void @llvm.lifetime.start.p0i8(i64 16, i8* nonnull %47) #10
  call void @llvm.memcpy.p0i8.p0i8.i64(i8* nonnull align 8 %47, i8* nonnull align 8 %40, i64 16, i1 false) #10
  call void @_ZNO8perfetto11TracedValue11WriteStringERKNSt3__112basic_stringIcNS1_11char_traitsIcEENS1_9allocatorIcEEEE(%"class.perfetto::TracedValue"* nonnull %3, %"class.std::__1::basic_string"* dereferenceable(24) %46) #10
  call void @llvm.lifetime.end.p0i8(i64 16, i8* nonnull %47) #10
  br label %48

48:                                               ; preds = %44, %45
  call void @llvm.lifetime.end.p0i8(i64 16, i8* nonnull %40) #10
  call void @_ZN8perfetto16TracedDictionary7AddItemENS_12StaticStringE(%"class.perfetto::TracedValue"* nonnull sret %17, %"class.perfetto::TracedDictionary"* nonnull %11, i8* getelementptr inbounds ([11 x i8], [11 x i8]* @.str.6, i64 0, i64 0)) #10
  %49 = getelementptr inbounds %"class.task_module::mojom::TaskItem", %"class.task_module::mojom::TaskItem"* %0, i64 0, i32 5
  %50 = bitcast %"class.perfetto::TracedValue"* %17 to i8*
  %51 = bitcast %"class.perfetto::TracedValue"* %10 to i8*
  call void @llvm.lifetime.start.p0i8(i64 16, i8* nonnull %51) #10
  call void @llvm.memcpy.p0i8.p0i8.i64(i8* nonnull align 8 %51, i8* nonnull align 8 %50, i64 16, i1 false) #10
  call void @_ZNK4GURL14WriteIntoTraceEN8perfetto11TracedValueE(%class.GURL* %49, %"class.perfetto::TracedValue"* nonnull %10) #10
  call void @llvm.lifetime.end.p0i8(i64 16, i8* nonnull %51) #10
  call void @llvm.lifetime.end.p0i8(i64 16, i8* nonnull %18) #10
  ret void
}

; Function Attrs: argmemonly nounwind
declare void @llvm.lifetime.start.p0i8(i64 immarg, i8* nocapture) #3

declare void @_ZNO8perfetto11TracedValue15WriteDictionaryEv(%"class.perfetto::TracedDictionary"* sret, %"class.perfetto::TracedValue"*) local_unnamed_addr #1

declare void @_ZN8perfetto16TracedDictionary7AddItemENS_12StaticStringE(%"class.perfetto::TracedValue"* sret, %"class.perfetto::TracedDictionary"*, i8*) local_unnamed_addr #1

; Function Attrs: argmemonly nounwind
declare void @llvm.lifetime.end.p0i8(i64 immarg, i8* nocapture) #3

; Function Attrs: nounwind ssp uwtable
define hidden zeroext i1 @_ZN11task_module5mojom8TaskItem8ValidateEPKvPN4mojo8internal17ValidationContextE(i8*, %"class.mojo::internal::ValidationContext"*) local_unnamed_addr #0 align 2 {
  %3 = tail call zeroext i1 @_ZN11task_module5mojom8internal13TaskItem_Data8ValidateEPKvPN4mojo8internal17ValidationContextE(i8* %0, %"class.mojo::internal::ValidationContext"* %1) #10
  ret i1 %3
}

declare zeroext i1 @_ZN11task_module5mojom8internal13TaskItem_Data8ValidateEPKvPN4mojo8internal17ValidationContextE(i8*, %"class.mojo::internal::ValidationContext"*) local_unnamed_addr #1

; Function Attrs: nounwind ssp uwtable
define hidden void @_ZN11task_module5mojom13RelatedSearchC2Ev(%"class.task_module::mojom::RelatedSearch"*) unnamed_addr #0 align 2 {
  %2 = bitcast %"class.task_module::mojom::RelatedSearch"* %0 to i8*
  tail call void @llvm.memset.p0i8.i64(i8* align 8 %2, i8 0, i64 24, i1 false) #10
  %3 = getelementptr inbounds %"class.task_module::mojom::RelatedSearch", %"class.task_module::mojom::RelatedSearch"* %0, i64 0, i32 1
  tail call void @_ZN4GURLC1Ev(%class.GURL* %3) #10
  ret void
}

; Function Attrs: nounwind ssp uwtable
define hidden void @_ZN11task_module5mojom13RelatedSearchC2ERKNSt3__112basic_stringIcNS2_11char_traitsIcEENS2_9allocatorIcEEEERK4GURL(%"class.task_module::mojom::RelatedSearch"*, %"class.std::__1::basic_string"* nocapture readonly dereferenceable(24), %class.GURL* dereferenceable(120)) unnamed_addr #0 align 2 {
  %4 = bitcast %"class.std::__1::basic_string"* %1 to %"struct.std::__1::basic_string<char, std::__1::char_traits<char>, std::__1::allocator<char> >::__short"*
  %5 = getelementptr inbounds %"struct.std::__1::basic_string<char, std::__1::char_traits<char>, std::__1::allocator<char> >::__short", %"struct.std::__1::basic_string<char, std::__1::char_traits<char>, std::__1::allocator<char> >::__short"* %4, i64 0, i32 1, i32 0
  %6 = load i8, i8* %5, align 1
  %7 = icmp slt i8 %6, 0
  br i1 %7, label %11, label %8

8:                                                ; preds = %3
  %9 = bitcast %"class.task_module::mojom::RelatedSearch"* %0 to i8*
  %10 = bitcast %"class.std::__1::basic_string"* %1 to i8*
  tail call void @llvm.memcpy.p0i8.p0i8.i64(i8* align 8 %9, i8* align 8 %10, i64 24, i1 false) #10
  br label %17

11:                                               ; preds = %3
  %12 = getelementptr inbounds %"class.task_module::mojom::RelatedSearch", %"class.task_module::mojom::RelatedSearch"* %0, i64 0, i32 0
  %13 = getelementptr inbounds %"class.std::__1::basic_string", %"class.std::__1::basic_string"* %1, i64 0, i32 0, i32 0, i32 0, i32 0, i32 0, i32 0
  %14 = load i8*, i8** %13, align 8
  %15 = getelementptr inbounds %"class.std::__1::basic_string", %"class.std::__1::basic_string"* %1, i64 0, i32 0, i32 0, i32 0, i32 0, i32 0, i32 1
  %16 = load i64, i64* %15, align 8
  tail call void @_ZNSt3__112basic_stringIcNS_11char_traitsIcEENS_9allocatorIcEEE25__init_copy_ctor_externalEPKcm(%"class.std::__1::basic_string"* %12, i8* %14, i64 %16) #10
  br label %17

17:                                               ; preds = %8, %11
  %18 = getelementptr inbounds %"class.task_module::mojom::RelatedSearch", %"class.task_module::mojom::RelatedSearch"* %0, i64 0, i32 1
  tail call void @_ZN4GURLC1ERKS_(%class.GURL* %18, %class.GURL* dereferenceable(120) %2) #10
  ret void
}

; Function Attrs: nounwind ssp uwtable
define hidden void @_ZN11task_module5mojom13RelatedSearchD2Ev(%"class.task_module::mojom::RelatedSearch"*) unnamed_addr #0 align 2 {
  %2 = getelementptr inbounds %"class.task_module::mojom::RelatedSearch", %"class.task_module::mojom::RelatedSearch"* %0, i64 0, i32 1
  tail call void @_ZN4GURLD1Ev(%class.GURL* %2) #10
  %3 = bitcast %"class.task_module::mojom::RelatedSearch"* %0 to %"struct.std::__1::basic_string<char, std::__1::char_traits<char>, std::__1::allocator<char> >::__short"*
  %4 = getelementptr inbounds %"struct.std::__1::basic_string<char, std::__1::char_traits<char>, std::__1::allocator<char> >::__short", %"struct.std::__1::basic_string<char, std::__1::char_traits<char>, std::__1::allocator<char> >::__short"* %3, i64 0, i32 1, i32 0
  %5 = load i8, i8* %4, align 1
  %6 = icmp slt i8 %5, 0
  br i1 %6, label %7, label %10

7:                                                ; preds = %1
  %8 = getelementptr inbounds %"class.task_module::mojom::RelatedSearch", %"class.task_module::mojom::RelatedSearch"* %0, i64 0, i32 0, i32 0, i32 0, i32 0, i32 0, i32 0, i32 0
  %9 = load i8*, i8** %8, align 8
  tail call void @_ZdlPv(i8* %9) #11
  br label %10

10:                                               ; preds = %1, %7
  ret void
}

; Function Attrs: nounwind ssp uwtable
define hidden void @_ZNK11task_module5mojom13RelatedSearch14WriteIntoTraceEN8perfetto11TracedValueE(%"class.task_module::mojom::RelatedSearch"*, %"class.perfetto::TracedValue"*) local_unnamed_addr #0 align 2 {
  %3 = alloca %"class.perfetto::TracedValue", align 8
  %4 = alloca %"class.perfetto::TracedValue", align 8
  %5 = alloca %"class.perfetto::TracedDictionary", align 8
  %6 = alloca %"class.perfetto::TracedValue", align 8
  %7 = alloca %"class.perfetto::TracedValue", align 8
  %8 = bitcast %"class.perfetto::TracedDictionary"* %5 to i8*
  call void @llvm.lifetime.start.p0i8(i64 16, i8* nonnull %8) #10
  %9 = bitcast %"class.perfetto::TracedDictionary"* %5 to i8*
  call void @llvm.memset.p0i8.i64(i8* nonnull align 8 %9, i8 -86, i64 16, i1 false)
  call void @_ZNO8perfetto11TracedValue15WriteDictionaryEv(%"class.perfetto::TracedDictionary"* nonnull sret %5, %"class.perfetto::TracedValue"* %1) #10
  call void @_ZN8perfetto16TracedDictionary7AddItemENS_12StaticStringE(%"class.perfetto::TracedValue"* nonnull sret %6, %"class.perfetto::TracedDictionary"* nonnull %5, i8* getelementptr inbounds ([5 x i8], [5 x i8]* @.str.7, i64 0, i64 0)) #10
  %10 = getelementptr inbounds %"class.task_module::mojom::RelatedSearch", %"class.task_module::mojom::RelatedSearch"* %0, i64 0, i32 0
  %11 = bitcast %"class.perfetto::TracedValue"* %6 to i8*
  %12 = bitcast %"class.perfetto::TracedValue"* %3 to i8*
  call void @llvm.lifetime.start.p0i8(i64 16, i8* nonnull %12) #10
  call void @llvm.memcpy.p0i8.p0i8.i64(i8* nonnull align 8 %12, i8* nonnull align 8 %11, i64 16, i1 false) #10
  call void @_ZNO8perfetto11TracedValue11WriteStringERKNSt3__112basic_stringIcNS1_11char_traitsIcEENS1_9allocatorIcEEEE(%"class.perfetto::TracedValue"* nonnull %3, %"class.std::__1::basic_string"* dereferenceable(24) %10) #10
  call void @llvm.lifetime.end.p0i8(i64 16, i8* nonnull %12) #10
  call void @_ZN8perfetto16TracedDictionary7AddItemENS_12StaticStringE(%"class.perfetto::TracedValue"* nonnull sret %7, %"class.perfetto::TracedDictionary"* nonnull %5, i8* getelementptr inbounds ([11 x i8], [11 x i8]* @.str.6, i64 0, i64 0)) #10
  %13 = getelementptr inbounds %"class.task_module::mojom::RelatedSearch", %"class.task_module::mojom::RelatedSearch"* %0, i64 0, i32 1
  %14 = bitcast %"class.perfetto::TracedValue"* %7 to i8*
  %15 = bitcast %"class.perfetto::TracedValue"* %4 to i8*
  call void @llvm.lifetime.start.p0i8(i64 16, i8* nonnull %15) #10
  call void @llvm.memcpy.p0i8.p0i8.i64(i8* nonnull align 8 %15, i8* nonnull align 8 %14, i64 16, i1 false) #10
  call void @_ZNK4GURL14WriteIntoTraceEN8perfetto11TracedValueE(%class.GURL* %13, %"class.perfetto::TracedValue"* nonnull %4) #10
  call void @llvm.lifetime.end.p0i8(i64 16, i8* nonnull %15) #10
  call void @llvm.lifetime.end.p0i8(i64 16, i8* nonnull %8) #10
  ret void
}

; Function Attrs: nounwind ssp uwtable
define hidden zeroext i1 @_ZN11task_module5mojom13RelatedSearch8ValidateEPKvPN4mojo8internal17ValidationContextE(i8*, %"class.mojo::internal::ValidationContext"*) local_unnamed_addr #0 align 2 {
  %3 = tail call zeroext i1 @_ZN11task_module5mojom8internal18RelatedSearch_Data8ValidateEPKvPN4mojo8internal17ValidationContextE(i8* %0, %"class.mojo::internal::ValidationContext"* %1) #10
  ret i1 %3
}

declare zeroext i1 @_ZN11task_module5mojom8internal18RelatedSearch_Data8ValidateEPKvPN4mojo8internal17ValidationContextE(i8*, %"class.mojo::internal::ValidationContext"*) local_unnamed_addr #1

; Function Attrs: nounwind ssp uwtable
define hidden void @_ZN11task_module5mojom4TaskC2Ev(%"class.task_module::mojom::Task"* nocapture) unnamed_addr #0 align 2 {
  %2 = bitcast %"class.task_module::mojom::Task"* %0 to i8*
  call void @llvm.memset.p0i8.i64(i8* align 8 %2, i8 0, i64 96, i1 false)
  ret void
}

; Function Attrs: nounwind ssp uwtable
define hidden void @_ZN11task_module5mojom4TaskC2ERKNSt3__112basic_stringIcNS2_11char_traitsIcEENS2_9allocatorIcEEEESA_NS2_6vectorIN4mojo9StructPtrINS0_8TaskItemEEENS6_ISF_EEEENSB_INSD_INS0_13RelatedSearchEEENS6_ISJ_EEEE(%"class.task_module::mojom::Task"*, %"class.std::__1::basic_string"* nocapture readonly dereferenceable(24), %"class.std::__1::basic_string"* nocapture readonly dereferenceable(24), %"class.std::__1::vector.34"* nocapture, %"class.std::__1::vector.47"* nocapture) unnamed_addr #0 align 2 {
  %6 = bitcast %"class.std::__1::basic_string"* %1 to %"struct.std::__1::basic_string<char, std::__1::char_traits<char>, std::__1::allocator<char> >::__short"*
  %7 = getelementptr inbounds %"struct.std::__1::basic_string<char, std::__1::char_traits<char>, std::__1::allocator<char> >::__short", %"struct.std::__1::basic_string<char, std::__1::char_traits<char>, std::__1::allocator<char> >::__short"* %6, i64 0, i32 1, i32 0
  %8 = load i8, i8* %7, align 1
  %9 = icmp slt i8 %8, 0
  br i1 %9, label %13, label %10

10:                                               ; preds = %5
  %11 = bitcast %"class.task_module::mojom::Task"* %0 to i8*
  %12 = bitcast %"class.std::__1::basic_string"* %1 to i8*
  tail call void @llvm.memcpy.p0i8.p0i8.i64(i8* align 8 %11, i8* align 8 %12, i64 24, i1 false) #10
  br label %19

13:                                               ; preds = %5
  %14 = getelementptr inbounds %"class.task_module::mojom::Task", %"class.task_module::mojom::Task"* %0, i64 0, i32 0
  %15 = getelementptr inbounds %"class.std::__1::basic_string", %"class.std::__1::basic_string"* %1, i64 0, i32 0, i32 0, i32 0, i32 0, i32 0, i32 0
  %16 = load i8*, i8** %15, align 8
  %17 = getelementptr inbounds %"class.std::__1::basic_string", %"class.std::__1::basic_string"* %1, i64 0, i32 0, i32 0, i32 0, i32 0, i32 0, i32 1
  %18 = load i64, i64* %17, align 8
  tail call void @_ZNSt3__112basic_stringIcNS_11char_traitsIcEENS_9allocatorIcEEE25__init_copy_ctor_externalEPKcm(%"class.std::__1::basic_string"* %14, i8* %16, i64 %18) #10
  br label %19

19:                                               ; preds = %10, %13
  %20 = getelementptr inbounds %"class.task_module::mojom::Task", %"class.task_module::mojom::Task"* %0, i64 0, i32 1
  %21 = bitcast %"class.std::__1::basic_string"* %2 to %"struct.std::__1::basic_string<char, std::__1::char_traits<char>, std::__1::allocator<char> >::__short"*
  %22 = getelementptr inbounds %"struct.std::__1::basic_string<char, std::__1::char_traits<char>, std::__1::allocator<char> >::__short", %"struct.std::__1::basic_string<char, std::__1::char_traits<char>, std::__1::allocator<char> >::__short"* %21, i64 0, i32 1, i32 0
  %23 = load i8, i8* %22, align 1
  %24 = icmp slt i8 %23, 0
  br i1 %24, label %28, label %25

25:                                               ; preds = %19
  %26 = bitcast %"class.std::__1::basic_string"* %20 to i8*
  %27 = bitcast %"class.std::__1::basic_string"* %2 to i8*
  tail call void @llvm.memcpy.p0i8.p0i8.i64(i8* align 8 %26, i8* align 8 %27, i64 24, i1 false) #10
  br label %33

28:                                               ; preds = %19
  %29 = getelementptr inbounds %"class.std::__1::basic_string", %"class.std::__1::basic_string"* %2, i64 0, i32 0, i32 0, i32 0, i32 0, i32 0, i32 0
  %30 = load i8*, i8** %29, align 8
  %31 = getelementptr inbounds %"class.std::__1::basic_string", %"class.std::__1::basic_string"* %2, i64 0, i32 0, i32 0, i32 0, i32 0, i32 0, i32 1
  %32 = load i64, i64* %31, align 8
  tail call void @_ZNSt3__112basic_stringIcNS_11char_traitsIcEENS_9allocatorIcEEE25__init_copy_ctor_externalEPKcm(%"class.std::__1::basic_string"* %20, i8* %30, i64 %32) #10
  br label %33

33:                                               ; preds = %25, %28
  %34 = getelementptr inbounds %"class.task_module::mojom::Task", %"class.task_module::mojom::Task"* %0, i64 0, i32 2
  %35 = bitcast %"class.std::__1::vector.34"* %34 to i8*
  tail call void @llvm.memset.p0i8.i64(i8* align 8 %35, i8 0, i64 24, i1 false) #10
  %36 = bitcast %"class.std::__1::vector.34"* %3 to i64*
  %37 = load i64, i64* %36, align 8
  %38 = bitcast %"class.std::__1::vector.34"* %34 to i64*
  store i64 %37, i64* %38, align 8
  %39 = getelementptr inbounds %"class.std::__1::vector.34", %"class.std::__1::vector.34"* %3, i64 0, i32 0, i32 1
  %40 = bitcast %"class.mojo::StructPtr"** %39 to i64*
  %41 = load i64, i64* %40, align 8
  %42 = getelementptr inbounds %"class.task_module::mojom::Task", %"class.task_module::mojom::Task"* %0, i64 0, i32 2, i32 0, i32 1
  %43 = bitcast %"class.mojo::StructPtr"** %42 to i64*
  store i64 %41, i64* %43, align 8
  %44 = getelementptr inbounds %"class.std::__1::vector.34", %"class.std::__1::vector.34"* %3, i64 0, i32 0, i32 2, i32 0, i32 0
  %45 = bitcast %"class.mojo::StructPtr"** %44 to i64*
  %46 = load i64, i64* %45, align 8
  %47 = getelementptr inbounds %"class.task_module::mojom::Task", %"class.task_module::mojom::Task"* %0, i64 0, i32 2, i32 0, i32 2, i32 0, i32 0
  %48 = bitcast %"class.mojo::StructPtr"** %47 to i64*
  store i64 %46, i64* %48, align 8
  %49 = bitcast %"class.std::__1::vector.34"* %3 to i8*
  tail call void @llvm.memset.p0i8.i64(i8* align 8 %49, i8 0, i64 24, i1 false) #10
  %50 = getelementptr inbounds %"class.task_module::mojom::Task", %"class.task_module::mojom::Task"* %0, i64 0, i32 3
  %51 = bitcast %"class.std::__1::vector.47"* %50 to i8*
  tail call void @llvm.memset.p0i8.i64(i8* align 8 %51, i8 0, i64 24, i1 false) #10
  %52 = bitcast %"class.std::__1::vector.47"* %4 to i64*
  %53 = load i64, i64* %52, align 8
  %54 = bitcast %"class.std::__1::vector.47"* %50 to i64*
  store i64 %53, i64* %54, align 8
  %55 = getelementptr inbounds %"class.std::__1::vector.47", %"class.std::__1::vector.47"* %4, i64 0, i32 0, i32 1
  %56 = bitcast %"class.mojo::StructPtr.49"** %55 to i64*
  %57 = load i64, i64* %56, align 8
  %58 = getelementptr inbounds %"class.task_module::mojom::Task", %"class.task_module::mojom::Task"* %0, i64 0, i32 3, i32 0, i32 1
  %59 = bitcast %"class.mojo::StructPtr.49"** %58 to i64*
  store i64 %57, i64* %59, align 8
  %60 = getelementptr inbounds %"class.std::__1::vector.47", %"class.std::__1::vector.47"* %4, i64 0, i32 0, i32 2, i32 0, i32 0
  %61 = bitcast %"class.mojo::StructPtr.49"** %60 to i64*
  %62 = load i64, i64* %61, align 8
  %63 = getelementptr inbounds %"class.task_module::mojom::Task", %"class.task_module::mojom::Task"* %0, i64 0, i32 3, i32 0, i32 2, i32 0, i32 0
  %64 = bitcast %"class.mojo::StructPtr.49"** %63 to i64*
  store i64 %62, i64* %64, align 8
  %65 = bitcast %"class.std::__1::vector.47"* %4 to i8*
  tail call void @llvm.memset.p0i8.i64(i8* align 8 %65, i8 0, i64 24, i1 false) #10
  ret void
}

; Function Attrs: nounwind ssp uwtable
define hidden void @_ZN11task_module5mojom4TaskD2Ev(%"class.task_module::mojom::Task"* nocapture) unnamed_addr #0 align 2 {
  %2 = getelementptr inbounds %"class.task_module::mojom::Task", %"class.task_module::mojom::Task"* %0, i64 0, i32 3
  %3 = getelementptr inbounds %"class.std::__1::vector.47", %"class.std::__1::vector.47"* %2, i64 0, i32 0, i32 0
  %4 = load %"class.mojo::StructPtr.49"*, %"class.mojo::StructPtr.49"** %3, align 8
  %5 = icmp eq %"class.mojo::StructPtr.49"* %4, null
  br i1 %5, label %35, label %6

6:                                                ; preds = %1
  %7 = bitcast %"class.mojo::StructPtr.49"* %4 to i8*
  %8 = getelementptr inbounds %"class.task_module::mojom::Task", %"class.task_module::mojom::Task"* %0, i64 0, i32 3, i32 0, i32 1
  %9 = load %"class.mojo::StructPtr.49"*, %"class.mojo::StructPtr.49"** %8, align 8
  %10 = icmp eq %"class.mojo::StructPtr.49"* %9, %4
  br i1 %10, label %33, label %11

11:                                               ; preds = %6, %28
  %12 = phi %"class.mojo::StructPtr.49"* [ %13, %28 ], [ %9, %6 ]
  %13 = getelementptr inbounds %"class.mojo::StructPtr.49", %"class.mojo::StructPtr.49"* %12, i64 -1
  %14 = getelementptr inbounds %"class.mojo::StructPtr.49", %"class.mojo::StructPtr.49"* %13, i64 0, i32 0, i32 0, i32 0, i32 0
  %15 = load %"class.task_module::mojom::RelatedSearch"*, %"class.task_module::mojom::RelatedSearch"** %14, align 8
  store %"class.task_module::mojom::RelatedSearch"* null, %"class.task_module::mojom::RelatedSearch"** %14, align 8
  %16 = icmp eq %"class.task_module::mojom::RelatedSearch"* %15, null
  br i1 %16, label %28, label %17

17:                                               ; preds = %11
  %18 = getelementptr inbounds %"class.task_module::mojom::RelatedSearch", %"class.task_module::mojom::RelatedSearch"* %15, i64 0, i32 1
  tail call void @_ZN4GURLD1Ev(%class.GURL* %18) #10
  %19 = bitcast %"class.task_module::mojom::RelatedSearch"* %15 to %"struct.std::__1::basic_string<char, std::__1::char_traits<char>, std::__1::allocator<char> >::__short"*
  %20 = getelementptr inbounds %"struct.std::__1::basic_string<char, std::__1::char_traits<char>, std::__1::allocator<char> >::__short", %"struct.std::__1::basic_string<char, std::__1::char_traits<char>, std::__1::allocator<char> >::__short"* %19, i64 0, i32 1, i32 0
  %21 = load i8, i8* %20, align 1
  %22 = icmp slt i8 %21, 0
  br i1 %22, label %23, label %26

23:                                               ; preds = %17
  %24 = getelementptr inbounds %"class.task_module::mojom::RelatedSearch", %"class.task_module::mojom::RelatedSearch"* %15, i64 0, i32 0, i32 0, i32 0, i32 0, i32 0, i32 0, i32 0
  %25 = load i8*, i8** %24, align 8
  tail call void @_ZdlPv(i8* %25) #11
  br label %26

26:                                               ; preds = %23, %17
  %27 = bitcast %"class.task_module::mojom::RelatedSearch"* %15 to i8*
  tail call void @_ZdlPv(i8* %27) #11
  br label %28

28:                                               ; preds = %26, %11
  %29 = icmp eq %"class.mojo::StructPtr.49"* %13, %4
  br i1 %29, label %30, label %11

30:                                               ; preds = %28
  %31 = bitcast %"class.std::__1::vector.47"* %2 to i8**
  %32 = load i8*, i8** %31, align 8
  br label %33

33:                                               ; preds = %30, %6
  %34 = phi i8* [ %32, %30 ], [ %7, %6 ]
  store %"class.mojo::StructPtr.49"* %4, %"class.mojo::StructPtr.49"** %8, align 8
  tail call void @_ZdlPv(i8* %34) #11
  br label %35

35:                                               ; preds = %1, %33
  %36 = getelementptr inbounds %"class.task_module::mojom::Task", %"class.task_module::mojom::Task"* %0, i64 0, i32 2
  %37 = getelementptr inbounds %"class.std::__1::vector.34", %"class.std::__1::vector.34"* %36, i64 0, i32 0, i32 0
  %38 = load %"class.mojo::StructPtr"*, %"class.mojo::StructPtr"** %37, align 8
  %39 = icmp eq %"class.mojo::StructPtr"* %38, null
  br i1 %39, label %60, label %40

40:                                               ; preds = %35
  %41 = bitcast %"class.mojo::StructPtr"* %38 to i8*
  %42 = getelementptr inbounds %"class.task_module::mojom::Task", %"class.task_module::mojom::Task"* %0, i64 0, i32 2, i32 0, i32 1
  %43 = load %"class.mojo::StructPtr"*, %"class.mojo::StructPtr"** %42, align 8
  %44 = icmp eq %"class.mojo::StructPtr"* %43, %38
  br i1 %44, label %58, label %45

45:                                               ; preds = %40, %53
  %46 = phi %"class.mojo::StructPtr"* [ %47, %53 ], [ %43, %40 ]
  %47 = getelementptr inbounds %"class.mojo::StructPtr", %"class.mojo::StructPtr"* %46, i64 -1
  %48 = getelementptr inbounds %"class.mojo::StructPtr", %"class.mojo::StructPtr"* %47, i64 0, i32 0, i32 0, i32 0, i32 0
  %49 = load %"class.task_module::mojom::TaskItem"*, %"class.task_module::mojom::TaskItem"** %48, align 8
  store %"class.task_module::mojom::TaskItem"* null, %"class.task_module::mojom::TaskItem"** %48, align 8
  %50 = icmp eq %"class.task_module::mojom::TaskItem"* %49, null
  br i1 %50, label %53, label %51

51:                                               ; preds = %45
  tail call void @_ZN11task_module5mojom8TaskItemD2Ev(%"class.task_module::mojom::TaskItem"* nonnull %49) #10
  %52 = bitcast %"class.task_module::mojom::TaskItem"* %49 to i8*
  tail call void @_ZdlPv(i8* %52) #11
  br label %53

53:                                               ; preds = %51, %45
  %54 = icmp eq %"class.mojo::StructPtr"* %47, %38
  br i1 %54, label %55, label %45

55:                                               ; preds = %53
  %56 = bitcast %"class.std::__1::vector.34"* %36 to i8**
  %57 = load i8*, i8** %56, align 8
  br label %58

58:                                               ; preds = %55, %40
  %59 = phi i8* [ %57, %55 ], [ %41, %40 ]
  store %"class.mojo::StructPtr"* %38, %"class.mojo::StructPtr"** %42, align 8
  tail call void @_ZdlPv(i8* %59) #11
  br label %60

60:                                               ; preds = %35, %58
  %61 = getelementptr inbounds %"class.task_module::mojom::Task", %"class.task_module::mojom::Task"* %0, i64 0, i32 1
  %62 = bitcast %"class.std::__1::basic_string"* %61 to %"struct.std::__1::basic_string<char, std::__1::char_traits<char>, std::__1::allocator<char> >::__short"*
  %63 = getelementptr inbounds %"struct.std::__1::basic_string<char, std::__1::char_traits<char>, std::__1::allocator<char> >::__short", %"struct.std::__1::basic_string<char, std::__1::char_traits<char>, std::__1::allocator<char> >::__short"* %62, i64 0, i32 1, i32 0
  %64 = load i8, i8* %63, align 1
  %65 = icmp slt i8 %64, 0
  br i1 %65, label %66, label %69

66:                                               ; preds = %60
  %67 = getelementptr inbounds %"class.std::__1::basic_string", %"class.std::__1::basic_string"* %61, i64 0, i32 0, i32 0, i32 0, i32 0, i32 0, i32 0
  %68 = load i8*, i8** %67, align 8
  tail call void @_ZdlPv(i8* %68) #11
  br label %69

69:                                               ; preds = %60, %66
  %70 = bitcast %"class.task_module::mojom::Task"* %0 to %"struct.std::__1::basic_string<char, std::__1::char_traits<char>, std::__1::allocator<char> >::__short"*
  %71 = getelementptr inbounds %"struct.std::__1::basic_string<char, std::__1::char_traits<char>, std::__1::allocator<char> >::__short", %"struct.std::__1::basic_string<char, std::__1::char_traits<char>, std::__1::allocator<char> >::__short"* %70, i64 0, i32 1, i32 0
  %72 = load i8, i8* %71, align 1
  %73 = icmp slt i8 %72, 0
  br i1 %73, label %74, label %77

74:                                               ; preds = %69
  %75 = getelementptr inbounds %"class.task_module::mojom::Task", %"class.task_module::mojom::Task"* %0, i64 0, i32 0, i32 0, i32 0, i32 0, i32 0, i32 0, i32 0
  %76 = load i8*, i8** %75, align 8
  tail call void @_ZdlPv(i8* %76) #11
  br label %77

77:                                               ; preds = %69, %74
  ret void
}

; Function Attrs: nounwind ssp uwtable
define hidden void @_ZNK11task_module5mojom4Task14WriteIntoTraceEN8perfetto11TracedValueE(%"class.task_module::mojom::Task"*, %"class.perfetto::TracedValue"*) local_unnamed_addr #0 align 2 {
  %3 = alloca %"class.perfetto::TracedValue", align 8
  %4 = alloca %"class.perfetto::TracedValue", align 8
  %5 = alloca %"class.perfetto::TracedValue", align 8
  %6 = alloca %"class.perfetto::TracedArray", align 8
  %7 = alloca %"class.perfetto::TracedValue", align 8
  %8 = alloca %"class.perfetto::TracedValue", align 8
  %9 = alloca %"class.perfetto::TracedValue", align 8
  %10 = alloca %"class.perfetto::TracedValue", align 8
  %11 = alloca %"class.task_module::mojom::RelatedSearch"*, align 8
  %12 = alloca %"class.perfetto::TracedValue", align 8
  %13 = alloca %"class.perfetto::TracedArray", align 8
  %14 = alloca %"class.perfetto::TracedValue", align 8
  %15 = alloca %"class.perfetto::TracedDictionary", align 8
  %16 = alloca %"class.perfetto::TracedValue", align 8
  %17 = alloca %"class.perfetto::TracedValue", align 8
  %18 = alloca %"class.perfetto::TracedValue", align 8
  %19 = alloca %"class.perfetto::TracedValue", align 8
  %20 = bitcast %"class.perfetto::TracedDictionary"* %15 to i8*
  call void @llvm.lifetime.start.p0i8(i64 16, i8* nonnull %20) #10
  %21 = bitcast %"class.perfetto::TracedDictionary"* %15 to i8*
  call void @llvm.memset.p0i8.i64(i8* nonnull align 8 %21, i8 -86, i64 16, i1 false)
  call void @_ZNO8perfetto11TracedValue15WriteDictionaryEv(%"class.perfetto::TracedDictionary"* nonnull sret %15, %"class.perfetto::TracedValue"* %1) #10
  call void @_ZN8perfetto16TracedDictionary7AddItemENS_12StaticStringE(%"class.perfetto::TracedValue"* nonnull sret %16, %"class.perfetto::TracedDictionary"* nonnull %15, i8* getelementptr inbounds ([6 x i8], [6 x i8]* @.str.8, i64 0, i64 0)) #10
  %22 = getelementptr inbounds %"class.task_module::mojom::Task", %"class.task_module::mojom::Task"* %0, i64 0, i32 0
  %23 = bitcast %"class.perfetto::TracedValue"* %16 to i8*
  %24 = bitcast %"class.perfetto::TracedValue"* %9 to i8*
  call void @llvm.lifetime.start.p0i8(i64 16, i8* nonnull %24) #10
  call void @llvm.memcpy.p0i8.p0i8.i64(i8* nonnull align 8 %24, i8* nonnull align 8 %23, i64 16, i1 false) #10
  call void @_ZNO8perfetto11TracedValue11WriteStringERKNSt3__112basic_stringIcNS1_11char_traitsIcEENS1_9allocatorIcEEEE(%"class.perfetto::TracedValue"* nonnull %9, %"class.std::__1::basic_string"* dereferenceable(24) %22) #10
  call void @llvm.lifetime.end.p0i8(i64 16, i8* nonnull %24) #10
  call void @_ZN8perfetto16TracedDictionary7AddItemENS_12StaticStringE(%"class.perfetto::TracedValue"* nonnull sret %17, %"class.perfetto::TracedDictionary"* nonnull %15, i8* getelementptr inbounds ([5 x i8], [5 x i8]* @.str, i64 0, i64 0)) #10
  %25 = getelementptr inbounds %"class.task_module::mojom::Task", %"class.task_module::mojom::Task"* %0, i64 0, i32 1
  %26 = bitcast %"class.perfetto::TracedValue"* %17 to i8*
  %27 = bitcast %"class.perfetto::TracedValue"* %8 to i8*
  call void @llvm.lifetime.start.p0i8(i64 16, i8* nonnull %27) #10
  call void @llvm.memcpy.p0i8.p0i8.i64(i8* nonnull align 8 %27, i8* nonnull align 8 %26, i64 16, i1 false) #10
  call void @_ZNO8perfetto11TracedValue11WriteStringERKNSt3__112basic_stringIcNS1_11char_traitsIcEENS1_9allocatorIcEEEE(%"class.perfetto::TracedValue"* nonnull %8, %"class.std::__1::basic_string"* dereferenceable(24) %25) #10
  call void @llvm.lifetime.end.p0i8(i64 16, i8* nonnull %27) #10
  call void @_ZN8perfetto16TracedDictionary7AddItemENS_12StaticStringE(%"class.perfetto::TracedValue"* nonnull sret %18, %"class.perfetto::TracedDictionary"* nonnull %15, i8* getelementptr inbounds ([11 x i8], [11 x i8]* @.str.9, i64 0, i64 0)) #10
  %28 = bitcast %"class.perfetto::TracedValue"* %18 to i8*
  %29 = bitcast %"class.perfetto::TracedValue"* %7 to i8*
  call void @llvm.lifetime.start.p0i8(i64 16, i8* nonnull %29) #10
  call void @llvm.memcpy.p0i8.p0i8.i64(i8* nonnull align 8 %29, i8* nonnull align 8 %28, i64 16, i1 false) #10
  %30 = bitcast %"class.perfetto::TracedArray"* %6 to i8*
  call void @llvm.lifetime.start.p0i8(i64 16, i8* nonnull %30) #10
  call void @llvm.memset.p0i8.i64(i8* nonnull align 8 %30, i8 -86, i64 16, i1 false) #10
  call void @_ZNO8perfetto11TracedValue10WriteArrayEv(%"class.perfetto::TracedArray"* nonnull sret %6, %"class.perfetto::TracedValue"* nonnull %7) #10
  %31 = getelementptr inbounds %"class.task_module::mojom::Task", %"class.task_module::mojom::Task"* %0, i64 0, i32 2, i32 0, i32 0
  %32 = load %"class.mojo::StructPtr"*, %"class.mojo::StructPtr"** %31, align 8
  %33 = getelementptr inbounds %"class.task_module::mojom::Task", %"class.task_module::mojom::Task"* %0, i64 0, i32 2, i32 0, i32 1
  %34 = load %"class.mojo::StructPtr"*, %"class.mojo::StructPtr"** %33, align 8
  %35 = icmp eq %"class.mojo::StructPtr"* %32, %34
  br i1 %35, label %50, label %36

36:                                               ; preds = %2
  %37 = bitcast %"class.perfetto::TracedValue"* %5 to i8*
  %38 = bitcast %"class.perfetto::TracedValue"* %4 to i8*
  %39 = bitcast %"class.perfetto::TracedValue"* %3 to i8*
  br label %40

40:                                               ; preds = %47, %36
  %41 = phi %"class.mojo::StructPtr"* [ %32, %36 ], [ %48, %47 ]
  call void @llvm.lifetime.start.p0i8(i64 16, i8* nonnull %37) #10
  call void @_ZN8perfetto11TracedArray10AppendItemEv(%"class.perfetto::TracedValue"* nonnull sret %5, %"class.perfetto::TracedArray"* nonnull %6) #10
  %42 = getelementptr inbounds %"class.mojo::StructPtr", %"class.mojo::StructPtr"* %41, i64 0, i32 0, i32 0, i32 0, i32 0
  %43 = load %"class.task_module::mojom::TaskItem"*, %"class.task_module::mojom::TaskItem"** %42, align 8
  call void @llvm.lifetime.start.p0i8(i64 16, i8* nonnull %38) #10
  call void @llvm.memcpy.p0i8.p0i8.i64(i8* nonnull align 8 %38, i8* nonnull align 8 %37, i64 16, i1 false) #10
  %44 = icmp eq %"class.task_module::mojom::TaskItem"* %43, null
  br i1 %44, label %45, label %46

45:                                               ; preds = %40
  call void @_ZNO8perfetto11TracedValue12WritePointerEPKv(%"class.perfetto::TracedValue"* nonnull %4, i8* null) #10
  br label %47

46:                                               ; preds = %40
  call void @llvm.lifetime.start.p0i8(i64 16, i8* nonnull %39) #10
  call void @llvm.memcpy.p0i8.p0i8.i64(i8* nonnull align 8 %39, i8* nonnull align 8 %38, i64 16, i1 false) #10
  call void @_ZNK11task_module5mojom8TaskItem14WriteIntoTraceEN8perfetto11TracedValueE(%"class.task_module::mojom::TaskItem"* nonnull %43, %"class.perfetto::TracedValue"* nonnull %3) #10
  call void @llvm.lifetime.end.p0i8(i64 16, i8* nonnull %39) #10
  br label %47

47:                                               ; preds = %46, %45
  call void @llvm.lifetime.end.p0i8(i64 16, i8* nonnull %38) #10
  call void @llvm.lifetime.end.p0i8(i64 16, i8* nonnull %37) #10
  %48 = getelementptr inbounds %"class.mojo::StructPtr", %"class.mojo::StructPtr"* %41, i64 1
  %49 = icmp eq %"class.mojo::StructPtr"* %48, %34
  br i1 %49, label %50, label %40

50:                                               ; preds = %47, %2
  call void @llvm.lifetime.end.p0i8(i64 16, i8* nonnull %30) #10
  call void @llvm.lifetime.end.p0i8(i64 16, i8* nonnull %29) #10
  call void @_ZN8perfetto16TracedDictionary7AddItemENS_12StaticStringE(%"class.perfetto::TracedValue"* nonnull sret %19, %"class.perfetto::TracedDictionary"* nonnull %15, i8* getelementptr inbounds ([17 x i8], [17 x i8]* @.str.10, i64 0, i64 0)) #10
  %51 = bitcast %"class.perfetto::TracedValue"* %19 to i8*
  %52 = bitcast %"class.perfetto::TracedValue"* %14 to i8*
  call void @llvm.lifetime.start.p0i8(i64 16, i8* nonnull %52) #10
  call void @llvm.memcpy.p0i8.p0i8.i64(i8* nonnull align 8 %52, i8* nonnull align 8 %51, i64 16, i1 false) #10
  %53 = bitcast %"class.perfetto::TracedArray"* %13 to i8*
  call void @llvm.lifetime.start.p0i8(i64 16, i8* nonnull %53) #10
  call void @llvm.memset.p0i8.i64(i8* nonnull align 8 %53, i8 -86, i64 16, i1 false) #10
  call void @_ZNO8perfetto11TracedValue10WriteArrayEv(%"class.perfetto::TracedArray"* nonnull sret %13, %"class.perfetto::TracedValue"* nonnull %14) #10
  %54 = getelementptr inbounds %"class.task_module::mojom::Task", %"class.task_module::mojom::Task"* %0, i64 0, i32 3, i32 0, i32 0
  %55 = load %"class.mojo::StructPtr.49"*, %"class.mojo::StructPtr.49"** %54, align 8
  %56 = getelementptr inbounds %"class.task_module::mojom::Task", %"class.task_module::mojom::Task"* %0, i64 0, i32 3, i32 0, i32 1
  %57 = load %"class.mojo::StructPtr.49"*, %"class.mojo::StructPtr.49"** %56, align 8
  %58 = icmp eq %"class.mojo::StructPtr.49"* %55, %57
  br i1 %58, label %70, label %59

59:                                               ; preds = %50
  %60 = bitcast %"class.perfetto::TracedValue"* %12 to i8*
  %61 = bitcast %"class.task_module::mojom::RelatedSearch"** %11 to i8*
  %62 = bitcast %"class.task_module::mojom::RelatedSearch"** %11 to i64*
  %63 = bitcast %"class.perfetto::TracedValue"* %10 to i8*
  br label %64

64:                                               ; preds = %64, %59
  %65 = phi %"class.mojo::StructPtr.49"* [ %55, %59 ], [ %68, %64 ]
  call void @llvm.lifetime.start.p0i8(i64 16, i8* nonnull %60) #10
  call void @_ZN8perfetto11TracedArray10AppendItemEv(%"class.perfetto::TracedValue"* nonnull sret %12, %"class.perfetto::TracedArray"* nonnull %13) #10
  call void @llvm.lifetime.start.p0i8(i64 8, i8* nonnull %61) #10
  %66 = bitcast %"class.mojo::StructPtr.49"* %65 to i64*
  %67 = load i64, i64* %66, align 8
  store i64 %67, i64* %62, align 8
  call void @llvm.lifetime.start.p0i8(i64 16, i8* nonnull %63) #10
  call void @llvm.memcpy.p0i8.p0i8.i64(i8* nonnull align 8 %63, i8* nonnull align 8 %60, i64 16, i1 false) #10
  call void @_ZN8perfetto8internal9WriteImplIPN11task_module5mojom13RelatedSearchEEEDTcmclsr17TraceFormatTraitsINS_4base12remove_cvrefIT_E4typeEEE14WriteIntoTraceclL_ZNSt3__17declvalINS_11TracedValueEEEDTclsr3std3__1E9__declvalIS8_ELi0EEEvEEclsr3stdE7declvalIS8_EEEcvv_EENS6_12priority_tagILm3EEESD_OS8_(%"class.perfetto::TracedValue"* nonnull %10, %"class.task_module::mojom::RelatedSearch"** nonnull dereferenceable(8) %11) #10
  call void @llvm.lifetime.end.p0i8(i64 16, i8* nonnull %63) #10
  call void @llvm.lifetime.end.p0i8(i64 8, i8* nonnull %61) #10
  call void @llvm.lifetime.end.p0i8(i64 16, i8* nonnull %60) #10
  %68 = getelementptr inbounds %"class.mojo::StructPtr.49", %"class.mojo::StructPtr.49"* %65, i64 1
  %69 = icmp eq %"class.mojo::StructPtr.49"* %68, %57
  br i1 %69, label %70, label %64

70:                                               ; preds = %64, %50
  call void @llvm.lifetime.end.p0i8(i64 16, i8* nonnull %53) #10
  call void @llvm.lifetime.end.p0i8(i64 16, i8* nonnull %52) #10
  call void @llvm.lifetime.end.p0i8(i64 16, i8* nonnull %20) #10
  ret void
}

; Function Attrs: nounwind ssp uwtable
define hidden zeroext i1 @_ZN11task_module5mojom4Task8ValidateEPKvPN4mojo8internal17ValidationContextE(i8*, %"class.mojo::internal::ValidationContext"*) local_unnamed_addr #0 align 2 {
  %3 = tail call zeroext i1 @_ZN11task_module5mojom8internal9Task_Data8ValidateEPKvPN4mojo8internal17ValidationContextE(i8* %0, %"class.mojo::internal::ValidationContext"* %1) #10
  ret i1 %3
}

declare zeroext i1 @_ZN11task_module5mojom8internal9Task_Data8ValidateEPKvPN4mojo8internal17ValidationContextE(i8*, %"class.mojo::internal::ValidationContext"*) local_unnamed_addr #1

; Function Attrs: nofree norecurse nounwind ssp uwtable writeonly
define hidden void @_ZN11task_module5mojom22TaskModuleHandlerProxyC2EPN4mojo28MessageReceiverWithResponderE(%"class.task_module::mojom::TaskModuleHandlerProxy"* nocapture, %"class.mojo::MessageReceiverWithResponder"*) unnamed_addr #4 align 2 {
  %3 = getelementptr inbounds %"class.task_module::mojom::TaskModuleHandlerProxy", %"class.task_module::mojom::TaskModuleHandlerProxy"* %0, i64 0, i32 0, i32 0
  store i32 (...)** bitcast (i8** getelementptr inbounds ({ [9 x i8*] }, { [9 x i8*] }* @_ZTVN11task_module5mojom22TaskModuleHandlerProxyE, i64 0, inrange i32 0, i64 2) to i32 (...)**), i32 (...)*** %3, align 8
  %4 = getelementptr inbounds %"class.task_module::mojom::TaskModuleHandlerProxy", %"class.task_module::mojom::TaskModuleHandlerProxy"* %0, i64 0, i32 1
  store %"class.mojo::MessageReceiverWithResponder"* %1, %"class.mojo::MessageReceiverWithResponder"** %4, align 8
  ret void
}

; Function Attrs: nounwind ssp uwtable
define hidden void @_ZN11task_module5mojom22TaskModuleHandlerProxy14GetPrimaryTaskENS0_14TaskModuleTypeEN4base12OnceCallbackIFvN4mojo9StructPtrINS0_4TaskEEEEEE(%"class.task_module::mojom::TaskModuleHandlerProxy"* nocapture readonly, i32, %"class.base::OnceCallback"* nocapture) unnamed_addr #0 align 2 {
  %4 = alloca %"class.mojo::Message", align 8
  %5 = alloca %"class.base::OnceCallback", align 8
  %6 = bitcast %"class.mojo::Message"* %4 to i8*
  call void @llvm.lifetime.start.p0i8(i64 120, i8* nonnull %6) #10
  call void @llvm.memset.p0i8.i64(i8* nonnull align 8 %6, i8 -86, i64 120, i1 false)
  call void @_ZN4mojo7MessageC1EjjmmPNSt3__16vectorINS_16ScopedHandleBaseINS_6HandleEEENS1_9allocatorIS5_EEEE(%"class.mojo::Message"* nonnull %4, i32 38747746, i32 1, i64 0, i64 0, %"class.std::__1::vector"* null) #10
  %7 = getelementptr inbounds %"class.mojo::Message", %"class.mojo::Message"* %4, i64 0, i32 1
  %8 = call i64 @_ZN4mojo8internal6Buffer8AllocateEm(%"class.mojo::internal::Buffer"* %7, i64 16) #10
  %9 = getelementptr inbounds %"class.mojo::Message", %"class.mojo::Message"* %4, i64 0, i32 1, i32 2
  %10 = load i8*, i8** %9, align 8
  %11 = getelementptr inbounds i8, i8* %10, i64 %8
  %12 = bitcast i8* %11 to %"class.task_module::mojom::internal::TaskModuleHandler_GetPrimaryTask_Params_Data"*
  call void @_ZN11task_module5mojom8internal44TaskModuleHandler_GetPrimaryTask_Params_DataC1Ev(%"class.task_module::mojom::internal::TaskModuleHandler_GetPrimaryTask_Params_Data"* %12) #10
  %13 = load i8*, i8** %9, align 8
  %14 = getelementptr inbounds i8, i8* %13, i64 %8
  %15 = getelementptr inbounds i8, i8* %14, i64 8
  %16 = bitcast i8* %15 to i32*
  store i32 %1, i32* %16, align 4
  %17 = call i8* @_Znwm(i64 16) #11
  %18 = getelementptr inbounds %"class.base::OnceCallback", %"class.base::OnceCallback"* %2, i64 0, i32 0, i32 0, i32 0
  %19 = bitcast %"class.base::OnceCallback"* %2 to i64*
  %20 = load i64, i64* %19, align 8
  store %"class.base::internal::BindStateBase"* null, %"class.base::internal::BindStateBase"** %18, align 8
  %21 = bitcast i8* %17 to i32 (...)***
  store i32 (...)** bitcast (i8** getelementptr inbounds ({ [6 x i8*] }, { [6 x i8*] }* @_ZTVN11task_module5mojom50TaskModuleHandler_GetPrimaryTask_ForwardToCallbackE, i64 0, inrange i32 0, i64 2) to i32 (...)**), i32 (...)*** %21, align 8
  %22 = getelementptr inbounds i8, i8* %17, i64 8
  %23 = getelementptr inbounds %"class.base::OnceCallback", %"class.base::OnceCallback"* %5, i64 0, i32 0, i32 0, i32 0
  %24 = bitcast i8* %22 to i64*
  store i64 %20, i64* %24, align 8
  store %"class.base::internal::BindStateBase"* null, %"class.base::internal::BindStateBase"** %23, align 8
  %25 = bitcast i8* %17 to %"class.mojo::MessageReceiver"*
  %26 = getelementptr inbounds %"class.base::OnceCallback", %"class.base::OnceCallback"* %5, i64 0, i32 0
  call void @_ZN4base8internal12CallbackBaseD2Ev(%"class.base::internal::CallbackBase"* nonnull %26) #10
  %27 = getelementptr inbounds %"class.task_module::mojom::TaskModuleHandlerProxy", %"class.task_module::mojom::TaskModuleHandlerProxy"* %0, i64 0, i32 1
  %28 = load %"class.mojo::MessageReceiverWithResponder"*, %"class.mojo::MessageReceiverWithResponder"** %27, align 8
  %29 = bitcast %"class.mojo::MessageReceiverWithResponder"* %28 to i1 (%"class.mojo::MessageReceiverWithResponder"*, %"class.mojo::Message"*, %"class.mojo::MessageReceiver"*)***
  %30 = load i1 (%"class.mojo::MessageReceiverWithResponder"*, %"class.mojo::Message"*, %"class.mojo::MessageReceiver"*)**, i1 (%"class.mojo::MessageReceiverWithResponder"*, %"class.mojo::Message"*, %"class.mojo::MessageReceiver"*)*** %29, align 8
  %31 = getelementptr inbounds i1 (%"class.mojo::MessageReceiverWithResponder"*, %"class.mojo::Message"*, %"class.mojo::MessageReceiver"*)*, i1 (%"class.mojo::MessageReceiverWithResponder"*, %"class.mojo::Message"*, %"class.mojo::MessageReceiver"*)** %30, i64 4
  %32 = load i1 (%"class.mojo::MessageReceiverWithResponder"*, %"class.mojo::Message"*, %"class.mojo::MessageReceiver"*)*, i1 (%"class.mojo::MessageReceiverWithResponder"*, %"class.mojo::Message"*, %"class.mojo::MessageReceiver"*)** %31, align 8
  %33 = call zeroext i1 %32(%"class.mojo::MessageReceiverWithResponder"* %28, %"class.mojo::Message"* nonnull %4, %"class.mojo::MessageReceiver"* nonnull %25) #10
  call void @_ZN4mojo7MessageD1Ev(%"class.mojo::Message"* nonnull %4) #10
  call void @llvm.lifetime.end.p0i8(i64 120, i8* nonnull %6) #10
  ret void
}

; Function Attrs: argmemonly nounwind
declare void @llvm.memset.p0i8.i64(i8* nocapture writeonly, i8, i64, i1 immarg) #3

declare void @_ZN4mojo7MessageC1EjjmmPNSt3__16vectorINS_16ScopedHandleBaseINS_6HandleEEENS1_9allocatorIS5_EEEE(%"class.mojo::Message"*, i32, i32, i64, i64, %"class.std::__1::vector"*) unnamed_addr #1

; Function Attrs: nobuiltin nofree
declare noalias nonnull i8* @_Znwm(i64) local_unnamed_addr #5

; Function Attrs: nounwind
declare void @_ZN4base8internal12CallbackBaseD2Ev(%"class.base::internal::CallbackBase"*) unnamed_addr #2

; Function Attrs: nounwind
declare void @_ZN4mojo7MessageD1Ev(%"class.mojo::Message"*) unnamed_addr #2

; Function Attrs: nounwind ssp uwtable
define hidden void @_ZN11task_module5mojom22TaskModuleHandlerProxy11DismissTaskENS0_14TaskModuleTypeERKNSt3__112basic_stringIcNS3_11char_traitsIcEENS3_9allocatorIcEEEE(%"class.task_module::mojom::TaskModuleHandlerProxy"* nocapture readonly, i32, %"class.std::__1::basic_string"* dereferenceable(24)) unnamed_addr #0 align 2 {
  %4 = alloca %"class.mojo::Message", align 8
  %5 = alloca %"class.mojo::internal::MessageFragment.68", align 8
  %6 = bitcast %"class.mojo::Message"* %4 to i8*
  call void @llvm.lifetime.start.p0i8(i64 120, i8* nonnull %6) #10
  call void @llvm.memset.p0i8.i64(i8* nonnull align 8 %6, i8 -86, i64 120, i1 false)
  call void @_ZN4mojo7MessageC1EjjmmPNSt3__16vectorINS_16ScopedHandleBaseINS_6HandleEEENS1_9allocatorIS5_EEEE(%"class.mojo::Message"* nonnull %4, i32 2137003620, i32 0, i64 0, i64 0, %"class.std::__1::vector"* null) #10
  %7 = getelementptr inbounds %"class.mojo::Message", %"class.mojo::Message"* %4, i64 0, i32 1
  %8 = call i64 @_ZN4mojo8internal6Buffer8AllocateEm(%"class.mojo::internal::Buffer"* %7, i64 24) #10
  %9 = getelementptr inbounds %"class.mojo::Message", %"class.mojo::Message"* %4, i64 0, i32 1, i32 2
  %10 = load i8*, i8** %9, align 8
  %11 = getelementptr inbounds i8, i8* %10, i64 %8
  %12 = bitcast i8* %11 to %"class.task_module::mojom::internal::TaskModuleHandler_DismissTask_Params_Data"*
  call void @_ZN11task_module5mojom8internal41TaskModuleHandler_DismissTask_Params_DataC1Ev(%"class.task_module::mojom::internal::TaskModuleHandler_DismissTask_Params_Data"* %12) #10
  %13 = load i8*, i8** %9, align 8
  %14 = getelementptr inbounds i8, i8* %13, i64 %8
  %15 = getelementptr inbounds i8, i8* %14, i64 8
  %16 = bitcast i8* %15 to i32*
  store i32 %1, i32* %16, align 4
  %17 = bitcast %"class.mojo::internal::MessageFragment.68"* %5 to i8*
  call void @llvm.lifetime.start.p0i8(i64 16, i8* nonnull %17) #10
  %18 = getelementptr inbounds %"class.mojo::internal::MessageFragment.68", %"class.mojo::internal::MessageFragment.68"* %5, i64 0, i32 0
  %19 = getelementptr inbounds %"class.mojo::internal::MessageFragment.68", %"class.mojo::internal::MessageFragment.68"* %5, i64 0, i32 1
  store %"class.mojo::Message"* %4, %"class.mojo::Message"** %18, align 8
  store i64 -1, i64* %19, align 8
  call void @_ZN4mojo8internal10SerializerINS_14StringDataViewEKNSt3__112basic_stringIcNS3_11char_traitsIcEENS3_9allocatorIcEEEEE9SerializeERSA_RNS0_15MessageFragmentINS0_10Array_DataIcEEEE(%"class.std::__1::basic_string"* dereferenceable(24) %2, %"class.mojo::internal::MessageFragment.68"* nonnull dereferenceable(16) %5) #10
  %20 = load i8*, i8** %9, align 8
  %21 = getelementptr inbounds i8, i8* %20, i64 %8
  %22 = getelementptr inbounds i8, i8* %21, i64 16
  %23 = load i64, i64* %19, align 8
  %24 = icmp eq i64 %23, -1
  br i1 %24, label %31, label %25

25:                                               ; preds = %3
  %26 = load %"class.mojo::Message"*, %"class.mojo::Message"** %18, align 8
  %27 = getelementptr inbounds %"class.mojo::Message", %"class.mojo::Message"* %26, i64 0, i32 1, i32 2
  %28 = load i8*, i8** %27, align 8
  %29 = getelementptr inbounds i8, i8* %28, i64 %23
  %30 = bitcast i8* %29 to %"class.mojo::internal::Array_Data"*
  br label %31

31:                                               ; preds = %3, %25
  %32 = phi %"class.mojo::internal::Array_Data"* [ %30, %25 ], [ null, %3 ]
  %33 = bitcast i8* %22 to i64*
  %34 = icmp eq %"class.mojo::internal::Array_Data"* %32, null
  %35 = ptrtoint %"class.mojo::internal::Array_Data"* %32 to i64
  %36 = ptrtoint i8* %22 to i64
  %37 = sub i64 %35, %36
  %38 = select i1 %34, i64 0, i64 %37
  store i64 %38, i64* %33, align 8
  %39 = getelementptr inbounds %"class.task_module::mojom::TaskModuleHandlerProxy", %"class.task_module::mojom::TaskModuleHandlerProxy"* %0, i64 0, i32 1
  %40 = bitcast %"class.mojo::MessageReceiverWithResponder"** %39 to %"class.mojo::MessageReceiver"**
  %41 = load %"class.mojo::MessageReceiver"*, %"class.mojo::MessageReceiver"** %40, align 8
  %42 = bitcast %"class.mojo::MessageReceiver"* %41 to i1 (%"class.mojo::MessageReceiver"*, %"class.mojo::Message"*)***
  %43 = load i1 (%"class.mojo::MessageReceiver"*, %"class.mojo::Message"*)**, i1 (%"class.mojo::MessageReceiver"*, %"class.mojo::Message"*)*** %42, align 8
  %44 = getelementptr inbounds i1 (%"class.mojo::MessageReceiver"*, %"class.mojo::Message"*)*, i1 (%"class.mojo::MessageReceiver"*, %"class.mojo::Message"*)** %43, i64 3
  %45 = load i1 (%"class.mojo::MessageReceiver"*, %"class.mojo::Message"*)*, i1 (%"class.mojo::MessageReceiver"*, %"class.mojo::Message"*)** %44, align 8
  %46 = call zeroext i1 %45(%"class.mojo::MessageReceiver"* %41, %"class.mojo::Message"* nonnull %4) #10
  call void @llvm.lifetime.end.p0i8(i64 16, i8* nonnull %17) #10
  call void @_ZN4mojo7MessageD1Ev(%"class.mojo::Message"* nonnull %4) #10
  call void @llvm.lifetime.end.p0i8(i64 120, i8* nonnull %6) #10
  ret void
}

; Function Attrs: nounwind ssp uwtable
define hidden void @_ZN11task_module5mojom22TaskModuleHandlerProxy11RestoreTaskENS0_14TaskModuleTypeERKNSt3__112basic_stringIcNS3_11char_traitsIcEENS3_9allocatorIcEEEE(%"class.task_module::mojom::TaskModuleHandlerProxy"* nocapture readonly, i32, %"class.std::__1::basic_string"* dereferenceable(24)) unnamed_addr #0 align 2 {
  %4 = alloca %"class.mojo::Message", align 8
  %5 = alloca %"class.mojo::internal::MessageFragment.68", align 8
  %6 = bitcast %"class.mojo::Message"* %4 to i8*
  call void @llvm.lifetime.start.p0i8(i64 120, i8* nonnull %6) #10
  call void @llvm.memset.p0i8.i64(i8* nonnull align 8 %6, i8 -86, i64 120, i1 false)
  call void @_ZN4mojo7MessageC1EjjmmPNSt3__16vectorINS_16ScopedHandleBaseINS_6HandleEEENS1_9allocatorIS5_EEEE(%"class.mojo::Message"* nonnull %4, i32 552284697, i32 0, i64 0, i64 0, %"class.std::__1::vector"* null) #10
  %7 = getelementptr inbounds %"class.mojo::Message", %"class.mojo::Message"* %4, i64 0, i32 1
  %8 = call i64 @_ZN4mojo8internal6Buffer8AllocateEm(%"class.mojo::internal::Buffer"* %7, i64 24) #10
  %9 = getelementptr inbounds %"class.mojo::Message", %"class.mojo::Message"* %4, i64 0, i32 1, i32 2
  %10 = load i8*, i8** %9, align 8
  %11 = getelementptr inbounds i8, i8* %10, i64 %8
  %12 = bitcast i8* %11 to %"class.task_module::mojom::internal::TaskModuleHandler_RestoreTask_Params_Data"*
  call void @_ZN11task_module5mojom8internal41TaskModuleHandler_RestoreTask_Params_DataC1Ev(%"class.task_module::mojom::internal::TaskModuleHandler_RestoreTask_Params_Data"* %12) #10
  %13 = load i8*, i8** %9, align 8
  %14 = getelementptr inbounds i8, i8* %13, i64 %8
  %15 = getelementptr inbounds i8, i8* %14, i64 8
  %16 = bitcast i8* %15 to i32*
  store i32 %1, i32* %16, align 4
  %17 = bitcast %"class.mojo::internal::MessageFragment.68"* %5 to i8*
  call void @llvm.lifetime.start.p0i8(i64 16, i8* nonnull %17) #10
  %18 = getelementptr inbounds %"class.mojo::internal::MessageFragment.68", %"class.mojo::internal::MessageFragment.68"* %5, i64 0, i32 0
  %19 = getelementptr inbounds %"class.mojo::internal::MessageFragment.68", %"class.mojo::internal::MessageFragment.68"* %5, i64 0, i32 1
  store %"class.mojo::Message"* %4, %"class.mojo::Message"** %18, align 8
  store i64 -1, i64* %19, align 8
  call void @_ZN4mojo8internal10SerializerINS_14StringDataViewEKNSt3__112basic_stringIcNS3_11char_traitsIcEENS3_9allocatorIcEEEEE9SerializeERSA_RNS0_15MessageFragmentINS0_10Array_DataIcEEEE(%"class.std::__1::basic_string"* dereferenceable(24) %2, %"class.mojo::internal::MessageFragment.68"* nonnull dereferenceable(16) %5) #10
  %20 = load i8*, i8** %9, align 8
  %21 = getelementptr inbounds i8, i8* %20, i64 %8
  %22 = getelementptr inbounds i8, i8* %21, i64 16
  %23 = load i64, i64* %19, align 8
  %24 = icmp eq i64 %23, -1
  br i1 %24, label %31, label %25

25:                                               ; preds = %3
  %26 = load %"class.mojo::Message"*, %"class.mojo::Message"** %18, align 8
  %27 = getelementptr inbounds %"class.mojo::Message", %"class.mojo::Message"* %26, i64 0, i32 1, i32 2
  %28 = load i8*, i8** %27, align 8
  %29 = getelementptr inbounds i8, i8* %28, i64 %23
  %30 = bitcast i8* %29 to %"class.mojo::internal::Array_Data"*
  br label %31

31:                                               ; preds = %3, %25
  %32 = phi %"class.mojo::internal::Array_Data"* [ %30, %25 ], [ null, %3 ]
  %33 = bitcast i8* %22 to i64*
  %34 = icmp eq %"class.mojo::internal::Array_Data"* %32, null
  %35 = ptrtoint %"class.mojo::internal::Array_Data"* %32 to i64
  %36 = ptrtoint i8* %22 to i64
  %37 = sub i64 %35, %36
  %38 = select i1 %34, i64 0, i64 %37
  store i64 %38, i64* %33, align 8
  %39 = getelementptr inbounds %"class.task_module::mojom::TaskModuleHandlerProxy", %"class.task_module::mojom::TaskModuleHandlerProxy"* %0, i64 0, i32 1
  %40 = bitcast %"class.mojo::MessageReceiverWithResponder"** %39 to %"class.mojo::MessageReceiver"**
  %41 = load %"class.mojo::MessageReceiver"*, %"class.mojo::MessageReceiver"** %40, align 8
  %42 = bitcast %"class.mojo::MessageReceiver"* %41 to i1 (%"class.mojo::MessageReceiver"*, %"class.mojo::Message"*)***
  %43 = load i1 (%"class.mojo::MessageReceiver"*, %"class.mojo::Message"*)**, i1 (%"class.mojo::MessageReceiver"*, %"class.mojo::Message"*)*** %42, align 8
  %44 = getelementptr inbounds i1 (%"class.mojo::MessageReceiver"*, %"class.mojo::Message"*)*, i1 (%"class.mojo::MessageReceiver"*, %"class.mojo::Message"*)** %43, i64 3
  %45 = load i1 (%"class.mojo::MessageReceiver"*, %"class.mojo::Message"*)*, i1 (%"class.mojo::MessageReceiver"*, %"class.mojo::Message"*)** %44, align 8
  %46 = call zeroext i1 %45(%"class.mojo::MessageReceiver"* %41, %"class.mojo::Message"* nonnull %4) #10
  call void @llvm.lifetime.end.p0i8(i64 16, i8* nonnull %17) #10
  call void @_ZN4mojo7MessageD1Ev(%"class.mojo::Message"* nonnull %4) #10
  call void @llvm.lifetime.end.p0i8(i64 120, i8* nonnull %6) #10
  ret void
}

; Function Attrs: nounwind ssp uwtable
define hidden void @_ZN11task_module5mojom22TaskModuleHandlerProxy17OnTaskItemClickedENS0_14TaskModuleTypeEj(%"class.task_module::mojom::TaskModuleHandlerProxy"* nocapture readonly, i32, i32) unnamed_addr #0 align 2 {
  %4 = alloca %"class.mojo::Message", align 8
  %5 = bitcast %"class.mojo::Message"* %4 to i8*
  call void @llvm.lifetime.start.p0i8(i64 120, i8* nonnull %5) #10
  call void @llvm.memset.p0i8.i64(i8* nonnull align 8 %5, i8 -86, i64 120, i1 false)
  call void @_ZN4mojo7MessageC1EjjmmPNSt3__16vectorINS_16ScopedHandleBaseINS_6HandleEEENS1_9allocatorIS5_EEEE(%"class.mojo::Message"* nonnull %4, i32 648967778, i32 0, i64 0, i64 0, %"class.std::__1::vector"* null) #10
  %6 = getelementptr inbounds %"class.mojo::Message", %"class.mojo::Message"* %4, i64 0, i32 1
  %7 = call i64 @_ZN4mojo8internal6Buffer8AllocateEm(%"class.mojo::internal::Buffer"* %6, i64 16) #10
  %8 = getelementptr inbounds %"class.mojo::Message", %"class.mojo::Message"* %4, i64 0, i32 1, i32 2
  %9 = load i8*, i8** %8, align 8
  %10 = getelementptr inbounds i8, i8* %9, i64 %7
  %11 = bitcast i8* %10 to %"class.task_module::mojom::internal::TaskModuleHandler_OnTaskItemClicked_Params_Data"*
  call void @_ZN11task_module5mojom8internal47TaskModuleHandler_OnTaskItemClicked_Params_DataC1Ev(%"class.task_module::mojom::internal::TaskModuleHandler_OnTaskItemClicked_Params_Data"* %11) #10
  %12 = load i8*, i8** %8, align 8
  %13 = getelementptr inbounds i8, i8* %12, i64 %7
  %14 = getelementptr inbounds i8, i8* %13, i64 8
  %15 = bitcast i8* %14 to i32*
  store i32 %1, i32* %15, align 4
  %16 = load i8*, i8** %8, align 8
  %17 = getelementptr inbounds i8, i8* %16, i64 %7
  %18 = getelementptr inbounds i8, i8* %17, i64 12
  %19 = bitcast i8* %18 to i32*
  store i32 %2, i32* %19, align 4
  %20 = getelementptr inbounds %"class.task_module::mojom::TaskModuleHandlerProxy", %"class.task_module::mojom::TaskModuleHandlerProxy"* %0, i64 0, i32 1
  %21 = bitcast %"class.mojo::MessageReceiverWithResponder"** %20 to %"class.mojo::MessageReceiver"**
  %22 = load %"class.mojo::MessageReceiver"*, %"class.mojo::MessageReceiver"** %21, align 8
  %23 = bitcast %"class.mojo::MessageReceiver"* %22 to i1 (%"class.mojo::MessageReceiver"*, %"class.mojo::Message"*)***
  %24 = load i1 (%"class.mojo::MessageReceiver"*, %"class.mojo::Message"*)**, i1 (%"class.mojo::MessageReceiver"*, %"class.mojo::Message"*)*** %23, align 8
  %25 = getelementptr inbounds i1 (%"class.mojo::MessageReceiver"*, %"class.mojo::Message"*)*, i1 (%"class.mojo::MessageReceiver"*, %"class.mojo::Message"*)** %24, i64 3
  %26 = load i1 (%"class.mojo::MessageReceiver"*, %"class.mojo::Message"*)*, i1 (%"class.mojo::MessageReceiver"*, %"class.mojo::Message"*)** %25, align 8
  %27 = call zeroext i1 %26(%"class.mojo::MessageReceiver"* %22, %"class.mojo::Message"* nonnull %4) #10
  call void @_ZN4mojo7MessageD1Ev(%"class.mojo::Message"* nonnull %4) #10
  call void @llvm.lifetime.end.p0i8(i64 120, i8* nonnull %5) #10
  ret void
}

; Function Attrs: nounwind ssp uwtable
define hidden void @_ZN11task_module5mojom22TaskModuleHandlerProxy22OnRelatedSearchClickedENS0_14TaskModuleTypeEj(%"class.task_module::mojom::TaskModuleHandlerProxy"* nocapture readonly, i32, i32) unnamed_addr #0 align 2 {
  %4 = alloca %"class.mojo::Message", align 8
  %5 = bitcast %"class.mojo::Message"* %4 to i8*
  call void @llvm.lifetime.start.p0i8(i64 120, i8* nonnull %5) #10
  call void @llvm.memset.p0i8.i64(i8* nonnull align 8 %5, i8 -86, i64 120, i1 false)
  call void @_ZN4mojo7MessageC1EjjmmPNSt3__16vectorINS_16ScopedHandleBaseINS_6HandleEEENS1_9allocatorIS5_EEEE(%"class.mojo::Message"* nonnull %4, i32 1104244522, i32 0, i64 0, i64 0, %"class.std::__1::vector"* null) #10
  %6 = getelementptr inbounds %"class.mojo::Message", %"class.mojo::Message"* %4, i64 0, i32 1
  %7 = call i64 @_ZN4mojo8internal6Buffer8AllocateEm(%"class.mojo::internal::Buffer"* %6, i64 16) #10
  %8 = getelementptr inbounds %"class.mojo::Message", %"class.mojo::Message"* %4, i64 0, i32 1, i32 2
  %9 = load i8*, i8** %8, align 8
  %10 = getelementptr inbounds i8, i8* %9, i64 %7
  %11 = bitcast i8* %10 to %"class.task_module::mojom::internal::TaskModuleHandler_OnRelatedSearchClicked_Params_Data"*
  call void @_ZN11task_module5mojom8internal52TaskModuleHandler_OnRelatedSearchClicked_Params_DataC1Ev(%"class.task_module::mojom::internal::TaskModuleHandler_OnRelatedSearchClicked_Params_Data"* %11) #10
  %12 = load i8*, i8** %8, align 8
  %13 = getelementptr inbounds i8, i8* %12, i64 %7
  %14 = getelementptr inbounds i8, i8* %13, i64 8
  %15 = bitcast i8* %14 to i32*
  store i32 %1, i32* %15, align 4
  %16 = load i8*, i8** %8, align 8
  %17 = getelementptr inbounds i8, i8* %16, i64 %7
  %18 = getelementptr inbounds i8, i8* %17, i64 12
  %19 = bitcast i8* %18 to i32*
  store i32 %2, i32* %19, align 4
  %20 = getelementptr inbounds %"class.task_module::mojom::TaskModuleHandlerProxy", %"class.task_module::mojom::TaskModuleHandlerProxy"* %0, i64 0, i32 1
  %21 = bitcast %"class.mojo::MessageReceiverWithResponder"** %20 to %"class.mojo::MessageReceiver"**
  %22 = load %"class.mojo::MessageReceiver"*, %"class.mojo::MessageReceiver"** %21, align 8
  %23 = bitcast %"class.mojo::MessageReceiver"* %22 to i1 (%"class.mojo::MessageReceiver"*, %"class.mojo::Message"*)***
  %24 = load i1 (%"class.mojo::MessageReceiver"*, %"class.mojo::Message"*)**, i1 (%"class.mojo::MessageReceiver"*, %"class.mojo::Message"*)*** %23, align 8
  %25 = getelementptr inbounds i1 (%"class.mojo::MessageReceiver"*, %"class.mojo::Message"*)*, i1 (%"class.mojo::MessageReceiver"*, %"class.mojo::Message"*)** %24, i64 3
  %26 = load i1 (%"class.mojo::MessageReceiver"*, %"class.mojo::Message"*)*, i1 (%"class.mojo::MessageReceiver"*, %"class.mojo::Message"*)** %25, align 8
  %27 = call zeroext i1 %26(%"class.mojo::MessageReceiver"* %22, %"class.mojo::Message"* nonnull %4) #10
  call void @_ZN4mojo7MessageD1Ev(%"class.mojo::Message"* nonnull %4) #10
  call void @llvm.lifetime.end.p0i8(i64 120, i8* nonnull %5) #10
  ret void
}

; Function Attrs: nounwind ssp uwtable
define hidden zeroext i1 @_ZN11task_module5mojom50TaskModuleHandler_GetPrimaryTask_ForwardToCallback6AcceptEPN4mojo7MessageE(%"class.task_module::mojom::TaskModuleHandler_GetPrimaryTask_ForwardToCallback"* nocapture, %"class.mojo::Message"*) unnamed_addr #0 align 2 {
  %3 = alloca %"class.base::OnceCallback", align 8
  %4 = alloca %"class.mojo::StructPtr.73", align 8
  %5 = alloca %"class.mojo::StructPtr.73", align 8
  %6 = tail call i8* @_ZNK4mojo7Message7payloadEv(%"class.mojo::Message"* %1) #10
  %7 = bitcast %"class.mojo::StructPtr.73"* %4 to i8*
  call void @llvm.lifetime.start.p0i8(i64 8, i8* nonnull %7) #10
  %8 = getelementptr inbounds %"class.mojo::StructPtr.73", %"class.mojo::StructPtr.73"* %4, i64 0, i32 0, i32 0, i32 0, i32 0
  %9 = bitcast %"class.mojo::StructPtr.73"* %4 to i64*
  store i64 0, i64* %9, align 8
  %10 = getelementptr inbounds i8, i8* %6, i64 8
  %11 = bitcast i8* %10 to i64*
  %12 = load i64, i64* %11, align 8
  %13 = icmp eq i64 %12, 0
  br i1 %13, label %14, label %15

14:                                               ; preds = %2
  store %"class.task_module::mojom::Task"* null, %"class.task_module::mojom::Task"** %8, align 8
  br label %20

15:                                               ; preds = %2
  %16 = getelementptr inbounds i8, i8* %10, i64 %12
  %17 = bitcast i8* %16 to %"class.task_module::mojom::internal::Task_Data"*
  %18 = call zeroext i1 @_ZN4mojo12StructTraitsIN11task_module5mojom12TaskDataViewENS_9StructPtrINS2_4TaskEEEE4ReadES3_PS6_(%"class.task_module::mojom::internal::Task_Data"* nonnull %17, %"class.mojo::Message"* %1, %"class.mojo::StructPtr.73"* nonnull %4) #10
  br i1 %18, label %20, label %19

19:                                               ; preds = %15
  tail call void @_ZN4mojo8internal31ReportValidationErrorForMessageEPNS_7MessageENS0_15ValidationErrorEPKcjb(%"class.mojo::Message"* %1, i32 17, i8* getelementptr inbounds ([36 x i8], [36 x i8]* @_ZN11task_module5mojom17TaskModuleHandler5Name_E, i64 0, i64 0), i32 0, i1 zeroext true) #10
  br label %39

20:                                               ; preds = %14, %15
  %21 = getelementptr inbounds %"class.task_module::mojom::TaskModuleHandler_GetPrimaryTask_ForwardToCallback", %"class.task_module::mojom::TaskModuleHandler_GetPrimaryTask_ForwardToCallback"* %0, i64 0, i32 1, i32 0, i32 0, i32 0
  %22 = load %"class.base::internal::BindStateBase"*, %"class.base::internal::BindStateBase"** %21, align 8
  %23 = icmp eq %"class.base::internal::BindStateBase"* %22, null
  br i1 %23, label %39, label %24

24:                                               ; preds = %20
  %25 = ptrtoint %"class.base::internal::BindStateBase"* %22 to i64
  %26 = bitcast %"class.mojo::StructPtr.73"* %5 to i64*
  %27 = getelementptr inbounds %"class.mojo::StructPtr.73", %"class.mojo::StructPtr.73"* %5, i64 0, i32 0, i32 0, i32 0, i32 0
  %28 = load i64, i64* %9, align 8
  store i64 %28, i64* %26, align 8
  store i64 0, i64* %9, align 8
  %29 = bitcast %"class.base::OnceCallback"* %3 to i8*
  call void @llvm.lifetime.start.p0i8(i64 8, i8* nonnull %29) #10
  %30 = bitcast %"class.base::OnceCallback"* %3 to i64*
  store i64 %25, i64* %30, align 8
  store %"class.base::internal::BindStateBase"* null, %"class.base::internal::BindStateBase"** %21, align 8
  %31 = getelementptr inbounds %"class.base::OnceCallback", %"class.base::OnceCallback"* %3, i64 0, i32 0
  %32 = getelementptr inbounds %"class.base::internal::BindStateBase", %"class.base::internal::BindStateBase"* %22, i64 0, i32 1
  %33 = bitcast void ()** %32 to void (%"class.base::internal::BindStateBase"*, %"class.mojo::StructPtr.73"*)**
  %34 = load void (%"class.base::internal::BindStateBase"*, %"class.mojo::StructPtr.73"*)*, void (%"class.base::internal::BindStateBase"*, %"class.mojo::StructPtr.73"*)** %33, align 8
  call void %34(%"class.base::internal::BindStateBase"* nonnull %22, %"class.mojo::StructPtr.73"* nonnull dereferenceable(8) %5) #10
  call void @_ZN4base8internal12CallbackBaseD2Ev(%"class.base::internal::CallbackBase"* nonnull %31) #10
  call void @llvm.lifetime.end.p0i8(i64 8, i8* nonnull %29) #10
  %35 = load %"class.task_module::mojom::Task"*, %"class.task_module::mojom::Task"** %27, align 8
  store %"class.task_module::mojom::Task"* null, %"class.task_module::mojom::Task"** %27, align 8
  %36 = icmp eq %"class.task_module::mojom::Task"* %35, null
  br i1 %36, label %39, label %37

37:                                               ; preds = %24
  call void @_ZN11task_module5mojom4TaskD2Ev(%"class.task_module::mojom::Task"* nonnull %35) #10
  %38 = bitcast %"class.task_module::mojom::Task"* %35 to i8*
  call void @_ZdlPv(i8* %38) #11
  br label %39

39:                                               ; preds = %37, %24, %20, %19
  %40 = phi i1 [ false, %19 ], [ true, %20 ], [ true, %24 ], [ true, %37 ]
  %41 = load %"class.task_module::mojom::Task"*, %"class.task_module::mojom::Task"** %8, align 8
  store %"class.task_module::mojom::Task"* null, %"class.task_module::mojom::Task"** %8, align 8
  %42 = icmp eq %"class.task_module::mojom::Task"* %41, null
  br i1 %42, label %45, label %43

43:                                               ; preds = %39
  call void @_ZN11task_module5mojom4TaskD2Ev(%"class.task_module::mojom::Task"* nonnull %41) #10
  %44 = bitcast %"class.task_module::mojom::Task"* %41 to i8*
  call void @_ZdlPv(i8* %44) #11
  br label %45

45:                                               ; preds = %39, %43
  call void @llvm.lifetime.end.p0i8(i64 8, i8* nonnull %7) #10
  ret i1 %40
}

declare void @_ZN4mojo8internal31ReportValidationErrorForMessageEPNS_7MessageENS0_15ValidationErrorEPKcjb(%"class.mojo::Message"*, i32, i8*, i32, i1 zeroext) local_unnamed_addr #1

; Function Attrs: nounwind ssp uwtable
define hidden void @_ZN11task_module5mojom49TaskModuleHandler_GetPrimaryTask_ProxyToResponder3RunEN4mojo9StructPtrINS0_4TaskEEE(%"class.task_module::mojom::TaskModuleHandler_GetPrimaryTask_ProxyToResponder"* nocapture, %"class.mojo::StructPtr.73"*) #0 align 2 {
  %3 = alloca %"class.mojo::Message", align 8
  %4 = alloca %"class.mojo::internal::MessageFragment.87", align 8
  %5 = getelementptr inbounds %"class.task_module::mojom::TaskModuleHandler_GetPrimaryTask_ProxyToResponder", %"class.task_module::mojom::TaskModuleHandler_GetPrimaryTask_ProxyToResponder"* %0, i64 0, i32 1
  %6 = load i8, i8* %5, align 8, !range !2
  %7 = icmp eq i8 %6, 0
  %8 = select i1 %7, i32 2, i32 6
  %9 = bitcast %"class.mojo::Message"* %3 to i8*
  call void @llvm.lifetime.start.p0i8(i64 120, i8* nonnull %9) #10
  call void @llvm.memset.p0i8.i64(i8* nonnull align 8 %9, i8 -86, i64 120, i1 false)
  call void @_ZN4mojo7MessageC1EjjmmPNSt3__16vectorINS_16ScopedHandleBaseINS_6HandleEEENS1_9allocatorIS5_EEEE(%"class.mojo::Message"* nonnull %3, i32 38747746, i32 %8, i64 0, i64 0, %"class.std::__1::vector"* null) #10
  %10 = getelementptr inbounds %"class.mojo::Message", %"class.mojo::Message"* %3, i64 0, i32 1
  %11 = call i64 @_ZN4mojo8internal6Buffer8AllocateEm(%"class.mojo::internal::Buffer"* %10, i64 16) #10
  %12 = getelementptr inbounds %"class.mojo::Message", %"class.mojo::Message"* %3, i64 0, i32 1, i32 2
  %13 = load i8*, i8** %12, align 8
  %14 = getelementptr inbounds i8, i8* %13, i64 %11
  %15 = bitcast i8* %14 to %"class.task_module::mojom::internal::TaskModuleHandler_GetPrimaryTask_ResponseParams_Data"*
  call void @_ZN11task_module5mojom8internal52TaskModuleHandler_GetPrimaryTask_ResponseParams_DataC1Ev(%"class.task_module::mojom::internal::TaskModuleHandler_GetPrimaryTask_ResponseParams_Data"* %15) #10
  %16 = bitcast %"class.mojo::internal::MessageFragment.87"* %4 to i8*
  call void @llvm.lifetime.start.p0i8(i64 16, i8* nonnull %16) #10
  %17 = getelementptr inbounds %"class.mojo::internal::MessageFragment.87", %"class.mojo::internal::MessageFragment.87"* %4, i64 0, i32 0
  %18 = getelementptr inbounds %"class.mojo::internal::MessageFragment.87", %"class.mojo::internal::MessageFragment.87"* %4, i64 0, i32 1
  store %"class.mojo::Message"* %3, %"class.mojo::Message"** %17, align 8
  store i64 -1, i64* %18, align 8
  call void @_ZN4mojo8internal10SerializerIN11task_module5mojom12TaskDataViewENS_9StructPtrINS3_4TaskEEEE9SerializeERS7_RNS0_15MessageFragmentINS3_8internal9Task_DataEEE(%"class.mojo::StructPtr.73"* dereferenceable(8) %1, %"class.mojo::internal::MessageFragment.87"* nonnull dereferenceable(16) %4) #10
  %19 = load i8*, i8** %12, align 8
  %20 = getelementptr inbounds i8, i8* %19, i64 %11
  %21 = getelementptr inbounds i8, i8* %20, i64 8
  %22 = load i64, i64* %18, align 8
  %23 = icmp eq i64 %22, -1
  br i1 %23, label %30, label %24

24:                                               ; preds = %2
  %25 = load %"class.mojo::Message"*, %"class.mojo::Message"** %17, align 8
  %26 = getelementptr inbounds %"class.mojo::Message", %"class.mojo::Message"* %25, i64 0, i32 1, i32 2
  %27 = load i8*, i8** %26, align 8
  %28 = getelementptr inbounds i8, i8* %27, i64 %22
  %29 = bitcast i8* %28 to %"class.task_module::mojom::internal::Task_Data"*
  br label %30

30:                                               ; preds = %2, %24
  %31 = phi %"class.task_module::mojom::internal::Task_Data"* [ %29, %24 ], [ null, %2 ]
  %32 = bitcast i8* %21 to i64*
  %33 = icmp eq %"class.task_module::mojom::internal::Task_Data"* %31, null
  %34 = ptrtoint %"class.task_module::mojom::internal::Task_Data"* %31 to i64
  %35 = ptrtoint i8* %21 to i64
  %36 = sub i64 %34, %35
  %37 = select i1 %33, i64 0, i64 %36
  store i64 %37, i64* %32, align 8
  %38 = getelementptr inbounds %"class.task_module::mojom::TaskModuleHandler_GetPrimaryTask_ProxyToResponder", %"class.task_module::mojom::TaskModuleHandler_GetPrimaryTask_ProxyToResponder"* %0, i64 0, i32 0
  %39 = load i64, i64* %38, align 8
  %40 = bitcast i8** %12 to %"struct.mojo::internal::MessageHeaderV1"**
  %41 = load %"struct.mojo::internal::MessageHeaderV1"*, %"struct.mojo::internal::MessageHeaderV1"** %40, align 8
  %42 = getelementptr inbounds %"struct.mojo::internal::MessageHeaderV1", %"struct.mojo::internal::MessageHeaderV1"* %41, i64 0, i32 1
  store i64 %39, i64* %42, align 1
  %43 = getelementptr inbounds %"class.task_module::mojom::TaskModuleHandler_GetPrimaryTask_ProxyToResponder", %"class.task_module::mojom::TaskModuleHandler_GetPrimaryTask_ProxyToResponder"* %0, i64 0, i32 2, i32 0, i32 0, i32 0
  %44 = load %"class.mojo::MessageReceiverWithStatus"*, %"class.mojo::MessageReceiverWithStatus"** %43, align 8
  %45 = getelementptr inbounds %"class.mojo::MessageReceiverWithStatus", %"class.mojo::MessageReceiverWithStatus"* %44, i64 0, i32 0
  %46 = bitcast %"class.mojo::MessageReceiverWithStatus"* %44 to i1 (%"class.mojo::MessageReceiver"*, %"class.mojo::Message"*)***
  %47 = load i1 (%"class.mojo::MessageReceiver"*, %"class.mojo::Message"*)**, i1 (%"class.mojo::MessageReceiver"*, %"class.mojo::Message"*)*** %46, align 8
  %48 = getelementptr inbounds i1 (%"class.mojo::MessageReceiver"*, %"class.mojo::Message"*)*, i1 (%"class.mojo::MessageReceiver"*, %"class.mojo::Message"*)** %47, i64 3
  %49 = load i1 (%"class.mojo::MessageReceiver"*, %"class.mojo::Message"*)*, i1 (%"class.mojo::MessageReceiver"*, %"class.mojo::Message"*)** %48, align 8
  %50 = call zeroext i1 %49(%"class.mojo::MessageReceiver"* %45, %"class.mojo::Message"* nonnull %3) #10
  %51 = load %"class.mojo::MessageReceiverWithStatus"*, %"class.mojo::MessageReceiverWithStatus"** %43, align 8
  store %"class.mojo::MessageReceiverWithStatus"* null, %"class.mojo::MessageReceiverWithStatus"** %43, align 8
  %52 = icmp eq %"class.mojo::MessageReceiverWithStatus"* %51, null
  br i1 %52, label %58, label %53

53:                                               ; preds = %30
  %54 = bitcast %"class.mojo::MessageReceiverWithStatus"* %51 to void (%"class.mojo::MessageReceiverWithStatus"*)***
  %55 = load void (%"class.mojo::MessageReceiverWithStatus"*)**, void (%"class.mojo::MessageReceiverWithStatus"*)*** %54, align 8
  %56 = getelementptr inbounds void (%"class.mojo::MessageReceiverWithStatus"*)*, void (%"class.mojo::MessageReceiverWithStatus"*)** %55, i64 1
  %57 = load void (%"class.mojo::MessageReceiverWithStatus"*)*, void (%"class.mojo::MessageReceiverWithStatus"*)** %56, align 8
  call void %57(%"class.mojo::MessageReceiverWithStatus"* nonnull %51) #10
  br label %58

58:                                               ; preds = %30, %53
  call void @llvm.lifetime.end.p0i8(i64 16, i8* nonnull %16) #10
  call void @_ZN4mojo7MessageD1Ev(%"class.mojo::Message"* nonnull %3) #10
  call void @llvm.lifetime.end.p0i8(i64 120, i8* nonnull %9) #10
  ret void
}

; Function Attrs: nounwind ssp uwtable
define hidden zeroext i1 @_ZN11task_module5mojom29TaskModuleHandlerStubDispatch6AcceptEPNS0_17TaskModuleHandlerEPN4mojo7MessageE(%"class.task_module::mojom::TaskModuleHandler"*, %"class.mojo::Message"*) local_unnamed_addr #0 align 2 {
  %3 = alloca %"class.base::TaskAnnotator::ScopedSetIpcHash", align 8
  %4 = alloca %"class.std::__1::basic_string", align 8
  %5 = alloca %"class.base::TaskAnnotator::ScopedSetIpcHash", align 8
  %6 = alloca %"class.std::__1::basic_string", align 8
  %7 = alloca %"class.base::TaskAnnotator::ScopedSetIpcHash", align 8
  %8 = alloca %"class.base::TaskAnnotator::ScopedSetIpcHash", align 8
  %9 = getelementptr inbounds %"class.mojo::Message", %"class.mojo::Message"* %1, i64 0, i32 1, i32 2
  %10 = bitcast i8** %9 to %"struct.mojo::internal::MessageHeader"**
  %11 = load %"struct.mojo::internal::MessageHeader"*, %"struct.mojo::internal::MessageHeader"** %10, align 8
  %12 = getelementptr inbounds %"struct.mojo::internal::MessageHeader", %"struct.mojo::internal::MessageHeader"* %11, i64 0, i32 2
  %13 = load i32, i32* %12, align 1
  switch i32 %13, label %159 [
    i32 1104244522, label %143
    i32 2137003620, label %14
    i32 552284697, label %72
    i32 648967778, label %130
  ]

14:                                               ; preds = %2
  %15 = bitcast %"class.base::TaskAnnotator::ScopedSetIpcHash"* %3 to i8*
  call void @llvm.lifetime.start.p0i8(i64 24, i8* nonnull %15) #10
  call void @llvm.memset.p0i8.i64(i8* nonnull align 8 %15, i8 -86, i64 24, i1 false)
  call void @_ZN4base13TaskAnnotator16ScopedSetIpcHashC1Ej(%"class.base::TaskAnnotator::ScopedSetIpcHash"* nonnull %3, i32 -253063140) #10
  %16 = call i8* @_ZNK4mojo7Message7payloadEv(%"class.mojo::Message"* %1) #10
  %17 = bitcast %"class.std::__1::basic_string"* %4 to i8*
  call void @llvm.lifetime.start.p0i8(i64 24, i8* nonnull %17) #10
  %18 = getelementptr inbounds %"class.std::__1::basic_string", %"class.std::__1::basic_string"* %4, i64 0, i32 0, i32 0, i32 0, i32 0, i32 0, i32 0
  %19 = getelementptr inbounds %"class.std::__1::basic_string", %"class.std::__1::basic_string"* %4, i64 0, i32 0, i32 0, i32 0, i32 0, i32 0, i32 1
  call void @llvm.memset.p0i8.i64(i8* nonnull align 8 %17, i8 0, i64 24, i1 false) #10
  %20 = getelementptr inbounds i8, i8* %16, i64 8
  %21 = bitcast i8* %20 to i32*
  %22 = load i32, i32* %21, align 4
  %23 = getelementptr inbounds i8, i8* %16, i64 16
  %24 = bitcast i8* %23 to i64*
  %25 = load i64, i64* %24, align 8
  %26 = icmp eq i64 %25, 0
  %27 = getelementptr inbounds i8, i8* %23, i64 %25
  br i1 %26, label %60, label %28

28:                                               ; preds = %14
  %29 = getelementptr inbounds i8, i8* %27, i64 8
  %30 = getelementptr inbounds i8, i8* %27, i64 4
  %31 = bitcast i8* %30 to i32*
  %32 = load i32, i32* %31, align 1
  %33 = zext i32 %32 to i64
  %34 = call i1 @llvm.is.constant.i64(i64 %33) #10
  %35 = icmp ult i32 %32, 23
  %36 = and i1 %35, %34
  br i1 %36, label %37, label %45

37:                                               ; preds = %28
  %38 = bitcast %"class.std::__1::basic_string"* %4 to %"struct.std::__1::basic_string<char, std::__1::char_traits<char>, std::__1::allocator<char> >::__short"*
  %39 = getelementptr inbounds %"struct.std::__1::basic_string<char, std::__1::char_traits<char>, std::__1::allocator<char> >::__short", %"struct.std::__1::basic_string<char, std::__1::char_traits<char>, std::__1::allocator<char> >::__short"* %38, i64 0, i32 1, i32 0
  %40 = trunc i32 %32 to i8
  store i8 %40, i8* %39, align 1
  %41 = icmp eq i32 %32, 0
  br i1 %41, label %43, label %42

42:                                               ; preds = %37
  call void @llvm.memmove.p0i8.p0i8.i64(i8* nonnull align 8 %17, i8* align 1 %29, i64 %33, i1 false) #10
  br label %43

43:                                               ; preds = %42, %37
  %44 = getelementptr inbounds i8, i8* %17, i64 %33
  store i8 0, i8* %44, align 1
  br label %48

45:                                               ; preds = %28
  %46 = call dereferenceable(24) %"class.std::__1::basic_string"* @_ZNSt3__112basic_stringIcNS_11char_traitsIcEENS_9allocatorIcEEE17__assign_externalEPKcm(%"class.std::__1::basic_string"* nonnull %4, i8* %29, i64 %33) #10
  %47 = bitcast %"class.std::__1::basic_string"* %4 to %"struct.std::__1::basic_string<char, std::__1::char_traits<char>, std::__1::allocator<char> >::__short"*
  br label %48

48:                                               ; preds = %45, %43
  %49 = phi %"struct.std::__1::basic_string<char, std::__1::char_traits<char>, std::__1::allocator<char> >::__short"* [ %47, %45 ], [ %38, %43 ]
  %50 = getelementptr inbounds %"struct.std::__1::basic_string<char, std::__1::char_traits<char>, std::__1::allocator<char> >::__short", %"struct.std::__1::basic_string<char, std::__1::char_traits<char>, std::__1::allocator<char> >::__short"* %49, i64 0, i32 1, i32 0
  %51 = load i8, i8* %50, align 1
  %52 = icmp slt i8 %51, 0
  %53 = load i8*, i8** %18, align 8
  %54 = select i1 %52, i8* %53, i8* %17
  %55 = load i64, i64* %19, align 8
  %56 = zext i8 %51 to i64
  %57 = select i1 %52, i64 %55, i64 %56
  %58 = call zeroext i1 @_ZN4base12IsStringUTF8ENS_16BasicStringPieceIcNSt3__111char_traitsIcEEEE(i8* %54, i64 %57) #10
  br i1 %58, label %60, label %59

59:                                               ; preds = %48
  call void @_ZN4mojo8internal34RecordInvalidStringDeserializationEv() #10
  br label %60

60:                                               ; preds = %59, %48, %14
  %61 = bitcast %"class.task_module::mojom::TaskModuleHandler"* %0 to void (%"class.task_module::mojom::TaskModuleHandler"*, i32, %"class.std::__1::basic_string"*)***
  %62 = load void (%"class.task_module::mojom::TaskModuleHandler"*, i32, %"class.std::__1::basic_string"*)**, void (%"class.task_module::mojom::TaskModuleHandler"*, i32, %"class.std::__1::basic_string"*)*** %61, align 8
  %63 = getelementptr inbounds void (%"class.task_module::mojom::TaskModuleHandler"*, i32, %"class.std::__1::basic_string"*)*, void (%"class.task_module::mojom::TaskModuleHandler"*, i32, %"class.std::__1::basic_string"*)** %62, i64 3
  %64 = load void (%"class.task_module::mojom::TaskModuleHandler"*, i32, %"class.std::__1::basic_string"*)*, void (%"class.task_module::mojom::TaskModuleHandler"*, i32, %"class.std::__1::basic_string"*)** %63, align 8
  call void %64(%"class.task_module::mojom::TaskModuleHandler"* %0, i32 %22, %"class.std::__1::basic_string"* nonnull dereferenceable(24) %4) #10
  %65 = bitcast %"class.std::__1::basic_string"* %4 to %"struct.std::__1::basic_string<char, std::__1::char_traits<char>, std::__1::allocator<char> >::__short"*
  %66 = getelementptr inbounds %"struct.std::__1::basic_string<char, std::__1::char_traits<char>, std::__1::allocator<char> >::__short", %"struct.std::__1::basic_string<char, std::__1::char_traits<char>, std::__1::allocator<char> >::__short"* %65, i64 0, i32 1, i32 0
  %67 = load i8, i8* %66, align 1
  %68 = icmp slt i8 %67, 0
  br i1 %68, label %69, label %71

69:                                               ; preds = %60
  %70 = load i8*, i8** %18, align 8
  call void @_ZdlPv(i8* %70) #11
  br label %71

71:                                               ; preds = %60, %69
  call void @llvm.lifetime.end.p0i8(i64 24, i8* nonnull %17) #10
  br label %156

72:                                               ; preds = %2
  %73 = bitcast %"class.base::TaskAnnotator::ScopedSetIpcHash"* %5 to i8*
  call void @llvm.lifetime.start.p0i8(i64 24, i8* nonnull %73) #10
  call void @llvm.memset.p0i8.i64(i8* nonnull align 8 %73, i8 -86, i64 24, i1 false)
  call void @_ZN4base13TaskAnnotator16ScopedSetIpcHashC1Ej(%"class.base::TaskAnnotator::ScopedSetIpcHash"* nonnull %5, i32 2025687520) #10
  %74 = call i8* @_ZNK4mojo7Message7payloadEv(%"class.mojo::Message"* %1) #10
  %75 = bitcast %"class.std::__1::basic_string"* %6 to i8*
  call void @llvm.lifetime.start.p0i8(i64 24, i8* nonnull %75) #10
  %76 = getelementptr inbounds %"class.std::__1::basic_string", %"class.std::__1::basic_string"* %6, i64 0, i32 0, i32 0, i32 0, i32 0, i32 0, i32 0
  %77 = getelementptr inbounds %"class.std::__1::basic_string", %"class.std::__1::basic_string"* %6, i64 0, i32 0, i32 0, i32 0, i32 0, i32 0, i32 1
  call void @llvm.memset.p0i8.i64(i8* nonnull align 8 %75, i8 0, i64 24, i1 false) #10
  %78 = getelementptr inbounds i8, i8* %74, i64 8
  %79 = bitcast i8* %78 to i32*
  %80 = load i32, i32* %79, align 4
  %81 = getelementptr inbounds i8, i8* %74, i64 16
  %82 = bitcast i8* %81 to i64*
  %83 = load i64, i64* %82, align 8
  %84 = icmp eq i64 %83, 0
  %85 = getelementptr inbounds i8, i8* %81, i64 %83
  br i1 %84, label %118, label %86

86:                                               ; preds = %72
  %87 = getelementptr inbounds i8, i8* %85, i64 8
  %88 = getelementptr inbounds i8, i8* %85, i64 4
  %89 = bitcast i8* %88 to i32*
  %90 = load i32, i32* %89, align 1
  %91 = zext i32 %90 to i64
  %92 = call i1 @llvm.is.constant.i64(i64 %91) #10
  %93 = icmp ult i32 %90, 23
  %94 = and i1 %93, %92
  br i1 %94, label %95, label %103

95:                                               ; preds = %86
  %96 = bitcast %"class.std::__1::basic_string"* %6 to %"struct.std::__1::basic_string<char, std::__1::char_traits<char>, std::__1::allocator<char> >::__short"*
  %97 = getelementptr inbounds %"struct.std::__1::basic_string<char, std::__1::char_traits<char>, std::__1::allocator<char> >::__short", %"struct.std::__1::basic_string<char, std::__1::char_traits<char>, std::__1::allocator<char> >::__short"* %96, i64 0, i32 1, i32 0
  %98 = trunc i32 %90 to i8
  store i8 %98, i8* %97, align 1
  %99 = icmp eq i32 %90, 0
  br i1 %99, label %101, label %100

100:                                              ; preds = %95
  call void @llvm.memmove.p0i8.p0i8.i64(i8* nonnull align 8 %75, i8* align 1 %87, i64 %91, i1 false) #10
  br label %101

101:                                              ; preds = %100, %95
  %102 = getelementptr inbounds i8, i8* %75, i64 %91
  store i8 0, i8* %102, align 1
  br label %106

103:                                              ; preds = %86
  %104 = call dereferenceable(24) %"class.std::__1::basic_string"* @_ZNSt3__112basic_stringIcNS_11char_traitsIcEENS_9allocatorIcEEE17__assign_externalEPKcm(%"class.std::__1::basic_string"* nonnull %6, i8* %87, i64 %91) #10
  %105 = bitcast %"class.std::__1::basic_string"* %6 to %"struct.std::__1::basic_string<char, std::__1::char_traits<char>, std::__1::allocator<char> >::__short"*
  br label %106

106:                                              ; preds = %103, %101
  %107 = phi %"struct.std::__1::basic_string<char, std::__1::char_traits<char>, std::__1::allocator<char> >::__short"* [ %105, %103 ], [ %96, %101 ]
  %108 = getelementptr inbounds %"struct.std::__1::basic_string<char, std::__1::char_traits<char>, std::__1::allocator<char> >::__short", %"struct.std::__1::basic_string<char, std::__1::char_traits<char>, std::__1::allocator<char> >::__short"* %107, i64 0, i32 1, i32 0
  %109 = load i8, i8* %108, align 1
  %110 = icmp slt i8 %109, 0
  %111 = load i8*, i8** %76, align 8
  %112 = select i1 %110, i8* %111, i8* %75
  %113 = load i64, i64* %77, align 8
  %114 = zext i8 %109 to i64
  %115 = select i1 %110, i64 %113, i64 %114
  %116 = call zeroext i1 @_ZN4base12IsStringUTF8ENS_16BasicStringPieceIcNSt3__111char_traitsIcEEEE(i8* %112, i64 %115) #10
  br i1 %116, label %118, label %117

117:                                              ; preds = %106
  call void @_ZN4mojo8internal34RecordInvalidStringDeserializationEv() #10
  br label %118

118:                                              ; preds = %117, %106, %72
  %119 = bitcast %"class.task_module::mojom::TaskModuleHandler"* %0 to void (%"class.task_module::mojom::TaskModuleHandler"*, i32, %"class.std::__1::basic_string"*)***
  %120 = load void (%"class.task_module::mojom::TaskModuleHandler"*, i32, %"class.std::__1::basic_string"*)**, void (%"class.task_module::mojom::TaskModuleHandler"*, i32, %"class.std::__1::basic_string"*)*** %119, align 8
  %121 = getelementptr inbounds void (%"class.task_module::mojom::TaskModuleHandler"*, i32, %"class.std::__1::basic_string"*)*, void (%"class.task_module::mojom::TaskModuleHandler"*, i32, %"class.std::__1::basic_string"*)** %120, i64 4
  %122 = load void (%"class.task_module::mojom::TaskModuleHandler"*, i32, %"class.std::__1::basic_string"*)*, void (%"class.task_module::mojom::TaskModuleHandler"*, i32, %"class.std::__1::basic_string"*)** %121, align 8
  call void %122(%"class.task_module::mojom::TaskModuleHandler"* %0, i32 %80, %"class.std::__1::basic_string"* nonnull dereferenceable(24) %6) #10
  %123 = bitcast %"class.std::__1::basic_string"* %6 to %"struct.std::__1::basic_string<char, std::__1::char_traits<char>, std::__1::allocator<char> >::__short"*
  %124 = getelementptr inbounds %"struct.std::__1::basic_string<char, std::__1::char_traits<char>, std::__1::allocator<char> >::__short", %"struct.std::__1::basic_string<char, std::__1::char_traits<char>, std::__1::allocator<char> >::__short"* %123, i64 0, i32 1, i32 0
  %125 = load i8, i8* %124, align 1
  %126 = icmp slt i8 %125, 0
  br i1 %126, label %127, label %129

127:                                              ; preds = %118
  %128 = load i8*, i8** %76, align 8
  call void @_ZdlPv(i8* %128) #11
  br label %129

129:                                              ; preds = %118, %127
  call void @llvm.lifetime.end.p0i8(i64 24, i8* nonnull %75) #10
  br label %156

130:                                              ; preds = %2
  %131 = bitcast %"class.base::TaskAnnotator::ScopedSetIpcHash"* %7 to i8*
  call void @llvm.lifetime.start.p0i8(i64 24, i8* nonnull %131) #10
  call void @llvm.memset.p0i8.i64(i8* nonnull align 8 %131, i8 -86, i64 24, i1 false)
  call void @_ZN4base13TaskAnnotator16ScopedSetIpcHashC1Ej(%"class.base::TaskAnnotator::ScopedSetIpcHash"* nonnull %7, i32 -649793416) #10
  %132 = call i8* @_ZNK4mojo7Message7payloadEv(%"class.mojo::Message"* %1) #10
  %133 = getelementptr inbounds i8, i8* %132, i64 8
  %134 = bitcast i8* %133 to i32*
  %135 = load i32, i32* %134, align 4
  %136 = getelementptr inbounds i8, i8* %132, i64 12
  %137 = bitcast i8* %136 to i32*
  %138 = load i32, i32* %137, align 4
  %139 = bitcast %"class.task_module::mojom::TaskModuleHandler"* %0 to void (%"class.task_module::mojom::TaskModuleHandler"*, i32, i32)***
  %140 = load void (%"class.task_module::mojom::TaskModuleHandler"*, i32, i32)**, void (%"class.task_module::mojom::TaskModuleHandler"*, i32, i32)*** %139, align 8
  %141 = getelementptr inbounds void (%"class.task_module::mojom::TaskModuleHandler"*, i32, i32)*, void (%"class.task_module::mojom::TaskModuleHandler"*, i32, i32)** %140, i64 5
  %142 = load void (%"class.task_module::mojom::TaskModuleHandler"*, i32, i32)*, void (%"class.task_module::mojom::TaskModuleHandler"*, i32, i32)** %141, align 8
  call void %142(%"class.task_module::mojom::TaskModuleHandler"* %0, i32 %135, i32 %138) #10
  br label %156

143:                                              ; preds = %2
  %144 = bitcast %"class.base::TaskAnnotator::ScopedSetIpcHash"* %8 to i8*
  call void @llvm.lifetime.start.p0i8(i64 24, i8* nonnull %144) #10
  call void @llvm.memset.p0i8.i64(i8* nonnull align 8 %144, i8 -86, i64 24, i1 false)
  call void @_ZN4base13TaskAnnotator16ScopedSetIpcHashC1Ej(%"class.base::TaskAnnotator::ScopedSetIpcHash"* nonnull %8, i32 1468647404) #10
  %145 = call i8* @_ZNK4mojo7Message7payloadEv(%"class.mojo::Message"* %1) #10
  %146 = getelementptr inbounds i8, i8* %145, i64 8
  %147 = bitcast i8* %146 to i32*
  %148 = load i32, i32* %147, align 4
  %149 = getelementptr inbounds i8, i8* %145, i64 12
  %150 = bitcast i8* %149 to i32*
  %151 = load i32, i32* %150, align 4
  %152 = bitcast %"class.task_module::mojom::TaskModuleHandler"* %0 to void (%"class.task_module::mojom::TaskModuleHandler"*, i32, i32)***
  %153 = load void (%"class.task_module::mojom::TaskModuleHandler"*, i32, i32)**, void (%"class.task_module::mojom::TaskModuleHandler"*, i32, i32)*** %152, align 8
  %154 = getelementptr inbounds void (%"class.task_module::mojom::TaskModuleHandler"*, i32, i32)*, void (%"class.task_module::mojom::TaskModuleHandler"*, i32, i32)** %153, i64 6
  %155 = load void (%"class.task_module::mojom::TaskModuleHandler"*, i32, i32)*, void (%"class.task_module::mojom::TaskModuleHandler"*, i32, i32)** %154, align 8
  call void %155(%"class.task_module::mojom::TaskModuleHandler"* %0, i32 %148, i32 %151) #10
  br label %156

156:                                              ; preds = %71, %129, %130, %143
  %157 = phi %"class.base::TaskAnnotator::ScopedSetIpcHash"* [ %8, %143 ], [ %7, %130 ], [ %5, %129 ], [ %3, %71 ]
  %158 = phi i8* [ %144, %143 ], [ %131, %130 ], [ %73, %129 ], [ %15, %71 ]
  call void @_ZN4base13TaskAnnotator16ScopedSetIpcHashD1Ev(%"class.base::TaskAnnotator::ScopedSetIpcHash"* nonnull %157) #10
  call void @llvm.lifetime.end.p0i8(i64 24, i8* nonnull %158) #10
  br label %159

159:                                              ; preds = %156, %2
  %160 = phi i1 [ false, %2 ], [ true, %156 ]
  ret i1 %160
}

; Function Attrs: argmemonly nounwind
declare void @llvm.memcpy.p0i8.p0i8.i64(i8* nocapture writeonly, i8* nocapture readonly, i64, i1 immarg) #3

declare void @_ZN4base13TaskAnnotator16ScopedSetIpcHashC1Ej(%"class.base::TaskAnnotator::ScopedSetIpcHash"*, i32) unnamed_addr #1

; Function Attrs: nounwind
declare void @_ZN4base13TaskAnnotator16ScopedSetIpcHashD1Ev(%"class.base::TaskAnnotator::ScopedSetIpcHash"*) unnamed_addr #2

; Function Attrs: nounwind ssp uwtable
define hidden zeroext i1 @_ZN11task_module5mojom29TaskModuleHandlerStubDispatch19AcceptWithResponderEPNS0_17TaskModuleHandlerEPN4mojo7MessageENSt3__110unique_ptrINS4_25MessageReceiverWithStatusENS7_14default_deleteIS9_EEEE(%"class.task_module::mojom::TaskModuleHandler"*, %"class.mojo::Message"*, %"class.mojo::MessageReceiverWithStatus"*) local_unnamed_addr #0 align 2 {
  %4 = alloca %"class.base::TaskAnnotator::ScopedSetIpcHash", align 8
  %5 = alloca %"class.base::OnceCallback", align 8
  %6 = alloca %"class.base::OnceCallback", align 8
  %7 = getelementptr inbounds %"class.mojo::Message", %"class.mojo::Message"* %1, i64 0, i32 1, i32 2
  %8 = bitcast i8** %7 to %"struct.mojo::internal::MessageHeader"**
  %9 = load %"struct.mojo::internal::MessageHeader"*, %"struct.mojo::internal::MessageHeader"** %8, align 8
  %10 = getelementptr inbounds %"struct.mojo::internal::MessageHeader", %"struct.mojo::internal::MessageHeader"* %9, i64 0, i32 2
  %11 = load i32, i32* %10, align 1
  %12 = icmp eq i32 %11, 38747746
  br i1 %12, label %13, label %51

13:                                               ; preds = %3
  %14 = ptrtoint %"class.mojo::MessageReceiverWithStatus"* %2 to i64
  %15 = bitcast i8** %7 to %"struct.mojo::internal::MessageHeaderV1"**
  %16 = getelementptr inbounds %"struct.mojo::internal::MessageHeader", %"struct.mojo::internal::MessageHeader"* %9, i64 0, i32 3
  %17 = load i32, i32* %16, align 1
  %18 = bitcast %"class.base::TaskAnnotator::ScopedSetIpcHash"* %4 to i8*
  call void @llvm.lifetime.start.p0i8(i64 24, i8* nonnull %18) #10
  call void @llvm.memset.p0i8.i64(i8* nonnull align 8 %18, i8 -86, i64 24, i1 false)
  call void @_ZN4base13TaskAnnotator16ScopedSetIpcHashC1Ej(%"class.base::TaskAnnotator::ScopedSetIpcHash"* nonnull %4, i32 -1069617505) #10
  %19 = call i8* @_ZNK4mojo7Message7payloadEv(%"class.mojo::Message"* %1) #10
  %20 = getelementptr inbounds i8, i8* %19, i64 8
  %21 = bitcast i8* %20 to i32*
  %22 = load i32, i32* %21, align 4
  %23 = bitcast %"class.base::OnceCallback"* %5 to i8*
  call void @llvm.lifetime.start.p0i8(i64 8, i8* nonnull %23) #10
  %24 = getelementptr inbounds %"class.base::OnceCallback", %"class.base::OnceCallback"* %5, i64 0, i32 0, i32 0, i32 0
  %25 = load %"struct.mojo::internal::MessageHeaderV1"*, %"struct.mojo::internal::MessageHeaderV1"** %15, align 8
  %26 = getelementptr inbounds %"struct.mojo::internal::MessageHeaderV1", %"struct.mojo::internal::MessageHeaderV1"* %25, i64 0, i32 1
  %27 = load i64, i64* %26, align 1
  %28 = call i8* @_Znwm(i64 24) #11, !noalias !3
  %29 = lshr i32 %17, 2
  %30 = trunc i32 %29 to i8
  %31 = and i8 %30, 1
  %32 = bitcast i8* %28 to i64*
  store i64 %27, i64* %32, align 8, !noalias !3
  %33 = getelementptr inbounds i8, i8* %28, i64 8
  store i8 %31, i8* %33, align 8, !noalias !3
  %34 = getelementptr inbounds i8, i8* %28, i64 16
  %35 = bitcast i8* %34 to i64*
  store i64 %14, i64* %35, align 8, !noalias !3
  %36 = ptrtoint i8* %28 to i64
  %37 = call i8* @_Znwm(i64 56) #11, !noalias !6
  %38 = bitcast i8* %37 to %"class.base::internal::BindStateBase"*
  call void @_ZN4base8internal13BindStateBaseC2EPFvvEPFvPKS1_E(%"class.base::internal::BindStateBase"* nonnull %38, void ()* bitcast (void (%"class.base::internal::BindStateBase"*, %"class.mojo::StructPtr.73"*)* @_ZN4base8internal7InvokerINS0_9BindStateIMN11task_module5mojom49TaskModuleHandler_GetPrimaryTask_ProxyToResponderEFvN4mojo9StructPtrINS4_4TaskEEEEJNSt3__110unique_ptrIS5_NSC_14default_deleteIS5_EEEEEEEFvS9_EE7RunOnceEPNS0_13BindStateBaseEOS9_ to void ()*), void (%"class.base::internal::BindStateBase"*)* nonnull @_ZN4base8internal9BindStateIMN11task_module5mojom49TaskModuleHandler_GetPrimaryTask_ProxyToResponderEFvN4mojo9StructPtrINS3_4TaskEEEEJNSt3__110unique_ptrIS4_NSB_14default_deleteIS4_EEEEEE7DestroyEPKNS0_13BindStateBaseE) #10, !noalias !6
  %39 = getelementptr inbounds i8, i8* %37, i64 32
  %40 = bitcast i8* %39 to <2 x i64>*
  store <2 x i64> <i64 ptrtoint (void (%"class.task_module::mojom::TaskModuleHandler_GetPrimaryTask_ProxyToResponder"*, %"class.mojo::StructPtr.73"*)* @_ZN11task_module5mojom49TaskModuleHandler_GetPrimaryTask_ProxyToResponder3RunEN4mojo9StructPtrINS0_4TaskEEE to i64), i64 0>, <2 x i64>* %40, align 8, !noalias !6
  %41 = getelementptr inbounds i8, i8* %37, i64 48
  %42 = bitcast i8* %41 to i64*
  store i64 %36, i64* %42, align 8, !noalias !6
  %43 = ptrtoint i8* %37 to i64
  %44 = bitcast %"class.base::OnceCallback"* %6 to i64*
  store i64 %43, i64* %44, align 8
  store %"class.base::internal::BindStateBase"* null, %"class.base::internal::BindStateBase"** %24, align 8
  %45 = bitcast %"class.task_module::mojom::TaskModuleHandler"* %0 to void (%"class.task_module::mojom::TaskModuleHandler"*, i32, %"class.base::OnceCallback"*)***
  %46 = load void (%"class.task_module::mojom::TaskModuleHandler"*, i32, %"class.base::OnceCallback"*)**, void (%"class.task_module::mojom::TaskModuleHandler"*, i32, %"class.base::OnceCallback"*)*** %45, align 8
  %47 = getelementptr inbounds void (%"class.task_module::mojom::TaskModuleHandler"*, i32, %"class.base::OnceCallback"*)*, void (%"class.task_module::mojom::TaskModuleHandler"*, i32, %"class.base::OnceCallback"*)** %46, i64 2
  %48 = load void (%"class.task_module::mojom::TaskModuleHandler"*, i32, %"class.base::OnceCallback"*)*, void (%"class.task_module::mojom::TaskModuleHandler"*, i32, %"class.base::OnceCallback"*)** %47, align 8
  call void %48(%"class.task_module::mojom::TaskModuleHandler"* %0, i32 %22, %"class.base::OnceCallback"* nonnull %6) #10
  %49 = getelementptr inbounds %"class.base::OnceCallback", %"class.base::OnceCallback"* %6, i64 0, i32 0
  call void @_ZN4base8internal12CallbackBaseD2Ev(%"class.base::internal::CallbackBase"* nonnull %49) #10
  %50 = getelementptr inbounds %"class.base::OnceCallback", %"class.base::OnceCallback"* %5, i64 0, i32 0
  call void @_ZN4base8internal12CallbackBaseD2Ev(%"class.base::internal::CallbackBase"* nonnull %50) #10
  call void @llvm.lifetime.end.p0i8(i64 8, i8* nonnull %23) #10
  call void @_ZN4base13TaskAnnotator16ScopedSetIpcHashD1Ev(%"class.base::TaskAnnotator::ScopedSetIpcHash"* nonnull %4) #10
  call void @llvm.lifetime.end.p0i8(i64 24, i8* nonnull %18) #10
  br label %58

51:                                               ; preds = %3
  %52 = icmp eq %"class.mojo::MessageReceiverWithStatus"* %2, null
  br i1 %52, label %58, label %53

53:                                               ; preds = %51
  %54 = bitcast %"class.mojo::MessageReceiverWithStatus"* %2 to void (%"class.mojo::MessageReceiverWithStatus"*)***
  %55 = load void (%"class.mojo::MessageReceiverWithStatus"*)**, void (%"class.mojo::MessageReceiverWithStatus"*)*** %54, align 8
  %56 = getelementptr inbounds void (%"class.mojo::MessageReceiverWithStatus"*)*, void (%"class.mojo::MessageReceiverWithStatus"*)** %55, i64 1
  %57 = load void (%"class.mojo::MessageReceiverWithStatus"*)*, void (%"class.mojo::MessageReceiverWithStatus"*)** %56, align 8
  tail call void %57(%"class.mojo::MessageReceiverWithStatus"* nonnull %2) #10
  br label %58

58:                                               ; preds = %13, %51, %53
  %59 = phi i1 [ true, %13 ], [ false, %51 ], [ false, %53 ]
  ret i1 %59
}

; Function Attrs: nounwind ssp uwtable
define hidden zeroext i1 @_ZN11task_module5mojom33TaskModuleHandlerRequestValidator6AcceptEPN4mojo7MessageE(%"class.task_module::mojom::TaskModuleHandlerRequestValidator"* nocapture readnone, %"class.mojo::Message"*) unnamed_addr #0 align 2 {
  %3 = tail call zeroext i1 @_ZN4mojo8internal22ValidateRequestGenericEPNS_7MessageEPKcN4base4spanIKNSt3__14pairIjNS0_21GenericValidationInfoEEELm18446744073709551615EEE(%"class.mojo::Message"* %1, i8* getelementptr inbounds ([36 x i8], [36 x i8]* @_ZN11task_module5mojom17TaskModuleHandler5Name_E, i64 0, i64 0), i64 5, %"struct.std::__1::pair"* getelementptr inbounds ([5 x %"struct.std::__1::pair"], [5 x %"struct.std::__1::pair"]* @_ZN11task_module5mojomL32kTaskModuleHandlerValidationInfoE, i64 0, i64 0)) #10
  ret i1 %3
}

declare zeroext i1 @_ZN4mojo8internal22ValidateRequestGenericEPNS_7MessageEPKcN4base4spanIKNSt3__14pairIjNS0_21GenericValidationInfoEEELm18446744073709551615EEE(%"class.mojo::Message"*, i8*, i64, %"struct.std::__1::pair"*) local_unnamed_addr #1

; Function Attrs: nounwind ssp uwtable
define hidden zeroext i1 @_ZN11task_module5mojom34TaskModuleHandlerResponseValidator6AcceptEPN4mojo7MessageE(%"class.task_module::mojom::TaskModuleHandlerResponseValidator"* nocapture readnone, %"class.mojo::Message"*) unnamed_addr #0 align 2 {
  %3 = tail call zeroext i1 @_ZN4mojo8internal23ValidateResponseGenericEPNS_7MessageEPKcN4base4spanIKNSt3__14pairIjNS0_21GenericValidationInfoEEELm18446744073709551615EEE(%"class.mojo::Message"* %1, i8* getelementptr inbounds ([36 x i8], [36 x i8]* @_ZN11task_module5mojom17TaskModuleHandler5Name_E, i64 0, i64 0), i64 5, %"struct.std::__1::pair"* getelementptr inbounds ([5 x %"struct.std::__1::pair"], [5 x %"struct.std::__1::pair"]* @_ZN11task_module5mojomL32kTaskModuleHandlerValidationInfoE, i64 0, i64 0)) #10
  ret i1 %3
}

declare zeroext i1 @_ZN4mojo8internal23ValidateResponseGenericEPNS_7MessageEPKcN4base4spanIKNSt3__14pairIjNS0_21GenericValidationInfoEEELm18446744073709551615EEE(%"class.mojo::Message"*, i8*, i64, %"struct.std::__1::pair"*) local_unnamed_addr #1

; Function Attrs: nounwind ssp uwtable
define hidden zeroext i1 @_ZN4mojo12StructTraitsIN11task_module5mojom16TaskItemDataViewENS_9StructPtrINS2_8TaskItemEEEE4ReadES3_PS6_(%"class.task_module::mojom::internal::TaskItem_Data"*, %"class.mojo::Message"*, %"class.mojo::StructPtr"* nocapture) local_unnamed_addr #0 align 2 {
  %4 = alloca %"class.mojo::internal::Array_Data"*, align 8
  %5 = alloca %"class.mojo::internal::Array_Data"*, align 8
  %6 = alloca %"class.task_module::mojom::TaskItemDataView", align 8
  %7 = getelementptr inbounds %"class.task_module::mojom::TaskItemDataView", %"class.task_module::mojom::TaskItemDataView"* %6, i64 0, i32 0
  store %"class.task_module::mojom::internal::TaskItem_Data"* %0, %"class.task_module::mojom::internal::TaskItem_Data"** %7, align 8
  %8 = getelementptr inbounds %"class.task_module::mojom::TaskItemDataView", %"class.task_module::mojom::TaskItemDataView"* %6, i64 0, i32 1
  store %"class.mojo::Message"* %1, %"class.mojo::Message"** %8, align 8
  %9 = tail call i8* @_Znwm(i64 352) #11, !noalias !11
  tail call void @llvm.memset.p0i8.i64(i8* nonnull align 8 %9, i8 0, i64 24, i1 false) #10, !noalias !11
  %10 = getelementptr inbounds i8, i8* %9, i64 24
  %11 = bitcast i8* %10 to %class.GURL*
  tail call void @_ZN4GURLC1Ev(%class.GURL* %11) #10, !noalias !11
  %12 = getelementptr inbounds i8, i8* %9, i64 144
  store i8 0, i8* %12, align 8, !noalias !11
  %13 = getelementptr inbounds i8, i8* %9, i64 152
  %14 = getelementptr inbounds i8, i8* %9, i64 208
  tail call void @llvm.memset.p0i8.i64(i8* align 8 %14, i8 0, i64 24, i1 false) #10, !noalias !11
  %15 = getelementptr inbounds i8, i8* %9, i64 232
  %16 = bitcast i8* %15 to %class.GURL*
  tail call void @llvm.memset.p0i8.i64(i8* align 8 %13, i8 0, i64 49, i1 false) #10, !noalias !11
  tail call void @_ZN4GURLC1Ev(%class.GURL* %16) #10, !noalias !11
  %17 = ptrtoint i8* %9 to i64
  %18 = bitcast i8* %9 to %"class.std::__1::basic_string"*
  %19 = getelementptr inbounds %"class.task_module::mojom::internal::TaskItem_Data", %"class.task_module::mojom::internal::TaskItem_Data"* %0, i64 0, i32 1
  %20 = getelementptr inbounds %"struct.mojo::internal::Pointer", %"struct.mojo::internal::Pointer"* %19, i64 0, i32 0
  %21 = load i64, i64* %20, align 8
  %22 = icmp eq i64 %21, 0
  %23 = bitcast %"struct.mojo::internal::Pointer"* %19 to i8*
  %24 = getelementptr inbounds i8, i8* %23, i64 %21
  br i1 %22, label %67, label %25

25:                                               ; preds = %3
  %26 = getelementptr inbounds i8, i8* %24, i64 8
  %27 = getelementptr inbounds i8, i8* %24, i64 4
  %28 = bitcast i8* %27 to i32*
  %29 = load i32, i32* %28, align 1
  %30 = zext i32 %29 to i64
  %31 = tail call i1 @llvm.is.constant.i64(i64 %30) #10
  %32 = icmp ult i32 %29, 23
  %33 = and i1 %32, %31
  br i1 %33, label %34, label %51

34:                                               ; preds = %25
  %35 = getelementptr inbounds i8, i8* %9, i64 23
  %36 = load i8, i8* %35, align 1
  %37 = icmp slt i8 %36, 0
  br i1 %37, label %38, label %43

38:                                               ; preds = %34
  %39 = getelementptr inbounds i8, i8* %9, i64 8
  %40 = bitcast i8* %39 to i64*
  store i64 %30, i64* %40, align 8
  %41 = bitcast i8* %9 to i8**
  %42 = load i8*, i8** %41, align 8
  br label %45

43:                                               ; preds = %34
  %44 = trunc i32 %29 to i8
  store i8 %44, i8* %35, align 1
  br label %45

45:                                               ; preds = %43, %38
  %46 = phi i8* [ %42, %38 ], [ %9, %43 ]
  %47 = icmp eq i32 %29, 0
  br i1 %47, label %49, label %48

48:                                               ; preds = %45
  tail call void @llvm.memmove.p0i8.p0i8.i64(i8* align 1 %46, i8* align 1 %26, i64 %30, i1 false) #10
  br label %49

49:                                               ; preds = %48, %45
  %50 = getelementptr inbounds i8, i8* %46, i64 %30
  store i8 0, i8* %50, align 1
  br label %53

51:                                               ; preds = %25
  %52 = tail call dereferenceable(24) %"class.std::__1::basic_string"* @_ZNSt3__112basic_stringIcNS_11char_traitsIcEENS_9allocatorIcEEE17__assign_externalEPKcm(%"class.std::__1::basic_string"* nonnull %18, i8* %26, i64 %30) #10
  br label %53

53:                                               ; preds = %51, %49
  %54 = getelementptr inbounds i8, i8* %9, i64 23
  %55 = load i8, i8* %54, align 1
  %56 = icmp slt i8 %55, 0
  %57 = bitcast i8* %9 to i8**
  %58 = load i8*, i8** %57, align 8
  %59 = select i1 %56, i8* %58, i8* %9
  %60 = getelementptr inbounds i8, i8* %9, i64 8
  %61 = bitcast i8* %60 to i64*
  %62 = load i64, i64* %61, align 8
  %63 = zext i8 %55 to i64
  %64 = select i1 %56, i64 %62, i64 %63
  %65 = tail call zeroext i1 @_ZN4base12IsStringUTF8ENS_16BasicStringPieceIcNSt3__111char_traitsIcEEEE(i8* %59, i64 %64) #10
  br i1 %65, label %67, label %66

66:                                               ; preds = %53
  tail call void @_ZN4mojo8internal34RecordInvalidStringDeserializationEv() #10
  br label %67

67:                                               ; preds = %66, %53, %3
  %68 = load %"class.task_module::mojom::internal::TaskItem_Data"*, %"class.task_module::mojom::internal::TaskItem_Data"** %7, align 8
  %69 = getelementptr inbounds %"class.task_module::mojom::internal::TaskItem_Data", %"class.task_module::mojom::internal::TaskItem_Data"* %68, i64 0, i32 2
  %70 = getelementptr inbounds %"struct.mojo::internal::Pointer.90", %"struct.mojo::internal::Pointer.90"* %69, i64 0, i32 0
  %71 = load i64, i64* %70, align 8
  %72 = icmp eq i64 %71, 0
  br i1 %72, label %79, label %73

73:                                               ; preds = %67
  %74 = bitcast %"struct.mojo::internal::Pointer.90"* %69 to i8*
  %75 = getelementptr inbounds i8, i8* %74, i64 %71
  %76 = bitcast i8* %75 to %"class.url::mojom::internal::Url_Data"*
  %77 = load %"class.mojo::Message"*, %"class.mojo::Message"** %8, align 8
  %78 = tail call zeroext i1 @_ZN4mojo12StructTraitsIN3url5mojom11UrlDataViewE4GURLE4ReadES3_PS4_(%"class.url::mojom::internal::Url_Data"* nonnull %76, %"class.mojo::Message"* %77, %class.GURL* %11) #10
  br i1 %78, label %79, label %170

79:                                               ; preds = %67, %73
  %80 = bitcast i8* %12 to %"class.absl::optional"*
  %81 = bitcast %"class.mojo::internal::Array_Data"** %5 to i8*
  call void @llvm.lifetime.start.p0i8(i64 8, i8* nonnull %81) #10
  %82 = getelementptr inbounds %"class.task_module::mojom::internal::TaskItem_Data", %"class.task_module::mojom::internal::TaskItem_Data"* %68, i64 0, i32 3
  %83 = getelementptr inbounds %"struct.mojo::internal::Pointer", %"struct.mojo::internal::Pointer"* %82, i64 0, i32 0
  %84 = load i64, i64* %83, align 8
  %85 = icmp eq i64 %84, 0
  %86 = bitcast %"struct.mojo::internal::Pointer"* %82 to i8*
  %87 = getelementptr inbounds i8, i8* %86, i64 %84
  %88 = bitcast i8* %87 to %"class.mojo::internal::Array_Data"*
  %89 = select i1 %85, %"class.mojo::internal::Array_Data"* null, %"class.mojo::internal::Array_Data"* %88
  store %"class.mojo::internal::Array_Data"* %89, %"class.mojo::internal::Array_Data"** %5, align 8
  %90 = call zeroext i1 @_ZN4mojo8internal11DeserializeINS_14StringDataViewERPNS0_10Array_DataIcEEN4absl8optionalINSt3__112basic_stringIcNS9_11char_traitsIcEENS9_9allocatorIcEEEEEEJRPNS_7MessageEELPv0EEEbOT0_PT1_DpOT2_(%"class.mojo::internal::Array_Data"** nonnull dereferenceable(8) %5, %"class.absl::optional"* %80, %"class.mojo::Message"** dereferenceable(8) %8) #10
  call void @llvm.lifetime.end.p0i8(i64 8, i8* nonnull %81) #10
  br i1 %90, label %91, label %170

91:                                               ; preds = %79
  %92 = getelementptr inbounds i8, i8* %9, i64 176
  %93 = bitcast i8* %92 to %"class.std::__1::basic_string"*
  %94 = load %"class.task_module::mojom::internal::TaskItem_Data"*, %"class.task_module::mojom::internal::TaskItem_Data"** %7, align 8
  %95 = getelementptr inbounds %"class.task_module::mojom::internal::TaskItem_Data", %"class.task_module::mojom::internal::TaskItem_Data"* %94, i64 0, i32 4
  %96 = getelementptr inbounds %"struct.mojo::internal::Pointer", %"struct.mojo::internal::Pointer"* %95, i64 0, i32 0
  %97 = load i64, i64* %96, align 8
  %98 = icmp eq i64 %97, 0
  %99 = bitcast %"struct.mojo::internal::Pointer"* %95 to i8*
  %100 = getelementptr inbounds i8, i8* %99, i64 %97
  br i1 %98, label %143, label %101

101:                                              ; preds = %91
  %102 = getelementptr inbounds i8, i8* %100, i64 8
  %103 = getelementptr inbounds i8, i8* %100, i64 4
  %104 = bitcast i8* %103 to i32*
  %105 = load i32, i32* %104, align 1
  %106 = zext i32 %105 to i64
  %107 = call i1 @llvm.is.constant.i64(i64 %106) #10
  %108 = icmp ult i32 %105, 23
  %109 = and i1 %108, %107
  br i1 %109, label %110, label %127

110:                                              ; preds = %101
  %111 = getelementptr inbounds i8, i8* %9, i64 199
  %112 = load i8, i8* %111, align 1
  %113 = icmp slt i8 %112, 0
  br i1 %113, label %114, label %119

114:                                              ; preds = %110
  %115 = getelementptr inbounds i8, i8* %9, i64 184
  %116 = bitcast i8* %115 to i64*
  store i64 %106, i64* %116, align 8
  %117 = bitcast i8* %92 to i8**
  %118 = load i8*, i8** %117, align 8
  br label %121

119:                                              ; preds = %110
  %120 = trunc i32 %105 to i8
  store i8 %120, i8* %111, align 1
  br label %121

121:                                              ; preds = %119, %114
  %122 = phi i8* [ %118, %114 ], [ %92, %119 ]
  %123 = icmp eq i32 %105, 0
  br i1 %123, label %125, label %124

124:                                              ; preds = %121
  call void @llvm.memmove.p0i8.p0i8.i64(i8* align 1 %122, i8* align 1 %102, i64 %106, i1 false) #10
  br label %125

125:                                              ; preds = %124, %121
  %126 = getelementptr inbounds i8, i8* %122, i64 %106
  store i8 0, i8* %126, align 1
  br label %129

127:                                              ; preds = %101
  %128 = call dereferenceable(24) %"class.std::__1::basic_string"* @_ZNSt3__112basic_stringIcNS_11char_traitsIcEENS_9allocatorIcEEE17__assign_externalEPKcm(%"class.std::__1::basic_string"* %93, i8* %102, i64 %106) #10
  br label %129

129:                                              ; preds = %127, %125
  %130 = getelementptr inbounds i8, i8* %9, i64 199
  %131 = load i8, i8* %130, align 1
  %132 = icmp slt i8 %131, 0
  %133 = bitcast i8* %92 to i8**
  %134 = load i8*, i8** %133, align 8
  %135 = select i1 %132, i8* %134, i8* %92
  %136 = getelementptr inbounds i8, i8* %9, i64 184
  %137 = bitcast i8* %136 to i64*
  %138 = load i64, i64* %137, align 8
  %139 = zext i8 %131 to i64
  %140 = select i1 %132, i64 %138, i64 %139
  %141 = call zeroext i1 @_ZN4base12IsStringUTF8ENS_16BasicStringPieceIcNSt3__111char_traitsIcEEEE(i8* %135, i64 %140) #10
  br i1 %141, label %143, label %142

142:                                              ; preds = %129
  call void @_ZN4mojo8internal34RecordInvalidStringDeserializationEv() #10
  br label %143

143:                                              ; preds = %142, %129, %91
  %144 = getelementptr inbounds i8, i8* %9, i64 200
  %145 = bitcast i8* %144 to %"class.absl::optional"*
  %146 = bitcast %"class.mojo::internal::Array_Data"** %4 to i8*
  call void @llvm.lifetime.start.p0i8(i64 8, i8* nonnull %146) #10
  %147 = load %"class.task_module::mojom::internal::TaskItem_Data"*, %"class.task_module::mojom::internal::TaskItem_Data"** %7, align 8
  %148 = getelementptr inbounds %"class.task_module::mojom::internal::TaskItem_Data", %"class.task_module::mojom::internal::TaskItem_Data"* %147, i64 0, i32 5
  %149 = getelementptr inbounds %"struct.mojo::internal::Pointer", %"struct.mojo::internal::Pointer"* %148, i64 0, i32 0
  %150 = load i64, i64* %149, align 8
  %151 = icmp eq i64 %150, 0
  %152 = bitcast %"struct.mojo::internal::Pointer"* %148 to i8*
  %153 = getelementptr inbounds i8, i8* %152, i64 %150
  %154 = bitcast i8* %153 to %"class.mojo::internal::Array_Data"*
  %155 = select i1 %151, %"class.mojo::internal::Array_Data"* null, %"class.mojo::internal::Array_Data"* %154
  store %"class.mojo::internal::Array_Data"* %155, %"class.mojo::internal::Array_Data"** %4, align 8
  %156 = call zeroext i1 @_ZN4mojo8internal11DeserializeINS_14StringDataViewERPNS0_10Array_DataIcEEN4absl8optionalINSt3__112basic_stringIcNS9_11char_traitsIcEENS9_9allocatorIcEEEEEEJRPNS_7MessageEELPv0EEEbOT0_PT1_DpOT2_(%"class.mojo::internal::Array_Data"** nonnull dereferenceable(8) %4, %"class.absl::optional"* %145, %"class.mojo::Message"** dereferenceable(8) %8) #10
  call void @llvm.lifetime.end.p0i8(i64 8, i8* nonnull %146) #10
  br i1 %156, label %157, label %170

157:                                              ; preds = %143
  %158 = load %"class.task_module::mojom::internal::TaskItem_Data"*, %"class.task_module::mojom::internal::TaskItem_Data"** %7, align 8
  %159 = getelementptr inbounds %"class.task_module::mojom::internal::TaskItem_Data", %"class.task_module::mojom::internal::TaskItem_Data"* %158, i64 0, i32 6
  %160 = getelementptr inbounds %"struct.mojo::internal::Pointer.90", %"struct.mojo::internal::Pointer.90"* %159, i64 0, i32 0
  %161 = load i64, i64* %160, align 8
  %162 = icmp eq i64 %161, 0
  br i1 %162, label %169, label %163

163:                                              ; preds = %157
  %164 = bitcast %"struct.mojo::internal::Pointer.90"* %159 to i8*
  %165 = getelementptr inbounds i8, i8* %164, i64 %161
  %166 = bitcast i8* %165 to %"class.url::mojom::internal::Url_Data"*
  %167 = load %"class.mojo::Message"*, %"class.mojo::Message"** %8, align 8
  %168 = call zeroext i1 @_ZN4mojo12StructTraitsIN3url5mojom11UrlDataViewE4GURLE4ReadES3_PS4_(%"class.url::mojom::internal::Url_Data"* nonnull %166, %"class.mojo::Message"* %167, %class.GURL* %16) #10
  br i1 %168, label %169, label %170

169:                                              ; preds = %157, %163
  br label %170

170:                                              ; preds = %79, %143, %73, %169, %163
  %171 = phi i8 [ 0, %143 ], [ 1, %169 ], [ 0, %163 ], [ 0, %73 ], [ 0, %79 ]
  %172 = getelementptr inbounds %"class.mojo::StructPtr", %"class.mojo::StructPtr"* %2, i64 0, i32 0, i32 0, i32 0, i32 0
  %173 = load %"class.task_module::mojom::TaskItem"*, %"class.task_module::mojom::TaskItem"** %172, align 8
  store %"class.task_module::mojom::TaskItem"* null, %"class.task_module::mojom::TaskItem"** %172, align 8
  %174 = icmp eq %"class.task_module::mojom::TaskItem"* %173, null
  br i1 %174, label %175, label %178

175:                                              ; preds = %170
  %176 = bitcast %"class.mojo::StructPtr"* %2 to i64*
  store i64 %17, i64* %176, align 8
  %177 = icmp ne i8 %171, 0
  br label %186

178:                                              ; preds = %170
  call void @_ZN11task_module5mojom8TaskItemD2Ev(%"class.task_module::mojom::TaskItem"* nonnull %173) #10
  %179 = bitcast %"class.task_module::mojom::TaskItem"* %173 to i8*
  call void @_ZdlPv(i8* %179) #11
  %180 = bitcast %"class.mojo::StructPtr"* %2 to i64*
  %181 = load %"class.task_module::mojom::TaskItem"*, %"class.task_module::mojom::TaskItem"** %172, align 8
  store i64 %17, i64* %180, align 8
  %182 = icmp ne i8 %171, 0
  %183 = icmp eq %"class.task_module::mojom::TaskItem"* %181, null
  br i1 %183, label %186, label %184

184:                                              ; preds = %178
  call void @_ZN11task_module5mojom8TaskItemD2Ev(%"class.task_module::mojom::TaskItem"* nonnull %181) #10
  %185 = bitcast %"class.task_module::mojom::TaskItem"* %181 to i8*
  call void @_ZdlPv(i8* %185) #11
  br label %186

186:                                              ; preds = %175, %178, %184
  %187 = phi i1 [ %177, %175 ], [ %182, %178 ], [ %182, %184 ]
  ret i1 %187
}

; Function Attrs: nounwind ssp uwtable
define hidden zeroext i1 @_ZN4mojo12StructTraitsIN11task_module5mojom21RelatedSearchDataViewENS_9StructPtrINS2_13RelatedSearchEEEE4ReadES3_PS6_(%"class.task_module::mojom::internal::RelatedSearch_Data"*, %"class.mojo::Message"*, %"class.mojo::StructPtr.49"* nocapture) local_unnamed_addr #0 align 2 {
  %4 = tail call i8* @_Znwm(i64 144) #11, !noalias !14
  tail call void @llvm.memset.p0i8.i64(i8* nonnull align 8 %4, i8 0, i64 24, i1 false) #10, !noalias !14
  %5 = getelementptr inbounds i8, i8* %4, i64 24
  %6 = bitcast i8* %5 to %class.GURL*
  tail call void @_ZN4GURLC1Ev(%class.GURL* %6) #10, !noalias !14
  %7 = ptrtoint i8* %4 to i64
  %8 = bitcast i8* %4 to %"class.std::__1::basic_string"*
  %9 = getelementptr inbounds %"class.task_module::mojom::internal::RelatedSearch_Data", %"class.task_module::mojom::internal::RelatedSearch_Data"* %0, i64 0, i32 1
  %10 = getelementptr inbounds %"struct.mojo::internal::Pointer", %"struct.mojo::internal::Pointer"* %9, i64 0, i32 0
  %11 = load i64, i64* %10, align 8
  %12 = icmp eq i64 %11, 0
  %13 = bitcast %"struct.mojo::internal::Pointer"* %9 to i8*
  %14 = getelementptr inbounds i8, i8* %13, i64 %11
  br i1 %12, label %57, label %15

15:                                               ; preds = %3
  %16 = getelementptr inbounds i8, i8* %14, i64 8
  %17 = getelementptr inbounds i8, i8* %14, i64 4
  %18 = bitcast i8* %17 to i32*
  %19 = load i32, i32* %18, align 1
  %20 = zext i32 %19 to i64
  %21 = tail call i1 @llvm.is.constant.i64(i64 %20) #10
  %22 = icmp ult i32 %19, 23
  %23 = and i1 %22, %21
  br i1 %23, label %24, label %41

24:                                               ; preds = %15
  %25 = getelementptr inbounds i8, i8* %4, i64 23
  %26 = load i8, i8* %25, align 1
  %27 = icmp slt i8 %26, 0
  br i1 %27, label %28, label %33

28:                                               ; preds = %24
  %29 = getelementptr inbounds i8, i8* %4, i64 8
  %30 = bitcast i8* %29 to i64*
  store i64 %20, i64* %30, align 8
  %31 = bitcast i8* %4 to i8**
  %32 = load i8*, i8** %31, align 8
  br label %35

33:                                               ; preds = %24
  %34 = trunc i32 %19 to i8
  store i8 %34, i8* %25, align 1
  br label %35

35:                                               ; preds = %33, %28
  %36 = phi i8* [ %32, %28 ], [ %4, %33 ]
  %37 = icmp eq i32 %19, 0
  br i1 %37, label %39, label %38

38:                                               ; preds = %35
  tail call void @llvm.memmove.p0i8.p0i8.i64(i8* align 1 %36, i8* align 1 %16, i64 %20, i1 false) #10
  br label %39

39:                                               ; preds = %38, %35
  %40 = getelementptr inbounds i8, i8* %36, i64 %20
  store i8 0, i8* %40, align 1
  br label %43

41:                                               ; preds = %15
  %42 = tail call dereferenceable(24) %"class.std::__1::basic_string"* @_ZNSt3__112basic_stringIcNS_11char_traitsIcEENS_9allocatorIcEEE17__assign_externalEPKcm(%"class.std::__1::basic_string"* nonnull %8, i8* %16, i64 %20) #10
  br label %43

43:                                               ; preds = %41, %39
  %44 = getelementptr inbounds i8, i8* %4, i64 23
  %45 = load i8, i8* %44, align 1
  %46 = icmp slt i8 %45, 0
  %47 = bitcast i8* %4 to i8**
  %48 = load i8*, i8** %47, align 8
  %49 = select i1 %46, i8* %48, i8* %4
  %50 = getelementptr inbounds i8, i8* %4, i64 8
  %51 = bitcast i8* %50 to i64*
  %52 = load i64, i64* %51, align 8
  %53 = zext i8 %45 to i64
  %54 = select i1 %46, i64 %52, i64 %53
  %55 = tail call zeroext i1 @_ZN4base12IsStringUTF8ENS_16BasicStringPieceIcNSt3__111char_traitsIcEEEE(i8* %49, i64 %54) #10
  br i1 %55, label %57, label %56

56:                                               ; preds = %43
  tail call void @_ZN4mojo8internal34RecordInvalidStringDeserializationEv() #10
  br label %57

57:                                               ; preds = %56, %43, %3
  %58 = getelementptr inbounds %"class.task_module::mojom::internal::RelatedSearch_Data", %"class.task_module::mojom::internal::RelatedSearch_Data"* %0, i64 0, i32 2
  %59 = getelementptr inbounds %"struct.mojo::internal::Pointer.90", %"struct.mojo::internal::Pointer.90"* %58, i64 0, i32 0
  %60 = load i64, i64* %59, align 8
  %61 = icmp eq i64 %60, 0
  br i1 %61, label %67, label %62

62:                                               ; preds = %57
  %63 = bitcast %"struct.mojo::internal::Pointer.90"* %58 to i8*
  %64 = getelementptr inbounds i8, i8* %63, i64 %60
  %65 = bitcast i8* %64 to %"class.url::mojom::internal::Url_Data"*
  %66 = tail call zeroext i1 @_ZN4mojo12StructTraitsIN3url5mojom11UrlDataViewE4GURLE4ReadES3_PS4_(%"class.url::mojom::internal::Url_Data"* nonnull %65, %"class.mojo::Message"* %1, %class.GURL* %6) #10
  br i1 %66, label %67, label %68

67:                                               ; preds = %57, %62
  br label %68

68:                                               ; preds = %67, %62
  %69 = phi i8 [ 1, %67 ], [ 0, %62 ]
  %70 = getelementptr inbounds %"class.mojo::StructPtr.49", %"class.mojo::StructPtr.49"* %2, i64 0, i32 0, i32 0, i32 0, i32 0
  %71 = load %"class.task_module::mojom::RelatedSearch"*, %"class.task_module::mojom::RelatedSearch"** %70, align 8
  store %"class.task_module::mojom::RelatedSearch"* null, %"class.task_module::mojom::RelatedSearch"** %70, align 8
  %72 = icmp eq %"class.task_module::mojom::RelatedSearch"* %71, null
  br i1 %72, label %73, label %76

73:                                               ; preds = %68
  %74 = bitcast %"class.mojo::StructPtr.49"* %2 to i64*
  store i64 %7, i64* %74, align 8
  %75 = icmp ne i8 %69, 0
  br label %102

76:                                               ; preds = %68
  %77 = getelementptr inbounds %"class.task_module::mojom::RelatedSearch", %"class.task_module::mojom::RelatedSearch"* %71, i64 0, i32 1
  tail call void @_ZN4GURLD1Ev(%class.GURL* %77) #10
  %78 = bitcast %"class.task_module::mojom::RelatedSearch"* %71 to %"struct.std::__1::basic_string<char, std::__1::char_traits<char>, std::__1::allocator<char> >::__short"*
  %79 = getelementptr inbounds %"struct.std::__1::basic_string<char, std::__1::char_traits<char>, std::__1::allocator<char> >::__short", %"struct.std::__1::basic_string<char, std::__1::char_traits<char>, std::__1::allocator<char> >::__short"* %78, i64 0, i32 1, i32 0
  %80 = load i8, i8* %79, align 1
  %81 = icmp slt i8 %80, 0
  br i1 %81, label %82, label %85

82:                                               ; preds = %76
  %83 = getelementptr inbounds %"class.task_module::mojom::RelatedSearch", %"class.task_module::mojom::RelatedSearch"* %71, i64 0, i32 0, i32 0, i32 0, i32 0, i32 0, i32 0, i32 0
  %84 = load i8*, i8** %83, align 8
  tail call void @_ZdlPv(i8* %84) #11
  br label %85

85:                                               ; preds = %76, %82
  %86 = bitcast %"class.task_module::mojom::RelatedSearch"* %71 to i8*
  tail call void @_ZdlPv(i8* %86) #11
  %87 = bitcast %"class.mojo::StructPtr.49"* %2 to i64*
  %88 = load %"class.task_module::mojom::RelatedSearch"*, %"class.task_module::mojom::RelatedSearch"** %70, align 8
  store i64 %7, i64* %87, align 8
  %89 = icmp ne i8 %69, 0
  %90 = icmp eq %"class.task_module::mojom::RelatedSearch"* %88, null
  br i1 %90, label %102, label %91

91:                                               ; preds = %85
  %92 = getelementptr inbounds %"class.task_module::mojom::RelatedSearch", %"class.task_module::mojom::RelatedSearch"* %88, i64 0, i32 1
  tail call void @_ZN4GURLD1Ev(%class.GURL* %92) #10
  %93 = bitcast %"class.task_module::mojom::RelatedSearch"* %88 to %"struct.std::__1::basic_string<char, std::__1::char_traits<char>, std::__1::allocator<char> >::__short"*
  %94 = getelementptr inbounds %"struct.std::__1::basic_string<char, std::__1::char_traits<char>, std::__1::allocator<char> >::__short", %"struct.std::__1::basic_string<char, std::__1::char_traits<char>, std::__1::allocator<char> >::__short"* %93, i64 0, i32 1, i32 0
  %95 = load i8, i8* %94, align 1
  %96 = icmp slt i8 %95, 0
  br i1 %96, label %97, label %100

97:                                               ; preds = %91
  %98 = getelementptr inbounds %"class.task_module::mojom::RelatedSearch", %"class.task_module::mojom::RelatedSearch"* %88, i64 0, i32 0, i32 0, i32 0, i32 0, i32 0, i32 0, i32 0
  %99 = load i8*, i8** %98, align 8
  tail call void @_ZdlPv(i8* %99) #11
  br label %100

100:                                              ; preds = %97, %91
  %101 = bitcast %"class.task_module::mojom::RelatedSearch"* %88 to i8*
  tail call void @_ZdlPv(i8* %101) #11
  br label %102

102:                                              ; preds = %73, %85, %100
  %103 = phi i1 [ %75, %73 ], [ %89, %85 ], [ %89, %100 ]
  ret i1 %103
}

; Function Attrs: nounwind ssp uwtable
define hidden zeroext i1 @_ZN4mojo12StructTraitsIN11task_module5mojom12TaskDataViewENS_9StructPtrINS2_4TaskEEEE4ReadES3_PS6_(%"class.task_module::mojom::internal::Task_Data"*, %"class.mojo::Message"*, %"class.mojo::StructPtr.73"* nocapture) local_unnamed_addr #0 align 2 {
  %4 = tail call i8* @_Znwm(i64 96) #11, !noalias !17
  tail call void @llvm.memset.p0i8.i64(i8* nonnull align 8 %4, i8 0, i64 96, i1 false) #10, !noalias !17
  %5 = ptrtoint i8* %4 to i64
  %6 = bitcast i8* %4 to %"class.std::__1::basic_string"*
  %7 = getelementptr inbounds %"class.task_module::mojom::internal::Task_Data", %"class.task_module::mojom::internal::Task_Data"* %0, i64 0, i32 1
  %8 = getelementptr inbounds %"struct.mojo::internal::Pointer", %"struct.mojo::internal::Pointer"* %7, i64 0, i32 0
  %9 = load i64, i64* %8, align 8
  %10 = icmp eq i64 %9, 0
  %11 = bitcast %"struct.mojo::internal::Pointer"* %7 to i8*
  %12 = getelementptr inbounds i8, i8* %11, i64 %9
  br i1 %10, label %45, label %13

13:                                               ; preds = %3
  %14 = getelementptr inbounds i8, i8* %12, i64 8
  %15 = getelementptr inbounds i8, i8* %12, i64 4
  %16 = bitcast i8* %15 to i32*
  %17 = load i32, i32* %16, align 1
  %18 = zext i32 %17 to i64
  %19 = tail call i1 @llvm.is.constant.i64(i64 %18) #10
  %20 = icmp ult i32 %17, 23
  %21 = and i1 %20, %19
  br i1 %21, label %22, label %29

22:                                               ; preds = %13
  %23 = getelementptr inbounds i8, i8* %4, i64 23
  %24 = trunc i32 %17 to i8
  store i8 %24, i8* %23, align 1
  %25 = icmp eq i32 %17, 0
  br i1 %25, label %27, label %26

26:                                               ; preds = %22
  tail call void @llvm.memcpy.p0i8.p0i8.i64(i8* nonnull align 1 %4, i8* align 1 %14, i64 %18, i1 false) #10
  br label %27

27:                                               ; preds = %26, %22
  %28 = getelementptr inbounds i8, i8* %4, i64 %18
  store i8 0, i8* %28, align 1
  br label %31

29:                                               ; preds = %13
  %30 = tail call dereferenceable(24) %"class.std::__1::basic_string"* @_ZNSt3__112basic_stringIcNS_11char_traitsIcEENS_9allocatorIcEEE17__assign_externalEPKcm(%"class.std::__1::basic_string"* nonnull %6, i8* %14, i64 %18) #10
  br label %31

31:                                               ; preds = %29, %27
  %32 = getelementptr inbounds i8, i8* %4, i64 23
  %33 = load i8, i8* %32, align 1
  %34 = icmp slt i8 %33, 0
  %35 = bitcast i8* %4 to i8**
  %36 = load i8*, i8** %35, align 8
  %37 = select i1 %34, i8* %36, i8* %4
  %38 = getelementptr inbounds i8, i8* %4, i64 8
  %39 = bitcast i8* %38 to i64*
  %40 = load i64, i64* %39, align 8
  %41 = zext i8 %33 to i64
  %42 = select i1 %34, i64 %40, i64 %41
  %43 = tail call zeroext i1 @_ZN4base12IsStringUTF8ENS_16BasicStringPieceIcNSt3__111char_traitsIcEEEE(i8* %37, i64 %42) #10
  br i1 %43, label %45, label %44

44:                                               ; preds = %31
  tail call void @_ZN4mojo8internal34RecordInvalidStringDeserializationEv() #10
  br label %45

45:                                               ; preds = %44, %31, %3
  %46 = getelementptr inbounds i8, i8* %4, i64 24
  %47 = bitcast i8* %46 to %"class.std::__1::basic_string"*
  %48 = getelementptr inbounds %"class.task_module::mojom::internal::Task_Data", %"class.task_module::mojom::internal::Task_Data"* %0, i64 0, i32 2
  %49 = getelementptr inbounds %"struct.mojo::internal::Pointer", %"struct.mojo::internal::Pointer"* %48, i64 0, i32 0
  %50 = load i64, i64* %49, align 8
  %51 = icmp eq i64 %50, 0
  %52 = bitcast %"struct.mojo::internal::Pointer"* %48 to i8*
  %53 = getelementptr inbounds i8, i8* %52, i64 %50
  br i1 %51, label %96, label %54

54:                                               ; preds = %45
  %55 = getelementptr inbounds i8, i8* %53, i64 8
  %56 = getelementptr inbounds i8, i8* %53, i64 4
  %57 = bitcast i8* %56 to i32*
  %58 = load i32, i32* %57, align 1
  %59 = zext i32 %58 to i64
  %60 = tail call i1 @llvm.is.constant.i64(i64 %59) #10
  %61 = icmp ult i32 %58, 23
  %62 = and i1 %61, %60
  br i1 %62, label %63, label %80

63:                                               ; preds = %54
  %64 = getelementptr inbounds i8, i8* %4, i64 47
  %65 = load i8, i8* %64, align 1
  %66 = icmp slt i8 %65, 0
  br i1 %66, label %67, label %72

67:                                               ; preds = %63
  %68 = getelementptr inbounds i8, i8* %4, i64 32
  %69 = bitcast i8* %68 to i64*
  store i64 %59, i64* %69, align 8
  %70 = bitcast i8* %46 to i8**
  %71 = load i8*, i8** %70, align 8
  br label %74

72:                                               ; preds = %63
  %73 = trunc i32 %58 to i8
  store i8 %73, i8* %64, align 1
  br label %74

74:                                               ; preds = %72, %67
  %75 = phi i8* [ %71, %67 ], [ %46, %72 ]
  %76 = icmp eq i32 %58, 0
  br i1 %76, label %78, label %77

77:                                               ; preds = %74
  tail call void @llvm.memmove.p0i8.p0i8.i64(i8* align 1 %75, i8* align 1 %55, i64 %59, i1 false) #10
  br label %78

78:                                               ; preds = %77, %74
  %79 = getelementptr inbounds i8, i8* %75, i64 %59
  store i8 0, i8* %79, align 1
  br label %82

80:                                               ; preds = %54
  %81 = tail call dereferenceable(24) %"class.std::__1::basic_string"* @_ZNSt3__112basic_stringIcNS_11char_traitsIcEENS_9allocatorIcEEE17__assign_externalEPKcm(%"class.std::__1::basic_string"* %47, i8* %55, i64 %59) #10
  br label %82

82:                                               ; preds = %80, %78
  %83 = getelementptr inbounds i8, i8* %4, i64 47
  %84 = load i8, i8* %83, align 1
  %85 = icmp slt i8 %84, 0
  %86 = bitcast i8* %46 to i8**
  %87 = load i8*, i8** %86, align 8
  %88 = select i1 %85, i8* %87, i8* %46
  %89 = getelementptr inbounds i8, i8* %4, i64 32
  %90 = bitcast i8* %89 to i64*
  %91 = load i64, i64* %90, align 8
  %92 = zext i8 %84 to i64
  %93 = select i1 %85, i64 %91, i64 %92
  %94 = tail call zeroext i1 @_ZN4base12IsStringUTF8ENS_16BasicStringPieceIcNSt3__111char_traitsIcEEEE(i8* %88, i64 %93) #10
  br i1 %94, label %96, label %95

95:                                               ; preds = %82
  tail call void @_ZN4mojo8internal34RecordInvalidStringDeserializationEv() #10
  br label %96

96:                                               ; preds = %45, %82, %95
  %97 = getelementptr inbounds i8, i8* %4, i64 48
  %98 = getelementptr inbounds %"class.task_module::mojom::internal::Task_Data", %"class.task_module::mojom::internal::Task_Data"* %0, i64 0, i32 3
  %99 = getelementptr inbounds %"struct.mojo::internal::Pointer.88", %"struct.mojo::internal::Pointer.88"* %98, i64 0, i32 0
  %100 = load i64, i64* %99, align 8
  %101 = icmp eq i64 %100, 0
  br i1 %101, label %102, label %120

102:                                              ; preds = %96
  %103 = bitcast i8* %97 to %"class.mojo::StructPtr"**
  %104 = load %"class.mojo::StructPtr"*, %"class.mojo::StructPtr"** %103, align 8
  %105 = getelementptr inbounds i8, i8* %4, i64 56
  %106 = bitcast i8* %105 to %"class.mojo::StructPtr"**
  %107 = load %"class.mojo::StructPtr"*, %"class.mojo::StructPtr"** %106, align 8
  %108 = icmp eq %"class.mojo::StructPtr"* %107, %104
  br i1 %108, label %119, label %109

109:                                              ; preds = %102, %117
  %110 = phi %"class.mojo::StructPtr"* [ %111, %117 ], [ %107, %102 ]
  %111 = getelementptr inbounds %"class.mojo::StructPtr", %"class.mojo::StructPtr"* %110, i64 -1
  %112 = getelementptr inbounds %"class.mojo::StructPtr", %"class.mojo::StructPtr"* %111, i64 0, i32 0, i32 0, i32 0, i32 0
  %113 = load %"class.task_module::mojom::TaskItem"*, %"class.task_module::mojom::TaskItem"** %112, align 8
  store %"class.task_module::mojom::TaskItem"* null, %"class.task_module::mojom::TaskItem"** %112, align 8
  %114 = icmp eq %"class.task_module::mojom::TaskItem"* %113, null
  br i1 %114, label %117, label %115

115:                                              ; preds = %109
  tail call void @_ZN11task_module5mojom8TaskItemD2Ev(%"class.task_module::mojom::TaskItem"* nonnull %113) #10
  %116 = bitcast %"class.task_module::mojom::TaskItem"* %113 to i8*
  tail call void @_ZdlPv(i8* %116) #11
  br label %117

117:                                              ; preds = %115, %109
  %118 = icmp eq %"class.mojo::StructPtr"* %111, %104
  br i1 %118, label %119, label %109

119:                                              ; preds = %117, %102
  store %"class.mojo::StructPtr"* %104, %"class.mojo::StructPtr"** %106, align 8
  br label %160

120:                                              ; preds = %96
  %121 = bitcast i8* %97 to %"class.std::__1::vector.34"*
  %122 = bitcast %"struct.mojo::internal::Pointer.88"* %98 to i8*
  %123 = getelementptr inbounds i8, i8* %122, i64 %100
  %124 = getelementptr inbounds i8, i8* %123, i64 4
  %125 = bitcast i8* %124 to i32*
  %126 = load i32, i32* %125, align 1
  %127 = zext i32 %126 to i64
  %128 = tail call zeroext i1 @_ZN4mojo11ArrayTraitsINSt3__16vectorINS_9StructPtrIN11task_module5mojom8TaskItemEEENS1_9allocatorIS7_EEEEE6ResizeERSA_m(%"class.std::__1::vector.34"* dereferenceable(24) %121, i64 %127) #10
  br i1 %128, label %129, label %200

129:                                              ; preds = %120
  %130 = load i32, i32* %125, align 1
  %131 = icmp eq i32 %130, 0
  br i1 %131, label %160, label %132

132:                                              ; preds = %129
  %133 = getelementptr inbounds i8, i8* %123, i64 8
  %134 = bitcast i8* %133 to %"class.mojo::internal::Array_Data.106"*
  %135 = bitcast i8* %97 to %"class.mojo::StructPtr"**
  br label %136

136:                                              ; preds = %156, %132
  %137 = phi i64 [ 0, %132 ], [ %142, %156 ]
  %138 = getelementptr inbounds %"class.mojo::internal::Array_Data.106", %"class.mojo::internal::Array_Data.106"* %134, i64 %137
  %139 = bitcast %"class.mojo::internal::Array_Data.106"* %138 to i64*
  %140 = load i64, i64* %139, align 8
  %141 = icmp eq i64 %140, 0
  %142 = add nuw nsw i64 %137, 1
  %143 = load %"class.mojo::StructPtr"*, %"class.mojo::StructPtr"** %135, align 8
  %144 = getelementptr inbounds %"class.mojo::StructPtr", %"class.mojo::StructPtr"* %143, i64 %137
  br i1 %141, label %145, label %151

145:                                              ; preds = %136
  %146 = getelementptr inbounds %"class.mojo::StructPtr", %"class.mojo::StructPtr"* %144, i64 0, i32 0, i32 0, i32 0, i32 0
  %147 = load %"class.task_module::mojom::TaskItem"*, %"class.task_module::mojom::TaskItem"** %146, align 8
  store %"class.task_module::mojom::TaskItem"* null, %"class.task_module::mojom::TaskItem"** %146, align 8
  %148 = icmp eq %"class.task_module::mojom::TaskItem"* %147, null
  br i1 %148, label %156, label %149

149:                                              ; preds = %145
  tail call void @_ZN11task_module5mojom8TaskItemD2Ev(%"class.task_module::mojom::TaskItem"* nonnull %147) #10
  %150 = bitcast %"class.task_module::mojom::TaskItem"* %147 to i8*
  tail call void @_ZdlPv(i8* %150) #11
  br label %156

151:                                              ; preds = %136
  %152 = bitcast %"class.mojo::internal::Array_Data.106"* %138 to i8*
  %153 = getelementptr inbounds i8, i8* %152, i64 %140
  %154 = bitcast i8* %153 to %"class.task_module::mojom::internal::TaskItem_Data"*
  %155 = tail call zeroext i1 @_ZN4mojo12StructTraitsIN11task_module5mojom16TaskItemDataViewENS_9StructPtrINS2_8TaskItemEEEE4ReadES3_PS6_(%"class.task_module::mojom::internal::TaskItem_Data"* nonnull %154, %"class.mojo::Message"* %1, %"class.mojo::StructPtr"* %144) #10
  br i1 %155, label %156, label %200

156:                                              ; preds = %151, %149, %145
  %157 = load i32, i32* %125, align 1
  %158 = zext i32 %157 to i64
  %159 = icmp ult i64 %142, %158
  br i1 %159, label %136, label %160

160:                                              ; preds = %156, %119, %129
  %161 = getelementptr inbounds i8, i8* %4, i64 72
  %162 = getelementptr inbounds %"class.task_module::mojom::internal::Task_Data", %"class.task_module::mojom::internal::Task_Data"* %0, i64 0, i32 4
  %163 = getelementptr inbounds %"struct.mojo::internal::Pointer.89", %"struct.mojo::internal::Pointer.89"* %162, i64 0, i32 0
  %164 = load i64, i64* %163, align 8
  %165 = icmp eq i64 %164, 0
  br i1 %165, label %166, label %193

166:                                              ; preds = %160
  %167 = bitcast i8* %161 to %"class.mojo::StructPtr.49"**
  %168 = load %"class.mojo::StructPtr.49"*, %"class.mojo::StructPtr.49"** %167, align 8
  %169 = getelementptr inbounds i8, i8* %4, i64 80
  %170 = bitcast i8* %169 to %"class.mojo::StructPtr.49"**
  %171 = load %"class.mojo::StructPtr.49"*, %"class.mojo::StructPtr.49"** %170, align 8
  %172 = icmp eq %"class.mojo::StructPtr.49"* %171, %168
  br i1 %172, label %192, label %173

173:                                              ; preds = %166, %190
  %174 = phi %"class.mojo::StructPtr.49"* [ %175, %190 ], [ %171, %166 ]
  %175 = getelementptr inbounds %"class.mojo::StructPtr.49", %"class.mojo::StructPtr.49"* %174, i64 -1
  %176 = getelementptr inbounds %"class.mojo::StructPtr.49", %"class.mojo::StructPtr.49"* %175, i64 0, i32 0, i32 0, i32 0, i32 0
  %177 = load %"class.task_module::mojom::RelatedSearch"*, %"class.task_module::mojom::RelatedSearch"** %176, align 8
  store %"class.task_module::mojom::RelatedSearch"* null, %"class.task_module::mojom::RelatedSearch"** %176, align 8
  %178 = icmp eq %"class.task_module::mojom::RelatedSearch"* %177, null
  br i1 %178, label %190, label %179

179:                                              ; preds = %173
  %180 = getelementptr inbounds %"class.task_module::mojom::RelatedSearch", %"class.task_module::mojom::RelatedSearch"* %177, i64 0, i32 1
  tail call void @_ZN4GURLD1Ev(%class.GURL* %180) #10
  %181 = bitcast %"class.task_module::mojom::RelatedSearch"* %177 to %"struct.std::__1::basic_string<char, std::__1::char_traits<char>, std::__1::allocator<char> >::__short"*
  %182 = getelementptr inbounds %"struct.std::__1::basic_string<char, std::__1::char_traits<char>, std::__1::allocator<char> >::__short", %"struct.std::__1::basic_string<char, std::__1::char_traits<char>, std::__1::allocator<char> >::__short"* %181, i64 0, i32 1, i32 0
  %183 = load i8, i8* %182, align 1
  %184 = icmp slt i8 %183, 0
  br i1 %184, label %185, label %188

185:                                              ; preds = %179
  %186 = getelementptr inbounds %"class.task_module::mojom::RelatedSearch", %"class.task_module::mojom::RelatedSearch"* %177, i64 0, i32 0, i32 0, i32 0, i32 0, i32 0, i32 0, i32 0
  %187 = load i8*, i8** %186, align 8
  tail call void @_ZdlPv(i8* %187) #11
  br label %188

188:                                              ; preds = %185, %179
  %189 = bitcast %"class.task_module::mojom::RelatedSearch"* %177 to i8*
  tail call void @_ZdlPv(i8* %189) #11
  br label %190

190:                                              ; preds = %188, %173
  %191 = icmp eq %"class.mojo::StructPtr.49"* %175, %168
  br i1 %191, label %192, label %173

192:                                              ; preds = %190, %166
  store %"class.mojo::StructPtr.49"* %168, %"class.mojo::StructPtr.49"** %170, align 8
  br label %199

193:                                              ; preds = %160
  %194 = bitcast i8* %161 to %"class.std::__1::vector.47"*
  %195 = bitcast %"struct.mojo::internal::Pointer.89"* %162 to i8*
  %196 = getelementptr inbounds i8, i8* %195, i64 %164
  %197 = bitcast i8* %196 to %"class.mojo::internal::Array_Data.108"*
  %198 = tail call zeroext i1 @_ZN4mojo8internal15ArraySerializerINS_13ArrayDataViewIN11task_module5mojom21RelatedSearchDataViewEEENSt3__16vectorINS_9StructPtrINS4_13RelatedSearchEEENS7_9allocatorISB_EEEENS0_13ArrayIteratorINS_11ArrayTraitsISE_EESE_Lb0EEEvE19DeserializeElementsEPNS0_10Array_DataINS0_7PointerINS4_8internal18RelatedSearch_DataEEEEEPSE_PNS_7MessageE(%"class.mojo::internal::Array_Data.108"* nonnull %197, %"class.std::__1::vector.47"* %194, %"class.mojo::Message"* %1) #10
  br i1 %198, label %199, label %200

199:                                              ; preds = %192, %193
  br label %200

200:                                              ; preds = %151, %120, %199, %193
  %201 = phi i8 [ 1, %199 ], [ 0, %193 ], [ 0, %120 ], [ 0, %151 ]
  %202 = getelementptr inbounds %"class.mojo::StructPtr.73", %"class.mojo::StructPtr.73"* %2, i64 0, i32 0, i32 0, i32 0, i32 0
  %203 = load %"class.task_module::mojom::Task"*, %"class.task_module::mojom::Task"** %202, align 8
  store %"class.task_module::mojom::Task"* null, %"class.task_module::mojom::Task"** %202, align 8
  %204 = icmp eq %"class.task_module::mojom::Task"* %203, null
  br i1 %204, label %205, label %208

205:                                              ; preds = %200
  %206 = bitcast %"class.mojo::StructPtr.73"* %2 to i64*
  store i64 %5, i64* %206, align 8
  %207 = icmp ne i8 %201, 0
  br label %216

208:                                              ; preds = %200
  tail call void @_ZN11task_module5mojom4TaskD2Ev(%"class.task_module::mojom::Task"* nonnull %203) #10
  %209 = bitcast %"class.task_module::mojom::Task"* %203 to i8*
  tail call void @_ZdlPv(i8* %209) #11
  %210 = bitcast %"class.mojo::StructPtr.73"* %2 to i64*
  %211 = load %"class.task_module::mojom::Task"*, %"class.task_module::mojom::Task"** %202, align 8
  store i64 %5, i64* %210, align 8
  %212 = icmp ne i8 %201, 0
  %213 = icmp eq %"class.task_module::mojom::Task"* %211, null
  br i1 %213, label %216, label %214

214:                                              ; preds = %208
  tail call void @_ZN11task_module5mojom4TaskD2Ev(%"class.task_module::mojom::Task"* nonnull %211) #10
  %215 = bitcast %"class.task_module::mojom::Task"* %211 to i8*
  tail call void @_ZdlPv(i8* %215) #11
  br label %216

216:                                              ; preds = %205, %208, %214
  %217 = phi i1 [ %207, %205 ], [ %212, %208 ], [ %212, %214 ]
  ret i1 %217
}

; Function Attrs: inlinehint nounwind ssp uwtable
define linkonce_odr hidden void @_ZN11task_module5mojom50TaskModuleHandler_GetPrimaryTask_ForwardToCallbackD2Ev(%"class.task_module::mojom::TaskModuleHandler_GetPrimaryTask_ForwardToCallback"*) unnamed_addr #6 comdat align 2 {
  %2 = getelementptr inbounds %"class.task_module::mojom::TaskModuleHandler_GetPrimaryTask_ForwardToCallback", %"class.task_module::mojom::TaskModuleHandler_GetPrimaryTask_ForwardToCallback"* %0, i64 0, i32 0, i32 0
  store i32 (...)** bitcast (i8** getelementptr inbounds ({ [6 x i8*] }, { [6 x i8*] }* @_ZTVN11task_module5mojom50TaskModuleHandler_GetPrimaryTask_ForwardToCallbackE, i64 0, inrange i32 0, i64 2) to i32 (...)**), i32 (...)*** %2, align 8
  %3 = getelementptr inbounds %"class.task_module::mojom::TaskModuleHandler_GetPrimaryTask_ForwardToCallback", %"class.task_module::mojom::TaskModuleHandler_GetPrimaryTask_ForwardToCallback"* %0, i64 0, i32 1, i32 0
  tail call void @_ZN4base8internal12CallbackBaseD2Ev(%"class.base::internal::CallbackBase"* %3) #10
  ret void
}

; Function Attrs: inlinehint nounwind ssp uwtable
define linkonce_odr hidden void @_ZN11task_module5mojom50TaskModuleHandler_GetPrimaryTask_ForwardToCallbackD0Ev(%"class.task_module::mojom::TaskModuleHandler_GetPrimaryTask_ForwardToCallback"*) unnamed_addr #6 comdat align 2 {
  %2 = getelementptr inbounds %"class.task_module::mojom::TaskModuleHandler_GetPrimaryTask_ForwardToCallback", %"class.task_module::mojom::TaskModuleHandler_GetPrimaryTask_ForwardToCallback"* %0, i64 0, i32 0, i32 0
  store i32 (...)** bitcast (i8** getelementptr inbounds ({ [6 x i8*] }, { [6 x i8*] }* @_ZTVN11task_module5mojom50TaskModuleHandler_GetPrimaryTask_ForwardToCallbackE, i64 0, inrange i32 0, i64 2) to i32 (...)**), i32 (...)*** %2, align 8
  %3 = getelementptr inbounds %"class.task_module::mojom::TaskModuleHandler_GetPrimaryTask_ForwardToCallback", %"class.task_module::mojom::TaskModuleHandler_GetPrimaryTask_ForwardToCallback"* %0, i64 0, i32 1, i32 0
  tail call void @_ZN4base8internal12CallbackBaseD2Ev(%"class.base::internal::CallbackBase"* %3) #10
  %4 = bitcast %"class.task_module::mojom::TaskModuleHandler_GetPrimaryTask_ForwardToCallback"* %0 to i8*
  tail call void @_ZdlPv(i8* %4) #11
  ret void
}

declare zeroext i1 @_ZN4mojo15MessageReceiver25PrefersSerializedMessagesEv(%"class.mojo::MessageReceiver"*) unnamed_addr #1

; Function Attrs: nounwind ssp uwtable
define linkonce_odr hidden void @_ZN11task_module5mojom17TaskModuleHandlerD2Ev(%"class.task_module::mojom::TaskModuleHandler"*) unnamed_addr #0 comdat align 2 {
  ret void
}

; Function Attrs: inlinehint nounwind ssp uwtable
define linkonce_odr hidden void @_ZN11task_module5mojom22TaskModuleHandlerProxyD0Ev(%"class.task_module::mojom::TaskModuleHandlerProxy"*) unnamed_addr #6 comdat align 2 {
  %2 = bitcast %"class.task_module::mojom::TaskModuleHandlerProxy"* %0 to i8*
  tail call void @_ZdlPv(i8* %2) #11
  ret void
}

; Function Attrs: nounwind ssp uwtable
define linkonce_odr hidden void @_ZN4mojo15MessageReceiverD2Ev(%"class.mojo::MessageReceiver"*) unnamed_addr #0 comdat align 2 {
  ret void
}

; Function Attrs: inlinehint nounwind ssp uwtable
define linkonce_odr hidden void @_ZN11task_module5mojom33TaskModuleHandlerRequestValidatorD0Ev(%"class.task_module::mojom::TaskModuleHandlerRequestValidator"*) unnamed_addr #6 comdat align 2 {
  %2 = bitcast %"class.task_module::mojom::TaskModuleHandlerRequestValidator"* %0 to i8*
  tail call void @_ZdlPv(i8* %2) #11
  ret void
}

; Function Attrs: inlinehint nounwind ssp uwtable
define linkonce_odr hidden void @_ZN11task_module5mojom34TaskModuleHandlerResponseValidatorD0Ev(%"class.task_module::mojom::TaskModuleHandlerResponseValidator"*) unnamed_addr #6 comdat align 2 {
  %2 = bitcast %"class.task_module::mojom::TaskModuleHandlerResponseValidator"* %0 to i8*
  tail call void @_ZdlPv(i8* %2) #11
  ret void
}

declare i8* @_ZNK4mojo7Message7payloadEv(%"class.mojo::Message"*) local_unnamed_addr #1

; Function Attrs: nobuiltin nounwind
declare void @_ZdlPv(i8*) local_unnamed_addr #7

; Function Attrs: nounwind ssp uwtable
define linkonce_odr hidden void @_ZN4base8internal7InvokerINS0_9BindStateIMN11task_module5mojom49TaskModuleHandler_GetPrimaryTask_ProxyToResponderEFvN4mojo9StructPtrINS4_4TaskEEEEJNSt3__110unique_ptrIS5_NSC_14default_deleteIS5_EEEEEEEFvS9_EE7RunOnceEPNS0_13BindStateBaseEOS9_(%"class.base::internal::BindStateBase"*, %"class.mojo::StructPtr.73"* dereferenceable(8)) #0 comdat align 2 {
  %3 = alloca %"class.mojo::StructPtr.73", align 8
  %4 = getelementptr inbounds %"class.base::internal::BindStateBase", %"class.base::internal::BindStateBase"* %0, i64 1
  %5 = getelementptr inbounds %"class.base::internal::BindStateBase", %"class.base::internal::BindStateBase"* %0, i64 1, i32 2
  %6 = bitcast %"class.base::internal::BindStateBase"* %4 to i64*
  %7 = load i64, i64* %6, align 8
  %8 = getelementptr inbounds %"class.base::internal::BindStateBase", %"class.base::internal::BindStateBase"* %0, i64 1, i32 1
  %9 = bitcast void ()** %8 to i64*
  %10 = load i64, i64* %9, align 8
  %11 = bitcast %"class.mojo::StructPtr.73"* %3 to i8*
  call void @llvm.lifetime.start.p0i8(i64 8, i8* nonnull %11) #10
  %12 = bitcast void (%"class.base::internal::BindStateBase"*)** %5 to i8**
  %13 = load i8*, i8** %12, align 8
  %14 = getelementptr inbounds i8, i8* %13, i64 %10
  %15 = bitcast i8* %14 to %"class.task_module::mojom::TaskModuleHandler_GetPrimaryTask_ProxyToResponder"*
  %16 = and i64 %7, 1
  %17 = icmp eq i64 %16, 0
  br i1 %17, label %25, label %18

18:                                               ; preds = %2
  %19 = bitcast i8* %14 to i8**
  %20 = load i8*, i8** %19, align 8
  %21 = add i64 %7, -1
  %22 = getelementptr i8, i8* %20, i64 %21
  %23 = bitcast i8* %22 to void (%"class.task_module::mojom::TaskModuleHandler_GetPrimaryTask_ProxyToResponder"*, %"class.mojo::StructPtr.73"*)**
  %24 = load void (%"class.task_module::mojom::TaskModuleHandler_GetPrimaryTask_ProxyToResponder"*, %"class.mojo::StructPtr.73"*)*, void (%"class.task_module::mojom::TaskModuleHandler_GetPrimaryTask_ProxyToResponder"*, %"class.mojo::StructPtr.73"*)** %23, align 8
  br label %27

25:                                               ; preds = %2
  %26 = inttoptr i64 %7 to void (%"class.task_module::mojom::TaskModuleHandler_GetPrimaryTask_ProxyToResponder"*, %"class.mojo::StructPtr.73"*)*
  br label %27

27:                                               ; preds = %25, %18
  %28 = phi void (%"class.task_module::mojom::TaskModuleHandler_GetPrimaryTask_ProxyToResponder"*, %"class.mojo::StructPtr.73"*)* [ %24, %18 ], [ %26, %25 ]
  %29 = bitcast %"class.mojo::StructPtr.73"* %3 to i64*
  %30 = getelementptr inbounds %"class.mojo::StructPtr.73", %"class.mojo::StructPtr.73"* %3, i64 0, i32 0, i32 0, i32 0, i32 0
  %31 = bitcast %"class.mojo::StructPtr.73"* %1 to i64*
  %32 = load i64, i64* %31, align 8
  store i64 %32, i64* %29, align 8
  store i64 0, i64* %31, align 8
  call void %28(%"class.task_module::mojom::TaskModuleHandler_GetPrimaryTask_ProxyToResponder"* %15, %"class.mojo::StructPtr.73"* nonnull %3) #10
  %33 = load %"class.task_module::mojom::Task"*, %"class.task_module::mojom::Task"** %30, align 8
  store %"class.task_module::mojom::Task"* null, %"class.task_module::mojom::Task"** %30, align 8
  %34 = icmp eq %"class.task_module::mojom::Task"* %33, null
  br i1 %34, label %37, label %35

35:                                               ; preds = %27
  call void @_ZN11task_module5mojom4TaskD2Ev(%"class.task_module::mojom::Task"* nonnull %33) #10
  %36 = bitcast %"class.task_module::mojom::Task"* %33 to i8*
  call void @_ZdlPv(i8* %36) #11
  br label %37

37:                                               ; preds = %27, %35
  call void @llvm.lifetime.end.p0i8(i64 8, i8* nonnull %11) #10
  ret void
}

; Function Attrs: nounwind ssp uwtable
define linkonce_odr hidden void @_ZN4base8internal9BindStateIMN11task_module5mojom49TaskModuleHandler_GetPrimaryTask_ProxyToResponderEFvN4mojo9StructPtrINS3_4TaskEEEEJNSt3__110unique_ptrIS4_NSB_14default_deleteIS4_EEEEEE7DestroyEPKNS0_13BindStateBaseE(%"class.base::internal::BindStateBase"*) #0 comdat align 2 {
  %2 = icmp eq %"class.base::internal::BindStateBase"* %0, null
  br i1 %2, label %28, label %3

3:                                                ; preds = %1
  %4 = getelementptr inbounds %"class.base::internal::BindStateBase", %"class.base::internal::BindStateBase"* %0, i64 1, i32 2
  %5 = bitcast void (%"class.base::internal::BindStateBase"*)** %4 to %"class.task_module::mojom::TaskModuleHandler_GetPrimaryTask_ProxyToResponder"**
  %6 = load %"class.task_module::mojom::TaskModuleHandler_GetPrimaryTask_ProxyToResponder"*, %"class.task_module::mojom::TaskModuleHandler_GetPrimaryTask_ProxyToResponder"** %5, align 8
  store %"class.task_module::mojom::TaskModuleHandler_GetPrimaryTask_ProxyToResponder"* null, %"class.task_module::mojom::TaskModuleHandler_GetPrimaryTask_ProxyToResponder"** %5, align 8
  %7 = icmp eq %"class.task_module::mojom::TaskModuleHandler_GetPrimaryTask_ProxyToResponder"* %6, null
  br i1 %7, label %26, label %8

8:                                                ; preds = %3
  %9 = getelementptr inbounds %"class.task_module::mojom::TaskModuleHandler_GetPrimaryTask_ProxyToResponder", %"class.task_module::mojom::TaskModuleHandler_GetPrimaryTask_ProxyToResponder"* %6, i64 0, i32 2, i32 0, i32 0, i32 0
  %10 = load %"class.mojo::MessageReceiverWithStatus"*, %"class.mojo::MessageReceiverWithStatus"** %9, align 8
  store %"class.mojo::MessageReceiverWithStatus"* null, %"class.mojo::MessageReceiverWithStatus"** %9, align 8
  %11 = icmp eq %"class.mojo::MessageReceiverWithStatus"* %10, null
  br i1 %11, label %24, label %12

12:                                               ; preds = %8
  %13 = bitcast %"class.mojo::MessageReceiverWithStatus"* %10 to void (%"class.mojo::MessageReceiverWithStatus"*)***
  %14 = load void (%"class.mojo::MessageReceiverWithStatus"*)**, void (%"class.mojo::MessageReceiverWithStatus"*)*** %13, align 8
  %15 = getelementptr inbounds void (%"class.mojo::MessageReceiverWithStatus"*)*, void (%"class.mojo::MessageReceiverWithStatus"*)** %14, i64 1
  %16 = load void (%"class.mojo::MessageReceiverWithStatus"*)*, void (%"class.mojo::MessageReceiverWithStatus"*)** %15, align 8
  tail call void %16(%"class.mojo::MessageReceiverWithStatus"* nonnull %10) #10
  %17 = load %"class.mojo::MessageReceiverWithStatus"*, %"class.mojo::MessageReceiverWithStatus"** %9, align 8
  store %"class.mojo::MessageReceiverWithStatus"* null, %"class.mojo::MessageReceiverWithStatus"** %9, align 8
  %18 = icmp eq %"class.mojo::MessageReceiverWithStatus"* %17, null
  br i1 %18, label %24, label %19

19:                                               ; preds = %12
  %20 = bitcast %"class.mojo::MessageReceiverWithStatus"* %17 to void (%"class.mojo::MessageReceiverWithStatus"*)***
  %21 = load void (%"class.mojo::MessageReceiverWithStatus"*)**, void (%"class.mojo::MessageReceiverWithStatus"*)*** %20, align 8
  %22 = getelementptr inbounds void (%"class.mojo::MessageReceiverWithStatus"*)*, void (%"class.mojo::MessageReceiverWithStatus"*)** %21, i64 1
  %23 = load void (%"class.mojo::MessageReceiverWithStatus"*)*, void (%"class.mojo::MessageReceiverWithStatus"*)** %22, align 8
  tail call void %23(%"class.mojo::MessageReceiverWithStatus"* nonnull %17) #10
  br label %24

24:                                               ; preds = %19, %12, %8
  %25 = bitcast %"class.task_module::mojom::TaskModuleHandler_GetPrimaryTask_ProxyToResponder"* %6 to i8*
  tail call void @_ZdlPv(i8* %25) #11
  br label %26

26:                                               ; preds = %3, %24
  %27 = bitcast %"class.base::internal::BindStateBase"* %0 to i8*
  tail call void @_ZdlPv(i8* %27) #11
  br label %28

28:                                               ; preds = %26, %1
  ret void
}

declare void @_ZN4base8internal13BindStateBaseC2EPFvvEPFvPKS1_E(%"class.base::internal::BindStateBase"*, void ()*, void (%"class.base::internal::BindStateBase"*)*) unnamed_addr #1

declare zeroext i1 @_ZN11task_module5mojom8internal44TaskModuleHandler_GetPrimaryTask_Params_Data8ValidateEPKvPN4mojo8internal17ValidationContextE(i8*, %"class.mojo::internal::ValidationContext"*) #1

declare zeroext i1 @_ZN11task_module5mojom8internal52TaskModuleHandler_GetPrimaryTask_ResponseParams_Data8ValidateEPKvPN4mojo8internal17ValidationContextE(i8*, %"class.mojo::internal::ValidationContext"*) #1

declare zeroext i1 @_ZN11task_module5mojom8internal41TaskModuleHandler_DismissTask_Params_Data8ValidateEPKvPN4mojo8internal17ValidationContextE(i8*, %"class.mojo::internal::ValidationContext"*) #1

declare zeroext i1 @_ZN11task_module5mojom8internal41TaskModuleHandler_RestoreTask_Params_Data8ValidateEPKvPN4mojo8internal17ValidationContextE(i8*, %"class.mojo::internal::ValidationContext"*) #1

declare zeroext i1 @_ZN11task_module5mojom8internal47TaskModuleHandler_OnTaskItemClicked_Params_Data8ValidateEPKvPN4mojo8internal17ValidationContextE(i8*, %"class.mojo::internal::ValidationContext"*) #1

declare zeroext i1 @_ZN11task_module5mojom8internal52TaskModuleHandler_OnRelatedSearchClicked_Params_Data8ValidateEPKvPN4mojo8internal17ValidationContextE(i8*, %"class.mojo::internal::ValidationContext"*) #1

declare void @_ZNSt3__112basic_stringIcNS_11char_traitsIcEENS_9allocatorIcEEE25__init_copy_ctor_externalEPKcm(%"class.std::__1::basic_string"*, i8*, i64) local_unnamed_addr #1

declare void @_ZNO8perfetto11TracedValue11WriteStringERKNSt3__112basic_stringIcNS1_11char_traitsIcEENS1_9allocatorIcEEEE(%"class.perfetto::TracedValue"*, %"class.std::__1::basic_string"* dereferenceable(24)) local_unnamed_addr #1

declare void @_ZNK4GURL14WriteIntoTraceEN8perfetto11TracedValueE(%class.GURL*, %"class.perfetto::TracedValue"*) local_unnamed_addr #1

declare void @_ZNO8perfetto11TracedValue12WritePointerEPKv(%"class.perfetto::TracedValue"*, i8*) local_unnamed_addr #1

declare void @_ZNO8perfetto11TracedValue10WriteArrayEv(%"class.perfetto::TracedArray"* sret, %"class.perfetto::TracedValue"*) local_unnamed_addr #1

declare void @_ZN8perfetto11TracedArray10AppendItemEv(%"class.perfetto::TracedValue"* sret, %"class.perfetto::TracedArray"*) local_unnamed_addr #1

; Function Attrs: nounwind ssp uwtable
define linkonce_odr hidden void @_ZN8perfetto8internal9WriteImplIPN11task_module5mojom13RelatedSearchEEEDTcmclsr17TraceFormatTraitsINS_4base12remove_cvrefIT_E4typeEEE14WriteIntoTraceclL_ZNSt3__17declvalINS_11TracedValueEEEDTclsr3std3__1E9__declvalIS8_ELi0EEEvEEclsr3stdE7declvalIS8_EEEcvv_EENS6_12priority_tagILm3EEESD_OS8_(%"class.perfetto::TracedValue"*, %"class.task_module::mojom::RelatedSearch"** dereferenceable(8)) local_unnamed_addr #0 comdat {
  %3 = alloca %"class.perfetto::TracedValue", align 8
  %4 = alloca %"class.perfetto::TracedValue", align 8
  %5 = alloca %"class.perfetto::TracedDictionary", align 8
  %6 = alloca %"class.perfetto::TracedValue", align 8
  %7 = alloca %"class.perfetto::TracedValue", align 8
  %8 = alloca %"class.perfetto::TracedValue", align 8
  %9 = alloca %"class.perfetto::TracedValue", align 8
  %10 = bitcast %"class.perfetto::TracedValue"* %9 to i8*
  %11 = bitcast %"class.perfetto::TracedValue"* %0 to i8*
  call void @llvm.memcpy.p0i8.p0i8.i64(i8* nonnull align 8 %10, i8* align 8 %11, i64 16, i1 false)
  %12 = load %"class.task_module::mojom::RelatedSearch"*, %"class.task_module::mojom::RelatedSearch"** %1, align 8
  %13 = icmp eq %"class.task_module::mojom::RelatedSearch"* %12, null
  br i1 %13, label %14, label %15

14:                                               ; preds = %2
  call void @_ZNO8perfetto11TracedValue12WritePointerEPKv(%"class.perfetto::TracedValue"* nonnull %9, i8* null) #10
  br label %24

15:                                               ; preds = %2
  %16 = bitcast %"class.perfetto::TracedValue"* %8 to i8*
  call void @llvm.lifetime.start.p0i8(i64 16, i8* nonnull %16) #10
  call void @llvm.memcpy.p0i8.p0i8.i64(i8* nonnull align 8 %16, i8* nonnull align 8 %10, i64 16, i1 false) #10
  %17 = bitcast %"class.perfetto::TracedValue"* %6 to i8*
  call void @llvm.lifetime.start.p0i8(i64 16, i8* nonnull %17) #10
  %18 = bitcast %"class.perfetto::TracedValue"* %7 to i8*
  call void @llvm.lifetime.start.p0i8(i64 16, i8* nonnull %18) #10
  %19 = bitcast %"class.perfetto::TracedDictionary"* %5 to i8*
  call void @llvm.lifetime.start.p0i8(i64 16, i8* nonnull %19) #10
  call void @llvm.memset.p0i8.i64(i8* nonnull align 8 %19, i8 -86, i64 16, i1 false) #10
  call void @_ZNO8perfetto11TracedValue15WriteDictionaryEv(%"class.perfetto::TracedDictionary"* nonnull sret %5, %"class.perfetto::TracedValue"* nonnull %8) #10
  call void @_ZN8perfetto16TracedDictionary7AddItemENS_12StaticStringE(%"class.perfetto::TracedValue"* nonnull sret %6, %"class.perfetto::TracedDictionary"* nonnull %5, i8* getelementptr inbounds ([5 x i8], [5 x i8]* @.str.7, i64 0, i64 0)) #10
  %20 = getelementptr inbounds %"class.task_module::mojom::RelatedSearch", %"class.task_module::mojom::RelatedSearch"* %12, i64 0, i32 0
  %21 = bitcast %"class.perfetto::TracedValue"* %3 to i8*
  call void @llvm.lifetime.start.p0i8(i64 16, i8* nonnull %21) #10
  call void @llvm.memcpy.p0i8.p0i8.i64(i8* nonnull align 8 %21, i8* nonnull align 8 %17, i64 16, i1 false) #10
  call void @_ZNO8perfetto11TracedValue11WriteStringERKNSt3__112basic_stringIcNS1_11char_traitsIcEENS1_9allocatorIcEEEE(%"class.perfetto::TracedValue"* nonnull %3, %"class.std::__1::basic_string"* dereferenceable(24) %20) #10
  call void @llvm.lifetime.end.p0i8(i64 16, i8* nonnull %21) #10
  call void @_ZN8perfetto16TracedDictionary7AddItemENS_12StaticStringE(%"class.perfetto::TracedValue"* nonnull sret %7, %"class.perfetto::TracedDictionary"* nonnull %5, i8* getelementptr inbounds ([11 x i8], [11 x i8]* @.str.6, i64 0, i64 0)) #10
  %22 = getelementptr inbounds %"class.task_module::mojom::RelatedSearch", %"class.task_module::mojom::RelatedSearch"* %12, i64 0, i32 1
  %23 = bitcast %"class.perfetto::TracedValue"* %4 to i8*
  call void @llvm.lifetime.start.p0i8(i64 16, i8* nonnull %23) #10
  call void @llvm.memcpy.p0i8.p0i8.i64(i8* nonnull align 8 %23, i8* nonnull align 8 %18, i64 16, i1 false) #10
  call void @_ZNK4GURL14WriteIntoTraceEN8perfetto11TracedValueE(%class.GURL* %22, %"class.perfetto::TracedValue"* nonnull %4) #10
  call void @llvm.lifetime.end.p0i8(i64 16, i8* nonnull %23) #10
  call void @llvm.lifetime.end.p0i8(i64 16, i8* nonnull %19) #10
  call void @llvm.lifetime.end.p0i8(i64 16, i8* nonnull %17) #10
  call void @llvm.lifetime.end.p0i8(i64 16, i8* nonnull %18) #10
  call void @llvm.lifetime.end.p0i8(i64 16, i8* nonnull %16) #10
  br label %24

24:                                               ; preds = %14, %15
  ret void
}

declare i64 @_ZN4mojo8internal6Buffer8AllocateEm(%"class.mojo::internal::Buffer"*, i64) local_unnamed_addr #1

declare void @_ZN11task_module5mojom8internal44TaskModuleHandler_GetPrimaryTask_Params_DataC1Ev(%"class.task_module::mojom::internal::TaskModuleHandler_GetPrimaryTask_Params_Data"*) unnamed_addr #1

declare void @_ZN11task_module5mojom8internal41TaskModuleHandler_DismissTask_Params_DataC1Ev(%"class.task_module::mojom::internal::TaskModuleHandler_DismissTask_Params_Data"*) unnamed_addr #1

; Function Attrs: nounwind ssp uwtable
define linkonce_odr hidden void @_ZN4mojo8internal10SerializerINS_14StringDataViewEKNSt3__112basic_stringIcNS3_11char_traitsIcEENS3_9allocatorIcEEEEE9SerializeERSA_RNS0_15MessageFragmentINS0_10Array_DataIcEEEE(%"class.std::__1::basic_string"* dereferenceable(24), %"class.mojo::internal::MessageFragment.68"* dereferenceable(16)) local_unnamed_addr #0 comdat align 2 {
  %3 = alloca %"class.std::__1::basic_string", align 8
  %4 = bitcast %"class.std::__1::basic_string"* %3 to i8*
  call void @llvm.lifetime.start.p0i8(i64 24, i8* nonnull %4) #10
  %5 = getelementptr inbounds %"class.std::__1::basic_string", %"class.std::__1::basic_string"* %3, i64 0, i32 0, i32 0, i32 0, i32 0, i32 0, i32 0
  %6 = getelementptr inbounds %"class.std::__1::basic_string", %"class.std::__1::basic_string"* %3, i64 0, i32 0, i32 0, i32 0, i32 0, i32 0, i32 1
  %7 = bitcast %"class.std::__1::basic_string"* %0 to %"struct.std::__1::basic_string<char, std::__1::char_traits<char>, std::__1::allocator<char> >::__short"*
  %8 = getelementptr inbounds %"struct.std::__1::basic_string<char, std::__1::char_traits<char>, std::__1::allocator<char> >::__short", %"struct.std::__1::basic_string<char, std::__1::char_traits<char>, std::__1::allocator<char> >::__short"* %7, i64 0, i32 1, i32 0
  %9 = bitcast %"class.std::__1::basic_string"* %3 to i8*
  call void @llvm.memset.p0i8.i64(i8* nonnull align 8 %9, i8 -86, i64 24, i1 false)
  %10 = load i8, i8* %8, align 1
  %11 = icmp slt i8 %10, 0
  br i1 %11, label %14, label %12

12:                                               ; preds = %2
  %13 = bitcast %"class.std::__1::basic_string"* %0 to i8*
  call void @llvm.memcpy.p0i8.p0i8.i64(i8* nonnull align 8 %4, i8* align 8 %13, i64 24, i1 false) #10
  br label %19

14:                                               ; preds = %2
  %15 = getelementptr inbounds %"class.std::__1::basic_string", %"class.std::__1::basic_string"* %0, i64 0, i32 0, i32 0, i32 0, i32 0, i32 0, i32 0
  %16 = load i8*, i8** %15, align 8
  %17 = getelementptr inbounds %"class.std::__1::basic_string", %"class.std::__1::basic_string"* %0, i64 0, i32 0, i32 0, i32 0, i32 0, i32 0, i32 1
  %18 = load i64, i64* %17, align 8
  call void @_ZNSt3__112basic_stringIcNS_11char_traitsIcEENS_9allocatorIcEEE25__init_copy_ctor_externalEPKcm(%"class.std::__1::basic_string"* nonnull %3, i8* %16, i64 %18) #10
  br label %19

19:                                               ; preds = %12, %14
  %20 = bitcast %"class.std::__1::basic_string"* %3 to %"struct.std::__1::basic_string<char, std::__1::char_traits<char>, std::__1::allocator<char> >::__short"*
  %21 = getelementptr inbounds %"struct.std::__1::basic_string<char, std::__1::char_traits<char>, std::__1::allocator<char> >::__short", %"struct.std::__1::basic_string<char, std::__1::char_traits<char>, std::__1::allocator<char> >::__short"* %20, i64 0, i32 1, i32 0
  %22 = load i8, i8* %21, align 1
  %23 = icmp slt i8 %22, 0
  br i1 %23, label %26, label %24

24:                                               ; preds = %19
  %25 = zext i8 %22 to i64
  br label %29

26:                                               ; preds = %19
  %27 = load i64, i64* %6, align 8
  %28 = icmp ugt i64 %27, 4294967287
  br i1 %28, label %48, label %29

29:                                               ; preds = %24, %26
  %30 = phi i64 [ %25, %24 ], [ %27, %26 ]
  %31 = trunc i64 %30 to i32
  %32 = add nuw i32 %31, 8
  %33 = getelementptr inbounds %"class.mojo::internal::MessageFragment.68", %"class.mojo::internal::MessageFragment.68"* %1, i64 0, i32 0
  %34 = load %"class.mojo::Message"*, %"class.mojo::Message"** %33, align 8
  %35 = getelementptr inbounds %"class.mojo::Message", %"class.mojo::Message"* %34, i64 0, i32 1
  %36 = zext i32 %32 to i64
  %37 = call i64 @_ZN4mojo8internal6Buffer8AllocateEm(%"class.mojo::internal::Buffer"* %35, i64 %36) #10
  %38 = getelementptr inbounds %"class.mojo::internal::MessageFragment.68", %"class.mojo::internal::MessageFragment.68"* %1, i64 0, i32 1
  store i64 %37, i64* %38, align 8
  %39 = load %"class.mojo::Message"*, %"class.mojo::Message"** %33, align 8
  %40 = getelementptr inbounds %"class.mojo::Message", %"class.mojo::Message"* %39, i64 0, i32 1, i32 2
  %41 = load i8*, i8** %40, align 8
  %42 = getelementptr inbounds i8, i8* %41, i64 %37
  %43 = bitcast i8* %42 to i32*
  store i32 %32, i32* %43, align 1
  %44 = getelementptr inbounds i8, i8* %42, i64 4
  %45 = bitcast i8* %44 to i32*
  store i32 %31, i32* %45, align 1
  %46 = load i8, i8* %21, align 1
  %47 = load i64, i64* %6, align 8
  br label %48

48:                                               ; preds = %26, %29
  %49 = phi i64 [ %27, %26 ], [ %47, %29 ]
  %50 = phi i8 [ %22, %26 ], [ %46, %29 ]
  %51 = getelementptr inbounds %"class.mojo::internal::MessageFragment.68", %"class.mojo::internal::MessageFragment.68"* %1, i64 0, i32 0
  %52 = load %"class.mojo::Message"*, %"class.mojo::Message"** %51, align 8
  %53 = getelementptr inbounds %"class.mojo::internal::MessageFragment.68", %"class.mojo::internal::MessageFragment.68"* %1, i64 0, i32 1
  %54 = load i64, i64* %53, align 8
  %55 = getelementptr inbounds %"class.mojo::Message", %"class.mojo::Message"* %52, i64 0, i32 1, i32 2
  %56 = load i8*, i8** %55, align 8
  %57 = getelementptr inbounds i8, i8* %56, i64 %54
  %58 = getelementptr inbounds i8, i8* %57, i64 8
  %59 = icmp slt i8 %50, 0
  %60 = load i8*, i8** %5, align 8
  %61 = zext i8 %50 to i64
  %62 = select i1 %59, i8* %60, i8* %4
  %63 = select i1 %59, i64 %49, i64 %61
  call void @llvm.memcpy.p0i8.p0i8.i64(i8* align 1 %58, i8* align 1 %62, i64 %63, i1 false)
  %64 = load i8, i8* %21, align 1
  %65 = icmp slt i8 %64, 0
  br i1 %65, label %66, label %68

66:                                               ; preds = %48
  %67 = load i8*, i8** %5, align 8
  call void @_ZdlPv(i8* %67) #11
  br label %68

68:                                               ; preds = %66, %48
  call void @llvm.lifetime.end.p0i8(i64 24, i8* nonnull %4) #10
  ret void
}

declare void @_ZN11task_module5mojom8internal41TaskModuleHandler_RestoreTask_Params_DataC1Ev(%"class.task_module::mojom::internal::TaskModuleHandler_RestoreTask_Params_Data"*) unnamed_addr #1

declare void @_ZN11task_module5mojom8internal47TaskModuleHandler_OnTaskItemClicked_Params_DataC1Ev(%"class.task_module::mojom::internal::TaskModuleHandler_OnTaskItemClicked_Params_Data"*) unnamed_addr #1

declare void @_ZN11task_module5mojom8internal52TaskModuleHandler_OnRelatedSearchClicked_Params_DataC1Ev(%"class.task_module::mojom::internal::TaskModuleHandler_OnRelatedSearchClicked_Params_Data"*) unnamed_addr #1

declare void @_ZN11task_module5mojom8internal52TaskModuleHandler_GetPrimaryTask_ResponseParams_DataC1Ev(%"class.task_module::mojom::internal::TaskModuleHandler_GetPrimaryTask_ResponseParams_Data"*) unnamed_addr #1

; Function Attrs: nounwind ssp uwtable
define linkonce_odr hidden void @_ZN4mojo8internal10SerializerIN11task_module5mojom12TaskDataViewENS_9StructPtrINS3_4TaskEEEE9SerializeERS7_RNS0_15MessageFragmentINS3_8internal9Task_DataEEE(%"class.mojo::StructPtr.73"* dereferenceable(8), %"class.mojo::internal::MessageFragment.87"* dereferenceable(16)) local_unnamed_addr #0 comdat align 2 {
  %3 = alloca %"class.mojo::internal::MessageFragment.109", align 8
  %4 = alloca %"class.mojo::internal::MessageFragment.113", align 8
  %5 = alloca %"class.mojo::internal::MessageFragment.68", align 8
  %6 = alloca %"class.mojo::internal::MessageFragment.68", align 8
  %7 = alloca %"class.mojo::internal::ContainerValidateParams", align 8
  %8 = alloca %"class.mojo::internal::ContainerValidateParams", align 8
  %9 = getelementptr inbounds %"class.mojo::StructPtr.73", %"class.mojo::StructPtr.73"* %0, i64 0, i32 0, i32 0, i32 0, i32 0
  %10 = load %"class.task_module::mojom::Task"*, %"class.task_module::mojom::Task"** %9, align 8
  %11 = icmp eq %"class.task_module::mojom::Task"* %10, null
  br i1 %11, label %282, label %12

12:                                               ; preds = %2
  %13 = getelementptr inbounds %"class.mojo::internal::MessageFragment.87", %"class.mojo::internal::MessageFragment.87"* %1, i64 0, i32 0
  %14 = load %"class.mojo::Message"*, %"class.mojo::Message"** %13, align 8
  %15 = getelementptr inbounds %"class.mojo::Message", %"class.mojo::Message"* %14, i64 0, i32 1
  %16 = tail call i64 @_ZN4mojo8internal6Buffer8AllocateEm(%"class.mojo::internal::Buffer"* %15, i64 40) #10
  %17 = getelementptr inbounds %"class.mojo::internal::MessageFragment.87", %"class.mojo::internal::MessageFragment.87"* %1, i64 0, i32 1
  store i64 %16, i64* %17, align 8
  %18 = load %"class.mojo::Message"*, %"class.mojo::Message"** %13, align 8
  %19 = getelementptr inbounds %"class.mojo::Message", %"class.mojo::Message"* %18, i64 0, i32 1, i32 2
  %20 = load i8*, i8** %19, align 8
  %21 = getelementptr inbounds i8, i8* %20, i64 %16
  %22 = bitcast i8* %21 to %"class.task_module::mojom::internal::Task_Data"*
  tail call void @_ZN11task_module5mojom8internal9Task_DataC1Ev(%"class.task_module::mojom::internal::Task_Data"* %22) #10
  %23 = load %"class.task_module::mojom::Task"*, %"class.task_module::mojom::Task"** %9, align 8
  %24 = getelementptr inbounds %"class.task_module::mojom::Task", %"class.task_module::mojom::Task"* %23, i64 0, i32 0
  %25 = bitcast %"class.mojo::internal::MessageFragment.68"* %5 to i8*
  call void @llvm.lifetime.start.p0i8(i64 16, i8* nonnull %25) #10
  %26 = getelementptr inbounds %"class.mojo::internal::MessageFragment.68", %"class.mojo::internal::MessageFragment.68"* %5, i64 0, i32 1
  %27 = bitcast %"class.mojo::internal::MessageFragment.87"* %1 to i64*
  %28 = load i64, i64* %27, align 8
  %29 = bitcast %"class.mojo::internal::MessageFragment.68"* %5 to i64*
  store i64 %28, i64* %29, align 8
  store i64 -1, i64* %26, align 8
  call void @_ZN4mojo8internal10SerializerINS_14StringDataViewEKNSt3__112basic_stringIcNS3_11char_traitsIcEENS3_9allocatorIcEEEEE9SerializeERSA_RNS0_15MessageFragmentINS0_10Array_DataIcEEEE(%"class.std::__1::basic_string"* dereferenceable(24) %24, %"class.mojo::internal::MessageFragment.68"* nonnull dereferenceable(16) %5) #10
  %30 = load %"class.mojo::Message"*, %"class.mojo::Message"** %13, align 8
  %31 = load i64, i64* %17, align 8
  %32 = getelementptr inbounds %"class.mojo::Message", %"class.mojo::Message"* %30, i64 0, i32 1, i32 2
  %33 = load i8*, i8** %32, align 8
  %34 = getelementptr inbounds i8, i8* %33, i64 %31
  %35 = getelementptr inbounds i8, i8* %34, i64 8
  %36 = load i64, i64* %26, align 8
  %37 = icmp eq i64 %36, -1
  br i1 %37, label %45, label %38

38:                                               ; preds = %12
  %39 = getelementptr inbounds %"class.mojo::internal::MessageFragment.68", %"class.mojo::internal::MessageFragment.68"* %5, i64 0, i32 0
  %40 = load %"class.mojo::Message"*, %"class.mojo::Message"** %39, align 8
  %41 = getelementptr inbounds %"class.mojo::Message", %"class.mojo::Message"* %40, i64 0, i32 1, i32 2
  %42 = load i8*, i8** %41, align 8
  %43 = getelementptr inbounds i8, i8* %42, i64 %36
  %44 = bitcast i8* %43 to %"class.mojo::internal::Array_Data"*
  br label %45

45:                                               ; preds = %12, %38
  %46 = phi %"class.mojo::internal::Array_Data"* [ %44, %38 ], [ null, %12 ]
  %47 = bitcast i8* %35 to i64*
  %48 = icmp eq %"class.mojo::internal::Array_Data"* %46, null
  %49 = ptrtoint %"class.mojo::internal::Array_Data"* %46 to i64
  %50 = ptrtoint i8* %35 to i64
  %51 = sub i64 %49, %50
  %52 = select i1 %48, i64 0, i64 %51
  store i64 %52, i64* %47, align 8
  %53 = load %"class.task_module::mojom::Task"*, %"class.task_module::mojom::Task"** %9, align 8
  %54 = getelementptr inbounds %"class.task_module::mojom::Task", %"class.task_module::mojom::Task"* %53, i64 0, i32 1
  %55 = bitcast %"class.mojo::internal::MessageFragment.68"* %6 to i8*
  call void @llvm.lifetime.start.p0i8(i64 16, i8* nonnull %55) #10
  %56 = getelementptr inbounds %"class.mojo::internal::MessageFragment.68", %"class.mojo::internal::MessageFragment.68"* %6, i64 0, i32 1
  %57 = load i64, i64* %27, align 8
  %58 = bitcast %"class.mojo::internal::MessageFragment.68"* %6 to i64*
  store i64 %57, i64* %58, align 8
  store i64 -1, i64* %56, align 8
  call void @_ZN4mojo8internal10SerializerINS_14StringDataViewEKNSt3__112basic_stringIcNS3_11char_traitsIcEENS3_9allocatorIcEEEEE9SerializeERSA_RNS0_15MessageFragmentINS0_10Array_DataIcEEEE(%"class.std::__1::basic_string"* dereferenceable(24) %54, %"class.mojo::internal::MessageFragment.68"* nonnull dereferenceable(16) %6) #10
  %59 = load %"class.mojo::Message"*, %"class.mojo::Message"** %13, align 8
  %60 = load i64, i64* %17, align 8
  %61 = getelementptr inbounds %"class.mojo::Message", %"class.mojo::Message"* %59, i64 0, i32 1, i32 2
  %62 = load i8*, i8** %61, align 8
  %63 = getelementptr inbounds i8, i8* %62, i64 %60
  %64 = getelementptr inbounds i8, i8* %63, i64 16
  %65 = load i64, i64* %56, align 8
  %66 = icmp eq i64 %65, -1
  br i1 %66, label %74, label %67

67:                                               ; preds = %45
  %68 = getelementptr inbounds %"class.mojo::internal::MessageFragment.68", %"class.mojo::internal::MessageFragment.68"* %6, i64 0, i32 0
  %69 = load %"class.mojo::Message"*, %"class.mojo::Message"** %68, align 8
  %70 = getelementptr inbounds %"class.mojo::Message", %"class.mojo::Message"* %69, i64 0, i32 1, i32 2
  %71 = load i8*, i8** %70, align 8
  %72 = getelementptr inbounds i8, i8* %71, i64 %65
  %73 = bitcast i8* %72 to %"class.mojo::internal::Array_Data"*
  br label %74

74:                                               ; preds = %45, %67
  %75 = phi %"class.mojo::internal::Array_Data"* [ %73, %67 ], [ null, %45 ]
  %76 = bitcast i8* %64 to i64*
  %77 = icmp eq %"class.mojo::internal::Array_Data"* %75, null
  %78 = ptrtoint %"class.mojo::internal::Array_Data"* %75 to i64
  %79 = ptrtoint i8* %64 to i64
  %80 = sub i64 %78, %79
  %81 = select i1 %77, i64 0, i64 %80
  store i64 %81, i64* %76, align 8
  %82 = load %"class.task_module::mojom::Task"*, %"class.task_module::mojom::Task"** %9, align 8
  %83 = getelementptr inbounds %"class.task_module::mojom::Task", %"class.task_module::mojom::Task"* %82, i64 0, i32 2
  %84 = load %"class.mojo::Message"*, %"class.mojo::Message"** %13, align 8
  %85 = ptrtoint %"class.mojo::Message"* %84 to i64
  %86 = bitcast %"class.mojo::internal::ContainerValidateParams"* %7 to i8*
  call void @llvm.lifetime.start.p0i8(i64 32, i8* nonnull %86) #10
  %87 = bitcast %"class.mojo::internal::ContainerValidateParams"* %7 to i64*
  store i64 -6148914691236517206, i64* %87, align 8
  %88 = getelementptr inbounds %"class.mojo::internal::ContainerValidateParams", %"class.mojo::internal::ContainerValidateParams"* %7, i64 0, i32 0
  store i32 0, i32* %88, align 8
  %89 = getelementptr inbounds %"class.mojo::internal::ContainerValidateParams", %"class.mojo::internal::ContainerValidateParams"* %7, i64 0, i32 1
  store i8 0, i8* %89, align 4
  %90 = getelementptr inbounds %"class.mojo::internal::ContainerValidateParams", %"class.mojo::internal::ContainerValidateParams"* %7, i64 0, i32 2
  %91 = getelementptr inbounds %"class.task_module::mojom::Task", %"class.task_module::mojom::Task"* %82, i64 0, i32 2, i32 0, i32 1
  %92 = bitcast %"class.mojo::StructPtr"** %91 to i64*
  %93 = bitcast %"class.mojo::internal::ContainerValidateParams"** %90 to i8*
  call void @llvm.memset.p0i8.i64(i8* align 8 %93, i8 0, i64 24, i1 false)
  %94 = load i64, i64* %92, align 8
  %95 = bitcast %"class.std::__1::vector.34"* %83 to i64*
  %96 = load i64, i64* %95, align 8
  %97 = sub i64 %94, %96
  %98 = ashr exact i64 %97, 3
  %99 = icmp ugt i64 %98, 536870910
  br i1 %99, label %118, label %100

100:                                              ; preds = %74
  %101 = trunc i64 %98 to i32
  %102 = trunc i64 %97 to i32
  %103 = add i32 %102, 8
  %104 = and i32 %103, -8
  %105 = getelementptr inbounds %"class.mojo::Message", %"class.mojo::Message"* %84, i64 0, i32 1
  %106 = zext i32 %104 to i64
  %107 = call i64 @_ZN4mojo8internal6Buffer8AllocateEm(%"class.mojo::internal::Buffer"* %105, i64 %106) #10
  %108 = getelementptr inbounds %"class.mojo::Message", %"class.mojo::Message"* %84, i64 0, i32 1, i32 2
  %109 = load i8*, i8** %108, align 8
  %110 = getelementptr inbounds i8, i8* %109, i64 %107
  %111 = bitcast i8* %110 to i32*
  store i32 %104, i32* %111, align 1
  %112 = getelementptr inbounds i8, i8* %110, i64 4
  %113 = bitcast i8* %112 to i32*
  store i32 %101, i32* %113, align 1
  %114 = load i64, i64* %92, align 8
  %115 = load i64, i64* %95, align 8
  %116 = sub i64 %114, %115
  %117 = ashr exact i64 %116, 3
  br label %118

118:                                              ; preds = %100, %74
  %119 = phi i64 [ -1, %74 ], [ %107, %100 ]
  %120 = phi i64 [ %98, %74 ], [ %117, %100 ]
  %121 = phi i64 [ %97, %74 ], [ %116, %100 ]
  %122 = phi i64 [ %96, %74 ], [ %115, %100 ]
  %123 = icmp eq i64 %121, 0
  br i1 %123, label %161, label %124

124:                                              ; preds = %118
  %125 = inttoptr i64 %122 to %"class.mojo::StructPtr"*
  %126 = bitcast %"class.mojo::internal::MessageFragment.109"* %3 to i8*
  %127 = getelementptr inbounds %"class.mojo::internal::MessageFragment.109", %"class.mojo::internal::MessageFragment.109"* %3, i64 0, i32 0
  %128 = getelementptr inbounds %"class.mojo::internal::MessageFragment.109", %"class.mojo::internal::MessageFragment.109"* %3, i64 0, i32 1
  %129 = bitcast %"class.mojo::internal::MessageFragment.109"* %3 to i64*
  %130 = getelementptr inbounds %"class.std::__1::vector.34", %"class.std::__1::vector.34"* %83, i64 0, i32 0, i32 0
  %131 = getelementptr inbounds %"class.mojo::Message", %"class.mojo::Message"* %84, i64 0, i32 1, i32 2
  br label %132

132:                                              ; preds = %159, %124
  %133 = phi %"class.mojo::StructPtr"* [ %125, %124 ], [ %160, %159 ]
  %134 = phi i64 [ 0, %124 ], [ %135, %159 ]
  call void @llvm.lifetime.start.p0i8(i64 16, i8* nonnull %126) #10
  store i64 %85, i64* %129, align 8
  store i64 -1, i64* %128, align 8
  %135 = add nuw i64 %134, 1
  %136 = getelementptr inbounds %"class.mojo::StructPtr", %"class.mojo::StructPtr"* %133, i64 %134
  call void @_ZN4mojo8internal10SerializerIN11task_module5mojom16TaskItemDataViewEKNS_9StructPtrINS3_8TaskItemEEEE9SerializeERS8_RNS0_15MessageFragmentINS3_8internal13TaskItem_DataEEE(%"class.mojo::StructPtr"* dereferenceable(8) %136, %"class.mojo::internal::MessageFragment.109"* nonnull dereferenceable(16) %3) #10
  %137 = load i8*, i8** %131, align 8
  %138 = getelementptr inbounds i8, i8* %137, i64 8
  %139 = getelementptr inbounds i8, i8* %138, i64 %119
  %140 = bitcast i8* %139 to %"class.mojo::internal::Array_Data.106"*
  %141 = getelementptr inbounds %"class.mojo::internal::Array_Data.106", %"class.mojo::internal::Array_Data.106"* %140, i64 %134
  %142 = load i64, i64* %128, align 8
  %143 = icmp eq i64 %142, -1
  br i1 %143, label %150, label %144

144:                                              ; preds = %132
  %145 = load %"class.mojo::Message"*, %"class.mojo::Message"** %127, align 8
  %146 = getelementptr inbounds %"class.mojo::Message", %"class.mojo::Message"* %145, i64 0, i32 1, i32 2
  %147 = load i8*, i8** %146, align 8
  %148 = getelementptr inbounds i8, i8* %147, i64 %142
  %149 = bitcast i8* %148 to %"class.task_module::mojom::internal::TaskItem_Data"*
  br label %150

150:                                              ; preds = %144, %132
  %151 = phi %"class.task_module::mojom::internal::TaskItem_Data"* [ %149, %144 ], [ null, %132 ]
  %152 = bitcast %"class.mojo::internal::Array_Data.106"* %141 to i64*
  %153 = icmp eq %"class.task_module::mojom::internal::TaskItem_Data"* %151, null
  %154 = ptrtoint %"class.task_module::mojom::internal::TaskItem_Data"* %151 to i64
  %155 = ptrtoint %"class.mojo::internal::Array_Data.106"* %141 to i64
  %156 = sub i64 %154, %155
  %157 = select i1 %153, i64 0, i64 %156
  store i64 %157, i64* %152, align 8
  call void @llvm.lifetime.end.p0i8(i64 16, i8* nonnull %126) #10
  %158 = icmp ult i64 %135, %120
  br i1 %158, label %159, label %161

159:                                              ; preds = %150
  %160 = load %"class.mojo::StructPtr"*, %"class.mojo::StructPtr"** %130, align 8
  br label %132

161:                                              ; preds = %150, %118
  %162 = load %"class.mojo::Message"*, %"class.mojo::Message"** %13, align 8
  %163 = load i64, i64* %17, align 8
  %164 = getelementptr inbounds %"class.mojo::Message", %"class.mojo::Message"* %162, i64 0, i32 1, i32 2
  %165 = load i8*, i8** %164, align 8
  %166 = getelementptr inbounds i8, i8* %165, i64 %163
  %167 = getelementptr inbounds i8, i8* %166, i64 24
  %168 = icmp eq i64 %119, -1
  br i1 %168, label %174, label %169

169:                                              ; preds = %161
  %170 = getelementptr inbounds %"class.mojo::Message", %"class.mojo::Message"* %84, i64 0, i32 1, i32 2
  %171 = load i8*, i8** %170, align 8
  %172 = getelementptr inbounds i8, i8* %171, i64 %119
  %173 = bitcast i8* %172 to %"class.mojo::internal::Array_Data.106"*
  br label %174

174:                                              ; preds = %161, %169
  %175 = phi %"class.mojo::internal::Array_Data.106"* [ %173, %169 ], [ null, %161 ]
  %176 = bitcast i8* %167 to i64*
  %177 = icmp eq %"class.mojo::internal::Array_Data.106"* %175, null
  %178 = ptrtoint %"class.mojo::internal::Array_Data.106"* %175 to i64
  %179 = ptrtoint i8* %167 to i64
  %180 = sub i64 %178, %179
  %181 = select i1 %177, i64 0, i64 %180
  store i64 %181, i64* %176, align 8
  %182 = load %"class.task_module::mojom::Task"*, %"class.task_module::mojom::Task"** %9, align 8
  %183 = getelementptr inbounds %"class.task_module::mojom::Task", %"class.task_module::mojom::Task"* %182, i64 0, i32 3
  %184 = load %"class.mojo::Message"*, %"class.mojo::Message"** %13, align 8
  %185 = ptrtoint %"class.mojo::Message"* %184 to i64
  %186 = bitcast %"class.mojo::internal::ContainerValidateParams"* %8 to i8*
  call void @llvm.lifetime.start.p0i8(i64 32, i8* nonnull %186) #10
  %187 = bitcast %"class.mojo::internal::ContainerValidateParams"* %8 to i64*
  store i64 -6148914691236517206, i64* %187, align 8
  %188 = getelementptr inbounds %"class.mojo::internal::ContainerValidateParams", %"class.mojo::internal::ContainerValidateParams"* %8, i64 0, i32 0
  store i32 0, i32* %188, align 8
  %189 = getelementptr inbounds %"class.mojo::internal::ContainerValidateParams", %"class.mojo::internal::ContainerValidateParams"* %8, i64 0, i32 1
  store i8 0, i8* %189, align 4
  %190 = getelementptr inbounds %"class.mojo::internal::ContainerValidateParams", %"class.mojo::internal::ContainerValidateParams"* %8, i64 0, i32 2
  %191 = getelementptr inbounds %"class.task_module::mojom::Task", %"class.task_module::mojom::Task"* %182, i64 0, i32 3, i32 0, i32 1
  %192 = bitcast %"class.mojo::StructPtr.49"** %191 to i64*
  %193 = bitcast %"class.mojo::internal::ContainerValidateParams"** %190 to i8*
  call void @llvm.memset.p0i8.i64(i8* align 8 %193, i8 0, i64 24, i1 false)
  %194 = load i64, i64* %192, align 8
  %195 = bitcast %"class.std::__1::vector.47"* %183 to i64*
  %196 = load i64, i64* %195, align 8
  %197 = sub i64 %194, %196
  %198 = ashr exact i64 %197, 3
  %199 = icmp ugt i64 %198, 536870910
  br i1 %199, label %218, label %200

200:                                              ; preds = %174
  %201 = trunc i64 %198 to i32
  %202 = trunc i64 %197 to i32
  %203 = add i32 %202, 8
  %204 = and i32 %203, -8
  %205 = getelementptr inbounds %"class.mojo::Message", %"class.mojo::Message"* %184, i64 0, i32 1
  %206 = zext i32 %204 to i64
  %207 = call i64 @_ZN4mojo8internal6Buffer8AllocateEm(%"class.mojo::internal::Buffer"* %205, i64 %206) #10
  %208 = getelementptr inbounds %"class.mojo::Message", %"class.mojo::Message"* %184, i64 0, i32 1, i32 2
  %209 = load i8*, i8** %208, align 8
  %210 = getelementptr inbounds i8, i8* %209, i64 %207
  %211 = bitcast i8* %210 to i32*
  store i32 %204, i32* %211, align 1
  %212 = getelementptr inbounds i8, i8* %210, i64 4
  %213 = bitcast i8* %212 to i32*
  store i32 %201, i32* %213, align 1
  %214 = load i64, i64* %192, align 8
  %215 = load i64, i64* %195, align 8
  %216 = sub i64 %214, %215
  %217 = ashr exact i64 %216, 3
  br label %218

218:                                              ; preds = %200, %174
  %219 = phi i64 [ -1, %174 ], [ %207, %200 ]
  %220 = phi i64 [ %198, %174 ], [ %217, %200 ]
  %221 = phi i64 [ %197, %174 ], [ %216, %200 ]
  %222 = phi i64 [ %196, %174 ], [ %215, %200 ]
  %223 = icmp eq i64 %221, 0
  br i1 %223, label %261, label %224

224:                                              ; preds = %218
  %225 = inttoptr i64 %222 to %"class.mojo::StructPtr.49"*
  %226 = bitcast %"class.mojo::internal::MessageFragment.113"* %4 to i8*
  %227 = getelementptr inbounds %"class.mojo::internal::MessageFragment.113", %"class.mojo::internal::MessageFragment.113"* %4, i64 0, i32 0
  %228 = getelementptr inbounds %"class.mojo::internal::MessageFragment.113", %"class.mojo::internal::MessageFragment.113"* %4, i64 0, i32 1
  %229 = bitcast %"class.mojo::internal::MessageFragment.113"* %4 to i64*
  %230 = getelementptr inbounds %"class.std::__1::vector.47", %"class.std::__1::vector.47"* %183, i64 0, i32 0, i32 0
  %231 = getelementptr inbounds %"class.mojo::Message", %"class.mojo::Message"* %184, i64 0, i32 1, i32 2
  br label %232

232:                                              ; preds = %259, %224
  %233 = phi %"class.mojo::StructPtr.49"* [ %225, %224 ], [ %260, %259 ]
  %234 = phi i64 [ 0, %224 ], [ %235, %259 ]
  call void @llvm.lifetime.start.p0i8(i64 16, i8* nonnull %226) #10
  store i64 %185, i64* %229, align 8
  store i64 -1, i64* %228, align 8
  %235 = add nuw i64 %234, 1
  %236 = getelementptr inbounds %"class.mojo::StructPtr.49", %"class.mojo::StructPtr.49"* %233, i64 %234
  call void @_ZN4mojo8internal10SerializerIN11task_module5mojom21RelatedSearchDataViewEKNS_9StructPtrINS3_13RelatedSearchEEEE9SerializeERS8_RNS0_15MessageFragmentINS3_8internal18RelatedSearch_DataEEE(%"class.mojo::StructPtr.49"* dereferenceable(8) %236, %"class.mojo::internal::MessageFragment.113"* nonnull dereferenceable(16) %4) #10
  %237 = load i8*, i8** %231, align 8
  %238 = getelementptr inbounds i8, i8* %237, i64 8
  %239 = getelementptr inbounds i8, i8* %238, i64 %219
  %240 = bitcast i8* %239 to %"class.mojo::internal::Array_Data.108"*
  %241 = getelementptr inbounds %"class.mojo::internal::Array_Data.108", %"class.mojo::internal::Array_Data.108"* %240, i64 %234
  %242 = load i64, i64* %228, align 8
  %243 = icmp eq i64 %242, -1
  br i1 %243, label %250, label %244

244:                                              ; preds = %232
  %245 = load %"class.mojo::Message"*, %"class.mojo::Message"** %227, align 8
  %246 = getelementptr inbounds %"class.mojo::Message", %"class.mojo::Message"* %245, i64 0, i32 1, i32 2
  %247 = load i8*, i8** %246, align 8
  %248 = getelementptr inbounds i8, i8* %247, i64 %242
  %249 = bitcast i8* %248 to %"class.task_module::mojom::internal::RelatedSearch_Data"*
  br label %250

250:                                              ; preds = %244, %232
  %251 = phi %"class.task_module::mojom::internal::RelatedSearch_Data"* [ %249, %244 ], [ null, %232 ]
  %252 = bitcast %"class.mojo::internal::Array_Data.108"* %241 to i64*
  %253 = icmp eq %"class.task_module::mojom::internal::RelatedSearch_Data"* %251, null
  %254 = ptrtoint %"class.task_module::mojom::internal::RelatedSearch_Data"* %251 to i64
  %255 = ptrtoint %"class.mojo::internal::Array_Data.108"* %241 to i64
  %256 = sub i64 %254, %255
  %257 = select i1 %253, i64 0, i64 %256
  store i64 %257, i64* %252, align 8
  call void @llvm.lifetime.end.p0i8(i64 16, i8* nonnull %226) #10
  %258 = icmp ult i64 %235, %220
  br i1 %258, label %259, label %261

259:                                              ; preds = %250
  %260 = load %"class.mojo::StructPtr.49"*, %"class.mojo::StructPtr.49"** %230, align 8
  br label %232

261:                                              ; preds = %250, %218
  %262 = load %"class.mojo::Message"*, %"class.mojo::Message"** %13, align 8
  %263 = load i64, i64* %17, align 8
  %264 = getelementptr inbounds %"class.mojo::Message", %"class.mojo::Message"* %262, i64 0, i32 1, i32 2
  %265 = load i8*, i8** %264, align 8
  %266 = getelementptr inbounds i8, i8* %265, i64 %263
  %267 = getelementptr inbounds i8, i8* %266, i64 32
  %268 = icmp eq i64 %219, -1
  br i1 %268, label %274, label %269

269:                                              ; preds = %261
  %270 = getelementptr inbounds %"class.mojo::Message", %"class.mojo::Message"* %184, i64 0, i32 1, i32 2
  %271 = load i8*, i8** %270, align 8
  %272 = getelementptr inbounds i8, i8* %271, i64 %219
  %273 = bitcast i8* %272 to %"class.mojo::internal::Array_Data.108"*
  br label %274

274:                                              ; preds = %261, %269
  %275 = phi %"class.mojo::internal::Array_Data.108"* [ %273, %269 ], [ null, %261 ]
  %276 = bitcast i8* %267 to i64*
  %277 = icmp eq %"class.mojo::internal::Array_Data.108"* %275, null
  %278 = ptrtoint %"class.mojo::internal::Array_Data.108"* %275 to i64
  %279 = ptrtoint i8* %267 to i64
  %280 = sub i64 %278, %279
  %281 = select i1 %277, i64 0, i64 %280
  store i64 %281, i64* %276, align 8
  call void @_ZN4mojo8internal23ContainerValidateParamsD2Ev(%"class.mojo::internal::ContainerValidateParams"* nonnull %8) #10
  call void @llvm.lifetime.end.p0i8(i64 32, i8* nonnull %186) #10
  call void @_ZN4mojo8internal23ContainerValidateParamsD2Ev(%"class.mojo::internal::ContainerValidateParams"* nonnull %7) #10
  call void @llvm.lifetime.end.p0i8(i64 32, i8* nonnull %86) #10
  call void @llvm.lifetime.end.p0i8(i64 16, i8* nonnull %55) #10
  call void @llvm.lifetime.end.p0i8(i64 16, i8* nonnull %25) #10
  br label %282

282:                                              ; preds = %2, %274
  ret void
}

; Function Attrs: nounwind ssp uwtable
define linkonce_odr hidden void @_ZN4mojo8internal23ContainerValidateParamsD2Ev(%"class.mojo::internal::ContainerValidateParams"*) unnamed_addr #0 comdat align 2 {
  %2 = getelementptr inbounds %"class.mojo::internal::ContainerValidateParams", %"class.mojo::internal::ContainerValidateParams"* %0, i64 0, i32 3
  %3 = load %"class.mojo::internal::ContainerValidateParams"*, %"class.mojo::internal::ContainerValidateParams"** %2, align 8
  %4 = icmp eq %"class.mojo::internal::ContainerValidateParams"* %3, null
  br i1 %4, label %7, label %5

5:                                                ; preds = %1
  tail call void @_ZN4mojo8internal23ContainerValidateParamsD2Ev(%"class.mojo::internal::ContainerValidateParams"* nonnull %3) #10
  %6 = bitcast %"class.mojo::internal::ContainerValidateParams"* %3 to i8*
  tail call void @_ZdlPv(i8* %6) #11
  br label %7

7:                                                ; preds = %1, %5
  %8 = getelementptr inbounds %"class.mojo::internal::ContainerValidateParams", %"class.mojo::internal::ContainerValidateParams"* %0, i64 0, i32 2
  %9 = load %"class.mojo::internal::ContainerValidateParams"*, %"class.mojo::internal::ContainerValidateParams"** %8, align 8
  %10 = icmp eq %"class.mojo::internal::ContainerValidateParams"* %9, null
  br i1 %10, label %13, label %11

11:                                               ; preds = %7
  tail call void @_ZN4mojo8internal23ContainerValidateParamsD2Ev(%"class.mojo::internal::ContainerValidateParams"* nonnull %9) #10
  %12 = bitcast %"class.mojo::internal::ContainerValidateParams"* %9 to i8*
  tail call void @_ZdlPv(i8* %12) #11
  ret void

13:                                               ; preds = %7
  ret void
}

declare void @_ZN11task_module5mojom8internal9Task_DataC1Ev(%"class.task_module::mojom::internal::Task_Data"*) unnamed_addr #1

; Function Attrs: nounwind ssp uwtable
define linkonce_odr hidden void @_ZN4mojo8internal10SerializerIN11task_module5mojom16TaskItemDataViewEKNS_9StructPtrINS3_8TaskItemEEEE9SerializeERS8_RNS0_15MessageFragmentINS3_8internal13TaskItem_DataEEE(%"class.mojo::StructPtr"* dereferenceable(8), %"class.mojo::internal::MessageFragment.109"* dereferenceable(16)) local_unnamed_addr #0 comdat align 2 {
  %3 = alloca %"class.mojo::internal::MessageFragment.68", align 8
  %4 = alloca %"class.mojo::internal::MessageFragment.68", align 8
  %5 = alloca %"class.mojo::internal::MessageFragment.68", align 8
  %6 = alloca %"class.mojo::internal::MessageFragment.68", align 8
  %7 = getelementptr inbounds %"class.mojo::StructPtr", %"class.mojo::StructPtr"* %0, i64 0, i32 0, i32 0, i32 0, i32 0
  %8 = load %"class.task_module::mojom::TaskItem"*, %"class.task_module::mojom::TaskItem"** %7, align 8
  %9 = icmp eq %"class.task_module::mojom::TaskItem"* %8, null
  br i1 %9, label %282, label %10

10:                                               ; preds = %2
  %11 = getelementptr inbounds %"class.mojo::internal::MessageFragment.109", %"class.mojo::internal::MessageFragment.109"* %1, i64 0, i32 0
  %12 = load %"class.mojo::Message"*, %"class.mojo::Message"** %11, align 8
  %13 = getelementptr inbounds %"class.mojo::Message", %"class.mojo::Message"* %12, i64 0, i32 1
  %14 = tail call i64 @_ZN4mojo8internal6Buffer8AllocateEm(%"class.mojo::internal::Buffer"* %13, i64 56) #10
  %15 = getelementptr inbounds %"class.mojo::internal::MessageFragment.109", %"class.mojo::internal::MessageFragment.109"* %1, i64 0, i32 1
  store i64 %14, i64* %15, align 8
  %16 = load %"class.mojo::Message"*, %"class.mojo::Message"** %11, align 8
  %17 = getelementptr inbounds %"class.mojo::Message", %"class.mojo::Message"* %16, i64 0, i32 1, i32 2
  %18 = load i8*, i8** %17, align 8
  %19 = getelementptr inbounds i8, i8* %18, i64 %14
  %20 = bitcast i8* %19 to %"class.task_module::mojom::internal::TaskItem_Data"*
  tail call void @_ZN11task_module5mojom8internal13TaskItem_DataC1Ev(%"class.task_module::mojom::internal::TaskItem_Data"* %20) #10
  %21 = load %"class.task_module::mojom::TaskItem"*, %"class.task_module::mojom::TaskItem"** %7, align 8
  %22 = getelementptr inbounds %"class.task_module::mojom::TaskItem", %"class.task_module::mojom::TaskItem"* %21, i64 0, i32 0
  %23 = bitcast %"class.mojo::internal::MessageFragment.68"* %3 to i8*
  call void @llvm.lifetime.start.p0i8(i64 16, i8* nonnull %23) #10
  %24 = getelementptr inbounds %"class.mojo::internal::MessageFragment.68", %"class.mojo::internal::MessageFragment.68"* %3, i64 0, i32 1
  %25 = bitcast %"class.mojo::internal::MessageFragment.109"* %1 to i64*
  %26 = load i64, i64* %25, align 8
  %27 = bitcast %"class.mojo::internal::MessageFragment.68"* %3 to i64*
  store i64 %26, i64* %27, align 8
  store i64 -1, i64* %24, align 8
  call void @_ZN4mojo8internal10SerializerINS_14StringDataViewEKNSt3__112basic_stringIcNS3_11char_traitsIcEENS3_9allocatorIcEEEEE9SerializeERSA_RNS0_15MessageFragmentINS0_10Array_DataIcEEEE(%"class.std::__1::basic_string"* dereferenceable(24) %22, %"class.mojo::internal::MessageFragment.68"* nonnull dereferenceable(16) %3) #10
  %28 = load %"class.mojo::Message"*, %"class.mojo::Message"** %11, align 8
  %29 = load i64, i64* %15, align 8
  %30 = getelementptr inbounds %"class.mojo::Message", %"class.mojo::Message"* %28, i64 0, i32 1, i32 2
  %31 = load i8*, i8** %30, align 8
  %32 = getelementptr inbounds i8, i8* %31, i64 %29
  %33 = getelementptr inbounds i8, i8* %32, i64 8
