; ModuleID = '../../cc/metrics/throughput_ukm_reporter.cc'
source_filename = "../../cc/metrics/throughput_ukm_reporter.cc"
target datalayout = "e-m:e-i64:64-f80:128-n8:16:32:64-S128"
target triple = "x86_64-unknown-linux-gnu"

module asm ".symver exp, exp@GLIBC_2.2.5"
module asm ".symver exp2, exp2@GLIBC_2.2.5"
module asm ".symver exp2f, exp2f@GLIBC_2.2.5"
module asm ".symver expf, expf@GLIBC_2.2.5"
module asm ".symver lgamma, lgamma@GLIBC_2.2.5"
module asm ".symver lgammaf, lgammaf@GLIBC_2.2.5"
module asm ".symver lgammal, lgammal@GLIBC_2.2.5"
module asm ".symver log, log@GLIBC_2.2.5"
module asm ".symver log2, log2@GLIBC_2.2.5"
module asm ".symver log2f, log2f@GLIBC_2.2.5"
module asm ".symver logf, logf@GLIBC_2.2.5"
module asm ".symver pow, pow@GLIBC_2.2.5"
module asm ".symver powf, powf@GLIBC_2.2.5"

%"class.cc::ThroughputUkmReporter" = type { [12 x i32], i32, %"class.cc::UkmManager"* }
%"class.cc::UkmManager" = type { i8, i64, i64, i64, i64, i64, i32, i64, %"class.std::__1::unique_ptr" }
%"class.std::__1::unique_ptr" = type { %"class.std::__1::__compressed_pair" }
%"class.std::__1::__compressed_pair" = type { %"struct.std::__1::__compressed_pair_elem" }
%"struct.std::__1::__compressed_pair_elem" = type { %"class.ukm::UkmRecorder"* }
%"class.ukm::UkmRecorder" = type opaque
%"class.absl::optional" = type { %"class.absl::optional_internal::optional_data" }
%"class.absl::optional_internal::optional_data" = type { %"class.absl::optional_internal::optional_data_base" }
%"class.absl::optional_internal::optional_data_base" = type { %"class.absl::optional_internal::optional_data_dtor_base" }
%"class.absl::optional_internal::optional_data_dtor_base" = type { i8, %union.anon }
%union.anon = type { i32 }

@_ZN2cc21ThroughputUkmReporterC1EPNS_10UkmManagerE = hidden unnamed_addr alias void (%"class.cc::ThroughputUkmReporter"*, %"class.cc::UkmManager"*), void (%"class.cc::ThroughputUkmReporter"*, %"class.cc::UkmManager"*)* @_ZN2cc21ThroughputUkmReporterC2EPNS_10UkmManagerE
@_ZN2cc21ThroughputUkmReporterD1Ev = hidden unnamed_addr alias void (%"class.cc::ThroughputUkmReporter"*), void (%"class.cc::ThroughputUkmReporter"*)* @_ZN2cc21ThroughputUkmReporterD2Ev

; Function Attrs: nofree norecurse nounwind ssp uwtable writeonly
define hidden void @_ZN2cc21ThroughputUkmReporterC2EPNS_10UkmManagerE(%"class.cc::ThroughputUkmReporter"*, %"class.cc::UkmManager"*) unnamed_addr #0 align 2 {
  %3 = getelementptr inbounds %"class.cc::ThroughputUkmReporter", %"class.cc::ThroughputUkmReporter"* %0, i64 0, i32 2
  %4 = bitcast %"class.cc::ThroughputUkmReporter"* %0 to i8*
  call void @llvm.memset.p0i8.i64(i8* align 4 %4, i8 0, i64 52, i1 false)
  store %"class.cc::UkmManager"* %1, %"class.cc::UkmManager"** %3, align 8
  ret void
}

; Function Attrs: norecurse nounwind readnone ssp uwtable
define hidden void @_ZN2cc21ThroughputUkmReporterD2Ev(%"class.cc::ThroughputUkmReporter"* nocapture) unnamed_addr #1 align 2 {
  ret void
}

; Function Attrs: nounwind ssp uwtable
define hidden void @_ZN2cc21ThroughputUkmReporter19ReportThroughputUkmERKN4absl8optionalIiEES5_S5_NS_24FrameSequenceTrackerTypeE(%"class.cc::ThroughputUkmReporter"* nocapture, %"class.absl::optional"* nocapture readnone dereferenceable(8), %"class.absl::optional"* nocapture readonly dereferenceable(8), %"class.absl::optional"* nocapture readonly dereferenceable(8), i32) local_unnamed_addr #2 align 2 {
  %6 = getelementptr inbounds %"class.cc::ThroughputUkmReporter", %"class.cc::ThroughputUkmReporter"* %0, i64 0, i32 2
  %7 = load %"class.cc::UkmManager"*, %"class.cc::UkmManager"** %6, align 8
  %8 = icmp eq %"class.cc::UkmManager"* %7, null
  br i1 %8, label %35, label %9

9:                                                ; preds = %5
  %10 = sext i32 %4 to i64
  %11 = getelementptr inbounds %"class.cc::ThroughputUkmReporter", %"class.cc::ThroughputUkmReporter"* %0, i64 0, i32 0, i64 %10
  %12 = load i32, i32* %11, align 4
  %13 = icmp eq i32 %12, 0
  br i1 %13, label %14, label %32

14:                                               ; preds = %9
  store i32 100, i32* %11, align 4
  %15 = getelementptr inbounds %"class.absl::optional", %"class.absl::optional"* %2, i64 0, i32 0, i32 0, i32 0, i32 0
  %16 = load i8, i8* %15, align 4, !range !2
  %17 = icmp eq i8 %16, 0
  br i1 %17, label %23, label %18

18:                                               ; preds = %14
  %19 = load %"class.cc::UkmManager"*, %"class.cc::UkmManager"** %6, align 8
  %20 = getelementptr inbounds %"class.absl::optional", %"class.absl::optional"* %2, i64 0, i32 0, i32 0, i32 0, i32 1, i32 0
  %21 = load i32, i32* %20, align 4
  %22 = sext i32 %21 to i64
  tail call void @_ZNK2cc10UkmManager19RecordThroughputUKMENS_24FrameSequenceTrackerTypeENS_20FrameSequenceMetrics10ThreadTypeEl(%"class.cc::UkmManager"* %19, i32 %4, i32 1, i64 %22) #6
  br label %23

23:                                               ; preds = %14, %18
  %24 = getelementptr inbounds %"class.absl::optional", %"class.absl::optional"* %3, i64 0, i32 0, i32 0, i32 0, i32 0
  %25 = load i8, i8* %24, align 4, !range !2
  %26 = icmp eq i8 %25, 0
  br i1 %26, label %32, label %27

27:                                               ; preds = %23
  %28 = load %"class.cc::UkmManager"*, %"class.cc::UkmManager"** %6, align 8
  %29 = getelementptr inbounds %"class.absl::optional", %"class.absl::optional"* %3, i64 0, i32 0, i32 0, i32 0, i32 1, i32 0
  %30 = load i32, i32* %29, align 4
  %31 = sext i32 %30 to i64
  tail call void @_ZNK2cc10UkmManager19RecordThroughputUKMENS_24FrameSequenceTrackerTypeENS_20FrameSequenceMetrics10ThreadTypeEl(%"class.cc::UkmManager"* %28, i32 %4, i32 0, i64 %31) #6
  br label %32

32:                                               ; preds = %23, %27, %9
  %33 = load i32, i32* %11, align 4
  %34 = add i32 %33, -1
  store i32 %34, i32* %11, align 4
  br label %35

35:                                               ; preds = %5, %32
  ret void
}

declare void @_ZNK2cc10UkmManager19RecordThroughputUKMENS_24FrameSequenceTrackerTypeENS_20FrameSequenceMetrics10ThreadTypeEl(%"class.cc::UkmManager"*, i32, i32, i64) local_unnamed_addr #3

; Function Attrs: nounwind ssp uwtable
define hidden void @_ZN2cc21ThroughputUkmReporter25ReportAggregateThroughputENS_15AggregationTypeEi(%"class.cc::ThroughputUkmReporter"* nocapture, i32, i32) local_unnamed_addr #2 align 2 {
  %4 = getelementptr inbounds %"class.cc::ThroughputUkmReporter", %"class.cc::ThroughputUkmReporter"* %0, i64 0, i32 1
  %5 = load i32, i32* %4, align 8
  %6 = icmp eq i32 %5, 0
  br i1 %6, label %7, label %12

7:                                                ; preds = %3
  store i32 100, i32* %4, align 8
  %8 = getelementptr inbounds %"class.cc::ThroughputUkmReporter", %"class.cc::ThroughputUkmReporter"* %0, i64 0, i32 2
  %9 = load %"class.cc::UkmManager"*, %"class.cc::UkmManager"** %8, align 8
  %10 = sext i32 %2 to i64
  tail call void @_ZNK2cc10UkmManager25RecordAggregateThroughputENS_15AggregationTypeEl(%"class.cc::UkmManager"* %9, i32 %1, i64 %10) #6
  %11 = load i32, i32* %4, align 8
  br label %12

12:                                               ; preds = %7, %3
  %13 = phi i32 [ %11, %7 ], [ %5, %3 ]
  %14 = add i32 %13, -1
  store i32 %14, i32* %4, align 8
  ret void
}

declare void @_ZNK2cc10UkmManager25RecordAggregateThroughputENS_15AggregationTypeEl(%"class.cc::UkmManager"*, i32, i64) local_unnamed_addr #3

; Function Attrs: norecurse nounwind readonly ssp uwtable
define hidden i32 @_ZN2cc21ThroughputUkmReporter31GetSamplesToNextEventForTestingEi(%"class.cc::ThroughputUkmReporter"* nocapture readonly, i32) local_unnamed_addr #4 align 2 {
  %3 = sext i32 %1 to i64
  %4 = getelementptr inbounds %"class.cc::ThroughputUkmReporter", %"class.cc::ThroughputUkmReporter"* %0, i64 0, i32 0, i64 %3
  %5 = load i32, i32* %4, align 4
  ret i32 %5
}

; Function Attrs: argmemonly nounwind
declare void @llvm.memset.p0i8.i64(i8* nocapture writeonly, i8, i64, i1 immarg) #5

attributes #0 = { nofree norecurse nounwind ssp uwtable writeonly "correctly-rounded-divide-sqrt-fp-math"="false" "disable-tail-calls"="false" "less-precise-fpmad"="false" "min-legal-vector-width"="0" "no-frame-pointer-elim"="false" "no-frame-pointer-elim-non-leaf" "no-infs-fp-math"="false" "no-jump-tables"="false" "no-nans-fp-math"="false" "no-signed-zeros-fp-math"="false" "no-trapping-math"="false" "null-pointer-is-valid"="true" "stack-protector-buffer-size"="4" "target-cpu"="x86-64" "target-features"="+cx8,+fxsr,+mmx,+sse,+sse2,+sse3,+x87" "unsafe-fp-math"="false" "use-soft-float"="false" }
attributes #1 = { norecurse nounwind readnone ssp uwtable "correctly-rounded-divide-sqrt-fp-math"="false" "disable-tail-calls"="false" "less-precise-fpmad"="false" "min-legal-vector-width"="0" "no-frame-pointer-elim"="false" "no-frame-pointer-elim-non-leaf" "no-infs-fp-math"="false" "no-jump-tables"="false" "no-nans-fp-math"="false" "no-signed-zeros-fp-math"="false" "no-trapping-math"="false" "null-pointer-is-valid"="true" "stack-protector-buffer-size"="4" "target-cpu"="x86-64" "target-features"="+cx8,+fxsr,+mmx,+sse,+sse2,+sse3,+x87" "unsafe-fp-math"="false" "use-soft-float"="false" }
attributes #2 = { nounwind ssp uwtable "correctly-rounded-divide-sqrt-fp-math"="false" "disable-tail-calls"="false" "less-precise-fpmad"="false" "min-legal-vector-width"="0" "no-frame-pointer-elim"="false" "no-frame-pointer-elim-non-leaf" "no-infs-fp-math"="false" "no-jump-tables"="false" "no-nans-fp-math"="false" "no-signed-zeros-fp-math"="false" "no-trapping-math"="false" "null-pointer-is-valid"="true" "stack-protector-buffer-size"="4" "target-cpu"="x86-64" "target-features"="+cx8,+fxsr,+mmx,+sse,+sse2,+sse3,+x87" "unsafe-fp-math"="false" "use-soft-float"="false" }
attributes #3 = { "correctly-rounded-divide-sqrt-fp-math"="false" "disable-tail-calls"="false" "less-precise-fpmad"="false" "no-frame-pointer-elim"="false" "no-frame-pointer-elim-non-leaf" "no-infs-fp-math"="false" "no-nans-fp-math"="false" "no-signed-zeros-fp-math"="false" "no-trapping-math"="false" "null-pointer-is-valid"="true" "stack-protector-buffer-size"="4" "target-cpu"="x86-64" "target-features"="+cx8,+fxsr,+mmx,+sse,+sse2,+sse3,+x87" "unsafe-fp-math"="false" "use-soft-float"="false" }
attributes #4 = { norecurse nounwind readonly ssp uwtable "correctly-rounded-divide-sqrt-fp-math"="false" "disable-tail-calls"="false" "less-precise-fpmad"="false" "min-legal-vector-width"="0" "no-frame-pointer-elim"="false" "no-frame-pointer-elim-non-leaf" "no-infs-fp-math"="false" "no-jump-tables"="false" "no-nans-fp-math"="false" "no-signed-zeros-fp-math"="false" "no-trapping-math"="false" "null-pointer-is-valid"="true" "stack-protector-buffer-size"="4" "target-cpu"="x86-64" "target-features"="+cx8,+fxsr,+mmx,+sse,+sse2,+sse3,+x87" "unsafe-fp-math"="false" "use-soft-float"="false" }
attributes #5 = { argmemonly nounwind }
attributes #6 = { nounwind }

!llvm.module.flags = !{!0, !1}

!0 = !{i32 1, !"wchar_size", i32 4}
!1 = !{i32 7, !"PIC Level", i32 2}
!2 = !{i8 0, i8 2}
