; ModuleID = '../../third_party/webrtc/video/transport_adapter.cc'
source_filename = "../../third_party/webrtc/video/transport_adapter.cc"
target datalayout = "e-m:e-i64:64-f80:128-n8:16:32:64-S128"
target triple = "x86_64-unknown-linux-gnu"

%"class.webrtc::internal::TransportAdapter" = type <{ %"class.webrtc::Transport", %"class.webrtc::Transport"*, %"struct.std::__1::atomic", [7 x i8] }>
%"class.webrtc::Transport" = type { i32 (...)** }
%"struct.std::__1::atomic" = type { %"struct.std::__1::__atomic_base" }
%"struct.std::__1::__atomic_base" = type { %"struct.std::__1::__cxx_atomic_impl" }
%"struct.std::__1::__cxx_atomic_impl" = type { %"struct.std::__1::__cxx_atomic_base_impl" }
%"struct.std::__1::__cxx_atomic_base_impl" = type { i8 }
%"struct.webrtc::PacketOptions" = type <{ i32, [4 x i8], %"class.rtc::scoped_refptr", i8, i8, i8, [5 x i8] }>
%"class.rtc::scoped_refptr" = type { %"class.rtc::RefCountedBase"* }
%"class.rtc::RefCountedBase" = type <{ i32 (...)**, %"class.webrtc::webrtc_impl::RefCounter", [4 x i8] }>
%"class.webrtc::webrtc_impl::RefCounter" = type { %"struct.std::__1::atomic.0" }
%"struct.std::__1::atomic.0" = type { %"struct.std::__1::__atomic_base.1" }
%"struct.std::__1::__atomic_base.1" = type { %"struct.std::__1::__atomic_base.2" }
%"struct.std::__1::__atomic_base.2" = type { %"struct.std::__1::__cxx_atomic_impl.3" }
%"struct.std::__1::__cxx_atomic_impl.3" = type { %"struct.std::__1::__cxx_atomic_base_impl.4" }
%"struct.std::__1::__cxx_atomic_base_impl.4" = type { i32 }

@_ZTVN6webrtc8internal16TransportAdapterE = hidden unnamed_addr constant { [6 x i8*] } { [6 x i8*] [i8* null, i8* null, i8* bitcast (i1 (%"class.webrtc::internal::TransportAdapter"*, i8*, i64, %"struct.webrtc::PacketOptions"*)* @_ZN6webrtc8internal16TransportAdapter7SendRtpEPKhmRKNS_13PacketOptionsE to i8*), i8* bitcast (i1 (%"class.webrtc::internal::TransportAdapter"*, i8*, i64)* @_ZN6webrtc8internal16TransportAdapter8SendRtcpEPKhm to i8*), i8* bitcast (void (%"class.webrtc::internal::TransportAdapter"*)* @_ZN6webrtc8internal16TransportAdapterD2Ev to i8*), i8* bitcast (void (%"class.webrtc::internal::TransportAdapter"*)* @_ZN6webrtc8internal16TransportAdapterD0Ev to i8*)] }, align 8

@_ZN6webrtc8internal16TransportAdapterC1EPNS_9TransportE = hidden unnamed_addr alias void (%"class.webrtc::internal::TransportAdapter"*, %"class.webrtc::Transport"*), void (%"class.webrtc::internal::TransportAdapter"*, %"class.webrtc::Transport"*)* @_ZN6webrtc8internal16TransportAdapterC2EPNS_9TransportE
@_ZN6webrtc8internal16TransportAdapterD1Ev = hidden unnamed_addr alias void (%"class.webrtc::internal::TransportAdapter"*), void (%"class.webrtc::internal::TransportAdapter"*)* @_ZN6webrtc8internal16TransportAdapterD2Ev

; Function Attrs: nofree norecurse nounwind ssp uwtable writeonly
define hidden void @_ZN6webrtc8internal16TransportAdapterC2EPNS_9TransportE(%"class.webrtc::internal::TransportAdapter"* nocapture, %"class.webrtc::Transport"*) unnamed_addr #0 align 2 {
  %3 = getelementptr inbounds %"class.webrtc::internal::TransportAdapter", %"class.webrtc::internal::TransportAdapter"* %0, i64 0, i32 0, i32 0
  store i32 (...)** bitcast (i8** getelementptr inbounds ({ [6 x i8*] }, { [6 x i8*] }* @_ZTVN6webrtc8internal16TransportAdapterE, i64 0, inrange i32 0, i64 2) to i32 (...)**), i32 (...)*** %3, align 8
  %4 = getelementptr inbounds %"class.webrtc::internal::TransportAdapter", %"class.webrtc::internal::TransportAdapter"* %0, i64 0, i32 1
  store %"class.webrtc::Transport"* %1, %"class.webrtc::Transport"** %4, align 8
  %5 = getelementptr inbounds %"class.webrtc::internal::TransportAdapter", %"class.webrtc::internal::TransportAdapter"* %0, i64 0, i32 2, i32 0, i32 0, i32 0, i32 0
  store i8 0, i8* %5, align 1
  ret void
}

; Function Attrs: norecurse nounwind readnone ssp uwtable
define hidden void @_ZN6webrtc8internal16TransportAdapterD2Ev(%"class.webrtc::internal::TransportAdapter"* nocapture) unnamed_addr #1 align 2 {
  ret void
}

; Function Attrs: nounwind ssp uwtable
define hidden void @_ZN6webrtc8internal16TransportAdapterD0Ev(%"class.webrtc::internal::TransportAdapter"*) unnamed_addr #2 align 2 {
  %2 = bitcast %"class.webrtc::internal::TransportAdapter"* %0 to i8*
  tail call void @_ZdlPv(i8* %2) #5
  ret void
}

; Function Attrs: nobuiltin nounwind
declare void @_ZdlPv(i8*) local_unnamed_addr #3

; Function Attrs: nounwind ssp uwtable
define hidden zeroext i1 @_ZN6webrtc8internal16TransportAdapter7SendRtpEPKhmRKNS_13PacketOptionsE(%"class.webrtc::internal::TransportAdapter"* nocapture readonly, i8*, i64, %"struct.webrtc::PacketOptions"* dereferenceable(24)) unnamed_addr #2 align 2 {
  %5 = getelementptr inbounds %"class.webrtc::internal::TransportAdapter", %"class.webrtc::internal::TransportAdapter"* %0, i64 0, i32 2, i32 0, i32 0, i32 0, i32 0
  %6 = load atomic i8, i8* %5 seq_cst, align 1
  %7 = and i8 %6, 1
  %8 = icmp eq i8 %7, 0
  br i1 %8, label %16, label %9

9:                                                ; preds = %4
  %10 = getelementptr inbounds %"class.webrtc::internal::TransportAdapter", %"class.webrtc::internal::TransportAdapter"* %0, i64 0, i32 1
  %11 = load %"class.webrtc::Transport"*, %"class.webrtc::Transport"** %10, align 8
  %12 = bitcast %"class.webrtc::Transport"* %11 to i1 (%"class.webrtc::Transport"*, i8*, i64, %"struct.webrtc::PacketOptions"*)***
  %13 = load i1 (%"class.webrtc::Transport"*, i8*, i64, %"struct.webrtc::PacketOptions"*)**, i1 (%"class.webrtc::Transport"*, i8*, i64, %"struct.webrtc::PacketOptions"*)*** %12, align 8
  %14 = load i1 (%"class.webrtc::Transport"*, i8*, i64, %"struct.webrtc::PacketOptions"*)*, i1 (%"class.webrtc::Transport"*, i8*, i64, %"struct.webrtc::PacketOptions"*)** %13, align 8
  %15 = tail call zeroext i1 %14(%"class.webrtc::Transport"* %11, i8* %1, i64 %2, %"struct.webrtc::PacketOptions"* dereferenceable(24) %3) #6
  br label %16

16:                                               ; preds = %4, %9
  %17 = phi i1 [ %15, %9 ], [ false, %4 ]
  ret i1 %17
}

; Function Attrs: nounwind ssp uwtable
define hidden zeroext i1 @_ZN6webrtc8internal16TransportAdapter8SendRtcpEPKhm(%"class.webrtc::internal::TransportAdapter"* nocapture readonly, i8*, i64) unnamed_addr #2 align 2 {
  %4 = getelementptr inbounds %"class.webrtc::internal::TransportAdapter", %"class.webrtc::internal::TransportAdapter"* %0, i64 0, i32 2, i32 0, i32 0, i32 0, i32 0
  %5 = load atomic i8, i8* %4 seq_cst, align 1
  %6 = and i8 %5, 1
  %7 = icmp eq i8 %6, 0
  br i1 %7, label %16, label %8

8:                                                ; preds = %3
  %9 = getelementptr inbounds %"class.webrtc::internal::TransportAdapter", %"class.webrtc::internal::TransportAdapter"* %0, i64 0, i32 1
  %10 = load %"class.webrtc::Transport"*, %"class.webrtc::Transport"** %9, align 8
  %11 = bitcast %"class.webrtc::Transport"* %10 to i1 (%"class.webrtc::Transport"*, i8*, i64)***
  %12 = load i1 (%"class.webrtc::Transport"*, i8*, i64)**, i1 (%"class.webrtc::Transport"*, i8*, i64)*** %11, align 8
  %13 = getelementptr inbounds i1 (%"class.webrtc::Transport"*, i8*, i64)*, i1 (%"class.webrtc::Transport"*, i8*, i64)** %12, i64 1
  %14 = load i1 (%"class.webrtc::Transport"*, i8*, i64)*, i1 (%"class.webrtc::Transport"*, i8*, i64)** %13, align 8
  %15 = tail call zeroext i1 %14(%"class.webrtc::Transport"* %10, i8* %1, i64 %2) #6
  br label %16

16:                                               ; preds = %3, %8
  %17 = phi i1 [ %15, %8 ], [ false, %3 ]
  ret i1 %17
}

; Function Attrs: nofree norecurse nounwind ssp uwtable
define hidden void @_ZN6webrtc8internal16TransportAdapter6EnableEv(%"class.webrtc::internal::TransportAdapter"* nocapture) local_unnamed_addr #4 align 2 {
  %2 = getelementptr inbounds %"class.webrtc::internal::TransportAdapter", %"class.webrtc::internal::TransportAdapter"* %0, i64 0, i32 2, i32 0, i32 0, i32 0, i32 0
  store atomic i8 1, i8* %2 seq_cst, align 1
  ret void
}

; Function Attrs: nofree norecurse nounwind ssp uwtable
define hidden void @_ZN6webrtc8internal16TransportAdapter7DisableEv(%"class.webrtc::internal::TransportAdapter"* nocapture) local_unnamed_addr #4 align 2 {
  %2 = getelementptr inbounds %"class.webrtc::internal::TransportAdapter", %"class.webrtc::internal::TransportAdapter"* %0, i64 0, i32 2, i32 0, i32 0, i32 0, i32 0
  store atomic i8 0, i8* %2 seq_cst, align 1
  ret void
}

attributes #0 = { nofree norecurse nounwind ssp uwtable writeonly "correctly-rounded-divide-sqrt-fp-math"="false" "disable-tail-calls"="false" "less-precise-fpmad"="false" "min-legal-vector-width"="0" "no-frame-pointer-elim"="false" "no-frame-pointer-elim-non-leaf" "no-infs-fp-math"="false" "no-jump-tables"="false" "no-nans-fp-math"="false" "no-signed-zeros-fp-math"="false" "no-trapping-math"="false" "null-pointer-is-valid"="true" "stack-protector-buffer-size"="4" "target-cpu"="x86-64" "target-features"="+cx8,+fxsr,+mmx,+sse,+sse2,+sse3,+x87" "unsafe-fp-math"="false" "use-soft-float"="false" }
attributes #1 = { norecurse nounwind readnone ssp uwtable "correctly-rounded-divide-sqrt-fp-math"="false" "disable-tail-calls"="false" "less-precise-fpmad"="false" "min-legal-vector-width"="0" "no-frame-pointer-elim"="false" "no-frame-pointer-elim-non-leaf" "no-infs-fp-math"="false" "no-jump-tables"="false" "no-nans-fp-math"="false" "no-signed-zeros-fp-math"="false" "no-trapping-math"="false" "null-pointer-is-valid"="true" "stack-protector-buffer-size"="4" "target-cpu"="x86-64" "target-features"="+cx8,+fxsr,+mmx,+sse,+sse2,+sse3,+x87" "unsafe-fp-math"="false" "use-soft-float"="false" }
attributes #2 = { nounwind ssp uwtable "correctly-rounded-divide-sqrt-fp-math"="false" "disable-tail-calls"="false" "less-precise-fpmad"="false" "min-legal-vector-width"="0" "no-frame-pointer-elim"="false" "no-frame-pointer-elim-non-leaf" "no-infs-fp-math"="false" "no-jump-tables"="false" "no-nans-fp-math"="false" "no-signed-zeros-fp-math"="false" "no-trapping-math"="false" "null-pointer-is-valid"="true" "stack-protector-buffer-size"="4" "target-cpu"="x86-64" "target-features"="+cx8,+fxsr,+mmx,+sse,+sse2,+sse3,+x87" "unsafe-fp-math"="false" "use-soft-float"="false" }
attributes #3 = { nobuiltin nounwind "correctly-rounded-divide-sqrt-fp-math"="false" "disable-tail-calls"="false" "less-precise-fpmad"="false" "no-frame-pointer-elim"="false" "no-frame-pointer-elim-non-leaf" "no-infs-fp-math"="false" "no-nans-fp-math"="false" "no-signed-zeros-fp-math"="false" "no-trapping-math"="false" "null-pointer-is-valid"="true" "stack-protector-buffer-size"="4" "target-cpu"="x86-64" "target-features"="+cx8,+fxsr,+mmx,+sse,+sse2,+sse3,+x87" "unsafe-fp-math"="false" "use-soft-float"="false" }
attributes #4 = { nofree norecurse nounwind ssp uwtable "correctly-rounded-divide-sqrt-fp-math"="false" "disable-tail-calls"="false" "less-precise-fpmad"="false" "min-legal-vector-width"="0" "no-frame-pointer-elim"="false" "no-frame-pointer-elim-non-leaf" "no-infs-fp-math"="false" "no-jump-tables"="false" "no-nans-fp-math"="false" "no-signed-zeros-fp-math"="false" "no-trapping-math"="false" "null-pointer-is-valid"="true" "stack-protector-buffer-size"="4" "target-cpu"="x86-64" "target-features"="+cx8,+fxsr,+mmx,+sse,+sse2,+sse3,+x87" "unsafe-fp-math"="false" "use-soft-float"="false" }
attributes #5 = { builtin nounwind }
attributes #6 = { nounwind }

!llvm.module.flags = !{!0, !1}

!0 = !{i32 1, !"wchar_size", i32 4}
!1 = !{i32 7, !"PIC Level", i32 2}
