; ModuleID = 'gen/components/assist_ranker/proto/translate_ranker_model.pb.cc'
source_filename = "gen/components/assist_ranker/proto/translate_ranker_model.pb.cc"
target datalayout = "e-m:e-i64:64-f80:128-n8:16:32:64-S128"
target triple = "x86_64-unknown-linux-gnu"

module asm ".symver exp, exp@GLIBC_2.2.5"
module asm ".symver exp2, exp2@GLIBC_2.2.5"
module asm ".symver exp2f, exp2f@GLIBC_2.2.5"
module asm ".symver expf, expf@GLIBC_2.2.5"
module asm ".symver lgamma, lgamma@GLIBC_2.2.5"
module asm ".symver lgammaf, lgammaf@GLIBC_2.2.5"
module asm ".symver lgammal, lgammal@GLIBC_2.2.5"
module asm ".symver log, log@GLIBC_2.2.5"
module asm ".symver log2, log2@GLIBC_2.2.5"
module asm ".symver log2f, log2f@GLIBC_2.2.5"
module asm ".symver logf, logf@GLIBC_2.2.5"
module asm ".symver pow, pow@GLIBC_2.2.5"
module asm ".symver powf, powf@GLIBC_2.2.5"

%"class.assist_ranker::TranslateRankerModel_TranslateLogisticRegressionModel_SourceLanguageWeightEntry_DoNotUseDefaultTypeInternal" = type { %"class.google::protobuf::internal::ExplicitlyConstructed" }
%"class.google::protobuf::internal::ExplicitlyConstructed" = type { %"union.google::protobuf::internal::ExplicitlyConstructed<assist_ranker::TranslateRankerModel_TranslateLogisticRegressionModel_SourceLanguageWeightEntry_DoNotUse>::AlignedUnion" }
%"union.google::protobuf::internal::ExplicitlyConstructed<assist_ranker::TranslateRankerModel_TranslateLogisticRegressionModel_SourceLanguageWeightEntry_DoNotUse>::AlignedUnion" = type { i64, [24 x i8] }
%"class.assist_ranker::TranslateRankerModel_TranslateLogisticRegressionModel_TargetLanguageWeightEntry_DoNotUseDefaultTypeInternal" = type { %"class.google::protobuf::internal::ExplicitlyConstructed.0" }
%"class.google::protobuf::internal::ExplicitlyConstructed.0" = type { %"union.google::protobuf::internal::ExplicitlyConstructed<assist_ranker::TranslateRankerModel_TranslateLogisticRegressionModel_TargetLanguageWeightEntry_DoNotUse>::AlignedUnion" }
%"union.google::protobuf::internal::ExplicitlyConstructed<assist_ranker::TranslateRankerModel_TranslateLogisticRegressionModel_TargetLanguageWeightEntry_DoNotUse>::AlignedUnion" = type { i64, [24 x i8] }
%"class.assist_ranker::TranslateRankerModel_TranslateLogisticRegressionModel_CountryWeightEntry_DoNotUseDefaultTypeInternal" = type { %"class.google::protobuf::internal::ExplicitlyConstructed.1" }
%"class.google::protobuf::internal::ExplicitlyConstructed.1" = type { %"union.google::protobuf::internal::ExplicitlyConstructed<assist_ranker::TranslateRankerModel_TranslateLogisticRegressionModel_CountryWeightEntry_DoNotUse>::AlignedUnion" }
%"union.google::protobuf::internal::ExplicitlyConstructed<assist_ranker::TranslateRankerModel_TranslateLogisticRegressionModel_CountryWeightEntry_DoNotUse>::AlignedUnion" = type { i64, [24 x i8] }
%"class.assist_ranker::TranslateRankerModel_TranslateLogisticRegressionModel_LocaleWeightEntry_DoNotUseDefaultTypeInternal" = type { %"class.google::protobuf::internal::ExplicitlyConstructed.2" }
%"class.google::protobuf::internal::ExplicitlyConstructed.2" = type { %"union.google::protobuf::internal::ExplicitlyConstructed<assist_ranker::TranslateRankerModel_TranslateLogisticRegressionModel_LocaleWeightEntry_DoNotUse>::AlignedUnion" }
%"union.google::protobuf::internal::ExplicitlyConstructed<assist_ranker::TranslateRankerModel_TranslateLogisticRegressionModel_LocaleWeightEntry_DoNotUse>::AlignedUnion" = type { i64, [24 x i8] }
%"class.assist_ranker::TranslateRankerModel_TranslateLogisticRegressionModelDefaultTypeInternal" = type { %"class.google::protobuf::internal::ExplicitlyConstructed.3" }
%"class.google::protobuf::internal::ExplicitlyConstructed.3" = type { %"union.google::protobuf::internal::ExplicitlyConstructed<assist_ranker::TranslateRankerModel_TranslateLogisticRegressionModel>::AlignedUnion" }
%"union.google::protobuf::internal::ExplicitlyConstructed<assist_ranker::TranslateRankerModel_TranslateLogisticRegressionModel>::AlignedUnion" = type { i64, [240 x i8] }
%"class.assist_ranker::TranslateRankerModelDefaultTypeInternal" = type { %"class.google::protobuf::internal::ExplicitlyConstructed.4" }
%"class.google::protobuf::internal::ExplicitlyConstructed.4" = type { %"union.google::protobuf::internal::ExplicitlyConstructed<assist_ranker::TranslateRankerModel>::AlignedUnion" }
%"union.google::protobuf::internal::ExplicitlyConstructed<assist_ranker::TranslateRankerModel>::AlignedUnion" = type { i64, [40 x i8] }
%"class.google::protobuf::internal::ExplicitlyConstructed.40" = type { %"union.google::protobuf::internal::ExplicitlyConstructed<std::__1::basic_string<char, std::__1::char_traits<char>, std::__1::allocator<char> > >::AlignedUnion" }
%"union.google::protobuf::internal::ExplicitlyConstructed<std::__1::basic_string<char, std::__1::char_traits<char>, std::__1::allocator<char> > >::AlignedUnion" = type { i64, [16 x i8] }
%"class.assist_ranker::TranslateRankerModel_TranslateLogisticRegressionModel_SourceLanguageWeightEntry_DoNotUse" = type { %"class.google::protobuf::internal::MapEntryLite" }
%"class.google::protobuf::internal::MapEntryLite" = type { %"class.google::protobuf::internal::MapEntryImpl" }
%"class.google::protobuf::internal::MapEntryImpl" = type { %"class.google::protobuf::MessageLite", %"struct.google::protobuf::internal::ArenaStringPtr", float, [1 x i32] }
%"class.google::protobuf::MessageLite" = type { i32 (...)**, %"class.google::protobuf::internal::InternalMetadata" }
%"class.google::protobuf::internal::InternalMetadata" = type { i8* }
%"struct.google::protobuf::internal::ArenaStringPtr" = type { %"class.std::__1::basic_string"* }
%"class.std::__1::basic_string" = type { %"class.std::__1::__compressed_pair" }
%"class.std::__1::__compressed_pair" = type { %"struct.std::__1::__compressed_pair_elem" }
%"struct.std::__1::__compressed_pair_elem" = type { %"struct.std::__1::basic_string<char, std::__1::char_traits<char>, std::__1::allocator<char> >::__rep" }
%"struct.std::__1::basic_string<char, std::__1::char_traits<char>, std::__1::allocator<char> >::__rep" = type { %union.anon }
%union.anon = type { %"struct.std::__1::basic_string<char, std::__1::char_traits<char>, std::__1::allocator<char> >::__long" }
%"struct.std::__1::basic_string<char, std::__1::char_traits<char>, std::__1::allocator<char> >::__long" = type { i8*, i64, i64 }
%"class.google::protobuf::Arena" = type { %"class.google::protobuf::internal::ArenaImpl", void (%"class.std::type_info"*, i64, i8*)*, void (%"class.google::protobuf::Arena"*, i8*, i64)*, void (%"class.google::protobuf::Arena"*, i8*, i64)*, i8* }
%"class.google::protobuf::internal::ArenaImpl" = type { %"struct.std::__1::atomic.9", %"struct.std::__1::atomic.9", %"struct.std::__1::atomic.13", %"class.google::protobuf::internal::ArenaImpl::Block"*, i64, %"struct.google::protobuf::internal::ArenaImpl::Options" }
%"struct.std::__1::atomic.9" = type { %"struct.std::__1::__atomic_base.10" }
%"struct.std::__1::__atomic_base.10" = type { %"struct.std::__1::__cxx_atomic_impl.11" }
%"struct.std::__1::__cxx_atomic_impl.11" = type { %"struct.std::__1::__cxx_atomic_base_impl.12" }
%"struct.std::__1::__cxx_atomic_base_impl.12" = type { %"class.google::protobuf::internal::ArenaImpl::SerialArena"* }
%"class.google::protobuf::internal::ArenaImpl::SerialArena" = type { %"class.google::protobuf::internal::ArenaImpl"*, i8*, %"class.google::protobuf::internal::ArenaImpl::Block"*, %"struct.google::protobuf::internal::ArenaImpl::CleanupChunk"*, %"class.google::protobuf::internal::ArenaImpl::SerialArena"*, i8*, i8*, %"struct.google::protobuf::internal::ArenaImpl::CleanupNode"*, %"struct.google::protobuf::internal::ArenaImpl::CleanupNode"* }
%"struct.google::protobuf::internal::ArenaImpl::CleanupChunk" = type { i64, %"struct.google::protobuf::internal::ArenaImpl::CleanupChunk"*, [1 x %"struct.google::protobuf::internal::ArenaImpl::CleanupNode"] }
%"struct.google::protobuf::internal::ArenaImpl::CleanupNode" = type { i8*, void (i8*)* }
%"struct.std::__1::atomic.13" = type { %"struct.std::__1::__atomic_base.14" }
%"struct.std::__1::__atomic_base.14" = type { %"struct.std::__1::__atomic_base.15" }
%"struct.std::__1::__atomic_base.15" = type { %"struct.std::__1::__cxx_atomic_impl.16" }
%"struct.std::__1::__cxx_atomic_impl.16" = type { %"struct.std::__1::__cxx_atomic_base_impl.17" }
%"struct.std::__1::__cxx_atomic_base_impl.17" = type { i64 }
%"class.google::protobuf::internal::ArenaImpl::Block" = type { %"class.google::protobuf::internal::ArenaImpl::Block"*, i64, i64 }
%"struct.google::protobuf::internal::ArenaImpl::Options" = type { i64, i64, i8*, i64, i8* (i64)*, void (i8*, i64)* }
%"class.std::type_info" = type { i32 (...)**, i8* }
%"class.assist_ranker::TranslateRankerModel_TranslateLogisticRegressionModel_TargetLanguageWeightEntry_DoNotUse" = type { %"class.google::protobuf::internal::MapEntryLite.18" }
%"class.google::protobuf::internal::MapEntryLite.18" = type { %"class.google::protobuf::internal::MapEntryImpl.19" }
%"class.google::protobuf::internal::MapEntryImpl.19" = type { %"class.google::protobuf::MessageLite", %"struct.google::protobuf::internal::ArenaStringPtr", float, [1 x i32] }
%"class.assist_ranker::TranslateRankerModel_TranslateLogisticRegressionModel_CountryWeightEntry_DoNotUse" = type { %"class.google::protobuf::internal::MapEntryLite.20" }
%"class.google::protobuf::internal::MapEntryLite.20" = type { %"class.google::protobuf::internal::MapEntryImpl.21" }
%"class.google::protobuf::internal::MapEntryImpl.21" = type { %"class.google::protobuf::MessageLite", %"struct.google::protobuf::internal::ArenaStringPtr", float, [1 x i32] }
%"class.assist_ranker::TranslateRankerModel_TranslateLogisticRegressionModel_LocaleWeightEntry_DoNotUse" = type { %"class.google::protobuf::internal::MapEntryLite.22" }
%"class.google::protobuf::internal::MapEntryLite.22" = type { %"class.google::protobuf::internal::MapEntryImpl.23" }
%"class.google::protobuf::internal::MapEntryImpl.23" = type { %"class.google::protobuf::MessageLite", %"struct.google::protobuf::internal::ArenaStringPtr", float, [1 x i32] }
%"class.assist_ranker::TranslateRankerModel_TranslateLogisticRegressionModel" = type { %"class.google::protobuf::MessageLite", %"class.google::protobuf::internal::HasBits", %"class.google::protobuf::internal::CachedSize", %"class.google::protobuf::internal::MapFieldLite", %"class.google::protobuf::internal::MapFieldLite.24", %"class.google::protobuf::internal::MapFieldLite.25", %"class.google::protobuf::internal::MapFieldLite.26", float, float, float, float, float, float, float, float }
%"class.google::protobuf::internal::HasBits" = type { [1 x i32] }
%"class.google::protobuf::internal::CachedSize" = type { %"struct.std::__1::atomic" }
%"struct.std::__1::atomic" = type { %"struct.std::__1::__atomic_base" }
%"struct.std::__1::__atomic_base" = type { %"struct.std::__1::__atomic_base.5" }
%"struct.std::__1::__atomic_base.5" = type { %"struct.std::__1::__cxx_atomic_impl" }
%"struct.std::__1::__cxx_atomic_impl" = type { %"struct.std::__1::__cxx_atomic_base_impl" }
%"struct.std::__1::__cxx_atomic_base_impl" = type { i32 }
%"class.google::protobuf::internal::MapFieldLite" = type { %"class.google::protobuf::Map" }
%"class.google::protobuf::Map" = type { %"class.google::protobuf::Map<std::__1::basic_string<char, std::__1::char_traits<char>, std::__1::allocator<char> >, float>::InnerMap" }
%"class.google::protobuf::Map<std::__1::basic_string<char, std::__1::char_traits<char>, std::__1::allocator<char> >, float>::InnerMap" = type { i64, i64, i64, i64, i8**, %"class.google::protobuf::internal::MapAllocator" }
%"class.google::protobuf::internal::MapAllocator" = type { %"class.google::protobuf::Arena"* }
%"class.google::protobuf::internal::MapFieldLite.24" = type { %"class.google::protobuf::Map" }
%"class.google::protobuf::internal::MapFieldLite.25" = type { %"class.google::protobuf::Map" }
%"class.google::protobuf::internal::MapFieldLite.26" = type { %"class.google::protobuf::Map" }
%"class.assist_ranker::TranslateRankerModel" = type <{ %"class.google::protobuf::MessageLite", %"class.google::protobuf::internal::HasBits", %"class.google::protobuf::internal::CachedSize", i32, [4 x i8], %"union.assist_ranker::TranslateRankerModel::ModelRevisionUnion", [1 x i32], [4 x i8] }>
%"union.assist_ranker::TranslateRankerModel::ModelRevisionUnion" = type { %"class.assist_ranker::TranslateRankerModel_TranslateLogisticRegressionModel"* }
%"struct.google::protobuf::internal::SCCInfoBase" = type { %"struct.std::__1::atomic", i32, i32, void ()* }
%"struct.google::protobuf::internal::InternalMetadata::ContainerBase" = type { %"class.google::protobuf::Arena"* }
%"struct.std::__1::basic_string<char, std::__1::char_traits<char>, std::__1::allocator<char> >::__short" = type { [23 x i8], %struct.anon }
%struct.anon = type { i8 }
%"struct.std::__1::pair.42" = type <{ %"class.google::protobuf::Map<std::__1::basic_string<char, std::__1::char_traits<char>, std::__1::allocator<char> >, float>::InnerMap::iterator_base.43", i8, [7 x i8] }>
%"class.google::protobuf::Map<std::__1::basic_string<char, std::__1::char_traits<char>, std::__1::allocator<char> >, float>::InnerMap::iterator_base.43" = type { %"struct.google::protobuf::Map<std::__1::basic_string<char, std::__1::char_traits<char>, std::__1::allocator<char> >, float>::InnerMap::Node"*, %"class.google::protobuf::Map<std::__1::basic_string<char, std::__1::char_traits<char>, std::__1::allocator<char> >, float>::InnerMap"*, i64 }
%"struct.google::protobuf::Map<std::__1::basic_string<char, std::__1::char_traits<char>, std::__1::allocator<char> >, float>::InnerMap::Node" = type { %"struct.google::protobuf::MapPair", %"struct.google::protobuf::Map<std::__1::basic_string<char, std::__1::char_traits<char>, std::__1::allocator<char> >, float>::InnerMap::Node"* }
%"struct.google::protobuf::MapPair" = type <{ %"class.std::__1::basic_string", float, [4 x i8] }>
%"class.google::protobuf::Map<std::__1::basic_string<char, std::__1::char_traits<char>, std::__1::allocator<char> >, float>::const_iterator" = type { %"class.google::protobuf::Map<std::__1::basic_string<char, std::__1::char_traits<char>, std::__1::allocator<char> >, float>::InnerMap::iterator_base" }
%"class.google::protobuf::Map<std::__1::basic_string<char, std::__1::char_traits<char>, std::__1::allocator<char> >, float>::InnerMap::iterator_base" = type { %"struct.google::protobuf::Map<std::__1::basic_string<char, std::__1::char_traits<char>, std::__1::allocator<char> >, float>::InnerMap::Node"*, %"class.google::protobuf::Map<std::__1::basic_string<char, std::__1::char_traits<char>, std::__1::allocator<char> >, float>::InnerMap"*, i64 }
%"struct.google::protobuf::internal::InternalMetadata::Container" = type { %"struct.google::protobuf::internal::InternalMetadata::ContainerBase", %"class.std::__1::basic_string" }
%"class.std::__1::__tree_end_node" = type { %"class.std::__1::__tree_node_base"* }
%"class.std::__1::__tree_node_base" = type <{ %"class.std::__1::__tree_end_node", %"class.std::__1::__tree_node_base"*, %"class.std::__1::__tree_end_node"*, i8, [7 x i8] }>
%"class.google::protobuf::internal::ParseContext" = type { %"class.google::protobuf::internal::EpsCopyInputStream", i32, i32, %"struct.google::protobuf::internal::ParseContext::Data" }
%"class.google::protobuf::internal::EpsCopyInputStream" = type { i8*, i8*, i8*, i32, i32, %"class.google::protobuf::io::ZeroCopyInputStream"*, [32 x i8], i64, i32, i32 }
%"class.google::protobuf::io::ZeroCopyInputStream" = type { i32 (...)** }
%"struct.google::protobuf::internal::ParseContext::Data" = type { %"class.google::protobuf::DescriptorPool"*, %"class.google::protobuf::MessageFactory"* }
%"class.google::protobuf::DescriptorPool" = type opaque
%"class.google::protobuf::MessageFactory" = type opaque
%"class.google::protobuf::internal::MapEntryImpl<assist_ranker::TranslateRankerModel_TranslateLogisticRegressionModel_SourceLanguageWeightEntry_DoNotUse, google::protobuf::MessageLite, std::__1::basic_string<char, std::__1::char_traits<char>, std::__1::allocator<char> >, float, google::protobuf::internal::WireFormatLite::TYPE_STRING, google::protobuf::internal::WireFormatLite::TYPE_FLOAT>::Parser" = type { %"class.google::protobuf::internal::MapFieldLite"*, %"class.google::protobuf::Map"*, %"class.std::__1::basic_string", float*, %"class.google::protobuf::internal::MapEntryImpl"* }
%"class.google::protobuf::internal::MapEntryImpl<assist_ranker::TranslateRankerModel_TranslateLogisticRegressionModel_TargetLanguageWeightEntry_DoNotUse, google::protobuf::MessageLite, std::__1::basic_string<char, std::__1::char_traits<char>, std::__1::allocator<char> >, float, google::protobuf::internal::WireFormatLite::TYPE_STRING, google::protobuf::internal::WireFormatLite::TYPE_FLOAT>::Parser" = type { %"class.google::protobuf::internal::MapFieldLite.24"*, %"class.google::protobuf::Map"*, %"class.std::__1::basic_string", float*, %"class.google::protobuf::internal::MapEntryImpl.19"* }
%"class.google::protobuf::internal::MapEntryImpl<assist_ranker::TranslateRankerModel_TranslateLogisticRegressionModel_CountryWeightEntry_DoNotUse, google::protobuf::MessageLite, std::__1::basic_string<char, std::__1::char_traits<char>, std::__1::allocator<char> >, float, google::protobuf::internal::WireFormatLite::TYPE_STRING, google::protobuf::internal::WireFormatLite::TYPE_FLOAT>::Parser" = type { %"class.google::protobuf::internal::MapFieldLite.25"*, %"class.google::protobuf::Map"*, %"class.std::__1::basic_string", float*, %"class.google::protobuf::internal::MapEntryImpl.21"* }
%"class.google::protobuf::internal::MapEntryImpl<assist_ranker::TranslateRankerModel_TranslateLogisticRegressionModel_LocaleWeightEntry_DoNotUse, google::protobuf::MessageLite, std::__1::basic_string<char, std::__1::char_traits<char>, std::__1::allocator<char> >, float, google::protobuf::internal::WireFormatLite::TYPE_STRING, google::protobuf::internal::WireFormatLite::TYPE_FLOAT>::Parser" = type { %"class.google::protobuf::internal::MapFieldLite.26"*, %"class.google::protobuf::Map"*, %"class.std::__1::basic_string", float*, %"class.google::protobuf::internal::MapEntryImpl.23"* }
%"class.google::protobuf::io::EpsCopyOutputStream" = type <{ i8*, i8*, [32 x i8], %"class.google::protobuf::io::ZeroCopyOutputStream"*, i8, i8, i8, [5 x i8] }>
%"class.google::protobuf::io::ZeroCopyOutputStream" = type { i32 (...)** }
%"struct.google::protobuf::internal::CompareByDerefFirst" = type { i8 }
%"class.std::__1::__tree" = type { %"class.std::__1::__tree_end_node"*, %"class.std::__1::__compressed_pair.30", %"class.std::__1::__compressed_pair.34" }
%"class.std::__1::__compressed_pair.30" = type { %"struct.std::__1::__compressed_pair_elem.31", %"struct.std::__1::__compressed_pair_elem.32" }
%"struct.std::__1::__compressed_pair_elem.31" = type { %"class.std::__1::__tree_end_node" }
%"struct.std::__1::__compressed_pair_elem.32" = type { %"class.google::protobuf::internal::MapAllocator.33" }
%"class.google::protobuf::internal::MapAllocator.33" = type { %"class.google::protobuf::Arena"* }
%"class.std::__1::__compressed_pair.34" = type { %"struct.std::__1::__compressed_pair_elem.35" }
%"struct.std::__1::__compressed_pair_elem.35" = type { i64 }
%"class.std::__1::__tree_node" = type { %"class.std::__1::__tree_node_base.base", %"struct.std::__1::__value_type" }
%"class.std::__1::__tree_node_base.base" = type <{ %"class.std::__1::__tree_end_node", %"class.std::__1::__tree_node_base"*, %"class.std::__1::__tree_end_node"*, i8 }>
%"struct.std::__1::__value_type" = type { %"struct.std::__1::pair" }
%"struct.std::__1::pair" = type { %"class.std::__1::reference_wrapper", i8* }
%"class.std::__1::reference_wrapper" = type { %"class.std::__1::basic_string"* }
%"struct.std::__1::pair.45" = type { %"class.google::protobuf::Map<std::__1::basic_string<char, std::__1::char_traits<char>, std::__1::allocator<char> >, float>::InnerMap::iterator_base", i64 }
%"class.std::__1::__map_iterator" = type { %"class.std::__1::__tree_iterator" }
%"class.std::__1::__tree_iterator" = type { %"class.std::__1::__tree_end_node"* }
%"class.std::__1::map" = type { %"class.std::__1::__tree" }
%"struct.std::__1::__murmur2_or_cityhash" = type { i8 }
%"class.google::protobuf::Map<std::__1::basic_string<char, std::__1::char_traits<char>, std::__1::allocator<char> >, float>::iterator" = type { %"class.google::protobuf::Map<std::__1::basic_string<char, std::__1::char_traits<char>, std::__1::allocator<char> >, float>::InnerMap::iterator_base.43" }

$_ZN6google8protobuf8internal12MapEntryImplIN13assist_ranker88TranslateRankerModel_TranslateLogisticRegressionModel_SourceLanguageWeightEntry_DoNotUseENS0_11MessageLiteENSt3__112basic_stringIcNS6_11char_traitsIcEENS6_9allocatorIcEEEEfLNS1_14WireFormatLite9FieldTypeE9ELSE_2EE17MergeFromInternalERKSF_ = comdat any

$_ZN6google8protobuf8internal12MapEntryImplIN13assist_ranker88TranslateRankerModel_TranslateLogisticRegressionModel_TargetLanguageWeightEntry_DoNotUseENS0_11MessageLiteENSt3__112basic_stringIcNS6_11char_traitsIcEENS6_9allocatorIcEEEEfLNS1_14WireFormatLite9FieldTypeE9ELSE_2EE17MergeFromInternalERKSF_ = comdat any

$_ZN6google8protobuf8internal12MapEntryImplIN13assist_ranker81TranslateRankerModel_TranslateLogisticRegressionModel_CountryWeightEntry_DoNotUseENS0_11MessageLiteENSt3__112basic_stringIcNS6_11char_traitsIcEENS6_9allocatorIcEEEEfLNS1_14WireFormatLite9FieldTypeE9ELSE_2EE17MergeFromInternalERKSF_ = comdat any

$_ZN6google8protobuf8internal12MapEntryImplIN13assist_ranker80TranslateRankerModel_TranslateLogisticRegressionModel_LocaleWeightEntry_DoNotUseENS0_11MessageLiteENSt3__112basic_stringIcNS6_11char_traitsIcEENS6_9allocatorIcEEEEfLNS1_14WireFormatLite9FieldTypeE9ELSE_2EE17MergeFromInternalERKSF_ = comdat any

$_ZN6google8protobuf8internal12ParseContext12ParseMessageINS1_12MapFieldLiteIN13assist_ranker88TranslateRankerModel_TranslateLogisticRegressionModel_SourceLanguageWeightEntry_DoNotUseENSt3__112basic_stringIcNS7_11char_traitsIcEENS7_9allocatorIcEEEEfLNS1_14WireFormatLite9FieldTypeE9ELSF_2EEEEEPKcPT_SI_ = comdat any

$_ZN6google8protobuf8internal12ParseContext12ParseMessageINS1_12MapFieldLiteIN13assist_ranker88TranslateRankerModel_TranslateLogisticRegressionModel_TargetLanguageWeightEntry_DoNotUseENSt3__112basic_stringIcNS7_11char_traitsIcEENS7_9allocatorIcEEEEfLNS1_14WireFormatLite9FieldTypeE9ELSF_2EEEEEPKcPT_SI_ = comdat any

$_ZN6google8protobuf8internal12ParseContext12ParseMessageINS1_12MapFieldLiteIN13assist_ranker81TranslateRankerModel_TranslateLogisticRegressionModel_CountryWeightEntry_DoNotUseENSt3__112basic_stringIcNS7_11char_traitsIcEENS7_9allocatorIcEEEEfLNS1_14WireFormatLite9FieldTypeE9ELSF_2EEEEEPKcPT_SI_ = comdat any

$_ZN6google8protobuf8internal12ParseContext12ParseMessageINS1_12MapFieldLiteIN13assist_ranker80TranslateRankerModel_TranslateLogisticRegressionModel_LocaleWeightEntry_DoNotUseENSt3__112basic_stringIcNS7_11char_traitsIcEENS7_9allocatorIcEEEEfLNS1_14WireFormatLite9FieldTypeE9ELSF_2EEEEEPKcPT_SI_ = comdat any

$_ZN6google8protobuf8internal13MapEntryFuncsINSt3__112basic_stringIcNS3_11char_traitsIcEENS3_9allocatorIcEEEEfLNS1_14WireFormatLite9FieldTypeE9ELSB_2EE17InternalSerializeEiRKS9_RKfPhPNS0_2io19EpsCopyOutputStreamE = comdat any

$_ZN6google8protobuf8internal12ParseContext12ParseMessageIN13assist_ranker53TranslateRankerModel_TranslateLogisticRegressionModelEEEPKcPT_S7_ = comdat any

$_ZNK13assist_ranker53TranslateRankerModel_TranslateLogisticRegressionModel3NewEv = comdat any

$_ZNK13assist_ranker53TranslateRankerModel_TranslateLogisticRegressionModel3NewEPN6google8protobuf5ArenaE = comdat any

$_ZNK13assist_ranker53TranslateRankerModel_TranslateLogisticRegressionModel13GetCachedSizeEv = comdat any

$_ZNK6google8protobuf11MessageLite16InternalGetTableEv = comdat any

$_ZNK13assist_ranker20TranslateRankerModel3NewEv = comdat any

$_ZNK13assist_ranker20TranslateRankerModel3NewEPN6google8protobuf5ArenaE = comdat any

$_ZNK13assist_ranker20TranslateRankerModel13GetCachedSizeEv = comdat any

$_ZN13assist_ranker88TranslateRankerModel_TranslateLogisticRegressionModel_SourceLanguageWeightEntry_DoNotUseD0Ev = comdat any

$_ZNK6google8protobuf8internal12MapEntryImplIN13assist_ranker88TranslateRankerModel_TranslateLogisticRegressionModel_SourceLanguageWeightEntry_DoNotUseENS0_11MessageLiteENSt3__112basic_stringIcNS6_11char_traitsIcEENS6_9allocatorIcEEEEfLNS1_14WireFormatLite9FieldTypeE9ELSE_2EE11GetTypeNameEv = comdat any

$_ZNK6google8protobuf8internal12MapEntryImplIN13assist_ranker88TranslateRankerModel_TranslateLogisticRegressionModel_SourceLanguageWeightEntry_DoNotUseENS0_11MessageLiteENSt3__112basic_stringIcNS6_11char_traitsIcEENS6_9allocatorIcEEEEfLNS1_14WireFormatLite9FieldTypeE9ELSE_2EE3NewEv = comdat any

$_ZNK6google8protobuf8internal12MapEntryImplIN13assist_ranker88TranslateRankerModel_TranslateLogisticRegressionModel_SourceLanguageWeightEntry_DoNotUseENS0_11MessageLiteENSt3__112basic_stringIcNS6_11char_traitsIcEENS6_9allocatorIcEEEEfLNS1_14WireFormatLite9FieldTypeE9ELSE_2EE3NewEPNS0_5ArenaE = comdat any

$_ZN6google8protobuf8internal12MapEntryImplIN13assist_ranker88TranslateRankerModel_TranslateLogisticRegressionModel_SourceLanguageWeightEntry_DoNotUseENS0_11MessageLiteENSt3__112basic_stringIcNS6_11char_traitsIcEENS6_9allocatorIcEEEEfLNS1_14WireFormatLite9FieldTypeE9ELSE_2EE5ClearEv = comdat any

$_ZNK6google8protobuf8internal12MapEntryImplIN13assist_ranker88TranslateRankerModel_TranslateLogisticRegressionModel_SourceLanguageWeightEntry_DoNotUseENS0_11MessageLiteENSt3__112basic_stringIcNS6_11char_traitsIcEENS6_9allocatorIcEEEEfLNS1_14WireFormatLite9FieldTypeE9ELSE_2EE13IsInitializedEv = comdat any

$_ZN6google8protobuf8internal12MapEntryImplIN13assist_ranker88TranslateRankerModel_TranslateLogisticRegressionModel_SourceLanguageWeightEntry_DoNotUseENS0_11MessageLiteENSt3__112basic_stringIcNS6_11char_traitsIcEENS6_9allocatorIcEEEEfLNS1_14WireFormatLite9FieldTypeE9ELSE_2EE21CheckTypeAndMergeFromERKS5_ = comdat any

$_ZNK6google8protobuf8internal12MapEntryImplIN13assist_ranker88TranslateRankerModel_TranslateLogisticRegressionModel_SourceLanguageWeightEntry_DoNotUseENS0_11MessageLiteENSt3__112basic_stringIcNS6_11char_traitsIcEENS6_9allocatorIcEEEEfLNS1_14WireFormatLite9FieldTypeE9ELSE_2EE12ByteSizeLongEv = comdat any

$_ZNK6google8protobuf8internal12MapEntryImplIN13assist_ranker88TranslateRankerModel_TranslateLogisticRegressionModel_SourceLanguageWeightEntry_DoNotUseENS0_11MessageLiteENSt3__112basic_stringIcNS6_11char_traitsIcEENS6_9allocatorIcEEEEfLNS1_14WireFormatLite9FieldTypeE9ELSE_2EE13GetCachedSizeEv = comdat any

$_ZN6google8protobuf8internal12MapEntryImplIN13assist_ranker88TranslateRankerModel_TranslateLogisticRegressionModel_SourceLanguageWeightEntry_DoNotUseENS0_11MessageLiteENSt3__112basic_stringIcNS6_11char_traitsIcEENS6_9allocatorIcEEEEfLNS1_14WireFormatLite9FieldTypeE9ELSE_2EE14_InternalParseEPKcPNS1_12ParseContextE = comdat any

$_ZNK6google8protobuf8internal12MapEntryImplIN13assist_ranker88TranslateRankerModel_TranslateLogisticRegressionModel_SourceLanguageWeightEntry_DoNotUseENS0_11MessageLiteENSt3__112basic_stringIcNS6_11char_traitsIcEENS6_9allocatorIcEEEEfLNS1_14WireFormatLite9FieldTypeE9ELSE_2EE18_InternalSerializeEPhPNS0_2io19EpsCopyOutputStreamE = comdat any

$_ZNK6google8protobuf8internal12MapEntryImplIN13assist_ranker88TranslateRankerModel_TranslateLogisticRegressionModel_SourceLanguageWeightEntry_DoNotUseENS0_11MessageLiteENSt3__112basic_stringIcNS6_11char_traitsIcEENS6_9allocatorIcEEEEfLNS1_14WireFormatLite9FieldTypeE9ELSE_2EE3keyEv = comdat any

$_ZNK6google8protobuf8internal12MapEntryImplIN13assist_ranker88TranslateRankerModel_TranslateLogisticRegressionModel_SourceLanguageWeightEntry_DoNotUseENS0_11MessageLiteENSt3__112basic_stringIcNS6_11char_traitsIcEENS6_9allocatorIcEEEEfLNS1_14WireFormatLite9FieldTypeE9ELSE_2EE5valueEv = comdat any

$_ZN6google8protobuf8internal12MapEntryLiteIN13assist_ranker88TranslateRankerModel_TranslateLogisticRegressionModel_TargetLanguageWeightEntry_DoNotUseENSt3__112basic_stringIcNS5_11char_traitsIcEENS5_9allocatorIcEEEEfLNS1_14WireFormatLite9FieldTypeE9ELSD_2EED2Ev = comdat any

$_ZN13assist_ranker88TranslateRankerModel_TranslateLogisticRegressionModel_TargetLanguageWeightEntry_DoNotUseD0Ev = comdat any

$_ZNK6google8protobuf8internal12MapEntryImplIN13assist_ranker88TranslateRankerModel_TranslateLogisticRegressionModel_TargetLanguageWeightEntry_DoNotUseENS0_11MessageLiteENSt3__112basic_stringIcNS6_11char_traitsIcEENS6_9allocatorIcEEEEfLNS1_14WireFormatLite9FieldTypeE9ELSE_2EE11GetTypeNameEv = comdat any

$_ZNK6google8protobuf8internal12MapEntryImplIN13assist_ranker88TranslateRankerModel_TranslateLogisticRegressionModel_TargetLanguageWeightEntry_DoNotUseENS0_11MessageLiteENSt3__112basic_stringIcNS6_11char_traitsIcEENS6_9allocatorIcEEEEfLNS1_14WireFormatLite9FieldTypeE9ELSE_2EE3NewEv = comdat any

$_ZNK6google8protobuf8internal12MapEntryImplIN13assist_ranker88TranslateRankerModel_TranslateLogisticRegressionModel_TargetLanguageWeightEntry_DoNotUseENS0_11MessageLiteENSt3__112basic_stringIcNS6_11char_traitsIcEENS6_9allocatorIcEEEEfLNS1_14WireFormatLite9FieldTypeE9ELSE_2EE3NewEPNS0_5ArenaE = comdat any

$_ZN6google8protobuf8internal12MapEntryImplIN13assist_ranker88TranslateRankerModel_TranslateLogisticRegressionModel_TargetLanguageWeightEntry_DoNotUseENS0_11MessageLiteENSt3__112basic_stringIcNS6_11char_traitsIcEENS6_9allocatorIcEEEEfLNS1_14WireFormatLite9FieldTypeE9ELSE_2EE5ClearEv = comdat any

$_ZNK6google8protobuf8internal12MapEntryImplIN13assist_ranker88TranslateRankerModel_TranslateLogisticRegressionModel_TargetLanguageWeightEntry_DoNotUseENS0_11MessageLiteENSt3__112basic_stringIcNS6_11char_traitsIcEENS6_9allocatorIcEEEEfLNS1_14WireFormatLite9FieldTypeE9ELSE_2EE13IsInitializedEv = comdat any

$_ZN6google8protobuf8internal12MapEntryImplIN13assist_ranker88TranslateRankerModel_TranslateLogisticRegressionModel_TargetLanguageWeightEntry_DoNotUseENS0_11MessageLiteENSt3__112basic_stringIcNS6_11char_traitsIcEENS6_9allocatorIcEEEEfLNS1_14WireFormatLite9FieldTypeE9ELSE_2EE21CheckTypeAndMergeFromERKS5_ = comdat any

$_ZNK6google8protobuf8internal12MapEntryImplIN13assist_ranker88TranslateRankerModel_TranslateLogisticRegressionModel_TargetLanguageWeightEntry_DoNotUseENS0_11MessageLiteENSt3__112basic_stringIcNS6_11char_traitsIcEENS6_9allocatorIcEEEEfLNS1_14WireFormatLite9FieldTypeE9ELSE_2EE12ByteSizeLongEv = comdat any

$_ZNK6google8protobuf8internal12MapEntryImplIN13assist_ranker88TranslateRankerModel_TranslateLogisticRegressionModel_TargetLanguageWeightEntry_DoNotUseENS0_11MessageLiteENSt3__112basic_stringIcNS6_11char_traitsIcEENS6_9allocatorIcEEEEfLNS1_14WireFormatLite9FieldTypeE9ELSE_2EE13GetCachedSizeEv = comdat any

$_ZN6google8protobuf8internal12MapEntryImplIN13assist_ranker88TranslateRankerModel_TranslateLogisticRegressionModel_TargetLanguageWeightEntry_DoNotUseENS0_11MessageLiteENSt3__112basic_stringIcNS6_11char_traitsIcEENS6_9allocatorIcEEEEfLNS1_14WireFormatLite9FieldTypeE9ELSE_2EE14_InternalParseEPKcPNS1_12ParseContextE = comdat any

$_ZNK6google8protobuf8internal12MapEntryImplIN13assist_ranker88TranslateRankerModel_TranslateLogisticRegressionModel_TargetLanguageWeightEntry_DoNotUseENS0_11MessageLiteENSt3__112basic_stringIcNS6_11char_traitsIcEENS6_9allocatorIcEEEEfLNS1_14WireFormatLite9FieldTypeE9ELSE_2EE18_InternalSerializeEPhPNS0_2io19EpsCopyOutputStreamE = comdat any

$_ZNK6google8protobuf8internal12MapEntryImplIN13assist_ranker88TranslateRankerModel_TranslateLogisticRegressionModel_TargetLanguageWeightEntry_DoNotUseENS0_11MessageLiteENSt3__112basic_stringIcNS6_11char_traitsIcEENS6_9allocatorIcEEEEfLNS1_14WireFormatLite9FieldTypeE9ELSE_2EE3keyEv = comdat any

$_ZNK6google8protobuf8internal12MapEntryImplIN13assist_ranker88TranslateRankerModel_TranslateLogisticRegressionModel_TargetLanguageWeightEntry_DoNotUseENS0_11MessageLiteENSt3__112basic_stringIcNS6_11char_traitsIcEENS6_9allocatorIcEEEEfLNS1_14WireFormatLite9FieldTypeE9ELSE_2EE5valueEv = comdat any

$_ZN6google8protobuf8internal12MapEntryLiteIN13assist_ranker81TranslateRankerModel_TranslateLogisticRegressionModel_CountryWeightEntry_DoNotUseENSt3__112basic_stringIcNS5_11char_traitsIcEENS5_9allocatorIcEEEEfLNS1_14WireFormatLite9FieldTypeE9ELSD_2EED2Ev = comdat any

$_ZN13assist_ranker81TranslateRankerModel_TranslateLogisticRegressionModel_CountryWeightEntry_DoNotUseD0Ev = comdat any

$_ZNK6google8protobuf8internal12MapEntryImplIN13assist_ranker81TranslateRankerModel_TranslateLogisticRegressionModel_CountryWeightEntry_DoNotUseENS0_11MessageLiteENSt3__112basic_stringIcNS6_11char_traitsIcEENS6_9allocatorIcEEEEfLNS1_14WireFormatLite9FieldTypeE9ELSE_2EE11GetTypeNameEv = comdat any

$_ZNK6google8protobuf8internal12MapEntryImplIN13assist_ranker81TranslateRankerModel_TranslateLogisticRegressionModel_CountryWeightEntry_DoNotUseENS0_11MessageLiteENSt3__112basic_stringIcNS6_11char_traitsIcEENS6_9allocatorIcEEEEfLNS1_14WireFormatLite9FieldTypeE9ELSE_2EE3NewEv = comdat any

$_ZNK6google8protobuf8internal12MapEntryImplIN13assist_ranker81TranslateRankerModel_TranslateLogisticRegressionModel_CountryWeightEntry_DoNotUseENS0_11MessageLiteENSt3__112basic_stringIcNS6_11char_traitsIcEENS6_9allocatorIcEEEEfLNS1_14WireFormatLite9FieldTypeE9ELSE_2EE3NewEPNS0_5ArenaE = comdat any

$_ZN6google8protobuf8internal12MapEntryImplIN13assist_ranker81TranslateRankerModel_TranslateLogisticRegressionModel_CountryWeightEntry_DoNotUseENS0_11MessageLiteENSt3__112basic_stringIcNS6_11char_traitsIcEENS6_9allocatorIcEEEEfLNS1_14WireFormatLite9FieldTypeE9ELSE_2EE5ClearEv = comdat any

$_ZNK6google8protobuf8internal12MapEntryImplIN13assist_ranker81TranslateRankerModel_TranslateLogisticRegressionModel_CountryWeightEntry_DoNotUseENS0_11MessageLiteENSt3__112basic_stringIcNS6_11char_traitsIcEENS6_9allocatorIcEEEEfLNS1_14WireFormatLite9FieldTypeE9ELSE_2EE13IsInitializedEv = comdat any

$_ZN6google8protobuf8internal12MapEntryImplIN13assist_ranker81TranslateRankerModel_TranslateLogisticRegressionModel_CountryWeightEntry_DoNotUseENS0_11MessageLiteENSt3__112basic_stringIcNS6_11char_traitsIcEENS6_9allocatorIcEEEEfLNS1_14WireFormatLite9FieldTypeE9ELSE_2EE21CheckTypeAndMergeFromERKS5_ = comdat any

$_ZNK6google8protobuf8internal12MapEntryImplIN13assist_ranker81TranslateRankerModel_TranslateLogisticRegressionModel_CountryWeightEntry_DoNotUseENS0_11MessageLiteENSt3__112basic_stringIcNS6_11char_traitsIcEENS6_9allocatorIcEEEEfLNS1_14WireFormatLite9FieldTypeE9ELSE_2EE12ByteSizeLongEv = comdat any

$_ZNK6google8protobuf8internal12MapEntryImplIN13assist_ranker81TranslateRankerModel_TranslateLogisticRegressionModel_CountryWeightEntry_DoNotUseENS0_11MessageLiteENSt3__112basic_stringIcNS6_11char_traitsIcEENS6_9allocatorIcEEEEfLNS1_14WireFormatLite9FieldTypeE9ELSE_2EE13GetCachedSizeEv = comdat any

$_ZN6google8protobuf8internal12MapEntryImplIN13assist_ranker81TranslateRankerModel_TranslateLogisticRegressionModel_CountryWeightEntry_DoNotUseENS0_11MessageLiteENSt3__112basic_stringIcNS6_11char_traitsIcEENS6_9allocatorIcEEEEfLNS1_14WireFormatLite9FieldTypeE9ELSE_2EE14_InternalParseEPKcPNS1_12ParseContextE = comdat any

$_ZNK6google8protobuf8internal12MapEntryImplIN13assist_ranker81TranslateRankerModel_TranslateLogisticRegressionModel_CountryWeightEntry_DoNotUseENS0_11MessageLiteENSt3__112basic_stringIcNS6_11char_traitsIcEENS6_9allocatorIcEEEEfLNS1_14WireFormatLite9FieldTypeE9ELSE_2EE18_InternalSerializeEPhPNS0_2io19EpsCopyOutputStreamE = comdat any

$_ZNK6google8protobuf8internal12MapEntryImplIN13assist_ranker81TranslateRankerModel_TranslateLogisticRegressionModel_CountryWeightEntry_DoNotUseENS0_11MessageLiteENSt3__112basic_stringIcNS6_11char_traitsIcEENS6_9allocatorIcEEEEfLNS1_14WireFormatLite9FieldTypeE9ELSE_2EE3keyEv = comdat any

$_ZNK6google8protobuf8internal12MapEntryImplIN13assist_ranker81TranslateRankerModel_TranslateLogisticRegressionModel_CountryWeightEntry_DoNotUseENS0_11MessageLiteENSt3__112basic_stringIcNS6_11char_traitsIcEENS6_9allocatorIcEEEEfLNS1_14WireFormatLite9FieldTypeE9ELSE_2EE5valueEv = comdat any

$_ZN6google8protobuf8internal12MapEntryLiteIN13assist_ranker80TranslateRankerModel_TranslateLogisticRegressionModel_LocaleWeightEntry_DoNotUseENSt3__112basic_stringIcNS5_11char_traitsIcEENS5_9allocatorIcEEEEfLNS1_14WireFormatLite9FieldTypeE9ELSD_2EED2Ev = comdat any

$_ZN13assist_ranker80TranslateRankerModel_TranslateLogisticRegressionModel_LocaleWeightEntry_DoNotUseD0Ev = comdat any

$_ZNK6google8protobuf8internal12MapEntryImplIN13assist_ranker80TranslateRankerModel_TranslateLogisticRegressionModel_LocaleWeightEntry_DoNotUseENS0_11MessageLiteENSt3__112basic_stringIcNS6_11char_traitsIcEENS6_9allocatorIcEEEEfLNS1_14WireFormatLite9FieldTypeE9ELSE_2EE11GetTypeNameEv = comdat any

$_ZNK6google8protobuf8internal12MapEntryImplIN13assist_ranker80TranslateRankerModel_TranslateLogisticRegressionModel_LocaleWeightEntry_DoNotUseENS0_11MessageLiteENSt3__112basic_stringIcNS6_11char_traitsIcEENS6_9allocatorIcEEEEfLNS1_14WireFormatLite9FieldTypeE9ELSE_2EE3NewEv = comdat any

$_ZNK6google8protobuf8internal12MapEntryImplIN13assist_ranker80TranslateRankerModel_TranslateLogisticRegressionModel_LocaleWeightEntry_DoNotUseENS0_11MessageLiteENSt3__112basic_stringIcNS6_11char_traitsIcEENS6_9allocatorIcEEEEfLNS1_14WireFormatLite9FieldTypeE9ELSE_2EE3NewEPNS0_5ArenaE = comdat any

$_ZN6google8protobuf8internal12MapEntryImplIN13assist_ranker80TranslateRankerModel_TranslateLogisticRegressionModel_LocaleWeightEntry_DoNotUseENS0_11MessageLiteENSt3__112basic_stringIcNS6_11char_traitsIcEENS6_9allocatorIcEEEEfLNS1_14WireFormatLite9FieldTypeE9ELSE_2EE5ClearEv = comdat any

$_ZNK6google8protobuf8internal12MapEntryImplIN13assist_ranker80TranslateRankerModel_TranslateLogisticRegressionModel_LocaleWeightEntry_DoNotUseENS0_11MessageLiteENSt3__112basic_stringIcNS6_11char_traitsIcEENS6_9allocatorIcEEEEfLNS1_14WireFormatLite9FieldTypeE9ELSE_2EE13IsInitializedEv = comdat any

$_ZN6google8protobuf8internal12MapEntryImplIN13assist_ranker80TranslateRankerModel_TranslateLogisticRegressionModel_LocaleWeightEntry_DoNotUseENS0_11MessageLiteENSt3__112basic_stringIcNS6_11char_traitsIcEENS6_9allocatorIcEEEEfLNS1_14WireFormatLite9FieldTypeE9ELSE_2EE21CheckTypeAndMergeFromERKS5_ = comdat any

$_ZNK6google8protobuf8internal12MapEntryImplIN13assist_ranker80TranslateRankerModel_TranslateLogisticRegressionModel_LocaleWeightEntry_DoNotUseENS0_11MessageLiteENSt3__112basic_stringIcNS6_11char_traitsIcEENS6_9allocatorIcEEEEfLNS1_14WireFormatLite9FieldTypeE9ELSE_2EE12ByteSizeLongEv = comdat any

$_ZNK6google8protobuf8internal12MapEntryImplIN13assist_ranker80TranslateRankerModel_TranslateLogisticRegressionModel_LocaleWeightEntry_DoNotUseENS0_11MessageLiteENSt3__112basic_stringIcNS6_11char_traitsIcEENS6_9allocatorIcEEEEfLNS1_14WireFormatLite9FieldTypeE9ELSE_2EE13GetCachedSizeEv = comdat any

$_ZN6google8protobuf8internal12MapEntryImplIN13assist_ranker80TranslateRankerModel_TranslateLogisticRegressionModel_LocaleWeightEntry_DoNotUseENS0_11MessageLiteENSt3__112basic_stringIcNS6_11char_traitsIcEENS6_9allocatorIcEEEEfLNS1_14WireFormatLite9FieldTypeE9ELSE_2EE14_InternalParseEPKcPNS1_12ParseContextE = comdat any

$_ZNK6google8protobuf8internal12MapEntryImplIN13assist_ranker80TranslateRankerModel_TranslateLogisticRegressionModel_LocaleWeightEntry_DoNotUseENS0_11MessageLiteENSt3__112basic_stringIcNS6_11char_traitsIcEENS6_9allocatorIcEEEEfLNS1_14WireFormatLite9FieldTypeE9ELSE_2EE18_InternalSerializeEPhPNS0_2io19EpsCopyOutputStreamE = comdat any

$_ZNK6google8protobuf8internal12MapEntryImplIN13assist_ranker80TranslateRankerModel_TranslateLogisticRegressionModel_LocaleWeightEntry_DoNotUseENS0_11MessageLiteENSt3__112basic_stringIcNS6_11char_traitsIcEENS6_9allocatorIcEEEEfLNS1_14WireFormatLite9FieldTypeE9ELSE_2EE3keyEv = comdat any

$_ZNK6google8protobuf8internal12MapEntryImplIN13assist_ranker80TranslateRankerModel_TranslateLogisticRegressionModel_LocaleWeightEntry_DoNotUseENS0_11MessageLiteENSt3__112basic_stringIcNS6_11char_traitsIcEENS6_9allocatorIcEEEEfLNS1_14WireFormatLite9FieldTypeE9ELSE_2EE5valueEv = comdat any

$_ZN6google8protobuf3MapINSt3__112basic_stringIcNS2_11char_traitsIcEENS2_9allocatorIcEEEEfE8InnerMap5clearEv = comdat any

$_ZNSt3__113__tree_removeIPNS_16__tree_node_baseIPvEEEEvT_S5_ = comdat any

$_ZNSt3__16__treeINS_12__value_typeINS_17reference_wrapperIKNS_12basic_stringIcNS_11char_traitsIcEENS_9allocatorIcEEEEEEPvEENS_19__map_value_compareISA_SC_NS_4lessIS8_EELb1EEEN6google8protobuf8internal12MapAllocatorISC_EEE7destroyEPNS_11__tree_nodeISC_SB_EE = comdat any

$_ZN6google8protobuf8internal16InternalMetadata27mutable_unknown_fields_slowINSt3__112basic_stringIcNS4_11char_traitsIcEENS4_9allocatorIcEEEEEEPT_v = comdat any

$_ZN6google8protobuf8internal21arena_destruct_objectINS1_16InternalMetadata9ContainerINSt3__112basic_stringIcNS5_11char_traitsIcEENS5_9allocatorIcEEEEEEEEvPv = comdat any

$_ZN6google8protobuf8internal12MapEntryLiteIN13assist_ranker88TranslateRankerModel_TranslateLogisticRegressionModel_SourceLanguageWeightEntry_DoNotUseENSt3__112basic_stringIcNS5_11char_traitsIcEENS5_9allocatorIcEEEEfLNS1_14WireFormatLite9FieldTypeE9ELSD_2EED2Ev = comdat any

$_ZN6google8protobuf8internal12MapEntryLiteIN13assist_ranker88TranslateRankerModel_TranslateLogisticRegressionModel_SourceLanguageWeightEntry_DoNotUseENSt3__112basic_stringIcNS5_11char_traitsIcEENS5_9allocatorIcEEEEfLNS1_14WireFormatLite9FieldTypeE9ELSD_2EED0Ev = comdat any

$_ZN6google8protobuf8internal12MapEntryImplIN13assist_ranker88TranslateRankerModel_TranslateLogisticRegressionModel_SourceLanguageWeightEntry_DoNotUseENS0_11MessageLiteENSt3__112basic_stringIcNS6_11char_traitsIcEENS6_9allocatorIcEEEEfLNS1_14WireFormatLite9FieldTypeE9ELSE_2EED2Ev = comdat any

$_ZN6google8protobuf8internal12MapEntryImplIN13assist_ranker88TranslateRankerModel_TranslateLogisticRegressionModel_SourceLanguageWeightEntry_DoNotUseENS0_11MessageLiteENSt3__112basic_stringIcNS6_11char_traitsIcEENS6_9allocatorIcEEEEfLNS1_14WireFormatLite9FieldTypeE9ELSE_2EED0Ev = comdat any

$_ZN6google8protobuf8internal14ArenaStringPtr14CreateInstanceEPNS0_5ArenaEPKNSt3__112basic_stringIcNS5_11char_traitsIcEENS5_9allocatorIcEEEE = comdat any

$_ZN6google8protobuf8internal21arena_destruct_objectINSt3__112basic_stringIcNS3_11char_traitsIcEENS3_9allocatorIcEEEEEEvPv = comdat any

$_ZN6google8protobuf8internal12MapEntryLiteIN13assist_ranker88TranslateRankerModel_TranslateLogisticRegressionModel_TargetLanguageWeightEntry_DoNotUseENSt3__112basic_stringIcNS5_11char_traitsIcEENS5_9allocatorIcEEEEfLNS1_14WireFormatLite9FieldTypeE9ELSD_2EED0Ev = comdat any

$_ZN6google8protobuf8internal12MapEntryImplIN13assist_ranker88TranslateRankerModel_TranslateLogisticRegressionModel_TargetLanguageWeightEntry_DoNotUseENS0_11MessageLiteENSt3__112basic_stringIcNS6_11char_traitsIcEENS6_9allocatorIcEEEEfLNS1_14WireFormatLite9FieldTypeE9ELSE_2EED2Ev = comdat any

$_ZN6google8protobuf8internal12MapEntryImplIN13assist_ranker88TranslateRankerModel_TranslateLogisticRegressionModel_TargetLanguageWeightEntry_DoNotUseENS0_11MessageLiteENSt3__112basic_stringIcNS6_11char_traitsIcEENS6_9allocatorIcEEEEfLNS1_14WireFormatLite9FieldTypeE9ELSE_2EED0Ev = comdat any

$_ZN6google8protobuf8internal12MapEntryLiteIN13assist_ranker81TranslateRankerModel_TranslateLogisticRegressionModel_CountryWeightEntry_DoNotUseENSt3__112basic_stringIcNS5_11char_traitsIcEENS5_9allocatorIcEEEEfLNS1_14WireFormatLite9FieldTypeE9ELSD_2EED0Ev = comdat any

$_ZN6google8protobuf8internal12MapEntryImplIN13assist_ranker81TranslateRankerModel_TranslateLogisticRegressionModel_CountryWeightEntry_DoNotUseENS0_11MessageLiteENSt3__112basic_stringIcNS6_11char_traitsIcEENS6_9allocatorIcEEEEfLNS1_14WireFormatLite9FieldTypeE9ELSE_2EED2Ev = comdat any

$_ZN6google8protobuf8internal12MapEntryImplIN13assist_ranker81TranslateRankerModel_TranslateLogisticRegressionModel_CountryWeightEntry_DoNotUseENS0_11MessageLiteENSt3__112basic_stringIcNS6_11char_traitsIcEENS6_9allocatorIcEEEEfLNS1_14WireFormatLite9FieldTypeE9ELSE_2EED0Ev = comdat any

$_ZN6google8protobuf8internal12MapEntryLiteIN13assist_ranker80TranslateRankerModel_TranslateLogisticRegressionModel_LocaleWeightEntry_DoNotUseENSt3__112basic_stringIcNS5_11char_traitsIcEENS5_9allocatorIcEEEEfLNS1_14WireFormatLite9FieldTypeE9ELSD_2EED0Ev = comdat any

$_ZN6google8protobuf8internal12MapEntryImplIN13assist_ranker80TranslateRankerModel_TranslateLogisticRegressionModel_LocaleWeightEntry_DoNotUseENS0_11MessageLiteENSt3__112basic_stringIcNS6_11char_traitsIcEENS6_9allocatorIcEEEEfLNS1_14WireFormatLite9FieldTypeE9ELSE_2EED2Ev = comdat any

$_ZN6google8protobuf8internal12MapEntryImplIN13assist_ranker80TranslateRankerModel_TranslateLogisticRegressionModel_LocaleWeightEntry_DoNotUseENS0_11MessageLiteENSt3__112basic_stringIcNS6_11char_traitsIcEENS6_9allocatorIcEEEEfLNS1_14WireFormatLite9FieldTypeE9ELSE_2EED0Ev = comdat any

$_ZN6google8protobuf3MapINSt3__112basic_stringIcNS2_11char_traitsIcEENS2_9allocatorIcEEEEfE8InnerMap6insertERKS8_ = comdat any

$_ZN6google8protobuf3MapINSt3__112basic_stringIcNS2_11char_traitsIcEENS2_9allocatorIcEEEEfE8InnerMap12InsertUniqueEmPNSA_4NodeE = comdat any

$_ZNK6google8protobuf3MapINSt3__112basic_stringIcNS2_11char_traitsIcEENS2_9allocatorIcEEEEfE8InnerMap10FindHelperIS8_EENS2_4pairINSA_13iterator_baseIKNS0_7MapPairIS8_fEEEEmEERKT_PNS2_14__map_iteratorINS2_15__tree_iteratorINS2_12__value_typeINS2_17reference_wrapperIKS8_EEPvEEPNS2_11__tree_nodeIST_SS_EElEEEE = comdat any

$_ZNSt3__121__murmur2_or_cityhashImLm64EEclEPKvm = comdat any

$_ZNSt3__121__murmur2_or_cityhashImLm64EE18__hash_len_0_to_16EPKcm = comdat any

$_ZNSt3__16__treeINS_12__value_typeINS_17reference_wrapperIKNS_12basic_stringIcNS_11char_traitsIcEENS_9allocatorIcEEEEEEPvEENS_19__map_value_compareISA_SC_NS_4lessIS8_EELb1EEEN6google8protobuf8internal12MapAllocatorISC_EEE4findISA_EENS_15__tree_iteratorISC_PNS_11__tree_nodeISC_SB_EElEERKT_ = comdat any

$_ZN6google8protobuf3MapINSt3__112basic_stringIcNS2_11char_traitsIcEENS2_9allocatorIcEEEEfE8InnerMap6ResizeEm = comdat any

$_ZN6google8protobuf3MapINSt3__112basic_stringIcNS2_11char_traitsIcEENS2_9allocatorIcEEEEfE8InnerMap12TransferTreeEPKPvm = comdat any

$_ZN6google8protobuf5Arena13OwnDestructorINSt3__112basic_stringIcNS3_11char_traitsIcEENS3_9allocatorIcEEEEEEvPT_ = comdat any

$_ZN6google8protobuf3MapINSt3__112basic_stringIcNS2_11char_traitsIcEENS2_9allocatorIcEEEEfE8InnerMap11TreeConvertEm = comdat any

$_ZN6google8protobuf8internal21arena_destruct_objectINSt3__13mapINS3_17reference_wrapperIKNS3_12basic_stringIcNS3_11char_traitsIcEENS3_9allocatorIcEEEEEEPvNS3_4lessISB_EENS1_12MapAllocatorINS3_4pairIKSD_SE_EEEEEEEEvSE_ = comdat any

$_ZNSt3__16__treeINS_12__value_typeINS_17reference_wrapperIKNS_12basic_stringIcNS_11char_traitsIcEENS_9allocatorIcEEEEEEPvEENS_19__map_value_compareISA_SC_NS_4lessIS8_EELb1EEEN6google8protobuf8internal12MapAllocatorISC_EEE25__emplace_unique_key_argsISA_JNS_4pairIKSA_SB_EEEEENSO_INS_15__tree_iteratorISC_PNS_11__tree_nodeISC_SB_EElEEbEERKT_DpOT0_ = comdat any

$_ZNSt3__16__treeINS_12__value_typeINS_17reference_wrapperIKNS_12basic_stringIcNS_11char_traitsIcEENS_9allocatorIcEEEEEEPvEENS_19__map_value_compareISA_SC_NS_4lessIS8_EELb1EEEN6google8protobuf8internal12MapAllocatorISC_EEE12__find_equalISA_EERPNS_16__tree_node_baseISB_EERPNS_15__tree_end_nodeISQ_EERKT_ = comdat any

$_ZNSt3__127__tree_balance_after_insertIPNS_16__tree_node_baseIPvEEEEvT_S5_ = comdat any

$_ZN6google8protobuf8internal12MapEntryImplIN13assist_ranker88TranslateRankerModel_TranslateLogisticRegressionModel_SourceLanguageWeightEntry_DoNotUseENS0_11MessageLiteENSt3__112basic_stringIcNS6_11char_traitsIcEENS6_9allocatorIcEEEEfLNS1_14WireFormatLite9FieldTypeE9ELSE_2EE6ParserINS1_12MapFieldLiteIS4_SC_fLSE_9ELSE_2EEENS0_3MapISC_fEEE14_InternalParseEPKcPNS1_12ParseContextE = comdat any

$_ZN6google8protobuf8internal12MapEntryImplIN13assist_ranker88TranslateRankerModel_TranslateLogisticRegressionModel_SourceLanguageWeightEntry_DoNotUseENS0_11MessageLiteENSt3__112basic_stringIcNS6_11char_traitsIcEENS6_9allocatorIcEEEEfLNS1_14WireFormatLite9FieldTypeE9ELSE_2EE6ParserINS1_12MapFieldLiteIS4_SC_fLSE_9ELSE_2EEENS0_3MapISC_fEEE23UseKeyAndValueFromEntryEv = comdat any

$_ZN6google8protobuf3MapINSt3__112basic_stringIcNS2_11char_traitsIcEENS2_9allocatorIcEEEEfE8InnerMap5eraseENSA_13iterator_baseINS0_7MapPairIS8_fEEEE = comdat any

$_ZN6google8protobuf3MapINSt3__112basic_stringIcNS2_11char_traitsIcEENS2_9allocatorIcEEEEfE8InnerMap13iterator_baseINS0_7MapPairIS8_fEEEppEv = comdat any

$_ZN6google8protobuf3MapINSt3__112basic_stringIcNS2_11char_traitsIcEENS2_9allocatorIcEEEEfE8InnerMap19EraseFromLinkedListEPNSA_4NodeESC_ = comdat any

$_ZN6google8protobuf8internal12MapEntryImplIN13assist_ranker88TranslateRankerModel_TranslateLogisticRegressionModel_TargetLanguageWeightEntry_DoNotUseENS0_11MessageLiteENSt3__112basic_stringIcNS6_11char_traitsIcEENS6_9allocatorIcEEEEfLNS1_14WireFormatLite9FieldTypeE9ELSE_2EE6ParserINS1_12MapFieldLiteIS4_SC_fLSE_9ELSE_2EEENS0_3MapISC_fEEE14_InternalParseEPKcPNS1_12ParseContextE = comdat any

$_ZN6google8protobuf8internal12MapEntryImplIN13assist_ranker88TranslateRankerModel_TranslateLogisticRegressionModel_TargetLanguageWeightEntry_DoNotUseENS0_11MessageLiteENSt3__112basic_stringIcNS6_11char_traitsIcEENS6_9allocatorIcEEEEfLNS1_14WireFormatLite9FieldTypeE9ELSE_2EE6ParserINS1_12MapFieldLiteIS4_SC_fLSE_9ELSE_2EEENS0_3MapISC_fEEE23UseKeyAndValueFromEntryEv = comdat any

$_ZN6google8protobuf8internal12MapEntryImplIN13assist_ranker81TranslateRankerModel_TranslateLogisticRegressionModel_CountryWeightEntry_DoNotUseENS0_11MessageLiteENSt3__112basic_stringIcNS6_11char_traitsIcEENS6_9allocatorIcEEEEfLNS1_14WireFormatLite9FieldTypeE9ELSE_2EE6ParserINS1_12MapFieldLiteIS4_SC_fLSE_9ELSE_2EEENS0_3MapISC_fEEE14_InternalParseEPKcPNS1_12ParseContextE = comdat any

$_ZN6google8protobuf8internal12MapEntryImplIN13assist_ranker81TranslateRankerModel_TranslateLogisticRegressionModel_CountryWeightEntry_DoNotUseENS0_11MessageLiteENSt3__112basic_stringIcNS6_11char_traitsIcEENS6_9allocatorIcEEEEfLNS1_14WireFormatLite9FieldTypeE9ELSE_2EE6ParserINS1_12MapFieldLiteIS4_SC_fLSE_9ELSE_2EEENS0_3MapISC_fEEE23UseKeyAndValueFromEntryEv = comdat any

$_ZN6google8protobuf8internal12MapEntryImplIN13assist_ranker80TranslateRankerModel_TranslateLogisticRegressionModel_LocaleWeightEntry_DoNotUseENS0_11MessageLiteENSt3__112basic_stringIcNS6_11char_traitsIcEENS6_9allocatorIcEEEEfLNS1_14WireFormatLite9FieldTypeE9ELSE_2EE6ParserINS1_12MapFieldLiteIS4_SC_fLSE_9ELSE_2EEENS0_3MapISC_fEEE14_InternalParseEPKcPNS1_12ParseContextE = comdat any

$_ZN6google8protobuf8internal12MapEntryImplIN13assist_ranker80TranslateRankerModel_TranslateLogisticRegressionModel_LocaleWeightEntry_DoNotUseENS0_11MessageLiteENSt3__112basic_stringIcNS6_11char_traitsIcEENS6_9allocatorIcEEEEfLNS1_14WireFormatLite9FieldTypeE9ELSE_2EE6ParserINS1_12MapFieldLiteIS4_SC_fLSE_9ELSE_2EEENS0_3MapISC_fEEE23UseKeyAndValueFromEntryEv = comdat any

$_ZN6google8protobuf3MapINSt3__112basic_stringIcNS2_11char_traitsIcEENS2_9allocatorIcEEEEfE8InnerMap13iterator_baseIKNS0_7MapPairIS8_fEEEppEv = comdat any

$_ZNSt3__16__sortIRN6google8protobuf8internal19CompareByDerefFirstIPKNS2_7MapPairINS_12basic_stringIcNS_11char_traitsIcEENS_9allocatorIcEEEEfEEEEPSE_EEvT0_SI_T_ = comdat any

$_ZNSt3__17__sort3IRN6google8protobuf8internal19CompareByDerefFirstIPKNS2_7MapPairINS_12basic_stringIcNS_11char_traitsIcEENS_9allocatorIcEEEEfEEEEPSE_EEjT0_SI_SI_T_ = comdat any

$_ZNSt3__17__sort4IRN6google8protobuf8internal19CompareByDerefFirstIPKNS2_7MapPairINS_12basic_stringIcNS_11char_traitsIcEENS_9allocatorIcEEEEfEEEEPSE_EEjT0_SI_SI_SI_T_ = comdat any

$_ZNSt3__17__sort5IRN6google8protobuf8internal19CompareByDerefFirstIPKNS2_7MapPairINS_12basic_stringIcNS_11char_traitsIcEENS_9allocatorIcEEEEfEEEEPSE_EEjT0_SI_SI_SI_SI_T_ = comdat any

$_ZNSt3__118__insertion_sort_3IRN6google8protobuf8internal19CompareByDerefFirstIPKNS2_7MapPairINS_12basic_stringIcNS_11char_traitsIcEENS_9allocatorIcEEEEfEEEEPSE_EEvT0_SI_T_ = comdat any

$_ZNSt3__127__insertion_sort_incompleteIRN6google8protobuf8internal19CompareByDerefFirstIPKNS2_7MapPairINS_12basic_stringIcNS_11char_traitsIcEENS_9allocatorIcEEEEfEEEEPSE_EEbT0_SI_T_ = comdat any

$_ZN6google8protobuf3MapINSt3__112basic_stringIcNS2_11char_traitsIcEENS2_9allocatorIcEEEEfE4swapERS9_ = comdat any

$_ZN6google8protobuf3MapINSt3__112basic_stringIcNS2_11char_traitsIcEENS2_9allocatorIcEEEEfEC2ERKS9_ = comdat any

$_ZN6google8protobuf3MapINSt3__112basic_stringIcNS2_11char_traitsIcEENS2_9allocatorIcEEEEfEaSERKS9_ = comdat any

$_ZTVN13assist_ranker88TranslateRankerModel_TranslateLogisticRegressionModel_SourceLanguageWeightEntry_DoNotUseE = comdat any

$_ZTVN13assist_ranker88TranslateRankerModel_TranslateLogisticRegressionModel_TargetLanguageWeightEntry_DoNotUseE = comdat any

$_ZTVN13assist_ranker81TranslateRankerModel_TranslateLogisticRegressionModel_CountryWeightEntry_DoNotUseE = comdat any

$_ZTVN13assist_ranker80TranslateRankerModel_TranslateLogisticRegressionModel_LocaleWeightEntry_DoNotUseE = comdat any

$_ZTVN6google8protobuf8internal12MapEntryLiteIN13assist_ranker88TranslateRankerModel_TranslateLogisticRegressionModel_SourceLanguageWeightEntry_DoNotUseENSt3__112basic_stringIcNS5_11char_traitsIcEENS5_9allocatorIcEEEEfLNS1_14WireFormatLite9FieldTypeE9ELSD_2EEE = comdat any

$_ZTVN6google8protobuf8internal12MapEntryImplIN13assist_ranker88TranslateRankerModel_TranslateLogisticRegressionModel_SourceLanguageWeightEntry_DoNotUseENS0_11MessageLiteENSt3__112basic_stringIcNS6_11char_traitsIcEENS6_9allocatorIcEEEEfLNS1_14WireFormatLite9FieldTypeE9ELSE_2EEE = comdat any

$_ZTVN6google8protobuf8internal12MapEntryLiteIN13assist_ranker88TranslateRankerModel_TranslateLogisticRegressionModel_TargetLanguageWeightEntry_DoNotUseENSt3__112basic_stringIcNS5_11char_traitsIcEENS5_9allocatorIcEEEEfLNS1_14WireFormatLite9FieldTypeE9ELSD_2EEE = comdat any

$_ZTVN6google8protobuf8internal12MapEntryImplIN13assist_ranker88TranslateRankerModel_TranslateLogisticRegressionModel_TargetLanguageWeightEntry_DoNotUseENS0_11MessageLiteENSt3__112basic_stringIcNS6_11char_traitsIcEENS6_9allocatorIcEEEEfLNS1_14WireFormatLite9FieldTypeE9ELSE_2EEE = comdat any

$_ZTVN6google8protobuf8internal12MapEntryLiteIN13assist_ranker81TranslateRankerModel_TranslateLogisticRegressionModel_CountryWeightEntry_DoNotUseENSt3__112basic_stringIcNS5_11char_traitsIcEENS5_9allocatorIcEEEEfLNS1_14WireFormatLite9FieldTypeE9ELSD_2EEE = comdat any

$_ZTVN6google8protobuf8internal12MapEntryImplIN13assist_ranker81TranslateRankerModel_TranslateLogisticRegressionModel_CountryWeightEntry_DoNotUseENS0_11MessageLiteENSt3__112basic_stringIcNS6_11char_traitsIcEENS6_9allocatorIcEEEEfLNS1_14WireFormatLite9FieldTypeE9ELSE_2EEE = comdat any

$_ZTVN6google8protobuf8internal12MapEntryLiteIN13assist_ranker80TranslateRankerModel_TranslateLogisticRegressionModel_LocaleWeightEntry_DoNotUseENSt3__112basic_stringIcNS5_11char_traitsIcEENS5_9allocatorIcEEEEfLNS1_14WireFormatLite9FieldTypeE9ELSD_2EEE = comdat any

$_ZTVN6google8protobuf8internal12MapEntryImplIN13assist_ranker80TranslateRankerModel_TranslateLogisticRegressionModel_LocaleWeightEntry_DoNotUseENS0_11MessageLiteENSt3__112basic_stringIcNS6_11char_traitsIcEENS6_9allocatorIcEEEEfLNS1_14WireFormatLite9FieldTypeE9ELSE_2EEE = comdat any

@_ZN13assist_ranker107_TranslateRankerModel_TranslateLogisticRegressionModel_SourceLanguageWeightEntry_DoNotUse_default_instance_E = hidden local_unnamed_addr global %"class.assist_ranker::TranslateRankerModel_TranslateLogisticRegressionModel_SourceLanguageWeightEntry_DoNotUseDefaultTypeInternal" zeroinitializer, align 8
@_ZN13assist_ranker107_TranslateRankerModel_TranslateLogisticRegressionModel_TargetLanguageWeightEntry_DoNotUse_default_instance_E = hidden local_unnamed_addr global %"class.assist_ranker::TranslateRankerModel_TranslateLogisticRegressionModel_TargetLanguageWeightEntry_DoNotUseDefaultTypeInternal" zeroinitializer, align 8
@_ZN13assist_ranker100_TranslateRankerModel_TranslateLogisticRegressionModel_CountryWeightEntry_DoNotUse_default_instance_E = hidden local_unnamed_addr global %"class.assist_ranker::TranslateRankerModel_TranslateLogisticRegressionModel_CountryWeightEntry_DoNotUseDefaultTypeInternal" zeroinitializer, align 8
@_ZN13assist_ranker99_TranslateRankerModel_TranslateLogisticRegressionModel_LocaleWeightEntry_DoNotUse_default_instance_E = hidden local_unnamed_addr global %"class.assist_ranker::TranslateRankerModel_TranslateLogisticRegressionModel_LocaleWeightEntry_DoNotUseDefaultTypeInternal" zeroinitializer, align 8
@_ZN13assist_ranker72_TranslateRankerModel_TranslateLogisticRegressionModel_default_instance_E = hidden global %"class.assist_ranker::TranslateRankerModel_TranslateLogisticRegressionModelDefaultTypeInternal" zeroinitializer, align 8
@_ZN13assist_ranker39_TranslateRankerModel_default_instance_E = hidden global %"class.assist_ranker::TranslateRankerModelDefaultTypeInternal" zeroinitializer, align 8
@scc_info_TranslateRankerModel_translate_5franker_5fmodel_2eproto = hidden global { { { { i32 } }, i32, i32, void ()* }, [1 x i8*] } { { { { i32 } }, i32, i32, void ()* } { { { i32 } } { { i32 } { i32 -1 } }, i32 1, i32 0, void ()* @_ZL76InitDefaultsscc_info_TranslateRankerModel_translate_5franker_5fmodel_2eprotov }, [1 x i8*] [i8* bitcast ({ { { { i32 } }, i32, i32, void ()* }, [4 x i8*] }* @scc_info_TranslateRankerModel_TranslateLogisticRegressionModel_translate_5franker_5fmodel_2eproto to i8*)] }, align 8
@scc_info_TranslateRankerModel_TranslateLogisticRegressionModel_translate_5franker_5fmodel_2eproto = hidden global { { { { i32 } }, i32, i32, void ()* }, [4 x i8*] } { { { { i32 } }, i32, i32, void ()* } { { { i32 } } { { i32 } { i32 -1 } }, i32 4, i32 0, void ()* @_ZL109InitDefaultsscc_info_TranslateRankerModel_TranslateLogisticRegressionModel_translate_5franker_5fmodel_2eprotov }, [4 x i8*] [i8* bitcast ({ { { { i32 } }, i32, i32, void ()* }, [0 x i8*] }* @scc_info_TranslateRankerModel_TranslateLogisticRegressionModel_SourceLanguageWeightEntry_DoNotUse_translate_5franker_5fmodel_2eproto to i8*), i8* bitcast ({ { { { i32 } }, i32, i32, void ()* }, [0 x i8*] }* @scc_info_TranslateRankerModel_TranslateLogisticRegressionModel_TargetLanguageWeightEntry_DoNotUse_translate_5franker_5fmodel_2eproto to i8*), i8* bitcast ({ { { { i32 } }, i32, i32, void ()* }, [0 x i8*] }* @scc_info_TranslateRankerModel_TranslateLogisticRegressionModel_CountryWeightEntry_DoNotUse_translate_5franker_5fmodel_2eproto to i8*), i8* bitcast ({ { { { i32 } }, i32, i32, void ()* }, [0 x i8*] }* @scc_info_TranslateRankerModel_TranslateLogisticRegressionModel_LocaleWeightEntry_DoNotUse_translate_5franker_5fmodel_2eproto to i8*)] }, align 8
@scc_info_TranslateRankerModel_TranslateLogisticRegressionModel_CountryWeightEntry_DoNotUse_translate_5franker_5fmodel_2eproto = hidden global { { { { i32 } }, i32, i32, void ()* }, [0 x i8*] } { { { { i32 } }, i32, i32, void ()* } { { { i32 } } { { i32 } { i32 -1 } }, i32 0, i32 0, void ()* @_ZL137InitDefaultsscc_info_TranslateRankerModel_TranslateLogisticRegressionModel_CountryWeightEntry_DoNotUse_translate_5franker_5fmodel_2eprotov }, [0 x i8*] zeroinitializer }, align 8
@scc_info_TranslateRankerModel_TranslateLogisticRegressionModel_LocaleWeightEntry_DoNotUse_translate_5franker_5fmodel_2eproto = hidden global { { { { i32 } }, i32, i32, void ()* }, [0 x i8*] } { { { { i32 } }, i32, i32, void ()* } { { { i32 } } { { i32 } { i32 -1 } }, i32 0, i32 0, void ()* @_ZL136InitDefaultsscc_info_TranslateRankerModel_TranslateLogisticRegressionModel_LocaleWeightEntry_DoNotUse_translate_5franker_5fmodel_2eprotov }, [0 x i8*] zeroinitializer }, align 8
@scc_info_TranslateRankerModel_TranslateLogisticRegressionModel_SourceLanguageWeightEntry_DoNotUse_translate_5franker_5fmodel_2eproto = hidden global { { { { i32 } }, i32, i32, void ()* }, [0 x i8*] } { { { { i32 } }, i32, i32, void ()* } { { { i32 } } { { i32 } { i32 -1 } }, i32 0, i32 0, void ()* @_ZL144InitDefaultsscc_info_TranslateRankerModel_TranslateLogisticRegressionModel_SourceLanguageWeightEntry_DoNotUse_translate_5franker_5fmodel_2eprotov }, [0 x i8*] zeroinitializer }, align 8
@scc_info_TranslateRankerModel_TranslateLogisticRegressionModel_TargetLanguageWeightEntry_DoNotUse_translate_5franker_5fmodel_2eproto = hidden global { { { { i32 } }, i32, i32, void ()* }, [0 x i8*] } { { { { i32 } }, i32, i32, void ()* } { { { i32 } } { { i32 } { i32 -1 } }, i32 0, i32 0, void ()* @_ZL144InitDefaultsscc_info_TranslateRankerModel_TranslateLogisticRegressionModel_TargetLanguageWeightEntry_DoNotUse_translate_5franker_5fmodel_2eprotov }, [0 x i8*] zeroinitializer }, align 8
@_ZTVN13assist_ranker88TranslateRankerModel_TranslateLogisticRegressionModel_SourceLanguageWeightEntry_DoNotUseE = linkonce_odr hidden unnamed_addr constant { [18 x i8*] } { [18 x i8*] [i8* null, i8* null, i8* bitcast (void (%"class.google::protobuf::internal::MapEntryLite"*)* @_ZN6google8protobuf8internal12MapEntryLiteIN13assist_ranker88TranslateRankerModel_TranslateLogisticRegressionModel_SourceLanguageWeightEntry_DoNotUseENSt3__112basic_stringIcNS5_11char_traitsIcEENS5_9allocatorIcEEEEfLNS1_14WireFormatLite9FieldTypeE9ELSD_2EED2Ev to i8*), i8* bitcast (void (%"class.assist_ranker::TranslateRankerModel_TranslateLogisticRegressionModel_SourceLanguageWeightEntry_DoNotUse"*)* @_ZN13assist_ranker88TranslateRankerModel_TranslateLogisticRegressionModel_SourceLanguageWeightEntry_DoNotUseD0Ev to i8*), i8* bitcast (void (%"class.std::__1::basic_string"*, %"class.google::protobuf::internal::MapEntryImpl"*)* @_ZNK6google8protobuf8internal12MapEntryImplIN13assist_ranker88TranslateRankerModel_TranslateLogisticRegressionModel_SourceLanguageWeightEntry_DoNotUseENS0_11MessageLiteENSt3__112basic_stringIcNS6_11char_traitsIcEENS6_9allocatorIcEEEEfLNS1_14WireFormatLite9FieldTypeE9ELSE_2EE11GetTypeNameEv to i8*), i8* bitcast (%"class.google::protobuf::MessageLite"* (%"class.google::protobuf::internal::MapEntryImpl"*)* @_ZNK6google8protobuf8internal12MapEntryImplIN13assist_ranker88TranslateRankerModel_TranslateLogisticRegressionModel_SourceLanguageWeightEntry_DoNotUseENS0_11MessageLiteENSt3__112basic_stringIcNS6_11char_traitsIcEENS6_9allocatorIcEEEEfLNS1_14WireFormatLite9FieldTypeE9ELSE_2EE3NewEv to i8*), i8* bitcast (%"class.google::protobuf::MessageLite"* (%"class.google::protobuf::internal::MapEntryImpl"*, %"class.google::protobuf::Arena"*)* @_ZNK6google8protobuf8internal12MapEntryImplIN13assist_ranker88TranslateRankerModel_TranslateLogisticRegressionModel_SourceLanguageWeightEntry_DoNotUseENS0_11MessageLiteENSt3__112basic_stringIcNS6_11char_traitsIcEENS6_9allocatorIcEEEEfLNS1_14WireFormatLite9FieldTypeE9ELSE_2EE3NewEPNS0_5ArenaE to i8*), i8* bitcast (void (%"class.google::protobuf::internal::MapEntryImpl"*)* @_ZN6google8protobuf8internal12MapEntryImplIN13assist_ranker88TranslateRankerModel_TranslateLogisticRegressionModel_SourceLanguageWeightEntry_DoNotUseENS0_11MessageLiteENSt3__112basic_stringIcNS6_11char_traitsIcEENS6_9allocatorIcEEEEfLNS1_14WireFormatLite9FieldTypeE9ELSE_2EE5ClearEv to i8*), i8* bitcast (i1 (%"class.google::protobuf::internal::MapEntryImpl"*)* @_ZNK6google8protobuf8internal12MapEntryImplIN13assist_ranker88TranslateRankerModel_TranslateLogisticRegressionModel_SourceLanguageWeightEntry_DoNotUseENS0_11MessageLiteENSt3__112basic_stringIcNS6_11char_traitsIcEENS6_9allocatorIcEEEEfLNS1_14WireFormatLite9FieldTypeE9ELSE_2EE13IsInitializedEv to i8*), i8* bitcast (void (%"class.std::__1::basic_string"*, %"class.google::protobuf::MessageLite"*)* @_ZNK6google8protobuf11MessageLite25InitializationErrorStringEv to i8*), i8* bitcast (void (%"class.google::protobuf::internal::MapEntryImpl"*, %"class.google::protobuf::MessageLite"*)* @_ZN6google8protobuf8internal12MapEntryImplIN13assist_ranker88TranslateRankerModel_TranslateLogisticRegressionModel_SourceLanguageWeightEntry_DoNotUseENS0_11MessageLiteENSt3__112basic_stringIcNS6_11char_traitsIcEENS6_9allocatorIcEEEEfLNS1_14WireFormatLite9FieldTypeE9ELSE_2EE21CheckTypeAndMergeFromERKS5_ to i8*), i8* bitcast (i64 (%"class.google::protobuf::internal::MapEntryImpl"*)* @_ZNK6google8protobuf8internal12MapEntryImplIN13assist_ranker88TranslateRankerModel_TranslateLogisticRegressionModel_SourceLanguageWeightEntry_DoNotUseENS0_11MessageLiteENSt3__112basic_stringIcNS6_11char_traitsIcEENS6_9allocatorIcEEEEfLNS1_14WireFormatLite9FieldTypeE9ELSE_2EE12ByteSizeLongEv to i8*), i8* bitcast (i32 (%"class.google::protobuf::internal::MapEntryImpl"*)* @_ZNK6google8protobuf8internal12MapEntryImplIN13assist_ranker88TranslateRankerModel_TranslateLogisticRegressionModel_SourceLanguageWeightEntry_DoNotUseENS0_11MessageLiteENSt3__112basic_stringIcNS6_11char_traitsIcEENS6_9allocatorIcEEEEfLNS1_14WireFormatLite9FieldTypeE9ELSE_2EE13GetCachedSizeEv to i8*), i8* bitcast (i8* (%"class.google::protobuf::internal::MapEntryImpl"*, i8*, %"class.google::protobuf::internal::ParseContext"*)* @_ZN6google8protobuf8internal12MapEntryImplIN13assist_ranker88TranslateRankerModel_TranslateLogisticRegressionModel_SourceLanguageWeightEntry_DoNotUseENS0_11MessageLiteENSt3__112basic_stringIcNS6_11char_traitsIcEENS6_9allocatorIcEEEEfLNS1_14WireFormatLite9FieldTypeE9ELSE_2EE14_InternalParseEPKcPNS1_12ParseContextE to i8*), i8* bitcast (i8* (%"class.google::protobuf::internal::MapEntryImpl"*, i8*, %"class.google::protobuf::io::EpsCopyOutputStream"*)* @_ZNK6google8protobuf8internal12MapEntryImplIN13assist_ranker88TranslateRankerModel_TranslateLogisticRegressionModel_SourceLanguageWeightEntry_DoNotUseENS0_11MessageLiteENSt3__112basic_stringIcNS6_11char_traitsIcEENS6_9allocatorIcEEEEfLNS1_14WireFormatLite9FieldTypeE9ELSE_2EE18_InternalSerializeEPhPNS0_2io19EpsCopyOutputStreamE to i8*), i8* bitcast (i8* (%"class.google::protobuf::MessageLite"*)* @_ZNK6google8protobuf11MessageLite16InternalGetTableEv to i8*), i8* bitcast (%"class.std::__1::basic_string"* (%"class.google::protobuf::internal::MapEntryImpl"*)* @_ZNK6google8protobuf8internal12MapEntryImplIN13assist_ranker88TranslateRankerModel_TranslateLogisticRegressionModel_SourceLanguageWeightEntry_DoNotUseENS0_11MessageLiteENSt3__112basic_stringIcNS6_11char_traitsIcEENS6_9allocatorIcEEEEfLNS1_14WireFormatLite9FieldTypeE9ELSE_2EE3keyEv to i8*), i8* bitcast (float* (%"class.google::protobuf::internal::MapEntryImpl"*)* @_ZNK6google8protobuf8internal12MapEntryImplIN13assist_ranker88TranslateRankerModel_TranslateLogisticRegressionModel_SourceLanguageWeightEntry_DoNotUseENS0_11MessageLiteENSt3__112basic_stringIcNS6_11char_traitsIcEENS6_9allocatorIcEEEEfLNS1_14WireFormatLite9FieldTypeE9ELSE_2EE5valueEv to i8*)] }, comdat, align 8
@_ZTVN13assist_ranker88TranslateRankerModel_TranslateLogisticRegressionModel_TargetLanguageWeightEntry_DoNotUseE = linkonce_odr hidden unnamed_addr constant { [18 x i8*] } { [18 x i8*] [i8* null, i8* null, i8* bitcast (void (%"class.google::protobuf::internal::MapEntryLite.18"*)* @_ZN6google8protobuf8internal12MapEntryLiteIN13assist_ranker88TranslateRankerModel_TranslateLogisticRegressionModel_TargetLanguageWeightEntry_DoNotUseENSt3__112basic_stringIcNS5_11char_traitsIcEENS5_9allocatorIcEEEEfLNS1_14WireFormatLite9FieldTypeE9ELSD_2EED2Ev to i8*), i8* bitcast (void (%"class.assist_ranker::TranslateRankerModel_TranslateLogisticRegressionModel_TargetLanguageWeightEntry_DoNotUse"*)* @_ZN13assist_ranker88TranslateRankerModel_TranslateLogisticRegressionModel_TargetLanguageWeightEntry_DoNotUseD0Ev to i8*), i8* bitcast (void (%"class.std::__1::basic_string"*, %"class.google::protobuf::internal::MapEntryImpl.19"*)* @_ZNK6google8protobuf8internal12MapEntryImplIN13assist_ranker88TranslateRankerModel_TranslateLogisticRegressionModel_TargetLanguageWeightEntry_DoNotUseENS0_11MessageLiteENSt3__112basic_stringIcNS6_11char_traitsIcEENS6_9allocatorIcEEEEfLNS1_14WireFormatLite9FieldTypeE9ELSE_2EE11GetTypeNameEv to i8*), i8* bitcast (%"class.google::protobuf::MessageLite"* (%"class.google::protobuf::internal::MapEntryImpl.19"*)* @_ZNK6google8protobuf8internal12MapEntryImplIN13assist_ranker88TranslateRankerModel_TranslateLogisticRegressionModel_TargetLanguageWeightEntry_DoNotUseENS0_11MessageLiteENSt3__112basic_stringIcNS6_11char_traitsIcEENS6_9allocatorIcEEEEfLNS1_14WireFormatLite9FieldTypeE9ELSE_2EE3NewEv to i8*), i8* bitcast (%"class.google::protobuf::MessageLite"* (%"class.google::protobuf::internal::MapEntryImpl.19"*, %"class.google::protobuf::Arena"*)* @_ZNK6google8protobuf8internal12MapEntryImplIN13assist_ranker88TranslateRankerModel_TranslateLogisticRegressionModel_TargetLanguageWeightEntry_DoNotUseENS0_11MessageLiteENSt3__112basic_stringIcNS6_11char_traitsIcEENS6_9allocatorIcEEEEfLNS1_14WireFormatLite9FieldTypeE9ELSE_2EE3NewEPNS0_5ArenaE to i8*), i8* bitcast (void (%"class.google::protobuf::internal::MapEntryImpl.19"*)* @_ZN6google8protobuf8internal12MapEntryImplIN13assist_ranker88TranslateRankerModel_TranslateLogisticRegressionModel_TargetLanguageWeightEntry_DoNotUseENS0_11MessageLiteENSt3__112basic_stringIcNS6_11char_traitsIcEENS6_9allocatorIcEEEEfLNS1_14WireFormatLite9FieldTypeE9ELSE_2EE5ClearEv to i8*), i8* bitcast (i1 (%"class.google::protobuf::internal::MapEntryImpl.19"*)* @_ZNK6google8protobuf8internal12MapEntryImplIN13assist_ranker88TranslateRankerModel_TranslateLogisticRegressionModel_TargetLanguageWeightEntry_DoNotUseENS0_11MessageLiteENSt3__112basic_stringIcNS6_11char_traitsIcEENS6_9allocatorIcEEEEfLNS1_14WireFormatLite9FieldTypeE9ELSE_2EE13IsInitializedEv to i8*), i8* bitcast (void (%"class.std::__1::basic_string"*, %"class.google::protobuf::MessageLite"*)* @_ZNK6google8protobuf11MessageLite25InitializationErrorStringEv to i8*), i8* bitcast (void (%"class.google::protobuf::internal::MapEntryImpl.19"*, %"class.google::protobuf::MessageLite"*)* @_ZN6google8protobuf8internal12MapEntryImplIN13assist_ranker88TranslateRankerModel_TranslateLogisticRegressionModel_TargetLanguageWeightEntry_DoNotUseENS0_11MessageLiteENSt3__112basic_stringIcNS6_11char_traitsIcEENS6_9allocatorIcEEEEfLNS1_14WireFormatLite9FieldTypeE9ELSE_2EE21CheckTypeAndMergeFromERKS5_ to i8*), i8* bitcast (i64 (%"class.google::protobuf::internal::MapEntryImpl.19"*)* @_ZNK6google8protobuf8internal12MapEntryImplIN13assist_ranker88TranslateRankerModel_TranslateLogisticRegressionModel_TargetLanguageWeightEntry_DoNotUseENS0_11MessageLiteENSt3__112basic_stringIcNS6_11char_traitsIcEENS6_9allocatorIcEEEEfLNS1_14WireFormatLite9FieldTypeE9ELSE_2EE12ByteSizeLongEv to i8*), i8* bitcast (i32 (%"class.google::protobuf::internal::MapEntryImpl.19"*)* @_ZNK6google8protobuf8internal12MapEntryImplIN13assist_ranker88TranslateRankerModel_TranslateLogisticRegressionModel_TargetLanguageWeightEntry_DoNotUseENS0_11MessageLiteENSt3__112basic_stringIcNS6_11char_traitsIcEENS6_9allocatorIcEEEEfLNS1_14WireFormatLite9FieldTypeE9ELSE_2EE13GetCachedSizeEv to i8*), i8* bitcast (i8* (%"class.google::protobuf::internal::MapEntryImpl.19"*, i8*, %"class.google::protobuf::internal::ParseContext"*)* @_ZN6google8protobuf8internal12MapEntryImplIN13assist_ranker88TranslateRankerModel_TranslateLogisticRegressionModel_TargetLanguageWeightEntry_DoNotUseENS0_11MessageLiteENSt3__112basic_stringIcNS6_11char_traitsIcEENS6_9allocatorIcEEEEfLNS1_14WireFormatLite9FieldTypeE9ELSE_2EE14_InternalParseEPKcPNS1_12ParseContextE to i8*), i8* bitcast (i8* (%"class.google::protobuf::internal::MapEntryImpl.19"*, i8*, %"class.google::protobuf::io::EpsCopyOutputStream"*)* @_ZNK6google8protobuf8internal12MapEntryImplIN13assist_ranker88TranslateRankerModel_TranslateLogisticRegressionModel_TargetLanguageWeightEntry_DoNotUseENS0_11MessageLiteENSt3__112basic_stringIcNS6_11char_traitsIcEENS6_9allocatorIcEEEEfLNS1_14WireFormatLite9FieldTypeE9ELSE_2EE18_InternalSerializeEPhPNS0_2io19EpsCopyOutputStreamE to i8*), i8* bitcast (i8* (%"class.google::protobuf::MessageLite"*)* @_ZNK6google8protobuf11MessageLite16InternalGetTableEv to i8*), i8* bitcast (%"class.std::__1::basic_string"* (%"class.google::protobuf::internal::MapEntryImpl.19"*)* @_ZNK6google8protobuf8internal12MapEntryImplIN13assist_ranker88TranslateRankerModel_TranslateLogisticRegressionModel_TargetLanguageWeightEntry_DoNotUseENS0_11MessageLiteENSt3__112basic_stringIcNS6_11char_traitsIcEENS6_9allocatorIcEEEEfLNS1_14WireFormatLite9FieldTypeE9ELSE_2EE3keyEv to i8*), i8* bitcast (float* (%"class.google::protobuf::internal::MapEntryImpl.19"*)* @_ZNK6google8protobuf8internal12MapEntryImplIN13assist_ranker88TranslateRankerModel_TranslateLogisticRegressionModel_TargetLanguageWeightEntry_DoNotUseENS0_11MessageLiteENSt3__112basic_stringIcNS6_11char_traitsIcEENS6_9allocatorIcEEEEfLNS1_14WireFormatLite9FieldTypeE9ELSE_2EE5valueEv to i8*)] }, comdat, align 8
@_ZTVN13assist_ranker81TranslateRankerModel_TranslateLogisticRegressionModel_CountryWeightEntry_DoNotUseE = linkonce_odr hidden unnamed_addr constant { [18 x i8*] } { [18 x i8*] [i8* null, i8* null, i8* bitcast (void (%"class.google::protobuf::internal::MapEntryLite.20"*)* @_ZN6google8protobuf8internal12MapEntryLiteIN13assist_ranker81TranslateRankerModel_TranslateLogisticRegressionModel_CountryWeightEntry_DoNotUseENSt3__112basic_stringIcNS5_11char_traitsIcEENS5_9allocatorIcEEEEfLNS1_14WireFormatLite9FieldTypeE9ELSD_2EED2Ev to i8*), i8* bitcast (void (%"class.assist_ranker::TranslateRankerModel_TranslateLogisticRegressionModel_CountryWeightEntry_DoNotUse"*)* @_ZN13assist_ranker81TranslateRankerModel_TranslateLogisticRegressionModel_CountryWeightEntry_DoNotUseD0Ev to i8*), i8* bitcast (void (%"class.std::__1::basic_string"*, %"class.google::protobuf::internal::MapEntryImpl.21"*)* @_ZNK6google8protobuf8internal12MapEntryImplIN13assist_ranker81TranslateRankerModel_TranslateLogisticRegressionModel_CountryWeightEntry_DoNotUseENS0_11MessageLiteENSt3__112basic_stringIcNS6_11char_traitsIcEENS6_9allocatorIcEEEEfLNS1_14WireFormatLite9FieldTypeE9ELSE_2EE11GetTypeNameEv to i8*), i8* bitcast (%"class.google::protobuf::MessageLite"* (%"class.google::protobuf::internal::MapEntryImpl.21"*)* @_ZNK6google8protobuf8internal12MapEntryImplIN13assist_ranker81TranslateRankerModel_TranslateLogisticRegressionModel_CountryWeightEntry_DoNotUseENS0_11MessageLiteENSt3__112basic_stringIcNS6_11char_traitsIcEENS6_9allocatorIcEEEEfLNS1_14WireFormatLite9FieldTypeE9ELSE_2EE3NewEv to i8*), i8* bitcast (%"class.google::protobuf::MessageLite"* (%"class.google::protobuf::internal::MapEntryImpl.21"*, %"class.google::protobuf::Arena"*)* @_ZNK6google8protobuf8internal12MapEntryImplIN13assist_ranker81TranslateRankerModel_TranslateLogisticRegressionModel_CountryWeightEntry_DoNotUseENS0_11MessageLiteENSt3__112basic_stringIcNS6_11char_traitsIcEENS6_9allocatorIcEEEEfLNS1_14WireFormatLite9FieldTypeE9ELSE_2EE3NewEPNS0_5ArenaE to i8*), i8* bitcast (void (%"class.google::protobuf::internal::MapEntryImpl.21"*)* @_ZN6google8protobuf8internal12MapEntryImplIN13assist_ranker81TranslateRankerModel_TranslateLogisticRegressionModel_CountryWeightEntry_DoNotUseENS0_11MessageLiteENSt3__112basic_stringIcNS6_11char_traitsIcEENS6_9allocatorIcEEEEfLNS1_14WireFormatLite9FieldTypeE9ELSE_2EE5ClearEv to i8*), i8* bitcast (i1 (%"class.google::protobuf::internal::MapEntryImpl.21"*)* @_ZNK6google8protobuf8internal12MapEntryImplIN13assist_ranker81TranslateRankerModel_TranslateLogisticRegressionModel_CountryWeightEntry_DoNotUseENS0_11MessageLiteENSt3__112basic_stringIcNS6_11char_traitsIcEENS6_9allocatorIcEEEEfLNS1_14WireFormatLite9FieldTypeE9ELSE_2EE13IsInitializedEv to i8*), i8* bitcast (void (%"class.std::__1::basic_string"*, %"class.google::protobuf::MessageLite"*)* @_ZNK6google8protobuf11MessageLite25InitializationErrorStringEv to i8*), i8* bitcast (void (%"class.google::protobuf::internal::MapEntryImpl.21"*, %"class.google::protobuf::MessageLite"*)* @_ZN6google8protobuf8internal12MapEntryImplIN13assist_ranker81TranslateRankerModel_TranslateLogisticRegressionModel_CountryWeightEntry_DoNotUseENS0_11MessageLiteENSt3__112basic_stringIcNS6_11char_traitsIcEENS6_9allocatorIcEEEEfLNS1_14WireFormatLite9FieldTypeE9ELSE_2EE21CheckTypeAndMergeFromERKS5_ to i8*), i8* bitcast (i64 (%"class.google::protobuf::internal::MapEntryImpl.21"*)* @_ZNK6google8protobuf8internal12MapEntryImplIN13assist_ranker81TranslateRankerModel_TranslateLogisticRegressionModel_CountryWeightEntry_DoNotUseENS0_11MessageLiteENSt3__112basic_stringIcNS6_11char_traitsIcEENS6_9allocatorIcEEEEfLNS1_14WireFormatLite9FieldTypeE9ELSE_2EE12ByteSizeLongEv to i8*), i8* bitcast (i32 (%"class.google::protobuf::internal::MapEntryImpl.21"*)* @_ZNK6google8protobuf8internal12MapEntryImplIN13assist_ranker81TranslateRankerModel_TranslateLogisticRegressionModel_CountryWeightEntry_DoNotUseENS0_11MessageLiteENSt3__112basic_stringIcNS6_11char_traitsIcEENS6_9allocatorIcEEEEfLNS1_14WireFormatLite9FieldTypeE9ELSE_2EE13GetCachedSizeEv to i8*), i8* bitcast (i8* (%"class.google::protobuf::internal::MapEntryImpl.21"*, i8*, %"class.google::protobuf::internal::ParseContext"*)* @_ZN6google8protobuf8internal12MapEntryImplIN13assist_ranker81TranslateRankerModel_TranslateLogisticRegressionModel_CountryWeightEntry_DoNotUseENS0_11MessageLiteENSt3__112basic_stringIcNS6_11char_traitsIcEENS6_9allocatorIcEEEEfLNS1_14WireFormatLite9FieldTypeE9ELSE_2EE14_InternalParseEPKcPNS1_12ParseContextE to i8*), i8* bitcast (i8* (%"class.google::protobuf::internal::MapEntryImpl.21"*, i8*, %"class.google::protobuf::io::EpsCopyOutputStream"*)* @_ZNK6google8protobuf8internal12MapEntryImplIN13assist_ranker81TranslateRankerModel_TranslateLogisticRegressionModel_CountryWeightEntry_DoNotUseENS0_11MessageLiteENSt3__112basic_stringIcNS6_11char_traitsIcEENS6_9allocatorIcEEEEfLNS1_14WireFormatLite9FieldTypeE9ELSE_2EE18_InternalSerializeEPhPNS0_2io19EpsCopyOutputStreamE to i8*), i8* bitcast (i8* (%"class.google::protobuf::MessageLite"*)* @_ZNK6google8protobuf11MessageLite16InternalGetTableEv to i8*), i8* bitcast (%"class.std::__1::basic_string"* (%"class.google::protobuf::internal::MapEntryImpl.21"*)* @_ZNK6google8protobuf8internal12MapEntryImplIN13assist_ranker81TranslateRankerModel_TranslateLogisticRegressionModel_CountryWeightEntry_DoNotUseENS0_11MessageLiteENSt3__112basic_stringIcNS6_11char_traitsIcEENS6_9allocatorIcEEEEfLNS1_14WireFormatLite9FieldTypeE9ELSE_2EE3keyEv to i8*), i8* bitcast (float* (%"class.google::protobuf::internal::MapEntryImpl.21"*)* @_ZNK6google8protobuf8internal12MapEntryImplIN13assist_ranker81TranslateRankerModel_TranslateLogisticRegressionModel_CountryWeightEntry_DoNotUseENS0_11MessageLiteENSt3__112basic_stringIcNS6_11char_traitsIcEENS6_9allocatorIcEEEEfLNS1_14WireFormatLite9FieldTypeE9ELSE_2EE5valueEv to i8*)] }, comdat, align 8
@_ZTVN13assist_ranker80TranslateRankerModel_TranslateLogisticRegressionModel_LocaleWeightEntry_DoNotUseE = linkonce_odr hidden unnamed_addr constant { [18 x i8*] } { [18 x i8*] [i8* null, i8* null, i8* bitcast (void (%"class.google::protobuf::internal::MapEntryLite.22"*)* @_ZN6google8protobuf8internal12MapEntryLiteIN13assist_ranker80TranslateRankerModel_TranslateLogisticRegressionModel_LocaleWeightEntry_DoNotUseENSt3__112basic_stringIcNS5_11char_traitsIcEENS5_9allocatorIcEEEEfLNS1_14WireFormatLite9FieldTypeE9ELSD_2EED2Ev to i8*), i8* bitcast (void (%"class.assist_ranker::TranslateRankerModel_TranslateLogisticRegressionModel_LocaleWeightEntry_DoNotUse"*)* @_ZN13assist_ranker80TranslateRankerModel_TranslateLogisticRegressionModel_LocaleWeightEntry_DoNotUseD0Ev to i8*), i8* bitcast (void (%"class.std::__1::basic_string"*, %"class.google::protobuf::internal::MapEntryImpl.23"*)* @_ZNK6google8protobuf8internal12MapEntryImplIN13assist_ranker80TranslateRankerModel_TranslateLogisticRegressionModel_LocaleWeightEntry_DoNotUseENS0_11MessageLiteENSt3__112basic_stringIcNS6_11char_traitsIcEENS6_9allocatorIcEEEEfLNS1_14WireFormatLite9FieldTypeE9ELSE_2EE11GetTypeNameEv to i8*), i8* bitcast (%"class.google::protobuf::MessageLite"* (%"class.google::protobuf::internal::MapEntryImpl.23"*)* @_ZNK6google8protobuf8internal12MapEntryImplIN13assist_ranker80TranslateRankerModel_TranslateLogisticRegressionModel_LocaleWeightEntry_DoNotUseENS0_11MessageLiteENSt3__112basic_stringIcNS6_11char_traitsIcEENS6_9allocatorIcEEEEfLNS1_14WireFormatLite9FieldTypeE9ELSE_2EE3NewEv to i8*), i8* bitcast (%"class.google::protobuf::MessageLite"* (%"class.google::protobuf::internal::MapEntryImpl.23"*, %"class.google::protobuf::Arena"*)* @_ZNK6google8protobuf8internal12MapEntryImplIN13assist_ranker80TranslateRankerModel_TranslateLogisticRegressionModel_LocaleWeightEntry_DoNotUseENS0_11MessageLiteENSt3__112basic_stringIcNS6_11char_traitsIcEENS6_9allocatorIcEEEEfLNS1_14WireFormatLite9FieldTypeE9ELSE_2EE3NewEPNS0_5ArenaE to i8*), i8* bitcast (void (%"class.google::protobuf::internal::MapEntryImpl.23"*)* @_ZN6google8protobuf8internal12MapEntryImplIN13assist_ranker80TranslateRankerModel_TranslateLogisticRegressionModel_LocaleWeightEntry_DoNotUseENS0_11MessageLiteENSt3__112basic_stringIcNS6_11char_traitsIcEENS6_9allocatorIcEEEEfLNS1_14WireFormatLite9FieldTypeE9ELSE_2EE5ClearEv to i8*), i8* bitcast (i1 (%"class.google::protobuf::internal::MapEntryImpl.23"*)* @_ZNK6google8protobuf8internal12MapEntryImplIN13assist_ranker80TranslateRankerModel_TranslateLogisticRegressionModel_LocaleWeightEntry_DoNotUseENS0_11MessageLiteENSt3__112basic_stringIcNS6_11char_traitsIcEENS6_9allocatorIcEEEEfLNS1_14WireFormatLite9FieldTypeE9ELSE_2EE13IsInitializedEv to i8*), i8* bitcast (void (%"class.std::__1::basic_string"*, %"class.google::protobuf::MessageLite"*)* @_ZNK6google8protobuf11MessageLite25InitializationErrorStringEv to i8*), i8* bitcast (void (%"class.google::protobuf::internal::MapEntryImpl.23"*, %"class.google::protobuf::MessageLite"*)* @_ZN6google8protobuf8internal12MapEntryImplIN13assist_ranker80TranslateRankerModel_TranslateLogisticRegressionModel_LocaleWeightEntry_DoNotUseENS0_11MessageLiteENSt3__112basic_stringIcNS6_11char_traitsIcEENS6_9allocatorIcEEEEfLNS1_14WireFormatLite9FieldTypeE9ELSE_2EE21CheckTypeAndMergeFromERKS5_ to i8*), i8* bitcast (i64 (%"class.google::protobuf::internal::MapEntryImpl.23"*)* @_ZNK6google8protobuf8internal12MapEntryImplIN13assist_ranker80TranslateRankerModel_TranslateLogisticRegressionModel_LocaleWeightEntry_DoNotUseENS0_11MessageLiteENSt3__112basic_stringIcNS6_11char_traitsIcEENS6_9allocatorIcEEEEfLNS1_14WireFormatLite9FieldTypeE9ELSE_2EE12ByteSizeLongEv to i8*), i8* bitcast (i32 (%"class.google::protobuf::internal::MapEntryImpl.23"*)* @_ZNK6google8protobuf8internal12MapEntryImplIN13assist_ranker80TranslateRankerModel_TranslateLogisticRegressionModel_LocaleWeightEntry_DoNotUseENS0_11MessageLiteENSt3__112basic_stringIcNS6_11char_traitsIcEENS6_9allocatorIcEEEEfLNS1_14WireFormatLite9FieldTypeE9ELSE_2EE13GetCachedSizeEv to i8*), i8* bitcast (i8* (%"class.google::protobuf::internal::MapEntryImpl.23"*, i8*, %"class.google::protobuf::internal::ParseContext"*)* @_ZN6google8protobuf8internal12MapEntryImplIN13assist_ranker80TranslateRankerModel_TranslateLogisticRegressionModel_LocaleWeightEntry_DoNotUseENS0_11MessageLiteENSt3__112basic_stringIcNS6_11char_traitsIcEENS6_9allocatorIcEEEEfLNS1_14WireFormatLite9FieldTypeE9ELSE_2EE14_InternalParseEPKcPNS1_12ParseContextE to i8*), i8* bitcast (i8* (%"class.google::protobuf::internal::MapEntryImpl.23"*, i8*, %"class.google::protobuf::io::EpsCopyOutputStream"*)* @_ZNK6google8protobuf8internal12MapEntryImplIN13assist_ranker80TranslateRankerModel_TranslateLogisticRegressionModel_LocaleWeightEntry_DoNotUseENS0_11MessageLiteENSt3__112basic_stringIcNS6_11char_traitsIcEENS6_9allocatorIcEEEEfLNS1_14WireFormatLite9FieldTypeE9ELSE_2EE18_InternalSerializeEPhPNS0_2io19EpsCopyOutputStreamE to i8*), i8* bitcast (i8* (%"class.google::protobuf::MessageLite"*)* @_ZNK6google8protobuf11MessageLite16InternalGetTableEv to i8*), i8* bitcast (%"class.std::__1::basic_string"* (%"class.google::protobuf::internal::MapEntryImpl.23"*)* @_ZNK6google8protobuf8internal12MapEntryImplIN13assist_ranker80TranslateRankerModel_TranslateLogisticRegressionModel_LocaleWeightEntry_DoNotUseENS0_11MessageLiteENSt3__112basic_stringIcNS6_11char_traitsIcEENS6_9allocatorIcEEEEfLNS1_14WireFormatLite9FieldTypeE9ELSE_2EE3keyEv to i8*), i8* bitcast (float* (%"class.google::protobuf::internal::MapEntryImpl.23"*)* @_ZNK6google8protobuf8internal12MapEntryImplIN13assist_ranker80TranslateRankerModel_TranslateLogisticRegressionModel_LocaleWeightEntry_DoNotUseENS0_11MessageLiteENSt3__112basic_stringIcNS6_11char_traitsIcEENS6_9allocatorIcEEEEfLNS1_14WireFormatLite9FieldTypeE9ELSE_2EE5valueEv to i8*)] }, comdat, align 8
@_ZTVN13assist_ranker53TranslateRankerModel_TranslateLogisticRegressionModelE = hidden unnamed_addr constant { [16 x i8*] } { [16 x i8*] [i8* null, i8* null, i8* bitcast (void (%"class.assist_ranker::TranslateRankerModel_TranslateLogisticRegressionModel"*)* @_ZN13assist_ranker53TranslateRankerModel_TranslateLogisticRegressionModelD2Ev to i8*), i8* bitcast (void (%"class.assist_ranker::TranslateRankerModel_TranslateLogisticRegressionModel"*)* @_ZN13assist_ranker53TranslateRankerModel_TranslateLogisticRegressionModelD0Ev to i8*), i8* bitcast (void (%"class.std::__1::basic_string"*, %"class.assist_ranker::TranslateRankerModel_TranslateLogisticRegressionModel"*)* @_ZNK13assist_ranker53TranslateRankerModel_TranslateLogisticRegressionModel11GetTypeNameEv to i8*), i8* bitcast (%"class.assist_ranker::TranslateRankerModel_TranslateLogisticRegressionModel"* (%"class.assist_ranker::TranslateRankerModel_TranslateLogisticRegressionModel"*)* @_ZNK13assist_ranker53TranslateRankerModel_TranslateLogisticRegressionModel3NewEv to i8*), i8* bitcast (%"class.assist_ranker::TranslateRankerModel_TranslateLogisticRegressionModel"* (%"class.assist_ranker::TranslateRankerModel_TranslateLogisticRegressionModel"*, %"class.google::protobuf::Arena"*)* @_ZNK13assist_ranker53TranslateRankerModel_TranslateLogisticRegressionModel3NewEPN6google8protobuf5ArenaE to i8*), i8* bitcast (void (%"class.assist_ranker::TranslateRankerModel_TranslateLogisticRegressionModel"*)* @_ZN13assist_ranker53TranslateRankerModel_TranslateLogisticRegressionModel5ClearEv to i8*), i8* bitcast (i1 (%"class.assist_ranker::TranslateRankerModel_TranslateLogisticRegressionModel"*)* @_ZNK13assist_ranker53TranslateRankerModel_TranslateLogisticRegressionModel13IsInitializedEv to i8*), i8* bitcast (void (%"class.std::__1::basic_string"*, %"class.google::protobuf::MessageLite"*)* @_ZNK6google8protobuf11MessageLite25InitializationErrorStringEv to i8*), i8* bitcast (void (%"class.assist_ranker::TranslateRankerModel_TranslateLogisticRegressionModel"*, %"class.google::protobuf::MessageLite"*)* @_ZN13assist_ranker53TranslateRankerModel_TranslateLogisticRegressionModel21CheckTypeAndMergeFromERKN6google8protobuf11MessageLiteE to i8*), i8* bitcast (i64 (%"class.assist_ranker::TranslateRankerModel_TranslateLogisticRegressionModel"*)* @_ZNK13assist_ranker53TranslateRankerModel_TranslateLogisticRegressionModel12ByteSizeLongEv to i8*), i8* bitcast (i32 (%"class.assist_ranker::TranslateRankerModel_TranslateLogisticRegressionModel"*)* @_ZNK13assist_ranker53TranslateRankerModel_TranslateLogisticRegressionModel13GetCachedSizeEv to i8*), i8* bitcast (i8* (%"class.assist_ranker::TranslateRankerModel_TranslateLogisticRegressionModel"*, i8*, %"class.google::protobuf::internal::ParseContext"*)* @_ZN13assist_ranker53TranslateRankerModel_TranslateLogisticRegressionModel14_InternalParseEPKcPN6google8protobuf8internal12ParseContextE to i8*), i8* bitcast (i8* (%"class.assist_ranker::TranslateRankerModel_TranslateLogisticRegressionModel"*, i8*, %"class.google::protobuf::io::EpsCopyOutputStream"*)* @_ZNK13assist_ranker53TranslateRankerModel_TranslateLogisticRegressionModel18_InternalSerializeEPhPN6google8protobuf2io19EpsCopyOutputStreamE to i8*), i8* bitcast (i8* (%"class.google::protobuf::MessageLite"*)* @_ZNK6google8protobuf11MessageLite16InternalGetTableEv to i8*)] }, align 8
@.str = private unnamed_addr constant [64 x i8] c"gen/components/assist_ranker/proto/translate_ranker_model.pb.cc\00", align 1
@.str.7 = private unnamed_addr constant [68 x i8] c"assist_ranker.TranslateRankerModel.TranslateLogisticRegressionModel\00", align 1
@_ZTVN13assist_ranker20TranslateRankerModelE = hidden unnamed_addr constant { [16 x i8*] } { [16 x i8*] [i8* null, i8* null, i8* bitcast (void (%"class.assist_ranker::TranslateRankerModel"*)* @_ZN13assist_ranker20TranslateRankerModelD2Ev to i8*), i8* bitcast (void (%"class.assist_ranker::TranslateRankerModel"*)* @_ZN13assist_ranker20TranslateRankerModelD0Ev to i8*), i8* bitcast (void (%"class.std::__1::basic_string"*, %"class.assist_ranker::TranslateRankerModel"*)* @_ZNK13assist_ranker20TranslateRankerModel11GetTypeNameEv to i8*), i8* bitcast (%"class.assist_ranker::TranslateRankerModel"* (%"class.assist_ranker::TranslateRankerModel"*)* @_ZNK13assist_ranker20TranslateRankerModel3NewEv to i8*), i8* bitcast (%"class.assist_ranker::TranslateRankerModel"* (%"class.assist_ranker::TranslateRankerModel"*, %"class.google::protobuf::Arena"*)* @_ZNK13assist_ranker20TranslateRankerModel3NewEPN6google8protobuf5ArenaE to i8*), i8* bitcast (void (%"class.assist_ranker::TranslateRankerModel"*)* @_ZN13assist_ranker20TranslateRankerModel5ClearEv to i8*), i8* bitcast (i1 (%"class.assist_ranker::TranslateRankerModel"*)* @_ZNK13assist_ranker20TranslateRankerModel13IsInitializedEv to i8*), i8* bitcast (void (%"class.std::__1::basic_string"*, %"class.google::protobuf::MessageLite"*)* @_ZNK6google8protobuf11MessageLite25InitializationErrorStringEv to i8*), i8* bitcast (void (%"class.assist_ranker::TranslateRankerModel"*, %"class.google::protobuf::MessageLite"*)* @_ZN13assist_ranker20TranslateRankerModel21CheckTypeAndMergeFromERKN6google8protobuf11MessageLiteE to i8*), i8* bitcast (i64 (%"class.assist_ranker::TranslateRankerModel"*)* @_ZNK13assist_ranker20TranslateRankerModel12ByteSizeLongEv to i8*), i8* bitcast (i32 (%"class.assist_ranker::TranslateRankerModel"*)* @_ZNK13assist_ranker20TranslateRankerModel13GetCachedSizeEv to i8*), i8* bitcast (i8* (%"class.assist_ranker::TranslateRankerModel"*, i8*, %"class.google::protobuf::internal::ParseContext"*)* @_ZN13assist_ranker20TranslateRankerModel14_InternalParseEPKcPN6google8protobuf8internal12ParseContextE to i8*), i8* bitcast (i8* (%"class.assist_ranker::TranslateRankerModel"*, i8*, %"class.google::protobuf::io::EpsCopyOutputStream"*)* @_ZNK13assist_ranker20TranslateRankerModel18_InternalSerializeEPhPN6google8protobuf2io19EpsCopyOutputStreamE to i8*), i8* bitcast (i8* (%"class.google::protobuf::MessageLite"*)* @_ZNK6google8protobuf11MessageLite16InternalGetTableEv to i8*)] }, align 8
@.str.8 = private unnamed_addr constant [35 x i8] c"assist_ranker.TranslateRankerModel\00", align 1
@_ZTVN6google8protobuf8internal12MapEntryLiteIN13assist_ranker88TranslateRankerModel_TranslateLogisticRegressionModel_SourceLanguageWeightEntry_DoNotUseENSt3__112basic_stringIcNS5_11char_traitsIcEENS5_9allocatorIcEEEEfLNS1_14WireFormatLite9FieldTypeE9ELSD_2EEE = linkonce_odr hidden unnamed_addr constant { [18 x i8*] } { [18 x i8*] [i8* null, i8* null, i8* bitcast (void (%"class.google::protobuf::internal::MapEntryLite"*)* @_ZN6google8protobuf8internal12MapEntryLiteIN13assist_ranker88TranslateRankerModel_TranslateLogisticRegressionModel_SourceLanguageWeightEntry_DoNotUseENSt3__112basic_stringIcNS5_11char_traitsIcEENS5_9allocatorIcEEEEfLNS1_14WireFormatLite9FieldTypeE9ELSD_2EED2Ev to i8*), i8* bitcast (void (%"class.google::protobuf::internal::MapEntryLite"*)* @_ZN6google8protobuf8internal12MapEntryLiteIN13assist_ranker88TranslateRankerModel_TranslateLogisticRegressionModel_SourceLanguageWeightEntry_DoNotUseENSt3__112basic_stringIcNS5_11char_traitsIcEENS5_9allocatorIcEEEEfLNS1_14WireFormatLite9FieldTypeE9ELSD_2EED0Ev to i8*), i8* bitcast (void (%"class.std::__1::basic_string"*, %"class.google::protobuf::internal::MapEntryImpl"*)* @_ZNK6google8protobuf8internal12MapEntryImplIN13assist_ranker88TranslateRankerModel_TranslateLogisticRegressionModel_SourceLanguageWeightEntry_DoNotUseENS0_11MessageLiteENSt3__112basic_stringIcNS6_11char_traitsIcEENS6_9allocatorIcEEEEfLNS1_14WireFormatLite9FieldTypeE9ELSE_2EE11GetTypeNameEv to i8*), i8* bitcast (%"class.google::protobuf::MessageLite"* (%"class.google::protobuf::internal::MapEntryImpl"*)* @_ZNK6google8protobuf8internal12MapEntryImplIN13assist_ranker88TranslateRankerModel_TranslateLogisticRegressionModel_SourceLanguageWeightEntry_DoNotUseENS0_11MessageLiteENSt3__112basic_stringIcNS6_11char_traitsIcEENS6_9allocatorIcEEEEfLNS1_14WireFormatLite9FieldTypeE9ELSE_2EE3NewEv to i8*), i8* bitcast (%"class.google::protobuf::MessageLite"* (%"class.google::protobuf::internal::MapEntryImpl"*, %"class.google::protobuf::Arena"*)* @_ZNK6google8protobuf8internal12MapEntryImplIN13assist_ranker88TranslateRankerModel_TranslateLogisticRegressionModel_SourceLanguageWeightEntry_DoNotUseENS0_11MessageLiteENSt3__112basic_stringIcNS6_11char_traitsIcEENS6_9allocatorIcEEEEfLNS1_14WireFormatLite9FieldTypeE9ELSE_2EE3NewEPNS0_5ArenaE to i8*), i8* bitcast (void (%"class.google::protobuf::internal::MapEntryImpl"*)* @_ZN6google8protobuf8internal12MapEntryImplIN13assist_ranker88TranslateRankerModel_TranslateLogisticRegressionModel_SourceLanguageWeightEntry_DoNotUseENS0_11MessageLiteENSt3__112basic_stringIcNS6_11char_traitsIcEENS6_9allocatorIcEEEEfLNS1_14WireFormatLite9FieldTypeE9ELSE_2EE5ClearEv to i8*), i8* bitcast (i1 (%"class.google::protobuf::internal::MapEntryImpl"*)* @_ZNK6google8protobuf8internal12MapEntryImplIN13assist_ranker88TranslateRankerModel_TranslateLogisticRegressionModel_SourceLanguageWeightEntry_DoNotUseENS0_11MessageLiteENSt3__112basic_stringIcNS6_11char_traitsIcEENS6_9allocatorIcEEEEfLNS1_14WireFormatLite9FieldTypeE9ELSE_2EE13IsInitializedEv to i8*), i8* bitcast (void (%"class.std::__1::basic_string"*, %"class.google::protobuf::MessageLite"*)* @_ZNK6google8protobuf11MessageLite25InitializationErrorStringEv to i8*), i8* bitcast (void (%"class.google::protobuf::internal::MapEntryImpl"*, %"class.google::protobuf::MessageLite"*)* @_ZN6google8protobuf8internal12MapEntryImplIN13assist_ranker88TranslateRankerModel_TranslateLogisticRegressionModel_SourceLanguageWeightEntry_DoNotUseENS0_11MessageLiteENSt3__112basic_stringIcNS6_11char_traitsIcEENS6_9allocatorIcEEEEfLNS1_14WireFormatLite9FieldTypeE9ELSE_2EE21CheckTypeAndMergeFromERKS5_ to i8*), i8* bitcast (i64 (%"class.google::protobuf::internal::MapEntryImpl"*)* @_ZNK6google8protobuf8internal12MapEntryImplIN13assist_ranker88TranslateRankerModel_TranslateLogisticRegressionModel_SourceLanguageWeightEntry_DoNotUseENS0_11MessageLiteENSt3__112basic_stringIcNS6_11char_traitsIcEENS6_9allocatorIcEEEEfLNS1_14WireFormatLite9FieldTypeE9ELSE_2EE12ByteSizeLongEv to i8*), i8* bitcast (i32 (%"class.google::protobuf::internal::MapEntryImpl"*)* @_ZNK6google8protobuf8internal12MapEntryImplIN13assist_ranker88TranslateRankerModel_TranslateLogisticRegressionModel_SourceLanguageWeightEntry_DoNotUseENS0_11MessageLiteENSt3__112basic_stringIcNS6_11char_traitsIcEENS6_9allocatorIcEEEEfLNS1_14WireFormatLite9FieldTypeE9ELSE_2EE13GetCachedSizeEv to i8*), i8* bitcast (i8* (%"class.google::protobuf::internal::MapEntryImpl"*, i8*, %"class.google::protobuf::internal::ParseContext"*)* @_ZN6google8protobuf8internal12MapEntryImplIN13assist_ranker88TranslateRankerModel_TranslateLogisticRegressionModel_SourceLanguageWeightEntry_DoNotUseENS0_11MessageLiteENSt3__112basic_stringIcNS6_11char_traitsIcEENS6_9allocatorIcEEEEfLNS1_14WireFormatLite9FieldTypeE9ELSE_2EE14_InternalParseEPKcPNS1_12ParseContextE to i8*), i8* bitcast (i8* (%"class.google::protobuf::internal::MapEntryImpl"*, i8*, %"class.google::protobuf::io::EpsCopyOutputStream"*)* @_ZNK6google8protobuf8internal12MapEntryImplIN13assist_ranker88TranslateRankerModel_TranslateLogisticRegressionModel_SourceLanguageWeightEntry_DoNotUseENS0_11MessageLiteENSt3__112basic_stringIcNS6_11char_traitsIcEENS6_9allocatorIcEEEEfLNS1_14WireFormatLite9FieldTypeE9ELSE_2EE18_InternalSerializeEPhPNS0_2io19EpsCopyOutputStreamE to i8*), i8* bitcast (i8* (%"class.google::protobuf::MessageLite"*)* @_ZNK6google8protobuf11MessageLite16InternalGetTableEv to i8*), i8* bitcast (%"class.std::__1::basic_string"* (%"class.google::protobuf::internal::MapEntryImpl"*)* @_ZNK6google8protobuf8internal12MapEntryImplIN13assist_ranker88TranslateRankerModel_TranslateLogisticRegressionModel_SourceLanguageWeightEntry_DoNotUseENS0_11MessageLiteENSt3__112basic_stringIcNS6_11char_traitsIcEENS6_9allocatorIcEEEEfLNS1_14WireFormatLite9FieldTypeE9ELSE_2EE3keyEv to i8*), i8* bitcast (float* (%"class.google::protobuf::internal::MapEntryImpl"*)* @_ZNK6google8protobuf8internal12MapEntryImplIN13assist_ranker88TranslateRankerModel_TranslateLogisticRegressionModel_SourceLanguageWeightEntry_DoNotUseENS0_11MessageLiteENSt3__112basic_stringIcNS6_11char_traitsIcEENS6_9allocatorIcEEEEfLNS1_14WireFormatLite9FieldTypeE9ELSE_2EE5valueEv to i8*)] }, comdat, align 8
@_ZTVN6google8protobuf8internal12MapEntryImplIN13assist_ranker88TranslateRankerModel_TranslateLogisticRegressionModel_SourceLanguageWeightEntry_DoNotUseENS0_11MessageLiteENSt3__112basic_stringIcNS6_11char_traitsIcEENS6_9allocatorIcEEEEfLNS1_14WireFormatLite9FieldTypeE9ELSE_2EEE = linkonce_odr hidden unnamed_addr constant { [18 x i8*] } { [18 x i8*] [i8* null, i8* null, i8* bitcast (void (%"class.google::protobuf::internal::MapEntryImpl"*)* @_ZN6google8protobuf8internal12MapEntryImplIN13assist_ranker88TranslateRankerModel_TranslateLogisticRegressionModel_SourceLanguageWeightEntry_DoNotUseENS0_11MessageLiteENSt3__112basic_stringIcNS6_11char_traitsIcEENS6_9allocatorIcEEEEfLNS1_14WireFormatLite9FieldTypeE9ELSE_2EED2Ev to i8*), i8* bitcast (void (%"class.google::protobuf::internal::MapEntryImpl"*)* @_ZN6google8protobuf8internal12MapEntryImplIN13assist_ranker88TranslateRankerModel_TranslateLogisticRegressionModel_SourceLanguageWeightEntry_DoNotUseENS0_11MessageLiteENSt3__112basic_stringIcNS6_11char_traitsIcEENS6_9allocatorIcEEEEfLNS1_14WireFormatLite9FieldTypeE9ELSE_2EED0Ev to i8*), i8* bitcast (void (%"class.std::__1::basic_string"*, %"class.google::protobuf::internal::MapEntryImpl"*)* @_ZNK6google8protobuf8internal12MapEntryImplIN13assist_ranker88TranslateRankerModel_TranslateLogisticRegressionModel_SourceLanguageWeightEntry_DoNotUseENS0_11MessageLiteENSt3__112basic_stringIcNS6_11char_traitsIcEENS6_9allocatorIcEEEEfLNS1_14WireFormatLite9FieldTypeE9ELSE_2EE11GetTypeNameEv to i8*), i8* bitcast (%"class.google::protobuf::MessageLite"* (%"class.google::protobuf::internal::MapEntryImpl"*)* @_ZNK6google8protobuf8internal12MapEntryImplIN13assist_ranker88TranslateRankerModel_TranslateLogisticRegressionModel_SourceLanguageWeightEntry_DoNotUseENS0_11MessageLiteENSt3__112basic_stringIcNS6_11char_traitsIcEENS6_9allocatorIcEEEEfLNS1_14WireFormatLite9FieldTypeE9ELSE_2EE3NewEv to i8*), i8* bitcast (%"class.google::protobuf::MessageLite"* (%"class.google::protobuf::internal::MapEntryImpl"*, %"class.google::protobuf::Arena"*)* @_ZNK6google8protobuf8internal12MapEntryImplIN13assist_ranker88TranslateRankerModel_TranslateLogisticRegressionModel_SourceLanguageWeightEntry_DoNotUseENS0_11MessageLiteENSt3__112basic_stringIcNS6_11char_traitsIcEENS6_9allocatorIcEEEEfLNS1_14WireFormatLite9FieldTypeE9ELSE_2EE3NewEPNS0_5ArenaE to i8*), i8* bitcast (void (%"class.google::protobuf::internal::MapEntryImpl"*)* @_ZN6google8protobuf8internal12MapEntryImplIN13assist_ranker88TranslateRankerModel_TranslateLogisticRegressionModel_SourceLanguageWeightEntry_DoNotUseENS0_11MessageLiteENSt3__112basic_stringIcNS6_11char_traitsIcEENS6_9allocatorIcEEEEfLNS1_14WireFormatLite9FieldTypeE9ELSE_2EE5ClearEv to i8*), i8* bitcast (i1 (%"class.google::protobuf::internal::MapEntryImpl"*)* @_ZNK6google8protobuf8internal12MapEntryImplIN13assist_ranker88TranslateRankerModel_TranslateLogisticRegressionModel_SourceLanguageWeightEntry_DoNotUseENS0_11MessageLiteENSt3__112basic_stringIcNS6_11char_traitsIcEENS6_9allocatorIcEEEEfLNS1_14WireFormatLite9FieldTypeE9ELSE_2EE13IsInitializedEv to i8*), i8* bitcast (void (%"class.std::__1::basic_string"*, %"class.google::protobuf::MessageLite"*)* @_ZNK6google8protobuf11MessageLite25InitializationErrorStringEv to i8*), i8* bitcast (void (%"class.google::protobuf::internal::MapEntryImpl"*, %"class.google::protobuf::MessageLite"*)* @_ZN6google8protobuf8internal12MapEntryImplIN13assist_ranker88TranslateRankerModel_TranslateLogisticRegressionModel_SourceLanguageWeightEntry_DoNotUseENS0_11MessageLiteENSt3__112basic_stringIcNS6_11char_traitsIcEENS6_9allocatorIcEEEEfLNS1_14WireFormatLite9FieldTypeE9ELSE_2EE21CheckTypeAndMergeFromERKS5_ to i8*), i8* bitcast (i64 (%"class.google::protobuf::internal::MapEntryImpl"*)* @_ZNK6google8protobuf8internal12MapEntryImplIN13assist_ranker88TranslateRankerModel_TranslateLogisticRegressionModel_SourceLanguageWeightEntry_DoNotUseENS0_11MessageLiteENSt3__112basic_stringIcNS6_11char_traitsIcEENS6_9allocatorIcEEEEfLNS1_14WireFormatLite9FieldTypeE9ELSE_2EE12ByteSizeLongEv to i8*), i8* bitcast (i32 (%"class.google::protobuf::internal::MapEntryImpl"*)* @_ZNK6google8protobuf8internal12MapEntryImplIN13assist_ranker88TranslateRankerModel_TranslateLogisticRegressionModel_SourceLanguageWeightEntry_DoNotUseENS0_11MessageLiteENSt3__112basic_stringIcNS6_11char_traitsIcEENS6_9allocatorIcEEEEfLNS1_14WireFormatLite9FieldTypeE9ELSE_2EE13GetCachedSizeEv to i8*), i8* bitcast (i8* (%"class.google::protobuf::internal::MapEntryImpl"*, i8*, %"class.google::protobuf::internal::ParseContext"*)* @_ZN6google8protobuf8internal12MapEntryImplIN13assist_ranker88TranslateRankerModel_TranslateLogisticRegressionModel_SourceLanguageWeightEntry_DoNotUseENS0_11MessageLiteENSt3__112basic_stringIcNS6_11char_traitsIcEENS6_9allocatorIcEEEEfLNS1_14WireFormatLite9FieldTypeE9ELSE_2EE14_InternalParseEPKcPNS1_12ParseContextE to i8*), i8* bitcast (i8* (%"class.google::protobuf::internal::MapEntryImpl"*, i8*, %"class.google::protobuf::io::EpsCopyOutputStream"*)* @_ZNK6google8protobuf8internal12MapEntryImplIN13assist_ranker88TranslateRankerModel_TranslateLogisticRegressionModel_SourceLanguageWeightEntry_DoNotUseENS0_11MessageLiteENSt3__112basic_stringIcNS6_11char_traitsIcEENS6_9allocatorIcEEEEfLNS1_14WireFormatLite9FieldTypeE9ELSE_2EE18_InternalSerializeEPhPNS0_2io19EpsCopyOutputStreamE to i8*), i8* bitcast (i8* (%"class.google::protobuf::MessageLite"*)* @_ZNK6google8protobuf11MessageLite16InternalGetTableEv to i8*), i8* bitcast (%"class.std::__1::basic_string"* (%"class.google::protobuf::internal::MapEntryImpl"*)* @_ZNK6google8protobuf8internal12MapEntryImplIN13assist_ranker88TranslateRankerModel_TranslateLogisticRegressionModel_SourceLanguageWeightEntry_DoNotUseENS0_11MessageLiteENSt3__112basic_stringIcNS6_11char_traitsIcEENS6_9allocatorIcEEEEfLNS1_14WireFormatLite9FieldTypeE9ELSE_2EE3keyEv to i8*), i8* bitcast (float* (%"class.google::protobuf::internal::MapEntryImpl"*)* @_ZNK6google8protobuf8internal12MapEntryImplIN13assist_ranker88TranslateRankerModel_TranslateLogisticRegressionModel_SourceLanguageWeightEntry_DoNotUseENS0_11MessageLiteENSt3__112basic_stringIcNS6_11char_traitsIcEENS6_9allocatorIcEEEEfLNS1_14WireFormatLite9FieldTypeE9ELSE_2EE5valueEv to i8*)] }, comdat, align 8
@_ZN6google8protobuf8internal26fixed_address_empty_stringE = external global %"class.google::protobuf::internal::ExplicitlyConstructed.40", align 8
@_ZTVN6google8protobuf8internal12MapEntryLiteIN13assist_ranker88TranslateRankerModel_TranslateLogisticRegressionModel_TargetLanguageWeightEntry_DoNotUseENSt3__112basic_stringIcNS5_11char_traitsIcEENS5_9allocatorIcEEEEfLNS1_14WireFormatLite9FieldTypeE9ELSD_2EEE = linkonce_odr hidden unnamed_addr constant { [18 x i8*] } { [18 x i8*] [i8* null, i8* null, i8* bitcast (void (%"class.google::protobuf::internal::MapEntryLite.18"*)* @_ZN6google8protobuf8internal12MapEntryLiteIN13assist_ranker88TranslateRankerModel_TranslateLogisticRegressionModel_TargetLanguageWeightEntry_DoNotUseENSt3__112basic_stringIcNS5_11char_traitsIcEENS5_9allocatorIcEEEEfLNS1_14WireFormatLite9FieldTypeE9ELSD_2EED2Ev to i8*), i8* bitcast (void (%"class.google::protobuf::internal::MapEntryLite.18"*)* @_ZN6google8protobuf8internal12MapEntryLiteIN13assist_ranker88TranslateRankerModel_TranslateLogisticRegressionModel_TargetLanguageWeightEntry_DoNotUseENSt3__112basic_stringIcNS5_11char_traitsIcEENS5_9allocatorIcEEEEfLNS1_14WireFormatLite9FieldTypeE9ELSD_2EED0Ev to i8*), i8* bitcast (void (%"class.std::__1::basic_string"*, %"class.google::protobuf::internal::MapEntryImpl.19"*)* @_ZNK6google8protobuf8internal12MapEntryImplIN13assist_ranker88TranslateRankerModel_TranslateLogisticRegressionModel_TargetLanguageWeightEntry_DoNotUseENS0_11MessageLiteENSt3__112basic_stringIcNS6_11char_traitsIcEENS6_9allocatorIcEEEEfLNS1_14WireFormatLite9FieldTypeE9ELSE_2EE11GetTypeNameEv to i8*), i8* bitcast (%"class.google::protobuf::MessageLite"* (%"class.google::protobuf::internal::MapEntryImpl.19"*)* @_ZNK6google8protobuf8internal12MapEntryImplIN13assist_ranker88TranslateRankerModel_TranslateLogisticRegressionModel_TargetLanguageWeightEntry_DoNotUseENS0_11MessageLiteENSt3__112basic_stringIcNS6_11char_traitsIcEENS6_9allocatorIcEEEEfLNS1_14WireFormatLite9FieldTypeE9ELSE_2EE3NewEv to i8*), i8* bitcast (%"class.google::protobuf::MessageLite"* (%"class.google::protobuf::internal::MapEntryImpl.19"*, %"class.google::protobuf::Arena"*)* @_ZNK6google8protobuf8internal12MapEntryImplIN13assist_ranker88TranslateRankerModel_TranslateLogisticRegressionModel_TargetLanguageWeightEntry_DoNotUseENS0_11MessageLiteENSt3__112basic_stringIcNS6_11char_traitsIcEENS6_9allocatorIcEEEEfLNS1_14WireFormatLite9FieldTypeE9ELSE_2EE3NewEPNS0_5ArenaE to i8*), i8* bitcast (void (%"class.google::protobuf::internal::MapEntryImpl.19"*)* @_ZN6google8protobuf8internal12MapEntryImplIN13assist_ranker88TranslateRankerModel_TranslateLogisticRegressionModel_TargetLanguageWeightEntry_DoNotUseENS0_11MessageLiteENSt3__112basic_stringIcNS6_11char_traitsIcEENS6_9allocatorIcEEEEfLNS1_14WireFormatLite9FieldTypeE9ELSE_2EE5ClearEv to i8*), i8* bitcast (i1 (%"class.google::protobuf::internal::MapEntryImpl.19"*)* @_ZNK6google8protobuf8internal12MapEntryImplIN13assist_ranker88TranslateRankerModel_TranslateLogisticRegressionModel_TargetLanguageWeightEntry_DoNotUseENS0_11MessageLiteENSt3__112basic_stringIcNS6_11char_traitsIcEENS6_9allocatorIcEEEEfLNS1_14WireFormatLite9FieldTypeE9ELSE_2EE13IsInitializedEv to i8*), i8* bitcast (void (%"class.std::__1::basic_string"*, %"class.google::protobuf::MessageLite"*)* @_ZNK6google8protobuf11MessageLite25InitializationErrorStringEv to i8*), i8* bitcast (void (%"class.google::protobuf::internal::MapEntryImpl.19"*, %"class.google::protobuf::MessageLite"*)* @_ZN6google8protobuf8internal12MapEntryImplIN13assist_ranker88TranslateRankerModel_TranslateLogisticRegressionModel_TargetLanguageWeightEntry_DoNotUseENS0_11MessageLiteENSt3__112basic_stringIcNS6_11char_traitsIcEENS6_9allocatorIcEEEEfLNS1_14WireFormatLite9FieldTypeE9ELSE_2EE21CheckTypeAndMergeFromERKS5_ to i8*), i8* bitcast (i64 (%"class.google::protobuf::internal::MapEntryImpl.19"*)* @_ZNK6google8protobuf8internal12MapEntryImplIN13assist_ranker88TranslateRankerModel_TranslateLogisticRegressionModel_TargetLanguageWeightEntry_DoNotUseENS0_11MessageLiteENSt3__112basic_stringIcNS6_11char_traitsIcEENS6_9allocatorIcEEEEfLNS1_14WireFormatLite9FieldTypeE9ELSE_2EE12ByteSizeLongEv to i8*), i8* bitcast (i32 (%"class.google::protobuf::internal::MapEntryImpl.19"*)* @_ZNK6google8protobuf8internal12MapEntryImplIN13assist_ranker88TranslateRankerModel_TranslateLogisticRegressionModel_TargetLanguageWeightEntry_DoNotUseENS0_11MessageLiteENSt3__112basic_stringIcNS6_11char_traitsIcEENS6_9allocatorIcEEEEfLNS1_14WireFormatLite9FieldTypeE9ELSE_2EE13GetCachedSizeEv to i8*), i8* bitcast (i8* (%"class.google::protobuf::internal::MapEntryImpl.19"*, i8*, %"class.google::protobuf::internal::ParseContext"*)* @_ZN6google8protobuf8internal12MapEntryImplIN13assist_ranker88TranslateRankerModel_TranslateLogisticRegressionModel_TargetLanguageWeightEntry_DoNotUseENS0_11MessageLiteENSt3__112basic_stringIcNS6_11char_traitsIcEENS6_9allocatorIcEEEEfLNS1_14WireFormatLite9FieldTypeE9ELSE_2EE14_InternalParseEPKcPNS1_12ParseContextE to i8*), i8* bitcast (i8* (%"class.google::protobuf::internal::MapEntryImpl.19"*, i8*, %"class.google::protobuf::io::EpsCopyOutputStream"*)* @_ZNK6google8protobuf8internal12MapEntryImplIN13assist_ranker88TranslateRankerModel_TranslateLogisticRegressionModel_TargetLanguageWeightEntry_DoNotUseENS0_11MessageLiteENSt3__112basic_stringIcNS6_11char_traitsIcEENS6_9allocatorIcEEEEfLNS1_14WireFormatLite9FieldTypeE9ELSE_2EE18_InternalSerializeEPhPNS0_2io19EpsCopyOutputStreamE to i8*), i8* bitcast (i8* (%"class.google::protobuf::MessageLite"*)* @_ZNK6google8protobuf11MessageLite16InternalGetTableEv to i8*), i8* bitcast (%"class.std::__1::basic_string"* (%"class.google::protobuf::internal::MapEntryImpl.19"*)* @_ZNK6google8protobuf8internal12MapEntryImplIN13assist_ranker88TranslateRankerModel_TranslateLogisticRegressionModel_TargetLanguageWeightEntry_DoNotUseENS0_11MessageLiteENSt3__112basic_stringIcNS6_11char_traitsIcEENS6_9allocatorIcEEEEfLNS1_14WireFormatLite9FieldTypeE9ELSE_2EE3keyEv to i8*), i8* bitcast (float* (%"class.google::protobuf::internal::MapEntryImpl.19"*)* @_ZNK6google8protobuf8internal12MapEntryImplIN13assist_ranker88TranslateRankerModel_TranslateLogisticRegressionModel_TargetLanguageWeightEntry_DoNotUseENS0_11MessageLiteENSt3__112basic_stringIcNS6_11char_traitsIcEENS6_9allocatorIcEEEEfLNS1_14WireFormatLite9FieldTypeE9ELSE_2EE5valueEv to i8*)] }, comdat, align 8
@_ZTVN6google8protobuf8internal12MapEntryImplIN13assist_ranker88TranslateRankerModel_TranslateLogisticRegressionModel_TargetLanguageWeightEntry_DoNotUseENS0_11MessageLiteENSt3__112basic_stringIcNS6_11char_traitsIcEENS6_9allocatorIcEEEEfLNS1_14WireFormatLite9FieldTypeE9ELSE_2EEE = linkonce_odr hidden unnamed_addr constant { [18 x i8*] } { [18 x i8*] [i8* null, i8* null, i8* bitcast (void (%"class.google::protobuf::internal::MapEntryImpl.19"*)* @_ZN6google8protobuf8internal12MapEntryImplIN13assist_ranker88TranslateRankerModel_TranslateLogisticRegressionModel_TargetLanguageWeightEntry_DoNotUseENS0_11MessageLiteENSt3__112basic_stringIcNS6_11char_traitsIcEENS6_9allocatorIcEEEEfLNS1_14WireFormatLite9FieldTypeE9ELSE_2EED2Ev to i8*), i8* bitcast (void (%"class.google::protobuf::internal::MapEntryImpl.19"*)* @_ZN6google8protobuf8internal12MapEntryImplIN13assist_ranker88TranslateRankerModel_TranslateLogisticRegressionModel_TargetLanguageWeightEntry_DoNotUseENS0_11MessageLiteENSt3__112basic_stringIcNS6_11char_traitsIcEENS6_9allocatorIcEEEEfLNS1_14WireFormatLite9FieldTypeE9ELSE_2EED0Ev to i8*), i8* bitcast (void (%"class.std::__1::basic_string"*, %"class.google::protobuf::internal::MapEntryImpl.19"*)* @_ZNK6google8protobuf8internal12MapEntryImplIN13assist_ranker88TranslateRankerModel_TranslateLogisticRegressionModel_TargetLanguageWeightEntry_DoNotUseENS0_11MessageLiteENSt3__112basic_stringIcNS6_11char_traitsIcEENS6_9allocatorIcEEEEfLNS1_14WireFormatLite9FieldTypeE9ELSE_2EE11GetTypeNameEv to i8*), i8* bitcast (%"class.google::protobuf::MessageLite"* (%"class.google::protobuf::internal::MapEntryImpl.19"*)* @_ZNK6google8protobuf8internal12MapEntryImplIN13assist_ranker88TranslateRankerModel_TranslateLogisticRegressionModel_TargetLanguageWeightEntry_DoNotUseENS0_11MessageLiteENSt3__112basic_stringIcNS6_11char_traitsIcEENS6_9allocatorIcEEEEfLNS1_14WireFormatLite9FieldTypeE9ELSE_2EE3NewEv to i8*), i8* bitcast (%"class.google::protobuf::MessageLite"* (%"class.google::protobuf::internal::MapEntryImpl.19"*, %"class.google::protobuf::Arena"*)* @_ZNK6google8protobuf8internal12MapEntryImplIN13assist_ranker88TranslateRankerModel_TranslateLogisticRegressionModel_TargetLanguageWeightEntry_DoNotUseENS0_11MessageLiteENSt3__112basic_stringIcNS6_11char_traitsIcEENS6_9allocatorIcEEEEfLNS1_14WireFormatLite9FieldTypeE9ELSE_2EE3NewEPNS0_5ArenaE to i8*), i8* bitcast (void (%"class.google::protobuf::internal::MapEntryImpl.19"*)* @_ZN6google8protobuf8internal12MapEntryImplIN13assist_ranker88TranslateRankerModel_TranslateLogisticRegressionModel_TargetLanguageWeightEntry_DoNotUseENS0_11MessageLiteENSt3__112basic_stringIcNS6_11char_traitsIcEENS6_9allocatorIcEEEEfLNS1_14WireFormatLite9FieldTypeE9ELSE_2EE5ClearEv to i8*), i8* bitcast (i1 (%"class.google::protobuf::internal::MapEntryImpl.19"*)* @_ZNK6google8protobuf8internal12MapEntryImplIN13assist_ranker88TranslateRankerModel_TranslateLogisticRegressionModel_TargetLanguageWeightEntry_DoNotUseENS0_11MessageLiteENSt3__112basic_stringIcNS6_11char_traitsIcEENS6_9allocatorIcEEEEfLNS1_14WireFormatLite9FieldTypeE9ELSE_2EE13IsInitializedEv to i8*), i8* bitcast (void (%"class.std::__1::basic_string"*, %"class.google::protobuf::MessageLite"*)* @_ZNK6google8protobuf11MessageLite25InitializationErrorStringEv to i8*), i8* bitcast (void (%"class.google::protobuf::internal::MapEntryImpl.19"*, %"class.google::protobuf::MessageLite"*)* @_ZN6google8protobuf8internal12MapEntryImplIN13assist_ranker88TranslateRankerModel_TranslateLogisticRegressionModel_TargetLanguageWeightEntry_DoNotUseENS0_11MessageLiteENSt3__112basic_stringIcNS6_11char_traitsIcEENS6_9allocatorIcEEEEfLNS1_14WireFormatLite9FieldTypeE9ELSE_2EE21CheckTypeAndMergeFromERKS5_ to i8*), i8* bitcast (i64 (%"class.google::protobuf::internal::MapEntryImpl.19"*)* @_ZNK6google8protobuf8internal12MapEntryImplIN13assist_ranker88TranslateRankerModel_TranslateLogisticRegressionModel_TargetLanguageWeightEntry_DoNotUseENS0_11MessageLiteENSt3__112basic_stringIcNS6_11char_traitsIcEENS6_9allocatorIcEEEEfLNS1_14WireFormatLite9FieldTypeE9ELSE_2EE12ByteSizeLongEv to i8*), i8* bitcast (i32 (%"class.google::protobuf::internal::MapEntryImpl.19"*)* @_ZNK6google8protobuf8internal12MapEntryImplIN13assist_ranker88TranslateRankerModel_TranslateLogisticRegressionModel_TargetLanguageWeightEntry_DoNotUseENS0_11MessageLiteENSt3__112basic_stringIcNS6_11char_traitsIcEENS6_9allocatorIcEEEEfLNS1_14WireFormatLite9FieldTypeE9ELSE_2EE13GetCachedSizeEv to i8*), i8* bitcast (i8* (%"class.google::protobuf::internal::MapEntryImpl.19"*, i8*, %"class.google::protobuf::internal::ParseContext"*)* @_ZN6google8protobuf8internal12MapEntryImplIN13assist_ranker88TranslateRankerModel_TranslateLogisticRegressionModel_TargetLanguageWeightEntry_DoNotUseENS0_11MessageLiteENSt3__112basic_stringIcNS6_11char_traitsIcEENS6_9allocatorIcEEEEfLNS1_14WireFormatLite9FieldTypeE9ELSE_2EE14_InternalParseEPKcPNS1_12ParseContextE to i8*), i8* bitcast (i8* (%"class.google::protobuf::internal::MapEntryImpl.19"*, i8*, %"class.google::protobuf::io::EpsCopyOutputStream"*)* @_ZNK6google8protobuf8internal12MapEntryImplIN13assist_ranker88TranslateRankerModel_TranslateLogisticRegressionModel_TargetLanguageWeightEntry_DoNotUseENS0_11MessageLiteENSt3__112basic_stringIcNS6_11char_traitsIcEENS6_9allocatorIcEEEEfLNS1_14WireFormatLite9FieldTypeE9ELSE_2EE18_InternalSerializeEPhPNS0_2io19EpsCopyOutputStreamE to i8*), i8* bitcast (i8* (%"class.google::protobuf::MessageLite"*)* @_ZNK6google8protobuf11MessageLite16InternalGetTableEv to i8*), i8* bitcast (%"class.std::__1::basic_string"* (%"class.google::protobuf::internal::MapEntryImpl.19"*)* @_ZNK6google8protobuf8internal12MapEntryImplIN13assist_ranker88TranslateRankerModel_TranslateLogisticRegressionModel_TargetLanguageWeightEntry_DoNotUseENS0_11MessageLiteENSt3__112basic_stringIcNS6_11char_traitsIcEENS6_9allocatorIcEEEEfLNS1_14WireFormatLite9FieldTypeE9ELSE_2EE3keyEv to i8*), i8* bitcast (float* (%"class.google::protobuf::internal::MapEntryImpl.19"*)* @_ZNK6google8protobuf8internal12MapEntryImplIN13assist_ranker88TranslateRankerModel_TranslateLogisticRegressionModel_TargetLanguageWeightEntry_DoNotUseENS0_11MessageLiteENSt3__112basic_stringIcNS6_11char_traitsIcEENS6_9allocatorIcEEEEfLNS1_14WireFormatLite9FieldTypeE9ELSE_2EE5valueEv to i8*)] }, comdat, align 8
@_ZTVN6google8protobuf8internal12MapEntryLiteIN13assist_ranker81TranslateRankerModel_TranslateLogisticRegressionModel_CountryWeightEntry_DoNotUseENSt3__112basic_stringIcNS5_11char_traitsIcEENS5_9allocatorIcEEEEfLNS1_14WireFormatLite9FieldTypeE9ELSD_2EEE = linkonce_odr hidden unnamed_addr constant { [18 x i8*] } { [18 x i8*] [i8* null, i8* null, i8* bitcast (void (%"class.google::protobuf::internal::MapEntryLite.20"*)* @_ZN6google8protobuf8internal12MapEntryLiteIN13assist_ranker81TranslateRankerModel_TranslateLogisticRegressionModel_CountryWeightEntry_DoNotUseENSt3__112basic_stringIcNS5_11char_traitsIcEENS5_9allocatorIcEEEEfLNS1_14WireFormatLite9FieldTypeE9ELSD_2EED2Ev to i8*), i8* bitcast (void (%"class.google::protobuf::internal::MapEntryLite.20"*)* @_ZN6google8protobuf8internal12MapEntryLiteIN13assist_ranker81TranslateRankerModel_TranslateLogisticRegressionModel_CountryWeightEntry_DoNotUseENSt3__112basic_stringIcNS5_11char_traitsIcEENS5_9allocatorIcEEEEfLNS1_14WireFormatLite9FieldTypeE9ELSD_2EED0Ev to i8*), i8* bitcast (void (%"class.std::__1::basic_string"*, %"class.google::protobuf::internal::MapEntryImpl.21"*)* @_ZNK6google8protobuf8internal12MapEntryImplIN13assist_ranker81TranslateRankerModel_TranslateLogisticRegressionModel_CountryWeightEntry_DoNotUseENS0_11MessageLiteENSt3__112basic_stringIcNS6_11char_traitsIcEENS6_9allocatorIcEEEEfLNS1_14WireFormatLite9FieldTypeE9ELSE_2EE11GetTypeNameEv to i8*), i8* bitcast (%"class.google::protobuf::MessageLite"* (%"class.google::protobuf::internal::MapEntryImpl.21"*)* @_ZNK6google8protobuf8internal12MapEntryImplIN13assist_ranker81TranslateRankerModel_TranslateLogisticRegressionModel_CountryWeightEntry_DoNotUseENS0_11MessageLiteENSt3__112basic_stringIcNS6_11char_traitsIcEENS6_9allocatorIcEEEEfLNS1_14WireFormatLite9FieldTypeE9ELSE_2EE3NewEv to i8*), i8* bitcast (%"class.google::protobuf::MessageLite"* (%"class.google::protobuf::internal::MapEntryImpl.21"*, %"class.google::protobuf::Arena"*)* @_ZNK6google8protobuf8internal12MapEntryImplIN13assist_ranker81TranslateRankerModel_TranslateLogisticRegressionModel_CountryWeightEntry_DoNotUseENS0_11MessageLiteENSt3__112basic_stringIcNS6_11char_traitsIcEENS6_9allocatorIcEEEEfLNS1_14WireFormatLite9FieldTypeE9ELSE_2EE3NewEPNS0_5ArenaE to i8*), i8* bitcast (void (%"class.google::protobuf::internal::MapEntryImpl.21"*)* @_ZN6google8protobuf8internal12MapEntryImplIN13assist_ranker81TranslateRankerModel_TranslateLogisticRegressionModel_CountryWeightEntry_DoNotUseENS0_11MessageLiteENSt3__112basic_stringIcNS6_11char_traitsIcEENS6_9allocatorIcEEEEfLNS1_14WireFormatLite9FieldTypeE9ELSE_2EE5ClearEv to i8*), i8* bitcast (i1 (%"class.google::protobuf::internal::MapEntryImpl.21"*)* @_ZNK6google8protobuf8internal12MapEntryImplIN13assist_ranker81TranslateRankerModel_TranslateLogisticRegressionModel_CountryWeightEntry_DoNotUseENS0_11MessageLiteENSt3__112basic_stringIcNS6_11char_traitsIcEENS6_9allocatorIcEEEEfLNS1_14WireFormatLite9FieldTypeE9ELSE_2EE13IsInitializedEv to i8*), i8* bitcast (void (%"class.std::__1::basic_string"*, %"class.google::protobuf::MessageLite"*)* @_ZNK6google8protobuf11MessageLite25InitializationErrorStringEv to i8*), i8* bitcast (void (%"class.google::protobuf::internal::MapEntryImpl.21"*, %"class.google::protobuf::MessageLite"*)* @_ZN6google8protobuf8internal12MapEntryImplIN13assist_ranker81TranslateRankerModel_TranslateLogisticRegressionModel_CountryWeightEntry_DoNotUseENS0_11MessageLiteENSt3__112basic_stringIcNS6_11char_traitsIcEENS6_9allocatorIcEEEEfLNS1_14WireFormatLite9FieldTypeE9ELSE_2EE21CheckTypeAndMergeFromERKS5_ to i8*), i8* bitcast (i64 (%"class.google::protobuf::internal::MapEntryImpl.21"*)* @_ZNK6google8protobuf8internal12MapEntryImplIN13assist_ranker81TranslateRankerModel_TranslateLogisticRegressionModel_CountryWeightEntry_DoNotUseENS0_11MessageLiteENSt3__112basic_stringIcNS6_11char_traitsIcEENS6_9allocatorIcEEEEfLNS1_14WireFormatLite9FieldTypeE9ELSE_2EE12ByteSizeLongEv to i8*), i8* bitcast (i32 (%"class.google::protobuf::internal::MapEntryImpl.21"*)* @_ZNK6google8protobuf8internal12MapEntryImplIN13assist_ranker81TranslateRankerModel_TranslateLogisticRegressionModel_CountryWeightEntry_DoNotUseENS0_11MessageLiteENSt3__112basic_stringIcNS6_11char_traitsIcEENS6_9allocatorIcEEEEfLNS1_14WireFormatLite9FieldTypeE9ELSE_2EE13GetCachedSizeEv to i8*), i8* bitcast (i8* (%"class.google::protobuf::internal::MapEntryImpl.21"*, i8*, %"class.google::protobuf::internal::ParseContext"*)* @_ZN6google8protobuf8internal12MapEntryImplIN13assist_ranker81TranslateRankerModel_TranslateLogisticRegressionModel_CountryWeightEntry_DoNotUseENS0_11MessageLiteENSt3__112basic_stringIcNS6_11char_traitsIcEENS6_9allocatorIcEEEEfLNS1_14WireFormatLite9FieldTypeE9ELSE_2EE14_InternalParseEPKcPNS1_12ParseContextE to i8*), i8* bitcast (i8* (%"class.google::protobuf::internal::MapEntryImpl.21"*, i8*, %"class.google::protobuf::io::EpsCopyOutputStream"*)* @_ZNK6google8protobuf8internal12MapEntryImplIN13assist_ranker81TranslateRankerModel_TranslateLogisticRegressionModel_CountryWeightEntry_DoNotUseENS0_11MessageLiteENSt3__112basic_stringIcNS6_11char_traitsIcEENS6_9allocatorIcEEEEfLNS1_14WireFormatLite9FieldTypeE9ELSE_2EE18_InternalSerializeEPhPNS0_2io19EpsCopyOutputStreamE to i8*), i8* bitcast (i8* (%"class.google::protobuf::MessageLite"*)* @_ZNK6google8protobuf11MessageLite16InternalGetTableEv to i8*), i8* bitcast (%"class.std::__1::basic_string"* (%"class.google::protobuf::internal::MapEntryImpl.21"*)* @_ZNK6google8protobuf8internal12MapEntryImplIN13assist_ranker81TranslateRankerModel_TranslateLogisticRegressionModel_CountryWeightEntry_DoNotUseENS0_11MessageLiteENSt3__112basic_stringIcNS6_11char_traitsIcEENS6_9allocatorIcEEEEfLNS1_14WireFormatLite9FieldTypeE9ELSE_2EE3keyEv to i8*), i8* bitcast (float* (%"class.google::protobuf::internal::MapEntryImpl.21"*)* @_ZNK6google8protobuf8internal12MapEntryImplIN13assist_ranker81TranslateRankerModel_TranslateLogisticRegressionModel_CountryWeightEntry_DoNotUseENS0_11MessageLiteENSt3__112basic_stringIcNS6_11char_traitsIcEENS6_9allocatorIcEEEEfLNS1_14WireFormatLite9FieldTypeE9ELSE_2EE5valueEv to i8*)] }, comdat, align 8
@_ZTVN6google8protobuf8internal12MapEntryImplIN13assist_ranker81TranslateRankerModel_TranslateLogisticRegressionModel_CountryWeightEntry_DoNotUseENS0_11MessageLiteENSt3__112basic_stringIcNS6_11char_traitsIcEENS6_9allocatorIcEEEEfLNS1_14WireFormatLite9FieldTypeE9ELSE_2EEE = linkonce_odr hidden unnamed_addr constant { [18 x i8*] } { [18 x i8*] [i8* null, i8* null, i8* bitcast (void (%"class.google::protobuf::internal::MapEntryImpl.21"*)* @_ZN6google8protobuf8internal12MapEntryImplIN13assist_ranker81TranslateRankerModel_TranslateLogisticRegressionModel_CountryWeightEntry_DoNotUseENS0_11MessageLiteENSt3__112basic_stringIcNS6_11char_traitsIcEENS6_9allocatorIcEEEEfLNS1_14WireFormatLite9FieldTypeE9ELSE_2EED2Ev to i8*), i8* bitcast (void (%"class.google::protobuf::internal::MapEntryImpl.21"*)* @_ZN6google8protobuf8internal12MapEntryImplIN13assist_ranker81TranslateRankerModel_TranslateLogisticRegressionModel_CountryWeightEntry_DoNotUseENS0_11MessageLiteENSt3__112basic_stringIcNS6_11char_traitsIcEENS6_9allocatorIcEEEEfLNS1_14WireFormatLite9FieldTypeE9ELSE_2EED0Ev to i8*), i8* bitcast (void (%"class.std::__1::basic_string"*, %"class.google::protobuf::internal::MapEntryImpl.21"*)* @_ZNK6google8protobuf8internal12MapEntryImplIN13assist_ranker81TranslateRankerModel_TranslateLogisticRegressionModel_CountryWeightEntry_DoNotUseENS0_11MessageLiteENSt3__112basic_stringIcNS6_11char_traitsIcEENS6_9allocatorIcEEEEfLNS1_14WireFormatLite9FieldTypeE9ELSE_2EE11GetTypeNameEv to i8*), i8* bitcast (%"class.google::protobuf::MessageLite"* (%"class.google::protobuf::internal::MapEntryImpl.21"*)* @_ZNK6google8protobuf8internal12MapEntryImplIN13assist_ranker81TranslateRankerModel_TranslateLogisticRegressionModel_CountryWeightEntry_DoNotUseENS0_11MessageLiteENSt3__112basic_stringIcNS6_11char_traitsIcEENS6_9allocatorIcEEEEfLNS1_14WireFormatLite9FieldTypeE9ELSE_2EE3NewEv to i8*), i8* bitcast (%"class.google::protobuf::MessageLite"* (%"class.google::protobuf::internal::MapEntryImpl.21"*, %"class.google::protobuf::Arena"*)* @_ZNK6google8protobuf8internal12MapEntryImplIN13assist_ranker81TranslateRankerModel_TranslateLogisticRegressionModel_CountryWeightEntry_DoNotUseENS0_11MessageLiteENSt3__112basic_stringIcNS6_11char_traitsIcEENS6_9allocatorIcEEEEfLNS1_14WireFormatLite9FieldTypeE9ELSE_2EE3NewEPNS0_5ArenaE to i8*), i8* bitcast (void (%"class.google::protobuf::internal::MapEntryImpl.21"*)* @_ZN6google8protobuf8internal12MapEntryImplIN13assist_ranker81TranslateRankerModel_TranslateLogisticRegressionModel_CountryWeightEntry_DoNotUseENS0_11MessageLiteENSt3__112basic_stringIcNS6_11char_traitsIcEENS6_9allocatorIcEEEEfLNS1_14WireFormatLite9FieldTypeE9ELSE_2EE5ClearEv to i8*), i8* bitcast (i1 (%"class.google::protobuf::internal::MapEntryImpl.21"*)* @_ZNK6google8protobuf8internal12MapEntryImplIN13assist_ranker81TranslateRankerModel_TranslateLogisticRegressionModel_CountryWeightEntry_DoNotUseENS0_11MessageLiteENSt3__112basic_stringIcNS6_11char_traitsIcEENS6_9allocatorIcEEEEfLNS1_14WireFormatLite9FieldTypeE9ELSE_2EE13IsInitializedEv to i8*), i8* bitcast (void (%"class.std::__1::basic_string"*, %"class.google::protobuf::MessageLite"*)* @_ZNK6google8protobuf11MessageLite25InitializationErrorStringEv to i8*), i8* bitcast (void (%"class.google::protobuf::internal::MapEntryImpl.21"*, %"class.google::protobuf::MessageLite"*)* @_ZN6google8protobuf8internal12MapEntryImplIN13assist_ranker81TranslateRankerModel_TranslateLogisticRegressionModel_CountryWeightEntry_DoNotUseENS0_11MessageLiteENSt3__112basic_stringIcNS6_11char_traitsIcEENS6_9allocatorIcEEEEfLNS1_14WireFormatLite9FieldTypeE9ELSE_2EE21CheckTypeAndMergeFromERKS5_ to i8*), i8* bitcast (i64 (%"class.google::protobuf::internal::MapEntryImpl.21"*)* @_ZNK6google8protobuf8internal12MapEntryImplIN13assist_ranker81TranslateRankerModel_TranslateLogisticRegressionModel_CountryWeightEntry_DoNotUseENS0_11MessageLiteENSt3__112basic_stringIcNS6_11char_traitsIcEENS6_9allocatorIcEEEEfLNS1_14WireFormatLite9FieldTypeE9ELSE_2EE12ByteSizeLongEv to i8*), i8* bitcast (i32 (%"class.google::protobuf::internal::MapEntryImpl.21"*)* @_ZNK6google8protobuf8internal12MapEntryImplIN13assist_ranker81TranslateRankerModel_TranslateLogisticRegressionModel_CountryWeightEntry_DoNotUseENS0_11MessageLiteENSt3__112basic_stringIcNS6_11char_traitsIcEENS6_9allocatorIcEEEEfLNS1_14WireFormatLite9FieldTypeE9ELSE_2EE13GetCachedSizeEv to i8*), i8* bitcast (i8* (%"class.google::protobuf::internal::MapEntryImpl.21"*, i8*, %"class.google::protobuf::internal::ParseContext"*)* @_ZN6google8protobuf8internal12MapEntryImplIN13assist_ranker81TranslateRankerModel_TranslateLogisticRegressionModel_CountryWeightEntry_DoNotUseENS0_11MessageLiteENSt3__112basic_stringIcNS6_11char_traitsIcEENS6_9allocatorIcEEEEfLNS1_14WireFormatLite9FieldTypeE9ELSE_2EE14_InternalParseEPKcPNS1_12ParseContextE to i8*), i8* bitcast (i8* (%"class.google::protobuf::internal::MapEntryImpl.21"*, i8*, %"class.google::protobuf::io::EpsCopyOutputStream"*)* @_ZNK6google8protobuf8internal12MapEntryImplIN13assist_ranker81TranslateRankerModel_TranslateLogisticRegressionModel_CountryWeightEntry_DoNotUseENS0_11MessageLiteENSt3__112basic_stringIcNS6_11char_traitsIcEENS6_9allocatorIcEEEEfLNS1_14WireFormatLite9FieldTypeE9ELSE_2EE18_InternalSerializeEPhPNS0_2io19EpsCopyOutputStreamE to i8*), i8* bitcast (i8* (%"class.google::protobuf::MessageLite"*)* @_ZNK6google8protobuf11MessageLite16InternalGetTableEv to i8*), i8* bitcast (%"class.std::__1::basic_string"* (%"class.google::protobuf::internal::MapEntryImpl.21"*)* @_ZNK6google8protobuf8internal12MapEntryImplIN13assist_ranker81TranslateRankerModel_TranslateLogisticRegressionModel_CountryWeightEntry_DoNotUseENS0_11MessageLiteENSt3__112basic_stringIcNS6_11char_traitsIcEENS6_9allocatorIcEEEEfLNS1_14WireFormatLite9FieldTypeE9ELSE_2EE3keyEv to i8*), i8* bitcast (float* (%"class.google::protobuf::internal::MapEntryImpl.21"*)* @_ZNK6google8protobuf8internal12MapEntryImplIN13assist_ranker81TranslateRankerModel_TranslateLogisticRegressionModel_CountryWeightEntry_DoNotUseENS0_11MessageLiteENSt3__112basic_stringIcNS6_11char_traitsIcEENS6_9allocatorIcEEEEfLNS1_14WireFormatLite9FieldTypeE9ELSE_2EE5valueEv to i8*)] }, comdat, align 8
@_ZTVN6google8protobuf8internal12MapEntryLiteIN13assist_ranker80TranslateRankerModel_TranslateLogisticRegressionModel_LocaleWeightEntry_DoNotUseENSt3__112basic_stringIcNS5_11char_traitsIcEENS5_9allocatorIcEEEEfLNS1_14WireFormatLite9FieldTypeE9ELSD_2EEE = linkonce_odr hidden unnamed_addr constant { [18 x i8*] } { [18 x i8*] [i8* null, i8* null, i8* bitcast (void (%"class.google::protobuf::internal::MapEntryLite.22"*)* @_ZN6google8protobuf8internal12MapEntryLiteIN13assist_ranker80TranslateRankerModel_TranslateLogisticRegressionModel_LocaleWeightEntry_DoNotUseENSt3__112basic_stringIcNS5_11char_traitsIcEENS5_9allocatorIcEEEEfLNS1_14WireFormatLite9FieldTypeE9ELSD_2EED2Ev to i8*), i8* bitcast (void (%"class.google::protobuf::internal::MapEntryLite.22"*)* @_ZN6google8protobuf8internal12MapEntryLiteIN13assist_ranker80TranslateRankerModel_TranslateLogisticRegressionModel_LocaleWeightEntry_DoNotUseENSt3__112basic_stringIcNS5_11char_traitsIcEENS5_9allocatorIcEEEEfLNS1_14WireFormatLite9FieldTypeE9ELSD_2EED0Ev to i8*), i8* bitcast (void (%"class.std::__1::basic_string"*, %"class.google::protobuf::internal::MapEntryImpl.23"*)* @_ZNK6google8protobuf8internal12MapEntryImplIN13assist_ranker80TranslateRankerModel_TranslateLogisticRegressionModel_LocaleWeightEntry_DoNotUseENS0_11MessageLiteENSt3__112basic_stringIcNS6_11char_traitsIcEENS6_9allocatorIcEEEEfLNS1_14WireFormatLite9FieldTypeE9ELSE_2EE11GetTypeNameEv to i8*), i8* bitcast (%"class.google::protobuf::MessageLite"* (%"class.google::protobuf::internal::MapEntryImpl.23"*)* @_ZNK6google8protobuf8internal12MapEntryImplIN13assist_ranker80TranslateRankerModel_TranslateLogisticRegressionModel_LocaleWeightEntry_DoNotUseENS0_11MessageLiteENSt3__112basic_stringIcNS6_11char_traitsIcEENS6_9allocatorIcEEEEfLNS1_14WireFormatLite9FieldTypeE9ELSE_2EE3NewEv to i8*), i8* bitcast (%"class.google::protobuf::MessageLite"* (%"class.google::protobuf::internal::MapEntryImpl.23"*, %"class.google::protobuf::Arena"*)* @_ZNK6google8protobuf8internal12MapEntryImplIN13assist_ranker80TranslateRankerModel_TranslateLogisticRegressionModel_LocaleWeightEntry_DoNotUseENS0_11MessageLiteENSt3__112basic_stringIcNS6_11char_traitsIcEENS6_9allocatorIcEEEEfLNS1_14WireFormatLite9FieldTypeE9ELSE_2EE3NewEPNS0_5ArenaE to i8*), i8* bitcast (void (%"class.google::protobuf::internal::MapEntryImpl.23"*)* @_ZN6google8protobuf8internal12MapEntryImplIN13assist_ranker80TranslateRankerModel_TranslateLogisticRegressionModel_LocaleWeightEntry_DoNotUseENS0_11MessageLiteENSt3__112basic_stringIcNS6_11char_traitsIcEENS6_9allocatorIcEEEEfLNS1_14WireFormatLite9FieldTypeE9ELSE_2EE5ClearEv to i8*), i8* bitcast (i1 (%"class.google::protobuf::internal::MapEntryImpl.23"*)* @_ZNK6google8protobuf8internal12MapEntryImplIN13assist_ranker80TranslateRankerModel_TranslateLogisticRegressionModel_LocaleWeightEntry_DoNotUseENS0_11MessageLiteENSt3__112basic_stringIcNS6_11char_traitsIcEENS6_9allocatorIcEEEEfLNS1_14WireFormatLite9FieldTypeE9ELSE_2EE13IsInitializedEv to i8*), i8* bitcast (void (%"class.std::__1::basic_string"*, %"class.google::protobuf::MessageLite"*)* @_ZNK6google8protobuf11MessageLite25InitializationErrorStringEv to i8*), i8* bitcast (void (%"class.google::protobuf::internal::MapEntryImpl.23"*, %"class.google::protobuf::MessageLite"*)* @_ZN6google8protobuf8internal12MapEntryImplIN13assist_ranker80TranslateRankerModel_TranslateLogisticRegressionModel_LocaleWeightEntry_DoNotUseENS0_11MessageLiteENSt3__112basic_stringIcNS6_11char_traitsIcEENS6_9allocatorIcEEEEfLNS1_14WireFormatLite9FieldTypeE9ELSE_2EE21CheckTypeAndMergeFromERKS5_ to i8*), i8* bitcast (i64 (%"class.google::protobuf::internal::MapEntryImpl.23"*)* @_ZNK6google8protobuf8internal12MapEntryImplIN13assist_ranker80TranslateRankerModel_TranslateLogisticRegressionModel_LocaleWeightEntry_DoNotUseENS0_11MessageLiteENSt3__112basic_stringIcNS6_11char_traitsIcEENS6_9allocatorIcEEEEfLNS1_14WireFormatLite9FieldTypeE9ELSE_2EE12ByteSizeLongEv to i8*), i8* bitcast (i32 (%"class.google::protobuf::internal::MapEntryImpl.23"*)* @_ZNK6google8protobuf8internal12MapEntryImplIN13assist_ranker80TranslateRankerModel_TranslateLogisticRegressionModel_LocaleWeightEntry_DoNotUseENS0_11MessageLiteENSt3__112basic_stringIcNS6_11char_traitsIcEENS6_9allocatorIcEEEEfLNS1_14WireFormatLite9FieldTypeE9ELSE_2EE13GetCachedSizeEv to i8*), i8* bitcast (i8* (%"class.google::protobuf::internal::MapEntryImpl.23"*, i8*, %"class.google::protobuf::internal::ParseContext"*)* @_ZN6google8protobuf8internal12MapEntryImplIN13assist_ranker80TranslateRankerModel_TranslateLogisticRegressionModel_LocaleWeightEntry_DoNotUseENS0_11MessageLiteENSt3__112basic_stringIcNS6_11char_traitsIcEENS6_9allocatorIcEEEEfLNS1_14WireFormatLite9FieldTypeE9ELSE_2EE14_InternalParseEPKcPNS1_12ParseContextE to i8*), i8* bitcast (i8* (%"class.google::protobuf::internal::MapEntryImpl.23"*, i8*, %"class.google::protobuf::io::EpsCopyOutputStream"*)* @_ZNK6google8protobuf8internal12MapEntryImplIN13assist_ranker80TranslateRankerModel_TranslateLogisticRegressionModel_LocaleWeightEntry_DoNotUseENS0_11MessageLiteENSt3__112basic_stringIcNS6_11char_traitsIcEENS6_9allocatorIcEEEEfLNS1_14WireFormatLite9FieldTypeE9ELSE_2EE18_InternalSerializeEPhPNS0_2io19EpsCopyOutputStreamE to i8*), i8* bitcast (i8* (%"class.google::protobuf::MessageLite"*)* @_ZNK6google8protobuf11MessageLite16InternalGetTableEv to i8*), i8* bitcast (%"class.std::__1::basic_string"* (%"class.google::protobuf::internal::MapEntryImpl.23"*)* @_ZNK6google8protobuf8internal12MapEntryImplIN13assist_ranker80TranslateRankerModel_TranslateLogisticRegressionModel_LocaleWeightEntry_DoNotUseENS0_11MessageLiteENSt3__112basic_stringIcNS6_11char_traitsIcEENS6_9allocatorIcEEEEfLNS1_14WireFormatLite9FieldTypeE9ELSE_2EE3keyEv to i8*), i8* bitcast (float* (%"class.google::protobuf::internal::MapEntryImpl.23"*)* @_ZNK6google8protobuf8internal12MapEntryImplIN13assist_ranker80TranslateRankerModel_TranslateLogisticRegressionModel_LocaleWeightEntry_DoNotUseENS0_11MessageLiteENSt3__112basic_stringIcNS6_11char_traitsIcEENS6_9allocatorIcEEEEfLNS1_14WireFormatLite9FieldTypeE9ELSE_2EE5valueEv to i8*)] }, comdat, align 8
@_ZTVN6google8protobuf8internal12MapEntryImplIN13assist_ranker80TranslateRankerModel_TranslateLogisticRegressionModel_LocaleWeightEntry_DoNotUseENS0_11MessageLiteENSt3__112basic_stringIcNS6_11char_traitsIcEENS6_9allocatorIcEEEEfLNS1_14WireFormatLite9FieldTypeE9ELSE_2EEE = linkonce_odr hidden unnamed_addr constant { [18 x i8*] } { [18 x i8*] [i8* null, i8* null, i8* bitcast (void (%"class.google::protobuf::internal::MapEntryImpl.23"*)* @_ZN6google8protobuf8internal12MapEntryImplIN13assist_ranker80TranslateRankerModel_TranslateLogisticRegressionModel_LocaleWeightEntry_DoNotUseENS0_11MessageLiteENSt3__112basic_stringIcNS6_11char_traitsIcEENS6_9allocatorIcEEEEfLNS1_14WireFormatLite9FieldTypeE9ELSE_2EED2Ev to i8*), i8* bitcast (void (%"class.google::protobuf::internal::MapEntryImpl.23"*)* @_ZN6google8protobuf8internal12MapEntryImplIN13assist_ranker80TranslateRankerModel_TranslateLogisticRegressionModel_LocaleWeightEntry_DoNotUseENS0_11MessageLiteENSt3__112basic_stringIcNS6_11char_traitsIcEENS6_9allocatorIcEEEEfLNS1_14WireFormatLite9FieldTypeE9ELSE_2EED0Ev to i8*), i8* bitcast (void (%"class.std::__1::basic_string"*, %"class.google::protobuf::internal::MapEntryImpl.23"*)* @_ZNK6google8protobuf8internal12MapEntryImplIN13assist_ranker80TranslateRankerModel_TranslateLogisticRegressionModel_LocaleWeightEntry_DoNotUseENS0_11MessageLiteENSt3__112basic_stringIcNS6_11char_traitsIcEENS6_9allocatorIcEEEEfLNS1_14WireFormatLite9FieldTypeE9ELSE_2EE11GetTypeNameEv to i8*), i8* bitcast (%"class.google::protobuf::MessageLite"* (%"class.google::protobuf::internal::MapEntryImpl.23"*)* @_ZNK6google8protobuf8internal12MapEntryImplIN13assist_ranker80TranslateRankerModel_TranslateLogisticRegressionModel_LocaleWeightEntry_DoNotUseENS0_11MessageLiteENSt3__112basic_stringIcNS6_11char_traitsIcEENS6_9allocatorIcEEEEfLNS1_14WireFormatLite9FieldTypeE9ELSE_2EE3NewEv to i8*), i8* bitcast (%"class.google::protobuf::MessageLite"* (%"class.google::protobuf::internal::MapEntryImpl.23"*, %"class.google::protobuf::Arena"*)* @_ZNK6google8protobuf8internal12MapEntryImplIN13assist_ranker80TranslateRankerModel_TranslateLogisticRegressionModel_LocaleWeightEntry_DoNotUseENS0_11MessageLiteENSt3__112basic_stringIcNS6_11char_traitsIcEENS6_9allocatorIcEEEEfLNS1_14WireFormatLite9FieldTypeE9ELSE_2EE3NewEPNS0_5ArenaE to i8*), i8* bitcast (void (%"class.google::protobuf::internal::MapEntryImpl.23"*)* @_ZN6google8protobuf8internal12MapEntryImplIN13assist_ranker80TranslateRankerModel_TranslateLogisticRegressionModel_LocaleWeightEntry_DoNotUseENS0_11MessageLiteENSt3__112basic_stringIcNS6_11char_traitsIcEENS6_9allocatorIcEEEEfLNS1_14WireFormatLite9FieldTypeE9ELSE_2EE5ClearEv to i8*), i8* bitcast (i1 (%"class.google::protobuf::internal::MapEntryImpl.23"*)* @_ZNK6google8protobuf8internal12MapEntryImplIN13assist_ranker80TranslateRankerModel_TranslateLogisticRegressionModel_LocaleWeightEntry_DoNotUseENS0_11MessageLiteENSt3__112basic_stringIcNS6_11char_traitsIcEENS6_9allocatorIcEEEEfLNS1_14WireFormatLite9FieldTypeE9ELSE_2EE13IsInitializedEv to i8*), i8* bitcast (void (%"class.std::__1::basic_string"*, %"class.google::protobuf::MessageLite"*)* @_ZNK6google8protobuf11MessageLite25InitializationErrorStringEv to i8*), i8* bitcast (void (%"class.google::protobuf::internal::MapEntryImpl.23"*, %"class.google::protobuf::MessageLite"*)* @_ZN6google8protobuf8internal12MapEntryImplIN13assist_ranker80TranslateRankerModel_TranslateLogisticRegressionModel_LocaleWeightEntry_DoNotUseENS0_11MessageLiteENSt3__112basic_stringIcNS6_11char_traitsIcEENS6_9allocatorIcEEEEfLNS1_14WireFormatLite9FieldTypeE9ELSE_2EE21CheckTypeAndMergeFromERKS5_ to i8*), i8* bitcast (i64 (%"class.google::protobuf::internal::MapEntryImpl.23"*)* @_ZNK6google8protobuf8internal12MapEntryImplIN13assist_ranker80TranslateRankerModel_TranslateLogisticRegressionModel_LocaleWeightEntry_DoNotUseENS0_11MessageLiteENSt3__112basic_stringIcNS6_11char_traitsIcEENS6_9allocatorIcEEEEfLNS1_14WireFormatLite9FieldTypeE9ELSE_2EE12ByteSizeLongEv to i8*), i8* bitcast (i32 (%"class.google::protobuf::internal::MapEntryImpl.23"*)* @_ZNK6google8protobuf8internal12MapEntryImplIN13assist_ranker80TranslateRankerModel_TranslateLogisticRegressionModel_LocaleWeightEntry_DoNotUseENS0_11MessageLiteENSt3__112basic_stringIcNS6_11char_traitsIcEENS6_9allocatorIcEEEEfLNS1_14WireFormatLite9FieldTypeE9ELSE_2EE13GetCachedSizeEv to i8*), i8* bitcast (i8* (%"class.google::protobuf::internal::MapEntryImpl.23"*, i8*, %"class.google::protobuf::internal::ParseContext"*)* @_ZN6google8protobuf8internal12MapEntryImplIN13assist_ranker80TranslateRankerModel_TranslateLogisticRegressionModel_LocaleWeightEntry_DoNotUseENS0_11MessageLiteENSt3__112basic_stringIcNS6_11char_traitsIcEENS6_9allocatorIcEEEEfLNS1_14WireFormatLite9FieldTypeE9ELSE_2EE14_InternalParseEPKcPNS1_12ParseContextE to i8*), i8* bitcast (i8* (%"class.google::protobuf::internal::MapEntryImpl.23"*, i8*, %"class.google::protobuf::io::EpsCopyOutputStream"*)* @_ZNK6google8protobuf8internal12MapEntryImplIN13assist_ranker80TranslateRankerModel_TranslateLogisticRegressionModel_LocaleWeightEntry_DoNotUseENS0_11MessageLiteENSt3__112basic_stringIcNS6_11char_traitsIcEENS6_9allocatorIcEEEEfLNS1_14WireFormatLite9FieldTypeE9ELSE_2EE18_InternalSerializeEPhPNS0_2io19EpsCopyOutputStreamE to i8*), i8* bitcast (i8* (%"class.google::protobuf::MessageLite"*)* @_ZNK6google8protobuf11MessageLite16InternalGetTableEv to i8*), i8* bitcast (%"class.std::__1::basic_string"* (%"class.google::protobuf::internal::MapEntryImpl.23"*)* @_ZNK6google8protobuf8internal12MapEntryImplIN13assist_ranker80TranslateRankerModel_TranslateLogisticRegressionModel_LocaleWeightEntry_DoNotUseENS0_11MessageLiteENSt3__112basic_stringIcNS6_11char_traitsIcEENS6_9allocatorIcEEEEfLNS1_14WireFormatLite9FieldTypeE9ELSE_2EE3keyEv to i8*), i8* bitcast (float* (%"class.google::protobuf::internal::MapEntryImpl.23"*)* @_ZNK6google8protobuf8internal12MapEntryImplIN13assist_ranker80TranslateRankerModel_TranslateLogisticRegressionModel_LocaleWeightEntry_DoNotUseENS0_11MessageLiteENSt3__112basic_stringIcNS6_11char_traitsIcEENS6_9allocatorIcEEEEfLNS1_14WireFormatLite9FieldTypeE9ELSE_2EE5valueEv to i8*)] }, comdat, align 8
@_ZN6google8protobuf8internal17kGlobalEmptyTableE = external constant [1 x i8*], align 8

@_ZN13assist_ranker88TranslateRankerModel_TranslateLogisticRegressionModel_SourceLanguageWeightEntry_DoNotUseC1Ev = hidden unnamed_addr alias void (%"class.assist_ranker::TranslateRankerModel_TranslateLogisticRegressionModel_SourceLanguageWeightEntry_DoNotUse"*), void (%"class.assist_ranker::TranslateRankerModel_TranslateLogisticRegressionModel_SourceLanguageWeightEntry_DoNotUse"*)* @_ZN13assist_ranker88TranslateRankerModel_TranslateLogisticRegressionModel_SourceLanguageWeightEntry_DoNotUseC2Ev
@_ZN13assist_ranker88TranslateRankerModel_TranslateLogisticRegressionModel_SourceLanguageWeightEntry_DoNotUseC1EPN6google8protobuf5ArenaE = hidden unnamed_addr alias void (%"class.assist_ranker::TranslateRankerModel_TranslateLogisticRegressionModel_SourceLanguageWeightEntry_DoNotUse"*, %"class.google::protobuf::Arena"*), void (%"class.assist_ranker::TranslateRankerModel_TranslateLogisticRegressionModel_SourceLanguageWeightEntry_DoNotUse"*, %"class.google::protobuf::Arena"*)* @_ZN13assist_ranker88TranslateRankerModel_TranslateLogisticRegressionModel_SourceLanguageWeightEntry_DoNotUseC2EPN6google8protobuf5ArenaE
@_ZN13assist_ranker88TranslateRankerModel_TranslateLogisticRegressionModel_TargetLanguageWeightEntry_DoNotUseC1Ev = hidden unnamed_addr alias void (%"class.assist_ranker::TranslateRankerModel_TranslateLogisticRegressionModel_TargetLanguageWeightEntry_DoNotUse"*), void (%"class.assist_ranker::TranslateRankerModel_TranslateLogisticRegressionModel_TargetLanguageWeightEntry_DoNotUse"*)* @_ZN13assist_ranker88TranslateRankerModel_TranslateLogisticRegressionModel_TargetLanguageWeightEntry_DoNotUseC2Ev
@_ZN13assist_ranker88TranslateRankerModel_TranslateLogisticRegressionModel_TargetLanguageWeightEntry_DoNotUseC1EPN6google8protobuf5ArenaE = hidden unnamed_addr alias void (%"class.assist_ranker::TranslateRankerModel_TranslateLogisticRegressionModel_TargetLanguageWeightEntry_DoNotUse"*, %"class.google::protobuf::Arena"*), void (%"class.assist_ranker::TranslateRankerModel_TranslateLogisticRegressionModel_TargetLanguageWeightEntry_DoNotUse"*, %"class.google::protobuf::Arena"*)* @_ZN13assist_ranker88TranslateRankerModel_TranslateLogisticRegressionModel_TargetLanguageWeightEntry_DoNotUseC2EPN6google8protobuf5ArenaE
@_ZN13assist_ranker81TranslateRankerModel_TranslateLogisticRegressionModel_CountryWeightEntry_DoNotUseC1Ev = hidden unnamed_addr alias void (%"class.assist_ranker::TranslateRankerModel_TranslateLogisticRegressionModel_CountryWeightEntry_DoNotUse"*), void (%"class.assist_ranker::TranslateRankerModel_TranslateLogisticRegressionModel_CountryWeightEntry_DoNotUse"*)* @_ZN13assist_ranker81TranslateRankerModel_TranslateLogisticRegressionModel_CountryWeightEntry_DoNotUseC2Ev
@_ZN13assist_ranker81TranslateRankerModel_TranslateLogisticRegressionModel_CountryWeightEntry_DoNotUseC1EPN6google8protobuf5ArenaE = hidden unnamed_addr alias void (%"class.assist_ranker::TranslateRankerModel_TranslateLogisticRegressionModel_CountryWeightEntry_DoNotUse"*, %"class.google::protobuf::Arena"*), void (%"class.assist_ranker::TranslateRankerModel_TranslateLogisticRegressionModel_CountryWeightEntry_DoNotUse"*, %"class.google::protobuf::Arena"*)* @_ZN13assist_ranker81TranslateRankerModel_TranslateLogisticRegressionModel_CountryWeightEntry_DoNotUseC2EPN6google8protobuf5ArenaE
@_ZN13assist_ranker80TranslateRankerModel_TranslateLogisticRegressionModel_LocaleWeightEntry_DoNotUseC1Ev = hidden unnamed_addr alias void (%"class.assist_ranker::TranslateRankerModel_TranslateLogisticRegressionModel_LocaleWeightEntry_DoNotUse"*), void (%"class.assist_ranker::TranslateRankerModel_TranslateLogisticRegressionModel_LocaleWeightEntry_DoNotUse"*)* @_ZN13assist_ranker80TranslateRankerModel_TranslateLogisticRegressionModel_LocaleWeightEntry_DoNotUseC2Ev
@_ZN13assist_ranker80TranslateRankerModel_TranslateLogisticRegressionModel_LocaleWeightEntry_DoNotUseC1EPN6google8protobuf5ArenaE = hidden unnamed_addr alias void (%"class.assist_ranker::TranslateRankerModel_TranslateLogisticRegressionModel_LocaleWeightEntry_DoNotUse"*, %"class.google::protobuf::Arena"*), void (%"class.assist_ranker::TranslateRankerModel_TranslateLogisticRegressionModel_LocaleWeightEntry_DoNotUse"*, %"class.google::protobuf::Arena"*)* @_ZN13assist_ranker80TranslateRankerModel_TranslateLogisticRegressionModel_LocaleWeightEntry_DoNotUseC2EPN6google8protobuf5ArenaE
@_ZN13assist_ranker53TranslateRankerModel_TranslateLogisticRegressionModelC1EPN6google8protobuf5ArenaE = hidden unnamed_addr alias void (%"class.assist_ranker::TranslateRankerModel_TranslateLogisticRegressionModel"*, %"class.google::protobuf::Arena"*), void (%"class.assist_ranker::TranslateRankerModel_TranslateLogisticRegressionModel"*, %"class.google::protobuf::Arena"*)* @_ZN13assist_ranker53TranslateRankerModel_TranslateLogisticRegressionModelC2EPN6google8protobuf5ArenaE
@_ZN13assist_ranker53TranslateRankerModel_TranslateLogisticRegressionModelC1ERKS0_ = hidden unnamed_addr alias void (%"class.assist_ranker::TranslateRankerModel_TranslateLogisticRegressionModel"*, %"class.assist_ranker::TranslateRankerModel_TranslateLogisticRegressionModel"*), void (%"class.assist_ranker::TranslateRankerModel_TranslateLogisticRegressionModel"*, %"class.assist_ranker::TranslateRankerModel_TranslateLogisticRegressionModel"*)* @_ZN13assist_ranker53TranslateRankerModel_TranslateLogisticRegressionModelC2ERKS0_
@_ZN13assist_ranker53TranslateRankerModel_TranslateLogisticRegressionModelD1Ev = hidden unnamed_addr alias void (%"class.assist_ranker::TranslateRankerModel_TranslateLogisticRegressionModel"*), void (%"class.assist_ranker::TranslateRankerModel_TranslateLogisticRegressionModel"*)* @_ZN13assist_ranker53TranslateRankerModel_TranslateLogisticRegressionModelD2Ev
@_ZN13assist_ranker20TranslateRankerModelC1EPN6google8protobuf5ArenaE = hidden unnamed_addr alias void (%"class.assist_ranker::TranslateRankerModel"*, %"class.google::protobuf::Arena"*), void (%"class.assist_ranker::TranslateRankerModel"*, %"class.google::protobuf::Arena"*)* @_ZN13assist_ranker20TranslateRankerModelC2EPN6google8protobuf5ArenaE
@_ZN13assist_ranker20TranslateRankerModelC1ERKS0_ = hidden unnamed_addr alias void (%"class.assist_ranker::TranslateRankerModel"*, %"class.assist_ranker::TranslateRankerModel"*), void (%"class.assist_ranker::TranslateRankerModel"*, %"class.assist_ranker::TranslateRankerModel"*)* @_ZN13assist_ranker20TranslateRankerModelC2ERKS0_
@_ZN13assist_ranker20TranslateRankerModelD1Ev = hidden unnamed_addr alias void (%"class.assist_ranker::TranslateRankerModel"*), void (%"class.assist_ranker::TranslateRankerModel"*)* @_ZN13assist_ranker20TranslateRankerModelD2Ev

; Function Attrs: nounwind ssp uwtable
define internal void @_ZL76InitDefaultsscc_info_TranslateRankerModel_translate_5franker_5fmodel_2eprotov() #0 {
  tail call void @_ZN6google8protobuf8internal13VerifyVersionEiiPKc(i32 3013000, i32 3013000, i8* getelementptr inbounds ([64 x i8], [64 x i8]* @.str, i64 0, i64 0)) #15
  store %"class.google::protobuf::Arena"* null, %"class.google::protobuf::Arena"** bitcast (i8* getelementptr inbounds (%"class.assist_ranker::TranslateRankerModelDefaultTypeInternal", %"class.assist_ranker::TranslateRankerModelDefaultTypeInternal"* @_ZN13assist_ranker39_TranslateRankerModel_default_instance_E, i64 0, i32 0, i32 0, i32 1, i64 0) to %"class.google::protobuf::Arena"**), align 8
  store i32 (...)** bitcast (i8** getelementptr inbounds ({ [16 x i8*] }, { [16 x i8*] }* @_ZTVN13assist_ranker20TranslateRankerModelE, i64 0, inrange i32 0, i64 2) to i32 (...)**), i32 (...)*** bitcast (%"class.assist_ranker::TranslateRankerModelDefaultTypeInternal"* @_ZN13assist_ranker39_TranslateRankerModel_default_instance_E to i32 (...)***), align 8
  store i32 0, i32* bitcast (i8* getelementptr inbounds (%"class.assist_ranker::TranslateRankerModelDefaultTypeInternal", %"class.assist_ranker::TranslateRankerModelDefaultTypeInternal"* @_ZN13assist_ranker39_TranslateRankerModel_default_instance_E, i64 0, i32 0, i32 0, i32 1, i64 8) to i32*), align 8
  store i32 0, i32* bitcast (i8* getelementptr inbounds (%"class.assist_ranker::TranslateRankerModelDefaultTypeInternal", %"class.assist_ranker::TranslateRankerModelDefaultTypeInternal"* @_ZN13assist_ranker39_TranslateRankerModel_default_instance_E, i64 0, i32 0, i32 0, i32 1, i64 12) to i32*), align 4
  %1 = load atomic i32, i32* getelementptr inbounds ({ { { { i32 } }, i32, i32, void ()* }, [1 x i8*] }, { { { { i32 } }, i32, i32, void ()* }, [1 x i8*] }* @scc_info_TranslateRankerModel_translate_5franker_5fmodel_2eproto, i64 0, i32 0, i32 0, i32 0, i32 0) acquire, align 8
  %2 = icmp eq i32 %1, 0
  br i1 %2, label %4, label %3, !prof !2

3:                                                ; preds = %0
  tail call void @_ZN6google8protobuf8internal11InitSCCImplEPNS1_11SCCInfoBaseE(%"struct.google::protobuf::internal::SCCInfoBase"* bitcast ({ { { { i32 } }, i32, i32, void ()* }, [1 x i8*] }* @scc_info_TranslateRankerModel_translate_5franker_5fmodel_2eproto to %"struct.google::protobuf::internal::SCCInfoBase"*)) #15
  br label %4

4:                                                ; preds = %0, %3
  store i32 0, i32* bitcast (i8* getelementptr inbounds (%"class.assist_ranker::TranslateRankerModelDefaultTypeInternal", %"class.assist_ranker::TranslateRankerModelDefaultTypeInternal"* @_ZN13assist_ranker39_TranslateRankerModel_default_instance_E, i64 0, i32 0, i32 0, i32 1, i64 16) to i32*), align 8
  store i32 0, i32* bitcast (i8* getelementptr inbounds (%"class.assist_ranker::TranslateRankerModelDefaultTypeInternal", %"class.assist_ranker::TranslateRankerModelDefaultTypeInternal"* @_ZN13assist_ranker39_TranslateRankerModel_default_instance_E, i64 0, i32 0, i32 0, i32 1, i64 32) to i32*), align 8
  tail call void @_ZN6google8protobuf8internal13OnShutdownRunEPFvPKvES3_(void (i8*)* nonnull @_ZN6google8protobuf8internal14DestroyMessageEPKv, i8* bitcast (%"class.assist_ranker::TranslateRankerModelDefaultTypeInternal"* @_ZN13assist_ranker39_TranslateRankerModel_default_instance_E to i8*)) #15
  ret void
}

; Function Attrs: nounwind ssp uwtable
define internal void @_ZL109InitDefaultsscc_info_TranslateRankerModel_TranslateLogisticRegressionModel_translate_5franker_5fmodel_2eprotov() #0 {
  tail call void @_ZN6google8protobuf8internal13VerifyVersionEiiPKc(i32 3013000, i32 3013000, i8* getelementptr inbounds ([64 x i8], [64 x i8]* @.str, i64 0, i64 0)) #15
  tail call void @_ZN13assist_ranker53TranslateRankerModel_TranslateLogisticRegressionModelC2EPN6google8protobuf5ArenaE(%"class.assist_ranker::TranslateRankerModel_TranslateLogisticRegressionModel"* bitcast (%"class.assist_ranker::TranslateRankerModel_TranslateLogisticRegressionModelDefaultTypeInternal"* @_ZN13assist_ranker72_TranslateRankerModel_TranslateLogisticRegressionModel_default_instance_E to %"class.assist_ranker::TranslateRankerModel_TranslateLogisticRegressionModel"*), %"class.google::protobuf::Arena"* null) #15
  tail call void @_ZN6google8protobuf8internal13OnShutdownRunEPFvPKvES3_(void (i8*)* nonnull @_ZN6google8protobuf8internal14DestroyMessageEPKv, i8* bitcast (%"class.assist_ranker::TranslateRankerModel_TranslateLogisticRegressionModelDefaultTypeInternal"* @_ZN13assist_ranker72_TranslateRankerModel_TranslateLogisticRegressionModel_default_instance_E to i8*)) #15
  ret void
}

; Function Attrs: nounwind ssp uwtable
define internal void @_ZL137InitDefaultsscc_info_TranslateRankerModel_TranslateLogisticRegressionModel_CountryWeightEntry_DoNotUse_translate_5franker_5fmodel_2eprotov() #0 {
  tail call void @_ZN6google8protobuf8internal13VerifyVersionEiiPKc(i32 3013000, i32 3013000, i8* getelementptr inbounds ([64 x i8], [64 x i8]* @.str, i64 0, i64 0)) #15
  store i8* null, i8** bitcast (i8* getelementptr inbounds (%"class.assist_ranker::TranslateRankerModel_TranslateLogisticRegressionModel_CountryWeightEntry_DoNotUseDefaultTypeInternal", %"class.assist_ranker::TranslateRankerModel_TranslateLogisticRegressionModel_CountryWeightEntry_DoNotUseDefaultTypeInternal"* @_ZN13assist_ranker100_TranslateRankerModel_TranslateLogisticRegressionModel_CountryWeightEntry_DoNotUse_default_instance_E, i64 0, i32 0, i32 0, i32 1, i64 0) to i8**), align 8
  store %"class.std::__1::basic_string"* bitcast (%"class.google::protobuf::internal::ExplicitlyConstructed.40"* @_ZN6google8protobuf8internal26fixed_address_empty_stringE to %"class.std::__1::basic_string"*), %"class.std::__1::basic_string"** bitcast (i8* getelementptr inbounds (%"class.assist_ranker::TranslateRankerModel_TranslateLogisticRegressionModel_CountryWeightEntry_DoNotUseDefaultTypeInternal", %"class.assist_ranker::TranslateRankerModel_TranslateLogisticRegressionModel_CountryWeightEntry_DoNotUseDefaultTypeInternal"* @_ZN13assist_ranker100_TranslateRankerModel_TranslateLogisticRegressionModel_CountryWeightEntry_DoNotUse_default_instance_E, i64 0, i32 0, i32 0, i32 1, i64 8) to %"class.std::__1::basic_string"**), align 8
  store float 0.000000e+00, float* bitcast (i8* getelementptr inbounds (%"class.assist_ranker::TranslateRankerModel_TranslateLogisticRegressionModel_CountryWeightEntry_DoNotUseDefaultTypeInternal", %"class.assist_ranker::TranslateRankerModel_TranslateLogisticRegressionModel_CountryWeightEntry_DoNotUseDefaultTypeInternal"* @_ZN13assist_ranker100_TranslateRankerModel_TranslateLogisticRegressionModel_CountryWeightEntry_DoNotUse_default_instance_E, i64 0, i32 0, i32 0, i32 1, i64 16) to float*), align 8
  store i32 0, i32* bitcast (i8* getelementptr inbounds (%"class.assist_ranker::TranslateRankerModel_TranslateLogisticRegressionModel_CountryWeightEntry_DoNotUseDefaultTypeInternal", %"class.assist_ranker::TranslateRankerModel_TranslateLogisticRegressionModel_CountryWeightEntry_DoNotUseDefaultTypeInternal"* @_ZN13assist_ranker100_TranslateRankerModel_TranslateLogisticRegressionModel_CountryWeightEntry_DoNotUse_default_instance_E, i64 0, i32 0, i32 0, i32 1, i64 20) to i32*), align 4
  store i32 (...)** bitcast (i8** getelementptr inbounds ({ [18 x i8*] }, { [18 x i8*] }* @_ZTVN13assist_ranker81TranslateRankerModel_TranslateLogisticRegressionModel_CountryWeightEntry_DoNotUseE, i64 0, inrange i32 0, i64 2) to i32 (...)**), i32 (...)*** bitcast (%"class.assist_ranker::TranslateRankerModel_TranslateLogisticRegressionModel_CountryWeightEntry_DoNotUseDefaultTypeInternal"* @_ZN13assist_ranker100_TranslateRankerModel_TranslateLogisticRegressionModel_CountryWeightEntry_DoNotUse_default_instance_E to i32 (...)***), align 8
  ret void
}

; Function Attrs: nounwind ssp uwtable
define internal void @_ZL136InitDefaultsscc_info_TranslateRankerModel_TranslateLogisticRegressionModel_LocaleWeightEntry_DoNotUse_translate_5franker_5fmodel_2eprotov() #0 {
  tail call void @_ZN6google8protobuf8internal13VerifyVersionEiiPKc(i32 3013000, i32 3013000, i8* getelementptr inbounds ([64 x i8], [64 x i8]* @.str, i64 0, i64 0)) #15
  store i8* null, i8** bitcast (i8* getelementptr inbounds (%"class.assist_ranker::TranslateRankerModel_TranslateLogisticRegressionModel_LocaleWeightEntry_DoNotUseDefaultTypeInternal", %"class.assist_ranker::TranslateRankerModel_TranslateLogisticRegressionModel_LocaleWeightEntry_DoNotUseDefaultTypeInternal"* @_ZN13assist_ranker99_TranslateRankerModel_TranslateLogisticRegressionModel_LocaleWeightEntry_DoNotUse_default_instance_E, i64 0, i32 0, i32 0, i32 1, i64 0) to i8**), align 8
  store %"class.std::__1::basic_string"* bitcast (%"class.google::protobuf::internal::ExplicitlyConstructed.40"* @_ZN6google8protobuf8internal26fixed_address_empty_stringE to %"class.std::__1::basic_string"*), %"class.std::__1::basic_string"** bitcast (i8* getelementptr inbounds (%"class.assist_ranker::TranslateRankerModel_TranslateLogisticRegressionModel_LocaleWeightEntry_DoNotUseDefaultTypeInternal", %"class.assist_ranker::TranslateRankerModel_TranslateLogisticRegressionModel_LocaleWeightEntry_DoNotUseDefaultTypeInternal"* @_ZN13assist_ranker99_TranslateRankerModel_TranslateLogisticRegressionModel_LocaleWeightEntry_DoNotUse_default_instance_E, i64 0, i32 0, i32 0, i32 1, i64 8) to %"class.std::__1::basic_string"**), align 8
  store float 0.000000e+00, float* bitcast (i8* getelementptr inbounds (%"class.assist_ranker::TranslateRankerModel_TranslateLogisticRegressionModel_LocaleWeightEntry_DoNotUseDefaultTypeInternal", %"class.assist_ranker::TranslateRankerModel_TranslateLogisticRegressionModel_LocaleWeightEntry_DoNotUseDefaultTypeInternal"* @_ZN13assist_ranker99_TranslateRankerModel_TranslateLogisticRegressionModel_LocaleWeightEntry_DoNotUse_default_instance_E, i64 0, i32 0, i32 0, i32 1, i64 16) to float*), align 8
  store i32 0, i32* bitcast (i8* getelementptr inbounds (%"class.assist_ranker::TranslateRankerModel_TranslateLogisticRegressionModel_LocaleWeightEntry_DoNotUseDefaultTypeInternal", %"class.assist_ranker::TranslateRankerModel_TranslateLogisticRegressionModel_LocaleWeightEntry_DoNotUseDefaultTypeInternal"* @_ZN13assist_ranker99_TranslateRankerModel_TranslateLogisticRegressionModel_LocaleWeightEntry_DoNotUse_default_instance_E, i64 0, i32 0, i32 0, i32 1, i64 20) to i32*), align 4
  store i32 (...)** bitcast (i8** getelementptr inbounds ({ [18 x i8*] }, { [18 x i8*] }* @_ZTVN13assist_ranker80TranslateRankerModel_TranslateLogisticRegressionModel_LocaleWeightEntry_DoNotUseE, i64 0, inrange i32 0, i64 2) to i32 (...)**), i32 (...)*** bitcast (%"class.assist_ranker::TranslateRankerModel_TranslateLogisticRegressionModel_LocaleWeightEntry_DoNotUseDefaultTypeInternal"* @_ZN13assist_ranker99_TranslateRankerModel_TranslateLogisticRegressionModel_LocaleWeightEntry_DoNotUse_default_instance_E to i32 (...)***), align 8
  ret void
}

; Function Attrs: nounwind ssp uwtable
define internal void @_ZL144InitDefaultsscc_info_TranslateRankerModel_TranslateLogisticRegressionModel_SourceLanguageWeightEntry_DoNotUse_translate_5franker_5fmodel_2eprotov() #0 {
  tail call void @_ZN6google8protobuf8internal13VerifyVersionEiiPKc(i32 3013000, i32 3013000, i8* getelementptr inbounds ([64 x i8], [64 x i8]* @.str, i64 0, i64 0)) #15
  store i8* null, i8** bitcast (i8* getelementptr inbounds (%"class.assist_ranker::TranslateRankerModel_TranslateLogisticRegressionModel_SourceLanguageWeightEntry_DoNotUseDefaultTypeInternal", %"class.assist_ranker::TranslateRankerModel_TranslateLogisticRegressionModel_SourceLanguageWeightEntry_DoNotUseDefaultTypeInternal"* @_ZN13assist_ranker107_TranslateRankerModel_TranslateLogisticRegressionModel_SourceLanguageWeightEntry_DoNotUse_default_instance_E, i64 0, i32 0, i32 0, i32 1, i64 0) to i8**), align 8
  store %"class.std::__1::basic_string"* bitcast (%"class.google::protobuf::internal::ExplicitlyConstructed.40"* @_ZN6google8protobuf8internal26fixed_address_empty_stringE to %"class.std::__1::basic_string"*), %"class.std::__1::basic_string"** bitcast (i8* getelementptr inbounds (%"class.assist_ranker::TranslateRankerModel_TranslateLogisticRegressionModel_SourceLanguageWeightEntry_DoNotUseDefaultTypeInternal", %"class.assist_ranker::TranslateRankerModel_TranslateLogisticRegressionModel_SourceLanguageWeightEntry_DoNotUseDefaultTypeInternal"* @_ZN13assist_ranker107_TranslateRankerModel_TranslateLogisticRegressionModel_SourceLanguageWeightEntry_DoNotUse_default_instance_E, i64 0, i32 0, i32 0, i32 1, i64 8) to %"class.std::__1::basic_string"**), align 8
  store float 0.000000e+00, float* bitcast (i8* getelementptr inbounds (%"class.assist_ranker::TranslateRankerModel_TranslateLogisticRegressionModel_SourceLanguageWeightEntry_DoNotUseDefaultTypeInternal", %"class.assist_ranker::TranslateRankerModel_TranslateLogisticRegressionModel_SourceLanguageWeightEntry_DoNotUseDefaultTypeInternal"* @_ZN13assist_ranker107_TranslateRankerModel_TranslateLogisticRegressionModel_SourceLanguageWeightEntry_DoNotUse_default_instance_E, i64 0, i32 0, i32 0, i32 1, i64 16) to float*), align 8
  store i32 0, i32* bitcast (i8* getelementptr inbounds (%"class.assist_ranker::TranslateRankerModel_TranslateLogisticRegressionModel_SourceLanguageWeightEntry_DoNotUseDefaultTypeInternal", %"class.assist_ranker::TranslateRankerModel_TranslateLogisticRegressionModel_SourceLanguageWeightEntry_DoNotUseDefaultTypeInternal"* @_ZN13assist_ranker107_TranslateRankerModel_TranslateLogisticRegressionModel_SourceLanguageWeightEntry_DoNotUse_default_instance_E, i64 0, i32 0, i32 0, i32 1, i64 20) to i32*), align 4
  store i32 (...)** bitcast (i8** getelementptr inbounds ({ [18 x i8*] }, { [18 x i8*] }* @_ZTVN13assist_ranker88TranslateRankerModel_TranslateLogisticRegressionModel_SourceLanguageWeightEntry_DoNotUseE, i64 0, inrange i32 0, i64 2) to i32 (...)**), i32 (...)*** bitcast (%"class.assist_ranker::TranslateRankerModel_TranslateLogisticRegressionModel_SourceLanguageWeightEntry_DoNotUseDefaultTypeInternal"* @_ZN13assist_ranker107_TranslateRankerModel_TranslateLogisticRegressionModel_SourceLanguageWeightEntry_DoNotUse_default_instance_E to i32 (...)***), align 8
  ret void
}

; Function Attrs: nounwind ssp uwtable
define internal void @_ZL144InitDefaultsscc_info_TranslateRankerModel_TranslateLogisticRegressionModel_TargetLanguageWeightEntry_DoNotUse_translate_5franker_5fmodel_2eprotov() #0 {
  tail call void @_ZN6google8protobuf8internal13VerifyVersionEiiPKc(i32 3013000, i32 3013000, i8* getelementptr inbounds ([64 x i8], [64 x i8]* @.str, i64 0, i64 0)) #15
  store i8* null, i8** bitcast (i8* getelementptr inbounds (%"class.assist_ranker::TranslateRankerModel_TranslateLogisticRegressionModel_TargetLanguageWeightEntry_DoNotUseDefaultTypeInternal", %"class.assist_ranker::TranslateRankerModel_TranslateLogisticRegressionModel_TargetLanguageWeightEntry_DoNotUseDefaultTypeInternal"* @_ZN13assist_ranker107_TranslateRankerModel_TranslateLogisticRegressionModel_TargetLanguageWeightEntry_DoNotUse_default_instance_E, i64 0, i32 0, i32 0, i32 1, i64 0) to i8**), align 8
  store %"class.std::__1::basic_string"* bitcast (%"class.google::protobuf::internal::ExplicitlyConstructed.40"* @_ZN6google8protobuf8internal26fixed_address_empty_stringE to %"class.std::__1::basic_string"*), %"class.std::__1::basic_string"** bitcast (i8* getelementptr inbounds (%"class.assist_ranker::TranslateRankerModel_TranslateLogisticRegressionModel_TargetLanguageWeightEntry_DoNotUseDefaultTypeInternal", %"class.assist_ranker::TranslateRankerModel_TranslateLogisticRegressionModel_TargetLanguageWeightEntry_DoNotUseDefaultTypeInternal"* @_ZN13assist_ranker107_TranslateRankerModel_TranslateLogisticRegressionModel_TargetLanguageWeightEntry_DoNotUse_default_instance_E, i64 0, i32 0, i32 0, i32 1, i64 8) to %"class.std::__1::basic_string"**), align 8
  store float 0.000000e+00, float* bitcast (i8* getelementptr inbounds (%"class.assist_ranker::TranslateRankerModel_TranslateLogisticRegressionModel_TargetLanguageWeightEntry_DoNotUseDefaultTypeInternal", %"class.assist_ranker::TranslateRankerModel_TranslateLogisticRegressionModel_TargetLanguageWeightEntry_DoNotUseDefaultTypeInternal"* @_ZN13assist_ranker107_TranslateRankerModel_TranslateLogisticRegressionModel_TargetLanguageWeightEntry_DoNotUse_default_instance_E, i64 0, i32 0, i32 0, i32 1, i64 16) to float*), align 8
  store i32 0, i32* bitcast (i8* getelementptr inbounds (%"class.assist_ranker::TranslateRankerModel_TranslateLogisticRegressionModel_TargetLanguageWeightEntry_DoNotUseDefaultTypeInternal", %"class.assist_ranker::TranslateRankerModel_TranslateLogisticRegressionModel_TargetLanguageWeightEntry_DoNotUseDefaultTypeInternal"* @_ZN13assist_ranker107_TranslateRankerModel_TranslateLogisticRegressionModel_TargetLanguageWeightEntry_DoNotUse_default_instance_E, i64 0, i32 0, i32 0, i32 1, i64 20) to i32*), align 4
  store i32 (...)** bitcast (i8** getelementptr inbounds ({ [18 x i8*] }, { [18 x i8*] }* @_ZTVN13assist_ranker88TranslateRankerModel_TranslateLogisticRegressionModel_TargetLanguageWeightEntry_DoNotUseE, i64 0, inrange i32 0, i64 2) to i32 (...)**), i32 (...)*** bitcast (%"class.assist_ranker::TranslateRankerModel_TranslateLogisticRegressionModel_TargetLanguageWeightEntry_DoNotUseDefaultTypeInternal"* @_ZN13assist_ranker107_TranslateRankerModel_TranslateLogisticRegressionModel_TargetLanguageWeightEntry_DoNotUse_default_instance_E to i32 (...)***), align 8
  ret void
}

; Function Attrs: nofree norecurse nounwind ssp uwtable writeonly
define hidden void @_ZN13assist_ranker88TranslateRankerModel_TranslateLogisticRegressionModel_SourceLanguageWeightEntry_DoNotUseC2Ev(%"class.assist_ranker::TranslateRankerModel_TranslateLogisticRegressionModel_SourceLanguageWeightEntry_DoNotUse"* nocapture) unnamed_addr #1 align 2 {
  %2 = getelementptr inbounds %"class.assist_ranker::TranslateRankerModel_TranslateLogisticRegressionModel_SourceLanguageWeightEntry_DoNotUse", %"class.assist_ranker::TranslateRankerModel_TranslateLogisticRegressionModel_SourceLanguageWeightEntry_DoNotUse"* %0, i64 0, i32 0, i32 0, i32 0, i32 1, i32 0
  store i8* null, i8** %2, align 8
  %3 = getelementptr inbounds %"class.assist_ranker::TranslateRankerModel_TranslateLogisticRegressionModel_SourceLanguageWeightEntry_DoNotUse", %"class.assist_ranker::TranslateRankerModel_TranslateLogisticRegressionModel_SourceLanguageWeightEntry_DoNotUse"* %0, i64 0, i32 0, i32 0, i32 1, i32 0
  store %"class.std::__1::basic_string"* bitcast (%"class.google::protobuf::internal::ExplicitlyConstructed.40"* @_ZN6google8protobuf8internal26fixed_address_empty_stringE to %"class.std::__1::basic_string"*), %"class.std::__1::basic_string"** %3, align 8
  %4 = getelementptr inbounds %"class.assist_ranker::TranslateRankerModel_TranslateLogisticRegressionModel_SourceLanguageWeightEntry_DoNotUse", %"class.assist_ranker::TranslateRankerModel_TranslateLogisticRegressionModel_SourceLanguageWeightEntry_DoNotUse"* %0, i64 0, i32 0, i32 0, i32 2
  store float 0.000000e+00, float* %4, align 4
  %5 = getelementptr inbounds %"class.assist_ranker::TranslateRankerModel_TranslateLogisticRegressionModel_SourceLanguageWeightEntry_DoNotUse", %"class.assist_ranker::TranslateRankerModel_TranslateLogisticRegressionModel_SourceLanguageWeightEntry_DoNotUse"* %0, i64 0, i32 0, i32 0, i32 3, i64 0
  store i32 0, i32* %5, align 4
  %6 = getelementptr inbounds %"class.assist_ranker::TranslateRankerModel_TranslateLogisticRegressionModel_SourceLanguageWeightEntry_DoNotUse", %"class.assist_ranker::TranslateRankerModel_TranslateLogisticRegressionModel_SourceLanguageWeightEntry_DoNotUse"* %0, i64 0, i32 0, i32 0, i32 0, i32 0
  store i32 (...)** bitcast (i8** getelementptr inbounds ({ [18 x i8*] }, { [18 x i8*] }* @_ZTVN13assist_ranker88TranslateRankerModel_TranslateLogisticRegressionModel_SourceLanguageWeightEntry_DoNotUseE, i64 0, inrange i32 0, i64 2) to i32 (...)**), i32 (...)*** %6, align 8
  ret void
}

; Function Attrs: nofree norecurse nounwind ssp uwtable writeonly
define hidden void @_ZN13assist_ranker88TranslateRankerModel_TranslateLogisticRegressionModel_SourceLanguageWeightEntry_DoNotUseC2EPN6google8protobuf5ArenaE(%"class.assist_ranker::TranslateRankerModel_TranslateLogisticRegressionModel_SourceLanguageWeightEntry_DoNotUse"* nocapture, %"class.google::protobuf::Arena"*) unnamed_addr #1 align 2 {
  %3 = getelementptr inbounds %"class.assist_ranker::TranslateRankerModel_TranslateLogisticRegressionModel_SourceLanguageWeightEntry_DoNotUse", %"class.assist_ranker::TranslateRankerModel_TranslateLogisticRegressionModel_SourceLanguageWeightEntry_DoNotUse"* %0, i64 0, i32 0, i32 0, i32 0, i32 1
  %4 = bitcast %"class.google::protobuf::internal::InternalMetadata"* %3 to %"class.google::protobuf::Arena"**
  store %"class.google::protobuf::Arena"* %1, %"class.google::protobuf::Arena"** %4, align 8
  %5 = getelementptr inbounds %"class.assist_ranker::TranslateRankerModel_TranslateLogisticRegressionModel_SourceLanguageWeightEntry_DoNotUse", %"class.assist_ranker::TranslateRankerModel_TranslateLogisticRegressionModel_SourceLanguageWeightEntry_DoNotUse"* %0, i64 0, i32 0, i32 0, i32 1, i32 0
  store %"class.std::__1::basic_string"* bitcast (%"class.google::protobuf::internal::ExplicitlyConstructed.40"* @_ZN6google8protobuf8internal26fixed_address_empty_stringE to %"class.std::__1::basic_string"*), %"class.std::__1::basic_string"** %5, align 8
  %6 = getelementptr inbounds %"class.assist_ranker::TranslateRankerModel_TranslateLogisticRegressionModel_SourceLanguageWeightEntry_DoNotUse", %"class.assist_ranker::TranslateRankerModel_TranslateLogisticRegressionModel_SourceLanguageWeightEntry_DoNotUse"* %0, i64 0, i32 0, i32 0, i32 2
  store float 0.000000e+00, float* %6, align 4
  %7 = getelementptr inbounds %"class.assist_ranker::TranslateRankerModel_TranslateLogisticRegressionModel_SourceLanguageWeightEntry_DoNotUse", %"class.assist_ranker::TranslateRankerModel_TranslateLogisticRegressionModel_SourceLanguageWeightEntry_DoNotUse"* %0, i64 0, i32 0, i32 0, i32 3, i64 0
  store i32 0, i32* %7, align 4
  %8 = getelementptr inbounds %"class.assist_ranker::TranslateRankerModel_TranslateLogisticRegressionModel_SourceLanguageWeightEntry_DoNotUse", %"class.assist_ranker::TranslateRankerModel_TranslateLogisticRegressionModel_SourceLanguageWeightEntry_DoNotUse"* %0, i64 0, i32 0, i32 0, i32 0, i32 0
  store i32 (...)** bitcast (i8** getelementptr inbounds ({ [18 x i8*] }, { [18 x i8*] }* @_ZTVN13assist_ranker88TranslateRankerModel_TranslateLogisticRegressionModel_SourceLanguageWeightEntry_DoNotUseE, i64 0, inrange i32 0, i64 2) to i32 (...)**), i32 (...)*** %8, align 8
  ret void
}

; Function Attrs: nounwind ssp uwtable
define hidden void @_ZN13assist_ranker88TranslateRankerModel_TranslateLogisticRegressionModel_SourceLanguageWeightEntry_DoNotUse9MergeFromERKS0_(%"class.assist_ranker::TranslateRankerModel_TranslateLogisticRegressionModel_SourceLanguageWeightEntry_DoNotUse"*, %"class.assist_ranker::TranslateRankerModel_TranslateLogisticRegressionModel_SourceLanguageWeightEntry_DoNotUse"* dereferenceable(32)) local_unnamed_addr #0 align 2 {
  %3 = getelementptr inbounds %"class.assist_ranker::TranslateRankerModel_TranslateLogisticRegressionModel_SourceLanguageWeightEntry_DoNotUse", %"class.assist_ranker::TranslateRankerModel_TranslateLogisticRegressionModel_SourceLanguageWeightEntry_DoNotUse"* %0, i64 0, i32 0, i32 0
  %4 = getelementptr inbounds %"class.assist_ranker::TranslateRankerModel_TranslateLogisticRegressionModel_SourceLanguageWeightEntry_DoNotUse", %"class.assist_ranker::TranslateRankerModel_TranslateLogisticRegressionModel_SourceLanguageWeightEntry_DoNotUse"* %1, i64 0, i32 0, i32 0
  tail call void @_ZN6google8protobuf8internal12MapEntryImplIN13assist_ranker88TranslateRankerModel_TranslateLogisticRegressionModel_SourceLanguageWeightEntry_DoNotUseENS0_11MessageLiteENSt3__112basic_stringIcNS6_11char_traitsIcEENS6_9allocatorIcEEEEfLNS1_14WireFormatLite9FieldTypeE9ELSE_2EE17MergeFromInternalERKSF_(%"class.google::protobuf::internal::MapEntryImpl"* %3, %"class.google::protobuf::internal::MapEntryImpl"* dereferenceable(32) %4)
  ret void
}

; Function Attrs: nounwind ssp uwtable
define linkonce_odr hidden void @_ZN6google8protobuf8internal12MapEntryImplIN13assist_ranker88TranslateRankerModel_TranslateLogisticRegressionModel_SourceLanguageWeightEntry_DoNotUseENS0_11MessageLiteENSt3__112basic_stringIcNS6_11char_traitsIcEENS6_9allocatorIcEEEEfLNS1_14WireFormatLite9FieldTypeE9ELSE_2EE17MergeFromInternalERKSF_(%"class.google::protobuf::internal::MapEntryImpl"*, %"class.google::protobuf::internal::MapEntryImpl"* dereferenceable(32)) local_unnamed_addr #0 comdat align 2 {
  %3 = getelementptr inbounds %"class.google::protobuf::internal::MapEntryImpl", %"class.google::protobuf::internal::MapEntryImpl"* %1, i64 0, i32 3, i64 0
  %4 = load i32, i32* %3, align 4
  %5 = icmp eq i32 %4, 0
  br i1 %5, label %103, label %6

6:                                                ; preds = %2
  %7 = and i32 %4, 1
  %8 = icmp eq i32 %7, 0
  br i1 %8, label %86, label %9

9:                                                ; preds = %6
  %10 = getelementptr inbounds %"class.google::protobuf::internal::MapEntryImpl", %"class.google::protobuf::internal::MapEntryImpl"* %0, i64 0, i32 1
  %11 = getelementptr inbounds %"class.google::protobuf::internal::MapEntryImpl", %"class.google::protobuf::internal::MapEntryImpl"* %0, i64 0, i32 0, i32 1
  %12 = bitcast %"class.google::protobuf::internal::InternalMetadata"* %11 to i64*
  %13 = load i64, i64* %12, align 8
  %14 = and i64 %13, 1
  %15 = icmp eq i64 %14, 0
  %16 = and i64 %13, -2
  br i1 %15, label %21, label %17, !prof !2

17:                                               ; preds = %9
  %18 = inttoptr i64 %16 to %"struct.google::protobuf::internal::InternalMetadata::ContainerBase"*
  %19 = getelementptr inbounds %"struct.google::protobuf::internal::InternalMetadata::ContainerBase", %"struct.google::protobuf::internal::InternalMetadata::ContainerBase"* %18, i64 0, i32 0
  %20 = load %"class.google::protobuf::Arena"*, %"class.google::protobuf::Arena"** %19, align 8
  br label %23

21:                                               ; preds = %9
  %22 = inttoptr i64 %16 to %"class.google::protobuf::Arena"*
  br label %23

23:                                               ; preds = %17, %21
  %24 = phi %"class.google::protobuf::Arena"* [ %20, %17 ], [ %22, %21 ]
  %25 = getelementptr inbounds %"struct.google::protobuf::internal::ArenaStringPtr", %"struct.google::protobuf::internal::ArenaStringPtr"* %10, i64 0, i32 0
  %26 = load %"class.std::__1::basic_string"*, %"class.std::__1::basic_string"** %25, align 8
  %27 = icmp eq %"class.std::__1::basic_string"* %26, bitcast (%"class.google::protobuf::internal::ExplicitlyConstructed.40"* @_ZN6google8protobuf8internal26fixed_address_empty_stringE to %"class.std::__1::basic_string"*)
  br i1 %27, label %28, label %29

28:                                               ; preds = %23
  tail call void @_ZN6google8protobuf8internal14ArenaStringPtr14CreateInstanceEPNS0_5ArenaEPKNSt3__112basic_stringIcNS5_11char_traitsIcEENS5_9allocatorIcEEEE(%"struct.google::protobuf::internal::ArenaStringPtr"* %10, %"class.google::protobuf::Arena"* %24, %"class.std::__1::basic_string"* bitcast (%"class.google::protobuf::internal::ExplicitlyConstructed.40"* @_ZN6google8protobuf8internal26fixed_address_empty_stringE to %"class.std::__1::basic_string"*)) #15
  br label %29

29:                                               ; preds = %23, %28
  %30 = bitcast %"class.google::protobuf::internal::MapEntryImpl"* %1 to %"class.std::__1::basic_string"* (%"class.google::protobuf::internal::MapEntryImpl"*)***
  %31 = load %"class.std::__1::basic_string"* (%"class.google::protobuf::internal::MapEntryImpl"*)**, %"class.std::__1::basic_string"* (%"class.google::protobuf::internal::MapEntryImpl"*)*** %30, align 8
  %32 = getelementptr inbounds %"class.std::__1::basic_string"* (%"class.google::protobuf::internal::MapEntryImpl"*)*, %"class.std::__1::basic_string"* (%"class.google::protobuf::internal::MapEntryImpl"*)** %31, i64 14
  %33 = load %"class.std::__1::basic_string"* (%"class.google::protobuf::internal::MapEntryImpl"*)*, %"class.std::__1::basic_string"* (%"class.google::protobuf::internal::MapEntryImpl"*)** %32, align 8
  %34 = tail call dereferenceable(24) %"class.std::__1::basic_string"* %33(%"class.google::protobuf::internal::MapEntryImpl"* %1) #15
  %35 = load i64, i64* %12, align 8
  %36 = and i64 %35, 1
  %37 = icmp eq i64 %36, 0
  %38 = and i64 %35, -2
  br i1 %37, label %43, label %39, !prof !2

39:                                               ; preds = %29
  %40 = inttoptr i64 %38 to %"struct.google::protobuf::internal::InternalMetadata::ContainerBase"*
  %41 = getelementptr inbounds %"struct.google::protobuf::internal::InternalMetadata::ContainerBase", %"struct.google::protobuf::internal::InternalMetadata::ContainerBase"* %40, i64 0, i32 0
  %42 = load %"class.google::protobuf::Arena"*, %"class.google::protobuf::Arena"** %41, align 8
  br label %45

43:                                               ; preds = %29
  %44 = inttoptr i64 %38 to %"class.google::protobuf::Arena"*
  br label %45

45:                                               ; preds = %39, %43
  %46 = phi %"class.google::protobuf::Arena"* [ %42, %39 ], [ %44, %43 ]
  %47 = load %"class.std::__1::basic_string"*, %"class.std::__1::basic_string"** %25, align 8
  %48 = icmp eq %"class.std::__1::basic_string"* %47, bitcast (%"class.google::protobuf::internal::ExplicitlyConstructed.40"* @_ZN6google8protobuf8internal26fixed_address_empty_stringE to %"class.std::__1::basic_string"*)
  br i1 %48, label %49, label %50

49:                                               ; preds = %45
  tail call void @_ZN6google8protobuf8internal14ArenaStringPtr14CreateInstanceEPNS0_5ArenaEPKNSt3__112basic_stringIcNS5_11char_traitsIcEENS5_9allocatorIcEEEE(%"struct.google::protobuf::internal::ArenaStringPtr"* %10, %"class.google::protobuf::Arena"* %46, %"class.std::__1::basic_string"* %34) #15
  br label %81

50:                                               ; preds = %45
  %51 = icmp eq %"class.std::__1::basic_string"* %47, %34
  br i1 %51, label %81, label %52

52:                                               ; preds = %50
  %53 = bitcast %"class.std::__1::basic_string"* %47 to %"struct.std::__1::basic_string<char, std::__1::char_traits<char>, std::__1::allocator<char> >::__short"*
  %54 = getelementptr inbounds %"struct.std::__1::basic_string<char, std::__1::char_traits<char>, std::__1::allocator<char> >::__short", %"struct.std::__1::basic_string<char, std::__1::char_traits<char>, std::__1::allocator<char> >::__short"* %53, i64 0, i32 1, i32 0
  %55 = load i8, i8* %54, align 1
  %56 = icmp slt i8 %55, 0
  %57 = bitcast %"class.std::__1::basic_string"* %34 to %"struct.std::__1::basic_string<char, std::__1::char_traits<char>, std::__1::allocator<char> >::__short"*
  %58 = getelementptr inbounds %"struct.std::__1::basic_string<char, std::__1::char_traits<char>, std::__1::allocator<char> >::__short", %"struct.std::__1::basic_string<char, std::__1::char_traits<char>, std::__1::allocator<char> >::__short"* %57, i64 0, i32 1, i32 0
  %59 = load i8, i8* %58, align 1
  %60 = icmp slt i8 %59, 0
  br i1 %56, label %71, label %61

61:                                               ; preds = %52
  br i1 %60, label %65, label %62

62:                                               ; preds = %61
  %63 = bitcast %"class.std::__1::basic_string"* %47 to i8*
  %64 = bitcast %"class.std::__1::basic_string"* %34 to i8*
  tail call void @llvm.memcpy.p0i8.p0i8.i64(i8* align 8 %63, i8* align 8 %64, i64 24, i1 false) #15
  br label %81

65:                                               ; preds = %61
  %66 = getelementptr inbounds %"class.std::__1::basic_string", %"class.std::__1::basic_string"* %34, i64 0, i32 0, i32 0, i32 0, i32 0, i32 0, i32 0
  %67 = load i8*, i8** %66, align 8
  %68 = getelementptr inbounds %"class.std::__1::basic_string", %"class.std::__1::basic_string"* %34, i64 0, i32 0, i32 0, i32 0, i32 0, i32 0, i32 1
  %69 = load i64, i64* %68, align 8
  %70 = tail call dereferenceable(24) %"class.std::__1::basic_string"* @_ZNSt3__112basic_stringIcNS_11char_traitsIcEENS_9allocatorIcEEE17__assign_no_aliasILb1EEERS5_PKcm(%"class.std::__1::basic_string"* %47, i8* %67, i64 %69) #15
  br label %81

71:                                               ; preds = %52
  %72 = getelementptr inbounds %"class.std::__1::basic_string", %"class.std::__1::basic_string"* %34, i64 0, i32 0, i32 0, i32 0, i32 0, i32 0, i32 0
  %73 = load i8*, i8** %72, align 8
  %74 = getelementptr inbounds %"class.std::__1::basic_string", %"class.std::__1::basic_string"* %34, i64 0, i32 0, i32 0, i32 0, i32 0, i32 0, i32 1
  %75 = load i64, i64* %74, align 8
  %76 = bitcast %"class.std::__1::basic_string"* %34 to i8*
  %77 = zext i8 %59 to i64
  %78 = select i1 %60, i8* %73, i8* %76
  %79 = select i1 %60, i64 %75, i64 %77
  %80 = tail call dereferenceable(24) %"class.std::__1::basic_string"* @_ZNSt3__112basic_stringIcNS_11char_traitsIcEENS_9allocatorIcEEE17__assign_no_aliasILb0EEERS5_PKcm(%"class.std::__1::basic_string"* %47, i8* %78, i64 %79) #15
  br label %81

81:                                               ; preds = %49, %50, %62, %65, %71
  %82 = getelementptr inbounds %"class.google::protobuf::internal::MapEntryImpl", %"class.google::protobuf::internal::MapEntryImpl"* %0, i64 0, i32 3, i64 0
  %83 = load i32, i32* %82, align 4
  %84 = or i32 %83, 1
  store i32 %84, i32* %82, align 4
  %85 = load i32, i32* %3, align 4
  br label %86

86:                                               ; preds = %6, %81
  %87 = phi i32 [ %4, %6 ], [ %85, %81 ]
  %88 = and i32 %87, 2
  %89 = icmp eq i32 %88, 0
  br i1 %89, label %103, label %90

90:                                               ; preds = %86
  %91 = getelementptr inbounds %"class.google::protobuf::internal::MapEntryImpl", %"class.google::protobuf::internal::MapEntryImpl"* %0, i64 0, i32 2
  %92 = bitcast %"class.google::protobuf::internal::MapEntryImpl"* %1 to float* (%"class.google::protobuf::internal::MapEntryImpl"*)***
  %93 = load float* (%"class.google::protobuf::internal::MapEntryImpl"*)**, float* (%"class.google::protobuf::internal::MapEntryImpl"*)*** %92, align 8
  %94 = getelementptr inbounds float* (%"class.google::protobuf::internal::MapEntryImpl"*)*, float* (%"class.google::protobuf::internal::MapEntryImpl"*)** %93, i64 15
  %95 = load float* (%"class.google::protobuf::internal::MapEntryImpl"*)*, float* (%"class.google::protobuf::internal::MapEntryImpl"*)** %94, align 8
  %96 = tail call dereferenceable(4) float* %95(%"class.google::protobuf::internal::MapEntryImpl"* %1) #15
  %97 = bitcast float* %96 to i32*
  %98 = load i32, i32* %97, align 4
  %99 = bitcast float* %91 to i32*
  store i32 %98, i32* %99, align 4
  %100 = getelementptr inbounds %"class.google::protobuf::internal::MapEntryImpl", %"class.google::protobuf::internal::MapEntryImpl"* %0, i64 0, i32 3, i64 0
  %101 = load i32, i32* %100, align 4
  %102 = or i32 %101, 2
  store i32 %102, i32* %100, align 4
  br label %103

103:                                              ; preds = %86, %2, %90
  ret void
}

; Function Attrs: nofree norecurse nounwind ssp uwtable writeonly
define hidden void @_ZN13assist_ranker88TranslateRankerModel_TranslateLogisticRegressionModel_TargetLanguageWeightEntry_DoNotUseC2Ev(%"class.assist_ranker::TranslateRankerModel_TranslateLogisticRegressionModel_TargetLanguageWeightEntry_DoNotUse"* nocapture) unnamed_addr #1 align 2 {
  %2 = getelementptr inbounds %"class.assist_ranker::TranslateRankerModel_TranslateLogisticRegressionModel_TargetLanguageWeightEntry_DoNotUse", %"class.assist_ranker::TranslateRankerModel_TranslateLogisticRegressionModel_TargetLanguageWeightEntry_DoNotUse"* %0, i64 0, i32 0, i32 0, i32 0, i32 1, i32 0
  store i8* null, i8** %2, align 8
  %3 = getelementptr inbounds %"class.assist_ranker::TranslateRankerModel_TranslateLogisticRegressionModel_TargetLanguageWeightEntry_DoNotUse", %"class.assist_ranker::TranslateRankerModel_TranslateLogisticRegressionModel_TargetLanguageWeightEntry_DoNotUse"* %0, i64 0, i32 0, i32 0, i32 1, i32 0
  store %"class.std::__1::basic_string"* bitcast (%"class.google::protobuf::internal::ExplicitlyConstructed.40"* @_ZN6google8protobuf8internal26fixed_address_empty_stringE to %"class.std::__1::basic_string"*), %"class.std::__1::basic_string"** %3, align 8
  %4 = getelementptr inbounds %"class.assist_ranker::TranslateRankerModel_TranslateLogisticRegressionModel_TargetLanguageWeightEntry_DoNotUse", %"class.assist_ranker::TranslateRankerModel_TranslateLogisticRegressionModel_TargetLanguageWeightEntry_DoNotUse"* %0, i64 0, i32 0, i32 0, i32 2
  store float 0.000000e+00, float* %4, align 4
  %5 = getelementptr inbounds %"class.assist_ranker::TranslateRankerModel_TranslateLogisticRegressionModel_TargetLanguageWeightEntry_DoNotUse", %"class.assist_ranker::TranslateRankerModel_TranslateLogisticRegressionModel_TargetLanguageWeightEntry_DoNotUse"* %0, i64 0, i32 0, i32 0, i32 3, i64 0
  store i32 0, i32* %5, align 4
  %6 = getelementptr inbounds %"class.assist_ranker::TranslateRankerModel_TranslateLogisticRegressionModel_TargetLanguageWeightEntry_DoNotUse", %"class.assist_ranker::TranslateRankerModel_TranslateLogisticRegressionModel_TargetLanguageWeightEntry_DoNotUse"* %0, i64 0, i32 0, i32 0, i32 0, i32 0
  store i32 (...)** bitcast (i8** getelementptr inbounds ({ [18 x i8*] }, { [18 x i8*] }* @_ZTVN13assist_ranker88TranslateRankerModel_TranslateLogisticRegressionModel_TargetLanguageWeightEntry_DoNotUseE, i64 0, inrange i32 0, i64 2) to i32 (...)**), i32 (...)*** %6, align 8
  ret void
}

; Function Attrs: nofree norecurse nounwind ssp uwtable writeonly
define hidden void @_ZN13assist_ranker88TranslateRankerModel_TranslateLogisticRegressionModel_TargetLanguageWeightEntry_DoNotUseC2EPN6google8protobuf5ArenaE(%"class.assist_ranker::TranslateRankerModel_TranslateLogisticRegressionModel_TargetLanguageWeightEntry_DoNotUse"* nocapture, %"class.google::protobuf::Arena"*) unnamed_addr #1 align 2 {
  %3 = getelementptr inbounds %"class.assist_ranker::TranslateRankerModel_TranslateLogisticRegressionModel_TargetLanguageWeightEntry_DoNotUse", %"class.assist_ranker::TranslateRankerModel_TranslateLogisticRegressionModel_TargetLanguageWeightEntry_DoNotUse"* %0, i64 0, i32 0, i32 0, i32 0, i32 1
  %4 = bitcast %"class.google::protobuf::internal::InternalMetadata"* %3 to %"class.google::protobuf::Arena"**
  store %"class.google::protobuf::Arena"* %1, %"class.google::protobuf::Arena"** %4, align 8
  %5 = getelementptr inbounds %"class.assist_ranker::TranslateRankerModel_TranslateLogisticRegressionModel_TargetLanguageWeightEntry_DoNotUse", %"class.assist_ranker::TranslateRankerModel_TranslateLogisticRegressionModel_TargetLanguageWeightEntry_DoNotUse"* %0, i64 0, i32 0, i32 0, i32 1, i32 0
  store %"class.std::__1::basic_string"* bitcast (%"class.google::protobuf::internal::ExplicitlyConstructed.40"* @_ZN6google8protobuf8internal26fixed_address_empty_stringE to %"class.std::__1::basic_string"*), %"class.std::__1::basic_string"** %5, align 8
  %6 = getelementptr inbounds %"class.assist_ranker::TranslateRankerModel_TranslateLogisticRegressionModel_TargetLanguageWeightEntry_DoNotUse", %"class.assist_ranker::TranslateRankerModel_TranslateLogisticRegressionModel_TargetLanguageWeightEntry_DoNotUse"* %0, i64 0, i32 0, i32 0, i32 2
  store float 0.000000e+00, float* %6, align 4
  %7 = getelementptr inbounds %"class.assist_ranker::TranslateRankerModel_TranslateLogisticRegressionModel_TargetLanguageWeightEntry_DoNotUse", %"class.assist_ranker::TranslateRankerModel_TranslateLogisticRegressionModel_TargetLanguageWeightEntry_DoNotUse"* %0, i64 0, i32 0, i32 0, i32 3, i64 0
  store i32 0, i32* %7, align 4
  %8 = getelementptr inbounds %"class.assist_ranker::TranslateRankerModel_TranslateLogisticRegressionModel_TargetLanguageWeightEntry_DoNotUse", %"class.assist_ranker::TranslateRankerModel_TranslateLogisticRegressionModel_TargetLanguageWeightEntry_DoNotUse"* %0, i64 0, i32 0, i32 0, i32 0, i32 0
  store i32 (...)** bitcast (i8** getelementptr inbounds ({ [18 x i8*] }, { [18 x i8*] }* @_ZTVN13assist_ranker88TranslateRankerModel_TranslateLogisticRegressionModel_TargetLanguageWeightEntry_DoNotUseE, i64 0, inrange i32 0, i64 2) to i32 (...)**), i32 (...)*** %8, align 8
  ret void
}

; Function Attrs: nounwind ssp uwtable
define hidden void @_ZN13assist_ranker88TranslateRankerModel_TranslateLogisticRegressionModel_TargetLanguageWeightEntry_DoNotUse9MergeFromERKS0_(%"class.assist_ranker::TranslateRankerModel_TranslateLogisticRegressionModel_TargetLanguageWeightEntry_DoNotUse"*, %"class.assist_ranker::TranslateRankerModel_TranslateLogisticRegressionModel_TargetLanguageWeightEntry_DoNotUse"* dereferenceable(32)) local_unnamed_addr #0 align 2 {
  %3 = getelementptr inbounds %"class.assist_ranker::TranslateRankerModel_TranslateLogisticRegressionModel_TargetLanguageWeightEntry_DoNotUse", %"class.assist_ranker::TranslateRankerModel_TranslateLogisticRegressionModel_TargetLanguageWeightEntry_DoNotUse"* %0, i64 0, i32 0, i32 0
  %4 = getelementptr inbounds %"class.assist_ranker::TranslateRankerModel_TranslateLogisticRegressionModel_TargetLanguageWeightEntry_DoNotUse", %"class.assist_ranker::TranslateRankerModel_TranslateLogisticRegressionModel_TargetLanguageWeightEntry_DoNotUse"* %1, i64 0, i32 0, i32 0
  tail call void @_ZN6google8protobuf8internal12MapEntryImplIN13assist_ranker88TranslateRankerModel_TranslateLogisticRegressionModel_TargetLanguageWeightEntry_DoNotUseENS0_11MessageLiteENSt3__112basic_stringIcNS6_11char_traitsIcEENS6_9allocatorIcEEEEfLNS1_14WireFormatLite9FieldTypeE9ELSE_2EE17MergeFromInternalERKSF_(%"class.google::protobuf::internal::MapEntryImpl.19"* %3, %"class.google::protobuf::internal::MapEntryImpl.19"* dereferenceable(32) %4)
  ret void
}

; Function Attrs: nounwind ssp uwtable
define linkonce_odr hidden void @_ZN6google8protobuf8internal12MapEntryImplIN13assist_ranker88TranslateRankerModel_TranslateLogisticRegressionModel_TargetLanguageWeightEntry_DoNotUseENS0_11MessageLiteENSt3__112basic_stringIcNS6_11char_traitsIcEENS6_9allocatorIcEEEEfLNS1_14WireFormatLite9FieldTypeE9ELSE_2EE17MergeFromInternalERKSF_(%"class.google::protobuf::internal::MapEntryImpl.19"*, %"class.google::protobuf::internal::MapEntryImpl.19"* dereferenceable(32)) local_unnamed_addr #0 comdat align 2 {
  %3 = getelementptr inbounds %"class.google::protobuf::internal::MapEntryImpl.19", %"class.google::protobuf::internal::MapEntryImpl.19"* %1, i64 0, i32 3, i64 0
  %4 = load i32, i32* %3, align 4
  %5 = icmp eq i32 %4, 0
  br i1 %5, label %103, label %6

6:                                                ; preds = %2
  %7 = and i32 %4, 1
  %8 = icmp eq i32 %7, 0
  br i1 %8, label %86, label %9

9:                                                ; preds = %6
  %10 = getelementptr inbounds %"class.google::protobuf::internal::MapEntryImpl.19", %"class.google::protobuf::internal::MapEntryImpl.19"* %0, i64 0, i32 1
  %11 = getelementptr inbounds %"class.google::protobuf::internal::MapEntryImpl.19", %"class.google::protobuf::internal::MapEntryImpl.19"* %0, i64 0, i32 0, i32 1
  %12 = bitcast %"class.google::protobuf::internal::InternalMetadata"* %11 to i64*
  %13 = load i64, i64* %12, align 8
  %14 = and i64 %13, 1
  %15 = icmp eq i64 %14, 0
  %16 = and i64 %13, -2
  br i1 %15, label %21, label %17, !prof !2

17:                                               ; preds = %9
  %18 = inttoptr i64 %16 to %"struct.google::protobuf::internal::InternalMetadata::ContainerBase"*
  %19 = getelementptr inbounds %"struct.google::protobuf::internal::InternalMetadata::ContainerBase", %"struct.google::protobuf::internal::InternalMetadata::ContainerBase"* %18, i64 0, i32 0
  %20 = load %"class.google::protobuf::Arena"*, %"class.google::protobuf::Arena"** %19, align 8
  br label %23

21:                                               ; preds = %9
  %22 = inttoptr i64 %16 to %"class.google::protobuf::Arena"*
  br label %23

23:                                               ; preds = %17, %21
  %24 = phi %"class.google::protobuf::Arena"* [ %20, %17 ], [ %22, %21 ]
  %25 = getelementptr inbounds %"struct.google::protobuf::internal::ArenaStringPtr", %"struct.google::protobuf::internal::ArenaStringPtr"* %10, i64 0, i32 0
  %26 = load %"class.std::__1::basic_string"*, %"class.std::__1::basic_string"** %25, align 8
  %27 = icmp eq %"class.std::__1::basic_string"* %26, bitcast (%"class.google::protobuf::internal::ExplicitlyConstructed.40"* @_ZN6google8protobuf8internal26fixed_address_empty_stringE to %"class.std::__1::basic_string"*)
  br i1 %27, label %28, label %29

28:                                               ; preds = %23
  tail call void @_ZN6google8protobuf8internal14ArenaStringPtr14CreateInstanceEPNS0_5ArenaEPKNSt3__112basic_stringIcNS5_11char_traitsIcEENS5_9allocatorIcEEEE(%"struct.google::protobuf::internal::ArenaStringPtr"* %10, %"class.google::protobuf::Arena"* %24, %"class.std::__1::basic_string"* bitcast (%"class.google::protobuf::internal::ExplicitlyConstructed.40"* @_ZN6google8protobuf8internal26fixed_address_empty_stringE to %"class.std::__1::basic_string"*)) #15
  br label %29

29:                                               ; preds = %23, %28
  %30 = bitcast %"class.google::protobuf::internal::MapEntryImpl.19"* %1 to %"class.std::__1::basic_string"* (%"class.google::protobuf::internal::MapEntryImpl.19"*)***
  %31 = load %"class.std::__1::basic_string"* (%"class.google::protobuf::internal::MapEntryImpl.19"*)**, %"class.std::__1::basic_string"* (%"class.google::protobuf::internal::MapEntryImpl.19"*)*** %30, align 8
  %32 = getelementptr inbounds %"class.std::__1::basic_string"* (%"class.google::protobuf::internal::MapEntryImpl.19"*)*, %"class.std::__1::basic_string"* (%"class.google::protobuf::internal::MapEntryImpl.19"*)** %31, i64 14
  %33 = load %"class.std::__1::basic_string"* (%"class.google::protobuf::internal::MapEntryImpl.19"*)*, %"class.std::__1::basic_string"* (%"class.google::protobuf::internal::MapEntryImpl.19"*)** %32, align 8
  %34 = tail call dereferenceable(24) %"class.std::__1::basic_string"* %33(%"class.google::protobuf::internal::MapEntryImpl.19"* %1) #15
  %35 = load i64, i64* %12, align 8
  %36 = and i64 %35, 1
  %37 = icmp eq i64 %36, 0
  %38 = and i64 %35, -2
  br i1 %37, label %43, label %39, !prof !2

39:                                               ; preds = %29
  %40 = inttoptr i64 %38 to %"struct.google::protobuf::internal::InternalMetadata::ContainerBase"*
  %41 = getelementptr inbounds %"struct.google::protobuf::internal::InternalMetadata::ContainerBase", %"struct.google::protobuf::internal::InternalMetadata::ContainerBase"* %40, i64 0, i32 0
  %42 = load %"class.google::protobuf::Arena"*, %"class.google::protobuf::Arena"** %41, align 8
  br label %45

43:                                               ; preds = %29
  %44 = inttoptr i64 %38 to %"class.google::protobuf::Arena"*
  br label %45

45:                                               ; preds = %39, %43
  %46 = phi %"class.google::protobuf::Arena"* [ %42, %39 ], [ %44, %43 ]
  %47 = load %"class.std::__1::basic_string"*, %"class.std::__1::basic_string"** %25, align 8
  %48 = icmp eq %"class.std::__1::basic_string"* %47, bitcast (%"class.google::protobuf::internal::ExplicitlyConstructed.40"* @_ZN6google8protobuf8internal26fixed_address_empty_stringE to %"class.std::__1::basic_string"*)
  br i1 %48, label %49, label %50

49:                                               ; preds = %45
  tail call void @_ZN6google8protobuf8internal14ArenaStringPtr14CreateInstanceEPNS0_5ArenaEPKNSt3__112basic_stringIcNS5_11char_traitsIcEENS5_9allocatorIcEEEE(%"struct.google::protobuf::internal::ArenaStringPtr"* %10, %"class.google::protobuf::Arena"* %46, %"class.std::__1::basic_string"* %34) #15
  br label %81

50:                                               ; preds = %45
  %51 = icmp eq %"class.std::__1::basic_string"* %47, %34
  br i1 %51, label %81, label %52

52:                                               ; preds = %50
  %53 = bitcast %"class.std::__1::basic_string"* %47 to %"struct.std::__1::basic_string<char, std::__1::char_traits<char>, std::__1::allocator<char> >::__short"*
  %54 = getelementptr inbounds %"struct.std::__1::basic_string<char, std::__1::char_traits<char>, std::__1::allocator<char> >::__short", %"struct.std::__1::basic_string<char, std::__1::char_traits<char>, std::__1::allocator<char> >::__short"* %53, i64 0, i32 1, i32 0
  %55 = load i8, i8* %54, align 1
  %56 = icmp slt i8 %55, 0
  %57 = bitcast %"class.std::__1::basic_string"* %34 to %"struct.std::__1::basic_string<char, std::__1::char_traits<char>, std::__1::allocator<char> >::__short"*
  %58 = getelementptr inbounds %"struct.std::__1::basic_string<char, std::__1::char_traits<char>, std::__1::allocator<char> >::__short", %"struct.std::__1::basic_string<char, std::__1::char_traits<char>, std::__1::allocator<char> >::__short"* %57, i64 0, i32 1, i32 0
  %59 = load i8, i8* %58, align 1
  %60 = icmp slt i8 %59, 0
  br i1 %56, label %71, label %61

61:                                               ; preds = %52
  br i1 %60, label %65, label %62

62:                                               ; preds = %61
  %63 = bitcast %"class.std::__1::basic_string"* %47 to i8*
  %64 = bitcast %"class.std::__1::basic_string"* %34 to i8*
  tail call void @llvm.memcpy.p0i8.p0i8.i64(i8* align 8 %63, i8* align 8 %64, i64 24, i1 false) #15
  br label %81

65:                                               ; preds = %61
  %66 = getelementptr inbounds %"class.std::__1::basic_string", %"class.std::__1::basic_string"* %34, i64 0, i32 0, i32 0, i32 0, i32 0, i32 0, i32 0
  %67 = load i8*, i8** %66, align 8
  %68 = getelementptr inbounds %"class.std::__1::basic_string", %"class.std::__1::basic_string"* %34, i64 0, i32 0, i32 0, i32 0, i32 0, i32 0, i32 1
  %69 = load i64, i64* %68, align 8
  %70 = tail call dereferenceable(24) %"class.std::__1::basic_string"* @_ZNSt3__112basic_stringIcNS_11char_traitsIcEENS_9allocatorIcEEE17__assign_no_aliasILb1EEERS5_PKcm(%"class.std::__1::basic_string"* %47, i8* %67, i64 %69) #15
  br label %81

71:                                               ; preds = %52
  %72 = getelementptr inbounds %"class.std::__1::basic_string", %"class.std::__1::basic_string"* %34, i64 0, i32 0, i32 0, i32 0, i32 0, i32 0, i32 0
  %73 = load i8*, i8** %72, align 8
  %74 = getelementptr inbounds %"class.std::__1::basic_string", %"class.std::__1::basic_string"* %34, i64 0, i32 0, i32 0, i32 0, i32 0, i32 0, i32 1
  %75 = load i64, i64* %74, align 8
  %76 = bitcast %"class.std::__1::basic_string"* %34 to i8*
  %77 = zext i8 %59 to i64
  %78 = select i1 %60, i8* %73, i8* %76
  %79 = select i1 %60, i64 %75, i64 %77
  %80 = tail call dereferenceable(24) %"class.std::__1::basic_string"* @_ZNSt3__112basic_stringIcNS_11char_traitsIcEENS_9allocatorIcEEE17__assign_no_aliasILb0EEERS5_PKcm(%"class.std::__1::basic_string"* %47, i8* %78, i64 %79) #15
  br label %81

81:                                               ; preds = %49, %50, %62, %65, %71
  %82 = getelementptr inbounds %"class.google::protobuf::internal::MapEntryImpl.19", %"class.google::protobuf::internal::MapEntryImpl.19"* %0, i64 0, i32 3, i64 0
  %83 = load i32, i32* %82, align 4
  %84 = or i32 %83, 1
  store i32 %84, i32* %82, align 4
  %85 = load i32, i32* %3, align 4
  br label %86

86:                                               ; preds = %6, %81
  %87 = phi i32 [ %4, %6 ], [ %85, %81 ]
  %88 = and i32 %87, 2
  %89 = icmp eq i32 %88, 0
  br i1 %89, label %103, label %90

90:                                               ; preds = %86
  %91 = getelementptr inbounds %"class.google::protobuf::internal::MapEntryImpl.19", %"class.google::protobuf::internal::MapEntryImpl.19"* %0, i64 0, i32 2
  %92 = bitcast %"class.google::protobuf::internal::MapEntryImpl.19"* %1 to float* (%"class.google::protobuf::internal::MapEntryImpl.19"*)***
  %93 = load float* (%"class.google::protobuf::internal::MapEntryImpl.19"*)**, float* (%"class.google::protobuf::internal::MapEntryImpl.19"*)*** %92, align 8
  %94 = getelementptr inbounds float* (%"class.google::protobuf::internal::MapEntryImpl.19"*)*, float* (%"class.google::protobuf::internal::MapEntryImpl.19"*)** %93, i64 15
  %95 = load float* (%"class.google::protobuf::internal::MapEntryImpl.19"*)*, float* (%"class.google::protobuf::internal::MapEntryImpl.19"*)** %94, align 8
  %96 = tail call dereferenceable(4) float* %95(%"class.google::protobuf::internal::MapEntryImpl.19"* %1) #15
  %97 = bitcast float* %96 to i32*
  %98 = load i32, i32* %97, align 4
  %99 = bitcast float* %91 to i32*
  store i32 %98, i32* %99, align 4
  %100 = getelementptr inbounds %"class.google::protobuf::internal::MapEntryImpl.19", %"class.google::protobuf::internal::MapEntryImpl.19"* %0, i64 0, i32 3, i64 0
  %101 = load i32, i32* %100, align 4
  %102 = or i32 %101, 2
  store i32 %102, i32* %100, align 4
  br label %103

103:                                              ; preds = %86, %2, %90
  ret void
}

; Function Attrs: nofree norecurse nounwind ssp uwtable writeonly
define hidden void @_ZN13assist_ranker81TranslateRankerModel_TranslateLogisticRegressionModel_CountryWeightEntry_DoNotUseC2Ev(%"class.assist_ranker::TranslateRankerModel_TranslateLogisticRegressionModel_CountryWeightEntry_DoNotUse"* nocapture) unnamed_addr #1 align 2 {
  %2 = getelementptr inbounds %"class.assist_ranker::TranslateRankerModel_TranslateLogisticRegressionModel_CountryWeightEntry_DoNotUse", %"class.assist_ranker::TranslateRankerModel_TranslateLogisticRegressionModel_CountryWeightEntry_DoNotUse"* %0, i64 0, i32 0, i32 0, i32 0, i32 1, i32 0
  store i8* null, i8** %2, align 8
  %3 = getelementptr inbounds %"class.assist_ranker::TranslateRankerModel_TranslateLogisticRegressionModel_CountryWeightEntry_DoNotUse", %"class.assist_ranker::TranslateRankerModel_TranslateLogisticRegressionModel_CountryWeightEntry_DoNotUse"* %0, i64 0, i32 0, i32 0, i32 1, i32 0
  store %"class.std::__1::basic_string"* bitcast (%"class.google::protobuf::internal::ExplicitlyConstructed.40"* @_ZN6google8protobuf8internal26fixed_address_empty_stringE to %"class.std::__1::basic_string"*), %"class.std::__1::basic_string"** %3, align 8
  %4 = getelementptr inbounds %"class.assist_ranker::TranslateRankerModel_TranslateLogisticRegressionModel_CountryWeightEntry_DoNotUse", %"class.assist_ranker::TranslateRankerModel_TranslateLogisticRegressionModel_CountryWeightEntry_DoNotUse"* %0, i64 0, i32 0, i32 0, i32 2
  store float 0.000000e+00, float* %4, align 4
  %5 = getelementptr inbounds %"class.assist_ranker::TranslateRankerModel_TranslateLogisticRegressionModel_CountryWeightEntry_DoNotUse", %"class.assist_ranker::TranslateRankerModel_TranslateLogisticRegressionModel_CountryWeightEntry_DoNotUse"* %0, i64 0, i32 0, i32 0, i32 3, i64 0
  store i32 0, i32* %5, align 4
  %6 = getelementptr inbounds %"class.assist_ranker::TranslateRankerModel_TranslateLogisticRegressionModel_CountryWeightEntry_DoNotUse", %"class.assist_ranker::TranslateRankerModel_TranslateLogisticRegressionModel_CountryWeightEntry_DoNotUse"* %0, i64 0, i32 0, i32 0, i32 0, i32 0
  store i32 (...)** bitcast (i8** getelementptr inbounds ({ [18 x i8*] }, { [18 x i8*] }* @_ZTVN13assist_ranker81TranslateRankerModel_TranslateLogisticRegressionModel_CountryWeightEntry_DoNotUseE, i64 0, inrange i32 0, i64 2) to i32 (...)**), i32 (...)*** %6, align 8
  ret void
}

; Function Attrs: nofree norecurse nounwind ssp uwtable writeonly
define hidden void @_ZN13assist_ranker81TranslateRankerModel_TranslateLogisticRegressionModel_CountryWeightEntry_DoNotUseC2EPN6google8protobuf5ArenaE(%"class.assist_ranker::TranslateRankerModel_TranslateLogisticRegressionModel_CountryWeightEntry_DoNotUse"* nocapture, %"class.google::protobuf::Arena"*) unnamed_addr #1 align 2 {
  %3 = getelementptr inbounds %"class.assist_ranker::TranslateRankerModel_TranslateLogisticRegressionModel_CountryWeightEntry_DoNotUse", %"class.assist_ranker::TranslateRankerModel_TranslateLogisticRegressionModel_CountryWeightEntry_DoNotUse"* %0, i64 0, i32 0, i32 0, i32 0, i32 1
  %4 = bitcast %"class.google::protobuf::internal::InternalMetadata"* %3 to %"class.google::protobuf::Arena"**
  store %"class.google::protobuf::Arena"* %1, %"class.google::protobuf::Arena"** %4, align 8
  %5 = getelementptr inbounds %"class.assist_ranker::TranslateRankerModel_TranslateLogisticRegressionModel_CountryWeightEntry_DoNotUse", %"class.assist_ranker::TranslateRankerModel_TranslateLogisticRegressionModel_CountryWeightEntry_DoNotUse"* %0, i64 0, i32 0, i32 0, i32 1, i32 0
  store %"class.std::__1::basic_string"* bitcast (%"class.google::protobuf::internal::ExplicitlyConstructed.40"* @_ZN6google8protobuf8internal26fixed_address_empty_stringE to %"class.std::__1::basic_string"*), %"class.std::__1::basic_string"** %5, align 8
  %6 = getelementptr inbounds %"class.assist_ranker::TranslateRankerModel_TranslateLogisticRegressionModel_CountryWeightEntry_DoNotUse", %"class.assist_ranker::TranslateRankerModel_TranslateLogisticRegressionModel_CountryWeightEntry_DoNotUse"* %0, i64 0, i32 0, i32 0, i32 2
  store float 0.000000e+00, float* %6, align 4
  %7 = getelementptr inbounds %"class.assist_ranker::TranslateRankerModel_TranslateLogisticRegressionModel_CountryWeightEntry_DoNotUse", %"class.assist_ranker::TranslateRankerModel_TranslateLogisticRegressionModel_CountryWeightEntry_DoNotUse"* %0, i64 0, i32 0, i32 0, i32 3, i64 0
  store i32 0, i32* %7, align 4
  %8 = getelementptr inbounds %"class.assist_ranker::TranslateRankerModel_TranslateLogisticRegressionModel_CountryWeightEntry_DoNotUse", %"class.assist_ranker::TranslateRankerModel_TranslateLogisticRegressionModel_CountryWeightEntry_DoNotUse"* %0, i64 0, i32 0, i32 0, i32 0, i32 0
  store i32 (...)** bitcast (i8** getelementptr inbounds ({ [18 x i8*] }, { [18 x i8*] }* @_ZTVN13assist_ranker81TranslateRankerModel_TranslateLogisticRegressionModel_CountryWeightEntry_DoNotUseE, i64 0, inrange i32 0, i64 2) to i32 (...)**), i32 (...)*** %8, align 8
  ret void
}

; Function Attrs: nounwind ssp uwtable
define hidden void @_ZN13assist_ranker81TranslateRankerModel_TranslateLogisticRegressionModel_CountryWeightEntry_DoNotUse9MergeFromERKS0_(%"class.assist_ranker::TranslateRankerModel_TranslateLogisticRegressionModel_CountryWeightEntry_DoNotUse"*, %"class.assist_ranker::TranslateRankerModel_TranslateLogisticRegressionModel_CountryWeightEntry_DoNotUse"* dereferenceable(32)) local_unnamed_addr #0 align 2 {
  %3 = getelementptr inbounds %"class.assist_ranker::TranslateRankerModel_TranslateLogisticRegressionModel_CountryWeightEntry_DoNotUse", %"class.assist_ranker::TranslateRankerModel_TranslateLogisticRegressionModel_CountryWeightEntry_DoNotUse"* %0, i64 0, i32 0, i32 0
  %4 = getelementptr inbounds %"class.assist_ranker::TranslateRankerModel_TranslateLogisticRegressionModel_CountryWeightEntry_DoNotUse", %"class.assist_ranker::TranslateRankerModel_TranslateLogisticRegressionModel_CountryWeightEntry_DoNotUse"* %1, i64 0, i32 0, i32 0
  tail call void @_ZN6google8protobuf8internal12MapEntryImplIN13assist_ranker81TranslateRankerModel_TranslateLogisticRegressionModel_CountryWeightEntry_DoNotUseENS0_11MessageLiteENSt3__112basic_stringIcNS6_11char_traitsIcEENS6_9allocatorIcEEEEfLNS1_14WireFormatLite9FieldTypeE9ELSE_2EE17MergeFromInternalERKSF_(%"class.google::protobuf::internal::MapEntryImpl.21"* %3, %"class.google::protobuf::internal::MapEntryImpl.21"* dereferenceable(32) %4)
  ret void
}

; Function Attrs: nounwind ssp uwtable
define linkonce_odr hidden void @_ZN6google8protobuf8internal12MapEntryImplIN13assist_ranker81TranslateRankerModel_TranslateLogisticRegressionModel_CountryWeightEntry_DoNotUseENS0_11MessageLiteENSt3__112basic_stringIcNS6_11char_traitsIcEENS6_9allocatorIcEEEEfLNS1_14WireFormatLite9FieldTypeE9ELSE_2EE17MergeFromInternalERKSF_(%"class.google::protobuf::internal::MapEntryImpl.21"*, %"class.google::protobuf::internal::MapEntryImpl.21"* dereferenceable(32)) local_unnamed_addr #0 comdat align 2 {
  %3 = getelementptr inbounds %"class.google::protobuf::internal::MapEntryImpl.21", %"class.google::protobuf::internal::MapEntryImpl.21"* %1, i64 0, i32 3, i64 0
  %4 = load i32, i32* %3, align 4
  %5 = icmp eq i32 %4, 0
  br i1 %5, label %103, label %6

6:                                                ; preds = %2
  %7 = and i32 %4, 1
  %8 = icmp eq i32 %7, 0
  br i1 %8, label %86, label %9

9:                                                ; preds = %6
  %10 = getelementptr inbounds %"class.google::protobuf::internal::MapEntryImpl.21", %"class.google::protobuf::internal::MapEntryImpl.21"* %0, i64 0, i32 1
  %11 = getelementptr inbounds %"class.google::protobuf::internal::MapEntryImpl.21", %"class.google::protobuf::internal::MapEntryImpl.21"* %0, i64 0, i32 0, i32 1
  %12 = bitcast %"class.google::protobuf::internal::InternalMetadata"* %11 to i64*
  %13 = load i64, i64* %12, align 8
  %14 = and i64 %13, 1
  %15 = icmp eq i64 %14, 0
  %16 = and i64 %13, -2
  br i1 %15, label %21, label %17, !prof !2

17:                                               ; preds = %9
  %18 = inttoptr i64 %16 to %"struct.google::protobuf::internal::InternalMetadata::ContainerBase"*
  %19 = getelementptr inbounds %"struct.google::protobuf::internal::InternalMetadata::ContainerBase", %"struct.google::protobuf::internal::InternalMetadata::ContainerBase"* %18, i64 0, i32 0
  %20 = load %"class.google::protobuf::Arena"*, %"class.google::protobuf::Arena"** %19, align 8
  br label %23

21:                                               ; preds = %9
  %22 = inttoptr i64 %16 to %"class.google::protobuf::Arena"*
  br label %23

23:                                               ; preds = %17, %21
  %24 = phi %"class.google::protobuf::Arena"* [ %20, %17 ], [ %22, %21 ]
  %25 = getelementptr inbounds %"struct.google::protobuf::internal::ArenaStringPtr", %"struct.google::protobuf::internal::ArenaStringPtr"* %10, i64 0, i32 0
  %26 = load %"class.std::__1::basic_string"*, %"class.std::__1::basic_string"** %25, align 8
  %27 = icmp eq %"class.std::__1::basic_string"* %26, bitcast (%"class.google::protobuf::internal::ExplicitlyConstructed.40"* @_ZN6google8protobuf8internal26fixed_address_empty_stringE to %"class.std::__1::basic_string"*)
  br i1 %27, label %28, label %29

28:                                               ; preds = %23
  tail call void @_ZN6google8protobuf8internal14ArenaStringPtr14CreateInstanceEPNS0_5ArenaEPKNSt3__112basic_stringIcNS5_11char_traitsIcEENS5_9allocatorIcEEEE(%"struct.google::protobuf::internal::ArenaStringPtr"* %10, %"class.google::protobuf::Arena"* %24, %"class.std::__1::basic_string"* bitcast (%"class.google::protobuf::internal::ExplicitlyConstructed.40"* @_ZN6google8protobuf8internal26fixed_address_empty_stringE to %"class.std::__1::basic_string"*)) #15
  br label %29

29:                                               ; preds = %23, %28
  %30 = bitcast %"class.google::protobuf::internal::MapEntryImpl.21"* %1 to %"class.std::__1::basic_string"* (%"class.google::protobuf::internal::MapEntryImpl.21"*)***
  %31 = load %"class.std::__1::basic_string"* (%"class.google::protobuf::internal::MapEntryImpl.21"*)**, %"class.std::__1::basic_string"* (%"class.google::protobuf::internal::MapEntryImpl.21"*)*** %30, align 8
  %32 = getelementptr inbounds %"class.std::__1::basic_string"* (%"class.google::protobuf::internal::MapEntryImpl.21"*)*, %"class.std::__1::basic_string"* (%"class.google::protobuf::internal::MapEntryImpl.21"*)** %31, i64 14
  %33 = load %"class.std::__1::basic_string"* (%"class.google::protobuf::internal::MapEntryImpl.21"*)*, %"class.std::__1::basic_string"* (%"class.google::protobuf::internal::MapEntryImpl.21"*)** %32, align 8
  %34 = tail call dereferenceable(24) %"class.std::__1::basic_string"* %33(%"class.google::protobuf::internal::MapEntryImpl.21"* %1) #15
  %35 = load i64, i64* %12, align 8
  %36 = and i64 %35, 1
  %37 = icmp eq i64 %36, 0
  %38 = and i64 %35, -2
  br i1 %37, label %43, label %39, !prof !2

39:                                               ; preds = %29
  %40 = inttoptr i64 %38 to %"struct.google::protobuf::internal::InternalMetadata::ContainerBase"*
  %41 = getelementptr inbounds %"struct.google::protobuf::internal::InternalMetadata::ContainerBase", %"struct.google::protobuf::internal::InternalMetadata::ContainerBase"* %40, i64 0, i32 0
  %42 = load %"class.google::protobuf::Arena"*, %"class.google::protobuf::Arena"** %41, align 8
  br label %45

43:                                               ; preds = %29
  %44 = inttoptr i64 %38 to %"class.google::protobuf::Arena"*
  br label %45

45:                                               ; preds = %39, %43
  %46 = phi %"class.google::protobuf::Arena"* [ %42, %39 ], [ %44, %43 ]
  %47 = load %"class.std::__1::basic_string"*, %"class.std::__1::basic_string"** %25, align 8
  %48 = icmp eq %"class.std::__1::basic_string"* %47, bitcast (%"class.google::protobuf::internal::ExplicitlyConstructed.40"* @_ZN6google8protobuf8internal26fixed_address_empty_stringE to %"class.std::__1::basic_string"*)
  br i1 %48, label %49, label %50

49:                                               ; preds = %45
  tail call void @_ZN6google8protobuf8internal14ArenaStringPtr14CreateInstanceEPNS0_5ArenaEPKNSt3__112basic_stringIcNS5_11char_traitsIcEENS5_9allocatorIcEEEE(%"struct.google::protobuf::internal::ArenaStringPtr"* %10, %"class.google::protobuf::Arena"* %46, %"class.std::__1::basic_string"* %34) #15
  br label %81

50:                                               ; preds = %45
  %51 = icmp eq %"class.std::__1::basic_string"* %47, %34
  br i1 %51, label %81, label %52

52:                                               ; preds = %50
  %53 = bitcast %"class.std::__1::basic_string"* %47 to %"struct.std::__1::basic_string<char, std::__1::char_traits<char>, std::__1::allocator<char> >::__short"*
  %54 = getelementptr inbounds %"struct.std::__1::basic_string<char, std::__1::char_traits<char>, std::__1::allocator<char> >::__short", %"struct.std::__1::basic_string<char, std::__1::char_traits<char>, std::__1::allocator<char> >::__short"* %53, i64 0, i32 1, i32 0
  %55 = load i8, i8* %54, align 1
  %56 = icmp slt i8 %55, 0
  %57 = bitcast %"class.std::__1::basic_string"* %34 to %"struct.std::__1::basic_string<char, std::__1::char_traits<char>, std::__1::allocator<char> >::__short"*
  %58 = getelementptr inbounds %"struct.std::__1::basic_string<char, std::__1::char_traits<char>, std::__1::allocator<char> >::__short", %"struct.std::__1::basic_string<char, std::__1::char_traits<char>, std::__1::allocator<char> >::__short"* %57, i64 0, i32 1, i32 0
  %59 = load i8, i8* %58, align 1
  %60 = icmp slt i8 %59, 0
  br i1 %56, label %71, label %61

61:                                               ; preds = %52
  br i1 %60, label %65, label %62

62:                                               ; preds = %61
  %63 = bitcast %"class.std::__1::basic_string"* %47 to i8*
  %64 = bitcast %"class.std::__1::basic_string"* %34 to i8*
  tail call void @llvm.memcpy.p0i8.p0i8.i64(i8* align 8 %63, i8* align 8 %64, i64 24, i1 false) #15
  br label %81

65:                                               ; preds = %61
  %66 = getelementptr inbounds %"class.std::__1::basic_string", %"class.std::__1::basic_string"* %34, i64 0, i32 0, i32 0, i32 0, i32 0, i32 0, i32 0
  %67 = load i8*, i8** %66, align 8
  %68 = getelementptr inbounds %"class.std::__1::basic_string", %"class.std::__1::basic_string"* %34, i64 0, i32 0, i32 0, i32 0, i32 0, i32 0, i32 1
  %69 = load i64, i64* %68, align 8
  %70 = tail call dereferenceable(24) %"class.std::__1::basic_string"* @_ZNSt3__112basic_stringIcNS_11char_traitsIcEENS_9allocatorIcEEE17__assign_no_aliasILb1EEERS5_PKcm(%"class.std::__1::basic_string"* %47, i8* %67, i64 %69) #15
  br label %81

71:                                               ; preds = %52
  %72 = getelementptr inbounds %"class.std::__1::basic_string", %"class.std::__1::basic_string"* %34, i64 0, i32 0, i32 0, i32 0, i32 0, i32 0, i32 0
  %73 = load i8*, i8** %72, align 8
  %74 = getelementptr inbounds %"class.std::__1::basic_string", %"class.std::__1::basic_string"* %34, i64 0, i32 0, i32 0, i32 0, i32 0, i32 0, i32 1
  %75 = load i64, i64* %74, align 8
  %76 = bitcast %"class.std::__1::basic_string"* %34 to i8*
  %77 = zext i8 %59 to i64
  %78 = select i1 %60, i8* %73, i8* %76
  %79 = select i1 %60, i64 %75, i64 %77
  %80 = tail call dereferenceable(24) %"class.std::__1::basic_string"* @_ZNSt3__112basic_stringIcNS_11char_traitsIcEENS_9allocatorIcEEE17__assign_no_aliasILb0EEERS5_PKcm(%"class.std::__1::basic_string"* %47, i8* %78, i64 %79) #15
  br label %81

81:                                               ; preds = %49, %50, %62, %65, %71
  %82 = getelementptr inbounds %"class.google::protobuf::internal::MapEntryImpl.21", %"class.google::protobuf::internal::MapEntryImpl.21"* %0, i64 0, i32 3, i64 0
  %83 = load i32, i32* %82, align 4
  %84 = or i32 %83, 1
  store i32 %84, i32* %82, align 4
  %85 = load i32, i32* %3, align 4
  br label %86

86:                                               ; preds = %6, %81
  %87 = phi i32 [ %4, %6 ], [ %85, %81 ]
  %88 = and i32 %87, 2
  %89 = icmp eq i32 %88, 0
  br i1 %89, label %103, label %90

90:                                               ; preds = %86
  %91 = getelementptr inbounds %"class.google::protobuf::internal::MapEntryImpl.21", %"class.google::protobuf::internal::MapEntryImpl.21"* %0, i64 0, i32 2
  %92 = bitcast %"class.google::protobuf::internal::MapEntryImpl.21"* %1 to float* (%"class.google::protobuf::internal::MapEntryImpl.21"*)***
  %93 = load float* (%"class.google::protobuf::internal::MapEntryImpl.21"*)**, float* (%"class.google::protobuf::internal::MapEntryImpl.21"*)*** %92, align 8
  %94 = getelementptr inbounds float* (%"class.google::protobuf::internal::MapEntryImpl.21"*)*, float* (%"class.google::protobuf::internal::MapEntryImpl.21"*)** %93, i64 15
  %95 = load float* (%"class.google::protobuf::internal::MapEntryImpl.21"*)*, float* (%"class.google::protobuf::internal::MapEntryImpl.21"*)** %94, align 8
  %96 = tail call dereferenceable(4) float* %95(%"class.google::protobuf::internal::MapEntryImpl.21"* %1) #15
  %97 = bitcast float* %96 to i32*
  %98 = load i32, i32* %97, align 4
  %99 = bitcast float* %91 to i32*
  store i32 %98, i32* %99, align 4
  %100 = getelementptr inbounds %"class.google::protobuf::internal::MapEntryImpl.21", %"class.google::protobuf::internal::MapEntryImpl.21"* %0, i64 0, i32 3, i64 0
  %101 = load i32, i32* %100, align 4
  %102 = or i32 %101, 2
  store i32 %102, i32* %100, align 4
  br label %103

103:                                              ; preds = %86, %2, %90
  ret void
}

; Function Attrs: nofree norecurse nounwind ssp uwtable writeonly
define hidden void @_ZN13assist_ranker80TranslateRankerModel_TranslateLogisticRegressionModel_LocaleWeightEntry_DoNotUseC2Ev(%"class.assist_ranker::TranslateRankerModel_TranslateLogisticRegressionModel_LocaleWeightEntry_DoNotUse"* nocapture) unnamed_addr #1 align 2 {
  %2 = getelementptr inbounds %"class.assist_ranker::TranslateRankerModel_TranslateLogisticRegressionModel_LocaleWeightEntry_DoNotUse", %"class.assist_ranker::TranslateRankerModel_TranslateLogisticRegressionModel_LocaleWeightEntry_DoNotUse"* %0, i64 0, i32 0, i32 0, i32 0, i32 1, i32 0
  store i8* null, i8** %2, align 8
  %3 = getelementptr inbounds %"class.assist_ranker::TranslateRankerModel_TranslateLogisticRegressionModel_LocaleWeightEntry_DoNotUse", %"class.assist_ranker::TranslateRankerModel_TranslateLogisticRegressionModel_LocaleWeightEntry_DoNotUse"* %0, i64 0, i32 0, i32 0, i32 1, i32 0
  store %"class.std::__1::basic_string"* bitcast (%"class.google::protobuf::internal::ExplicitlyConstructed.40"* @_ZN6google8protobuf8internal26fixed_address_empty_stringE to %"class.std::__1::basic_string"*), %"class.std::__1::basic_string"** %3, align 8
  %4 = getelementptr inbounds %"class.assist_ranker::TranslateRankerModel_TranslateLogisticRegressionModel_LocaleWeightEntry_DoNotUse", %"class.assist_ranker::TranslateRankerModel_TranslateLogisticRegressionModel_LocaleWeightEntry_DoNotUse"* %0, i64 0, i32 0, i32 0, i32 2
  store float 0.000000e+00, float* %4, align 4
  %5 = getelementptr inbounds %"class.assist_ranker::TranslateRankerModel_TranslateLogisticRegressionModel_LocaleWeightEntry_DoNotUse", %"class.assist_ranker::TranslateRankerModel_TranslateLogisticRegressionModel_LocaleWeightEntry_DoNotUse"* %0, i64 0, i32 0, i32 0, i32 3, i64 0
  store i32 0, i32* %5, align 4
  %6 = getelementptr inbounds %"class.assist_ranker::TranslateRankerModel_TranslateLogisticRegressionModel_LocaleWeightEntry_DoNotUse", %"class.assist_ranker::TranslateRankerModel_TranslateLogisticRegressionModel_LocaleWeightEntry_DoNotUse"* %0, i64 0, i32 0, i32 0, i32 0, i32 0
  store i32 (...)** bitcast (i8** getelementptr inbounds ({ [18 x i8*] }, { [18 x i8*] }* @_ZTVN13assist_ranker80TranslateRankerModel_TranslateLogisticRegressionModel_LocaleWeightEntry_DoNotUseE, i64 0, inrange i32 0, i64 2) to i32 (...)**), i32 (...)*** %6, align 8
  ret void
}

; Function Attrs: nofree norecurse nounwind ssp uwtable writeonly
define hidden void @_ZN13assist_ranker80TranslateRankerModel_TranslateLogisticRegressionModel_LocaleWeightEntry_DoNotUseC2EPN6google8protobuf5ArenaE(%"class.assist_ranker::TranslateRankerModel_TranslateLogisticRegressionModel_LocaleWeightEntry_DoNotUse"* nocapture, %"class.google::protobuf::Arena"*) unnamed_addr #1 align 2 {
  %3 = getelementptr inbounds %"class.assist_ranker::TranslateRankerModel_TranslateLogisticRegressionModel_LocaleWeightEntry_DoNotUse", %"class.assist_ranker::TranslateRankerModel_TranslateLogisticRegressionModel_LocaleWeightEntry_DoNotUse"* %0, i64 0, i32 0, i32 0, i32 0, i32 1
  %4 = bitcast %"class.google::protobuf::internal::InternalMetadata"* %3 to %"class.google::protobuf::Arena"**
  store %"class.google::protobuf::Arena"* %1, %"class.google::protobuf::Arena"** %4, align 8
  %5 = getelementptr inbounds %"class.assist_ranker::TranslateRankerModel_TranslateLogisticRegressionModel_LocaleWeightEntry_DoNotUse", %"class.assist_ranker::TranslateRankerModel_TranslateLogisticRegressionModel_LocaleWeightEntry_DoNotUse"* %0, i64 0, i32 0, i32 0, i32 1, i32 0
  store %"class.std::__1::basic_string"* bitcast (%"class.google::protobuf::internal::ExplicitlyConstructed.40"* @_ZN6google8protobuf8internal26fixed_address_empty_stringE to %"class.std::__1::basic_string"*), %"class.std::__1::basic_string"** %5, align 8
  %6 = getelementptr inbounds %"class.assist_ranker::TranslateRankerModel_TranslateLogisticRegressionModel_LocaleWeightEntry_DoNotUse", %"class.assist_ranker::TranslateRankerModel_TranslateLogisticRegressionModel_LocaleWeightEntry_DoNotUse"* %0, i64 0, i32 0, i32 0, i32 2
  store float 0.000000e+00, float* %6, align 4
  %7 = getelementptr inbounds %"class.assist_ranker::TranslateRankerModel_TranslateLogisticRegressionModel_LocaleWeightEntry_DoNotUse", %"class.assist_ranker::TranslateRankerModel_TranslateLogisticRegressionModel_LocaleWeightEntry_DoNotUse"* %0, i64 0, i32 0, i32 0, i32 3, i64 0
  store i32 0, i32* %7, align 4
  %8 = getelementptr inbounds %"class.assist_ranker::TranslateRankerModel_TranslateLogisticRegressionModel_LocaleWeightEntry_DoNotUse", %"class.assist_ranker::TranslateRankerModel_TranslateLogisticRegressionModel_LocaleWeightEntry_DoNotUse"* %0, i64 0, i32 0, i32 0, i32 0, i32 0
  store i32 (...)** bitcast (i8** getelementptr inbounds ({ [18 x i8*] }, { [18 x i8*] }* @_ZTVN13assist_ranker80TranslateRankerModel_TranslateLogisticRegressionModel_LocaleWeightEntry_DoNotUseE, i64 0, inrange i32 0, i64 2) to i32 (...)**), i32 (...)*** %8, align 8
  ret void
}

; Function Attrs: nounwind ssp uwtable
define hidden void @_ZN13assist_ranker80TranslateRankerModel_TranslateLogisticRegressionModel_LocaleWeightEntry_DoNotUse9MergeFromERKS0_(%"class.assist_ranker::TranslateRankerModel_TranslateLogisticRegressionModel_LocaleWeightEntry_DoNotUse"*, %"class.assist_ranker::TranslateRankerModel_TranslateLogisticRegressionModel_LocaleWeightEntry_DoNotUse"* dereferenceable(32)) local_unnamed_addr #0 align 2 {
  %3 = getelementptr inbounds %"class.assist_ranker::TranslateRankerModel_TranslateLogisticRegressionModel_LocaleWeightEntry_DoNotUse", %"class.assist_ranker::TranslateRankerModel_TranslateLogisticRegressionModel_LocaleWeightEntry_DoNotUse"* %0, i64 0, i32 0, i32 0
  %4 = getelementptr inbounds %"class.assist_ranker::TranslateRankerModel_TranslateLogisticRegressionModel_LocaleWeightEntry_DoNotUse", %"class.assist_ranker::TranslateRankerModel_TranslateLogisticRegressionModel_LocaleWeightEntry_DoNotUse"* %1, i64 0, i32 0, i32 0
  tail call void @_ZN6google8protobuf8internal12MapEntryImplIN13assist_ranker80TranslateRankerModel_TranslateLogisticRegressionModel_LocaleWeightEntry_DoNotUseENS0_11MessageLiteENSt3__112basic_stringIcNS6_11char_traitsIcEENS6_9allocatorIcEEEEfLNS1_14WireFormatLite9FieldTypeE9ELSE_2EE17MergeFromInternalERKSF_(%"class.google::protobuf::internal::MapEntryImpl.23"* %3, %"class.google::protobuf::internal::MapEntryImpl.23"* dereferenceable(32) %4)
  ret void
}

; Function Attrs: nounwind ssp uwtable
define linkonce_odr hidden void @_ZN6google8protobuf8internal12MapEntryImplIN13assist_ranker80TranslateRankerModel_TranslateLogisticRegressionModel_LocaleWeightEntry_DoNotUseENS0_11MessageLiteENSt3__112basic_stringIcNS6_11char_traitsIcEENS6_9allocatorIcEEEEfLNS1_14WireFormatLite9FieldTypeE9ELSE_2EE17MergeFromInternalERKSF_(%"class.google::protobuf::internal::MapEntryImpl.23"*, %"class.google::protobuf::internal::MapEntryImpl.23"* dereferenceable(32)) local_unnamed_addr #0 comdat align 2 {
  %3 = getelementptr inbounds %"class.google::protobuf::internal::MapEntryImpl.23", %"class.google::protobuf::internal::MapEntryImpl.23"* %1, i64 0, i32 3, i64 0
  %4 = load i32, i32* %3, align 4
  %5 = icmp eq i32 %4, 0
  br i1 %5, label %103, label %6

6:                                                ; preds = %2
  %7 = and i32 %4, 1
  %8 = icmp eq i32 %7, 0
  br i1 %8, label %86, label %9

9:                                                ; preds = %6
  %10 = getelementptr inbounds %"class.google::protobuf::internal::MapEntryImpl.23", %"class.google::protobuf::internal::MapEntryImpl.23"* %0, i64 0, i32 1
  %11 = getelementptr inbounds %"class.google::protobuf::internal::MapEntryImpl.23", %"class.google::protobuf::internal::MapEntryImpl.23"* %0, i64 0, i32 0, i32 1
  %12 = bitcast %"class.google::protobuf::internal::InternalMetadata"* %11 to i64*
  %13 = load i64, i64* %12, align 8
  %14 = and i64 %13, 1
  %15 = icmp eq i64 %14, 0
  %16 = and i64 %13, -2
  br i1 %15, label %21, label %17, !prof !2

17:                                               ; preds = %9
  %18 = inttoptr i64 %16 to %"struct.google::protobuf::internal::InternalMetadata::ContainerBase"*
  %19 = getelementptr inbounds %"struct.google::protobuf::internal::InternalMetadata::ContainerBase", %"struct.google::protobuf::internal::InternalMetadata::ContainerBase"* %18, i64 0, i32 0
  %20 = load %"class.google::protobuf::Arena"*, %"class.google::protobuf::Arena"** %19, align 8
  br label %23

21:                                               ; preds = %9
  %22 = inttoptr i64 %16 to %"class.google::protobuf::Arena"*
  br label %23

23:                                               ; preds = %17, %21
  %24 = phi %"class.google::protobuf::Arena"* [ %20, %17 ], [ %22, %21 ]
  %25 = getelementptr inbounds %"struct.google::protobuf::internal::ArenaStringPtr", %"struct.google::protobuf::internal::ArenaStringPtr"* %10, i64 0, i32 0
  %26 = load %"class.std::__1::basic_string"*, %"class.std::__1::basic_string"** %25, align 8
  %27 = icmp eq %"class.std::__1::basic_string"* %26, bitcast (%"class.google::protobuf::internal::ExplicitlyConstructed.40"* @_ZN6google8protobuf8internal26fixed_address_empty_stringE to %"class.std::__1::basic_string"*)
  br i1 %27, label %28, label %29

28:                                               ; preds = %23
  tail call void @_ZN6google8protobuf8internal14ArenaStringPtr14CreateInstanceEPNS0_5ArenaEPKNSt3__112basic_stringIcNS5_11char_traitsIcEENS5_9allocatorIcEEEE(%"struct.google::protobuf::internal::ArenaStringPtr"* %10, %"class.google::protobuf::Arena"* %24, %"class.std::__1::basic_string"* bitcast (%"class.google::protobuf::internal::ExplicitlyConstructed.40"* @_ZN6google8protobuf8internal26fixed_address_empty_stringE to %"class.std::__1::basic_string"*)) #15
  br label %29

29:                                               ; preds = %23, %28
  %30 = bitcast %"class.google::protobuf::internal::MapEntryImpl.23"* %1 to %"class.std::__1::basic_string"* (%"class.google::protobuf::internal::MapEntryImpl.23"*)***
  %31 = load %"class.std::__1::basic_string"* (%"class.google::protobuf::internal::MapEntryImpl.23"*)**, %"class.std::__1::basic_string"* (%"class.google::protobuf::internal::MapEntryImpl.23"*)*** %30, align 8
  %32 = getelementptr inbounds %"class.std::__1::basic_string"* (%"class.google::protobuf::internal::MapEntryImpl.23"*)*, %"class.std::__1::basic_string"* (%"class.google::protobuf::internal::MapEntryImpl.23"*)** %31, i64 14
  %33 = load %"class.std::__1::basic_string"* (%"class.google::protobuf::internal::MapEntryImpl.23"*)*, %"class.std::__1::basic_string"* (%"class.google::protobuf::internal::MapEntryImpl.23"*)** %32, align 8
  %34 = tail call dereferenceable(24) %"class.std::__1::basic_string"* %33(%"class.google::protobuf::internal::MapEntryImpl.23"* %1) #15
  %35 = load i64, i64* %12, align 8
  %36 = and i64 %35, 1
  %37 = icmp eq i64 %36, 0
  %38 = and i64 %35, -2
  br i1 %37, label %43, label %39, !prof !2

39:                                               ; preds = %29
  %40 = inttoptr i64 %38 to %"struct.google::protobuf::internal::InternalMetadata::ContainerBase"*
  %41 = getelementptr inbounds %"struct.google::protobuf::internal::InternalMetadata::ContainerBase", %"struct.google::protobuf::internal::InternalMetadata::ContainerBase"* %40, i64 0, i32 0
  %42 = load %"class.google::protobuf::Arena"*, %"class.google::protobuf::Arena"** %41, align 8
  br label %45

43:                                               ; preds = %29
  %44 = inttoptr i64 %38 to %"class.google::protobuf::Arena"*
  br label %45

45:                                               ; preds = %39, %43
  %46 = phi %"class.google::protobuf::Arena"* [ %42, %39 ], [ %44, %43 ]
  %47 = load %"class.std::__1::basic_string"*, %"class.std::__1::basic_string"** %25, align 8
  %48 = icmp eq %"class.std::__1::basic_string"* %47, bitcast (%"class.google::protobuf::internal::ExplicitlyConstructed.40"* @_ZN6google8protobuf8internal26fixed_address_empty_stringE to %"class.std::__1::basic_string"*)
  br i1 %48, label %49, label %50

49:                                               ; preds = %45
  tail call void @_ZN6google8protobuf8internal14ArenaStringPtr14CreateInstanceEPNS0_5ArenaEPKNSt3__112basic_stringIcNS5_11char_traitsIcEENS5_9allocatorIcEEEE(%"struct.google::protobuf::internal::ArenaStringPtr"* %10, %"class.google::protobuf::Arena"* %46, %"class.std::__1::basic_string"* %34) #15
  br label %81

50:                                               ; preds = %45
  %51 = icmp eq %"class.std::__1::basic_string"* %47, %34
  br i1 %51, label %81, label %52

52:                                               ; preds = %50
  %53 = bitcast %"class.std::__1::basic_string"* %47 to %"struct.std::__1::basic_string<char, std::__1::char_traits<char>, std::__1::allocator<char> >::__short"*
  %54 = getelementptr inbounds %"struct.std::__1::basic_string<char, std::__1::char_traits<char>, std::__1::allocator<char> >::__short", %"struct.std::__1::basic_string<char, std::__1::char_traits<char>, std::__1::allocator<char> >::__short"* %53, i64 0, i32 1, i32 0
  %55 = load i8, i8* %54, align 1
  %56 = icmp slt i8 %55, 0
  %57 = bitcast %"class.std::__1::basic_string"* %34 to %"struct.std::__1::basic_string<char, std::__1::char_traits<char>, std::__1::allocator<char> >::__short"*
  %58 = getelementptr inbounds %"struct.std::__1::basic_string<char, std::__1::char_traits<char>, std::__1::allocator<char> >::__short", %"struct.std::__1::basic_string<char, std::__1::char_traits<char>, std::__1::allocator<char> >::__short"* %57, i64 0, i32 1, i32 0
  %59 = load i8, i8* %58, align 1
  %60 = icmp slt i8 %59, 0
  br i1 %56, label %71, label %61

61:                                               ; preds = %52
  br i1 %60, label %65, label %62

62:                                               ; preds = %61
  %63 = bitcast %"class.std::__1::basic_string"* %47 to i8*
  %64 = bitcast %"class.std::__1::basic_string"* %34 to i8*
  tail call void @llvm.memcpy.p0i8.p0i8.i64(i8* align 8 %63, i8* align 8 %64, i64 24, i1 false) #15
  br label %81

65:                                               ; preds = %61
  %66 = getelementptr inbounds %"class.std::__1::basic_string", %"class.std::__1::basic_string"* %34, i64 0, i32 0, i32 0, i32 0, i32 0, i32 0, i32 0
  %67 = load i8*, i8** %66, align 8
  %68 = getelementptr inbounds %"class.std::__1::basic_string", %"class.std::__1::basic_string"* %34, i64 0, i32 0, i32 0, i32 0, i32 0, i32 0, i32 1
  %69 = load i64, i64* %68, align 8
  %70 = tail call dereferenceable(24) %"class.std::__1::basic_string"* @_ZNSt3__112basic_stringIcNS_11char_traitsIcEENS_9allocatorIcEEE17__assign_no_aliasILb1EEERS5_PKcm(%"class.std::__1::basic_string"* %47, i8* %67, i64 %69) #15
  br label %81

71:                                               ; preds = %52
  %72 = getelementptr inbounds %"class.std::__1::basic_string", %"class.std::__1::basic_string"* %34, i64 0, i32 0, i32 0, i32 0, i32 0, i32 0, i32 0
  %73 = load i8*, i8** %72, align 8
  %74 = getelementptr inbounds %"class.std::__1::basic_string", %"class.std::__1::basic_string"* %34, i64 0, i32 0, i32 0, i32 0, i32 0, i32 0, i32 1
  %75 = load i64, i64* %74, align 8
  %76 = bitcast %"class.std::__1::basic_string"* %34 to i8*
  %77 = zext i8 %59 to i64
  %78 = select i1 %60, i8* %73, i8* %76
  %79 = select i1 %60, i64 %75, i64 %77
  %80 = tail call dereferenceable(24) %"class.std::__1::basic_string"* @_ZNSt3__112basic_stringIcNS_11char_traitsIcEENS_9allocatorIcEEE17__assign_no_aliasILb0EEERS5_PKcm(%"class.std::__1::basic_string"* %47, i8* %78, i64 %79) #15
  br label %81

81:                                               ; preds = %49, %50, %62, %65, %71
  %82 = getelementptr inbounds %"class.google::protobuf::internal::MapEntryImpl.23", %"class.google::protobuf::internal::MapEntryImpl.23"* %0, i64 0, i32 3, i64 0
  %83 = load i32, i32* %82, align 4
  %84 = or i32 %83, 1
  store i32 %84, i32* %82, align 4
  %85 = load i32, i32* %3, align 4
  br label %86

86:                                               ; preds = %6, %81
  %87 = phi i32 [ %4, %6 ], [ %85, %81 ]
  %88 = and i32 %87, 2
  %89 = icmp eq i32 %88, 0
  br i1 %89, label %103, label %90

90:                                               ; preds = %86
  %91 = getelementptr inbounds %"class.google::protobuf::internal::MapEntryImpl.23", %"class.google::protobuf::internal::MapEntryImpl.23"* %0, i64 0, i32 2
  %92 = bitcast %"class.google::protobuf::internal::MapEntryImpl.23"* %1 to float* (%"class.google::protobuf::internal::MapEntryImpl.23"*)***
  %93 = load float* (%"class.google::protobuf::internal::MapEntryImpl.23"*)**, float* (%"class.google::protobuf::internal::MapEntryImpl.23"*)*** %92, align 8
  %94 = getelementptr inbounds float* (%"class.google::protobuf::internal::MapEntryImpl.23"*)*, float* (%"class.google::protobuf::internal::MapEntryImpl.23"*)** %93, i64 15
  %95 = load float* (%"class.google::protobuf::internal::MapEntryImpl.23"*)*, float* (%"class.google::protobuf::internal::MapEntryImpl.23"*)** %94, align 8
  %96 = tail call dereferenceable(4) float* %95(%"class.google::protobuf::internal::MapEntryImpl.23"* %1) #15
  %97 = bitcast float* %96 to i32*
  %98 = load i32, i32* %97, align 4
  %99 = bitcast float* %91 to i32*
  store i32 %98, i32* %99, align 4
  %100 = getelementptr inbounds %"class.google::protobuf::internal::MapEntryImpl.23", %"class.google::protobuf::internal::MapEntryImpl.23"* %0, i64 0, i32 3, i64 0
  %101 = load i32, i32* %100, align 4
  %102 = or i32 %101, 2
  store i32 %102, i32* %100, align 4
  br label %103

103:                                              ; preds = %86, %2, %90
  ret void
}

; Function Attrs: nounwind ssp uwtable
define hidden void @_ZN13assist_ranker53TranslateRankerModel_TranslateLogisticRegressionModelC2EPN6google8protobuf5ArenaE(%"class.assist_ranker::TranslateRankerModel_TranslateLogisticRegressionModel"*, %"class.google::protobuf::Arena"*) unnamed_addr #0 align 2 {
  %3 = getelementptr inbounds %"class.assist_ranker::TranslateRankerModel_TranslateLogisticRegressionModel", %"class.assist_ranker::TranslateRankerModel_TranslateLogisticRegressionModel"* %0, i64 0, i32 0, i32 0
  %4 = getelementptr inbounds %"class.assist_ranker::TranslateRankerModel_TranslateLogisticRegressionModel", %"class.assist_ranker::TranslateRankerModel_TranslateLogisticRegressionModel"* %0, i64 0, i32 0, i32 1
  %5 = bitcast %"class.google::protobuf::internal::InternalMetadata"* %4 to %"class.google::protobuf::Arena"**
  store %"class.google::protobuf::Arena"* %1, %"class.google::protobuf::Arena"** %5, align 8
  store i32 (...)** bitcast (i8** getelementptr inbounds ({ [16 x i8*] }, { [16 x i8*] }* @_ZTVN13assist_ranker53TranslateRankerModel_TranslateLogisticRegressionModelE, i64 0, inrange i32 0, i64 2) to i32 (...)**), i32 (...)*** %3, align 8
  %6 = getelementptr inbounds %"class.assist_ranker::TranslateRankerModel_TranslateLogisticRegressionModel", %"class.assist_ranker::TranslateRankerModel_TranslateLogisticRegressionModel"* %0, i64 0, i32 1, i32 0, i64 0
  %7 = getelementptr inbounds %"class.assist_ranker::TranslateRankerModel_TranslateLogisticRegressionModel", %"class.assist_ranker::TranslateRankerModel_TranslateLogisticRegressionModel"* %0, i64 0, i32 3
  %8 = getelementptr inbounds %"class.assist_ranker::TranslateRankerModel_TranslateLogisticRegressionModel", %"class.assist_ranker::TranslateRankerModel_TranslateLogisticRegressionModel"* %0, i64 0, i32 3, i32 0, i32 0, i32 1
  %9 = bitcast i32* %6 to i8*
  call void @llvm.memset.p0i8.i64(i8* align 4 %9, i8 0, i64 16, i1 false)
  store i64 1, i64* %8, align 8
  %10 = getelementptr inbounds %"class.assist_ranker::TranslateRankerModel_TranslateLogisticRegressionModel", %"class.assist_ranker::TranslateRankerModel_TranslateLogisticRegressionModel"* %0, i64 0, i32 3, i32 0, i32 0, i32 2
  %11 = ptrtoint %"class.google::protobuf::internal::MapFieldLite"* %7 to i64
  %12 = lshr i64 %11, 12
  %13 = tail call { i32, i32 } asm sideeffect "rdtsc", "={ax},={dx},~{dirflag},~{fpsr},~{flags}"() #15, !srcloc !3
  %14 = extractvalue { i32, i32 } %13, 0
  %15 = extractvalue { i32, i32 } %13, 1
  %16 = zext i32 %15 to i64
  %17 = shl nuw i64 %16, 32
  %18 = zext i32 %14 to i64
  %19 = or i64 %17, %18
  %20 = add i64 %19, %12
  store i64 %20, i64* %10, align 8
  %21 = getelementptr inbounds %"class.assist_ranker::TranslateRankerModel_TranslateLogisticRegressionModel", %"class.assist_ranker::TranslateRankerModel_TranslateLogisticRegressionModel"* %0, i64 0, i32 3, i32 0, i32 0, i32 3
  %22 = load i64, i64* %8, align 8
  store i64 %22, i64* %21, align 8
  %23 = getelementptr inbounds %"class.assist_ranker::TranslateRankerModel_TranslateLogisticRegressionModel", %"class.assist_ranker::TranslateRankerModel_TranslateLogisticRegressionModel"* %0, i64 0, i32 3, i32 0, i32 0, i32 4
  store i8** getelementptr inbounds ([1 x i8*], [1 x i8*]* @_ZN6google8protobuf8internal17kGlobalEmptyTableE, i64 0, i64 0), i8*** %23, align 8
  %24 = getelementptr inbounds %"class.assist_ranker::TranslateRankerModel_TranslateLogisticRegressionModel", %"class.assist_ranker::TranslateRankerModel_TranslateLogisticRegressionModel"* %0, i64 0, i32 3, i32 0, i32 0, i32 5, i32 0
  store %"class.google::protobuf::Arena"* %1, %"class.google::protobuf::Arena"** %24, align 8
  %25 = getelementptr inbounds %"class.assist_ranker::TranslateRankerModel_TranslateLogisticRegressionModel", %"class.assist_ranker::TranslateRankerModel_TranslateLogisticRegressionModel"* %0, i64 0, i32 4
  %26 = getelementptr inbounds %"class.assist_ranker::TranslateRankerModel_TranslateLogisticRegressionModel", %"class.assist_ranker::TranslateRankerModel_TranslateLogisticRegressionModel"* %0, i64 0, i32 4, i32 0, i32 0, i32 1
  %27 = bitcast %"class.google::protobuf::internal::MapFieldLite.24"* %25 to <2 x i64>*
  store <2 x i64> <i64 0, i64 1>, <2 x i64>* %27, align 8
  %28 = getelementptr inbounds %"class.assist_ranker::TranslateRankerModel_TranslateLogisticRegressionModel", %"class.assist_ranker::TranslateRankerModel_TranslateLogisticRegressionModel"* %0, i64 0, i32 4, i32 0, i32 0, i32 2
  %29 = ptrtoint %"class.google::protobuf::internal::MapFieldLite.24"* %25 to i64
  %30 = lshr i64 %29, 12
  %31 = tail call { i32, i32 } asm sideeffect "rdtsc", "={ax},={dx},~{dirflag},~{fpsr},~{flags}"() #15, !srcloc !3
  %32 = extractvalue { i32, i32 } %31, 0
  %33 = extractvalue { i32, i32 } %31, 1
  %34 = zext i32 %33 to i64
  %35 = shl nuw i64 %34, 32
  %36 = zext i32 %32 to i64
  %37 = or i64 %35, %36
  %38 = add i64 %37, %30
  store i64 %38, i64* %28, align 8
  %39 = getelementptr inbounds %"class.assist_ranker::TranslateRankerModel_TranslateLogisticRegressionModel", %"class.assist_ranker::TranslateRankerModel_TranslateLogisticRegressionModel"* %0, i64 0, i32 4, i32 0, i32 0, i32 3
  %40 = load i64, i64* %26, align 8
  store i64 %40, i64* %39, align 8
  %41 = getelementptr inbounds %"class.assist_ranker::TranslateRankerModel_TranslateLogisticRegressionModel", %"class.assist_ranker::TranslateRankerModel_TranslateLogisticRegressionModel"* %0, i64 0, i32 4, i32 0, i32 0, i32 4
  store i8** getelementptr inbounds ([1 x i8*], [1 x i8*]* @_ZN6google8protobuf8internal17kGlobalEmptyTableE, i64 0, i64 0), i8*** %41, align 8
  %42 = getelementptr inbounds %"class.assist_ranker::TranslateRankerModel_TranslateLogisticRegressionModel", %"class.assist_ranker::TranslateRankerModel_TranslateLogisticRegressionModel"* %0, i64 0, i32 4, i32 0, i32 0, i32 5, i32 0
  store %"class.google::protobuf::Arena"* %1, %"class.google::protobuf::Arena"** %42, align 8
  %43 = getelementptr inbounds %"class.assist_ranker::TranslateRankerModel_TranslateLogisticRegressionModel", %"class.assist_ranker::TranslateRankerModel_TranslateLogisticRegressionModel"* %0, i64 0, i32 5
  %44 = getelementptr inbounds %"class.assist_ranker::TranslateRankerModel_TranslateLogisticRegressionModel", %"class.assist_ranker::TranslateRankerModel_TranslateLogisticRegressionModel"* %0, i64 0, i32 5, i32 0, i32 0, i32 1
  %45 = bitcast %"class.google::protobuf::internal::MapFieldLite.25"* %43 to <2 x i64>*
  store <2 x i64> <i64 0, i64 1>, <2 x i64>* %45, align 8
  %46 = getelementptr inbounds %"class.assist_ranker::TranslateRankerModel_TranslateLogisticRegressionModel", %"class.assist_ranker::TranslateRankerModel_TranslateLogisticRegressionModel"* %0, i64 0, i32 5, i32 0, i32 0, i32 2
  %47 = ptrtoint %"class.google::protobuf::internal::MapFieldLite.25"* %43 to i64
  %48 = lshr i64 %47, 12
  %49 = tail call { i32, i32 } asm sideeffect "rdtsc", "={ax},={dx},~{dirflag},~{fpsr},~{flags}"() #15, !srcloc !3
  %50 = extractvalue { i32, i32 } %49, 0
  %51 = extractvalue { i32, i32 } %49, 1
  %52 = zext i32 %51 to i64
  %53 = shl nuw i64 %52, 32
  %54 = zext i32 %50 to i64
  %55 = or i64 %53, %54
  %56 = add i64 %55, %48
  store i64 %56, i64* %46, align 8
  %57 = getelementptr inbounds %"class.assist_ranker::TranslateRankerModel_TranslateLogisticRegressionModel", %"class.assist_ranker::TranslateRankerModel_TranslateLogisticRegressionModel"* %0, i64 0, i32 5, i32 0, i32 0, i32 3
  %58 = load i64, i64* %44, align 8
  store i64 %58, i64* %57, align 8
  %59 = getelementptr inbounds %"class.assist_ranker::TranslateRankerModel_TranslateLogisticRegressionModel", %"class.assist_ranker::TranslateRankerModel_TranslateLogisticRegressionModel"* %0, i64 0, i32 5, i32 0, i32 0, i32 4
  store i8** getelementptr inbounds ([1 x i8*], [1 x i8*]* @_ZN6google8protobuf8internal17kGlobalEmptyTableE, i64 0, i64 0), i8*** %59, align 8
  %60 = getelementptr inbounds %"class.assist_ranker::TranslateRankerModel_TranslateLogisticRegressionModel", %"class.assist_ranker::TranslateRankerModel_TranslateLogisticRegressionModel"* %0, i64 0, i32 5, i32 0, i32 0, i32 5, i32 0
  store %"class.google::protobuf::Arena"* %1, %"class.google::protobuf::Arena"** %60, align 8
  %61 = getelementptr inbounds %"class.assist_ranker::TranslateRankerModel_TranslateLogisticRegressionModel", %"class.assist_ranker::TranslateRankerModel_TranslateLogisticRegressionModel"* %0, i64 0, i32 6
  %62 = getelementptr inbounds %"class.assist_ranker::TranslateRankerModel_TranslateLogisticRegressionModel", %"class.assist_ranker::TranslateRankerModel_TranslateLogisticRegressionModel"* %0, i64 0, i32 6, i32 0, i32 0, i32 1
  %63 = bitcast %"class.google::protobuf::internal::MapFieldLite.26"* %61 to <2 x i64>*
  store <2 x i64> <i64 0, i64 1>, <2 x i64>* %63, align 8
  %64 = getelementptr inbounds %"class.assist_ranker::TranslateRankerModel_TranslateLogisticRegressionModel", %"class.assist_ranker::TranslateRankerModel_TranslateLogisticRegressionModel"* %0, i64 0, i32 6, i32 0, i32 0, i32 2
  %65 = ptrtoint %"class.google::protobuf::internal::MapFieldLite.26"* %61 to i64
  %66 = lshr i64 %65, 12
  %67 = tail call { i32, i32 } asm sideeffect "rdtsc", "={ax},={dx},~{dirflag},~{fpsr},~{flags}"() #15, !srcloc !3
  %68 = extractvalue { i32, i32 } %67, 0
  %69 = extractvalue { i32, i32 } %67, 1
  %70 = zext i32 %69 to i64
  %71 = shl nuw i64 %70, 32
  %72 = zext i32 %68 to i64
  %73 = or i64 %71, %72
  %74 = add i64 %73, %66
  store i64 %74, i64* %64, align 8
  %75 = getelementptr inbounds %"class.assist_ranker::TranslateRankerModel_TranslateLogisticRegressionModel", %"class.assist_ranker::TranslateRankerModel_TranslateLogisticRegressionModel"* %0, i64 0, i32 6, i32 0, i32 0, i32 3
  %76 = load i64, i64* %62, align 8
  store i64 %76, i64* %75, align 8
  %77 = getelementptr inbounds %"class.assist_ranker::TranslateRankerModel_TranslateLogisticRegressionModel", %"class.assist_ranker::TranslateRankerModel_TranslateLogisticRegressionModel"* %0, i64 0, i32 6, i32 0, i32 0, i32 4
  store i8** getelementptr inbounds ([1 x i8*], [1 x i8*]* @_ZN6google8protobuf8internal17kGlobalEmptyTableE, i64 0, i64 0), i8*** %77, align 8
  %78 = getelementptr inbounds %"class.assist_ranker::TranslateRankerModel_TranslateLogisticRegressionModel", %"class.assist_ranker::TranslateRankerModel_TranslateLogisticRegressionModel"* %0, i64 0, i32 6, i32 0, i32 0, i32 5, i32 0
  store %"class.google::protobuf::Arena"* %1, %"class.google::protobuf::Arena"** %78, align 8
  %79 = load atomic i32, i32* getelementptr inbounds ({ { { { i32 } }, i32, i32, void ()* }, [4 x i8*] }, { { { { i32 } }, i32, i32, void ()* }, [4 x i8*] }* @scc_info_TranslateRankerModel_TranslateLogisticRegressionModel_translate_5franker_5fmodel_2eproto, i64 0, i32 0, i32 0, i32 0, i32 0) acquire, align 8
  %80 = icmp eq i32 %79, 0
  br i1 %80, label %82, label %81, !prof !2

81:                                               ; preds = %2
  tail call void @_ZN6google8protobuf8internal11InitSCCImplEPNS1_11SCCInfoBaseE(%"struct.google::protobuf::internal::SCCInfoBase"* bitcast ({ { { { i32 } }, i32, i32, void ()* }, [4 x i8*] }* @scc_info_TranslateRankerModel_TranslateLogisticRegressionModel_translate_5franker_5fmodel_2eproto to %"struct.google::protobuf::internal::SCCInfoBase"*)) #15
  br label %82

82:                                               ; preds = %2, %81
  %83 = getelementptr inbounds %"class.assist_ranker::TranslateRankerModel_TranslateLogisticRegressionModel", %"class.assist_ranker::TranslateRankerModel_TranslateLogisticRegressionModel"* %0, i64 0, i32 7
  %84 = bitcast float* %83 to i8*
  tail call void @llvm.memset.p0i8.i64(i8* align 1 %84, i8 0, i64 32, i1 false) #15
  ret void
}

; Function Attrs: nounwind ssp uwtable
define hidden void @_ZN13assist_ranker53TranslateRankerModel_TranslateLogisticRegressionModelC2ERKS0_(%"class.assist_ranker::TranslateRankerModel_TranslateLogisticRegressionModel"*, %"class.assist_ranker::TranslateRankerModel_TranslateLogisticRegressionModel"* dereferenceable(248)) unnamed_addr #0 align 2 {
  %3 = alloca %"struct.std::__1::pair.42", align 8
  %4 = alloca %"class.google::protobuf::Map<std::__1::basic_string<char, std::__1::char_traits<char>, std::__1::allocator<char> >, float>::const_iterator", align 8
  %5 = alloca %"struct.std::__1::pair.42", align 8
  %6 = alloca %"class.google::protobuf::Map<std::__1::basic_string<char, std::__1::char_traits<char>, std::__1::allocator<char> >, float>::const_iterator", align 8
  %7 = alloca %"struct.std::__1::pair.42", align 8
  %8 = alloca %"class.google::protobuf::Map<std::__1::basic_string<char, std::__1::char_traits<char>, std::__1::allocator<char> >, float>::const_iterator", align 8
  %9 = alloca %"struct.std::__1::pair.42", align 8
  %10 = alloca %"class.google::protobuf::Map<std::__1::basic_string<char, std::__1::char_traits<char>, std::__1::allocator<char> >, float>::const_iterator", align 8
  %11 = getelementptr inbounds %"class.assist_ranker::TranslateRankerModel_TranslateLogisticRegressionModel", %"class.assist_ranker::TranslateRankerModel_TranslateLogisticRegressionModel"* %0, i64 0, i32 0, i32 0
  %12 = getelementptr inbounds %"class.assist_ranker::TranslateRankerModel_TranslateLogisticRegressionModel", %"class.assist_ranker::TranslateRankerModel_TranslateLogisticRegressionModel"* %0, i64 0, i32 0, i32 1, i32 0
  store i8* null, i8** %12, align 8
  store i32 (...)** bitcast (i8** getelementptr inbounds ({ [16 x i8*] }, { [16 x i8*] }* @_ZTVN13assist_ranker53TranslateRankerModel_TranslateLogisticRegressionModelE, i64 0, inrange i32 0, i64 2) to i32 (...)**), i32 (...)*** %11, align 8
  %13 = getelementptr inbounds %"class.assist_ranker::TranslateRankerModel_TranslateLogisticRegressionModel", %"class.assist_ranker::TranslateRankerModel_TranslateLogisticRegressionModel"* %1, i64 0, i32 1, i32 0, i64 0
  %14 = getelementptr inbounds %"class.assist_ranker::TranslateRankerModel_TranslateLogisticRegressionModel", %"class.assist_ranker::TranslateRankerModel_TranslateLogisticRegressionModel"* %0, i64 0, i32 1, i32 0, i64 0
  %15 = load i32, i32* %13, align 8
  store i32 %15, i32* %14, align 8
  %16 = getelementptr inbounds %"class.assist_ranker::TranslateRankerModel_TranslateLogisticRegressionModel", %"class.assist_ranker::TranslateRankerModel_TranslateLogisticRegressionModel"* %0, i64 0, i32 2, i32 0, i32 0, i32 0, i32 0, i32 0, i32 0
  store i32 0, i32* %16, align 4
  %17 = getelementptr inbounds %"class.assist_ranker::TranslateRankerModel_TranslateLogisticRegressionModel", %"class.assist_ranker::TranslateRankerModel_TranslateLogisticRegressionModel"* %0, i64 0, i32 3
  %18 = getelementptr inbounds %"class.assist_ranker::TranslateRankerModel_TranslateLogisticRegressionModel", %"class.assist_ranker::TranslateRankerModel_TranslateLogisticRegressionModel"* %0, i64 0, i32 3, i32 0, i32 0, i32 1
  %19 = bitcast %"class.google::protobuf::internal::MapFieldLite"* %17 to <2 x i64>*
  store <2 x i64> <i64 0, i64 1>, <2 x i64>* %19, align 8
  %20 = getelementptr inbounds %"class.assist_ranker::TranslateRankerModel_TranslateLogisticRegressionModel", %"class.assist_ranker::TranslateRankerModel_TranslateLogisticRegressionModel"* %0, i64 0, i32 3, i32 0, i32 0, i32 2
  %21 = ptrtoint %"class.google::protobuf::internal::MapFieldLite"* %17 to i64
  %22 = lshr i64 %21, 12
  %23 = tail call { i32, i32 } asm sideeffect "rdtsc", "={ax},={dx},~{dirflag},~{fpsr},~{flags}"() #15, !srcloc !3
  %24 = extractvalue { i32, i32 } %23, 0
  %25 = extractvalue { i32, i32 } %23, 1
  %26 = zext i32 %25 to i64
  %27 = shl nuw i64 %26, 32
  %28 = zext i32 %24 to i64
  %29 = or i64 %27, %28
  %30 = add i64 %29, %22
  store i64 %30, i64* %20, align 8
  %31 = getelementptr inbounds %"class.assist_ranker::TranslateRankerModel_TranslateLogisticRegressionModel", %"class.assist_ranker::TranslateRankerModel_TranslateLogisticRegressionModel"* %0, i64 0, i32 3, i32 0, i32 0, i32 3
  %32 = load i64, i64* %18, align 8
  store i64 %32, i64* %31, align 8
  %33 = getelementptr inbounds %"class.assist_ranker::TranslateRankerModel_TranslateLogisticRegressionModel", %"class.assist_ranker::TranslateRankerModel_TranslateLogisticRegressionModel"* %0, i64 0, i32 3, i32 0, i32 0, i32 4
  store i8** getelementptr inbounds ([1 x i8*], [1 x i8*]* @_ZN6google8protobuf8internal17kGlobalEmptyTableE, i64 0, i64 0), i8*** %33, align 8
  %34 = getelementptr inbounds %"class.assist_ranker::TranslateRankerModel_TranslateLogisticRegressionModel", %"class.assist_ranker::TranslateRankerModel_TranslateLogisticRegressionModel"* %0, i64 0, i32 3, i32 0, i32 0, i32 5, i32 0
  %35 = getelementptr inbounds %"class.assist_ranker::TranslateRankerModel_TranslateLogisticRegressionModel", %"class.assist_ranker::TranslateRankerModel_TranslateLogisticRegressionModel"* %0, i64 0, i32 4
  %36 = getelementptr inbounds %"class.assist_ranker::TranslateRankerModel_TranslateLogisticRegressionModel", %"class.assist_ranker::TranslateRankerModel_TranslateLogisticRegressionModel"* %0, i64 0, i32 4, i32 0, i32 0, i32 1
  %37 = bitcast %"class.google::protobuf::Arena"** %34 to i8*
  call void @llvm.memset.p0i8.i64(i8* align 8 %37, i8 0, i64 16, i1 false)
  store i64 1, i64* %36, align 8
  %38 = getelementptr inbounds %"class.assist_ranker::TranslateRankerModel_TranslateLogisticRegressionModel", %"class.assist_ranker::TranslateRankerModel_TranslateLogisticRegressionModel"* %0, i64 0, i32 4, i32 0, i32 0, i32 2
  %39 = ptrtoint %"class.google::protobuf::internal::MapFieldLite.24"* %35 to i64
  %40 = lshr i64 %39, 12
  %41 = tail call { i32, i32 } asm sideeffect "rdtsc", "={ax},={dx},~{dirflag},~{fpsr},~{flags}"() #15, !srcloc !3
  %42 = extractvalue { i32, i32 } %41, 0
  %43 = extractvalue { i32, i32 } %41, 1
  %44 = zext i32 %43 to i64
  %45 = shl nuw i64 %44, 32
  %46 = zext i32 %42 to i64
  %47 = or i64 %45, %46
  %48 = add i64 %47, %40
  store i64 %48, i64* %38, align 8
  %49 = getelementptr inbounds %"class.assist_ranker::TranslateRankerModel_TranslateLogisticRegressionModel", %"class.assist_ranker::TranslateRankerModel_TranslateLogisticRegressionModel"* %0, i64 0, i32 4, i32 0, i32 0, i32 3
  %50 = load i64, i64* %36, align 8
  store i64 %50, i64* %49, align 8
  %51 = getelementptr inbounds %"class.assist_ranker::TranslateRankerModel_TranslateLogisticRegressionModel", %"class.assist_ranker::TranslateRankerModel_TranslateLogisticRegressionModel"* %0, i64 0, i32 4, i32 0, i32 0, i32 4
  store i8** getelementptr inbounds ([1 x i8*], [1 x i8*]* @_ZN6google8protobuf8internal17kGlobalEmptyTableE, i64 0, i64 0), i8*** %51, align 8
  %52 = getelementptr inbounds %"class.assist_ranker::TranslateRankerModel_TranslateLogisticRegressionModel", %"class.assist_ranker::TranslateRankerModel_TranslateLogisticRegressionModel"* %0, i64 0, i32 4, i32 0, i32 0, i32 5, i32 0
  %53 = getelementptr inbounds %"class.assist_ranker::TranslateRankerModel_TranslateLogisticRegressionModel", %"class.assist_ranker::TranslateRankerModel_TranslateLogisticRegressionModel"* %0, i64 0, i32 5
  %54 = getelementptr inbounds %"class.assist_ranker::TranslateRankerModel_TranslateLogisticRegressionModel", %"class.assist_ranker::TranslateRankerModel_TranslateLogisticRegressionModel"* %0, i64 0, i32 5, i32 0, i32 0, i32 1
  %55 = bitcast %"class.google::protobuf::Arena"** %52 to i8*
  call void @llvm.memset.p0i8.i64(i8* align 8 %55, i8 0, i64 16, i1 false)
  store i64 1, i64* %54, align 8
  %56 = getelementptr inbounds %"class.assist_ranker::TranslateRankerModel_TranslateLogisticRegressionModel", %"class.assist_ranker::TranslateRankerModel_TranslateLogisticRegressionModel"* %0, i64 0, i32 5, i32 0, i32 0, i32 2
  %57 = ptrtoint %"class.google::protobuf::internal::MapFieldLite.25"* %53 to i64
  %58 = lshr i64 %57, 12
  %59 = tail call { i32, i32 } asm sideeffect "rdtsc", "={ax},={dx},~{dirflag},~{fpsr},~{flags}"() #15, !srcloc !3
  %60 = extractvalue { i32, i32 } %59, 0
  %61 = extractvalue { i32, i32 } %59, 1
  %62 = zext i32 %61 to i64
  %63 = shl nuw i64 %62, 32
  %64 = zext i32 %60 to i64
  %65 = or i64 %63, %64
  %66 = add i64 %65, %58
  store i64 %66, i64* %56, align 8
  %67 = getelementptr inbounds %"class.assist_ranker::TranslateRankerModel_TranslateLogisticRegressionModel", %"class.assist_ranker::TranslateRankerModel_TranslateLogisticRegressionModel"* %0, i64 0, i32 5, i32 0, i32 0, i32 3
  %68 = load i64, i64* %54, align 8
  store i64 %68, i64* %67, align 8
  %69 = getelementptr inbounds %"class.assist_ranker::TranslateRankerModel_TranslateLogisticRegressionModel", %"class.assist_ranker::TranslateRankerModel_TranslateLogisticRegressionModel"* %0, i64 0, i32 5, i32 0, i32 0, i32 4
  store i8** getelementptr inbounds ([1 x i8*], [1 x i8*]* @_ZN6google8protobuf8internal17kGlobalEmptyTableE, i64 0, i64 0), i8*** %69, align 8
  %70 = getelementptr inbounds %"class.assist_ranker::TranslateRankerModel_TranslateLogisticRegressionModel", %"class.assist_ranker::TranslateRankerModel_TranslateLogisticRegressionModel"* %0, i64 0, i32 5, i32 0, i32 0, i32 5, i32 0
  %71 = getelementptr inbounds %"class.assist_ranker::TranslateRankerModel_TranslateLogisticRegressionModel", %"class.assist_ranker::TranslateRankerModel_TranslateLogisticRegressionModel"* %0, i64 0, i32 6
  %72 = getelementptr inbounds %"class.assist_ranker::TranslateRankerModel_TranslateLogisticRegressionModel", %"class.assist_ranker::TranslateRankerModel_TranslateLogisticRegressionModel"* %0, i64 0, i32 6, i32 0, i32 0, i32 1
  %73 = bitcast %"class.google::protobuf::Arena"** %70 to i8*
  call void @llvm.memset.p0i8.i64(i8* align 8 %73, i8 0, i64 16, i1 false)
  store i64 1, i64* %72, align 8
  %74 = getelementptr inbounds %"class.assist_ranker::TranslateRankerModel_TranslateLogisticRegressionModel", %"class.assist_ranker::TranslateRankerModel_TranslateLogisticRegressionModel"* %0, i64 0, i32 6, i32 0, i32 0, i32 2
  %75 = ptrtoint %"class.google::protobuf::internal::MapFieldLite.26"* %71 to i64
  %76 = lshr i64 %75, 12
  %77 = tail call { i32, i32 } asm sideeffect "rdtsc", "={ax},={dx},~{dirflag},~{fpsr},~{flags}"() #15, !srcloc !3
  %78 = extractvalue { i32, i32 } %77, 0
  %79 = extractvalue { i32, i32 } %77, 1
  %80 = zext i32 %79 to i64
  %81 = shl nuw i64 %80, 32
  %82 = zext i32 %78 to i64
  %83 = or i64 %81, %82
  %84 = add i64 %83, %76
  store i64 %84, i64* %74, align 8
  %85 = getelementptr inbounds %"class.assist_ranker::TranslateRankerModel_TranslateLogisticRegressionModel", %"class.assist_ranker::TranslateRankerModel_TranslateLogisticRegressionModel"* %0, i64 0, i32 6, i32 0, i32 0, i32 3
  %86 = load i64, i64* %72, align 8
  store i64 %86, i64* %85, align 8
  %87 = getelementptr inbounds %"class.assist_ranker::TranslateRankerModel_TranslateLogisticRegressionModel", %"class.assist_ranker::TranslateRankerModel_TranslateLogisticRegressionModel"* %0, i64 0, i32 6, i32 0, i32 0, i32 4
  store i8** getelementptr inbounds ([1 x i8*], [1 x i8*]* @_ZN6google8protobuf8internal17kGlobalEmptyTableE, i64 0, i64 0), i8*** %87, align 8
  %88 = getelementptr inbounds %"class.assist_ranker::TranslateRankerModel_TranslateLogisticRegressionModel", %"class.assist_ranker::TranslateRankerModel_TranslateLogisticRegressionModel"* %0, i64 0, i32 6, i32 0, i32 0, i32 5, i32 0
  store %"class.google::protobuf::Arena"* null, %"class.google::protobuf::Arena"** %88, align 8
  %89 = getelementptr inbounds %"class.assist_ranker::TranslateRankerModel_TranslateLogisticRegressionModel", %"class.assist_ranker::TranslateRankerModel_TranslateLogisticRegressionModel"* %0, i64 0, i32 0, i32 1
  %90 = getelementptr inbounds %"class.assist_ranker::TranslateRankerModel_TranslateLogisticRegressionModel", %"class.assist_ranker::TranslateRankerModel_TranslateLogisticRegressionModel"* %1, i64 0, i32 0, i32 1
  %91 = bitcast %"class.google::protobuf::internal::InternalMetadata"* %90 to i64*
  %92 = load i64, i64* %91, align 8
  %93 = and i64 %92, 1
  %94 = icmp eq i64 %93, 0
  br i1 %94, label %124, label %95

95:                                               ; preds = %2
  %96 = and i64 %92, -2
  %97 = inttoptr i64 %96 to %"struct.google::protobuf::internal::InternalMetadata::Container"*
  %98 = getelementptr inbounds %"struct.google::protobuf::internal::InternalMetadata::Container", %"struct.google::protobuf::internal::InternalMetadata::Container"* %97, i64 0, i32 1
  %99 = bitcast %"class.google::protobuf::internal::InternalMetadata"* %89 to i64*
  %100 = load i64, i64* %99, align 8
  %101 = and i64 %100, 1
  %102 = icmp eq i64 %101, 0
  br i1 %102, label %107, label %103, !prof !4

103:                                              ; preds = %95
  %104 = and i64 %100, -2
  %105 = inttoptr i64 %104 to %"struct.google::protobuf::internal::InternalMetadata::Container"*
  %106 = getelementptr inbounds %"struct.google::protobuf::internal::InternalMetadata::Container", %"struct.google::protobuf::internal::InternalMetadata::Container"* %105, i64 0, i32 1
  br label %109

107:                                              ; preds = %95
  %108 = tail call %"class.std::__1::basic_string"* @_ZN6google8protobuf8internal16InternalMetadata27mutable_unknown_fields_slowINSt3__112basic_stringIcNS4_11char_traitsIcEENS4_9allocatorIcEEEEEEPT_v(%"class.google::protobuf::internal::InternalMetadata"* %89) #15
  br label %109

109:                                              ; preds = %107, %103
  %110 = phi %"class.std::__1::basic_string"* [ %106, %103 ], [ %108, %107 ]
  %111 = bitcast %"class.std::__1::basic_string"* %98 to %"struct.std::__1::basic_string<char, std::__1::char_traits<char>, std::__1::allocator<char> >::__short"*
  %112 = getelementptr inbounds %"struct.std::__1::basic_string<char, std::__1::char_traits<char>, std::__1::allocator<char> >::__short", %"struct.std::__1::basic_string<char, std::__1::char_traits<char>, std::__1::allocator<char> >::__short"* %111, i64 0, i32 1, i32 0
  %113 = load i8, i8* %112, align 1
  %114 = icmp slt i8 %113, 0
  %115 = getelementptr inbounds %"class.std::__1::basic_string", %"class.std::__1::basic_string"* %98, i64 0, i32 0, i32 0, i32 0, i32 0, i32 0, i32 0
  %116 = load i8*, i8** %115, align 8
  %117 = getelementptr inbounds %"struct.google::protobuf::internal::InternalMetadata::Container", %"struct.google::protobuf::internal::InternalMetadata::Container"* %97, i64 0, i32 1, i32 0, i32 0, i32 0, i32 0, i32 0, i32 1
  %118 = load i64, i64* %117, align 8
  %119 = bitcast %"class.std::__1::basic_string"* %98 to i8*
  %120 = zext i8 %113 to i64
  %121 = select i1 %114, i8* %116, i8* %119
  %122 = select i1 %114, i64 %118, i64 %120
  %123 = tail call dereferenceable(24) %"class.std::__1::basic_string"* @_ZNSt3__112basic_stringIcNS_11char_traitsIcEENS_9allocatorIcEEE6appendEPKcm(%"class.std::__1::basic_string"* %110, i8* %121, i64 %122) #15
  br label %124

124:                                              ; preds = %2, %109
  %125 = bitcast %"class.google::protobuf::Map<std::__1::basic_string<char, std::__1::char_traits<char>, std::__1::allocator<char> >, float>::const_iterator"* %8 to i8*
  call void @llvm.lifetime.start.p0i8(i64 24, i8* nonnull %125) #15
  %126 = getelementptr inbounds %"class.google::protobuf::Map<std::__1::basic_string<char, std::__1::char_traits<char>, std::__1::allocator<char> >, float>::const_iterator", %"class.google::protobuf::Map<std::__1::basic_string<char, std::__1::char_traits<char>, std::__1::allocator<char> >, float>::const_iterator"* %8, i64 0, i32 0, i32 0
  %127 = getelementptr inbounds %"class.google::protobuf::Map<std::__1::basic_string<char, std::__1::char_traits<char>, std::__1::allocator<char> >, float>::const_iterator", %"class.google::protobuf::Map<std::__1::basic_string<char, std::__1::char_traits<char>, std::__1::allocator<char> >, float>::const_iterator"* %8, i64 0, i32 0, i32 1
  %128 = getelementptr inbounds %"class.google::protobuf::Map<std::__1::basic_string<char, std::__1::char_traits<char>, std::__1::allocator<char> >, float>::const_iterator", %"class.google::protobuf::Map<std::__1::basic_string<char, std::__1::char_traits<char>, std::__1::allocator<char> >, float>::const_iterator"* %8, i64 0, i32 0, i32 2
  %129 = getelementptr inbounds %"class.assist_ranker::TranslateRankerModel_TranslateLogisticRegressionModel", %"class.assist_ranker::TranslateRankerModel_TranslateLogisticRegressionModel"* %1, i64 0, i32 3, i32 0, i32 0
  %130 = getelementptr inbounds %"class.assist_ranker::TranslateRankerModel_TranslateLogisticRegressionModel", %"class.assist_ranker::TranslateRankerModel_TranslateLogisticRegressionModel"* %1, i64 0, i32 3, i32 0, i32 0, i32 3
  call void @llvm.memset.p0i8.i64(i8* nonnull align 8 %125, i8 -86, i64 24, i1 false) #15
  %131 = load i64, i64* %130, align 8, !noalias !5
  %132 = getelementptr inbounds %"class.assist_ranker::TranslateRankerModel_TranslateLogisticRegressionModel", %"class.assist_ranker::TranslateRankerModel_TranslateLogisticRegressionModel"* %1, i64 0, i32 3, i32 0, i32 0, i32 1
  %133 = load i64, i64* %132, align 8, !noalias !5
  %134 = icmp ugt i64 %133, %131
  br i1 %134, label %135, label %159

135:                                              ; preds = %124
  %136 = getelementptr inbounds %"class.assist_ranker::TranslateRankerModel_TranslateLogisticRegressionModel", %"class.assist_ranker::TranslateRankerModel_TranslateLogisticRegressionModel"* %1, i64 0, i32 3, i32 0, i32 0, i32 4
  %137 = load i8**, i8*** %136, align 8, !noalias !5
  br label %138

138:                                              ; preds = %156, %135
  %139 = phi i64 [ %131, %135 ], [ %157, %156 ]
  %140 = getelementptr inbounds i8*, i8** %137, i64 %139
  %141 = load i8*, i8** %140, align 8, !noalias !5
  %142 = icmp eq i8* %141, null
  br i1 %142, label %156, label %143

143:                                              ; preds = %138
  %144 = xor i64 %139, 1
  %145 = getelementptr inbounds i8*, i8** %137, i64 %144
  %146 = load i8*, i8** %145, align 8, !noalias !5
  %147 = icmp eq i8* %141, %146
  br i1 %147, label %150, label %148

148:                                              ; preds = %143
  %149 = ptrtoint i8* %141 to i64
  br label %162

150:                                              ; preds = %143
  %151 = bitcast i8* %141 to %"class.std::__1::__tree_end_node"**
  %152 = load %"class.std::__1::__tree_end_node"*, %"class.std::__1::__tree_end_node"** %151, align 8, !noalias !5
  %153 = getelementptr inbounds %"class.std::__1::__tree_end_node", %"class.std::__1::__tree_end_node"* %152, i64 5
  %154 = bitcast %"class.std::__1::__tree_end_node"* %153 to i64*
  %155 = load i64, i64* %154, align 8, !noalias !5
  br label %162

156:                                              ; preds = %138
  %157 = add i64 %139, 1
  %158 = icmp eq i64 %157, %133
  br i1 %158, label %159, label %138

159:                                              ; preds = %156, %124
  %160 = phi i64 [ %131, %124 ], [ %133, %156 ]
  %161 = bitcast %"class.google::protobuf::Map<std::__1::basic_string<char, std::__1::char_traits<char>, std::__1::allocator<char> >, float>::const_iterator"* %8 to i64*
  store i64 0, i64* %161, align 8, !alias.scope !10
  store %"class.google::protobuf::Map<std::__1::basic_string<char, std::__1::char_traits<char>, std::__1::allocator<char> >, float>::InnerMap"* %129, %"class.google::protobuf::Map<std::__1::basic_string<char, std::__1::char_traits<char>, std::__1::allocator<char> >, float>::InnerMap"** %127, align 8, !alias.scope !10
  store i64 %160, i64* %128, align 8, !alias.scope !10
  br label %184

162:                                              ; preds = %150, %148
  %163 = phi i64 [ %155, %150 ], [ %149, %148 ]
  %164 = bitcast %"class.google::protobuf::Map<std::__1::basic_string<char, std::__1::char_traits<char>, std::__1::allocator<char> >, float>::const_iterator"* %8 to i64*
  store i64 %163, i64* %164, align 8, !alias.scope !10
  store %"class.google::protobuf::Map<std::__1::basic_string<char, std::__1::char_traits<char>, std::__1::allocator<char> >, float>::InnerMap"* %129, %"class.google::protobuf::Map<std::__1::basic_string<char, std::__1::char_traits<char>, std::__1::allocator<char> >, float>::InnerMap"** %127, align 8, !alias.scope !10
  store i64 %139, i64* %128, align 8, !alias.scope !10
  %165 = icmp eq i64 %163, 0
  br i1 %165, label %184, label %166

166:                                              ; preds = %162
  %167 = inttoptr i64 %163 to %"struct.google::protobuf::Map<std::__1::basic_string<char, std::__1::char_traits<char>, std::__1::allocator<char> >, float>::InnerMap::Node"*
  %168 = getelementptr inbounds %"class.google::protobuf::internal::MapFieldLite", %"class.google::protobuf::internal::MapFieldLite"* %17, i64 0, i32 0, i32 0
  %169 = bitcast %"struct.std::__1::pair.42"* %7 to i8*
  %170 = getelementptr inbounds %"struct.std::__1::pair.42", %"struct.std::__1::pair.42"* %7, i64 0, i32 0, i32 0
  %171 = getelementptr inbounds %"class.google::protobuf::Map<std::__1::basic_string<char, std::__1::char_traits<char>, std::__1::allocator<char> >, float>::const_iterator", %"class.google::protobuf::Map<std::__1::basic_string<char, std::__1::char_traits<char>, std::__1::allocator<char> >, float>::const_iterator"* %8, i64 0, i32 0
  br label %172

172:                                              ; preds = %172, %166
  %173 = phi %"struct.google::protobuf::Map<std::__1::basic_string<char, std::__1::char_traits<char>, std::__1::allocator<char> >, float>::InnerMap::Node"* [ %167, %166 ], [ %182, %172 ]
  %174 = getelementptr inbounds %"struct.google::protobuf::Map<std::__1::basic_string<char, std::__1::char_traits<char>, std::__1::allocator<char> >, float>::InnerMap::Node", %"struct.google::protobuf::Map<std::__1::basic_string<char, std::__1::char_traits<char>, std::__1::allocator<char> >, float>::InnerMap::Node"* %173, i64 0, i32 0, i32 1
  %175 = bitcast float* %174 to i32*
  %176 = load i32, i32* %175, align 8
  %177 = getelementptr inbounds %"struct.google::protobuf::Map<std::__1::basic_string<char, std::__1::char_traits<char>, std::__1::allocator<char> >, float>::InnerMap::Node", %"struct.google::protobuf::Map<std::__1::basic_string<char, std::__1::char_traits<char>, std::__1::allocator<char> >, float>::InnerMap::Node"* %173, i64 0, i32 0, i32 0
  call void @llvm.lifetime.start.p0i8(i64 32, i8* nonnull %169) #15
  call void @_ZN6google8protobuf3MapINSt3__112basic_stringIcNS2_11char_traitsIcEENS2_9allocatorIcEEEEfE8InnerMap6insertERKS8_(%"struct.std::__1::pair.42"* nonnull sret %7, %"class.google::protobuf::Map<std::__1::basic_string<char, std::__1::char_traits<char>, std::__1::allocator<char> >, float>::InnerMap"* %168, %"class.std::__1::basic_string"* dereferenceable(24) %177) #15
  %178 = load %"struct.google::protobuf::Map<std::__1::basic_string<char, std::__1::char_traits<char>, std::__1::allocator<char> >, float>::InnerMap::Node"*, %"struct.google::protobuf::Map<std::__1::basic_string<char, std::__1::char_traits<char>, std::__1::allocator<char> >, float>::InnerMap::Node"** %170, align 8
  call void @llvm.lifetime.end.p0i8(i64 32, i8* nonnull %169) #15
  %179 = getelementptr inbounds %"struct.google::protobuf::Map<std::__1::basic_string<char, std::__1::char_traits<char>, std::__1::allocator<char> >, float>::InnerMap::Node", %"struct.google::protobuf::Map<std::__1::basic_string<char, std::__1::char_traits<char>, std::__1::allocator<char> >, float>::InnerMap::Node"* %178, i64 0, i32 0, i32 1
  %180 = bitcast float* %179 to i32*
  store i32 %176, i32* %180, align 4
  %181 = call dereferenceable(24) %"class.google::protobuf::Map<std::__1::basic_string<char, std::__1::char_traits<char>, std::__1::allocator<char> >, float>::InnerMap::iterator_base"* @_ZN6google8protobuf3MapINSt3__112basic_stringIcNS2_11char_traitsIcEENS2_9allocatorIcEEEEfE8InnerMap13iterator_baseIKNS0_7MapPairIS8_fEEEppEv(%"class.google::protobuf::Map<std::__1::basic_string<char, std::__1::char_traits<char>, std::__1::allocator<char> >, float>::InnerMap::iterator_base"* nonnull %171) #15
  %182 = load %"struct.google::protobuf::Map<std::__1::basic_string<char, std::__1::char_traits<char>, std::__1::allocator<char> >, float>::InnerMap::Node"*, %"struct.google::protobuf::Map<std::__1::basic_string<char, std::__1::char_traits<char>, std::__1::allocator<char> >, float>::InnerMap::Node"** %126, align 8
  %183 = icmp eq %"struct.google::protobuf::Map<std::__1::basic_string<char, std::__1::char_traits<char>, std::__1::allocator<char> >, float>::InnerMap::Node"* %182, null
  br i1 %183, label %184, label %172

184:                                              ; preds = %172, %159, %162
  call void @llvm.lifetime.end.p0i8(i64 24, i8* nonnull %125) #15
  %185 = bitcast %"class.google::protobuf::Map<std::__1::basic_string<char, std::__1::char_traits<char>, std::__1::allocator<char> >, float>::const_iterator"* %6 to i8*
  call void @llvm.lifetime.start.p0i8(i64 24, i8* nonnull %185) #15
  %186 = getelementptr inbounds %"class.google::protobuf::Map<std::__1::basic_string<char, std::__1::char_traits<char>, std::__1::allocator<char> >, float>::const_iterator", %"class.google::protobuf::Map<std::__1::basic_string<char, std::__1::char_traits<char>, std::__1::allocator<char> >, float>::const_iterator"* %6, i64 0, i32 0, i32 0
  %187 = getelementptr inbounds %"class.google::protobuf::Map<std::__1::basic_string<char, std::__1::char_traits<char>, std::__1::allocator<char> >, float>::const_iterator", %"class.google::protobuf::Map<std::__1::basic_string<char, std::__1::char_traits<char>, std::__1::allocator<char> >, float>::const_iterator"* %6, i64 0, i32 0, i32 1
  %188 = getelementptr inbounds %"class.google::protobuf::Map<std::__1::basic_string<char, std::__1::char_traits<char>, std::__1::allocator<char> >, float>::const_iterator", %"class.google::protobuf::Map<std::__1::basic_string<char, std::__1::char_traits<char>, std::__1::allocator<char> >, float>::const_iterator"* %6, i64 0, i32 0, i32 2
  %189 = getelementptr inbounds %"class.assist_ranker::TranslateRankerModel_TranslateLogisticRegressionModel", %"class.assist_ranker::TranslateRankerModel_TranslateLogisticRegressionModel"* %1, i64 0, i32 4, i32 0, i32 0
  %190 = getelementptr inbounds %"class.assist_ranker::TranslateRankerModel_TranslateLogisticRegressionModel", %"class.assist_ranker::TranslateRankerModel_TranslateLogisticRegressionModel"* %1, i64 0, i32 4, i32 0, i32 0, i32 3
  call void @llvm.memset.p0i8.i64(i8* nonnull align 8 %185, i8 -86, i64 24, i1 false) #15
  %191 = load i64, i64* %190, align 8, !noalias !11
  %192 = getelementptr inbounds %"class.assist_ranker::TranslateRankerModel_TranslateLogisticRegressionModel", %"class.assist_ranker::TranslateRankerModel_TranslateLogisticRegressionModel"* %1, i64 0, i32 4, i32 0, i32 0, i32 1
  %193 = load i64, i64* %192, align 8, !noalias !11
  %194 = icmp ugt i64 %193, %191
  br i1 %194, label %195, label %219

195:                                              ; preds = %184
  %196 = getelementptr inbounds %"class.assist_ranker::TranslateRankerModel_TranslateLogisticRegressionModel", %"class.assist_ranker::TranslateRankerModel_TranslateLogisticRegressionModel"* %1, i64 0, i32 4, i32 0, i32 0, i32 4
  %197 = load i8**, i8*** %196, align 8, !noalias !11
  br label %198

198:                                              ; preds = %216, %195
  %199 = phi i64 [ %191, %195 ], [ %217, %216 ]
  %200 = getelementptr inbounds i8*, i8** %197, i64 %199
  %201 = load i8*, i8** %200, align 8, !noalias !11
  %202 = icmp eq i8* %201, null
  br i1 %202, label %216, label %203

203:                                              ; preds = %198
  %204 = xor i64 %199, 1
  %205 = getelementptr inbounds i8*, i8** %197, i64 %204
  %206 = load i8*, i8** %205, align 8, !noalias !11
  %207 = icmp eq i8* %201, %206
  br i1 %207, label %210, label %208

208:                                              ; preds = %203
  %209 = ptrtoint i8* %201 to i64
  br label %222

210:                                              ; preds = %203
  %211 = bitcast i8* %201 to %"class.std::__1::__tree_end_node"**
  %212 = load %"class.std::__1::__tree_end_node"*, %"class.std::__1::__tree_end_node"** %211, align 8, !noalias !11
  %213 = getelementptr inbounds %"class.std::__1::__tree_end_node", %"class.std::__1::__tree_end_node"* %212, i64 5
  %214 = bitcast %"class.std::__1::__tree_end_node"* %213 to i64*
  %215 = load i64, i64* %214, align 8, !noalias !11
  br label %222

216:                                              ; preds = %198
  %217 = add i64 %199, 1
  %218 = icmp eq i64 %217, %193
  br i1 %218, label %219, label %198

219:                                              ; preds = %216, %184
  %220 = phi i64 [ %191, %184 ], [ %193, %216 ]
  %221 = bitcast %"class.google::protobuf::Map<std::__1::basic_string<char, std::__1::char_traits<char>, std::__1::allocator<char> >, float>::const_iterator"* %6 to i64*
  store i64 0, i64* %221, align 8, !alias.scope !16
  store %"class.google::protobuf::Map<std::__1::basic_string<char, std::__1::char_traits<char>, std::__1::allocator<char> >, float>::InnerMap"* %189, %"class.google::protobuf::Map<std::__1::basic_string<char, std::__1::char_traits<char>, std::__1::allocator<char> >, float>::InnerMap"** %187, align 8, !alias.scope !16
  store i64 %220, i64* %188, align 8, !alias.scope !16
  br label %244

222:                                              ; preds = %210, %208
  %223 = phi i64 [ %215, %210 ], [ %209, %208 ]
  %224 = bitcast %"class.google::protobuf::Map<std::__1::basic_string<char, std::__1::char_traits<char>, std::__1::allocator<char> >, float>::const_iterator"* %6 to i64*
  store i64 %223, i64* %224, align 8, !alias.scope !16
  store %"class.google::protobuf::Map<std::__1::basic_string<char, std::__1::char_traits<char>, std::__1::allocator<char> >, float>::InnerMap"* %189, %"class.google::protobuf::Map<std::__1::basic_string<char, std::__1::char_traits<char>, std::__1::allocator<char> >, float>::InnerMap"** %187, align 8, !alias.scope !16
  store i64 %199, i64* %188, align 8, !alias.scope !16
  %225 = icmp eq i64 %223, 0
  br i1 %225, label %244, label %226

226:                                              ; preds = %222
  %227 = inttoptr i64 %223 to %"struct.google::protobuf::Map<std::__1::basic_string<char, std::__1::char_traits<char>, std::__1::allocator<char> >, float>::InnerMap::Node"*
  %228 = getelementptr inbounds %"class.google::protobuf::internal::MapFieldLite.24", %"class.google::protobuf::internal::MapFieldLite.24"* %35, i64 0, i32 0, i32 0
  %229 = bitcast %"struct.std::__1::pair.42"* %5 to i8*
  %230 = getelementptr inbounds %"struct.std::__1::pair.42", %"struct.std::__1::pair.42"* %5, i64 0, i32 0, i32 0
  %231 = getelementptr inbounds %"class.google::protobuf::Map<std::__1::basic_string<char, std::__1::char_traits<char>, std::__1::allocator<char> >, float>::const_iterator", %"class.google::protobuf::Map<std::__1::basic_string<char, std::__1::char_traits<char>, std::__1::allocator<char> >, float>::const_iterator"* %6, i64 0, i32 0
  br label %232

232:                                              ; preds = %232, %226
  %233 = phi %"struct.google::protobuf::Map<std::__1::basic_string<char, std::__1::char_traits<char>, std::__1::allocator<char> >, float>::InnerMap::Node"* [ %227, %226 ], [ %242, %232 ]
  %234 = getelementptr inbounds %"struct.google::protobuf::Map<std::__1::basic_string<char, std::__1::char_traits<char>, std::__1::allocator<char> >, float>::InnerMap::Node", %"struct.google::protobuf::Map<std::__1::basic_string<char, std::__1::char_traits<char>, std::__1::allocator<char> >, float>::InnerMap::Node"* %233, i64 0, i32 0, i32 1
  %235 = bitcast float* %234 to i32*
  %236 = load i32, i32* %235, align 8
  %237 = getelementptr inbounds %"struct.google::protobuf::Map<std::__1::basic_string<char, std::__1::char_traits<char>, std::__1::allocator<char> >, float>::InnerMap::Node", %"struct.google::protobuf::Map<std::__1::basic_string<char, std::__1::char_traits<char>, std::__1::allocator<char> >, float>::InnerMap::Node"* %233, i64 0, i32 0, i32 0
  call void @llvm.lifetime.start.p0i8(i64 32, i8* nonnull %229) #15
  call void @_ZN6google8protobuf3MapINSt3__112basic_stringIcNS2_11char_traitsIcEENS2_9allocatorIcEEEEfE8InnerMap6insertERKS8_(%"struct.std::__1::pair.42"* nonnull sret %5, %"class.google::protobuf::Map<std::__1::basic_string<char, std::__1::char_traits<char>, std::__1::allocator<char> >, float>::InnerMap"* %228, %"class.std::__1::basic_string"* dereferenceable(24) %237) #15
  %238 = load %"struct.google::protobuf::Map<std::__1::basic_string<char, std::__1::char_traits<char>, std::__1::allocator<char> >, float>::InnerMap::Node"*, %"struct.google::protobuf::Map<std::__1::basic_string<char, std::__1::char_traits<char>, std::__1::allocator<char> >, float>::InnerMap::Node"** %230, align 8
  call void @llvm.lifetime.end.p0i8(i64 32, i8* nonnull %229) #15
  %239 = getelementptr inbounds %"struct.google::protobuf::Map<std::__1::basic_string<char, std::__1::char_traits<char>, std::__1::allocator<char> >, float>::InnerMap::Node", %"struct.google::protobuf::Map<std::__1::basic_string<char, std::__1::char_traits<char>, std::__1::allocator<char> >, float>::InnerMap::Node"* %238, i64 0, i32 0, i32 1
  %240 = bitcast float* %239 to i32*
  store i32 %236, i32* %240, align 4
  %241 = call dereferenceable(24) %"class.google::protobuf::Map<std::__1::basic_string<char, std::__1::char_traits<char>, std::__1::allocator<char> >, float>::InnerMap::iterator_base"* @_ZN6google8protobuf3MapINSt3__112basic_stringIcNS2_11char_traitsIcEENS2_9allocatorIcEEEEfE8InnerMap13iterator_baseIKNS0_7MapPairIS8_fEEEppEv(%"class.google::protobuf::Map<std::__1::basic_string<char, std::__1::char_traits<char>, std::__1::allocator<char> >, float>::InnerMap::iterator_base"* nonnull %231) #15
  %242 = load %"struct.google::protobuf::Map<std::__1::basic_string<char, std::__1::char_traits<char>, std::__1::allocator<char> >, float>::InnerMap::Node"*, %"struct.google::protobuf::Map<std::__1::basic_string<char, std::__1::char_traits<char>, std::__1::allocator<char> >, float>::InnerMap::Node"** %186, align 8
  %243 = icmp eq %"struct.google::protobuf::Map<std::__1::basic_string<char, std::__1::char_traits<char>, std::__1::allocator<char> >, float>::InnerMap::Node"* %242, null
  br i1 %243, label %244, label %232

244:                                              ; preds = %232, %219, %222
  call void @llvm.lifetime.end.p0i8(i64 24, i8* nonnull %185) #15
  %245 = bitcast %"class.google::protobuf::Map<std::__1::basic_string<char, std::__1::char_traits<char>, std::__1::allocator<char> >, float>::const_iterator"* %4 to i8*
  call void @llvm.lifetime.start.p0i8(i64 24, i8* nonnull %245) #15
  %246 = getelementptr inbounds %"class.google::protobuf::Map<std::__1::basic_string<char, std::__1::char_traits<char>, std::__1::allocator<char> >, float>::const_iterator", %"class.google::protobuf::Map<std::__1::basic_string<char, std::__1::char_traits<char>, std::__1::allocator<char> >, float>::const_iterator"* %4, i64 0, i32 0, i32 0
  %247 = getelementptr inbounds %"class.google::protobuf::Map<std::__1::basic_string<char, std::__1::char_traits<char>, std::__1::allocator<char> >, float>::const_iterator", %"class.google::protobuf::Map<std::__1::basic_string<char, std::__1::char_traits<char>, std::__1::allocator<char> >, float>::const_iterator"* %4, i64 0, i32 0, i32 1
  %248 = getelementptr inbounds %"class.google::protobuf::Map<std::__1::basic_string<char, std::__1::char_traits<char>, std::__1::allocator<char> >, float>::const_iterator", %"class.google::protobuf::Map<std::__1::basic_string<char, std::__1::char_traits<char>, std::__1::allocator<char> >, float>::const_iterator"* %4, i64 0, i32 0, i32 2
  %249 = getelementptr inbounds %"class.assist_ranker::TranslateRankerModel_TranslateLogisticRegressionModel", %"class.assist_ranker::TranslateRankerModel_TranslateLogisticRegressionModel"* %1, i64 0, i32 5, i32 0, i32 0
  %250 = getelementptr inbounds %"class.assist_ranker::TranslateRankerModel_TranslateLogisticRegressionModel", %"class.assist_ranker::TranslateRankerModel_TranslateLogisticRegressionModel"* %1, i64 0, i32 5, i32 0, i32 0, i32 3
  call void @llvm.memset.p0i8.i64(i8* nonnull align 8 %245, i8 -86, i64 24, i1 false) #15
  %251 = load i64, i64* %250, align 8, !noalias !17
  %252 = getelementptr inbounds %"class.assist_ranker::TranslateRankerModel_TranslateLogisticRegressionModel", %"class.assist_ranker::TranslateRankerModel_TranslateLogisticRegressionModel"* %1, i64 0, i32 5, i32 0, i32 0, i32 1
  %253 = load i64, i64* %252, align 8, !noalias !17
  %254 = icmp ugt i64 %253, %251
  br i1 %254, label %255, label %279

255:                                              ; preds = %244
  %256 = getelementptr inbounds %"class.assist_ranker::TranslateRankerModel_TranslateLogisticRegressionModel", %"class.assist_ranker::TranslateRankerModel_TranslateLogisticRegressionModel"* %1, i64 0, i32 5, i32 0, i32 0, i32 4
  %257 = load i8**, i8*** %256, align 8, !noalias !17
  br label %258

258:                                              ; preds = %276, %255
  %259 = phi i64 [ %251, %255 ], [ %277, %276 ]
  %260 = getelementptr inbounds i8*, i8** %257, i64 %259
  %261 = load i8*, i8** %260, align 8, !noalias !17
  %262 = icmp eq i8* %261, null
  br i1 %262, label %276, label %263

263:                                              ; preds = %258
  %264 = xor i64 %259, 1
  %265 = getelementptr inbounds i8*, i8** %257, i64 %264
  %266 = load i8*, i8** %265, align 8, !noalias !17
  %267 = icmp eq i8* %261, %266
  br i1 %267, label %270, label %268

268:                                              ; preds = %263
  %269 = ptrtoint i8* %261 to i64
  br label %282

270:                                              ; preds = %263
  %271 = bitcast i8* %261 to %"class.std::__1::__tree_end_node"**
  %272 = load %"class.std::__1::__tree_end_node"*, %"class.std::__1::__tree_end_node"** %271, align 8, !noalias !17
  %273 = getelementptr inbounds %"class.std::__1::__tree_end_node", %"class.std::__1::__tree_end_node"* %272, i64 5
  %274 = bitcast %"class.std::__1::__tree_end_node"* %273 to i64*
  %275 = load i64, i64* %274, align 8, !noalias !17
  br label %282

276:                                              ; preds = %258
  %277 = add i64 %259, 1
  %278 = icmp eq i64 %277, %253
  br i1 %278, label %279, label %258

279:                                              ; preds = %276, %244
  %280 = phi i64 [ %251, %244 ], [ %253, %276 ]
  %281 = bitcast %"class.google::protobuf::Map<std::__1::basic_string<char, std::__1::char_traits<char>, std::__1::allocator<char> >, float>::const_iterator"* %4 to i64*
  store i64 0, i64* %281, align 8, !alias.scope !22
  store %"class.google::protobuf::Map<std::__1::basic_string<char, std::__1::char_traits<char>, std::__1::allocator<char> >, float>::InnerMap"* %249, %"class.google::protobuf::Map<std::__1::basic_string<char, std::__1::char_traits<char>, std::__1::allocator<char> >, float>::InnerMap"** %247, align 8, !alias.scope !22
  store i64 %280, i64* %248, align 8, !alias.scope !22
  br label %304

282:                                              ; preds = %270, %268
  %283 = phi i64 [ %275, %270 ], [ %269, %268 ]
  %284 = bitcast %"class.google::protobuf::Map<std::__1::basic_string<char, std::__1::char_traits<char>, std::__1::allocator<char> >, float>::const_iterator"* %4 to i64*
  store i64 %283, i64* %284, align 8, !alias.scope !22
  store %"class.google::protobuf::Map<std::__1::basic_string<char, std::__1::char_traits<char>, std::__1::allocator<char> >, float>::InnerMap"* %249, %"class.google::protobuf::Map<std::__1::basic_string<char, std::__1::char_traits<char>, std::__1::allocator<char> >, float>::InnerMap"** %247, align 8, !alias.scope !22
  store i64 %259, i64* %248, align 8, !alias.scope !22
  %285 = icmp eq i64 %283, 0
  br i1 %285, label %304, label %286

286:                                              ; preds = %282
  %287 = inttoptr i64 %283 to %"struct.google::protobuf::Map<std::__1::basic_string<char, std::__1::char_traits<char>, std::__1::allocator<char> >, float>::InnerMap::Node"*
  %288 = getelementptr inbounds %"class.google::protobuf::internal::MapFieldLite.25", %"class.google::protobuf::internal::MapFieldLite.25"* %53, i64 0, i32 0, i32 0
  %289 = bitcast %"struct.std::__1::pair.42"* %3 to i8*
  %290 = getelementptr inbounds %"struct.std::__1::pair.42", %"struct.std::__1::pair.42"* %3, i64 0, i32 0, i32 0
  %291 = getelementptr inbounds %"class.google::protobuf::Map<std::__1::basic_string<char, std::__1::char_traits<char>, std::__1::allocator<char> >, float>::const_iterator", %"class.google::protobuf::Map<std::__1::basic_string<char, std::__1::char_traits<char>, std::__1::allocator<char> >, float>::const_iterator"* %4, i64 0, i32 0
  br label %292

292:                                              ; preds = %292, %286
  %293 = phi %"struct.google::protobuf::Map<std::__1::basic_string<char, std::__1::char_traits<char>, std::__1::allocator<char> >, float>::InnerMap::Node"* [ %287, %286 ], [ %302, %292 ]
  %294 = getelementptr inbounds %"struct.google::protobuf::Map<std::__1::basic_string<char, std::__1::char_traits<char>, std::__1::allocator<char> >, float>::InnerMap::Node", %"struct.google::protobuf::Map<std::__1::basic_string<char, std::__1::char_traits<char>, std::__1::allocator<char> >, float>::InnerMap::Node"* %293, i64 0, i32 0, i32 1
  %295 = bitcast float* %294 to i32*
  %296 = load i32, i32* %295, align 8
  %297 = getelementptr inbounds %"struct.google::protobuf::Map<std::__1::basic_string<char, std::__1::char_traits<char>, std::__1::allocator<char> >, float>::InnerMap::Node", %"struct.google::protobuf::Map<std::__1::basic_string<char, std::__1::char_traits<char>, std::__1::allocator<char> >, float>::InnerMap::Node"* %293, i64 0, i32 0, i32 0
  call void @llvm.lifetime.start.p0i8(i64 32, i8* nonnull %289) #15
  call void @_ZN6google8protobuf3MapINSt3__112basic_stringIcNS2_11char_traitsIcEENS2_9allocatorIcEEEEfE8InnerMap6insertERKS8_(%"struct.std::__1::pair.42"* nonnull sret %3, %"class.google::protobuf::Map<std::__1::basic_string<char, std::__1::char_traits<char>, std::__1::allocator<char> >, float>::InnerMap"* %288, %"class.std::__1::basic_string"* dereferenceable(24) %297) #15
  %298 = load %"struct.google::protobuf::Map<std::__1::basic_string<char, std::__1::char_traits<char>, std::__1::allocator<char> >, float>::InnerMap::Node"*, %"struct.google::protobuf::Map<std::__1::basic_string<char, std::__1::char_traits<char>, std::__1::allocator<char> >, float>::InnerMap::Node"** %290, align 8
  call void @llvm.lifetime.end.p0i8(i64 32, i8* nonnull %289) #15
  %299 = getelementptr inbounds %"struct.google::protobuf::Map<std::__1::basic_string<char, std::__1::char_traits<char>, std::__1::allocator<char> >, float>::InnerMap::Node", %"struct.google::protobuf::Map<std::__1::basic_string<char, std::__1::char_traits<char>, std::__1::allocator<char> >, float>::InnerMap::Node"* %298, i64 0, i32 0, i32 1
  %300 = bitcast float* %299 to i32*
  store i32 %296, i32* %300, align 4
  %301 = call dereferenceable(24) %"class.google::protobuf::Map<std::__1::basic_string<char, std::__1::char_traits<char>, std::__1::allocator<char> >, float>::InnerMap::iterator_base"* @_ZN6google8protobuf3MapINSt3__112basic_stringIcNS2_11char_traitsIcEENS2_9allocatorIcEEEEfE8InnerMap13iterator_baseIKNS0_7MapPairIS8_fEEEppEv(%"class.google::protobuf::Map<std::__1::basic_string<char, std::__1::char_traits<char>, std::__1::allocator<char> >, float>::InnerMap::iterator_base"* nonnull %291) #15
  %302 = load %"struct.google::protobuf::Map<std::__1::basic_string<char, std::__1::char_traits<char>, std::__1::allocator<char> >, float>::InnerMap::Node"*, %"struct.google::protobuf::Map<std::__1::basic_string<char, std::__1::char_traits<char>, std::__1::allocator<char> >, float>::InnerMap::Node"** %246, align 8
  %303 = icmp eq %"struct.google::protobuf::Map<std::__1::basic_string<char, std::__1::char_traits<char>, std::__1::allocator<char> >, float>::InnerMap::Node"* %302, null
  br i1 %303, label %304, label %292

304:                                              ; preds = %292, %279, %282
  call void @llvm.lifetime.end.p0i8(i64 24, i8* nonnull %245) #15
  %305 = bitcast %"class.google::protobuf::Map<std::__1::basic_string<char, std::__1::char_traits<char>, std::__1::allocator<char> >, float>::const_iterator"* %10 to i8*
  call void @llvm.lifetime.start.p0i8(i64 24, i8* nonnull %305) #15
  %306 = getelementptr inbounds %"class.google::protobuf::Map<std::__1::basic_string<char, std::__1::char_traits<char>, std::__1::allocator<char> >, float>::const_iterator", %"class.google::protobuf::Map<std::__1::basic_string<char, std::__1::char_traits<char>, std::__1::allocator<char> >, float>::const_iterator"* %10, i64 0, i32 0, i32 0
  %307 = getelementptr inbounds %"class.google::protobuf::Map<std::__1::basic_string<char, std::__1::char_traits<char>, std::__1::allocator<char> >, float>::const_iterator", %"class.google::protobuf::Map<std::__1::basic_string<char, std::__1::char_traits<char>, std::__1::allocator<char> >, float>::const_iterator"* %10, i64 0, i32 0, i32 1
  %308 = getelementptr inbounds %"class.google::protobuf::Map<std::__1::basic_string<char, std::__1::char_traits<char>, std::__1::allocator<char> >, float>::const_iterator", %"class.google::protobuf::Map<std::__1::basic_string<char, std::__1::char_traits<char>, std::__1::allocator<char> >, float>::const_iterator"* %10, i64 0, i32 0, i32 2
  %309 = getelementptr inbounds %"class.assist_ranker::TranslateRankerModel_TranslateLogisticRegressionModel", %"class.assist_ranker::TranslateRankerModel_TranslateLogisticRegressionModel"* %1, i64 0, i32 6, i32 0, i32 0
  %310 = getelementptr inbounds %"class.assist_ranker::TranslateRankerModel_TranslateLogisticRegressionModel", %"class.assist_ranker::TranslateRankerModel_TranslateLogisticRegressionModel"* %1, i64 0, i32 6, i32 0, i32 0, i32 3
  call void @llvm.memset.p0i8.i64(i8* nonnull align 8 %305, i8 -86, i64 24, i1 false) #15
  %311 = load i64, i64* %310, align 8, !noalias !23
  %312 = getelementptr inbounds %"class.assist_ranker::TranslateRankerModel_TranslateLogisticRegressionModel", %"class.assist_ranker::TranslateRankerModel_TranslateLogisticRegressionModel"* %1, i64 0, i32 6, i32 0, i32 0, i32 1
  %313 = load i64, i64* %312, align 8, !noalias !23
  %314 = icmp ugt i64 %313, %311
  br i1 %314, label %315, label %339

315:                                              ; preds = %304
  %316 = getelementptr inbounds %"class.assist_ranker::TranslateRankerModel_TranslateLogisticRegressionModel", %"class.assist_ranker::TranslateRankerModel_TranslateLogisticRegressionModel"* %1, i64 0, i32 6, i32 0, i32 0, i32 4
  %317 = load i8**, i8*** %316, align 8, !noalias !23
  br label %318

318:                                              ; preds = %336, %315
  %319 = phi i64 [ %311, %315 ], [ %337, %336 ]
  %320 = getelementptr inbounds i8*, i8** %317, i64 %319
  %321 = load i8*, i8** %320, align 8, !noalias !23
  %322 = icmp eq i8* %321, null
  br i1 %322, label %336, label %323

323:                                              ; preds = %318
  %324 = xor i64 %319, 1
  %325 = getelementptr inbounds i8*, i8** %317, i64 %324
  %326 = load i8*, i8** %325, align 8, !noalias !23
  %327 = icmp eq i8* %321, %326
  br i1 %327, label %330, label %328

328:                                              ; preds = %323
  %329 = ptrtoint i8* %321 to i64
  br label %342

330:                                              ; preds = %323
  %331 = bitcast i8* %321 to %"class.std::__1::__tree_end_node"**
  %332 = load %"class.std::__1::__tree_end_node"*, %"class.std::__1::__tree_end_node"** %331, align 8, !noalias !23
  %333 = getelementptr inbounds %"class.std::__1::__tree_end_node", %"class.std::__1::__tree_end_node"* %332, i64 5
  %334 = bitcast %"class.std::__1::__tree_end_node"* %333 to i64*
  %335 = load i64, i64* %334, align 8, !noalias !23
  br label %342

336:                                              ; preds = %318
  %337 = add i64 %319, 1
  %338 = icmp eq i64 %337, %313
  br i1 %338, label %339, label %318

339:                                              ; preds = %336, %304
  %340 = phi i64 [ %311, %304 ], [ %313, %336 ]
  %341 = bitcast %"class.google::protobuf::Map<std::__1::basic_string<char, std::__1::char_traits<char>, std::__1::allocator<char> >, float>::const_iterator"* %10 to i64*
  store i64 0, i64* %341, align 8, !alias.scope !28
  store %"class.google::protobuf::Map<std::__1::basic_string<char, std::__1::char_traits<char>, std::__1::allocator<char> >, float>::InnerMap"* %309, %"class.google::protobuf::Map<std::__1::basic_string<char, std::__1::char_traits<char>, std::__1::allocator<char> >, float>::InnerMap"** %307, align 8, !alias.scope !28
  store i64 %340, i64* %308, align 8, !alias.scope !28
  br label %364

342:                                              ; preds = %330, %328
  %343 = phi i64 [ %335, %330 ], [ %329, %328 ]
  %344 = bitcast %"class.google::protobuf::Map<std::__1::basic_string<char, std::__1::char_traits<char>, std::__1::allocator<char> >, float>::const_iterator"* %10 to i64*
  store i64 %343, i64* %344, align 8, !alias.scope !28
  store %"class.google::protobuf::Map<std::__1::basic_string<char, std::__1::char_traits<char>, std::__1::allocator<char> >, float>::InnerMap"* %309, %"class.google::protobuf::Map<std::__1::basic_string<char, std::__1::char_traits<char>, std::__1::allocator<char> >, float>::InnerMap"** %307, align 8, !alias.scope !28
  store i64 %319, i64* %308, align 8, !alias.scope !28
  %345 = icmp eq i64 %343, 0
  br i1 %345, label %364, label %346

346:                                              ; preds = %342
  %347 = inttoptr i64 %343 to %"struct.google::protobuf::Map<std::__1::basic_string<char, std::__1::char_traits<char>, std::__1::allocator<char> >, float>::InnerMap::Node"*
  %348 = getelementptr inbounds %"class.google::protobuf::internal::MapFieldLite.26", %"class.google::protobuf::internal::MapFieldLite.26"* %71, i64 0, i32 0, i32 0
  %349 = bitcast %"struct.std::__1::pair.42"* %9 to i8*
  %350 = getelementptr inbounds %"struct.std::__1::pair.42", %"struct.std::__1::pair.42"* %9, i64 0, i32 0, i32 0
  %351 = getelementptr inbounds %"class.google::protobuf::Map<std::__1::basic_string<char, std::__1::char_traits<char>, std::__1::allocator<char> >, float>::const_iterator", %"class.google::protobuf::Map<std::__1::basic_string<char, std::__1::char_traits<char>, std::__1::allocator<char> >, float>::const_iterator"* %10, i64 0, i32 0
  br label %352

352:                                              ; preds = %352, %346
  %353 = phi %"struct.google::protobuf::Map<std::__1::basic_string<char, std::__1::char_traits<char>, std::__1::allocator<char> >, float>::InnerMap::Node"* [ %347, %346 ], [ %362, %352 ]
  %354 = getelementptr inbounds %"struct.google::protobuf::Map<std::__1::basic_string<char, std::__1::char_traits<char>, std::__1::allocator<char> >, float>::InnerMap::Node", %"struct.google::protobuf::Map<std::__1::basic_string<char, std::__1::char_traits<char>, std::__1::allocator<char> >, float>::InnerMap::Node"* %353, i64 0, i32 0, i32 1
  %355 = bitcast float* %354 to i32*
  %356 = load i32, i32* %355, align 8
  %357 = getelementptr inbounds %"struct.google::protobuf::Map<std::__1::basic_string<char, std::__1::char_traits<char>, std::__1::allocator<char> >, float>::InnerMap::Node", %"struct.google::protobuf::Map<std::__1::basic_string<char, std::__1::char_traits<char>, std::__1::allocator<char> >, float>::InnerMap::Node"* %353, i64 0, i32 0, i32 0
  call void @llvm.lifetime.start.p0i8(i64 32, i8* nonnull %349) #15
  call void @_ZN6google8protobuf3MapINSt3__112basic_stringIcNS2_11char_traitsIcEENS2_9allocatorIcEEEEfE8InnerMap6insertERKS8_(%"struct.std::__1::pair.42"* nonnull sret %9, %"class.google::protobuf::Map<std::__1::basic_string<char, std::__1::char_traits<char>, std::__1::allocator<char> >, float>::InnerMap"* %348, %"class.std::__1::basic_string"* dereferenceable(24) %357) #15
  %358 = load %"struct.google::protobuf::Map<std::__1::basic_string<char, std::__1::char_traits<char>, std::__1::allocator<char> >, float>::InnerMap::Node"*, %"struct.google::protobuf::Map<std::__1::basic_string<char, std::__1::char_traits<char>, std::__1::allocator<char> >, float>::InnerMap::Node"** %350, align 8
  call void @llvm.lifetime.end.p0i8(i64 32, i8* nonnull %349) #15
  %359 = getelementptr inbounds %"struct.google::protobuf::Map<std::__1::basic_string<char, std::__1::char_traits<char>, std::__1::allocator<char> >, float>::InnerMap::Node", %"struct.google::protobuf::Map<std::__1::basic_string<char, std::__1::char_traits<char>, std::__1::allocator<char> >, float>::InnerMap::Node"* %358, i64 0, i32 0, i32 1
  %360 = bitcast float* %359 to i32*
  store i32 %356, i32* %360, align 4
  %361 = call dereferenceable(24) %"class.google::protobuf::Map<std::__1::basic_string<char, std::__1::char_traits<char>, std::__1::allocator<char> >, float>::InnerMap::iterator_base"* @_ZN6google8protobuf3MapINSt3__112basic_stringIcNS2_11char_traitsIcEENS2_9allocatorIcEEEEfE8InnerMap13iterator_baseIKNS0_7MapPairIS8_fEEEppEv(%"class.google::protobuf::Map<std::__1::basic_string<char, std::__1::char_traits<char>, std::__1::allocator<char> >, float>::InnerMap::iterator_base"* nonnull %351) #15
  %362 = load %"struct.google::protobuf::Map<std::__1::basic_string<char, std::__1::char_traits<char>, std::__1::allocator<char> >, float>::InnerMap::Node"*, %"struct.google::protobuf::Map<std::__1::basic_string<char, std::__1::char_traits<char>, std::__1::allocator<char> >, float>::InnerMap::Node"** %306, align 8
  %363 = icmp eq %"struct.google::protobuf::Map<std::__1::basic_string<char, std::__1::char_traits<char>, std::__1::allocator<char> >, float>::InnerMap::Node"* %362, null
  br i1 %363, label %364, label %352

364:                                              ; preds = %352, %339, %342
  call void @llvm.lifetime.end.p0i8(i64 24, i8* nonnull %305) #15
  %365 = getelementptr inbounds %"class.assist_ranker::TranslateRankerModel_TranslateLogisticRegressionModel", %"class.assist_ranker::TranslateRankerModel_TranslateLogisticRegressionModel"* %0, i64 0, i32 7
  %366 = bitcast float* %365 to i8*
  %367 = getelementptr inbounds %"class.assist_ranker::TranslateRankerModel_TranslateLogisticRegressionModel", %"class.assist_ranker::TranslateRankerModel_TranslateLogisticRegressionModel"* %1, i64 0, i32 7
  %368 = bitcast float* %367 to i8*
  call void @llvm.memcpy.p0i8.p0i8.i64(i8* align 8 %366, i8* align 8 %368, i64 32, i1 false)
  ret void
}

; Function Attrs: argmemonly nounwind
declare void @llvm.memcpy.p0i8.p0i8.i64(i8* nocapture writeonly, i8* nocapture readonly, i64, i1 immarg) #2

; Function Attrs: nounwind ssp uwtable
define hidden void @_ZN13assist_ranker53TranslateRankerModel_TranslateLogisticRegressionModelD2Ev(%"class.assist_ranker::TranslateRankerModel_TranslateLogisticRegressionModel"*) unnamed_addr #0 align 2 {
  %2 = getelementptr inbounds %"class.assist_ranker::TranslateRankerModel_TranslateLogisticRegressionModel", %"class.assist_ranker::TranslateRankerModel_TranslateLogisticRegressionModel"* %0, i64 0, i32 0, i32 0
  store i32 (...)** bitcast (i8** getelementptr inbounds ({ [16 x i8*] }, { [16 x i8*] }* @_ZTVN13assist_ranker53TranslateRankerModel_TranslateLogisticRegressionModelE, i64 0, inrange i32 0, i64 2) to i32 (...)**), i32 (...)*** %2, align 8
  %3 = getelementptr inbounds %"class.assist_ranker::TranslateRankerModel_TranslateLogisticRegressionModel", %"class.assist_ranker::TranslateRankerModel_TranslateLogisticRegressionModel"* %0, i64 0, i32 0, i32 1
  %4 = bitcast %"class.google::protobuf::internal::InternalMetadata"* %3 to i64*
  %5 = load i64, i64* %4, align 8
  %6 = and i64 %5, 1
  %7 = icmp eq i64 %6, 0
  br i1 %7, label %28, label %8

8:                                                ; preds = %1
  %9 = and i64 %5, -2
  %10 = inttoptr i64 %9 to %"struct.google::protobuf::internal::InternalMetadata::ContainerBase"*
  %11 = getelementptr inbounds %"struct.google::protobuf::internal::InternalMetadata::ContainerBase", %"struct.google::protobuf::internal::InternalMetadata::ContainerBase"* %10, i64 0, i32 0
  %12 = load %"class.google::protobuf::Arena"*, %"class.google::protobuf::Arena"** %11, align 8
  %13 = icmp ne %"class.google::protobuf::Arena"* %12, null
  %14 = icmp eq i64 %9, 0
  %15 = or i1 %14, %13
  br i1 %15, label %28, label %16

16:                                               ; preds = %8
  %17 = inttoptr i64 %9 to %"struct.google::protobuf::internal::InternalMetadata::Container"*
  %18 = getelementptr inbounds %"struct.google::protobuf::internal::InternalMetadata::Container", %"struct.google::protobuf::internal::InternalMetadata::Container"* %17, i64 0, i32 1
  %19 = bitcast %"class.std::__1::basic_string"* %18 to %"struct.std::__1::basic_string<char, std::__1::char_traits<char>, std::__1::allocator<char> >::__short"*
  %20 = getelementptr inbounds %"struct.std::__1::basic_string<char, std::__1::char_traits<char>, std::__1::allocator<char> >::__short", %"struct.std::__1::basic_string<char, std::__1::char_traits<char>, std::__1::allocator<char> >::__short"* %19, i64 0, i32 1, i32 0
  %21 = load i8, i8* %20, align 1
  %22 = icmp slt i8 %21, 0
  br i1 %22, label %23, label %26

23:                                               ; preds = %16
  %24 = getelementptr inbounds %"class.std::__1::basic_string", %"class.std::__1::basic_string"* %18, i64 0, i32 0, i32 0, i32 0, i32 0, i32 0, i32 0
  %25 = load i8*, i8** %24, align 8
  tail call void @_ZdlPv(i8* %25) #16
  br label %26

26:                                               ; preds = %23, %16
  %27 = inttoptr i64 %9 to i8*
  tail call void @_ZdlPv(i8* %27) #16
  br label %28

28:                                               ; preds = %1, %8, %26
  %29 = getelementptr inbounds %"class.assist_ranker::TranslateRankerModel_TranslateLogisticRegressionModel", %"class.assist_ranker::TranslateRankerModel_TranslateLogisticRegressionModel"* %0, i64 0, i32 6, i32 0, i32 0
  %30 = getelementptr inbounds %"class.assist_ranker::TranslateRankerModel_TranslateLogisticRegressionModel", %"class.assist_ranker::TranslateRankerModel_TranslateLogisticRegressionModel"* %0, i64 0, i32 6, i32 0, i32 0, i32 5, i32 0
  %31 = load %"class.google::protobuf::Arena"*, %"class.google::protobuf::Arena"** %30, align 8
  %32 = icmp eq %"class.google::protobuf::Arena"* %31, null
  br i1 %32, label %33, label %44

33:                                               ; preds = %28
  %34 = getelementptr inbounds %"class.assist_ranker::TranslateRankerModel_TranslateLogisticRegressionModel", %"class.assist_ranker::TranslateRankerModel_TranslateLogisticRegressionModel"* %0, i64 0, i32 6, i32 0, i32 0, i32 1
  %35 = load i64, i64* %34, align 8
  %36 = icmp eq i64 %35, 1
  br i1 %36, label %44, label %37

37:                                               ; preds = %33
  tail call void @_ZN6google8protobuf3MapINSt3__112basic_stringIcNS2_11char_traitsIcEENS2_9allocatorIcEEEEfE8InnerMap5clearEv(%"class.google::protobuf::Map<std::__1::basic_string<char, std::__1::char_traits<char>, std::__1::allocator<char> >, float>::InnerMap"* %29) #15
  %38 = load %"class.google::protobuf::Arena"*, %"class.google::protobuf::Arena"** %30, align 8
  %39 = icmp eq %"class.google::protobuf::Arena"* %38, null
  br i1 %39, label %40, label %44

40:                                               ; preds = %37
  %41 = getelementptr inbounds %"class.assist_ranker::TranslateRankerModel_TranslateLogisticRegressionModel", %"class.assist_ranker::TranslateRankerModel_TranslateLogisticRegressionModel"* %0, i64 0, i32 6, i32 0, i32 0, i32 4
  %42 = bitcast i8*** %41 to i8**
  %43 = load i8*, i8** %42, align 8
  tail call void @_ZdlPv(i8* %43) #15
  br label %44

44:                                               ; preds = %28, %33, %37, %40
  %45 = getelementptr inbounds %"class.assist_ranker::TranslateRankerModel_TranslateLogisticRegressionModel", %"class.assist_ranker::TranslateRankerModel_TranslateLogisticRegressionModel"* %0, i64 0, i32 5, i32 0, i32 0
  %46 = getelementptr inbounds %"class.assist_ranker::TranslateRankerModel_TranslateLogisticRegressionModel", %"class.assist_ranker::TranslateRankerModel_TranslateLogisticRegressionModel"* %0, i64 0, i32 5, i32 0, i32 0, i32 5, i32 0
  %47 = load %"class.google::protobuf::Arena"*, %"class.google::protobuf::Arena"** %46, align 8
  %48 = icmp eq %"class.google::protobuf::Arena"* %47, null
  br i1 %48, label %49, label %60

49:                                               ; preds = %44
  %50 = getelementptr inbounds %"class.assist_ranker::TranslateRankerModel_TranslateLogisticRegressionModel", %"class.assist_ranker::TranslateRankerModel_TranslateLogisticRegressionModel"* %0, i64 0, i32 5, i32 0, i32 0, i32 1
  %51 = load i64, i64* %50, align 8
  %52 = icmp eq i64 %51, 1
  br i1 %52, label %60, label %53

53:                                               ; preds = %49
  tail call void @_ZN6google8protobuf3MapINSt3__112basic_stringIcNS2_11char_traitsIcEENS2_9allocatorIcEEEEfE8InnerMap5clearEv(%"class.google::protobuf::Map<std::__1::basic_string<char, std::__1::char_traits<char>, std::__1::allocator<char> >, float>::InnerMap"* %45) #15
  %54 = load %"class.google::protobuf::Arena"*, %"class.google::protobuf::Arena"** %46, align 8
  %55 = icmp eq %"class.google::protobuf::Arena"* %54, null
  br i1 %55, label %56, label %60

56:                                               ; preds = %53
  %57 = getelementptr inbounds %"class.assist_ranker::TranslateRankerModel_TranslateLogisticRegressionModel", %"class.assist_ranker::TranslateRankerModel_TranslateLogisticRegressionModel"* %0, i64 0, i32 5, i32 0, i32 0, i32 4
  %58 = bitcast i8*** %57 to i8**
  %59 = load i8*, i8** %58, align 8
  tail call void @_ZdlPv(i8* %59) #15
  br label %60

60:                                               ; preds = %44, %49, %53, %56
  %61 = getelementptr inbounds %"class.assist_ranker::TranslateRankerModel_TranslateLogisticRegressionModel", %"class.assist_ranker::TranslateRankerModel_TranslateLogisticRegressionModel"* %0, i64 0, i32 4, i32 0, i32 0
  %62 = getelementptr inbounds %"class.assist_ranker::TranslateRankerModel_TranslateLogisticRegressionModel", %"class.assist_ranker::TranslateRankerModel_TranslateLogisticRegressionModel"* %0, i64 0, i32 4, i32 0, i32 0, i32 5, i32 0
  %63 = load %"class.google::protobuf::Arena"*, %"class.google::protobuf::Arena"** %62, align 8
  %64 = icmp eq %"class.google::protobuf::Arena"* %63, null
  br i1 %64, label %65, label %76

65:                                               ; preds = %60
  %66 = getelementptr inbounds %"class.assist_ranker::TranslateRankerModel_TranslateLogisticRegressionModel", %"class.assist_ranker::TranslateRankerModel_TranslateLogisticRegressionModel"* %0, i64 0, i32 4, i32 0, i32 0, i32 1
  %67 = load i64, i64* %66, align 8
  %68 = icmp eq i64 %67, 1
  br i1 %68, label %76, label %69

69:                                               ; preds = %65
  tail call void @_ZN6google8protobuf3MapINSt3__112basic_stringIcNS2_11char_traitsIcEENS2_9allocatorIcEEEEfE8InnerMap5clearEv(%"class.google::protobuf::Map<std::__1::basic_string<char, std::__1::char_traits<char>, std::__1::allocator<char> >, float>::InnerMap"* %61) #15
  %70 = load %"class.google::protobuf::Arena"*, %"class.google::protobuf::Arena"** %62, align 8
  %71 = icmp eq %"class.google::protobuf::Arena"* %70, null
  br i1 %71, label %72, label %76

72:                                               ; preds = %69
  %73 = getelementptr inbounds %"class.assist_ranker::TranslateRankerModel_TranslateLogisticRegressionModel", %"class.assist_ranker::TranslateRankerModel_TranslateLogisticRegressionModel"* %0, i64 0, i32 4, i32 0, i32 0, i32 4
  %74 = bitcast i8*** %73 to i8**
  %75 = load i8*, i8** %74, align 8
  tail call void @_ZdlPv(i8* %75) #15
  br label %76

76:                                               ; preds = %60, %65, %69, %72
  %77 = getelementptr inbounds %"class.assist_ranker::TranslateRankerModel_TranslateLogisticRegressionModel", %"class.assist_ranker::TranslateRankerModel_TranslateLogisticRegressionModel"* %0, i64 0, i32 3, i32 0, i32 0
  %78 = getelementptr inbounds %"class.assist_ranker::TranslateRankerModel_TranslateLogisticRegressionModel", %"class.assist_ranker::TranslateRankerModel_TranslateLogisticRegressionModel"* %0, i64 0, i32 3, i32 0, i32 0, i32 5, i32 0
  %79 = load %"class.google::protobuf::Arena"*, %"class.google::protobuf::Arena"** %78, align 8
  %80 = icmp eq %"class.google::protobuf::Arena"* %79, null
  br i1 %80, label %81, label %92

81:                                               ; preds = %76
  %82 = getelementptr inbounds %"class.assist_ranker::TranslateRankerModel_TranslateLogisticRegressionModel", %"class.assist_ranker::TranslateRankerModel_TranslateLogisticRegressionModel"* %0, i64 0, i32 3, i32 0, i32 0, i32 1
  %83 = load i64, i64* %82, align 8
  %84 = icmp eq i64 %83, 1
  br i1 %84, label %92, label %85

85:                                               ; preds = %81
  tail call void @_ZN6google8protobuf3MapINSt3__112basic_stringIcNS2_11char_traitsIcEENS2_9allocatorIcEEEEfE8InnerMap5clearEv(%"class.google::protobuf::Map<std::__1::basic_string<char, std::__1::char_traits<char>, std::__1::allocator<char> >, float>::InnerMap"* %77) #15
  %86 = load %"class.google::protobuf::Arena"*, %"class.google::protobuf::Arena"** %78, align 8
  %87 = icmp eq %"class.google::protobuf::Arena"* %86, null
  br i1 %87, label %88, label %92

88:                                               ; preds = %85
  %89 = getelementptr inbounds %"class.assist_ranker::TranslateRankerModel_TranslateLogisticRegressionModel", %"class.assist_ranker::TranslateRankerModel_TranslateLogisticRegressionModel"* %0, i64 0, i32 3, i32 0, i32 0, i32 4
  %90 = bitcast i8*** %89 to i8**
  %91 = load i8*, i8** %90, align 8
  tail call void @_ZdlPv(i8* %91) #15
  br label %92

92:                                               ; preds = %76, %81, %85, %88
  ret void
}

; Function Attrs: nounwind ssp uwtable
define hidden void @_ZN13assist_ranker53TranslateRankerModel_TranslateLogisticRegressionModelD0Ev(%"class.assist_ranker::TranslateRankerModel_TranslateLogisticRegressionModel"*) unnamed_addr #0 align 2 {
  tail call void @_ZN13assist_ranker53TranslateRankerModel_TranslateLogisticRegressionModelD2Ev(%"class.assist_ranker::TranslateRankerModel_TranslateLogisticRegressionModel"* %0) #15
  %2 = bitcast %"class.assist_ranker::TranslateRankerModel_TranslateLogisticRegressionModel"* %0 to i8*
  tail call void @_ZdlPv(i8* %2) #16
  ret void
}

; Function Attrs: nobuiltin nounwind
declare void @_ZdlPv(i8*) local_unnamed_addr #3

; Function Attrs: norecurse nounwind readnone ssp uwtable
define hidden void @_ZN13assist_ranker53TranslateRankerModel_TranslateLogisticRegressionModel9ArenaDtorEPv(i8* nocapture) local_unnamed_addr #4 align 2 {
  ret void
}

; Function Attrs: argmemonly nounwind
declare void @llvm.lifetime.start.p0i8(i64 immarg, i8* nocapture) #2

; Function Attrs: argmemonly nounwind
declare void @llvm.lifetime.end.p0i8(i64 immarg, i8* nocapture) #2

; Function Attrs: nofree norecurse nounwind ssp uwtable
define hidden void @_ZNK13assist_ranker53TranslateRankerModel_TranslateLogisticRegressionModel13SetCachedSizeEi(%"class.assist_ranker::TranslateRankerModel_TranslateLogisticRegressionModel"* nocapture, i32) local_unnamed_addr #5 align 2 {
  %3 = getelementptr inbounds %"class.assist_ranker::TranslateRankerModel_TranslateLogisticRegressionModel", %"class.assist_ranker::TranslateRankerModel_TranslateLogisticRegressionModel"* %0, i64 0, i32 2, i32 0, i32 0, i32 0, i32 0, i32 0, i32 0
  store atomic i32 %1, i32* %3 monotonic, align 4
  ret void
}

; Function Attrs: nounwind ssp uwtable
define hidden dereferenceable(248) %"class.assist_ranker::TranslateRankerModel_TranslateLogisticRegressionModel"* @_ZN13assist_ranker53TranslateRankerModel_TranslateLogisticRegressionModel16default_instanceEv() local_unnamed_addr #0 align 2 {
  %1 = load atomic i32, i32* getelementptr inbounds ({ { { { i32 } }, i32, i32, void ()* }, [4 x i8*] }, { { { { i32 } }, i32, i32, void ()* }, [4 x i8*] }* @scc_info_TranslateRankerModel_TranslateLogisticRegressionModel_translate_5franker_5fmodel_2eproto, i64 0, i32 0, i32 0, i32 0, i32 0) acquire, align 8
  %2 = icmp eq i32 %1, 0
  br i1 %2, label %4, label %3, !prof !2

3:                                                ; preds = %0
  tail call void @_ZN6google8protobuf8internal11InitSCCImplEPNS1_11SCCInfoBaseE(%"struct.google::protobuf::internal::SCCInfoBase"* bitcast ({ { { { i32 } }, i32, i32, void ()* }, [4 x i8*] }* @scc_info_TranslateRankerModel_TranslateLogisticRegressionModel_translate_5franker_5fmodel_2eproto to %"struct.google::protobuf::internal::SCCInfoBase"*)) #15
  br label %4

4:                                                ; preds = %0, %3
  ret %"class.assist_ranker::TranslateRankerModel_TranslateLogisticRegressionModel"* bitcast (%"class.assist_ranker::TranslateRankerModel_TranslateLogisticRegressionModelDefaultTypeInternal"* @_ZN13assist_ranker72_TranslateRankerModel_TranslateLogisticRegressionModel_default_instance_E to %"class.assist_ranker::TranslateRankerModel_TranslateLogisticRegressionModel"*)
}

; Function Attrs: nounwind ssp uwtable
define hidden void @_ZN13assist_ranker53TranslateRankerModel_TranslateLogisticRegressionModel5ClearEv(%"class.assist_ranker::TranslateRankerModel_TranslateLogisticRegressionModel"*) unnamed_addr #0 align 2 {
  %2 = getelementptr inbounds %"class.assist_ranker::TranslateRankerModel_TranslateLogisticRegressionModel", %"class.assist_ranker::TranslateRankerModel_TranslateLogisticRegressionModel"* %0, i64 0, i32 3, i32 0, i32 0
  tail call void @_ZN6google8protobuf3MapINSt3__112basic_stringIcNS2_11char_traitsIcEENS2_9allocatorIcEEEEfE8InnerMap5clearEv(%"class.google::protobuf::Map<std::__1::basic_string<char, std::__1::char_traits<char>, std::__1::allocator<char> >, float>::InnerMap"* %2) #15
  %3 = getelementptr inbounds %"class.assist_ranker::TranslateRankerModel_TranslateLogisticRegressionModel", %"class.assist_ranker::TranslateRankerModel_TranslateLogisticRegressionModel"* %0, i64 0, i32 4, i32 0, i32 0
  tail call void @_ZN6google8protobuf3MapINSt3__112basic_stringIcNS2_11char_traitsIcEENS2_9allocatorIcEEEEfE8InnerMap5clearEv(%"class.google::protobuf::Map<std::__1::basic_string<char, std::__1::char_traits<char>, std::__1::allocator<char> >, float>::InnerMap"* %3) #15
  %4 = getelementptr inbounds %"class.assist_ranker::TranslateRankerModel_TranslateLogisticRegressionModel", %"class.assist_ranker::TranslateRankerModel_TranslateLogisticRegressionModel"* %0, i64 0, i32 5, i32 0, i32 0
  tail call void @_ZN6google8protobuf3MapINSt3__112basic_stringIcNS2_11char_traitsIcEENS2_9allocatorIcEEEEfE8InnerMap5clearEv(%"class.google::protobuf::Map<std::__1::basic_string<char, std::__1::char_traits<char>, std::__1::allocator<char> >, float>::InnerMap"* %4) #15
  %5 = getelementptr inbounds %"class.assist_ranker::TranslateRankerModel_TranslateLogisticRegressionModel", %"class.assist_ranker::TranslateRankerModel_TranslateLogisticRegressionModel"* %0, i64 0, i32 6, i32 0, i32 0
  tail call void @_ZN6google8protobuf3MapINSt3__112basic_stringIcNS2_11char_traitsIcEENS2_9allocatorIcEEEEfE8InnerMap5clearEv(%"class.google::protobuf::Map<std::__1::basic_string<char, std::__1::char_traits<char>, std::__1::allocator<char> >, float>::InnerMap"* %5) #15
  %6 = getelementptr inbounds %"class.assist_ranker::TranslateRankerModel_TranslateLogisticRegressionModel", %"class.assist_ranker::TranslateRankerModel_TranslateLogisticRegressionModel"* %0, i64 0, i32 1, i32 0, i64 0
  %7 = load i32, i32* %6, align 4
  %8 = and i32 %7, 255
  %9 = icmp eq i32 %8, 0
  br i1 %9, label %13, label %10

10:                                               ; preds = %1
  %11 = getelementptr inbounds %"class.assist_ranker::TranslateRankerModel_TranslateLogisticRegressionModel", %"class.assist_ranker::TranslateRankerModel_TranslateLogisticRegressionModel"* %0, i64 0, i32 7
  %12 = bitcast float* %11 to i8*
  tail call void @llvm.memset.p0i8.i64(i8* align 8 %12, i8 0, i64 32, i1 false)
  br label %13

13:                                               ; preds = %1, %10
  store i32 0, i32* %6, align 4
  %14 = getelementptr inbounds %"class.assist_ranker::TranslateRankerModel_TranslateLogisticRegressionModel", %"class.assist_ranker::TranslateRankerModel_TranslateLogisticRegressionModel"* %0, i64 0, i32 0, i32 1
  %15 = bitcast %"class.google::protobuf::internal::InternalMetadata"* %14 to i64*
  %16 = load i64, i64* %15, align 8
  %17 = and i64 %16, 1
  %18 = icmp eq i64 %17, 0
  br i1 %18, label %33, label %19

19:                                               ; preds = %13
  %20 = and i64 %16, -2
  %21 = inttoptr i64 %20 to %"struct.google::protobuf::internal::InternalMetadata::Container"*
  %22 = getelementptr inbounds %"struct.google::protobuf::internal::InternalMetadata::Container", %"struct.google::protobuf::internal::InternalMetadata::Container"* %21, i64 0, i32 1
  %23 = bitcast %"class.std::__1::basic_string"* %22 to %"struct.std::__1::basic_string<char, std::__1::char_traits<char>, std::__1::allocator<char> >::__short"*
  %24 = getelementptr inbounds %"struct.std::__1::basic_string<char, std::__1::char_traits<char>, std::__1::allocator<char> >::__short", %"struct.std::__1::basic_string<char, std::__1::char_traits<char>, std::__1::allocator<char> >::__short"* %23, i64 0, i32 1, i32 0
  %25 = load i8, i8* %24, align 1
  %26 = icmp slt i8 %25, 0
  br i1 %26, label %27, label %31

27:                                               ; preds = %19
  %28 = getelementptr inbounds %"class.std::__1::basic_string", %"class.std::__1::basic_string"* %22, i64 0, i32 0, i32 0, i32 0, i32 0, i32 0, i32 0
  %29 = load i8*, i8** %28, align 8
  store i8 0, i8* %29, align 1
  %30 = getelementptr inbounds %"struct.google::protobuf::internal::InternalMetadata::Container", %"struct.google::protobuf::internal::InternalMetadata::Container"* %21, i64 0, i32 1, i32 0, i32 0, i32 0, i32 0, i32 0, i32 1
  store i64 0, i64* %30, align 8
  br label %33

31:                                               ; preds = %19
  %32 = bitcast %"class.std::__1::basic_string"* %22 to i8*
  store i8 0, i8* %32, align 2
  store i8 0, i8* %24, align 1
  br label %33

33:                                               ; preds = %13, %27, %31
  ret void
}

; Function Attrs: argmemonly nounwind
declare void @llvm.memset.p0i8.i64(i8* nocapture writeonly, i8, i64, i1 immarg) #2

; Function Attrs: nounwind ssp uwtable
define hidden i8* @_ZN13assist_ranker53TranslateRankerModel_TranslateLogisticRegressionModel14_InternalParseEPKcPN6google8protobuf8internal12ParseContextE(%"class.assist_ranker::TranslateRankerModel_TranslateLogisticRegressionModel"*, i8*, %"class.google::protobuf::internal::ParseContext"*) unnamed_addr #0 align 2 {
  %4 = getelementptr inbounds %"class.google::protobuf::internal::ParseContext", %"class.google::protobuf::internal::ParseContext"* %2, i64 0, i32 0
  %5 = getelementptr inbounds %"class.google::protobuf::internal::ParseContext", %"class.google::protobuf::internal::ParseContext"* %2, i64 0, i32 2
  %6 = getelementptr inbounds %"class.google::protobuf::internal::ParseContext", %"class.google::protobuf::internal::ParseContext"* %2, i64 0, i32 0, i32 0
  %7 = getelementptr inbounds %"class.google::protobuf::internal::ParseContext", %"class.google::protobuf::internal::ParseContext"* %2, i64 0, i32 0, i32 1
  %8 = bitcast i8** %7 to i64*
  %9 = getelementptr inbounds %"class.google::protobuf::internal::ParseContext", %"class.google::protobuf::internal::ParseContext"* %2, i64 0, i32 0, i32 4
  %10 = getelementptr inbounds %"class.assist_ranker::TranslateRankerModel_TranslateLogisticRegressionModel", %"class.assist_ranker::TranslateRankerModel_TranslateLogisticRegressionModel"* %0, i64 0, i32 14
  %11 = bitcast float* %10 to i32*
  %12 = getelementptr inbounds %"class.assist_ranker::TranslateRankerModel_TranslateLogisticRegressionModel", %"class.assist_ranker::TranslateRankerModel_TranslateLogisticRegressionModel"* %0, i64 0, i32 13
  %13 = bitcast float* %12 to i32*
  %14 = getelementptr inbounds %"class.assist_ranker::TranslateRankerModel_TranslateLogisticRegressionModel", %"class.assist_ranker::TranslateRankerModel_TranslateLogisticRegressionModel"* %0, i64 0, i32 12
  %15 = bitcast float* %14 to i32*
  %16 = getelementptr inbounds %"class.assist_ranker::TranslateRankerModel_TranslateLogisticRegressionModel", %"class.assist_ranker::TranslateRankerModel_TranslateLogisticRegressionModel"* %0, i64 0, i32 11
  %17 = bitcast float* %16 to i32*
  %18 = getelementptr inbounds %"class.assist_ranker::TranslateRankerModel_TranslateLogisticRegressionModel", %"class.assist_ranker::TranslateRankerModel_TranslateLogisticRegressionModel"* %0, i64 0, i32 6
  %19 = getelementptr inbounds %"class.assist_ranker::TranslateRankerModel_TranslateLogisticRegressionModel", %"class.assist_ranker::TranslateRankerModel_TranslateLogisticRegressionModel"* %0, i64 0, i32 5
  %20 = getelementptr inbounds %"class.assist_ranker::TranslateRankerModel_TranslateLogisticRegressionModel", %"class.assist_ranker::TranslateRankerModel_TranslateLogisticRegressionModel"* %0, i64 0, i32 4
  %21 = getelementptr inbounds %"class.assist_ranker::TranslateRankerModel_TranslateLogisticRegressionModel", %"class.assist_ranker::TranslateRankerModel_TranslateLogisticRegressionModel"* %0, i64 0, i32 3
  %22 = getelementptr inbounds %"class.assist_ranker::TranslateRankerModel_TranslateLogisticRegressionModel", %"class.assist_ranker::TranslateRankerModel_TranslateLogisticRegressionModel"* %0, i64 0, i32 10
  %23 = bitcast float* %22 to i32*
  %24 = getelementptr inbounds %"class.assist_ranker::TranslateRankerModel_TranslateLogisticRegressionModel", %"class.assist_ranker::TranslateRankerModel_TranslateLogisticRegressionModel"* %0, i64 0, i32 9
  %25 = bitcast float* %24 to i32*
  %26 = getelementptr inbounds %"class.assist_ranker::TranslateRankerModel_TranslateLogisticRegressionModel", %"class.assist_ranker::TranslateRankerModel_TranslateLogisticRegressionModel"* %0, i64 0, i32 8
  %27 = bitcast float* %26 to i32*
  %28 = getelementptr inbounds %"class.assist_ranker::TranslateRankerModel_TranslateLogisticRegressionModel", %"class.assist_ranker::TranslateRankerModel_TranslateLogisticRegressionModel"* %0, i64 0, i32 7
  %29 = bitcast float* %28 to i32*
  %30 = getelementptr inbounds %"class.assist_ranker::TranslateRankerModel_TranslateLogisticRegressionModel", %"class.assist_ranker::TranslateRankerModel_TranslateLogisticRegressionModel"* %0, i64 0, i32 0, i32 1
  %31 = bitcast %"class.google::protobuf::internal::InternalMetadata"* %30 to i64*
  br label %32

32:                                               ; preds = %226, %3
  %33 = phi i8* [ %1, %3 ], [ %227, %226 ]
  %34 = phi i32 [ 0, %3 ], [ %228, %226 ]
  %35 = load i32, i32* %5, align 4
  %36 = load i8*, i8** %6, align 8
  %37 = icmp ult i8* %33, %36
  br i1 %37, label %51, label %38, !prof !2

38:                                               ; preds = %32
  %39 = load i64, i64* %8, align 8
  %40 = ptrtoint i8* %33 to i64
  %41 = sub i64 %40, %39
  %42 = load i32, i32* %9, align 4
  %43 = sext i32 %42 to i64
  %44 = icmp eq i64 %41, %43
  br i1 %44, label %229, label %45

45:                                               ; preds = %38
  %46 = tail call { i8*, i8 } @_ZN6google8protobuf8internal18EpsCopyInputStream12DoneFallbackEPKci(%"class.google::protobuf::internal::EpsCopyInputStream"* %4, i8* %33, i32 %35) #15
  %47 = extractvalue { i8*, i8 } %46, 0
  %48 = extractvalue { i8*, i8 } %46, 1
  %49 = and i8 %48, 1
  %50 = icmp eq i8 %49, 0
  br i1 %50, label %51, label %229

51:                                               ; preds = %45, %32
  %52 = phi i8* [ %47, %45 ], [ %33, %32 ]
  %53 = load i8, i8* %52, align 1
  %54 = zext i8 %53 to i32
  %55 = icmp sgt i8 %53, -1
  %56 = getelementptr inbounds i8, i8* %52, i64 1
  br i1 %55, label %70, label %57

57:                                               ; preds = %51
  %58 = load i8, i8* %56, align 1
  %59 = zext i8 %58 to i32
  %60 = shl nuw nsw i32 %59, 7
  %61 = add nsw i32 %54, -128
  %62 = add nsw i32 %61, %60
  %63 = icmp sgt i8 %58, -1
  br i1 %63, label %64, label %66

64:                                               ; preds = %57
  %65 = getelementptr inbounds i8, i8* %52, i64 2
  br label %70

66:                                               ; preds = %57
  %67 = tail call { i8*, i32 } @_ZN6google8protobuf8internal15ReadTagFallbackEPKcj(i8* %52, i32 %62) #15
  %68 = extractvalue { i8*, i32 } %67, 0
  %69 = extractvalue { i8*, i32 } %67, 1
  br label %70

70:                                               ; preds = %51, %64, %66
  %71 = phi i32 [ %62, %64 ], [ %69, %66 ], [ %54, %51 ]
  %72 = phi i8* [ %65, %64 ], [ %68, %66 ], [ %56, %51 ]
  %73 = icmp eq i8* %72, null
  br i1 %73, label %229, label %74, !prof !4

74:                                               ; preds = %70
  %75 = lshr i32 %71, 3
  switch i32 %75, label %204 [
    i32 1, label %76
    i32 2, label %84
    i32 3, label %92
    i32 4, label %100
    i32 5, label %108
    i32 6, label %124
    i32 7, label %140
    i32 8, label %156
    i32 9, label %172
    i32 10, label %180
    i32 11, label %188
    i32 12, label %196
  ]

76:                                               ; preds = %74
  %77 = and i32 %71, 255
  %78 = icmp eq i32 %77, 13
  br i1 %78, label %79, label %204, !prof !2

79:                                               ; preds = %76
  %80 = or i32 %34, 1
  %81 = bitcast i8* %72 to i32*
  %82 = load i32, i32* %81, align 1
  store i32 %82, i32* %29, align 8
  %83 = getelementptr inbounds i8, i8* %72, i64 4
  br label %226

84:                                               ; preds = %74
  %85 = and i32 %71, 255
  %86 = icmp eq i32 %85, 21
  br i1 %86, label %87, label %204, !prof !2

87:                                               ; preds = %84
  %88 = or i32 %34, 2
  %89 = bitcast i8* %72 to i32*
  %90 = load i32, i32* %89, align 1
  store i32 %90, i32* %27, align 4
  %91 = getelementptr inbounds i8, i8* %72, i64 4
  br label %226

92:                                               ; preds = %74
  %93 = and i32 %71, 255
  %94 = icmp eq i32 %93, 29
  br i1 %94, label %95, label %204, !prof !2

95:                                               ; preds = %92
  %96 = or i32 %34, 4
  %97 = bitcast i8* %72 to i32*
  %98 = load i32, i32* %97, align 1
  store i32 %98, i32* %25, align 8
  %99 = getelementptr inbounds i8, i8* %72, i64 4
  br label %226

100:                                              ; preds = %74
  %101 = and i32 %71, 255
  %102 = icmp eq i32 %101, 37
  br i1 %102, label %103, label %204, !prof !2

103:                                              ; preds = %100
  %104 = or i32 %34, 8
  %105 = bitcast i8* %72 to i32*
  %106 = load i32, i32* %105, align 1
  store i32 %106, i32* %23, align 4
  %107 = getelementptr inbounds i8, i8* %72, i64 4
  br label %226

108:                                              ; preds = %74
  %109 = and i32 %71, 255
  %110 = icmp eq i32 %109, 42
  br i1 %110, label %111, label %204, !prof !2

111:                                              ; preds = %108
  %112 = getelementptr inbounds i8, i8* %72, i64 -1
  br label %113

113:                                              ; preds = %121, %111
  %114 = phi i8* [ %112, %111 ], [ %116, %121 ]
  %115 = getelementptr inbounds i8, i8* %114, i64 1
  %116 = tail call i8* @_ZN6google8protobuf8internal12ParseContext12ParseMessageINS1_12MapFieldLiteIN13assist_ranker88TranslateRankerModel_TranslateLogisticRegressionModel_SourceLanguageWeightEntry_DoNotUseENSt3__112basic_stringIcNS7_11char_traitsIcEENS7_9allocatorIcEEEEfLNS1_14WireFormatLite9FieldTypeE9ELSF_2EEEEEPKcPT_SI_(%"class.google::protobuf::internal::ParseContext"* %2, %"class.google::protobuf::internal::MapFieldLite"* %21, i8* %115)
  %117 = icmp eq i8* %116, null
  br i1 %117, label %229, label %118, !prof !4

118:                                              ; preds = %113
  %119 = load i8*, i8** %6, align 8
  %120 = icmp ugt i8* %119, %116
  br i1 %120, label %121, label %226

121:                                              ; preds = %118
  %122 = load i8, i8* %116, align 1
  %123 = icmp eq i8 %122, 42
  br i1 %123, label %113, label %226

124:                                              ; preds = %74
  %125 = and i32 %71, 255
  %126 = icmp eq i32 %125, 50
  br i1 %126, label %127, label %204, !prof !2

127:                                              ; preds = %124
  %128 = getelementptr inbounds i8, i8* %72, i64 -1
  br label %129

129:                                              ; preds = %137, %127
  %130 = phi i8* [ %128, %127 ], [ %132, %137 ]
  %131 = getelementptr inbounds i8, i8* %130, i64 1
  %132 = tail call i8* @_ZN6google8protobuf8internal12ParseContext12ParseMessageINS1_12MapFieldLiteIN13assist_ranker88TranslateRankerModel_TranslateLogisticRegressionModel_TargetLanguageWeightEntry_DoNotUseENSt3__112basic_stringIcNS7_11char_traitsIcEENS7_9allocatorIcEEEEfLNS1_14WireFormatLite9FieldTypeE9ELSF_2EEEEEPKcPT_SI_(%"class.google::protobuf::internal::ParseContext"* %2, %"class.google::protobuf::internal::MapFieldLite.24"* %20, i8* %131)
  %133 = icmp eq i8* %132, null
  br i1 %133, label %229, label %134, !prof !4

134:                                              ; preds = %129
  %135 = load i8*, i8** %6, align 8
  %136 = icmp ugt i8* %135, %132
  br i1 %136, label %137, label %226

137:                                              ; preds = %134
  %138 = load i8, i8* %132, align 1
  %139 = icmp eq i8 %138, 50
  br i1 %139, label %129, label %226

140:                                              ; preds = %74
  %141 = and i32 %71, 255
  %142 = icmp eq i32 %141, 58
  br i1 %142, label %143, label %204, !prof !2

143:                                              ; preds = %140
  %144 = getelementptr inbounds i8, i8* %72, i64 -1
  br label %145

145:                                              ; preds = %153, %143
  %146 = phi i8* [ %144, %143 ], [ %148, %153 ]
  %147 = getelementptr inbounds i8, i8* %146, i64 1
  %148 = tail call i8* @_ZN6google8protobuf8internal12ParseContext12ParseMessageINS1_12MapFieldLiteIN13assist_ranker81TranslateRankerModel_TranslateLogisticRegressionModel_CountryWeightEntry_DoNotUseENSt3__112basic_stringIcNS7_11char_traitsIcEENS7_9allocatorIcEEEEfLNS1_14WireFormatLite9FieldTypeE9ELSF_2EEEEEPKcPT_SI_(%"class.google::protobuf::internal::ParseContext"* %2, %"class.google::protobuf::internal::MapFieldLite.25"* %19, i8* %147)
  %149 = icmp eq i8* %148, null
  br i1 %149, label %229, label %150, !prof !4

150:                                              ; preds = %145
  %151 = load i8*, i8** %6, align 8
  %152 = icmp ugt i8* %151, %148
  br i1 %152, label %153, label %226

153:                                              ; preds = %150
  %154 = load i8, i8* %148, align 1
  %155 = icmp eq i8 %154, 58
  br i1 %155, label %145, label %226

156:                                              ; preds = %74
  %157 = and i32 %71, 255
  %158 = icmp eq i32 %157, 66
  br i1 %158, label %159, label %204, !prof !2

159:                                              ; preds = %156
  %160 = getelementptr inbounds i8, i8* %72, i64 -1
  br label %161

161:                                              ; preds = %169, %159
  %162 = phi i8* [ %160, %159 ], [ %164, %169 ]
  %163 = getelementptr inbounds i8, i8* %162, i64 1
  %164 = tail call i8* @_ZN6google8protobuf8internal12ParseContext12ParseMessageINS1_12MapFieldLiteIN13assist_ranker80TranslateRankerModel_TranslateLogisticRegressionModel_LocaleWeightEntry_DoNotUseENSt3__112basic_stringIcNS7_11char_traitsIcEENS7_9allocatorIcEEEEfLNS1_14WireFormatLite9FieldTypeE9ELSF_2EEEEEPKcPT_SI_(%"class.google::protobuf::internal::ParseContext"* %2, %"class.google::protobuf::internal::MapFieldLite.26"* %18, i8* %163)
  %165 = icmp eq i8* %164, null
  br i1 %165, label %229, label %166, !prof !4

166:                                              ; preds = %161
  %167 = load i8*, i8** %6, align 8
  %168 = icmp ugt i8* %167, %164
  br i1 %168, label %169, label %226

169:                                              ; preds = %166
  %170 = load i8, i8* %164, align 1
  %171 = icmp eq i8 %170, 66
  br i1 %171, label %161, label %226

172:                                              ; preds = %74
  %173 = and i32 %71, 255
  %174 = icmp eq i32 %173, 77
  br i1 %174, label %175, label %204, !prof !2

175:                                              ; preds = %172
  %176 = or i32 %34, 16
  %177 = bitcast i8* %72 to i32*
  %178 = load i32, i32* %177, align 1
  store i32 %178, i32* %17, align 8
  %179 = getelementptr inbounds i8, i8* %72, i64 4
  br label %226

180:                                              ; preds = %74
  %181 = and i32 %71, 255
  %182 = icmp eq i32 %181, 85
  br i1 %182, label %183, label %204, !prof !2

183:                                              ; preds = %180
  %184 = or i32 %34, 32
  %185 = bitcast i8* %72 to i32*
  %186 = load i32, i32* %185, align 1
  store i32 %186, i32* %15, align 4
  %187 = getelementptr inbounds i8, i8* %72, i64 4
  br label %226

188:                                              ; preds = %74
  %189 = and i32 %71, 255
  %190 = icmp eq i32 %189, 93
  br i1 %190, label %191, label %204, !prof !2

191:                                              ; preds = %188
  %192 = or i32 %34, 64
  %193 = bitcast i8* %72 to i32*
  %194 = load i32, i32* %193, align 1
  store i32 %194, i32* %13, align 8
  %195 = getelementptr inbounds i8, i8* %72, i64 4
  br label %226

196:                                              ; preds = %74
  %197 = and i32 %71, 255
  %198 = icmp eq i32 %197, 101
  br i1 %198, label %199, label %204, !prof !2

199:                                              ; preds = %196
  %200 = or i32 %34, 128
  %201 = bitcast i8* %72 to i32*
  %202 = load i32, i32* %201, align 1
  store i32 %202, i32* %11, align 4
  %203 = getelementptr inbounds i8, i8* %72, i64 4
  br label %226

204:                                              ; preds = %74, %196, %188, %180, %172, %156, %140, %124, %108, %100, %92, %84, %76
  %205 = and i32 %71, 7
  %206 = icmp eq i32 %205, 4
  %207 = icmp eq i32 %71, 0
  %208 = or i1 %207, %206
  br i1 %208, label %209, label %212

209:                                              ; preds = %204
  %210 = add i32 %71, -1
  %211 = getelementptr inbounds %"class.google::protobuf::internal::ParseContext", %"class.google::protobuf::internal::ParseContext"* %2, i64 0, i32 0, i32 8
  store i32 %210, i32* %211, align 8
  br label %229

212:                                              ; preds = %204
  %213 = load i64, i64* %31, align 8
  %214 = and i64 %213, 1
  %215 = icmp eq i64 %214, 0
  br i1 %215, label %220, label %216, !prof !4

216:                                              ; preds = %212
  %217 = and i64 %213, -2
  %218 = inttoptr i64 %217 to %"struct.google::protobuf::internal::InternalMetadata::Container"*
  %219 = getelementptr inbounds %"struct.google::protobuf::internal::InternalMetadata::Container", %"struct.google::protobuf::internal::InternalMetadata::Container"* %218, i64 0, i32 1
  br label %222

220:                                              ; preds = %212
  %221 = tail call %"class.std::__1::basic_string"* @_ZN6google8protobuf8internal16InternalMetadata27mutable_unknown_fields_slowINSt3__112basic_stringIcNS4_11char_traitsIcEENS4_9allocatorIcEEEEEEPT_v(%"class.google::protobuf::internal::InternalMetadata"* %30) #15
  br label %222

222:                                              ; preds = %216, %220
  %223 = phi %"class.std::__1::basic_string"* [ %219, %216 ], [ %221, %220 ]
  %224 = tail call i8* @_ZN6google8protobuf8internal17UnknownFieldParseEjPNSt3__112basic_stringIcNS2_11char_traitsIcEENS2_9allocatorIcEEEEPKcPNS1_12ParseContextE(i32 %71, %"class.std::__1::basic_string"* %223, i8* nonnull %72, %"class.google::protobuf::internal::ParseContext"* %2) #15
  %225 = icmp eq i8* %224, null
  br i1 %225, label %229, label %226

226:                                              ; preds = %169, %166, %153, %150, %137, %134, %121, %118, %222, %199, %191, %183, %175, %103, %95, %87, %79
  %227 = phi i8* [ %224, %222 ], [ %203, %199 ], [ %195, %191 ], [ %187, %183 ], [ %179, %175 ], [ %107, %103 ], [ %99, %95 ], [ %91, %87 ], [ %83, %79 ], [ %116, %118 ], [ %116, %121 ], [ %132, %134 ], [ %132, %137 ], [ %148, %150 ], [ %148, %153 ], [ %164, %166 ], [ %164, %169 ]
  %228 = phi i32 [ %34, %222 ], [ %200, %199 ], [ %192, %191 ], [ %184, %183 ], [ %176, %175 ], [ %104, %103 ], [ %96, %95 ], [ %88, %87 ], [ %80, %79 ], [ %34, %118 ], [ %34, %121 ], [ %34, %134 ], [ %34, %137 ], [ %34, %150 ], [ %34, %153 ], [ %34, %166 ], [ %34, %169 ]
  br label %32

229:                                              ; preds = %45, %222, %38, %70, %161, %145, %129, %113, %209
  %230 = phi i8* [ %72, %209 ], [ null, %113 ], [ null, %129 ], [ null, %145 ], [ null, %161 ], [ null, %70 ], [ %33, %38 ], [ null, %222 ], [ %47, %45 ]
  %231 = getelementptr inbounds %"class.assist_ranker::TranslateRankerModel_TranslateLogisticRegressionModel", %"class.assist_ranker::TranslateRankerModel_TranslateLogisticRegressionModel"* %0, i64 0, i32 1, i32 0, i64 0
  %232 = load i32, i32* %231, align 4
  %233 = or i32 %232, %34
  store i32 %233, i32* %231, align 4
  ret i8* %230
}

; Function Attrs: nounwind ssp uwtable
define linkonce_odr hidden i8* @_ZN6google8protobuf8internal12ParseContext12ParseMessageINS1_12MapFieldLiteIN13assist_ranker88TranslateRankerModel_TranslateLogisticRegressionModel_SourceLanguageWeightEntry_DoNotUseENSt3__112basic_stringIcNS7_11char_traitsIcEENS7_9allocatorIcEEEEfLNS1_14WireFormatLite9FieldTypeE9ELSF_2EEEEEPKcPT_SI_(%"class.google::protobuf::internal::ParseContext"*, %"class.google::protobuf::internal::MapFieldLite"*, i8*) local_unnamed_addr #0 comdat align 2 {
  %4 = alloca %"class.google::protobuf::internal::MapEntryImpl<assist_ranker::TranslateRankerModel_TranslateLogisticRegressionModel_SourceLanguageWeightEntry_DoNotUse, google::protobuf::MessageLite, std::__1::basic_string<char, std::__1::char_traits<char>, std::__1::allocator<char> >, float, google::protobuf::internal::WireFormatLite::TYPE_STRING, google::protobuf::internal::WireFormatLite::TYPE_FLOAT>::Parser", align 8
  %5 = load i8, i8* %2, align 1
  %6 = zext i8 %5 to i32
  %7 = icmp sgt i8 %5, -1
  br i1 %7, label %8, label %10

8:                                                ; preds = %3
  %9 = getelementptr inbounds i8, i8* %2, i64 1
  br label %14

10:                                               ; preds = %3
  %11 = tail call { i8*, i32 } @_ZN6google8protobuf8internal16ReadSizeFallbackEPKcj(i8* %2, i32 %6) #15
  %12 = extractvalue { i8*, i32 } %11, 0
  %13 = extractvalue { i8*, i32 } %11, 1
  br label %14

14:                                               ; preds = %8, %10
  %15 = phi i8* [ %12, %10 ], [ %9, %8 ]
  %16 = phi i32 [ %13, %10 ], [ %6, %8 ]
  %17 = icmp eq i8* %15, null
  br i1 %17, label %97, label %18

18:                                               ; preds = %14
  %19 = getelementptr inbounds %"class.google::protobuf::internal::ParseContext", %"class.google::protobuf::internal::ParseContext"* %0, i64 0, i32 0, i32 1
  %20 = bitcast i8** %19 to i64*
  %21 = load i64, i64* %20, align 8
  %22 = ptrtoint i8* %15 to i64
  %23 = sub i64 %22, %21
  %24 = trunc i64 %23 to i32
  %25 = add nsw i32 %16, %24
  %26 = inttoptr i64 %21 to i8*
  %27 = icmp slt i32 %25, 0
  %28 = select i1 %27, i32 %25, i32 0
  %29 = sext i32 %28 to i64
  %30 = getelementptr inbounds i8, i8* %26, i64 %29
  %31 = getelementptr inbounds %"class.google::protobuf::internal::ParseContext", %"class.google::protobuf::internal::ParseContext"* %0, i64 0, i32 0, i32 0
  store i8* %30, i8** %31, align 8
  %32 = getelementptr inbounds %"class.google::protobuf::internal::ParseContext", %"class.google::protobuf::internal::ParseContext"* %0, i64 0, i32 0, i32 4
  %33 = load i32, i32* %32, align 4
  store i32 %25, i32* %32, align 4
  %34 = sub nsw i32 %33, %25
  %35 = getelementptr inbounds %"class.google::protobuf::internal::ParseContext", %"class.google::protobuf::internal::ParseContext"* %0, i64 0, i32 1
  %36 = load i32, i32* %35, align 8
  %37 = add nsw i32 %36, -1
  store i32 %37, i32* %35, align 8
  %38 = icmp slt i32 %36, 1
  br i1 %38, label %97, label %39

39:                                               ; preds = %18
  %40 = bitcast %"class.google::protobuf::internal::MapEntryImpl<assist_ranker::TranslateRankerModel_TranslateLogisticRegressionModel_SourceLanguageWeightEntry_DoNotUse, google::protobuf::MessageLite, std::__1::basic_string<char, std::__1::char_traits<char>, std::__1::allocator<char> >, float, google::protobuf::internal::WireFormatLite::TYPE_STRING, google::protobuf::internal::WireFormatLite::TYPE_FLOAT>::Parser"* %4 to i8*
  call void @llvm.lifetime.start.p0i8(i64 56, i8* nonnull %40) #15
  %41 = getelementptr inbounds %"class.google::protobuf::internal::MapEntryImpl<assist_ranker::TranslateRankerModel_TranslateLogisticRegressionModel_SourceLanguageWeightEntry_DoNotUse, google::protobuf::MessageLite, std::__1::basic_string<char, std::__1::char_traits<char>, std::__1::allocator<char> >, float, google::protobuf::internal::WireFormatLite::TYPE_STRING, google::protobuf::internal::WireFormatLite::TYPE_FLOAT>::Parser", %"class.google::protobuf::internal::MapEntryImpl<assist_ranker::TranslateRankerModel_TranslateLogisticRegressionModel_SourceLanguageWeightEntry_DoNotUse, google::protobuf::MessageLite, std::__1::basic_string<char, std::__1::char_traits<char>, std::__1::allocator<char> >, float, google::protobuf::internal::WireFormatLite::TYPE_STRING, google::protobuf::internal::WireFormatLite::TYPE_FLOAT>::Parser"* %4, i64 0, i32 3
  %42 = bitcast float** %41 to i64*
  store i64 -6148914691236517206, i64* %42, align 8
  %43 = getelementptr inbounds %"class.google::protobuf::internal::MapEntryImpl<assist_ranker::TranslateRankerModel_TranslateLogisticRegressionModel_SourceLanguageWeightEntry_DoNotUse, google::protobuf::MessageLite, std::__1::basic_string<char, std::__1::char_traits<char>, std::__1::allocator<char> >, float, google::protobuf::internal::WireFormatLite::TYPE_STRING, google::protobuf::internal::WireFormatLite::TYPE_FLOAT>::Parser", %"class.google::protobuf::internal::MapEntryImpl<assist_ranker::TranslateRankerModel_TranslateLogisticRegressionModel_SourceLanguageWeightEntry_DoNotUse, google::protobuf::MessageLite, std::__1::basic_string<char, std::__1::char_traits<char>, std::__1::allocator<char> >, float, google::protobuf::internal::WireFormatLite::TYPE_STRING, google::protobuf::internal::WireFormatLite::TYPE_FLOAT>::Parser"* %4, i64 0, i32 0
  store %"class.google::protobuf::internal::MapFieldLite"* %1, %"class.google::protobuf::internal::MapFieldLite"** %43, align 8
  %44 = getelementptr inbounds %"class.google::protobuf::internal::MapEntryImpl<assist_ranker::TranslateRankerModel_TranslateLogisticRegressionModel_SourceLanguageWeightEntry_DoNotUse, google::protobuf::MessageLite, std::__1::basic_string<char, std::__1::char_traits<char>, std::__1::allocator<char> >, float, google::protobuf::internal::WireFormatLite::TYPE_STRING, google::protobuf::internal::WireFormatLite::TYPE_FLOAT>::Parser", %"class.google::protobuf::internal::MapEntryImpl<assist_ranker::TranslateRankerModel_TranslateLogisticRegressionModel_SourceLanguageWeightEntry_DoNotUse, google::protobuf::MessageLite, std::__1::basic_string<char, std::__1::char_traits<char>, std::__1::allocator<char> >, float, google::protobuf::internal::WireFormatLite::TYPE_STRING, google::protobuf::internal::WireFormatLite::TYPE_FLOAT>::Parser"* %4, i64 0, i32 1
  %45 = getelementptr inbounds %"class.google::protobuf::internal::MapFieldLite", %"class.google::protobuf::internal::MapFieldLite"* %1, i64 0, i32 0
  store %"class.google::protobuf::Map"* %45, %"class.google::protobuf::Map"** %44, align 8
  %46 = getelementptr inbounds %"class.google::protobuf::internal::MapEntryImpl<assist_ranker::TranslateRankerModel_TranslateLogisticRegressionModel_SourceLanguageWeightEntry_DoNotUse, google::protobuf::MessageLite, std::__1::basic_string<char, std::__1::char_traits<char>, std::__1::allocator<char> >, float, google::protobuf::internal::WireFormatLite::TYPE_STRING, google::protobuf::internal::WireFormatLite::TYPE_FLOAT>::Parser", %"class.google::protobuf::internal::MapEntryImpl<assist_ranker::TranslateRankerModel_TranslateLogisticRegressionModel_SourceLanguageWeightEntry_DoNotUse, google::protobuf::MessageLite, std::__1::basic_string<char, std::__1::char_traits<char>, std::__1::allocator<char> >, float, google::protobuf::internal::WireFormatLite::TYPE_STRING, google::protobuf::internal::WireFormatLite::TYPE_FLOAT>::Parser"* %4, i64 0, i32 2
  %47 = bitcast %"class.std::__1::basic_string"* %46 to i8*
  call void @llvm.memset.p0i8.i64(i8* align 8 %47, i8 0, i64 24, i1 false) #15
  %48 = getelementptr inbounds %"class.google::protobuf::internal::MapEntryImpl<assist_ranker::TranslateRankerModel_TranslateLogisticRegressionModel_SourceLanguageWeightEntry_DoNotUse, google::protobuf::MessageLite, std::__1::basic_string<char, std::__1::char_traits<char>, std::__1::allocator<char> >, float, google::protobuf::internal::WireFormatLite::TYPE_STRING, google::protobuf::internal::WireFormatLite::TYPE_FLOAT>::Parser", %"class.google::protobuf::internal::MapEntryImpl<assist_ranker::TranslateRankerModel_TranslateLogisticRegressionModel_SourceLanguageWeightEntry_DoNotUse, google::protobuf::MessageLite, std::__1::basic_string<char, std::__1::char_traits<char>, std::__1::allocator<char> >, float, google::protobuf::internal::WireFormatLite::TYPE_STRING, google::protobuf::internal::WireFormatLite::TYPE_FLOAT>::Parser"* %4, i64 0, i32 4
  store %"class.google::protobuf::internal::MapEntryImpl"* null, %"class.google::protobuf::internal::MapEntryImpl"** %48, align 8
  %49 = call i8* @_ZN6google8protobuf8internal12MapEntryImplIN13assist_ranker88TranslateRankerModel_TranslateLogisticRegressionModel_SourceLanguageWeightEntry_DoNotUseENS0_11MessageLiteENSt3__112basic_stringIcNS6_11char_traitsIcEENS6_9allocatorIcEEEEfLNS1_14WireFormatLite9FieldTypeE9ELSE_2EE6ParserINS1_12MapFieldLiteIS4_SC_fLSE_9ELSE_2EEENS0_3MapISC_fEEE14_InternalParseEPKcPNS1_12ParseContextE(%"class.google::protobuf::internal::MapEntryImpl<assist_ranker::TranslateRankerModel_TranslateLogisticRegressionModel_SourceLanguageWeightEntry_DoNotUse, google::protobuf::MessageLite, std::__1::basic_string<char, std::__1::char_traits<char>, std::__1::allocator<char> >, float, google::protobuf::internal::WireFormatLite::TYPE_STRING, google::protobuf::internal::WireFormatLite::TYPE_FLOAT>::Parser"* nonnull %4, i8* nonnull %15, %"class.google::protobuf::internal::ParseContext"* %0) #15
  %50 = load %"class.google::protobuf::internal::MapEntryImpl"*, %"class.google::protobuf::internal::MapEntryImpl"** %48, align 8
  %51 = icmp eq %"class.google::protobuf::internal::MapEntryImpl"* %50, null
  br i1 %51, label %73, label %52

52:                                               ; preds = %39
  %53 = getelementptr inbounds %"class.google::protobuf::internal::MapEntryImpl", %"class.google::protobuf::internal::MapEntryImpl"* %50, i64 0, i32 0, i32 1
  %54 = bitcast %"class.google::protobuf::internal::InternalMetadata"* %53 to i64*
  %55 = load i64, i64* %54, align 8
  %56 = and i64 %55, 1
  %57 = icmp eq i64 %56, 0
  %58 = and i64 %55, -2
  br i1 %57, label %63, label %59, !prof !2

59:                                               ; preds = %52
  %60 = inttoptr i64 %58 to %"struct.google::protobuf::internal::InternalMetadata::ContainerBase"*
  %61 = getelementptr inbounds %"struct.google::protobuf::internal::InternalMetadata::ContainerBase", %"struct.google::protobuf::internal::InternalMetadata::ContainerBase"* %60, i64 0, i32 0
  %62 = load %"class.google::protobuf::Arena"*, %"class.google::protobuf::Arena"** %61, align 8
  br label %65

63:                                               ; preds = %52
  %64 = inttoptr i64 %58 to %"class.google::protobuf::Arena"*
  br label %65

65:                                               ; preds = %63, %59
  %66 = phi %"class.google::protobuf::Arena"* [ %62, %59 ], [ %64, %63 ]
  %67 = icmp eq %"class.google::protobuf::Arena"* %66, null
  br i1 %67, label %68, label %73

68:                                               ; preds = %65
  %69 = bitcast %"class.google::protobuf::internal::MapEntryImpl"* %50 to void (%"class.google::protobuf::internal::MapEntryImpl"*)***
  %70 = load void (%"class.google::protobuf::internal::MapEntryImpl"*)**, void (%"class.google::protobuf::internal::MapEntryImpl"*)*** %69, align 8
  %71 = getelementptr inbounds void (%"class.google::protobuf::internal::MapEntryImpl"*)*, void (%"class.google::protobuf::internal::MapEntryImpl"*)** %70, i64 1
  %72 = load void (%"class.google::protobuf::internal::MapEntryImpl"*)*, void (%"class.google::protobuf::internal::MapEntryImpl"*)** %71, align 8
  call void %72(%"class.google::protobuf::internal::MapEntryImpl"* nonnull %50) #15
  br label %73

73:                                               ; preds = %68, %65, %39
  %74 = bitcast %"class.std::__1::basic_string"* %46 to %"struct.std::__1::basic_string<char, std::__1::char_traits<char>, std::__1::allocator<char> >::__short"*
  %75 = getelementptr inbounds %"struct.std::__1::basic_string<char, std::__1::char_traits<char>, std::__1::allocator<char> >::__short", %"struct.std::__1::basic_string<char, std::__1::char_traits<char>, std::__1::allocator<char> >::__short"* %74, i64 0, i32 1, i32 0
  %76 = load i8, i8* %75, align 1
  %77 = icmp slt i8 %76, 0
  br i1 %77, label %78, label %81

78:                                               ; preds = %73
  %79 = getelementptr inbounds %"class.std::__1::basic_string", %"class.std::__1::basic_string"* %46, i64 0, i32 0, i32 0, i32 0, i32 0, i32 0, i32 0
  %80 = load i8*, i8** %79, align 8
  call void @_ZdlPv(i8* %80) #16
  br label %81

81:                                               ; preds = %73, %78
  call void @llvm.lifetime.end.p0i8(i64 56, i8* nonnull %40) #15
  %82 = icmp eq i8* %49, null
  br i1 %82, label %97, label %83, !prof !4

83:                                               ; preds = %81
  %84 = load i32, i32* %35, align 8
  %85 = add nsw i32 %84, 1
  store i32 %85, i32* %35, align 8
  %86 = getelementptr inbounds %"class.google::protobuf::internal::ParseContext", %"class.google::protobuf::internal::ParseContext"* %0, i64 0, i32 0, i32 8
  %87 = load i32, i32* %86, align 8
  %88 = icmp eq i32 %87, 0
  br i1 %88, label %89, label %97, !prof !2

89:                                               ; preds = %83
  %90 = load i32, i32* %32, align 4
  %91 = add nsw i32 %90, %34
  store i32 %91, i32* %32, align 4
  %92 = load i8*, i8** %19, align 8
  %93 = icmp slt i32 %91, 0
  %94 = select i1 %93, i32 %91, i32 0
  %95 = sext i32 %94 to i64
  %96 = getelementptr inbounds i8, i8* %92, i64 %95
  store i8* %96, i8** %31, align 8
  br label %97

97:                                               ; preds = %14, %81, %18, %83, %89
  %98 = phi i8* [ %49, %89 ], [ null, %83 ], [ null, %18 ], [ null, %81 ], [ null, %14 ]
  ret i8* %98
}

; Function Attrs: nounwind ssp uwtable
define linkonce_odr hidden i8* @_ZN6google8protobuf8internal12ParseContext12ParseMessageINS1_12MapFieldLiteIN13assist_ranker88TranslateRankerModel_TranslateLogisticRegressionModel_TargetLanguageWeightEntry_DoNotUseENSt3__112basic_stringIcNS7_11char_traitsIcEENS7_9allocatorIcEEEEfLNS1_14WireFormatLite9FieldTypeE9ELSF_2EEEEEPKcPT_SI_(%"class.google::protobuf::internal::ParseContext"*, %"class.google::protobuf::internal::MapFieldLite.24"*, i8*) local_unnamed_addr #0 comdat align 2 {
  %4 = alloca %"class.google::protobuf::internal::MapEntryImpl<assist_ranker::TranslateRankerModel_TranslateLogisticRegressionModel_TargetLanguageWeightEntry_DoNotUse, google::protobuf::MessageLite, std::__1::basic_string<char, std::__1::char_traits<char>, std::__1::allocator<char> >, float, google::protobuf::internal::WireFormatLite::TYPE_STRING, google::protobuf::internal::WireFormatLite::TYPE_FLOAT>::Parser", align 8
  %5 = load i8, i8* %2, align 1
  %6 = zext i8 %5 to i32
  %7 = icmp sgt i8 %5, -1
  br i1 %7, label %8, label %10

8:                                                ; preds = %3
  %9 = getelementptr inbounds i8, i8* %2, i64 1
  br label %14

10:                                               ; preds = %3
  %11 = tail call { i8*, i32 } @_ZN6google8protobuf8internal16ReadSizeFallbackEPKcj(i8* %2, i32 %6) #15
  %12 = extractvalue { i8*, i32 } %11, 0
  %13 = extractvalue { i8*, i32 } %11, 1
  br label %14

14:                                               ; preds = %8, %10
  %15 = phi i8* [ %12, %10 ], [ %9, %8 ]
  %16 = phi i32 [ %13, %10 ], [ %6, %8 ]
  %17 = icmp eq i8* %15, null
  br i1 %17, label %97, label %18

18:                                               ; preds = %14
  %19 = getelementptr inbounds %"class.google::protobuf::internal::ParseContext", %"class.google::protobuf::internal::ParseContext"* %0, i64 0, i32 0, i32 1
  %20 = bitcast i8** %19 to i64*
  %21 = load i64, i64* %20, align 8
  %22 = ptrtoint i8* %15 to i64
  %23 = sub i64 %22, %21
  %24 = trunc i64 %23 to i32
  %25 = add nsw i32 %16, %24
  %26 = inttoptr i64 %21 to i8*
  %27 = icmp slt i32 %25, 0
  %28 = select i1 %27, i32 %25, i32 0
  %29 = sext i32 %28 to i64
  %30 = getelementptr inbounds i8, i8* %26, i64 %29
  %31 = getelementptr inbounds %"class.google::protobuf::internal::ParseContext", %"class.google::protobuf::internal::ParseContext"* %0, i64 0, i32 0, i32 0
  store i8* %30, i8** %31, align 8
  %32 = getelementptr inbounds %"class.google::protobuf::internal::ParseContext", %"class.google::protobuf::internal::ParseContext"* %0, i64 0, i32 0, i32 4
  %33 = load i32, i32* %32, align 4
  store i32 %25, i32* %32, align 4
  %34 = sub nsw i32 %33, %25
  %35 = getelementptr inbounds %"class.google::protobuf::internal::ParseContext", %"class.google::protobuf::internal::ParseContext"* %0, i64 0, i32 1
  %36 = load i32, i32* %35, align 8
  %37 = add nsw i32 %36, -1
  store i32 %37, i32* %35, align 8
  %38 = icmp slt i32 %36, 1
  br i1 %38, label %97, label %39

39:                                               ; preds = %18
  %40 = bitcast %"class.google::protobuf::internal::MapEntryImpl<assist_ranker::TranslateRankerModel_TranslateLogisticRegressionModel_TargetLanguageWeightEntry_DoNotUse, google::protobuf::MessageLite, std::__1::basic_string<char, std::__1::char_traits<char>, std::__1::allocator<char> >, float, google::protobuf::internal::WireFormatLite::TYPE_STRING, google::protobuf::internal::WireFormatLite::TYPE_FLOAT>::Parser"* %4 to i8*
  call void @llvm.lifetime.start.p0i8(i64 56, i8* nonnull %40) #15
  %41 = getelementptr inbounds %"class.google::protobuf::internal::MapEntryImpl<assist_ranker::TranslateRankerModel_TranslateLogisticRegressionModel_TargetLanguageWeightEntry_DoNotUse, google::protobuf::MessageLite, std::__1::basic_string<char, std::__1::char_traits<char>, std::__1::allocator<char> >, float, google::protobuf::internal::WireFormatLite::TYPE_STRING, google::protobuf::internal::WireFormatLite::TYPE_FLOAT>::Parser", %"class.google::protobuf::internal::MapEntryImpl<assist_ranker::TranslateRankerModel_TranslateLogisticRegressionModel_TargetLanguageWeightEntry_DoNotUse, google::protobuf::MessageLite, std::__1::basic_string<char, std::__1::char_traits<char>, std::__1::allocator<char> >, float, google::protobuf::internal::WireFormatLite::TYPE_STRING, google::protobuf::internal::WireFormatLite::TYPE_FLOAT>::Parser"* %4, i64 0, i32 3
  %42 = bitcast float** %41 to i64*
  store i64 -6148914691236517206, i64* %42, align 8
  %43 = getelementptr inbounds %"class.google::protobuf::internal::MapEntryImpl<assist_ranker::TranslateRankerModel_TranslateLogisticRegressionModel_TargetLanguageWeightEntry_DoNotUse, google::protobuf::MessageLite, std::__1::basic_string<char, std::__1::char_traits<char>, std::__1::allocator<char> >, float, google::protobuf::internal::WireFormatLite::TYPE_STRING, google::protobuf::internal::WireFormatLite::TYPE_FLOAT>::Parser", %"class.google::protobuf::internal::MapEntryImpl<assist_ranker::TranslateRankerModel_TranslateLogisticRegressionModel_TargetLanguageWeightEntry_DoNotUse, google::protobuf::MessageLite, std::__1::basic_string<char, std::__1::char_traits<char>, std::__1::allocator<char> >, float, google::protobuf::internal::WireFormatLite::TYPE_STRING, google::protobuf::internal::WireFormatLite::TYPE_FLOAT>::Parser"* %4, i64 0, i32 0
  store %"class.google::protobuf::internal::MapFieldLite.24"* %1, %"class.google::protobuf::internal::MapFieldLite.24"** %43, align 8
  %44 = getelementptr inbounds %"class.google::protobuf::internal::MapEntryImpl<assist_ranker::TranslateRankerModel_TranslateLogisticRegressionModel_TargetLanguageWeightEntry_DoNotUse, google::protobuf::MessageLite, std::__1::basic_string<char, std::__1::char_traits<char>, std::__1::allocator<char> >, float, google::protobuf::internal::WireFormatLite::TYPE_STRING, google::protobuf::internal::WireFormatLite::TYPE_FLOAT>::Parser", %"class.google::protobuf::internal::MapEntryImpl<assist_ranker::TranslateRankerModel_TranslateLogisticRegressionModel_TargetLanguageWeightEntry_DoNotUse, google::protobuf::MessageLite, std::__1::basic_string<char, std::__1::char_traits<char>, std::__1::allocator<char> >, float, google::protobuf::internal::WireFormatLite::TYPE_STRING, google::protobuf::internal::WireFormatLite::TYPE_FLOAT>::Parser"* %4, i64 0, i32 1
  %45 = getelementptr inbounds %"class.google::protobuf::internal::MapFieldLite.24", %"class.google::protobuf::internal::MapFieldLite.24"* %1, i64 0, i32 0
  store %"class.google::protobuf::Map"* %45, %"class.google::protobuf::Map"** %44, align 8
  %46 = getelementptr inbounds %"class.google::protobuf::internal::MapEntryImpl<assist_ranker::TranslateRankerModel_TranslateLogisticRegressionModel_TargetLanguageWeightEntry_DoNotUse, google::protobuf::MessageLite, std::__1::basic_string<char, std::__1::char_traits<char>, std::__1::allocator<char> >, float, google::protobuf::internal::WireFormatLite::TYPE_STRING, google::protobuf::internal::WireFormatLite::TYPE_FLOAT>::Parser", %"class.google::protobuf::internal::MapEntryImpl<assist_ranker::TranslateRankerModel_TranslateLogisticRegressionModel_TargetLanguageWeightEntry_DoNotUse, google::protobuf::MessageLite, std::__1::basic_string<char, std::__1::char_traits<char>, std::__1::allocator<char> >, float, google::protobuf::internal::WireFormatLite::TYPE_STRING, google::protobuf::internal::WireFormatLite::TYPE_FLOAT>::Parser"* %4, i64 0, i32 2
  %47 = bitcast %"class.std::__1::basic_string"* %46 to i8*
  call void @llvm.memset.p0i8.i64(i8* align 8 %47, i8 0, i64 24, i1 false) #15
  %48 = getelementptr inbounds %"class.google::protobuf::internal::MapEntryImpl<assist_ranker::TranslateRankerModel_TranslateLogisticRegressionModel_TargetLanguageWeightEntry_DoNotUse, google::protobuf::MessageLite, std::__1::basic_string<char, std::__1::char_traits<char>, std::__1::allocator<char> >, float, google::protobuf::internal::WireFormatLite::TYPE_STRING, google::protobuf::internal::WireFormatLite::TYPE_FLOAT>::Parser", %"class.google::protobuf::internal::MapEntryImpl<assist_ranker::TranslateRankerModel_TranslateLogisticRegressionModel_TargetLanguageWeightEntry_DoNotUse, google::protobuf::MessageLite, std::__1::basic_string<char, std::__1::char_traits<char>, std::__1::allocator<char> >, float, google::protobuf::internal::WireFormatLite::TYPE_STRING, google::protobuf::internal::WireFormatLite::TYPE_FLOAT>::Parser"* %4, i64 0, i32 4
  store %"class.google::protobuf::internal::MapEntryImpl.19"* null, %"class.google::protobuf::internal::MapEntryImpl.19"** %48, align 8
  %49 = call i8* @_ZN6google8protobuf8internal12MapEntryImplIN13assist_ranker88TranslateRankerModel_TranslateLogisticRegressionModel_TargetLanguageWeightEntry_DoNotUseENS0_11MessageLiteENSt3__112basic_stringIcNS6_11char_traitsIcEENS6_9allocatorIcEEEEfLNS1_14WireFormatLite9FieldTypeE9ELSE_2EE6ParserINS1_12MapFieldLiteIS4_SC_fLSE_9ELSE_2EEENS0_3MapISC_fEEE14_InternalParseEPKcPNS1_12ParseContextE(%"class.google::protobuf::internal::MapEntryImpl<assist_ranker::TranslateRankerModel_TranslateLogisticRegressionModel_TargetLanguageWeightEntry_DoNotUse, google::protobuf::MessageLite, std::__1::basic_string<char, std::__1::char_traits<char>, std::__1::allocator<char> >, float, google::protobuf::internal::WireFormatLite::TYPE_STRING, google::protobuf::internal::WireFormatLite::TYPE_FLOAT>::Parser"* nonnull %4, i8* nonnull %15, %"class.google::protobuf::internal::ParseContext"* %0) #15
  %50 = load %"class.google::protobuf::internal::MapEntryImpl.19"*, %"class.google::protobuf::internal::MapEntryImpl.19"** %48, align 8
  %51 = icmp eq %"class.google::protobuf::internal::MapEntryImpl.19"* %50, null
  br i1 %51, label %73, label %52

52:                                               ; preds = %39
  %53 = getelementptr inbounds %"class.google::protobuf::internal::MapEntryImpl.19", %"class.google::protobuf::internal::MapEntryImpl.19"* %50, i64 0, i32 0, i32 1
  %54 = bitcast %"class.google::protobuf::internal::InternalMetadata"* %53 to i64*
  %55 = load i64, i64* %54, align 8
  %56 = and i64 %55, 1
  %57 = icmp eq i64 %56, 0
  %58 = and i64 %55, -2
  br i1 %57, label %63, label %59, !prof !2

59:                                               ; preds = %52
  %60 = inttoptr i64 %58 to %"struct.google::protobuf::internal::InternalMetadata::ContainerBase"*
  %61 = getelementptr inbounds %"struct.google::protobuf::internal::InternalMetadata::ContainerBase", %"struct.google::protobuf::internal::InternalMetadata::ContainerBase"* %60, i64 0, i32 0
  %62 = load %"class.google::protobuf::Arena"*, %"class.google::protobuf::Arena"** %61, align 8
  br label %65

63:                                               ; preds = %52
  %64 = inttoptr i64 %58 to %"class.google::protobuf::Arena"*
  br label %65

65:                                               ; preds = %63, %59
  %66 = phi %"class.google::protobuf::Arena"* [ %62, %59 ], [ %64, %63 ]
  %67 = icmp eq %"class.google::protobuf::Arena"* %66, null
  br i1 %67, label %68, label %73

68:                                               ; preds = %65
  %69 = bitcast %"class.google::protobuf::internal::MapEntryImpl.19"* %50 to void (%"class.google::protobuf::internal::MapEntryImpl.19"*)***
  %70 = load void (%"class.google::protobuf::internal::MapEntryImpl.19"*)**, void (%"class.google::protobuf::internal::MapEntryImpl.19"*)*** %69, align 8
  %71 = getelementptr inbounds void (%"class.google::protobuf::internal::MapEntryImpl.19"*)*, void (%"class.google::protobuf::internal::MapEntryImpl.19"*)** %70, i64 1
  %72 = load void (%"class.google::protobuf::internal::MapEntryImpl.19"*)*, void (%"class.google::protobuf::internal::MapEntryImpl.19"*)** %71, align 8
  call void %72(%"class.google::protobuf::internal::MapEntryImpl.19"* nonnull %50) #15
  br label %73

73:                                               ; preds = %68, %65, %39
  %74 = bitcast %"class.std::__1::basic_string"* %46 to %"struct.std::__1::basic_string<char, std::__1::char_traits<char>, std::__1::allocator<char> >::__short"*
  %75 = getelementptr inbounds %"struct.std::__1::basic_string<char, std::__1::char_traits<char>, std::__1::allocator<char> >::__short", %"struct.std::__1::basic_string<char, std::__1::char_traits<char>, std::__1::allocator<char> >::__short"* %74, i64 0, i32 1, i32 0
  %76 = load i8, i8* %75, align 1
  %77 = icmp slt i8 %76, 0
  br i1 %77, label %78, label %81

78:                                               ; preds = %73
  %79 = getelementptr inbounds %"class.std::__1::basic_string", %"class.std::__1::basic_string"* %46, i64 0, i32 0, i32 0, i32 0, i32 0, i32 0, i32 0
  %80 = load i8*, i8** %79, align 8
  call void @_ZdlPv(i8* %80) #16
  br label %81

81:                                               ; preds = %73, %78
  call void @llvm.lifetime.end.p0i8(i64 56, i8* nonnull %40) #15
  %82 = icmp eq i8* %49, null
  br i1 %82, label %97, label %83, !prof !4

83:                                               ; preds = %81
  %84 = load i32, i32* %35, align 8
  %85 = add nsw i32 %84, 1
  store i32 %85, i32* %35, align 8
  %86 = getelementptr inbounds %"class.google::protobuf::internal::ParseContext", %"class.google::protobuf::internal::ParseContext"* %0, i64 0, i32 0, i32 8
  %87 = load i32, i32* %86, align 8
  %88 = icmp eq i32 %87, 0
  br i1 %88, label %89, label %97, !prof !2

89:                                               ; preds = %83
  %90 = load i32, i32* %32, align 4
  %91 = add nsw i32 %90, %34
  store i32 %91, i32* %32, align 4
  %92 = load i8*, i8** %19, align 8
  %93 = icmp slt i32 %91, 0
  %94 = select i1 %93, i32 %91, i32 0
  %95 = sext i32 %94 to i64
  %96 = getelementptr inbounds i8, i8* %92, i64 %95
  store i8* %96, i8** %31, align 8
  br label %97

97:                                               ; preds = %14, %81, %18, %83, %89
  %98 = phi i8* [ %49, %89 ], [ null, %83 ], [ null, %18 ], [ null, %81 ], [ null, %14 ]
  ret i8* %98
}

; Function Attrs: nounwind ssp uwtable
define linkonce_odr hidden i8* @_ZN6google8protobuf8internal12ParseContext12ParseMessageINS1_12MapFieldLiteIN13assist_ranker81TranslateRankerModel_TranslateLogisticRegressionModel_CountryWeightEntry_DoNotUseENSt3__112basic_stringIcNS7_11char_traitsIcEENS7_9allocatorIcEEEEfLNS1_14WireFormatLite9FieldTypeE9ELSF_2EEEEEPKcPT_SI_(%"class.google::protobuf::internal::ParseContext"*, %"class.google::protobuf::internal::MapFieldLite.25"*, i8*) local_unnamed_addr #0 comdat align 2 {
  %4 = alloca %"class.google::protobuf::internal::MapEntryImpl<assist_ranker::TranslateRankerModel_TranslateLogisticRegressionModel_CountryWeightEntry_DoNotUse, google::protobuf::MessageLite, std::__1::basic_string<char, std::__1::char_traits<char>, std::__1::allocator<char> >, float, google::protobuf::internal::WireFormatLite::TYPE_STRING, google::protobuf::internal::WireFormatLite::TYPE_FLOAT>::Parser", align 8
  %5 = load i8, i8* %2, align 1
  %6 = zext i8 %5 to i32
  %7 = icmp sgt i8 %5, -1
  br i1 %7, label %8, label %10

8:                                                ; preds = %3
  %9 = getelementptr inbounds i8, i8* %2, i64 1
  br label %14

10:                                               ; preds = %3
  %11 = tail call { i8*, i32 } @_ZN6google8protobuf8internal16ReadSizeFallbackEPKcj(i8* %2, i32 %6) #15
  %12 = extractvalue { i8*, i32 } %11, 0
  %13 = extractvalue { i8*, i32 } %11, 1
  br label %14

14:                                               ; preds = %8, %10
  %15 = phi i8* [ %12, %10 ], [ %9, %8 ]
  %16 = phi i32 [ %13, %10 ], [ %6, %8 ]
  %17 = icmp eq i8* %15, null
  br i1 %17, label %97, label %18

18:                                               ; preds = %14
  %19 = getelementptr inbounds %"class.google::protobuf::internal::ParseContext", %"class.google::protobuf::internal::ParseContext"* %0, i64 0, i32 0, i32 1
  %20 = bitcast i8** %19 to i64*
  %21 = load i64, i64* %20, align 8
  %22 = ptrtoint i8* %15 to i64
  %23 = sub i64 %22, %21
  %24 = trunc i64 %23 to i32
  %25 = add nsw i32 %16, %24
  %26 = inttoptr i64 %21 to i8*
  %27 = icmp slt i32 %25, 0
  %28 = select i1 %27, i32 %25, i32 0
  %29 = sext i32 %28 to i64
  %30 = getelementptr inbounds i8, i8* %26, i64 %29
  %31 = getelementptr inbounds %"class.google::protobuf::internal::ParseContext", %"class.google::protobuf::internal::ParseContext"* %0, i64 0, i32 0, i32 0
  store i8* %30, i8** %31, align 8
  %32 = getelementptr inbounds %"class.google::protobuf::internal::ParseContext", %"class.google::protobuf::internal::ParseContext"* %0, i64 0, i32 0, i32 4
  %33 = load i32, i32* %32, align 4
  store i32 %25, i32* %32, align 4
  %34 = sub nsw i32 %33, %25
  %35 = getelementptr inbounds %"class.google::protobuf::internal::ParseContext", %"class.google::protobuf::internal::ParseContext"* %0, i64 0, i32 1
  %36 = load i32, i32* %35, align 8
  %37 = add nsw i32 %36, -1
  store i32 %37, i32* %35, align 8
  %38 = icmp slt i32 %36, 1
  br i1 %38, label %97, label %39

39:                                               ; preds = %18
  %40 = bitcast %"class.google::protobuf::internal::MapEntryImpl<assist_ranker::TranslateRankerModel_TranslateLogisticRegressionModel_CountryWeightEntry_DoNotUse, google::protobuf::MessageLite, std::__1::basic_string<char, std::__1::char_traits<char>, std::__1::allocator<char> >, float, google::protobuf::internal::WireFormatLite::TYPE_STRING, google::protobuf::internal::WireFormatLite::TYPE_FLOAT>::Parser"* %4 to i8*
  call void @llvm.lifetime.start.p0i8(i64 56, i8* nonnull %40) #15
  %41 = getelementptr inbounds %"class.google::protobuf::internal::MapEntryImpl<assist_ranker::TranslateRankerModel_TranslateLogisticRegressionModel_CountryWeightEntry_DoNotUse, google::protobuf::MessageLite, std::__1::basic_string<char, std::__1::char_traits<char>, std::__1::allocator<char> >, float, google::protobuf::internal::WireFormatLite::TYPE_STRING, google::protobuf::internal::WireFormatLite::TYPE_FLOAT>::Parser", %"class.google::protobuf::internal::MapEntryImpl<assist_ranker::TranslateRankerModel_TranslateLogisticRegressionModel_CountryWeightEntry_DoNotUse, google::protobuf::MessageLite, std::__1::basic_string<char, std::__1::char_traits<char>, std::__1::allocator<char> >, float, google::protobuf::internal::WireFormatLite::TYPE_STRING, google::protobuf::internal::WireFormatLite::TYPE_FLOAT>::Parser"* %4, i64 0, i32 3
  %42 = bitcast float** %41 to i64*
  store i64 -6148914691236517206, i64* %42, align 8
  %43 = getelementptr inbounds %"class.google::protobuf::internal::MapEntryImpl<assist_ranker::TranslateRankerModel_TranslateLogisticRegressionModel_CountryWeightEntry_DoNotUse, google::protobuf::MessageLite, std::__1::basic_string<char, std::__1::char_traits<char>, std::__1::allocator<char> >, float, google::protobuf::internal::WireFormatLite::TYPE_STRING, google::protobuf::internal::WireFormatLite::TYPE_FLOAT>::Parser", %"class.google::protobuf::internal::MapEntryImpl<assist_ranker::TranslateRankerModel_TranslateLogisticRegressionModel_CountryWeightEntry_DoNotUse, google::protobuf::MessageLite, std::__1::basic_string<char, std::__1::char_traits<char>, std::__1::allocator<char> >, float, google::protobuf::internal::WireFormatLite::TYPE_STRING, google::protobuf::internal::WireFormatLite::TYPE_FLOAT>::Parser"* %4, i64 0, i32 0
  store %"class.google::protobuf::internal::MapFieldLite.25"* %1, %"class.google::protobuf::internal::MapFieldLite.25"** %43, align 8
  %44 = getelementptr inbounds %"class.google::protobuf::internal::MapEntryImpl<assist_ranker::TranslateRankerModel_TranslateLogisticRegressionModel_CountryWeightEntry_DoNotUse, google::protobuf::MessageLite, std::__1::basic_string<char, std::__1::char_traits<char>, std::__1::allocator<char> >, float, google::protobuf::internal::WireFormatLite::TYPE_STRING, google::protobuf::internal::WireFormatLite::TYPE_FLOAT>::Parser", %"class.google::protobuf::internal::MapEntryImpl<assist_ranker::TranslateRankerModel_TranslateLogisticRegressionModel_CountryWeightEntry_DoNotUse, google::protobuf::MessageLite, std::__1::basic_string<char, std::__1::char_traits<char>, std::__1::allocator<char> >, float, google::protobuf::internal::WireFormatLite::TYPE_STRING, google::protobuf::internal::WireFormatLite::TYPE_FLOAT>::Parser"* %4, i64 0, i32 1
  %45 = getelementptr inbounds %"class.google::protobuf::internal::MapFieldLite.25", %"class.google::protobuf::internal::MapFieldLite.25"* %1, i64 0, i32 0
  store %"class.google::protobuf::Map"* %45, %"class.google::protobuf::Map"** %44, align 8
  %46 = getelementptr inbounds %"class.google::protobuf::internal::MapEntryImpl<assist_ranker::TranslateRankerModel_TranslateLogisticRegressionModel_CountryWeightEntry_DoNotUse, google::protobuf::MessageLite, std::__1::basic_string<char, std::__1::char_traits<char>, std::__1::allocator<char> >, float, google::protobuf::internal::WireFormatLite::TYPE_STRING, google::protobuf::internal::WireFormatLite::TYPE_FLOAT>::Parser", %"class.google::protobuf::internal::MapEntryImpl<assist_ranker::TranslateRankerModel_TranslateLogisticRegressionModel_CountryWeightEntry_DoNotUse, google::protobuf::MessageLite, std::__1::basic_string<char, std::__1::char_traits<char>, std::__1::allocator<char> >, float, google::protobuf::internal::WireFormatLite::TYPE_STRING, google::protobuf::internal::WireFormatLite::TYPE_FLOAT>::Parser"* %4, i64 0, i32 2
  %47 = bitcast %"class.std::__1::basic_string"* %46 to i8*
  call void @llvm.memset.p0i8.i64(i8* align 8 %47, i8 0, i64 24, i1 false) #15
  %48 = getelementptr inbounds %"class.google::protobuf::internal::MapEntryImpl<assist_ranker::TranslateRankerModel_TranslateLogisticRegressionModel_CountryWeightEntry_DoNotUse, google::protobuf::MessageLite, std::__1::basic_string<char, std::__1::char_traits<char>, std::__1::allocator<char> >, float, google::protobuf::internal::WireFormatLite::TYPE_STRING, google::protobuf::internal::WireFormatLite::TYPE_FLOAT>::Parser", %"class.google::protobuf::internal::MapEntryImpl<assist_ranker::TranslateRankerModel_TranslateLogisticRegressionModel_CountryWeightEntry_DoNotUse, google::protobuf::MessageLite, std::__1::basic_string<char, std::__1::char_traits<char>, std::__1::allocator<char> >, float, google::protobuf::internal::WireFormatLite::TYPE_STRING, google::protobuf::internal::WireFormatLite::TYPE_FLOAT>::Parser"* %4, i64 0, i32 4
  store %"class.google::protobuf::internal::MapEntryImpl.21"* null, %"class.google::protobuf::internal::MapEntryImpl.21"** %48, align 8
  %49 = call i8* @_ZN6google8protobuf8internal12MapEntryImplIN13assist_ranker81TranslateRankerModel_TranslateLogisticRegressionModel_CountryWeightEntry_DoNotUseENS0_11MessageLiteENSt3__112basic_stringIcNS6_11char_traitsIcEENS6_9allocatorIcEEEEfLNS1_14WireFormatLite9FieldTypeE9ELSE_2EE6ParserINS1_12MapFieldLiteIS4_SC_fLSE_9ELSE_2EEENS0_3MapISC_fEEE14_InternalParseEPKcPNS1_12ParseContextE(%"class.google::protobuf::internal::MapEntryImpl<assist_ranker::TranslateRankerModel_TranslateLogisticRegressionModel_CountryWeightEntry_DoNotUse, google::protobuf::MessageLite, std::__1::basic_string<char, std::__1::char_traits<char>, std::__1::allocator<char> >, float, google::protobuf::internal::WireFormatLite::TYPE_STRING, google::protobuf::internal::WireFormatLite::TYPE_FLOAT>::Parser"* nonnull %4, i8* nonnull %15, %"class.google::protobuf::internal::ParseContext"* %0) #15
  %50 = load %"class.google::protobuf::internal::MapEntryImpl.21"*, %"class.google::protobuf::internal::MapEntryImpl.21"** %48, align 8
  %51 = icmp eq %"class.google::protobuf::internal::MapEntryImpl.21"* %50, null
  br i1 %51, label %73, label %52

52:                                               ; preds = %39
  %53 = getelementptr inbounds %"class.google::protobuf::internal::MapEntryImpl.21", %"class.google::protobuf::internal::MapEntryImpl.21"* %50, i64 0, i32 0, i32 1
  %54 = bitcast %"class.google::protobuf::internal::InternalMetadata"* %53 to i64*
  %55 = load i64, i64* %54, align 8
  %56 = and i64 %55, 1
  %57 = icmp eq i64 %56, 0
  %58 = and i64 %55, -2
  br i1 %57, label %63, label %59, !prof !2

59:                                               ; preds = %52
  %60 = inttoptr i64 %58 to %"struct.google::protobuf::internal::InternalMetadata::ContainerBase"*
  %61 = getelementptr inbounds %"struct.google::protobuf::internal::InternalMetadata::ContainerBase", %"struct.google::protobuf::internal::InternalMetadata::ContainerBase"* %60, i64 0, i32 0
  %62 = load %"class.google::protobuf::Arena"*, %"class.google::protobuf::Arena"** %61, align 8
  br label %65

63:                                               ; preds = %52
  %64 = inttoptr i64 %58 to %"class.google::protobuf::Arena"*
  br label %65

65:                                               ; preds = %63, %59
  %66 = phi %"class.google::protobuf::Arena"* [ %62, %59 ], [ %64, %63 ]
  %67 = icmp eq %"class.google::protobuf::Arena"* %66, null
  br i1 %67, label %68, label %73

68:                                               ; preds = %65
  %69 = bitcast %"class.google::protobuf::internal::MapEntryImpl.21"* %50 to void (%"class.google::protobuf::internal::MapEntryImpl.21"*)***
  %70 = load void (%"class.google::protobuf::internal::MapEntryImpl.21"*)**, void (%"class.google::protobuf::internal::MapEntryImpl.21"*)*** %69, align 8
  %71 = getelementptr inbounds void (%"class.google::protobuf::internal::MapEntryImpl.21"*)*, void (%"class.google::protobuf::internal::MapEntryImpl.21"*)** %70, i64 1
  %72 = load void (%"class.google::protobuf::internal::MapEntryImpl.21"*)*, void (%"class.google::protobuf::internal::MapEntryImpl.21"*)** %71, align 8
  call void %72(%"class.google::protobuf::internal::MapEntryImpl.21"* nonnull %50) #15
  br label %73

73:                                               ; preds = %68, %65, %39
  %74 = bitcast %"class.std::__1::basic_string"* %46 to %"struct.std::__1::basic_string<char, std::__1::char_traits<char>, std::__1::allocator<char> >::__short"*
  %75 = getelementptr inbounds %"struct.std::__1::basic_string<char, std::__1::char_traits<char>, std::__1::allocator<char> >::__short", %"struct.std::__1::basic_string<char, std::__1::char_traits<char>, std::__1::allocator<char> >::__short"* %74, i64 0, i32 1, i32 0
  %76 = load i8, i8* %75, align 1
  %77 = icmp slt i8 %76, 0
  br i1 %77, label %78, label %81

78:                                               ; preds = %73
  %79 = getelementptr inbounds %"class.std::__1::basic_string", %"class.std::__1::basic_string"* %46, i64 0, i32 0, i32 0, i32 0, i32 0, i32 0, i32 0
  %80 = load i8*, i8** %79, align 8
  call void @_ZdlPv(i8* %80) #16
  br label %81

81:                                               ; preds = %73, %78
  call void @llvm.lifetime.end.p0i8(i64 56, i8* nonnull %40) #15
  %82 = icmp eq i8* %49, null
  br i1 %82, label %97, label %83, !prof !4

83:                                               ; preds = %81
  %84 = load i32, i32* %35, align 8
  %85 = add nsw i32 %84, 1
  store i32 %85, i32* %35, align 8
  %86 = getelementptr inbounds %"class.google::protobuf::internal::ParseContext", %"class.google::protobuf::internal::ParseContext"* %0, i64 0, i32 0, i32 8
  %87 = load i32, i32* %86, align 8
  %88 = icmp eq i32 %87, 0
  br i1 %88, label %89, label %97, !prof !2

89:                                               ; preds = %83
  %90 = load i32, i32* %32, align 4
  %91 = add nsw i32 %90, %34
  store i32 %91, i32* %32, align 4
  %92 = load i8*, i8** %19, align 8
  %93 = icmp slt i32 %91, 0
  %94 = select i1 %93, i32 %91, i32 0
  %95 = sext i32 %94 to i64
  %96 = getelementptr inbounds i8, i8* %92, i64 %95
  store i8* %96, i8** %31, align 8
  br label %97

97:                                               ; preds = %14, %81, %18, %83, %89
  %98 = phi i8* [ %49, %89 ], [ null, %83 ], [ null, %18 ], [ null, %81 ], [ null, %14 ]
  ret i8* %98
}

; Function Attrs: nounwind ssp uwtable
define linkonce_odr hidden i8* @_ZN6google8protobuf8internal12ParseContext12ParseMessageINS1_12MapFieldLiteIN13assist_ranker80TranslateRankerModel_TranslateLogisticRegressionModel_LocaleWeightEntry_DoNotUseENSt3__112basic_stringIcNS7_11char_traitsIcEENS7_9allocatorIcEEEEfLNS1_14WireFormatLite9FieldTypeE9ELSF_2EEEEEPKcPT_SI_(%"class.google::protobuf::internal::ParseContext"*, %"class.google::protobuf::internal::MapFieldLite.26"*, i8*) local_unnamed_addr #0 comdat align 2 {
  %4 = alloca %"class.google::protobuf::internal::MapEntryImpl<assist_ranker::TranslateRankerModel_TranslateLogisticRegressionModel_LocaleWeightEntry_DoNotUse, google::protobuf::MessageLite, std::__1::basic_string<char, std::__1::char_traits<char>, std::__1::allocator<char> >, float, google::protobuf::internal::WireFormatLite::TYPE_STRING, google::protobuf::internal::WireFormatLite::TYPE_FLOAT>::Parser", align 8
  %5 = load i8, i8* %2, align 1
  %6 = zext i8 %5 to i32
  %7 = icmp sgt i8 %5, -1
  br i1 %7, label %8, label %10

8:                                                ; preds = %3
  %9 = getelementptr inbounds i8, i8* %2, i64 1
  br label %14

10:                                               ; preds = %3
  %11 = tail call { i8*, i32 } @_ZN6google8protobuf8internal16ReadSizeFallbackEPKcj(i8* %2, i32 %6) #15
  %12 = extractvalue { i8*, i32 } %11, 0
  %13 = extractvalue { i8*, i32 } %11, 1
  br label %14

14:                                               ; preds = %8, %10
  %15 = phi i8* [ %12, %10 ], [ %9, %8 ]
  %16 = phi i32 [ %13, %10 ], [ %6, %8 ]
  %17 = icmp eq i8* %15, null
  br i1 %17, label %97, label %18

18:                                               ; preds = %14
  %19 = getelementptr inbounds %"class.google::protobuf::internal::ParseContext", %"class.google::protobuf::internal::ParseContext"* %0, i64 0, i32 0, i32 1
  %20 = bitcast i8** %19 to i64*
  %21 = load i64, i64* %20, align 8
  %22 = ptrtoint i8* %15 to i64
  %23 = sub i64 %22, %21
  %24 = trunc i64 %23 to i32
  %25 = add nsw i32 %16, %24
  %26 = inttoptr i64 %21 to i8*
  %27 = icmp slt i32 %25, 0
  %28 = select i1 %27, i32 %25, i32 0
  %29 = sext i32 %28 to i64
  %30 = getelementptr inbounds i8, i8* %26, i64 %29
  %31 = getelementptr inbounds %"class.google::protobuf::internal::ParseContext", %"class.google::protobuf::internal::ParseContext"* %0, i64 0, i32 0, i32 0
  store i8* %30, i8** %31, align 8
  %32 = getelementptr inbounds %"class.google::protobuf::internal::ParseContext", %"class.google::protobuf::internal::ParseContext"* %0, i64 0, i32 0, i32 4
  %33 = load i32, i32* %32, align 4
  store i32 %25, i32* %32, align 4
  %34 = sub nsw i32 %33, %25
  %35 = getelementptr inbounds %"class.google::protobuf::internal::ParseContext", %"class.google::protobuf::internal::ParseContext"* %0, i64 0, i32 1
  %36 = load i32, i32* %35, align 8
  %37 = add nsw i32 %36, -1
  store i32 %37, i32* %35, align 8
  %38 = icmp slt i32 %36, 1
  br i1 %38, label %97, label %39

39:                                               ; preds = %18
  %40 = bitcast %"class.google::protobuf::internal::MapEntryImpl<assist_ranker::TranslateRankerModel_TranslateLogisticRegressionModel_LocaleWeightEntry_DoNotUse, google::protobuf::MessageLite, std::__1::basic_string<char, std::__1::char_traits<char>, std::__1::allocator<char> >, float, google::protobuf::internal::WireFormatLite::TYPE_STRING, google::protobuf::internal::WireFormatLite::TYPE_FLOAT>::Parser"* %4 to i8*
  call void @llvm.lifetime.start.p0i8(i64 56, i8* nonnull %40) #15
  %41 = getelementptr inbounds %"class.google::protobuf::internal::MapEntryImpl<assist_ranker::TranslateRankerModel_TranslateLogisticRegressionModel_LocaleWeightEntry_DoNotUse, google::protobuf::MessageLite, std::__1::basic_string<char, std::__1::char_traits<char>, std::__1::allocator<char> >, float, google::protobuf::internal::WireFormatLite::TYPE_STRING, google::protobuf::internal::WireFormatLite::TYPE_FLOAT>::Parser", %"class.google::protobuf::internal::MapEntryImpl<assist_ranker::TranslateRankerModel_TranslateLogisticRegressionModel_LocaleWeightEntry_DoNotUse, google::protobuf::MessageLite, std::__1::basic_string<char, std::__1::char_traits<char>, std::__1::allocator<char> >, float, google::protobuf::internal::WireFormatLite::TYPE_STRING, google::protobuf::internal::WireFormatLite::TYPE_FLOAT>::Parser"* %4, i64 0, i32 3
  %42 = bitcast float** %41 to i64*
  store i64 -6148914691236517206, i64* %42, align 8
  %43 = getelementptr inbounds %"class.google::protobuf::internal::MapEntryImpl<assist_ranker::TranslateRankerModel_TranslateLogisticRegressionModel_LocaleWeightEntry_DoNotUse, google::protobuf::MessageLite, std::__1::basic_string<char, std::__1::char_traits<char>, std::__1::allocator<char> >, float, google::protobuf::internal::WireFormatLite::TYPE_STRING, google::protobuf::internal::WireFormatLite::TYPE_FLOAT>::Parser", %"class.google::protobuf::internal::MapEntryImpl<assist_ranker::TranslateRankerModel_TranslateLogisticRegressionModel_LocaleWeightEntry_DoNotUse, google::protobuf::MessageLite, std::__1::basic_string<char, std::__1::char_traits<char>, std::__1::allocator<char> >, float, google::protobuf::internal::WireFormatLite::TYPE_STRING, google::protobuf::internal::WireFormatLite::TYPE_FLOAT>::Parser"* %4, i64 0, i32 0
  store %"class.google::protobuf::internal::MapFieldLite.26"* %1, %"class.google::protobuf::internal::MapFieldLite.26"** %43, align 8
  %44 = getelementptr inbounds %"class.google::protobuf::internal::MapEntryImpl<assist_ranker::TranslateRankerModel_TranslateLogisticRegressionModel_LocaleWeightEntry_DoNotUse, google::protobuf::MessageLite, std::__1::basic_string<char, std::__1::char_traits<char>, std::__1::allocator<char> >, float, google::protobuf::internal::WireFormatLite::TYPE_STRING, google::protobuf::internal::WireFormatLite::TYPE_FLOAT>::Parser", %"class.google::protobuf::internal::MapEntryImpl<assist_ranker::TranslateRankerModel_TranslateLogisticRegressionModel_LocaleWeightEntry_DoNotUse, google::protobuf::MessageLite, std::__1::basic_string<char, std::__1::char_traits<char>, std::__1::allocator<char> >, float, google::protobuf::internal::WireFormatLite::TYPE_STRING, google::protobuf::internal::WireFormatLite::TYPE_FLOAT>::Parser"* %4, i64 0, i32 1
  %45 = getelementptr inbounds %"class.google::protobuf::internal::MapFieldLite.26", %"class.google::protobuf::internal::MapFieldLite.26"* %1, i64 0, i32 0
  store %"class.google::protobuf::Map"* %45, %"class.google::protobuf::Map"** %44, align 8
  %46 = getelementptr inbounds %"class.google::protobuf::internal::MapEntryImpl<assist_ranker::TranslateRankerModel_TranslateLogisticRegressionModel_LocaleWeightEntry_DoNotUse, google::protobuf::MessageLite, std::__1::basic_string<char, std::__1::char_traits<char>, std::__1::allocator<char> >, float, google::protobuf::internal::WireFormatLite::TYPE_STRING, google::protobuf::internal::WireFormatLite::TYPE_FLOAT>::Parser", %"class.google::protobuf::internal::MapEntryImpl<assist_ranker::TranslateRankerModel_TranslateLogisticRegressionModel_LocaleWeightEntry_DoNotUse, google::protobuf::MessageLite, std::__1::basic_string<char, std::__1::char_traits<char>, std::__1::allocator<char> >, float, google::protobuf::internal::WireFormatLite::TYPE_STRING, google::protobuf::internal::WireFormatLite::TYPE_FLOAT>::Parser"* %4, i64 0, i32 2
  %47 = bitcast %"class.std::__1::basic_string"* %46 to i8*
  call void @llvm.memset.p0i8.i64(i8* align 8 %47, i8 0, i64 24, i1 false) #15
  %48 = getelementptr inbounds %"class.google::protobuf::internal::MapEntryImpl<assist_ranker::TranslateRankerModel_TranslateLogisticRegressionModel_LocaleWeightEntry_DoNotUse, google::protobuf::MessageLite, std::__1::basic_string<char, std::__1::char_traits<char>, std::__1::allocator<char> >, float, google::protobuf::internal::WireFormatLite::TYPE_STRING, google::protobuf::internal::WireFormatLite::TYPE_FLOAT>::Parser", %"class.google::protobuf::internal::MapEntryImpl<assist_ranker::TranslateRankerModel_TranslateLogisticRegressionModel_LocaleWeightEntry_DoNotUse, google::protobuf::MessageLite, std::__1::basic_string<char, std::__1::char_traits<char>, std::__1::allocator<char> >, float, google::protobuf::internal::WireFormatLite::TYPE_STRING, google::protobuf::internal::WireFormatLite::TYPE_FLOAT>::Parser"* %4, i64 0, i32 4
  store %"class.google::protobuf::internal::MapEntryImpl.23"* null, %"class.google::protobuf::internal::MapEntryImpl.23"** %48, align 8
  %49 = call i8* @_ZN6google8protobuf8internal12MapEntryImplIN13assist_ranker80TranslateRankerModel_TranslateLogisticRegressionModel_LocaleWeightEntry_DoNotUseENS0_11MessageLiteENSt3__112basic_stringIcNS6_11char_traitsIcEENS6_9allocatorIcEEEEfLNS1_14WireFormatLite9FieldTypeE9ELSE_2EE6ParserINS1_12MapFieldLiteIS4_SC_fLSE_9ELSE_2EEENS0_3MapISC_fEEE14_InternalParseEPKcPNS1_12ParseContextE(%"class.google::protobuf::internal::MapEntryImpl<assist_ranker::TranslateRankerModel_TranslateLogisticRegressionModel_LocaleWeightEntry_DoNotUse, google::protobuf::MessageLite, std::__1::basic_string<char, std::__1::char_traits<char>, std::__1::allocator<char> >, float, google::protobuf::internal::WireFormatLite::TYPE_STRING, google::protobuf::internal::WireFormatLite::TYPE_FLOAT>::Parser"* nonnull %4, i8* nonnull %15, %"class.google::protobuf::internal::ParseContext"* %0) #15
  %50 = load %"class.google::protobuf::internal::MapEntryImpl.23"*, %"class.google::protobuf::internal::MapEntryImpl.23"** %48, align 8
  %51 = icmp eq %"class.google::protobuf::internal::MapEntryImpl.23"* %50, null
  br i1 %51, label %73, label %52

52:                                               ; preds = %39
  %53 = getelementptr inbounds %"class.google::protobuf::internal::MapEntryImpl.23", %"class.google::protobuf::internal::MapEntryImpl.23"* %50, i64 0, i32 0, i32 1
  %54 = bitcast %"class.google::protobuf::internal::InternalMetadata"* %53 to i64*
  %55 = load i64, i64* %54, align 8
  %56 = and i64 %55, 1
  %57 = icmp eq i64 %56, 0
  %58 = and i64 %55, -2
  br i1 %57, label %63, label %59, !prof !2

59:                                               ; preds = %52
  %60 = inttoptr i64 %58 to %"struct.google::protobuf::internal::InternalMetadata::ContainerBase"*
  %61 = getelementptr inbounds %"struct.google::protobuf::internal::InternalMetadata::ContainerBase", %"struct.google::protobuf::internal::InternalMetadata::ContainerBase"* %60, i64 0, i32 0
  %62 = load %"class.google::protobuf::Arena"*, %"class.google::protobuf::Arena"** %61, align 8
  br label %65

63:                                               ; preds = %52
  %64 = inttoptr i64 %58 to %"class.google::protobuf::Arena"*
  br label %65

65:                                               ; preds = %63, %59
  %66 = phi %"class.google::protobuf::Arena"* [ %62, %59 ], [ %64, %63 ]
  %67 = icmp eq %"class.google::protobuf::Arena"* %66, null
  br i1 %67, label %68, label %73

68:                                               ; preds = %65
  %69 = bitcast %"class.google::protobuf::internal::MapEntryImpl.23"* %50 to void (%"class.google::protobuf::internal::MapEntryImpl.23"*)***
  %70 = load void (%"class.google::protobuf::internal::MapEntryImpl.23"*)**, void (%"class.google::protobuf::internal::MapEntryImpl.23"*)*** %69, align 8
  %71 = getelementptr inbounds void (%"class.google::protobuf::internal::MapEntryImpl.23"*)*, void (%"class.google::protobuf::internal::MapEntryImpl.23"*)** %70, i64 1
  %72 = load void (%"class.google::protobuf::internal::MapEntryImpl.23"*)*, void (%"class.google::protobuf::internal::MapEntryImpl.23"*)** %71, align 8
  call void %72(%"class.google::protobuf::internal::MapEntryImpl.23"* nonnull %50) #15
  br label %73

73:                                               ; preds = %68, %65, %39
  %74 = bitcast %"class.std::__1::basic_string"* %46 to %"struct.std::__1::basic_string<char, std::__1::char_traits<char>, std::__1::allocator<char> >::__short"*
  %75 = getelementptr inbounds %"struct.std::__1::basic_string<char, std::__1::char_traits<char>, std::__1::allocator<char> >::__short", %"struct.std::__1::basic_string<char, std::__1::char_traits<char>, std::__1::allocator<char> >::__short"* %74, i64 0, i32 1, i32 0
  %76 = load i8, i8* %75, align 1
  %77 = icmp slt i8 %76, 0
  br i1 %77, label %78, label %81

78:                                               ; preds = %73
  %79 = getelementptr inbounds %"class.std::__1::basic_string", %"class.std::__1::basic_string"* %46, i64 0, i32 0, i32 0, i32 0, i32 0, i32 0, i32 0
  %80 = load i8*, i8** %79, align 8
  call void @_ZdlPv(i8* %80) #16
  br label %81

81:                                               ; preds = %73, %78
  call void @llvm.lifetime.end.p0i8(i64 56, i8* nonnull %40) #15
  %82 = icmp eq i8* %49, null
  br i1 %82, label %97, label %83, !prof !4

83:                                               ; preds = %81
  %84 = load i32, i32* %35, align 8
  %85 = add nsw i32 %84, 1
  store i32 %85, i32* %35, align 8
  %86 = getelementptr inbounds %"class.google::protobuf::internal::ParseContext", %"class.google::protobuf::internal::ParseContext"* %0, i64 0, i32 0, i32 8
  %87 = load i32, i32* %86, align 8
  %88 = icmp eq i32 %87, 0
  br i1 %88, label %89, label %97, !prof !2

89:                                               ; preds = %83
  %90 = load i32, i32* %32, align 4
  %91 = add nsw i32 %90, %34
  store i32 %91, i32* %32, align 4
  %92 = load i8*, i8** %19, align 8
  %93 = icmp slt i32 %91, 0
  %94 = select i1 %93, i32 %91, i32 0
  %95 = sext i32 %94 to i64
  %96 = getelementptr inbounds i8, i8* %92, i64 %95
  store i8* %96, i8** %31, align 8
  br label %97

97:                                               ; preds = %14, %81, %18, %83, %89
  %98 = phi i8* [ %49, %89 ], [ null, %83 ], [ null, %18 ], [ null, %81 ], [ null, %14 ]
  ret i8* %98
}

declare i8* @_ZN6google8protobuf8internal17UnknownFieldParseEjPNSt3__112basic_stringIcNS2_11char_traitsIcEENS2_9allocatorIcEEEEPKcPNS1_12ParseContextE(i32, %"class.std::__1::basic_string"*, i8*, %"class.google::protobuf::internal::ParseContext"*) local_unnamed_addr #6

; Function Attrs: nounwind ssp uwtable
define hidden i8* @_ZNK13assist_ranker53TranslateRankerModel_TranslateLogisticRegressionModel18_InternalSerializeEPhPN6google8protobuf2io19EpsCopyOutputStreamE(%"class.assist_ranker::TranslateRankerModel_TranslateLogisticRegressionModel"*, i8*, %"class.google::protobuf::io::EpsCopyOutputStream"*) unnamed_addr #0 align 2 {
  %4 = alloca %"struct.google::protobuf::internal::CompareByDerefFirst", align 1
  %5 = alloca %"struct.google::protobuf::internal::CompareByDerefFirst", align 1
  %6 = alloca %"struct.google::protobuf::internal::CompareByDerefFirst", align 1
  %7 = alloca %"struct.google::protobuf::internal::CompareByDerefFirst", align 1
  %8 = alloca %"class.google::protobuf::Map<std::__1::basic_string<char, std::__1::char_traits<char>, std::__1::allocator<char> >, float>::const_iterator", align 8
  %9 = alloca %"class.google::protobuf::Map<std::__1::basic_string<char, std::__1::char_traits<char>, std::__1::allocator<char> >, float>::const_iterator", align 8
  %10 = alloca %"class.google::protobuf::Map<std::__1::basic_string<char, std::__1::char_traits<char>, std::__1::allocator<char> >, float>::const_iterator", align 8
  %11 = alloca %"class.google::protobuf::Map<std::__1::basic_string<char, std::__1::char_traits<char>, std::__1::allocator<char> >, float>::const_iterator", align 8
  %12 = alloca %"class.google::protobuf::Map<std::__1::basic_string<char, std::__1::char_traits<char>, std::__1::allocator<char> >, float>::const_iterator", align 8
  %13 = alloca %"class.google::protobuf::Map<std::__1::basic_string<char, std::__1::char_traits<char>, std::__1::allocator<char> >, float>::const_iterator", align 8
  %14 = alloca %"class.google::protobuf::Map<std::__1::basic_string<char, std::__1::char_traits<char>, std::__1::allocator<char> >, float>::const_iterator", align 8
  %15 = alloca %"class.google::protobuf::Map<std::__1::basic_string<char, std::__1::char_traits<char>, std::__1::allocator<char> >, float>::const_iterator", align 8
  %16 = getelementptr inbounds %"class.assist_ranker::TranslateRankerModel_TranslateLogisticRegressionModel", %"class.assist_ranker::TranslateRankerModel_TranslateLogisticRegressionModel"* %0, i64 0, i32 1, i32 0, i64 0
  %17 = load i32, i32* %16, align 4
  %18 = and i32 %17, 1
  %19 = icmp eq i32 %18, 0
  br i1 %19, label %34, label %20

20:                                               ; preds = %3
  %21 = getelementptr inbounds %"class.google::protobuf::io::EpsCopyOutputStream", %"class.google::protobuf::io::EpsCopyOutputStream"* %2, i64 0, i32 0
  %22 = load i8*, i8** %21, align 8
  %23 = icmp ugt i8* %22, %1
  br i1 %23, label %26, label %24, !prof !2

24:                                               ; preds = %20
  %25 = tail call i8* @_ZN6google8protobuf2io19EpsCopyOutputStream19EnsureSpaceFallbackEPh(%"class.google::protobuf::io::EpsCopyOutputStream"* %2, i8* %1) #15
  br label %26

26:                                               ; preds = %20, %24
  %27 = phi i8* [ %25, %24 ], [ %1, %20 ]
  %28 = getelementptr inbounds %"class.assist_ranker::TranslateRankerModel_TranslateLogisticRegressionModel", %"class.assist_ranker::TranslateRankerModel_TranslateLogisticRegressionModel"* %0, i64 0, i32 7
  %29 = bitcast float* %28 to i32*
  %30 = load i32, i32* %29, align 8
  store i8 13, i8* %27, align 1
  %31 = getelementptr inbounds i8, i8* %27, i64 1
  %32 = bitcast i8* %31 to i32*
  store i32 %30, i32* %32, align 1
  %33 = getelementptr inbounds i8, i8* %27, i64 5
  br label %34

34:                                               ; preds = %3, %26
  %35 = phi i8* [ %33, %26 ], [ %1, %3 ]
  %36 = and i32 %17, 2
  %37 = icmp eq i32 %36, 0
  br i1 %37, label %52, label %38

38:                                               ; preds = %34
  %39 = getelementptr inbounds %"class.google::protobuf::io::EpsCopyOutputStream", %"class.google::protobuf::io::EpsCopyOutputStream"* %2, i64 0, i32 0
  %40 = load i8*, i8** %39, align 8
  %41 = icmp ugt i8* %40, %35
  br i1 %41, label %44, label %42, !prof !2

42:                                               ; preds = %38
  %43 = tail call i8* @_ZN6google8protobuf2io19EpsCopyOutputStream19EnsureSpaceFallbackEPh(%"class.google::protobuf::io::EpsCopyOutputStream"* %2, i8* %35) #15
  br label %44

44:                                               ; preds = %38, %42
  %45 = phi i8* [ %43, %42 ], [ %35, %38 ]
  %46 = getelementptr inbounds %"class.assist_ranker::TranslateRankerModel_TranslateLogisticRegressionModel", %"class.assist_ranker::TranslateRankerModel_TranslateLogisticRegressionModel"* %0, i64 0, i32 8
  %47 = bitcast float* %46 to i32*
  %48 = load i32, i32* %47, align 4
  store i8 21, i8* %45, align 1
  %49 = getelementptr inbounds i8, i8* %45, i64 1
  %50 = bitcast i8* %49 to i32*
  store i32 %48, i32* %50, align 1
  %51 = getelementptr inbounds i8, i8* %45, i64 5
  br label %52

52:                                               ; preds = %34, %44
  %53 = phi i8* [ %51, %44 ], [ %35, %34 ]
  %54 = and i32 %17, 4
  %55 = icmp eq i32 %54, 0
  br i1 %55, label %70, label %56

56:                                               ; preds = %52
  %57 = getelementptr inbounds %"class.google::protobuf::io::EpsCopyOutputStream", %"class.google::protobuf::io::EpsCopyOutputStream"* %2, i64 0, i32 0
  %58 = load i8*, i8** %57, align 8
  %59 = icmp ugt i8* %58, %53
  br i1 %59, label %62, label %60, !prof !2

60:                                               ; preds = %56
  %61 = tail call i8* @_ZN6google8protobuf2io19EpsCopyOutputStream19EnsureSpaceFallbackEPh(%"class.google::protobuf::io::EpsCopyOutputStream"* %2, i8* %53) #15
  br label %62

62:                                               ; preds = %56, %60
  %63 = phi i8* [ %61, %60 ], [ %53, %56 ]
  %64 = getelementptr inbounds %"class.assist_ranker::TranslateRankerModel_TranslateLogisticRegressionModel", %"class.assist_ranker::TranslateRankerModel_TranslateLogisticRegressionModel"* %0, i64 0, i32 9
  %65 = bitcast float* %64 to i32*
  %66 = load i32, i32* %65, align 8
  store i8 29, i8* %63, align 1
  %67 = getelementptr inbounds i8, i8* %63, i64 1
  %68 = bitcast i8* %67 to i32*
  store i32 %66, i32* %68, align 1
  %69 = getelementptr inbounds i8, i8* %63, i64 5
  br label %70

70:                                               ; preds = %52, %62
  %71 = phi i8* [ %69, %62 ], [ %53, %52 ]
  %72 = and i32 %17, 8
  %73 = icmp eq i32 %72, 0
  br i1 %73, label %88, label %74

74:                                               ; preds = %70
  %75 = getelementptr inbounds %"class.google::protobuf::io::EpsCopyOutputStream", %"class.google::protobuf::io::EpsCopyOutputStream"* %2, i64 0, i32 0
  %76 = load i8*, i8** %75, align 8
  %77 = icmp ugt i8* %76, %71
  br i1 %77, label %80, label %78, !prof !2

78:                                               ; preds = %74
  %79 = tail call i8* @_ZN6google8protobuf2io19EpsCopyOutputStream19EnsureSpaceFallbackEPh(%"class.google::protobuf::io::EpsCopyOutputStream"* %2, i8* %71) #15
  br label %80

80:                                               ; preds = %74, %78
  %81 = phi i8* [ %79, %78 ], [ %71, %74 ]
  %82 = getelementptr inbounds %"class.assist_ranker::TranslateRankerModel_TranslateLogisticRegressionModel", %"class.assist_ranker::TranslateRankerModel_TranslateLogisticRegressionModel"* %0, i64 0, i32 10
  %83 = bitcast float* %82 to i32*
  %84 = load i32, i32* %83, align 4
  store i8 37, i8* %81, align 1
  %85 = getelementptr inbounds i8, i8* %81, i64 1
  %86 = bitcast i8* %85 to i32*
  store i32 %84, i32* %86, align 1
  %87 = getelementptr inbounds i8, i8* %81, i64 5
  br label %88

88:                                               ; preds = %70, %80
  %89 = phi i8* [ %87, %80 ], [ %71, %70 ]
  %90 = getelementptr inbounds %"class.assist_ranker::TranslateRankerModel_TranslateLogisticRegressionModel", %"class.assist_ranker::TranslateRankerModel_TranslateLogisticRegressionModel"* %0, i64 0, i32 3, i32 0
  %91 = getelementptr inbounds %"class.google::protobuf::Map", %"class.google::protobuf::Map"* %90, i64 0, i32 0, i32 0
  %92 = load i64, i64* %91, align 8
  %93 = icmp eq i64 %92, 0
  br i1 %93, label %235, label %94

94:                                               ; preds = %88
  %95 = getelementptr inbounds %"class.google::protobuf::io::EpsCopyOutputStream", %"class.google::protobuf::io::EpsCopyOutputStream"* %2, i64 0, i32 6
  %96 = load i8, i8* %95, align 2, !range !29
  %97 = icmp ne i8 %96, 0
  %98 = icmp ne i64 %92, 1
  %99 = and i1 %98, %97
  br i1 %99, label %100, label %178

100:                                              ; preds = %94
  %101 = tail call { i64, i1 } @llvm.umul.with.overflow.i64(i64 %92, i64 8)
  %102 = extractvalue { i64, i1 } %101, 1
  %103 = extractvalue { i64, i1 } %101, 0
  %104 = select i1 %102, i64 -1, i64 %103
  %105 = tail call i8* @_Znam(i64 %104) #16
  %106 = bitcast i8* %105 to %"struct.google::protobuf::MapPair"**
  %107 = bitcast %"class.google::protobuf::Map<std::__1::basic_string<char, std::__1::char_traits<char>, std::__1::allocator<char> >, float>::const_iterator"* %8 to i8*
  call void @llvm.lifetime.start.p0i8(i64 24, i8* nonnull %107) #15
  %108 = getelementptr inbounds %"class.google::protobuf::Map<std::__1::basic_string<char, std::__1::char_traits<char>, std::__1::allocator<char> >, float>::const_iterator", %"class.google::protobuf::Map<std::__1::basic_string<char, std::__1::char_traits<char>, std::__1::allocator<char> >, float>::const_iterator"* %8, i64 0, i32 0, i32 0
  %109 = getelementptr inbounds %"class.google::protobuf::Map<std::__1::basic_string<char, std::__1::char_traits<char>, std::__1::allocator<char> >, float>::const_iterator", %"class.google::protobuf::Map<std::__1::basic_string<char, std::__1::char_traits<char>, std::__1::allocator<char> >, float>::const_iterator"* %8, i64 0, i32 0, i32 1
  %110 = getelementptr inbounds %"class.google::protobuf::Map<std::__1::basic_string<char, std::__1::char_traits<char>, std::__1::allocator<char> >, float>::const_iterator", %"class.google::protobuf::Map<std::__1::basic_string<char, std::__1::char_traits<char>, std::__1::allocator<char> >, float>::const_iterator"* %8, i64 0, i32 0, i32 2
  %111 = getelementptr inbounds %"class.google::protobuf::Map", %"class.google::protobuf::Map"* %90, i64 0, i32 0
  %112 = getelementptr inbounds %"class.assist_ranker::TranslateRankerModel_TranslateLogisticRegressionModel", %"class.assist_ranker::TranslateRankerModel_TranslateLogisticRegressionModel"* %0, i64 0, i32 3, i32 0, i32 0, i32 3
  %113 = bitcast %"class.google::protobuf::Map<std::__1::basic_string<char, std::__1::char_traits<char>, std::__1::allocator<char> >, float>::const_iterator"* %8 to i8*
  call void @llvm.memset.p0i8.i64(i8* nonnull align 8 %113, i8 -86, i64 24, i1 false)
  %114 = load i64, i64* %112, align 8, !noalias !30
  %115 = getelementptr inbounds %"class.assist_ranker::TranslateRankerModel_TranslateLogisticRegressionModel", %"class.assist_ranker::TranslateRankerModel_TranslateLogisticRegressionModel"* %0, i64 0, i32 3, i32 0, i32 0, i32 1
  %116 = load i64, i64* %115, align 8, !noalias !30
  %117 = icmp ugt i64 %116, %114
  br i1 %117, label %118, label %142

118:                                              ; preds = %100
  %119 = getelementptr inbounds %"class.assist_ranker::TranslateRankerModel_TranslateLogisticRegressionModel", %"class.assist_ranker::TranslateRankerModel_TranslateLogisticRegressionModel"* %0, i64 0, i32 3, i32 0, i32 0, i32 4
  %120 = load i8**, i8*** %119, align 8, !noalias !30
  br label %121

121:                                              ; preds = %139, %118
  %122 = phi i64 [ %114, %118 ], [ %140, %139 ]
  %123 = getelementptr inbounds i8*, i8** %120, i64 %122
  %124 = load i8*, i8** %123, align 8, !noalias !30
  %125 = icmp eq i8* %124, null
  br i1 %125, label %139, label %126

126:                                              ; preds = %121
  %127 = xor i64 %122, 1
  %128 = getelementptr inbounds i8*, i8** %120, i64 %127
  %129 = load i8*, i8** %128, align 8, !noalias !30
  %130 = icmp eq i8* %124, %129
  br i1 %130, label %133, label %131

131:                                              ; preds = %126
  %132 = ptrtoint i8* %124 to i64
  br label %145

133:                                              ; preds = %126
  %134 = bitcast i8* %124 to %"class.std::__1::__tree_end_node"**
  %135 = load %"class.std::__1::__tree_end_node"*, %"class.std::__1::__tree_end_node"** %134, align 8, !noalias !30
  %136 = getelementptr inbounds %"class.std::__1::__tree_end_node", %"class.std::__1::__tree_end_node"* %135, i64 5
  %137 = bitcast %"class.std::__1::__tree_end_node"* %136 to i64*
  %138 = load i64, i64* %137, align 8, !noalias !30
  br label %145

139:                                              ; preds = %121
  %140 = add i64 %122, 1
  %141 = icmp eq i64 %140, %116
  br i1 %141, label %142, label %121

142:                                              ; preds = %139, %100
  %143 = phi i64 [ %114, %100 ], [ %116, %139 ]
  %144 = bitcast %"class.google::protobuf::Map<std::__1::basic_string<char, std::__1::char_traits<char>, std::__1::allocator<char> >, float>::const_iterator"* %8 to i64*
  store i64 0, i64* %144, align 8, !alias.scope !35
  store %"class.google::protobuf::Map<std::__1::basic_string<char, std::__1::char_traits<char>, std::__1::allocator<char> >, float>::InnerMap"* %111, %"class.google::protobuf::Map<std::__1::basic_string<char, std::__1::char_traits<char>, std::__1::allocator<char> >, float>::InnerMap"** %109, align 8, !alias.scope !35
  store i64 %143, i64* %110, align 8, !alias.scope !35
  br label %152

145:                                              ; preds = %131, %133
  %146 = phi i64 [ %138, %133 ], [ %132, %131 ]
  %147 = bitcast %"class.google::protobuf::Map<std::__1::basic_string<char, std::__1::char_traits<char>, std::__1::allocator<char> >, float>::const_iterator"* %8 to i64*
  store i64 %146, i64* %147, align 8, !alias.scope !35
  store %"class.google::protobuf::Map<std::__1::basic_string<char, std::__1::char_traits<char>, std::__1::allocator<char> >, float>::InnerMap"* %111, %"class.google::protobuf::Map<std::__1::basic_string<char, std::__1::char_traits<char>, std::__1::allocator<char> >, float>::InnerMap"** %109, align 8, !alias.scope !35
  store i64 %122, i64* %110, align 8, !alias.scope !35
  %148 = icmp eq i64 %146, 0
  br i1 %148, label %152, label %149

149:                                              ; preds = %145
  %150 = inttoptr i64 %146 to %"struct.google::protobuf::Map<std::__1::basic_string<char, std::__1::char_traits<char>, std::__1::allocator<char> >, float>::InnerMap::Node"*
  %151 = getelementptr inbounds %"class.google::protobuf::Map<std::__1::basic_string<char, std::__1::char_traits<char>, std::__1::allocator<char> >, float>::const_iterator", %"class.google::protobuf::Map<std::__1::basic_string<char, std::__1::char_traits<char>, std::__1::allocator<char> >, float>::const_iterator"* %8, i64 0, i32 0
  br label %157

152:                                              ; preds = %157, %142, %145
  %153 = phi i64 [ 0, %145 ], [ 0, %142 ], [ %163, %157 ]
  call void @llvm.lifetime.end.p0i8(i64 24, i8* nonnull %107) #15
  %154 = getelementptr inbounds %"struct.google::protobuf::MapPair"*, %"struct.google::protobuf::MapPair"** %106, i64 %153
  %155 = getelementptr inbounds %"struct.google::protobuf::internal::CompareByDerefFirst", %"struct.google::protobuf::internal::CompareByDerefFirst"* %5, i64 0, i32 0
  call void @llvm.lifetime.start.p0i8(i64 1, i8* nonnull %155)
  call void @_ZNSt3__16__sortIRN6google8protobuf8internal19CompareByDerefFirstIPKNS2_7MapPairINS_12basic_stringIcNS_11char_traitsIcEENS_9allocatorIcEEEEfEEEEPSE_EEvT0_SI_T_(%"struct.google::protobuf::MapPair"** nonnull %106, %"struct.google::protobuf::MapPair"** %154, %"struct.google::protobuf::internal::CompareByDerefFirst"* nonnull dereferenceable(1) %5) #15
  call void @llvm.lifetime.end.p0i8(i64 1, i8* nonnull %155)
  %156 = icmp eq i64 %153, 0
  br i1 %156, label %166, label %168

157:                                              ; preds = %149, %157
  %158 = phi i64 [ 0, %149 ], [ %163, %157 ]
  %159 = phi %"struct.google::protobuf::Map<std::__1::basic_string<char, std::__1::char_traits<char>, std::__1::allocator<char> >, float>::InnerMap::Node"* [ %150, %149 ], [ %164, %157 ]
  %160 = getelementptr inbounds %"struct.google::protobuf::Map<std::__1::basic_string<char, std::__1::char_traits<char>, std::__1::allocator<char> >, float>::InnerMap::Node", %"struct.google::protobuf::Map<std::__1::basic_string<char, std::__1::char_traits<char>, std::__1::allocator<char> >, float>::InnerMap::Node"* %159, i64 0, i32 0
  %161 = getelementptr inbounds %"struct.google::protobuf::MapPair"*, %"struct.google::protobuf::MapPair"** %106, i64 %158
  store %"struct.google::protobuf::MapPair"* %160, %"struct.google::protobuf::MapPair"** %161, align 8
  %162 = call dereferenceable(24) %"class.google::protobuf::Map<std::__1::basic_string<char, std::__1::char_traits<char>, std::__1::allocator<char> >, float>::InnerMap::iterator_base"* @_ZN6google8protobuf3MapINSt3__112basic_stringIcNS2_11char_traitsIcEENS2_9allocatorIcEEEEfE8InnerMap13iterator_baseIKNS0_7MapPairIS8_fEEEppEv(%"class.google::protobuf::Map<std::__1::basic_string<char, std::__1::char_traits<char>, std::__1::allocator<char> >, float>::InnerMap::iterator_base"* nonnull %151) #15
  %163 = add i64 %158, 1
  %164 = load %"struct.google::protobuf::Map<std::__1::basic_string<char, std::__1::char_traits<char>, std::__1::allocator<char> >, float>::InnerMap::Node"*, %"struct.google::protobuf::Map<std::__1::basic_string<char, std::__1::char_traits<char>, std::__1::allocator<char> >, float>::InnerMap::Node"** %108, align 8
  %165 = icmp eq %"struct.google::protobuf::Map<std::__1::basic_string<char, std::__1::char_traits<char>, std::__1::allocator<char> >, float>::InnerMap::Node"* %164, null
  br i1 %165, label %152, label %157

166:                                              ; preds = %168, %152
  %167 = phi i8* [ %89, %152 ], [ %175, %168 ]
  call void @_ZdaPv(i8* nonnull %105) #16
  br label %235

168:                                              ; preds = %152, %168
  %169 = phi i64 [ %176, %168 ], [ 0, %152 ]
  %170 = phi i8* [ %175, %168 ], [ %89, %152 ]
  %171 = getelementptr inbounds %"struct.google::protobuf::MapPair"*, %"struct.google::protobuf::MapPair"** %106, i64 %169
  %172 = load %"struct.google::protobuf::MapPair"*, %"struct.google::protobuf::MapPair"** %171, align 8
  %173 = getelementptr inbounds %"struct.google::protobuf::MapPair", %"struct.google::protobuf::MapPair"* %172, i64 0, i32 0
  %174 = getelementptr inbounds %"struct.google::protobuf::MapPair", %"struct.google::protobuf::MapPair"* %172, i64 0, i32 1
  %175 = call i8* @_ZN6google8protobuf8internal13MapEntryFuncsINSt3__112basic_stringIcNS3_11char_traitsIcEENS3_9allocatorIcEEEEfLNS1_14WireFormatLite9FieldTypeE9ELSB_2EE17InternalSerializeEiRKS9_RKfPhPNS0_2io19EpsCopyOutputStreamE(i32 5, %"class.std::__1::basic_string"* dereferenceable(24) %173, float* dereferenceable(4) %174, i8* %170, %"class.google::protobuf::io::EpsCopyOutputStream"* %2)
  %176 = add nuw i64 %169, 1
  %177 = icmp eq i64 %176, %153
  br i1 %177, label %166, label %168

178:                                              ; preds = %94
  %179 = bitcast %"class.google::protobuf::Map<std::__1::basic_string<char, std::__1::char_traits<char>, std::__1::allocator<char> >, float>::const_iterator"* %9 to i8*
  call void @llvm.lifetime.start.p0i8(i64 24, i8* nonnull %179) #15
  %180 = getelementptr inbounds %"class.google::protobuf::Map<std::__1::basic_string<char, std::__1::char_traits<char>, std::__1::allocator<char> >, float>::const_iterator", %"class.google::protobuf::Map<std::__1::basic_string<char, std::__1::char_traits<char>, std::__1::allocator<char> >, float>::const_iterator"* %9, i64 0, i32 0, i32 0
  %181 = getelementptr inbounds %"class.google::protobuf::Map<std::__1::basic_string<char, std::__1::char_traits<char>, std::__1::allocator<char> >, float>::const_iterator", %"class.google::protobuf::Map<std::__1::basic_string<char, std::__1::char_traits<char>, std::__1::allocator<char> >, float>::const_iterator"* %9, i64 0, i32 0, i32 1
  %182 = getelementptr inbounds %"class.google::protobuf::Map<std::__1::basic_string<char, std::__1::char_traits<char>, std::__1::allocator<char> >, float>::const_iterator", %"class.google::protobuf::Map<std::__1::basic_string<char, std::__1::char_traits<char>, std::__1::allocator<char> >, float>::const_iterator"* %9, i64 0, i32 0, i32 2
  %183 = getelementptr inbounds %"class.google::protobuf::Map", %"class.google::protobuf::Map"* %90, i64 0, i32 0
  %184 = getelementptr inbounds %"class.assist_ranker::TranslateRankerModel_TranslateLogisticRegressionModel", %"class.assist_ranker::TranslateRankerModel_TranslateLogisticRegressionModel"* %0, i64 0, i32 3, i32 0, i32 0, i32 3
  %185 = bitcast %"class.google::protobuf::Map<std::__1::basic_string<char, std::__1::char_traits<char>, std::__1::allocator<char> >, float>::const_iterator"* %9 to i8*
  call void @llvm.memset.p0i8.i64(i8* nonnull align 8 %185, i8 -86, i64 24, i1 false)
  %186 = load i64, i64* %184, align 8, !noalias !36
  %187 = getelementptr inbounds %"class.assist_ranker::TranslateRankerModel_TranslateLogisticRegressionModel", %"class.assist_ranker::TranslateRankerModel_TranslateLogisticRegressionModel"* %0, i64 0, i32 3, i32 0, i32 0, i32 1
  %188 = load i64, i64* %187, align 8, !noalias !36
  %189 = icmp ugt i64 %188, %186
  br i1 %189, label %190, label %214

190:                                              ; preds = %178
  %191 = getelementptr inbounds %"class.assist_ranker::TranslateRankerModel_TranslateLogisticRegressionModel", %"class.assist_ranker::TranslateRankerModel_TranslateLogisticRegressionModel"* %0, i64 0, i32 3, i32 0, i32 0, i32 4
  %192 = load i8**, i8*** %191, align 8, !noalias !36
  br label %193

193:                                              ; preds = %211, %190
  %194 = phi i64 [ %186, %190 ], [ %212, %211 ]
  %195 = getelementptr inbounds i8*, i8** %192, i64 %194
  %196 = load i8*, i8** %195, align 8, !noalias !36
  %197 = icmp eq i8* %196, null
  br i1 %197, label %211, label %198

198:                                              ; preds = %193
  %199 = xor i64 %194, 1
  %200 = getelementptr inbounds i8*, i8** %192, i64 %199
  %201 = load i8*, i8** %200, align 8, !noalias !36
  %202 = icmp eq i8* %196, %201
  br i1 %202, label %205, label %203

203:                                              ; preds = %198
  %204 = ptrtoint i8* %196 to i64
  br label %217

205:                                              ; preds = %198
  %206 = bitcast i8* %196 to %"class.std::__1::__tree_end_node"**
  %207 = load %"class.std::__1::__tree_end_node"*, %"class.std::__1::__tree_end_node"** %206, align 8, !noalias !36
  %208 = getelementptr inbounds %"class.std::__1::__tree_end_node", %"class.std::__1::__tree_end_node"* %207, i64 5
  %209 = bitcast %"class.std::__1::__tree_end_node"* %208 to i64*
  %210 = load i64, i64* %209, align 8, !noalias !36
  br label %217

211:                                              ; preds = %193
  %212 = add i64 %194, 1
  %213 = icmp eq i64 %212, %188
  br i1 %213, label %214, label %193

214:                                              ; preds = %211, %178
  %215 = phi i64 [ %186, %178 ], [ %188, %211 ]
  %216 = bitcast %"class.google::protobuf::Map<std::__1::basic_string<char, std::__1::char_traits<char>, std::__1::allocator<char> >, float>::const_iterator"* %9 to i64*
  store i64 0, i64* %216, align 8, !alias.scope !41
  store %"class.google::protobuf::Map<std::__1::basic_string<char, std::__1::char_traits<char>, std::__1::allocator<char> >, float>::InnerMap"* %183, %"class.google::protobuf::Map<std::__1::basic_string<char, std::__1::char_traits<char>, std::__1::allocator<char> >, float>::InnerMap"** %181, align 8, !alias.scope !41
  store i64 %215, i64* %182, align 8, !alias.scope !41
  br label %224

217:                                              ; preds = %203, %205
  %218 = phi i64 [ %210, %205 ], [ %204, %203 ]
  %219 = bitcast %"class.google::protobuf::Map<std::__1::basic_string<char, std::__1::char_traits<char>, std::__1::allocator<char> >, float>::const_iterator"* %9 to i64*
  store i64 %218, i64* %219, align 8, !alias.scope !41
  store %"class.google::protobuf::Map<std::__1::basic_string<char, std::__1::char_traits<char>, std::__1::allocator<char> >, float>::InnerMap"* %183, %"class.google::protobuf::Map<std::__1::basic_string<char, std::__1::char_traits<char>, std::__1::allocator<char> >, float>::InnerMap"** %181, align 8, !alias.scope !41
  store i64 %194, i64* %182, align 8, !alias.scope !41
  %220 = icmp eq i64 %218, 0
  br i1 %220, label %224, label %221

221:                                              ; preds = %217
  %222 = inttoptr i64 %218 to %"struct.google::protobuf::Map<std::__1::basic_string<char, std::__1::char_traits<char>, std::__1::allocator<char> >, float>::InnerMap::Node"*
  %223 = getelementptr inbounds %"class.google::protobuf::Map<std::__1::basic_string<char, std::__1::char_traits<char>, std::__1::allocator<char> >, float>::const_iterator", %"class.google::protobuf::Map<std::__1::basic_string<char, std::__1::char_traits<char>, std::__1::allocator<char> >, float>::const_iterator"* %9, i64 0, i32 0
  br label %226

224:                                              ; preds = %226, %214, %217
  %225 = phi i8* [ %89, %217 ], [ %89, %214 ], [ %231, %226 ]
  call void @llvm.lifetime.end.p0i8(i64 24, i8* nonnull %179) #15
  br label %235

226:                                              ; preds = %221, %226
  %227 = phi i8* [ %89, %221 ], [ %231, %226 ]
  %228 = phi %"struct.google::protobuf::Map<std::__1::basic_string<char, std::__1::char_traits<char>, std::__1::allocator<char> >, float>::InnerMap::Node"* [ %222, %221 ], [ %233, %226 ]
  %229 = getelementptr inbounds %"struct.google::protobuf::Map<std::__1::basic_string<char, std::__1::char_traits<char>, std::__1::allocator<char> >, float>::InnerMap::Node", %"struct.google::protobuf::Map<std::__1::basic_string<char, std::__1::char_traits<char>, std::__1::allocator<char> >, float>::InnerMap::Node"* %228, i64 0, i32 0, i32 0
  %230 = getelementptr inbounds %"struct.google::protobuf::Map<std::__1::basic_string<char, std::__1::char_traits<char>, std::__1::allocator<char> >, float>::InnerMap::Node", %"struct.google::protobuf::Map<std::__1::basic_string<char, std::__1::char_traits<char>, std::__1::allocator<char> >, float>::InnerMap::Node"* %228, i64 0, i32 0, i32 1
  %231 = call i8* @_ZN6google8protobuf8internal13MapEntryFuncsINSt3__112basic_stringIcNS3_11char_traitsIcEENS3_9allocatorIcEEEEfLNS1_14WireFormatLite9FieldTypeE9ELSB_2EE17InternalSerializeEiRKS9_RKfPhPNS0_2io19EpsCopyOutputStreamE(i32 5, %"class.std::__1::basic_string"* dereferenceable(24) %229, float* dereferenceable(4) %230, i8* %227, %"class.google::protobuf::io::EpsCopyOutputStream"* %2)
  %232 = call dereferenceable(24) %"class.google::protobuf::Map<std::__1::basic_string<char, std::__1::char_traits<char>, std::__1::allocator<char> >, float>::InnerMap::iterator_base"* @_ZN6google8protobuf3MapINSt3__112basic_stringIcNS2_11char_traitsIcEENS2_9allocatorIcEEEEfE8InnerMap13iterator_baseIKNS0_7MapPairIS8_fEEEppEv(%"class.google::protobuf::Map<std::__1::basic_string<char, std::__1::char_traits<char>, std::__1::allocator<char> >, float>::InnerMap::iterator_base"* nonnull %223) #15
  %233 = load %"struct.google::protobuf::Map<std::__1::basic_string<char, std::__1::char_traits<char>, std::__1::allocator<char> >, float>::InnerMap::Node"*, %"struct.google::protobuf::Map<std::__1::basic_string<char, std::__1::char_traits<char>, std::__1::allocator<char> >, float>::InnerMap::Node"** %180, align 8
  %234 = icmp eq %"struct.google::protobuf::Map<std::__1::basic_string<char, std::__1::char_traits<char>, std::__1::allocator<char> >, float>::InnerMap::Node"* %233, null
  br i1 %234, label %224, label %226

235:                                              ; preds = %166, %224, %88
  %236 = phi i8* [ %89, %88 ], [ %167, %166 ], [ %225, %224 ]
  %237 = getelementptr inbounds %"class.assist_ranker::TranslateRankerModel_TranslateLogisticRegressionModel", %"class.assist_ranker::TranslateRankerModel_TranslateLogisticRegressionModel"* %0, i64 0, i32 4, i32 0
  %238 = getelementptr inbounds %"class.google::protobuf::Map", %"class.google::protobuf::Map"* %237, i64 0, i32 0, i32 0
  %239 = load i64, i64* %238, align 8
  %240 = icmp eq i64 %239, 0
  br i1 %240, label %382, label %241

241:                                              ; preds = %235
  %242 = getelementptr inbounds %"class.google::protobuf::io::EpsCopyOutputStream", %"class.google::protobuf::io::EpsCopyOutputStream"* %2, i64 0, i32 6
  %243 = load i8, i8* %242, align 2, !range !29
  %244 = icmp ne i8 %243, 0
  %245 = icmp ne i64 %239, 1
  %246 = and i1 %245, %244
  br i1 %246, label %247, label %325

247:                                              ; preds = %241
  %248 = call { i64, i1 } @llvm.umul.with.overflow.i64(i64 %239, i64 8)
  %249 = extractvalue { i64, i1 } %248, 1
  %250 = extractvalue { i64, i1 } %248, 0
  %251 = select i1 %249, i64 -1, i64 %250
  %252 = call i8* @_Znam(i64 %251) #16
  %253 = bitcast i8* %252 to %"struct.google::protobuf::MapPair"**
  %254 = bitcast %"class.google::protobuf::Map<std::__1::basic_string<char, std::__1::char_traits<char>, std::__1::allocator<char> >, float>::const_iterator"* %10 to i8*
  call void @llvm.lifetime.start.p0i8(i64 24, i8* nonnull %254) #15
  %255 = getelementptr inbounds %"class.google::protobuf::Map<std::__1::basic_string<char, std::__1::char_traits<char>, std::__1::allocator<char> >, float>::const_iterator", %"class.google::protobuf::Map<std::__1::basic_string<char, std::__1::char_traits<char>, std::__1::allocator<char> >, float>::const_iterator"* %10, i64 0, i32 0, i32 0
  %256 = getelementptr inbounds %"class.google::protobuf::Map<std::__1::basic_string<char, std::__1::char_traits<char>, std::__1::allocator<char> >, float>::const_iterator", %"class.google::protobuf::Map<std::__1::basic_string<char, std::__1::char_traits<char>, std::__1::allocator<char> >, float>::const_iterator"* %10, i64 0, i32 0, i32 1
  %257 = getelementptr inbounds %"class.google::protobuf::Map<std::__1::basic_string<char, std::__1::char_traits<char>, std::__1::allocator<char> >, float>::const_iterator", %"class.google::protobuf::Map<std::__1::basic_string<char, std::__1::char_traits<char>, std::__1::allocator<char> >, float>::const_iterator"* %10, i64 0, i32 0, i32 2
  %258 = getelementptr inbounds %"class.google::protobuf::Map", %"class.google::protobuf::Map"* %237, i64 0, i32 0
  %259 = getelementptr inbounds %"class.assist_ranker::TranslateRankerModel_TranslateLogisticRegressionModel", %"class.assist_ranker::TranslateRankerModel_TranslateLogisticRegressionModel"* %0, i64 0, i32 4, i32 0, i32 0, i32 3
  %260 = bitcast %"class.google::protobuf::Map<std::__1::basic_string<char, std::__1::char_traits<char>, std::__1::allocator<char> >, float>::const_iterator"* %10 to i8*
  call void @llvm.memset.p0i8.i64(i8* nonnull align 8 %260, i8 -86, i64 24, i1 false)
  %261 = load i64, i64* %259, align 8, !noalias !42
  %262 = getelementptr inbounds %"class.assist_ranker::TranslateRankerModel_TranslateLogisticRegressionModel", %"class.assist_ranker::TranslateRankerModel_TranslateLogisticRegressionModel"* %0, i64 0, i32 4, i32 0, i32 0, i32 1
  %263 = load i64, i64* %262, align 8, !noalias !42
  %264 = icmp ugt i64 %263, %261
  br i1 %264, label %265, label %289

265:                                              ; preds = %247
  %266 = getelementptr inbounds %"class.assist_ranker::TranslateRankerModel_TranslateLogisticRegressionModel", %"class.assist_ranker::TranslateRankerModel_TranslateLogisticRegressionModel"* %0, i64 0, i32 4, i32 0, i32 0, i32 4
  %267 = load i8**, i8*** %266, align 8, !noalias !42
  br label %268

268:                                              ; preds = %286, %265
  %269 = phi i64 [ %261, %265 ], [ %287, %286 ]
  %270 = getelementptr inbounds i8*, i8** %267, i64 %269
  %271 = load i8*, i8** %270, align 8, !noalias !42
  %272 = icmp eq i8* %271, null
  br i1 %272, label %286, label %273

273:                                              ; preds = %268
  %274 = xor i64 %269, 1
  %275 = getelementptr inbounds i8*, i8** %267, i64 %274
  %276 = load i8*, i8** %275, align 8, !noalias !42
  %277 = icmp eq i8* %271, %276
  br i1 %277, label %280, label %278

278:                                              ; preds = %273
  %279 = ptrtoint i8* %271 to i64
  br label %292

280:                                              ; preds = %273
  %281 = bitcast i8* %271 to %"class.std::__1::__tree_end_node"**
  %282 = load %"class.std::__1::__tree_end_node"*, %"class.std::__1::__tree_end_node"** %281, align 8, !noalias !42
  %283 = getelementptr inbounds %"class.std::__1::__tree_end_node", %"class.std::__1::__tree_end_node"* %282, i64 5
  %284 = bitcast %"class.std::__1::__tree_end_node"* %283 to i64*
  %285 = load i64, i64* %284, align 8, !noalias !42
  br label %292

286:                                              ; preds = %268
  %287 = add i64 %269, 1
  %288 = icmp eq i64 %287, %263
  br i1 %288, label %289, label %268

289:                                              ; preds = %286, %247
  %290 = phi i64 [ %261, %247 ], [ %263, %286 ]
  %291 = bitcast %"class.google::protobuf::Map<std::__1::basic_string<char, std::__1::char_traits<char>, std::__1::allocator<char> >, float>::const_iterator"* %10 to i64*
  store i64 0, i64* %291, align 8, !alias.scope !47
  store %"class.google::protobuf::Map<std::__1::basic_string<char, std::__1::char_traits<char>, std::__1::allocator<char> >, float>::InnerMap"* %258, %"class.google::protobuf::Map<std::__1::basic_string<char, std::__1::char_traits<char>, std::__1::allocator<char> >, float>::InnerMap"** %256, align 8, !alias.scope !47
  store i64 %290, i64* %257, align 8, !alias.scope !47
  br label %299

292:                                              ; preds = %278, %280
  %293 = phi i64 [ %285, %280 ], [ %279, %278 ]
  %294 = bitcast %"class.google::protobuf::Map<std::__1::basic_string<char, std::__1::char_traits<char>, std::__1::allocator<char> >, float>::const_iterator"* %10 to i64*
  store i64 %293, i64* %294, align 8, !alias.scope !47
  store %"class.google::protobuf::Map<std::__1::basic_string<char, std::__1::char_traits<char>, std::__1::allocator<char> >, float>::InnerMap"* %258, %"class.google::protobuf::Map<std::__1::basic_string<char, std::__1::char_traits<char>, std::__1::allocator<char> >, float>::InnerMap"** %256, align 8, !alias.scope !47
  store i64 %269, i64* %257, align 8, !alias.scope !47
  %295 = icmp eq i64 %293, 0
  br i1 %295, label %299, label %296

296:                                              ; preds = %292
  %297 = inttoptr i64 %293 to %"struct.google::protobuf::Map<std::__1::basic_string<char, std::__1::char_traits<char>, std::__1::allocator<char> >, float>::InnerMap::Node"*
  %298 = getelementptr inbounds %"class.google::protobuf::Map<std::__1::basic_string<char, std::__1::char_traits<char>, std::__1::allocator<char> >, float>::const_iterator", %"class.google::protobuf::Map<std::__1::basic_string<char, std::__1::char_traits<char>, std::__1::allocator<char> >, float>::const_iterator"* %10, i64 0, i32 0
  br label %304

299:                                              ; preds = %304, %289, %292
  %300 = phi i64 [ 0, %292 ], [ 0, %289 ], [ %310, %304 ]
  call void @llvm.lifetime.end.p0i8(i64 24, i8* nonnull %254) #15
  %301 = getelementptr inbounds %"struct.google::protobuf::MapPair"*, %"struct.google::protobuf::MapPair"** %253, i64 %300
  %302 = getelementptr inbounds %"struct.google::protobuf::internal::CompareByDerefFirst", %"struct.google::protobuf::internal::CompareByDerefFirst"* %4, i64 0, i32 0
  call void @llvm.lifetime.start.p0i8(i64 1, i8* nonnull %302)
  call void @_ZNSt3__16__sortIRN6google8protobuf8internal19CompareByDerefFirstIPKNS2_7MapPairINS_12basic_stringIcNS_11char_traitsIcEENS_9allocatorIcEEEEfEEEEPSE_EEvT0_SI_T_(%"struct.google::protobuf::MapPair"** nonnull %253, %"struct.google::protobuf::MapPair"** %301, %"struct.google::protobuf::internal::CompareByDerefFirst"* nonnull dereferenceable(1) %4) #15
  call void @llvm.lifetime.end.p0i8(i64 1, i8* nonnull %302)
  %303 = icmp eq i64 %300, 0
  br i1 %303, label %313, label %315

304:                                              ; preds = %296, %304
  %305 = phi i64 [ 0, %296 ], [ %310, %304 ]
  %306 = phi %"struct.google::protobuf::Map<std::__1::basic_string<char, std::__1::char_traits<char>, std::__1::allocator<char> >, float>::InnerMap::Node"* [ %297, %296 ], [ %311, %304 ]
  %307 = getelementptr inbounds %"struct.google::protobuf::Map<std::__1::basic_string<char, std::__1::char_traits<char>, std::__1::allocator<char> >, float>::InnerMap::Node", %"struct.google::protobuf::Map<std::__1::basic_string<char, std::__1::char_traits<char>, std::__1::allocator<char> >, float>::InnerMap::Node"* %306, i64 0, i32 0
  %308 = getelementptr inbounds %"struct.google::protobuf::MapPair"*, %"struct.google::protobuf::MapPair"** %253, i64 %305
  store %"struct.google::protobuf::MapPair"* %307, %"struct.google::protobuf::MapPair"** %308, align 8
  %309 = call dereferenceable(24) %"class.google::protobuf::Map<std::__1::basic_string<char, std::__1::char_traits<char>, std::__1::allocator<char> >, float>::InnerMap::iterator_base"* @_ZN6google8protobuf3MapINSt3__112basic_stringIcNS2_11char_traitsIcEENS2_9allocatorIcEEEEfE8InnerMap13iterator_baseIKNS0_7MapPairIS8_fEEEppEv(%"class.google::protobuf::Map<std::__1::basic_string<char, std::__1::char_traits<char>, std::__1::allocator<char> >, float>::InnerMap::iterator_base"* nonnull %298) #15
  %310 = add i64 %305, 1
  %311 = load %"struct.google::protobuf::Map<std::__1::basic_string<char, std::__1::char_traits<char>, std::__1::allocator<char> >, float>::InnerMap::Node"*, %"struct.google::protobuf::Map<std::__1::basic_string<char, std::__1::char_traits<char>, std::__1::allocator<char> >, float>::InnerMap::Node"** %255, align 8
  %312 = icmp eq %"struct.google::protobuf::Map<std::__1::basic_string<char, std::__1::char_traits<char>, std::__1::allocator<char> >, float>::InnerMap::Node"* %311, null
  br i1 %312, label %299, label %304

313:                                              ; preds = %315, %299
  %314 = phi i8* [ %236, %299 ], [ %322, %315 ]
  call void @_ZdaPv(i8* nonnull %252) #16
  br label %382

315:                                              ; preds = %299, %315
  %316 = phi i64 [ %323, %315 ], [ 0, %299 ]
  %317 = phi i8* [ %322, %315 ], [ %236, %299 ]
  %318 = getelementptr inbounds %"struct.google::protobuf::MapPair"*, %"struct.google::protobuf::MapPair"** %253, i64 %316
  %319 = load %"struct.google::protobuf::MapPair"*, %"struct.google::protobuf::MapPair"** %318, align 8
  %320 = getelementptr inbounds %"struct.google::protobuf::MapPair", %"struct.google::protobuf::MapPair"* %319, i64 0, i32 0
  %321 = getelementptr inbounds %"struct.google::protobuf::MapPair", %"struct.google::protobuf::MapPair"* %319, i64 0, i32 1
  %322 = call i8* @_ZN6google8protobuf8internal13MapEntryFuncsINSt3__112basic_stringIcNS3_11char_traitsIcEENS3_9allocatorIcEEEEfLNS1_14WireFormatLite9FieldTypeE9ELSB_2EE17InternalSerializeEiRKS9_RKfPhPNS0_2io19EpsCopyOutputStreamE(i32 6, %"class.std::__1::basic_string"* dereferenceable(24) %320, float* dereferenceable(4) %321, i8* %317, %"class.google::protobuf::io::EpsCopyOutputStream"* %2)
  %323 = add nuw i64 %316, 1
  %324 = icmp eq i64 %323, %300
  br i1 %324, label %313, label %315

325:                                              ; preds = %241
  %326 = bitcast %"class.google::protobuf::Map<std::__1::basic_string<char, std::__1::char_traits<char>, std::__1::allocator<char> >, float>::const_iterator"* %11 to i8*
  call void @llvm.lifetime.start.p0i8(i64 24, i8* nonnull %326) #15
  %327 = getelementptr inbounds %"class.google::protobuf::Map<std::__1::basic_string<char, std::__1::char_traits<char>, std::__1::allocator<char> >, float>::const_iterator", %"class.google::protobuf::Map<std::__1::basic_string<char, std::__1::char_traits<char>, std::__1::allocator<char> >, float>::const_iterator"* %11, i64 0, i32 0, i32 0
  %328 = getelementptr inbounds %"class.google::protobuf::Map<std::__1::basic_string<char, std::__1::char_traits<char>, std::__1::allocator<char> >, float>::const_iterator", %"class.google::protobuf::Map<std::__1::basic_string<char, std::__1::char_traits<char>, std::__1::allocator<char> >, float>::const_iterator"* %11, i64 0, i32 0, i32 1
  %329 = getelementptr inbounds %"class.google::protobuf::Map<std::__1::basic_string<char, std::__1::char_traits<char>, std::__1::allocator<char> >, float>::const_iterator", %"class.google::protobuf::Map<std::__1::basic_string<char, std::__1::char_traits<char>, std::__1::allocator<char> >, float>::const_iterator"* %11, i64 0, i32 0, i32 2
  %330 = getelementptr inbounds %"class.google::protobuf::Map", %"class.google::protobuf::Map"* %237, i64 0, i32 0
  %331 = getelementptr inbounds %"class.assist_ranker::TranslateRankerModel_TranslateLogisticRegressionModel", %"class.assist_ranker::TranslateRankerModel_TranslateLogisticRegressionModel"* %0, i64 0, i32 4, i32 0, i32 0, i32 3
  %332 = bitcast %"class.google::protobuf::Map<std::__1::basic_string<char, std::__1::char_traits<char>, std::__1::allocator<char> >, float>::const_iterator"* %11 to i8*
  call void @llvm.memset.p0i8.i64(i8* nonnull align 8 %332, i8 -86, i64 24, i1 false)
  %333 = load i64, i64* %331, align 8, !noalias !48
  %334 = getelementptr inbounds %"class.assist_ranker::TranslateRankerModel_TranslateLogisticRegressionModel", %"class.assist_ranker::TranslateRankerModel_TranslateLogisticRegressionModel"* %0, i64 0, i32 4, i32 0, i32 0, i32 1
  %335 = load i64, i64* %334, align 8, !noalias !48
  %336 = icmp ugt i64 %335, %333
  br i1 %336, label %337, label %361

337:                                              ; preds = %325
  %338 = getelementptr inbounds %"class.assist_ranker::TranslateRankerModel_TranslateLogisticRegressionModel", %"class.assist_ranker::TranslateRankerModel_TranslateLogisticRegressionModel"* %0, i64 0, i32 4, i32 0, i32 0, i32 4
  %339 = load i8**, i8*** %338, align 8, !noalias !48
  br label %340

340:                                              ; preds = %358, %337
  %341 = phi i64 [ %333, %337 ], [ %359, %358 ]
  %342 = getelementptr inbounds i8*, i8** %339, i64 %341
  %343 = load i8*, i8** %342, align 8, !noalias !48
  %344 = icmp eq i8* %343, null
  br i1 %344, label %358, label %345

345:                                              ; preds = %340
  %346 = xor i64 %341, 1
  %347 = getelementptr inbounds i8*, i8** %339, i64 %346
  %348 = load i8*, i8** %347, align 8, !noalias !48
  %349 = icmp eq i8* %343, %348
  br i1 %349, label %352, label %350

350:                                              ; preds = %345
  %351 = ptrtoint i8* %343 to i64
  br label %364

352:                                              ; preds = %345
  %353 = bitcast i8* %343 to %"class.std::__1::__tree_end_node"**
  %354 = load %"class.std::__1::__tree_end_node"*, %"class.std::__1::__tree_end_node"** %353, align 8, !noalias !48
  %355 = getelementptr inbounds %"class.std::__1::__tree_end_node", %"class.std::__1::__tree_end_node"* %354, i64 5
  %356 = bitcast %"class.std::__1::__tree_end_node"* %355 to i64*
  %357 = load i64, i64* %356, align 8, !noalias !48
  br label %364

358:                                              ; preds = %340
  %359 = add i64 %341, 1
  %360 = icmp eq i64 %359, %335
  br i1 %360, label %361, label %340

361:                                              ; preds = %358, %325
  %362 = phi i64 [ %333, %325 ], [ %335, %358 ]
  %363 = bitcast %"class.google::protobuf::Map<std::__1::basic_string<char, std::__1::char_traits<char>, std::__1::allocator<char> >, float>::const_iterator"* %11 to i64*
  store i64 0, i64* %363, align 8, !alias.scope !53
  store %"class.google::protobuf::Map<std::__1::basic_string<char, std::__1::char_traits<char>, std::__1::allocator<char> >, float>::InnerMap"* %330, %"class.google::protobuf::Map<std::__1::basic_string<char, std::__1::char_traits<char>, std::__1::allocator<char> >, float>::InnerMap"** %328, align 8, !alias.scope !53
  store i64 %362, i64* %329, align 8, !alias.scope !53
  br label %371

364:                                              ; preds = %350, %352
  %365 = phi i64 [ %357, %352 ], [ %351, %350 ]
  %366 = bitcast %"class.google::protobuf::Map<std::__1::basic_string<char, std::__1::char_traits<char>, std::__1::allocator<char> >, float>::const_iterator"* %11 to i64*
  store i64 %365, i64* %366, align 8, !alias.scope !53
  store %"class.google::protobuf::Map<std::__1::basic_string<char, std::__1::char_traits<char>, std::__1::allocator<char> >, float>::InnerMap"* %330, %"class.google::protobuf::Map<std::__1::basic_string<char, std::__1::char_traits<char>, std::__1::allocator<char> >, float>::InnerMap"** %328, align 8, !alias.scope !53
  store i64 %341, i64* %329, align 8, !alias.scope !53
  %367 = icmp eq i64 %365, 0
  br i1 %367, label %371, label %368

368:                                              ; preds = %364
  %369 = inttoptr i64 %365 to %"struct.google::protobuf::Map<std::__1::basic_string<char, std::__1::char_traits<char>, std::__1::allocator<char> >, float>::InnerMap::Node"*
  %370 = getelementptr inbounds %"class.google::protobuf::Map<std::__1::basic_string<char, std::__1::char_traits<char>, std::__1::allocator<char> >, float>::const_iterator", %"class.google::protobuf::Map<std::__1::basic_string<char, std::__1::char_traits<char>, std::__1::allocator<char> >, float>::const_iterator"* %11, i64 0, i32 0
  br label %373

371:                                              ; preds = %373, %361, %364
  %372 = phi i8* [ %236, %364 ], [ %236, %361 ], [ %378, %373 ]
  call void @llvm.lifetime.end.p0i8(i64 24, i8* nonnull %326) #15
  br label %382

373:                                              ; preds = %368, %373
  %374 = phi i8* [ %236, %368 ], [ %378, %373 ]
  %375 = phi %"struct.google::protobuf::Map<std::__1::basic_string<char, std::__1::char_traits<char>, std::__1::allocator<char> >, float>::InnerMap::Node"* [ %369, %368 ], [ %380, %373 ]
  %376 = getelementptr inbounds %"struct.google::protobuf::Map<std::__1::basic_string<char, std::__1::char_traits<char>, std::__1::allocator<char> >, float>::InnerMap::Node", %"struct.google::protobuf::Map<std::__1::basic_string<char, std::__1::char_traits<char>, std::__1::allocator<char> >, float>::InnerMap::Node"* %375, i64 0, i32 0, i32 0
  %377 = getelementptr inbounds %"struct.google::protobuf::Map<std::__1::basic_string<char, std::__1::char_traits<char>, std::__1::allocator<char> >, float>::InnerMap::Node", %"struct.google::protobuf::Map<std::__1::basic_string<char, std::__1::char_traits<char>, std::__1::allocator<char> >, float>::InnerMap::Node"* %375, i64 0, i32 0, i32 1
  %378 = call i8* @_ZN6google8protobuf8internal13MapEntryFuncsINSt3__112basic_stringIcNS3_11char_traitsIcEENS3_9allocatorIcEEEEfLNS1_14WireFormatLite9FieldTypeE9ELSB_2EE17InternalSerializeEiRKS9_RKfPhPNS0_2io19EpsCopyOutputStreamE(i32 6, %"class.std::__1::basic_string"* dereferenceable(24) %376, float* dereferenceable(4) %377, i8* %374, %"class.google::protobuf::io::EpsCopyOutputStream"* %2)
  %379 = call dereferenceable(24) %"class.google::protobuf::Map<std::__1::basic_string<char, std::__1::char_traits<char>, std::__1::allocator<char> >, float>::InnerMap::iterator_base"* @_ZN6google8protobuf3MapINSt3__112basic_stringIcNS2_11char_traitsIcEENS2_9allocatorIcEEEEfE8InnerMap13iterator_baseIKNS0_7MapPairIS8_fEEEppEv(%"class.google::protobuf::Map<std::__1::basic_string<char, std::__1::char_traits<char>, std::__1::allocator<char> >, float>::InnerMap::iterator_base"* nonnull %370) #15
  %380 = load %"struct.google::protobuf::Map<std::__1::basic_string<char, std::__1::char_traits<char>, std::__1::allocator<char> >, float>::InnerMap::Node"*, %"struct.google::protobuf::Map<std::__1::basic_string<char, std::__1::char_traits<char>, std::__1::allocator<char> >, float>::InnerMap::Node"** %327, align 8
  %381 = icmp eq %"struct.google::protobuf::Map<std::__1::basic_string<char, std::__1::char_traits<char>, std::__1::allocator<char> >, float>::InnerMap::Node"* %380, null
  br i1 %381, label %371, label %373

382:                                              ; preds = %313, %371, %235
  %383 = phi i8* [ %236, %235 ], [ %314, %313 ], [ %372, %371 ]
  %384 = getelementptr inbounds %"class.assist_ranker::TranslateRankerModel_TranslateLogisticRegressionModel", %"class.assist_ranker::TranslateRankerModel_TranslateLogisticRegressionModel"* %0, i64 0, i32 5, i32 0
  %385 = getelementptr inbounds %"class.google::protobuf::Map", %"class.google::protobuf::Map"* %384, i64 0, i32 0, i32 0
  %386 = load i64, i64* %385, align 8
  %387 = icmp eq i64 %386, 0
  br i1 %387, label %529, label %388

388:                                              ; preds = %382
  %389 = getelementptr inbounds %"class.google::protobuf::io::EpsCopyOutputStream", %"class.google::protobuf::io::EpsCopyOutputStream"* %2, i64 0, i32 6
  %390 = load i8, i8* %389, align 2, !range !29
  %391 = icmp ne i8 %390, 0
  %392 = icmp ne i64 %386, 1
  %393 = and i1 %392, %391
  br i1 %393, label %394, label %472

394:                                              ; preds = %388
  %395 = call { i64, i1 } @llvm.umul.with.overflow.i64(i64 %386, i64 8)
  %396 = extractvalue { i64, i1 } %395, 1
  %397 = extractvalue { i64, i1 } %395, 0
  %398 = select i1 %396, i64 -1, i64 %397
  %399 = call i8* @_Znam(i64 %398) #16
  %400 = bitcast i8* %399 to %"struct.google::protobuf::MapPair"**
  %401 = bitcast %"class.google::protobuf::Map<std::__1::basic_string<char, std::__1::char_traits<char>, std::__1::allocator<char> >, float>::const_iterator"* %12 to i8*
  call void @llvm.lifetime.start.p0i8(i64 24, i8* nonnull %401) #15
  %402 = getelementptr inbounds %"class.google::protobuf::Map<std::__1::basic_string<char, std::__1::char_traits<char>, std::__1::allocator<char> >, float>::const_iterator", %"class.google::protobuf::Map<std::__1::basic_string<char, std::__1::char_traits<char>, std::__1::allocator<char> >, float>::const_iterator"* %12, i64 0, i32 0, i32 0
  %403 = getelementptr inbounds %"class.google::protobuf::Map<std::__1::basic_string<char, std::__1::char_traits<char>, std::__1::allocator<char> >, float>::const_iterator", %"class.google::protobuf::Map<std::__1::basic_string<char, std::__1::char_traits<char>, std::__1::allocator<char> >, float>::const_iterator"* %12, i64 0, i32 0, i32 1
  %404 = getelementptr inbounds %"class.google::protobuf::Map<std::__1::basic_string<char, std::__1::char_traits<char>, std::__1::allocator<char> >, float>::const_iterator", %"class.google::protobuf::Map<std::__1::basic_string<char, std::__1::char_traits<char>, std::__1::allocator<char> >, float>::const_iterator"* %12, i64 0, i32 0, i32 2
  %405 = getelementptr inbounds %"class.google::protobuf::Map", %"class.google::protobuf::Map"* %384, i64 0, i32 0
  %406 = getelementptr inbounds %"class.assist_ranker::TranslateRankerModel_TranslateLogisticRegressionModel", %"class.assist_ranker::TranslateRankerModel_TranslateLogisticRegressionModel"* %0, i64 0, i32 5, i32 0, i32 0, i32 3
  %407 = bitcast %"class.google::protobuf::Map<std::__1::basic_string<char, std::__1::char_traits<char>, std::__1::allocator<char> >, float>::const_iterator"* %12 to i8*
  call void @llvm.memset.p0i8.i64(i8* nonnull align 8 %407, i8 -86, i64 24, i1 false)
  %408 = load i64, i64* %406, align 8, !noalias !54
  %409 = getelementptr inbounds %"class.assist_ranker::TranslateRankerModel_TranslateLogisticRegressionModel", %"class.assist_ranker::TranslateRankerModel_TranslateLogisticRegressionModel"* %0, i64 0, i32 5, i32 0, i32 0, i32 1
  %410 = load i64, i64* %409, align 8, !noalias !54
  %411 = icmp ugt i64 %410, %408
  br i1 %411, label %412, label %436

412:                                              ; preds = %394
  %413 = getelementptr inbounds %"class.assist_ranker::TranslateRankerModel_TranslateLogisticRegressionModel", %"class.assist_ranker::TranslateRankerModel_TranslateLogisticRegressionModel"* %0, i64 0, i32 5, i32 0, i32 0, i32 4
  %414 = load i8**, i8*** %413, align 8, !noalias !54
  br label %415

415:                                              ; preds = %433, %412
  %416 = phi i64 [ %408, %412 ], [ %434, %433 ]
  %417 = getelementptr inbounds i8*, i8** %414, i64 %416
  %418 = load i8*, i8** %417, align 8, !noalias !54
  %419 = icmp eq i8* %418, null
  br i1 %419, label %433, label %420

420:                                              ; preds = %415
  %421 = xor i64 %416, 1
  %422 = getelementptr inbounds i8*, i8** %414, i64 %421
  %423 = load i8*, i8** %422, align 8, !noalias !54
  %424 = icmp eq i8* %418, %423
  br i1 %424, label %427, label %425

425:                                              ; preds = %420
  %426 = ptrtoint i8* %418 to i64
  br label %439

427:                                              ; preds = %420
  %428 = bitcast i8* %418 to %"class.std::__1::__tree_end_node"**
  %429 = load %"class.std::__1::__tree_end_node"*, %"class.std::__1::__tree_end_node"** %428, align 8, !noalias !54
  %430 = getelementptr inbounds %"class.std::__1::__tree_end_node", %"class.std::__1::__tree_end_node"* %429, i64 5
  %431 = bitcast %"class.std::__1::__tree_end_node"* %430 to i64*
  %432 = load i64, i64* %431, align 8, !noalias !54
  br label %439

433:                                              ; preds = %415
  %434 = add i64 %416, 1
  %435 = icmp eq i64 %434, %410
  br i1 %435, label %436, label %415

436:                                              ; preds = %433, %394
  %437 = phi i64 [ %408, %394 ], [ %410, %433 ]
  %438 = bitcast %"class.google::protobuf::Map<std::__1::basic_string<char, std::__1::char_traits<char>, std::__1::allocator<char> >, float>::const_iterator"* %12 to i64*
  store i64 0, i64* %438, align 8, !alias.scope !59
  store %"class.google::protobuf::Map<std::__1::basic_string<char, std::__1::char_traits<char>, std::__1::allocator<char> >, float>::InnerMap"* %405, %"class.google::protobuf::Map<std::__1::basic_string<char, std::__1::char_traits<char>, std::__1::allocator<char> >, float>::InnerMap"** %403, align 8, !alias.scope !59
  store i64 %437, i64* %404, align 8, !alias.scope !59
  br label %446

439:                                              ; preds = %425, %427
  %440 = phi i64 [ %432, %427 ], [ %426, %425 ]
  %441 = bitcast %"class.google::protobuf::Map<std::__1::basic_string<char, std::__1::char_traits<char>, std::__1::allocator<char> >, float>::const_iterator"* %12 to i64*
  store i64 %440, i64* %441, align 8, !alias.scope !59
  store %"class.google::protobuf::Map<std::__1::basic_string<char, std::__1::char_traits<char>, std::__1::allocator<char> >, float>::InnerMap"* %405, %"class.google::protobuf::Map<std::__1::basic_string<char, std::__1::char_traits<char>, std::__1::allocator<char> >, float>::InnerMap"** %403, align 8, !alias.scope !59
  store i64 %416, i64* %404, align 8, !alias.scope !59
  %442 = icmp eq i64 %440, 0
  br i1 %442, label %446, label %443

443:                                              ; preds = %439
  %444 = inttoptr i64 %440 to %"struct.google::protobuf::Map<std::__1::basic_string<char, std::__1::char_traits<char>, std::__1::allocator<char> >, float>::InnerMap::Node"*
  %445 = getelementptr inbounds %"class.google::protobuf::Map<std::__1::basic_string<char, std::__1::char_traits<char>, std::__1::allocator<char> >, float>::const_iterator", %"class.google::protobuf::Map<std::__1::basic_string<char, std::__1::char_traits<char>, std::__1::allocator<char> >, float>::const_iterator"* %12, i64 0, i32 0
  br label %451

446:                                              ; preds = %451, %436, %439
  %447 = phi i64 [ 0, %439 ], [ 0, %436 ], [ %457, %451 ]
  call void @llvm.lifetime.end.p0i8(i64 24, i8* nonnull %401) #15
  %448 = getelementptr inbounds %"struct.google::protobuf::MapPair"*, %"struct.google::protobuf::MapPair"** %400, i64 %447
  %449 = getelementptr inbounds %"struct.google::protobuf::internal::CompareByDerefFirst", %"struct.google::protobuf::internal::CompareByDerefFirst"* %6, i64 0, i32 0
  call void @llvm.lifetime.start.p0i8(i64 1, i8* nonnull %449)
  call void @_ZNSt3__16__sortIRN6google8protobuf8internal19CompareByDerefFirstIPKNS2_7MapPairINS_12basic_stringIcNS_11char_traitsIcEENS_9allocatorIcEEEEfEEEEPSE_EEvT0_SI_T_(%"struct.google::protobuf::MapPair"** nonnull %400, %"struct.google::protobuf::MapPair"** %448, %"struct.google::protobuf::internal::CompareByDerefFirst"* nonnull dereferenceable(1) %6) #15
  call void @llvm.lifetime.end.p0i8(i64 1, i8* nonnull %449)
  %450 = icmp eq i64 %447, 0
  br i1 %450, label %460, label %462

451:                                              ; preds = %443, %451
  %452 = phi i64 [ 0, %443 ], [ %457, %451 ]
  %453 = phi %"struct.google::protobuf::Map<std::__1::basic_string<char, std::__1::char_traits<char>, std::__1::allocator<char> >, float>::InnerMap::Node"* [ %444, %443 ], [ %458, %451 ]
  %454 = getelementptr inbounds %"struct.google::protobuf::Map<std::__1::basic_string<char, std::__1::char_traits<char>, std::__1::allocator<char> >, float>::InnerMap::Node", %"struct.google::protobuf::Map<std::__1::basic_string<char, std::__1::char_traits<char>, std::__1::allocator<char> >, float>::InnerMap::Node"* %453, i64 0, i32 0
  %455 = getelementptr inbounds %"struct.google::protobuf::MapPair"*, %"struct.google::protobuf::MapPair"** %400, i64 %452
  store %"struct.google::protobuf::MapPair"* %454, %"struct.google::protobuf::MapPair"** %455, align 8
  %456 = call dereferenceable(24) %"class.google::protobuf::Map<std::__1::basic_string<char, std::__1::char_traits<char>, std::__1::allocator<char> >, float>::InnerMap::iterator_base"* @_ZN6google8protobuf3MapINSt3__112basic_stringIcNS2_11char_traitsIcEENS2_9allocatorIcEEEEfE8InnerMap13iterator_baseIKNS0_7MapPairIS8_fEEEppEv(%"class.google::protobuf::Map<std::__1::basic_string<char, std::__1::char_traits<char>, std::__1::allocator<char> >, float>::InnerMap::iterator_base"* nonnull %445) #15
  %457 = add i64 %452, 1
  %458 = load %"struct.google::protobuf::Map<std::__1::basic_string<char, std::__1::char_traits<char>, std::__1::allocator<char> >, float>::InnerMap::Node"*, %"struct.google::protobuf::Map<std::__1::basic_string<char, std::__1::char_traits<char>, std::__1::allocator<char> >, float>::InnerMap::Node"** %402, align 8
  %459 = icmp eq %"struct.google::protobuf::Map<std::__1::basic_string<char, std::__1::char_traits<char>, std::__1::allocator<char> >, float>::InnerMap::Node"* %458, null
  br i1 %459, label %446, label %451

460:                                              ; preds = %462, %446
  %461 = phi i8* [ %383, %446 ], [ %469, %462 ]
  call void @_ZdaPv(i8* nonnull %399) #16
  br label %529

462:                                              ; preds = %446, %462
  %463 = phi i64 [ %470, %462 ], [ 0, %446 ]
  %464 = phi i8* [ %469, %462 ], [ %383, %446 ]
  %465 = getelementptr inbounds %"struct.google::protobuf::MapPair"*, %"struct.google::protobuf::MapPair"** %400, i64 %463
  %466 = load %"struct.google::protobuf::MapPair"*, %"struct.google::protobuf::MapPair"** %465, align 8
  %467 = getelementptr inbounds %"struct.google::protobuf::MapPair", %"struct.google::protobuf::MapPair"* %466, i64 0, i32 0
  %468 = getelementptr inbounds %"struct.google::protobuf::MapPair", %"struct.google::protobuf::MapPair"* %466, i64 0, i32 1
  %469 = call i8* @_ZN6google8protobuf8internal13MapEntryFuncsINSt3__112basic_stringIcNS3_11char_traitsIcEENS3_9allocatorIcEEEEfLNS1_14WireFormatLite9FieldTypeE9ELSB_2EE17InternalSerializeEiRKS9_RKfPhPNS0_2io19EpsCopyOutputStreamE(i32 7, %"class.std::__1::basic_string"* dereferenceable(24) %467, float* dereferenceable(4) %468, i8* %464, %"class.google::protobuf::io::EpsCopyOutputStream"* %2)
  %470 = add nuw i64 %463, 1
  %471 = icmp eq i64 %470, %447
  br i1 %471, label %460, label %462

472:                                              ; preds = %388
  %473 = bitcast %"class.google::protobuf::Map<std::__1::basic_string<char, std::__1::char_traits<char>, std::__1::allocator<char> >, float>::const_iterator"* %13 to i8*
  call void @llvm.lifetime.start.p0i8(i64 24, i8* nonnull %473) #15
  %474 = getelementptr inbounds %"class.google::protobuf::Map<std::__1::basic_string<char, std::__1::char_traits<char>, std::__1::allocator<char> >, float>::const_iterator", %"class.google::protobuf::Map<std::__1::basic_string<char, std::__1::char_traits<char>, std::__1::allocator<char> >, float>::const_iterator"* %13, i64 0, i32 0, i32 0
  %475 = getelementptr inbounds %"class.google::protobuf::Map<std::__1::basic_string<char, std::__1::char_traits<char>, std::__1::allocator<char> >, float>::const_iterator", %"class.google::protobuf::Map<std::__1::basic_string<char, std::__1::char_traits<char>, std::__1::allocator<char> >, float>::const_iterator"* %13, i64 0, i32 0, i32 1
  %476 = getelementptr inbounds %"class.google::protobuf::Map<std::__1::basic_string<char, std::__1::char_traits<char>, std::__1::allocator<char> >, float>::const_iterator", %"class.google::protobuf::Map<std::__1::basic_string<char, std::__1::char_traits<char>, std::__1::allocator<char> >, float>::const_iterator"* %13, i64 0, i32 0, i32 2
  %477 = getelementptr inbounds %"class.google::protobuf::Map", %"class.google::protobuf::Map"* %384, i64 0, i32 0
  %478 = getelementptr inbounds %"class.assist_ranker::TranslateRankerModel_TranslateLogisticRegressionModel", %"class.assist_ranker::TranslateRankerModel_TranslateLogisticRegressionModel"* %0, i64 0, i32 5, i32 0, i32 0, i32 3
  %479 = bitcast %"class.google::protobuf::Map<std::__1::basic_string<char, std::__1::char_traits<char>, std::__1::allocator<char> >, float>::const_iterator"* %13 to i8*
  call void @llvm.memset.p0i8.i64(i8* nonnull align 8 %479, i8 -86, i64 24, i1 false)
  %480 = load i64, i64* %478, align 8, !noalias !60
  %481 = getelementptr inbounds %"class.assist_ranker::TranslateRankerModel_TranslateLogisticRegressionModel", %"class.assist_ranker::TranslateRankerModel_TranslateLogisticRegressionModel"* %0, i64 0, i32 5, i32 0, i32 0, i32 1
  %482 = load i64, i64* %481, align 8, !noalias !60
  %483 = icmp ugt i64 %482, %480
  br i1 %483, label %484, label %508

484:                                              ; preds = %472
  %485 = getelementptr inbounds %"class.assist_ranker::TranslateRankerModel_TranslateLogisticRegressionModel", %"class.assist_ranker::TranslateRankerModel_TranslateLogisticRegressionModel"* %0, i64 0, i32 5, i32 0, i32 0, i32 4
  %486 = load i8**, i8*** %485, align 8, !noalias !60
  br label %487

487:                                              ; preds = %505, %484
  %488 = phi i64 [ %480, %484 ], [ %506, %505 ]
  %489 = getelementptr inbounds i8*, i8** %486, i64 %488
  %490 = load i8*, i8** %489, align 8, !noalias !60
  %491 = icmp eq i8* %490, null
  br i1 %491, label %505, label %492

492:                                              ; preds = %487
  %493 = xor i64 %488, 1
  %494 = getelementptr inbounds i8*, i8** %486, i64 %493
  %495 = load i8*, i8** %494, align 8, !noalias !60
  %496 = icmp eq i8* %490, %495
  br i1 %496, label %499, label %497

497:                                              ; preds = %492
  %498 = ptrtoint i8* %490 to i64
  br label %511

499:                                              ; preds = %492
  %500 = bitcast i8* %490 to %"class.std::__1::__tree_end_node"**
  %501 = load %"class.std::__1::__tree_end_node"*, %"class.std::__1::__tree_end_node"** %500, align 8, !noalias !60
  %502 = getelementptr inbounds %"class.std::__1::__tree_end_node", %"class.std::__1::__tree_end_node"* %501, i64 5
  %503 = bitcast %"class.std::__1::__tree_end_node"* %502 to i64*
  %504 = load i64, i64* %503, align 8, !noalias !60
  br label %511

505:                                              ; preds = %487
  %506 = add i64 %488, 1
  %507 = icmp eq i64 %506, %482
  br i1 %507, label %508, label %487

508:                                              ; preds = %505, %472
  %509 = phi i64 [ %480, %472 ], [ %482, %505 ]
  %510 = bitcast %"class.google::protobuf::Map<std::__1::basic_string<char, std::__1::char_traits<char>, std::__1::allocator<char> >, float>::const_iterator"* %13 to i64*
  store i64 0, i64* %510, align 8, !alias.scope !65
  store %"class.google::protobuf::Map<std::__1::basic_string<char, std::__1::char_traits<char>, std::__1::allocator<char> >, float>::InnerMap"* %477, %"class.google::protobuf::Map<std::__1::basic_string<char, std::__1::char_traits<char>, std::__1::allocator<char> >, float>::InnerMap"** %475, align 8, !alias.scope !65
  store i64 %509, i64* %476, align 8, !alias.scope !65
  br label %518

511:                                              ; preds = %497, %499
  %512 = phi i64 [ %504, %499 ], [ %498, %497 ]
  %513 = bitcast %"class.google::protobuf::Map<std::__1::basic_string<char, std::__1::char_traits<char>, std::__1::allocator<char> >, float>::const_iterator"* %13 to i64*
  store i64 %512, i64* %513, align 8, !alias.scope !65
  store %"class.google::protobuf::Map<std::__1::basic_string<char, std::__1::char_traits<char>, std::__1::allocator<char> >, float>::InnerMap"* %477, %"class.google::protobuf::Map<std::__1::basic_string<char, std::__1::char_traits<char>, std::__1::allocator<char> >, float>::InnerMap"** %475, align 8, !alias.scope !65
  store i64 %488, i64* %476, align 8, !alias.scope !65
  %514 = icmp eq i64 %512, 0
  br i1 %514, label %518, label %515

515:                                              ; preds = %511
  %516 = inttoptr i64 %512 to %"struct.google::protobuf::Map<std::__1::basic_string<char, std::__1::char_traits<char>, std::__1::allocator<char> >, float>::InnerMap::Node"*
  %517 = getelementptr inbounds %"class.google::protobuf::Map<std::__1::basic_string<char, std::__1::char_traits<char>, std::__1::allocator<char> >, float>::const_iterator", %"class.google::protobuf::Map<std::__1::basic_string<char, std::__1::char_traits<char>, std::__1::allocator<char> >, float>::const_iterator"* %13, i64 0, i32 0
  br label %520

518:                                              ; preds = %520, %508, %511
  %519 = phi i8* [ %383, %511 ], [ %383, %508 ], [ %525, %520 ]
  call void @llvm.lifetime.end.p0i8(i64 24, i8* nonnull %473) #15
  br label %529

520:                                              ; preds = %515, %520
  %521 = phi i8* [ %383, %515 ], [ %525, %520 ]
  %522 = phi %"struct.google::protobuf::Map<std::__1::basic_string<char, std::__1::char_traits<char>, std::__1::allocator<char> >, float>::InnerMap::Node"* [ %516, %515 ], [ %527, %520 ]
  %523 = getelementptr inbounds %"struct.google::protobuf::Map<std::__1::basic_string<char, std::__1::char_traits<char>, std::__1::allocator<char> >, float>::InnerMap::Node", %"struct.google::protobuf::Map<std::__1::basic_string<char, std::__1::char_traits<char>, std::__1::allocator<char> >, float>::InnerMap::Node"* %522, i64 0, i32 0, i32 0
  %524 = getelementptr inbounds %"struct.google::protobuf::Map<std::__1::basic_string<char, std::__1::char_traits<char>, std::__1::allocator<char> >, float>::InnerMap::Node", %"struct.google::protobuf::Map<std::__1::basic_string<char, std::__1::char_traits<char>, std::__1::allocator<char> >, float>::InnerMap::Node"* %522, i64 0, i32 0, i32 1
  %525 = call i8* @_ZN6google8protobuf8internal13MapEntryFuncsINSt3__112basic_stringIcNS3_11char_traitsIcEENS3_9allocatorIcEEEEfLNS1_14WireFormatLite9FieldTypeE9ELSB_2EE17InternalSerializeEiRKS9_RKfPhPNS0_2io19EpsCopyOutputStreamE(i32 7, %"class.std::__1::basic_string"* dereferenceable(24) %523, float* dereferenceable(4) %524, i8* %521, %"class.google::protobuf::io::EpsCopyOutputStream"* %2)
  %526 = call dereferenceable(24) %"class.google::protobuf::Map<std::__1::basic_string<char, std::__1::char_traits<char>, std::__1::allocator<char> >, float>::InnerMap::iterator_base"* @_ZN6google8protobuf3MapINSt3__112basic_stringIcNS2_11char_traitsIcEENS2_9allocatorIcEEEEfE8InnerMap13iterator_baseIKNS0_7MapPairIS8_fEEEppEv(%"class.google::protobuf::Map<std::__1::basic_string<char, std::__1::char_traits<char>, std::__1::allocator<char> >, float>::InnerMap::iterator_base"* nonnull %517) #15
  %527 = load %"struct.google::protobuf::Map<std::__1::basic_string<char, std::__1::char_traits<char>, std::__1::allocator<char> >, float>::InnerMap::Node"*, %"struct.google::protobuf::Map<std::__1::basic_string<char, std::__1::char_traits<char>, std::__1::allocator<char> >, float>::InnerMap::Node"** %474, align 8
  %528 = icmp eq %"struct.google::protobuf::Map<std::__1::basic_string<char, std::__1::char_traits<char>, std::__1::allocator<char> >, float>::InnerMap::Node"* %527, null
  br i1 %528, label %518, label %520

529:                                              ; preds = %460, %518, %382
  %530 = phi i8* [ %383, %382 ], [ %461, %460 ], [ %519, %518 ]
  %531 = getelementptr inbounds %"class.assist_ranker::TranslateRankerModel_TranslateLogisticRegressionModel", %"class.assist_ranker::TranslateRankerModel_TranslateLogisticRegressionModel"* %0, i64 0, i32 6, i32 0
  %532 = getelementptr inbounds %"class.google::protobuf::Map", %"class.google::protobuf::Map"* %531, i64 0, i32 0, i32 0
  %533 = load i64, i64* %532, align 8
  %534 = icmp eq i64 %533, 0
  br i1 %534, label %676, label %535

535:                                              ; preds = %529
  %536 = getelementptr inbounds %"class.google::protobuf::io::EpsCopyOutputStream", %"class.google::protobuf::io::EpsCopyOutputStream"* %2, i64 0, i32 6
  %537 = load i8, i8* %536, align 2, !range !29
  %538 = icmp ne i8 %537, 0
  %539 = icmp ne i64 %533, 1
  %540 = and i1 %539, %538
  br i1 %540, label %541, label %619

541:                                              ; preds = %535
  %542 = call { i64, i1 } @llvm.umul.with.overflow.i64(i64 %533, i64 8)
  %543 = extractvalue { i64, i1 } %542, 1
  %544 = extractvalue { i64, i1 } %542, 0
  %545 = select i1 %543, i64 -1, i64 %544
  %546 = call i8* @_Znam(i64 %545) #16
  %547 = bitcast i8* %546 to %"struct.google::protobuf::MapPair"**
  %548 = bitcast %"class.google::protobuf::Map<std::__1::basic_string<char, std::__1::char_traits<char>, std::__1::allocator<char> >, float>::const_iterator"* %14 to i8*
  call void @llvm.lifetime.start.p0i8(i64 24, i8* nonnull %548) #15
  %549 = getelementptr inbounds %"class.google::protobuf::Map<std::__1::basic_string<char, std::__1::char_traits<char>, std::__1::allocator<char> >, float>::const_iterator", %"class.google::protobuf::Map<std::__1::basic_string<char, std::__1::char_traits<char>, std::__1::allocator<char> >, float>::const_iterator"* %14, i64 0, i32 0, i32 0
  %550 = getelementptr inbounds %"class.google::protobuf::Map<std::__1::basic_string<char, std::__1::char_traits<char>, std::__1::allocator<char> >, float>::const_iterator", %"class.google::protobuf::Map<std::__1::basic_string<char, std::__1::char_traits<char>, std::__1::allocator<char> >, float>::const_iterator"* %14, i64 0, i32 0, i32 1
  %551 = getelementptr inbounds %"class.google::protobuf::Map<std::__1::basic_string<char, std::__1::char_traits<char>, std::__1::allocator<char> >, float>::const_iterator", %"class.google::protobuf::Map<std::__1::basic_string<char, std::__1::char_traits<char>, std::__1::allocator<char> >, float>::const_iterator"* %14, i64 0, i32 0, i32 2
  %552 = getelementptr inbounds %"class.google::protobuf::Map", %"class.google::protobuf::Map"* %531, i64 0, i32 0
  %553 = getelementptr inbounds %"class.assist_ranker::TranslateRankerModel_TranslateLogisticRegressionModel", %"class.assist_ranker::TranslateRankerModel_TranslateLogisticRegressionModel"* %0, i64 0, i32 6, i32 0, i32 0, i32 3
  %554 = bitcast %"class.google::protobuf::Map<std::__1::basic_string<char, std::__1::char_traits<char>, std::__1::allocator<char> >, float>::const_iterator"* %14 to i8*
  call void @llvm.memset.p0i8.i64(i8* nonnull align 8 %554, i8 -86, i64 24, i1 false)
  %555 = load i64, i64* %553, align 8, !noalias !66
  %556 = getelementptr inbounds %"class.assist_ranker::TranslateRankerModel_TranslateLogisticRegressionModel", %"class.assist_ranker::TranslateRankerModel_TranslateLogisticRegressionModel"* %0, i64 0, i32 6, i32 0, i32 0, i32 1
  %557 = load i64, i64* %556, align 8, !noalias !66
  %558 = icmp ugt i64 %557, %555
  br i1 %558, label %559, label %583

559:                                              ; preds = %541
  %560 = getelementptr inbounds %"class.assist_ranker::TranslateRankerModel_TranslateLogisticRegressionModel", %"class.assist_ranker::TranslateRankerModel_TranslateLogisticRegressionModel"* %0, i64 0, i32 6, i32 0, i32 0, i32 4
  %561 = load i8**, i8*** %560, align 8, !noalias !66
  br label %562

562:                                              ; preds = %580, %559
  %563 = phi i64 [ %555, %559 ], [ %581, %580 ]
  %564 = getelementptr inbounds i8*, i8** %561, i64 %563
  %565 = load i8*, i8** %564, align 8, !noalias !66
  %566 = icmp eq i8* %565, null
  br i1 %566, label %580, label %567

567:                                              ; preds = %562
  %568 = xor i64 %563, 1
  %569 = getelementptr inbounds i8*, i8** %561, i64 %568
  %570 = load i8*, i8** %569, align 8, !noalias !66
  %571 = icmp eq i8* %565, %570
  br i1 %571, label %574, label %572

572:                                              ; preds = %567
  %573 = ptrtoint i8* %565 to i64
  br label %586

574:                                              ; preds = %567
  %575 = bitcast i8* %565 to %"class.std::__1::__tree_end_node"**
  %576 = load %"class.std::__1::__tree_end_node"*, %"class.std::__1::__tree_end_node"** %575, align 8, !noalias !66
  %577 = getelementptr inbounds %"class.std::__1::__tree_end_node", %"class.std::__1::__tree_end_node"* %576, i64 5
  %578 = bitcast %"class.std::__1::__tree_end_node"* %577 to i64*
  %579 = load i64, i64* %578, align 8, !noalias !66
  br label %586

580:                                              ; preds = %562
  %581 = add i64 %563, 1
  %582 = icmp eq i64 %581, %557
  br i1 %582, label %583, label %562

583:                                              ; preds = %580, %541
  %584 = phi i64 [ %555, %541 ], [ %557, %580 ]
  %585 = bitcast %"class.google::protobuf::Map<std::__1::basic_string<char, std::__1::char_traits<char>, std::__1::allocator<char> >, float>::const_iterator"* %14 to i64*
  store i64 0, i64* %585, align 8, !alias.scope !71
  store %"class.google::protobuf::Map<std::__1::basic_string<char, std::__1::char_traits<char>, std::__1::allocator<char> >, float>::InnerMap"* %552, %"class.google::protobuf::Map<std::__1::basic_string<char, std::__1::char_traits<char>, std::__1::allocator<char> >, float>::InnerMap"** %550, align 8, !alias.scope !71
  store i64 %584, i64* %551, align 8, !alias.scope !71
  br label %593

586:                                              ; preds = %572, %574
  %587 = phi i64 [ %579, %574 ], [ %573, %572 ]
  %588 = bitcast %"class.google::protobuf::Map<std::__1::basic_string<char, std::__1::char_traits<char>, std::__1::allocator<char> >, float>::const_iterator"* %14 to i64*
  store i64 %587, i64* %588, align 8, !alias.scope !71
  store %"class.google::protobuf::Map<std::__1::basic_string<char, std::__1::char_traits<char>, std::__1::allocator<char> >, float>::InnerMap"* %552, %"class.google::protobuf::Map<std::__1::basic_string<char, std::__1::char_traits<char>, std::__1::allocator<char> >, float>::InnerMap"** %550, align 8, !alias.scope !71
  store i64 %563, i64* %551, align 8, !alias.scope !71
  %589 = icmp eq i64 %587, 0
  br i1 %589, label %593, label %590

590:                                              ; preds = %586
  %591 = inttoptr i64 %587 to %"struct.google::protobuf::Map<std::__1::basic_string<char, std::__1::char_traits<char>, std::__1::allocator<char> >, float>::InnerMap::Node"*
  %592 = getelementptr inbounds %"class.google::protobuf::Map<std::__1::basic_string<char, std::__1::char_traits<char>, std::__1::allocator<char> >, float>::const_iterator", %"class.google::protobuf::Map<std::__1::basic_string<char, std::__1::char_traits<char>, std::__1::allocator<char> >, float>::const_iterator"* %14, i64 0, i32 0
  br label %598

593:                                              ; preds = %598, %583, %586
  %594 = phi i64 [ 0, %586 ], [ 0, %583 ], [ %604, %598 ]
  call void @llvm.lifetime.end.p0i8(i64 24, i8* nonnull %548) #15
  %595 = getelementptr inbounds %"struct.google::protobuf::MapPair"*, %"struct.google::protobuf::MapPair"** %547, i64 %594
  %596 = getelementptr inbounds %"struct.google::protobuf::internal::CompareByDerefFirst", %"struct.google::protobuf::internal::CompareByDerefFirst"* %7, i64 0, i32 0
  call void @llvm.lifetime.start.p0i8(i64 1, i8* nonnull %596)
  call void @_ZNSt3__16__sortIRN6google8protobuf8internal19CompareByDerefFirstIPKNS2_7MapPairINS_12basic_stringIcNS_11char_traitsIcEENS_9allocatorIcEEEEfEEEEPSE_EEvT0_SI_T_(%"struct.google::protobuf::MapPair"** nonnull %547, %"struct.google::protobuf::MapPair"** %595, %"struct.google::protobuf::internal::CompareByDerefFirst"* nonnull dereferenceable(1) %7) #15
  call void @llvm.lifetime.end.p0i8(i64 1, i8* nonnull %596)
  %597 = icmp eq i64 %594, 0
  br i1 %597, label %607, label %609

598:                                              ; preds = %590, %598
  %599 = phi i64 [ 0, %590 ], [ %604, %598 ]
  %600 = phi %"struct.google::protobuf::Map<std::__1::basic_string<char, std::__1::char_traits<char>, std::__1::allocator<char> >, float>::InnerMap::Node"* [ %591, %590 ], [ %605, %598 ]
  %601 = getelementptr inbounds %"struct.google::protobuf::Map<std::__1::basic_string<char, std::__1::char_traits<char>, std::__1::allocator<char> >, float>::InnerMap::Node", %"struct.google::protobuf::Map<std::__1::basic_string<char, std::__1::char_traits<char>, std::__1::allocator<char> >, float>::InnerMap::Node"* %600, i64 0, i32 0
  %602 = getelementptr inbounds %"struct.google::protobuf::MapPair"*, %"struct.google::protobuf::MapPair"** %547, i64 %599
  store %"struct.google::protobuf::MapPair"* %601, %"struct.google::protobuf::MapPair"** %602, align 8
  %603 = call dereferenceable(24) %"class.google::protobuf::Map<std::__1::basic_string<char, std::__1::char_traits<char>, std::__1::allocator<char> >, float>::InnerMap::iterator_base"* @_ZN6google8protobuf3MapINSt3__112basic_stringIcNS2_11char_traitsIcEENS2_9allocatorIcEEEEfE8InnerMap13iterator_baseIKNS0_7MapPairIS8_fEEEppEv(%"class.google::protobuf::Map<std::__1::basic_string<char, std::__1::char_traits<char>, std::__1::allocator<char> >, float>::InnerMap::iterator_base"* nonnull %592) #15
  %604 = add i64 %599, 1
  %605 = load %"struct.google::protobuf::Map<std::__1::basic_string<char, std::__1::char_traits<char>, std::__1::allocator<char> >, float>::InnerMap::Node"*, %"struct.google::protobuf::Map<std::__1::basic_string<char, std::__1::char_traits<char>, std::__1::allocator<char> >, float>::InnerMap::Node"** %549, align 8
  %606 = icmp eq %"struct.google::protobuf::Map<std::__1::basic_string<char, std::__1::char_traits<char>, std::__1::allocator<char> >, float>::InnerMap::Node"* %605, null
  br i1 %606, label %593, label %598

607:                                              ; preds = %609, %593
  %608 = phi i8* [ %530, %593 ], [ %616, %609 ]
  call void @_ZdaPv(i8* nonnull %546) #16
  br label %676

609:                                              ; preds = %593, %609
  %610 = phi i64 [ %617, %609 ], [ 0, %593 ]
  %611 = phi i8* [ %616, %609 ], [ %530, %593 ]
  %612 = getelementptr inbounds %"struct.google::protobuf::MapPair"*, %"struct.google::protobuf::MapPair"** %547, i64 %610
  %613 = load %"struct.google::protobuf::MapPair"*, %"struct.google::protobuf::MapPair"** %612, align 8
  %614 = getelementptr inbounds %"struct.google::protobuf::MapPair", %"struct.google::protobuf::MapPair"* %613, i64 0, i32 0
  %615 = getelementptr inbounds %"struct.google::protobuf::MapPair", %"struct.google::protobuf::MapPair"* %613, i64 0, i32 1
  %616 = call i8* @_ZN6google8protobuf8internal13MapEntryFuncsINSt3__112basic_stringIcNS3_11char_traitsIcEENS3_9allocatorIcEEEEfLNS1_14WireFormatLite9FieldTypeE9ELSB_2EE17InternalSerializeEiRKS9_RKfPhPNS0_2io19EpsCopyOutputStreamE(i32 8, %"class.std::__1::basic_string"* dereferenceable(24) %614, float* dereferenceable(4) %615, i8* %611, %"class.google::protobuf::io::EpsCopyOutputStream"* %2)
  %617 = add nuw i64 %610, 1
  %618 = icmp eq i64 %617, %594
  br i1 %618, label %607, label %609

619:                                              ; preds = %535
  %620 = bitcast %"class.google::protobuf::Map<std::__1::basic_string<char, std::__1::char_traits<char>, std::__1::allocator<char> >, float>::const_iterator"* %15 to i8*
  call void @llvm.lifetime.start.p0i8(i64 24, i8* nonnull %620) #15
  %621 = getelementptr inbounds %"class.google::protobuf::Map<std::__1::basic_string<char, std::__1::char_traits<char>, std::__1::allocator<char> >, float>::const_iterator", %"class.google::protobuf::Map<std::__1::basic_string<char, std::__1::char_traits<char>, std::__1::allocator<char> >, float>::const_iterator"* %15, i64 0, i32 0, i32 0
  %622 = getelementptr inbounds %"class.google::protobuf::Map<std::__1::basic_string<char, std::__1::char_traits<char>, std::__1::allocator<char> >, float>::const_iterator", %"class.google::protobuf::Map<std::__1::basic_string<char, std::__1::char_traits<char>, std::__1::allocator<char> >, float>::const_iterator"* %15, i64 0, i32 0, i32 1
  %623 = getelementptr inbounds %"class.google::protobuf::Map<std::__1::basic_string<char, std::__1::char_traits<char>, std::__1::allocator<char> >, float>::const_iterator", %"class.google::protobuf::Map<std::__1::basic_string<char, std::__1::char_traits<char>, std::__1::allocator<char> >, float>::const_iterator"* %15, i64 0, i32 0, i32 2
  %624 = getelementptr inbounds %"class.google::protobuf::Map", %"class.google::protobuf::Map"* %531, i64 0, i32 0
  %625 = getelementptr inbounds %"class.assist_ranker::TranslateRankerModel_TranslateLogisticRegressionModel", %"class.assist_ranker::TranslateRankerModel_TranslateLogisticRegressionModel"* %0, i64 0, i32 6, i32 0, i32 0, i32 3
  %626 = bitcast %"class.google::protobuf::Map<std::__1::basic_string<char, std::__1::char_traits<char>, std::__1::allocator<char> >, float>::const_iterator"* %15 to i8*
  call void @llvm.memset.p0i8.i64(i8* nonnull align 8 %626, i8 -86, i64 24, i1 false)
  %627 = load i64, i64* %625, align 8, !noalias !72
  %628 = getelementptr inbounds %"class.assist_ranker::TranslateRankerModel_TranslateLogisticRegressionModel", %"class.assist_ranker::TranslateRankerModel_TranslateLogisticRegressionModel"* %0, i64 0, i32 6, i32 0, i32 0, i32 1
  %629 = load i64, i64* %628, align 8, !noalias !72
  %630 = icmp ugt i64 %629, %627
  br i1 %630, label %631, label %655

631:                                              ; preds = %619
  %632 = getelementptr inbounds %"class.assist_ranker::TranslateRankerModel_TranslateLogisticRegressionModel", %"class.assist_ranker::TranslateRankerModel_TranslateLogisticRegressionModel"* %0, i64 0, i32 6, i32 0, i32 0, i32 4
  %633 = load i8**, i8*** %632, align 8, !noalias !72
  br label %634

634:                                              ; preds = %652, %631
  %635 = phi i64 [ %627, %631 ], [ %653, %652 ]
  %636 = getelementptr inbounds i8*, i8** %633, i64 %635
  %637 = load i8*, i8** %636, align 8, !noalias !72
  %638 = icmp eq i8* %637, null
  br i1 %638, label %652, label %639

639:                                              ; preds = %634
  %640 = xor i64 %635, 1
  %641 = getelementptr inbounds i8*, i8** %633, i64 %640
  %642 = load i8*, i8** %641, align 8, !noalias !72
  %643 = icmp eq i8* %637, %642
  br i1 %643, label %646, label %644

644:                                              ; preds = %639
  %645 = ptrtoint i8* %637 to i64
  br label %658

646:                                              ; preds = %639
  %647 = bitcast i8* %637 to %"class.std::__1::__tree_end_node"**
  %648 = load %"class.std::__1::__tree_end_node"*, %"class.std::__1::__tree_end_node"** %647, align 8, !noalias !72
  %649 = getelementptr inbounds %"class.std::__1::__tree_end_node", %"class.std::__1::__tree_end_node"* %648, i64 5
  %650 = bitcast %"class.std::__1::__tree_end_node"* %649 to i64*
  %651 = load i64, i64* %650, align 8, !noalias !72
  br label %658

652:                                              ; preds = %634
  %653 = add i64 %635, 1
  %654 = icmp eq i64 %653, %629
  br i1 %654, label %655, label %634

655:                                              ; preds = %652, %619
  %656 = phi i64 [ %627, %619 ], [ %629, %652 ]
  %657 = bitcast %"class.google::protobuf::Map<std::__1::basic_string<char, std::__1::char_traits<char>, std::__1::allocator<char> >, float>::const_iterator"* %15 to i64*
  store i64 0, i64* %657, align 8, !alias.scope !77
  store %"class.google::protobuf::Map<std::__1::basic_string<char, std::__1::char_traits<char>, std::__1::allocator<char> >, float>::InnerMap"* %624, %"class.google::protobuf::Map<std::__1::basic_string<char, std::__1::char_traits<char>, std::__1::allocator<char> >, float>::InnerMap"** %622, align 8, !alias.scope !77
  store i64 %656, i64* %623, align 8, !alias.scope !77
  br label %665

658:                                              ; preds = %644, %646
  %659 = phi i64 [ %651, %646 ], [ %645, %644 ]
  %660 = bitcast %"class.google::protobuf::Map<std::__1::basic_string<char, std::__1::char_traits<char>, std::__1::allocator<char> >, float>::const_iterator"* %15 to i64*
  store i64 %659, i64* %660, align 8, !alias.scope !77
  store %"class.google::protobuf::Map<std::__1::basic_string<char, std::__1::char_traits<char>, std::__1::allocator<char> >, float>::InnerMap"* %624, %"class.google::protobuf::Map<std::__1::basic_string<char, std::__1::char_traits<char>, std::__1::allocator<char> >, float>::InnerMap"** %622, align 8, !alias.scope !77
  store i64 %635, i64* %623, align 8, !alias.scope !77
  %661 = icmp eq i64 %659, 0
  br i1 %661, label %665, label %662

662:                                              ; preds = %658
  %663 = inttoptr i64 %659 to %"struct.google::protobuf::Map<std::__1::basic_string<char, std::__1::char_traits<char>, std::__1::allocator<char> >, float>::InnerMap::Node"*
  %664 = getelementptr inbounds %"class.google::protobuf::Map<std::__1::basic_string<char, std::__1::char_traits<char>, std::__1::allocator<char> >, float>::const_iterator", %"class.google::protobuf::Map<std::__1::basic_string<char, std::__1::char_traits<char>, std::__1::allocator<char> >, float>::const_iterator"* %15, i64 0, i32 0
  br label %667

665:                                              ; preds = %667, %655, %658
  %666 = phi i8* [ %530, %658 ], [ %530, %655 ], [ %672, %667 ]
  call void @llvm.lifetime.end.p0i8(i64 24, i8* nonnull %620) #15
  br label %676

667:                                              ; preds = %662, %667
  %668 = phi i8* [ %530, %662 ], [ %672, %667 ]
  %669 = phi %"struct.google::protobuf::Map<std::__1::basic_string<char, std::__1::char_traits<char>, std::__1::allocator<char> >, float>::InnerMap::Node"* [ %663, %662 ], [ %674, %667 ]
  %670 = getelementptr inbounds %"struct.google::protobuf::Map<std::__1::basic_string<char, std::__1::char_traits<char>, std::__1::allocator<char> >, float>::InnerMap::Node", %"struct.google::protobuf::Map<std::__1::basic_string<char, std::__1::char_traits<char>, std::__1::allocator<char> >, float>::InnerMap::Node"* %669, i64 0, i32 0, i32 0
  %671 = getelementptr inbounds %"struct.google::protobuf::Map<std::__1::basic_string<char, std::__1::char_traits<char>, std::__1::allocator<char> >, float>::InnerMap::Node", %"struct.google::protobuf::Map<std::__1::basic_string<char, std::__1::char_traits<char>, std::__1::allocator<char> >, float>::InnerMap::Node"* %669, i64 0, i32 0, i32 1
  %672 = call i8* @_ZN6google8protobuf8internal13MapEntryFuncsINSt3__112basic_stringIcNS3_11char_traitsIcEENS3_9allocatorIcEEEEfLNS1_14WireFormatLite9FieldTypeE9ELSB_2EE17InternalSerializeEiRKS9_RKfPhPNS0_2io19EpsCopyOutputStreamE(i32 8, %"class.std::__1::basic_string"* dereferenceable(24) %670, float* dereferenceable(4) %671, i8* %668, %"class.google::protobuf::io::EpsCopyOutputStream"* %2)
  %673 = call dereferenceable(24) %"class.google::protobuf::Map<std::__1::basic_string<char, std::__1::char_traits<char>, std::__1::allocator<char> >, float>::InnerMap::iterator_base"* @_ZN6google8protobuf3MapINSt3__112basic_stringIcNS2_11char_traitsIcEENS2_9allocatorIcEEEEfE8InnerMap13iterator_baseIKNS0_7MapPairIS8_fEEEppEv(%"class.google::protobuf::Map<std::__1::basic_string<char, std::__1::char_traits<char>, std::__1::allocator<char> >, float>::InnerMap::iterator_base"* nonnull %664) #15
  %674 = load %"struct.google::protobuf::Map<std::__1::basic_string<char, std::__1::char_traits<char>, std::__1::allocator<char> >, float>::InnerMap::Node"*, %"struct.google::protobuf::Map<std::__1::basic_string<char, std::__1::char_traits<char>, std::__1::allocator<char> >, float>::InnerMap::Node"** %621, align 8
  %675 = icmp eq %"struct.google::protobuf::Map<std::__1::basic_string<char, std::__1::char_traits<char>, std::__1::allocator<char> >, float>::InnerMap::Node"* %674, null
  br i1 %675, label %665, label %667

676:                                              ; preds = %607, %665, %529
  %677 = phi i8* [ %530, %529 ], [ %608, %607 ], [ %666, %665 ]
  %678 = and i32 %17, 16
  %679 = icmp eq i32 %678, 0
  br i1 %679, label %694, label %680

680:                                              ; preds = %676
  %681 = getelementptr inbounds %"class.google::protobuf::io::EpsCopyOutputStream", %"class.google::protobuf::io::EpsCopyOutputStream"* %2, i64 0, i32 0
  %682 = load i8*, i8** %681, align 8
  %683 = icmp ugt i8* %682, %677
  br i1 %683, label %686, label %684, !prof !2

684:                                              ; preds = %680
  %685 = call i8* @_ZN6google8protobuf2io19EpsCopyOutputStream19EnsureSpaceFallbackEPh(%"class.google::protobuf::io::EpsCopyOutputStream"* %2, i8* %677) #15
  br label %686

686:                                              ; preds = %680, %684
  %687 = phi i8* [ %685, %684 ], [ %677, %680 ]
  %688 = getelementptr inbounds %"class.assist_ranker::TranslateRankerModel_TranslateLogisticRegressionModel", %"class.assist_ranker::TranslateRankerModel_TranslateLogisticRegressionModel"* %0, i64 0, i32 11
  %689 = bitcast float* %688 to i32*
  %690 = load i32, i32* %689, align 8
  store i8 77, i8* %687, align 1
  %691 = getelementptr inbounds i8, i8* %687, i64 1
  %692 = bitcast i8* %691 to i32*
  store i32 %690, i32* %692, align 1
  %693 = getelementptr inbounds i8, i8* %687, i64 5
  br label %694

694:                                              ; preds = %676, %686
  %695 = phi i8* [ %693, %686 ], [ %677, %676 ]
  %696 = and i32 %17, 32
  %697 = icmp eq i32 %696, 0
  br i1 %697, label %712, label %698

698:                                              ; preds = %694
  %699 = getelementptr inbounds %"class.google::protobuf::io::EpsCopyOutputStream", %"class.google::protobuf::io::EpsCopyOutputStream"* %2, i64 0, i32 0
  %700 = load i8*, i8** %699, align 8
  %701 = icmp ugt i8* %700, %695
  br i1 %701, label %704, label %702, !prof !2

702:                                              ; preds = %698
  %703 = call i8* @_ZN6google8protobuf2io19EpsCopyOutputStream19EnsureSpaceFallbackEPh(%"class.google::protobuf::io::EpsCopyOutputStream"* %2, i8* %695) #15
  br label %704

704:                                              ; preds = %698, %702
  %705 = phi i8* [ %703, %702 ], [ %695, %698 ]
  %706 = getelementptr inbounds %"class.assist_ranker::TranslateRankerModel_TranslateLogisticRegressionModel", %"class.assist_ranker::TranslateRankerModel_TranslateLogisticRegressionModel"* %0, i64 0, i32 12
  %707 = bitcast float* %706 to i32*
  %708 = load i32, i32* %707, align 4
  store i8 85, i8* %705, align 1
  %709 = getelementptr inbounds i8, i8* %705, i64 1
  %710 = bitcast i8* %709 to i32*
  store i32 %708, i32* %710, align 1
  %711 = getelementptr inbounds i8, i8* %705, i64 5
  br label %712

712:                                              ; preds = %694, %704
  %713 = phi i8* [ %711, %704 ], [ %695, %694 ]
  %714 = and i32 %17, 64
  %715 = icmp eq i32 %714, 0
  br i1 %715, label %730, label %716

716:                                              ; preds = %712
  %717 = getelementptr inbounds %"class.google::protobuf::io::EpsCopyOutputStream", %"class.google::protobuf::io::EpsCopyOutputStream"* %2, i64 0, i32 0
  %718 = load i8*, i8** %717, align 8
  %719 = icmp ugt i8* %718, %713
  br i1 %719, label %722, label %720, !prof !2

720:                                              ; preds = %716
  %721 = call i8* @_ZN6google8protobuf2io19EpsCopyOutputStream19EnsureSpaceFallbackEPh(%"class.google::protobuf::io::EpsCopyOutputStream"* %2, i8* %713) #15
  br label %722

722:                                              ; preds = %716, %720
  %723 = phi i8* [ %721, %720 ], [ %713, %716 ]
  %724 = getelementptr inbounds %"class.assist_ranker::TranslateRankerModel_TranslateLogisticRegressionModel", %"class.assist_ranker::TranslateRankerModel_TranslateLogisticRegressionModel"* %0, i64 0, i32 13
  %725 = bitcast float* %724 to i32*
  %726 = load i32, i32* %725, align 8
  store i8 93, i8* %723, align 1
  %727 = getelementptr inbounds i8, i8* %723, i64 1
  %728 = bitcast i8* %727 to i32*
  store i32 %726, i32* %728, align 1
  %729 = getelementptr inbounds i8, i8* %723, i64 5
  br label %730

730:                                              ; preds = %712, %722
  %731 = phi i8* [ %729, %722 ], [ %713, %712 ]
  %732 = trunc i32 %17 to i8
  %733 = icmp slt i8 %732, 0
  br i1 %733, label %734, label %748

734:                                              ; preds = %730
  %735 = getelementptr inbounds %"class.google::protobuf::io::EpsCopyOutputStream", %"class.google::protobuf::io::EpsCopyOutputStream"* %2, i64 0, i32 0
  %736 = load i8*, i8** %735, align 8
  %737 = icmp ugt i8* %736, %731
  br i1 %737, label %740, label %738, !prof !2

738:                                              ; preds = %734
  %739 = call i8* @_ZN6google8protobuf2io19EpsCopyOutputStream19EnsureSpaceFallbackEPh(%"class.google::protobuf::io::EpsCopyOutputStream"* %2, i8* %731) #15
  br label %740

740:                                              ; preds = %734, %738
  %741 = phi i8* [ %739, %738 ], [ %731, %734 ]
  %742 = getelementptr inbounds %"class.assist_ranker::TranslateRankerModel_TranslateLogisticRegressionModel", %"class.assist_ranker::TranslateRankerModel_TranslateLogisticRegressionModel"* %0, i64 0, i32 14
  %743 = bitcast float* %742 to i32*
  %744 = load i32, i32* %743, align 4
  store i8 101, i8* %741, align 1
  %745 = getelementptr inbounds i8, i8* %741, i64 1
  %746 = bitcast i8* %745 to i32*
  store i32 %744, i32* %746, align 1
  %747 = getelementptr inbounds i8, i8* %741, i64 5
  br label %748

748:                                              ; preds = %740, %730
  %749 = phi i8* [ %747, %740 ], [ %731, %730 ]
  %750 = getelementptr inbounds %"class.assist_ranker::TranslateRankerModel_TranslateLogisticRegressionModel", %"class.assist_ranker::TranslateRankerModel_TranslateLogisticRegressionModel"* %0, i64 0, i32 0, i32 1
  %751 = bitcast %"class.google::protobuf::internal::InternalMetadata"* %750 to i64*
  %752 = load i64, i64* %751, align 8
  %753 = and i64 %752, 1
  %754 = icmp eq i64 %753, 0
  br i1 %754, label %786, label %755, !prof !2

755:                                              ; preds = %748
  %756 = and i64 %752, -2
  %757 = inttoptr i64 %756 to %"struct.google::protobuf::internal::InternalMetadata::Container"*
  %758 = getelementptr inbounds %"struct.google::protobuf::internal::InternalMetadata::Container", %"struct.google::protobuf::internal::InternalMetadata::Container"* %757, i64 0, i32 1
  %759 = bitcast %"class.std::__1::basic_string"* %758 to %"struct.std::__1::basic_string<char, std::__1::char_traits<char>, std::__1::allocator<char> >::__short"*
  %760 = getelementptr inbounds %"struct.std::__1::basic_string<char, std::__1::char_traits<char>, std::__1::allocator<char> >::__short", %"struct.std::__1::basic_string<char, std::__1::char_traits<char>, std::__1::allocator<char> >::__short"* %759, i64 0, i32 1, i32 0
  %761 = load i8, i8* %760, align 1
  %762 = icmp slt i8 %761, 0
  br i1 %762, label %763, label %768

763:                                              ; preds = %755
  %764 = getelementptr inbounds %"class.std::__1::basic_string", %"class.std::__1::basic_string"* %758, i64 0, i32 0, i32 0, i32 0, i32 0, i32 0, i32 0
  %765 = load i8*, i8** %764, align 8
  %766 = getelementptr inbounds %"struct.google::protobuf::internal::InternalMetadata::Container", %"struct.google::protobuf::internal::InternalMetadata::Container"* %757, i64 0, i32 1, i32 0, i32 0, i32 0, i32 0, i32 0, i32 1
  %767 = load i64, i64* %766, align 8
  br label %771

768:                                              ; preds = %755
  %769 = bitcast %"class.std::__1::basic_string"* %758 to i8*
  %770 = zext i8 %761 to i64
  br label %771

771:                                              ; preds = %763, %768
  %772 = phi i8* [ %765, %763 ], [ %769, %768 ]
  %773 = phi i64 [ %767, %763 ], [ %770, %768 ]
  %774 = bitcast %"class.google::protobuf::io::EpsCopyOutputStream"* %2 to i64*
  %775 = load i64, i64* %774, align 8
  %776 = ptrtoint i8* %749 to i64
  %777 = sub i64 %775, %776
  %778 = shl i64 %773, 32
  %779 = ashr exact i64 %778, 32
  %780 = icmp slt i64 %777, %779
  br i1 %780, label %781, label %784, !prof !4

781:                                              ; preds = %771
  %782 = trunc i64 %773 to i32
  %783 = call i8* @_ZN6google8protobuf2io19EpsCopyOutputStream16WriteRawFallbackEPKviPh(%"class.google::protobuf::io::EpsCopyOutputStream"* %2, i8* %772, i32 %782, i8* %749) #15
  br label %786

784:                                              ; preds = %771
  call void @llvm.memcpy.p0i8.p0i8.i64(i8* align 1 %749, i8* align 1 %772, i64 %779, i1 false) #15
  %785 = getelementptr inbounds i8, i8* %749, i64 %779
  br label %786

786:                                              ; preds = %748, %784, %781
  %787 = phi i8* [ %749, %748 ], [ %783, %781 ], [ %785, %784 ]
  ret i8* %787
}

; Function Attrs: nounwind readnone speculatable
declare { i64, i1 } @llvm.umul.with.overflow.i64(i64, i64) #7

; Function Attrs: nobuiltin nofree
declare noalias nonnull i8* @_Znam(i64) local_unnamed_addr #8

; Function Attrs: nounwind ssp uwtable
define linkonce_odr hidden i8* @_ZN6google8protobuf8internal13MapEntryFuncsINSt3__112basic_stringIcNS3_11char_traitsIcEENS3_9allocatorIcEEEEfLNS1_14WireFormatLite9FieldTypeE9ELSB_2EE17InternalSerializeEiRKS9_RKfPhPNS0_2io19EpsCopyOutputStreamE(i32, %"class.std::__1::basic_string"* dereferenceable(24), float* dereferenceable(4), i8*, %"class.google::protobuf::io::EpsCopyOutputStream"*) local_unnamed_addr #0 comdat align 2 {
  %6 = getelementptr inbounds %"class.google::protobuf::io::EpsCopyOutputStream", %"class.google::protobuf::io::EpsCopyOutputStream"* %4, i64 0, i32 0
  %7 = load i8*, i8** %6, align 8
  %8 = icmp ugt i8* %7, %3
  br i1 %8, label %11, label %9, !prof !2

9:                                                ; preds = %5
  %10 = tail call i8* @_ZN6google8protobuf2io19EpsCopyOutputStream19EnsureSpaceFallbackEPh(%"class.google::protobuf::io::EpsCopyOutputStream"* %4, i8* %3) #15
  br label %11

11:                                               ; preds = %5, %9
  %12 = phi i8* [ %10, %9 ], [ %3, %5 ]
  %13 = shl i32 %0, 3
  %14 = or i32 %13, 2
  %15 = icmp ult i32 %14, 128
  %16 = trunc i32 %14 to i8
  br i1 %15, label %17, label %19

17:                                               ; preds = %11
  store i8 %16, i8* %12, align 1
  %18 = getelementptr inbounds i8, i8* %12, i64 1
  br label %41

19:                                               ; preds = %11
  %20 = or i8 %16, -128
  store i8 %20, i8* %12, align 1
  %21 = lshr i32 %0, 4
  %22 = icmp ult i32 %14, 16384
  br i1 %22, label %23, label %27

23:                                               ; preds = %19
  %24 = trunc i32 %21 to i8
  %25 = getelementptr inbounds i8, i8* %12, i64 1
  store i8 %24, i8* %25, align 1
  %26 = getelementptr inbounds i8, i8* %12, i64 2
  br label %41

27:                                               ; preds = %19
  %28 = and i32 %21, 33554431
  %29 = getelementptr inbounds i8, i8* %12, i64 1
  br label %30

30:                                               ; preds = %30, %27
  %31 = phi i32 [ %28, %27 ], [ %35, %30 ]
  %32 = phi i8* [ %29, %27 ], [ %36, %30 ]
  %33 = trunc i32 %31 to i8
  %34 = or i8 %33, -128
  store i8 %34, i8* %32, align 1
  %35 = lshr i32 %31, 7
  %36 = getelementptr inbounds i8, i8* %32, i64 1
  %37 = icmp ugt i32 %31, 16383
  br i1 %37, label %30, label %38, !prof !4

38:                                               ; preds = %30
  %39 = trunc i32 %35 to i8
  %40 = getelementptr inbounds i8, i8* %32, i64 2
  store i8 %39, i8* %36, align 1
  br label %41

41:                                               ; preds = %17, %23, %38
  %42 = phi i8* [ %18, %17 ], [ %26, %23 ], [ %40, %38 ]
  %43 = bitcast %"class.std::__1::basic_string"* %1 to %"struct.std::__1::basic_string<char, std::__1::char_traits<char>, std::__1::allocator<char> >::__short"*
  %44 = getelementptr inbounds %"struct.std::__1::basic_string<char, std::__1::char_traits<char>, std::__1::allocator<char> >::__short", %"struct.std::__1::basic_string<char, std::__1::char_traits<char>, std::__1::allocator<char> >::__short"* %43, i64 0, i32 1, i32 0
  %45 = load i8, i8* %44, align 1
  %46 = icmp slt i8 %45, 0
  %47 = getelementptr inbounds %"class.std::__1::basic_string", %"class.std::__1::basic_string"* %1, i64 0, i32 0, i32 0, i32 0, i32 0, i32 0, i32 1
  %48 = load i64, i64* %47, align 8
  %49 = zext i8 %45 to i64
  %50 = select i1 %46, i64 %48, i64 %49
  %51 = trunc i64 %50 to i32
  %52 = or i32 %51, 1
  %53 = tail call i32 @llvm.ctlz.i32(i32 %52, i1 true) #15, !range !78
  %54 = xor i32 %53, 31
  %55 = mul nuw nsw i32 %54, 9
  %56 = add nuw nsw i32 %55, 73
  %57 = lshr i32 %56, 6
  %58 = add i32 %51, 6
  %59 = add i32 %58, %57
  %60 = icmp ult i32 %59, 128
  %61 = trunc i32 %59 to i8
  br i1 %60, label %62, label %64

62:                                               ; preds = %41
  store i8 %61, i8* %42, align 1
  %63 = getelementptr inbounds i8, i8* %42, i64 1
  br label %85

64:                                               ; preds = %41
  %65 = or i8 %61, -128
  store i8 %65, i8* %42, align 1
  %66 = lshr i32 %59, 7
  %67 = icmp ult i32 %59, 16384
  br i1 %67, label %68, label %72

68:                                               ; preds = %64
  %69 = trunc i32 %66 to i8
  %70 = getelementptr inbounds i8, i8* %42, i64 1
  store i8 %69, i8* %70, align 1
  %71 = getelementptr inbounds i8, i8* %42, i64 2
  br label %85

72:                                               ; preds = %64
  %73 = getelementptr inbounds i8, i8* %42, i64 1
  br label %74

74:                                               ; preds = %74, %72
  %75 = phi i32 [ %66, %72 ], [ %79, %74 ]
  %76 = phi i8* [ %73, %72 ], [ %80, %74 ]
