; ModuleID = '../../components/sync/trusted_vault/trusted_vault_access_token_fetcher_frontend.cc'
source_filename = "../../components/sync/trusted_vault/trusted_vault_access_token_fetcher_frontend.cc"
target datalayout = "e-m:e-i64:64-f80:128-n8:16:32:64-S128"
target triple = "x86_64-unknown-linux-gnu"

module asm ".symver exp, exp@GLIBC_2.2.5"
module asm ".symver exp2, exp2@GLIBC_2.2.5"
module asm ".symver exp2f, exp2f@GLIBC_2.2.5"
module asm ".symver expf, expf@GLIBC_2.2.5"
module asm ".symver lgamma, lgamma@GLIBC_2.2.5"
module asm ".symver lgammaf, lgammaf@GLIBC_2.2.5"
module asm ".symver lgammal, lgammal@GLIBC_2.2.5"
module asm ".symver log, log@GLIBC_2.2.5"
module asm ".symver log2, log2@GLIBC_2.2.5"
module asm ".symver log2f, log2f@GLIBC_2.2.5"
module asm ".symver logf, logf@GLIBC_2.2.5"
module asm ".symver pow, pow@GLIBC_2.2.5"
module asm ".symver powf, powf@GLIBC_2.2.5"

%"class.syncer::TrustedVaultAccessTokenFetcherFrontend" = type { %"class.signin::IdentityManager::Observer", %"class.signin::IdentityManager"*, %"class.std::__1::unique_ptr.128", %struct.CoreAccountId, %"class.std::__1::vector.157", %"class.base::WeakPtrFactory.165" }
%"class.signin::IdentityManager::Observer" = type { i32 (...)** }
%"class.std::__1::unique_ptr.128" = type { %"class.std::__1::__compressed_pair.129" }
%"class.std::__1::__compressed_pair.129" = type { %"struct.std::__1::__compressed_pair_elem.130" }
%"struct.std::__1::__compressed_pair_elem.130" = type { %"class.signin::PrimaryAccountAccessTokenFetcher"* }
%"class.signin::PrimaryAccountAccessTokenFetcher" = type <{ %"class.signin::IdentityManager::Observer", %"class.std::__1::basic_string", %"class.signin::IdentityManager"*, %"class.std::__1::set", %"class.base::OnceCallback", %"class.base::ScopedObservation.140", %"class.std::__1::unique_ptr.141", i8, i8, [2 x i8], i32, i32, [4 x i8] }>
%"class.std::__1::basic_string" = type { %"class.std::__1::__compressed_pair.57" }
%"class.std::__1::__compressed_pair.57" = type { %"struct.std::__1::__compressed_pair_elem.58" }
%"struct.std::__1::__compressed_pair_elem.58" = type { %"struct.std::__1::basic_string<char, std::__1::char_traits<char>, std::__1::allocator<char> >::__rep" }
%"struct.std::__1::basic_string<char, std::__1::char_traits<char>, std::__1::allocator<char> >::__rep" = type { %union.anon }
%union.anon = type { %"struct.std::__1::basic_string<char, std::__1::char_traits<char>, std::__1::allocator<char> >::__long" }
%"struct.std::__1::basic_string<char, std::__1::char_traits<char>, std::__1::allocator<char> >::__long" = type { i8*, i64, i64 }
%"class.std::__1::set" = type { %"class.std::__1::__tree.131" }
%"class.std::__1::__tree.131" = type { %"class.std::__1::__tree_end_node"*, %"class.std::__1::__compressed_pair.132", %"class.std::__1::__compressed_pair.136" }
%"class.std::__1::__tree_end_node" = type { %"class.std::__1::__tree_node_base"* }
%"class.std::__1::__tree_node_base" = type <{ %"class.std::__1::__tree_end_node", %"class.std::__1::__tree_node_base"*, %"class.std::__1::__tree_end_node"*, i8, [7 x i8] }>
%"class.std::__1::__compressed_pair.132" = type { %"struct.std::__1::__compressed_pair_elem.20" }
%"struct.std::__1::__compressed_pair_elem.20" = type { %"class.std::__1::__tree_end_node" }
%"class.std::__1::__compressed_pair.136" = type { %"struct.std::__1::__compressed_pair_elem.23" }
%"struct.std::__1::__compressed_pair_elem.23" = type { i64 }
%"class.base::OnceCallback" = type { %"class.base::internal::CallbackBase" }
%"class.base::internal::CallbackBase" = type { %class.scoped_refptr.42 }
%class.scoped_refptr.42 = type { %"class.base::internal::BindStateBase"* }
%"class.base::internal::BindStateBase" = type { %"class.base::RefCountedThreadSafe.43", void ()*, void (%"class.base::internal::BindStateBase"*)*, i1 (%"class.base::internal::BindStateBase"*, i32)* }
%"class.base::RefCountedThreadSafe.43" = type { %"class.base::subtle::RefCountedThreadSafeBase" }
%"class.base::subtle::RefCountedThreadSafeBase" = type { %"class.base::AtomicRefCount" }
%"class.base::AtomicRefCount" = type { %"struct.std::__1::atomic" }
%"struct.std::__1::atomic" = type { %"struct.std::__1::__atomic_base" }
%"struct.std::__1::__atomic_base" = type { %"struct.std::__1::__atomic_base.0" }
%"struct.std::__1::__atomic_base.0" = type { %"struct.std::__1::__cxx_atomic_impl" }
%"struct.std::__1::__cxx_atomic_impl" = type { %"struct.std::__1::__cxx_atomic_base_impl" }
%"struct.std::__1::__cxx_atomic_base_impl" = type { i32 }
%"class.base::ScopedObservation.140" = type { %"class.signin::IdentityManager::Observer"*, %"class.signin::IdentityManager"* }
%"class.std::__1::unique_ptr.141" = type { %"class.std::__1::__compressed_pair.142" }
%"class.std::__1::__compressed_pair.142" = type { %"struct.std::__1::__compressed_pair_elem.143" }
%"struct.std::__1::__compressed_pair_elem.143" = type { %"class.signin::AccessTokenFetcher"* }
%"class.signin::AccessTokenFetcher" = type { %class.ProfileOAuth2TokenServiceObserver, %"class.OAuth2AccessTokenManager::Consumer", %struct.CoreAccountId, %"class.std::__1::basic_string", %"class.std::__1::basic_string", %class.ProfileOAuth2TokenService*, %class.PrimaryAccountManager*, %class.scoped_refptr.144, %"class.std::__1::set", i32, %"class.base::OnceCallback", %"class.base::ScopedObservation.119", %"class.std::__1::unique_ptr.145" }
%class.ProfileOAuth2TokenServiceObserver = type { i32 (...)** }
%"class.OAuth2AccessTokenManager::Consumer" = type { i32 (...)**, %"class.std::__1::basic_string" }
%class.ProfileOAuth2TokenService = type <{ %"class.OAuth2AccessTokenManager::Delegate", %class.ProfileOAuth2TokenServiceObserver, %class.PrefService*, %"class.std::__1::unique_ptr.10", i8, [7 x i8], %"class.std::__1::unique_ptr.16", %"class.base::RepeatingCallback", %"class.base::RepeatingCallback.44", i32, [4 x i8] }>
%"class.OAuth2AccessTokenManager::Delegate" = type { i32 (...)** }
%class.PrefService = type opaque
%"class.std::__1::unique_ptr.10" = type { %"class.std::__1::__compressed_pair.11" }
%"class.std::__1::__compressed_pair.11" = type { %"struct.std::__1::__compressed_pair_elem.12" }
%"struct.std::__1::__compressed_pair_elem.12" = type { %class.ProfileOAuth2TokenServiceDelegate* }
%class.ProfileOAuth2TokenServiceDelegate = type opaque
%"class.std::__1::unique_ptr.16" = type { %"class.std::__1::__compressed_pair.17" }
%"class.std::__1::__compressed_pair.17" = type { %"struct.std::__1::__compressed_pair_elem.18" }
%"struct.std::__1::__compressed_pair_elem.18" = type { %class.OAuth2AccessTokenManager* }
%class.OAuth2AccessTokenManager = type { i32 (...)**, %"class.std::__1::map", %"class.base::ObserverList", %"class.OAuth2AccessTokenManager::Delegate"*, %"class.std::__1::map.30" }
%"class.std::__1::map" = type { %"class.std::__1::__tree" }
%"class.std::__1::__tree" = type { %"class.std::__1::__tree_end_node"*, %"class.std::__1::__compressed_pair.19", %"class.std::__1::__compressed_pair.22" }
%"class.std::__1::__compressed_pair.19" = type { %"struct.std::__1::__compressed_pair_elem.20" }
%"class.std::__1::__compressed_pair.22" = type { %"struct.std::__1::__compressed_pair_elem.23" }
%"class.base::ObserverList" = type <{ %"class.std::__1::vector", %"class.base::LinkedList", i64, i32, [4 x i8] }>
%"class.std::__1::vector" = type { %"class.std::__1::__vector_base" }
%"class.std::__1::__vector_base" = type { %"class.base::internal::UncheckedObserverAdapter"*, %"class.base::internal::UncheckedObserverAdapter"*, %"class.std::__1::__compressed_pair.25" }
%"class.base::internal::UncheckedObserverAdapter" = type { i8* }
%"class.std::__1::__compressed_pair.25" = type { %"struct.std::__1::__compressed_pair_elem.26" }
%"struct.std::__1::__compressed_pair_elem.26" = type { %"class.base::internal::UncheckedObserverAdapter"* }
%"class.base::LinkedList" = type { %"class.base::LinkNode" }
%"class.base::LinkNode" = type { %"class.base::internal::LinkNodeBase" }
%"class.base::internal::LinkNodeBase" = type { %"class.base::internal::LinkNodeBase"*, %"class.base::internal::LinkNodeBase"* }
%"class.std::__1::map.30" = type { %"class.std::__1::__tree.31" }
%"class.std::__1::__tree.31" = type { %"class.std::__1::__tree_end_node"*, %"class.std::__1::__compressed_pair.32", %"class.std::__1::__compressed_pair.36" }
%"class.std::__1::__compressed_pair.32" = type { %"struct.std::__1::__compressed_pair_elem.20" }
%"class.std::__1::__compressed_pair.36" = type { %"struct.std::__1::__compressed_pair_elem.23" }
%"class.base::RepeatingCallback" = type { %"class.base::internal::CallbackBaseCopyable" }
%"class.base::internal::CallbackBaseCopyable" = type { %"class.base::internal::CallbackBase" }
%"class.base::RepeatingCallback.44" = type { %"class.base::internal::CallbackBaseCopyable" }
%class.PrimaryAccountManager = type { %class.ProfileOAuth2TokenServiceObserver, %class.SigninClient*, %class.ProfileOAuth2TokenService*, %class.AccountTrackerService*, i8, [7 x i8], %struct.CoreAccountInfo, %"class.std::__1::unique_ptr.62", %"class.base::ObserverList.68" }
%class.SigninClient = type { %class.KeyedService }
%class.KeyedService = type { i32 (...)** }
%class.AccountTrackerService = type opaque
%struct.CoreAccountInfo = type <{ %struct.CoreAccountId, %"class.std::__1::basic_string", %"class.std::__1::basic_string", i8, [7 x i8] }>
%"class.std::__1::unique_ptr.62" = type { %"class.std::__1::__compressed_pair.63" }
%"class.std::__1::__compressed_pair.63" = type { %"struct.std::__1::__compressed_pair_elem.64" }
%"struct.std::__1::__compressed_pair_elem.64" = type { %class.PrimaryAccountPolicyManager* }
%class.PrimaryAccountPolicyManager = type opaque
%"class.base::ObserverList.68" = type <{ %"class.std::__1::vector.69", %"class.base::LinkedList.77", i64, i32, [4 x i8] }>
%"class.std::__1::vector.69" = type { %"class.std::__1::__vector_base.70" }
%"class.std::__1::__vector_base.70" = type { %"class.base::internal::CheckedObserverAdapter"*, %"class.base::internal::CheckedObserverAdapter"*, %"class.std::__1::__compressed_pair.72" }
%"class.base::internal::CheckedObserverAdapter" = type { %"class.base::WeakPtr" }
%"class.base::WeakPtr" = type { %"class.base::internal::WeakPtrBase" }
%"class.base::internal::WeakPtrBase" = type { %"class.base::internal::WeakReference", i64 }
%"class.base::internal::WeakReference" = type { %class.scoped_refptr.71 }
%class.scoped_refptr.71 = type { %"class.base::internal::WeakReference::Flag"* }
%"class.base::internal::WeakReference::Flag" = type <{ %"class.base::RefCountedThreadSafe", %"class.base::AtomicFlag", [3 x i8] }>
%"class.base::RefCountedThreadSafe" = type { %"class.base::subtle::RefCountedThreadSafeBase" }
%"class.base::AtomicFlag" = type { %"struct.std::__1::atomic.1" }
%"struct.std::__1::atomic.1" = type { %"struct.std::__1::__atomic_base.2" }
%"struct.std::__1::__atomic_base.2" = type { %"struct.std::__1::__atomic_base.3" }
%"struct.std::__1::__atomic_base.3" = type { %"struct.std::__1::__cxx_atomic_impl.4" }
%"struct.std::__1::__cxx_atomic_impl.4" = type { %"struct.std::__1::__cxx_atomic_base_impl.5" }
%"struct.std::__1::__cxx_atomic_base_impl.5" = type { i8 }
%"class.std::__1::__compressed_pair.72" = type { %"struct.std::__1::__compressed_pair_elem.73" }
%"struct.std::__1::__compressed_pair_elem.73" = type { %"class.base::internal::CheckedObserverAdapter"* }
%"class.base::LinkedList.77" = type { %"class.base::LinkNode.78" }
%"class.base::LinkNode.78" = type { %"class.base::internal::LinkNodeBase" }
%class.scoped_refptr.144 = type { %"class.network::SharedURLLoaderFactory"* }
%"class.network::SharedURLLoaderFactory" = type opaque
%"class.base::ScopedObservation.119" = type { %class.ProfileOAuth2TokenServiceObserver*, %class.ProfileOAuth2TokenService* }
%"class.std::__1::unique_ptr.145" = type { %"class.std::__1::__compressed_pair.146" }
%"class.std::__1::__compressed_pair.146" = type { %"struct.std::__1::__compressed_pair_elem.147" }
%"struct.std::__1::__compressed_pair_elem.147" = type { %"class.OAuth2AccessTokenManager::Request"* }
%"class.OAuth2AccessTokenManager::Request" = type { i32 (...)** }
%struct.CoreAccountId = type { %"class.std::__1::basic_string" }
%"class.std::__1::vector.157" = type { %"class.std::__1::__vector_base.158" }
%"class.std::__1::__vector_base.158" = type { %"class.base::OnceCallback.159"*, %"class.base::OnceCallback.159"*, %"class.std::__1::__compressed_pair.160" }
%"class.base::OnceCallback.159" = type { %"class.base::internal::CallbackBase" }
%"class.std::__1::__compressed_pair.160" = type { %"struct.std::__1::__compressed_pair_elem.161" }
%"struct.std::__1::__compressed_pair_elem.161" = type { %"class.base::OnceCallback.159"* }
%"class.base::WeakPtrFactory.165" = type { %"class.base::internal::WeakPtrFactoryBase" }
%"class.base::internal::WeakPtrFactoryBase" = type { %"class.base::internal::WeakReferenceOwner", i64 }
%"class.base::internal::WeakReferenceOwner" = type { %class.scoped_refptr }
%class.scoped_refptr = type { %"class.base::internal::WeakReference::Flag"* }
%"class.signin::IdentityManager" = type <{ %class.KeyedService, %"class.OAuth2AccessTokenManager::DiagnosticsObserver", %"class.PrimaryAccountManager::Observer", %class.ProfileOAuth2TokenServiceObserver, %"class.std::__1::unique_ptr", %"class.std::__1::unique_ptr.7", %"class.std::__1::unique_ptr.48", %"class.std::__1::unique_ptr.54", %"class.std::__1::unique_ptr.83", %"class.signin::IdentityMutator", %"class.std::__1::unique_ptr.113", %"class.base::ScopedObservation", %"class.base::ScopedObservation.119", %"class.base::ObserverList.120", %"class.base::ObserverList.124", i8, [7 x i8] }>
%"class.OAuth2AccessTokenManager::DiagnosticsObserver" = type { i32 (...)** }
%"class.PrimaryAccountManager::Observer" = type { %"class.base::CheckedObserver" }
%"class.base::CheckedObserver" = type { i32 (...)**, %"class.base::WeakPtrFactory" }
%"class.base::WeakPtrFactory" = type { %"class.base::internal::WeakPtrFactoryBase" }
%"class.std::__1::unique_ptr" = type { %"class.std::__1::__compressed_pair" }
%"class.std::__1::__compressed_pair" = type { %"struct.std::__1::__compressed_pair_elem" }
%"struct.std::__1::__compressed_pair_elem" = type { %class.AccountTrackerService* }
%"class.std::__1::unique_ptr.7" = type { %"class.std::__1::__compressed_pair.8" }
%"class.std::__1::__compressed_pair.8" = type { %"struct.std::__1::__compressed_pair_elem.9" }
%"struct.std::__1::__compressed_pair_elem.9" = type { %class.ProfileOAuth2TokenService* }
%"class.std::__1::unique_ptr.48" = type { %"class.std::__1::__compressed_pair.49" }
%"class.std::__1::__compressed_pair.49" = type { %"struct.std::__1::__compressed_pair_elem.50" }
%"struct.std::__1::__compressed_pair_elem.50" = type { %class.GaiaCookieManagerService* }
%class.GaiaCookieManagerService = type opaque
%"class.std::__1::unique_ptr.54" = type { %"class.std::__1::__compressed_pair.55" }
%"class.std::__1::__compressed_pair.55" = type { %"struct.std::__1::__compressed_pair_elem.56" }
%"struct.std::__1::__compressed_pair_elem.56" = type { %class.PrimaryAccountManager* }
%"class.std::__1::unique_ptr.83" = type { %"class.std::__1::__compressed_pair.84" }
%"class.std::__1::__compressed_pair.84" = type { %"struct.std::__1::__compressed_pair_elem.85" }
%"struct.std::__1::__compressed_pair_elem.85" = type { %class.AccountFetcherService* }
%class.AccountFetcherService = type opaque
%"class.signin::IdentityMutator" = type { i32 (...)**, %"class.std::__1::unique_ptr.89", %"class.std::__1::unique_ptr.95", %"class.std::__1::unique_ptr.101", %"class.std::__1::unique_ptr.107" }
%"class.std::__1::unique_ptr.89" = type { %"class.std::__1::__compressed_pair.90" }
%"class.std::__1::__compressed_pair.90" = type { %"struct.std::__1::__compressed_pair_elem.91" }
%"struct.std::__1::__compressed_pair_elem.91" = type { %"class.signin::PrimaryAccountMutator"* }
%"class.signin::PrimaryAccountMutator" = type opaque
%"class.std::__1::unique_ptr.95" = type { %"class.std::__1::__compressed_pair.96" }
%"class.std::__1::__compressed_pair.96" = type { %"struct.std::__1::__compressed_pair_elem.97" }
%"struct.std::__1::__compressed_pair_elem.97" = type { %"class.signin::AccountsMutator"* }
%"class.signin::AccountsMutator" = type opaque
%"class.std::__1::unique_ptr.101" = type { %"class.std::__1::__compressed_pair.102" }
%"class.std::__1::__compressed_pair.102" = type { %"struct.std::__1::__compressed_pair_elem.103" }
%"struct.std::__1::__compressed_pair_elem.103" = type { %"class.signin::AccountsCookieMutator"* }
%"class.signin::AccountsCookieMutator" = type opaque
%"class.std::__1::unique_ptr.107" = type { %"class.std::__1::__compressed_pair.108" }
%"class.std::__1::__compressed_pair.108" = type { %"struct.std::__1::__compressed_pair_elem.109" }
%"struct.std::__1::__compressed_pair_elem.109" = type { %"class.signin::DeviceAccountsSynchronizer"* }
%"class.signin::DeviceAccountsSynchronizer" = type opaque
%"class.std::__1::unique_ptr.113" = type { %"class.std::__1::__compressed_pair.114" }
%"class.std::__1::__compressed_pair.114" = type { %"struct.std::__1::__compressed_pair_elem.115" }
%"struct.std::__1::__compressed_pair_elem.115" = type { %"class.signin::DiagnosticsProvider"* }
%"class.signin::DiagnosticsProvider" = type opaque
%"class.base::ScopedObservation" = type { %"class.PrimaryAccountManager::Observer"*, %class.PrimaryAccountManager* }
%"class.base::ObserverList.120" = type <{ %"class.std::__1::vector", %"class.base::LinkedList.121", i64, i32, [4 x i8] }>
%"class.base::LinkedList.121" = type { %"class.base::LinkNode.122" }
%"class.base::LinkNode.122" = type { %"class.base::internal::LinkNodeBase" }
%"class.base::ObserverList.124" = type <{ %"class.std::__1::vector", %"class.base::LinkedList.125", i64, i32, [4 x i8] }>
%"class.base::LinkedList.125" = type { %"class.base::LinkNode.126" }
%"class.base::LinkNode.126" = type { %"class.base::internal::LinkNodeBase" }
%"class.absl::optional" = type { %"class.absl::optional_internal::optional_data" }
%"class.absl::optional_internal::optional_data" = type { %"class.absl::optional_internal::optional_data_base" }
%"class.absl::optional_internal::optional_data_base" = type { %"class.absl::optional_internal::optional_data_dtor_base" }
%"class.absl::optional_internal::optional_data_dtor_base" = type { i8, %union.anon.167 }
%union.anon.167 = type { %"struct.signin::AccessTokenInfo" }
%"struct.signin::AccessTokenInfo" = type { %"class.std::__1::basic_string", %"class.base::Time", %"class.std::__1::basic_string" }
%"class.base::Time" = type { %"class.base::time_internal::TimeBase" }
%"class.base::time_internal::TimeBase" = type { i64 }
%"class.base::WeakPtr.166" = type { %"class.base::internal::WeakPtrBase" }
%"struct.std::__1::basic_string<char, std::__1::char_traits<char>, std::__1::allocator<char> >::__short" = type { [23 x i8], %struct.anon }
%struct.anon = type { i8 }
%"class.std::__1::__tree_node" = type { %"class.std::__1::__tree_node_base.base", %"class.std::__1::basic_string" }
%"class.std::__1::__tree_node_base.base" = type <{ %"class.std::__1::__tree_end_node", %"class.std::__1::__tree_node_base"*, %"class.std::__1::__tree_end_node"*, i8 }>
%"class.signin::PrimaryAccountChangeEvent" = type { %"struct.signin::PrimaryAccountChangeEvent::State", %"struct.signin::PrimaryAccountChangeEvent::State" }
%"struct.signin::PrimaryAccountChangeEvent::State" = type { %struct.CoreAccountInfo, i32, [4 x i8] }
%"class.std::__1::__basic_string_common" = type { i8 }
%class.GoogleServiceAuthError = type <{ i32, i32, %"class.std::__1::basic_string", i32, [4 x i8] }>
%"struct.signin::AccountsInCookieJarInfo" = type opaque
%struct.AccountInfo = type <{ %struct.CoreAccountInfo.base, [7 x i8], %"class.std::__1::basic_string", %"class.std::__1::basic_string", %"class.std::__1::basic_string", %"class.std::__1::basic_string", %"class.std::__1::basic_string", %"class.std::__1::basic_string", %"class.gfx::Image", i8, [7 x i8] }>
%struct.CoreAccountInfo.base = type <{ %struct.CoreAccountId, %"class.std::__1::basic_string", %"class.std::__1::basic_string", i8 }>
%"class.gfx::Image" = type { %class.scoped_refptr.168 }
%class.scoped_refptr.168 = type { %"class.gfx::internal::ImageStorage"* }
%"class.gfx::internal::ImageStorage" = type opaque
%"class.std::__1::__vector_base_common" = type { i8 }

$_ZNSt3__111make_uniqueIN6signin32PrimaryAccountAccessTokenFetcherEJRA39_KcRKPNS1_15IdentityManagerENS_3setINS_12basic_stringIcNS_11char_traitsIcEENS_9allocatorIcEEEENS_4lessISG_EENSE_ISG_EEEEN4base12OnceCallbackIFv22GoogleServiceAuthErrorNS1_15AccessTokenInfoEEEENS2_4ModeENS1_12ConsentLevelEEEENS_11__unique_ifIT_E15__unique_singleEDpOT0_ = comdat any

$_ZN6signin15IdentityManager8Observer31OnRefreshTokenUpdatedForAccountERK15CoreAccountInfo = comdat any

$_ZN6signin15IdentityManager8Observer31OnRefreshTokenRemovedForAccountERK13CoreAccountId = comdat any

$_ZN6signin15IdentityManager8Observer43OnErrorStateOfRefreshTokenUpdatedForAccountERK15CoreAccountInfoRK22GoogleServiceAuthError = comdat any

$_ZN6signin15IdentityManager8Observer21OnRefreshTokensLoadedEv = comdat any

$_ZN6signin15IdentityManager8Observer25OnAccountsInCookieUpdatedERKNS_23AccountsInCookieJarInfoERK22GoogleServiceAuthError = comdat any

$_ZN6signin15IdentityManager8Observer35OnAccountsCookieDeletedByUserActionEv = comdat any

$_ZN6signin15IdentityManager8Observer36OnEndBatchOfRefreshTokenStateChangesEv = comdat any

$_ZN6signin15IdentityManager8Observer28OnExtendedAccountInfoUpdatedERK11AccountInfo = comdat any

$_ZN6signin15IdentityManager8Observer28OnExtendedAccountInfoRemovedERK11AccountInfo = comdat any

$_ZN6signin15IdentityManager8Observer25OnIdentityManagerShutdownEPS0_ = comdat any

$_ZNSt3__16vectorIN4base12OnceCallbackIFvN4absl8optionalIN6signin15AccessTokenInfoEEEEEENS_9allocatorIS9_EEE24__emplace_back_slow_pathIJS9_EEEvDpOT_ = comdat any

$_ZNSt3__16__treeINS_12basic_stringIcNS_11char_traitsIcEENS_9allocatorIcEEEENS_4lessIS6_EENS4_IS6_EEE30__emplace_hint_unique_key_argsIS6_JRKS6_EEENS_4pairINS_15__tree_iteratorIS6_PNS_11__tree_nodeIS6_PvEElEEbEENS_21__tree_const_iteratorIS6_SJ_lEERKT_DpOT0_ = comdat any

$_ZNSt3__16__treeINS_12basic_stringIcNS_11char_traitsIcEENS_9allocatorIcEEEENS_4lessIS6_EENS4_IS6_EEE12__find_equalIS6_EERPNS_16__tree_node_baseIPvEENS_21__tree_const_iteratorIS6_PNS_11__tree_nodeIS6_SD_EElEERPNS_15__tree_end_nodeISF_EESG_RKT_ = comdat any

$_ZNSt3__16__treeINS_12basic_stringIcNS_11char_traitsIcEENS_9allocatorIcEEEENS_4lessIS6_EENS4_IS6_EEE12__find_equalIS6_EERPNS_16__tree_node_baseIPvEERPNS_15__tree_end_nodeISF_EERKT_ = comdat any

$_ZNSt3__127__tree_balance_after_insertIPNS_16__tree_node_baseIPvEEEEvT_S5_ = comdat any

$_ZNSt3__16__treeINS_12basic_stringIcNS_11char_traitsIcEENS_9allocatorIcEEEENS_4lessIS6_EENS4_IS6_EEE7destroyEPNS_11__tree_nodeIS6_PvEE = comdat any

$_ZN4base8internal7InvokerINS0_9BindStateIMN6syncer38TrustedVaultAccessTokenFetcherFrontendEFv22GoogleServiceAuthErrorN6signin15AccessTokenInfoEEJNS0_17UnretainedWrapperIS4_EEEEEFvS5_S7_EE7RunOnceEPNS0_13BindStateBaseEOS5_OS7_ = comdat any

$_ZN4base8internal13FunctorTraitsIMN6syncer38TrustedVaultAccessTokenFetcherFrontendEFv22GoogleServiceAuthErrorN6signin15AccessTokenInfoEEvE6InvokeIS8_PS3_JS4_S6_EEEvT_OT0_DpOT1_ = comdat any

$_ZN4base8internal9BindStateIMN6syncer38TrustedVaultAccessTokenFetcherFrontendEFv22GoogleServiceAuthErrorN6signin15AccessTokenInfoEEJNS0_17UnretainedWrapperIS3_EEEE7DestroyEPKNS0_13BindStateBaseE = comdat any

@_ZTVN6syncer38TrustedVaultAccessTokenFetcherFrontendE = hidden unnamed_addr constant { [15 x i8*] } { [15 x i8*] [i8* null, i8* null, i8* bitcast (void (%"class.syncer::TrustedVaultAccessTokenFetcherFrontend"*)* @_ZN6syncer38TrustedVaultAccessTokenFetcherFrontendD2Ev to i8*), i8* bitcast (void (%"class.syncer::TrustedVaultAccessTokenFetcherFrontend"*)* @_ZN6syncer38TrustedVaultAccessTokenFetcherFrontendD0Ev to i8*), i8* bitcast (void (%"class.syncer::TrustedVaultAccessTokenFetcherFrontend"*, %"class.signin::PrimaryAccountChangeEvent"*)* @_ZN6syncer38TrustedVaultAccessTokenFetcherFrontend23OnPrimaryAccountChangedERKN6signin25PrimaryAccountChangeEventE to i8*), i8* bitcast (void (%"class.signin::IdentityManager::Observer"*, %struct.CoreAccountInfo*)* @_ZN6signin15IdentityManager8Observer31OnRefreshTokenUpdatedForAccountERK15CoreAccountInfo to i8*), i8* bitcast (void (%"class.signin::IdentityManager::Observer"*, %struct.CoreAccountId*)* @_ZN6signin15IdentityManager8Observer31OnRefreshTokenRemovedForAccountERK13CoreAccountId to i8*), i8* bitcast (void (%"class.signin::IdentityManager::Observer"*, %struct.CoreAccountInfo*, %class.GoogleServiceAuthError*)* @_ZN6signin15IdentityManager8Observer43OnErrorStateOfRefreshTokenUpdatedForAccountERK15CoreAccountInfoRK22GoogleServiceAuthError to i8*), i8* bitcast (void (%"class.signin::IdentityManager::Observer"*)* @_ZN6signin15IdentityManager8Observer21OnRefreshTokensLoadedEv to i8*), i8* bitcast (void (%"class.signin::IdentityManager::Observer"*, %"struct.signin::AccountsInCookieJarInfo"*, %class.GoogleServiceAuthError*)* @_ZN6signin15IdentityManager8Observer25OnAccountsInCookieUpdatedERKNS_23AccountsInCookieJarInfoERK22GoogleServiceAuthError to i8*), i8* bitcast (void (%"class.signin::IdentityManager::Observer"*)* @_ZN6signin15IdentityManager8Observer35OnAccountsCookieDeletedByUserActionEv to i8*), i8* bitcast (void (%"class.signin::IdentityManager::Observer"*)* @_ZN6signin15IdentityManager8Observer36OnEndBatchOfRefreshTokenStateChangesEv to i8*), i8* bitcast (void (%"class.signin::IdentityManager::Observer"*, %struct.AccountInfo*)* @_ZN6signin15IdentityManager8Observer28OnExtendedAccountInfoUpdatedERK11AccountInfo to i8*), i8* bitcast (void (%"class.signin::IdentityManager::Observer"*, %struct.AccountInfo*)* @_ZN6signin15IdentityManager8Observer28OnExtendedAccountInfoRemovedERK11AccountInfo to i8*), i8* bitcast (void (%"class.signin::IdentityManager::Observer"*, %"class.signin::IdentityManager"*)* @_ZN6signin15IdentityManager8Observer25OnIdentityManagerShutdownEPS0_ to i8*)] }, align 8
@.str = private unnamed_addr constant [39 x i8] c"TrustedVaultAccessTokenFetcherFrontend\00", align 1
@_ZN6syncer12_GLOBAL__N_121kCryptAuthOAuth2ScopeE = internal unnamed_addr constant [42 x i8] c"https://www.googleapis.com/auth/cryptauth\00", align 16

@_ZN6syncer38TrustedVaultAccessTokenFetcherFrontendC1EPN6signin15IdentityManagerE = hidden unnamed_addr alias void (%"class.syncer::TrustedVaultAccessTokenFetcherFrontend"*, %"class.signin::IdentityManager"*), void (%"class.syncer::TrustedVaultAccessTokenFetcherFrontend"*, %"class.signin::IdentityManager"*)* @_ZN6syncer38TrustedVaultAccessTokenFetcherFrontendC2EPN6signin15IdentityManagerE
@_ZN6syncer38TrustedVaultAccessTokenFetcherFrontendD1Ev = hidden unnamed_addr alias void (%"class.syncer::TrustedVaultAccessTokenFetcherFrontend"*), void (%"class.syncer::TrustedVaultAccessTokenFetcherFrontend"*)* @_ZN6syncer38TrustedVaultAccessTokenFetcherFrontendD2Ev

; Function Attrs: nounwind ssp uwtable
define hidden void @_ZN6syncer38TrustedVaultAccessTokenFetcherFrontendC2EPN6signin15IdentityManagerE(%"class.syncer::TrustedVaultAccessTokenFetcherFrontend"*, %"class.signin::IdentityManager"*) unnamed_addr #0 align 2 {
  %3 = getelementptr inbounds %"class.syncer::TrustedVaultAccessTokenFetcherFrontend", %"class.syncer::TrustedVaultAccessTokenFetcherFrontend"* %0, i64 0, i32 0
  %4 = getelementptr inbounds %"class.syncer::TrustedVaultAccessTokenFetcherFrontend", %"class.syncer::TrustedVaultAccessTokenFetcherFrontend"* %0, i64 0, i32 0, i32 0
  store i32 (...)** bitcast (i8** getelementptr inbounds ({ [15 x i8*] }, { [15 x i8*] }* @_ZTVN6syncer38TrustedVaultAccessTokenFetcherFrontendE, i64 0, inrange i32 0, i64 2) to i32 (...)**), i32 (...)*** %4, align 8
  %5 = getelementptr inbounds %"class.syncer::TrustedVaultAccessTokenFetcherFrontend", %"class.syncer::TrustedVaultAccessTokenFetcherFrontend"* %0, i64 0, i32 1
  store %"class.signin::IdentityManager"* %1, %"class.signin::IdentityManager"** %5, align 8
  %6 = getelementptr inbounds %"class.syncer::TrustedVaultAccessTokenFetcherFrontend", %"class.syncer::TrustedVaultAccessTokenFetcherFrontend"* %0, i64 0, i32 2
  %7 = bitcast %"class.std::__1::unique_ptr.128"* %6 to i64*
  store i64 0, i64* %7, align 8
  %8 = getelementptr inbounds %"class.syncer::TrustedVaultAccessTokenFetcherFrontend", %"class.syncer::TrustedVaultAccessTokenFetcherFrontend"* %0, i64 0, i32 3
  tail call void @_ZN13CoreAccountIdC1Ev(%struct.CoreAccountId* %8) #11
  %9 = getelementptr inbounds %"class.syncer::TrustedVaultAccessTokenFetcherFrontend", %"class.syncer::TrustedVaultAccessTokenFetcherFrontend"* %0, i64 0, i32 4
  %10 = bitcast %"class.std::__1::vector.157"* %9 to i8*
  tail call void @llvm.memset.p0i8.i64(i8* align 8 %10, i8 0, i64 24, i1 false) #11
  %11 = getelementptr inbounds %"class.syncer::TrustedVaultAccessTokenFetcherFrontend", %"class.syncer::TrustedVaultAccessTokenFetcherFrontend"* %0, i64 0, i32 5, i32 0
  %12 = ptrtoint %"class.syncer::TrustedVaultAccessTokenFetcherFrontend"* %0 to i64
  tail call void @_ZN4base8internal18WeakPtrFactoryBaseC2Em(%"class.base::internal::WeakPtrFactoryBase"* %11, i64 %12) #11
  %13 = load %"class.signin::IdentityManager"*, %"class.signin::IdentityManager"** %5, align 8
  tail call void @_ZN6signin15IdentityManager11AddObserverEPNS0_8ObserverE(%"class.signin::IdentityManager"* %13, %"class.signin::IdentityManager::Observer"* %3) #11
  tail call void @_ZN6syncer38TrustedVaultAccessTokenFetcherFrontend28UpdatePrimaryAccountIfNeededEv(%"class.syncer::TrustedVaultAccessTokenFetcherFrontend"* %0)
  ret void
}

declare void @_ZN13CoreAccountIdC1Ev(%struct.CoreAccountId*) unnamed_addr #1

declare void @_ZN6signin15IdentityManager11AddObserverEPNS0_8ObserverE(%"class.signin::IdentityManager"*, %"class.signin::IdentityManager::Observer"*) local_unnamed_addr #1

; Function Attrs: nounwind ssp uwtable
define hidden void @_ZN6syncer38TrustedVaultAccessTokenFetcherFrontend28UpdatePrimaryAccountIfNeededEv(%"class.syncer::TrustedVaultAccessTokenFetcherFrontend"*) local_unnamed_addr #0 align 2 {
  %2 = alloca %struct.CoreAccountInfo, align 8
  %3 = alloca %"class.absl::optional", align 8
  %4 = bitcast %struct.CoreAccountInfo* %2 to i8*
  call void @llvm.lifetime.start.p0i8(i64 80, i8* nonnull %4) #11
  call void @llvm.memset.p0i8.i64(i8* nonnull align 8 %4, i8 -86, i64 80, i1 false)
  %5 = getelementptr inbounds %"class.syncer::TrustedVaultAccessTokenFetcherFrontend", %"class.syncer::TrustedVaultAccessTokenFetcherFrontend"* %0, i64 0, i32 1
  %6 = load %"class.signin::IdentityManager"*, %"class.signin::IdentityManager"** %5, align 8
  call void @_ZNK6signin15IdentityManager21GetPrimaryAccountInfoENS_12ConsentLevelE(%struct.CoreAccountInfo* nonnull sret %2, %"class.signin::IdentityManager"* %6, i32 0) #11
  %7 = getelementptr inbounds %struct.CoreAccountInfo, %struct.CoreAccountInfo* %2, i64 0, i32 0
  %8 = getelementptr inbounds %"class.syncer::TrustedVaultAccessTokenFetcherFrontend", %"class.syncer::TrustedVaultAccessTokenFetcherFrontend"* %0, i64 0, i32 3
  %9 = call zeroext i1 @_ZeqRK13CoreAccountIdS1_(%struct.CoreAccountId* nonnull dereferenceable(24) %7, %struct.CoreAccountId* dereferenceable(24) %8) #11
  br i1 %9, label %24, label %10

10:                                               ; preds = %1
  %11 = getelementptr inbounds %"class.absl::optional", %"class.absl::optional"* %3, i64 0, i32 0, i32 0, i32 0, i32 0
  store i8 0, i8* %11, align 8
  %12 = getelementptr inbounds %"class.absl::optional", %"class.absl::optional"* %3, i64 0, i32 0, i32 0, i32 0, i32 1
  %13 = bitcast %union.anon.167* %12 to i8*
  call void @llvm.memset.p0i8.i64(i8* align 8 %13, i8 0, i64 56, i1 false) #11
  call void @_ZN6syncer38TrustedVaultAccessTokenFetcherFrontend22FulfillPendingRequestsEN4absl8optionalIN6signin15AccessTokenInfoEEE(%"class.syncer::TrustedVaultAccessTokenFetcherFrontend"* %0, %"class.absl::optional"* nonnull %3)
  %14 = getelementptr inbounds %"class.syncer::TrustedVaultAccessTokenFetcherFrontend", %"class.syncer::TrustedVaultAccessTokenFetcherFrontend"* %0, i64 0, i32 2, i32 0, i32 0, i32 0
  %15 = load %"class.signin::PrimaryAccountAccessTokenFetcher"*, %"class.signin::PrimaryAccountAccessTokenFetcher"** %14, align 8
  store %"class.signin::PrimaryAccountAccessTokenFetcher"* null, %"class.signin::PrimaryAccountAccessTokenFetcher"** %14, align 8
  %16 = icmp eq %"class.signin::PrimaryAccountAccessTokenFetcher"* %15, null
  br i1 %16, label %22, label %17

17:                                               ; preds = %10
  %18 = bitcast %"class.signin::PrimaryAccountAccessTokenFetcher"* %15 to void (%"class.signin::PrimaryAccountAccessTokenFetcher"*)***
  %19 = load void (%"class.signin::PrimaryAccountAccessTokenFetcher"*)**, void (%"class.signin::PrimaryAccountAccessTokenFetcher"*)*** %18, align 8
  %20 = getelementptr inbounds void (%"class.signin::PrimaryAccountAccessTokenFetcher"*)*, void (%"class.signin::PrimaryAccountAccessTokenFetcher"*)** %19, i64 1
  %21 = load void (%"class.signin::PrimaryAccountAccessTokenFetcher"*)*, void (%"class.signin::PrimaryAccountAccessTokenFetcher"*)** %20, align 8
  call void %21(%"class.signin::PrimaryAccountAccessTokenFetcher"* nonnull %15) #11
  br label %22

22:                                               ; preds = %10, %17
  %23 = call dereferenceable(24) %struct.CoreAccountId* @_ZN13CoreAccountIdaSERKS_(%struct.CoreAccountId* %8, %struct.CoreAccountId* nonnull dereferenceable(24) %7) #11
  br label %24

24:                                               ; preds = %1, %22
  call void @_ZN15CoreAccountInfoD1Ev(%struct.CoreAccountInfo* nonnull %2) #11
  call void @llvm.lifetime.end.p0i8(i64 80, i8* nonnull %4) #11
  ret void
}

; Function Attrs: nounwind ssp uwtable
define hidden void @_ZN6syncer38TrustedVaultAccessTokenFetcherFrontendD2Ev(%"class.syncer::TrustedVaultAccessTokenFetcherFrontend"*) unnamed_addr #0 align 2 {
  %2 = getelementptr inbounds %"class.syncer::TrustedVaultAccessTokenFetcherFrontend", %"class.syncer::TrustedVaultAccessTokenFetcherFrontend"* %0, i64 0, i32 0, i32 0
  store i32 (...)** bitcast (i8** getelementptr inbounds ({ [15 x i8*] }, { [15 x i8*] }* @_ZTVN6syncer38TrustedVaultAccessTokenFetcherFrontendE, i64 0, inrange i32 0, i64 2) to i32 (...)**), i32 (...)*** %2, align 8
  %3 = getelementptr inbounds %"class.syncer::TrustedVaultAccessTokenFetcherFrontend", %"class.syncer::TrustedVaultAccessTokenFetcherFrontend"* %0, i64 0, i32 1
  %4 = load %"class.signin::IdentityManager"*, %"class.signin::IdentityManager"** %3, align 8
  %5 = getelementptr inbounds %"class.syncer::TrustedVaultAccessTokenFetcherFrontend", %"class.syncer::TrustedVaultAccessTokenFetcherFrontend"* %0, i64 0, i32 0
  tail call void @_ZN6signin15IdentityManager14RemoveObserverEPNS0_8ObserverE(%"class.signin::IdentityManager"* %4, %"class.signin::IdentityManager::Observer"* %5) #11
  %6 = getelementptr inbounds %"class.syncer::TrustedVaultAccessTokenFetcherFrontend", %"class.syncer::TrustedVaultAccessTokenFetcherFrontend"* %0, i64 0, i32 5, i32 0
  tail call void @_ZN4base8internal18WeakPtrFactoryBaseD2Ev(%"class.base::internal::WeakPtrFactoryBase"* %6) #11
  %7 = getelementptr inbounds %"class.syncer::TrustedVaultAccessTokenFetcherFrontend", %"class.syncer::TrustedVaultAccessTokenFetcherFrontend"* %0, i64 0, i32 4
  %8 = getelementptr inbounds %"class.std::__1::vector.157", %"class.std::__1::vector.157"* %7, i64 0, i32 0, i32 0
  %9 = load %"class.base::OnceCallback.159"*, %"class.base::OnceCallback.159"** %8, align 8
  %10 = icmp eq %"class.base::OnceCallback.159"* %9, null
  br i1 %10, label %26, label %11

11:                                               ; preds = %1
  %12 = bitcast %"class.base::OnceCallback.159"* %9 to i8*
  %13 = getelementptr inbounds %"class.syncer::TrustedVaultAccessTokenFetcherFrontend", %"class.syncer::TrustedVaultAccessTokenFetcherFrontend"* %0, i64 0, i32 4, i32 0, i32 1
  %14 = load %"class.base::OnceCallback.159"*, %"class.base::OnceCallback.159"** %13, align 8
  %15 = icmp eq %"class.base::OnceCallback.159"* %14, %9
  br i1 %15, label %24, label %16

16:                                               ; preds = %11, %16
  %17 = phi %"class.base::OnceCallback.159"* [ %18, %16 ], [ %14, %11 ]
  %18 = getelementptr inbounds %"class.base::OnceCallback.159", %"class.base::OnceCallback.159"* %17, i64 -1
  %19 = getelementptr inbounds %"class.base::OnceCallback.159", %"class.base::OnceCallback.159"* %18, i64 0, i32 0
  tail call void @_ZN4base8internal12CallbackBaseD2Ev(%"class.base::internal::CallbackBase"* %19) #11
  %20 = icmp eq %"class.base::OnceCallback.159"* %18, %9
  br i1 %20, label %21, label %16

21:                                               ; preds = %16
  %22 = bitcast %"class.std::__1::vector.157"* %7 to i8**
  %23 = load i8*, i8** %22, align 8
  br label %24

24:                                               ; preds = %21, %11
  %25 = phi i8* [ %23, %21 ], [ %12, %11 ]
  store %"class.base::OnceCallback.159"* %9, %"class.base::OnceCallback.159"** %13, align 8
  tail call void @_ZdlPv(i8* %25) #12
  br label %26

26:                                               ; preds = %1, %24
  %27 = getelementptr inbounds %"class.syncer::TrustedVaultAccessTokenFetcherFrontend", %"class.syncer::TrustedVaultAccessTokenFetcherFrontend"* %0, i64 0, i32 3
  tail call void @_ZN13CoreAccountIdD1Ev(%struct.CoreAccountId* %27) #11
  %28 = getelementptr inbounds %"class.syncer::TrustedVaultAccessTokenFetcherFrontend", %"class.syncer::TrustedVaultAccessTokenFetcherFrontend"* %0, i64 0, i32 2, i32 0, i32 0, i32 0
  %29 = load %"class.signin::PrimaryAccountAccessTokenFetcher"*, %"class.signin::PrimaryAccountAccessTokenFetcher"** %28, align 8
  store %"class.signin::PrimaryAccountAccessTokenFetcher"* null, %"class.signin::PrimaryAccountAccessTokenFetcher"** %28, align 8
  %30 = icmp eq %"class.signin::PrimaryAccountAccessTokenFetcher"* %29, null
  br i1 %30, label %36, label %31

31:                                               ; preds = %26
  %32 = bitcast %"class.signin::PrimaryAccountAccessTokenFetcher"* %29 to void (%"class.signin::PrimaryAccountAccessTokenFetcher"*)***
  %33 = load void (%"class.signin::PrimaryAccountAccessTokenFetcher"*)**, void (%"class.signin::PrimaryAccountAccessTokenFetcher"*)*** %32, align 8
  %34 = getelementptr inbounds void (%"class.signin::PrimaryAccountAccessTokenFetcher"*)*, void (%"class.signin::PrimaryAccountAccessTokenFetcher"*)** %33, i64 1
  %35 = load void (%"class.signin::PrimaryAccountAccessTokenFetcher"*)*, void (%"class.signin::PrimaryAccountAccessTokenFetcher"*)** %34, align 8
  tail call void %35(%"class.signin::PrimaryAccountAccessTokenFetcher"* nonnull %29) #11
  br label %36

36:                                               ; preds = %26, %31
  ret void
}

declare void @_ZN6signin15IdentityManager14RemoveObserverEPNS0_8ObserverE(%"class.signin::IdentityManager"*, %"class.signin::IdentityManager::Observer"*) local_unnamed_addr #1

; Function Attrs: nounwind
declare void @_ZN4base8internal18WeakPtrFactoryBaseD2Ev(%"class.base::internal::WeakPtrFactoryBase"*) unnamed_addr #2

; Function Attrs: nounwind
declare void @_ZN13CoreAccountIdD1Ev(%struct.CoreAccountId*) unnamed_addr #2

; Function Attrs: nounwind ssp uwtable
define hidden void @_ZN6syncer38TrustedVaultAccessTokenFetcherFrontendD0Ev(%"class.syncer::TrustedVaultAccessTokenFetcherFrontend"*) unnamed_addr #0 align 2 {
  tail call void @_ZN6syncer38TrustedVaultAccessTokenFetcherFrontendD2Ev(%"class.syncer::TrustedVaultAccessTokenFetcherFrontend"* %0) #11
  %2 = bitcast %"class.syncer::TrustedVaultAccessTokenFetcherFrontend"* %0 to i8*
  tail call void @_ZdlPv(i8* %2) #12
  ret void
}

; Function Attrs: nobuiltin nounwind
declare void @_ZdlPv(i8*) local_unnamed_addr #3

; Function Attrs: nounwind ssp uwtable
define hidden void @_ZN6syncer38TrustedVaultAccessTokenFetcherFrontend10GetWeakPtrEv(%"class.base::WeakPtr.166"* noalias sret, %"class.syncer::TrustedVaultAccessTokenFetcherFrontend"*) local_unnamed_addr #0 align 2 {
  %3 = alloca %"class.base::internal::WeakReference", align 8
  %4 = bitcast %"class.base::internal::WeakReference"* %3 to i8*
  call void @llvm.lifetime.start.p0i8(i64 8, i8* nonnull %4) #11, !noalias !2
  %5 = getelementptr inbounds %"class.syncer::TrustedVaultAccessTokenFetcherFrontend", %"class.syncer::TrustedVaultAccessTokenFetcherFrontend"* %1, i64 0, i32 5, i32 0, i32 0
  call void @_ZNK4base8internal18WeakReferenceOwner6GetRefEv(%"class.base::internal::WeakReference"* nonnull sret %3, %"class.base::internal::WeakReferenceOwner"* %5) #11, !noalias !2
  %6 = getelementptr inbounds %"class.syncer::TrustedVaultAccessTokenFetcherFrontend", %"class.syncer::TrustedVaultAccessTokenFetcherFrontend"* %1, i64 0, i32 5, i32 0, i32 1
  %7 = load i64, i64* %6, align 8, !noalias !2
  %8 = getelementptr inbounds %"class.base::WeakPtr.166", %"class.base::WeakPtr.166"* %0, i64 0, i32 0
  call void @_ZN4base8internal11WeakPtrBaseC2ERKNS0_13WeakReferenceEm(%"class.base::internal::WeakPtrBase"* %8, %"class.base::internal::WeakReference"* nonnull dereferenceable(8) %3, i64 %7) #11
  call void @_ZN4base8internal13WeakReferenceD1Ev(%"class.base::internal::WeakReference"* nonnull %3) #11
  call void @llvm.lifetime.end.p0i8(i64 8, i8* nonnull %4) #11, !noalias !2
  ret void
}

; Function Attrs: nounwind ssp uwtable
define hidden void @_ZN6syncer38TrustedVaultAccessTokenFetcherFrontend16FetchAccessTokenERK13CoreAccountIdN4base12OnceCallbackIFvN4absl8optionalIN6signin15AccessTokenInfoEEEEEE(%"class.syncer::TrustedVaultAccessTokenFetcherFrontend"*, %struct.CoreAccountId* dereferenceable(24), %"class.base::OnceCallback.159"*) local_unnamed_addr #0 align 2 {
  %4 = alloca %"class.base::OnceCallback.159", align 8
  %5 = alloca %"class.absl::optional", align 8
  %6 = getelementptr inbounds %"class.syncer::TrustedVaultAccessTokenFetcherFrontend", %"class.syncer::TrustedVaultAccessTokenFetcherFrontend"* %0, i64 0, i32 3
  %7 = tail call zeroext i1 @_ZneRK13CoreAccountIdS1_(%struct.CoreAccountId* dereferenceable(24) %1, %struct.CoreAccountId* dereferenceable(24) %6) #11
  br i1 %7, label %8, label %43

8:                                                ; preds = %3
  %9 = getelementptr inbounds %"class.absl::optional", %"class.absl::optional"* %5, i64 0, i32 0, i32 0, i32 0, i32 0
  store i8 0, i8* %9, align 8
  %10 = getelementptr inbounds %"class.absl::optional", %"class.absl::optional"* %5, i64 0, i32 0, i32 0, i32 0, i32 1
  %11 = bitcast %union.anon.167* %10 to i8*
  call void @llvm.memset.p0i8.i64(i8* align 8 %11, i8 0, i64 56, i1 false) #11
  %12 = bitcast %"class.base::OnceCallback.159"* %4 to i8*
  call void @llvm.lifetime.start.p0i8(i64 8, i8* nonnull %12) #11
  %13 = getelementptr inbounds %"class.base::OnceCallback.159", %"class.base::OnceCallback.159"* %2, i64 0, i32 0, i32 0, i32 0
  %14 = bitcast %"class.base::OnceCallback.159"* %2 to i64*
  %15 = load i64, i64* %14, align 8
  %16 = bitcast %"class.base::OnceCallback.159"* %4 to i64*
  store i64 %15, i64* %16, align 8
  store %"class.base::internal::BindStateBase"* null, %"class.base::internal::BindStateBase"** %13, align 8
  %17 = getelementptr inbounds %"class.base::OnceCallback.159", %"class.base::OnceCallback.159"* %4, i64 0, i32 0
  %18 = inttoptr i64 %15 to %"class.base::internal::BindStateBase"*
  %19 = getelementptr inbounds %"class.base::internal::BindStateBase", %"class.base::internal::BindStateBase"* %18, i64 0, i32 1
  %20 = bitcast void ()** %19 to void (%"class.base::internal::BindStateBase"*, %"class.absl::optional"*)**
  %21 = load void (%"class.base::internal::BindStateBase"*, %"class.absl::optional"*)*, void (%"class.base::internal::BindStateBase"*, %"class.absl::optional"*)** %20, align 8
  call void %21(%"class.base::internal::BindStateBase"* %18, %"class.absl::optional"* nonnull dereferenceable(64) %5) #11
  call void @_ZN4base8internal12CallbackBaseD2Ev(%"class.base::internal::CallbackBase"* nonnull %17) #11
  call void @llvm.lifetime.end.p0i8(i64 8, i8* nonnull %12) #11
  %22 = load i8, i8* %9, align 8, !range !5
  %23 = icmp eq i8 %22, 0
  br i1 %23, label %64, label %24

24:                                               ; preds = %8
  %25 = getelementptr inbounds %"class.absl::optional", %"class.absl::optional"* %5, i64 0, i32 0, i32 0, i32 0, i32 1, i32 0
  %26 = getelementptr inbounds %"class.absl::optional", %"class.absl::optional"* %5, i64 0, i32 0, i32 0, i32 0, i32 1, i32 0, i32 2
  %27 = bitcast %"class.std::__1::basic_string"* %26 to %"struct.std::__1::basic_string<char, std::__1::char_traits<char>, std::__1::allocator<char> >::__short"*
  %28 = getelementptr inbounds %"struct.std::__1::basic_string<char, std::__1::char_traits<char>, std::__1::allocator<char> >::__short", %"struct.std::__1::basic_string<char, std::__1::char_traits<char>, std::__1::allocator<char> >::__short"* %27, i64 0, i32 1, i32 0
  %29 = load i8, i8* %28, align 1
  %30 = icmp slt i8 %29, 0
  br i1 %30, label %31, label %34

31:                                               ; preds = %24
  %32 = getelementptr inbounds %"class.std::__1::basic_string", %"class.std::__1::basic_string"* %26, i64 0, i32 0, i32 0, i32 0, i32 0, i32 0, i32 0
  %33 = load i8*, i8** %32, align 8
  call void @_ZdlPv(i8* %33) #12
  br label %34

34:                                               ; preds = %31, %24
  %35 = bitcast %"struct.signin::AccessTokenInfo"* %25 to %"struct.std::__1::basic_string<char, std::__1::char_traits<char>, std::__1::allocator<char> >::__short"*
  %36 = getelementptr inbounds %"struct.std::__1::basic_string<char, std::__1::char_traits<char>, std::__1::allocator<char> >::__short", %"struct.std::__1::basic_string<char, std::__1::char_traits<char>, std::__1::allocator<char> >::__short"* %35, i64 0, i32 1, i32 0
  %37 = load i8, i8* %36, align 1
  %38 = icmp slt i8 %37, 0
  br i1 %38, label %39, label %42

39:                                               ; preds = %34
  %40 = getelementptr inbounds %"struct.signin::AccessTokenInfo", %"struct.signin::AccessTokenInfo"* %25, i64 0, i32 0, i32 0, i32 0, i32 0, i32 0, i32 0, i32 0
  %41 = load i8*, i8** %40, align 8
  call void @_ZdlPv(i8* %41) #12
  br label %42

42:                                               ; preds = %39, %34
  store i8 0, i8* %9, align 8
  br label %64

43:                                               ; preds = %3
  %44 = getelementptr inbounds %"class.syncer::TrustedVaultAccessTokenFetcherFrontend", %"class.syncer::TrustedVaultAccessTokenFetcherFrontend"* %0, i64 0, i32 4, i32 0, i32 1
  %45 = load %"class.base::OnceCallback.159"*, %"class.base::OnceCallback.159"** %44, align 8
  %46 = getelementptr inbounds %"class.syncer::TrustedVaultAccessTokenFetcherFrontend", %"class.syncer::TrustedVaultAccessTokenFetcherFrontend"* %0, i64 0, i32 4, i32 0, i32 2, i32 0, i32 0
  %47 = load %"class.base::OnceCallback.159"*, %"class.base::OnceCallback.159"** %46, align 8
  %48 = icmp ult %"class.base::OnceCallback.159"* %45, %47
  br i1 %48, label %49, label %57

49:                                               ; preds = %43
  %50 = getelementptr inbounds %"class.base::OnceCallback.159", %"class.base::OnceCallback.159"* %2, i64 0, i32 0, i32 0, i32 0
  %51 = bitcast %"class.base::OnceCallback.159"* %2 to i64*
  %52 = load i64, i64* %51, align 8
  %53 = bitcast %"class.base::OnceCallback.159"* %45 to i64*
  store i64 %52, i64* %53, align 8
  store %"class.base::internal::BindStateBase"* null, %"class.base::internal::BindStateBase"** %50, align 8
  %54 = getelementptr inbounds %"class.base::OnceCallback.159", %"class.base::OnceCallback.159"* %45, i64 1
  %55 = ptrtoint %"class.base::OnceCallback.159"* %54 to i64
  %56 = bitcast %"class.base::OnceCallback.159"** %44 to i64*
  store i64 %55, i64* %56, align 8
  br label %59

57:                                               ; preds = %43
  %58 = getelementptr inbounds %"class.syncer::TrustedVaultAccessTokenFetcherFrontend", %"class.syncer::TrustedVaultAccessTokenFetcherFrontend"* %0, i64 0, i32 4
  tail call void @_ZNSt3__16vectorIN4base12OnceCallbackIFvN4absl8optionalIN6signin15AccessTokenInfoEEEEEENS_9allocatorIS9_EEE24__emplace_back_slow_pathIJS9_EEEvDpOT_(%"class.std::__1::vector.157"* %58, %"class.base::OnceCallback.159"* dereferenceable(8) %2) #11
  br label %59

59:                                               ; preds = %49, %57
  %60 = getelementptr inbounds %"class.syncer::TrustedVaultAccessTokenFetcherFrontend", %"class.syncer::TrustedVaultAccessTokenFetcherFrontend"* %0, i64 0, i32 2, i32 0, i32 0, i32 0
  %61 = load %"class.signin::PrimaryAccountAccessTokenFetcher"*, %"class.signin::PrimaryAccountAccessTokenFetcher"** %60, align 8
  %62 = icmp eq %"class.signin::PrimaryAccountAccessTokenFetcher"* %61, null
  br i1 %62, label %63, label %64

63:                                               ; preds = %59
  tail call void @_ZN6syncer38TrustedVaultAccessTokenFetcherFrontend21StartAccessTokenFetchEv(%"class.syncer::TrustedVaultAccessTokenFetcherFrontend"* %0)
  br label %64

64:                                               ; preds = %42, %8, %63, %59
  ret void
}

declare zeroext i1 @_ZneRK13CoreAccountIdS1_(%struct.CoreAccountId* dereferenceable(24), %struct.CoreAccountId* dereferenceable(24)) local_unnamed_addr #1

; Function Attrs: nounwind ssp uwtable
define hidden void @_ZN6syncer38TrustedVaultAccessTokenFetcherFrontend21StartAccessTokenFetchEv(%"class.syncer::TrustedVaultAccessTokenFetcherFrontend"*) local_unnamed_addr #0 align 2 {
  %2 = alloca %"class.std::__1::set", align 8
  %3 = alloca [1 x %"class.std::__1::basic_string"], align 8
  %4 = alloca %"class.base::OnceCallback", align 8
  %5 = alloca i32, align 4
  %6 = alloca i32, align 4
  %7 = bitcast %"class.std::__1::set"* %2 to i8*
  call void @llvm.lifetime.start.p0i8(i64 24, i8* nonnull %7) #11
  %8 = bitcast [1 x %"class.std::__1::basic_string"]* %3 to i8*
  call void @llvm.lifetime.start.p0i8(i64 24, i8* nonnull %8) #11
  %9 = getelementptr inbounds [1 x %"class.std::__1::basic_string"], [1 x %"class.std::__1::basic_string"]* %3, i64 0, i64 0
  %10 = tail call i8* @_Znwm(i64 48) #12
  %11 = getelementptr inbounds [1 x %"class.std::__1::basic_string"], [1 x %"class.std::__1::basic_string"]* %3, i64 0, i64 0, i32 0, i32 0, i32 0, i32 0, i32 0, i32 0
  store i8* %10, i8** %11, align 8
  %12 = getelementptr inbounds [1 x %"class.std::__1::basic_string"], [1 x %"class.std::__1::basic_string"]* %3, i64 0, i64 0, i32 0, i32 0, i32 0, i32 0, i32 0, i32 1
  %13 = bitcast i64* %12 to <2 x i64>*
  store <2 x i64> <i64 41, i64 -9223372036854775760>, <2 x i64>* %13, align 8
  tail call void @llvm.memcpy.p0i8.p0i8.i64(i8* nonnull align 1 %10, i8* align 16 getelementptr inbounds ([42 x i8], [42 x i8]* @_ZN6syncer12_GLOBAL__N_121kCryptAuthOAuth2ScopeE, i64 0, i64 0), i64 41, i1 false) #11
  %14 = getelementptr inbounds i8, i8* %10, i64 41
  store i8 0, i8* %14, align 1
  %15 = getelementptr inbounds %"class.std::__1::set", %"class.std::__1::set"* %2, i64 0, i32 0
  %16 = getelementptr inbounds %"class.std::__1::set", %"class.std::__1::set"* %2, i64 0, i32 0, i32 1, i32 0, i32 0, i32 0
  %17 = getelementptr inbounds %"class.std::__1::set", %"class.std::__1::set"* %2, i64 0, i32 0, i32 1, i32 0, i32 0
  %18 = getelementptr inbounds %"class.std::__1::set", %"class.std::__1::set"* %2, i64 0, i32 0, i32 0
  %19 = bitcast %"class.std::__1::__tree_node_base"** %16 to i8*
  call void @llvm.memset.p0i8.i64(i8* align 8 %19, i8 0, i64 16, i1 false) #11
  store %"class.std::__1::__tree_end_node"* %17, %"class.std::__1::__tree_end_node"** %18, align 8
  %20 = call { %"class.std::__1::__tree_end_node"*, i8 } @_ZNSt3__16__treeINS_12basic_stringIcNS_11char_traitsIcEENS_9allocatorIcEEEENS_4lessIS6_EENS4_IS6_EEE30__emplace_hint_unique_key_argsIS6_JRKS6_EEENS_4pairINS_15__tree_iteratorIS6_PNS_11__tree_nodeIS6_PvEElEEbEENS_21__tree_const_iteratorIS6_SJ_lEERKT_DpOT0_(%"class.std::__1::__tree.131"* nonnull %15, %"class.std::__1::__tree_end_node"* %17, %"class.std::__1::basic_string"* nonnull dereferenceable(24) %9, %"class.std::__1::basic_string"* nonnull dereferenceable(24) %9) #11
  %21 = getelementptr inbounds %"class.syncer::TrustedVaultAccessTokenFetcherFrontend", %"class.syncer::TrustedVaultAccessTokenFetcherFrontend"* %0, i64 0, i32 1
  %22 = bitcast %"class.base::OnceCallback"* %4 to i8*
  call void @llvm.lifetime.start.p0i8(i64 8, i8* nonnull %22) #11
  %23 = ptrtoint %"class.syncer::TrustedVaultAccessTokenFetcherFrontend"* %0 to i64
  %24 = call i8* @_Znwm(i64 56) #12, !noalias !6
  %25 = bitcast i8* %24 to %"class.base::internal::BindStateBase"*
  call void @_ZN4base8internal13BindStateBaseC2EPFvvEPFvPKS1_E(%"class.base::internal::BindStateBase"* nonnull %25, void ()* bitcast (void (%"class.base::internal::BindStateBase"*, %class.GoogleServiceAuthError*, %"struct.signin::AccessTokenInfo"*)* @_ZN4base8internal7InvokerINS0_9BindStateIMN6syncer38TrustedVaultAccessTokenFetcherFrontendEFv22GoogleServiceAuthErrorN6signin15AccessTokenInfoEEJNS0_17UnretainedWrapperIS4_EEEEEFvS5_S7_EE7RunOnceEPNS0_13BindStateBaseEOS5_OS7_ to void ()*), void (%"class.base::internal::BindStateBase"*)* nonnull @_ZN4base8internal9BindStateIMN6syncer38TrustedVaultAccessTokenFetcherFrontendEFv22GoogleServiceAuthErrorN6signin15AccessTokenInfoEEJNS0_17UnretainedWrapperIS3_EEEE7DestroyEPKNS0_13BindStateBaseE) #11, !noalias !6
  %26 = getelementptr inbounds i8, i8* %24, i64 32
  %27 = bitcast i8* %26 to <2 x i64>*
  store <2 x i64> <i64 ptrtoint (void (%"class.syncer::TrustedVaultAccessTokenFetcherFrontend"*, %class.GoogleServiceAuthError*, %"struct.signin::AccessTokenInfo"*)* @_ZN6syncer38TrustedVaultAccessTokenFetcherFrontend27OnAccessTokenFetchCompletedE22GoogleServiceAuthErrorN6signin15AccessTokenInfoE to i64), i64 0>, <2 x i64>* %27, align 8, !noalias !6
  %28 = getelementptr inbounds i8, i8* %24, i64 48
  %29 = bitcast i8* %28 to i64*
  store i64 %23, i64* %29, align 8, !noalias !6
  %30 = bitcast %"class.base::OnceCallback"* %4 to i8**
  store i8* %24, i8** %30, align 8, !alias.scope !6
  %31 = bitcast i32* %5 to i8*
  call void @llvm.lifetime.start.p0i8(i64 4, i8* nonnull %31) #11
  store i32 1, i32* %5, align 4
  %32 = bitcast i32* %6 to i8*
  call void @llvm.lifetime.start.p0i8(i64 4, i8* nonnull %32) #11
  store i32 0, i32* %6, align 4
  %33 = call %"class.signin::PrimaryAccountAccessTokenFetcher"* @_ZNSt3__111make_uniqueIN6signin32PrimaryAccountAccessTokenFetcherEJRA39_KcRKPNS1_15IdentityManagerENS_3setINS_12basic_stringIcNS_11char_traitsIcEENS_9allocatorIcEEEENS_4lessISG_EENSE_ISG_EEEEN4base12OnceCallbackIFv22GoogleServiceAuthErrorNS1_15AccessTokenInfoEEEENS2_4ModeENS1_12ConsentLevelEEEENS_11__unique_ifIT_E15__unique_singleEDpOT0_([39 x i8]* nonnull dereferenceable(39) @.str, %"class.signin::IdentityManager"** dereferenceable(8) %21, %"class.std::__1::set"* nonnull dereferenceable(24) %2, %"class.base::OnceCallback"* nonnull dereferenceable(8) %4, i32* nonnull dereferenceable(4) %5, i32* nonnull dereferenceable(4) %6)
  %34 = ptrtoint %"class.signin::PrimaryAccountAccessTokenFetcher"* %33 to i64
  %35 = getelementptr inbounds %"class.syncer::TrustedVaultAccessTokenFetcherFrontend", %"class.syncer::TrustedVaultAccessTokenFetcherFrontend"* %0, i64 0, i32 2
  %36 = getelementptr inbounds %"class.std::__1::unique_ptr.128", %"class.std::__1::unique_ptr.128"* %35, i64 0, i32 0, i32 0, i32 0
  %37 = load %"class.signin::PrimaryAccountAccessTokenFetcher"*, %"class.signin::PrimaryAccountAccessTokenFetcher"** %36, align 8
  %38 = bitcast %"class.std::__1::unique_ptr.128"* %35 to i64*
  store i64 %34, i64* %38, align 8
  %39 = icmp eq %"class.signin::PrimaryAccountAccessTokenFetcher"* %37, null
  br i1 %39, label %45, label %40

40:                                               ; preds = %1
  %41 = bitcast %"class.signin::PrimaryAccountAccessTokenFetcher"* %37 to void (%"class.signin::PrimaryAccountAccessTokenFetcher"*)***
  %42 = load void (%"class.signin::PrimaryAccountAccessTokenFetcher"*)**, void (%"class.signin::PrimaryAccountAccessTokenFetcher"*)*** %41, align 8
  %43 = getelementptr inbounds void (%"class.signin::PrimaryAccountAccessTokenFetcher"*)*, void (%"class.signin::PrimaryAccountAccessTokenFetcher"*)** %42, i64 1
  %44 = load void (%"class.signin::PrimaryAccountAccessTokenFetcher"*)*, void (%"class.signin::PrimaryAccountAccessTokenFetcher"*)** %43, align 8
  call void %44(%"class.signin::PrimaryAccountAccessTokenFetcher"* nonnull %37) #11
  br label %45

45:                                               ; preds = %40, %1
  call void @llvm.lifetime.end.p0i8(i64 4, i8* nonnull %32) #11
  call void @llvm.lifetime.end.p0i8(i64 4, i8* nonnull %31) #11
  %46 = getelementptr inbounds %"class.base::OnceCallback", %"class.base::OnceCallback"* %4, i64 0, i32 0
  call void @_ZN4base8internal12CallbackBaseD2Ev(%"class.base::internal::CallbackBase"* nonnull %46) #11
  call void @llvm.lifetime.end.p0i8(i64 8, i8* nonnull %22) #11
  %47 = bitcast %"class.std::__1::__tree_end_node"* %17 to %"class.std::__1::__tree_node"**
  %48 = load %"class.std::__1::__tree_node"*, %"class.std::__1::__tree_node"** %47, align 8
  call void @_ZNSt3__16__treeINS_12basic_stringIcNS_11char_traitsIcEENS_9allocatorIcEEEENS_4lessIS6_EENS4_IS6_EEE7destroyEPNS_11__tree_nodeIS6_PvEE(%"class.std::__1::__tree.131"* nonnull %15, %"class.std::__1::__tree_node"* %48) #11
  %49 = bitcast [1 x %"class.std::__1::basic_string"]* %3 to %"struct.std::__1::basic_string<char, std::__1::char_traits<char>, std::__1::allocator<char> >::__short"*
  %50 = getelementptr inbounds %"struct.std::__1::basic_string<char, std::__1::char_traits<char>, std::__1::allocator<char> >::__short", %"struct.std::__1::basic_string<char, std::__1::char_traits<char>, std::__1::allocator<char> >::__short"* %49, i64 0, i32 1, i32 0
  %51 = load i8, i8* %50, align 1
  %52 = icmp slt i8 %51, 0
  br i1 %52, label %53, label %56

53:                                               ; preds = %45
  %54 = getelementptr inbounds [1 x %"class.std::__1::basic_string"], [1 x %"class.std::__1::basic_string"]* %3, i64 0, i64 0, i32 0, i32 0, i32 0, i32 0, i32 0, i32 0
  %55 = load i8*, i8** %54, align 8
  call void @_ZdlPv(i8* %55) #12
  br label %56

56:                                               ; preds = %45, %53
  call void @llvm.lifetime.end.p0i8(i64 24, i8* nonnull %8) #11
  call void @llvm.lifetime.end.p0i8(i64 24, i8* nonnull %7) #11
  ret void
}

; Function Attrs: nounwind ssp uwtable
define hidden void @_ZN6syncer38TrustedVaultAccessTokenFetcherFrontend23OnPrimaryAccountChangedERKN6signin25PrimaryAccountChangeEventE(%"class.syncer::TrustedVaultAccessTokenFetcherFrontend"*, %"class.signin::PrimaryAccountChangeEvent"* nocapture readnone dereferenceable(176)) unnamed_addr #0 align 2 {
  tail call void @_ZN6syncer38TrustedVaultAccessTokenFetcherFrontend28UpdatePrimaryAccountIfNeededEv(%"class.syncer::TrustedVaultAccessTokenFetcherFrontend"* %0)
  ret void
}

; Function Attrs: argmemonly nounwind
declare void @llvm.lifetime.start.p0i8(i64 immarg, i8* nocapture) #4

; Function Attrs: argmemonly nounwind
declare void @llvm.memset.p0i8.i64(i8* nocapture writeonly, i8, i64, i1 immarg) #4

declare void @_ZNK6signin15IdentityManager21GetPrimaryAccountInfoENS_12ConsentLevelE(%struct.CoreAccountInfo* sret, %"class.signin::IdentityManager"*, i32) local_unnamed_addr #1

declare zeroext i1 @_ZeqRK13CoreAccountIdS1_(%struct.CoreAccountId* dereferenceable(24), %struct.CoreAccountId* dereferenceable(24)) local_unnamed_addr #1

; Function Attrs: nounwind ssp uwtable
define hidden void @_ZN6syncer38TrustedVaultAccessTokenFetcherFrontend22FulfillPendingRequestsEN4absl8optionalIN6signin15AccessTokenInfoEEE(%"class.syncer::TrustedVaultAccessTokenFetcherFrontend"* nocapture, %"class.absl::optional"* nocapture readonly) local_unnamed_addr #0 align 2 {
  %3 = alloca %"class.base::OnceCallback.159", align 8
  %4 = alloca %"class.absl::optional", align 8
  %5 = getelementptr inbounds %"class.syncer::TrustedVaultAccessTokenFetcherFrontend", %"class.syncer::TrustedVaultAccessTokenFetcherFrontend"* %0, i64 0, i32 4, i32 0, i32 0
  %6 = load %"class.base::OnceCallback.159"*, %"class.base::OnceCallback.159"** %5, align 8
  %7 = getelementptr inbounds %"class.syncer::TrustedVaultAccessTokenFetcherFrontend", %"class.syncer::TrustedVaultAccessTokenFetcherFrontend"* %0, i64 0, i32 4, i32 0, i32 1
  %8 = load %"class.base::OnceCallback.159"*, %"class.base::OnceCallback.159"** %7, align 8
  %9 = icmp eq %"class.base::OnceCallback.159"* %6, %8
  br i1 %9, label %50, label %10

10:                                               ; preds = %2
  %11 = getelementptr inbounds %"class.absl::optional", %"class.absl::optional"* %4, i64 0, i32 0, i32 0, i32 0, i32 0
  %12 = getelementptr inbounds %"class.absl::optional", %"class.absl::optional"* %1, i64 0, i32 0, i32 0, i32 0, i32 0
  %13 = getelementptr inbounds %"class.absl::optional", %"class.absl::optional"* %1, i64 0, i32 0, i32 0, i32 0, i32 1, i32 0
  %14 = getelementptr inbounds %"class.absl::optional", %"class.absl::optional"* %4, i64 0, i32 0, i32 0, i32 0, i32 1, i32 0
  %15 = bitcast %"struct.signin::AccessTokenInfo"* %13 to %"struct.std::__1::basic_string<char, std::__1::char_traits<char>, std::__1::allocator<char> >::__short"*
  %16 = getelementptr inbounds %"struct.std::__1::basic_string<char, std::__1::char_traits<char>, std::__1::allocator<char> >::__short", %"struct.std::__1::basic_string<char, std::__1::char_traits<char>, std::__1::allocator<char> >::__short"* %15, i64 0, i32 1, i32 0
  %17 = bitcast %"struct.signin::AccessTokenInfo"* %14 to i8*
  %18 = bitcast %"struct.signin::AccessTokenInfo"* %13 to i8*
  %19 = getelementptr inbounds %"struct.signin::AccessTokenInfo", %"struct.signin::AccessTokenInfo"* %14, i64 0, i32 0
  %20 = getelementptr inbounds %"struct.signin::AccessTokenInfo", %"struct.signin::AccessTokenInfo"* %13, i64 0, i32 0, i32 0, i32 0, i32 0, i32 0, i32 0, i32 0
  %21 = getelementptr inbounds %"class.absl::optional", %"class.absl::optional"* %1, i64 0, i32 0, i32 0, i32 0, i32 1, i32 0, i32 0, i32 0, i32 0, i32 0, i32 0, i32 0, i32 1
  %22 = getelementptr inbounds %"class.absl::optional", %"class.absl::optional"* %1, i64 0, i32 0, i32 0, i32 0, i32 1, i32 0, i32 1, i32 0, i32 0
  %23 = getelementptr inbounds %"class.absl::optional", %"class.absl::optional"* %4, i64 0, i32 0, i32 0, i32 0, i32 1, i32 0, i32 1, i32 0, i32 0
  %24 = getelementptr inbounds %"class.absl::optional", %"class.absl::optional"* %4, i64 0, i32 0, i32 0, i32 0, i32 1, i32 0, i32 2
  %25 = getelementptr inbounds %"class.absl::optional", %"class.absl::optional"* %1, i64 0, i32 0, i32 0, i32 0, i32 1, i32 0, i32 2
  %26 = bitcast %"class.std::__1::basic_string"* %25 to %"struct.std::__1::basic_string<char, std::__1::char_traits<char>, std::__1::allocator<char> >::__short"*
  %27 = getelementptr inbounds %"struct.std::__1::basic_string<char, std::__1::char_traits<char>, std::__1::allocator<char> >::__short", %"struct.std::__1::basic_string<char, std::__1::char_traits<char>, std::__1::allocator<char> >::__short"* %26, i64 0, i32 1, i32 0
  %28 = bitcast %"class.std::__1::basic_string"* %24 to i8*
  %29 = bitcast %"class.std::__1::basic_string"* %25 to i8*
  %30 = getelementptr inbounds %"class.std::__1::basic_string", %"class.std::__1::basic_string"* %25, i64 0, i32 0, i32 0, i32 0, i32 0, i32 0, i32 0
  %31 = getelementptr inbounds %"class.absl::optional", %"class.absl::optional"* %1, i64 0, i32 0, i32 0, i32 0, i32 1, i32 0, i32 2, i32 0, i32 0, i32 0, i32 0, i32 0, i32 1
  %32 = bitcast %"class.base::OnceCallback.159"* %3 to i8*
  %33 = bitcast %"class.base::OnceCallback.159"* %3 to i64*
  %34 = getelementptr inbounds %"class.base::OnceCallback.159", %"class.base::OnceCallback.159"* %3, i64 0, i32 0
  %35 = bitcast %"class.std::__1::basic_string"* %24 to %"struct.std::__1::basic_string<char, std::__1::char_traits<char>, std::__1::allocator<char> >::__short"*
  %36 = getelementptr inbounds %"struct.std::__1::basic_string<char, std::__1::char_traits<char>, std::__1::allocator<char> >::__short", %"struct.std::__1::basic_string<char, std::__1::char_traits<char>, std::__1::allocator<char> >::__short"* %35, i64 0, i32 1, i32 0
  %37 = getelementptr inbounds %"class.std::__1::basic_string", %"class.std::__1::basic_string"* %24, i64 0, i32 0, i32 0, i32 0, i32 0, i32 0, i32 0
  %38 = bitcast %"struct.signin::AccessTokenInfo"* %14 to %"struct.std::__1::basic_string<char, std::__1::char_traits<char>, std::__1::allocator<char> >::__short"*
  %39 = getelementptr inbounds %"struct.std::__1::basic_string<char, std::__1::char_traits<char>, std::__1::allocator<char> >::__short", %"struct.std::__1::basic_string<char, std::__1::char_traits<char>, std::__1::allocator<char> >::__short"* %38, i64 0, i32 1, i32 0
  %40 = getelementptr inbounds %"struct.signin::AccessTokenInfo", %"struct.signin::AccessTokenInfo"* %14, i64 0, i32 0, i32 0, i32 0, i32 0, i32 0, i32 0, i32 0
  br label %52

41:                                               ; preds = %93
  %42 = load %"class.base::OnceCallback.159"*, %"class.base::OnceCallback.159"** %5, align 8
  %43 = load %"class.base::OnceCallback.159"*, %"class.base::OnceCallback.159"** %7, align 8
  %44 = icmp eq %"class.base::OnceCallback.159"* %43, %42
  br i1 %44, label %50, label %45

45:                                               ; preds = %41, %45
  %46 = phi %"class.base::OnceCallback.159"* [ %47, %45 ], [ %43, %41 ]
  %47 = getelementptr inbounds %"class.base::OnceCallback.159", %"class.base::OnceCallback.159"* %46, i64 -1
  %48 = getelementptr inbounds %"class.base::OnceCallback.159", %"class.base::OnceCallback.159"* %47, i64 0, i32 0
  call void @_ZN4base8internal12CallbackBaseD2Ev(%"class.base::internal::CallbackBase"* %48) #11
  %49 = icmp eq %"class.base::OnceCallback.159"* %47, %42
  br i1 %49, label %50, label %45

50:                                               ; preds = %45, %2, %41
  %51 = phi %"class.base::OnceCallback.159"* [ %42, %41 ], [ %6, %2 ], [ %42, %45 ]
  store %"class.base::OnceCallback.159"* %51, %"class.base::OnceCallback.159"** %7, align 8
  ret void

52:                                               ; preds = %10, %93
  %53 = phi %"class.base::OnceCallback.159"* [ %6, %10 ], [ %94, %93 ]
  call void @llvm.memset.p0i8.i64(i8* nonnull align 8 %11, i8 0, i64 64, i1 false) #11
  %54 = load i8, i8* %12, align 8, !range !5
  %55 = icmp eq i8 %54, 0
  br i1 %55, label %72, label %56

56:                                               ; preds = %52
  %57 = load i8, i8* %16, align 1
  %58 = icmp slt i8 %57, 0
  br i1 %58, label %60, label %59

59:                                               ; preds = %56
  call void @llvm.memcpy.p0i8.p0i8.i64(i8* align 8 %17, i8* align 8 %18, i64 24, i1 false) #11
  br label %63

60:                                               ; preds = %56
  %61 = load i8*, i8** %20, align 8
  %62 = load i64, i64* %21, align 8
  call void @_ZNSt3__112basic_stringIcNS_11char_traitsIcEENS_9allocatorIcEEE25__init_copy_ctor_externalEPKcm(%"class.std::__1::basic_string"* %19, i8* %61, i64 %62) #11
  br label %63

63:                                               ; preds = %60, %59
  %64 = load i64, i64* %22, align 8
  store i64 %64, i64* %23, align 8
  %65 = load i8, i8* %27, align 1
  %66 = icmp slt i8 %65, 0
  br i1 %66, label %68, label %67

67:                                               ; preds = %63
  call void @llvm.memcpy.p0i8.p0i8.i64(i8* align 8 %28, i8* align 8 %29, i64 24, i1 false) #11
  br label %71

68:                                               ; preds = %63
  %69 = load i8*, i8** %30, align 8
  %70 = load i64, i64* %31, align 8
  call void @_ZNSt3__112basic_stringIcNS_11char_traitsIcEENS_9allocatorIcEEE25__init_copy_ctor_externalEPKcm(%"class.std::__1::basic_string"* %24, i8* %69, i64 %70) #11
  br label %71

71:                                               ; preds = %68, %67
  store i8 1, i8* %11, align 8
  br label %72

72:                                               ; preds = %52, %71
  call void @llvm.lifetime.start.p0i8(i64 8, i8* nonnull %32) #11
  %73 = getelementptr inbounds %"class.base::OnceCallback.159", %"class.base::OnceCallback.159"* %53, i64 0, i32 0, i32 0, i32 0
  %74 = bitcast %"class.base::OnceCallback.159"* %53 to i64*
  %75 = load i64, i64* %74, align 8
  store i64 %75, i64* %33, align 8
  store %"class.base::internal::BindStateBase"* null, %"class.base::internal::BindStateBase"** %73, align 8
  %76 = inttoptr i64 %75 to %"class.base::internal::BindStateBase"*
  %77 = getelementptr inbounds %"class.base::internal::BindStateBase", %"class.base::internal::BindStateBase"* %76, i64 0, i32 1
  %78 = bitcast void ()** %77 to void (%"class.base::internal::BindStateBase"*, %"class.absl::optional"*)**
  %79 = load void (%"class.base::internal::BindStateBase"*, %"class.absl::optional"*)*, void (%"class.base::internal::BindStateBase"*, %"class.absl::optional"*)** %78, align 8
  call void %79(%"class.base::internal::BindStateBase"* %76, %"class.absl::optional"* nonnull dereferenceable(64) %4) #11
  call void @_ZN4base8internal12CallbackBaseD2Ev(%"class.base::internal::CallbackBase"* nonnull %34) #11
  call void @llvm.lifetime.end.p0i8(i64 8, i8* nonnull %32) #11
  %80 = load i8, i8* %11, align 8, !range !5
  %81 = icmp eq i8 %80, 0
  br i1 %81, label %93, label %82

82:                                               ; preds = %72
  %83 = load i8, i8* %36, align 1
  %84 = icmp slt i8 %83, 0
  br i1 %84, label %85, label %87

85:                                               ; preds = %82
  %86 = load i8*, i8** %37, align 8
  call void @_ZdlPv(i8* %86) #12
  br label %87

87:                                               ; preds = %85, %82
  %88 = load i8, i8* %39, align 1
  %89 = icmp slt i8 %88, 0
  br i1 %89, label %90, label %92

90:                                               ; preds = %87
  %91 = load i8*, i8** %40, align 8
  call void @_ZdlPv(i8* %91) #12
  br label %92

92:                                               ; preds = %90, %87
  store i8 0, i8* %11, align 8
  br label %93

93:                                               ; preds = %72, %92
  %94 = getelementptr inbounds %"class.base::OnceCallback.159", %"class.base::OnceCallback.159"* %53, i64 1
  %95 = icmp eq %"class.base::OnceCallback.159"* %94, %8
  br i1 %95, label %41, label %52
}

declare dereferenceable(24) %struct.CoreAccountId* @_ZN13CoreAccountIdaSERKS_(%struct.CoreAccountId*, %struct.CoreAccountId* dereferenceable(24)) local_unnamed_addr #1

; Function Attrs: nounwind
declare void @_ZN15CoreAccountInfoD1Ev(%struct.CoreAccountInfo*) unnamed_addr #2

; Function Attrs: argmemonly nounwind
declare void @llvm.lifetime.end.p0i8(i64 immarg, i8* nocapture) #4

; Function Attrs: inlinehint nounwind ssp uwtable
define linkonce_odr hidden %"class.signin::PrimaryAccountAccessTokenFetcher"* @_ZNSt3__111make_uniqueIN6signin32PrimaryAccountAccessTokenFetcherEJRA39_KcRKPNS1_15IdentityManagerENS_3setINS_12basic_stringIcNS_11char_traitsIcEENS_9allocatorIcEEEENS_4lessISG_EENSE_ISG_EEEEN4base12OnceCallbackIFv22GoogleServiceAuthErrorNS1_15AccessTokenInfoEEEENS2_4ModeENS1_12ConsentLevelEEEENS_11__unique_ifIT_E15__unique_singleEDpOT0_([39 x i8]* dereferenceable(39), %"class.signin::IdentityManager"** dereferenceable(8), %"class.std::__1::set"* dereferenceable(24), %"class.base::OnceCallback"* dereferenceable(8), i32* dereferenceable(4), i32* dereferenceable(4)) local_unnamed_addr #5 comdat {
  %7 = alloca %"class.std::__1::basic_string", align 8
  %8 = alloca %"class.base::OnceCallback", align 8
  %9 = tail call i8* @_Znwm(i64 112) #12
  %10 = bitcast i8* %9 to %"class.signin::PrimaryAccountAccessTokenFetcher"*
  %11 = bitcast %"class.std::__1::basic_string"* %7 to i8*
  call void @llvm.lifetime.start.p0i8(i64 24, i8* nonnull %11) #11
  %12 = getelementptr inbounds [39 x i8], [39 x i8]* %0, i64 0, i64 0
  %13 = tail call i64 @strlen(i8* %12) #11
  %14 = icmp ugt i64 %13, -17
  br i1 %14, label %15, label %17

15:                                               ; preds = %6
  %16 = bitcast %"class.std::__1::basic_string"* %7 to %"class.std::__1::__basic_string_common"*
  call void @_ZNKSt3__121__basic_string_commonILb1EE20__throw_length_errorEv(%"class.std::__1::__basic_string_common"* nonnull %16) #13
  unreachable

17:                                               ; preds = %6
  %18 = icmp ult i64 %13, 23
  br i1 %18, label %28, label %19

19:                                               ; preds = %17
  %20 = add nuw i64 %13, 16
  %21 = and i64 %20, -16
  %22 = tail call i8* @_Znwm(i64 %21) #12
  %23 = getelementptr inbounds %"class.std::__1::basic_string", %"class.std::__1::basic_string"* %7, i64 0, i32 0, i32 0, i32 0, i32 0, i32 0, i32 0
  store i8* %22, i8** %23, align 8
  %24 = or i64 %21, -9223372036854775808
  %25 = getelementptr inbounds %"class.std::__1::basic_string", %"class.std::__1::basic_string"* %7, i64 0, i32 0, i32 0, i32 0, i32 0, i32 0, i32 2
  store i64 %24, i64* %25, align 8
  %26 = getelementptr inbounds %"class.std::__1::basic_string", %"class.std::__1::basic_string"* %7, i64 0, i32 0, i32 0, i32 0, i32 0, i32 0, i32 1
  store i64 %13, i64* %26, align 8
  %27 = bitcast %"class.std::__1::basic_string"* %7 to %"struct.std::__1::basic_string<char, std::__1::char_traits<char>, std::__1::allocator<char> >::__short"*
  br label %33

28:                                               ; preds = %17
  %29 = trunc i64 %13 to i8
  %30 = bitcast %"class.std::__1::basic_string"* %7 to %"struct.std::__1::basic_string<char, std::__1::char_traits<char>, std::__1::allocator<char> >::__short"*
  %31 = getelementptr inbounds %"struct.std::__1::basic_string<char, std::__1::char_traits<char>, std::__1::allocator<char> >::__short", %"struct.std::__1::basic_string<char, std::__1::char_traits<char>, std::__1::allocator<char> >::__short"* %30, i64 0, i32 1, i32 0
  store i8 %29, i8* %31, align 1
  %32 = icmp eq i64 %13, 0
  br i1 %32, label %36, label %33

33:                                               ; preds = %28, %19
  %34 = phi %"struct.std::__1::basic_string<char, std::__1::char_traits<char>, std::__1::allocator<char> >::__short"* [ %30, %28 ], [ %27, %19 ]
  %35 = phi i8* [ %11, %28 ], [ %22, %19 ]
  call void @llvm.memcpy.p0i8.p0i8.i64(i8* nonnull align 1 %35, i8* align 1 %12, i64 %13, i1 false) #11
  br label %36

36:                                               ; preds = %28, %33
  %37 = phi %"struct.std::__1::basic_string<char, std::__1::char_traits<char>, std::__1::allocator<char> >::__short"* [ %30, %28 ], [ %34, %33 ]
  %38 = phi i8* [ %11, %28 ], [ %35, %33 ]
  %39 = getelementptr inbounds i8, i8* %38, i64 %13
  store i8 0, i8* %39, align 1
  %40 = load %"class.signin::IdentityManager"*, %"class.signin::IdentityManager"** %1, align 8
  %41 = getelementptr inbounds %"class.base::OnceCallback", %"class.base::OnceCallback"* %3, i64 0, i32 0, i32 0, i32 0
  %42 = bitcast %"class.base::OnceCallback"* %3 to i64*
  %43 = load i64, i64* %42, align 8
  %44 = bitcast %"class.base::OnceCallback"* %8 to i64*
  store i64 %43, i64* %44, align 8
  store %"class.base::internal::BindStateBase"* null, %"class.base::internal::BindStateBase"** %41, align 8
  %45 = load i32, i32* %4, align 4
  %46 = load i32, i32* %5, align 4
  call void @_ZN6signin32PrimaryAccountAccessTokenFetcherC1ERKNSt3__112basic_stringIcNS1_11char_traitsIcEENS1_9allocatorIcEEEEPNS_15IdentityManagerERKNS1_3setIS7_NS1_4lessIS7_EENS5_IS7_EEEEN4base12OnceCallbackIFv22GoogleServiceAuthErrorNS_15AccessTokenInfoEEEENS0_4ModeENS_12ConsentLevelE(%"class.signin::PrimaryAccountAccessTokenFetcher"* nonnull %10, %"class.std::__1::basic_string"* nonnull dereferenceable(24) %7, %"class.signin::IdentityManager"* %40, %"class.std::__1::set"* dereferenceable(24) %2, %"class.base::OnceCallback"* nonnull %8, i32 %45, i32 %46) #11
  %47 = getelementptr inbounds %"class.base::OnceCallback", %"class.base::OnceCallback"* %8, i64 0, i32 0
  call void @_ZN4base8internal12CallbackBaseD2Ev(%"class.base::internal::CallbackBase"* nonnull %47) #11
  %48 = getelementptr inbounds %"struct.std::__1::basic_string<char, std::__1::char_traits<char>, std::__1::allocator<char> >::__short", %"struct.std::__1::basic_string<char, std::__1::char_traits<char>, std::__1::allocator<char> >::__short"* %37, i64 0, i32 1, i32 0
  %49 = load i8, i8* %48, align 1
  %50 = icmp slt i8 %49, 0
  br i1 %50, label %51, label %54

51:                                               ; preds = %36
  %52 = getelementptr inbounds %"class.std::__1::basic_string", %"class.std::__1::basic_string"* %7, i64 0, i32 0, i32 0, i32 0, i32 0, i32 0, i32 0
  %53 = load i8*, i8** %52, align 8
  call void @_ZdlPv(i8* %53) #12
  br label %54

54:                                               ; preds = %36, %51
  call void @llvm.lifetime.end.p0i8(i64 24, i8* nonnull %11) #11
  ret %"class.signin::PrimaryAccountAccessTokenFetcher"* %10
}

; Function Attrs: nounwind ssp uwtable
define hidden void @_ZN6syncer38TrustedVaultAccessTokenFetcherFrontend27OnAccessTokenFetchCompletedE22GoogleServiceAuthErrorN6signin15AccessTokenInfoE(%"class.syncer::TrustedVaultAccessTokenFetcherFrontend"* nocapture, %class.GoogleServiceAuthError*, %"struct.signin::AccessTokenInfo"* nocapture readonly) #0 align 2 {
  %4 = alloca %"class.absl::optional", align 8
  %5 = alloca %"class.absl::optional", align 8
  %6 = getelementptr inbounds %"class.syncer::TrustedVaultAccessTokenFetcherFrontend", %"class.syncer::TrustedVaultAccessTokenFetcherFrontend"* %0, i64 0, i32 2, i32 0, i32 0, i32 0
  %7 = load %"class.signin::PrimaryAccountAccessTokenFetcher"*, %"class.signin::PrimaryAccountAccessTokenFetcher"** %6, align 8
  store %"class.signin::PrimaryAccountAccessTokenFetcher"* null, %"class.signin::PrimaryAccountAccessTokenFetcher"** %6, align 8
  %8 = icmp eq %"class.signin::PrimaryAccountAccessTokenFetcher"* %7, null
  br i1 %8, label %14, label %9

9:                                                ; preds = %3
  %10 = bitcast %"class.signin::PrimaryAccountAccessTokenFetcher"* %7 to void (%"class.signin::PrimaryAccountAccessTokenFetcher"*)***
  %11 = load void (%"class.signin::PrimaryAccountAccessTokenFetcher"*)**, void (%"class.signin::PrimaryAccountAccessTokenFetcher"*)*** %10, align 8
  %12 = getelementptr inbounds void (%"class.signin::PrimaryAccountAccessTokenFetcher"*)*, void (%"class.signin::PrimaryAccountAccessTokenFetcher"*)** %11, i64 1
  %13 = load void (%"class.signin::PrimaryAccountAccessTokenFetcher"*)*, void (%"class.signin::PrimaryAccountAccessTokenFetcher"*)** %12, align 8
  tail call void %13(%"class.signin::PrimaryAccountAccessTokenFetcher"* nonnull %7) #11
  br label %14

14:                                               ; preds = %3, %9
  %15 = tail call i32 @_ZNK22GoogleServiceAuthError5stateEv(%class.GoogleServiceAuthError* %1) #11
  %16 = icmp eq i32 %15, 0
  br i1 %16, label %17, label %71

17:                                               ; preds = %14
  %18 = getelementptr inbounds %"class.absl::optional", %"class.absl::optional"* %4, i64 0, i32 0, i32 0, i32 0, i32 0
  store i8 1, i8* %18, align 8
  %19 = getelementptr inbounds %"class.absl::optional", %"class.absl::optional"* %4, i64 0, i32 0, i32 0, i32 0, i32 1, i32 0
  %20 = bitcast %"struct.signin::AccessTokenInfo"* %2 to %"struct.std::__1::basic_string<char, std::__1::char_traits<char>, std::__1::allocator<char> >::__short"*
  %21 = getelementptr inbounds %"struct.std::__1::basic_string<char, std::__1::char_traits<char>, std::__1::allocator<char> >::__short", %"struct.std::__1::basic_string<char, std::__1::char_traits<char>, std::__1::allocator<char> >::__short"* %20, i64 0, i32 1, i32 0
  %22 = load i8, i8* %21, align 1
  %23 = icmp slt i8 %22, 0
  br i1 %23, label %27, label %24

24:                                               ; preds = %17
  %25 = bitcast %"struct.signin::AccessTokenInfo"* %19 to i8*
  %26 = bitcast %"struct.signin::AccessTokenInfo"* %2 to i8*
  call void @llvm.memcpy.p0i8.p0i8.i64(i8* align 8 %25, i8* align 8 %26, i64 24, i1 false) #11
  br label %33

27:                                               ; preds = %17
  %28 = getelementptr inbounds %"struct.signin::AccessTokenInfo", %"struct.signin::AccessTokenInfo"* %19, i64 0, i32 0
  %29 = getelementptr inbounds %"struct.signin::AccessTokenInfo", %"struct.signin::AccessTokenInfo"* %2, i64 0, i32 0, i32 0, i32 0, i32 0, i32 0, i32 0, i32 0
  %30 = load i8*, i8** %29, align 8
  %31 = getelementptr inbounds %"struct.signin::AccessTokenInfo", %"struct.signin::AccessTokenInfo"* %2, i64 0, i32 0, i32 0, i32 0, i32 0, i32 0, i32 0, i32 1
  %32 = load i64, i64* %31, align 8
  call void @_ZNSt3__112basic_stringIcNS_11char_traitsIcEENS_9allocatorIcEEE25__init_copy_ctor_externalEPKcm(%"class.std::__1::basic_string"* %28, i8* %30, i64 %32) #11
  br label %33

33:                                               ; preds = %27, %24
  %34 = getelementptr inbounds %"struct.signin::AccessTokenInfo", %"struct.signin::AccessTokenInfo"* %2, i64 0, i32 1, i32 0, i32 0
  %35 = getelementptr inbounds %"class.absl::optional", %"class.absl::optional"* %4, i64 0, i32 0, i32 0, i32 0, i32 1, i32 0, i32 1, i32 0, i32 0
  %36 = load i64, i64* %34, align 8
  store i64 %36, i64* %35, align 8
  %37 = getelementptr inbounds %"class.absl::optional", %"class.absl::optional"* %4, i64 0, i32 0, i32 0, i32 0, i32 1, i32 0, i32 2
  %38 = getelementptr inbounds %"struct.signin::AccessTokenInfo", %"struct.signin::AccessTokenInfo"* %2, i64 0, i32 2
  %39 = bitcast %"class.std::__1::basic_string"* %38 to %"struct.std::__1::basic_string<char, std::__1::char_traits<char>, std::__1::allocator<char> >::__short"*
  %40 = getelementptr inbounds %"struct.std::__1::basic_string<char, std::__1::char_traits<char>, std::__1::allocator<char> >::__short", %"struct.std::__1::basic_string<char, std::__1::char_traits<char>, std::__1::allocator<char> >::__short"* %39, i64 0, i32 1, i32 0
  %41 = load i8, i8* %40, align 1
  %42 = icmp slt i8 %41, 0
  br i1 %42, label %46, label %43

43:                                               ; preds = %33
  %44 = bitcast %"class.std::__1::basic_string"* %37 to i8*
  %45 = bitcast %"class.std::__1::basic_string"* %38 to i8*
  call void @llvm.memcpy.p0i8.p0i8.i64(i8* align 8 %44, i8* align 8 %45, i64 24, i1 false) #11
  br label %51

46:                                               ; preds = %33
  %47 = getelementptr inbounds %"class.std::__1::basic_string", %"class.std::__1::basic_string"* %38, i64 0, i32 0, i32 0, i32 0, i32 0, i32 0, i32 0
  %48 = load i8*, i8** %47, align 8
  %49 = getelementptr inbounds %"struct.signin::AccessTokenInfo", %"struct.signin::AccessTokenInfo"* %2, i64 0, i32 2, i32 0, i32 0, i32 0, i32 0, i32 0, i32 1
  %50 = load i64, i64* %49, align 8
  call void @_ZNSt3__112basic_stringIcNS_11char_traitsIcEENS_9allocatorIcEEE25__init_copy_ctor_externalEPKcm(%"class.std::__1::basic_string"* %37, i8* %48, i64 %50) #11
  br label %51

51:                                               ; preds = %43, %46
  call void @_ZN6syncer38TrustedVaultAccessTokenFetcherFrontend22FulfillPendingRequestsEN4absl8optionalIN6signin15AccessTokenInfoEEE(%"class.syncer::TrustedVaultAccessTokenFetcherFrontend"* %0, %"class.absl::optional"* nonnull %4)
  %52 = load i8, i8* %18, align 8, !range !5
  %53 = icmp eq i8 %52, 0
  br i1 %53, label %75, label %54

54:                                               ; preds = %51
  %55 = bitcast %"class.std::__1::basic_string"* %37 to %"struct.std::__1::basic_string<char, std::__1::char_traits<char>, std::__1::allocator<char> >::__short"*
  %56 = getelementptr inbounds %"struct.std::__1::basic_string<char, std::__1::char_traits<char>, std::__1::allocator<char> >::__short", %"struct.std::__1::basic_string<char, std::__1::char_traits<char>, std::__1::allocator<char> >::__short"* %55, i64 0, i32 1, i32 0
  %57 = load i8, i8* %56, align 1
  %58 = icmp slt i8 %57, 0
  br i1 %58, label %59, label %62

59:                                               ; preds = %54
  %60 = getelementptr inbounds %"class.std::__1::basic_string", %"class.std::__1::basic_string"* %37, i64 0, i32 0, i32 0, i32 0, i32 0, i32 0, i32 0
  %61 = load i8*, i8** %60, align 8
  call void @_ZdlPv(i8* %61) #12
  br label %62

62:                                               ; preds = %59, %54
  %63 = bitcast %"struct.signin::AccessTokenInfo"* %19 to %"struct.std::__1::basic_string<char, std::__1::char_traits<char>, std::__1::allocator<char> >::__short"*
  %64 = getelementptr inbounds %"struct.std::__1::basic_string<char, std::__1::char_traits<char>, std::__1::allocator<char> >::__short", %"struct.std::__1::basic_string<char, std::__1::char_traits<char>, std::__1::allocator<char> >::__short"* %63, i64 0, i32 1, i32 0
  %65 = load i8, i8* %64, align 1
  %66 = icmp slt i8 %65, 0
  br i1 %66, label %67, label %70

67:                                               ; preds = %62
  %68 = getelementptr inbounds %"struct.signin::AccessTokenInfo", %"struct.signin::AccessTokenInfo"* %19, i64 0, i32 0, i32 0, i32 0, i32 0, i32 0, i32 0, i32 0
  %69 = load i8*, i8** %68, align 8
  call void @_ZdlPv(i8* %69) #12
  br label %70

70:                                               ; preds = %67, %62
  store i8 0, i8* %18, align 8
  br label %75

71:                                               ; preds = %14
  %72 = getelementptr inbounds %"class.absl::optional", %"class.absl::optional"* %5, i64 0, i32 0, i32 0, i32 0, i32 0
  store i8 0, i8* %72, align 8
  %73 = getelementptr inbounds %"class.absl::optional", %"class.absl::optional"* %5, i64 0, i32 0, i32 0, i32 0, i32 1
  %74 = bitcast %union.anon.167* %73 to i8*
  call void @llvm.memset.p0i8.i64(i8* align 8 %74, i8 0, i64 56, i1 false) #11
  call void @_ZN6syncer38TrustedVaultAccessTokenFetcherFrontend22FulfillPendingRequestsEN4absl8optionalIN6signin15AccessTokenInfoEEE(%"class.syncer::TrustedVaultAccessTokenFetcherFrontend"* %0, %"class.absl::optional"* nonnull %5)
  br label %75

75:                                               ; preds = %71, %70, %51
  ret void
}

declare i32 @_ZNK22GoogleServiceAuthError5stateEv(%class.GoogleServiceAuthError*) local_unnamed_addr #1

; Function Attrs: nounwind ssp uwtable
define linkonce_odr hidden void @_ZN6signin15IdentityManager8Observer31OnRefreshTokenUpdatedForAccountERK15CoreAccountInfo(%"class.signin::IdentityManager::Observer"*, %struct.CoreAccountInfo* dereferenceable(80)) unnamed_addr #0 comdat align 2 {
  ret void
}

; Function Attrs: nounwind ssp uwtable
define linkonce_odr hidden void @_ZN6signin15IdentityManager8Observer31OnRefreshTokenRemovedForAccountERK13CoreAccountId(%"class.signin::IdentityManager::Observer"*, %struct.CoreAccountId* dereferenceable(24)) unnamed_addr #0 comdat align 2 {
  ret void
}

; Function Attrs: nounwind ssp uwtable
define linkonce_odr hidden void @_ZN6signin15IdentityManager8Observer43OnErrorStateOfRefreshTokenUpdatedForAccountERK15CoreAccountInfoRK22GoogleServiceAuthError(%"class.signin::IdentityManager::Observer"*, %struct.CoreAccountInfo* dereferenceable(80), %class.GoogleServiceAuthError* dereferenceable(40)) unnamed_addr #0 comdat align 2 {
  ret void
}

; Function Attrs: nounwind ssp uwtable
define linkonce_odr hidden void @_ZN6signin15IdentityManager8Observer21OnRefreshTokensLoadedEv(%"class.signin::IdentityManager::Observer"*) unnamed_addr #0 comdat align 2 {
  ret void
}

; Function Attrs: nounwind ssp uwtable
define linkonce_odr hidden void @_ZN6signin15IdentityManager8Observer25OnAccountsInCookieUpdatedERKNS_23AccountsInCookieJarInfoERK22GoogleServiceAuthError(%"class.signin::IdentityManager::Observer"*, %"struct.signin::AccountsInCookieJarInfo"*, %class.GoogleServiceAuthError* dereferenceable(40)) unnamed_addr #0 comdat align 2 {
  ret void
}

; Function Attrs: nounwind ssp uwtable
define linkonce_odr hidden void @_ZN6signin15IdentityManager8Observer35OnAccountsCookieDeletedByUserActionEv(%"class.signin::IdentityManager::Observer"*) unnamed_addr #0 comdat align 2 {
  ret void
}

; Function Attrs: nounwind ssp uwtable
define linkonce_odr hidden void @_ZN6signin15IdentityManager8Observer36OnEndBatchOfRefreshTokenStateChangesEv(%"class.signin::IdentityManager::Observer"*) unnamed_addr #0 comdat align 2 {
  ret void
}

; Function Attrs: nounwind ssp uwtable
define linkonce_odr hidden void @_ZN6signin15IdentityManager8Observer28OnExtendedAccountInfoUpdatedERK11AccountInfo(%"class.signin::IdentityManager::Observer"*, %struct.AccountInfo* dereferenceable(240)) unnamed_addr #0 comdat align 2 {
  ret void
}

; Function Attrs: nounwind ssp uwtable
define linkonce_odr hidden void @_ZN6signin15IdentityManager8Observer28OnExtendedAccountInfoRemovedERK11AccountInfo(%"class.signin::IdentityManager::Observer"*, %struct.AccountInfo* dereferenceable(240)) unnamed_addr #0 comdat align 2 {
  ret void
}

; Function Attrs: nounwind ssp uwtable
define linkonce_odr hidden void @_ZN6signin15IdentityManager8Observer25OnIdentityManagerShutdownEPS0_(%"class.signin::IdentityManager::Observer"*, %"class.signin::IdentityManager"*) unnamed_addr #0 comdat align 2 {
  ret void
}

; Function Attrs: argmemonly nounwind
declare void @llvm.memcpy.p0i8.p0i8.i64(i8* nocapture writeonly, i8* nocapture readonly, i64, i1 immarg) #4

declare void @_ZNSt3__112basic_stringIcNS_11char_traitsIcEENS_9allocatorIcEEE25__init_copy_ctor_externalEPKcm(%"class.std::__1::basic_string"*, i8*, i64) local_unnamed_addr #1

declare void @_ZN4base8internal18WeakPtrFactoryBaseC2Em(%"class.base::internal::WeakPtrFactoryBase"*, i64) unnamed_addr #1

; Function Attrs: nounwind
declare void @_ZN4base8internal12CallbackBaseD2Ev(%"class.base::internal::CallbackBase"*) unnamed_addr #2

declare void @_ZNK4base8internal18WeakReferenceOwner6GetRefEv(%"class.base::internal::WeakReference"* sret, %"class.base::internal::WeakReferenceOwner"*) local_unnamed_addr #1

; Function Attrs: nounwind
declare void @_ZN4base8internal13WeakReferenceD1Ev(%"class.base::internal::WeakReference"*) unnamed_addr #2

declare void @_ZN4base8internal11WeakPtrBaseC2ERKNS0_13WeakReferenceEm(%"class.base::internal::WeakPtrBase"*, %"class.base::internal::WeakReference"* dereferenceable(8), i64) unnamed_addr #1

; Function Attrs: inlinehint nounwind ssp uwtable
define linkonce_odr hidden void @_ZNSt3__16vectorIN4base12OnceCallbackIFvN4absl8optionalIN6signin15AccessTokenInfoEEEEEENS_9allocatorIS9_EEE24__emplace_back_slow_pathIJS9_EEEvDpOT_(%"class.std::__1::vector.157"*, %"class.base::OnceCallback.159"* dereferenceable(8)) local_unnamed_addr #5 comdat align 2 {
  %3 = getelementptr inbounds %"class.std::__1::vector.157", %"class.std::__1::vector.157"* %0, i64 0, i32 0, i32 1
  %4 = bitcast %"class.base::OnceCallback.159"** %3 to i64*
  %5 = load i64, i64* %4, align 8
  %6 = bitcast %"class.std::__1::vector.157"* %0 to i64*
  %7 = load i64, i64* %6, align 8
  %8 = sub i64 %5, %7
  %9 = ashr exact i64 %8, 3
  %10 = add nsw i64 %9, 1
  %11 = icmp ugt i64 %10, 2305843009213693951
  br i1 %11, label %12, label %14

12:                                               ; preds = %2
  %13 = bitcast %"class.std::__1::vector.157"* %0 to %"class.std::__1::__vector_base_common"*
  tail call void @_ZNKSt3__120__vector_base_commonILb1EE20__throw_length_errorEv(%"class.std::__1::__vector_base_common"* %13) #13
  unreachable

14:                                               ; preds = %2
  %15 = getelementptr inbounds %"class.std::__1::vector.157", %"class.std::__1::vector.157"* %0, i64 0, i32 0, i32 2, i32 0, i32 0
  %16 = bitcast %"class.base::OnceCallback.159"** %15 to i64*
  %17 = load i64, i64* %16, align 8
  %18 = sub i64 %17, %7
  %19 = ashr exact i64 %18, 3
  %20 = icmp ult i64 %19, 1152921504606846975
  br i1 %20, label %21, label %29

21:                                               ; preds = %14
  %22 = ashr exact i64 %18, 2
  %23 = icmp ult i64 %22, %10
  %24 = select i1 %23, i64 %10, i64 %22
  %25 = icmp eq i64 %24, 0
  br i1 %25, label %34, label %26

26:                                               ; preds = %21
  %27 = icmp ugt i64 %24, 2305843009213693951
  br i1 %27, label %28, label %29

28:                                               ; preds = %26
  tail call void @abort() #13
  unreachable

29:                                               ; preds = %14, %26
  %30 = phi i64 [ %24, %26 ], [ 2305843009213693951, %14 ]
  %31 = shl i64 %30, 3
  %32 = tail call i8* @_Znwm(i64 %31) #12
  %33 = bitcast i8* %32 to %"class.base::OnceCallback.159"*
  br label %34

34:                                               ; preds = %21, %29
  %35 = phi i64 [ %30, %29 ], [ 0, %21 ]
  %36 = phi %"class.base::OnceCallback.159"* [ %33, %29 ], [ null, %21 ]
  %37 = getelementptr inbounds %"class.base::OnceCallback.159", %"class.base::OnceCallback.159"* %36, i64 %9
  %38 = getelementptr inbounds %"class.base::OnceCallback.159", %"class.base::OnceCallback.159"* %36, i64 %35
  %39 = ptrtoint %"class.base::OnceCallback.159"* %38 to i64
  %40 = getelementptr inbounds %"class.base::OnceCallback.159", %"class.base::OnceCallback.159"* %1, i64 0, i32 0, i32 0, i32 0
  %41 = bitcast %"class.base::OnceCallback.159"* %1 to i64*
  %42 = load i64, i64* %41, align 8
  %43 = bitcast %"class.base::OnceCallback.159"* %37 to i64*
  store i64 %42, i64* %43, align 8
  store %"class.base::internal::BindStateBase"* null, %"class.base::internal::BindStateBase"** %40, align 8
  %44 = getelementptr inbounds %"class.base::OnceCallback.159", %"class.base::OnceCallback.159"* %37, i64 1
  %45 = ptrtoint %"class.base::OnceCallback.159"* %44 to i64
  %46 = getelementptr inbounds %"class.std::__1::vector.157", %"class.std::__1::vector.157"* %0, i64 0, i32 0, i32 0
  %47 = load %"class.base::OnceCallback.159"*, %"class.base::OnceCallback.159"** %46, align 8
  %48 = ptrtoint %"class.base::OnceCallback.159"* %47 to i64
  %49 = load %"class.base::OnceCallback.159"*, %"class.base::OnceCallback.159"** %3, align 8
  %50 = icmp eq %"class.base::OnceCallback.159"* %49, %47
  br i1 %50, label %132, label %51

51:                                               ; preds = %34
  %52 = getelementptr %"class.base::OnceCallback.159", %"class.base::OnceCallback.159"* %49, i64 -1, i32 0, i32 0, i32 0
  %53 = ptrtoint %"class.base::internal::BindStateBase"** %52 to i64
  %54 = sub i64 %53, %48
  %55 = lshr i64 %54, 3
  %56 = add nuw nsw i64 %55, 1
  %57 = and i64 %56, 7
  %58 = icmp eq i64 %57, 0
  br i1 %58, label %71, label %59

59:                                               ; preds = %51, %59
  %60 = phi %"class.base::OnceCallback.159"* [ %63, %59 ], [ %37, %51 ]
  %61 = phi %"class.base::OnceCallback.159"* [ %64, %59 ], [ %49, %51 ]
  %62 = phi i64 [ %69, %59 ], [ %57, %51 ]
  %63 = getelementptr inbounds %"class.base::OnceCallback.159", %"class.base::OnceCallback.159"* %60, i64 -1
  %64 = getelementptr inbounds %"class.base::OnceCallback.159", %"class.base::OnceCallback.159"* %61, i64 -1
  %65 = getelementptr inbounds %"class.base::OnceCallback.159", %"class.base::OnceCallback.159"* %64, i64 0, i32 0, i32 0, i32 0
  %66 = bitcast %"class.base::OnceCallback.159"* %64 to i64*
  %67 = load i64, i64* %66, align 8
  %68 = bitcast %"class.base::OnceCallback.159"* %63 to i64*
  store i64 %67, i64* %68, align 8
  store %"class.base::internal::BindStateBase"* null, %"class.base::internal::BindStateBase"** %65, align 8
  %69 = add i64 %62, -1
  %70 = icmp eq i64 %69, 0
  br i1 %70, label %71, label %59, !llvm.loop !11

71:                                               ; preds = %59, %51
  %72 = phi %"class.base::OnceCallback.159"* [ undef, %51 ], [ %63, %59 ]
  %73 = phi %"class.base::OnceCallback.159"* [ %37, %51 ], [ %63, %59 ]
  %74 = phi %"class.base::OnceCallback.159"* [ %49, %51 ], [ %64, %59 ]
  %75 = icmp ult i64 %54, 56
  br i1 %75, label %128, label %76

76:                                               ; preds = %71, %76
  %77 = phi %"class.base::OnceCallback.159"* [ %121, %76 ], [ %73, %71 ]
  %78 = phi %"class.base::OnceCallback.159"* [ %122, %76 ], [ %74, %71 ]
  %79 = getelementptr inbounds %"class.base::OnceCallback.159", %"class.base::OnceCallback.159"* %77, i64 -1
  %80 = getelementptr inbounds %"class.base::OnceCallback.159", %"class.base::OnceCallback.159"* %78, i64 -1
  %81 = getelementptr inbounds %"class.base::OnceCallback.159", %"class.base::OnceCallback.159"* %80, i64 0, i32 0, i32 0, i32 0
  %82 = bitcast %"class.base::OnceCallback.159"* %80 to i64*
  %83 = load i64, i64* %82, align 8
  %84 = bitcast %"class.base::OnceCallback.159"* %79 to i64*
  store i64 %83, i64* %84, align 8
  store %"class.base::internal::BindStateBase"* null, %"class.base::internal::BindStateBase"** %81, align 8
  %85 = getelementptr inbounds %"class.base::OnceCallback.159", %"class.base::OnceCallback.159"* %77, i64 -2
  %86 = getelementptr inbounds %"class.base::OnceCallback.159", %"class.base::OnceCallback.159"* %78, i64 -2
  %87 = getelementptr inbounds %"class.base::OnceCallback.159", %"class.base::OnceCallback.159"* %86, i64 0, i32 0, i32 0, i32 0
  %88 = bitcast %"class.base::OnceCallback.159"* %86 to i64*
  %89 = load i64, i64* %88, align 8
  %90 = bitcast %"class.base::OnceCallback.159"* %85 to i64*
  store i64 %89, i64* %90, align 8
  store %"class.base::internal::BindStateBase"* null, %"class.base::internal::BindStateBase"** %87, align 8
  %91 = getelementptr inbounds %"class.base::OnceCallback.159", %"class.base::OnceCallback.159"* %77, i64 -3
  %92 = getelementptr inbounds %"class.base::OnceCallback.159", %"class.base::OnceCallback.159"* %78, i64 -3
  %93 = getelementptr inbounds %"class.base::OnceCallback.159", %"class.base::OnceCallback.159"* %92, i64 0, i32 0, i32 0, i32 0
  %94 = bitcast %"class.base::OnceCallback.159"* %92 to i64*
  %95 = load i64, i64* %94, align 8
  %96 = bitcast %"class.base::OnceCallback.159"* %91 to i64*
  store i64 %95, i64* %96, align 8
  store %"class.base::internal::BindStateBase"* null, %"class.base::internal::BindStateBase"** %93, align 8
  %97 = getelementptr inbounds %"class.base::OnceCallback.159", %"class.base::OnceCallback.159"* %77, i64 -4
  %98 = getelementptr inbounds %"class.base::OnceCallback.159", %"class.base::OnceCallback.159"* %78, i64 -4
  %99 = getelementptr inbounds %"class.base::OnceCallback.159", %"class.base::OnceCallback.159"* %98, i64 0, i32 0, i32 0, i32 0
  %100 = bitcast %"class.base::OnceCallback.159"* %98 to i64*
  %101 = load i64, i64* %100, align 8
  %102 = bitcast %"class.base::OnceCallback.159"* %97 to i64*
  store i64 %101, i64* %102, align 8
  store %"class.base::internal::BindStateBase"* null, %"class.base::internal::BindStateBase"** %99, align 8
  %103 = getelementptr inbounds %"class.base::OnceCallback.159", %"class.base::OnceCallback.159"* %77, i64 -5
  %104 = getelementptr inbounds %"class.base::OnceCallback.159", %"class.base::OnceCallback.159"* %78, i64 -5
  %105 = getelementptr inbounds %"class.base::OnceCallback.159", %"class.base::OnceCallback.159"* %104, i64 0, i32 0, i32 0, i32 0
  %106 = bitcast %"class.base::OnceCallback.159"* %104 to i64*
  %107 = load i64, i64* %106, align 8
  %108 = bitcast %"class.base::OnceCallback.159"* %103 to i64*
  store i64 %107, i64* %108, align 8
  store %"class.base::internal::BindStateBase"* null, %"class.base::internal::BindStateBase"** %105, align 8
  %109 = getelementptr inbounds %"class.base::OnceCallback.159", %"class.base::OnceCallback.159"* %77, i64 -6
  %110 = getelementptr inbounds %"class.base::OnceCallback.159", %"class.base::OnceCallback.159"* %78, i64 -6
  %111 = getelementptr inbounds %"class.base::OnceCallback.159", %"class.base::OnceCallback.159"* %110, i64 0, i32 0, i32 0, i32 0
  %112 = bitcast %"class.base::OnceCallback.159"* %110 to i64*
  %113 = load i64, i64* %112, align 8
  %114 = bitcast %"class.base::OnceCallback.159"* %109 to i64*
  store i64 %113, i64* %114, align 8
  store %"class.base::internal::BindStateBase"* null, %"class.base::internal::BindStateBase"** %111, align 8
  %115 = getelementptr inbounds %"class.base::OnceCallback.159", %"class.base::OnceCallback.159"* %77, i64 -7
  %116 = getelementptr inbounds %"class.base::OnceCallback.159", %"class.base::OnceCallback.159"* %78, i64 -7
  %117 = getelementptr inbounds %"class.base::OnceCallback.159", %"class.base::OnceCallback.159"* %116, i64 0, i32 0, i32 0, i32 0
  %118 = bitcast %"class.base::OnceCallback.159"* %116 to i64*
  %119 = load i64, i64* %118, align 8
  %120 = bitcast %"class.base::OnceCallback.159"* %115 to i64*
  store i64 %119, i64* %120, align 8
  store %"class.base::internal::BindStateBase"* null, %"class.base::internal::BindStateBase"** %117, align 8
  %121 = getelementptr inbounds %"class.base::OnceCallback.159", %"class.base::OnceCallback.159"* %77, i64 -8
  %122 = getelementptr inbounds %"class.base::OnceCallback.159", %"class.base::OnceCallback.159"* %78, i64 -8
  %123 = getelementptr inbounds %"class.base::OnceCallback.159", %"class.base::OnceCallback.159"* %122, i64 0, i32 0, i32 0, i32 0
  %124 = bitcast %"class.base::OnceCallback.159"* %122 to i64*
  %125 = load i64, i64* %124, align 8
  %126 = bitcast %"class.base::OnceCallback.159"* %121 to i64*
  store i64 %125, i64* %126, align 8
  store %"class.base::internal::BindStateBase"* null, %"class.base::internal::BindStateBase"** %123, align 8
  %127 = icmp eq %"class.base::OnceCallback.159"* %122, %47
  br i1 %127, label %128, label %76

128:                                              ; preds = %76, %71
  %129 = phi %"class.base::OnceCallback.159"* [ %72, %71 ], [ %121, %76 ]
  %130 = load i64, i64* %6, align 8
  %131 = load %"class.base::OnceCallback.159"*, %"class.base::OnceCallback.159"** %3, align 8
  br label %132

132:                                              ; preds = %34, %128
  %133 = phi %"class.base::OnceCallback.159"* [ %131, %128 ], [ %47, %34 ]
  %134 = phi %"class.base::OnceCallback.159"* [ %129, %128 ], [ %37, %34 ]
  %135 = phi i64 [ %130, %128 ], [ %48, %34 ]
  %136 = ptrtoint %"class.base::OnceCallback.159"* %134 to i64
  store i64 %136, i64* %6, align 8
  store i64 %45, i64* %4, align 8
  store i64 %39, i64* %16, align 8
  %137 = inttoptr i64 %135 to %"class.base::OnceCallback.159"*
  %138 = icmp eq %"class.base::OnceCallback.159"* %133, %137
  br i1 %138, label %144, label %139

139:                                              ; preds = %132, %139
  %140 = phi %"class.base::OnceCallback.159"* [ %141, %139 ], [ %133, %132 ]
  %141 = getelementptr inbounds %"class.base::OnceCallback.159", %"class.base::OnceCallback.159"* %140, i64 -1
  %142 = getelementptr inbounds %"class.base::OnceCallback.159", %"class.base::OnceCallback.159"* %141, i64 0, i32 0
  tail call void @_ZN4base8internal12CallbackBaseD2Ev(%"class.base::internal::CallbackBase"* %142) #11
  %143 = icmp eq %"class.base::OnceCallback.159"* %141, %137
  br i1 %143, label %144, label %139

144:                                              ; preds = %139, %132
  %145 = icmp eq i64 %135, 0
  br i1 %145, label %148, label %146

146:                                              ; preds = %144
  %147 = inttoptr i64 %135 to i8*
  tail call void @_ZdlPv(i8* %147) #12
  br label %148

148:                                              ; preds = %144, %146
  ret void
}

; Function Attrs: noreturn
declare void @_ZNKSt3__120__vector_base_commonILb1EE20__throw_length_errorEv(%"class.std::__1::__vector_base_common"*) local_unnamed_addr #6

; Function Attrs: noreturn nounwind
declare void @abort() local_unnamed_addr #7

; Function Attrs: nobuiltin nofree
declare noalias nonnull i8* @_Znwm(i64) local_unnamed_addr #8

; Function Attrs: noreturn
declare void @_ZNKSt3__121__basic_string_commonILb1EE20__throw_length_errorEv(%"class.std::__1::__basic_string_common"*) local_unnamed_addr #6

; Function Attrs: argmemonly nofree nounwind readonly
declare i64 @strlen(i8* nocapture) local_unnamed_addr #9

; Function Attrs: nounwind ssp uwtable
define linkonce_odr hidden { %"class.std::__1::__tree_end_node"*, i8 } @_ZNSt3__16__treeINS_12basic_stringIcNS_11char_traitsIcEENS_9allocatorIcEEEENS_4lessIS6_EENS4_IS6_EEE30__emplace_hint_unique_key_argsIS6_JRKS6_EEENS_4pairINS_15__tree_iteratorIS6_PNS_11__tree_nodeIS6_PvEElEEbEENS_21__tree_const_iteratorIS6_SJ_lEERKT_DpOT0_(%"class.std::__1::__tree.131"*, %"class.std::__1::__tree_end_node"*, %"class.std::__1::basic_string"* dereferenceable(24), %"class.std::__1::basic_string"* dereferenceable(24)) local_unnamed_addr #0 comdat align 2 {
  %5 = alloca %"class.std::__1::__tree_end_node"*, align 8
  %6 = alloca %"class.std::__1::__tree_node_base"*, align 8
  %7 = bitcast %"class.std::__1::__tree_end_node"** %5 to i8*
  call void @llvm.lifetime.start.p0i8(i64 8, i8* nonnull %7) #11
  store %"class.std::__1::__tree_end_node"* inttoptr (i64 -6148914691236517206 to %"class.std::__1::__tree_end_node"*), %"class.std::__1::__tree_end_node"** %5, align 8
  %8 = bitcast %"class.std::__1::__tree_node_base"** %6 to i8*
  call void @llvm.lifetime.start.p0i8(i64 8, i8* nonnull %8) #11
  store %"class.std::__1::__tree_node_base"* inttoptr (i64 -6148914691236517206 to %"class.std::__1::__tree_node_base"*), %"class.std::__1::__tree_node_base"** %6, align 8
  %9 = call dereferenceable(8) %"class.std::__1::__tree_node_base"** @_ZNSt3__16__treeINS_12basic_stringIcNS_11char_traitsIcEENS_9allocatorIcEEEENS_4lessIS6_EENS4_IS6_EEE12__find_equalIS6_EERPNS_16__tree_node_baseIPvEENS_21__tree_const_iteratorIS6_PNS_11__tree_nodeIS6_SD_EElEERPNS_15__tree_end_nodeISF_EESG_RKT_(%"class.std::__1::__tree.131"* %0, %"class.std::__1::__tree_end_node"* %1, %"class.std::__1::__tree_end_node"** nonnull dereferenceable(8) %5, %"class.std::__1::__tree_node_base"** nonnull dereferenceable(8) %6, %"class.std::__1::basic_string"* dereferenceable(24) %2)
  %10 = bitcast %"class.std::__1::__tree_node_base"** %9 to %"class.std::__1::__tree_node"**
  %11 = load %"class.std::__1::__tree_node"*, %"class.std::__1::__tree_node"** %10, align 8
  %12 = icmp eq %"class.std::__1::__tree_node"* %11, null
  br i1 %12, label %13, label %52

13:                                               ; preds = %4
  %14 = call i8* @_Znwm(i64 56) #12, !noalias !13
  %15 = getelementptr inbounds i8, i8* %14, i64 32
  %16 = bitcast %"class.std::__1::basic_string"* %3 to %"struct.std::__1::basic_string<char, std::__1::char_traits<char>, std::__1::allocator<char> >::__short"*
  %17 = getelementptr inbounds %"struct.std::__1::basic_string<char, std::__1::char_traits<char>, std::__1::allocator<char> >::__short", %"struct.std::__1::basic_string<char, std::__1::char_traits<char>, std::__1::allocator<char> >::__short"* %16, i64 0, i32 1, i32 0
  %18 = load i8, i8* %17, align 1, !noalias !13
  %19 = icmp slt i8 %18, 0
  br i1 %19, label %22, label %20

20:                                               ; preds = %13
  %21 = bitcast %"class.std::__1::basic_string"* %3 to i8*
  call void @llvm.memcpy.p0i8.p0i8.i64(i8* align 8 %15, i8* align 8 %21, i64 24, i1 false) #11, !noalias !13
  br label %28

22:                                               ; preds = %13
  %23 = bitcast i8* %15 to %"class.std::__1::basic_string"*
  %24 = getelementptr inbounds %"class.std::__1::basic_string", %"class.std::__1::basic_string"* %3, i64 0, i32 0, i32 0, i32 0, i32 0, i32 0, i32 0
  %25 = load i8*, i8** %24, align 8, !noalias !13
  %26 = getelementptr inbounds %"class.std::__1::basic_string", %"class.std::__1::basic_string"* %3, i64 0, i32 0, i32 0, i32 0, i32 0, i32 0, i32 1
  %27 = load i64, i64* %26, align 8, !noalias !13
  call void @_ZNSt3__112basic_stringIcNS_11char_traitsIcEENS_9allocatorIcEEE25__init_copy_ctor_externalEPKcm(%"class.std::__1::basic_string"* %23, i8* %25, i64 %27) #11, !noalias !13
  br label %28

28:                                               ; preds = %20, %22
  %29 = bitcast %"class.std::__1::__tree_end_node"** %5 to i64*
  %30 = load i64, i64* %29, align 8
  %31 = bitcast i8* %14 to %"class.std::__1::__tree_node"*
  %32 = bitcast i8* %14 to %"class.std::__1::__tree_node_base"*
  %33 = getelementptr inbounds i8, i8* %14, i64 16
  call void @llvm.memset.p0i8.i64(i8* nonnull align 8 %14, i8 0, i64 16, i1 false) #11
  %34 = bitcast i8* %33 to i64*
  store i64 %30, i64* %34, align 8
  %35 = bitcast %"class.std::__1::__tree_node_base"** %9 to i8**
  store i8* %14, i8** %35, align 8
  %36 = getelementptr inbounds %"class.std::__1::__tree.131", %"class.std::__1::__tree.131"* %0, i64 0, i32 0
  %37 = load %"class.std::__1::__tree_end_node"*, %"class.std::__1::__tree_end_node"** %36, align 8
  %38 = getelementptr inbounds %"class.std::__1::__tree_end_node", %"class.std::__1::__tree_end_node"* %37, i64 0, i32 0
  %39 = load %"class.std::__1::__tree_node_base"*, %"class.std::__1::__tree_node_base"** %38, align 8
  %40 = icmp eq %"class.std::__1::__tree_node_base"* %39, null
  br i1 %40, label %45, label %41

41:                                               ; preds = %28
  %42 = ptrtoint %"class.std::__1::__tree_node_base"* %39 to i64
  %43 = bitcast %"class.std::__1::__tree.131"* %0 to i64*
  store i64 %42, i64* %43, align 8
  %44 = load %"class.std::__1::__tree_node_base"*, %"class.std::__1::__tree_node_base"** %9, align 8
  br label %45

45:                                               ; preds = %41, %28
  %46 = phi %"class.std::__1::__tree_node_base"* [ %32, %28 ], [ %44, %41 ]
  %47 = getelementptr inbounds %"class.std::__1::__tree.131", %"class.std::__1::__tree.131"* %0, i64 0, i32 1, i32 0, i32 0, i32 0
  %48 = load %"class.std::__1::__tree_node_base"*, %"class.std::__1::__tree_node_base"** %47, align 8
  call void @_ZNSt3__127__tree_balance_after_insertIPNS_16__tree_node_baseIPvEEEEvT_S5_(%"class.std::__1::__tree_node_base"* %48, %"class.std::__1::__tree_node_base"* %46) #11
  %49 = getelementptr inbounds %"class.std::__1::__tree.131", %"class.std::__1::__tree.131"* %0, i64 0, i32 2, i32 0, i32 0
  %50 = load i64, i64* %49, align 8
  %51 = add i64 %50, 1
  store i64 %51, i64* %49, align 8
  br label %52

52:                                               ; preds = %45, %4
  %53 = phi i8 [ 1, %45 ], [ 0, %4 ]
  %54 = phi %"class.std::__1::__tree_node"* [ %31, %45 ], [ %11, %4 ]
  %55 = getelementptr inbounds %"class.std::__1::__tree_node", %"class.std::__1::__tree_node"* %54, i64 0, i32 0, i32 0
  call void @llvm.lifetime.end.p0i8(i64 8, i8* nonnull %8) #11
  call void @llvm.lifetime.end.p0i8(i64 8, i8* nonnull %7) #11
  %56 = insertvalue { %"class.std::__1::__tree_end_node"*, i8 } undef, %"class.std::__1::__tree_end_node"* %55, 0
  %57 = insertvalue { %"class.std::__1::__tree_end_node"*, i8 } %56, i8 %53, 1
  ret { %"class.std::__1::__tree_end_node"*, i8 } %57
}

; Function Attrs: nounwind ssp uwtable
define linkonce_odr hidden dereferenceable(8) %"class.std::__1::__tree_node_base"** @_ZNSt3__16__treeINS_12basic_stringIcNS_11char_traitsIcEENS_9allocatorIcEEEENS_4lessIS6_EENS4_IS6_EEE12__find_equalIS6_EERPNS_16__tree_node_baseIPvEENS_21__tree_const_iteratorIS6_PNS_11__tree_nodeIS6_SD_EElEERPNS_15__tree_end_nodeISF_EESG_RKT_(%"class.std::__1::__tree.131"*, %"class.std::__1::__tree_end_node"*, %"class.std::__1::__tree_end_node"** dereferenceable(8), %"class.std::__1::__tree_node_base"** dereferenceable(8), %"class.std::__1::basic_string"* dereferenceable(24)) local_unnamed_addr #0 comdat align 2 {
  %6 = ptrtoint %"class.std::__1::__tree_end_node"* %1 to i64
  %7 = getelementptr inbounds %"class.std::__1::__tree.131", %"class.std::__1::__tree.131"* %0, i64 0, i32 1, i32 0, i32 0
  %8 = icmp eq %"class.std::__1::__tree_end_node"* %7, %1
  br i1 %8, label %46, label %9

9:                                                ; preds = %5
  %10 = getelementptr inbounds %"class.std::__1::__tree_end_node", %"class.std::__1::__tree_end_node"* %1, i64 4
  %11 = bitcast %"class.std::__1::__tree_end_node"* %10 to %"struct.std::__1::basic_string<char, std::__1::char_traits<char>, std::__1::allocator<char> >::__short"*
  %12 = getelementptr inbounds %"struct.std::__1::basic_string<char, std::__1::char_traits<char>, std::__1::allocator<char> >::__short", %"struct.std::__1::basic_string<char, std::__1::char_traits<char>, std::__1::allocator<char> >::__short"* %11, i64 0, i32 1, i32 0
  %13 = load i8, i8* %12, align 1
  %14 = icmp slt i8 %13, 0
  %15 = getelementptr inbounds %"class.std::__1::__tree_end_node", %"class.std::__1::__tree_end_node"* %1, i64 5
  %16 = bitcast %"class.std::__1::__tree_end_node"* %15 to i64*
  %17 = load i64, i64* %16, align 8
  %18 = zext i8 %13 to i64
  %19 = select i1 %14, i64 %17, i64 %18
  %20 = bitcast %"class.std::__1::basic_string"* %4 to %"struct.std::__1::basic_string<char, std::__1::char_traits<char>, std::__1::allocator<char> >::__short"*
  %21 = getelementptr inbounds %"struct.std::__1::basic_string<char, std::__1::char_traits<char>, std::__1::allocator<char> >::__short", %"struct.std::__1::basic_string<char, std::__1::char_traits<char>, std::__1::allocator<char> >::__short"* %20, i64 0, i32 1, i32 0
  %22 = load i8, i8* %21, align 1
  %23 = icmp slt i8 %22, 0
  %24 = getelementptr inbounds %"class.std::__1::basic_string", %"class.std::__1::basic_string"* %4, i64 0, i32 0, i32 0, i32 0, i32 0, i32 0, i32 1
  %25 = load i64, i64* %24, align 8
  %26 = zext i8 %22 to i64
  %27 = select i1 %23, i64 %25, i64 %26
  %28 = icmp ult i64 %19, %27
  %29 = select i1 %28, i64 %19, i64 %27
  %30 = icmp eq i64 %29, 0
  br i1 %30, label %42, label %31

31:                                               ; preds = %9
  %32 = getelementptr inbounds %"class.std::__1::basic_string", %"class.std::__1::basic_string"* %4, i64 0, i32 0, i32 0, i32 0, i32 0, i32 0, i32 0
  %33 = load i8*, i8** %32, align 8
  %34 = bitcast %"class.std::__1::basic_string"* %4 to i8*
  %35 = select i1 %23, i8* %33, i8* %34
  %36 = bitcast %"class.std::__1::__tree_end_node"* %10 to i8**
  %37 = load i8*, i8** %36, align 8
  %38 = bitcast %"class.std::__1::__tree_end_node"* %10 to i8*
  %39 = select i1 %14, i8* %37, i8* %38
  %40 = tail call i32 @memcmp(i8* %35, i8* %39, i64 %29) #11
  %41 = icmp eq i32 %40, 0
  br i1 %41, label %42, label %44

42:                                               ; preds = %31, %9
  %43 = icmp ult i64 %27, %19
  br i1 %43, label %46, label %120

44:                                               ; preds = %31
  %45 = icmp slt i32 %40, 0
  br i1 %45, label %46, label %130

46:                                               ; preds = %42, %5, %44
  %47 = getelementptr inbounds %"class.std::__1::__tree.131", %"class.std::__1::__tree.131"* %0, i64 0, i32 0
  %48 = load %"class.std::__1::__tree_end_node"*, %"class.std::__1::__tree_end_node"** %47, align 8
  %49 = icmp eq %"class.std::__1::__tree_end_node"* %48, %1
  %50 = getelementptr inbounds %"class.std::__1::__tree_end_node", %"class.std::__1::__tree_end_node"* %1, i64 0, i32 0
  %51 = load %"class.std::__1::__tree_node_base"*, %"class.std::__1::__tree_node_base"** %50, align 8
  br i1 %49, label %109, label %52

52:                                               ; preds = %46
  %53 = icmp eq %"class.std::__1::__tree_node_base"* %51, null
  br i1 %53, label %59, label %54

54:                                               ; preds = %52, %54
  %55 = phi %"class.std::__1::__tree_node_base"* [ %57, %54 ], [ %51, %52 ]
  %56 = getelementptr inbounds %"class.std::__1::__tree_node_base", %"class.std::__1::__tree_node_base"* %55, i64 0, i32 1
  %57 = load %"class.std::__1::__tree_node_base"*, %"class.std::__1::__tree_node_base"** %56, align 8
  %58 = icmp eq %"class.std::__1::__tree_node_base"* %57, null
  br i1 %58, label %70, label %54

59:                                               ; preds = %52, %59
  %60 = phi %"class.std::__1::__tree_end_node"* [ %64, %59 ], [ %1, %52 ]
  %61 = bitcast %"class.std::__1::__tree_end_node"* %60 to %"class.std::__1::__tree_node_base"*
  %62 = getelementptr inbounds %"class.std::__1::__tree_end_node", %"class.std::__1::__tree_end_node"* %60, i64 2
  %63 = bitcast %"class.std::__1::__tree_end_node"* %62 to %"class.std::__1::__tree_end_node"**
  %64 = load %"class.std::__1::__tree_end_node"*, %"class.std::__1::__tree_end_node"** %63, align 8
  %65 = getelementptr inbounds %"class.std::__1::__tree_end_node", %"class.std::__1::__tree_end_node"* %64, i64 0, i32 0
  %66 = load %"class.std::__1::__tree_node_base"*, %"class.std::__1::__tree_node_base"** %65, align 8
  %67 = icmp eq %"class.std::__1::__tree_node_base"* %66, %61
  br i1 %67, label %59, label %68

68:                                               ; preds = %59
  %69 = bitcast %"class.std::__1::__tree_end_node"* %64 to %"class.std::__1::__tree_node_base"*
  br label %70

70:                                               ; preds = %54, %68
  %71 = phi %"class.std::__1::__tree_node_base"* [ %69, %68 ], [ %55, %54 ]
  %72 = ptrtoint %"class.std::__1::__tree_node_base"* %71 to i64
  %73 = getelementptr inbounds %"class.std::__1::__tree_node_base", %"class.std::__1::__tree_node_base"* %71, i64 1
  %74 = bitcast %"class.std::__1::basic_string"* %4 to %"struct.std::__1::basic_string<char, std::__1::char_traits<char>, std::__1::allocator<char> >::__short"*
  %75 = getelementptr inbounds %"struct.std::__1::basic_string<char, std::__1::char_traits<char>, std::__1::allocator<char> >::__short", %"struct.std::__1::basic_string<char, std::__1::char_traits<char>, std::__1::allocator<char> >::__short"* %74, i64 0, i32 1, i32 0
  %76 = load i8, i8* %75, align 1
  %77 = icmp slt i8 %76, 0
  %78 = getelementptr inbounds %"class.std::__1::basic_string", %"class.std::__1::basic_string"* %4, i64 0, i32 0, i32 0, i32 0, i32 0, i32 0, i32 1
  %79 = load i64, i64* %78, align 8
  %80 = zext i8 %76 to i64
  %81 = select i1 %77, i64 %79, i64 %80
  %82 = bitcast %"class.std::__1::__tree_node_base"* %73 to %"struct.std::__1::basic_string<char, std::__1::char_traits<char>, std::__1::allocator<char> >::__short"*
  %83 = getelementptr inbounds %"struct.std::__1::basic_string<char, std::__1::char_traits<char>, std::__1::allocator<char> >::__short", %"struct.std::__1::basic_string<char, std::__1::char_traits<char>, std::__1::allocator<char> >::__short"* %82, i64 0, i32 1, i32 0
  %84 = load i8, i8* %83, align 1
  %85 = icmp slt i8 %84, 0
  %86 = getelementptr inbounds %"class.std::__1::__tree_node_base", %"class.std::__1::__tree_node_base"* %71, i64 1, i32 1
  %87 = bitcast %"class.std::__1::__tree_node_base"** %86 to i64*
  %88 = load i64, i64* %87, align 8
  %89 = zext i8 %84 to i64
  %90 = select i1 %85, i64 %88, i64 %89
  %91 = icmp ult i64 %81, %90
  %92 = select i1 %91, i64 %81, i64 %90
  %93 = icmp eq i64 %92, 0
  br i1 %93, label %105, label %94

94:                                               ; preds = %70
  %95 = bitcast %"class.std::__1::__tree_node_base"* %73 to i8**
  %96 = load i8*, i8** %95, align 8
  %97 = bitcast %"class.std::__1::__tree_node_base"* %73 to i8*
  %98 = select i1 %85, i8* %96, i8* %97
  %99 = getelementptr inbounds %"class.std::__1::basic_string", %"class.std::__1::basic_string"* %4, i64 0, i32 0, i32 0, i32 0, i32 0, i32 0, i32 0
  %100 = load i8*, i8** %99, align 8
  %101 = bitcast %"class.std::__1::basic_string"* %4 to i8*
  %102 = select i1 %77, i8* %100, i8* %101
  %103 = tail call i32 @memcmp(i8* %98, i8* %102, i64 %92) #11
  %104 = icmp eq i32 %103, 0
  br i1 %104, label %105, label %107

105:                                              ; preds = %94, %70
  %106 = icmp ult i64 %90, %81
  br i1 %106, label %109, label %118

107:                                              ; preds = %94
  %108 = icmp slt i32 %103, 0
  br i1 %108, label %109, label %118

109:                                              ; preds = %46, %105, %107
  %110 = phi i64 [ %72, %107 ], [ %72, %105 ], [ %6, %46 ]
  %111 = icmp eq %"class.std::__1::__tree_node_base"* %51, null
  br i1 %111, label %112, label %114

112:                                              ; preds = %109
  %113 = getelementptr inbounds %"class.std::__1::__tree_end_node", %"class.std::__1::__tree_end_node"* %1, i64 0, i32 0
  store %"class.std::__1::__tree_end_node"* %1, %"class.std::__1::__tree_end_node"** %2, align 8
  br label %208

114:                                              ; preds = %109
  %115 = bitcast %"class.std::__1::__tree_end_node"** %2 to i64*
  store i64 %110, i64* %115, align 8
  %116 = inttoptr i64 %110 to %"class.std::__1::__tree_node_base"*
  %117 = getelementptr inbounds %"class.std::__1::__tree_node_base", %"class.std::__1::__tree_node_base"* %116, i64 0, i32 1
  br label %208

118:                                              ; preds = %105, %107
  %119 = tail call dereferenceable(8) %"class.std::__1::__tree_node_base"** @_ZNSt3__16__treeINS_12basic_stringIcNS_11char_traitsIcEENS_9allocatorIcEEEENS_4lessIS6_EENS4_IS6_EEE12__find_equalIS6_EERPNS_16__tree_node_baseIPvEERPNS_15__tree_end_nodeISF_EERKT_(%"class.std::__1::__tree.131"* %0, %"class.std::__1::__tree_end_node"** dereferenceable(8) %2, %"class.std::__1::basic_string"* dereferenceable(24) %4)
  br label %208

120:                                              ; preds = %42
  br i1 %30, label %135, label %121

121:                                              ; preds = %120
  %122 = bitcast %"class.std::__1::__tree_end_node"* %10 to i8**
  %123 = load i8*, i8** %122, align 8
  %124 = getelementptr inbounds %"class.std::__1::basic_string", %"class.std::__1::basic_string"* %4, i64 0, i32 0, i32 0, i32 0, i32 0, i32 0, i32 0
  %125 = load i8*, i8** %124, align 8
  %126 = bitcast %"class.std::__1::__tree_end_node"* %10 to i8*
  %127 = select i1 %14, i8* %123, i8* %126
  %128 = bitcast %"class.std::__1::basic_string"* %4 to i8*
  %129 = select i1 %23, i8* %125, i8* %128
  br label %130

130:                                              ; preds = %121, %44
  %131 = phi i8* [ %129, %121 ], [ %35, %44 ]
  %132 = phi i8* [ %127, %121 ], [ %39, %44 ]
  %133 = tail call i32 @memcmp(i8* %132, i8* %131, i64 %29) #11
  %134 = icmp eq i32 %133, 0
  br i1 %134, label %135, label %136

135:                                              ; preds = %130, %120
  br i1 %28, label %138, label %205

136:                                              ; preds = %130
  %137 = icmp slt i32 %133, 0
  br i1 %137, label %138, label %205

138:                                              ; preds = %135, %136
  %139 = getelementptr inbounds %"class.std::__1::__tree_end_node", %"class.std::__1::__tree_end_node"* %1, i64 1, i32 0
  %140 = load %"class.std::__1::__tree_node_base"*, %"class.std::__1::__tree_node_base"** %139, align 8
  %141 = icmp eq %"class.std::__1::__tree_node_base"* %140, null
  br i1 %141, label %142, label %150

142:                                              ; preds = %138
  %143 = bitcast %"class.std::__1::__tree_end_node"* %1 to %"class.std::__1::__tree_node_base"*
  %144 = getelementptr inbounds %"class.std::__1::__tree_end_node", %"class.std::__1::__tree_end_node"* %1, i64 2
  %145 = bitcast %"class.std::__1::__tree_end_node"* %144 to %"class.std::__1::__tree_end_node"**
  %146 = load %"class.std::__1::__tree_end_node"*, %"class.std::__1::__tree_end_node"** %145, align 8
  %147 = getelementptr inbounds %"class.std::__1::__tree_end_node", %"class.std::__1::__tree_end_node"* %146, i64 0, i32 0
  %148 = load %"class.std::__1::__tree_node_base"*, %"class.std::__1::__tree_node_base"** %147, align 8
  %149 = icmp eq %"class.std::__1::__tree_node_base"* %148, %143
  br i1 %149, label %166, label %157

150:                                              ; preds = %138, %150
  %151 = phi %"class.std::__1::__tree_node_base"* [ %153, %150 ], [ %140, %138 ]
  %152 = getelementptr inbounds %"class.std::__1::__tree_node_base", %"class.std::__1::__tree_node_base"* %151, i64 0, i32 0, i32 0
  %153 = load %"class.std::__1::__tree_node_base"*, %"class.std::__1::__tree_node_base"** %152, align 8
  %154 = icmp eq %"class.std::__1::__tree_node_base"* %153, null
  br i1 %154, label %155, label %150

155:                                              ; preds = %150
  %156 = getelementptr inbounds %"class.std::__1::__tree_node_base", %"class.std::__1::__tree_node_base"* %151, i64 0, i32 0
  br label %166

157:                                              ; preds = %142, %157
  %158 = phi %"class.std::__1::__tree_end_node"** [ %161, %157 ], [ %145, %142 ]
  %159 = bitcast %"class.std::__1::__tree_end_node"** %158 to %"class.std::__1::__tree_node_base"**
  %160 = load %"class.std::__1::__tree_node_base"*, %"class.std::__1::__tree_node_base"** %159, align 8
  %161 = getelementptr inbounds %"class.std::__1::__tree_node_base", %"class.std::__1::__tree_node_base"* %160, i64 0, i32 2
  %162 = load %"class.std::__1::__tree_end_node"*, %"class.std::__1::__tree_end_node"** %161, align 8
  %163 = getelementptr inbounds %"class.std::__1::__tree_end_node", %"class.std::__1::__tree_end_node"* %162, i64 0, i32 0
  %164 = load %"class.std::__1::__tree_node_base"*, %"class.std::__1::__tree_node_base"** %163, align 8
  %165 = icmp eq %"class.std::__1::__tree_node_base"* %164, %160
  br i1 %165, label %166, label %157

166:                                              ; preds = %157, %155, %142
  %167 = phi %"class.std::__1::__tree_end_node"* [ %156, %155 ], [ %146, %142 ], [ %162, %157 ]
  %168 = icmp eq %"class.std::__1::__tree_end_node"* %167, %7
  br i1 %168, label %198, label %169

169:                                              ; preds = %166
  %170 = getelementptr inbounds %"class.std::__1::__tree_end_node", %"class.std::__1::__tree_end_node"* %167, i64 4
  %171 = bitcast %"class.std::__1::__tree_end_node"* %170 to %"struct.std::__1::basic_string<char, std::__1::char_traits<char>, std::__1::allocator<char> >::__short"*
  %172 = getelementptr inbounds %"struct.std::__1::basic_string<char, std::__1::char_traits<char>, std::__1::allocator<char> >::__short", %"struct.std::__1::basic_string<char, std::__1::char_traits<char>, std::__1::allocator<char> >::__short"* %171, i64 0, i32 1, i32 0
  %173 = load i8, i8* %172, align 1
  %174 = icmp slt i8 %173, 0
  %175 = getelementptr inbounds %"class.std::__1::__tree_end_node", %"class.std::__1::__tree_end_node"* %167, i64 5
  %176 = bitcast %"class.std::__1::__tree_end_node"* %175 to i64*
  %177 = load i64, i64* %176, align 8
  %178 = zext i8 %173 to i64
  %179 = select i1 %174, i64 %177, i64 %178
  %180 = icmp ult i64 %179, %27
  %181 = select i1 %180, i64 %179, i64 %27
  %182 = icmp eq i64 %181, 0
  br i1 %182, label %194, label %183

183:                                              ; preds = %169
  %184 = getelementptr inbounds %"class.std::__1::basic_string", %"class.std::__1::basic_string"* %4, i64 0, i32 0, i32 0, i32 0, i32 0, i32 0, i32 0
  %185 = load i8*, i8** %184, align 8
  %186 = bitcast %"class.std::__1::basic_string"* %4 to i8*
  %187 = select i1 %23, i8* %185, i8* %186
  %188 = bitcast %"class.std::__1::__tree_end_node"* %170 to i8**
  %189 = load i8*, i8** %188, align 8
  %190 = bitcast %"class.std::__1::__tree_end_node"* %170 to i8*
  %191 = select i1 %174, i8* %189, i8* %190
  %192 = tail call i32 @memcmp(i8* %187, i8* %191, i64 %181) #11
  %193 = icmp eq i32 %192, 0
  br i1 %193, label %194, label %196

194:                                              ; preds = %183, %169
  %195 = icmp ult i64 %27, %179
  br i1 %195, label %198, label %203

196:                                              ; preds = %183
  %197 = icmp slt i32 %192, 0
  br i1 %197, label %198, label %203

198:                                              ; preds = %194, %166, %196
  br i1 %141, label %199, label %201

199:                                              ; preds = %198
  %200 = bitcast %"class.std::__1::__tree_end_node"** %2 to i64*
  store i64 %6, i64* %200, align 8
  br label %208

201:                                              ; preds = %198
  store %"class.std::__1::__tree_end_node"* %167, %"class.std::__1::__tree_end_node"** %2, align 8
  %202 = getelementptr inbounds %"class.std::__1::__tree_end_node", %"class.std::__1::__tree_end_node"* %167, i64 0, i32 0
  br label %208

203:                                              ; preds = %194, %196
  %204 = tail call dereferenceable(8) %"class.std::__1::__tree_node_base"** @_ZNSt3__16__treeINS_12basic_stringIcNS_11char_traitsIcEENS_9allocatorIcEEEENS_4lessIS6_EENS4_IS6_EEE12__find_equalIS6_EERPNS_16__tree_node_baseIPvEERPNS_15__tree_end_nodeISF_EERKT_(%"class.std::__1::__tree.131"* %0, %"class.std::__1::__tree_end_node"** dereferenceable(8) %2, %"class.std::__1::basic_string"* dereferenceable(24) %4)
  br label %208

205:                                              ; preds = %135, %136
  %206 = bitcast %"class.std::__1::__tree_end_node"** %2 to i64*
  store i64 %6, i64* %206, align 8
  %207 = bitcast %"class.std::__1::__tree_node_base"** %3 to i64*
  store i64 %6, i64* %207, align 8
  br label %208

208:                                              ; preds = %199, %201, %203, %112, %114, %118, %205
  %209 = phi %"class.std::__1::__tree_node_base"** [ %3, %205 ], [ %113, %112 ], [ %117, %114 ], [ %119, %118 ], [ %139, %199 ], [ %202, %201 ], [ %204, %203 ]
  ret %"class.std::__1::__tree_node_base"** %209
}

; Function Attrs: nounwind ssp uwtable
define linkonce_odr hidden dereferenceable(8) %"class.std::__1::__tree_node_base"** @_ZNSt3__16__treeINS_12basic_stringIcNS_11char_traitsIcEENS_9allocatorIcEEEENS_4lessIS6_EENS4_IS6_EEE12__find_equalIS6_EERPNS_16__tree_node_baseIPvEERPNS_15__tree_end_nodeISF_EERKT_(%"class.std::__1::__tree.131"*, %"class.std::__1::__tree_end_node"** dereferenceable(8), %"class.std::__1::basic_string"* dereferenceable(24)) local_unnamed_addr #0 comdat align 2 {
  %4 = getelementptr inbounds %"class.std::__1::__tree.131", %"class.std::__1::__tree.131"* %0, i64 0, i32 1, i32 0, i32 0
  %5 = bitcast %"class.std::__1::__tree_end_node"* %4 to %"class.std::__1::__tree_node"**
  %6 = load %"class.std::__1::__tree_node"*, %"class.std::__1::__tree_node"** %5, align 8
  %7 = icmp eq %"class.std::__1::__tree_node"* %6, null
  br i1 %7, label %79, label %8

8:                                                ; preds = %3
  %9 = getelementptr inbounds %"class.std::__1::__tree.131", %"class.std::__1::__tree.131"* %0, i64 0, i32 1, i32 0, i32 0, i32 0
  %10 = bitcast %"class.std::__1::basic_string"* %2 to %"struct.std::__1::basic_string<char, std::__1::char_traits<char>, std::__1::allocator<char> >::__short"*
  %11 = getelementptr inbounds %"struct.std::__1::basic_string<char, std::__1::char_traits<char>, std::__1::allocator<char> >::__short", %"struct.std::__1::basic_string<char, std::__1::char_traits<char>, std::__1::allocator<char> >::__short"* %10, i64 0, i32 1, i32 0
  %12 = load i8, i8* %11, align 1
  %13 = icmp slt i8 %12, 0
  %14 = getelementptr inbounds %"class.std::__1::basic_string", %"class.std::__1::basic_string"* %2, i64 0, i32 0, i32 0, i32 0, i32 0, i32 0, i32 1
  %15 = load i64, i64* %14, align 8
  %16 = zext i8 %12 to i64
  %17 = select i1 %13, i64 %15, i64 %16
  %18 = getelementptr inbounds %"class.std::__1::basic_string", %"class.std::__1::basic_string"* %2, i64 0, i32 0, i32 0, i32 0, i32 0, i32 0, i32 0
  %19 = load i8*, i8** %18, align 8
  %20 = bitcast %"class.std::__1::basic_string"* %2 to i8*
  %21 = select i1 %13, i8* %19, i8* %20
  br label %22

22:                                               ; preds = %8, %75
  %23 = phi %"class.std::__1::__tree_node"* [ %78, %75 ], [ %6, %8 ]
  %24 = phi %"class.std::__1::__tree_node_base"** [ %77, %75 ], [ %9, %8 ]
  %25 = getelementptr inbounds %"class.std::__1::__tree_node", %"class.std::__1::__tree_node"* %23, i64 0, i32 1
  %26 = bitcast %"class.std::__1::basic_string"* %25 to %"struct.std::__1::basic_string<char, std::__1::char_traits<char>, std::__1::allocator<char> >::__short"*
  %27 = getelementptr inbounds %"struct.std::__1::basic_string<char, std::__1::char_traits<char>, std::__1::allocator<char> >::__short", %"struct.std::__1::basic_string<char, std::__1::char_traits<char>, std::__1::allocator<char> >::__short"* %26, i64 0, i32 1, i32 0
  %28 = load i8, i8* %27, align 1
  %29 = icmp slt i8 %28, 0
  %30 = getelementptr inbounds %"class.std::__1::__tree_node", %"class.std::__1::__tree_node"* %23, i64 0, i32 1, i32 0, i32 0, i32 0, i32 0, i32 0, i32 1
  %31 = load i64, i64* %30, align 8
  %32 = zext i8 %28 to i64
  %33 = select i1 %29, i64 %31, i64 %32
  %34 = icmp ult i64 %33, %17
  %35 = select i1 %34, i64 %33, i64 %17
  %36 = icmp eq i64 %35, 0
  br i1 %36, label %44, label %37

37:                                               ; preds = %22
  %38 = getelementptr inbounds %"class.std::__1::basic_string", %"class.std::__1::basic_string"* %25, i64 0, i32 0, i32 0, i32 0, i32 0, i32 0, i32 0
  %39 = load i8*, i8** %38, align 8
  %40 = bitcast %"class.std::__1::basic_string"* %25 to i8*
  %41 = select i1 %29, i8* %39, i8* %40
  %42 = tail call i32 @memcmp(i8* %21, i8* %41, i64 %35) #11
  %43 = icmp eq i32 %42, 0
  br i1 %43, label %44, label %46

44:                                               ; preds = %37, %22
  %45 = icmp ult i64 %17, %33
  br i1 %45, label %48, label %54

46:                                               ; preds = %37
  %47 = icmp slt i32 %42, 0
  br i1 %47, label %48, label %60

48:                                               ; preds = %44, %46
  %49 = getelementptr inbounds %"class.std::__1::__tree_node", %"class.std::__1::__tree_node"* %23, i64 0, i32 0, i32 0, i32 0
  %50 = load %"class.std::__1::__tree_node_base"*, %"class.std::__1::__tree_node_base"** %49, align 8
  %51 = icmp eq %"class.std::__1::__tree_node_base"* %50, null
  br i1 %51, label %52, label %75

52:                                               ; preds = %48
  %53 = getelementptr inbounds %"class.std::__1::__tree_node", %"class.std::__1::__tree_node"* %23, i64 0, i32 0, i32 0
  store %"class.std::__1::__tree_end_node"* %53, %"class.std::__1::__tree_end_node"** %1, align 8
  br label %81

54:                                               ; preds = %44
  br i1 %36, label %64, label %55

55:                                               ; preds = %54
  %56 = getelementptr inbounds %"class.std::__1::basic_string", %"class.std::__1::basic_string"* %25, i64 0, i32 0, i32 0, i32 0, i32 0, i32 0, i32 0
  %57 = load i8*, i8** %56, align 8
  %58 = bitcast %"class.std::__1::basic_string"* %25 to i8*
  %59 = select i1 %29, i8* %57, i8* %58
  br label %60

60:                                               ; preds = %55, %46
  %61 = phi i8* [ %59, %55 ], [ %41, %46 ]
  %62 = tail call i32 @memcmp(i8* %61, i8* %21, i64 %35) #11
  %63 = icmp eq i32 %62, 0
  br i1 %63, label %64, label %65

64:                                               ; preds = %60, %54
  br i1 %34, label %67, label %73

65:                                               ; preds = %60
  %66 = icmp slt i32 %62, 0
  br i1 %66, label %67, label %73

67:                                               ; preds = %64, %65
  %68 = getelementptr inbounds %"class.std::__1::__tree_node", %"class.std::__1::__tree_node"* %23, i64 0, i32 0, i32 1
  %69 = load %"class.std::__1::__tree_node_base"*, %"class.std::__1::__tree_node_base"** %68, align 8
  %70 = icmp eq %"class.std::__1::__tree_node_base"* %69, null
  br i1 %70, label %71, label %75

71:                                               ; preds = %67
  %72 = getelementptr inbounds %"class.std::__1::__tree_node", %"class.std::__1::__tree_node"* %23, i64 0, i32 0, i32 0
  store %"class.std::__1::__tree_end_node"* %72, %"class.std::__1::__tree_end_node"** %1, align 8
  br label %81

73:                                               ; preds = %64, %65
  %74 = getelementptr inbounds %"class.std::__1::__tree_node", %"class.std::__1::__tree_node"* %23, i64 0, i32 0, i32 0
  store %"class.std::__1::__tree_end_node"* %74, %"class.std::__1::__tree_end_node"** %1, align 8
  br label %81

75:                                               ; preds = %67, %48
  %76 = phi %"class.std::__1::__tree_node_base"* [ %50, %48 ], [ %69, %67 ]
  %77 = phi %"class.std::__1::__tree_node_base"** [ %49, %48 ], [ %68, %67 ]
  %78 = bitcast %"class.std::__1::__tree_node_base"* %76 to %"class.std::__1::__tree_node"*
  br label %22

79:                                               ; preds = %3
  store %"class.std::__1::__tree_end_node"* %4, %"class.std::__1::__tree_end_node"** %1, align 8
  %80 = getelementptr inbounds %"class.std::__1::__tree_end_node", %"class.std::__1::__tree_end_node"* %4, i64 0, i32 0
  br label %81

81:                                               ; preds = %79, %73, %71, %52
  %82 = phi %"class.std::__1::__tree_node_base"** [ %49, %52 ], [ %68, %71 ], [ %24, %73 ], [ %80, %79 ]
  ret %"class.std::__1::__tree_node_base"** %82
}

; Function Attrs: nofree nounwind readonly
declare i32 @memcmp(i8* nocapture, i8* nocapture, i64) local_unnamed_addr #10

; Function Attrs: nounwind ssp uwtable
define linkonce_odr hidden void @_ZNSt3__127__tree_balance_after_insertIPNS_16__tree_node_baseIPvEEEEvT_S5_(%"class.std::__1::__tree_node_base"*, %"class.std::__1::__tree_node_base"*) local_unnamed_addr #0 comdat {
  %3 = icmp eq %"class.std::__1::__tree_node_base"* %1, %0
  %4 = getelementptr inbounds %"class.std::__1::__tree_node_base", %"class.std::__1::__tree_node_base"* %1, i64 0, i32 3
  %5 = zext i1 %3 to i8
  store i8 %5, i8* %4, align 8
  br i1 %3, label %156, label %6

6:                                                ; preds = %2, %149
  %7 = phi %"class.std::__1::__tree_node_base"* [ %20, %149 ], [ %1, %2 ]
  %8 = getelementptr inbounds %"class.std::__1::__tree_node_base", %"class.std::__1::__tree_node_base"* %7, i64 0, i32 2
  %9 = bitcast %"class.std::__1::__tree_end_node"** %8 to %"class.std::__1::__tree_node_base"**
  %10 = load %"class.std::__1::__tree_node_base"*, %"class.std::__1::__tree_node_base"** %9, align 8
  %11 = getelementptr inbounds %"class.std::__1::__tree_node_base", %"class.std::__1::__tree_node_base"* %10, i64 0, i32 3
  %12 = load i8, i8* %11, align 8, !range !5
  %13 = icmp eq i8 %12, 0
  br i1 %13, label %14, label %156

14:                                               ; preds = %6
  %15 = getelementptr inbounds %"class.std::__1::__tree_node_base", %"class.std::__1::__tree_node_base"* %10, i64 0, i32 2
  %16 = load %"class.std::__1::__tree_end_node"*, %"class.std::__1::__tree_end_node"** %15, align 8
  %17 = getelementptr inbounds %"class.std::__1::__tree_end_node", %"class.std::__1::__tree_end_node"* %16, i64 0, i32 0
  %18 = load %"class.std::__1::__tree_node_base"*, %"class.std::__1::__tree_node_base"** %17, align 8
  %19 = icmp eq %"class.std::__1::__tree_node_base"* %18, %10
  %20 = bitcast %"class.std::__1::__tree_end_node"* %16 to %"class.std::__1::__tree_node_base"*
  br i1 %19, label %21, label %87

21:                                               ; preds = %14
  %22 = getelementptr inbounds %"class.std::__1::__tree_end_node", %"class.std::__1::__tree_end_node"* %16, i64 1, i32 0
  %23 = load %"class.std::__1::__tree_node_base"*, %"class.std::__1::__tree_node_base"** %22, align 8
  %24 = icmp eq %"class.std::__1::__tree_node_base"* %23, null
  br i1 %24, label %29, label %25

25:                                               ; preds = %21
  %26 = getelementptr inbounds %"class.std::__1::__tree_node_base", %"class.std::__1::__tree_node_base"* %23, i64 0, i32 3
  %27 = load i8, i8* %26, align 8, !range !5
  %28 = icmp eq i8 %27, 0
  br i1 %28, label %149, label %29

29:                                               ; preds = %25, %21
  %30 = getelementptr inbounds %"class.std::__1::__tree_node_base", %"class.std::__1::__tree_node_base"* %10, i64 0, i32 2
  %31 = bitcast %"class.std::__1::__tree_end_node"* %16 to %"class.std::__1::__tree_node_base"*
  %32 = getelementptr inbounds %"class.std::__1::__tree_node_base", %"class.std::__1::__tree_node_base"* %10, i64 0, i32 0, i32 0
  %33 = load %"class.std::__1::__tree_node_base"*, %"class.std::__1::__tree_node_base"** %32, align 8
  %34 = icmp eq %"class.std::__1::__tree_node_base"* %33, %7
  br i1 %34, label %61, label %35

35:                                               ; preds = %29
  %36 = ptrtoint %"class.std::__1::__tree_end_node"* %16 to i64
  %37 = getelementptr inbounds %"class.std::__1::__tree_node_base", %"class.std::__1::__tree_node_base"* %10, i64 0, i32 1
  %38 = load %"class.std::__1::__tree_node_base"*, %"class.std::__1::__tree_node_base"** %37, align 8
  %39 = getelementptr inbounds %"class.std::__1::__tree_node_base", %"class.std::__1::__tree_node_base"* %38, i64 0, i32 0, i32 0
  %40 = load %"class.std::__1::__tree_node_base"*, %"class.std::__1::__tree_node_base"** %39, align 8
  store %"class.std::__1::__tree_node_base"* %40, %"class.std::__1::__tree_node_base"** %37, align 8
  %41 = icmp eq %"class.std::__1::__tree_node_base"* %40, null
  br i1 %41, label %47, label %42

42:                                               ; preds = %35
  %43 = getelementptr inbounds %"class.std::__1::__tree_node_base", %"class.std::__1::__tree_node_base"* %10, i64 0, i32 0
  %44 = getelementptr inbounds %"class.std::__1::__tree_node_base", %"class.std::__1::__tree_node_base"* %40, i64 0, i32 2
  store %"class.std::__1::__tree_end_node"* %43, %"class.std::__1::__tree_end_node"** %44, align 8
  %45 = bitcast %"class.std::__1::__tree_end_node"** %30 to i64*
  %46 = load i64, i64* %45, align 8
  br label %47

47:                                               ; preds = %35, %42
  %48 = phi i64 [ %46, %42 ], [ %36, %35 ]
  %49 = getelementptr inbounds %"class.std::__1::__tree_node_base", %"class.std::__1::__tree_node_base"* %38, i64 0, i32 2
  %50 = bitcast %"class.std::__1::__tree_end_node"** %49 to i64*
  store i64 %48, i64* %50, align 8
  %51 = load %"class.std::__1::__tree_end_node"*, %"class.std::__1::__tree_end_node"** %30, align 8
  %52 = getelementptr inbounds %"class.std::__1::__tree_end_node", %"class.std::__1::__tree_end_node"* %51, i64 0, i32 0
  %53 = load %"class.std::__1::__tree_node_base"*, %"class.std::__1::__tree_node_base"** %52, align 8
  %54 = icmp eq %"class.std::__1::__tree_node_base"* %53, %10
  %55 = getelementptr inbounds %"class.std::__1::__tree_end_node", %"class.std::__1::__tree_end_node"* %51, i64 1, i32 0
  %56 = select i1 %54, %"class.std::__1::__tree_node_base"** %52, %"class.std::__1::__tree_node_base"** %55
  store %"class.std::__1::__tree_node_base"* %38, %"class.std::__1::__tree_node_base"** %56, align 8
  store %"class.std::__1::__tree_node_base"* %10, %"class.std::__1::__tree_node_base"** %39, align 8
  %57 = getelementptr inbounds %"class.std::__1::__tree_node_base", %"class.std::__1::__tree_node_base"* %38, i64 0, i32 0
  store %"class.std::__1::__tree_end_node"* %57, %"class.std::__1::__tree_end_node"** %30, align 8
  %58 = getelementptr inbounds %"class.std::__1::__tree_node_base", %"class.std::__1::__tree_node_base"* %38, i64 0, i32 2
  %59 = bitcast %"class.std::__1::__tree_end_node"** %58 to %"class.std::__1::__tree_node_base"**
  %60 = load %"class.std::__1::__tree_node_base"*, %"class.std::__1::__tree_node_base"** %59, align 8
  br label %61

61:                                               ; preds = %47, %29
  %62 = phi %"class.std::__1::__tree_node_base"* [ %31, %29 ], [ %60, %47 ]
  %63 = phi %"class.std::__1::__tree_node_base"* [ %10, %29 ], [ %38, %47 ]
  %64 = getelementptr inbounds %"class.std::__1::__tree_node_base", %"class.std::__1::__tree_node_base"* %63, i64 0, i32 3
  store i8 1, i8* %64, align 8
  %65 = getelementptr inbounds %"class.std::__1::__tree_node_base", %"class.std::__1::__tree_node_base"* %62, i64 0, i32 3
  store i8 0, i8* %65, align 8
  %66 = getelementptr inbounds %"class.std::__1::__tree_node_base", %"class.std::__1::__tree_node_base"* %62, i64 0, i32 0, i32 0
  %67 = load %"class.std::__1::__tree_node_base"*, %"class.std::__1::__tree_node_base"** %66, align 8
  %68 = getelementptr inbounds %"class.std::__1::__tree_node_base", %"class.std::__1::__tree_node_base"* %67, i64 0, i32 1
  %69 = load %"class.std::__1::__tree_node_base"*, %"class.std::__1::__tree_node_base"** %68, align 8
  store %"class.std::__1::__tree_node_base"* %69, %"class.std::__1::__tree_node_base"** %66, align 8
  %70 = icmp eq %"class.std::__1::__tree_node_base"* %69, null
  br i1 %70, label %74, label %71

71:                                               ; preds = %61
  %72 = getelementptr inbounds %"class.std::__1::__tree_node_base", %"class.std::__1::__tree_node_base"* %62, i64 0, i32 0
  %73 = getelementptr inbounds %"class.std::__1::__tree_node_base", %"class.std::__1::__tree_node_base"* %69, i64 0, i32 2
  store %"class.std::__1::__tree_end_node"* %72, %"class.std::__1::__tree_end_node"** %73, align 8
  br label %74

74:                                               ; preds = %71, %61
  %75 = getelementptr inbounds %"class.std::__1::__tree_node_base", %"class.std::__1::__tree_node_base"* %62, i64 0, i32 2
  %76 = bitcast %"class.std::__1::__tree_end_node"** %75 to i64*
  %77 = load i64, i64* %76, align 8
  %78 = getelementptr inbounds %"class.std::__1::__tree_node_base", %"class.std::__1::__tree_node_base"* %67, i64 0, i32 2
  %79 = bitcast %"class.std::__1::__tree_end_node"** %78 to i64*
  store i64 %77, i64* %79, align 8
  %80 = load %"class.std::__1::__tree_end_node"*, %"class.std::__1::__tree_end_node"** %75, align 8
  %81 = getelementptr inbounds %"class.std::__1::__tree_end_node", %"class.std::__1::__tree_end_node"* %80, i64 0, i32 0
  %82 = load %"class.std::__1::__tree_node_base"*, %"class.std::__1::__tree_node_base"** %81, align 8
  %83 = icmp eq %"class.std::__1::__tree_node_base"* %82, %62
  %84 = getelementptr inbounds %"class.std::__1::__tree_end_node", %"class.std::__1::__tree_end_node"* %80, i64 1, i32 0
  %85 = select i1 %83, %"class.std::__1::__tree_node_base"** %81, %"class.std::__1::__tree_node_base"** %84
  store %"class.std::__1::__tree_node_base"* %67, %"class.std::__1::__tree_node_base"** %85, align 8
  store %"class.std::__1::__tree_node_base"* %62, %"class.std::__1::__tree_node_base"** %68, align 8
  %86 = getelementptr inbounds %"class.std::__1::__tree_node_base", %"class.std::__1::__tree_node_base"* %67, i64 0, i32 0
  store %"class.std::__1::__tree_end_node"* %86, %"class.std::__1::__tree_end_node"** %75, align 8
  br label %156

87:                                               ; preds = %14
  %88 = icmp eq %"class.std::__1::__tree_node_base"* %18, null
  br i1 %88, label %93, label %89

89:                                               ; preds = %87
  %90 = getelementptr inbounds %"class.std::__1::__tree_node_base", %"class.std::__1::__tree_node_base"* %18, i64 0, i32 3
  %91 = load i8, i8* %90, align 8, !range !5
  %92 = icmp eq i8 %91, 0
  br i1 %92, label %149, label %93

93:                                               ; preds = %89, %87
  %94 = getelementptr inbounds %"class.std::__1::__tree_node_base", %"class.std::__1::__tree_node_base"* %10, i64 0, i32 2
  %95 = bitcast %"class.std::__1::__tree_end_node"* %16 to %"class.std::__1::__tree_node_base"*
  %96 = getelementptr inbounds %"class.std::__1::__tree_node_base", %"class.std::__1::__tree_node_base"* %10, i64 0, i32 0, i32 0
  %97 = load %"class.std::__1::__tree_node_base"*, %"class.std::__1::__tree_node_base"** %96, align 8
  %98 = icmp eq %"class.std::__1::__tree_node_base"* %97, %7
  br i1 %98, label %99, label %123

99:                                               ; preds = %93
  %100 = ptrtoint %"class.std::__1::__tree_end_node"* %16 to i64
  %101 = getelementptr inbounds %"class.std::__1::__tree_node_base", %"class.std::__1::__tree_node_base"* %10, i64 0, i32 0, i32 0
  %102 = getelementptr inbounds %"class.std::__1::__tree_node_base", %"class.std::__1::__tree_node_base"* %7, i64 0, i32 1
  %103 = load %"class.std::__1::__tree_node_base"*, %"class.std::__1::__tree_node_base"** %102, align 8
  store %"class.std::__1::__tree_node_base"* %103, %"class.std::__1::__tree_node_base"** %101, align 8
  %104 = icmp eq %"class.std::__1::__tree_node_base"* %103, null
  br i1 %104, label %110, label %105

105:                                              ; preds = %99
  %106 = getelementptr inbounds %"class.std::__1::__tree_node_base", %"class.std::__1::__tree_node_base"* %10, i64 0, i32 0
  %107 = getelementptr inbounds %"class.std::__1::__tree_node_base", %"class.std::__1::__tree_node_base"* %103, i64 0, i32 2
  store %"class.std::__1::__tree_end_node"* %106, %"class.std::__1::__tree_end_node"** %107, align 8
  %108 = bitcast %"class.std::__1::__tree_end_node"** %94 to i64*
  %109 = load i64, i64* %108, align 8
  br label %110

110:                                              ; preds = %99, %105
  %111 = phi i64 [ %109, %105 ], [ %100, %99 ]
  %112 = bitcast %"class.std::__1::__tree_end_node"** %8 to i64*
  store i64 %111, i64* %112, align 8
  %113 = load %"class.std::__1::__tree_end_node"*, %"class.std::__1::__tree_end_node"** %94, align 8
  %114 = getelementptr inbounds %"class.std::__1::__tree_end_node", %"class.std::__1::__tree_end_node"* %113, i64 0, i32 0
  %115 = load %"class.std::__1::__tree_node_base"*, %"class.std::__1::__tree_node_base"** %114, align 8
  %116 = icmp eq %"class.std::__1::__tree_node_base"* %115, %10
  %117 = getelementptr inbounds %"class.std::__1::__tree_end_node", %"class.std::__1::__tree_end_node"* %113, i64 1, i32 0
  %118 = select i1 %116, %"class.std::__1::__tree_node_base"** %114, %"class.std::__1::__tree_node_base"** %117
  store %"class.std::__1::__tree_node_base"* %7, %"class.std::__1::__tree_node_base"** %118, align 8
  store %"class.std::__1::__tree_node_base"* %10, %"class.std::__1::__tree_node_base"** %102, align 8
  %119 = getelementptr inbounds %"class.std::__1::__tree_node_base", %"class.std::__1::__tree_node_base"* %7, i64 0, i32 0
  store %"class.std::__1::__tree_end_node"* %119, %"class.std::__1::__tree_end_node"** %94, align 8
  %120 = getelementptr inbounds %"class.std::__1::__tree_node_base", %"class.std::__1::__tree_node_base"* %7, i64 0, i32 2
  %121 = bitcast %"class.std::__1::__tree_end_node"** %120 to %"class.std::__1::__tree_node_base"**
  %122 = load %"class.std::__1::__tree_node_base"*, %"class.std::__1::__tree_node_base"** %121, align 8
  br label %123

123:                                              ; preds = %93, %110
  %124 = phi %"class.std::__1::__tree_node_base"* [ %122, %110 ], [ %95, %93 ]
  %125 = phi %"class.std::__1::__tree_node_base"* [ %7, %110 ], [ %10, %93 ]
  %126 = getelementptr inbounds %"class.std::__1::__tree_node_base", %"class.std::__1::__tree_node_base"* %125, i64 0, i32 3
  store i8 1, i8* %126, align 8
  %127 = getelementptr inbounds %"class.std::__1::__tree_node_base", %"class.std::__1::__tree_node_base"* %124, i64 0, i32 3
  store i8 0, i8* %127, align 8
  %128 = getelementptr inbounds %"class.std::__1::__tree_node_base", %"class.std::__1::__tree_node_base"* %124, i64 0, i32 1
  %129 = load %"class.std::__1::__tree_node_base"*, %"class.std::__1::__tree_node_base"** %128, align 8
  %130 = getelementptr inbounds %"class.std::__1::__tree_node_base", %"class.std::__1::__tree_node_base"* %129, i64 0, i32 0, i32 0
  %131 = load %"class.std::__1::__tree_node_base"*, %"class.std::__1::__tree_node_base"** %130, align 8
  store %"class.std::__1::__tree_node_base"* %131, %"class.std::__1::__tree_node_base"** %128, align 8
  %132 = icmp eq %"class.std::__1::__tree_node_base"* %131, null
  br i1 %132, label %136, label %133

133:                                              ; preds = %123
  %134 = getelementptr inbounds %"class.std::__1::__tree_node_base", %"class.std::__1::__tree_node_base"* %124, i64 0, i32 0
  %135 = getelementptr inbounds %"class.std::__1::__tree_node_base", %"class.std::__1::__tree_node_base"* %131, i64 0, i32 2
  store %"class.std::__1::__tree_end_node"* %134, %"class.std::__1::__tree_end_node"** %135, align 8
  br label %136

136:                                              ; preds = %133, %123
  %137 = getelementptr inbounds %"class.std::__1::__tree_node_base", %"class.std::__1::__tree_node_base"* %124, i64 0, i32 2
  %138 = bitcast %"class.std::__1::__tree_end_node"** %137 to i64*
  %139 = load i64, i64* %138, align 8
  %140 = getelementptr inbounds %"class.std::__1::__tree_node_base", %"class.std::__1::__tree_node_base"* %129, i64 0, i32 2
  %141 = bitcast %"class.std::__1::__tree_end_node"** %140 to i64*
  store i64 %139, i64* %141, align 8
  %142 = load %"class.std::__1::__tree_end_node"*, %"class.std::__1::__tree_end_node"** %137, align 8
  %143 = getelementptr inbounds %"class.std::__1::__tree_end_node", %"class.std::__1::__tree_end_node"* %142, i64 0, i32 0
  %144 = load %"class.std::__1::__tree_node_base"*, %"class.std::__1::__tree_node_base"** %143, align 8
  %145 = icmp eq %"class.std::__1::__tree_node_base"* %144, %124
  %146 = getelementptr inbounds %"class.std::__1::__tree_end_node", %"class.std::__1::__tree_end_node"* %142, i64 1, i32 0
  %147 = select i1 %145, %"class.std::__1::__tree_node_base"** %143, %"class.std::__1::__tree_node_base"** %146
  store %"class.std::__1::__tree_node_base"* %129, %"class.std::__1::__tree_node_base"** %147, align 8
  store %"class.std::__1::__tree_node_base"* %124, %"class.std::__1::__tree_node_base"** %130, align 8
  %148 = getelementptr inbounds %"class.std::__1::__tree_node_base", %"class.std::__1::__tree_node_base"* %129, i64 0, i32 0
  store %"class.std::__1::__tree_end_node"* %148, %"class.std::__1::__tree_end_node"** %137, align 8
  br label %156

149:                                              ; preds = %89, %25
  %150 = phi i8* [ %26, %25 ], [ %90, %89 ]
  store i8 1, i8* %11, align 8
  %151 = icmp eq %"class.std::__1::__tree_node_base"* %20, %0
  %152 = getelementptr inbounds %"class.std::__1::__tree_end_node", %"class.std::__1::__tree_end_node"* %16, i64 3
  %153 = bitcast %"class.std::__1::__tree_end_node"* %152 to i8*
  %154 = zext i1 %151 to i8
  store i8 %154, i8* %153, align 8
  store i8 1, i8* %150, align 8
  %155 = icmp eq %"class.std::__1::__tree_node_base"* %20, %0
  br i1 %155, label %156, label %6

156:                                              ; preds = %6, %149, %2, %136, %74
  ret void
}

; Function Attrs: nounwind ssp uwtable
define linkonce_odr hidden void @_ZNSt3__16__treeINS_12basic_stringIcNS_11char_traitsIcEENS_9allocatorIcEEEENS_4lessIS6_EENS4_IS6_EEE7destroyEPNS_11__tree_nodeIS6_PvEE(%"class.std::__1::__tree.131"*, %"class.std::__1::__tree_node"*) local_unnamed_addr #0 comdat align 2 {
  %3 = icmp eq %"class.std::__1::__tree_node"* %1, null
  br i1 %3, label %20, label %4

4:                                                ; preds = %2
  %5 = bitcast %"class.std::__1::__tree_node"* %1 to %"class.std::__1::__tree_node"**
  %6 = load %"class.std::__1::__tree_node"*, %"class.std::__1::__tree_node"** %5, align 8
  tail call void @_ZNSt3__16__treeINS_12basic_stringIcNS_11char_traitsIcEENS_9allocatorIcEEEENS_4lessIS6_EENS4_IS6_EEE7destroyEPNS_11__tree_nodeIS6_PvEE(%"class.std::__1::__tree.131"* %0, %"class.std::__1::__tree_node"* %6) #11
  %7 = getelementptr inbounds %"class.std::__1::__tree_node", %"class.std::__1::__tree_node"* %1, i64 0, i32 0, i32 1
  %8 = bitcast %"class.std::__1::__tree_node_base"** %7 to %"class.std::__1::__tree_node"**
  %9 = load %"class.std::__1::__tree_node"*, %"class.std::__1::__tree_node"** %8, align 8
  tail call void @_ZNSt3__16__treeINS_12basic_stringIcNS_11char_traitsIcEENS_9allocatorIcEEEENS_4lessIS6_EENS4_IS6_EEE7destroyEPNS_11__tree_nodeIS6_PvEE(%"class.std::__1::__tree.131"* %0, %"class.std::__1::__tree_node"* %9) #11
  %10 = getelementptr inbounds %"class.std::__1::__tree_node", %"class.std::__1::__tree_node"* %1, i64 0, i32 1
  %11 = bitcast %"class.std::__1::basic_string"* %10 to %"struct.std::__1::basic_string<char, std::__1::char_traits<char>, std::__1::allocator<char> >::__short"*
  %12 = getelementptr inbounds %"struct.std::__1::basic_string<char, std::__1::char_traits<char>, std::__1::allocator<char> >::__short", %"struct.std::__1::basic_string<char, std::__1::char_traits<char>, std::__1::allocator<char> >::__short"* %11, i64 0, i32 1, i32 0
  %13 = load i8, i8* %12, align 1
  %14 = icmp slt i8 %13, 0
  br i1 %14, label %15, label %18

15:                                               ; preds = %4
  %16 = getelementptr inbounds %"class.std::__1::basic_string", %"class.std::__1::basic_string"* %10, i64 0, i32 0, i32 0, i32 0, i32 0, i32 0, i32 0
  %17 = load i8*, i8** %16, align 8
  tail call void @_ZdlPv(i8* %17) #12
  br label %18

18:                                               ; preds = %4, %15
  %19 = bitcast %"class.std::__1::__tree_node"* %1 to i8*
  tail call void @_ZdlPv(i8* %19) #12
  br label %20

20:                                               ; preds = %2, %18
  ret void
}

; Function Attrs: nounwind ssp uwtable
define linkonce_odr hidden void @_ZN4base8internal7InvokerINS0_9BindStateIMN6syncer38TrustedVaultAccessTokenFetcherFrontendEFv22GoogleServiceAuthErrorN6signin15AccessTokenInfoEEJNS0_17UnretainedWrapperIS4_EEEEEFvS5_S7_EE7RunOnceEPNS0_13BindStateBaseEOS5_OS7_(%"class.base::internal::BindStateBase"*, %class.GoogleServiceAuthError* dereferenceable(40), %"struct.signin::AccessTokenInfo"* dereferenceable(56)) #0 comdat align 2 {
  %4 = alloca %"class.syncer::TrustedVaultAccessTokenFetcherFrontend"*, align 8
  %5 = getelementptr inbounds %"class.base::internal::BindStateBase", %"class.base::internal::BindStateBase"* %0, i64 1
  %6 = getelementptr inbounds %"class.base::internal::BindStateBase", %"class.base::internal::BindStateBase"* %0, i64 1, i32 2
  %7 = bitcast %"class.syncer::TrustedVaultAccessTokenFetcherFrontend"** %4 to i8*
  call void @llvm.lifetime.start.p0i8(i64 8, i8* nonnull %7) #11
  %8 = bitcast void (%"class.base::internal::BindStateBase"*)** %6 to i64*
  %9 = load i64, i64* %8, align 8
  %10 = bitcast %"class.syncer::TrustedVaultAccessTokenFetcherFrontend"** %4 to i64*
  store i64 %9, i64* %10, align 8
  %11 = bitcast %"class.base::internal::BindStateBase"* %5 to i64*
  %12 = load i64, i64* %11, align 8
  %13 = getelementptr inbounds %"class.base::internal::BindStateBase", %"class.base::internal::BindStateBase"* %0, i64 1, i32 1
  %14 = bitcast void ()** %13 to i64*
  %15 = load i64, i64* %14, align 8
  call void @_ZN4base8internal13FunctorTraitsIMN6syncer38TrustedVaultAccessTokenFetcherFrontendEFv22GoogleServiceAuthErrorN6signin15AccessTokenInfoEEvE6InvokeIS8_PS3_JS4_S6_EEEvT_OT0_DpOT1_(i64 %12, i64 %15, %"class.syncer::TrustedVaultAccessTokenFetcherFrontend"** nonnull dereferenceable(8) %4, %class.GoogleServiceAuthError* dereferenceable(40) %1, %"struct.signin::AccessTokenInfo"* dereferenceable(56) %2) #11
  call void @llvm.lifetime.end.p0i8(i64 8, i8* nonnull %7) #11
  ret void
}

; Function Attrs: nounwind ssp uwtable
define linkonce_odr hidden void @_ZN4base8internal13FunctorTraitsIMN6syncer38TrustedVaultAccessTokenFetcherFrontendEFv22GoogleServiceAuthErrorN6signin15AccessTokenInfoEEvE6InvokeIS8_PS3_JS4_S6_EEEvT_OT0_DpOT1_(i64, i64, %"class.syncer::TrustedVaultAccessTokenFetcherFrontend"** dereferenceable(8), %class.GoogleServiceAuthError* dereferenceable(40), %"struct.signin::AccessTokenInfo"* dereferenceable(56)) local_unnamed_addr #0 comdat align 2 {
  %6 = alloca %class.GoogleServiceAuthError, align 8
  %7 = alloca %"struct.signin::AccessTokenInfo", align 8
  %8 = bitcast %"class.syncer::TrustedVaultAccessTokenFetcherFrontend"** %2 to i8**
  %9 = load i8*, i8** %8, align 8
  %10 = getelementptr inbounds i8, i8* %9, i64 %1
  %11 = bitcast i8* %10 to %"class.syncer::TrustedVaultAccessTokenFetcherFrontend"*
  %12 = and i64 %0, 1
  %13 = icmp eq i64 %12, 0
  br i1 %13, label %21, label %14

14:                                               ; preds = %5
  %15 = bitcast i8* %10 to i8**
  %16 = load i8*, i8** %15, align 8
  %17 = add i64 %0, -1
  %18 = getelementptr i8, i8* %16, i64 %17
  %19 = bitcast i8* %18 to void (%"class.syncer::TrustedVaultAccessTokenFetcherFrontend"*, %class.GoogleServiceAuthError*, %"struct.signin::AccessTokenInfo"*)**
  %20 = load void (%"class.syncer::TrustedVaultAccessTokenFetcherFrontend"*, %class.GoogleServiceAuthError*, %"struct.signin::AccessTokenInfo"*)*, void (%"class.syncer::TrustedVaultAccessTokenFetcherFrontend"*, %class.GoogleServiceAuthError*, %"struct.signin::AccessTokenInfo"*)** %19, align 8
  br label %23

21:                                               ; preds = %5
  %22 = inttoptr i64 %0 to void (%"class.syncer::TrustedVaultAccessTokenFetcherFrontend"*, %class.GoogleServiceAuthError*, %"struct.signin::AccessTokenInfo"*)*
  br label %23

23:                                               ; preds = %21, %14
  %24 = phi void (%"class.syncer::TrustedVaultAccessTokenFetcherFrontend"*, %class.GoogleServiceAuthError*, %"struct.signin::AccessTokenInfo"*)* [ %20, %14 ], [ %22, %21 ]
  call void @_ZN22GoogleServiceAuthErrorC1ERKS_(%class.GoogleServiceAuthError* nonnull %6, %class.GoogleServiceAuthError* dereferenceable(40) %3) #11
  %25 = bitcast %"struct.signin::AccessTokenInfo"* %7 to i8*
  %26 = bitcast %"struct.signin::AccessTokenInfo"* %4 to i8*
  call void @llvm.memcpy.p0i8.p0i8.i64(i8* nonnull align 8 %25, i8* align 8 %26, i64 24, i1 false) #11
  call void @llvm.memset.p0i8.i64(i8* align 8 %26, i8 0, i64 24, i1 false) #11
  %27 = getelementptr inbounds %"struct.signin::AccessTokenInfo", %"struct.signin::AccessTokenInfo"* %4, i64 0, i32 1, i32 0, i32 0
  %28 = getelementptr inbounds %"struct.signin::AccessTokenInfo", %"struct.signin::AccessTokenInfo"* %7, i64 0, i32 1, i32 0, i32 0
  %29 = load i64, i64* %27, align 8
  store i64 %29, i64* %28, align 8
  %30 = getelementptr inbounds %"struct.signin::AccessTokenInfo", %"struct.signin::AccessTokenInfo"* %7, i64 0, i32 2
  %31 = getelementptr inbounds %"struct.signin::AccessTokenInfo", %"struct.signin::AccessTokenInfo"* %4, i64 0, i32 2
  %32 = bitcast %"class.std::__1::basic_string"* %30 to i8*
  %33 = bitcast %"class.std::__1::basic_string"* %31 to i8*
  call void @llvm.memcpy.p0i8.p0i8.i64(i8* align 8 %32, i8* align 8 %33, i64 24, i1 false) #11
  call void @llvm.memset.p0i8.i64(i8* align 8 %33, i8 0, i64 24, i1 false) #11
  call void %24(%"class.syncer::TrustedVaultAccessTokenFetcherFrontend"* %11, %class.GoogleServiceAuthError* nonnull %6, %"struct.signin::AccessTokenInfo"* nonnull %7) #11
  %34 = bitcast %"class.std::__1::basic_string"* %30 to %"struct.std::__1::basic_string<char, std::__1::char_traits<char>, std::__1::allocator<char> >::__short"*
  %35 = getelementptr inbounds %"struct.std::__1::basic_string<char, std::__1::char_traits<char>, std::__1::allocator<char> >::__short", %"struct.std::__1::basic_string<char, std::__1::char_traits<char>, std::__1::allocator<char> >::__short"* %34, i64 0, i32 1, i32 0
  %36 = load i8, i8* %35, align 1
  %37 = icmp slt i8 %36, 0
  br i1 %37, label %38, label %41

38:                                               ; preds = %23
  %39 = getelementptr inbounds %"class.std::__1::basic_string", %"class.std::__1::basic_string"* %30, i64 0, i32 0, i32 0, i32 0, i32 0, i32 0, i32 0
  %40 = load i8*, i8** %39, align 8
  call void @_ZdlPv(i8* %40) #12
  br label %41

41:                                               ; preds = %38, %23
  %42 = bitcast %"struct.signin::AccessTokenInfo"* %7 to %"struct.std::__1::basic_string<char, std::__1::char_traits<char>, std::__1::allocator<char> >::__short"*
  %43 = getelementptr inbounds %"struct.std::__1::basic_string<char, std::__1::char_traits<char>, std::__1::allocator<char> >::__short", %"struct.std::__1::basic_string<char, std::__1::char_traits<char>, std::__1::allocator<char> >::__short"* %42, i64 0, i32 1, i32 0
  %44 = load i8, i8* %43, align 1
  %45 = icmp slt i8 %44, 0
  br i1 %45, label %46, label %49

46:                                               ; preds = %41
  %47 = getelementptr inbounds %"struct.signin::AccessTokenInfo", %"struct.signin::AccessTokenInfo"* %7, i64 0, i32 0, i32 0, i32 0, i32 0, i32 0, i32 0, i32 0
  %48 = load i8*, i8** %47, align 8
  call void @_ZdlPv(i8* %48) #12
  br label %49

49:                                               ; preds = %41, %46
  %50 = getelementptr inbounds %class.GoogleServiceAuthError, %class.GoogleServiceAuthError* %6, i64 0, i32 2
  %51 = bitcast %"class.std::__1::basic_string"* %50 to %"struct.std::__1::basic_string<char, std::__1::char_traits<char>, std::__1::allocator<char> >::__short"*
  %52 = getelementptr inbounds %"struct.std::__1::basic_string<char, std::__1::char_traits<char>, std::__1::allocator<char> >::__short", %"struct.std::__1::basic_string<char, std::__1::char_traits<char>, std::__1::allocator<char> >::__short"* %51, i64 0, i32 1, i32 0
  %53 = load i8, i8* %52, align 1
  %54 = icmp slt i8 %53, 0
  br i1 %54, label %55, label %58

55:                                               ; preds = %49
  %56 = getelementptr inbounds %"class.std::__1::basic_string", %"class.std::__1::basic_string"* %50, i64 0, i32 0, i32 0, i32 0, i32 0, i32 0, i32 0
  %57 = load i8*, i8** %56, align 8
  call void @_ZdlPv(i8* %57) #12
  br label %58

58:                                               ; preds = %49, %55
  ret void
}

declare void @_ZN22GoogleServiceAuthErrorC1ERKS_(%class.GoogleServiceAuthError*, %class.GoogleServiceAuthError* dereferenceable(40)) unnamed_addr #1

; Function Attrs: nounwind ssp uwtable
define linkonce_odr hidden void @_ZN4base8internal9BindStateIMN6syncer38TrustedVaultAccessTokenFetcherFrontendEFv22GoogleServiceAuthErrorN6signin15AccessTokenInfoEEJNS0_17UnretainedWrapperIS3_EEEE7DestroyEPKNS0_13BindStateBaseE(%"class.base::internal::BindStateBase"*) #0 comdat align 2 {
  %2 = icmp eq %"class.base::internal::BindStateBase"* %0, null
  br i1 %2, label %5, label %3

3:                                                ; preds = %1
  %4 = bitcast %"class.base::internal::BindStateBase"* %0 to i8*
  tail call void @_ZdlPv(i8* %4) #12
  br label %5

5:                                                ; preds = %3, %1
  ret void
}

declare void @_ZN4base8internal13BindStateBaseC2EPFvvEPFvPKS1_E(%"class.base::internal::BindStateBase"*, void ()*, void (%"class.base::internal::BindStateBase"*)*) unnamed_addr #1

declare void @_ZN6signin32PrimaryAccountAccessTokenFetcherC1ERKNSt3__112basic_stringIcNS1_11char_traitsIcEENS1_9allocatorIcEEEEPNS_15IdentityManagerERKNS1_3setIS7_NS1_4lessIS7_EENS5_IS7_EEEEN4base12OnceCallbackIFv22GoogleServiceAuthErrorNS_15AccessTokenInfoEEEENS0_4ModeENS_12ConsentLevelE(%"class.signin::PrimaryAccountAccessTokenFetcher"*, %"class.std::__1::basic_string"* dereferenceable(24), %"class.signin::IdentityManager"*, %"class.std::__1::set"* dereferenceable(24), %"class.base::OnceCallback"*, i32, i32) unnamed_addr #1

attributes #0 = { nounwind ssp uwtable "correctly-rounded-divide-sqrt-fp-math"="false" "disable-tail-calls"="false" "less-precise-fpmad"="false" "min-legal-vector-width"="0" "no-frame-pointer-elim"="false" "no-frame-pointer-elim-non-leaf" "no-infs-fp-math"="false" "no-jump-tables"="false" "no-nans-fp-math"="false" "no-signed-zeros-fp-math"="false" "no-trapping-math"="false" "null-pointer-is-valid"="true" "stack-protector-buffer-size"="4" "target-cpu"="x86-64" "target-features"="+cx8,+fxsr,+mmx,+sse,+sse2,+sse3,+x87" "unsafe-fp-math"="false" "use-soft-float"="false" }
attributes #1 = { "correctly-rounded-divide-sqrt-fp-math"="false" "disable-tail-calls"="false" "less-precise-fpmad"="false" "no-frame-pointer-elim"="false" "no-frame-pointer-elim-non-leaf" "no-infs-fp-math"="false" "no-nans-fp-math"="false" "no-signed-zeros-fp-math"="false" "no-trapping-math"="false" "null-pointer-is-valid"="true" "stack-protector-buffer-size"="4" "target-cpu"="x86-64" "target-features"="+cx8,+fxsr,+mmx,+sse,+sse2,+sse3,+x87" "unsafe-fp-math"="false" "use-soft-float"="false" }
attributes #2 = { nounwind "correctly-rounded-divide-sqrt-fp-math"="false" "disable-tail-calls"="false" "less-precise-fpmad"="false" "no-frame-pointer-elim"="false" "no-frame-pointer-elim-non-leaf" "no-infs-fp-math"="false" "no-nans-fp-math"="false" "no-signed-zeros-fp-math"="false" "no-trapping-math"="false" "null-pointer-is-valid"="true" "stack-protector-buffer-size"="4" "target-cpu"="x86-64" "target-features"="+cx8,+fxsr,+mmx,+sse,+sse2,+sse3,+x87" "unsafe-fp-math"="false" "use-soft-float"="false" }
attributes #3 = { nobuiltin nounwind "correctly-rounded-divide-sqrt-fp-math"="false" "disable-tail-calls"="false" "less-precise-fpmad"="false" "no-frame-pointer-elim"="false" "no-frame-pointer-elim-non-leaf" "no-infs-fp-math"="false" "no-nans-fp-math"="false" "no-signed-zeros-fp-math"="false" "no-trapping-math"="false" "null-pointer-is-valid"="true" "stack-protector-buffer-size"="4" "target-cpu"="x86-64" "target-features"="+cx8,+fxsr,+mmx,+sse,+sse2,+sse3,+x87" "unsafe-fp-math"="false" "use-soft-float"="false" }
attributes #4 = { argmemonly nounwind }
attributes #5 = { inlinehint nounwind ssp uwtable "correctly-rounded-divide-sqrt-fp-math"="false" "disable-tail-calls"="false" "less-precise-fpmad"="false" "min-legal-vector-width"="0" "no-frame-pointer-elim"="false" "no-frame-pointer-elim-non-leaf" "no-infs-fp-math"="false" "no-jump-tables"="false" "no-nans-fp-math"="false" "no-signed-zeros-fp-math"="false" "no-trapping-math"="false" "null-pointer-is-valid"="true" "stack-protector-buffer-size"="4" "target-cpu"="x86-64" "target-features"="+cx8,+fxsr,+mmx,+sse,+sse2,+sse3,+x87" "unsafe-fp-math"="false" "use-soft-float"="false" }
attributes #6 = { noreturn "correctly-rounded-divide-sqrt-fp-math"="false" "disable-tail-calls"="false" "less-precise-fpmad"="false" "no-frame-pointer-elim"="false" "no-frame-pointer-elim-non-leaf" "no-infs-fp-math"="false" "no-nans-fp-math"="false" "no-signed-zeros-fp-math"="false" "no-trapping-math"="false" "null-pointer-is-valid"="true" "stack-protector-buffer-size"="4" "target-cpu"="x86-64" "target-features"="+cx8,+fxsr,+mmx,+sse,+sse2,+sse3,+x87" "unsafe-fp-math"="false" "use-soft-float"="false" }
attributes #7 = { noreturn nounwind "correctly-rounded-divide-sqrt-fp-math"="false" "disable-tail-calls"="false" "less-precise-fpmad"="false" "no-frame-pointer-elim"="false" "no-frame-pointer-elim-non-leaf" "no-infs-fp-math"="false" "no-nans-fp-math"="false" "no-signed-zeros-fp-math"="false" "no-trapping-math"="false" "null-pointer-is-valid"="true" "stack-protector-buffer-size"="4" "target-cpu"="x86-64" "target-features"="+cx8,+fxsr,+mmx,+sse,+sse2,+sse3,+x87" "unsafe-fp-math"="false" "use-soft-float"="false" }
attributes #8 = { nobuiltin nofree "correctly-rounded-divide-sqrt-fp-math"="false" "disable-tail-calls"="false" "less-precise-fpmad"="false" "no-frame-pointer-elim"="false" "no-frame-pointer-elim-non-leaf" "no-infs-fp-math"="false" "no-nans-fp-math"="false" "no-signed-zeros-fp-math"="false" "no-trapping-math"="false" "null-pointer-is-valid"="true" "stack-protector-buffer-size"="4" "target-cpu"="x86-64" "target-features"="+cx8,+fxsr,+mmx,+sse,+sse2,+sse3,+x87" "unsafe-fp-math"="false" "use-soft-float"="false" }
attributes #9 = { argmemonly nofree nounwind readonly "correctly-rounded-divide-sqrt-fp-math"="false" "disable-tail-calls"="false" "less-precise-fpmad"="false" "no-frame-pointer-elim"="false" "no-frame-pointer-elim-non-leaf" "no-infs-fp-math"="false" "no-nans-fp-math"="false" "no-signed-zeros-fp-math"="false" "no-trapping-math"="false" "null-pointer-is-valid"="true" "stack-protector-buffer-size"="4" "target-cpu"="x86-64" "target-features"="+cx8,+fxsr,+mmx,+sse,+sse2,+sse3,+x87" "unsafe-fp-math"="false" "use-soft-float"="false" }
attributes #10 = { nofree nounwind readonly "correctly-rounded-divide-sqrt-fp-math"="false" "disable-tail-calls"="false" "less-precise-fpmad"="false" "no-frame-pointer-elim"="false" "no-frame-pointer-elim-non-leaf" "no-infs-fp-math"="false" "no-nans-fp-math"="false" "no-signed-zeros-fp-math"="false" "no-trapping-math"="false" "null-pointer-is-valid"="true" "stack-protector-buffer-size"="4" "target-cpu"="x86-64" "target-features"="+cx8,+fxsr,+mmx,+sse,+sse2,+sse3,+x87" "unsafe-fp-math"="false" "use-soft-float"="false" }
attributes #11 = { nounwind }
attributes #12 = { builtin nounwind }
attributes #13 = { noreturn nounwind }

!llvm.module.flags = !{!0, !1}

!0 = !{i32 1, !"wchar_size", i32 4}
!1 = !{i32 7, !"PIC Level", i32 2}
!2 = !{!3}
!3 = distinct !{!3, !4, !"_ZNK4base14WeakPtrFactoryIN6syncer38TrustedVaultAccessTokenFetcherFrontendEE10GetWeakPtrEv: argument 0"}
!4 = distinct !{!4, !"_ZNK4base14WeakPtrFactoryIN6syncer38TrustedVaultAccessTokenFetcherFrontendEE10GetWeakPtrEv"}
!5 = !{i8 0, i8 2}
!6 = !{!7, !9}
!7 = distinct !{!7, !8, !"_ZN4base8internal8BindImplINS_12OnceCallbackEMN6syncer38TrustedVaultAccessTokenFetcherFrontendEFv22GoogleServiceAuthErrorN6signin15AccessTokenInfoEEJNS0_17UnretainedWrapperIS4_EEEEEDcOT0_DpOT1_: argument 0"}
!8 = distinct !{!8, !"_ZN4base8internal8BindImplINS_12OnceCallbackEMN6syncer38TrustedVaultAccessTokenFetcherFrontendEFv22GoogleServiceAuthErrorN6signin15AccessTokenInfoEEJNS0_17UnretainedWrapperIS4_EEEEEDcOT0_DpOT1_"}
!9 = distinct !{!9, !10, !"_ZN4base8BindOnceIMN6syncer38TrustedVaultAccessTokenFetcherFrontendEFv22GoogleServiceAuthErrorN6signin15AccessTokenInfoEEJNS_8internal17UnretainedWrapperIS2_EEEEENS_12OnceCallbackINS8_14BindTypeHelperIT_JDpT0_EE14UnboundRunTypeEEEOSD_DpOSE_: argument 0"}
!10 = distinct !{!10, !"_ZN4base8BindOnceIMN6syncer38TrustedVaultAccessTokenFetcherFrontendEFv22GoogleServiceAuthErrorN6signin15AccessTokenInfoEEJNS_8internal17UnretainedWrapperIS2_EEEEENS_12OnceCallbackINS8_14BindTypeHelperIT_JDpT0_EE14UnboundRunTypeEEEOSD_DpOSE_"}
!11 = distinct !{!11, !12}
!12 = !{!"llvm.loop.unroll.disable"}
!13 = !{!14}
!14 = distinct !{!14, !15, !"_ZNSt3__16__treeINS_12basic_stringIcNS_11char_traitsIcEENS_9allocatorIcEEEENS_4lessIS6_EENS4_IS6_EEE16__construct_nodeIJRKS6_EEENS_10unique_ptrINS_11__tree_nodeIS6_PvEENS_22__tree_node_destructorINS4_ISH_EEEEEEDpOT_: argument 0"}
!15 = distinct !{!15, !"_ZNSt3__16__treeINS_12basic_stringIcNS_11char_traitsIcEENS_9allocatorIcEEEENS_4lessIS6_EENS4_IS6_EEE16__construct_nodeIJRKS6_EEENS_10unique_ptrINS_11__tree_nodeIS6_PvEENS_22__tree_node_destructorINS4_ISH_EEEEEEDpOT_"}
