; ModuleID = '../../components/sync/trusted_vault/trusted_vault_request.cc'
source_filename = "../../components/sync/trusted_vault/trusted_vault_request.cc"
target datalayout = "e-m:e-i64:64-f80:128-n8:16:32:64-S128"
target triple = "x86_64-unknown-linux-gnu"

module asm ".symver exp, exp@GLIBC_2.2.5"
module asm ".symver exp2, exp2@GLIBC_2.2.5"
module asm ".symver exp2f, exp2f@GLIBC_2.2.5"
module asm ".symver expf, expf@GLIBC_2.2.5"
module asm ".symver lgamma, lgamma@GLIBC_2.2.5"
module asm ".symver lgammaf, lgammaf@GLIBC_2.2.5"
module asm ".symver lgammal, lgammal@GLIBC_2.2.5"
module asm ".symver log, log@GLIBC_2.2.5"
module asm ".symver log2, log2@GLIBC_2.2.5"
module asm ".symver log2f, log2f@GLIBC_2.2.5"
module asm ".symver logf, logf@GLIBC_2.2.5"
module asm ".symver pow, pow@GLIBC_2.2.5"
module asm ".symver powf, powf@GLIBC_2.2.5"

%"class.base::BasicStringPiece" = type { i8*, i64 }
%"class.syncer::TrustedVaultRequest" = type { %"class.syncer::TrustedVaultConnection::Request", i32, %class.GURL, %"class.absl::optional", %"class.base::OnceCallback", %"class.std::__1::unique_ptr.6", %"class.base::WeakPtrFactory" }
%"class.syncer::TrustedVaultConnection::Request" = type { i32 (...)** }
%class.GURL = type { %"class.std::__1::basic_string", i8, %"struct.url::Parsed", %"class.std::__1::unique_ptr" }
%"class.std::__1::basic_string" = type { %"class.std::__1::__compressed_pair" }
%"class.std::__1::__compressed_pair" = type { %"struct.std::__1::__compressed_pair_elem" }
%"struct.std::__1::__compressed_pair_elem" = type { %"struct.std::__1::basic_string<char, std::__1::char_traits<char>, std::__1::allocator<char> >::__rep" }
%"struct.std::__1::basic_string<char, std::__1::char_traits<char>, std::__1::allocator<char> >::__rep" = type { %union.anon }
%union.anon = type { %"struct.std::__1::basic_string<char, std::__1::char_traits<char>, std::__1::allocator<char> >::__long" }
%"struct.std::__1::basic_string<char, std::__1::char_traits<char>, std::__1::allocator<char> >::__long" = type { i8*, i64, i64 }
%"struct.url::Parsed" = type { %"struct.url::Component", %"struct.url::Component", %"struct.url::Component", %"struct.url::Component", %"struct.url::Component", %"struct.url::Component", %"struct.url::Component", %"struct.url::Component", i8, %"struct.url::Parsed"* }
%"struct.url::Component" = type { i32, i32 }
%"class.std::__1::unique_ptr" = type { %"class.std::__1::__compressed_pair.1" }
%"class.std::__1::__compressed_pair.1" = type { %"struct.std::__1::__compressed_pair_elem.2" }
%"struct.std::__1::__compressed_pair_elem.2" = type { %class.GURL* }
%"class.absl::optional" = type { %"class.absl::optional_internal::optional_data" }
%"class.absl::optional_internal::optional_data" = type { %"class.absl::optional_internal::optional_data_base" }
%"class.absl::optional_internal::optional_data_base" = type { %"class.absl::optional_internal::optional_data_dtor_base" }
%"class.absl::optional_internal::optional_data_dtor_base" = type { i8, %union.anon.4 }
%union.anon.4 = type { %"class.std::__1::basic_string" }
%"class.base::OnceCallback" = type { %"class.base::internal::CallbackBase" }
%"class.base::internal::CallbackBase" = type { %class.scoped_refptr }
%class.scoped_refptr = type { %"class.base::internal::BindStateBase"* }
%"class.base::internal::BindStateBase" = type { %"class.base::RefCountedThreadSafe", void ()*, void (%"class.base::internal::BindStateBase"*)*, i1 (%"class.base::internal::BindStateBase"*, i32)* }
%"class.base::RefCountedThreadSafe" = type { %"class.base::subtle::RefCountedThreadSafeBase" }
%"class.base::subtle::RefCountedThreadSafeBase" = type { %"class.base::AtomicRefCount" }
%"class.base::AtomicRefCount" = type { %"struct.std::__1::atomic" }
%"struct.std::__1::atomic" = type { %"struct.std::__1::__atomic_base" }
%"struct.std::__1::__atomic_base" = type { %"struct.std::__1::__atomic_base.5" }
%"struct.std::__1::__atomic_base.5" = type { %"struct.std::__1::__cxx_atomic_impl" }
%"struct.std::__1::__cxx_atomic_impl" = type { %"struct.std::__1::__cxx_atomic_base_impl" }
%"struct.std::__1::__cxx_atomic_base_impl" = type { i32 }
%"class.std::__1::unique_ptr.6" = type { %"class.std::__1::__compressed_pair.7" }
%"class.std::__1::__compressed_pair.7" = type { %"struct.std::__1::__compressed_pair_elem.8" }
%"struct.std::__1::__compressed_pair_elem.8" = type { %"class.network::SimpleURLLoader"* }
%"class.network::SimpleURLLoader" = type { i32 (...)** }
%"class.base::WeakPtrFactory" = type { %"class.base::internal::WeakPtrFactoryBase" }
%"class.base::internal::WeakPtrFactoryBase" = type { %"class.base::internal::WeakReferenceOwner", i64 }
%"class.base::internal::WeakReferenceOwner" = type { %class.scoped_refptr.12 }
%class.scoped_refptr.12 = type { %"class.base::internal::WeakReference::Flag"* }
%"class.base::internal::WeakReference::Flag" = type <{ %"class.base::RefCountedThreadSafe.13", %"class.base::AtomicFlag", [3 x i8] }>
%"class.base::RefCountedThreadSafe.13" = type { %"class.base::subtle::RefCountedThreadSafeBase" }
%"class.base::AtomicFlag" = type { %"struct.std::__1::atomic.14" }
%"struct.std::__1::atomic.14" = type { %"struct.std::__1::__atomic_base.15" }
%"struct.std::__1::__atomic_base.15" = type { %"struct.std::__1::__atomic_base.16" }
%"struct.std::__1::__atomic_base.16" = type { %"struct.std::__1::__cxx_atomic_impl.17" }
%"struct.std::__1::__cxx_atomic_impl.17" = type { %"struct.std::__1::__cxx_atomic_base_impl.18" }
%"struct.std::__1::__cxx_atomic_base_impl.18" = type { i8 }
%"struct.std::__1::basic_string<char, std::__1::char_traits<char>, std::__1::allocator<char> >::__short" = type { [23 x i8], %struct.anon }
%struct.anon = type { i8 }
%struct.CoreAccountId = type opaque
%"class.network::SharedURLLoaderFactory" = type <{ %"class.network::mojom::URLLoaderFactory", %"class.base::RefCounted", [4 x i8] }>
%"class.network::mojom::URLLoaderFactory" = type { i32 (...)** }
%"class.base::RefCounted" = type { %"class.base::subtle::RefCountedBase" }
%"class.base::subtle::RefCountedBase" = type { i32 }
%"class.syncer::TrustedVaultAccessTokenFetcher" = type { i32 (...)** }
%"class.base::internal::WeakReference" = type { %class.scoped_refptr.21 }
%class.scoped_refptr.21 = type { %"class.base::internal::WeakReference::Flag"* }
%"class.base::OnceCallback.20" = type { %"class.base::internal::CallbackBase" }
%"class.base::WeakPtr" = type { %"class.base::internal::WeakPtrBase" }
%"class.base::internal::WeakPtrBase" = type { %"class.base::internal::WeakReference", i64 }
%"class.absl::optional.22" = type { %"class.absl::optional_internal::optional_data.23" }
%"class.absl::optional_internal::optional_data.23" = type { %"class.absl::optional_internal::optional_data_base.24" }
%"class.absl::optional_internal::optional_data_base.24" = type { %"class.absl::optional_internal::optional_data_dtor_base.25" }
%"class.absl::optional_internal::optional_data_dtor_base.25" = type { i8, %union.anon.26 }
%union.anon.26 = type { %"struct.signin::AccessTokenInfo" }
%"struct.signin::AccessTokenInfo" = type { %"class.std::__1::basic_string", %"class.base::Time", %"class.std::__1::basic_string" }
%"class.base::Time" = type { %"class.base::time_internal::TimeBase" }
%"class.base::time_internal::TimeBase" = type { i64 }
%"class.base::OnceCallback.27" = type { %"class.base::internal::CallbackBase" }
%"struct.net::NetworkTrafficAnnotationTag" = type { i32 }
%"struct.network::ResourceRequest" = type { %"class.std::__1::basic_string", %class.GURL, %"class.net::SiteForCookies", i8, %"class.absl::optional.225", %"class.absl::optional.225", %class.GURL, i32, %"class.net::HttpRequestHeaders", %"class.net::HttpRequestHeaders", i32, i32, i32, i8, i8, i32, i8, i8, i8, i32, i32, i32, %"class.std::__1::basic_string", i32, %class.scoped_refptr.237, i8, i8, i8, i8, i8, i8, i32, i8, i32, i8, i8, %"class.absl::optional.217", %"class.net::HttpRequestHeaders", %"class.net::HttpRequestHeaders", %"class.absl::optional.217", %"class.absl::optional", %"class.absl::optional", i8, i8, i8, i8, %"class.absl::optional.217", %"class.absl::optional.259", %"class.network::OptionalTrustTokenParams", %"class.absl::optional.307", %"class.absl::optional.313" }
%"class.net::SiteForCookies" = type <{ %"class.net::SchemefulSite", i8, [7 x i8] }>
%"class.net::SchemefulSite" = type { %"class.url::Origin" }
%"class.url::Origin" = type { %"class.url::SchemeHostPort", %"class.absl::optional.107" }
%"class.url::SchemeHostPort" = type <{ %"class.std::__1::basic_string", %"class.std::__1::basic_string", i16, [6 x i8] }>
%"class.absl::optional.107" = type { %"class.absl::optional_internal::optional_data.108" }
%"class.absl::optional_internal::optional_data.108" = type { %"class.absl::optional_internal::optional_data_base.109" }
%"class.absl::optional_internal::optional_data_base.109" = type { %"class.absl::optional_internal::optional_data_dtor_base.110" }
%"class.absl::optional_internal::optional_data_dtor_base.110" = type { i8, %union.anon.111 }
%union.anon.111 = type { %"class.url::Origin::Nonce" }
%"class.url::Origin::Nonce" = type { %"class.base::UnguessableToken" }
%"class.base::UnguessableToken" = type { %"class.base::Token" }
%"class.base::Token" = type { i64, i64 }
%"class.absl::optional.225" = type { %"class.absl::optional_internal::optional_data.226" }
%"class.absl::optional_internal::optional_data.226" = type { %"class.absl::optional_internal::optional_data_base.227" }
%"class.absl::optional_internal::optional_data_base.227" = type { %"class.absl::optional_internal::optional_data_dtor_base.228" }
%"class.absl::optional_internal::optional_data_dtor_base.228" = type { i8, %union.anon.229 }
%union.anon.229 = type { %"class.url::Origin" }
%class.scoped_refptr.237 = type { %"class.network::ResourceRequestBody"* }
%"class.network::ResourceRequestBody" = type <{ %"class.base::RefCountedThreadSafe.238", [4 x i8], %"class.std::__1::vector.239", i64, i8, i8, [6 x i8] }>
%"class.base::RefCountedThreadSafe.238" = type { %"class.base::subtle::RefCountedThreadSafeBase" }
%"class.std::__1::vector.239" = type { %"class.std::__1::__vector_base.240" }
%"class.std::__1::__vector_base.240" = type { %"class.network::DataElement"*, %"class.network::DataElement"*, %"class.std::__1::__compressed_pair.254" }
%"class.network::DataElement" = type { %"class.absl::variant" }
%"class.absl::variant" = type { %"class.absl::variant_internal::VariantMoveAssignBaseNontrivial" }
%"class.absl::variant_internal::VariantMoveAssignBaseNontrivial" = type { %"class.absl::variant_internal::VariantMoveBaseNontrivial" }
%"class.absl::variant_internal::VariantMoveBaseNontrivial" = type { %"class.absl::variant_internal::VariantStateBaseDestructorNontrivial" }
%"class.absl::variant_internal::VariantStateBaseDestructorNontrivial" = type { %"class.absl::variant_internal::VariantStateBase" }
%"class.absl::variant_internal::VariantStateBase" = type { %"union.absl::variant_internal::DestructibleUnionImpl", i64 }
%"union.absl::variant_internal::DestructibleUnionImpl" = type { %"union.absl::variant_internal::DestructibleUnionImpl.241" }
%"union.absl::variant_internal::DestructibleUnionImpl.241" = type { %"union.absl::variant_internal::DestructibleUnionImpl.249" }
%"union.absl::variant_internal::DestructibleUnionImpl.249" = type { %"union.absl::variant_internal::DestructibleUnionImpl.250" }
%"union.absl::variant_internal::DestructibleUnionImpl.250" = type { %"union.absl::variant_internal::DestructibleUnionImpl.252" }
%"union.absl::variant_internal::DestructibleUnionImpl.252" = type { %"class.network::DataElementFile" }
%"class.network::DataElementFile" = type { %"class.base::FilePath", i64, i64, %"class.base::Time" }
%"class.base::FilePath" = type { %"class.std::__1::basic_string" }
%"class.std::__1::__compressed_pair.254" = type { %"struct.std::__1::__compressed_pair_elem.255" }
%"struct.std::__1::__compressed_pair_elem.255" = type { %"class.network::DataElement"* }
%"class.net::HttpRequestHeaders" = type { %"class.std::__1::vector.230" }
%"class.std::__1::vector.230" = type { %"class.std::__1::__vector_base.231" }
%"class.std::__1::__vector_base.231" = type { %"struct.net::HttpRequestHeaders::HeaderKeyValuePair"*, %"struct.net::HttpRequestHeaders::HeaderKeyValuePair"*, %"class.std::__1::__compressed_pair.232" }
%"struct.net::HttpRequestHeaders::HeaderKeyValuePair" = type { %"class.std::__1::basic_string", %"class.std::__1::basic_string" }
%"class.std::__1::__compressed_pair.232" = type { %"struct.std::__1::__compressed_pair_elem.233" }
%"struct.std::__1::__compressed_pair_elem.233" = type { %"struct.net::HttpRequestHeaders::HeaderKeyValuePair"* }
%"class.absl::optional.217" = type { %"class.absl::optional_internal::optional_data.218" }
%"class.absl::optional_internal::optional_data.218" = type { %"class.absl::optional_internal::optional_data_base.219" }
%"class.absl::optional_internal::optional_data_base.219" = type { %"class.absl::optional_internal::optional_data_dtor_base.220" }
%"class.absl::optional_internal::optional_data_dtor_base.220" = type { i8, %union.anon.221 }
%union.anon.221 = type { %"class.base::UnguessableToken" }
%"class.absl::optional.259" = type { %"class.absl::optional_internal::optional_data.260" }
%"class.absl::optional_internal::optional_data.260" = type { %"class.absl::optional_internal::optional_data_base.261" }
%"class.absl::optional_internal::optional_data_base.261" = type { %"class.absl::optional_internal::optional_data_dtor_base.262" }
%"class.absl::optional_internal::optional_data_dtor_base.262" = type { i8, %union.anon.263 }
%union.anon.263 = type { %"struct.network::ResourceRequest::TrustedParams" }
%"struct.network::ResourceRequest::TrustedParams" = type { %"class.net::IsolationInfo", i8, i8, %"class.mojo::PendingRemote.282", %"class.mojo::PendingRemote.283", %"class.mojo::PendingRemote.284", %"class.mojo::StructPtr.285", %"class.mojo::PendingRemote.292" }
%"class.net::IsolationInfo" = type { i32, %"class.absl::optional.225", %"class.absl::optional.225", %"class.net::NetworkIsolationKey", %"class.net::SiteForCookies", i8, %"class.absl::optional.269" }
%"class.net::NetworkIsolationKey" = type { i8, %"class.absl::optional.264", %"class.absl::optional.264" }
%"class.absl::optional.264" = type { %"class.absl::optional_internal::optional_data.265" }
%"class.absl::optional_internal::optional_data.265" = type { %"class.absl::optional_internal::optional_data_base.266" }
%"class.absl::optional_internal::optional_data_base.266" = type { %"class.absl::optional_internal::optional_data_dtor_base.267" }
%"class.absl::optional_internal::optional_data_dtor_base.267" = type { i8, %union.anon.268 }
%union.anon.268 = type { %"class.net::SchemefulSite" }
%"class.absl::optional.269" = type { %"class.absl::optional_internal::optional_data.270" }
%"class.absl::optional_internal::optional_data.270" = type { %"class.absl::optional_internal::optional_data_base.271" }
%"class.absl::optional_internal::optional_data_base.271" = type { %"class.absl::optional_internal::optional_data_dtor_base.272" }
%"class.absl::optional_internal::optional_data_dtor_base.272" = type { i8, %union.anon.273 }
%union.anon.273 = type { %"class.std::__1::set" }
%"class.std::__1::set" = type { %"class.std::__1::__tree" }
%"class.std::__1::__tree" = type { %"class.std::__1::__tree_end_node"*, %"class.std::__1::__compressed_pair.274", %"class.std::__1::__compressed_pair.279" }
%"class.std::__1::__tree_end_node" = type { %"class.std::__1::__tree_node_base"* }
%"class.std::__1::__tree_node_base" = type <{ %"class.std::__1::__tree_end_node", %"class.std::__1::__tree_node_base"*, %"class.std::__1::__tree_end_node"*, i8, [7 x i8] }>
%"class.std::__1::__compressed_pair.274" = type { %"struct.std::__1::__compressed_pair_elem.275" }
%"struct.std::__1::__compressed_pair_elem.275" = type { %"class.std::__1::__tree_end_node" }
%"class.std::__1::__compressed_pair.279" = type { %"struct.std::__1::__compressed_pair_elem.280" }
%"struct.std::__1::__compressed_pair_elem.280" = type { i64 }
%"class.mojo::PendingRemote.282" = type { %"struct.mojo::internal::PendingRemoteState" }
%"struct.mojo::internal::PendingRemoteState" = type { %"class.mojo::ScopedHandleBase", i32 }
%"class.mojo::ScopedHandleBase" = type { %"class.mojo::MessagePipeHandle" }
%"class.mojo::MessagePipeHandle" = type { %"class.mojo::Handle" }
%"class.mojo::Handle" = type { i32 }
%"class.mojo::PendingRemote.283" = type { %"struct.mojo::internal::PendingRemoteState" }
%"class.mojo::PendingRemote.284" = type { %"struct.mojo::internal::PendingRemoteState" }
%"class.mojo::StructPtr.285" = type { %"class.std::__1::unique_ptr.286" }
%"class.std::__1::unique_ptr.286" = type { %"class.std::__1::__compressed_pair.287" }
%"class.std::__1::__compressed_pair.287" = type { %"struct.std::__1::__compressed_pair_elem.288" }
%"struct.std::__1::__compressed_pair_elem.288" = type { %"class.network::mojom::ClientSecurityState"* }
%"class.network::mojom::ClientSecurityState" = type <{ %"struct.network::CrossOriginEmbedderPolicy", i8, [3 x i8], i32, i32, [4 x i8] }>
%"struct.network::CrossOriginEmbedderPolicy" = type { i32, %"class.absl::optional", i32, %"class.absl::optional" }
%"class.mojo::PendingRemote.292" = type { %"struct.mojo::internal::PendingRemoteState" }
%"class.network::OptionalTrustTokenParams" = type { %"class.mojo::StructPtr.293" }
%"class.mojo::StructPtr.293" = type { %"class.std::__1::unique_ptr.294" }
%"class.std::__1::unique_ptr.294" = type { %"class.std::__1::__compressed_pair.295" }
%"class.std::__1::__compressed_pair.295" = type { %"struct.std::__1::__compressed_pair_elem.296" }
%"struct.std::__1::__compressed_pair_elem.296" = type { %"class.network::mojom::TrustTokenParams"* }
%"class.network::mojom::TrustTokenParams" = type { i32, i32, i32, i8, %"class.std::__1::vector.297", %"class.std::__1::vector.68", %"class.absl::optional" }
%"class.std::__1::vector.297" = type { %"class.std::__1::__vector_base.298" }
%"class.std::__1::__vector_base.298" = type { %"class.url::Origin"*, %"class.url::Origin"*, %"class.std::__1::__compressed_pair.299" }
%"class.std::__1::__compressed_pair.299" = type { %"struct.std::__1::__compressed_pair_elem.300" }
%"struct.std::__1::__compressed_pair_elem.300" = type { %"class.url::Origin"* }
%"class.std::__1::vector.68" = type { %"class.std::__1::__vector_base.69" }
%"class.std::__1::__vector_base.69" = type { %"class.std::__1::basic_string"*, %"class.std::__1::basic_string"*, %"class.std::__1::__compressed_pair.70" }
%"class.std::__1::__compressed_pair.70" = type { %"struct.std::__1::__compressed_pair_elem.30" }
%"struct.std::__1::__compressed_pair_elem.30" = type { %"class.std::__1::basic_string"* }
%"class.absl::optional.307" = type { %"class.absl::optional_internal::optional_data.308" }
%"class.absl::optional_internal::optional_data.308" = type { %"class.absl::optional_internal::optional_data_base.309" }
%"class.absl::optional_internal::optional_data_base.309" = type { %"class.absl::optional_internal::optional_data_dtor_base.310" }
%"class.absl::optional_internal::optional_data_dtor_base.310" = type { i8, [7 x i8], %union.anon.311 }
%union.anon.311 = type { %"struct.network::ResourceRequest::WebBundleTokenParams" }
%"struct.network::ResourceRequest::WebBundleTokenParams" = type <{ %class.GURL, %"class.base::UnguessableToken", %"class.mojo::PendingRemote.312", i32, [4 x i8] }>
%"class.mojo::PendingRemote.312" = type { %"struct.mojo::internal::PendingRemoteState" }
%"class.absl::optional.313" = type { %"class.absl::optional_internal::optional_data.314" }
%"class.absl::optional_internal::optional_data.314" = type { %"class.absl::optional_internal::optional_data_base.315" }
%"class.absl::optional_internal::optional_data_base.315" = type { %"class.absl::optional_internal::optional_data_dtor_base.316" }
%"class.absl::optional_internal::optional_data_dtor_base.316" = type { i8, %union.anon.317 }
%union.anon.317 = type { %"class.std::__1::vector.318" }
%"class.std::__1::vector.318" = type { %"class.std::__1::__vector_base.319" }
%"class.std::__1::__vector_base.319" = type { i32*, i32*, %"class.std::__1::__compressed_pair.320" }
%"class.std::__1::__compressed_pair.320" = type { %"struct.std::__1::__compressed_pair_elem.321" }
%"struct.std::__1::__compressed_pair_elem.321" = type { i32* }
%"class.network::mojom::URLResponseHead" = type <{ %"class.base::Time", %"class.base::Time", %class.scoped_refptr.34, %"class.std::__1::basic_string", %"class.std::__1::basic_string", i32, [4 x i8], i64, i64, i64, i8, [7 x i8], i64, %class.GURL, %"struct.net::LoadTimingInfo", %"class.mojo::StructPtr", i8, i8, i8, i8, i32, %"class.std::__1::basic_string", %"class.net::IPEndPoint", i8, i8, [2 x i8], %"class.net::ProxyServer", i8, [3 x i8], i32, %"class.std::__1::vector.55", i32, [4 x i8], i64, %"class.std::__1::basic_string", i32, [4 x i8], %"class.absl::optional.61", %"class.std::__1::vector.68", i8, i8, i8, i8, i8, i8, i8, i8, i8, i8, i8, [5 x i8], %"class.absl::optional.102", %"class.base::TimeTicks", %"class.base::TimeTicks", %"class.mojo::StructPtr.112", %"class.absl::optional.206", %"class.absl::optional.217", %"class.std::__1::vector.68", %class.GURL, i8, [7 x i8] }>
%class.scoped_refptr.34 = type { %"class.net::HttpResponseHeaders"* }
%"class.net::HttpResponseHeaders" = type { %"class.base::RefCountedThreadSafe.35", %"class.std::__1::vector", %"class.std::__1::basic_string", i32, %"class.net::HttpVersion" }
%"class.base::RefCountedThreadSafe.35" = type { %"class.base::subtle::RefCountedThreadSafeBase" }
%"class.std::__1::vector" = type { %"class.std::__1::__vector_base" }
%"class.std::__1::__vector_base" = type { %"struct.net::HttpResponseHeaders::ParsedHeader"*, %"struct.net::HttpResponseHeaders::ParsedHeader"*, %"class.std::__1::__compressed_pair.36" }
%"struct.net::HttpResponseHeaders::ParsedHeader" = type opaque
%"class.std::__1::__compressed_pair.36" = type { %"struct.std::__1::__compressed_pair_elem.37" }
%"struct.std::__1::__compressed_pair_elem.37" = type { %"struct.net::HttpResponseHeaders::ParsedHeader"* }
%"class.net::HttpVersion" = type { i32 }
%"struct.net::LoadTimingInfo" = type { i8, i32, %"class.base::Time", %"class.base::TimeTicks", %"class.base::TimeTicks", %"class.base::TimeTicks", %"class.base::TimeTicks", %"class.base::TimeTicks", %"class.base::TimeTicks", %"class.base::TimeTicks", %"struct.net::LoadTimingInfo::ConnectTiming", %"class.base::TimeTicks", %"class.base::TimeTicks", %"class.base::TimeTicks", %"class.base::TimeTicks", %"class.base::TimeTicks", %"class.base::TimeTicks", %"class.base::TimeTicks", %"class.base::TimeTicks" }
%"struct.net::LoadTimingInfo::ConnectTiming" = type { %"class.base::TimeTicks", %"class.base::TimeTicks", %"class.base::TimeTicks", %"class.base::TimeTicks", %"class.base::TimeTicks", %"class.base::TimeTicks" }
%"class.mojo::StructPtr" = type { %"class.std::__1::unique_ptr.42" }
%"class.std::__1::unique_ptr.42" = type { %"class.std::__1::__compressed_pair.43" }
%"class.std::__1::__compressed_pair.43" = type { %"struct.std::__1::__compressed_pair_elem.44" }
%"struct.std::__1::__compressed_pair_elem.44" = type { %"class.network::mojom::HttpRawRequestResponseInfo"* }
%"class.network::mojom::HttpRawRequestResponseInfo" = type { i32, %"class.std::__1::basic_string", %"class.std::__1::vector.45", %"class.std::__1::vector.45", %"class.std::__1::basic_string", %"class.std::__1::basic_string" }
%"class.std::__1::vector.45" = type { %"class.std::__1::__vector_base.46" }
%"class.std::__1::__vector_base.46" = type { %"class.mojo::InlinedStructPtr"*, %"class.mojo::InlinedStructPtr"*, %"class.std::__1::__compressed_pair.47" }
%"class.mojo::InlinedStructPtr" = type <{ %"class.network::mojom::HttpRawHeaderPair", i32, [4 x i8] }>
%"class.network::mojom::HttpRawHeaderPair" = type { %"class.std::__1::basic_string", %"class.std::__1::basic_string" }
%"class.std::__1::__compressed_pair.47" = type { %"struct.std::__1::__compressed_pair_elem.48" }
%"struct.std::__1::__compressed_pair_elem.48" = type { %"class.mojo::InlinedStructPtr"* }
%"class.net::IPEndPoint" = type { %"class.net::IPAddress", i16 }
%"class.net::IPAddress" = type { %"class.net::IPAddressBytes" }
%"class.net::IPAddressBytes" = type { %"struct.std::__1::array", i8 }
%"struct.std::__1::array" = type { [16 x i8] }
%"class.net::ProxyServer" = type { i32, [4 x i8], %"class.net::HostPortPair" }
%"class.net::HostPortPair" = type <{ %"class.std::__1::basic_string", i16, [6 x i8] }>
%"class.std::__1::vector.55" = type { %"class.std::__1::__vector_base.56" }
%"class.std::__1::__vector_base.56" = type { %class.GURL*, %class.GURL*, %"class.std::__1::__compressed_pair.57" }
%"class.std::__1::__compressed_pair.57" = type { %"struct.std::__1::__compressed_pair_elem.2" }
%"class.absl::optional.61" = type { %"class.absl::optional_internal::optional_data.62" }
%"class.absl::optional_internal::optional_data.62" = type { %"class.absl::optional_internal::optional_data_base.63" }
%"class.absl::optional_internal::optional_data_base.63" = type { %"class.absl::optional_internal::optional_data_dtor_base.64" }
%"class.absl::optional_internal::optional_data_dtor_base.64" = type { i8, [7 x i8], %union.anon.65 }
%union.anon.65 = type { %"class.net::SSLInfo" }
%"class.net::SSLInfo" = type <{ %class.scoped_refptr.66, %class.scoped_refptr.66, i32, i16, i16, i32, i8, i8, i8, i8, i32, [4 x i8], %"class.std::__1::vector.85", %"class.std::__1::basic_string", %"class.std::__1::vector.93", i32, %"struct.net::OCSPVerifyResult", i8, [3 x i8] }>
%class.scoped_refptr.66 = type { %"class.net::X509Certificate"* }
%"class.net::X509Certificate" = type { %"class.base::RefCountedThreadSafe.67", %"struct.net::CertPrincipal", %"struct.net::CertPrincipal", %"class.base::Time", %"class.base::Time", %"class.std::__1::basic_string", %"class.std::__1::unique_ptr.74", %"class.std::__1::vector.78" }
%"class.base::RefCountedThreadSafe.67" = type { %"class.base::subtle::RefCountedThreadSafeBase" }
%"struct.net::CertPrincipal" = type { %"class.std::__1::basic_string", %"class.std::__1::basic_string", %"class.std::__1::basic_string", %"class.std::__1::basic_string", %"class.std::__1::vector.68", %"class.std::__1::vector.68", %"class.std::__1::vector.68", %"class.std::__1::vector.68" }
%"class.std::__1::unique_ptr.74" = type { %"class.std::__1::__compressed_pair.75" }
%"class.std::__1::__compressed_pair.75" = type { %"struct.std::__1::__compressed_pair_elem.76" }
%"struct.std::__1::__compressed_pair_elem.76" = type { %struct.crypto_buffer_st* }
%struct.crypto_buffer_st = type opaque
%"class.std::__1::vector.78" = type { %"class.std::__1::__vector_base.79" }
%"class.std::__1::__vector_base.79" = type { %"class.std::__1::unique_ptr.74"*, %"class.std::__1::unique_ptr.74"*, %"class.std::__1::__compressed_pair.80" }
%"class.std::__1::__compressed_pair.80" = type { %"struct.std::__1::__compressed_pair_elem.81" }
%"struct.std::__1::__compressed_pair_elem.81" = type { %"class.std::__1::unique_ptr.74"* }
%"class.std::__1::vector.85" = type { %"class.std::__1::__vector_base.86" }
%"class.std::__1::__vector_base.86" = type { %"class.net::HashValue"*, %"class.net::HashValue"*, %"class.std::__1::__compressed_pair.88" }
%"class.net::HashValue" = type { i32, %union.anon.87 }
%union.anon.87 = type { %"struct.net::SHA256HashValue" }
%"struct.net::SHA256HashValue" = type { [32 x i8] }
%"class.std::__1::__compressed_pair.88" = type { %"struct.std::__1::__compressed_pair_elem.89" }
%"struct.std::__1::__compressed_pair_elem.89" = type { %"class.net::HashValue"* }
%"class.std::__1::vector.93" = type { %"class.std::__1::__vector_base.94" }
%"class.std::__1::__vector_base.94" = type { %"struct.net::SignedCertificateTimestampAndStatus"*, %"struct.net::SignedCertificateTimestampAndStatus"*, %"class.std::__1::__compressed_pair.97" }
%"struct.net::SignedCertificateTimestampAndStatus" = type <{ %class.scoped_refptr.95, i32, [4 x i8] }>
%class.scoped_refptr.95 = type { %"struct.net::ct::SignedCertificateTimestamp"* }
%"struct.net::ct::SignedCertificateTimestamp" = type { %"class.base::RefCountedThreadSafe.96", i32, %"class.std::__1::basic_string", %"class.base::Time", %"class.std::__1::basic_string", %"struct.net::ct::DigitallySigned", i32, %"class.std::__1::basic_string" }
%"class.base::RefCountedThreadSafe.96" = type { %"class.base::subtle::RefCountedThreadSafeBase" }
%"struct.net::ct::DigitallySigned" = type { i32, i32, %"class.std::__1::basic_string" }
%"class.std::__1::__compressed_pair.97" = type { %"struct.std::__1::__compressed_pair_elem.98" }
%"struct.std::__1::__compressed_pair_elem.98" = type { %"struct.net::SignedCertificateTimestampAndStatus"* }
%"struct.net::OCSPVerifyResult" = type { i32, i32 }
%"class.absl::optional.102" = type { %"class.absl::optional_internal::optional_data.103" }
%"class.absl::optional_internal::optional_data.103" = type { %"class.absl::optional_internal::optional_data_base.104" }
%"class.absl::optional_internal::optional_data_base.104" = type { %"class.absl::optional_internal::optional_data_dtor_base.105" }
%"class.absl::optional_internal::optional_data_dtor_base.105" = type { i8, %union.anon.106 }
%union.anon.106 = type { %"class.net::AuthChallengeInfo" }
%"class.net::AuthChallengeInfo" = type { i8, %"class.url::Origin", %"class.std::__1::basic_string", %"class.std::__1::basic_string", %"class.std::__1::basic_string", %"class.std::__1::basic_string" }
%"class.base::TimeTicks" = type { %"class.base::time_internal::TimeBase.41" }
%"class.base::time_internal::TimeBase.41" = type { i64 }
%"class.mojo::StructPtr.112" = type { %"class.std::__1::unique_ptr.113" }
%"class.std::__1::unique_ptr.113" = type { %"class.std::__1::__compressed_pair.114" }
%"class.std::__1::__compressed_pair.114" = type { %"struct.std::__1::__compressed_pair_elem.115" }
%"struct.std::__1::__compressed_pair_elem.115" = type { %"class.network::mojom::ParsedHeaders"* }
%"class.network::mojom::ParsedHeaders" = type <{ %"class.std::__1::vector.116", %"class.mojo::StructPtr.163", %"struct.network::CrossOriginEmbedderPolicy", %"struct.network::CrossOriginOpenerPolicy", i8, [7 x i8], %"class.absl::optional.170", %"class.base::TimeDelta", %"class.absl::optional.170", i32, [4 x i8], %"class.std::__1::vector.182", %"class.mojo::StructPtr.196", i8, [7 x i8] }>
%"class.std::__1::vector.116" = type { %"class.std::__1::__vector_base.117" }
%"class.std::__1::__vector_base.117" = type { %"class.mojo::StructPtr.118"*, %"class.mojo::StructPtr.118"*, %"class.std::__1::__compressed_pair.158" }
%"class.mojo::StructPtr.118" = type { %"class.std::__1::unique_ptr.119" }
%"class.std::__1::unique_ptr.119" = type { %"class.std::__1::__compressed_pair.120" }
%"class.std::__1::__compressed_pair.120" = type { %"struct.std::__1::__compressed_pair_elem.121" }
%"struct.std::__1::__compressed_pair_elem.121" = type { %"class.network::mojom::ContentSecurityPolicy"* }
%"class.network::mojom::ContentSecurityPolicy" = type { %"class.mojo::StructPtr.122", %"class.base::flat_map", %"class.base::flat_map.136", i8, i8, i8, i32, %"class.mojo::InlinedStructPtr.146", i8, %"class.std::__1::vector.68", i32, %"class.mojo::StructPtr.148", %"class.std::__1::vector.68" }
%"class.mojo::StructPtr.122" = type { %"class.std::__1::unique_ptr.123" }
%"class.std::__1::unique_ptr.123" = type { %"class.std::__1::__compressed_pair.124" }
%"class.std::__1::__compressed_pair.124" = type { %"struct.std::__1::__compressed_pair_elem.125" }
%"struct.std::__1::__compressed_pair_elem.125" = type { %"class.network::mojom::CSPSource"* }
%"class.network::mojom::CSPSource" = type <{ %"class.std::__1::basic_string", %"class.std::__1::basic_string", i32, [4 x i8], %"class.std::__1::basic_string", i8, i8, [6 x i8] }>
%"class.base::flat_map" = type { %"class.base::internal::flat_tree" }
%"class.base::internal::flat_tree" = type { %"class.std::__1::vector.129" }
%"class.std::__1::vector.129" = type { %"class.std::__1::__vector_base.130" }
%"class.std::__1::__vector_base.130" = type { %"struct.std::__1::pair"*, %"struct.std::__1::pair"*, %"class.std::__1::__compressed_pair.131" }
%"struct.std::__1::pair" = type opaque
%"class.std::__1::__compressed_pair.131" = type { %"struct.std::__1::__compressed_pair_elem.132" }
%"struct.std::__1::__compressed_pair_elem.132" = type { %"struct.std::__1::pair"* }
%"class.base::flat_map.136" = type { %"class.base::internal::flat_tree.137" }
%"class.base::internal::flat_tree.137" = type { %"class.std::__1::vector.138" }
%"class.std::__1::vector.138" = type { %"class.std::__1::__vector_base.139" }
%"class.std::__1::__vector_base.139" = type { %"struct.std::__1::pair.140"*, %"struct.std::__1::pair.140"*, %"class.std::__1::__compressed_pair.141" }
%"struct.std::__1::pair.140" = type opaque
%"class.std::__1::__compressed_pair.141" = type { %"struct.std::__1::__compressed_pair_elem.142" }
%"struct.std::__1::__compressed_pair_elem.142" = type { %"struct.std::__1::pair.140"* }
%"class.mojo::InlinedStructPtr.146" = type <{ %"class.network::mojom::ContentSecurityPolicyHeader", i32, [4 x i8] }>
%"class.network::mojom::ContentSecurityPolicyHeader" = type { %"class.std::__1::basic_string", i32, i32 }
%"class.mojo::StructPtr.148" = type { %"class.std::__1::unique_ptr.149" }
%"class.std::__1::unique_ptr.149" = type { %"class.std::__1::__compressed_pair.150" }
%"class.std::__1::__compressed_pair.150" = type { %"struct.std::__1::__compressed_pair_elem.151" }
%"struct.std::__1::__compressed_pair_elem.151" = type { %"class.network::mojom::CSPTrustedTypes"* }
%"class.network::mojom::CSPTrustedTypes" = type <{ %"class.std::__1::vector.68", i8, i8, [6 x i8] }>
%"class.std::__1::__compressed_pair.158" = type { %"struct.std::__1::__compressed_pair_elem.159" }
%"struct.std::__1::__compressed_pair_elem.159" = type { %"class.mojo::StructPtr.118"* }
%"class.mojo::StructPtr.163" = type { %"class.std::__1::unique_ptr.164" }
%"class.std::__1::unique_ptr.164" = type { %"class.std::__1::__compressed_pair.165" }
%"class.std::__1::__compressed_pair.165" = type { %"struct.std::__1::__compressed_pair_elem.166" }
%"struct.std::__1::__compressed_pair_elem.166" = type { %"class.network::mojom::AllowCSPFromHeaderValue"* }
%"class.network::mojom::AllowCSPFromHeaderValue" = type { i32, %"union.network::mojom::AllowCSPFromHeaderValue::Union_" }
%"union.network::mojom::AllowCSPFromHeaderValue::Union_" = type { %"class.url::Origin"* }
%"struct.network::CrossOriginOpenerPolicy" = type { i32, %"class.absl::optional", i32, %"class.absl::optional" }
%"class.base::TimeDelta" = type { i64 }
%"class.absl::optional.170" = type { %"class.absl::optional_internal::optional_data.171" }
%"class.absl::optional_internal::optional_data.171" = type { %"class.absl::optional_internal::optional_data_base.172" }
%"class.absl::optional_internal::optional_data_base.172" = type { %"class.absl::optional_internal::optional_data_dtor_base.173" }
%"class.absl::optional_internal::optional_data_dtor_base.173" = type { i8, %union.anon.174 }
%union.anon.174 = type { %"class.std::__1::vector.175" }
%"class.std::__1::vector.175" = type { %"class.std::__1::__vector_base.176" }
%"class.std::__1::__vector_base.176" = type { i32*, i32*, %"class.std::__1::__compressed_pair.177" }
%"class.std::__1::__compressed_pair.177" = type { %"struct.std::__1::__compressed_pair_elem.178" }
%"struct.std::__1::__compressed_pair_elem.178" = type { i32* }
%"class.std::__1::vector.182" = type { %"class.std::__1::__vector_base.183" }
%"class.std::__1::__vector_base.183" = type { %"class.mojo::StructPtr.184"*, %"class.mojo::StructPtr.184"*, %"class.std::__1::__compressed_pair.191" }
%"class.mojo::StructPtr.184" = type { %"class.std::__1::unique_ptr.185" }
%"class.std::__1::unique_ptr.185" = type { %"class.std::__1::__compressed_pair.186" }
%"class.std::__1::__compressed_pair.186" = type { %"struct.std::__1::__compressed_pair_elem.187" }
%"struct.std::__1::__compressed_pair_elem.187" = type { %"class.network::mojom::LinkHeader"* }
%"class.network::mojom::LinkHeader" = type { %class.GURL, i32, i32, i32, %"class.absl::optional" }
%"class.std::__1::__compressed_pair.191" = type { %"struct.std::__1::__compressed_pair_elem.192" }
%"struct.std::__1::__compressed_pair_elem.192" = type { %"class.mojo::StructPtr.184"* }
%"class.mojo::StructPtr.196" = type { %"class.std::__1::unique_ptr.197" }
%"class.std::__1::unique_ptr.197" = type { %"class.std::__1::__compressed_pair.198" }
%"class.std::__1::__compressed_pair.198" = type { %"struct.std::__1::__compressed_pair_elem.199" }
%"struct.std::__1::__compressed_pair_elem.199" = type { %"class.network::mojom::TimingAllowOrigin"* }
%"class.network::mojom::TimingAllowOrigin" = type { i32, %"union.network::mojom::TimingAllowOrigin::Union_" }
%"union.network::mojom::TimingAllowOrigin::Union_" = type { %"class.std::__1::vector.68"* }
%"class.absl::optional.206" = type { %"class.absl::optional_internal::optional_data.207" }
%"class.absl::optional_internal::optional_data.207" = type { %"class.absl::optional_internal::optional_data_base.208" }
%"class.absl::optional_internal::optional_data_base.208" = type { %"class.absl::optional_internal::optional_data_dtor_base.209" }
%"class.absl::optional_internal::optional_data_dtor_base.209" = type { i8, %union.anon.210 }
%union.anon.210 = type { %"struct.network::OriginPolicy" }
%"struct.network::OriginPolicy" = type { i32, %class.GURL, %"class.std::__1::unique_ptr.211" }
%"class.std::__1::unique_ptr.211" = type { %"class.std::__1::__compressed_pair.212" }
%"class.std::__1::__compressed_pair.212" = type { %"struct.std::__1::__compressed_pair_elem.213" }
%"struct.std::__1::__compressed_pair_elem.213" = type { %"struct.network::OriginPolicyContents"* }
%"struct.network::OriginPolicyContents" = type { %"class.std::__1::vector.68", %"class.absl::optional", %"class.std::__1::vector.68", %"class.std::__1::vector.68" }
%class.scoped_refptr.19 = type { %"class.network::SharedURLLoaderFactory"* }
%"class.logging::CheckError" = type { %"class.logging::LogMessage"* }
%"class.logging::LogMessage" = type { i32 (...)**, i32, %"class.std::__1::basic_ostringstream", i64, i8*, i32, %"class.base::ScopedClearLastErrorBase" }
%"class.std::__1::basic_ostringstream" = type { %"class.std::__1::basic_ostream.base", %"class.std::__1::basic_stringbuf", %"class.std::__1::basic_ios.base" }
%"class.std::__1::basic_ostream.base" = type { i32 (...)** }
%"class.std::__1::basic_stringbuf" = type <{ %"class.std::__1::basic_streambuf", %"class.std::__1::basic_string", i8*, i32, [4 x i8] }>
%"class.std::__1::basic_streambuf" = type { i32 (...)**, %"class.std::__1::locale", i8*, i8*, i8*, i8*, i8*, i8* }
%"class.std::__1::locale" = type { %"class.std::__1::locale::__imp"* }
%"class.std::__1::locale::__imp" = type opaque
%"class.std::__1::basic_ios.base" = type <{ %"class.std::__1::ios_base", %"class.std::__1::basic_ostream"*, i32 }>
%"class.std::__1::ios_base" = type { i32 (...)**, i32, i64, i64, i32, i32, i8*, i8*, void (i32, %"class.std::__1::ios_base"*, i32)**, i32*, i64, i64, i64*, i64, i64, i8**, i64, i64 }
%"class.std::__1::basic_ostream" = type { i32 (...)**, %"class.std::__1::basic_ios.base" }
%"class.base::ScopedClearLastErrorBase" = type { i32 }
%"class.std::__1::unique_ptr.28" = type { %"class.std::__1::__compressed_pair.29" }
%"class.std::__1::__compressed_pair.29" = type { %"struct.std::__1::__compressed_pair_elem.30" }

$_ZN3net30DefineNetworkTrafficAnnotationILm22ELm924EEENS_27NetworkTrafficAnnotationTagERAT__KcRAT0__S2_ = comdat any

$_ZN4base8internal7InvokerINS0_9BindStateIMN6syncer19TrustedVaultRequestEFv13scoped_refptrIN7network22SharedURLLoaderFactoryEEN4absl8optionalIN6signin15AccessTokenInfoEEEEJNS_7WeakPtrIS4_EES8_EEEFvSD_EE7RunOnceEPNS0_13BindStateBaseEOSD_ = comdat any

$_ZN4base8internal13FunctorTraitsIMN6syncer19TrustedVaultRequestEFv13scoped_refptrIN7network22SharedURLLoaderFactoryEEN4absl8optionalIN6signin15AccessTokenInfoEEEEvE6InvokeISE_NS_7WeakPtrIS3_EEJS7_SC_EEEvT_OT0_DpOT1_ = comdat any

$_ZN4base8internal9BindStateIMN6syncer19TrustedVaultRequestEFv13scoped_refptrIN7network22SharedURLLoaderFactoryEEN4absl8optionalIN6signin15AccessTokenInfoEEEEJNS_7WeakPtrIS3_EES7_EE7DestroyEPKNS0_13BindStateBaseE = comdat any

$_ZN4base8internal23QueryCancellationTraitsINS0_9BindStateIMN6syncer19TrustedVaultRequestEFv13scoped_refptrIN7network22SharedURLLoaderFactoryEEN4absl8optionalIN6signin15AccessTokenInfoEEEEJNS_7WeakPtrIS4_EES8_EEEEEbPKNS0_13BindStateBaseENSJ_21CancellationQueryModeE = comdat any

$_ZN4base8internal7InvokerINS0_9BindStateIMN6syncer19TrustedVaultRequestEFvNSt3__110unique_ptrINS5_12basic_stringIcNS5_11char_traitsIcEENS5_9allocatorIcEEEENS5_14default_deleteISC_EEEEEJNS0_17UnretainedWrapperIS4_EEEEEFvSF_EE7RunOnceEPNS0_13BindStateBaseEOSF_ = comdat any

$_ZN4base8internal9BindStateIMN6syncer19TrustedVaultRequestEFvNSt3__110unique_ptrINS4_12basic_stringIcNS4_11char_traitsIcEENS4_9allocatorIcEEEENS4_14default_deleteISB_EEEEEJNS0_17UnretainedWrapperIS3_EEEE7DestroyEPKNS0_13BindStateBaseE = comdat any

@_ZTVN6syncer19TrustedVaultRequestE = hidden unnamed_addr constant { [4 x i8*] } { [4 x i8*] [i8* null, i8* null, i8* bitcast (void (%"class.syncer::TrustedVaultRequest"*)* @_ZN6syncer19TrustedVaultRequestD2Ev to i8*), i8* bitcast (void (%"class.syncer::TrustedVaultRequest"*)* @_ZN6syncer19TrustedVaultRequestD0Ev to i8*)] }, align 8
@_ZN6syncer12_GLOBAL__N_133kQueryParameterAlternateOutputKeyE = internal unnamed_addr constant [4 x i8] c"alt\00", align 1
@_ZN6syncer12_GLOBAL__N_135kQueryParameterAlternateOutputProtoE = internal unnamed_addr constant [6 x i8] c"proto\00", align 1
@_ZN6syncer12_GLOBAL__N_120kAuthorizationHeaderE = internal constant [14 x i8] c"Authorization\00", align 1
@.ref.tmp = private constant %"class.base::BasicStringPiece" { i8* getelementptr inbounds ([14 x i8], [14 x i8]* @_ZN6syncer12_GLOBAL__N_120kAuthorizationHeaderE, i32 0, i32 0), i64 13 }, align 8
@.str = private unnamed_addr constant [10 x i8] c"Bearer %s\00", align 1
@_ZN6syncer12_GLOBAL__N_120kProtobufContentTypeE = internal unnamed_addr constant [23 x i8] c"application/x-protobuf\00", align 16
@.str.3 = private unnamed_addr constant [22 x i8] c"trusted_vault_request\00", align 1
@.str.4 = private unnamed_addr constant [924 x i8] c"\0A      semantics {\0A        sender: \22Chrome Sync\22\0A        description:\0A          \22Request to vault service in order to retrieve, change or support \22\0A          \22future retrieval or change of Sync encryption keys.\22\0A        trigger:\0A          \22Periodically/upon certain non-user controlled events after user \22\0A          \22signs in Chrome profile.\22\0A        data:\0A          \22An OAuth2 access token, sync metadata associated with encryption \22\0A          \22keys: encrypted encryption keys, public counterpart of encryption \22\0A          \22keys.\22\0A        destination: GOOGLE_OWNED_SERVICE\0A      }\0A      policy {\0A        cookies_allowed: NO\0A        setting:\0A          \22Users can disable Chrome Sync by going into the profile settings \22\0A          \22and choosing to sign out.\22\0A        chrome_policy {\0A            SyncDisabled {\0A               policy_options {mode: MANDATORY}\0A               SyncDisabled: false\0A            }\0A        }\0A      }\00", align 1
@.str.6 = private unnamed_addr constant [29 x i8] c"../../base/memory/weak_ptr.h\00", align 1
@.str.7 = private unnamed_addr constant [15 x i8] c"ref_.IsValid()\00", align 1

@_ZN6syncer19TrustedVaultRequestC1ENS0_10HttpMethodERK4GURLRKN4absl8optionalINSt3__112basic_stringIcNS7_11char_traitsIcEENS7_9allocatorIcEEEEEE = hidden unnamed_addr alias void (%"class.syncer::TrustedVaultRequest"*, i32, %class.GURL*, %"class.absl::optional"*), void (%"class.syncer::TrustedVaultRequest"*, i32, %class.GURL*, %"class.absl::optional"*)* @_ZN6syncer19TrustedVaultRequestC2ENS0_10HttpMethodERK4GURLRKN4absl8optionalINSt3__112basic_stringIcNS7_11char_traitsIcEENS7_9allocatorIcEEEEEE
@_ZN6syncer19TrustedVaultRequestD1Ev = hidden unnamed_addr alias void (%"class.syncer::TrustedVaultRequest"*), void (%"class.syncer::TrustedVaultRequest"*)* @_ZN6syncer19TrustedVaultRequestD2Ev

; Function Attrs: nounwind ssp uwtable
define hidden void @_ZN6syncer19TrustedVaultRequestC2ENS0_10HttpMethodERK4GURLRKN4absl8optionalINSt3__112basic_stringIcNS7_11char_traitsIcEENS7_9allocatorIcEEEEEE(%"class.syncer::TrustedVaultRequest"*, i32, %class.GURL* dereferenceable(120), %"class.absl::optional"* nocapture readonly dereferenceable(32)) unnamed_addr #0 align 2 {
  %5 = getelementptr inbounds %"class.syncer::TrustedVaultRequest", %"class.syncer::TrustedVaultRequest"* %0, i64 0, i32 0, i32 0
  store i32 (...)** bitcast (i8** getelementptr inbounds ({ [4 x i8*] }, { [4 x i8*] }* @_ZTVN6syncer19TrustedVaultRequestE, i64 0, inrange i32 0, i64 2) to i32 (...)**), i32 (...)*** %5, align 8
  %6 = getelementptr inbounds %"class.syncer::TrustedVaultRequest", %"class.syncer::TrustedVaultRequest"* %0, i64 0, i32 1
  store i32 %1, i32* %6, align 8
  %7 = getelementptr inbounds %"class.syncer::TrustedVaultRequest", %"class.syncer::TrustedVaultRequest"* %0, i64 0, i32 2
  tail call void @_ZN4GURLC1ERKS_(%class.GURL* %7, %class.GURL* dereferenceable(120) %2) #7
  %8 = getelementptr inbounds %"class.syncer::TrustedVaultRequest", %"class.syncer::TrustedVaultRequest"* %0, i64 0, i32 3, i32 0, i32 0, i32 0, i32 0
  %9 = getelementptr inbounds %"class.absl::optional", %"class.absl::optional"* %3, i64 0, i32 0, i32 0, i32 0, i32 0
  tail call void @llvm.memset.p0i8.i64(i8* align 8 %8, i8 0, i64 32, i1 false) #7
  %10 = load i8, i8* %9, align 8, !range !2
  %11 = icmp eq i8 %10, 0
  br i1 %11, label %28, label %12

12:                                               ; preds = %4
  %13 = getelementptr inbounds %"class.absl::optional", %"class.absl::optional"* %3, i64 0, i32 0, i32 0, i32 0, i32 1, i32 0
  %14 = getelementptr inbounds %"class.syncer::TrustedVaultRequest", %"class.syncer::TrustedVaultRequest"* %0, i64 0, i32 3, i32 0, i32 0, i32 0, i32 1, i32 0
  %15 = bitcast %"class.std::__1::basic_string"* %13 to %"struct.std::__1::basic_string<char, std::__1::char_traits<char>, std::__1::allocator<char> >::__short"*
  %16 = getelementptr inbounds %"struct.std::__1::basic_string<char, std::__1::char_traits<char>, std::__1::allocator<char> >::__short", %"struct.std::__1::basic_string<char, std::__1::char_traits<char>, std::__1::allocator<char> >::__short"* %15, i64 0, i32 1, i32 0
  %17 = load i8, i8* %16, align 1
  %18 = icmp slt i8 %17, 0
  br i1 %18, label %22, label %19

19:                                               ; preds = %12
  %20 = bitcast %"class.std::__1::basic_string"* %14 to i8*
  %21 = bitcast %"class.std::__1::basic_string"* %13 to i8*
  tail call void @llvm.memcpy.p0i8.p0i8.i64(i8* align 8 %20, i8* align 8 %21, i64 24, i1 false) #7
  br label %27

22:                                               ; preds = %12
  %23 = getelementptr inbounds %"class.std::__1::basic_string", %"class.std::__1::basic_string"* %13, i64 0, i32 0, i32 0, i32 0, i32 0, i32 0, i32 0
  %24 = load i8*, i8** %23, align 8
  %25 = getelementptr inbounds %"class.absl::optional", %"class.absl::optional"* %3, i64 0, i32 0, i32 0, i32 0, i32 1, i32 0, i32 0, i32 0, i32 0, i32 0, i32 0, i32 1
  %26 = load i64, i64* %25, align 8
  tail call void @_ZNSt3__112basic_stringIcNS_11char_traitsIcEENS_9allocatorIcEEE25__init_copy_ctor_externalEPKcm(%"class.std::__1::basic_string"* %14, i8* %24, i64 %26) #7
  br label %27

27:                                               ; preds = %22, %19
  store i8 1, i8* %8, align 8
  br label %28

28:                                               ; preds = %4, %27
  %29 = getelementptr inbounds %"class.syncer::TrustedVaultRequest", %"class.syncer::TrustedVaultRequest"* %0, i64 0, i32 4, i32 0, i32 0, i32 0
  %30 = getelementptr inbounds %"class.syncer::TrustedVaultRequest", %"class.syncer::TrustedVaultRequest"* %0, i64 0, i32 6, i32 0
  %31 = ptrtoint %"class.syncer::TrustedVaultRequest"* %0 to i64
  %32 = bitcast %"class.base::internal::BindStateBase"** %29 to i8*
  call void @llvm.memset.p0i8.i64(i8* align 8 %32, i8 0, i64 16, i1 false)
  tail call void @_ZN4base8internal18WeakPtrFactoryBaseC2Em(%"class.base::internal::WeakPtrFactoryBase"* %30, i64 %31) #7
  ret void
}

declare void @_ZN4GURLC1ERKS_(%class.GURL*, %class.GURL* dereferenceable(120)) unnamed_addr #1

; Function Attrs: nounwind ssp uwtable
define hidden void @_ZN6syncer19TrustedVaultRequestD2Ev(%"class.syncer::TrustedVaultRequest"*) unnamed_addr #0 align 2 {
  %2 = getelementptr inbounds %"class.syncer::TrustedVaultRequest", %"class.syncer::TrustedVaultRequest"* %0, i64 0, i32 0, i32 0
  store i32 (...)** bitcast (i8** getelementptr inbounds ({ [4 x i8*] }, { [4 x i8*] }* @_ZTVN6syncer19TrustedVaultRequestE, i64 0, inrange i32 0, i64 2) to i32 (...)**), i32 (...)*** %2, align 8
  %3 = getelementptr inbounds %"class.syncer::TrustedVaultRequest", %"class.syncer::TrustedVaultRequest"* %0, i64 0, i32 6, i32 0
  tail call void @_ZN4base8internal18WeakPtrFactoryBaseD2Ev(%"class.base::internal::WeakPtrFactoryBase"* %3) #7
  %4 = getelementptr inbounds %"class.syncer::TrustedVaultRequest", %"class.syncer::TrustedVaultRequest"* %0, i64 0, i32 5, i32 0, i32 0, i32 0
  %5 = load %"class.network::SimpleURLLoader"*, %"class.network::SimpleURLLoader"** %4, align 8
  store %"class.network::SimpleURLLoader"* null, %"class.network::SimpleURLLoader"** %4, align 8
  %6 = icmp eq %"class.network::SimpleURLLoader"* %5, null
  br i1 %6, label %12, label %7

7:                                                ; preds = %1
  %8 = bitcast %"class.network::SimpleURLLoader"* %5 to void (%"class.network::SimpleURLLoader"*)***
  %9 = load void (%"class.network::SimpleURLLoader"*)**, void (%"class.network::SimpleURLLoader"*)*** %8, align 8
  %10 = getelementptr inbounds void (%"class.network::SimpleURLLoader"*)*, void (%"class.network::SimpleURLLoader"*)** %9, i64 1
  %11 = load void (%"class.network::SimpleURLLoader"*)*, void (%"class.network::SimpleURLLoader"*)** %10, align 8
  tail call void %11(%"class.network::SimpleURLLoader"* nonnull %5) #7
  br label %12

12:                                               ; preds = %1, %7
  %13 = getelementptr inbounds %"class.syncer::TrustedVaultRequest", %"class.syncer::TrustedVaultRequest"* %0, i64 0, i32 4, i32 0
  tail call void @_ZN4base8internal12CallbackBaseD2Ev(%"class.base::internal::CallbackBase"* %13) #7
  %14 = getelementptr inbounds %"class.syncer::TrustedVaultRequest", %"class.syncer::TrustedVaultRequest"* %0, i64 0, i32 3, i32 0, i32 0, i32 0, i32 0
  %15 = load i8, i8* %14, align 8, !range !2
  %16 = icmp eq i8 %15, 0
  br i1 %16, label %27, label %17

17:                                               ; preds = %12
  %18 = getelementptr inbounds %"class.syncer::TrustedVaultRequest", %"class.syncer::TrustedVaultRequest"* %0, i64 0, i32 3, i32 0, i32 0, i32 0, i32 1, i32 0
  %19 = bitcast %"class.std::__1::basic_string"* %18 to %"struct.std::__1::basic_string<char, std::__1::char_traits<char>, std::__1::allocator<char> >::__short"*
  %20 = getelementptr inbounds %"struct.std::__1::basic_string<char, std::__1::char_traits<char>, std::__1::allocator<char> >::__short", %"struct.std::__1::basic_string<char, std::__1::char_traits<char>, std::__1::allocator<char> >::__short"* %19, i64 0, i32 1, i32 0
  %21 = load i8, i8* %20, align 1
  %22 = icmp slt i8 %21, 0
  br i1 %22, label %23, label %26

23:                                               ; preds = %17
  %24 = getelementptr inbounds %"class.std::__1::basic_string", %"class.std::__1::basic_string"* %18, i64 0, i32 0, i32 0, i32 0, i32 0, i32 0, i32 0
  %25 = load i8*, i8** %24, align 8
  tail call void @_ZdlPv(i8* %25) #8
  br label %26

26:                                               ; preds = %23, %17
  store i8 0, i8* %14, align 8
  br label %27

27:                                               ; preds = %12, %26
  %28 = getelementptr inbounds %"class.syncer::TrustedVaultRequest", %"class.syncer::TrustedVaultRequest"* %0, i64 0, i32 2
  tail call void @_ZN4GURLD1Ev(%class.GURL* %28) #7
  ret void
}

; Function Attrs: nounwind
declare void @_ZN4base8internal18WeakPtrFactoryBaseD2Ev(%"class.base::internal::WeakPtrFactoryBase"*) unnamed_addr #2

; Function Attrs: nounwind
declare void @_ZN4GURLD1Ev(%class.GURL*) unnamed_addr #2

; Function Attrs: nounwind ssp uwtable
define hidden void @_ZN6syncer19TrustedVaultRequestD0Ev(%"class.syncer::TrustedVaultRequest"*) unnamed_addr #0 align 2 {
  %2 = getelementptr inbounds %"class.syncer::TrustedVaultRequest", %"class.syncer::TrustedVaultRequest"* %0, i64 0, i32 0, i32 0
  store i32 (...)** bitcast (i8** getelementptr inbounds ({ [4 x i8*] }, { [4 x i8*] }* @_ZTVN6syncer19TrustedVaultRequestE, i64 0, inrange i32 0, i64 2) to i32 (...)**), i32 (...)*** %2, align 8
  %3 = getelementptr inbounds %"class.syncer::TrustedVaultRequest", %"class.syncer::TrustedVaultRequest"* %0, i64 0, i32 6, i32 0
  tail call void @_ZN4base8internal18WeakPtrFactoryBaseD2Ev(%"class.base::internal::WeakPtrFactoryBase"* %3) #7
  %4 = getelementptr inbounds %"class.syncer::TrustedVaultRequest", %"class.syncer::TrustedVaultRequest"* %0, i64 0, i32 5, i32 0, i32 0, i32 0
  %5 = load %"class.network::SimpleURLLoader"*, %"class.network::SimpleURLLoader"** %4, align 8
  store %"class.network::SimpleURLLoader"* null, %"class.network::SimpleURLLoader"** %4, align 8
  %6 = icmp eq %"class.network::SimpleURLLoader"* %5, null
  br i1 %6, label %12, label %7

7:                                                ; preds = %1
  %8 = bitcast %"class.network::SimpleURLLoader"* %5 to void (%"class.network::SimpleURLLoader"*)***
  %9 = load void (%"class.network::SimpleURLLoader"*)**, void (%"class.network::SimpleURLLoader"*)*** %8, align 8
  %10 = getelementptr inbounds void (%"class.network::SimpleURLLoader"*)*, void (%"class.network::SimpleURLLoader"*)** %9, i64 1
  %11 = load void (%"class.network::SimpleURLLoader"*)*, void (%"class.network::SimpleURLLoader"*)** %10, align 8
  tail call void %11(%"class.network::SimpleURLLoader"* nonnull %5) #7
  br label %12

12:                                               ; preds = %7, %1
  %13 = getelementptr inbounds %"class.syncer::TrustedVaultRequest", %"class.syncer::TrustedVaultRequest"* %0, i64 0, i32 4, i32 0
  tail call void @_ZN4base8internal12CallbackBaseD2Ev(%"class.base::internal::CallbackBase"* %13) #7
  %14 = getelementptr inbounds %"class.syncer::TrustedVaultRequest", %"class.syncer::TrustedVaultRequest"* %0, i64 0, i32 3, i32 0, i32 0, i32 0, i32 0
  %15 = load i8, i8* %14, align 8, !range !2
  %16 = icmp eq i8 %15, 0
  br i1 %16, label %27, label %17

17:                                               ; preds = %12
  %18 = getelementptr inbounds %"class.syncer::TrustedVaultRequest", %"class.syncer::TrustedVaultRequest"* %0, i64 0, i32 3, i32 0, i32 0, i32 0, i32 1, i32 0
  %19 = bitcast %"class.std::__1::basic_string"* %18 to %"struct.std::__1::basic_string<char, std::__1::char_traits<char>, std::__1::allocator<char> >::__short"*
  %20 = getelementptr inbounds %"struct.std::__1::basic_string<char, std::__1::char_traits<char>, std::__1::allocator<char> >::__short", %"struct.std::__1::basic_string<char, std::__1::char_traits<char>, std::__1::allocator<char> >::__short"* %19, i64 0, i32 1, i32 0
  %21 = load i8, i8* %20, align 1
  %22 = icmp slt i8 %21, 0
  br i1 %22, label %23, label %26

23:                                               ; preds = %17
  %24 = getelementptr inbounds %"class.std::__1::basic_string", %"class.std::__1::basic_string"* %18, i64 0, i32 0, i32 0, i32 0, i32 0, i32 0, i32 0
  %25 = load i8*, i8** %24, align 8
  tail call void @_ZdlPv(i8* %25) #8
  br label %26

26:                                               ; preds = %23, %17
  store i8 0, i8* %14, align 8
  br label %27

27:                                               ; preds = %12, %26
  %28 = getelementptr inbounds %"class.syncer::TrustedVaultRequest", %"class.syncer::TrustedVaultRequest"* %0, i64 0, i32 2
  tail call void @_ZN4GURLD1Ev(%class.GURL* %28) #7
  %29 = bitcast %"class.syncer::TrustedVaultRequest"* %0 to i8*
  tail call void @_ZdlPv(i8* %29) #8
  ret void
}

; Function Attrs: nobuiltin nounwind
declare void @_ZdlPv(i8*) local_unnamed_addr #3

; Function Attrs: nounwind ssp uwtable
define hidden void @_ZN6syncer19TrustedVaultRequest30FetchAccessTokenAndSendRequestERK13CoreAccountId13scoped_refptrIN7network22SharedURLLoaderFactoryEEPNS_30TrustedVaultAccessTokenFetcherEN4base12OnceCallbackIFvNS0_10HttpStatusERKNSt3__112basic_stringIcNSD_11char_traitsIcEENSD_9allocatorIcEEEEEEE(%"class.syncer::TrustedVaultRequest"*, %struct.CoreAccountId*, %"class.network::SharedURLLoaderFactory"*, %"class.syncer::TrustedVaultAccessTokenFetcher"*, %"class.base::OnceCallback"*) local_unnamed_addr #0 align 2 {
  %6 = alloca %"class.base::internal::WeakReference", align 8
  %7 = alloca %"class.base::OnceCallback.20", align 8
  %8 = alloca %"class.base::WeakPtr", align 8
  %9 = getelementptr inbounds %"class.syncer::TrustedVaultRequest", %"class.syncer::TrustedVaultRequest"* %0, i64 0, i32 4, i32 0
  %10 = getelementptr inbounds %"class.base::OnceCallback", %"class.base::OnceCallback"* %4, i64 0, i32 0
  %11 = tail call dereferenceable(8) %"class.base::internal::CallbackBase"* @_ZN4base8internal12CallbackBaseaSEOS1_(%"class.base::internal::CallbackBase"* %9, %"class.base::internal::CallbackBase"* dereferenceable(8) %10) #7
  %12 = bitcast %"class.base::WeakPtr"* %8 to i8*
  call void @llvm.lifetime.start.p0i8(i64 16, i8* nonnull %12) #7
  %13 = bitcast %"class.base::internal::WeakReference"* %6 to i8*
  call void @llvm.lifetime.start.p0i8(i64 8, i8* nonnull %13) #7, !noalias !3
  %14 = getelementptr inbounds %"class.syncer::TrustedVaultRequest", %"class.syncer::TrustedVaultRequest"* %0, i64 0, i32 6, i32 0, i32 0
  call void @_ZNK4base8internal18WeakReferenceOwner6GetRefEv(%"class.base::internal::WeakReference"* nonnull sret %6, %"class.base::internal::WeakReferenceOwner"* %14) #7, !noalias !3
  %15 = getelementptr inbounds %"class.syncer::TrustedVaultRequest", %"class.syncer::TrustedVaultRequest"* %0, i64 0, i32 6, i32 0, i32 1
  %16 = load i64, i64* %15, align 8, !noalias !3
  %17 = getelementptr inbounds %"class.base::WeakPtr", %"class.base::WeakPtr"* %8, i64 0, i32 0
  call void @_ZN4base8internal11WeakPtrBaseC2ERKNS0_13WeakReferenceEm(%"class.base::internal::WeakPtrBase"* nonnull %17, %"class.base::internal::WeakReference"* nonnull dereferenceable(8) %6, i64 %16) #7
  call void @_ZN4base8internal13WeakReferenceD1Ev(%"class.base::internal::WeakReference"* nonnull %6) #7
  call void @llvm.lifetime.end.p0i8(i64 8, i8* nonnull %13) #7, !noalias !3
  %18 = call i8* @_Znwm(i64 72) #8, !noalias !6
  %19 = bitcast i8* %18 to %"class.base::internal::BindStateBase"*
  call void @_ZN4base8internal13BindStateBaseC2EPFvvEPFvPKS1_EPFbS5_NS1_21CancellationQueryModeEE(%"class.base::internal::BindStateBase"* nonnull %19, void ()* bitcast (void (%"class.base::internal::BindStateBase"*, %"class.absl::optional.22"*)* @_ZN4base8internal7InvokerINS0_9BindStateIMN6syncer19TrustedVaultRequestEFv13scoped_refptrIN7network22SharedURLLoaderFactoryEEN4absl8optionalIN6signin15AccessTokenInfoEEEEJNS_7WeakPtrIS4_EES8_EEEFvSD_EE7RunOnceEPNS0_13BindStateBaseEOSD_ to void ()*), void (%"class.base::internal::BindStateBase"*)* nonnull @_ZN4base8internal9BindStateIMN6syncer19TrustedVaultRequestEFv13scoped_refptrIN7network22SharedURLLoaderFactoryEEN4absl8optionalIN6signin15AccessTokenInfoEEEEJNS_7WeakPtrIS3_EES7_EE7DestroyEPKNS0_13BindStateBaseE, i1 (%"class.base::internal::BindStateBase"*, i32)* nonnull @_ZN4base8internal23QueryCancellationTraitsINS0_9BindStateIMN6syncer19TrustedVaultRequestEFv13scoped_refptrIN7network22SharedURLLoaderFactoryEEN4absl8optionalIN6signin15AccessTokenInfoEEEEJNS_7WeakPtrIS4_EES8_EEEEEbPKNS0_13BindStateBaseENSJ_21CancellationQueryModeE) #7, !noalias !6
  %20 = getelementptr inbounds i8, i8* %18, i64 32
  %21 = bitcast i8* %20 to <2 x i64>*
  store <2 x i64> <i64 ptrtoint (void (%"class.syncer::TrustedVaultRequest"*, %"class.network::SharedURLLoaderFactory"*, %"class.absl::optional.22"*)* @_ZN6syncer19TrustedVaultRequest20OnAccessTokenFetchedE13scoped_refptrIN7network22SharedURLLoaderFactoryEEN4absl8optionalIN6signin15AccessTokenInfoEEE to i64), i64 0>, <2 x i64>* %21, align 8, !noalias !6
  %22 = getelementptr inbounds i8, i8* %18, i64 48
  %23 = bitcast i8* %22 to %"class.base::internal::WeakReference"*
  %24 = getelementptr inbounds %"class.base::WeakPtr", %"class.base::WeakPtr"* %8, i64 0, i32 0, i32 0
  call void @_ZN4base8internal13WeakReferenceC1EOS1_(%"class.base::internal::WeakReference"* %23, %"class.base::internal::WeakReference"* nonnull dereferenceable(8) %24) #7, !noalias !6
  %25 = getelementptr inbounds i8, i8* %18, i64 56
  %26 = bitcast i8* %25 to i64*
  %27 = getelementptr inbounds %"class.base::WeakPtr", %"class.base::WeakPtr"* %8, i64 0, i32 0, i32 1
  %28 = load i64, i64* %27, align 8, !noalias !6
  store i64 %28, i64* %26, align 8, !noalias !6
  %29 = getelementptr inbounds i8, i8* %18, i64 64
  %30 = bitcast i8* %29 to %"class.network::SharedURLLoaderFactory"**
  store %"class.network::SharedURLLoaderFactory"* %2, %"class.network::SharedURLLoaderFactory"** %30, align 8, !noalias !6
  %31 = icmp eq %"class.network::SharedURLLoaderFactory"* %2, null
  br i1 %31, label %34, label %32

32:                                               ; preds = %5
  %33 = getelementptr inbounds %"class.network::SharedURLLoaderFactory", %"class.network::SharedURLLoaderFactory"* %2, i64 0, i32 1, i32 0
  call void @_ZNK4base6subtle14RefCountedBase10AddRefImplEv(%"class.base::subtle::RefCountedBase"* %33) #7, !noalias !6
  br label %34

34:                                               ; preds = %5, %32
  %35 = bitcast %"class.base::OnceCallback.20"* %7 to i8**
  store i8* %18, i8** %35, align 8, !alias.scope !6
  %36 = bitcast %"class.syncer::TrustedVaultAccessTokenFetcher"* %3 to void (%"class.syncer::TrustedVaultAccessTokenFetcher"*, %struct.CoreAccountId*, %"class.base::OnceCallback.20"*)***
  %37 = load void (%"class.syncer::TrustedVaultAccessTokenFetcher"*, %struct.CoreAccountId*, %"class.base::OnceCallback.20"*)**, void (%"class.syncer::TrustedVaultAccessTokenFetcher"*, %struct.CoreAccountId*, %"class.base::OnceCallback.20"*)*** %36, align 8
  %38 = getelementptr inbounds void (%"class.syncer::TrustedVaultAccessTokenFetcher"*, %struct.CoreAccountId*, %"class.base::OnceCallback.20"*)*, void (%"class.syncer::TrustedVaultAccessTokenFetcher"*, %struct.CoreAccountId*, %"class.base::OnceCallback.20"*)** %37, i64 2
  %39 = load void (%"class.syncer::TrustedVaultAccessTokenFetcher"*, %struct.CoreAccountId*, %"class.base::OnceCallback.20"*)*, void (%"class.syncer::TrustedVaultAccessTokenFetcher"*, %struct.CoreAccountId*, %"class.base::OnceCallback.20"*)** %38, align 8
  call void %39(%"class.syncer::TrustedVaultAccessTokenFetcher"* %3, %struct.CoreAccountId* %1, %"class.base::OnceCallback.20"* nonnull %7) #7
  %40 = getelementptr inbounds %"class.base::OnceCallback.20", %"class.base::OnceCallback.20"* %7, i64 0, i32 0
  call void @_ZN4base8internal12CallbackBaseD2Ev(%"class.base::internal::CallbackBase"* nonnull %40) #7
  call void @_ZN4base8internal11WeakPtrBaseD2Ev(%"class.base::internal::WeakPtrBase"* nonnull %17) #7
  call void @llvm.lifetime.end.p0i8(i64 16, i8* nonnull %12) #7
  br i1 %31, label %54, label %41

41:                                               ; preds = %34
  %42 = getelementptr inbounds %"class.network::SharedURLLoaderFactory", %"class.network::SharedURLLoaderFactory"* %2, i64 0, i32 1
  %43 = getelementptr inbounds %"class.base::RefCounted", %"class.base::RefCounted"* %42, i64 0, i32 0
  call void @_ZNK4base6subtle14RefCountedBase11ReleaseImplEv(%"class.base::subtle::RefCountedBase"* %43) #7
  %44 = getelementptr inbounds %"class.base::RefCounted", %"class.base::RefCounted"* %42, i64 0, i32 0, i32 0
  %45 = load i32, i32* %44, align 4
  %46 = icmp eq i32 %45, 0
  br i1 %46, label %47, label %54

47:                                               ; preds = %41
  %48 = getelementptr inbounds %"class.base::RefCounted", %"class.base::RefCounted"* %42, i64 -2
  %49 = bitcast %"class.base::RefCounted"* %48 to %"class.network::SharedURLLoaderFactory"*
  %50 = bitcast %"class.base::RefCounted"* %48 to void (%"class.network::SharedURLLoaderFactory"*)***
  %51 = load void (%"class.network::SharedURLLoaderFactory"*)**, void (%"class.network::SharedURLLoaderFactory"*)*** %50, align 8
  %52 = getelementptr inbounds void (%"class.network::SharedURLLoaderFactory"*)*, void (%"class.network::SharedURLLoaderFactory"*)** %51, i64 1
  %53 = load void (%"class.network::SharedURLLoaderFactory"*)*, void (%"class.network::SharedURLLoaderFactory"*)** %52, align 8
  call void %53(%"class.network::SharedURLLoaderFactory"* nonnull %49) #7
  br label %54

54:                                               ; preds = %34, %41, %47
  ret void
}

; Function Attrs: argmemonly nounwind
declare void @llvm.lifetime.start.p0i8(i64 immarg, i8* nocapture) #4

; Function Attrs: nounwind ssp uwtable
define hidden void @_ZN6syncer19TrustedVaultRequest20OnAccessTokenFetchedE13scoped_refptrIN7network22SharedURLLoaderFactoryEEN4absl8optionalIN6signin15AccessTokenInfoEEE(%"class.syncer::TrustedVaultRequest"*, %"class.network::SharedURLLoaderFactory"*, %"class.absl::optional.22"*) #0 align 2 {
  %4 = alloca %"class.base::OnceCallback", align 8
  %5 = alloca %"class.std::__1::basic_string", align 8
  %6 = alloca %"class.base::OnceCallback.27", align 8
  %7 = getelementptr inbounds %"class.absl::optional.22", %"class.absl::optional.22"* %2, i64 0, i32 0, i32 0, i32 0, i32 0
  %8 = load i8, i8* %7, align 8, !range !2
  %9 = icmp eq i8 %8, 0
  br i1 %9, label %10, label %31

10:                                               ; preds = %3
  %11 = bitcast %"class.std::__1::basic_string"* %5 to i8*
  call void @llvm.lifetime.start.p0i8(i64 24, i8* nonnull %11) #7
  call void @llvm.memset.p0i8.i64(i8* nonnull align 8 %11, i8 0, i64 24, i1 false) #7
  %12 = getelementptr inbounds %"class.syncer::TrustedVaultRequest", %"class.syncer::TrustedVaultRequest"* %0, i64 0, i32 4
  %13 = bitcast %"class.base::OnceCallback"* %4 to i8*
  call void @llvm.lifetime.start.p0i8(i64 8, i8* nonnull %13) #7
  %14 = getelementptr inbounds %"class.base::OnceCallback", %"class.base::OnceCallback"* %12, i64 0, i32 0, i32 0, i32 0
  %15 = bitcast %"class.base::OnceCallback"* %12 to i64*
  %16 = load i64, i64* %15, align 8
  %17 = bitcast %"class.base::OnceCallback"* %4 to i64*
  store i64 %16, i64* %17, align 8
  store %"class.base::internal::BindStateBase"* null, %"class.base::internal::BindStateBase"** %14, align 8
  %18 = getelementptr inbounds %"class.base::OnceCallback", %"class.base::OnceCallback"* %4, i64 0, i32 0
  %19 = inttoptr i64 %16 to %"class.base::internal::BindStateBase"*
  %20 = getelementptr inbounds %"class.base::internal::BindStateBase", %"class.base::internal::BindStateBase"* %19, i64 0, i32 1
  %21 = bitcast void ()** %20 to void (%"class.base::internal::BindStateBase"*, i32, %"class.std::__1::basic_string"*)**
  %22 = load void (%"class.base::internal::BindStateBase"*, i32, %"class.std::__1::basic_string"*)*, void (%"class.base::internal::BindStateBase"*, i32, %"class.std::__1::basic_string"*)** %21, align 8
  call void %22(%"class.base::internal::BindStateBase"* %19, i32 3, %"class.std::__1::basic_string"* nonnull dereferenceable(24) %5) #7
  call void @_ZN4base8internal12CallbackBaseD2Ev(%"class.base::internal::CallbackBase"* nonnull %18) #7
  call void @llvm.lifetime.end.p0i8(i64 8, i8* nonnull %13) #7
  %23 = bitcast %"class.std::__1::basic_string"* %5 to %"struct.std::__1::basic_string<char, std::__1::char_traits<char>, std::__1::allocator<char> >::__short"*
  %24 = getelementptr inbounds %"struct.std::__1::basic_string<char, std::__1::char_traits<char>, std::__1::allocator<char> >::__short", %"struct.std::__1::basic_string<char, std::__1::char_traits<char>, std::__1::allocator<char> >::__short"* %23, i64 0, i32 1, i32 0
  %25 = load i8, i8* %24, align 1
  %26 = icmp slt i8 %25, 0
  br i1 %26, label %27, label %30

27:                                               ; preds = %10
  %28 = getelementptr inbounds %"class.std::__1::basic_string", %"class.std::__1::basic_string"* %5, i64 0, i32 0, i32 0, i32 0, i32 0, i32 0, i32 0
  %29 = load i8*, i8** %28, align 8
  call void @_ZdlPv(i8* %29) #8
  br label %30

30:                                               ; preds = %10, %27
  call void @llvm.lifetime.end.p0i8(i64 24, i8* nonnull %11) #7
  br label %69

31:                                               ; preds = %3
  %32 = icmp eq %"class.network::SharedURLLoaderFactory"* %1, null
  br i1 %32, label %38, label %33

33:                                               ; preds = %31
  %34 = getelementptr inbounds %"class.network::SharedURLLoaderFactory", %"class.network::SharedURLLoaderFactory"* %1, i64 0, i32 1, i32 0
  tail call void @_ZNK4base6subtle14RefCountedBase10AddRefImplEv(%"class.base::subtle::RefCountedBase"* %34) #7
  %35 = load i8, i8* %7, align 8
  %36 = icmp eq i8 %35, 0
  br i1 %36, label %37, label %38, !prof !11

37:                                               ; preds = %33
  tail call void @llvm.trap() #7
  unreachable

38:                                               ; preds = %31, %33
  %39 = getelementptr inbounds %"class.absl::optional.22", %"class.absl::optional.22"* %2, i64 0, i32 0, i32 0, i32 0, i32 1, i32 0, i32 0
  %40 = tail call %"class.network::SimpleURLLoader"* @_ZNK6syncer19TrustedVaultRequest15CreateURLLoaderE13scoped_refptrIN7network22SharedURLLoaderFactoryEERKNSt3__112basic_stringIcNS5_11char_traitsIcEENS5_9allocatorIcEEEE(%"class.syncer::TrustedVaultRequest"* %0, %"class.network::SharedURLLoaderFactory"* %1, %"class.std::__1::basic_string"* dereferenceable(24) %39)
  %41 = ptrtoint %"class.network::SimpleURLLoader"* %40 to i64
  %42 = getelementptr inbounds %"class.syncer::TrustedVaultRequest", %"class.syncer::TrustedVaultRequest"* %0, i64 0, i32 5
  %43 = getelementptr inbounds %"class.std::__1::unique_ptr.6", %"class.std::__1::unique_ptr.6"* %42, i64 0, i32 0, i32 0, i32 0
  %44 = load %"class.network::SimpleURLLoader"*, %"class.network::SimpleURLLoader"** %43, align 8
  %45 = bitcast %"class.std::__1::unique_ptr.6"* %42 to i64*
  store i64 %41, i64* %45, align 8
  %46 = icmp eq %"class.network::SimpleURLLoader"* %44, null
  br i1 %46, label %53, label %47

47:                                               ; preds = %38
  %48 = bitcast %"class.network::SimpleURLLoader"* %44 to void (%"class.network::SimpleURLLoader"*)***
  %49 = load void (%"class.network::SimpleURLLoader"*)**, void (%"class.network::SimpleURLLoader"*)*** %48, align 8
  %50 = getelementptr inbounds void (%"class.network::SimpleURLLoader"*)*, void (%"class.network::SimpleURLLoader"*)** %49, i64 1
  %51 = load void (%"class.network::SimpleURLLoader"*)*, void (%"class.network::SimpleURLLoader"*)** %50, align 8
  tail call void %51(%"class.network::SimpleURLLoader"* nonnull %44) #7
  %52 = load %"class.network::SimpleURLLoader"*, %"class.network::SimpleURLLoader"** %43, align 8
  br label %53

53:                                               ; preds = %47, %38
  %54 = phi %"class.network::SimpleURLLoader"* [ %52, %47 ], [ %40, %38 ]
  %55 = getelementptr inbounds %"class.network::SharedURLLoaderFactory", %"class.network::SharedURLLoaderFactory"* %1, i64 0, i32 0
  %56 = ptrtoint %"class.syncer::TrustedVaultRequest"* %0 to i64
  %57 = tail call i8* @_Znwm(i64 56) #8, !noalias !12
  %58 = bitcast i8* %57 to %"class.base::internal::BindStateBase"*
  tail call void @_ZN4base8internal13BindStateBaseC2EPFvvEPFvPKS1_E(%"class.base::internal::BindStateBase"* nonnull %58, void ()* bitcast (void (%"class.base::internal::BindStateBase"*, %"class.std::__1::unique_ptr.28"*)* @_ZN4base8internal7InvokerINS0_9BindStateIMN6syncer19TrustedVaultRequestEFvNSt3__110unique_ptrINS5_12basic_stringIcNS5_11char_traitsIcEENS5_9allocatorIcEEEENS5_14default_deleteISC_EEEEEJNS0_17UnretainedWrapperIS4_EEEEEFvSF_EE7RunOnceEPNS0_13BindStateBaseEOSF_ to void ()*), void (%"class.base::internal::BindStateBase"*)* nonnull @_ZN4base8internal9BindStateIMN6syncer19TrustedVaultRequestEFvNSt3__110unique_ptrINS4_12basic_stringIcNS4_11char_traitsIcEENS4_9allocatorIcEEEENS4_14default_deleteISB_EEEEEJNS0_17UnretainedWrapperIS3_EEEE7DestroyEPKNS0_13BindStateBaseE) #7, !noalias !12
  %59 = getelementptr inbounds i8, i8* %57, i64 32
  %60 = bitcast i8* %59 to <2 x i64>*
  store <2 x i64> <i64 ptrtoint (void (%"class.syncer::TrustedVaultRequest"*, %"class.std::__1::basic_string"*)* @_ZN6syncer19TrustedVaultRequest17OnURLLoadCompleteENSt3__110unique_ptrINS1_12basic_stringIcNS1_11char_traitsIcEENS1_9allocatorIcEEEENS1_14default_deleteIS8_EEEE to i64), i64 0>, <2 x i64>* %60, align 8, !noalias !12
  %61 = getelementptr inbounds i8, i8* %57, i64 48
  %62 = bitcast i8* %61 to i64*
  store i64 %56, i64* %62, align 8, !noalias !12
  %63 = bitcast %"class.base::OnceCallback.27"* %6 to i8**
  store i8* %57, i8** %63, align 8, !alias.scope !12
  %64 = bitcast %"class.network::SimpleURLLoader"* %54 to void (%"class.network::SimpleURLLoader"*, %"class.network::mojom::URLLoaderFactory"*, %"class.base::OnceCallback.27"*)***
  %65 = load void (%"class.network::SimpleURLLoader"*, %"class.network::mojom::URLLoaderFactory"*, %"class.base::OnceCallback.27"*)**, void (%"class.network::SimpleURLLoader"*, %"class.network::mojom::URLLoaderFactory"*, %"class.base::OnceCallback.27"*)*** %64, align 8
  %66 = getelementptr inbounds void (%"class.network::SimpleURLLoader"*, %"class.network::mojom::URLLoaderFactory"*, %"class.base::OnceCallback.27"*)*, void (%"class.network::SimpleURLLoader"*, %"class.network::mojom::URLLoaderFactory"*, %"class.base::OnceCallback.27"*)** %65, i64 3
  %67 = load void (%"class.network::SimpleURLLoader"*, %"class.network::mojom::URLLoaderFactory"*, %"class.base::OnceCallback.27"*)*, void (%"class.network::SimpleURLLoader"*, %"class.network::mojom::URLLoaderFactory"*, %"class.base::OnceCallback.27"*)** %66, align 8
  call void %67(%"class.network::SimpleURLLoader"* %54, %"class.network::mojom::URLLoaderFactory"* %55, %"class.base::OnceCallback.27"* nonnull %6) #7
  %68 = getelementptr inbounds %"class.base::OnceCallback.27", %"class.base::OnceCallback.27"* %6, i64 0, i32 0
  call void @_ZN4base8internal12CallbackBaseD2Ev(%"class.base::internal::CallbackBase"* nonnull %68) #7
  br label %69

69:                                               ; preds = %53, %30
  %70 = icmp eq %"class.network::SharedURLLoaderFactory"* %1, null
  br i1 %70, label %84, label %71

71:                                               ; preds = %69
  %72 = getelementptr inbounds %"class.network::SharedURLLoaderFactory", %"class.network::SharedURLLoaderFactory"* %1, i64 0, i32 1
  %73 = getelementptr inbounds %"class.base::RefCounted", %"class.base::RefCounted"* %72, i64 0, i32 0
  call void @_ZNK4base6subtle14RefCountedBase11ReleaseImplEv(%"class.base::subtle::RefCountedBase"* %73) #7
  %74 = getelementptr inbounds %"class.base::RefCounted", %"class.base::RefCounted"* %72, i64 0, i32 0, i32 0
  %75 = load i32, i32* %74, align 4
  %76 = icmp eq i32 %75, 0
  br i1 %76, label %77, label %84

77:                                               ; preds = %71
  %78 = getelementptr inbounds %"class.base::RefCounted", %"class.base::RefCounted"* %72, i64 -2
  %79 = bitcast %"class.base::RefCounted"* %78 to %"class.network::SharedURLLoaderFactory"*
  %80 = bitcast %"class.base::RefCounted"* %78 to void (%"class.network::SharedURLLoaderFactory"*)***
  %81 = load void (%"class.network::SharedURLLoaderFactory"*)**, void (%"class.network::SharedURLLoaderFactory"*)*** %80, align 8
  %82 = getelementptr inbounds void (%"class.network::SharedURLLoaderFactory"*)*, void (%"class.network::SharedURLLoaderFactory"*)** %81, i64 1
  %83 = load void (%"class.network::SharedURLLoaderFactory"*)*, void (%"class.network::SharedURLLoaderFactory"*)** %82, align 8
  call void %83(%"class.network::SharedURLLoaderFactory"* nonnull %79) #7
  br label %84

84:                                               ; preds = %69, %71, %77
  ret void
}

; Function Attrs: nounwind
declare void @_ZN4base8internal11WeakPtrBaseD2Ev(%"class.base::internal::WeakPtrBase"*) unnamed_addr #2

; Function Attrs: argmemonly nounwind
declare void @llvm.lifetime.end.p0i8(i64 immarg, i8* nocapture) #4

; Function Attrs: nounwind ssp uwtable
define hidden void @_ZN6syncer19TrustedVaultRequest40RunCompletionCallbackAndMaybeDestroySelfENS0_10HttpStatusERKNSt3__112basic_stringIcNS2_11char_traitsIcEENS2_9allocatorIcEEEE(%"class.syncer::TrustedVaultRequest"* nocapture, i32, %"class.std::__1::basic_string"* dereferenceable(24)) local_unnamed_addr #0 align 2 {
  %4 = alloca %"class.base::OnceCallback", align 8
  %5 = getelementptr inbounds %"class.syncer::TrustedVaultRequest", %"class.syncer::TrustedVaultRequest"* %0, i64 0, i32 4
  %6 = bitcast %"class.base::OnceCallback"* %4 to i8*
  call void @llvm.lifetime.start.p0i8(i64 8, i8* nonnull %6) #7
  %7 = getelementptr inbounds %"class.base::OnceCallback", %"class.base::OnceCallback"* %5, i64 0, i32 0, i32 0, i32 0
  %8 = bitcast %"class.base::OnceCallback"* %5 to i64*
  %9 = load i64, i64* %8, align 8
  %10 = bitcast %"class.base::OnceCallback"* %4 to i64*
  store i64 %9, i64* %10, align 8
  store %"class.base::internal::BindStateBase"* null, %"class.base::internal::BindStateBase"** %7, align 8
  %11 = getelementptr inbounds %"class.base::OnceCallback", %"class.base::OnceCallback"* %4, i64 0, i32 0
  %12 = inttoptr i64 %9 to %"class.base::internal::BindStateBase"*
  %13 = getelementptr inbounds %"class.base::internal::BindStateBase", %"class.base::internal::BindStateBase"* %12, i64 0, i32 1
  %14 = bitcast void ()** %13 to void (%"class.base::internal::BindStateBase"*, i32, %"class.std::__1::basic_string"*)**
  %15 = load void (%"class.base::internal::BindStateBase"*, i32, %"class.std::__1::basic_string"*)*, void (%"class.base::internal::BindStateBase"*, i32, %"class.std::__1::basic_string"*)** %14, align 8
  tail call void %15(%"class.base::internal::BindStateBase"* %12, i32 %1, %"class.std::__1::basic_string"* dereferenceable(24) %2) #7
  call void @_ZN4base8internal12CallbackBaseD2Ev(%"class.base::internal::CallbackBase"* nonnull %11) #7
  call void @llvm.lifetime.end.p0i8(i64 8, i8* nonnull %6) #7
  ret void
}

; Function Attrs: nounwind ssp uwtable
define hidden %"class.network::SimpleURLLoader"* @_ZNK6syncer19TrustedVaultRequest15CreateURLLoaderE13scoped_refptrIN7network22SharedURLLoaderFactoryEERKNSt3__112basic_stringIcNS5_11char_traitsIcEENS5_9allocatorIcEEEE(%"class.syncer::TrustedVaultRequest"*, %"class.network::SharedURLLoaderFactory"*, %"class.std::__1::basic_string"* dereferenceable(24)) local_unnamed_addr #0 align 2 {
  %4 = alloca %class.GURL, align 8
  %5 = alloca %"class.std::__1::basic_string", align 8
  %6 = alloca %"class.std::__1::basic_string", align 8
  %7 = alloca [15 x i8], align 8
  %8 = alloca %"class.base::BasicStringPiece", align 8
  %9 = alloca %"class.std::__1::basic_string", align 8
  %10 = alloca %"struct.net::NetworkTrafficAnnotationTag", align 4
  %11 = alloca %"class.std::__1::basic_string", align 8
  %12 = tail call i8* @_Znwm(i64 1640) #8
  %13 = bitcast i8* %12 to %"struct.network::ResourceRequest"*
  tail call void @_ZN7network15ResourceRequestC1Ev(%"struct.network::ResourceRequest"* nonnull %13) #7
  %14 = bitcast %class.GURL* %4 to i8*
  call void @llvm.lifetime.start.p0i8(i64 120, i8* nonnull %14) #7
  %15 = getelementptr inbounds %"class.syncer::TrustedVaultRequest", %"class.syncer::TrustedVaultRequest"* %0, i64 0, i32 2
  %16 = bitcast %"class.std::__1::basic_string"* %5 to i8*
  call void @llvm.lifetime.start.p0i8(i64 24, i8* nonnull %16) #7
  %17 = bitcast %"class.std::__1::basic_string"* %5 to %"struct.std::__1::basic_string<char, std::__1::char_traits<char>, std::__1::allocator<char> >::__short"*
  %18 = getelementptr inbounds %"struct.std::__1::basic_string<char, std::__1::char_traits<char>, std::__1::allocator<char> >::__short", %"struct.std::__1::basic_string<char, std::__1::char_traits<char>, std::__1::allocator<char> >::__short"* %17, i64 0, i32 1, i32 0
  store i8 3, i8* %18, align 1
  call void @llvm.memcpy.p0i8.p0i8.i64(i8* nonnull align 8 %16, i8* align 1 getelementptr inbounds ([4 x i8], [4 x i8]* @_ZN6syncer12_GLOBAL__N_133kQueryParameterAlternateOutputKeyE, i64 0, i64 0), i64 3, i1 false) #7
  %19 = getelementptr inbounds i8, i8* %16, i64 3
  store i8 0, i8* %19, align 1
  %20 = bitcast %"class.std::__1::basic_string"* %6 to i8*
  call void @llvm.lifetime.start.p0i8(i64 24, i8* nonnull %20) #7
  %21 = bitcast %"class.std::__1::basic_string"* %6 to %"struct.std::__1::basic_string<char, std::__1::char_traits<char>, std::__1::allocator<char> >::__short"*
  %22 = getelementptr inbounds %"struct.std::__1::basic_string<char, std::__1::char_traits<char>, std::__1::allocator<char> >::__short", %"struct.std::__1::basic_string<char, std::__1::char_traits<char>, std::__1::allocator<char> >::__short"* %21, i64 0, i32 1, i32 0
  store i8 5, i8* %22, align 1
  call void @llvm.memcpy.p0i8.p0i8.i64(i8* nonnull align 8 %20, i8* align 1 getelementptr inbounds ([6 x i8], [6 x i8]* @_ZN6syncer12_GLOBAL__N_135kQueryParameterAlternateOutputProtoE, i64 0, i64 0), i64 5, i1 false) #7
  %23 = getelementptr inbounds i8, i8* %20, i64 5
  store i8 0, i8* %23, align 1
  call void @_ZN3net20AppendQueryParameterERK4GURLRKNSt3__112basic_stringIcNS3_11char_traitsIcEENS3_9allocatorIcEEEESB_(%class.GURL* nonnull sret %4, %class.GURL* dereferenceable(120) %15, %"class.std::__1::basic_string"* nonnull dereferenceable(24) %5, %"class.std::__1::basic_string"* nonnull dereferenceable(24) %6) #7
  %24 = getelementptr inbounds i8, i8* %12, i64 24
  %25 = bitcast i8* %24 to %class.GURL*
  %26 = call dereferenceable(120) %class.GURL* @_ZN4GURLaSEOS_(%class.GURL* %25, %class.GURL* nonnull dereferenceable(120) %4) #7
  call void @_ZN4GURLD1Ev(%class.GURL* nonnull %4) #7
  %27 = load i8, i8* %22, align 1
  %28 = icmp slt i8 %27, 0
  br i1 %28, label %29, label %32

29:                                               ; preds = %3
  %30 = getelementptr inbounds %"class.std::__1::basic_string", %"class.std::__1::basic_string"* %6, i64 0, i32 0, i32 0, i32 0, i32 0, i32 0, i32 0
  %31 = load i8*, i8** %30, align 8
  call void @_ZdlPv(i8* %31) #8
  br label %32

32:                                               ; preds = %3, %29
  call void @llvm.lifetime.end.p0i8(i64 24, i8* nonnull %20) #7
  %33 = load i8, i8* %18, align 1
  %34 = icmp slt i8 %33, 0
  br i1 %34, label %35, label %38

35:                                               ; preds = %32
  %36 = getelementptr inbounds %"class.std::__1::basic_string", %"class.std::__1::basic_string"* %5, i64 0, i32 0, i32 0, i32 0, i32 0, i32 0, i32 0
  %37 = load i8*, i8** %36, align 8
  call void @_ZdlPv(i8* %37) #8
  br label %38

38:                                               ; preds = %32, %35
  call void @llvm.lifetime.end.p0i8(i64 24, i8* nonnull %16) #7
  call void @llvm.lifetime.end.p0i8(i64 120, i8* nonnull %14) #7
  %39 = getelementptr inbounds [15 x i8], [15 x i8]* %7, i64 0, i64 0
  call void @llvm.lifetime.start.p0i8(i64 15, i8* nonnull %39)
  %40 = getelementptr inbounds %"class.syncer::TrustedVaultRequest", %"class.syncer::TrustedVaultRequest"* %0, i64 0, i32 1
  %41 = load i32, i32* %40, align 8
  switch i32 %41, label %43 [
    i32 0, label %44
    i32 1, label %42
  ]

42:                                               ; preds = %38
  br label %44

43:                                               ; preds = %38
  call void @llvm.memset.p0i8.i64(i8* nonnull align 8 %39, i8 0, i64 15, i1 false), !alias.scope !17
  br label %44

44:                                               ; preds = %38, %42, %43
  %45 = phi i8* [ null, %43 ], [ inttoptr (i64 1414745936 to i8*), %42 ], [ inttoptr (i64 5522759 to i8*), %38 ]
  %46 = phi i8 [ 0, %43 ], [ 4, %42 ], [ 3, %38 ]
  %47 = getelementptr inbounds i8, i8* %12, i64 23
  %48 = load i8, i8* %47, align 1
  %49 = icmp slt i8 %48, 0
  %50 = bitcast i8* %12 to i8**
  br i1 %49, label %51, label %53

51:                                               ; preds = %44
  %52 = load i8*, i8** %50, align 8
  call void @_ZdlPv(i8* %52) #8
  br label %53

53:                                               ; preds = %44, %51
  store i8* %45, i8** %50, align 8
  %54 = getelementptr inbounds i8, i8* %12, i64 8
  call void @llvm.memcpy.p0i8.p0i8.i64(i8* align 8 %54, i8* nonnull align 8 %39, i64 15, i1 false)
  store i8 %46, i8* %47, align 1
  call void @llvm.lifetime.end.p0i8(i64 15, i8* nonnull %39)
  %55 = getelementptr inbounds i8, i8* %12, i64 620
  %56 = bitcast i8* %55 to i32*
  store i32 0, i32* %56, align 4
  %57 = getelementptr inbounds i8, i8* %12, i64 544
  %58 = bitcast i8* %57 to %"class.net::HttpRequestHeaders"*
  %59 = bitcast %"class.base::BasicStringPiece"* %8 to i8*
  call void @llvm.lifetime.start.p0i8(i64 16, i8* nonnull %59) #7
  %60 = bitcast %"class.std::__1::basic_string"* %9 to i8*
  call void @llvm.lifetime.start.p0i8(i64 24, i8* nonnull %60) #7
  %61 = bitcast %"class.std::__1::basic_string"* %2 to %"struct.std::__1::basic_string<char, std::__1::char_traits<char>, std::__1::allocator<char> >::__short"*
  %62 = getelementptr inbounds %"struct.std::__1::basic_string<char, std::__1::char_traits<char>, std::__1::allocator<char> >::__short", %"struct.std::__1::basic_string<char, std::__1::char_traits<char>, std::__1::allocator<char> >::__short"* %61, i64 0, i32 1, i32 0
  %63 = load i8, i8* %62, align 1
  %64 = icmp slt i8 %63, 0
  %65 = getelementptr inbounds %"class.std::__1::basic_string", %"class.std::__1::basic_string"* %2, i64 0, i32 0, i32 0, i32 0, i32 0, i32 0, i32 0
  %66 = load i8*, i8** %65, align 8
  %67 = bitcast %"class.std::__1::basic_string"* %2 to i8*
  %68 = select i1 %64, i8* %66, i8* %67
  call void (%"class.std::__1::basic_string"*, i8*, ...) @_ZN4base12StringPrintfEPKcz(%"class.std::__1::basic_string"* nonnull sret %9, i8* getelementptr inbounds ([10 x i8], [10 x i8]* @.str, i64 0, i64 0), i8* %68) #7
  %69 = getelementptr inbounds %"class.base::BasicStringPiece", %"class.base::BasicStringPiece"* %8, i64 0, i32 0
  %70 = bitcast %"class.std::__1::basic_string"* %9 to %"struct.std::__1::basic_string<char, std::__1::char_traits<char>, std::__1::allocator<char> >::__short"*
  %71 = getelementptr inbounds %"struct.std::__1::basic_string<char, std::__1::char_traits<char>, std::__1::allocator<char> >::__short", %"struct.std::__1::basic_string<char, std::__1::char_traits<char>, std::__1::allocator<char> >::__short"* %70, i64 0, i32 1, i32 0
  %72 = load i8, i8* %71, align 1
  %73 = icmp slt i8 %72, 0
  %74 = getelementptr inbounds %"class.std::__1::basic_string", %"class.std::__1::basic_string"* %9, i64 0, i32 0, i32 0, i32 0, i32 0, i32 0, i32 0
  %75 = load i8*, i8** %74, align 8
  %76 = select i1 %73, i8* %75, i8* %60
  store i8* %76, i8** %69, align 8
  %77 = getelementptr inbounds %"class.base::BasicStringPiece", %"class.base::BasicStringPiece"* %8, i64 0, i32 1
  %78 = getelementptr inbounds %"class.std::__1::basic_string", %"class.std::__1::basic_string"* %9, i64 0, i32 0, i32 0, i32 0, i32 0, i32 0, i32 1
  %79 = load i64, i64* %78, align 8
  %80 = zext i8 %72 to i64
  %81 = select i1 %73, i64 %79, i64 %80
  store i64 %81, i64* %77, align 8
  call void @_ZN3net18HttpRequestHeaders9SetHeaderERKN4base16BasicStringPieceIcNSt3__111char_traitsIcEEEES8_(%"class.net::HttpRequestHeaders"* %58, %"class.base::BasicStringPiece"* nonnull dereferenceable(16) @.ref.tmp, %"class.base::BasicStringPiece"* nonnull dereferenceable(16) %8) #7
  %82 = load i8, i8* %71, align 1
  %83 = icmp slt i8 %82, 0
  br i1 %83, label %84, label %86

84:                                               ; preds = %53
  %85 = load i8*, i8** %74, align 8
  call void @_ZdlPv(i8* %85) #8
  br label %86

86:                                               ; preds = %53, %84
  call void @llvm.lifetime.end.p0i8(i64 24, i8* nonnull %60) #7
  call void @llvm.lifetime.end.p0i8(i64 16, i8* nonnull %59) #7
  %87 = bitcast %"struct.net::NetworkTrafficAnnotationTag"* %10 to i8*
  call void @llvm.lifetime.start.p0i8(i64 4, i8* nonnull %87) #7
  %88 = call i32 @_ZN3net30DefineNetworkTrafficAnnotationILm22ELm924EEENS_27NetworkTrafficAnnotationTagERAT__KcRAT0__S2_([22 x i8]* nonnull dereferenceable(22) @.str.3, [924 x i8]* nonnull dereferenceable(924) @.str.4) #7
  %89 = getelementptr inbounds %"struct.net::NetworkTrafficAnnotationTag", %"struct.net::NetworkTrafficAnnotationTag"* %10, i64 0, i32 0
  store i32 %88, i32* %89, align 4
  %90 = call %"class.network::SimpleURLLoader"* @_ZN7network15SimpleURLLoader6CreateENSt3__110unique_ptrINS_15ResourceRequestENS1_14default_deleteIS3_EEEERKN3net27NetworkTrafficAnnotationTagE(%"struct.network::ResourceRequest"* nonnull %13, %"struct.net::NetworkTrafficAnnotationTag"* nonnull dereferenceable(4) %10) #7
  call void @llvm.lifetime.end.p0i8(i64 4, i8* nonnull %87) #7
  %91 = getelementptr inbounds %"class.syncer::TrustedVaultRequest", %"class.syncer::TrustedVaultRequest"* %0, i64 0, i32 3, i32 0, i32 0, i32 0, i32 0
  %92 = load i8, i8* %91, align 8, !range !2
  %93 = icmp eq i8 %92, 0
  br i1 %93, label %110, label %94

94:                                               ; preds = %86
  %95 = getelementptr inbounds %"class.syncer::TrustedVaultRequest", %"class.syncer::TrustedVaultRequest"* %0, i64 0, i32 3, i32 0, i32 0, i32 0, i32 1, i32 0
  %96 = bitcast %"class.std::__1::basic_string"* %11 to i8*
  call void @llvm.lifetime.start.p0i8(i64 24, i8* nonnull %96) #7
  %97 = bitcast %"class.std::__1::basic_string"* %11 to %"struct.std::__1::basic_string<char, std::__1::char_traits<char>, std::__1::allocator<char> >::__short"*
  %98 = getelementptr inbounds %"struct.std::__1::basic_string<char, std::__1::char_traits<char>, std::__1::allocator<char> >::__short", %"struct.std::__1::basic_string<char, std::__1::char_traits<char>, std::__1::allocator<char> >::__short"* %97, i64 0, i32 1, i32 0
  store i8 22, i8* %98, align 1
  call void @llvm.memcpy.p0i8.p0i8.i64(i8* nonnull align 8 %96, i8* align 16 getelementptr inbounds ([23 x i8], [23 x i8]* @_ZN6syncer12_GLOBAL__N_120kProtobufContentTypeE, i64 0, i64 0), i64 22, i1 false) #7
  %99 = getelementptr inbounds i8, i8* %96, i64 22
  store i8 0, i8* %99, align 2
  %100 = bitcast %"class.network::SimpleURLLoader"* %90 to void (%"class.network::SimpleURLLoader"*, %"class.std::__1::basic_string"*, %"class.std::__1::basic_string"*)***
  %101 = load void (%"class.network::SimpleURLLoader"*, %"class.std::__1::basic_string"*, %"class.std::__1::basic_string"*)**, void (%"class.network::SimpleURLLoader"*, %"class.std::__1::basic_string"*, %"class.std::__1::basic_string"*)*** %100, align 8
  %102 = getelementptr inbounds void (%"class.network::SimpleURLLoader"*, %"class.std::__1::basic_string"*, %"class.std::__1::basic_string"*)*, void (%"class.network::SimpleURLLoader"*, %"class.std::__1::basic_string"*, %"class.std::__1::basic_string"*)** %101, i64 14
  %103 = load void (%"class.network::SimpleURLLoader"*, %"class.std::__1::basic_string"*, %"class.std::__1::basic_string"*)*, void (%"class.network::SimpleURLLoader"*, %"class.std::__1::basic_string"*, %"class.std::__1::basic_string"*)** %102, align 8
  call void %103(%"class.network::SimpleURLLoader"* %90, %"class.std::__1::basic_string"* dereferenceable(24) %95, %"class.std::__1::basic_string"* nonnull dereferenceable(24) %11) #7
  %104 = load i8, i8* %98, align 1
  %105 = icmp slt i8 %104, 0
  br i1 %105, label %106, label %109

106:                                              ; preds = %94
  %107 = getelementptr inbounds %"class.std::__1::basic_string", %"class.std::__1::basic_string"* %11, i64 0, i32 0, i32 0, i32 0, i32 0, i32 0, i32 0
  %108 = load i8*, i8** %107, align 8
  call void @_ZdlPv(i8* %108) #8
  br label %109

109:                                              ; preds = %94, %106
  call void @llvm.lifetime.end.p0i8(i64 24, i8* nonnull %96) #7
  br label %110

110:                                              ; preds = %86, %109
  %111 = icmp eq %"class.network::SharedURLLoaderFactory"* %1, null
  br i1 %111, label %125, label %112

112:                                              ; preds = %110
  %113 = getelementptr inbounds %"class.network::SharedURLLoaderFactory", %"class.network::SharedURLLoaderFactory"* %1, i64 0, i32 1
  %114 = getelementptr inbounds %"class.base::RefCounted", %"class.base::RefCounted"* %113, i64 0, i32 0
  call void @_ZNK4base6subtle14RefCountedBase11ReleaseImplEv(%"class.base::subtle::RefCountedBase"* %114) #7
  %115 = getelementptr inbounds %"class.base::RefCounted", %"class.base::RefCounted"* %113, i64 0, i32 0, i32 0
  %116 = load i32, i32* %115, align 4
  %117 = icmp eq i32 %116, 0
  br i1 %117, label %118, label %125

118:                                              ; preds = %112
  %119 = getelementptr inbounds %"class.base::RefCounted", %"class.base::RefCounted"* %113, i64 -2
  %120 = bitcast %"class.base::RefCounted"* %119 to %"class.network::SharedURLLoaderFactory"*
  %121 = bitcast %"class.base::RefCounted"* %119 to void (%"class.network::SharedURLLoaderFactory"*)***
  %122 = load void (%"class.network::SharedURLLoaderFactory"*)**, void (%"class.network::SharedURLLoaderFactory"*)*** %121, align 8
  %123 = getelementptr inbounds void (%"class.network::SharedURLLoaderFactory"*)*, void (%"class.network::SharedURLLoaderFactory"*)** %122, i64 1
  %124 = load void (%"class.network::SharedURLLoaderFactory"*)*, void (%"class.network::SharedURLLoaderFactory"*)** %123, align 8
  call void %124(%"class.network::SharedURLLoaderFactory"* nonnull %120) #7
  br label %125

125:                                              ; preds = %110, %112, %118
  ret %"class.network::SimpleURLLoader"* %90
}

; Function Attrs: nounwind ssp uwtable
define hidden void @_ZN6syncer19TrustedVaultRequest17OnURLLoadCompleteENSt3__110unique_ptrINS1_12basic_stringIcNS1_11char_traitsIcEENS1_9allocatorIcEEEENS1_14default_deleteIS8_EEEE(%"class.syncer::TrustedVaultRequest"* nocapture, %"class.std::__1::basic_string"*) #0 align 2 {
  %3 = alloca %"class.base::OnceCallback", align 8
  %4 = alloca %"class.base::OnceCallback", align 8
  %5 = alloca %"class.base::OnceCallback", align 8
  %6 = alloca %"class.base::OnceCallback", align 8
  %7 = alloca %"class.std::__1::basic_string", align 8
  %8 = alloca %"class.std::__1::basic_string", align 8
  %9 = alloca %"class.std::__1::basic_string", align 8
  %10 = getelementptr inbounds %"class.syncer::TrustedVaultRequest", %"class.syncer::TrustedVaultRequest"* %0, i64 0, i32 5, i32 0, i32 0, i32 0
  %11 = load %"class.network::SimpleURLLoader"*, %"class.network::SimpleURLLoader"** %10, align 8
  %12 = bitcast %"class.network::SimpleURLLoader"* %11 to %"class.network::mojom::URLResponseHead"* (%"class.network::SimpleURLLoader"*)***
  %13 = load %"class.network::mojom::URLResponseHead"* (%"class.network::SimpleURLLoader"*)**, %"class.network::mojom::URLResponseHead"* (%"class.network::SimpleURLLoader"*)*** %12, align 8
  %14 = getelementptr inbounds %"class.network::mojom::URLResponseHead"* (%"class.network::SimpleURLLoader"*)*, %"class.network::mojom::URLResponseHead"* (%"class.network::SimpleURLLoader"*)** %13, i64 21
  %15 = load %"class.network::mojom::URLResponseHead"* (%"class.network::SimpleURLLoader"*)*, %"class.network::mojom::URLResponseHead"* (%"class.network::SimpleURLLoader"*)** %14, align 8
  %16 = tail call %"class.network::mojom::URLResponseHead"* %15(%"class.network::SimpleURLLoader"* %11) #7
  %17 = icmp eq %"class.network::mojom::URLResponseHead"* %16, null
  br i1 %17, label %84, label %18

18:                                               ; preds = %2
  %19 = load %"class.network::SimpleURLLoader"*, %"class.network::SimpleURLLoader"** %10, align 8
  %20 = bitcast %"class.network::SimpleURLLoader"* %19 to %"class.network::mojom::URLResponseHead"* (%"class.network::SimpleURLLoader"*)***
  %21 = load %"class.network::mojom::URLResponseHead"* (%"class.network::SimpleURLLoader"*)**, %"class.network::mojom::URLResponseHead"* (%"class.network::SimpleURLLoader"*)*** %20, align 8
  %22 = getelementptr inbounds %"class.network::mojom::URLResponseHead"* (%"class.network::SimpleURLLoader"*)*, %"class.network::mojom::URLResponseHead"* (%"class.network::SimpleURLLoader"*)** %21, i64 21
  %23 = load %"class.network::mojom::URLResponseHead"* (%"class.network::SimpleURLLoader"*)*, %"class.network::mojom::URLResponseHead"* (%"class.network::SimpleURLLoader"*)** %22, align 8
  %24 = tail call %"class.network::mojom::URLResponseHead"* %23(%"class.network::SimpleURLLoader"* %19) #7
  %25 = getelementptr inbounds %"class.network::mojom::URLResponseHead", %"class.network::mojom::URLResponseHead"* %24, i64 0, i32 2, i32 0
  %26 = load %"class.net::HttpResponseHeaders"*, %"class.net::HttpResponseHeaders"** %25, align 8
  %27 = icmp eq %"class.net::HttpResponseHeaders"* %26, null
  br i1 %27, label %84, label %28

28:                                               ; preds = %18
  %29 = load %"class.network::SimpleURLLoader"*, %"class.network::SimpleURLLoader"** %10, align 8
  %30 = bitcast %"class.network::SimpleURLLoader"* %29 to %"class.network::mojom::URLResponseHead"* (%"class.network::SimpleURLLoader"*)***
  %31 = load %"class.network::mojom::URLResponseHead"* (%"class.network::SimpleURLLoader"*)**, %"class.network::mojom::URLResponseHead"* (%"class.network::SimpleURLLoader"*)*** %30, align 8
  %32 = getelementptr inbounds %"class.network::mojom::URLResponseHead"* (%"class.network::SimpleURLLoader"*)*, %"class.network::mojom::URLResponseHead"* (%"class.network::SimpleURLLoader"*)** %31, i64 21
  %33 = load %"class.network::mojom::URLResponseHead"* (%"class.network::SimpleURLLoader"*)*, %"class.network::mojom::URLResponseHead"* (%"class.network::SimpleURLLoader"*)** %32, align 8
  %34 = tail call %"class.network::mojom::URLResponseHead"* %33(%"class.network::SimpleURLLoader"* %29) #7
  %35 = getelementptr inbounds %"class.network::mojom::URLResponseHead", %"class.network::mojom::URLResponseHead"* %34, i64 0, i32 2, i32 0
  %36 = load %"class.net::HttpResponseHeaders"*, %"class.net::HttpResponseHeaders"** %35, align 8
  %37 = getelementptr inbounds %"class.net::HttpResponseHeaders", %"class.net::HttpResponseHeaders"* %36, i64 0, i32 3
  %38 = load i32, i32* %37, align 8
  switch i32 %38, label %81 [
    i32 404, label %39
    i32 412, label %60
  ]

39:                                               ; preds = %28
  %40 = bitcast %"class.std::__1::basic_string"* %7 to i8*
  call void @llvm.lifetime.start.p0i8(i64 24, i8* nonnull %40) #7
  call void @llvm.memset.p0i8.i64(i8* nonnull align 8 %40, i8 0, i64 24, i1 false) #7
  %41 = getelementptr inbounds %"class.syncer::TrustedVaultRequest", %"class.syncer::TrustedVaultRequest"* %0, i64 0, i32 4
  %42 = bitcast %"class.base::OnceCallback"* %4 to i8*
  call void @llvm.lifetime.start.p0i8(i64 8, i8* nonnull %42) #7
  %43 = getelementptr inbounds %"class.base::OnceCallback", %"class.base::OnceCallback"* %41, i64 0, i32 0, i32 0, i32 0
  %44 = bitcast %"class.base::OnceCallback"* %41 to i64*
  %45 = load i64, i64* %44, align 8
  %46 = bitcast %"class.base::OnceCallback"* %4 to i64*
  store i64 %45, i64* %46, align 8
  store %"class.base::internal::BindStateBase"* null, %"class.base::internal::BindStateBase"** %43, align 8
  %47 = getelementptr inbounds %"class.base::OnceCallback", %"class.base::OnceCallback"* %4, i64 0, i32 0
  %48 = inttoptr i64 %45 to %"class.base::internal::BindStateBase"*
  %49 = getelementptr inbounds %"class.base::internal::BindStateBase", %"class.base::internal::BindStateBase"* %48, i64 0, i32 1
  %50 = bitcast void ()** %49 to void (%"class.base::internal::BindStateBase"*, i32, %"class.std::__1::basic_string"*)**
  %51 = load void (%"class.base::internal::BindStateBase"*, i32, %"class.std::__1::basic_string"*)*, void (%"class.base::internal::BindStateBase"*, i32, %"class.std::__1::basic_string"*)** %50, align 8
  call void %51(%"class.base::internal::BindStateBase"* %48, i32 1, %"class.std::__1::basic_string"* nonnull dereferenceable(24) %7) #7
  call void @_ZN4base8internal12CallbackBaseD2Ev(%"class.base::internal::CallbackBase"* nonnull %47) #7
  call void @llvm.lifetime.end.p0i8(i64 8, i8* nonnull %42) #7
  %52 = bitcast %"class.std::__1::basic_string"* %7 to %"struct.std::__1::basic_string<char, std::__1::char_traits<char>, std::__1::allocator<char> >::__short"*
  %53 = getelementptr inbounds %"struct.std::__1::basic_string<char, std::__1::char_traits<char>, std::__1::allocator<char> >::__short", %"struct.std::__1::basic_string<char, std::__1::char_traits<char>, std::__1::allocator<char> >::__short"* %52, i64 0, i32 1, i32 0
  %54 = load i8, i8* %53, align 1
  %55 = icmp slt i8 %54, 0
  br i1 %55, label %56, label %59

56:                                               ; preds = %39
  %57 = getelementptr inbounds %"class.std::__1::basic_string", %"class.std::__1::basic_string"* %7, i64 0, i32 0, i32 0, i32 0, i32 0, i32 0, i32 0
  %58 = load i8*, i8** %57, align 8
  call void @_ZdlPv(i8* %58) #8
  br label %59

59:                                               ; preds = %39, %56
  call void @llvm.lifetime.end.p0i8(i64 24, i8* nonnull %40) #7
  br label %117

60:                                               ; preds = %28
  %61 = bitcast %"class.std::__1::basic_string"* %8 to i8*
  call void @llvm.lifetime.start.p0i8(i64 24, i8* nonnull %61) #7
  call void @llvm.memset.p0i8.i64(i8* nonnull align 8 %61, i8 0, i64 24, i1 false) #7
  %62 = getelementptr inbounds %"class.syncer::TrustedVaultRequest", %"class.syncer::TrustedVaultRequest"* %0, i64 0, i32 4
  %63 = bitcast %"class.base::OnceCallback"* %3 to i8*
  call void @llvm.lifetime.start.p0i8(i64 8, i8* nonnull %63) #7
  %64 = getelementptr inbounds %"class.base::OnceCallback", %"class.base::OnceCallback"* %62, i64 0, i32 0, i32 0, i32 0
  %65 = bitcast %"class.base::OnceCallback"* %62 to i64*
  %66 = load i64, i64* %65, align 8
  %67 = bitcast %"class.base::OnceCallback"* %3 to i64*
  store i64 %66, i64* %67, align 8
  store %"class.base::internal::BindStateBase"* null, %"class.base::internal::BindStateBase"** %64, align 8
  %68 = getelementptr inbounds %"class.base::OnceCallback", %"class.base::OnceCallback"* %3, i64 0, i32 0
  %69 = inttoptr i64 %66 to %"class.base::internal::BindStateBase"*
  %70 = getelementptr inbounds %"class.base::internal::BindStateBase", %"class.base::internal::BindStateBase"* %69, i64 0, i32 1
  %71 = bitcast void ()** %70 to void (%"class.base::internal::BindStateBase"*, i32, %"class.std::__1::basic_string"*)**
  %72 = load void (%"class.base::internal::BindStateBase"*, i32, %"class.std::__1::basic_string"*)*, void (%"class.base::internal::BindStateBase"*, i32, %"class.std::__1::basic_string"*)** %71, align 8
  call void %72(%"class.base::internal::BindStateBase"* %69, i32 2, %"class.std::__1::basic_string"* nonnull dereferenceable(24) %8) #7
  call void @_ZN4base8internal12CallbackBaseD2Ev(%"class.base::internal::CallbackBase"* nonnull %68) #7
  call void @llvm.lifetime.end.p0i8(i64 8, i8* nonnull %63) #7
  %73 = bitcast %"class.std::__1::basic_string"* %8 to %"struct.std::__1::basic_string<char, std::__1::char_traits<char>, std::__1::allocator<char> >::__short"*
  %74 = getelementptr inbounds %"struct.std::__1::basic_string<char, std::__1::char_traits<char>, std::__1::allocator<char> >::__short", %"struct.std::__1::basic_string<char, std::__1::char_traits<char>, std::__1::allocator<char> >::__short"* %73, i64 0, i32 1, i32 0
  %75 = load i8, i8* %74, align 1
  %76 = icmp slt i8 %75, 0
  br i1 %76, label %77, label %80

77:                                               ; preds = %60
  %78 = getelementptr inbounds %"class.std::__1::basic_string", %"class.std::__1::basic_string"* %8, i64 0, i32 0, i32 0, i32 0, i32 0, i32 0, i32 0
  %79 = load i8*, i8** %78, align 8
  call void @_ZdlPv(i8* %79) #8
  br label %80

80:                                               ; preds = %60, %77
  call void @llvm.lifetime.end.p0i8(i64 24, i8* nonnull %61) #7
  br label %117

81:                                               ; preds = %28
  %82 = or i32 %38, 4
  %83 = icmp eq i32 %82, 204
  br i1 %83, label %105, label %84

84:                                               ; preds = %18, %2, %81
  %85 = bitcast %"class.std::__1::basic_string"* %9 to i8*
  call void @llvm.lifetime.start.p0i8(i64 24, i8* nonnull %85) #7
  call void @llvm.memset.p0i8.i64(i8* nonnull align 8 %85, i8 0, i64 24, i1 false) #7
  %86 = getelementptr inbounds %"class.syncer::TrustedVaultRequest", %"class.syncer::TrustedVaultRequest"* %0, i64 0, i32 4
  %87 = bitcast %"class.base::OnceCallback"* %5 to i8*
  call void @llvm.lifetime.start.p0i8(i64 8, i8* nonnull %87) #7
  %88 = getelementptr inbounds %"class.base::OnceCallback", %"class.base::OnceCallback"* %86, i64 0, i32 0, i32 0, i32 0
  %89 = bitcast %"class.base::OnceCallback"* %86 to i64*
  %90 = load i64, i64* %89, align 8
  %91 = bitcast %"class.base::OnceCallback"* %5 to i64*
  store i64 %90, i64* %91, align 8
  store %"class.base::internal::BindStateBase"* null, %"class.base::internal::BindStateBase"** %88, align 8
  %92 = getelementptr inbounds %"class.base::OnceCallback", %"class.base::OnceCallback"* %5, i64 0, i32 0
  %93 = inttoptr i64 %90 to %"class.base::internal::BindStateBase"*
  %94 = getelementptr inbounds %"class.base::internal::BindStateBase", %"class.base::internal::BindStateBase"* %93, i64 0, i32 1
  %95 = bitcast void ()** %94 to void (%"class.base::internal::BindStateBase"*, i32, %"class.std::__1::basic_string"*)**
  %96 = load void (%"class.base::internal::BindStateBase"*, i32, %"class.std::__1::basic_string"*)*, void (%"class.base::internal::BindStateBase"*, i32, %"class.std::__1::basic_string"*)** %95, align 8
  call void %96(%"class.base::internal::BindStateBase"* %93, i32 3, %"class.std::__1::basic_string"* nonnull dereferenceable(24) %9) #7
  call void @_ZN4base8internal12CallbackBaseD2Ev(%"class.base::internal::CallbackBase"* nonnull %92) #7
  call void @llvm.lifetime.end.p0i8(i64 8, i8* nonnull %87) #7
  %97 = bitcast %"class.std::__1::basic_string"* %9 to %"struct.std::__1::basic_string<char, std::__1::char_traits<char>, std::__1::allocator<char> >::__short"*
  %98 = getelementptr inbounds %"struct.std::__1::basic_string<char, std::__1::char_traits<char>, std::__1::allocator<char> >::__short", %"struct.std::__1::basic_string<char, std::__1::char_traits<char>, std::__1::allocator<char> >::__short"* %97, i64 0, i32 1, i32 0
  %99 = load i8, i8* %98, align 1
  %100 = icmp slt i8 %99, 0
  br i1 %100, label %101, label %104

101:                                              ; preds = %84
  %102 = getelementptr inbounds %"class.std::__1::basic_string", %"class.std::__1::basic_string"* %9, i64 0, i32 0, i32 0, i32 0, i32 0, i32 0, i32 0
  %103 = load i8*, i8** %102, align 8
  call void @_ZdlPv(i8* %103) #8
  br label %104

104:                                              ; preds = %84, %101
  call void @llvm.lifetime.end.p0i8(i64 24, i8* nonnull %85) #7
  br label %117

105:                                              ; preds = %81
  %106 = getelementptr inbounds %"class.syncer::TrustedVaultRequest", %"class.syncer::TrustedVaultRequest"* %0, i64 0, i32 4
  %107 = bitcast %"class.base::OnceCallback"* %6 to i8*
  call void @llvm.lifetime.start.p0i8(i64 8, i8* nonnull %107) #7
  %108 = getelementptr inbounds %"class.base::OnceCallback", %"class.base::OnceCallback"* %106, i64 0, i32 0, i32 0, i32 0
  %109 = bitcast %"class.base::OnceCallback"* %106 to i64*
  %110 = load i64, i64* %109, align 8
  %111 = bitcast %"class.base::OnceCallback"* %6 to i64*
  store i64 %110, i64* %111, align 8
  store %"class.base::internal::BindStateBase"* null, %"class.base::internal::BindStateBase"** %108, align 8
  %112 = getelementptr inbounds %"class.base::OnceCallback", %"class.base::OnceCallback"* %6, i64 0, i32 0
  %113 = inttoptr i64 %110 to %"class.base::internal::BindStateBase"*
  %114 = getelementptr inbounds %"class.base::internal::BindStateBase", %"class.base::internal::BindStateBase"* %113, i64 0, i32 1
  %115 = bitcast void ()** %114 to void (%"class.base::internal::BindStateBase"*, i32, %"class.std::__1::basic_string"*)**
  %116 = load void (%"class.base::internal::BindStateBase"*, i32, %"class.std::__1::basic_string"*)*, void (%"class.base::internal::BindStateBase"*, i32, %"class.std::__1::basic_string"*)** %115, align 8
  tail call void %116(%"class.base::internal::BindStateBase"* %113, i32 0, %"class.std::__1::basic_string"* dereferenceable(24) %1) #7
  call void @_ZN4base8internal12CallbackBaseD2Ev(%"class.base::internal::CallbackBase"* nonnull %112) #7
  call void @llvm.lifetime.end.p0i8(i64 8, i8* nonnull %107) #7
  br label %117

117:                                              ; preds = %105, %104, %80, %59
  %118 = icmp eq %"class.std::__1::basic_string"* %1, null
  br i1 %118, label %129, label %119

119:                                              ; preds = %117
  %120 = bitcast %"class.std::__1::basic_string"* %1 to %"struct.std::__1::basic_string<char, std::__1::char_traits<char>, std::__1::allocator<char> >::__short"*
  %121 = getelementptr inbounds %"struct.std::__1::basic_string<char, std::__1::char_traits<char>, std::__1::allocator<char> >::__short", %"struct.std::__1::basic_string<char, std::__1::char_traits<char>, std::__1::allocator<char> >::__short"* %120, i64 0, i32 1, i32 0
  %122 = load i8, i8* %121, align 1
  %123 = icmp slt i8 %122, 0
  br i1 %123, label %124, label %127

124:                                              ; preds = %119
  %125 = getelementptr inbounds %"class.std::__1::basic_string", %"class.std::__1::basic_string"* %1, i64 0, i32 0, i32 0, i32 0, i32 0, i32 0, i32 0
  %126 = load i8*, i8** %125, align 8
  call void @_ZdlPv(i8* %126) #8
  br label %127

127:                                              ; preds = %124, %119
  %128 = bitcast %"class.std::__1::basic_string"* %1 to i8*
  call void @_ZdlPv(i8* %128) #8
  br label %129

129:                                              ; preds = %117, %127
  ret void
}

; Function Attrs: nounwind
declare void @_ZN4base8internal12CallbackBaseD2Ev(%"class.base::internal::CallbackBase"*) unnamed_addr #2

declare void @_ZN3net20AppendQueryParameterERK4GURLRKNSt3__112basic_stringIcNS3_11char_traitsIcEENS3_9allocatorIcEEEESB_(%class.GURL* sret, %class.GURL* dereferenceable(120), %"class.std::__1::basic_string"* dereferenceable(24), %"class.std::__1::basic_string"* dereferenceable(24)) local_unnamed_addr #1

; Function Attrs: nounwind
declare dereferenceable(120) %class.GURL* @_ZN4GURLaSEOS_(%class.GURL*, %class.GURL* dereferenceable(120)) local_unnamed_addr #2

declare void @_ZN3net18HttpRequestHeaders9SetHeaderERKN4base16BasicStringPieceIcNSt3__111char_traitsIcEEEES8_(%"class.net::HttpRequestHeaders"*, %"class.base::BasicStringPiece"* dereferenceable(16), %"class.base::BasicStringPiece"* dereferenceable(16)) local_unnamed_addr #1

declare void @_ZN4base12StringPrintfEPKcz(%"class.std::__1::basic_string"* sret, i8*, ...) local_unnamed_addr #1

declare %"class.network::SimpleURLLoader"* @_ZN7network15SimpleURLLoader6CreateENSt3__110unique_ptrINS_15ResourceRequestENS1_14default_deleteIS3_EEEERKN3net27NetworkTrafficAnnotationTagE(%"struct.network::ResourceRequest"*, %"struct.net::NetworkTrafficAnnotationTag"* dereferenceable(4)) local_unnamed_addr #1

; Function Attrs: argmemonly nounwind
declare void @llvm.memset.p0i8.i64(i8* nocapture writeonly, i8, i64, i1 immarg) #4

; Function Attrs: argmemonly nounwind
declare void @llvm.memcpy.p0i8.p0i8.i64(i8* nocapture writeonly, i8* nocapture readonly, i64, i1 immarg) #4

declare void @_ZNSt3__112basic_stringIcNS_11char_traitsIcEENS_9allocatorIcEEE25__init_copy_ctor_externalEPKcm(%"class.std::__1::basic_string"*, i8*, i64) local_unnamed_addr #1

; Function Attrs: nounwind
declare dereferenceable(8) %"class.base::internal::CallbackBase"* @_ZN4base8internal12CallbackBaseaSEOS1_(%"class.base::internal::CallbackBase"*, %"class.base::internal::CallbackBase"* dereferenceable(8)) local_unnamed_addr #2

; Function Attrs: nounwind ssp uwtable
define linkonce_odr hidden i32 @_ZN3net30DefineNetworkTrafficAnnotationILm22ELm924EEENS_27NetworkTrafficAnnotationTagERAT__KcRAT0__S2_([22 x i8]* dereferenceable(22), [924 x i8]* dereferenceable(924)) local_unnamed_addr #0 comdat {
  %3 = getelementptr inbounds [22 x i8], [22 x i8]* %0, i64 0, i64 0
  %4 = load i8, i8* %3, align 1
  %5 = sext i8 %4 to i32
  %6 = mul nsw i32 %5, 31
  %7 = getelementptr inbounds [22 x i8], [22 x i8]* %0, i64 0, i64 1
  %8 = load i8, i8* %7, align 1
  %9 = sext i8 %8 to i32
  %10 = add nsw i32 %6, %9
  %11 = urem i32 %10, 138003713
  %12 = mul i32 %11, 31
  %13 = getelementptr inbounds [22 x i8], [22 x i8]* %0, i64 0, i64 2
  %14 = load i8, i8* %13, align 1
  %15 = sext i8 %14 to i32
  %16 = add i32 %12, %15
  %17 = urem i32 %16, 138003713
  %18 = mul i32 %17, 31
  %19 = getelementptr inbounds [22 x i8], [22 x i8]* %0, i64 0, i64 3
  %20 = load i8, i8* %19, align 1
  %21 = sext i8 %20 to i32
  %22 = add i32 %18, %21
  %23 = urem i32 %22, 138003713
  %24 = mul i32 %23, 31
  %25 = getelementptr inbounds [22 x i8], [22 x i8]* %0, i64 0, i64 4
  %26 = load i8, i8* %25, align 1
  %27 = sext i8 %26 to i32
  %28 = add i32 %24, %27
  %29 = urem i32 %28, 138003713
  %30 = mul i32 %29, 31
  %31 = getelementptr inbounds [22 x i8], [22 x i8]* %0, i64 0, i64 5
  %32 = load i8, i8* %31, align 1
  %33 = sext i8 %32 to i32
  %34 = add i32 %30, %33
  %35 = urem i32 %34, 138003713
  %36 = mul i32 %35, 31
  %37 = getelementptr inbounds [22 x i8], [22 x i8]* %0, i64 0, i64 6
  %38 = load i8, i8* %37, align 1
  %39 = sext i8 %38 to i32
  %40 = add i32 %36, %39
  %41 = urem i32 %40, 138003713
  %42 = mul i32 %41, 31
  %43 = getelementptr inbounds [22 x i8], [22 x i8]* %0, i64 0, i64 7
  %44 = load i8, i8* %43, align 1
  %45 = sext i8 %44 to i32
  %46 = add i32 %42, %45
  %47 = urem i32 %46, 138003713
  %48 = mul i32 %47, 31
  %49 = getelementptr inbounds [22 x i8], [22 x i8]* %0, i64 0, i64 8
  %50 = load i8, i8* %49, align 1
  %51 = sext i8 %50 to i32
  %52 = add i32 %48, %51
  %53 = urem i32 %52, 138003713
  %54 = mul i32 %53, 31
  %55 = getelementptr inbounds [22 x i8], [22 x i8]* %0, i64 0, i64 9
  %56 = load i8, i8* %55, align 1
  %57 = sext i8 %56 to i32
  %58 = add i32 %54, %57
  %59 = urem i32 %58, 138003713
  %60 = mul i32 %59, 31
  %61 = getelementptr inbounds [22 x i8], [22 x i8]* %0, i64 0, i64 10
  %62 = load i8, i8* %61, align 1
  %63 = sext i8 %62 to i32
  %64 = add i32 %60, %63
  %65 = urem i32 %64, 138003713
  %66 = mul i32 %65, 31
  %67 = getelementptr inbounds [22 x i8], [22 x i8]* %0, i64 0, i64 11
  %68 = load i8, i8* %67, align 1
  %69 = sext i8 %68 to i32
  %70 = add i32 %66, %69
  %71 = urem i32 %70, 138003713
  %72 = mul i32 %71, 31
  %73 = getelementptr inbounds [22 x i8], [22 x i8]* %0, i64 0, i64 12
  %74 = load i8, i8* %73, align 1
  %75 = sext i8 %74 to i32
  %76 = add i32 %72, %75
  %77 = urem i32 %76, 138003713
  %78 = mul i32 %77, 31
  %79 = getelementptr inbounds [22 x i8], [22 x i8]* %0, i64 0, i64 13
  %80 = load i8, i8* %79, align 1
  %81 = sext i8 %80 to i32
  %82 = add i32 %78, %81
  %83 = urem i32 %82, 138003713
  %84 = mul i32 %83, 31
  %85 = getelementptr inbounds [22 x i8], [22 x i8]* %0, i64 0, i64 14
  %86 = load i8, i8* %85, align 1
  %87 = sext i8 %86 to i32
  %88 = add i32 %84, %87
  %89 = urem i32 %88, 138003713
  %90 = mul i32 %89, 31
  %91 = getelementptr inbounds [22 x i8], [22 x i8]* %0, i64 0, i64 15
  %92 = load i8, i8* %91, align 1
  %93 = sext i8 %92 to i32
  %94 = add i32 %90, %93
  %95 = urem i32 %94, 138003713
  %96 = mul i32 %95, 31
  %97 = getelementptr inbounds [22 x i8], [22 x i8]* %0, i64 0, i64 16
  %98 = load i8, i8* %97, align 1
  %99 = sext i8 %98 to i32
  %100 = add i32 %96, %99
  %101 = urem i32 %100, 138003713
  %102 = mul i32 %101, 31
  %103 = getelementptr inbounds [22 x i8], [22 x i8]* %0, i64 0, i64 17
  %104 = load i8, i8* %103, align 1
  %105 = sext i8 %104 to i32
  %106 = add i32 %102, %105
  %107 = urem i32 %106, 138003713
  %108 = mul i32 %107, 31
  %109 = getelementptr inbounds [22 x i8], [22 x i8]* %0, i64 0, i64 18
  %110 = load i8, i8* %109, align 1
  %111 = sext i8 %110 to i32
  %112 = add i32 %108, %111
  %113 = urem i32 %112, 138003713
  %114 = mul i32 %113, 31
  %115 = getelementptr inbounds [22 x i8], [22 x i8]* %0, i64 0, i64 19
  %116 = load i8, i8* %115, align 1
  %117 = sext i8 %116 to i32
  %118 = add i32 %114, %117
  %119 = urem i32 %118, 138003713
  %120 = mul i32 %119, 31
  %121 = getelementptr inbounds [22 x i8], [22 x i8]* %0, i64 0, i64 20
  %122 = load i8, i8* %121, align 1
  %123 = sext i8 %122 to i32
  %124 = add i32 %120, %123
  %125 = urem i32 %124, 138003713
  ret i32 %125
}

; Function Attrs: cold noreturn nounwind
declare void @llvm.trap() #5

declare void @_ZN4base8internal18WeakPtrFactoryBaseC2Em(%"class.base::internal::WeakPtrFactoryBase"*, i64) unnamed_addr #1

; Function Attrs: nobuiltin nofree
declare noalias nonnull i8* @_Znwm(i64) local_unnamed_addr #6

declare void @_ZNK4base6subtle14RefCountedBase11ReleaseImplEv(%"class.base::subtle::RefCountedBase"*) local_unnamed_addr #1

declare void @_ZNK4base8internal18WeakReferenceOwner6GetRefEv(%"class.base::internal::WeakReference"* sret, %"class.base::internal::WeakReferenceOwner"*) local_unnamed_addr #1

; Function Attrs: nounwind
declare void @_ZN4base8internal13WeakReferenceD1Ev(%"class.base::internal::WeakReference"*) unnamed_addr #2

declare void @_ZN4base8internal11WeakPtrBaseC2ERKNS0_13WeakReferenceEm(%"class.base::internal::WeakPtrBase"*, %"class.base::internal::WeakReference"* dereferenceable(8), i64) unnamed_addr #1

; Function Attrs: nounwind ssp uwtable
define linkonce_odr hidden void @_ZN4base8internal7InvokerINS0_9BindStateIMN6syncer19TrustedVaultRequestEFv13scoped_refptrIN7network22SharedURLLoaderFactoryEEN4absl8optionalIN6signin15AccessTokenInfoEEEEJNS_7WeakPtrIS4_EES8_EEEFvSD_EE7RunOnceEPNS0_13BindStateBaseEOSD_(%"class.base::internal::BindStateBase"*, %"class.absl::optional.22"* dereferenceable(64)) #0 comdat align 2 {
  %3 = getelementptr inbounds %"class.base::internal::BindStateBase", %"class.base::internal::BindStateBase"* %0, i64 1
  %4 = getelementptr inbounds %"class.base::internal::BindStateBase", %"class.base::internal::BindStateBase"* %0, i64 1, i32 2
  %5 = bitcast void (%"class.base::internal::BindStateBase"*)** %4 to %"class.base::WeakPtr"*
  %6 = getelementptr inbounds void (%"class.base::internal::BindStateBase"*)*, void (%"class.base::internal::BindStateBase"*)** %4, i64 2
  %7 = bitcast void (%"class.base::internal::BindStateBase"*)** %6 to %class.scoped_refptr.19*
  %8 = bitcast void (%"class.base::internal::BindStateBase"*)** %4 to %"class.base::internal::WeakReference"*
  %9 = tail call zeroext i1 @_ZNK4base8internal13WeakReference7IsValidEv(%"class.base::internal::WeakReference"* %8) #7
  br i1 %9, label %10, label %21

10:                                               ; preds = %2
  %11 = getelementptr inbounds void (%"class.base::internal::BindStateBase"*)*, void (%"class.base::internal::BindStateBase"*)** %4, i64 1
  %12 = bitcast void (%"class.base::internal::BindStateBase"*)** %11 to %"class.syncer::TrustedVaultRequest"**
  %13 = load %"class.syncer::TrustedVaultRequest"*, %"class.syncer::TrustedVaultRequest"** %12, align 8
  %14 = icmp eq %"class.syncer::TrustedVaultRequest"* %13, null
  br i1 %14, label %21, label %15

15:                                               ; preds = %10
  %16 = bitcast %"class.base::internal::BindStateBase"* %3 to i64*
  %17 = load i64, i64* %16, align 8
  %18 = getelementptr inbounds %"class.base::internal::BindStateBase", %"class.base::internal::BindStateBase"* %0, i64 1, i32 1
  %19 = bitcast void ()** %18 to i64*
  %20 = load i64, i64* %19, align 8
  tail call void @_ZN4base8internal13FunctorTraitsIMN6syncer19TrustedVaultRequestEFv13scoped_refptrIN7network22SharedURLLoaderFactoryEEN4absl8optionalIN6signin15AccessTokenInfoEEEEvE6InvokeISE_NS_7WeakPtrIS3_EEJS7_SC_EEEvT_OT0_DpOT1_(i64 %17, i64 %20, %"class.base::WeakPtr"* dereferenceable(16) %5, %class.scoped_refptr.19* dereferenceable(8) %7, %"class.absl::optional.22"* dereferenceable(64) %1) #7
  br label %21

21:                                               ; preds = %2, %10, %15
  ret void
}

; Function Attrs: nounwind ssp uwtable
define linkonce_odr hidden void @_ZN4base8internal13FunctorTraitsIMN6syncer19TrustedVaultRequestEFv13scoped_refptrIN7network22SharedURLLoaderFactoryEEN4absl8optionalIN6signin15AccessTokenInfoEEEEvE6InvokeISE_NS_7WeakPtrIS3_EEJS7_SC_EEEvT_OT0_DpOT1_(i64, i64, %"class.base::WeakPtr"* dereferenceable(16), %class.scoped_refptr.19* dereferenceable(8), %"class.absl::optional.22"* dereferenceable(64)) local_unnamed_addr #0 comdat align 2 {
  %6 = alloca %"class.logging::CheckError", align 8
  %7 = alloca %"class.absl::optional.22", align 8
  %8 = getelementptr inbounds %"class.base::WeakPtr", %"class.base::WeakPtr"* %2, i64 0, i32 0, i32 0
  %9 = tail call zeroext i1 @_ZNK4base8internal13WeakReference7IsValidEv(%"class.base::internal::WeakReference"* %8) #7
  br i1 %9, label %13, label %10

10:                                               ; preds = %5
  %11 = bitcast %"class.logging::CheckError"* %6 to i8*
  call void @llvm.lifetime.start.p0i8(i64 8, i8* nonnull %11) #7
  call void @_ZN7logging10CheckError5CheckEPKciS2_(%"class.logging::CheckError"* nonnull sret %6, i8* getelementptr inbounds ([29 x i8], [29 x i8]* @.str.6, i64 0, i64 0), i32 251, i8* getelementptr inbounds ([15 x i8], [15 x i8]* @.str.7, i64 0, i64 0)) #7
  %12 = call dereferenceable(160) %"class.std::__1::basic_ostream"* @_ZN7logging10CheckError6streamEv(%"class.logging::CheckError"* nonnull %6) #7
  call void @_ZN7logging10CheckErrorD1Ev(%"class.logging::CheckError"* nonnull %6) #7
  call void @llvm.lifetime.end.p0i8(i64 8, i8* nonnull %11) #7
  br label %13

13:                                               ; preds = %10, %5
  %14 = call zeroext i1 @_ZNK4base8internal13WeakReference7IsValidEv(%"class.base::internal::WeakReference"* %8) #7
  %15 = getelementptr inbounds %"class.base::WeakPtr", %"class.base::WeakPtr"* %2, i64 0, i32 0, i32 1
  %16 = bitcast i64* %15 to i8**
  %17 = load i8*, i8** %16, align 8
  %18 = select i1 %14, i8* %17, i8* null
  %19 = getelementptr inbounds i8, i8* %18, i64 %1
  %20 = bitcast i8* %19 to %"class.syncer::TrustedVaultRequest"*
  %21 = and i64 %0, 1
  %22 = icmp eq i64 %21, 0
  br i1 %22, label %30, label %23

23:                                               ; preds = %13
  %24 = bitcast i8* %19 to i8**
  %25 = load i8*, i8** %24, align 8
  %26 = add i64 %0, -1
  %27 = getelementptr i8, i8* %25, i64 %26
  %28 = bitcast i8* %27 to void (%"class.syncer::TrustedVaultRequest"*, %"class.network::SharedURLLoaderFactory"*, %"class.absl::optional.22"*)**
  %29 = load void (%"class.syncer::TrustedVaultRequest"*, %"class.network::SharedURLLoaderFactory"*, %"class.absl::optional.22"*)*, void (%"class.syncer::TrustedVaultRequest"*, %"class.network::SharedURLLoaderFactory"*, %"class.absl::optional.22"*)** %28, align 8
  br label %32

30:                                               ; preds = %13
  %31 = inttoptr i64 %0 to void (%"class.syncer::TrustedVaultRequest"*, %"class.network::SharedURLLoaderFactory"*, %"class.absl::optional.22"*)*
  br label %32

32:                                               ; preds = %30, %23
  %33 = phi void (%"class.syncer::TrustedVaultRequest"*, %"class.network::SharedURLLoaderFactory"*, %"class.absl::optional.22"*)* [ %29, %23 ], [ %31, %30 ]
  %34 = getelementptr inbounds %class.scoped_refptr.19, %class.scoped_refptr.19* %3, i64 0, i32 0
  %35 = load %"class.network::SharedURLLoaderFactory"*, %"class.network::SharedURLLoaderFactory"** %34, align 8
  store %"class.network::SharedURLLoaderFactory"* null, %"class.network::SharedURLLoaderFactory"** %34, align 8
  %36 = getelementptr inbounds %"class.absl::optional.22", %"class.absl::optional.22"* %7, i64 0, i32 0, i32 0, i32 0, i32 0
  %37 = getelementptr inbounds %"class.absl::optional.22", %"class.absl::optional.22"* %4, i64 0, i32 0, i32 0, i32 0, i32 0
  call void @llvm.memset.p0i8.i64(i8* nonnull align 8 %36, i8 0, i64 64, i1 false) #7
  %38 = load i8, i8* %37, align 8, !range !2
  %39 = icmp eq i8 %38, 0
  br i1 %39, label %52, label %40

40:                                               ; preds = %32
  %41 = getelementptr inbounds %"class.absl::optional.22", %"class.absl::optional.22"* %4, i64 0, i32 0, i32 0, i32 0, i32 1, i32 0
  %42 = getelementptr inbounds %"class.absl::optional.22", %"class.absl::optional.22"* %7, i64 0, i32 0, i32 0, i32 0, i32 1, i32 0
  %43 = bitcast %"struct.signin::AccessTokenInfo"* %42 to i8*
  %44 = bitcast %"struct.signin::AccessTokenInfo"* %41 to i8*
  call void @llvm.memcpy.p0i8.p0i8.i64(i8* align 8 %43, i8* align 8 %44, i64 24, i1 false) #7
  call void @llvm.memset.p0i8.i64(i8* align 8 %44, i8 0, i64 24, i1 false) #7
  %45 = getelementptr inbounds %"class.absl::optional.22", %"class.absl::optional.22"* %4, i64 0, i32 0, i32 0, i32 0, i32 1, i32 0, i32 1, i32 0, i32 0
  %46 = getelementptr inbounds %"class.absl::optional.22", %"class.absl::optional.22"* %7, i64 0, i32 0, i32 0, i32 0, i32 1, i32 0, i32 1, i32 0, i32 0
  %47 = load i64, i64* %45, align 8
  store i64 %47, i64* %46, align 8
  %48 = getelementptr inbounds %"class.absl::optional.22", %"class.absl::optional.22"* %7, i64 0, i32 0, i32 0, i32 0, i32 1, i32 0, i32 2
  %49 = getelementptr inbounds %"class.absl::optional.22", %"class.absl::optional.22"* %4, i64 0, i32 0, i32 0, i32 0, i32 1, i32 0, i32 2
  %50 = bitcast %"class.std::__1::basic_string"* %48 to i8*
  %51 = bitcast %"class.std::__1::basic_string"* %49 to i8*
  call void @llvm.memcpy.p0i8.p0i8.i64(i8* align 8 %50, i8* align 8 %51, i64 24, i1 false) #7
  call void @llvm.memset.p0i8.i64(i8* align 8 %51, i8 0, i64 24, i1 false) #7
  store i8 1, i8* %36, align 8
  br label %52

52:                                               ; preds = %32, %40
  call void %33(%"class.syncer::TrustedVaultRequest"* %20, %"class.network::SharedURLLoaderFactory"* %35, %"class.absl::optional.22"* nonnull %7) #7
  %53 = load i8, i8* %36, align 8, !range !2
  %54 = icmp eq i8 %53, 0
  br i1 %54, label %74, label %55

55:                                               ; preds = %52
  %56 = getelementptr inbounds %"class.absl::optional.22", %"class.absl::optional.22"* %7, i64 0, i32 0, i32 0, i32 0, i32 1, i32 0
  %57 = getelementptr inbounds %"class.absl::optional.22", %"class.absl::optional.22"* %7, i64 0, i32 0, i32 0, i32 0, i32 1, i32 0, i32 2
  %58 = bitcast %"class.std::__1::basic_string"* %57 to %"struct.std::__1::basic_string<char, std::__1::char_traits<char>, std::__1::allocator<char> >::__short"*
  %59 = getelementptr inbounds %"struct.std::__1::basic_string<char, std::__1::char_traits<char>, std::__1::allocator<char> >::__short", %"struct.std::__1::basic_string<char, std::__1::char_traits<char>, std::__1::allocator<char> >::__short"* %58, i64 0, i32 1, i32 0
  %60 = load i8, i8* %59, align 1
  %61 = icmp slt i8 %60, 0
  br i1 %61, label %62, label %65

62:                                               ; preds = %55
  %63 = getelementptr inbounds %"class.std::__1::basic_string", %"class.std::__1::basic_string"* %57, i64 0, i32 0, i32 0, i32 0, i32 0, i32 0, i32 0
  %64 = load i8*, i8** %63, align 8
  call void @_ZdlPv(i8* %64) #8
  br label %65

65:                                               ; preds = %62, %55
  %66 = bitcast %"struct.signin::AccessTokenInfo"* %56 to %"struct.std::__1::basic_string<char, std::__1::char_traits<char>, std::__1::allocator<char> >::__short"*
  %67 = getelementptr inbounds %"struct.std::__1::basic_string<char, std::__1::char_traits<char>, std::__1::allocator<char> >::__short", %"struct.std::__1::basic_string<char, std::__1::char_traits<char>, std::__1::allocator<char> >::__short"* %66, i64 0, i32 1, i32 0
  %68 = load i8, i8* %67, align 1
  %69 = icmp slt i8 %68, 0
  br i1 %69, label %70, label %73

70:                                               ; preds = %65
  %71 = getelementptr inbounds %"struct.signin::AccessTokenInfo", %"struct.signin::AccessTokenInfo"* %56, i64 0, i32 0, i32 0, i32 0, i32 0, i32 0, i32 0, i32 0
  %72 = load i8*, i8** %71, align 8
  call void @_ZdlPv(i8* %72) #8
  br label %73

73:                                               ; preds = %70, %65
  store i8 0, i8* %36, align 8
  br label %74

74:                                               ; preds = %52, %73
  ret void
}

declare zeroext i1 @_ZNK4base8internal13WeakReference7IsValidEv(%"class.base::internal::WeakReference"*) local_unnamed_addr #1

declare void @_ZN7logging10CheckError5CheckEPKciS2_(%"class.logging::CheckError"* sret, i8*, i32, i8*) local_unnamed_addr #1

declare dereferenceable(160) %"class.std::__1::basic_ostream"* @_ZN7logging10CheckError6streamEv(%"class.logging::CheckError"*) local_unnamed_addr #1

; Function Attrs: nounwind
declare void @_ZN7logging10CheckErrorD1Ev(%"class.logging::CheckError"*) unnamed_addr #2

; Function Attrs: nounwind ssp uwtable
define linkonce_odr hidden void @_ZN4base8internal9BindStateIMN6syncer19TrustedVaultRequestEFv13scoped_refptrIN7network22SharedURLLoaderFactoryEEN4absl8optionalIN6signin15AccessTokenInfoEEEEJNS_7WeakPtrIS3_EES7_EE7DestroyEPKNS0_13BindStateBaseE(%"class.base::internal::BindStateBase"*) #0 comdat align 2 {
  %2 = icmp eq %"class.base::internal::BindStateBase"* %0, null
  br i1 %2, label %25, label %3

3:                                                ; preds = %1
  %4 = getelementptr inbounds %"class.base::internal::BindStateBase", %"class.base::internal::BindStateBase"* %0, i64 2
  %5 = bitcast %"class.base::internal::BindStateBase"* %4 to %"class.network::SharedURLLoaderFactory"**
  %6 = load %"class.network::SharedURLLoaderFactory"*, %"class.network::SharedURLLoaderFactory"** %5, align 8
  %7 = icmp eq %"class.network::SharedURLLoaderFactory"* %6, null
  br i1 %7, label %21, label %8

8:                                                ; preds = %3
  %9 = getelementptr inbounds %"class.network::SharedURLLoaderFactory", %"class.network::SharedURLLoaderFactory"* %6, i64 0, i32 1
  %10 = getelementptr inbounds %"class.base::RefCounted", %"class.base::RefCounted"* %9, i64 0, i32 0
  tail call void @_ZNK4base6subtle14RefCountedBase11ReleaseImplEv(%"class.base::subtle::RefCountedBase"* %10) #7
  %11 = getelementptr inbounds %"class.base::RefCounted", %"class.base::RefCounted"* %9, i64 0, i32 0, i32 0
  %12 = load i32, i32* %11, align 4
  %13 = icmp eq i32 %12, 0
  br i1 %13, label %14, label %21

14:                                               ; preds = %8
  %15 = getelementptr inbounds %"class.base::RefCounted", %"class.base::RefCounted"* %9, i64 -2
  %16 = bitcast %"class.base::RefCounted"* %15 to %"class.network::SharedURLLoaderFactory"*
  %17 = bitcast %"class.base::RefCounted"* %15 to void (%"class.network::SharedURLLoaderFactory"*)***
  %18 = load void (%"class.network::SharedURLLoaderFactory"*)**, void (%"class.network::SharedURLLoaderFactory"*)*** %17, align 8
  %19 = getelementptr inbounds void (%"class.network::SharedURLLoaderFactory"*)*, void (%"class.network::SharedURLLoaderFactory"*)** %18, i64 1
  %20 = load void (%"class.network::SharedURLLoaderFactory"*)*, void (%"class.network::SharedURLLoaderFactory"*)** %19, align 8
  tail call void %20(%"class.network::SharedURLLoaderFactory"* nonnull %16) #7
  br label %21

21:                                               ; preds = %3, %8, %14
  %22 = getelementptr inbounds %"class.base::internal::BindStateBase", %"class.base::internal::BindStateBase"* %0, i64 1, i32 2
  %23 = bitcast void (%"class.base::internal::BindStateBase"*)** %22 to %"class.base::internal::WeakPtrBase"*
  tail call void @_ZN4base8internal11WeakPtrBaseD2Ev(%"class.base::internal::WeakPtrBase"* %23) #7
  %24 = bitcast %"class.base::internal::BindStateBase"* %0 to i8*
  tail call void @_ZdlPv(i8* %24) #8
  br label %25

25:                                               ; preds = %21, %1
  ret void
}

; Function Attrs: nounwind ssp uwtable
define linkonce_odr hidden zeroext i1 @_ZN4base8internal23QueryCancellationTraitsINS0_9BindStateIMN6syncer19TrustedVaultRequestEFv13scoped_refptrIN7network22SharedURLLoaderFactoryEEN4absl8optionalIN6signin15AccessTokenInfoEEEEJNS_7WeakPtrIS4_EES8_EEEEEbPKNS0_13BindStateBaseENSJ_21CancellationQueryModeE(%"class.base::internal::BindStateBase"*, i32) #0 comdat {
  %3 = getelementptr inbounds %"class.base::internal::BindStateBase", %"class.base::internal::BindStateBase"* %0, i64 1, i32 2
  switch i32 %1, label %16 [
    i32 0, label %4
    i32 1, label %13
  ]

4:                                                ; preds = %2
  %5 = bitcast void (%"class.base::internal::BindStateBase"*)** %3 to %"class.base::internal::WeakReference"*
  %6 = tail call zeroext i1 @_ZNK4base8internal13WeakReference7IsValidEv(%"class.base::internal::WeakReference"* %5) #7
  %7 = getelementptr inbounds void (%"class.base::internal::BindStateBase"*)*, void (%"class.base::internal::BindStateBase"*)** %3, i64 1
  %8 = bitcast void (%"class.base::internal::BindStateBase"*)** %7 to %"class.syncer::TrustedVaultRequest"**
  %9 = load %"class.syncer::TrustedVaultRequest"*, %"class.syncer::TrustedVaultRequest"** %8, align 8
  %10 = icmp ne %"class.syncer::TrustedVaultRequest"* %9, null
  %11 = and i1 %6, %10
  %12 = xor i1 %11, true
  br label %16

13:                                               ; preds = %2
  %14 = bitcast void (%"class.base::internal::BindStateBase"*)** %3 to %"class.base::internal::WeakReference"*
  %15 = tail call zeroext i1 @_ZNK4base8internal13WeakReference10MaybeValidEv(%"class.base::internal::WeakReference"* %14) #7
  br label %16

16:                                               ; preds = %2, %4, %13
  %17 = phi i1 [ %15, %13 ], [ %12, %4 ], [ false, %2 ]
  ret i1 %17
}

declare void @_ZN4base8internal13BindStateBaseC2EPFvvEPFvPKS1_EPFbS5_NS1_21CancellationQueryModeEE(%"class.base::internal::BindStateBase"*, void ()*, void (%"class.base::internal::BindStateBase"*)*, i1 (%"class.base::internal::BindStateBase"*, i32)*) unnamed_addr #1

declare zeroext i1 @_ZNK4base8internal13WeakReference10MaybeValidEv(%"class.base::internal::WeakReference"*) local_unnamed_addr #1

; Function Attrs: nounwind
declare void @_ZN4base8internal13WeakReferenceC1EOS1_(%"class.base::internal::WeakReference"*, %"class.base::internal::WeakReference"* dereferenceable(8)) unnamed_addr #2

declare void @_ZNK4base6subtle14RefCountedBase10AddRefImplEv(%"class.base::subtle::RefCountedBase"*) local_unnamed_addr #1

; Function Attrs: nounwind ssp uwtable
define linkonce_odr hidden void @_ZN4base8internal7InvokerINS0_9BindStateIMN6syncer19TrustedVaultRequestEFvNSt3__110unique_ptrINS5_12basic_stringIcNS5_11char_traitsIcEENS5_9allocatorIcEEEENS5_14default_deleteISC_EEEEEJNS0_17UnretainedWrapperIS4_EEEEEFvSF_EE7RunOnceEPNS0_13BindStateBaseEOSF_(%"class.base::internal::BindStateBase"*, %"class.std::__1::unique_ptr.28"* dereferenceable(8)) #0 comdat align 2 {
  %3 = getelementptr inbounds %"class.base::internal::BindStateBase", %"class.base::internal::BindStateBase"* %0, i64 1
  %4 = getelementptr inbounds %"class.base::internal::BindStateBase", %"class.base::internal::BindStateBase"* %0, i64 1, i32 2
  %5 = bitcast void (%"class.base::internal::BindStateBase"*)** %4 to i8**
  %6 = load i8*, i8** %5, align 8
  %7 = bitcast %"class.base::internal::BindStateBase"* %3 to i64*
  %8 = load i64, i64* %7, align 8
  %9 = getelementptr inbounds %"class.base::internal::BindStateBase", %"class.base::internal::BindStateBase"* %0, i64 1, i32 1
  %10 = bitcast void ()** %9 to i64*
  %11 = load i64, i64* %10, align 8
  %12 = getelementptr inbounds i8, i8* %6, i64 %11
  %13 = bitcast i8* %12 to %"class.syncer::TrustedVaultRequest"*
  %14 = and i64 %8, 1
  %15 = icmp eq i64 %14, 0
  br i1 %15, label %23, label %16

16:                                               ; preds = %2
  %17 = bitcast i8* %12 to i8**
  %18 = load i8*, i8** %17, align 8
  %19 = add i64 %8, -1
  %20 = getelementptr i8, i8* %18, i64 %19
  %21 = bitcast i8* %20 to void (%"class.syncer::TrustedVaultRequest"*, %"class.std::__1::basic_string"*)**
  %22 = load void (%"class.syncer::TrustedVaultRequest"*, %"class.std::__1::basic_string"*)*, void (%"class.syncer::TrustedVaultRequest"*, %"class.std::__1::basic_string"*)** %21, align 8
  br label %25

23:                                               ; preds = %2
  %24 = inttoptr i64 %8 to void (%"class.syncer::TrustedVaultRequest"*, %"class.std::__1::basic_string"*)*
  br label %25

25:                                               ; preds = %16, %23
  %26 = phi void (%"class.syncer::TrustedVaultRequest"*, %"class.std::__1::basic_string"*)* [ %22, %16 ], [ %24, %23 ]
  %27 = getelementptr inbounds %"class.std::__1::unique_ptr.28", %"class.std::__1::unique_ptr.28"* %1, i64 0, i32 0, i32 0, i32 0
  %28 = load %"class.std::__1::basic_string"*, %"class.std::__1::basic_string"** %27, align 8
  store %"class.std::__1::basic_string"* null, %"class.std::__1::basic_string"** %27, align 8
  tail call void %26(%"class.syncer::TrustedVaultRequest"* %13, %"class.std::__1::basic_string"* %28) #7
  ret void
}

; Function Attrs: nounwind ssp uwtable
define linkonce_odr hidden void @_ZN4base8internal9BindStateIMN6syncer19TrustedVaultRequestEFvNSt3__110unique_ptrINS4_12basic_stringIcNS4_11char_traitsIcEENS4_9allocatorIcEEEENS4_14default_deleteISB_EEEEEJNS0_17UnretainedWrapperIS3_EEEE7DestroyEPKNS0_13BindStateBaseE(%"class.base::internal::BindStateBase"*) #0 comdat align 2 {
  %2 = icmp eq %"class.base::internal::BindStateBase"* %0, null
  br i1 %2, label %5, label %3

3:                                                ; preds = %1
  %4 = bitcast %"class.base::internal::BindStateBase"* %0 to i8*
  tail call void @_ZdlPv(i8* %4) #8
  br label %5

5:                                                ; preds = %3, %1
  ret void
}

declare void @_ZN4base8internal13BindStateBaseC2EPFvvEPFvPKS1_E(%"class.base::internal::BindStateBase"*, void ()*, void (%"class.base::internal::BindStateBase"*)*) unnamed_addr #1

declare void @_ZN7network15ResourceRequestC1Ev(%"struct.network::ResourceRequest"*) unnamed_addr #1

attributes #0 = { nounwind ssp uwtable "correctly-rounded-divide-sqrt-fp-math"="false" "disable-tail-calls"="false" "less-precise-fpmad"="false" "min-legal-vector-width"="0" "no-frame-pointer-elim"="false" "no-frame-pointer-elim-non-leaf" "no-infs-fp-math"="false" "no-jump-tables"="false" "no-nans-fp-math"="false" "no-signed-zeros-fp-math"="false" "no-trapping-math"="false" "null-pointer-is-valid"="true" "stack-protector-buffer-size"="4" "target-cpu"="x86-64" "target-features"="+cx8,+fxsr,+mmx,+sse,+sse2,+sse3,+x87" "unsafe-fp-math"="false" "use-soft-float"="false" }
attributes #1 = { "correctly-rounded-divide-sqrt-fp-math"="false" "disable-tail-calls"="false" "less-precise-fpmad"="false" "no-frame-pointer-elim"="false" "no-frame-pointer-elim-non-leaf" "no-infs-fp-math"="false" "no-nans-fp-math"="false" "no-signed-zeros-fp-math"="false" "no-trapping-math"="false" "null-pointer-is-valid"="true" "stack-protector-buffer-size"="4" "target-cpu"="x86-64" "target-features"="+cx8,+fxsr,+mmx,+sse,+sse2,+sse3,+x87" "unsafe-fp-math"="false" "use-soft-float"="false" }
attributes #2 = { nounwind "correctly-rounded-divide-sqrt-fp-math"="false" "disable-tail-calls"="false" "less-precise-fpmad"="false" "no-frame-pointer-elim"="false" "no-frame-pointer-elim-non-leaf" "no-infs-fp-math"="false" "no-nans-fp-math"="false" "no-signed-zeros-fp-math"="false" "no-trapping-math"="false" "null-pointer-is-valid"="true" "stack-protector-buffer-size"="4" "target-cpu"="x86-64" "target-features"="+cx8,+fxsr,+mmx,+sse,+sse2,+sse3,+x87" "unsafe-fp-math"="false" "use-soft-float"="false" }
attributes #3 = { nobuiltin nounwind "correctly-rounded-divide-sqrt-fp-math"="false" "disable-tail-calls"="false" "less-precise-fpmad"="false" "no-frame-pointer-elim"="false" "no-frame-pointer-elim-non-leaf" "no-infs-fp-math"="false" "no-nans-fp-math"="false" "no-signed-zeros-fp-math"="false" "no-trapping-math"="false" "null-pointer-is-valid"="true" "stack-protector-buffer-size"="4" "target-cpu"="x86-64" "target-features"="+cx8,+fxsr,+mmx,+sse,+sse2,+sse3,+x87" "unsafe-fp-math"="false" "use-soft-float"="false" }
attributes #4 = { argmemonly nounwind }
attributes #5 = { cold noreturn nounwind }
attributes #6 = { nobuiltin nofree "correctly-rounded-divide-sqrt-fp-math"="false" "disable-tail-calls"="false" "less-precise-fpmad"="false" "no-frame-pointer-elim"="false" "no-frame-pointer-elim-non-leaf" "no-infs-fp-math"="false" "no-nans-fp-math"="false" "no-signed-zeros-fp-math"="false" "no-trapping-math"="false" "null-pointer-is-valid"="true" "stack-protector-buffer-size"="4" "target-cpu"="x86-64" "target-features"="+cx8,+fxsr,+mmx,+sse,+sse2,+sse3,+x87" "unsafe-fp-math"="false" "use-soft-float"="false" }
attributes #7 = { nounwind }
attributes #8 = { builtin nounwind }

!llvm.module.flags = !{!0, !1}

!0 = !{i32 1, !"wchar_size", i32 4}
!1 = !{i32 7, !"PIC Level", i32 2}
!2 = !{i8 0, i8 2}
!3 = !{!4}
!4 = distinct !{!4, !5, !"_ZNK4base14WeakPtrFactoryIN6syncer19TrustedVaultRequestEE10GetWeakPtrEv: argument 0"}
!5 = distinct !{!5, !"_ZNK4base14WeakPtrFactoryIN6syncer19TrustedVaultRequestEE10GetWeakPtrEv"}
!6 = !{!7, !9}
!7 = distinct !{!7, !8, !"_ZN4base8internal8BindImplINS_12OnceCallbackEMN6syncer19TrustedVaultRequestEFv13scoped_refptrIN7network22SharedURLLoaderFactoryEEN4absl8optionalIN6signin15AccessTokenInfoEEEEJNS_7WeakPtrIS4_EERS8_EEEDcOT0_DpOT1_: argument 0"}
!8 = distinct !{!8, !"_ZN4base8internal8BindImplINS_12OnceCallbackEMN6syncer19TrustedVaultRequestEFv13scoped_refptrIN7network22SharedURLLoaderFactoryEEN4absl8optionalIN6signin15AccessTokenInfoEEEEJNS_7WeakPtrIS4_EERS8_EEEDcOT0_DpOT1_"}
!9 = distinct !{!9, !10, !"_ZN4base8BindOnceIMN6syncer19TrustedVaultRequestEFv13scoped_refptrIN7network22SharedURLLoaderFactoryEEN4absl8optionalIN6signin15AccessTokenInfoEEEEJNS_7WeakPtrIS2_EERS6_EEENS_12OnceCallbackINS_8internal14BindTypeHelperIT_JDpT0_EE14UnboundRunTypeEEEOSK_DpOSL_: argument 0"}
!10 = distinct !{!10, !"_ZN4base8BindOnceIMN6syncer19TrustedVaultRequestEFv13scoped_refptrIN7network22SharedURLLoaderFactoryEEN4absl8optionalIN6signin15AccessTokenInfoEEEEJNS_7WeakPtrIS2_EERS6_EEENS_12OnceCallbackINS_8internal14BindTypeHelperIT_JDpT0_EE14UnboundRunTypeEEEOSK_DpOSL_"}
!11 = !{!"branch_weights", i32 1, i32 2000}
!12 = !{!13, !15}
!13 = distinct !{!13, !14, !"_ZN4base8internal8BindImplINS_12OnceCallbackEMN6syncer19TrustedVaultRequestEFvNSt3__110unique_ptrINS5_12basic_stringIcNS5_11char_traitsIcEENS5_9allocatorIcEEEENS5_14default_deleteISC_EEEEEJNS0_17UnretainedWrapperIS4_EEEEEDcOT0_DpOT1_: argument 0"}
!14 = distinct !{!14, !"_ZN4base8internal8BindImplINS_12OnceCallbackEMN6syncer19TrustedVaultRequestEFvNSt3__110unique_ptrINS5_12basic_stringIcNS5_11char_traitsIcEENS5_9allocatorIcEEEENS5_14default_deleteISC_EEEEEJNS0_17UnretainedWrapperIS4_EEEEEDcOT0_DpOT1_"}
!15 = distinct !{!15, !16, !"_ZN4base8BindOnceIMN6syncer19TrustedVaultRequestEFvNSt3__110unique_ptrINS3_12basic_stringIcNS3_11char_traitsIcEENS3_9allocatorIcEEEENS3_14default_deleteISA_EEEEEJNS_8internal17UnretainedWrapperIS2_EEEEENS_12OnceCallbackINSG_14BindTypeHelperIT_JDpT0_EE14UnboundRunTypeEEEOSL_DpOSM_: argument 0"}
!16 = distinct !{!16, !"_ZN4base8BindOnceIMN6syncer19TrustedVaultRequestEFvNSt3__110unique_ptrINS3_12basic_stringIcNS3_11char_traitsIcEENS3_9allocatorIcEEEENS3_14default_deleteISA_EEEEEJNS_8internal17UnretainedWrapperIS2_EEEEENS_12OnceCallbackINSG_14BindTypeHelperIT_JDpT0_EE14UnboundRunTypeEEEOSL_DpOSM_"}
!17 = !{!18}
!18 = distinct !{!18, !19, !"_ZN6syncer12_GLOBAL__N_119GetHttpMethodStringENS_19TrustedVaultRequest10HttpMethodE: argument 0"}
!19 = distinct !{!19, !"_ZN6syncer12_GLOBAL__N_119GetHttpMethodStringENS_19TrustedVaultRequest10HttpMethodE"}
