; ModuleID = '../../chrome/browser/speech/extension_api/tts_extension_api_constants.cc'
source_filename = "../../chrome/browser/speech/extension_api/tts_extension_api_constants.cc"
target datalayout = "e-m:e-i64:64-f80:128-n8:16:32:64-S128"
target triple = "x86_64-unknown-linux-gnu"

@_ZN27tts_extension_api_constants13kCharIndexKeyE = hidden local_unnamed_addr constant [10 x i8] c"charIndex\00", align 1
@_ZN27tts_extension_api_constants10kLengthKeyE = hidden local_unnamed_addr constant [7 x i8] c"length\00", align 1
@_ZN27tts_extension_api_constants21kDesiredEventTypesKeyE = hidden local_unnamed_addr constant [18 x i8] c"desiredEventTypes\00", align 16
@_ZN27tts_extension_api_constants11kEnqueueKeyE = hidden local_unnamed_addr constant [8 x i8] c"enqueue\00", align 1
@_ZN27tts_extension_api_constants16kErrorMessageKeyE = hidden local_unnamed_addr constant [13 x i8] c"errorMessage\00", align 1
@_ZN27tts_extension_api_constants13kEventTypeKeyE = hidden local_unnamed_addr constant [5 x i8] c"type\00", align 1
@_ZN27tts_extension_api_constants14kEventTypesKeyE = hidden local_unnamed_addr constant [11 x i8] c"eventTypes\00", align 1
@_ZN27tts_extension_api_constants15kExtensionIdKeyE = hidden local_unnamed_addr constant [12 x i8] c"extensionId\00", align 1
@_ZN27tts_extension_api_constants10kGenderKeyE = hidden local_unnamed_addr constant [7 x i8] c"gender\00", align 1
@_ZN27tts_extension_api_constants16kIsFinalEventKeyE = hidden local_unnamed_addr constant [13 x i8] c"isFinalEvent\00", align 1
@_ZN27tts_extension_api_constants8kLangKeyE = hidden local_unnamed_addr constant [5 x i8] c"lang\00", align 1
@_ZN27tts_extension_api_constants11kOnEventKeyE = hidden local_unnamed_addr constant [8 x i8] c"onEvent\00", align 1
@_ZN27tts_extension_api_constants9kPitchKeyE = hidden local_unnamed_addr constant [6 x i8] c"pitch\00", align 1
@_ZN27tts_extension_api_constants8kRateKeyE = hidden local_unnamed_addr constant [5 x i8] c"rate\00", align 1
@_ZN27tts_extension_api_constants10kRemoteKeyE = hidden local_unnamed_addr constant [7 x i8] c"remote\00", align 1
@_ZN27tts_extension_api_constants22kRequiredEventTypesKeyE = hidden local_unnamed_addr constant [19 x i8] c"requiredEventTypes\00", align 16
@_ZN27tts_extension_api_constants9kSrcIdKeyE = hidden local_unnamed_addr constant [6 x i8] c"srcId\00", align 1
@_ZN27tts_extension_api_constants13kVoiceNameKeyE = hidden local_unnamed_addr constant [10 x i8] c"voiceName\00", align 1
@_ZN27tts_extension_api_constants10kVolumeKeyE = hidden local_unnamed_addr constant [7 x i8] c"volume\00", align 1
@_ZN27tts_extension_api_constants14kSampleRateKeyE = hidden local_unnamed_addr constant [11 x i8] c"sampleRate\00", align 1
@_ZN27tts_extension_api_constants14kBufferSizeKeyE = hidden local_unnamed_addr constant [11 x i8] c"bufferSize\00", align 1
@_ZN27tts_extension_api_constants15kAudioBufferKeyE = hidden local_unnamed_addr constant [12 x i8] c"audioBuffer\00", align 1
@_ZN27tts_extension_api_constants16kIsLastBufferKeyE = hidden local_unnamed_addr constant [13 x i8] c"isLastBuffer\00", align 1
@_ZN27tts_extension_api_constants19kEventTypeCancelledE = hidden local_unnamed_addr constant [10 x i8] c"cancelled\00", align 1
@_ZN27tts_extension_api_constants13kEventTypeEndE = hidden local_unnamed_addr constant [4 x i8] c"end\00", align 1
@_ZN27tts_extension_api_constants15kEventTypeErrorE = hidden local_unnamed_addr constant [6 x i8] c"error\00", align 1
@_ZN27tts_extension_api_constants21kEventTypeInterruptedE = hidden local_unnamed_addr constant [12 x i8] c"interrupted\00", align 1
@_ZN27tts_extension_api_constants16kEventTypeMarkerE = hidden local_unnamed_addr constant [7 x i8] c"marker\00", align 1
@_ZN27tts_extension_api_constants15kEventTypePauseE = hidden local_unnamed_addr constant [6 x i8] c"pause\00", align 1
@_ZN27tts_extension_api_constants16kEventTypeResumeE = hidden local_unnamed_addr constant [7 x i8] c"resume\00", align 1
@_ZN27tts_extension_api_constants18kEventTypeSentenceE = hidden local_unnamed_addr constant [9 x i8] c"sentence\00", align 1
@_ZN27tts_extension_api_constants15kEventTypeStartE = hidden local_unnamed_addr constant [6 x i8] c"start\00", align 1
@_ZN27tts_extension_api_constants14kEventTypeWordE = hidden local_unnamed_addr constant [5 x i8] c"word\00", align 1
@_ZN27tts_extension_api_constants25kErrorExtensionIdMismatchE = hidden local_unnamed_addr constant [23 x i8] c"Extension id mismatch.\00", align 16
@_ZN27tts_extension_api_constants17kErrorInvalidLangE = hidden local_unnamed_addr constant [14 x i8] c"Invalid lang.\00", align 1
@_ZN27tts_extension_api_constants18kErrorInvalidPitchE = hidden local_unnamed_addr constant [15 x i8] c"Invalid pitch.\00", align 1
@_ZN27tts_extension_api_constants17kErrorInvalidRateE = hidden local_unnamed_addr constant [14 x i8] c"Invalid rate.\00", align 1
@_ZN27tts_extension_api_constants19kErrorInvalidVolumeE = hidden local_unnamed_addr constant [16 x i8] c"Invalid volume.\00", align 16
@_ZN27tts_extension_api_constants26kErrorMissingPauseOrResumeE = hidden local_unnamed_addr constant [94 x i8] c"A TTS engine extension should either listen for both onPause and onResume events, or neither.\00", align 16
@_ZN27tts_extension_api_constants25kErrorUndeclaredEventTypeE = hidden local_unnamed_addr constant [74 x i8] c"Cannot send an event type that is not declared in the extension manifest.\00", align 16
@_ZN27tts_extension_api_constants22kErrorUtteranceTooLongE = hidden local_unnamed_addr constant [30 x i8] c"Utterance length is too long.\00", align 16

!llvm.module.flags = !{!0, !1}

!0 = !{i32 1, !"wchar_size", i32 4}
!1 = !{i32 7, !"PIC Level", i32 2}
