; ModuleID = '../../third_party/blink/renderer/core/css/ua_counter_style_map.cc'
source_filename = "../../third_party/blink/renderer/core/css/ua_counter_style_map.cc"
target datalayout = "e-m:e-i64:64-f80:128-n8:16:32:64-S128"
target triple = "x86_64-unknown-linux-gnu"

module asm ".symver exp, exp@GLIBC_2.2.5"
module asm ".symver exp2, exp2@GLIBC_2.2.5"
module asm ".symver exp2f, exp2f@GLIBC_2.2.5"
module asm ".symver expf, expf@GLIBC_2.2.5"
module asm ".symver lgamma, lgamma@GLIBC_2.2.5"
module asm ".symver lgammaf, lgammaf@GLIBC_2.2.5"
module asm ".symver lgammal, lgammal@GLIBC_2.2.5"
module asm ".symver log, log@GLIBC_2.2.5"
module asm ".symver log2, log2@GLIBC_2.2.5"
module asm ".symver log2f, log2f@GLIBC_2.2.5"
module asm ".symver logf, logf@GLIBC_2.2.5"
module asm ".symver pow, pow@GLIBC_2.2.5"
module asm ".symver powf, powf@GLIBC_2.2.5"

%"class.WTF::StaticSingleton" = type { %"class.WTF::StaticSingleton<blink::Persistent<blink::CounterStyleMap> >::InstanceStorage" }
%"class.WTF::StaticSingleton<blink::Persistent<blink::CounterStyleMap> >::InstanceStorage" = type { [16 x i8] }
%"class.WTF::StaticSingleton.472" = type { %"class.WTF::StaticSingleton<WTF::HashMap<WTF::AtomicString, WTF::String, WTF::AtomicStringHash, WTF::HashTraits<WTF::AtomicString>, WTF::HashTraits<WTF::String>, WTF::PartitionAllocator> >::InstanceStorage" }
%"class.WTF::StaticSingleton<WTF::HashMap<WTF::AtomicString, WTF::String, WTF::AtomicStringHash, WTF::HashTraits<WTF::AtomicString>, WTF::HashTraits<WTF::String>, WTF::PartitionAllocator> >::InstanceStorage" = type { [24 x i8] }
%"class.WTF::StringImpl" = type { i32, i32, %"struct.std::__1::atomic" }
%"struct.std::__1::atomic" = type { %"struct.std::__1::__atomic_base" }
%"struct.std::__1::__atomic_base" = type { %"struct.std::__1::__atomic_base.8" }
%"struct.std::__1::__atomic_base.8" = type { %"struct.std::__1::__cxx_atomic_impl" }
%"struct.std::__1::__cxx_atomic_impl" = type { %"struct.std::__1::__cxx_atomic_base_impl" }
%"struct.std::__1::__cxx_atomic_base_impl" = type { i32 }
%"class.WTF::ThreadSpecific" = type { %"class.blink::ThreadState"**, %"class.base::ThreadLocalStorage::Slot" }
%"class.blink::ThreadState" = type <{ %"class.std::__1::unique_ptr", i32, [4 x i8], %"class.std::__1::unique_ptr.139", %"class.std::__1::unique_ptr.139", i8**, i8, i8, i8, i8, i8, i8, [2 x i8], i64, i64, i32, i32, i32, [4 x i8], %"class.WTF::Deque", %"class.v8::Isolate"*, void (%"class.v8::Isolate"*, %"class.v8::EmbedderGraph"*, i8*)*, %"class.std::__1::unique_ptr.149", %"class.std::__1::unique_ptr.155", %"struct.blink::ThreadState::GCData", %"class.std::__1::unique_ptr.167", %"class.std::__1::unique_ptr.173", %"class.base::JobHandle", %"class.base::JobHandle", %"struct.std::__1::atomic.180", [7 x i8], i64, i8, [7 x i8], i64, %"class.base::TimeTicks", i8, i8, [6 x i8] }>
%"class.std::__1::unique_ptr" = type { %"class.std::__1::__compressed_pair" }
%"class.std::__1::__compressed_pair" = type { %"struct.std::__1::__compressed_pair_elem" }
%"struct.std::__1::__compressed_pair_elem" = type { %"class.blink::ThreadHeap"* }
%"class.blink::ThreadHeap" = type { %"class.blink::ThreadState"*, %"class.std::__1::unique_ptr.11", %"class.std::__1::unique_ptr.15", %"class.std::__1::unique_ptr.21", %"class.std::__1::unique_ptr.27", %"class.std::__1::unique_ptr.33", %"class.std::__1::unique_ptr.39", %"class.std::__1::unique_ptr.50", %"class.std::__1::unique_ptr.57", %"class.std::__1::unique_ptr.57", %"class.std::__1::unique_ptr.64", %"class.std::__1::unique_ptr.71", %"class.std::__1::unique_ptr.78", %"class.std::__1::unique_ptr.78", %"class.std::__1::unique_ptr.85", %"class.std::__1::unique_ptr.92", %"class.std::__1::unique_ptr.99", %"class.std::__1::unique_ptr.122", %"struct.blink::ThreadHeap::LastAllocatedRegion", [9 x %"class.blink::BaseArena"*], i64, i64 }
%"class.std::__1::unique_ptr.11" = type { %"class.std::__1::__compressed_pair.12" }
%"class.std::__1::__compressed_pair.12" = type { %"struct.std::__1::__compressed_pair_elem.13" }
%"struct.std::__1::__compressed_pair_elem.13" = type { %"class.blink::ThreadHeapStatsCollector"* }
%"class.blink::ThreadHeapStatsCollector" = type opaque
%"class.std::__1::unique_ptr.15" = type { %"class.std::__1::__compressed_pair.16" }
%"class.std::__1::__compressed_pair.16" = type { %"struct.std::__1::__compressed_pair_elem.17" }
%"struct.std::__1::__compressed_pair_elem.17" = type { %"class.blink::RegionTree"* }
%"class.blink::RegionTree" = type opaque
%"class.std::__1::unique_ptr.21" = type { %"class.std::__1::__compressed_pair.22" }
%"class.std::__1::__compressed_pair.22" = type { %"struct.std::__1::__compressed_pair_elem.23" }
%"struct.std::__1::__compressed_pair_elem.23" = type { %"class.blink::PageBloomFilter"* }
%"class.blink::PageBloomFilter" = type opaque
%"class.std::__1::unique_ptr.27" = type { %"class.std::__1::__compressed_pair.28" }
%"class.std::__1::__compressed_pair.28" = type { %"struct.std::__1::__compressed_pair_elem.29" }
%"struct.std::__1::__compressed_pair_elem.29" = type { %"class.blink::PagePool"* }
%"class.blink::PagePool" = type opaque
%"class.std::__1::unique_ptr.33" = type { %"class.std::__1::__compressed_pair.34" }
%"class.std::__1::__compressed_pair.34" = type { %"struct.std::__1::__compressed_pair_elem.35" }
%"struct.std::__1::__compressed_pair_elem.35" = type { %"class.blink::ProcessHeapReporter"* }
%"class.blink::ProcessHeapReporter" = type opaque
%"class.std::__1::unique_ptr.39" = type { %"class.std::__1::__compressed_pair.40" }
%"class.std::__1::__compressed_pair.40" = type { %"struct.std::__1::__compressed_pair_elem.41" }
%"struct.std::__1::__compressed_pair_elem.41" = type { %"class.blink::Worklist"* }
%"class.blink::Worklist" = type { [4 x %"struct.blink::Worklist<blink::TraceDescriptor, 512, 4>::PrivateSegmentHolder"], %"class.blink::Worklist<blink::TraceDescriptor, 512, 4>::GlobalPool" }
%"struct.blink::Worklist<blink::TraceDescriptor, 512, 4>::PrivateSegmentHolder" = type { %"class.blink::Worklist<blink::TraceDescriptor, 512, 4>::Segment"*, %"class.blink::Worklist<blink::TraceDescriptor, 512, 4>::Segment"*, [64 x i8] }
%"class.blink::Worklist<blink::TraceDescriptor, 512, 4>::Segment" = type { %"class.blink::Worklist<blink::TraceDescriptor, 512, 4>::Segment"*, i64, [512 x %"struct.blink::TraceDescriptor"] }
%"struct.blink::TraceDescriptor" = type { i8*, void (%"class.blink::Visitor"*, i8*)* }
%"class.blink::Visitor" = type { i32 (...)**, %"class.blink::ThreadState"* }
%"class.blink::Worklist<blink::TraceDescriptor, 512, 4>::GlobalPool" = type { %"class.base::Lock", %"class.blink::Worklist<blink::TraceDescriptor, 512, 4>::Segment"*, %"struct.std::__1::atomic.42" }
%"class.base::Lock" = type { %"class.base::internal::LockImpl" }
%"class.base::internal::LockImpl" = type { %union.pthread_mutex_t }
%union.pthread_mutex_t = type { %struct.__pthread_mutex_s }
%struct.__pthread_mutex_s = type { i32, i32, i32, i32, i32, i16, i16, %struct.__pthread_internal_list }
%struct.__pthread_internal_list = type { %struct.__pthread_internal_list*, %struct.__pthread_internal_list* }
%"struct.std::__1::atomic.42" = type { %"struct.std::__1::__atomic_base.43" }
%"struct.std::__1::__atomic_base.43" = type { %"struct.std::__1::__atomic_base.44" }
%"struct.std::__1::__atomic_base.44" = type { %"struct.std::__1::__cxx_atomic_impl.45" }
%"struct.std::__1::__cxx_atomic_impl.45" = type { %"struct.std::__1::__cxx_atomic_base_impl.46" }
%"struct.std::__1::__cxx_atomic_base_impl.46" = type { i64 }
%"class.std::__1::unique_ptr.50" = type { %"class.std::__1::__compressed_pair.51" }
%"class.std::__1::__compressed_pair.51" = type { %"struct.std::__1::__compressed_pair_elem.52" }
%"struct.std::__1::__compressed_pair_elem.52" = type { %"class.blink::Worklist.53"* }
%"class.blink::Worklist.53" = type { [4 x %"struct.blink::Worklist<blink::HeapObjectHeader *, 64, 4>::PrivateSegmentHolder"], %"class.blink::Worklist<blink::HeapObjectHeader *, 64, 4>::GlobalPool" }
%"struct.blink::Worklist<blink::HeapObjectHeader *, 64, 4>::PrivateSegmentHolder" = type { %"class.blink::Worklist<blink::HeapObjectHeader *, 64, 4>::Segment"*, %"class.blink::Worklist<blink::HeapObjectHeader *, 64, 4>::Segment"*, [64 x i8] }
%"class.blink::Worklist<blink::HeapObjectHeader *, 64, 4>::Segment" = type opaque
%"class.blink::Worklist<blink::HeapObjectHeader *, 64, 4>::GlobalPool" = type { %"class.base::Lock", %"class.blink::Worklist<blink::HeapObjectHeader *, 64, 4>::Segment"*, %"struct.std::__1::atomic.42" }
%"class.std::__1::unique_ptr.57" = type { %"class.std::__1::__compressed_pair.58" }
%"class.std::__1::__compressed_pair.58" = type { %"struct.std::__1::__compressed_pair_elem.59" }
%"struct.std::__1::__compressed_pair_elem.59" = type { %"class.blink::Worklist.60"* }
%"class.blink::Worklist.60" = type { [4 x %"struct.blink::Worklist<const void *, 16, 4>::PrivateSegmentHolder"], %"class.blink::Worklist<const void *, 16, 4>::GlobalPool" }
%"struct.blink::Worklist<const void *, 16, 4>::PrivateSegmentHolder" = type { %"class.blink::Worklist<const void *, 16, 4>::Segment"*, %"class.blink::Worklist<const void *, 16, 4>::Segment"*, [64 x i8] }
%"class.blink::Worklist<const void *, 16, 4>::Segment" = type { %"class.blink::Worklist<const void *, 16, 4>::Segment"*, i64, [16 x i8*] }
%"class.blink::Worklist<const void *, 16, 4>::GlobalPool" = type { %"class.base::Lock", %"class.blink::Worklist<const void *, 16, 4>::Segment"*, %"struct.std::__1::atomic.42" }
%"class.std::__1::unique_ptr.64" = type { %"class.std::__1::__compressed_pair.65" }
%"class.std::__1::__compressed_pair.65" = type { %"struct.std::__1::__compressed_pair_elem.66" }
%"struct.std::__1::__compressed_pair_elem.66" = type { %"class.blink::Worklist.67"* }
%"class.blink::Worklist.67" = type { [4 x %"struct.blink::Worklist<blink::CustomCallbackItem, 64, 4>::PrivateSegmentHolder"], %"class.blink::Worklist<blink::CustomCallbackItem, 64, 4>::GlobalPool" }
%"struct.blink::Worklist<blink::CustomCallbackItem, 64, 4>::PrivateSegmentHolder" = type { %"class.blink::Worklist<blink::CustomCallbackItem, 64, 4>::Segment"*, %"class.blink::Worklist<blink::CustomCallbackItem, 64, 4>::Segment"*, [64 x i8] }
%"class.blink::Worklist<blink::CustomCallbackItem, 64, 4>::Segment" = type opaque
%"class.blink::Worklist<blink::CustomCallbackItem, 64, 4>::GlobalPool" = type { %"class.base::Lock", %"class.blink::Worklist<blink::CustomCallbackItem, 64, 4>::Segment"*, %"struct.std::__1::atomic.42" }
%"class.std::__1::unique_ptr.71" = type { %"class.std::__1::__compressed_pair.72" }
%"class.std::__1::__compressed_pair.72" = type { %"struct.std::__1::__compressed_pair_elem.73" }
%"struct.std::__1::__compressed_pair_elem.73" = type { %"class.blink::Worklist.74"* }
%"class.blink::Worklist.74" = type { [4 x %"struct.blink::Worklist<const void *const *, 256, 4>::PrivateSegmentHolder"], %"class.blink::Worklist<const void *const *, 256, 4>::GlobalPool" }
%"struct.blink::Worklist<const void *const *, 256, 4>::PrivateSegmentHolder" = type { %"class.blink::Worklist<const void *const *, 256, 4>::Segment"*, %"class.blink::Worklist<const void *const *, 256, 4>::Segment"*, [64 x i8] }
%"class.blink::Worklist<const void *const *, 256, 4>::Segment" = type opaque
%"class.blink::Worklist<const void *const *, 256, 4>::GlobalPool" = type { %"class.base::Lock", %"class.blink::Worklist<const void *const *, 256, 4>::Segment"*, %"struct.std::__1::atomic.42" }
%"class.std::__1::unique_ptr.78" = type { %"class.std::__1::__compressed_pair.79" }
%"class.std::__1::__compressed_pair.79" = type { %"struct.std::__1::__compressed_pair_elem.80" }
%"struct.std::__1::__compressed_pair_elem.80" = type { %"class.blink::Worklist.81"* }
%"class.blink::Worklist.81" = type { [4 x %"struct.blink::Worklist<blink::EphemeronPairItem, 64, 4>::PrivateSegmentHolder"], %"class.blink::Worklist<blink::EphemeronPairItem, 64, 4>::GlobalPool" }
%"struct.blink::Worklist<blink::EphemeronPairItem, 64, 4>::PrivateSegmentHolder" = type { %"class.blink::Worklist<blink::EphemeronPairItem, 64, 4>::Segment"*, %"class.blink::Worklist<blink::EphemeronPairItem, 64, 4>::Segment"*, [64 x i8] }
%"class.blink::Worklist<blink::EphemeronPairItem, 64, 4>::Segment" = type opaque
%"class.blink::Worklist<blink::EphemeronPairItem, 64, 4>::GlobalPool" = type { %"class.base::Lock", %"class.blink::Worklist<blink::EphemeronPairItem, 64, 4>::Segment"*, %"struct.std::__1::atomic.42" }
%"class.std::__1::unique_ptr.85" = type { %"class.std::__1::__compressed_pair.86" }
%"class.std::__1::__compressed_pair.86" = type { %"struct.std::__1::__compressed_pair_elem.87" }
%"struct.std::__1::__compressed_pair_elem.87" = type { %"class.blink::Worklist.88"* }
%"class.blink::Worklist.88" = type { [4 x %"struct.blink::Worklist<const blink::TraceWrapperV8Reference<v8::Value> *, 16, 4>::PrivateSegmentHolder"], %"class.blink::Worklist<const blink::TraceWrapperV8Reference<v8::Value> *, 16, 4>::GlobalPool" }
%"struct.blink::Worklist<const blink::TraceWrapperV8Reference<v8::Value> *, 16, 4>::PrivateSegmentHolder" = type { %"class.blink::Worklist<const blink::TraceWrapperV8Reference<v8::Value> *, 16, 4>::Segment"*, %"class.blink::Worklist<const blink::TraceWrapperV8Reference<v8::Value> *, 16, 4>::Segment"*, [64 x i8] }
%"class.blink::Worklist<const blink::TraceWrapperV8Reference<v8::Value> *, 16, 4>::Segment" = type opaque
%"class.blink::Worklist<const blink::TraceWrapperV8Reference<v8::Value> *, 16, 4>::GlobalPool" = type { %"class.base::Lock", %"class.blink::Worklist<const blink::TraceWrapperV8Reference<v8::Value> *, 16, 4>::Segment"*, %"struct.std::__1::atomic.42" }
%"class.std::__1::unique_ptr.92" = type { %"class.std::__1::__compressed_pair.93" }
%"class.std::__1::__compressed_pair.93" = type { %"struct.std::__1::__compressed_pair_elem.94" }
%"struct.std::__1::__compressed_pair_elem.94" = type { %"class.blink::Worklist.95"* }
%"class.blink::Worklist.95" = type { [4 x %"struct.blink::Worklist<blink::NotSafeToConcurrentlyTraceItem, 64, 4>::PrivateSegmentHolder"], %"class.blink::Worklist<blink::NotSafeToConcurrentlyTraceItem, 64, 4>::GlobalPool" }
%"struct.blink::Worklist<blink::NotSafeToConcurrentlyTraceItem, 64, 4>::PrivateSegmentHolder" = type { %"class.blink::Worklist<blink::NotSafeToConcurrentlyTraceItem, 64, 4>::Segment"*, %"class.blink::Worklist<blink::NotSafeToConcurrentlyTraceItem, 64, 4>::Segment"*, [64 x i8] }
%"class.blink::Worklist<blink::NotSafeToConcurrentlyTraceItem, 64, 4>::Segment" = type { %"class.blink::Worklist<blink::NotSafeToConcurrentlyTraceItem, 64, 4>::Segment"*, i64, [64 x %"struct.blink::NotSafeToConcurrentlyTraceItem"] }
%"struct.blink::NotSafeToConcurrentlyTraceItem" = type { %"struct.blink::TraceDescriptor", i64 }
%"class.blink::Worklist<blink::NotSafeToConcurrentlyTraceItem, 64, 4>::GlobalPool" = type { %"class.base::Lock", %"class.blink::Worklist<blink::NotSafeToConcurrentlyTraceItem, 64, 4>::Segment"*, %"struct.std::__1::atomic.42" }
%"class.std::__1::unique_ptr.99" = type { %"class.std::__1::__compressed_pair.100" }
%"class.std::__1::__compressed_pair.100" = type { %"struct.std::__1::__compressed_pair_elem.101" }
%"struct.std::__1::__compressed_pair_elem.101" = type { %"class.blink::WeakContainersWorklist"* }
%"class.blink::WeakContainersWorklist" = type { %"class.WTF::Mutex", %"class.std::__1::unordered_set" }
%"class.WTF::Mutex" = type { %"class.WTF::MutexBase" }
%"class.WTF::MutexBase" = type { %"struct.WTF::PlatformMutex" }
%"struct.WTF::PlatformMutex" = type { %union.pthread_mutex_t }
%"class.std::__1::unordered_set" = type { %"class.std::__1::__hash_table" }
%"class.std::__1::__hash_table" = type <{ %"class.std::__1::unique_ptr.102", %"class.std::__1::__compressed_pair.109", %"class.std::__1::__compressed_pair.114", %"class.std::__1::__compressed_pair.116", [4 x i8] }>
%"class.std::__1::unique_ptr.102" = type { %"class.std::__1::__compressed_pair.103" }
%"class.std::__1::__compressed_pair.103" = type { %"struct.std::__1::__compressed_pair_elem.104", %"struct.std::__1::__compressed_pair_elem.105" }
%"struct.std::__1::__compressed_pair_elem.104" = type { %"struct.std::__1::__hash_node_base"** }
%"struct.std::__1::__hash_node_base" = type { %"struct.std::__1::__hash_node_base"* }
%"struct.std::__1::__compressed_pair_elem.105" = type { %"class.std::__1::__bucket_list_deallocator" }
%"class.std::__1::__bucket_list_deallocator" = type { %"class.std::__1::__compressed_pair.106" }
%"class.std::__1::__compressed_pair.106" = type { %"struct.std::__1::__compressed_pair_elem.107" }
%"struct.std::__1::__compressed_pair_elem.107" = type { i64 }
%"class.std::__1::__compressed_pair.109" = type { %"struct.std::__1::__compressed_pair_elem.110" }
%"struct.std::__1::__compressed_pair_elem.110" = type { %"struct.std::__1::__hash_node_base" }
%"class.std::__1::__compressed_pair.114" = type { %"struct.std::__1::__compressed_pair_elem.107" }
%"class.std::__1::__compressed_pair.116" = type { %"struct.std::__1::__compressed_pair_elem.117" }
%"struct.std::__1::__compressed_pair_elem.117" = type { float }
%"class.std::__1::unique_ptr.122" = type { %"class.std::__1::__compressed_pair.123" }
%"class.std::__1::__compressed_pair.123" = type { %"struct.std::__1::__compressed_pair_elem.124" }
%"struct.std::__1::__compressed_pair_elem.124" = type { %"class.blink::HeapCompact"* }
%"class.blink::HeapCompact" = type <{ %"class.blink::ThreadHeap"*, %"class.std::__1::unique_ptr.125", i8, [7 x i8], i64, i64, i32, [4 x i8], i64, i8, [7 x i8] }>
%"class.std::__1::unique_ptr.125" = type { %"class.std::__1::__compressed_pair.126" }
%"class.std::__1::__compressed_pair.126" = type { %"struct.std::__1::__compressed_pair_elem.127" }
%"struct.std::__1::__compressed_pair_elem.127" = type { %"class.blink::HeapCompact::MovableObjectFixups"* }
%"class.blink::HeapCompact::MovableObjectFixups" = type opaque
%"struct.blink::ThreadHeap::LastAllocatedRegion" = type { i8*, i64 }
%"class.blink::BaseArena" = type <{ i32 (...)**, %"class.blink::PageStackThreadSafe", %"class.blink::PageStackThreadSafe", %"class.blink::PageStackThreadSafe", %"class.blink::PageStackThreadSafe", %"class.blink::ThreadState"*, i32, [4 x i8] }>
%"class.blink::PageStackThreadSafe" = type { %"class.blink::PageStack", %"class.WTF::Mutex" }
%"class.blink::PageStack" = type { %"class.WTF::Vector" }
%"class.WTF::Vector" = type { %"class.WTF::VectorBuffer" }
%"class.WTF::VectorBuffer" = type { %"class.WTF::VectorBufferBase" }
%"class.WTF::VectorBufferBase" = type { %"class.blink::BasePage"**, i32, i32 }
%"class.blink::BasePage" = type <{ i32 (...)**, %"class.blink::PageMemory"*, %"class.blink::BaseArena"*, %"class.blink::ThreadState"*, i64, i8, i8, i8, [5 x i8] }>
%"class.blink::PageMemory" = type opaque
%"class.std::__1::unique_ptr.139" = type { %"class.std::__1::__compressed_pair.140" }
%"class.std::__1::__compressed_pair.140" = type { %"struct.std::__1::__compressed_pair_elem.141" }
%"struct.std::__1::__compressed_pair_elem.141" = type { %"class.blink::PersistentRegion"* }
%"class.blink::PersistentRegion" = type { %"class.blink::PersistentRegionBase" }
%"class.blink::PersistentRegionBase" = type { %"class.blink::PersistentNode"*, %"struct.blink::PersistentNodeSlots"* }
%"class.blink::PersistentNode" = type { i8*, void (%"class.blink::Visitor"*, i8*)* }
%"struct.blink::PersistentNodeSlots" = type { %"struct.blink::PersistentNodeSlots"*, [256 x %"class.blink::PersistentNode"] }
%"class.WTF::Deque" = type { %"class.WTF::Deque<std::__1::pair<void *, bool (*)(const blink::LivenessBroker &, void *)>, 0, WTF::PartitionAllocator>::BackingBuffer", i32, i32 }
%"class.WTF::Deque<std::__1::pair<void *, bool (*)(const blink::LivenessBroker &, void *)>, 0, WTF::PartitionAllocator>::BackingBuffer" = type { %"class.WTF::VectorBuffer.147" }
%"class.WTF::VectorBuffer.147" = type { %"class.WTF::VectorBufferBase.148" }
%"class.WTF::VectorBufferBase.148" = type { %"struct.std::__1::pair"*, i32, i32 }
%"struct.std::__1::pair" = type { i8*, i1 (%"class.blink::LivenessBroker"*, i8*)* }
%"class.blink::LivenessBroker" = type { i8 }
%"class.v8::Isolate" = type { i8 }
%"class.v8::EmbedderGraph" = type opaque
%"class.std::__1::unique_ptr.149" = type { %"class.std::__1::__compressed_pair.150" }
%"class.std::__1::__compressed_pair.150" = type { %"struct.std::__1::__compressed_pair_elem.151" }
%"struct.std::__1::__compressed_pair_elem.151" = type { %"class.blink::UnifiedHeapController"* }
%"class.blink::UnifiedHeapController" = type opaque
%"class.std::__1::unique_ptr.155" = type { %"class.std::__1::__compressed_pair.156" }
%"class.std::__1::__compressed_pair.156" = type { %"struct.std::__1::__compressed_pair_elem.157" }
%"struct.std::__1::__compressed_pair_elem.157" = type { %"class.v8::EmbedderRootsHandler"* }
%"class.v8::EmbedderRootsHandler" = type { i32 (...)** }
%"struct.blink::ThreadState::GCData" = type { i32, i32, i32, i32, %"class.std::__1::unique_ptr.161" }
%"class.std::__1::unique_ptr.161" = type { %"class.std::__1::__compressed_pair.162" }
%"class.std::__1::__compressed_pair.162" = type { %"struct.std::__1::__compressed_pair_elem.163" }
%"struct.std::__1::__compressed_pair_elem.163" = type { %"class.blink::MarkingVisitor"* }
%"class.blink::MarkingVisitor" = type { %"class.blink::MarkingVisitorBase", %"class.blink::MarkingVisitor::RecentlyRetracedWeakContainers" }
%"class.blink::MarkingVisitorBase" = type { %"class.blink::Visitor", %"class.blink::Worklist<blink::TraceDescriptor, 512, 4>::View", %"class.blink::Worklist<blink::HeapObjectHeader *, 64, 4>::View", %"class.blink::Worklist<const void *, 16, 4>::View", %"class.blink::Worklist<blink::CustomCallbackItem, 64, 4>::View", %"class.blink::Worklist<const void *const *, 256, 4>::View", %"class.blink::Worklist<blink::EphemeronPairItem, 64, 4>::View", %"class.blink::Worklist<blink::EphemeronPairItem, 64, 4>::View", %"class.blink::WeakContainersWorklist"*, i64, i32, i32 }
%"class.blink::Worklist<blink::TraceDescriptor, 512, 4>::View" = type <{ %"class.blink::Worklist"*, i32, [4 x i8] }>
%"class.blink::Worklist<blink::HeapObjectHeader *, 64, 4>::View" = type <{ %"class.blink::Worklist.53"*, i32, [4 x i8] }>
%"class.blink::Worklist<const void *, 16, 4>::View" = type <{ %"class.blink::Worklist.60"*, i32, [4 x i8] }>
%"class.blink::Worklist<blink::CustomCallbackItem, 64, 4>::View" = type <{ %"class.blink::Worklist.67"*, i32, [4 x i8] }>
%"class.blink::Worklist<const void *const *, 256, 4>::View" = type <{ %"class.blink::Worklist.74"*, i32, [4 x i8] }>
%"class.blink::Worklist<blink::EphemeronPairItem, 64, 4>::View" = type <{ %"class.blink::Worklist.81"*, i32, [4 x i8] }>
%"class.blink::MarkingVisitor::RecentlyRetracedWeakContainers" = type { %"class.std::__1::vector", i64 }
%"class.std::__1::vector" = type { %"class.std::__1::__vector_base" }
%"class.std::__1::__vector_base" = type { %"class.blink::HeapObjectHeader"**, %"class.blink::HeapObjectHeader"**, %"class.std::__1::__compressed_pair.184" }
%"class.blink::HeapObjectHeader" = type { i32, i16, i16 }
%"class.std::__1::__compressed_pair.184" = type { %"struct.std::__1::__compressed_pair_elem.185" }
%"struct.std::__1::__compressed_pair_elem.185" = type { %"class.blink::HeapObjectHeader"** }
%"class.std::__1::unique_ptr.167" = type { %"class.std::__1::__compressed_pair.168" }
%"class.std::__1::__compressed_pair.168" = type { %"struct.std::__1::__compressed_pair_elem.169" }
%"struct.std::__1::__compressed_pair_elem.169" = type { %"class.blink::ThreadState::IncrementalMarkingScheduler"* }
%"class.blink::ThreadState::IncrementalMarkingScheduler" = type opaque
%"class.std::__1::unique_ptr.173" = type { %"class.std::__1::__compressed_pair.174" }
%"class.std::__1::__compressed_pair.174" = type { %"struct.std::__1::__compressed_pair_elem.175" }
%"struct.std::__1::__compressed_pair_elem.175" = type { %"class.blink::MarkingSchedulingOracle"* }
%"class.blink::MarkingSchedulingOracle" = type opaque
%"class.base::JobHandle" = type { %class.scoped_refptr.179 }
%class.scoped_refptr.179 = type { %"class.base::internal::JobTaskSource"* }
%"class.base::internal::JobTaskSource" = type opaque
%"struct.std::__1::atomic.180" = type { %"struct.std::__1::__atomic_base.181" }
%"struct.std::__1::__atomic_base.181" = type { %"struct.std::__1::__cxx_atomic_impl.182" }
%"struct.std::__1::__cxx_atomic_impl.182" = type { %"struct.std::__1::__cxx_atomic_base_impl.183" }
%"struct.std::__1::__cxx_atomic_base_impl.183" = type { i8 }
%"class.base::TimeTicks" = type { %"class.base::time_internal::TimeBase" }
%"class.base::time_internal::TimeBase" = type { i64 }
%"class.base::ThreadLocalStorage::Slot" = type { i32, i32 }
%"struct.blink::GCInfo" = type { void (%"class.blink::Visitor"*, i8*)*, void (i8*)*, { i8*, i8 } (i8*)*, i8 }
%"class.blink::GCInfoTable" = type { %"struct.blink::GCInfo"**, i32, i32, %"class.WTF::Mutex" }
%"class.blink::AtomicEntryFlag" = type { %"struct.std::__1::atomic.524" }
%"struct.std::__1::atomic.524" = type { %"struct.std::__1::__atomic_base.525" }
%"struct.std::__1::__atomic_base.525" = type { %"struct.std::__1::__atomic_base.526" }
%"struct.std::__1::__atomic_base.526" = type { %"struct.std::__1::__cxx_atomic_impl.527" }
%"struct.std::__1::__cxx_atomic_impl.527" = type { %"struct.std::__1::__cxx_atomic_base_impl.528" }
%"struct.std::__1::__cxx_atomic_base_impl.528" = type { i32 }
%"class.blink::CounterStyleMap" = type { %"class.blink::Member", %"class.blink::Member.0", %"class.blink::HeapHashMap" }
%"class.blink::Member" = type { %"class.blink::MemberBase" }
%"class.blink::MemberBase" = type { %"class.blink::Document"* }
%"class.blink::Document" = type opaque
%"class.blink::Member.0" = type { %"class.blink::MemberBase.1" }
%"class.blink::MemberBase.1" = type { %"class.blink::TreeScope"* }
%"class.blink::TreeScope" = type opaque
%"class.blink::HeapHashMap" = type { %"class.WTF::HashMap" }
%"class.WTF::HashMap" = type { %"class.WTF::HashTable" }
%"class.WTF::HashTable" = type <{ %"struct.WTF::KeyValuePair"*, i32, i32, i32, [4 x i8] }>
%"struct.WTF::KeyValuePair" = type { %"class.WTF::AtomicString", %"class.blink::Member.199" }
%"class.WTF::AtomicString" = type { %"class.WTF::String" }
%"class.WTF::String" = type { %class.scoped_refptr }
%class.scoped_refptr = type { %"class.WTF::StringImpl"* }
%"class.blink::Member.199" = type { %"class.blink::MemberBase.200" }
%"class.blink::MemberBase.200" = type { %"class.blink::CounterStyle"* }
%"class.blink::CounterStyle" = type <{ %"class.blink::Member.191", i32, i32, %"class.WTF::AtomicString", %"class.blink::Member.199", %"class.WTF::AtomicString", %"class.blink::Member.199", i8, [7 x i8], %"class.WTF::Vector.201", %"class.WTF::Vector.206", %"class.WTF::Vector.211", %"class.WTF::String", %"class.WTF::String", %"class.WTF::String", %"class.WTF::String", %"class.WTF::String", i32, i32, i8, i8, i8, i8, [4 x i8] }>
%"class.blink::Member.191" = type { %"class.blink::MemberBase.192" }
%"class.blink::MemberBase.192" = type { %"class.blink::StyleRuleCounterStyle"* }
%"class.blink::StyleRuleCounterStyle" = type <{ %"class.blink::StyleRuleBase", [7 x i8], %"class.WTF::AtomicString", %"class.blink::Member.195", %"class.blink::Member.195", %"class.blink::Member.195", %"class.blink::Member.195", %"class.blink::Member.195", %"class.blink::Member.195", %"class.blink::Member.195", %"class.blink::Member.195", %"class.blink::Member.195", %"class.blink::Member.195", i32, [4 x i8] }>
%"class.blink::StyleRuleBase" = type { i8 }
%"class.blink::Member.195" = type { %"class.blink::MemberBase.196" }
%"class.blink::MemberBase.196" = type { %"class.blink::CSSValue"* }
%"class.blink::CSSValue" = type { i8, i8, i8 }
%"class.WTF::Vector.201" = type { %"class.WTF::VectorBuffer.202" }
%"class.WTF::VectorBuffer.202" = type { %"class.WTF::VectorBufferBase.203" }
%"class.WTF::VectorBufferBase.203" = type { %"class.WTF::String"*, i32, i32 }
%"class.WTF::Vector.206" = type { %"class.WTF::VectorBuffer.207" }
%"class.WTF::VectorBuffer.207" = type { %"class.WTF::VectorBufferBase.208" }
%"class.WTF::VectorBufferBase.208" = type { i32*, i32, i32 }
%"class.WTF::Vector.211" = type { %"class.WTF::VectorBuffer.212" }
%"class.WTF::VectorBuffer.212" = type { %"class.WTF::VectorBufferBase.213" }
%"class.WTF::VectorBufferBase.213" = type { %"struct.std::__1::pair.214"*, i32, i32 }
%"struct.std::__1::pair.214" = type opaque
%"class.WTF::HashMap.4" = type { %"class.WTF::HashTable.5" }
%"class.WTF::HashTable.5" = type <{ %"struct.WTF::KeyValuePair.7"*, i32, i32, i32, [4 x i8] }>
%"struct.WTF::KeyValuePair.7" = type { %"class.WTF::AtomicString", %"class.WTF::String" }
%"class.blink::PersistentBase" = type { %"class.blink::CounterStyleMap"*, %"class.blink::PersistentNodePtr" }
%"class.blink::PersistentNodePtr" = type { %"class.blink::PersistentNode"* }
%"class.WTF::StringView" = type <{ %"class.WTF::StringImpl"*, i8*, i32, [4 x i8] }>
%"class.WTF::StringBuilder" = type <{ %"class.WTF::String", %union.anon.490, i32, i8, i8, [2 x i8] }>
%union.anon.490 = type { %"class.WTF::Vector.491" }
%"class.WTF::Vector.491" = type { %"class.WTF::VectorBuffer.492" }
%"class.WTF::VectorBuffer.492" = type { %"class.WTF::VectorBufferBase.493", [16 x i8] }
%"class.WTF::VectorBufferBase.493" = type { i8*, i32, i32 }
%"class.blink::StyleSheetContents" = type <{ %"class.blink::Member.219", %"class.WTF::String", %"class.blink::HeapVector", %"class.blink::HeapVector.227", %"class.blink::HeapVector.235", %"class.WTF::HashMap.244", %"class.WTF::AtomicString", %"class.blink::WeakMember", i8, [7 x i8], %"class.blink::Member.250", %"class.blink::HeapHashSet", %"class.blink::HeapHashSet", %"class.blink::Member.283", %"class.WTF::String", i8, [7 x i8] }>
%"class.blink::Member.219" = type { %"class.blink::MemberBase.220" }
%"class.blink::MemberBase.220" = type { %"class.blink::StyleRuleImport"* }
%"class.blink::StyleRuleImport" = type opaque
%"class.blink::HeapVector" = type { %"class.WTF::Vector.223" }
%"class.WTF::Vector.223" = type { %"class.WTF::VectorBuffer.224" }
%"class.WTF::VectorBuffer.224" = type { %"class.WTF::VectorBufferBase.225" }
%"class.WTF::VectorBufferBase.225" = type { %"class.blink::Member.219"*, i32, i32 }
%"class.blink::HeapVector.227" = type { %"class.WTF::Vector.230" }
%"class.WTF::Vector.230" = type { %"class.WTF::VectorBuffer.231" }
%"class.WTF::VectorBuffer.231" = type { %"class.WTF::VectorBufferBase.232" }
%"class.WTF::VectorBufferBase.232" = type { %"class.blink::Member.233"*, i32, i32 }
%"class.blink::Member.233" = type opaque
%"class.blink::HeapVector.235" = type { %"class.WTF::Vector.238" }
%"class.WTF::Vector.238" = type { %"class.WTF::VectorBuffer.239" }
%"class.WTF::VectorBuffer.239" = type { %"class.WTF::VectorBufferBase.240" }
%"class.WTF::VectorBufferBase.240" = type { %"class.blink::Member.241"*, i32, i32 }
%"class.blink::Member.241" = type { %"class.blink::MemberBase.242" }
%"class.blink::MemberBase.242" = type { %"class.blink::StyleRuleBase"* }
%"class.WTF::HashMap.244" = type { %"class.WTF::HashTable.245" }
%"class.WTF::HashTable.245" = type <{ %"struct.WTF::KeyValuePair.248"*, i32, i32, i32, [4 x i8] }>
%"struct.WTF::KeyValuePair.248" = type opaque
%"class.blink::WeakMember" = type { %"class.blink::MemberBase.249" }
%"class.blink::MemberBase.249" = type { %"class.blink::CSSStyleSheetResource"* }
%"class.blink::CSSStyleSheetResource" = type opaque
%"class.blink::Member.250" = type { %"class.blink::MemberBase.251" }
%"class.blink::MemberBase.251" = type { %"class.blink::CSSParserContext"* }
%"class.blink::CSSParserContext" = type <{ %"class.blink::KURL", %class.scoped_refptr.260, i8, i8, i8, [5 x i8], %"struct.blink::Referrer", i8, i8, i8, i8, i32, %"class.WTF::TextEncoding", %"class.blink::WeakMember.276", i32, [4 x i8] }>
%"class.blink::KURL" = type { i8, i8, %"class.WTF::String", %"struct.url::Parsed", %"class.WTF::String", %"class.std::__1::unique_ptr.254" }
%"struct.url::Parsed" = type { %"struct.url::Component", %"struct.url::Component", %"struct.url::Component", %"struct.url::Component", %"struct.url::Component", %"struct.url::Component", %"struct.url::Component", %"struct.url::Component", i8, %"struct.url::Parsed"* }
%"struct.url::Component" = type { i32, i32 }
%"class.std::__1::unique_ptr.254" = type { %"class.std::__1::__compressed_pair.255" }
%"class.std::__1::__compressed_pair.255" = type { %"struct.std::__1::__compressed_pair_elem.256" }
%"struct.std::__1::__compressed_pair_elem.256" = type { %"class.blink::KURL"* }
%class.scoped_refptr.260 = type { %"class.blink::DOMWrapperWorld"* }
%"class.blink::DOMWrapperWorld" = type { %"class.WTF::RefCounted", i32, i32, %"class.blink::Persistent.261" }
%"class.WTF::RefCounted" = type { %"class.base::RefCounted" }
%"class.base::RefCounted" = type { %"class.base::subtle::RefCountedBase" }
%"class.base::subtle::RefCountedBase" = type { i32 }
%"class.blink::Persistent.261" = type { %"class.blink::PersistentBase.262" }
%"class.blink::PersistentBase.262" = type { %"class.blink::DOMDataStore"*, %"class.blink::PersistentNodePtr" }
%"class.blink::DOMDataStore" = type { i32 (...)**, i8, [7 x i8], %"class.blink::HeapHashMap.265" }
%"class.blink::HeapHashMap.265" = type { %"class.WTF::HashMap.268" }
%"class.WTF::HashMap.268" = type { %"class.WTF::HashTable.269" }
%"class.WTF::HashTable.269" = type <{ %"struct.WTF::KeyValuePair.271"*, i32, i32, i32, [4 x i8] }>
%"struct.WTF::KeyValuePair.271" = type { %"class.blink::WeakMember.272", %"class.blink::TraceWrapperV8Reference" }
%"class.blink::WeakMember.272" = type { %"class.blink::MemberBase.273" }
%"class.blink::MemberBase.273" = type { %"class.blink::ScriptWrappable"* }
%"class.blink::ScriptWrappable" = type { %"class.blink::NameClient", %"class.blink::TraceWrapperV8Reference" }
%"class.blink::NameClient" = type { i32 (...)** }
%"class.blink::TraceWrapperV8Reference" = type { %"class.v8::TracedReference" }
%"class.v8::TracedReference" = type { %"class.v8::BasicTracedReference" }
%"class.v8::BasicTracedReference" = type { %"class.v8::TracedReferenceBase" }
%"class.v8::TracedReferenceBase" = type { i64* }
%"struct.blink::Referrer" = type <{ %"class.WTF::AtomicString", i32, [4 x i8] }>
%"class.WTF::TextEncoding" = type { i8* }
%"class.blink::WeakMember.276" = type { %"class.blink::MemberBase.277" }
%"class.blink::MemberBase.277" = type { %"class.blink::Document"* }
%"class.blink::HeapHashSet" = type { %"class.WTF::HashSet" }
%"class.WTF::HashSet" = type { %"class.WTF::HashTable.280" }
%"class.WTF::HashTable.280" = type <{ %"class.blink::WeakMember.282"*, i32, i32, i32, [4 x i8] }>
%"class.blink::WeakMember.282" = type opaque
%"class.blink::Member.283" = type { %"class.blink::MemberBase.284" }
%"class.blink::MemberBase.284" = type { %"class.blink::RuleSet"* }
%"class.blink::RuleSet" = type { %"class.blink::HeapHashMap.287", %"class.blink::HeapHashMap.287", %"class.blink::HeapHashMap.287", %"class.blink::HeapHashMap.287", %"class.blink::HeapVector.294", %"class.blink::HeapVector.294", %"class.blink::HeapVector.294", %"class.blink::HeapVector.294", %"class.blink::HeapVector.294", %"class.blink::HeapVector.294", %"class.blink::HeapVector.294", %"class.blink::HeapVector.294", %"class.blink::HeapVector.294", %"class.blink::RuleFeatureSet", %"class.blink::HeapVector.365", %"class.blink::HeapVector.373", %"class.blink::HeapVector.381", %"class.blink::HeapVector.398", %"class.blink::HeapVector.406", %"class.blink::HeapVector.414", %"class.blink::HeapVector.422", %"class.WTF::Vector.429", i32, %"class.blink::Member.453" }
%"class.blink::HeapHashMap.287" = type { %"class.WTF::HashMap.290" }
%"class.WTF::HashMap.290" = type { %"class.WTF::HashTable.291" }
%"class.WTF::HashTable.291" = type <{ %"struct.WTF::KeyValuePair.293"*, i32, i32, i32, [4 x i8] }>
%"struct.WTF::KeyValuePair.293" = type { %"class.WTF::AtomicString", %"class.blink::Member.470" }
%"class.blink::Member.470" = type { %"class.blink::MemberBase.471" }
%"class.blink::MemberBase.471" = type { %"class.blink::HeapVector.294"* }
%"class.blink::HeapVector.294" = type { %"class.WTF::Vector.297" }
%"class.WTF::Vector.297" = type { %"class.WTF::VectorBuffer.298" }
%"class.WTF::VectorBuffer.298" = type { %"class.WTF::VectorBufferBase.299" }
%"class.WTF::VectorBufferBase.299" = type { %"class.blink::Member.300"*, i32, i32 }
%"class.blink::Member.300" = type { %"class.blink::MemberBase.301" }
%"class.blink::MemberBase.301" = type { %"class.blink::RuleData"* }
%"class.blink::RuleData" = type { %"class.blink::Member.304", i64, [4 x i32] }
%"class.blink::Member.304" = type { %"class.blink::MemberBase.305" }
%"class.blink::MemberBase.305" = type { %"class.blink::StyleRule"* }
%"class.blink::StyleRule" = type { %"class.blink::StyleRuleBase", i32, %"class.blink::CSSSelectorList", %"class.blink::Member.329", %"class.blink::Member.333" }
%"class.blink::CSSSelectorList" = type { %"class.blink::CSSSelector"* }
%"class.blink::CSSSelector" = type { i24, %"union.blink::CSSSelector::DataUnion" }
%"union.blink::CSSSelector::DataUnion" = type { %"class.WTF::AtomicString" }
%"class.blink::Member.329" = type { %"class.blink::MemberBase.330" }
%"class.blink::MemberBase.330" = type { %"class.blink::CSSPropertyValueSet"* }
%"class.blink::CSSPropertyValueSet" = type { i32 }
%"class.blink::Member.333" = type { %"class.blink::MemberBase.334" }
%"class.blink::MemberBase.334" = type { %"class.blink::CSSLazyPropertyParser"* }
%"class.blink::CSSLazyPropertyParser" = type { i32 (...)** }
%"class.blink::RuleFeatureSet" = type <{ %"struct.blink::RuleFeatureSet::FeatureMetadata", [4 x i8], %"class.WTF::HashMap.338", %"class.WTF::HashMap.338", %"class.WTF::HashMap.338", %"class.WTF::HashMap.343", %class.scoped_refptr.348, %class.scoped_refptr.359, %class.scoped_refptr.358, %"class.WTF::Vector.360", %"class.WTF::Vector.360", i8, [7 x i8] }>
%"struct.blink::RuleFeatureSet::FeatureMetadata" = type <{ i8, i8, i8, i8, i32, i8, [3 x i8] }>
%"class.WTF::HashMap.338" = type { %"class.WTF::HashTable.339" }
%"class.WTF::HashTable.339" = type <{ %"struct.WTF::KeyValuePair.342"*, i32, i32, i32, [4 x i8] }>
%"struct.WTF::KeyValuePair.342" = type { %"class.WTF::AtomicString", %class.scoped_refptr.464 }
%class.scoped_refptr.464 = type { %"class.blink::InvalidationSet"* }
%"class.blink::InvalidationSet" = type <{ %"class.WTF::RefCounted.349", [4 x i8], %"union.blink::InvalidationSet::Backing", %"union.blink::InvalidationSet::Backing.355", %"union.blink::InvalidationSet::Backing.356", %"union.blink::InvalidationSet::Backing.357", %"class.blink::InvalidationFlags", %"class.blink::InvalidationSet::BackingFlags", i8, [5 x i8] }>
%"class.WTF::RefCounted.349" = type { %"class.base::RefCounted.350" }
%"class.base::RefCounted.350" = type { %"class.base::subtle::RefCountedBase" }
%"union.blink::InvalidationSet::Backing" = type { %"class.WTF::StringImpl"* }
%"union.blink::InvalidationSet::Backing.355" = type { %"class.WTF::StringImpl"* }
%"union.blink::InvalidationSet::Backing.356" = type { %"class.WTF::StringImpl"* }
%"union.blink::InvalidationSet::Backing.357" = type { %"class.WTF::StringImpl"* }
%"class.blink::InvalidationFlags" = type { i8 }
%"class.blink::InvalidationSet::BackingFlags" = type { i8 }
%"class.WTF::HashMap.343" = type { %"class.WTF::HashTable.344" }
%"class.WTF::HashTable.344" = type <{ %"struct.WTF::KeyValuePair.347"*, i32, i32, i32, [4 x i8] }>
%"struct.WTF::KeyValuePair.347" = type opaque
%class.scoped_refptr.348 = type { %"class.blink::SiblingInvalidationSet"* }
%"class.blink::SiblingInvalidationSet" = type { %"class.blink::InvalidationSet.base", i32, %class.scoped_refptr.358, %class.scoped_refptr.358 }
%"class.blink::InvalidationSet.base" = type <{ %"class.WTF::RefCounted.349", [4 x i8], %"union.blink::InvalidationSet::Backing", %"union.blink::InvalidationSet::Backing.355", %"union.blink::InvalidationSet::Backing.356", %"union.blink::InvalidationSet::Backing.357", %"class.blink::InvalidationFlags", %"class.blink::InvalidationSet::BackingFlags", i8 }>
%class.scoped_refptr.359 = type { %"class.blink::NthSiblingInvalidationSet"* }
%"class.blink::NthSiblingInvalidationSet" = type { %"class.blink::SiblingInvalidationSet" }
%class.scoped_refptr.358 = type { %"class.blink::DescendantInvalidationSet"* }
%"class.blink::DescendantInvalidationSet" = type { %"class.blink::InvalidationSet.base", [5 x i8] }
%"class.WTF::Vector.360" = type { %"class.WTF::VectorBuffer.361" }
%"class.WTF::VectorBuffer.361" = type { %"class.WTF::VectorBufferBase.362" }
%"class.WTF::VectorBufferBase.362" = type { %"class.blink::MediaQueryResult"*, i32, i32 }
%"class.blink::MediaQueryResult" = type <{ %"class.blink::MediaQueryExp", i8, [7 x i8] }>
%"class.blink::MediaQueryExp" = type { %"class.WTF::String", %"struct.blink::MediaQueryExpValue" }
%"struct.blink::MediaQueryExpValue" = type <{ i32, [4 x i8], double, i32, i32, i32, i8, i8, i8, i8 }>
%"class.blink::HeapVector.365" = type { %"class.WTF::Vector.368" }
%"class.WTF::Vector.368" = type { %"class.WTF::VectorBuffer.369" }
%"class.WTF::VectorBuffer.369" = type { %"class.WTF::VectorBufferBase.370" }
%"class.WTF::VectorBufferBase.370" = type { %"class.blink::Member.371"*, i32, i32 }
%"class.blink::Member.371" = type { %"class.blink::MemberBase.465" }
%"class.blink::MemberBase.465" = type { %"class.blink::StyleRulePage"* }
%"class.blink::StyleRulePage" = type { %"class.blink::StyleRuleBase", %"class.blink::Member.329", %"class.blink::CSSSelectorList" }
%"class.blink::HeapVector.373" = type { %"class.WTF::Vector.376" }
%"class.WTF::Vector.376" = type { %"class.WTF::VectorBuffer.377" }
%"class.WTF::VectorBuffer.377" = type { %"class.WTF::VectorBufferBase.378" }
%"class.WTF::VectorBufferBase.378" = type { %"class.blink::Member.379"*, i32, i32 }
%"class.blink::Member.379" = type { %"class.blink::MemberBase.466" }
%"class.blink::MemberBase.466" = type { %"class.blink::StyleRuleFontFace"* }
%"class.blink::StyleRuleFontFace" = type { %"class.blink::StyleRuleBase", %"class.blink::Member.329" }
%"class.blink::HeapVector.381" = type { %"class.WTF::Vector.384" }
%"class.WTF::Vector.384" = type { %"class.WTF::VectorBuffer.385" }
%"class.WTF::VectorBuffer.385" = type { %"class.WTF::VectorBufferBase.386" }
%"class.WTF::VectorBufferBase.386" = type { %"class.blink::Member.387"*, i32, i32 }
%"class.blink::Member.387" = type { %"class.blink::MemberBase.388" }
%"class.blink::MemberBase.388" = type { %"class.blink::StyleRuleKeyframes"* }
%"class.blink::StyleRuleKeyframes" = type <{ %"class.blink::StyleRuleBase", [7 x i8], %"class.blink::HeapVector.389", %"class.WTF::AtomicString", i32, [4 x i8] }>
%"class.blink::HeapVector.389" = type { %"class.WTF::Vector.392" }
%"class.WTF::Vector.392" = type { %"class.WTF::VectorBuffer.393" }
%"class.WTF::VectorBuffer.393" = type { %"class.WTF::VectorBufferBase.394" }
%"class.WTF::VectorBufferBase.394" = type { %"class.blink::Member.395"*, i32, i32 }
%"class.blink::Member.395" = type opaque
%"class.blink::HeapVector.398" = type { %"class.WTF::Vector.401" }
%"class.WTF::Vector.401" = type { %"class.WTF::VectorBuffer.402" }
%"class.WTF::VectorBuffer.402" = type { %"class.WTF::VectorBufferBase.403" }
%"class.WTF::VectorBufferBase.403" = type { %"class.blink::Member.404"*, i32, i32 }
%"class.blink::Member.404" = type { %"class.blink::MemberBase.467" }
%"class.blink::MemberBase.467" = type { %"class.blink::StyleRuleProperty"* }
%"class.blink::StyleRuleProperty" = type { %"class.blink::StyleRuleBase", %"class.WTF::String", %"class.blink::Member.329" }
%"class.blink::HeapVector.406" = type { %"class.WTF::Vector.409" }
%"class.WTF::Vector.409" = type { %"class.WTF::VectorBuffer.410" }
%"class.WTF::VectorBuffer.410" = type { %"class.WTF::VectorBufferBase.411" }
%"class.WTF::VectorBufferBase.411" = type { %"class.blink::Member.412"*, i32, i32 }
%"class.blink::Member.412" = type { %"class.blink::MemberBase.468" }
%"class.blink::MemberBase.468" = type { %"class.blink::StyleRuleCounterStyle"* }
%"class.blink::HeapVector.414" = type { %"class.WTF::Vector.417" }
%"class.WTF::Vector.417" = type { %"class.WTF::VectorBuffer.418" }
%"class.WTF::VectorBuffer.418" = type { %"class.WTF::VectorBufferBase.419" }
%"class.WTF::VectorBufferBase.419" = type { %"class.blink::Member.420"*, i32, i32 }
%"class.blink::Member.420" = type { %"class.blink::MemberBase.469" }
%"class.blink::MemberBase.469" = type { %"class.blink::StyleRuleScrollTimeline"* }
%"class.blink::StyleRuleScrollTimeline" = type { %"class.blink::StyleRuleBase", %"class.WTF::AtomicString", %"class.blink::Member.195", %"class.blink::Member.195", %"class.blink::Member.195", %"class.blink::Member.195", %"class.blink::Member.195" }
%"class.blink::HeapVector.422" = type { %"class.WTF::Vector.425" }
%"class.WTF::Vector.425" = type { %"class.WTF::VectorBuffer.426" }
%"class.WTF::VectorBuffer.426" = type { %"class.WTF::VectorBufferBase.427" }
%"class.WTF::VectorBufferBase.427" = type { %"class.blink::MinimalRuleData"*, i32, i32 }
%"class.blink::MinimalRuleData" = type { %"class.blink::Member.304", i32, i32 }
%"class.WTF::Vector.429" = type { %"class.WTF::VectorBuffer.430" }
%"class.WTF::VectorBuffer.430" = type { %"class.WTF::VectorBufferBase.431" }
%"class.WTF::VectorBufferBase.431" = type { %"class.blink::MediaQuerySetResult"*, i32, i32 }
%"class.blink::MediaQuerySetResult" = type <{ %class.scoped_refptr.432, i8, [7 x i8] }>
%class.scoped_refptr.432 = type { %"class.blink::MediaQuerySet"* }
%"class.blink::MediaQuerySet" = type { %"class.WTF::RefCounted.433", %"class.WTF::Vector.435" }
%"class.WTF::RefCounted.433" = type { %"class.base::RefCounted.434" }
%"class.base::RefCounted.434" = type { %"class.base::subtle::RefCountedBase" }
%"class.WTF::Vector.435" = type { %"class.WTF::VectorBuffer.436" }
%"class.WTF::VectorBuffer.436" = type { %"class.WTF::VectorBufferBase.437" }
%"class.WTF::VectorBufferBase.437" = type { %"class.std::__1::unique_ptr.438"*, i32, i32 }
%"class.std::__1::unique_ptr.438" = type { %"class.std::__1::__compressed_pair.439" }
%"class.std::__1::__compressed_pair.439" = type { %"struct.std::__1::__compressed_pair_elem.440" }
%"struct.std::__1::__compressed_pair_elem.440" = type { %"class.blink::MediaQuery"* }
%"class.blink::MediaQuery" = type { i32, %"class.WTF::String", %"class.WTF::Vector.441", %"class.WTF::String" }
%"class.WTF::Vector.441" = type { %"class.WTF::VectorBuffer.442" }
%"class.WTF::VectorBuffer.442" = type { %"class.WTF::VectorBufferBase.443" }
%"class.WTF::VectorBufferBase.443" = type { %"class.blink::MediaQueryExp"*, i32, i32 }
%"class.blink::Member.453" = type { %"class.blink::MemberBase.454" }
%"class.blink::MemberBase.454" = type { %"class.blink::RuleSet::PendingRuleMaps"* }
%"class.blink::RuleSet::PendingRuleMaps" = type { %"class.blink::HeapHashMap.457", %"class.blink::HeapHashMap.457", %"class.blink::HeapHashMap.457", %"class.blink::HeapHashMap.457" }
%"class.blink::HeapHashMap.457" = type { %"class.WTF::HashMap.460" }
%"class.WTF::HashMap.460" = type { %"class.WTF::HashTable.461" }
%"class.WTF::HashTable.461" = type <{ %"struct.WTF::KeyValuePair.463"*, i32, i32, i32, [4 x i8] }>
%"struct.WTF::KeyValuePair.463" = type opaque
%"class.logging::CheckOpResult" = type { i8* }
%"class.logging::CheckError" = type { %"class.logging::LogMessage"* }
%"class.logging::LogMessage" = type { i32 (...)**, i32, %"class.std::__1::basic_ostringstream", i64, i8*, i32, %"class.base::ScopedClearLastErrorBase" }
%"class.std::__1::basic_ostringstream" = type { %"class.std::__1::basic_ostream.base", %"class.std::__1::basic_stringbuf", %"class.std::__1::basic_ios.base" }
%"class.std::__1::basic_ostream.base" = type { i32 (...)** }
%"class.std::__1::basic_stringbuf" = type <{ %"class.std::__1::basic_streambuf", %"class.std::__1::basic_string", i8*, i32, [4 x i8] }>
%"class.std::__1::basic_streambuf" = type { i32 (...)**, %"class.std::__1::locale", i8*, i8*, i8*, i8*, i8*, i8* }
%"class.std::__1::locale" = type { %"class.std::__1::locale::__imp"* }
%"class.std::__1::locale::__imp" = type opaque
%"class.std::__1::basic_string" = type { %"class.std::__1::__compressed_pair.478" }
%"class.std::__1::__compressed_pair.478" = type { %"struct.std::__1::__compressed_pair_elem.479" }
%"struct.std::__1::__compressed_pair_elem.479" = type { %"struct.std::__1::basic_string<char, std::__1::char_traits<char>, std::__1::allocator<char> >::__rep" }
%"struct.std::__1::basic_string<char, std::__1::char_traits<char>, std::__1::allocator<char> >::__rep" = type { %union.anon.480 }
%union.anon.480 = type { %"struct.std::__1::basic_string<char, std::__1::char_traits<char>, std::__1::allocator<char> >::__long" }
%"struct.std::__1::basic_string<char, std::__1::char_traits<char>, std::__1::allocator<char> >::__long" = type { i8*, i64, i64 }
%"class.std::__1::basic_ios.base" = type <{ %"class.std::__1::ios_base", %"class.std::__1::basic_ostream"*, i32 }>
%"class.std::__1::ios_base" = type { i32 (...)**, i32, i64, i64, i32, i32, i8*, i8*, void (i32, %"class.std::__1::ios_base"*, i32)**, i32*, i64, i64, i64*, i64, i64, i8**, i64, i64 }
%"class.std::__1::basic_ostream" = type { i32 (...)**, %"class.std::__1::basic_ios.base" }
%"class.base::ScopedClearLastErrorBase" = type { i32 }
%"class.blink::NormalPageArena" = type { %"class.blink::BaseArena.base", [4 x i8], %"class.blink::FreeList", i8*, i64, i64 }
%"class.blink::BaseArena.base" = type <{ i32 (...)**, %"class.blink::PageStackThreadSafe", %"class.blink::PageStackThreadSafe", %"class.blink::PageStackThreadSafe", %"class.blink::PageStackThreadSafe", %"class.blink::ThreadState"*, i32 }>
%"class.blink::FreeList" = type <{ [17 x %"class.blink::FreeListEntry"*], [17 x %"class.blink::FreeListEntry"*], i32, [4 x i8] }>
%"class.blink::FreeListEntry" = type { %"class.blink::HeapObjectHeader", %"class.blink::FreeListEntry"* }
%"class.blink::PlatformAwareObjectStartBitmap" = type { %"class.blink::ObjectStartBitmap" }
%"class.blink::ObjectStartBitmap" = type { i8*, [2048 x i8] }
%"class.blink::HeapHashTableBacking" = type { i8 }
%"class.base::Location" = type { i8*, i8*, i32, i8* }

$_ZN3WTF17GenericHashTraitsINS_6StringEE5StoreIRA79_KcEEvOT_RS1_ = comdat any

$_ZN3WTF9HashTableINS_12AtomicStringENS_12KeyValuePairIS1_NS_6StringEEENS_24KeyValuePairKeyExtractorENS_16AtomicStringHashENS_18HashMapValueTraitsINS_10HashTraitsIS1_EENS8_IS3_EEEES9_NS_18PartitionAllocatorEE6insertINS_17HashMapTranslatorISB_S6_SC_EERA8_KcRA79_SH_EENS_18HashTableAddResultISD_S4_EEOT0_OT1_ = comdat any

$_ZN3WTF9HashTableINS_12AtomicStringENS_12KeyValuePairIS1_NS_6StringEEENS_24KeyValuePairKeyExtractorENS_16AtomicStringHashENS_18HashMapValueTraitsINS_10HashTraitsIS1_EENS8_IS3_EEEES9_NS_18PartitionAllocatorEE6ExpandEPS4_ = comdat any

$_ZN3WTF17HashMapTranslatorINS_18HashMapValueTraitsINS_10HashTraitsINS_12AtomicStringEEENS2_INS_6StringEEEEENS_16AtomicStringHashENS_18PartitionAllocatorEE9TranslateINS_12KeyValuePairIS3_S5_EERA8_KcRA79_SE_EEvRT_OT0_OT1_ = comdat any

$_ZN3WTF9HashTableINS_12AtomicStringENS_12KeyValuePairIS1_NS_6StringEEENS_24KeyValuePairKeyExtractorENS_16AtomicStringHashENS_18HashMapValueTraitsINS_10HashTraitsIS1_EENS8_IS3_EEEES9_NS_18PartitionAllocatorEE8RehashToEPS4_jSE_ = comdat any

$_ZN3WTF9HashTableINS_12AtomicStringENS_12KeyValuePairIS1_NS_6StringEEENS_24KeyValuePairKeyExtractorENS_16AtomicStringHashENS_18HashMapValueTraitsINS_10HashTraitsIS1_EENS8_IS3_EEEES9_NS_18PartitionAllocatorEE8ReinsertEOS4_ = comdat any

$_ZN3WTF9HashTableINS_12AtomicStringENS_12KeyValuePairIS1_NS_6StringEEENS_24KeyValuePairKeyExtractorENS_16AtomicStringHashENS_18HashMapValueTraitsINS_10HashTraitsIS1_EENS8_IS3_EEEES9_NS_18PartitionAllocatorEE29DeleteAllBucketsAndDeallocateEPS4_j = comdat any

$_ZN3WTF17GenericHashTraitsINS_6StringEE5StoreIRA49_KcEEvOT_RS1_ = comdat any

$_ZN3WTF9HashTableINS_12AtomicStringENS_12KeyValuePairIS1_NS_6StringEEENS_24KeyValuePairKeyExtractorENS_16AtomicStringHashENS_18HashMapValueTraitsINS_10HashTraitsIS1_EENS8_IS3_EEEES9_NS_18PartitionAllocatorEE6insertINS_17HashMapTranslatorISB_S6_SC_EERA21_KcRA49_SH_EENS_18HashTableAddResultISD_S4_EEOT0_OT1_ = comdat any

$_ZN3WTF17HashMapTranslatorINS_18HashMapValueTraitsINS_10HashTraitsINS_12AtomicStringEEENS2_INS_6StringEEEEENS_16AtomicStringHashENS_18PartitionAllocatorEE9TranslateINS_12KeyValuePairIS3_S5_EERA21_KcRA49_SE_EEvRT_OT0_OT1_ = comdat any

$_ZN3WTF17GenericHashTraitsINS_6StringEE5StoreIRA109_KcEEvOT_RS1_ = comdat any

$_ZN3WTF9HashTableINS_12AtomicStringENS_12KeyValuePairIS1_NS_6StringEEENS_24KeyValuePairKeyExtractorENS_16AtomicStringHashENS_18HashMapValueTraitsINS_10HashTraitsIS1_EENS8_IS3_EEEES9_NS_18PartitionAllocatorEE6insertINS_17HashMapTranslatorISB_S6_SC_EERA13_KcRA109_SH_EENS_18HashTableAddResultISD_S4_EEOT0_OT1_ = comdat any

$_ZN3WTF17HashMapTranslatorINS_18HashMapValueTraitsINS_10HashTraitsINS_12AtomicStringEEENS2_INS_6StringEEEEENS_16AtomicStringHashENS_18PartitionAllocatorEE9TranslateINS_12KeyValuePairIS3_S5_EERA13_KcRA109_SE_EEvRT_OT0_OT1_ = comdat any

$_ZN3WTF17GenericHashTraitsINS_6StringEE5StoreIRA65_KcEEvOT_RS1_ = comdat any

$_ZN3WTF9HashTableINS_12AtomicStringENS_12KeyValuePairIS1_NS_6StringEEENS_24KeyValuePairKeyExtractorENS_16AtomicStringHashENS_18HashMapValueTraitsINS_10HashTraitsIS1_EENS8_IS3_EEEES9_NS_18PartitionAllocatorEE6insertINS_17HashMapTranslatorISB_S6_SC_EERA9_KcRA65_SH_EENS_18HashTableAddResultISD_S4_EEOT0_OT1_ = comdat any

$_ZN3WTF17HashMapTranslatorINS_18HashMapValueTraitsINS_10HashTraitsINS_12AtomicStringEEENS2_INS_6StringEEEEENS_16AtomicStringHashENS_18PartitionAllocatorEE9TranslateINS_12KeyValuePairIS3_S5_EERA9_KcRA65_SE_EEvRT_OT0_OT1_ = comdat any

$_ZN3WTF17GenericHashTraitsINS_6StringEE5StoreIRA34_KcEEvOT_RS1_ = comdat any

$_ZN3WTF9HashTableINS_12AtomicStringENS_12KeyValuePairIS1_NS_6StringEEENS_24KeyValuePairKeyExtractorENS_16AtomicStringHashENS_18HashMapValueTraitsINS_10HashTraitsIS1_EENS8_IS3_EEEES9_NS_18PartitionAllocatorEE6insertINS_17HashMapTranslatorISB_S6_SC_EERA15_KcRA34_SH_EENS_18HashTableAddResultISD_S4_EEOT0_OT1_ = comdat any

$_ZN3WTF17HashMapTranslatorINS_18HashMapValueTraitsINS_10HashTraitsINS_12AtomicStringEEENS2_INS_6StringEEEEENS_16AtomicStringHashENS_18PartitionAllocatorEE9TranslateINS_12KeyValuePairIS3_S5_EERA15_KcRA34_SE_EEvRT_OT0_OT1_ = comdat any

$_ZN3WTF9HashTableINS_12AtomicStringENS_12KeyValuePairIS1_NS_6StringEEENS_24KeyValuePairKeyExtractorENS_16AtomicStringHashENS_18HashMapValueTraitsINS_10HashTraitsIS1_EENS8_IS3_EEEES9_NS_18PartitionAllocatorEE6insertINS_17HashMapTranslatorISB_S6_SC_EERA15_KcRA65_SH_EENS_18HashTableAddResultISD_S4_EEOT0_OT1_ = comdat any

$_ZN3WTF17HashMapTranslatorINS_18HashMapValueTraitsINS_10HashTraitsINS_12AtomicStringEEENS2_INS_6StringEEEEENS_16AtomicStringHashENS_18PartitionAllocatorEE9TranslateINS_12KeyValuePairIS3_S5_EERA15_KcRA65_SE_EEvRT_OT0_OT1_ = comdat any

$_ZN3WTF9HashTableINS_12AtomicStringENS_12KeyValuePairIS1_NS_6StringEEENS_24KeyValuePairKeyExtractorENS_16AtomicStringHashENS_18HashMapValueTraitsINS_10HashTraitsIS1_EENS8_IS3_EEEES9_NS_18PartitionAllocatorEE6insertINS_17HashMapTranslatorISB_S6_SC_EERA8_KcRA109_SH_EENS_18HashTableAddResultISD_S4_EEOT0_OT1_ = comdat any

$_ZN3WTF17HashMapTranslatorINS_18HashMapValueTraitsINS_10HashTraitsINS_12AtomicStringEEENS2_INS_6StringEEEEENS_16AtomicStringHashENS_18PartitionAllocatorEE9TranslateINS_12KeyValuePairIS3_S5_EERA8_KcRA109_SE_EEvRT_OT0_OT1_ = comdat any

$_ZN3WTF17GenericHashTraitsINS_6StringEE5StoreIRA119_KcEEvOT_RS1_ = comdat any

$_ZN3WTF9HashTableINS_12AtomicStringENS_12KeyValuePairIS1_NS_6StringEEENS_24KeyValuePairKeyExtractorENS_16AtomicStringHashENS_18HashMapValueTraitsINS_10HashTraitsIS1_EENS8_IS3_EEEES9_NS_18PartitionAllocatorEE6insertINS_17HashMapTranslatorISB_S6_SC_EERA10_KcRA119_SH_EENS_18HashTableAddResultISD_S4_EEOT0_OT1_ = comdat any

$_ZN3WTF17HashMapTranslatorINS_18HashMapValueTraitsINS_10HashTraitsINS_12AtomicStringEEENS2_INS_6StringEEEEENS_16AtomicStringHashENS_18PartitionAllocatorEE9TranslateINS_12KeyValuePairIS3_S5_EERA10_KcRA119_SE_EEvRT_OT0_OT1_ = comdat any

$_ZN3WTF17GenericHashTraitsINS_6StringEE5StoreIRA35_KcEEvOT_RS1_ = comdat any

$_ZN3WTF9HashTableINS_12AtomicStringENS_12KeyValuePairIS1_NS_6StringEEENS_24KeyValuePairKeyExtractorENS_16AtomicStringHashENS_18HashMapValueTraitsINS_10HashTraitsIS1_EENS8_IS3_EEEES9_NS_18PartitionAllocatorEE6insertINS_17HashMapTranslatorISB_S6_SC_EERA6_KcRA35_SH_EENS_18HashTableAddResultISD_S4_EEOT0_OT1_ = comdat any

$_ZN3WTF17HashMapTranslatorINS_18HashMapValueTraitsINS_10HashTraitsINS_12AtomicStringEEENS2_INS_6StringEEEEENS_16AtomicStringHashENS_18PartitionAllocatorEE9TranslateINS_12KeyValuePairIS3_S5_EERA6_KcRA35_SE_EEvRT_OT0_OT1_ = comdat any

$_ZN3WTF17GenericHashTraitsINS_6StringEE5StoreIRA163_KcEEvOT_RS1_ = comdat any

$_ZN3WTF9HashTableINS_12AtomicStringENS_12KeyValuePairIS1_NS_6StringEEENS_24KeyValuePairKeyExtractorENS_16AtomicStringHashENS_18HashMapValueTraitsINS_10HashTraitsIS1_EENS8_IS3_EEEES9_NS_18PartitionAllocatorEE6insertINS_17HashMapTranslatorISB_S6_SC_EERA12_KcRA163_SH_EENS_18HashTableAddResultISD_S4_EEOT0_OT1_ = comdat any

$_ZN3WTF17HashMapTranslatorINS_18HashMapValueTraitsINS_10HashTraitsINS_12AtomicStringEEENS2_INS_6StringEEEEENS_16AtomicStringHashENS_18PartitionAllocatorEE9TranslateINS_12KeyValuePairIS3_S5_EERA12_KcRA163_SE_EEvRT_OT0_OT1_ = comdat any

$_ZN3WTF9HashTableINS_12AtomicStringENS_12KeyValuePairIS1_NS_6StringEEENS_24KeyValuePairKeyExtractorENS_16AtomicStringHashENS_18HashMapValueTraitsINS_10HashTraitsIS1_EENS8_IS3_EEEES9_NS_18PartitionAllocatorEE6insertINS_17HashMapTranslatorISB_S6_SC_EERA11_KcRA109_SH_EENS_18HashTableAddResultISD_S4_EEOT0_OT1_ = comdat any

$_ZN3WTF17HashMapTranslatorINS_18HashMapValueTraitsINS_10HashTraitsINS_12AtomicStringEEENS2_INS_6StringEEEEENS_16AtomicStringHashENS_18PartitionAllocatorEE9TranslateINS_12KeyValuePairIS3_S5_EERA11_KcRA109_SE_EEvRT_OT0_OT1_ = comdat any

$_ZN3WTF17GenericHashTraitsINS_6StringEE5StoreIRA459_KcEEvOT_RS1_ = comdat any

$_ZN3WTF9HashTableINS_12AtomicStringENS_12KeyValuePairIS1_NS_6StringEEENS_24KeyValuePairKeyExtractorENS_16AtomicStringHashENS_18HashMapValueTraitsINS_10HashTraitsIS1_EENS8_IS3_EEEES9_NS_18PartitionAllocatorEE6insertINS_17HashMapTranslatorISB_S6_SC_EERA9_KcRA459_SH_EENS_18HashTableAddResultISD_S4_EEOT0_OT1_ = comdat any

$_ZN3WTF17HashMapTranslatorINS_18HashMapValueTraitsINS_10HashTraitsINS_12AtomicStringEEENS2_INS_6StringEEEEENS_16AtomicStringHashENS_18PartitionAllocatorEE9TranslateINS_12KeyValuePairIS3_S5_EERA9_KcRA459_SE_EEvRT_OT0_OT1_ = comdat any

$_ZN3WTF9HashTableINS_12AtomicStringENS_12KeyValuePairIS1_NS_6StringEEENS_24KeyValuePairKeyExtractorENS_16AtomicStringHashENS_18HashMapValueTraitsINS_10HashTraitsIS1_EENS8_IS3_EEEES9_NS_18PartitionAllocatorEE6insertINS_17HashMapTranslatorISB_S6_SC_EERA9_KcRA109_SH_EENS_18HashTableAddResultISD_S4_EEOT0_OT1_ = comdat any

$_ZN3WTF17HashMapTranslatorINS_18HashMapValueTraitsINS_10HashTraitsINS_12AtomicStringEEENS2_INS_6StringEEEEENS_16AtomicStringHashENS_18PartitionAllocatorEE9TranslateINS_12KeyValuePairIS3_S5_EERA9_KcRA109_SE_EEvRT_OT0_OT1_ = comdat any

$_ZN3WTF17GenericHashTraitsINS_6StringEE5StoreIRA55_KcEEvOT_RS1_ = comdat any

$_ZN3WTF9HashTableINS_12AtomicStringENS_12KeyValuePairIS1_NS_6StringEEENS_24KeyValuePairKeyExtractorENS_16AtomicStringHashENS_18HashMapValueTraitsINS_10HashTraitsIS1_EENS8_IS3_EEEES9_NS_18PartitionAllocatorEE6insertINS_17HashMapTranslatorISB_S6_SC_EERA7_KcRA55_SH_EENS_18HashTableAddResultISD_S4_EEOT0_OT1_ = comdat any

$_ZN3WTF17HashMapTranslatorINS_18HashMapValueTraitsINS_10HashTraitsINS_12AtomicStringEEENS2_INS_6StringEEEEENS_16AtomicStringHashENS_18PartitionAllocatorEE9TranslateINS_12KeyValuePairIS3_S5_EERA7_KcRA55_SE_EEvRT_OT0_OT1_ = comdat any

$_ZN3WTF9HashTableINS_12AtomicStringENS_12KeyValuePairIS1_NS_6StringEEENS_24KeyValuePairKeyExtractorENS_16AtomicStringHashENS_18HashMapValueTraitsINS_10HashTraitsIS1_EENS8_IS3_EEEES9_NS_18PartitionAllocatorEE6insertINS_17HashMapTranslatorISB_S6_SC_EERA4_KcRA109_SH_EENS_18HashTableAddResultISD_S4_EEOT0_OT1_ = comdat any

$_ZN3WTF17HashMapTranslatorINS_18HashMapValueTraitsINS_10HashTraitsINS_12AtomicStringEEENS2_INS_6StringEEEEENS_16AtomicStringHashENS_18PartitionAllocatorEE9TranslateINS_12KeyValuePairIS3_S5_EERA4_KcRA109_SE_EEvRT_OT0_OT1_ = comdat any

$_ZN3WTF9HashTableINS_12AtomicStringENS_12KeyValuePairIS1_NS_6StringEEENS_24KeyValuePairKeyExtractorENS_16AtomicStringHashENS_18HashMapValueTraitsINS_10HashTraitsIS1_EENS8_IS3_EEEES9_NS_18PartitionAllocatorEE6insertINS_17HashMapTranslatorISB_S6_SC_EERA10_KcRA109_SH_EENS_18HashTableAddResultISD_S4_EEOT0_OT1_ = comdat any

$_ZN3WTF17HashMapTranslatorINS_18HashMapValueTraitsINS_10HashTraitsINS_12AtomicStringEEENS2_INS_6StringEEEEENS_16AtomicStringHashENS_18PartitionAllocatorEE9TranslateINS_12KeyValuePairIS3_S5_EERA10_KcRA109_SE_EEvRT_OT0_OT1_ = comdat any

$_ZN3WTF9HashTableINS_12AtomicStringENS_12KeyValuePairIS1_NS_6StringEEENS_24KeyValuePairKeyExtractorENS_16AtomicStringHashENS_18HashMapValueTraitsINS_10HashTraitsIS1_EENS8_IS3_EEEES9_NS_18PartitionAllocatorEE6insertINS_17HashMapTranslatorISB_S6_SC_EERA8_KcRA119_SH_EENS_18HashTableAddResultISD_S4_EEOT0_OT1_ = comdat any

$_ZN3WTF17HashMapTranslatorINS_18HashMapValueTraitsINS_10HashTraitsINS_12AtomicStringEEENS2_INS_6StringEEEEENS_16AtomicStringHashENS_18PartitionAllocatorEE9TranslateINS_12KeyValuePairIS3_S5_EERA8_KcRA119_SE_EEvRT_OT0_OT1_ = comdat any

$_ZN3WTF9HashTableINS_12AtomicStringENS_12KeyValuePairIS1_NS_6StringEEENS_24KeyValuePairKeyExtractorENS_16AtomicStringHashENS_18HashMapValueTraitsINS_10HashTraitsIS1_EENS8_IS3_EEEES9_NS_18PartitionAllocatorEE6insertINS_17HashMapTranslatorISB_S6_SC_EERA6_KcRA109_SH_EENS_18HashTableAddResultISD_S4_EEOT0_OT1_ = comdat any

$_ZN3WTF17HashMapTranslatorINS_18HashMapValueTraitsINS_10HashTraitsINS_12AtomicStringEEENS2_INS_6StringEEEEENS_16AtomicStringHashENS_18PartitionAllocatorEE9TranslateINS_12KeyValuePairIS3_S5_EERA6_KcRA109_SE_EEvRT_OT0_OT1_ = comdat any

$_ZN3WTF17GenericHashTraitsINS_6StringEE5StoreIRA153_KcEEvOT_RS1_ = comdat any

$_ZN3WTF9HashTableINS_12AtomicStringENS_12KeyValuePairIS1_NS_6StringEEENS_24KeyValuePairKeyExtractorENS_16AtomicStringHashENS_18HashMapValueTraitsINS_10HashTraitsIS1_EENS8_IS3_EEEES9_NS_18PartitionAllocatorEE6insertINS_17HashMapTranslatorISB_S6_SC_EERA12_KcRA153_SH_EENS_18HashTableAddResultISD_S4_EEOT0_OT1_ = comdat any

$_ZN3WTF17HashMapTranslatorINS_18HashMapValueTraitsINS_10HashTraitsINS_12AtomicStringEEENS2_INS_6StringEEEEENS_16AtomicStringHashENS_18PartitionAllocatorEE9TranslateINS_12KeyValuePairIS3_S5_EERA12_KcRA153_SE_EEvRT_OT0_OT1_ = comdat any

$_ZN3WTF9HashTableINS_12AtomicStringENS_12KeyValuePairIS1_NS_6StringEEENS_24KeyValuePairKeyExtractorENS_16AtomicStringHashENS_18HashMapValueTraitsINS_10HashTraitsIS1_EENS8_IS3_EEEES9_NS_18PartitionAllocatorEE6insertINS_17HashMapTranslatorISB_S6_SC_EERA7_KcRA109_SH_EENS_18HashTableAddResultISD_S4_EEOT0_OT1_ = comdat any

$_ZN3WTF17HashMapTranslatorINS_18HashMapValueTraitsINS_10HashTraitsINS_12AtomicStringEEENS2_INS_6StringEEEEENS_16AtomicStringHashENS_18PartitionAllocatorEE9TranslateINS_12KeyValuePairIS3_S5_EERA7_KcRA109_SE_EEvRT_OT0_OT1_ = comdat any

$_ZN3WTF9HashTableINS_12AtomicStringENS_12KeyValuePairIS1_NS_6StringEEENS_24KeyValuePairKeyExtractorENS_16AtomicStringHashENS_18HashMapValueTraitsINS_10HashTraitsIS1_EENS8_IS3_EEEES9_NS_18PartitionAllocatorEE6insertINS_17HashMapTranslatorISB_S6_SC_EERA5_KcRA109_SH_EENS_18HashTableAddResultISD_S4_EEOT0_OT1_ = comdat any

$_ZN3WTF17HashMapTranslatorINS_18HashMapValueTraitsINS_10HashTraitsINS_12AtomicStringEEENS2_INS_6StringEEEEENS_16AtomicStringHashENS_18PartitionAllocatorEE9TranslateINS_12KeyValuePairIS3_S5_EERA5_KcRA109_SE_EEvRT_OT0_OT1_ = comdat any

$_ZN3WTF17GenericHashTraitsINS_6StringEE5StoreIRA94_KcEEvOT_RS1_ = comdat any

$_ZN3WTF9HashTableINS_12AtomicStringENS_12KeyValuePairIS1_NS_6StringEEENS_24KeyValuePairKeyExtractorENS_16AtomicStringHashENS_18HashMapValueTraitsINS_10HashTraitsIS1_EENS8_IS3_EEEES9_NS_18PartitionAllocatorEE6insertINS_17HashMapTranslatorISB_S6_SC_EERA12_KcRA94_SH_EENS_18HashTableAddResultISD_S4_EEOT0_OT1_ = comdat any

$_ZN3WTF17HashMapTranslatorINS_18HashMapValueTraitsINS_10HashTraitsINS_12AtomicStringEEENS2_INS_6StringEEEEENS_16AtomicStringHashENS_18PartitionAllocatorEE9TranslateINS_12KeyValuePairIS3_S5_EERA12_KcRA94_SE_EEvRT_OT0_OT1_ = comdat any

$_ZN3WTF17GenericHashTraitsINS_6StringEE5StoreIRA37_KcEEvOT_RS1_ = comdat any

$_ZN3WTF9HashTableINS_12AtomicStringENS_12KeyValuePairIS1_NS_6StringEEENS_24KeyValuePairKeyExtractorENS_16AtomicStringHashENS_18HashMapValueTraitsINS_10HashTraitsIS1_EENS8_IS3_EEEES9_NS_18PartitionAllocatorEE6insertINS_17HashMapTranslatorISB_S6_SC_EERA12_KcRA37_SH_EENS_18HashTableAddResultISD_S4_EEOT0_OT1_ = comdat any

$_ZN3WTF17HashMapTranslatorINS_18HashMapValueTraitsINS_10HashTraitsINS_12AtomicStringEEENS2_INS_6StringEEEEENS_16AtomicStringHashENS_18PartitionAllocatorEE9TranslateINS_12KeyValuePairIS3_S5_EERA12_KcRA37_SE_EEvRT_OT0_OT1_ = comdat any

$_ZN3WTF17GenericHashTraitsINS_6StringEE5StoreIRA210_KcEEvOT_RS1_ = comdat any

$_ZN3WTF9HashTableINS_12AtomicStringENS_12KeyValuePairIS1_NS_6StringEEENS_24KeyValuePairKeyExtractorENS_16AtomicStringHashENS_18HashMapValueTraitsINS_10HashTraitsIS1_EENS8_IS3_EEEES9_NS_18PartitionAllocatorEE6insertINS_17HashMapTranslatorISB_S6_SC_EERA12_KcRA210_SH_EENS_18HashTableAddResultISD_S4_EEOT0_OT1_ = comdat any

$_ZN3WTF17HashMapTranslatorINS_18HashMapValueTraitsINS_10HashTraitsINS_12AtomicStringEEENS2_INS_6StringEEEEENS_16AtomicStringHashENS_18PartitionAllocatorEE9TranslateINS_12KeyValuePairIS3_S5_EERA12_KcRA210_SE_EEvRT_OT0_OT1_ = comdat any

$_ZN3WTF17GenericHashTraitsINS_6StringEE5StoreIRA447_KcEEvOT_RS1_ = comdat any

$_ZN3WTF9HashTableINS_12AtomicStringENS_12KeyValuePairIS1_NS_6StringEEENS_24KeyValuePairKeyExtractorENS_16AtomicStringHashENS_18HashMapValueTraitsINS_10HashTraitsIS1_EENS8_IS3_EEEES9_NS_18PartitionAllocatorEE6insertINS_17HashMapTranslatorISB_S6_SC_EERA9_KcRA447_SH_EENS_18HashTableAddResultISD_S4_EEOT0_OT1_ = comdat any

$_ZN3WTF17HashMapTranslatorINS_18HashMapValueTraitsINS_10HashTraitsINS_12AtomicStringEEENS2_INS_6StringEEEEENS_16AtomicStringHashENS_18PartitionAllocatorEE9TranslateINS_12KeyValuePairIS3_S5_EERA9_KcRA447_SE_EEvRT_OT0_OT1_ = comdat any

$_ZN3WTF17GenericHashTraitsINS_6StringEE5StoreIRA439_KcEEvOT_RS1_ = comdat any

$_ZN3WTF9HashTableINS_12AtomicStringENS_12KeyValuePairIS1_NS_6StringEEENS_24KeyValuePairKeyExtractorENS_16AtomicStringHashENS_18HashMapValueTraitsINS_10HashTraitsIS1_EENS8_IS3_EEEES9_NS_18PartitionAllocatorEE6insertINS_17HashMapTranslatorISB_S6_SC_EERA15_KcRA439_SH_EENS_18HashTableAddResultISD_S4_EEOT0_OT1_ = comdat any

$_ZN3WTF17HashMapTranslatorINS_18HashMapValueTraitsINS_10HashTraitsINS_12AtomicStringEEENS2_INS_6StringEEEEENS_16AtomicStringHashENS_18PartitionAllocatorEE9TranslateINS_12KeyValuePairIS3_S5_EERA15_KcRA439_SE_EEvRT_OT0_OT1_ = comdat any

$_ZN3WTF17GenericHashTraitsINS_6StringEE5StoreIRA61_KcEEvOT_RS1_ = comdat any

$_ZN3WTF9HashTableINS_12AtomicStringENS_12KeyValuePairIS1_NS_6StringEEENS_24KeyValuePairKeyExtractorENS_16AtomicStringHashENS_18HashMapValueTraitsINS_10HashTraitsIS1_EENS8_IS3_EEEES9_NS_18PartitionAllocatorEE6insertINS_17HashMapTranslatorISB_S6_SC_EERA5_KcRA61_SH_EENS_18HashTableAddResultISD_S4_EEOT0_OT1_ = comdat any

$_ZN3WTF17HashMapTranslatorINS_18HashMapValueTraitsINS_10HashTraitsINS_12AtomicStringEEENS2_INS_6StringEEEEENS_16AtomicStringHashENS_18PartitionAllocatorEE9TranslateINS_12KeyValuePairIS3_S5_EERA5_KcRA61_SE_EEvRT_OT0_OT1_ = comdat any

$_ZN3WTF9HashTableINS_12AtomicStringENS_12KeyValuePairIS1_NS_6StringEEENS_24KeyValuePairKeyExtractorENS_16AtomicStringHashENS_18HashMapValueTraitsINS_10HashTraitsIS1_EENS8_IS3_EEEES9_NS_18PartitionAllocatorEE6insertINS_17HashMapTranslatorISB_S6_SC_EERA7_KcRA61_SH_EENS_18HashTableAddResultISD_S4_EEOT0_OT1_ = comdat any

$_ZN3WTF17HashMapTranslatorINS_18HashMapValueTraitsINS_10HashTraitsINS_12AtomicStringEEENS2_INS_6StringEEEEENS_16AtomicStringHashENS_18PartitionAllocatorEE9TranslateINS_12KeyValuePairIS3_S5_EERA7_KcRA61_SE_EEvRT_OT0_OT1_ = comdat any

$_ZN3WTF9HashTableINS_12AtomicStringENS_12KeyValuePairIS1_NS_6StringEEENS_24KeyValuePairKeyExtractorENS_16AtomicStringHashENS_18HashMapValueTraitsINS_10HashTraitsIS1_EENS8_IS3_EEEES9_NS_18PartitionAllocatorEE6insertINS_17HashMapTranslatorISB_S6_SC_EERA16_KcRA61_SH_EENS_18HashTableAddResultISD_S4_EEOT0_OT1_ = comdat any

$_ZN3WTF17HashMapTranslatorINS_18HashMapValueTraitsINS_10HashTraitsINS_12AtomicStringEEENS2_INS_6StringEEEEENS_16AtomicStringHashENS_18PartitionAllocatorEE9TranslateINS_12KeyValuePairIS3_S5_EERA16_KcRA61_SE_EEvRT_OT0_OT1_ = comdat any

$_ZN3WTF9HashTableINS_12AtomicStringENS_12KeyValuePairIS1_NS_6StringEEENS_24KeyValuePairKeyExtractorENS_16AtomicStringHashENS_18HashMapValueTraitsINS_10HashTraitsIS1_EENS8_IS3_EEEES9_NS_18PartitionAllocatorEE6insertINS_17HashMapTranslatorISB_S6_SC_EERA18_KcRA61_SH_EENS_18HashTableAddResultISD_S4_EEOT0_OT1_ = comdat any

$_ZN3WTF17HashMapTranslatorINS_18HashMapValueTraitsINS_10HashTraitsINS_12AtomicStringEEENS2_INS_6StringEEEEENS_16AtomicStringHashENS_18PartitionAllocatorEE9TranslateINS_12KeyValuePairIS3_S5_EERA18_KcRA61_SE_EEvRT_OT0_OT1_ = comdat any

$_ZN3WTF17GenericHashTraitsINS_6StringEE5StoreIRA159_KcEEvOT_RS1_ = comdat any

$_ZN3WTF9HashTableINS_12AtomicStringENS_12KeyValuePairIS1_NS_6StringEEENS_24KeyValuePairKeyExtractorENS_16AtomicStringHashENS_18HashMapValueTraitsINS_10HashTraitsIS1_EENS8_IS3_EEEES9_NS_18PartitionAllocatorEE6insertINS_17HashMapTranslatorISB_S6_SC_EERA19_KcRA159_SH_EENS_18HashTableAddResultISD_S4_EEOT0_OT1_ = comdat any

$_ZN3WTF17HashMapTranslatorINS_18HashMapValueTraitsINS_10HashTraitsINS_12AtomicStringEEENS2_INS_6StringEEEEENS_16AtomicStringHashENS_18PartitionAllocatorEE9TranslateINS_12KeyValuePairIS3_S5_EERA19_KcRA159_SE_EEvRT_OT0_OT1_ = comdat any

$_ZN3WTF17GenericHashTraitsINS_6StringEE5StoreIRA143_KcEEvOT_RS1_ = comdat any

$_ZN3WTF9HashTableINS_12AtomicStringENS_12KeyValuePairIS1_NS_6StringEEENS_24KeyValuePairKeyExtractorENS_16AtomicStringHashENS_18HashMapValueTraitsINS_10HashTraitsIS1_EENS8_IS3_EEEES9_NS_18PartitionAllocatorEE6insertINS_17HashMapTranslatorISB_S6_SC_EERA18_KcRA143_SH_EENS_18HashTableAddResultISD_S4_EEOT0_OT1_ = comdat any

$_ZN3WTF17HashMapTranslatorINS_18HashMapValueTraitsINS_10HashTraitsINS_12AtomicStringEEENS2_INS_6StringEEEEENS_16AtomicStringHashENS_18PartitionAllocatorEE9TranslateINS_12KeyValuePairIS3_S5_EERA18_KcRA143_SE_EEvRT_OT0_OT1_ = comdat any

$_ZN3WTF17GenericHashTraitsINS_6StringEE5StoreIRA664_KcEEvOT_RS1_ = comdat any

$_ZN3WTF9HashTableINS_12AtomicStringENS_12KeyValuePairIS1_NS_6StringEEENS_24KeyValuePairKeyExtractorENS_16AtomicStringHashENS_18HashMapValueTraitsINS_10HashTraitsIS1_EENS8_IS3_EEEES9_NS_18PartitionAllocatorEE6insertINS_17HashMapTranslatorISB_S6_SC_EERA18_KcRA664_SH_EENS_18HashTableAddResultISD_S4_EEOT0_OT1_ = comdat any

$_ZN3WTF17HashMapTranslatorINS_18HashMapValueTraitsINS_10HashTraitsINS_12AtomicStringEEENS2_INS_6StringEEEEENS_16AtomicStringHashENS_18PartitionAllocatorEE9TranslateINS_12KeyValuePairIS3_S5_EERA18_KcRA664_SE_EEvRT_OT0_OT1_ = comdat any

$_ZN3WTF17GenericHashTraitsINS_6StringEE5StoreIRA679_KcEEvOT_RS1_ = comdat any

$_ZN3WTF9HashTableINS_12AtomicStringENS_12KeyValuePairIS1_NS_6StringEEENS_24KeyValuePairKeyExtractorENS_16AtomicStringHashENS_18HashMapValueTraitsINS_10HashTraitsIS1_EENS8_IS3_EEEES9_NS_18PartitionAllocatorEE6insertINS_17HashMapTranslatorISB_S6_SC_EERA16_KcRA679_SH_EENS_18HashTableAddResultISD_S4_EEOT0_OT1_ = comdat any

$_ZN3WTF17HashMapTranslatorINS_18HashMapValueTraitsINS_10HashTraitsINS_12AtomicStringEEENS2_INS_6StringEEEEENS_16AtomicStringHashENS_18PartitionAllocatorEE9TranslateINS_12KeyValuePairIS3_S5_EERA16_KcRA679_SE_EEvRT_OT0_OT1_ = comdat any

$_ZN3WTF17GenericHashTraitsINS_6StringEE5StoreIRA133_KcEEvOT_RS1_ = comdat any

$_ZN3WTF9HashTableINS_12AtomicStringENS_12KeyValuePairIS1_NS_6StringEEENS_24KeyValuePairKeyExtractorENS_16AtomicStringHashENS_18HashMapValueTraitsINS_10HashTraitsIS1_EENS8_IS3_EEEES9_NS_18PartitionAllocatorEE6insertINS_17HashMapTranslatorISB_S6_SC_EERA21_KcRA133_SH_EENS_18HashTableAddResultISD_S4_EEOT0_OT1_ = comdat any

$_ZN3WTF17HashMapTranslatorINS_18HashMapValueTraitsINS_10HashTraitsINS_12AtomicStringEEENS2_INS_6StringEEEEENS_16AtomicStringHashENS_18PartitionAllocatorEE9TranslateINS_12KeyValuePairIS3_S5_EERA21_KcRA133_SE_EEvRT_OT0_OT1_ = comdat any

$_ZN3WTF17GenericHashTraitsINS_6StringEE5StoreIRA134_KcEEvOT_RS1_ = comdat any

$_ZN3WTF9HashTableINS_12AtomicStringENS_12KeyValuePairIS1_NS_6StringEEENS_24KeyValuePairKeyExtractorENS_16AtomicStringHashENS_18HashMapValueTraitsINS_10HashTraitsIS1_EENS8_IS3_EEEES9_NS_18PartitionAllocatorEE6insertINS_17HashMapTranslatorISB_S6_SC_EERA22_KcRA134_SH_EENS_18HashTableAddResultISD_S4_EEOT0_OT1_ = comdat any

$_ZN3WTF17HashMapTranslatorINS_18HashMapValueTraitsINS_10HashTraitsINS_12AtomicStringEEENS2_INS_6StringEEEEENS_16AtomicStringHashENS_18PartitionAllocatorEE9TranslateINS_12KeyValuePairIS3_S5_EERA22_KcRA134_SE_EEvRT_OT0_OT1_ = comdat any

$_ZN3WTF17GenericHashTraitsINS_6StringEE5StoreIRA132_KcEEvOT_RS1_ = comdat any

$_ZN3WTF9HashTableINS_12AtomicStringENS_12KeyValuePairIS1_NS_6StringEEENS_24KeyValuePairKeyExtractorENS_16AtomicStringHashENS_18HashMapValueTraitsINS_10HashTraitsIS1_EENS8_IS3_EEEES9_NS_18PartitionAllocatorEE6insertINS_17HashMapTranslatorISB_S6_SC_EERA20_KcRA132_SH_EENS_18HashTableAddResultISD_S4_EEOT0_OT1_ = comdat any

$_ZN3WTF17HashMapTranslatorINS_18HashMapValueTraitsINS_10HashTraitsINS_12AtomicStringEEENS2_INS_6StringEEEEENS_16AtomicStringHashENS_18PartitionAllocatorEE9TranslateINS_12KeyValuePairIS3_S5_EERA20_KcRA132_SE_EEvRT_OT0_OT1_ = comdat any

$_ZN3WTF17GenericHashTraitsINS_6StringEE5StoreIRA116_KcEEvOT_RS1_ = comdat any

$_ZN3WTF9HashTableINS_12AtomicStringENS_12KeyValuePairIS1_NS_6StringEEENS_24KeyValuePairKeyExtractorENS_16AtomicStringHashENS_18HashMapValueTraitsINS_10HashTraitsIS1_EENS8_IS3_EEEES9_NS_18PartitionAllocatorEE6insertINS_17HashMapTranslatorISB_S6_SC_EERA22_KcRA116_SH_EENS_18HashTableAddResultISD_S4_EEOT0_OT1_ = comdat any

$_ZN3WTF17HashMapTranslatorINS_18HashMapValueTraitsINS_10HashTraitsINS_12AtomicStringEEENS2_INS_6StringEEEEENS_16AtomicStringHashENS_18PartitionAllocatorEE9TranslateINS_12KeyValuePairIS3_S5_EERA22_KcRA116_SE_EEvRT_OT0_OT1_ = comdat any

$_ZN3WTF17GenericHashTraitsINS_6StringEE5StoreIRA114_KcEEvOT_RS1_ = comdat any

$_ZN3WTF9HashTableINS_12AtomicStringENS_12KeyValuePairIS1_NS_6StringEEENS_24KeyValuePairKeyExtractorENS_16AtomicStringHashENS_18HashMapValueTraitsINS_10HashTraitsIS1_EENS8_IS3_EEEES9_NS_18PartitionAllocatorEE6insertINS_17HashMapTranslatorISB_S6_SC_EERA20_KcRA114_SH_EENS_18HashTableAddResultISD_S4_EEOT0_OT1_ = comdat any

$_ZN3WTF17HashMapTranslatorINS_18HashMapValueTraitsINS_10HashTraitsINS_12AtomicStringEEENS2_INS_6StringEEEEENS_16AtomicStringHashENS_18PartitionAllocatorEE9TranslateINS_12KeyValuePairIS3_S5_EERA20_KcRA114_SE_EEvRT_OT0_OT1_ = comdat any

$_ZN3WTF17GenericHashTraitsINS_6StringEE5StoreIRA47_KcEEvOT_RS1_ = comdat any

$_ZN3WTF9HashTableINS_12AtomicStringENS_12KeyValuePairIS1_NS_6StringEEENS_24KeyValuePairKeyExtractorENS_16AtomicStringHashENS_18HashMapValueTraitsINS_10HashTraitsIS1_EENS8_IS3_EEEES9_NS_18PartitionAllocatorEE6insertINS_17HashMapTranslatorISB_S6_SC_EERA16_KcRA47_SH_EENS_18HashTableAddResultISD_S4_EEOT0_OT1_ = comdat any

$_ZN3WTF17HashMapTranslatorINS_18HashMapValueTraitsINS_10HashTraitsINS_12AtomicStringEEENS2_INS_6StringEEEEENS_16AtomicStringHashENS_18PartitionAllocatorEE9TranslateINS_12KeyValuePairIS3_S5_EERA16_KcRA47_SE_EEvRT_OT0_OT1_ = comdat any

$_ZN3WTF17GenericHashTraitsINS_6StringEE5StoreIRA85_KcEEvOT_RS1_ = comdat any

$_ZN3WTF9HashTableINS_12AtomicStringENS_12KeyValuePairIS1_NS_6StringEEENS_24KeyValuePairKeyExtractorENS_16AtomicStringHashENS_18HashMapValueTraitsINS_10HashTraitsIS1_EENS8_IS3_EEEES9_NS_18PartitionAllocatorEE6insertINS_17HashMapTranslatorISB_S6_SC_EERA17_KcRA85_SH_EENS_18HashTableAddResultISD_S4_EEOT0_OT1_ = comdat any

$_ZN3WTF17HashMapTranslatorINS_18HashMapValueTraitsINS_10HashTraitsINS_12AtomicStringEEENS2_INS_6StringEEEEENS_16AtomicStringHashENS_18PartitionAllocatorEE9TranslateINS_12KeyValuePairIS3_S5_EERA17_KcRA85_SE_EEvRT_OT0_OT1_ = comdat any

$_ZN3WTF17GenericHashTraitsINS_6StringEE5StoreIRA272_KcEEvOT_RS1_ = comdat any

$_ZN3WTF9HashTableINS_12AtomicStringENS_12KeyValuePairIS1_NS_6StringEEENS_24KeyValuePairKeyExtractorENS_16AtomicStringHashENS_18HashMapValueTraitsINS_10HashTraitsIS1_EENS8_IS3_EEEES9_NS_18PartitionAllocatorEE6insertINS_17HashMapTranslatorISB_S6_SC_EERA18_KcRA272_SH_EENS_18HashTableAddResultISD_S4_EEOT0_OT1_ = comdat any

$_ZN3WTF17HashMapTranslatorINS_18HashMapValueTraitsINS_10HashTraitsINS_12AtomicStringEEENS2_INS_6StringEEEEENS_16AtomicStringHashENS_18PartitionAllocatorEE9TranslateINS_12KeyValuePairIS3_S5_EERA18_KcRA272_SE_EEvRT_OT0_OT1_ = comdat any

$_ZN3WTF17GenericHashTraitsINS_6StringEE5StoreIRA328_KcEEvOT_RS1_ = comdat any

$_ZN3WTF9HashTableINS_12AtomicStringENS_12KeyValuePairIS1_NS_6StringEEENS_24KeyValuePairKeyExtractorENS_16AtomicStringHashENS_18HashMapValueTraitsINS_10HashTraitsIS1_EENS8_IS3_EEEES9_NS_18PartitionAllocatorEE6insertINS_17HashMapTranslatorISB_S6_SC_EERA21_KcRA328_SH_EENS_18HashTableAddResultISD_S4_EEOT0_OT1_ = comdat any

$_ZN3WTF17HashMapTranslatorINS_18HashMapValueTraitsINS_10HashTraitsINS_12AtomicStringEEENS2_INS_6StringEEEEENS_16AtomicStringHashENS_18PartitionAllocatorEE9TranslateINS_12KeyValuePairIS3_S5_EERA21_KcRA328_SE_EEvRT_OT0_OT1_ = comdat any

$_ZN3WTF17GenericHashTraitsINS_6StringEE5StoreIRA312_KcEEvOT_RS1_ = comdat any

$_ZN3WTF9HashTableINS_12AtomicStringENS_12KeyValuePairIS1_NS_6StringEEENS_24KeyValuePairKeyExtractorENS_16AtomicStringHashENS_18HashMapValueTraitsINS_10HashTraitsIS1_EENS8_IS3_EEEES9_NS_18PartitionAllocatorEE6insertINS_17HashMapTranslatorISB_S6_SC_EERA24_KcRA312_SH_EENS_18HashTableAddResultISD_S4_EEOT0_OT1_ = comdat any

$_ZN3WTF17HashMapTranslatorINS_18HashMapValueTraitsINS_10HashTraitsINS_12AtomicStringEEENS2_INS_6StringEEEEENS_16AtomicStringHashENS_18PartitionAllocatorEE9TranslateINS_12KeyValuePairIS3_S5_EERA24_KcRA312_SE_EEvRT_OT0_OT1_ = comdat any

$_ZN3WTF17GenericHashTraitsINS_6StringEE5StoreIRA336_KcEEvOT_RS1_ = comdat any

$_ZN3WTF9HashTableINS_12AtomicStringENS_12KeyValuePairIS1_NS_6StringEEENS_24KeyValuePairKeyExtractorENS_16AtomicStringHashENS_18HashMapValueTraitsINS_10HashTraitsIS1_EENS8_IS3_EEEES9_NS_18PartitionAllocatorEE6insertINS_17HashMapTranslatorISB_S6_SC_EERA24_KcRA336_SH_EENS_18HashTableAddResultISD_S4_EEOT0_OT1_ = comdat any

$_ZN3WTF17HashMapTranslatorINS_18HashMapValueTraitsINS_10HashTraitsINS_12AtomicStringEEENS2_INS_6StringEEEEENS_16AtomicStringHashENS_18PartitionAllocatorEE9TranslateINS_12KeyValuePairIS3_S5_EERA24_KcRA336_SE_EEvRT_OT0_OT1_ = comdat any

$_ZN3WTF17GenericHashTraitsINS_6StringEE5StoreIRA154_KcEEvOT_RS1_ = comdat any

$_ZN3WTF9HashTableINS_12AtomicStringENS_12KeyValuePairIS1_NS_6StringEEENS_24KeyValuePairKeyExtractorENS_16AtomicStringHashENS_18HashMapValueTraitsINS_10HashTraitsIS1_EENS8_IS3_EEEES9_NS_18PartitionAllocatorEE6insertINS_17HashMapTranslatorISB_S6_SC_EERA7_KcRA154_SH_EENS_18HashTableAddResultISD_S4_EEOT0_OT1_ = comdat any

$_ZN3WTF17HashMapTranslatorINS_18HashMapValueTraitsINS_10HashTraitsINS_12AtomicStringEEENS2_INS_6StringEEEEENS_16AtomicStringHashENS_18PartitionAllocatorEE9TranslateINS_12KeyValuePairIS3_S5_EERA7_KcRA154_SE_EEvRT_OT0_OT1_ = comdat any

$_ZN3WTF9HashTableINS_12AtomicStringENS_12KeyValuePairIS1_NS_6StringEEENS_24KeyValuePairKeyExtractorENS_16AtomicStringHashENS_18HashMapValueTraitsINS_10HashTraitsIS1_EENS8_IS3_EEEES9_NS_18PartitionAllocatorEE6insertINS_17HashMapTranslatorISB_S6_SC_EERA17_KcRA154_SH_EENS_18HashTableAddResultISD_S4_EEOT0_OT1_ = comdat any

$_ZN3WTF17HashMapTranslatorINS_18HashMapValueTraitsINS_10HashTraitsINS_12AtomicStringEEENS2_INS_6StringEEEEENS_16AtomicStringHashENS_18PartitionAllocatorEE9TranslateINS_12KeyValuePairIS3_S5_EERA17_KcRA154_SE_EEvRT_OT0_OT1_ = comdat any

$_ZN3WTF17GenericHashTraitsINS_6StringEE5StoreIRA33_KcEEvOT_RS1_ = comdat any

$_ZN3WTF9HashTableINS_12AtomicStringENS_12KeyValuePairIS1_NS_6StringEEENS_24KeyValuePairKeyExtractorENS_16AtomicStringHashENS_18HashMapValueTraitsINS_10HashTraitsIS1_EENS8_IS3_EEEES9_NS_18PartitionAllocatorEE6insertINS_17HashMapTranslatorISB_S6_SC_EERA5_KcRA33_SH_EENS_18HashTableAddResultISD_S4_EEOT0_OT1_ = comdat any

$_ZN3WTF17HashMapTranslatorINS_18HashMapValueTraitsINS_10HashTraitsINS_12AtomicStringEEENS2_INS_6StringEEEEENS_16AtomicStringHashENS_18PartitionAllocatorEE9TranslateINS_12KeyValuePairIS3_S5_EERA5_KcRA33_SE_EEvRT_OT0_OT1_ = comdat any

$_ZN3WTF13StringBuilder6AppendERKNS_10StringViewE = comdat any

$_ZNK3WTF7HashMapINS_12AtomicStringENS_6StringENS_16AtomicStringHashENS_10HashTraitsIS1_EENS4_IS2_EENS_18PartitionAllocatorEE2atERKS1_ = comdat any

$_ZN5blink10ThreadHeap8AllocateINS_15CounterStyleMapEEEPhm = comdat any

$_ZN5blink10ThreadHeap20AllocateOnArenaIndexEPNS_11ThreadStateEmijPKc = comdat any

$_ZN5blink10TraceTraitINS_15CounterStyleMapEE5TraceEPNS_7VisitorEPKv = comdat any

$_ZN5blink9NameTraitINS_15CounterStyleMapEE7GetNameEPKv = comdat any

$_ZN3WTF9HashTableINS_12AtomicStringENS_12KeyValuePairIS1_N5blink6MemberINS3_12CounterStyleEEEEENS_24KeyValuePairKeyExtractorENS_16AtomicStringHashENS_18HashMapValueTraitsINS_10HashTraitsIS1_EENSB_IS6_EEEESC_NS3_13HeapAllocatorEE6insertINS_17HashMapTranslatorISE_S9_SF_EERKS1_DnEENS_18HashTableAddResultISG_S7_EEOT0_OT1_ = comdat any

$_ZN3WTF9HashTableINS_12AtomicStringENS_12KeyValuePairIS1_N5blink6MemberINS3_12CounterStyleEEEEENS_24KeyValuePairKeyExtractorENS_16AtomicStringHashENS_18HashMapValueTraitsINS_10HashTraitsIS1_EENSB_IS6_EEEESC_NS3_13HeapAllocatorEE6ExpandEPS7_ = comdat any

$_ZN3WTF9HashTableINS_12AtomicStringENS_12KeyValuePairIS1_N5blink6MemberINS3_12CounterStyleEEEEENS_24KeyValuePairKeyExtractorENS_16AtomicStringHashENS_18HashMapValueTraitsINS_10HashTraitsIS1_EENSB_IS6_EEEESC_NS3_13HeapAllocatorEE12ExpandBufferEjPS7_Rb = comdat any

$_ZN3WTF9HashTableINS_12AtomicStringENS_12KeyValuePairIS1_N5blink6MemberINS3_12CounterStyleEEEEENS_24KeyValuePairKeyExtractorENS_16AtomicStringHashENS_18HashMapValueTraitsINS_10HashTraitsIS1_EENSB_IS6_EEEESC_NS3_13HeapAllocatorEE8RehashToEPS7_jSH_ = comdat any

$_ZN5blink25MakeGarbageCollectedTraitINS_20HeapHashTableBackingIN3WTF9HashTableINS2_12AtomicStringENS2_12KeyValuePairIS4_NS_6MemberINS_12CounterStyleEEEEENS2_24KeyValuePairKeyExtractorENS2_16AtomicStringHashENS2_18HashMapValueTraitsINS2_10HashTraitsIS4_EENSD_IS8_EEEESE_NS_13HeapAllocatorEEEEEE4CallEm = comdat any

$_ZN5blink20HeapHashTableBackingIN3WTF9HashTableINS1_12AtomicStringENS1_12KeyValuePairIS3_NS_6MemberINS_12CounterStyleEEEEENS1_24KeyValuePairKeyExtractorENS1_16AtomicStringHashENS1_18HashMapValueTraitsINS1_10HashTraitsIS3_EENSC_IS7_EEEESD_NS_13HeapAllocatorEEEE14AllocateObjectISI_EEPvm = comdat any

$_ZN5blink10TraceTraitINS_20HeapHashTableBackingIN3WTF9HashTableINS2_12AtomicStringENS2_12KeyValuePairIS4_NS_6MemberINS_12CounterStyleEEEEENS2_24KeyValuePairKeyExtractorENS2_16AtomicStringHashENS2_18HashMapValueTraitsINS2_10HashTraitsIS4_EENSD_IS8_EEEESE_NS_13HeapAllocatorEEEEEE5TraceILNS2_16WeakHandlingFlagE0EEEvPNS_7VisitorEPKv = comdat any

$_ZN5blink8internal14FinalizerTraitINS_20HeapHashTableBackingIN3WTF9HashTableINS3_12AtomicStringENS3_12KeyValuePairIS5_NS_6MemberINS_12CounterStyleEEEEENS3_24KeyValuePairKeyExtractorENS3_16AtomicStringHashENS3_18HashMapValueTraitsINS3_10HashTraitsIS5_EENSE_IS9_EEEESF_NS_13HeapAllocatorEEEEEE8FinalizeEPv = comdat any

$_ZN5blink9NameTraitINS_20HeapHashTableBackingIN3WTF9HashTableINS2_12AtomicStringENS2_12KeyValuePairIS4_NS_6MemberINS_12CounterStyleEEEEENS2_24KeyValuePairKeyExtractorENS2_16AtomicStringHashENS2_18HashMapValueTraitsINS2_10HashTraitsIS4_EENSD_IS8_EEEESE_NS_13HeapAllocatorEEEEEE7GetNameEPKv = comdat any

$_ZN3WTF38TraceHashTableBackingInCollectionTraitILNS_16WeakHandlingFlagE0ENS_9HashTableINS_12AtomicStringENS_12KeyValuePairIS3_N5blink6MemberINS5_12CounterStyleEEEEENS_24KeyValuePairKeyExtractorENS_16AtomicStringHashENS_18HashMapValueTraitsINS_10HashTraitsIS3_EENSD_IS8_EEEESE_NS5_13HeapAllocatorEEEE5TraceEPNS5_7VisitorEPKv = comdat any

$_ZN5blink10TraceTraitINS_12CounterStyleEE5TraceEPNS_7VisitorEPKv = comdat any

$_ZN5blink19TraceMethodDelegateINS_14PersistentBaseINS_15CounterStyleMapELNS_31WeaknessPersistentConfigurationE0ELNS_38CrossThreadnessPersistentConfigurationE0EEEXadL_ZNKS5_15TracePersistentEPNS_7VisitorEEEE10TrampolineES7_PKv = comdat any

$_ZNK3WTF6VectorIN5blink6MemberINS1_13StyleRuleBaseEEELj0ENS1_13HeapAllocatorEE2atEj = comdat any

$_ZN3WTF9HashTableINS_12AtomicStringENS_12KeyValuePairIS1_N5blink6MemberINS3_12CounterStyleEEEEENS_24KeyValuePairKeyExtractorENS_16AtomicStringHashENS_18HashMapValueTraitsINS_10HashTraitsIS1_EENSB_IS6_EEEESC_NS3_13HeapAllocatorEE6insertINS_17HashMapTranslatorISE_S9_SF_EERKS1_RPS5_EENS_18HashTableAddResultISG_S7_EEOT0_OT1_ = comdat any

$_ZZN5blink11GCInfoTraitINS_15CounterStyleMapEE5IndexEvE7kGcInfo = comdat any

$_ZZN5blink11GCInfoTraitINS_15CounterStyleMapEE5IndexEvE13gc_info_index = comdat any

$_ZZN5blink11GCInfoTraitINS_20HeapHashTableBackingIN3WTF9HashTableINS2_12AtomicStringENS2_12KeyValuePairIS4_NS_6MemberINS_12CounterStyleEEEEENS2_24KeyValuePairKeyExtractorENS2_16AtomicStringHashENS2_18HashMapValueTraitsINS2_10HashTraitsIS4_EENSD_IS8_EEEESE_NS_13HeapAllocatorEEEEEE5IndexEvE7kGcInfo = comdat any

$_ZZN5blink11GCInfoTraitINS_20HeapHashTableBackingIN3WTF9HashTableINS2_12AtomicStringENS2_12KeyValuePairIS4_NS_6MemberINS_12CounterStyleEEEEENS2_24KeyValuePairKeyExtractorENS2_16AtomicStringHashENS2_18HashMapValueTraitsINS2_10HashTraitsIS4_EENSD_IS8_EEEESE_NS_13HeapAllocatorEEEEEE5IndexEvE13gc_info_index = comdat any

@_ZZN5blink15CounterStyleMap20GetUACounterStyleMapEvE22s_ua_counter_style_map = internal global %"class.WTF::StaticSingleton" zeroinitializer, align 8
@_ZGVZN5blink15CounterStyleMap20GetUACounterStyleMapEvE22s_ua_counter_style_map = internal global i64 0, align 8
@_ZZN5blink12_GLOBAL__N_122GetUACounterStyleRulesEvE10s_ua_rules = internal global %"class.WTF::StaticSingleton.472" zeroinitializer, align 8
@_ZGVZN5blink12_GLOBAL__N_122GetUACounterStyleRulesEvE10s_ua_rules = internal global i64 0, align 8
@.str = private unnamed_addr constant [8 x i8] c"decimal\00", align 1
@.str.1 = private unnamed_addr constant [79 x i8] c"\0A    system: numeric;\0A    symbols: '0' '1' '2' '3' '4' '5' '6' '7' '8' '9';\0A  \00", align 1
@.str.2 = private unnamed_addr constant [21 x i8] c"decimal-leading-zero\00", align 1
@.str.3 = private unnamed_addr constant [49 x i8] c"\0A    system: extends decimal;\0A    pad: 2 '0';\0A  \00", align 1
@.str.4 = private unnamed_addr constant [13 x i8] c"arabic-indic\00", align 1
@.str.5 = private unnamed_addr constant [109 x i8] c"\0A    system: numeric;\0A    symbols: \22\5C660\22 \22\5C661\22 \22\5C662\22 \22\5C663\22 \22\5C664\22 \22\5C665\22 \22\5C666\22 \22\5C667\22 \22\5C668\22 \22\5C669\22;\0A  \00", align 1
@.str.6 = private unnamed_addr constant [9 x i8] c"armenian\00", align 1
@.str.7 = private unnamed_addr constant [65 x i8] c"\0A    system: -internal-upper-armenian;\0A    range: 1 99999999;\0A  \00", align 1
@.str.8 = private unnamed_addr constant [15 x i8] c"upper-armenian\00", align 1
@.str.9 = private unnamed_addr constant [34 x i8] c"\0A    system: extends armenian;\0A  \00", align 1
@.str.10 = private unnamed_addr constant [15 x i8] c"lower-armenian\00", align 1
@.str.11 = private unnamed_addr constant [65 x i8] c"\0A    system: -internal-lower-armenian;\0A    range: 1 99999999;\0A  \00", align 1
@.str.12 = private unnamed_addr constant [8 x i8] c"bengali\00", align 1
@.str.13 = private unnamed_addr constant [109 x i8] c"\0A    system: numeric;\0A    symbols: \22\5C9E6\22 \22\5C9E7\22 \22\5C9E8\22 \22\5C9E9\22 \22\5C9EA\22 \22\5C9EB\22 \22\5C9EC\22 \22\5C9ED\22 \22\5C9EE\22 \22\5C9EF\22;\0A  \00", align 1
@.str.14 = private unnamed_addr constant [10 x i8] c"cambodian\00", align 1
@.str.15 = private unnamed_addr constant [119 x i8] c"\0A    system: numeric;\0A    symbols: \22\5C17E0\22 \22\5C17E1\22 \22\5C17E2\22 \22\5C17E3\22 \22\5C17E4\22 \22\5C17E5\22 \22\5C17E6\22 \22\5C17E7\22 \22\5C17E8\22 \22\5C17E9\22;\0A  \00", align 1
@.str.16 = private unnamed_addr constant [6 x i8] c"khmer\00", align 1
@.str.17 = private unnamed_addr constant [35 x i8] c"\0A    system: extends cambodian;\0A  \00", align 1
@.str.18 = private unnamed_addr constant [12 x i8] c"cjk-decimal\00", align 1
@.str.19 = private unnamed_addr constant [163 x i8] c"\0A    system: numeric;\0A    range: 0 infinite;\0A    symbols: \22\5C3007\22 \22\5C4E00\22 \22\5C4E8C\22 \22\5C4E09\22 \22\5C56DB\22 \22\5C4E94\22 \22\5C516D\22 \22\5C4E03\22 \22\5C516B\22 \22\5C4E5D\22;\0A    suffix: \22\5C3001\22;\0A  \00", align 1
@.str.20 = private unnamed_addr constant [11 x i8] c"devanagari\00", align 1
@.str.21 = private unnamed_addr constant [109 x i8] c"\0A    system: numeric;\0A    symbols: \22\5C966\22 \22\5C967\22 \22\5C968\22 \22\5C969\22 \22\5C96A\22 \22\5C96B\22 \22\5C96C\22 \22\5C96D\22 \22\5C96E\22 \22\5C96F\22;\0A  \00", align 1
@.str.22 = private unnamed_addr constant [9 x i8] c"georgian\00", align 1
@.str.23 = private unnamed_addr constant [459 x i8] c"\0A    system: additive;\0A    range: 1 19999;\0A    additive-symbols: 10000 \5C10F5, 9000 \5C10F0, 8000 \5C10EF, 7000 \5C10F4, 6000 \5C10EE, 5000 \5C10ED, 4000 \5C10EC, 3000 \5C10EB, 2000 \5C10EA, 1000 \5C10E9, 900 \5C10E8, 800 \5C10E7, 700 \5C10E6, 600 \5C10E5, 500 \5C10E4, 400 \5C10F3, 300 \5C10E2, 200 \5C10E1, 100 \5C10E0, 90 \5C10DF, 80 \5C10DE, 70 \5C10DD, 60 \5C10F2, 50 \5C10DC, 40 \5C10DB, 30 \5C10DA, 20 \5C10D9, 10 \5C10D8, 9 \5C10D7, 8 \5C10F1, 7 \5C10D6, 6 \5C10D5, 5 \5C10D4, 4 \5C10D3, 3 \5C10D2, 2 \5C10D1, 1 \5C10D0;\0A  \00", align 1
@.str.24 = private unnamed_addr constant [9 x i8] c"gujarati\00", align 1
@.str.25 = private unnamed_addr constant [109 x i8] c"\0A    system: numeric;\0A    symbols: \22\5CAE6\22 \22\5CAE7\22 \22\5CAE8\22 \22\5CAE9\22 \22\5CAEA\22 \22\5CAEB\22 \22\5CAEC\22 \22\5CAED\22 \22\5CAEE\22 \22\5CAEF\22;\0A  \00", align 1
@.str.26 = private unnamed_addr constant [9 x i8] c"gurmukhi\00", align 1
@.str.27 = private unnamed_addr constant [109 x i8] c"\0A    system: numeric;\0A    symbols: \22\5CA66\22 \22\5CA67\22 \22\5CA68\22 \22\5CA69\22 \22\5CA6A\22 \22\5CA6B\22 \22\5CA6C\22 \22\5CA6D\22 \22\5CA6E\22 \22\5CA6F\22;\0A  \00", align 1
@.str.28 = private unnamed_addr constant [7 x i8] c"hebrew\00", align 1
@.str.29 = private unnamed_addr constant [55 x i8] c"\0A    system: -internal-hebrew;\0A    range: 0 999999;\0A  \00", align 1
@.str.30 = private unnamed_addr constant [8 x i8] c"kannada\00", align 1
@.str.31 = private unnamed_addr constant [109 x i8] c"\0A    system: numeric;\0A    symbols: \22\5CCE6\22 \22\5CCE7\22 \22\5CCE8\22 \22\5CCE9\22 \22\5CCEA\22 \22\5CCEB\22 \22\5CCEC\22 \22\5CCED\22 \22\5CCEE\22 \22\5CCEF\22;\0A  \00", align 1
@.str.32 = private unnamed_addr constant [4 x i8] c"lao\00", align 1
@.str.33 = private unnamed_addr constant [109 x i8] c"\0A    system: numeric;\0A    symbols: \22\5CED0\22 \22\5CED1\22 \22\5CED2\22 \22\5CED3\22 \22\5CED4\22 \22\5CED5\22 \22\5CED6\22 \22\5CED7\22 \22\5CED8\22 \22\5CED9\22;\0A  \00", align 1
@.str.34 = private unnamed_addr constant [10 x i8] c"malayalam\00", align 1
@.str.35 = private unnamed_addr constant [109 x i8] c"\0A    system: numeric;\0A    symbols: \22\5CD66\22 \22\5CD67\22 \22\5CD68\22 \22\5CD69\22 \22\5CD6A\22 \22\5CD6B\22 \22\5CD6C\22 \22\5CD6D\22 \22\5CD6E\22 \22\5CD6F\22;\0A  \00", align 1
@.str.36 = private unnamed_addr constant [10 x i8] c"mongolian\00", align 1
@.str.37 = private unnamed_addr constant [119 x i8] c"\0A    system: numeric;\0A    symbols: \22\5C1810\22 \22\5C1811\22 \22\5C1812\22 \22\5C1813\22 \22\5C1814\22 \22\5C1815\22 \22\5C1816\22 \22\5C1817\22 \22\5C1818\22 \22\5C1819\22;\0A  \00", align 1
@.str.38 = private unnamed_addr constant [8 x i8] c"myanmar\00", align 1
@.str.39 = private unnamed_addr constant [119 x i8] c"\0A    system: numeric;\0A    symbols: \22\5C1040\22 \22\5C1041\22 \22\5C1042\22 \22\5C1043\22 \22\5C1044\22 \22\5C1045\22 \22\5C1046\22 \22\5C1047\22 \22\5C1048\22 \22\5C1049\22;\0A  \00", align 1
@.str.40 = private unnamed_addr constant [6 x i8] c"oriya\00", align 1
@.str.41 = private unnamed_addr constant [109 x i8] c"\0A    system: numeric;\0A    symbols: \22\5CB66\22 \22\5CB67\22 \22\5CB68\22 \22\5CB69\22 \22\5CB6A\22 \22\5CB6B\22 \22\5CB6C\22 \22\5CB6D\22 \22\5CB6E\22 \22\5CB6F\22;\0A  \00", align 1
@.str.42 = private unnamed_addr constant [8 x i8] c"persian\00", align 1
@.str.43 = private unnamed_addr constant [109 x i8] c"\0A    system: numeric;\0A    symbols: \22\5C6F0\22 \22\5C6F1\22 \22\5C6F2\22 \22\5C6F3\22 \22\5C6F4\22 \22\5C6F5\22 \22\5C6F6\22 \22\5C6F7\22 \22\5C6F8\22 \22\5C6F9\22;\0A  \00", align 1
@.str.44 = private unnamed_addr constant [12 x i8] c"lower-roman\00", align 1
@.str.45 = private unnamed_addr constant [153 x i8] c"\0A    system: additive;\0A    range: 1 3999;\0A    additive-symbols: 1000 m, 900 cm, 500 d, 400 cd, 100 c, 90 xc, 50 l, 40 xl, 10 x, 9 ix, 5 v, 4 iv, 1 i;\0A  \00", align 1
@.str.46 = private unnamed_addr constant [12 x i8] c"upper-roman\00", align 1
@.str.47 = private unnamed_addr constant [153 x i8] c"\0A    system: additive;\0A    range: 1 3999;\0A    additive-symbols: 1000 M, 900 CM, 500 D, 400 CD, 100 C, 90 XC, 50 L, 40 XL, 10 X, 9 IX, 5 V, 4 IV, 1 I;\0A  \00", align 1
@.str.48 = private unnamed_addr constant [6 x i8] c"tamil\00", align 1
@.str.49 = private unnamed_addr constant [109 x i8] c"\0A    system: numeric;\0A    symbols: \22\5CBE6\22 \22\5CBE7\22 \22\5CBE8\22 \22\5CBE9\22 \22\5CBEA\22 \22\5CBEB\22 \22\5CBEC\22 \22\5CBED\22 \22\5CBEE\22 \22\5CBEF\22;\0A  \00", align 1
@.str.50 = private unnamed_addr constant [7 x i8] c"telugu\00", align 1
@.str.51 = private unnamed_addr constant [109 x i8] c"\0A    system: numeric;\0A    symbols: \22\5CC66\22 \22\5CC67\22 \22\5CC68\22 \22\5CC69\22 \22\5CC6A\22 \22\5CC6B\22 \22\5CC6C\22 \22\5CC6D\22 \22\5CC6E\22 \22\5CC6F\22;\0A  \00", align 1
@.str.52 = private unnamed_addr constant [5 x i8] c"thai\00", align 1
@.str.53 = private unnamed_addr constant [109 x i8] c"\0A    system: numeric;\0A    symbols: \22\5CE50\22 \22\5CE51\22 \22\5CE52\22 \22\5CE53\22 \22\5CE54\22 \22\5CE55\22 \22\5CE56\22 \22\5CE57\22 \22\5CE58\22 \22\5CE59\22;\0A  \00", align 1
@.str.54 = private unnamed_addr constant [8 x i8] c"tibetan\00", align 1
@.str.55 = private unnamed_addr constant [109 x i8] c"\0A    system: numeric;\0A    symbols: \22\5CF20\22 \22\5CF21\22 \22\5CF22\22 \22\5CF23\22 \22\5CF24\22 \22\5CF25\22 \22\5CF26\22 \22\5CF27\22 \22\5CF28\22 \22\5CF29\22;\0A  \00", align 1
@.str.56 = private unnamed_addr constant [12 x i8] c"lower-alpha\00", align 1
@.str.57 = private unnamed_addr constant [94 x i8] c"\0A    system: alphabetic;\0A    symbols: a b c d e f g h i j k l m n o p q r s t u v w x y z;\0A  \00", align 1
@.str.58 = private unnamed_addr constant [12 x i8] c"lower-latin\00", align 1
@.str.59 = private unnamed_addr constant [37 x i8] c"\0A    system: extends lower-alpha;\0A  \00", align 1
@.str.60 = private unnamed_addr constant [12 x i8] c"upper-alpha\00", align 1
@.str.61 = private unnamed_addr constant [94 x i8] c"\0A    system: alphabetic;\0A    symbols: A B C D E F G H I J K L M N O P Q R S T U V W X Y Z;\0A  \00", align 1
@.str.62 = private unnamed_addr constant [12 x i8] c"upper-latin\00", align 1
@.str.63 = private unnamed_addr constant [37 x i8] c"\0A    system: extends upper-alpha;\0A  \00", align 1
@.str.64 = private unnamed_addr constant [12 x i8] c"lower-greek\00", align 1
@.str.65 = private unnamed_addr constant [210 x i8] c"\0A    system: alphabetic;\0A    symbols: \22\5C3B1\22 \22\5C3B2\22 \22\5C3B3\22 \22\5C3B4\22 \22\5C3B5\22 \22\5C3B6\22 \22\5C3B7\22 \22\5C3B8\22 \22\5C3B9\22 \22\5C3BA\22 \22\5C3BB\22 \22\5C3BC\22 \22\5C3BD\22 \22\5C3BE\22 \22\5C3BF\22 \22\5C3C0\22 \22\5C3C1\22 \22\5C3C3\22 \22\5C3C4\22 \22\5C3C5\22 \22\5C3C6\22 \22\5C3C7\22 \22\5C3C8\22 \22\5C3C9\22;\0A  \00", align 1
@.str.66 = private unnamed_addr constant [9 x i8] c"hiragana\00", align 1
@.str.67 = private unnamed_addr constant [447 x i8] c"\0A    system: alphabetic;\0A    symbols: \22\5C3042\22 \22\5C3044\22 \22\5C3046\22 \22\5C3048\22 \22\5C304A\22 \22\5C304B\22 \22\5C304D\22 \22\5C304F\22 \22\5C3051\22 \22\5C3053\22 \22\5C3055\22 \22\5C3057\22 \22\5C3059\22 \22\5C305B\22 \22\5C305D\22 \22\5C305F\22 \22\5C3061\22 \22\5C3064\22 \22\5C3066\22 \22\5C3068\22 \22\5C306A\22 \22\5C306B\22 \22\5C306C\22 \22\5C306D\22 \22\5C306E\22 \22\5C306F\22 \22\5C3072\22 \22\5C3075\22 \22\5C3078\22 \22\5C307B\22 \22\5C307E\22 \22\5C307F\22 \22\5C3080\22 \22\5C3081\22 \22\5C3082\22 \22\5C3084\22 \22\5C3086\22 \22\5C3088\22 \22\5C3089\22 \22\5C308A\22 \22\5C308B\22 \22\5C308C\22 \22\5C308D\22 \22\5C308F\22 \22\5C3090\22 \22\5C3091\22 \22\5C3092\22 \22\5C3093\22;\0A    suffix: \22\5C3001\22;\0A  \00", align 1
@.str.68 = private unnamed_addr constant [15 x i8] c"hiragana-iroha\00", align 1
@.str.69 = private unnamed_addr constant [439 x i8] c"\0A    system: alphabetic;\0A    symbols: \22\5C3044\22 \22\5C308D\22 \22\5C306F\22 \22\5C306B\22 \22\5C307B\22 \22\5C3078\22 \22\5C3068\22 \22\5C3061\22 \22\5C308A\22 \22\5C306C\22 \22\5C308B\22 \22\5C3092\22 \22\5C308F\22 \22\5C304B\22 \22\5C3088\22 \22\5C305F\22 \22\5C308C\22 \22\5C305D\22 \22\5C3064\22 \22\5C306D\22 \22\5C306A\22 \22\5C3089\22 \22\5C3080\22 \22\5C3046\22 \22\5C3090\22 \22\5C306E\22 \22\5C304A\22 \22\5C304F\22 \22\5C3084\22 \22\5C307E\22 \22\5C3051\22 \22\5C3075\22 \22\5C3053\22 \22\5C3048\22 \22\5C3066\22 \22\5C3042\22 \22\5C3055\22 \22\5C304D\22 \22\5C3086\22 \22\5C3081\22 \22\5C307F\22 \22\5C3057\22 \22\5C3091\22 \22\5C3072\22 \22\5C3082\22 \22\5C305B\22 \22\5C3059\22;\0A    suffix: \22\5C3001\22;\0A  \00", align 1
@.str.70 = private unnamed_addr constant [9 x i8] c"katakana\00", align 1
@.str.71 = private unnamed_addr constant [447 x i8] c"\0A    system: alphabetic;\0A    symbols: \22\5C30A2\22 \22\5C30A4\22 \22\5C30A6\22 \22\5C30A8\22 \22\5C30AA\22 \22\5C30AB\22 \22\5C30AD\22 \22\5C30AF\22 \22\5C30B1\22 \22\5C30B3\22 \22\5C30B5\22 \22\5C30B7\22 \22\5C30B9\22 \22\5C30BB\22 \22\5C30BD\22 \22\5C30BF\22 \22\5C30C1\22 \22\5C30C4\22 \22\5C30C6\22 \22\5C30C8\22 \22\5C30CA\22 \22\5C30CB\22 \22\5C30CC\22 \22\5C30CD\22 \22\5C30CE\22 \22\5C30CF\22 \22\5C30D2\22 \22\5C30D5\22 \22\5C30D8\22 \22\5C30DB\22 \22\5C30DE\22 \22\5C30DF\22 \22\5C30E0\22 \22\5C30E1\22 \22\5C30E2\22 \22\5C30E4\22 \22\5C30E6\22 \22\5C30E8\22 \22\5C30E9\22 \22\5C30EA\22 \22\5C30EB\22 \22\5C30EC\22 \22\5C30ED\22 \22\5C30EF\22 \22\5C30F0\22 \22\5C30F1\22 \22\5C30F2\22 \22\5C30F3\22;\0A    suffix: \22\5C3001\22;\0A  \00", align 1
@.str.72 = private unnamed_addr constant [15 x i8] c"katakana-iroha\00", align 1
@.str.73 = private unnamed_addr constant [439 x i8] c"\0A    system: alphabetic;\0A    symbols: \22\5C30A4\22 \22\5C30ED\22 \22\5C30CF\22 \22\5C30CB\22 \22\5C30DB\22 \22\5C30D8\22 \22\5C30C8\22 \22\5C30C1\22 \22\5C30EA\22 \22\5C30CC\22 \22\5C30EB\22 \22\5C30F2\22 \22\5C30EF\22 \22\5C30AB\22 \22\5C30E8\22 \22\5C30BF\22 \22\5C30EC\22 \22\5C30BD\22 \22\5C30C4\22 \22\5C30CD\22 \22\5C30CA\22 \22\5C30E9\22 \22\5C30E0\22 \22\5C30A6\22 \22\5C30F0\22 \22\5C30CE\22 \22\5C30AA\22 \22\5C30AF\22 \22\5C30E4\22 \22\5C30DE\22 \22\5C30B1\22 \22\5C30D5\22 \22\5C30B3\22 \22\5C30A8\22 \22\5C30C6\22 \22\5C30A2\22 \22\5C30B5\22 \22\5C30AD\22 \22\5C30E6\22 \22\5C30E1\22 \22\5C30DF\22 \22\5C30B7\22 \22\5C30F1\22 \22\5C30D2\22 \22\5C30E2\22 \22\5C30BB\22 \22\5C30B9\22;\0A    suffix: \22\5C3001\22;\0A  \00", align 1
@.str.74 = private unnamed_addr constant [5 x i8] c"disc\00", align 1
@.str.75 = private unnamed_addr constant [61 x i8] c"\0A    system: cyclic;\0A    symbols: \5C2022;\0A    suffix: \22 \22;\0A  \00", align 1
@.str.76 = private unnamed_addr constant [7 x i8] c"circle\00", align 1
@.str.77 = private unnamed_addr constant [61 x i8] c"\0A    system: cyclic;\0A    symbols: \5C25E6;\0A    suffix: \22 \22;\0A  \00", align 1
@.str.78 = private unnamed_addr constant [7 x i8] c"square\00", align 1
@.str.79 = private unnamed_addr constant [61 x i8] c"\0A    system: cyclic;\0A    symbols: \5C25A0;\0A    suffix: \22 \22;\0A  \00", align 1
@.str.80 = private unnamed_addr constant [16 x i8] c"disclosure-open\00", align 1
@.str.81 = private unnamed_addr constant [61 x i8] c"\0A    system: cyclic;\0A    symbols: \5C25BE;\0A    suffix: \22 \22;\0A  \00", align 1
@.str.82 = private unnamed_addr constant [18 x i8] c"disclosure-closed\00", align 1
@.str.83 = private unnamed_addr constant [61 x i8] c"\0A    system: cyclic;\0A    symbols: \5C25B8;\0A    suffix: \22 \22;\0A  \00", align 1
@.str.84 = private unnamed_addr constant [19 x i8] c"cjk-earthly-branch\00", align 1
@.str.85 = private unnamed_addr constant [159 x i8] c"\0A    system: alphabetic;\0A    symbols: \22\5C5B50\22 \22\5C4E11\22 \22\5C5BC5\22 \22\5C536F\22 \22\5C8FB0\22 \22\5C5DF3\22 \22\5C5348\22 \22\5C672A\22 \22\5C7533\22 \22\5C9149\22 \22\5C620C\22 \22\5C4EA5\22;\0A    suffix: \22\5C3001\22;\0A  \00", align 1
@.str.86 = private unnamed_addr constant [18 x i8] c"cjk-heavenly-stem\00", align 1
@.str.87 = private unnamed_addr constant [143 x i8] c"\0A    system: alphabetic;\0A    symbols: \22\5C7532\22 \22\5C4E59\22 \22\5C4E19\22 \22\5C4E01\22 \22\5C620A\22 \22\5C5DF1\22 \22\5C5E9A\22 \22\5C8F9B\22 \22\5C58EC\22 \22\5C7678\22;\0A    suffix: \22\5C3001\22;\0A  \00", align 1
@.str.88 = private unnamed_addr constant [18 x i8] c"japanese-informal\00", align 1
@.str.89 = private unnamed_addr constant [664 x i8] c"\0A    system: additive;\0A    range: -9999 9999;\0A    additive-symbols: 9000 \5C4E5D\5C5343, 8000 \5C516B\5C5343, 7000 \5C4E03\5C5343, 6000 \5C516D\5C5343, 5000 \5C4E94\5C5343, 4000 \5C56DB\5C5343, 3000 \5C4E09\5C5343, 2000 \5C4E8C\5C5343, 1000 \5C5343, 900 \5C4E5D\5C767E, 800 \5C516B\5C767E, 700 \5C4E03\5C767E, 600 \5C516D\5C767E, 500 \5C4E94\5C767E, 400 \5C56DB\5C767E, 300 \5C4E09\5C767E, 200 \5C4E8C\5C767E, 100 \5C767E, 90 \5C4E5D\5C5341, 80 \5C516B\5C5341, 70 \5C4E03\5C5341, 60 \5C516D\5C5341, 50 \5C4E94\5C5341, 40 \5C56DB\5C5341, 30 \5C4E09\5C5341, 20 \5C4E8C\5C5341, 10 \5C5341, 9 \5C4E5D, 8 \5C516B, 7 \5C4E03, 6 \5C516D, 5 \5C4E94, 4 \5C56DB, 3 \5C4E09, 2 \5C4E8C, 1 \5C4E00, 0 \5C3007;\0A    suffix: '\5C3001';\0A    negative: \22\5C30DE\5C30A4\5C30CA\5C30B9\22;\0A    fallback: cjk-decimal;\0A  \00", align 1
@.str.90 = private unnamed_addr constant [16 x i8] c"japanese-formal\00", align 1
@.str.91 = private unnamed_addr constant [679 x i8] c"\0A    system: additive;\0A    range: -9999 9999;\0A    additive-symbols: 9000 \5C4E5D\5C9621, 8000 \5C516B\5C9621, 7000 \5C4E03\5C9621, 6000 \5C516D\5C9621, 5000 \5C4F0D\5C9621, 4000 \5C56DB\5C9621, 3000 \5C53C2\5C9621, 2000 \5C5F10\5C9621, 1000 \5C58F1\5C9621, 900 \5C4E5D\5C767E, 800 \5C516B\5C767E, 700 \5C4E03\5C767E, 600 \5C516D\5C767E, 500 \5C4F0D\5C767E, 400 \5C56DB\5C767E, 300 \5C53C2\5C767E, 200 \5C5F10\5C767E, 100 \5C58F1\5C767E, 90 \5C4E5D\5C62FE, 80 \5C516B\5C62FE, 70 \5C4E03\5C62FE, 60 \5C516D\5C62FE, 50 \5C4F0D\5C62FE, 40 \5C56DB\5C62FE, 30 \5C53C2\5C62FE, 20 \5C5F10\5C62FE, 10 \5C58F1\5C62FE, 9 \5C4E5D, 8 \5C516B, 7 \5C4E03, 6 \5C516D, 5 \5C4F0D, 4 \5C56DB, 3 \5C53C2, 2 \5C5F10, 1 \5C58F1, 0 \5C96F6;\0A    suffix: '\5C3001';\0A    negative: \22\5C30DE\5C30A4\5C30CA\5C30B9\22;\0A    fallback: cjk-decimal;\0A  \00", align 1
@.str.92 = private unnamed_addr constant [21 x i8] c"korean-hangul-formal\00", align 1
@.str.93 = private unnamed_addr constant [133 x i8] c"\0A    system: -internal-korean-hangul-formal;\0A    suffix: ', ';\0A    negative: \22\5CB9C8\5CC774\5CB108\5CC2A4  \22;\0A    fallback: cjk-decimal;\0A  \00", align 1
@.str.94 = private unnamed_addr constant [22 x i8] c"korean-hanja-informal\00", align 1
@.str.95 = private unnamed_addr constant [134 x i8] c"\0A    system: -internal-korean-hanja-informal;\0A    suffix: ', ';\0A    negative: \22\5CB9C8\5CC774\5CB108\5CC2A4  \22;\0A    fallback: cjk-decimal;\0A  \00", align 1
@.str.96 = private unnamed_addr constant [20 x i8] c"korean-hanja-formal\00", align 1
@.str.97 = private unnamed_addr constant [132 x i8] c"\0A    system: -internal-korean-hanja-formal;\0A    suffix: ', ';\0A    negative: \22\5CB9C8\5CC774\5CB108\5CC2A4  \22;\0A    fallback: cjk-decimal;\0A  \00", align 1
@.str.98 = private unnamed_addr constant [22 x i8] c"simp-chinese-informal\00", align 1
@.str.99 = private unnamed_addr constant [116 x i8] c"\0A    system: -internal-simp-chinese-informal;\0A    suffix: \5C3001;\0A    negative: \5C8D1F;\0A    fallback: cjk-decimal;\0A  \00", align 1
@.str.100 = private unnamed_addr constant [20 x i8] c"simp-chinese-formal\00", align 1
@.str.101 = private unnamed_addr constant [114 x i8] c"\0A    system: -internal-simp-chinese-formal;\0A    suffix: \5C3001;\0A    negative: \5C8D1F;\0A    fallback: cjk-decimal;\0A  \00", align 1
@.str.102 = private unnamed_addr constant [22 x i8] c"trad-chinese-informal\00", align 1
@.str.103 = private unnamed_addr constant [116 x i8] c"\0A    system: -internal-trad-chinese-informal;\0A    suffix: \5C3001;\0A    negative: \5C8CA0;\0A    fallback: cjk-decimal;\0A  \00", align 1
@.str.104 = private unnamed_addr constant [20 x i8] c"trad-chinese-formal\00", align 1
@.str.105 = private unnamed_addr constant [114 x i8] c"\0A    system: -internal-trad-chinese-formal;\0A    suffix: \5C3001;\0A    negative: \5C8CA0;\0A    fallback: cjk-decimal;\0A  \00", align 1
@.str.106 = private unnamed_addr constant [16 x i8] c"cjk-ideographic\00", align 1
@.str.107 = private unnamed_addr constant [47 x i8] c"\0A    system: extends trad-chinese-informal;\0A  \00", align 1
@.str.108 = private unnamed_addr constant [17 x i8] c"ethiopic-numeric\00", align 1
@.str.109 = private unnamed_addr constant [85 x i8] c"\0A    system: -internal-ethiopic-numeric;\0A    range: 1 infinite;\0A    suffix: \22/ \22;\0A  \00", align 1
@.str.110 = private unnamed_addr constant [18 x i8] c"ethiopic-halehame\00", align 1
@.str.111 = private unnamed_addr constant [272 x i8] c"\0A    system: alphabetic;\0A    symbols: '\5C1200' '\5C1208' '\5C1210' '\5C1218' '\5C1220' '\5C1228' '\5C1230' '\5C1240' '\5C1260' '\5C1270' '\5C1280' '\5C1290' '\5C12A0' '\5C12A8' '\5C12C8' '\5C12D0' '\5C12D8' '\5C12E8' '\5C12F0' '\5C1308' '\5C1320' '\5C1330' '\5C1338' '\5C1340' '\5C1348' '\5C1350';\0A    suffix: '\5C1366 ';\0A  \00", align 1
@.str.112 = private unnamed_addr constant [21 x i8] c"ethiopic-halehame-am\00", align 1
@.str.113 = private unnamed_addr constant [328 x i8] c"\0A    system: alphabetic;\0A    symbols: '\5C1200' '\5C1208' '\5C1210' '\5C1218' '\5C1220' '\5C1228' '\5C1230' '\5C1238' '\5C1240' '\5C1260' '\5C1270' '\5C1278' '\5C1280' '\5C1290' '\5C1298' '\5C12A0' '\5C12A8' '\5C12B8' '\5C12C8' '\5C12D0' '\5C12D8' '\5C12E0' '\5C12E8' '\5C12F0' '\5C1300' '\5C1308' '\5C1320' '\5C1328' '\5C1330' '\5C1338' '\5C1340' '\5C1348' '\5C1350';\0A    suffix: '\5C1366 ';\0A  \00", align 1
@.str.114 = private unnamed_addr constant [24 x i8] c"ethiopic-halehame-ti-er\00", align 1
@.str.115 = private unnamed_addr constant [312 x i8] c"\0A    system: alphabetic;\0A    symbols: '\5C1200' '\5C1208' '\5C1210' '\5C1218' '\5C1228' '\5C1230' '\5C1238' '\5C1240' '\5C1250' '\5C1260' '\5C1270' '\5C1278' '\5C1290' '\5C1298' '\5C12A0' '\5C12A8' '\5C12B8' '\5C12C8' '\5C12D0' '\5C12D8' '\5C12E0' '\5C12E8' '\5C12F0' '\5C1300' '\5C1308' '\5C1320' '\5C1328' '\5C1330' '\5C1338' '\5C1348' '\5C1350';\0A    suffix: '\5C1366 ';\0A  \00", align 1
@.str.116 = private unnamed_addr constant [24 x i8] c"ethiopic-halehame-ti-et\00", align 1
@.str.117 = private unnamed_addr constant [336 x i8] c"\0A    system: alphabetic;\0A    symbols: '\5C1200' '\5C1208' '\5C1210' '\5C1218' '\5C1220' '\5C1228' '\5C1230' '\5C1238' '\5C1240' '\5C1250' '\5C1260' '\5C1270' '\5C1278' '\5C1280' '\5C1290' '\5C1298' '\5C12A0' '\5C12A8' '\5C12B8' '\5C12C8' '\5C12D0' '\5C12D8' '\5C12E0' '\5C12E8' '\5C12F0' '\5C1300' '\5C1308' '\5C1320' '\5C1328' '\5C1330' '\5C1338' '\5C1340' '\5C1348' '\5C1350';\0A    suffix: '\5C1366 ';\0A  \00", align 1
@.str.118 = private unnamed_addr constant [7 x i8] c"hangul\00", align 1
@.str.119 = private unnamed_addr constant [154 x i8] c"\0A    system: alphabetic;\0A    symbols: '\5CAC00' '\5CB098' '\5CB2E4' '\5CB77C' '\5CB9C8' '\5CBC14' '\5CC0AC' '\5CC544' '\5CC790' '\5CCC28' '\5CCE74' '\5CD0C0' '\5CD30C' '\5CD558';\0A  \00", align 1
@.str.120 = private unnamed_addr constant [17 x i8] c"hangul-consonant\00", align 1
@.str.121 = private unnamed_addr constant [154 x i8] c"\0A    system: alphabetic;\0A    symbols: '\5C3131' '\5C3134' '\5C3137' '\5C3139' '\5C3141' '\5C3142' '\5C3145' '\5C3147' '\5C3148' '\5C314A' '\5C314B' '\5C314C' '\5C314D' '\5C314E';\0A  \00", align 1
@.str.122 = private unnamed_addr constant [5 x i8] c"urdu\00", align 1
@.str.123 = private unnamed_addr constant [33 x i8] c"\0A    system: extends persian;\0A  \00", align 1
@.str.124 = private unnamed_addr constant [23 x i8] c"new_size > table_size_\00", align 1
@.str.125 = private unnamed_addr constant [59 x i8] c"../../third_party/blink/renderer/platform/wtf/hash_table.h\00", align 1
@__PRETTY_FUNCTION__._ZN3WTF21GetStringWithTypeNameINS_12KeyValuePairINS_12AtomicStringENS_6StringEEEEEPKcv = private unnamed_addr constant [97 x i8] c"const char *WTF::GetStringWithTypeName() [T = WTF::KeyValuePair<WTF::AtomicString, WTF::String>]\00", align 1
@.str.126 = private unnamed_addr constant [16 x i8] c"@counter-style \00", align 1
@.str.127 = private unnamed_addr constant [2 x i8] c"{\00", align 1
@.str.128 = private unnamed_addr constant [2 x i8] c"}\00", align 1
@_ZN3WTF10StringImpl6empty_E = external local_unnamed_addr global %"class.WTF::StringImpl"*, align 8
@_ZN5blink11ThreadState16thread_specific_E = external local_unnamed_addr global %"class.WTF::ThreadSpecific"*, align 8
@__PRETTY_FUNCTION__._ZN3WTF21GetStringWithTypeNameIPN5blink11ThreadStateEEEPKcv = private unnamed_addr constant [68 x i8] c"const char *WTF::GetStringWithTypeName() [T = blink::ThreadState *]\00", align 1
@__PRETTY_FUNCTION__._ZN3WTF21GetStringWithTypeNameIN5blink15CounterStyleMapEEEPKcv = private unnamed_addr constant [70 x i8] c"const char *WTF::GetStringWithTypeName() [T = blink::CounterStyleMap]\00", align 1
@.str.129 = private unnamed_addr constant [23 x i8] c"allocation_size > size\00", align 1
@.str.130 = private unnamed_addr constant [59 x i8] c"../../third_party/blink/renderer/platform/heap/impl/heap.h\00", align 1
@_ZZN5blink11GCInfoTraitINS_15CounterStyleMapEE5IndexEvE7kGcInfo = linkonce_odr hidden constant %"struct.blink::GCInfo" { void (%"class.blink::Visitor"*, i8*)* @_ZN5blink10TraceTraitINS_15CounterStyleMapEE5TraceEPNS_7VisitorEPKv, void (i8*)* null, { i8*, i8 } (i8*)* @_ZN5blink9NameTraitINS_15CounterStyleMapEE7GetNameEPKv, i8 0 }, comdat, align 8
@_ZZN5blink11GCInfoTraitINS_15CounterStyleMapEE5IndexEvE13gc_info_index = linkonce_odr hidden global { { i32 } } zeroinitializer, comdat, align 4
@.str.131 = private unnamed_addr constant [13 x i8] c"InternalNode\00", align 1
@_ZN5blink11GCInfoTable13global_table_E = external local_unnamed_addr global %"class.blink::GCInfoTable"*, align 8
@.str.132 = private unnamed_addr constant [33 x i8] c"Allocator::IsAllocationAllowed()\00", align 1
@_ZN5blink11ThreadState25incremental_marking_flag_E = external local_unnamed_addr global %"class.blink::AtomicEntryFlag", align 4
@.str.133 = private unnamed_addr constant [18 x i8] c"num_elements > 0u\00", align 1
@.str.134 = private unnamed_addr constant [97 x i8] c"../../third_party/blink/renderer/platform/heap/impl/collection_support/heap_hash_table_backing.h\00", align 1
@_ZZN5blink11GCInfoTraitINS_20HeapHashTableBackingIN3WTF9HashTableINS2_12AtomicStringENS2_12KeyValuePairIS4_NS_6MemberINS_12CounterStyleEEEEENS2_24KeyValuePairKeyExtractorENS2_16AtomicStringHashENS2_18HashMapValueTraitsINS2_10HashTraitsIS4_EENSD_IS8_EEEESE_NS_13HeapAllocatorEEEEEE5IndexEvE7kGcInfo = linkonce_odr hidden constant %"struct.blink::GCInfo" { void (%"class.blink::Visitor"*, i8*)* @_ZN5blink10TraceTraitINS_20HeapHashTableBackingIN3WTF9HashTableINS2_12AtomicStringENS2_12KeyValuePairIS4_NS_6MemberINS_12CounterStyleEEEEENS2_24KeyValuePairKeyExtractorENS2_16AtomicStringHashENS2_18HashMapValueTraitsINS2_10HashTraitsIS4_EENSD_IS8_EEEESE_NS_13HeapAllocatorEEEEEE5TraceILNS2_16WeakHandlingFlagE0EEEvPNS_7VisitorEPKv, void (i8*)* @_ZN5blink8internal14FinalizerTraitINS_20HeapHashTableBackingIN3WTF9HashTableINS3_12AtomicStringENS3_12KeyValuePairIS5_NS_6MemberINS_12CounterStyleEEEEENS3_24KeyValuePairKeyExtractorENS3_16AtomicStringHashENS3_18HashMapValueTraitsINS3_10HashTraitsIS5_EENSE_IS9_EEEESF_NS_13HeapAllocatorEEEEEE8FinalizeEPv, { i8*, i8 } (i8*)* @_ZN5blink9NameTraitINS_20HeapHashTableBackingIN3WTF9HashTableINS2_12AtomicStringENS2_12KeyValuePairIS4_NS_6MemberINS_12CounterStyleEEEEENS2_24KeyValuePairKeyExtractorENS2_16AtomicStringHashENS2_18HashMapValueTraitsINS2_10HashTraitsIS4_EENSD_IS8_EEEESE_NS_13HeapAllocatorEEEEEE7GetNameEPKv, i8 0 }, comdat, align 8
@_ZZN5blink11GCInfoTraitINS_20HeapHashTableBackingIN3WTF9HashTableINS2_12AtomicStringENS2_12KeyValuePairIS4_NS_6MemberINS_12CounterStyleEEEEENS2_24KeyValuePairKeyExtractorENS2_16AtomicStringHashENS2_18HashMapValueTraitsINS2_10HashTraitsIS4_EENSD_IS8_EEEESE_NS_13HeapAllocatorEEEEEE5IndexEvE13gc_info_index = linkonce_odr hidden global { { i32 } } zeroinitializer, comdat, align 4
@__PRETTY_FUNCTION__._ZN3WTF21GetStringWithTypeNameIN5blink20HeapHashTableBackingINS_9HashTableINS_12AtomicStringENS_12KeyValuePairIS4_NS1_6MemberINS1_12CounterStyleEEEEENS_24KeyValuePairKeyExtractorENS_16AtomicStringHashENS_18HashMapValueTraitsINS_10HashTraitsIS4_EENSD_IS8_EEEESE_NS1_13HeapAllocatorEEEEEEEPKcv = private unnamed_addr constant [414 x i8] c"const char *WTF::GetStringWithTypeName() [T = blink::HeapHashTableBacking<WTF::HashTable<WTF::AtomicString, WTF::KeyValuePair<WTF::AtomicString, blink::Member<blink::CounterStyle> >, WTF::KeyValuePairKeyExtractor, WTF::AtomicStringHash, WTF::HashMapValueTraits<WTF::HashTraits<WTF::AtomicString>, WTF::HashTraits<blink::Member<blink::CounterStyle> > >, WTF::HashTraits<WTF::AtomicString>, blink::HeapAllocator> >]\00", align 1
@.str.135 = private unnamed_addr constant [11 x i8] c"i < size()\00", align 1
@.str.136 = private unnamed_addr constant [55 x i8] c"../../third_party/blink/renderer/platform/wtf/vector.h\00", align 1

; Function Attrs: nounwind ssp uwtable
define hidden %"class.blink::CounterStyleMap"* @_ZN5blink15CounterStyleMap23CreateUACounterStyleMapEv() local_unnamed_addr #0 align 2 {
  %1 = alloca i8*, align 8
  %2 = tail call i8* @_ZN5blink10ThreadHeap8AllocateINS_15CounterStyleMapEEEPhm(i64 40) #9
  %3 = bitcast i8* %2 to %"class.blink::CounterStyleMap"*
  tail call void @_ZN5blink15CounterStyleMapC1EPNS_8DocumentEPNS_9TreeScopeE(%"class.blink::CounterStyleMap"* %3, %"class.blink::Document"* null, %"class.blink::TreeScope"* null) #9
  %4 = getelementptr inbounds i8, i8* %2, i64 -4
  %5 = bitcast i8* %4 to i16*
  %6 = load atomic i16, i16* %5 monotonic, align 2
  %7 = or i16 %6, 1
  store atomic i16 %7, i16* %5 release, align 2
  %8 = tail call fastcc dereferenceable(24) %"class.WTF::HashMap.4"* @_ZN5blink12_GLOBAL__N_122GetUACounterStyleRulesEv()
  %9 = getelementptr inbounds %"class.WTF::HashMap.4", %"class.WTF::HashMap.4"* %8, i64 0, i32 0, i32 2
  %10 = load i32, i32* %9, align 4
  %11 = icmp eq i32 %10, 0
  %12 = getelementptr inbounds %"class.WTF::HashMap.4", %"class.WTF::HashMap.4"* %8, i64 0, i32 0, i32 0
  %13 = load %"struct.WTF::KeyValuePair.7"*, %"struct.WTF::KeyValuePair.7"** %12, align 8
  %14 = getelementptr inbounds %"class.WTF::HashMap.4", %"class.WTF::HashMap.4"* %8, i64 0, i32 0, i32 1
  %15 = load i32, i32* %14, align 8
  %16 = zext i32 %15 to i64
  %17 = getelementptr inbounds %"struct.WTF::KeyValuePair.7", %"struct.WTF::KeyValuePair.7"* %13, i64 %16
  br i1 %11, label %34, label %18

18:                                               ; preds = %0
  %19 = icmp eq i32 %15, 0
  br i1 %19, label %27, label %20

20:                                               ; preds = %18, %24
  %21 = phi %"struct.WTF::KeyValuePair.7"* [ %25, %24 ], [ %13, %18 ]
  %22 = bitcast %"struct.WTF::KeyValuePair.7"* %21 to i64*
  %23 = load i64, i64* %22, align 8
  switch i64 %23, label %27 [
    i64 -1, label %24
    i64 0, label %24
  ]

24:                                               ; preds = %20, %20
  %25 = getelementptr inbounds %"struct.WTF::KeyValuePair.7", %"struct.WTF::KeyValuePair.7"* %21, i64 1
  %26 = icmp eq %"struct.WTF::KeyValuePair.7"* %25, %17
  br i1 %26, label %34, label %20

27:                                               ; preds = %20, %18
  %28 = phi %"struct.WTF::KeyValuePair.7"* [ %13, %18 ], [ %21, %20 ]
  %29 = icmp eq %"struct.WTF::KeyValuePair.7"* %28, %17
  br i1 %29, label %34, label %30

30:                                               ; preds = %27
  %31 = getelementptr inbounds i8, i8* %2, i64 16
  %32 = bitcast i8** %1 to i8*
  %33 = bitcast i8* %31 to %"class.WTF::HashTable"*
  br label %35

34:                                               ; preds = %24, %46, %56, %53, %0, %27
  ret %"class.blink::CounterStyleMap"* %3

35:                                               ; preds = %30, %56
  %36 = phi %"struct.WTF::KeyValuePair.7"* [ %28, %30 ], [ %50, %56 ]
  %37 = getelementptr inbounds %"struct.WTF::KeyValuePair.7", %"struct.WTF::KeyValuePair.7"* %36, i64 0, i32 0
  call void @llvm.lifetime.start.p0i8(i64 8, i8* nonnull %32) #9
  store i8* null, i8** %1, align 8
  %38 = call { %"struct.WTF::KeyValuePair"*, i8 } @_ZN3WTF9HashTableINS_12AtomicStringENS_12KeyValuePairIS1_N5blink6MemberINS3_12CounterStyleEEEEENS_24KeyValuePairKeyExtractorENS_16AtomicStringHashENS_18HashMapValueTraitsINS_10HashTraitsIS1_EENSB_IS6_EEEESC_NS3_13HeapAllocatorEE6insertINS_17HashMapTranslatorISE_S9_SF_EERKS1_DnEENS_18HashTableAddResultISG_S7_EEOT0_OT1_(%"class.WTF::HashTable"* %33, %"class.WTF::AtomicString"* dereferenceable(8) %37, i8** nonnull dereferenceable(8) %1) #9
  %39 = extractvalue { %"struct.WTF::KeyValuePair"*, i8 } %38, 1
  %40 = and i8 %39, 1
  %41 = icmp eq i8 %40, 0
  br i1 %41, label %42, label %46

42:                                               ; preds = %35
  %43 = extractvalue { %"struct.WTF::KeyValuePair"*, i8 } %38, 0
  %44 = getelementptr inbounds %"struct.WTF::KeyValuePair", %"struct.WTF::KeyValuePair"* %43, i64 0, i32 1
  %45 = bitcast %"class.blink::Member.199"* %44 to i64*
  store atomic i64 0, i64* %45 monotonic, align 8
  br label %46

46:                                               ; preds = %35, %42
  call void @llvm.lifetime.end.p0i8(i64 8, i8* nonnull %32) #9
  %47 = getelementptr inbounds %"struct.WTF::KeyValuePair.7", %"struct.WTF::KeyValuePair.7"* %36, i64 1
  %48 = icmp eq %"struct.WTF::KeyValuePair.7"* %47, %17
  br i1 %48, label %34, label %49

49:                                               ; preds = %46, %53
  %50 = phi %"struct.WTF::KeyValuePair.7"* [ %54, %53 ], [ %47, %46 ]
  %51 = bitcast %"struct.WTF::KeyValuePair.7"* %50 to i64*
  %52 = load i64, i64* %51, align 8
  switch i64 %52, label %56 [
    i64 -1, label %53
    i64 0, label %53
  ]

53:                                               ; preds = %49, %49
  %54 = getelementptr inbounds %"struct.WTF::KeyValuePair.7", %"struct.WTF::KeyValuePair.7"* %50, i64 1
  %55 = icmp eq %"struct.WTF::KeyValuePair.7"* %54, %17
  br i1 %55, label %34, label %49

56:                                               ; preds = %49
  %57 = icmp eq %"struct.WTF::KeyValuePair.7"* %50, %17
  br i1 %57, label %34, label %35
}

; Function Attrs: argmemonly nounwind
declare void @llvm.lifetime.start.p0i8(i64 immarg, i8* nocapture) #1

; Function Attrs: argmemonly nounwind
declare void @llvm.lifetime.end.p0i8(i64 immarg, i8* nocapture) #1

; Function Attrs: nounwind ssp uwtable
define internal fastcc dereferenceable(24) %"class.WTF::HashMap.4"* @_ZN5blink12_GLOBAL__N_122GetUACounterStyleRulesEv() unnamed_addr #0 {
  %1 = load atomic i8, i8* bitcast (i64* @_ZGVZN5blink12_GLOBAL__N_122GetUACounterStyleRulesEvE10s_ua_rules to i8*) acquire, align 8
  %2 = icmp eq i8 %1, 0
  br i1 %2, label %3, label %503, !prof !2

3:                                                ; preds = %0
  %4 = tail call i32 @__cxa_guard_acquire(i64* nonnull @_ZGVZN5blink12_GLOBAL__N_122GetUACounterStyleRulesEvE10s_ua_rules) #9
  %5 = icmp eq i32 %4, 0
  br i1 %5, label %503, label %6

6:                                                ; preds = %3
  tail call void @llvm.memset.p0i8.i64(i8* align 8 getelementptr inbounds (%"class.WTF::StaticSingleton.472", %"class.WTF::StaticSingleton.472"* @_ZZN5blink12_GLOBAL__N_122GetUACounterStyleRulesEvE10s_ua_rules, i64 0, i32 0, i32 0, i64 0), i8 -86, i64 24, i1 false) #9, !alias.scope !3
  tail call void @llvm.memset.p0i8.i64(i8* align 8 getelementptr inbounds (%"class.WTF::StaticSingleton.472", %"class.WTF::StaticSingleton.472"* @_ZZN5blink12_GLOBAL__N_122GetUACounterStyleRulesEvE10s_ua_rules, i64 0, i32 0, i32 0, i64 0), i8 0, i64 20, i1 false) #9, !alias.scope !3
  %7 = tail call { %"struct.WTF::KeyValuePair.7"*, i8 } @_ZN3WTF9HashTableINS_12AtomicStringENS_12KeyValuePairIS1_NS_6StringEEENS_24KeyValuePairKeyExtractorENS_16AtomicStringHashENS_18HashMapValueTraitsINS_10HashTraitsIS1_EENS8_IS3_EEEES9_NS_18PartitionAllocatorEE6insertINS_17HashMapTranslatorISB_S6_SC_EERA8_KcRA79_SH_EENS_18HashTableAddResultISD_S4_EEOT0_OT1_(%"class.WTF::HashTable.5"* bitcast (%"class.WTF::StaticSingleton.472"* @_ZZN5blink12_GLOBAL__N_122GetUACounterStyleRulesEvE10s_ua_rules to %"class.WTF::HashTable.5"*), [8 x i8]* nonnull dereferenceable(8) @.str, [79 x i8]* nonnull dereferenceable(79) @.str.1) #9
  %8 = extractvalue { %"struct.WTF::KeyValuePair.7"*, i8 } %7, 1
  %9 = and i8 %8, 1
  %10 = icmp eq i8 %9, 0
  br i1 %10, label %11, label %14

11:                                               ; preds = %6
  %12 = extractvalue { %"struct.WTF::KeyValuePair.7"*, i8 } %7, 0
  %13 = getelementptr inbounds %"struct.WTF::KeyValuePair.7", %"struct.WTF::KeyValuePair.7"* %12, i64 0, i32 1
  tail call void @_ZN3WTF17GenericHashTraitsINS_6StringEE5StoreIRA79_KcEEvOT_RS1_([79 x i8]* nonnull dereferenceable(79) @.str.1, %"class.WTF::String"* dereferenceable(8) %13) #9
  br label %14

14:                                               ; preds = %11, %6
  %15 = tail call { %"struct.WTF::KeyValuePair.7"*, i8 } @_ZN3WTF9HashTableINS_12AtomicStringENS_12KeyValuePairIS1_NS_6StringEEENS_24KeyValuePairKeyExtractorENS_16AtomicStringHashENS_18HashMapValueTraitsINS_10HashTraitsIS1_EENS8_IS3_EEEES9_NS_18PartitionAllocatorEE6insertINS_17HashMapTranslatorISB_S6_SC_EERA21_KcRA49_SH_EENS_18HashTableAddResultISD_S4_EEOT0_OT1_(%"class.WTF::HashTable.5"* bitcast (%"class.WTF::StaticSingleton.472"* @_ZZN5blink12_GLOBAL__N_122GetUACounterStyleRulesEvE10s_ua_rules to %"class.WTF::HashTable.5"*), [21 x i8]* nonnull dereferenceable(21) @.str.2, [49 x i8]* nonnull dereferenceable(49) @.str.3) #9
  %16 = extractvalue { %"struct.WTF::KeyValuePair.7"*, i8 } %15, 1
  %17 = and i8 %16, 1
  %18 = icmp eq i8 %17, 0
  br i1 %18, label %19, label %22

19:                                               ; preds = %14
  %20 = extractvalue { %"struct.WTF::KeyValuePair.7"*, i8 } %15, 0
  %21 = getelementptr inbounds %"struct.WTF::KeyValuePair.7", %"struct.WTF::KeyValuePair.7"* %20, i64 0, i32 1
  tail call void @_ZN3WTF17GenericHashTraitsINS_6StringEE5StoreIRA49_KcEEvOT_RS1_([49 x i8]* nonnull dereferenceable(49) @.str.3, %"class.WTF::String"* dereferenceable(8) %21) #9
  br label %22

22:                                               ; preds = %19, %14
  %23 = tail call { %"struct.WTF::KeyValuePair.7"*, i8 } @_ZN3WTF9HashTableINS_12AtomicStringENS_12KeyValuePairIS1_NS_6StringEEENS_24KeyValuePairKeyExtractorENS_16AtomicStringHashENS_18HashMapValueTraitsINS_10HashTraitsIS1_EENS8_IS3_EEEES9_NS_18PartitionAllocatorEE6insertINS_17HashMapTranslatorISB_S6_SC_EERA13_KcRA109_SH_EENS_18HashTableAddResultISD_S4_EEOT0_OT1_(%"class.WTF::HashTable.5"* bitcast (%"class.WTF::StaticSingleton.472"* @_ZZN5blink12_GLOBAL__N_122GetUACounterStyleRulesEvE10s_ua_rules to %"class.WTF::HashTable.5"*), [13 x i8]* nonnull dereferenceable(13) @.str.4, [109 x i8]* nonnull dereferenceable(109) @.str.5) #9
  %24 = extractvalue { %"struct.WTF::KeyValuePair.7"*, i8 } %23, 1
  %25 = and i8 %24, 1
  %26 = icmp eq i8 %25, 0
  br i1 %26, label %27, label %30

27:                                               ; preds = %22
  %28 = extractvalue { %"struct.WTF::KeyValuePair.7"*, i8 } %23, 0
  %29 = getelementptr inbounds %"struct.WTF::KeyValuePair.7", %"struct.WTF::KeyValuePair.7"* %28, i64 0, i32 1
  tail call void @_ZN3WTF17GenericHashTraitsINS_6StringEE5StoreIRA109_KcEEvOT_RS1_([109 x i8]* nonnull dereferenceable(109) @.str.5, %"class.WTF::String"* dereferenceable(8) %29) #9
  br label %30

30:                                               ; preds = %27, %22
  %31 = tail call { %"struct.WTF::KeyValuePair.7"*, i8 } @_ZN3WTF9HashTableINS_12AtomicStringENS_12KeyValuePairIS1_NS_6StringEEENS_24KeyValuePairKeyExtractorENS_16AtomicStringHashENS_18HashMapValueTraitsINS_10HashTraitsIS1_EENS8_IS3_EEEES9_NS_18PartitionAllocatorEE6insertINS_17HashMapTranslatorISB_S6_SC_EERA9_KcRA65_SH_EENS_18HashTableAddResultISD_S4_EEOT0_OT1_(%"class.WTF::HashTable.5"* bitcast (%"class.WTF::StaticSingleton.472"* @_ZZN5blink12_GLOBAL__N_122GetUACounterStyleRulesEvE10s_ua_rules to %"class.WTF::HashTable.5"*), [9 x i8]* nonnull dereferenceable(9) @.str.6, [65 x i8]* nonnull dereferenceable(65) @.str.7) #9
  %32 = extractvalue { %"struct.WTF::KeyValuePair.7"*, i8 } %31, 1
  %33 = and i8 %32, 1
  %34 = icmp eq i8 %33, 0
  br i1 %34, label %35, label %38

35:                                               ; preds = %30
  %36 = extractvalue { %"struct.WTF::KeyValuePair.7"*, i8 } %31, 0
  %37 = getelementptr inbounds %"struct.WTF::KeyValuePair.7", %"struct.WTF::KeyValuePair.7"* %36, i64 0, i32 1
  tail call void @_ZN3WTF17GenericHashTraitsINS_6StringEE5StoreIRA65_KcEEvOT_RS1_([65 x i8]* nonnull dereferenceable(65) @.str.7, %"class.WTF::String"* dereferenceable(8) %37) #9
  br label %38

38:                                               ; preds = %35, %30
  %39 = tail call { %"struct.WTF::KeyValuePair.7"*, i8 } @_ZN3WTF9HashTableINS_12AtomicStringENS_12KeyValuePairIS1_NS_6StringEEENS_24KeyValuePairKeyExtractorENS_16AtomicStringHashENS_18HashMapValueTraitsINS_10HashTraitsIS1_EENS8_IS3_EEEES9_NS_18PartitionAllocatorEE6insertINS_17HashMapTranslatorISB_S6_SC_EERA15_KcRA34_SH_EENS_18HashTableAddResultISD_S4_EEOT0_OT1_(%"class.WTF::HashTable.5"* bitcast (%"class.WTF::StaticSingleton.472"* @_ZZN5blink12_GLOBAL__N_122GetUACounterStyleRulesEvE10s_ua_rules to %"class.WTF::HashTable.5"*), [15 x i8]* nonnull dereferenceable(15) @.str.8, [34 x i8]* nonnull dereferenceable(34) @.str.9) #9
  %40 = extractvalue { %"struct.WTF::KeyValuePair.7"*, i8 } %39, 1
  %41 = and i8 %40, 1
  %42 = icmp eq i8 %41, 0
  br i1 %42, label %43, label %46

43:                                               ; preds = %38
  %44 = extractvalue { %"struct.WTF::KeyValuePair.7"*, i8 } %39, 0
  %45 = getelementptr inbounds %"struct.WTF::KeyValuePair.7", %"struct.WTF::KeyValuePair.7"* %44, i64 0, i32 1
  tail call void @_ZN3WTF17GenericHashTraitsINS_6StringEE5StoreIRA34_KcEEvOT_RS1_([34 x i8]* nonnull dereferenceable(34) @.str.9, %"class.WTF::String"* dereferenceable(8) %45) #9
  br label %46

46:                                               ; preds = %43, %38
  %47 = tail call { %"struct.WTF::KeyValuePair.7"*, i8 } @_ZN3WTF9HashTableINS_12AtomicStringENS_12KeyValuePairIS1_NS_6StringEEENS_24KeyValuePairKeyExtractorENS_16AtomicStringHashENS_18HashMapValueTraitsINS_10HashTraitsIS1_EENS8_IS3_EEEES9_NS_18PartitionAllocatorEE6insertINS_17HashMapTranslatorISB_S6_SC_EERA15_KcRA65_SH_EENS_18HashTableAddResultISD_S4_EEOT0_OT1_(%"class.WTF::HashTable.5"* bitcast (%"class.WTF::StaticSingleton.472"* @_ZZN5blink12_GLOBAL__N_122GetUACounterStyleRulesEvE10s_ua_rules to %"class.WTF::HashTable.5"*), [15 x i8]* nonnull dereferenceable(15) @.str.10, [65 x i8]* nonnull dereferenceable(65) @.str.11) #9
  %48 = extractvalue { %"struct.WTF::KeyValuePair.7"*, i8 } %47, 1
  %49 = and i8 %48, 1
  %50 = icmp eq i8 %49, 0
  br i1 %50, label %51, label %54

51:                                               ; preds = %46
  %52 = extractvalue { %"struct.WTF::KeyValuePair.7"*, i8 } %47, 0
  %53 = getelementptr inbounds %"struct.WTF::KeyValuePair.7", %"struct.WTF::KeyValuePair.7"* %52, i64 0, i32 1
  tail call void @_ZN3WTF17GenericHashTraitsINS_6StringEE5StoreIRA65_KcEEvOT_RS1_([65 x i8]* nonnull dereferenceable(65) @.str.11, %"class.WTF::String"* dereferenceable(8) %53) #9
  br label %54

54:                                               ; preds = %51, %46
  %55 = tail call { %"struct.WTF::KeyValuePair.7"*, i8 } @_ZN3WTF9HashTableINS_12AtomicStringENS_12KeyValuePairIS1_NS_6StringEEENS_24KeyValuePairKeyExtractorENS_16AtomicStringHashENS_18HashMapValueTraitsINS_10HashTraitsIS1_EENS8_IS3_EEEES9_NS_18PartitionAllocatorEE6insertINS_17HashMapTranslatorISB_S6_SC_EERA8_KcRA109_SH_EENS_18HashTableAddResultISD_S4_EEOT0_OT1_(%"class.WTF::HashTable.5"* bitcast (%"class.WTF::StaticSingleton.472"* @_ZZN5blink12_GLOBAL__N_122GetUACounterStyleRulesEvE10s_ua_rules to %"class.WTF::HashTable.5"*), [8 x i8]* nonnull dereferenceable(8) @.str.12, [109 x i8]* nonnull dereferenceable(109) @.str.13) #9
  %56 = extractvalue { %"struct.WTF::KeyValuePair.7"*, i8 } %55, 1
  %57 = and i8 %56, 1
  %58 = icmp eq i8 %57, 0
  br i1 %58, label %59, label %62

59:                                               ; preds = %54
  %60 = extractvalue { %"struct.WTF::KeyValuePair.7"*, i8 } %55, 0
  %61 = getelementptr inbounds %"struct.WTF::KeyValuePair.7", %"struct.WTF::KeyValuePair.7"* %60, i64 0, i32 1
  tail call void @_ZN3WTF17GenericHashTraitsINS_6StringEE5StoreIRA109_KcEEvOT_RS1_([109 x i8]* nonnull dereferenceable(109) @.str.13, %"class.WTF::String"* dereferenceable(8) %61) #9
  br label %62

62:                                               ; preds = %59, %54
  %63 = tail call { %"struct.WTF::KeyValuePair.7"*, i8 } @_ZN3WTF9HashTableINS_12AtomicStringENS_12KeyValuePairIS1_NS_6StringEEENS_24KeyValuePairKeyExtractorENS_16AtomicStringHashENS_18HashMapValueTraitsINS_10HashTraitsIS1_EENS8_IS3_EEEES9_NS_18PartitionAllocatorEE6insertINS_17HashMapTranslatorISB_S6_SC_EERA10_KcRA119_SH_EENS_18HashTableAddResultISD_S4_EEOT0_OT1_(%"class.WTF::HashTable.5"* bitcast (%"class.WTF::StaticSingleton.472"* @_ZZN5blink12_GLOBAL__N_122GetUACounterStyleRulesEvE10s_ua_rules to %"class.WTF::HashTable.5"*), [10 x i8]* nonnull dereferenceable(10) @.str.14, [119 x i8]* nonnull dereferenceable(119) @.str.15) #9
  %64 = extractvalue { %"struct.WTF::KeyValuePair.7"*, i8 } %63, 1
  %65 = and i8 %64, 1
  %66 = icmp eq i8 %65, 0
  br i1 %66, label %67, label %70

67:                                               ; preds = %62
  %68 = extractvalue { %"struct.WTF::KeyValuePair.7"*, i8 } %63, 0
  %69 = getelementptr inbounds %"struct.WTF::KeyValuePair.7", %"struct.WTF::KeyValuePair.7"* %68, i64 0, i32 1
  tail call void @_ZN3WTF17GenericHashTraitsINS_6StringEE5StoreIRA119_KcEEvOT_RS1_([119 x i8]* nonnull dereferenceable(119) @.str.15, %"class.WTF::String"* dereferenceable(8) %69) #9
  br label %70

70:                                               ; preds = %67, %62
  %71 = tail call { %"struct.WTF::KeyValuePair.7"*, i8 } @_ZN3WTF9HashTableINS_12AtomicStringENS_12KeyValuePairIS1_NS_6StringEEENS_24KeyValuePairKeyExtractorENS_16AtomicStringHashENS_18HashMapValueTraitsINS_10HashTraitsIS1_EENS8_IS3_EEEES9_NS_18PartitionAllocatorEE6insertINS_17HashMapTranslatorISB_S6_SC_EERA6_KcRA35_SH_EENS_18HashTableAddResultISD_S4_EEOT0_OT1_(%"class.WTF::HashTable.5"* bitcast (%"class.WTF::StaticSingleton.472"* @_ZZN5blink12_GLOBAL__N_122GetUACounterStyleRulesEvE10s_ua_rules to %"class.WTF::HashTable.5"*), [6 x i8]* nonnull dereferenceable(6) @.str.16, [35 x i8]* nonnull dereferenceable(35) @.str.17) #9
  %72 = extractvalue { %"struct.WTF::KeyValuePair.7"*, i8 } %71, 1
  %73 = and i8 %72, 1
  %74 = icmp eq i8 %73, 0
  br i1 %74, label %75, label %78

75:                                               ; preds = %70
  %76 = extractvalue { %"struct.WTF::KeyValuePair.7"*, i8 } %71, 0
  %77 = getelementptr inbounds %"struct.WTF::KeyValuePair.7", %"struct.WTF::KeyValuePair.7"* %76, i64 0, i32 1
  tail call void @_ZN3WTF17GenericHashTraitsINS_6StringEE5StoreIRA35_KcEEvOT_RS1_([35 x i8]* nonnull dereferenceable(35) @.str.17, %"class.WTF::String"* dereferenceable(8) %77) #9
  br label %78

78:                                               ; preds = %75, %70
  %79 = tail call { %"struct.WTF::KeyValuePair.7"*, i8 } @_ZN3WTF9HashTableINS_12AtomicStringENS_12KeyValuePairIS1_NS_6StringEEENS_24KeyValuePairKeyExtractorENS_16AtomicStringHashENS_18HashMapValueTraitsINS_10HashTraitsIS1_EENS8_IS3_EEEES9_NS_18PartitionAllocatorEE6insertINS_17HashMapTranslatorISB_S6_SC_EERA12_KcRA163_SH_EENS_18HashTableAddResultISD_S4_EEOT0_OT1_(%"class.WTF::HashTable.5"* bitcast (%"class.WTF::StaticSingleton.472"* @_ZZN5blink12_GLOBAL__N_122GetUACounterStyleRulesEvE10s_ua_rules to %"class.WTF::HashTable.5"*), [12 x i8]* nonnull dereferenceable(12) @.str.18, [163 x i8]* nonnull dereferenceable(163) @.str.19) #9
  %80 = extractvalue { %"struct.WTF::KeyValuePair.7"*, i8 } %79, 1
  %81 = and i8 %80, 1
  %82 = icmp eq i8 %81, 0
  br i1 %82, label %83, label %86

83:                                               ; preds = %78
  %84 = extractvalue { %"struct.WTF::KeyValuePair.7"*, i8 } %79, 0
  %85 = getelementptr inbounds %"struct.WTF::KeyValuePair.7", %"struct.WTF::KeyValuePair.7"* %84, i64 0, i32 1
  tail call void @_ZN3WTF17GenericHashTraitsINS_6StringEE5StoreIRA163_KcEEvOT_RS1_([163 x i8]* nonnull dereferenceable(163) @.str.19, %"class.WTF::String"* dereferenceable(8) %85) #9
  br label %86

86:                                               ; preds = %83, %78
  %87 = tail call { %"struct.WTF::KeyValuePair.7"*, i8 } @_ZN3WTF9HashTableINS_12AtomicStringENS_12KeyValuePairIS1_NS_6StringEEENS_24KeyValuePairKeyExtractorENS_16AtomicStringHashENS_18HashMapValueTraitsINS_10HashTraitsIS1_EENS8_IS3_EEEES9_NS_18PartitionAllocatorEE6insertINS_17HashMapTranslatorISB_S6_SC_EERA11_KcRA109_SH_EENS_18HashTableAddResultISD_S4_EEOT0_OT1_(%"class.WTF::HashTable.5"* bitcast (%"class.WTF::StaticSingleton.472"* @_ZZN5blink12_GLOBAL__N_122GetUACounterStyleRulesEvE10s_ua_rules to %"class.WTF::HashTable.5"*), [11 x i8]* nonnull dereferenceable(11) @.str.20, [109 x i8]* nonnull dereferenceable(109) @.str.21) #9
  %88 = extractvalue { %"struct.WTF::KeyValuePair.7"*, i8 } %87, 1
  %89 = and i8 %88, 1
  %90 = icmp eq i8 %89, 0
  br i1 %90, label %91, label %94

91:                                               ; preds = %86
  %92 = extractvalue { %"struct.WTF::KeyValuePair.7"*, i8 } %87, 0
  %93 = getelementptr inbounds %"struct.WTF::KeyValuePair.7", %"struct.WTF::KeyValuePair.7"* %92, i64 0, i32 1
  tail call void @_ZN3WTF17GenericHashTraitsINS_6StringEE5StoreIRA109_KcEEvOT_RS1_([109 x i8]* nonnull dereferenceable(109) @.str.21, %"class.WTF::String"* dereferenceable(8) %93) #9
  br label %94

94:                                               ; preds = %91, %86
  %95 = tail call { %"struct.WTF::KeyValuePair.7"*, i8 } @_ZN3WTF9HashTableINS_12AtomicStringENS_12KeyValuePairIS1_NS_6StringEEENS_24KeyValuePairKeyExtractorENS_16AtomicStringHashENS_18HashMapValueTraitsINS_10HashTraitsIS1_EENS8_IS3_EEEES9_NS_18PartitionAllocatorEE6insertINS_17HashMapTranslatorISB_S6_SC_EERA9_KcRA459_SH_EENS_18HashTableAddResultISD_S4_EEOT0_OT1_(%"class.WTF::HashTable.5"* bitcast (%"class.WTF::StaticSingleton.472"* @_ZZN5blink12_GLOBAL__N_122GetUACounterStyleRulesEvE10s_ua_rules to %"class.WTF::HashTable.5"*), [9 x i8]* nonnull dereferenceable(9) @.str.22, [459 x i8]* nonnull dereferenceable(459) @.str.23) #9
  %96 = extractvalue { %"struct.WTF::KeyValuePair.7"*, i8 } %95, 1
  %97 = and i8 %96, 1
  %98 = icmp eq i8 %97, 0
  br i1 %98, label %99, label %102

99:                                               ; preds = %94
  %100 = extractvalue { %"struct.WTF::KeyValuePair.7"*, i8 } %95, 0
  %101 = getelementptr inbounds %"struct.WTF::KeyValuePair.7", %"struct.WTF::KeyValuePair.7"* %100, i64 0, i32 1
  tail call void @_ZN3WTF17GenericHashTraitsINS_6StringEE5StoreIRA459_KcEEvOT_RS1_([459 x i8]* nonnull dereferenceable(459) @.str.23, %"class.WTF::String"* dereferenceable(8) %101) #9
  br label %102

102:                                              ; preds = %99, %94
  %103 = tail call { %"struct.WTF::KeyValuePair.7"*, i8 } @_ZN3WTF9HashTableINS_12AtomicStringENS_12KeyValuePairIS1_NS_6StringEEENS_24KeyValuePairKeyExtractorENS_16AtomicStringHashENS_18HashMapValueTraitsINS_10HashTraitsIS1_EENS8_IS3_EEEES9_NS_18PartitionAllocatorEE6insertINS_17HashMapTranslatorISB_S6_SC_EERA9_KcRA109_SH_EENS_18HashTableAddResultISD_S4_EEOT0_OT1_(%"class.WTF::HashTable.5"* bitcast (%"class.WTF::StaticSingleton.472"* @_ZZN5blink12_GLOBAL__N_122GetUACounterStyleRulesEvE10s_ua_rules to %"class.WTF::HashTable.5"*), [9 x i8]* nonnull dereferenceable(9) @.str.24, [109 x i8]* nonnull dereferenceable(109) @.str.25) #9
  %104 = extractvalue { %"struct.WTF::KeyValuePair.7"*, i8 } %103, 1
  %105 = and i8 %104, 1
  %106 = icmp eq i8 %105, 0
  br i1 %106, label %107, label %110

107:                                              ; preds = %102
  %108 = extractvalue { %"struct.WTF::KeyValuePair.7"*, i8 } %103, 0
  %109 = getelementptr inbounds %"struct.WTF::KeyValuePair.7", %"struct.WTF::KeyValuePair.7"* %108, i64 0, i32 1
  tail call void @_ZN3WTF17GenericHashTraitsINS_6StringEE5StoreIRA109_KcEEvOT_RS1_([109 x i8]* nonnull dereferenceable(109) @.str.25, %"class.WTF::String"* dereferenceable(8) %109) #9
  br label %110

110:                                              ; preds = %107, %102
  %111 = tail call { %"struct.WTF::KeyValuePair.7"*, i8 } @_ZN3WTF9HashTableINS_12AtomicStringENS_12KeyValuePairIS1_NS_6StringEEENS_24KeyValuePairKeyExtractorENS_16AtomicStringHashENS_18HashMapValueTraitsINS_10HashTraitsIS1_EENS8_IS3_EEEES9_NS_18PartitionAllocatorEE6insertINS_17HashMapTranslatorISB_S6_SC_EERA9_KcRA109_SH_EENS_18HashTableAddResultISD_S4_EEOT0_OT1_(%"class.WTF::HashTable.5"* bitcast (%"class.WTF::StaticSingleton.472"* @_ZZN5blink12_GLOBAL__N_122GetUACounterStyleRulesEvE10s_ua_rules to %"class.WTF::HashTable.5"*), [9 x i8]* nonnull dereferenceable(9) @.str.26, [109 x i8]* nonnull dereferenceable(109) @.str.27) #9
  %112 = extractvalue { %"struct.WTF::KeyValuePair.7"*, i8 } %111, 1
  %113 = and i8 %112, 1
  %114 = icmp eq i8 %113, 0
  br i1 %114, label %115, label %118

115:                                              ; preds = %110
  %116 = extractvalue { %"struct.WTF::KeyValuePair.7"*, i8 } %111, 0
  %117 = getelementptr inbounds %"struct.WTF::KeyValuePair.7", %"struct.WTF::KeyValuePair.7"* %116, i64 0, i32 1
  tail call void @_ZN3WTF17GenericHashTraitsINS_6StringEE5StoreIRA109_KcEEvOT_RS1_([109 x i8]* nonnull dereferenceable(109) @.str.27, %"class.WTF::String"* dereferenceable(8) %117) #9
  br label %118

118:                                              ; preds = %115, %110
  %119 = tail call { %"struct.WTF::KeyValuePair.7"*, i8 } @_ZN3WTF9HashTableINS_12AtomicStringENS_12KeyValuePairIS1_NS_6StringEEENS_24KeyValuePairKeyExtractorENS_16AtomicStringHashENS_18HashMapValueTraitsINS_10HashTraitsIS1_EENS8_IS3_EEEES9_NS_18PartitionAllocatorEE6insertINS_17HashMapTranslatorISB_S6_SC_EERA7_KcRA55_SH_EENS_18HashTableAddResultISD_S4_EEOT0_OT1_(%"class.WTF::HashTable.5"* bitcast (%"class.WTF::StaticSingleton.472"* @_ZZN5blink12_GLOBAL__N_122GetUACounterStyleRulesEvE10s_ua_rules to %"class.WTF::HashTable.5"*), [7 x i8]* nonnull dereferenceable(7) @.str.28, [55 x i8]* nonnull dereferenceable(55) @.str.29) #9
  %120 = extractvalue { %"struct.WTF::KeyValuePair.7"*, i8 } %119, 1
  %121 = and i8 %120, 1
  %122 = icmp eq i8 %121, 0
  br i1 %122, label %123, label %126

123:                                              ; preds = %118
  %124 = extractvalue { %"struct.WTF::KeyValuePair.7"*, i8 } %119, 0
  %125 = getelementptr inbounds %"struct.WTF::KeyValuePair.7", %"struct.WTF::KeyValuePair.7"* %124, i64 0, i32 1
  tail call void @_ZN3WTF17GenericHashTraitsINS_6StringEE5StoreIRA55_KcEEvOT_RS1_([55 x i8]* nonnull dereferenceable(55) @.str.29, %"class.WTF::String"* dereferenceable(8) %125) #9
  br label %126

126:                                              ; preds = %123, %118
  %127 = tail call { %"struct.WTF::KeyValuePair.7"*, i8 } @_ZN3WTF9HashTableINS_12AtomicStringENS_12KeyValuePairIS1_NS_6StringEEENS_24KeyValuePairKeyExtractorENS_16AtomicStringHashENS_18HashMapValueTraitsINS_10HashTraitsIS1_EENS8_IS3_EEEES9_NS_18PartitionAllocatorEE6insertINS_17HashMapTranslatorISB_S6_SC_EERA8_KcRA109_SH_EENS_18HashTableAddResultISD_S4_EEOT0_OT1_(%"class.WTF::HashTable.5"* bitcast (%"class.WTF::StaticSingleton.472"* @_ZZN5blink12_GLOBAL__N_122GetUACounterStyleRulesEvE10s_ua_rules to %"class.WTF::HashTable.5"*), [8 x i8]* nonnull dereferenceable(8) @.str.30, [109 x i8]* nonnull dereferenceable(109) @.str.31) #9
  %128 = extractvalue { %"struct.WTF::KeyValuePair.7"*, i8 } %127, 1
  %129 = and i8 %128, 1
  %130 = icmp eq i8 %129, 0
  br i1 %130, label %131, label %134

131:                                              ; preds = %126
  %132 = extractvalue { %"struct.WTF::KeyValuePair.7"*, i8 } %127, 0
  %133 = getelementptr inbounds %"struct.WTF::KeyValuePair.7", %"struct.WTF::KeyValuePair.7"* %132, i64 0, i32 1
  tail call void @_ZN3WTF17GenericHashTraitsINS_6StringEE5StoreIRA109_KcEEvOT_RS1_([109 x i8]* nonnull dereferenceable(109) @.str.31, %"class.WTF::String"* dereferenceable(8) %133) #9
  br label %134

134:                                              ; preds = %131, %126
  %135 = tail call { %"struct.WTF::KeyValuePair.7"*, i8 } @_ZN3WTF9HashTableINS_12AtomicStringENS_12KeyValuePairIS1_NS_6StringEEENS_24KeyValuePairKeyExtractorENS_16AtomicStringHashENS_18HashMapValueTraitsINS_10HashTraitsIS1_EENS8_IS3_EEEES9_NS_18PartitionAllocatorEE6insertINS_17HashMapTranslatorISB_S6_SC_EERA4_KcRA109_SH_EENS_18HashTableAddResultISD_S4_EEOT0_OT1_(%"class.WTF::HashTable.5"* bitcast (%"class.WTF::StaticSingleton.472"* @_ZZN5blink12_GLOBAL__N_122GetUACounterStyleRulesEvE10s_ua_rules to %"class.WTF::HashTable.5"*), [4 x i8]* nonnull dereferenceable(4) @.str.32, [109 x i8]* nonnull dereferenceable(109) @.str.33) #9
  %136 = extractvalue { %"struct.WTF::KeyValuePair.7"*, i8 } %135, 1
  %137 = and i8 %136, 1
  %138 = icmp eq i8 %137, 0
  br i1 %138, label %139, label %142

139:                                              ; preds = %134
  %140 = extractvalue { %"struct.WTF::KeyValuePair.7"*, i8 } %135, 0
  %141 = getelementptr inbounds %"struct.WTF::KeyValuePair.7", %"struct.WTF::KeyValuePair.7"* %140, i64 0, i32 1
  tail call void @_ZN3WTF17GenericHashTraitsINS_6StringEE5StoreIRA109_KcEEvOT_RS1_([109 x i8]* nonnull dereferenceable(109) @.str.33, %"class.WTF::String"* dereferenceable(8) %141) #9
  br label %142

142:                                              ; preds = %139, %134
  %143 = tail call { %"struct.WTF::KeyValuePair.7"*, i8 } @_ZN3WTF9HashTableINS_12AtomicStringENS_12KeyValuePairIS1_NS_6StringEEENS_24KeyValuePairKeyExtractorENS_16AtomicStringHashENS_18HashMapValueTraitsINS_10HashTraitsIS1_EENS8_IS3_EEEES9_NS_18PartitionAllocatorEE6insertINS_17HashMapTranslatorISB_S6_SC_EERA10_KcRA109_SH_EENS_18HashTableAddResultISD_S4_EEOT0_OT1_(%"class.WTF::HashTable.5"* bitcast (%"class.WTF::StaticSingleton.472"* @_ZZN5blink12_GLOBAL__N_122GetUACounterStyleRulesEvE10s_ua_rules to %"class.WTF::HashTable.5"*), [10 x i8]* nonnull dereferenceable(10) @.str.34, [109 x i8]* nonnull dereferenceable(109) @.str.35) #9
  %144 = extractvalue { %"struct.WTF::KeyValuePair.7"*, i8 } %143, 1
  %145 = and i8 %144, 1
  %146 = icmp eq i8 %145, 0
  br i1 %146, label %147, label %150

147:                                              ; preds = %142
  %148 = extractvalue { %"struct.WTF::KeyValuePair.7"*, i8 } %143, 0
  %149 = getelementptr inbounds %"struct.WTF::KeyValuePair.7", %"struct.WTF::KeyValuePair.7"* %148, i64 0, i32 1
  tail call void @_ZN3WTF17GenericHashTraitsINS_6StringEE5StoreIRA109_KcEEvOT_RS1_([109 x i8]* nonnull dereferenceable(109) @.str.35, %"class.WTF::String"* dereferenceable(8) %149) #9
  br label %150

150:                                              ; preds = %147, %142
  %151 = tail call { %"struct.WTF::KeyValuePair.7"*, i8 } @_ZN3WTF9HashTableINS_12AtomicStringENS_12KeyValuePairIS1_NS_6StringEEENS_24KeyValuePairKeyExtractorENS_16AtomicStringHashENS_18HashMapValueTraitsINS_10HashTraitsIS1_EENS8_IS3_EEEES9_NS_18PartitionAllocatorEE6insertINS_17HashMapTranslatorISB_S6_SC_EERA10_KcRA119_SH_EENS_18HashTableAddResultISD_S4_EEOT0_OT1_(%"class.WTF::HashTable.5"* bitcast (%"class.WTF::StaticSingleton.472"* @_ZZN5blink12_GLOBAL__N_122GetUACounterStyleRulesEvE10s_ua_rules to %"class.WTF::HashTable.5"*), [10 x i8]* nonnull dereferenceable(10) @.str.36, [119 x i8]* nonnull dereferenceable(119) @.str.37) #9
  %152 = extractvalue { %"struct.WTF::KeyValuePair.7"*, i8 } %151, 1
  %153 = and i8 %152, 1
  %154 = icmp eq i8 %153, 0
  br i1 %154, label %155, label %158

155:                                              ; preds = %150
  %156 = extractvalue { %"struct.WTF::KeyValuePair.7"*, i8 } %151, 0
  %157 = getelementptr inbounds %"struct.WTF::KeyValuePair.7", %"struct.WTF::KeyValuePair.7"* %156, i64 0, i32 1
  tail call void @_ZN3WTF17GenericHashTraitsINS_6StringEE5StoreIRA119_KcEEvOT_RS1_([119 x i8]* nonnull dereferenceable(119) @.str.37, %"class.WTF::String"* dereferenceable(8) %157) #9
  br label %158

158:                                              ; preds = %155, %150
  %159 = tail call { %"struct.WTF::KeyValuePair.7"*, i8 } @_ZN3WTF9HashTableINS_12AtomicStringENS_12KeyValuePairIS1_NS_6StringEEENS_24KeyValuePairKeyExtractorENS_16AtomicStringHashENS_18HashMapValueTraitsINS_10HashTraitsIS1_EENS8_IS3_EEEES9_NS_18PartitionAllocatorEE6insertINS_17HashMapTranslatorISB_S6_SC_EERA8_KcRA119_SH_EENS_18HashTableAddResultISD_S4_EEOT0_OT1_(%"class.WTF::HashTable.5"* bitcast (%"class.WTF::StaticSingleton.472"* @_ZZN5blink12_GLOBAL__N_122GetUACounterStyleRulesEvE10s_ua_rules to %"class.WTF::HashTable.5"*), [8 x i8]* nonnull dereferenceable(8) @.str.38, [119 x i8]* nonnull dereferenceable(119) @.str.39) #9
  %160 = extractvalue { %"struct.WTF::KeyValuePair.7"*, i8 } %159, 1
  %161 = and i8 %160, 1
  %162 = icmp eq i8 %161, 0
  br i1 %162, label %163, label %166

163:                                              ; preds = %158
  %164 = extractvalue { %"struct.WTF::KeyValuePair.7"*, i8 } %159, 0
  %165 = getelementptr inbounds %"struct.WTF::KeyValuePair.7", %"struct.WTF::KeyValuePair.7"* %164, i64 0, i32 1
  tail call void @_ZN3WTF17GenericHashTraitsINS_6StringEE5StoreIRA119_KcEEvOT_RS1_([119 x i8]* nonnull dereferenceable(119) @.str.39, %"class.WTF::String"* dereferenceable(8) %165) #9
  br label %166

166:                                              ; preds = %163, %158
  %167 = tail call { %"struct.WTF::KeyValuePair.7"*, i8 } @_ZN3WTF9HashTableINS_12AtomicStringENS_12KeyValuePairIS1_NS_6StringEEENS_24KeyValuePairKeyExtractorENS_16AtomicStringHashENS_18HashMapValueTraitsINS_10HashTraitsIS1_EENS8_IS3_EEEES9_NS_18PartitionAllocatorEE6insertINS_17HashMapTranslatorISB_S6_SC_EERA6_KcRA109_SH_EENS_18HashTableAddResultISD_S4_EEOT0_OT1_(%"class.WTF::HashTable.5"* bitcast (%"class.WTF::StaticSingleton.472"* @_ZZN5blink12_GLOBAL__N_122GetUACounterStyleRulesEvE10s_ua_rules to %"class.WTF::HashTable.5"*), [6 x i8]* nonnull dereferenceable(6) @.str.40, [109 x i8]* nonnull dereferenceable(109) @.str.41) #9
  %168 = extractvalue { %"struct.WTF::KeyValuePair.7"*, i8 } %167, 1
  %169 = and i8 %168, 1
  %170 = icmp eq i8 %169, 0
  br i1 %170, label %171, label %174

171:                                              ; preds = %166
  %172 = extractvalue { %"struct.WTF::KeyValuePair.7"*, i8 } %167, 0
  %173 = getelementptr inbounds %"struct.WTF::KeyValuePair.7", %"struct.WTF::KeyValuePair.7"* %172, i64 0, i32 1
  tail call void @_ZN3WTF17GenericHashTraitsINS_6StringEE5StoreIRA109_KcEEvOT_RS1_([109 x i8]* nonnull dereferenceable(109) @.str.41, %"class.WTF::String"* dereferenceable(8) %173) #9
  br label %174

174:                                              ; preds = %171, %166
  %175 = tail call { %"struct.WTF::KeyValuePair.7"*, i8 } @_ZN3WTF9HashTableINS_12AtomicStringENS_12KeyValuePairIS1_NS_6StringEEENS_24KeyValuePairKeyExtractorENS_16AtomicStringHashENS_18HashMapValueTraitsINS_10HashTraitsIS1_EENS8_IS3_EEEES9_NS_18PartitionAllocatorEE6insertINS_17HashMapTranslatorISB_S6_SC_EERA8_KcRA109_SH_EENS_18HashTableAddResultISD_S4_EEOT0_OT1_(%"class.WTF::HashTable.5"* bitcast (%"class.WTF::StaticSingleton.472"* @_ZZN5blink12_GLOBAL__N_122GetUACounterStyleRulesEvE10s_ua_rules to %"class.WTF::HashTable.5"*), [8 x i8]* nonnull dereferenceable(8) @.str.42, [109 x i8]* nonnull dereferenceable(109) @.str.43) #9
  %176 = extractvalue { %"struct.WTF::KeyValuePair.7"*, i8 } %175, 1
  %177 = and i8 %176, 1
  %178 = icmp eq i8 %177, 0
  br i1 %178, label %179, label %182

179:                                              ; preds = %174
  %180 = extractvalue { %"struct.WTF::KeyValuePair.7"*, i8 } %175, 0
  %181 = getelementptr inbounds %"struct.WTF::KeyValuePair.7", %"struct.WTF::KeyValuePair.7"* %180, i64 0, i32 1
  tail call void @_ZN3WTF17GenericHashTraitsINS_6StringEE5StoreIRA109_KcEEvOT_RS1_([109 x i8]* nonnull dereferenceable(109) @.str.43, %"class.WTF::String"* dereferenceable(8) %181) #9
  br label %182

182:                                              ; preds = %179, %174
  %183 = tail call { %"struct.WTF::KeyValuePair.7"*, i8 } @_ZN3WTF9HashTableINS_12AtomicStringENS_12KeyValuePairIS1_NS_6StringEEENS_24KeyValuePairKeyExtractorENS_16AtomicStringHashENS_18HashMapValueTraitsINS_10HashTraitsIS1_EENS8_IS3_EEEES9_NS_18PartitionAllocatorEE6insertINS_17HashMapTranslatorISB_S6_SC_EERA12_KcRA153_SH_EENS_18HashTableAddResultISD_S4_EEOT0_OT1_(%"class.WTF::HashTable.5"* bitcast (%"class.WTF::StaticSingleton.472"* @_ZZN5blink12_GLOBAL__N_122GetUACounterStyleRulesEvE10s_ua_rules to %"class.WTF::HashTable.5"*), [12 x i8]* nonnull dereferenceable(12) @.str.44, [153 x i8]* nonnull dereferenceable(153) @.str.45) #9
  %184 = extractvalue { %"struct.WTF::KeyValuePair.7"*, i8 } %183, 1
  %185 = and i8 %184, 1
  %186 = icmp eq i8 %185, 0
  br i1 %186, label %187, label %190

187:                                              ; preds = %182
  %188 = extractvalue { %"struct.WTF::KeyValuePair.7"*, i8 } %183, 0
  %189 = getelementptr inbounds %"struct.WTF::KeyValuePair.7", %"struct.WTF::KeyValuePair.7"* %188, i64 0, i32 1
  tail call void @_ZN3WTF17GenericHashTraitsINS_6StringEE5StoreIRA153_KcEEvOT_RS1_([153 x i8]* nonnull dereferenceable(153) @.str.45, %"class.WTF::String"* dereferenceable(8) %189) #9
  br label %190

190:                                              ; preds = %187, %182
  %191 = tail call { %"struct.WTF::KeyValuePair.7"*, i8 } @_ZN3WTF9HashTableINS_12AtomicStringENS_12KeyValuePairIS1_NS_6StringEEENS_24KeyValuePairKeyExtractorENS_16AtomicStringHashENS_18HashMapValueTraitsINS_10HashTraitsIS1_EENS8_IS3_EEEES9_NS_18PartitionAllocatorEE6insertINS_17HashMapTranslatorISB_S6_SC_EERA12_KcRA153_SH_EENS_18HashTableAddResultISD_S4_EEOT0_OT1_(%"class.WTF::HashTable.5"* bitcast (%"class.WTF::StaticSingleton.472"* @_ZZN5blink12_GLOBAL__N_122GetUACounterStyleRulesEvE10s_ua_rules to %"class.WTF::HashTable.5"*), [12 x i8]* nonnull dereferenceable(12) @.str.46, [153 x i8]* nonnull dereferenceable(153) @.str.47) #9
  %192 = extractvalue { %"struct.WTF::KeyValuePair.7"*, i8 } %191, 1
  %193 = and i8 %192, 1
  %194 = icmp eq i8 %193, 0
  br i1 %194, label %195, label %198

195:                                              ; preds = %190
  %196 = extractvalue { %"struct.WTF::KeyValuePair.7"*, i8 } %191, 0
  %197 = getelementptr inbounds %"struct.WTF::KeyValuePair.7", %"struct.WTF::KeyValuePair.7"* %196, i64 0, i32 1
  tail call void @_ZN3WTF17GenericHashTraitsINS_6StringEE5StoreIRA153_KcEEvOT_RS1_([153 x i8]* nonnull dereferenceable(153) @.str.47, %"class.WTF::String"* dereferenceable(8) %197) #9
  br label %198

198:                                              ; preds = %195, %190
  %199 = tail call { %"struct.WTF::KeyValuePair.7"*, i8 } @_ZN3WTF9HashTableINS_12AtomicStringENS_12KeyValuePairIS1_NS_6StringEEENS_24KeyValuePairKeyExtractorENS_16AtomicStringHashENS_18HashMapValueTraitsINS_10HashTraitsIS1_EENS8_IS3_EEEES9_NS_18PartitionAllocatorEE6insertINS_17HashMapTranslatorISB_S6_SC_EERA6_KcRA109_SH_EENS_18HashTableAddResultISD_S4_EEOT0_OT1_(%"class.WTF::HashTable.5"* bitcast (%"class.WTF::StaticSingleton.472"* @_ZZN5blink12_GLOBAL__N_122GetUACounterStyleRulesEvE10s_ua_rules to %"class.WTF::HashTable.5"*), [6 x i8]* nonnull dereferenceable(6) @.str.48, [109 x i8]* nonnull dereferenceable(109) @.str.49) #9
  %200 = extractvalue { %"struct.WTF::KeyValuePair.7"*, i8 } %199, 1
  %201 = and i8 %200, 1
  %202 = icmp eq i8 %201, 0
  br i1 %202, label %203, label %206

203:                                              ; preds = %198
  %204 = extractvalue { %"struct.WTF::KeyValuePair.7"*, i8 } %199, 0
  %205 = getelementptr inbounds %"struct.WTF::KeyValuePair.7", %"struct.WTF::KeyValuePair.7"* %204, i64 0, i32 1
  tail call void @_ZN3WTF17GenericHashTraitsINS_6StringEE5StoreIRA109_KcEEvOT_RS1_([109 x i8]* nonnull dereferenceable(109) @.str.49, %"class.WTF::String"* dereferenceable(8) %205) #9
  br label %206

206:                                              ; preds = %203, %198
  %207 = tail call { %"struct.WTF::KeyValuePair.7"*, i8 } @_ZN3WTF9HashTableINS_12AtomicStringENS_12KeyValuePairIS1_NS_6StringEEENS_24KeyValuePairKeyExtractorENS_16AtomicStringHashENS_18HashMapValueTraitsINS_10HashTraitsIS1_EENS8_IS3_EEEES9_NS_18PartitionAllocatorEE6insertINS_17HashMapTranslatorISB_S6_SC_EERA7_KcRA109_SH_EENS_18HashTableAddResultISD_S4_EEOT0_OT1_(%"class.WTF::HashTable.5"* bitcast (%"class.WTF::StaticSingleton.472"* @_ZZN5blink12_GLOBAL__N_122GetUACounterStyleRulesEvE10s_ua_rules to %"class.WTF::HashTable.5"*), [7 x i8]* nonnull dereferenceable(7) @.str.50, [109 x i8]* nonnull dereferenceable(109) @.str.51) #9
  %208 = extractvalue { %"struct.WTF::KeyValuePair.7"*, i8 } %207, 1
  %209 = and i8 %208, 1
  %210 = icmp eq i8 %209, 0
  br i1 %210, label %211, label %214

211:                                              ; preds = %206
  %212 = extractvalue { %"struct.WTF::KeyValuePair.7"*, i8 } %207, 0
  %213 = getelementptr inbounds %"struct.WTF::KeyValuePair.7", %"struct.WTF::KeyValuePair.7"* %212, i64 0, i32 1
  tail call void @_ZN3WTF17GenericHashTraitsINS_6StringEE5StoreIRA109_KcEEvOT_RS1_([109 x i8]* nonnull dereferenceable(109) @.str.51, %"class.WTF::String"* dereferenceable(8) %213) #9
  br label %214

214:                                              ; preds = %211, %206
  %215 = tail call { %"struct.WTF::KeyValuePair.7"*, i8 } @_ZN3WTF9HashTableINS_12AtomicStringENS_12KeyValuePairIS1_NS_6StringEEENS_24KeyValuePairKeyExtractorENS_16AtomicStringHashENS_18HashMapValueTraitsINS_10HashTraitsIS1_EENS8_IS3_EEEES9_NS_18PartitionAllocatorEE6insertINS_17HashMapTranslatorISB_S6_SC_EERA5_KcRA109_SH_EENS_18HashTableAddResultISD_S4_EEOT0_OT1_(%"class.WTF::HashTable.5"* bitcast (%"class.WTF::StaticSingleton.472"* @_ZZN5blink12_GLOBAL__N_122GetUACounterStyleRulesEvE10s_ua_rules to %"class.WTF::HashTable.5"*), [5 x i8]* nonnull dereferenceable(5) @.str.52, [109 x i8]* nonnull dereferenceable(109) @.str.53) #9
  %216 = extractvalue { %"struct.WTF::KeyValuePair.7"*, i8 } %215, 1
  %217 = and i8 %216, 1
  %218 = icmp eq i8 %217, 0
  br i1 %218, label %219, label %222

219:                                              ; preds = %214
  %220 = extractvalue { %"struct.WTF::KeyValuePair.7"*, i8 } %215, 0
  %221 = getelementptr inbounds %"struct.WTF::KeyValuePair.7", %"struct.WTF::KeyValuePair.7"* %220, i64 0, i32 1
  tail call void @_ZN3WTF17GenericHashTraitsINS_6StringEE5StoreIRA109_KcEEvOT_RS1_([109 x i8]* nonnull dereferenceable(109) @.str.53, %"class.WTF::String"* dereferenceable(8) %221) #9
  br label %222

222:                                              ; preds = %219, %214
  %223 = tail call { %"struct.WTF::KeyValuePair.7"*, i8 } @_ZN3WTF9HashTableINS_12AtomicStringENS_12KeyValuePairIS1_NS_6StringEEENS_24KeyValuePairKeyExtractorENS_16AtomicStringHashENS_18HashMapValueTraitsINS_10HashTraitsIS1_EENS8_IS3_EEEES9_NS_18PartitionAllocatorEE6insertINS_17HashMapTranslatorISB_S6_SC_EERA8_KcRA109_SH_EENS_18HashTableAddResultISD_S4_EEOT0_OT1_(%"class.WTF::HashTable.5"* bitcast (%"class.WTF::StaticSingleton.472"* @_ZZN5blink12_GLOBAL__N_122GetUACounterStyleRulesEvE10s_ua_rules to %"class.WTF::HashTable.5"*), [8 x i8]* nonnull dereferenceable(8) @.str.54, [109 x i8]* nonnull dereferenceable(109) @.str.55) #9
  %224 = extractvalue { %"struct.WTF::KeyValuePair.7"*, i8 } %223, 1
  %225 = and i8 %224, 1
  %226 = icmp eq i8 %225, 0
  br i1 %226, label %227, label %230

227:                                              ; preds = %222
  %228 = extractvalue { %"struct.WTF::KeyValuePair.7"*, i8 } %223, 0
  %229 = getelementptr inbounds %"struct.WTF::KeyValuePair.7", %"struct.WTF::KeyValuePair.7"* %228, i64 0, i32 1
  tail call void @_ZN3WTF17GenericHashTraitsINS_6StringEE5StoreIRA109_KcEEvOT_RS1_([109 x i8]* nonnull dereferenceable(109) @.str.55, %"class.WTF::String"* dereferenceable(8) %229) #9
  br label %230

230:                                              ; preds = %227, %222
  %231 = tail call { %"struct.WTF::KeyValuePair.7"*, i8 } @_ZN3WTF9HashTableINS_12AtomicStringENS_12KeyValuePairIS1_NS_6StringEEENS_24KeyValuePairKeyExtractorENS_16AtomicStringHashENS_18HashMapValueTraitsINS_10HashTraitsIS1_EENS8_IS3_EEEES9_NS_18PartitionAllocatorEE6insertINS_17HashMapTranslatorISB_S6_SC_EERA12_KcRA94_SH_EENS_18HashTableAddResultISD_S4_EEOT0_OT1_(%"class.WTF::HashTable.5"* bitcast (%"class.WTF::StaticSingleton.472"* @_ZZN5blink12_GLOBAL__N_122GetUACounterStyleRulesEvE10s_ua_rules to %"class.WTF::HashTable.5"*), [12 x i8]* nonnull dereferenceable(12) @.str.56, [94 x i8]* nonnull dereferenceable(94) @.str.57) #9
  %232 = extractvalue { %"struct.WTF::KeyValuePair.7"*, i8 } %231, 1
  %233 = and i8 %232, 1
  %234 = icmp eq i8 %233, 0
  br i1 %234, label %235, label %238

235:                                              ; preds = %230
  %236 = extractvalue { %"struct.WTF::KeyValuePair.7"*, i8 } %231, 0
  %237 = getelementptr inbounds %"struct.WTF::KeyValuePair.7", %"struct.WTF::KeyValuePair.7"* %236, i64 0, i32 1
  tail call void @_ZN3WTF17GenericHashTraitsINS_6StringEE5StoreIRA94_KcEEvOT_RS1_([94 x i8]* nonnull dereferenceable(94) @.str.57, %"class.WTF::String"* dereferenceable(8) %237) #9
  br label %238

238:                                              ; preds = %235, %230
  %239 = tail call { %"struct.WTF::KeyValuePair.7"*, i8 } @_ZN3WTF9HashTableINS_12AtomicStringENS_12KeyValuePairIS1_NS_6StringEEENS_24KeyValuePairKeyExtractorENS_16AtomicStringHashENS_18HashMapValueTraitsINS_10HashTraitsIS1_EENS8_IS3_EEEES9_NS_18PartitionAllocatorEE6insertINS_17HashMapTranslatorISB_S6_SC_EERA12_KcRA37_SH_EENS_18HashTableAddResultISD_S4_EEOT0_OT1_(%"class.WTF::HashTable.5"* bitcast (%"class.WTF::StaticSingleton.472"* @_ZZN5blink12_GLOBAL__N_122GetUACounterStyleRulesEvE10s_ua_rules to %"class.WTF::HashTable.5"*), [12 x i8]* nonnull dereferenceable(12) @.str.58, [37 x i8]* nonnull dereferenceable(37) @.str.59) #9
  %240 = extractvalue { %"struct.WTF::KeyValuePair.7"*, i8 } %239, 1
  %241 = and i8 %240, 1
  %242 = icmp eq i8 %241, 0
  br i1 %242, label %243, label %246

243:                                              ; preds = %238
  %244 = extractvalue { %"struct.WTF::KeyValuePair.7"*, i8 } %239, 0
  %245 = getelementptr inbounds %"struct.WTF::KeyValuePair.7", %"struct.WTF::KeyValuePair.7"* %244, i64 0, i32 1
  tail call void @_ZN3WTF17GenericHashTraitsINS_6StringEE5StoreIRA37_KcEEvOT_RS1_([37 x i8]* nonnull dereferenceable(37) @.str.59, %"class.WTF::String"* dereferenceable(8) %245) #9
  br label %246

246:                                              ; preds = %243, %238
  %247 = tail call { %"struct.WTF::KeyValuePair.7"*, i8 } @_ZN3WTF9HashTableINS_12AtomicStringENS_12KeyValuePairIS1_NS_6StringEEENS_24KeyValuePairKeyExtractorENS_16AtomicStringHashENS_18HashMapValueTraitsINS_10HashTraitsIS1_EENS8_IS3_EEEES9_NS_18PartitionAllocatorEE6insertINS_17HashMapTranslatorISB_S6_SC_EERA12_KcRA94_SH_EENS_18HashTableAddResultISD_S4_EEOT0_OT1_(%"class.WTF::HashTable.5"* bitcast (%"class.WTF::StaticSingleton.472"* @_ZZN5blink12_GLOBAL__N_122GetUACounterStyleRulesEvE10s_ua_rules to %"class.WTF::HashTable.5"*), [12 x i8]* nonnull dereferenceable(12) @.str.60, [94 x i8]* nonnull dereferenceable(94) @.str.61) #9
  %248 = extractvalue { %"struct.WTF::KeyValuePair.7"*, i8 } %247, 1
  %249 = and i8 %248, 1
  %250 = icmp eq i8 %249, 0
  br i1 %250, label %251, label %254

251:                                              ; preds = %246
  %252 = extractvalue { %"struct.WTF::KeyValuePair.7"*, i8 } %247, 0
  %253 = getelementptr inbounds %"struct.WTF::KeyValuePair.7", %"struct.WTF::KeyValuePair.7"* %252, i64 0, i32 1
  tail call void @_ZN3WTF17GenericHashTraitsINS_6StringEE5StoreIRA94_KcEEvOT_RS1_([94 x i8]* nonnull dereferenceable(94) @.str.61, %"class.WTF::String"* dereferenceable(8) %253) #9
  br label %254

254:                                              ; preds = %251, %246
  %255 = tail call { %"struct.WTF::KeyValuePair.7"*, i8 } @_ZN3WTF9HashTableINS_12AtomicStringENS_12KeyValuePairIS1_NS_6StringEEENS_24KeyValuePairKeyExtractorENS_16AtomicStringHashENS_18HashMapValueTraitsINS_10HashTraitsIS1_EENS8_IS3_EEEES9_NS_18PartitionAllocatorEE6insertINS_17HashMapTranslatorISB_S6_SC_EERA12_KcRA37_SH_EENS_18HashTableAddResultISD_S4_EEOT0_OT1_(%"class.WTF::HashTable.5"* bitcast (%"class.WTF::StaticSingleton.472"* @_ZZN5blink12_GLOBAL__N_122GetUACounterStyleRulesEvE10s_ua_rules to %"class.WTF::HashTable.5"*), [12 x i8]* nonnull dereferenceable(12) @.str.62, [37 x i8]* nonnull dereferenceable(37) @.str.63) #9
  %256 = extractvalue { %"struct.WTF::KeyValuePair.7"*, i8 } %255, 1
  %257 = and i8 %256, 1
  %258 = icmp eq i8 %257, 0
  br i1 %258, label %259, label %262

259:                                              ; preds = %254
  %260 = extractvalue { %"struct.WTF::KeyValuePair.7"*, i8 } %255, 0
  %261 = getelementptr inbounds %"struct.WTF::KeyValuePair.7", %"struct.WTF::KeyValuePair.7"* %260, i64 0, i32 1
  tail call void @_ZN3WTF17GenericHashTraitsINS_6StringEE5StoreIRA37_KcEEvOT_RS1_([37 x i8]* nonnull dereferenceable(37) @.str.63, %"class.WTF::String"* dereferenceable(8) %261) #9
  br label %262

262:                                              ; preds = %259, %254
  %263 = tail call { %"struct.WTF::KeyValuePair.7"*, i8 } @_ZN3WTF9HashTableINS_12AtomicStringENS_12KeyValuePairIS1_NS_6StringEEENS_24KeyValuePairKeyExtractorENS_16AtomicStringHashENS_18HashMapValueTraitsINS_10HashTraitsIS1_EENS8_IS3_EEEES9_NS_18PartitionAllocatorEE6insertINS_17HashMapTranslatorISB_S6_SC_EERA12_KcRA210_SH_EENS_18HashTableAddResultISD_S4_EEOT0_OT1_(%"class.WTF::HashTable.5"* bitcast (%"class.WTF::StaticSingleton.472"* @_ZZN5blink12_GLOBAL__N_122GetUACounterStyleRulesEvE10s_ua_rules to %"class.WTF::HashTable.5"*), [12 x i8]* nonnull dereferenceable(12) @.str.64, [210 x i8]* nonnull dereferenceable(210) @.str.65) #9
  %264 = extractvalue { %"struct.WTF::KeyValuePair.7"*, i8 } %263, 1
  %265 = and i8 %264, 1
  %266 = icmp eq i8 %265, 0
  br i1 %266, label %267, label %270

267:                                              ; preds = %262
  %268 = extractvalue { %"struct.WTF::KeyValuePair.7"*, i8 } %263, 0
  %269 = getelementptr inbounds %"struct.WTF::KeyValuePair.7", %"struct.WTF::KeyValuePair.7"* %268, i64 0, i32 1
  tail call void @_ZN3WTF17GenericHashTraitsINS_6StringEE5StoreIRA210_KcEEvOT_RS1_([210 x i8]* nonnull dereferenceable(210) @.str.65, %"class.WTF::String"* dereferenceable(8) %269) #9
  br label %270

270:                                              ; preds = %267, %262
  %271 = tail call { %"struct.WTF::KeyValuePair.7"*, i8 } @_ZN3WTF9HashTableINS_12AtomicStringENS_12KeyValuePairIS1_NS_6StringEEENS_24KeyValuePairKeyExtractorENS_16AtomicStringHashENS_18HashMapValueTraitsINS_10HashTraitsIS1_EENS8_IS3_EEEES9_NS_18PartitionAllocatorEE6insertINS_17HashMapTranslatorISB_S6_SC_EERA9_KcRA447_SH_EENS_18HashTableAddResultISD_S4_EEOT0_OT1_(%"class.WTF::HashTable.5"* bitcast (%"class.WTF::StaticSingleton.472"* @_ZZN5blink12_GLOBAL__N_122GetUACounterStyleRulesEvE10s_ua_rules to %"class.WTF::HashTable.5"*), [9 x i8]* nonnull dereferenceable(9) @.str.66, [447 x i8]* nonnull dereferenceable(447) @.str.67) #9
  %272 = extractvalue { %"struct.WTF::KeyValuePair.7"*, i8 } %271, 1
  %273 = and i8 %272, 1
  %274 = icmp eq i8 %273, 0
  br i1 %274, label %275, label %278

275:                                              ; preds = %270
  %276 = extractvalue { %"struct.WTF::KeyValuePair.7"*, i8 } %271, 0
  %277 = getelementptr inbounds %"struct.WTF::KeyValuePair.7", %"struct.WTF::KeyValuePair.7"* %276, i64 0, i32 1
  tail call void @_ZN3WTF17GenericHashTraitsINS_6StringEE5StoreIRA447_KcEEvOT_RS1_([447 x i8]* nonnull dereferenceable(447) @.str.67, %"class.WTF::String"* dereferenceable(8) %277) #9
  br label %278

278:                                              ; preds = %275, %270
  %279 = tail call { %"struct.WTF::KeyValuePair.7"*, i8 } @_ZN3WTF9HashTableINS_12AtomicStringENS_12KeyValuePairIS1_NS_6StringEEENS_24KeyValuePairKeyExtractorENS_16AtomicStringHashENS_18HashMapValueTraitsINS_10HashTraitsIS1_EENS8_IS3_EEEES9_NS_18PartitionAllocatorEE6insertINS_17HashMapTranslatorISB_S6_SC_EERA15_KcRA439_SH_EENS_18HashTableAddResultISD_S4_EEOT0_OT1_(%"class.WTF::HashTable.5"* bitcast (%"class.WTF::StaticSingleton.472"* @_ZZN5blink12_GLOBAL__N_122GetUACounterStyleRulesEvE10s_ua_rules to %"class.WTF::HashTable.5"*), [15 x i8]* nonnull dereferenceable(15) @.str.68, [439 x i8]* nonnull dereferenceable(439) @.str.69) #9
  %280 = extractvalue { %"struct.WTF::KeyValuePair.7"*, i8 } %279, 1
  %281 = and i8 %280, 1
  %282 = icmp eq i8 %281, 0
  br i1 %282, label %283, label %286

283:                                              ; preds = %278
  %284 = extractvalue { %"struct.WTF::KeyValuePair.7"*, i8 } %279, 0
  %285 = getelementptr inbounds %"struct.WTF::KeyValuePair.7", %"struct.WTF::KeyValuePair.7"* %284, i64 0, i32 1
  tail call void @_ZN3WTF17GenericHashTraitsINS_6StringEE5StoreIRA439_KcEEvOT_RS1_([439 x i8]* nonnull dereferenceable(439) @.str.69, %"class.WTF::String"* dereferenceable(8) %285) #9
  br label %286

286:                                              ; preds = %283, %278
  %287 = tail call { %"struct.WTF::KeyValuePair.7"*, i8 } @_ZN3WTF9HashTableINS_12AtomicStringENS_12KeyValuePairIS1_NS_6StringEEENS_24KeyValuePairKeyExtractorENS_16AtomicStringHashENS_18HashMapValueTraitsINS_10HashTraitsIS1_EENS8_IS3_EEEES9_NS_18PartitionAllocatorEE6insertINS_17HashMapTranslatorISB_S6_SC_EERA9_KcRA447_SH_EENS_18HashTableAddResultISD_S4_EEOT0_OT1_(%"class.WTF::HashTable.5"* bitcast (%"class.WTF::StaticSingleton.472"* @_ZZN5blink12_GLOBAL__N_122GetUACounterStyleRulesEvE10s_ua_rules to %"class.WTF::HashTable.5"*), [9 x i8]* nonnull dereferenceable(9) @.str.70, [447 x i8]* nonnull dereferenceable(447) @.str.71) #9
  %288 = extractvalue { %"struct.WTF::KeyValuePair.7"*, i8 } %287, 1
  %289 = and i8 %288, 1
  %290 = icmp eq i8 %289, 0
  br i1 %290, label %291, label %294

291:                                              ; preds = %286
  %292 = extractvalue { %"struct.WTF::KeyValuePair.7"*, i8 } %287, 0
  %293 = getelementptr inbounds %"struct.WTF::KeyValuePair.7", %"struct.WTF::KeyValuePair.7"* %292, i64 0, i32 1
  tail call void @_ZN3WTF17GenericHashTraitsINS_6StringEE5StoreIRA447_KcEEvOT_RS1_([447 x i8]* nonnull dereferenceable(447) @.str.71, %"class.WTF::String"* dereferenceable(8) %293) #9
  br label %294

294:                                              ; preds = %291, %286
  %295 = tail call { %"struct.WTF::KeyValuePair.7"*, i8 } @_ZN3WTF9HashTableINS_12AtomicStringENS_12KeyValuePairIS1_NS_6StringEEENS_24KeyValuePairKeyExtractorENS_16AtomicStringHashENS_18HashMapValueTraitsINS_10HashTraitsIS1_EENS8_IS3_EEEES9_NS_18PartitionAllocatorEE6insertINS_17HashMapTranslatorISB_S6_SC_EERA15_KcRA439_SH_EENS_18HashTableAddResultISD_S4_EEOT0_OT1_(%"class.WTF::HashTable.5"* bitcast (%"class.WTF::StaticSingleton.472"* @_ZZN5blink12_GLOBAL__N_122GetUACounterStyleRulesEvE10s_ua_rules to %"class.WTF::HashTable.5"*), [15 x i8]* nonnull dereferenceable(15) @.str.72, [439 x i8]* nonnull dereferenceable(439) @.str.73) #9
  %296 = extractvalue { %"struct.WTF::KeyValuePair.7"*, i8 } %295, 1
  %297 = and i8 %296, 1
  %298 = icmp eq i8 %297, 0
  br i1 %298, label %299, label %302

299:                                              ; preds = %294
  %300 = extractvalue { %"struct.WTF::KeyValuePair.7"*, i8 } %295, 0
  %301 = getelementptr inbounds %"struct.WTF::KeyValuePair.7", %"struct.WTF::KeyValuePair.7"* %300, i64 0, i32 1
  tail call void @_ZN3WTF17GenericHashTraitsINS_6StringEE5StoreIRA439_KcEEvOT_RS1_([439 x i8]* nonnull dereferenceable(439) @.str.73, %"class.WTF::String"* dereferenceable(8) %301) #9
  br label %302

302:                                              ; preds = %299, %294
  %303 = tail call { %"struct.WTF::KeyValuePair.7"*, i8 } @_ZN3WTF9HashTableINS_12AtomicStringENS_12KeyValuePairIS1_NS_6StringEEENS_24KeyValuePairKeyExtractorENS_16AtomicStringHashENS_18HashMapValueTraitsINS_10HashTraitsIS1_EENS8_IS3_EEEES9_NS_18PartitionAllocatorEE6insertINS_17HashMapTranslatorISB_S6_SC_EERA5_KcRA61_SH_EENS_18HashTableAddResultISD_S4_EEOT0_OT1_(%"class.WTF::HashTable.5"* bitcast (%"class.WTF::StaticSingleton.472"* @_ZZN5blink12_GLOBAL__N_122GetUACounterStyleRulesEvE10s_ua_rules to %"class.WTF::HashTable.5"*), [5 x i8]* nonnull dereferenceable(5) @.str.74, [61 x i8]* nonnull dereferenceable(61) @.str.75) #9
  %304 = extractvalue { %"struct.WTF::KeyValuePair.7"*, i8 } %303, 1
  %305 = and i8 %304, 1
  %306 = icmp eq i8 %305, 0
  br i1 %306, label %307, label %310

307:                                              ; preds = %302
  %308 = extractvalue { %"struct.WTF::KeyValuePair.7"*, i8 } %303, 0
  %309 = getelementptr inbounds %"struct.WTF::KeyValuePair.7", %"struct.WTF::KeyValuePair.7"* %308, i64 0, i32 1
  tail call void @_ZN3WTF17GenericHashTraitsINS_6StringEE5StoreIRA61_KcEEvOT_RS1_([61 x i8]* nonnull dereferenceable(61) @.str.75, %"class.WTF::String"* dereferenceable(8) %309) #9
  br label %310

310:                                              ; preds = %307, %302
  %311 = tail call { %"struct.WTF::KeyValuePair.7"*, i8 } @_ZN3WTF9HashTableINS_12AtomicStringENS_12KeyValuePairIS1_NS_6StringEEENS_24KeyValuePairKeyExtractorENS_16AtomicStringHashENS_18HashMapValueTraitsINS_10HashTraitsIS1_EENS8_IS3_EEEES9_NS_18PartitionAllocatorEE6insertINS_17HashMapTranslatorISB_S6_SC_EERA7_KcRA61_SH_EENS_18HashTableAddResultISD_S4_EEOT0_OT1_(%"class.WTF::HashTable.5"* bitcast (%"class.WTF::StaticSingleton.472"* @_ZZN5blink12_GLOBAL__N_122GetUACounterStyleRulesEvE10s_ua_rules to %"class.WTF::HashTable.5"*), [7 x i8]* nonnull dereferenceable(7) @.str.76, [61 x i8]* nonnull dereferenceable(61) @.str.77) #9
  %312 = extractvalue { %"struct.WTF::KeyValuePair.7"*, i8 } %311, 1
  %313 = and i8 %312, 1
  %314 = icmp eq i8 %313, 0
  br i1 %314, label %315, label %318

315:                                              ; preds = %310
  %316 = extractvalue { %"struct.WTF::KeyValuePair.7"*, i8 } %311, 0
  %317 = getelementptr inbounds %"struct.WTF::KeyValuePair.7", %"struct.WTF::KeyValuePair.7"* %316, i64 0, i32 1
  tail call void @_ZN3WTF17GenericHashTraitsINS_6StringEE5StoreIRA61_KcEEvOT_RS1_([61 x i8]* nonnull dereferenceable(61) @.str.77, %"class.WTF::String"* dereferenceable(8) %317) #9
  br label %318

318:                                              ; preds = %315, %310
  %319 = tail call { %"struct.WTF::KeyValuePair.7"*, i8 } @_ZN3WTF9HashTableINS_12AtomicStringENS_12KeyValuePairIS1_NS_6StringEEENS_24KeyValuePairKeyExtractorENS_16AtomicStringHashENS_18HashMapValueTraitsINS_10HashTraitsIS1_EENS8_IS3_EEEES9_NS_18PartitionAllocatorEE6insertINS_17HashMapTranslatorISB_S6_SC_EERA7_KcRA61_SH_EENS_18HashTableAddResultISD_S4_EEOT0_OT1_(%"class.WTF::HashTable.5"* bitcast (%"class.WTF::StaticSingleton.472"* @_ZZN5blink12_GLOBAL__N_122GetUACounterStyleRulesEvE10s_ua_rules to %"class.WTF::HashTable.5"*), [7 x i8]* nonnull dereferenceable(7) @.str.78, [61 x i8]* nonnull dereferenceable(61) @.str.79) #9
  %320 = extractvalue { %"struct.WTF::KeyValuePair.7"*, i8 } %319, 1
  %321 = and i8 %320, 1
  %322 = icmp eq i8 %321, 0
  br i1 %322, label %323, label %326

323:                                              ; preds = %318
  %324 = extractvalue { %"struct.WTF::KeyValuePair.7"*, i8 } %319, 0
  %325 = getelementptr inbounds %"struct.WTF::KeyValuePair.7", %"struct.WTF::KeyValuePair.7"* %324, i64 0, i32 1
  tail call void @_ZN3WTF17GenericHashTraitsINS_6StringEE5StoreIRA61_KcEEvOT_RS1_([61 x i8]* nonnull dereferenceable(61) @.str.79, %"class.WTF::String"* dereferenceable(8) %325) #9
  br label %326

326:                                              ; preds = %323, %318
  %327 = tail call { %"struct.WTF::KeyValuePair.7"*, i8 } @_ZN3WTF9HashTableINS_12AtomicStringENS_12KeyValuePairIS1_NS_6StringEEENS_24KeyValuePairKeyExtractorENS_16AtomicStringHashENS_18HashMapValueTraitsINS_10HashTraitsIS1_EENS8_IS3_EEEES9_NS_18PartitionAllocatorEE6insertINS_17HashMapTranslatorISB_S6_SC_EERA16_KcRA61_SH_EENS_18HashTableAddResultISD_S4_EEOT0_OT1_(%"class.WTF::HashTable.5"* bitcast (%"class.WTF::StaticSingleton.472"* @_ZZN5blink12_GLOBAL__N_122GetUACounterStyleRulesEvE10s_ua_rules to %"class.WTF::HashTable.5"*), [16 x i8]* nonnull dereferenceable(16) @.str.80, [61 x i8]* nonnull dereferenceable(61) @.str.81) #9
  %328 = extractvalue { %"struct.WTF::KeyValuePair.7"*, i8 } %327, 1
  %329 = and i8 %328, 1
  %330 = icmp eq i8 %329, 0
  br i1 %330, label %331, label %334

331:                                              ; preds = %326
  %332 = extractvalue { %"struct.WTF::KeyValuePair.7"*, i8 } %327, 0
  %333 = getelementptr inbounds %"struct.WTF::KeyValuePair.7", %"struct.WTF::KeyValuePair.7"* %332, i64 0, i32 1
  tail call void @_ZN3WTF17GenericHashTraitsINS_6StringEE5StoreIRA61_KcEEvOT_RS1_([61 x i8]* nonnull dereferenceable(61) @.str.81, %"class.WTF::String"* dereferenceable(8) %333) #9
  br label %334

334:                                              ; preds = %331, %326
  %335 = tail call { %"struct.WTF::KeyValuePair.7"*, i8 } @_ZN3WTF9HashTableINS_12AtomicStringENS_12KeyValuePairIS1_NS_6StringEEENS_24KeyValuePairKeyExtractorENS_16AtomicStringHashENS_18HashMapValueTraitsINS_10HashTraitsIS1_EENS8_IS3_EEEES9_NS_18PartitionAllocatorEE6insertINS_17HashMapTranslatorISB_S6_SC_EERA18_KcRA61_SH_EENS_18HashTableAddResultISD_S4_EEOT0_OT1_(%"class.WTF::HashTable.5"* bitcast (%"class.WTF::StaticSingleton.472"* @_ZZN5blink12_GLOBAL__N_122GetUACounterStyleRulesEvE10s_ua_rules to %"class.WTF::HashTable.5"*), [18 x i8]* nonnull dereferenceable(18) @.str.82, [61 x i8]* nonnull dereferenceable(61) @.str.83) #9
  %336 = extractvalue { %"struct.WTF::KeyValuePair.7"*, i8 } %335, 1
  %337 = and i8 %336, 1
  %338 = icmp eq i8 %337, 0
  br i1 %338, label %339, label %342

339:                                              ; preds = %334
  %340 = extractvalue { %"struct.WTF::KeyValuePair.7"*, i8 } %335, 0
  %341 = getelementptr inbounds %"struct.WTF::KeyValuePair.7", %"struct.WTF::KeyValuePair.7"* %340, i64 0, i32 1
  tail call void @_ZN3WTF17GenericHashTraitsINS_6StringEE5StoreIRA61_KcEEvOT_RS1_([61 x i8]* nonnull dereferenceable(61) @.str.83, %"class.WTF::String"* dereferenceable(8) %341) #9
  br label %342

342:                                              ; preds = %339, %334
  %343 = tail call { %"struct.WTF::KeyValuePair.7"*, i8 } @_ZN3WTF9HashTableINS_12AtomicStringENS_12KeyValuePairIS1_NS_6StringEEENS_24KeyValuePairKeyExtractorENS_16AtomicStringHashENS_18HashMapValueTraitsINS_10HashTraitsIS1_EENS8_IS3_EEEES9_NS_18PartitionAllocatorEE6insertINS_17HashMapTranslatorISB_S6_SC_EERA19_KcRA159_SH_EENS_18HashTableAddResultISD_S4_EEOT0_OT1_(%"class.WTF::HashTable.5"* bitcast (%"class.WTF::StaticSingleton.472"* @_ZZN5blink12_GLOBAL__N_122GetUACounterStyleRulesEvE10s_ua_rules to %"class.WTF::HashTable.5"*), [19 x i8]* nonnull dereferenceable(19) @.str.84, [159 x i8]* nonnull dereferenceable(159) @.str.85) #9
  %344 = extractvalue { %"struct.WTF::KeyValuePair.7"*, i8 } %343, 1
  %345 = and i8 %344, 1
  %346 = icmp eq i8 %345, 0
  br i1 %346, label %347, label %350

347:                                              ; preds = %342
  %348 = extractvalue { %"struct.WTF::KeyValuePair.7"*, i8 } %343, 0
  %349 = getelementptr inbounds %"struct.WTF::KeyValuePair.7", %"struct.WTF::KeyValuePair.7"* %348, i64 0, i32 1
  tail call void @_ZN3WTF17GenericHashTraitsINS_6StringEE5StoreIRA159_KcEEvOT_RS1_([159 x i8]* nonnull dereferenceable(159) @.str.85, %"class.WTF::String"* dereferenceable(8) %349) #9
  br label %350

350:                                              ; preds = %347, %342
  %351 = tail call { %"struct.WTF::KeyValuePair.7"*, i8 } @_ZN3WTF9HashTableINS_12AtomicStringENS_12KeyValuePairIS1_NS_6StringEEENS_24KeyValuePairKeyExtractorENS_16AtomicStringHashENS_18HashMapValueTraitsINS_10HashTraitsIS1_EENS8_IS3_EEEES9_NS_18PartitionAllocatorEE6insertINS_17HashMapTranslatorISB_S6_SC_EERA18_KcRA143_SH_EENS_18HashTableAddResultISD_S4_EEOT0_OT1_(%"class.WTF::HashTable.5"* bitcast (%"class.WTF::StaticSingleton.472"* @_ZZN5blink12_GLOBAL__N_122GetUACounterStyleRulesEvE10s_ua_rules to %"class.WTF::HashTable.5"*), [18 x i8]* nonnull dereferenceable(18) @.str.86, [143 x i8]* nonnull dereferenceable(143) @.str.87) #9
  %352 = extractvalue { %"struct.WTF::KeyValuePair.7"*, i8 } %351, 1
  %353 = and i8 %352, 1
  %354 = icmp eq i8 %353, 0
  br i1 %354, label %355, label %358

355:                                              ; preds = %350
  %356 = extractvalue { %"struct.WTF::KeyValuePair.7"*, i8 } %351, 0
  %357 = getelementptr inbounds %"struct.WTF::KeyValuePair.7", %"struct.WTF::KeyValuePair.7"* %356, i64 0, i32 1
  tail call void @_ZN3WTF17GenericHashTraitsINS_6StringEE5StoreIRA143_KcEEvOT_RS1_([143 x i8]* nonnull dereferenceable(143) @.str.87, %"class.WTF::String"* dereferenceable(8) %357) #9
  br label %358

358:                                              ; preds = %355, %350
  %359 = tail call { %"struct.WTF::KeyValuePair.7"*, i8 } @_ZN3WTF9HashTableINS_12AtomicStringENS_12KeyValuePairIS1_NS_6StringEEENS_24KeyValuePairKeyExtractorENS_16AtomicStringHashENS_18HashMapValueTraitsINS_10HashTraitsIS1_EENS8_IS3_EEEES9_NS_18PartitionAllocatorEE6insertINS_17HashMapTranslatorISB_S6_SC_EERA18_KcRA664_SH_EENS_18HashTableAddResultISD_S4_EEOT0_OT1_(%"class.WTF::HashTable.5"* bitcast (%"class.WTF::StaticSingleton.472"* @_ZZN5blink12_GLOBAL__N_122GetUACounterStyleRulesEvE10s_ua_rules to %"class.WTF::HashTable.5"*), [18 x i8]* nonnull dereferenceable(18) @.str.88, [664 x i8]* nonnull dereferenceable(664) @.str.89) #9
  %360 = extractvalue { %"struct.WTF::KeyValuePair.7"*, i8 } %359, 1
  %361 = and i8 %360, 1
  %362 = icmp eq i8 %361, 0
  br i1 %362, label %363, label %366

363:                                              ; preds = %358
  %364 = extractvalue { %"struct.WTF::KeyValuePair.7"*, i8 } %359, 0
  %365 = getelementptr inbounds %"struct.WTF::KeyValuePair.7", %"struct.WTF::KeyValuePair.7"* %364, i64 0, i32 1
  tail call void @_ZN3WTF17GenericHashTraitsINS_6StringEE5StoreIRA664_KcEEvOT_RS1_([664 x i8]* nonnull dereferenceable(664) @.str.89, %"class.WTF::String"* dereferenceable(8) %365) #9
  br label %366

366:                                              ; preds = %363, %358
  %367 = tail call { %"struct.WTF::KeyValuePair.7"*, i8 } @_ZN3WTF9HashTableINS_12AtomicStringENS_12KeyValuePairIS1_NS_6StringEEENS_24KeyValuePairKeyExtractorENS_16AtomicStringHashENS_18HashMapValueTraitsINS_10HashTraitsIS1_EENS8_IS3_EEEES9_NS_18PartitionAllocatorEE6insertINS_17HashMapTranslatorISB_S6_SC_EERA16_KcRA679_SH_EENS_18HashTableAddResultISD_S4_EEOT0_OT1_(%"class.WTF::HashTable.5"* bitcast (%"class.WTF::StaticSingleton.472"* @_ZZN5blink12_GLOBAL__N_122GetUACounterStyleRulesEvE10s_ua_rules to %"class.WTF::HashTable.5"*), [16 x i8]* nonnull dereferenceable(16) @.str.90, [679 x i8]* nonnull dereferenceable(679) @.str.91) #9
  %368 = extractvalue { %"struct.WTF::KeyValuePair.7"*, i8 } %367, 1
  %369 = and i8 %368, 1
  %370 = icmp eq i8 %369, 0
  br i1 %370, label %371, label %374

371:                                              ; preds = %366
  %372 = extractvalue { %"struct.WTF::KeyValuePair.7"*, i8 } %367, 0
  %373 = getelementptr inbounds %"struct.WTF::KeyValuePair.7", %"struct.WTF::KeyValuePair.7"* %372, i64 0, i32 1
  tail call void @_ZN3WTF17GenericHashTraitsINS_6StringEE5StoreIRA679_KcEEvOT_RS1_([679 x i8]* nonnull dereferenceable(679) @.str.91, %"class.WTF::String"* dereferenceable(8) %373) #9
  br label %374

374:                                              ; preds = %371, %366
  %375 = tail call { %"struct.WTF::KeyValuePair.7"*, i8 } @_ZN3WTF9HashTableINS_12AtomicStringENS_12KeyValuePairIS1_NS_6StringEEENS_24KeyValuePairKeyExtractorENS_16AtomicStringHashENS_18HashMapValueTraitsINS_10HashTraitsIS1_EENS8_IS3_EEEES9_NS_18PartitionAllocatorEE6insertINS_17HashMapTranslatorISB_S6_SC_EERA21_KcRA133_SH_EENS_18HashTableAddResultISD_S4_EEOT0_OT1_(%"class.WTF::HashTable.5"* bitcast (%"class.WTF::StaticSingleton.472"* @_ZZN5blink12_GLOBAL__N_122GetUACounterStyleRulesEvE10s_ua_rules to %"class.WTF::HashTable.5"*), [21 x i8]* nonnull dereferenceable(21) @.str.92, [133 x i8]* nonnull dereferenceable(133) @.str.93) #9
  %376 = extractvalue { %"struct.WTF::KeyValuePair.7"*, i8 } %375, 1
  %377 = and i8 %376, 1
  %378 = icmp eq i8 %377, 0
  br i1 %378, label %379, label %382

379:                                              ; preds = %374
  %380 = extractvalue { %"struct.WTF::KeyValuePair.7"*, i8 } %375, 0
  %381 = getelementptr inbounds %"struct.WTF::KeyValuePair.7", %"struct.WTF::KeyValuePair.7"* %380, i64 0, i32 1
  tail call void @_ZN3WTF17GenericHashTraitsINS_6StringEE5StoreIRA133_KcEEvOT_RS1_([133 x i8]* nonnull dereferenceable(133) @.str.93, %"class.WTF::String"* dereferenceable(8) %381) #9
  br label %382

382:                                              ; preds = %379, %374
  %383 = tail call { %"struct.WTF::KeyValuePair.7"*, i8 } @_ZN3WTF9HashTableINS_12AtomicStringENS_12KeyValuePairIS1_NS_6StringEEENS_24KeyValuePairKeyExtractorENS_16AtomicStringHashENS_18HashMapValueTraitsINS_10HashTraitsIS1_EENS8_IS3_EEEES9_NS_18PartitionAllocatorEE6insertINS_17HashMapTranslatorISB_S6_SC_EERA22_KcRA134_SH_EENS_18HashTableAddResultISD_S4_EEOT0_OT1_(%"class.WTF::HashTable.5"* bitcast (%"class.WTF::StaticSingleton.472"* @_ZZN5blink12_GLOBAL__N_122GetUACounterStyleRulesEvE10s_ua_rules to %"class.WTF::HashTable.5"*), [22 x i8]* nonnull dereferenceable(22) @.str.94, [134 x i8]* nonnull dereferenceable(134) @.str.95) #9
  %384 = extractvalue { %"struct.WTF::KeyValuePair.7"*, i8 } %383, 1
  %385 = and i8 %384, 1
  %386 = icmp eq i8 %385, 0
  br i1 %386, label %387, label %390

387:                                              ; preds = %382
  %388 = extractvalue { %"struct.WTF::KeyValuePair.7"*, i8 } %383, 0
  %389 = getelementptr inbounds %"struct.WTF::KeyValuePair.7", %"struct.WTF::KeyValuePair.7"* %388, i64 0, i32 1
  tail call void @_ZN3WTF17GenericHashTraitsINS_6StringEE5StoreIRA134_KcEEvOT_RS1_([134 x i8]* nonnull dereferenceable(134) @.str.95, %"class.WTF::String"* dereferenceable(8) %389) #9
  br label %390

390:                                              ; preds = %387, %382
  %391 = tail call { %"struct.WTF::KeyValuePair.7"*, i8 } @_ZN3WTF9HashTableINS_12AtomicStringENS_12KeyValuePairIS1_NS_6StringEEENS_24KeyValuePairKeyExtractorENS_16AtomicStringHashENS_18HashMapValueTraitsINS_10HashTraitsIS1_EENS8_IS3_EEEES9_NS_18PartitionAllocatorEE6insertINS_17HashMapTranslatorISB_S6_SC_EERA20_KcRA132_SH_EENS_18HashTableAddResultISD_S4_EEOT0_OT1_(%"class.WTF::HashTable.5"* bitcast (%"class.WTF::StaticSingleton.472"* @_ZZN5blink12_GLOBAL__N_122GetUACounterStyleRulesEvE10s_ua_rules to %"class.WTF::HashTable.5"*), [20 x i8]* nonnull dereferenceable(20) @.str.96, [132 x i8]* nonnull dereferenceable(132) @.str.97) #9
  %392 = extractvalue { %"struct.WTF::KeyValuePair.7"*, i8 } %391, 1
  %393 = and i8 %392, 1
  %394 = icmp eq i8 %393, 0
  br i1 %394, label %395, label %398

395:                                              ; preds = %390
  %396 = extractvalue { %"struct.WTF::KeyValuePair.7"*, i8 } %391, 0
  %397 = getelementptr inbounds %"struct.WTF::KeyValuePair.7", %"struct.WTF::KeyValuePair.7"* %396, i64 0, i32 1
  tail call void @_ZN3WTF17GenericHashTraitsINS_6StringEE5StoreIRA132_KcEEvOT_RS1_([132 x i8]* nonnull dereferenceable(132) @.str.97, %"class.WTF::String"* dereferenceable(8) %397) #9
  br label %398

398:                                              ; preds = %395, %390
  %399 = tail call { %"struct.WTF::KeyValuePair.7"*, i8 } @_ZN3WTF9HashTableINS_12AtomicStringENS_12KeyValuePairIS1_NS_6StringEEENS_24KeyValuePairKeyExtractorENS_16AtomicStringHashENS_18HashMapValueTraitsINS_10HashTraitsIS1_EENS8_IS3_EEEES9_NS_18PartitionAllocatorEE6insertINS_17HashMapTranslatorISB_S6_SC_EERA22_KcRA116_SH_EENS_18HashTableAddResultISD_S4_EEOT0_OT1_(%"class.WTF::HashTable.5"* bitcast (%"class.WTF::StaticSingleton.472"* @_ZZN5blink12_GLOBAL__N_122GetUACounterStyleRulesEvE10s_ua_rules to %"class.WTF::HashTable.5"*), [22 x i8]* nonnull dereferenceable(22) @.str.98, [116 x i8]* nonnull dereferenceable(116) @.str.99) #9
  %400 = extractvalue { %"struct.WTF::KeyValuePair.7"*, i8 } %399, 1
  %401 = and i8 %400, 1
  %402 = icmp eq i8 %401, 0
  br i1 %402, label %403, label %406

403:                                              ; preds = %398
  %404 = extractvalue { %"struct.WTF::KeyValuePair.7"*, i8 } %399, 0
  %405 = getelementptr inbounds %"struct.WTF::KeyValuePair.7", %"struct.WTF::KeyValuePair.7"* %404, i64 0, i32 1
  tail call void @_ZN3WTF17GenericHashTraitsINS_6StringEE5StoreIRA116_KcEEvOT_RS1_([116 x i8]* nonnull dereferenceable(116) @.str.99, %"class.WTF::String"* dereferenceable(8) %405) #9
  br label %406

406:                                              ; preds = %403, %398
  %407 = tail call { %"struct.WTF::KeyValuePair.7"*, i8 } @_ZN3WTF9HashTableINS_12AtomicStringENS_12KeyValuePairIS1_NS_6StringEEENS_24KeyValuePairKeyExtractorENS_16AtomicStringHashENS_18HashMapValueTraitsINS_10HashTraitsIS1_EENS8_IS3_EEEES9_NS_18PartitionAllocatorEE6insertINS_17HashMapTranslatorISB_S6_SC_EERA20_KcRA114_SH_EENS_18HashTableAddResultISD_S4_EEOT0_OT1_(%"class.WTF::HashTable.5"* bitcast (%"class.WTF::StaticSingleton.472"* @_ZZN5blink12_GLOBAL__N_122GetUACounterStyleRulesEvE10s_ua_rules to %"class.WTF::HashTable.5"*), [20 x i8]* nonnull dereferenceable(20) @.str.100, [114 x i8]* nonnull dereferenceable(114) @.str.101) #9
  %408 = extractvalue { %"struct.WTF::KeyValuePair.7"*, i8 } %407, 1
  %409 = and i8 %408, 1
  %410 = icmp eq i8 %409, 0
  br i1 %410, label %411, label %414

411:                                              ; preds = %406
  %412 = extractvalue { %"struct.WTF::KeyValuePair.7"*, i8 } %407, 0
  %413 = getelementptr inbounds %"struct.WTF::KeyValuePair.7", %"struct.WTF::KeyValuePair.7"* %412, i64 0, i32 1
  tail call void @_ZN3WTF17GenericHashTraitsINS_6StringEE5StoreIRA114_KcEEvOT_RS1_([114 x i8]* nonnull dereferenceable(114) @.str.101, %"class.WTF::String"* dereferenceable(8) %413) #9
  br label %414

414:                                              ; preds = %411, %406
  %415 = tail call { %"struct.WTF::KeyValuePair.7"*, i8 } @_ZN3WTF9HashTableINS_12AtomicStringENS_12KeyValuePairIS1_NS_6StringEEENS_24KeyValuePairKeyExtractorENS_16AtomicStringHashENS_18HashMapValueTraitsINS_10HashTraitsIS1_EENS8_IS3_EEEES9_NS_18PartitionAllocatorEE6insertINS_17HashMapTranslatorISB_S6_SC_EERA22_KcRA116_SH_EENS_18HashTableAddResultISD_S4_EEOT0_OT1_(%"class.WTF::HashTable.5"* bitcast (%"class.WTF::StaticSingleton.472"* @_ZZN5blink12_GLOBAL__N_122GetUACounterStyleRulesEvE10s_ua_rules to %"class.WTF::HashTable.5"*), [22 x i8]* nonnull dereferenceable(22) @.str.102, [116 x i8]* nonnull dereferenceable(116) @.str.103) #9
  %416 = extractvalue { %"struct.WTF::KeyValuePair.7"*, i8 } %415, 1
  %417 = and i8 %416, 1
  %418 = icmp eq i8 %417, 0
  br i1 %418, label %419, label %422

419:                                              ; preds = %414
  %420 = extractvalue { %"struct.WTF::KeyValuePair.7"*, i8 } %415, 0
  %421 = getelementptr inbounds %"struct.WTF::KeyValuePair.7", %"struct.WTF::KeyValuePair.7"* %420, i64 0, i32 1
  tail call void @_ZN3WTF17GenericHashTraitsINS_6StringEE5StoreIRA116_KcEEvOT_RS1_([116 x i8]* nonnull dereferenceable(116) @.str.103, %"class.WTF::String"* dereferenceable(8) %421) #9
  br label %422

422:                                              ; preds = %419, %414
  %423 = tail call { %"struct.WTF::KeyValuePair.7"*, i8 } @_ZN3WTF9HashTableINS_12AtomicStringENS_12KeyValuePairIS1_NS_6StringEEENS_24KeyValuePairKeyExtractorENS_16AtomicStringHashENS_18HashMapValueTraitsINS_10HashTraitsIS1_EENS8_IS3_EEEES9_NS_18PartitionAllocatorEE6insertINS_17HashMapTranslatorISB_S6_SC_EERA20_KcRA114_SH_EENS_18HashTableAddResultISD_S4_EEOT0_OT1_(%"class.WTF::HashTable.5"* bitcast (%"class.WTF::StaticSingleton.472"* @_ZZN5blink12_GLOBAL__N_122GetUACounterStyleRulesEvE10s_ua_rules to %"class.WTF::HashTable.5"*), [20 x i8]* nonnull dereferenceable(20) @.str.104, [114 x i8]* nonnull dereferenceable(114) @.str.105) #9
  %424 = extractvalue { %"struct.WTF::KeyValuePair.7"*, i8 } %423, 1
  %425 = and i8 %424, 1
  %426 = icmp eq i8 %425, 0
  br i1 %426, label %427, label %430

427:                                              ; preds = %422
  %428 = extractvalue { %"struct.WTF::KeyValuePair.7"*, i8 } %423, 0
  %429 = getelementptr inbounds %"struct.WTF::KeyValuePair.7", %"struct.WTF::KeyValuePair.7"* %428, i64 0, i32 1
  tail call void @_ZN3WTF17GenericHashTraitsINS_6StringEE5StoreIRA114_KcEEvOT_RS1_([114 x i8]* nonnull dereferenceable(114) @.str.105, %"class.WTF::String"* dereferenceable(8) %429) #9
  br label %430

430:                                              ; preds = %427, %422
  %431 = tail call { %"struct.WTF::KeyValuePair.7"*, i8 } @_ZN3WTF9HashTableINS_12AtomicStringENS_12KeyValuePairIS1_NS_6StringEEENS_24KeyValuePairKeyExtractorENS_16AtomicStringHashENS_18HashMapValueTraitsINS_10HashTraitsIS1_EENS8_IS3_EEEES9_NS_18PartitionAllocatorEE6insertINS_17HashMapTranslatorISB_S6_SC_EERA16_KcRA47_SH_EENS_18HashTableAddResultISD_S4_EEOT0_OT1_(%"class.WTF::HashTable.5"* bitcast (%"class.WTF::StaticSingleton.472"* @_ZZN5blink12_GLOBAL__N_122GetUACounterStyleRulesEvE10s_ua_rules to %"class.WTF::HashTable.5"*), [16 x i8]* nonnull dereferenceable(16) @.str.106, [47 x i8]* nonnull dereferenceable(47) @.str.107) #9
  %432 = extractvalue { %"struct.WTF::KeyValuePair.7"*, i8 } %431, 1
  %433 = and i8 %432, 1
  %434 = icmp eq i8 %433, 0
  br i1 %434, label %435, label %438

435:                                              ; preds = %430
  %436 = extractvalue { %"struct.WTF::KeyValuePair.7"*, i8 } %431, 0
  %437 = getelementptr inbounds %"struct.WTF::KeyValuePair.7", %"struct.WTF::KeyValuePair.7"* %436, i64 0, i32 1
  tail call void @_ZN3WTF17GenericHashTraitsINS_6StringEE5StoreIRA47_KcEEvOT_RS1_([47 x i8]* nonnull dereferenceable(47) @.str.107, %"class.WTF::String"* dereferenceable(8) %437) #9
  br label %438

438:                                              ; preds = %435, %430
  %439 = tail call { %"struct.WTF::KeyValuePair.7"*, i8 } @_ZN3WTF9HashTableINS_12AtomicStringENS_12KeyValuePairIS1_NS_6StringEEENS_24KeyValuePairKeyExtractorENS_16AtomicStringHashENS_18HashMapValueTraitsINS_10HashTraitsIS1_EENS8_IS3_EEEES9_NS_18PartitionAllocatorEE6insertINS_17HashMapTranslatorISB_S6_SC_EERA17_KcRA85_SH_EENS_18HashTableAddResultISD_S4_EEOT0_OT1_(%"class.WTF::HashTable.5"* bitcast (%"class.WTF::StaticSingleton.472"* @_ZZN5blink12_GLOBAL__N_122GetUACounterStyleRulesEvE10s_ua_rules to %"class.WTF::HashTable.5"*), [17 x i8]* nonnull dereferenceable(17) @.str.108, [85 x i8]* nonnull dereferenceable(85) @.str.109) #9
  %440 = extractvalue { %"struct.WTF::KeyValuePair.7"*, i8 } %439, 1
  %441 = and i8 %440, 1
  %442 = icmp eq i8 %441, 0
  br i1 %442, label %443, label %446

443:                                              ; preds = %438
  %444 = extractvalue { %"struct.WTF::KeyValuePair.7"*, i8 } %439, 0
  %445 = getelementptr inbounds %"struct.WTF::KeyValuePair.7", %"struct.WTF::KeyValuePair.7"* %444, i64 0, i32 1
  tail call void @_ZN3WTF17GenericHashTraitsINS_6StringEE5StoreIRA85_KcEEvOT_RS1_([85 x i8]* nonnull dereferenceable(85) @.str.109, %"class.WTF::String"* dereferenceable(8) %445) #9
  br label %446

446:                                              ; preds = %443, %438
  %447 = tail call { %"struct.WTF::KeyValuePair.7"*, i8 } @_ZN3WTF9HashTableINS_12AtomicStringENS_12KeyValuePairIS1_NS_6StringEEENS_24KeyValuePairKeyExtractorENS_16AtomicStringHashENS_18HashMapValueTraitsINS_10HashTraitsIS1_EENS8_IS3_EEEES9_NS_18PartitionAllocatorEE6insertINS_17HashMapTranslatorISB_S6_SC_EERA18_KcRA272_SH_EENS_18HashTableAddResultISD_S4_EEOT0_OT1_(%"class.WTF::HashTable.5"* bitcast (%"class.WTF::StaticSingleton.472"* @_ZZN5blink12_GLOBAL__N_122GetUACounterStyleRulesEvE10s_ua_rules to %"class.WTF::HashTable.5"*), [18 x i8]* nonnull dereferenceable(18) @.str.110, [272 x i8]* nonnull dereferenceable(272) @.str.111) #9
  %448 = extractvalue { %"struct.WTF::KeyValuePair.7"*, i8 } %447, 1
  %449 = and i8 %448, 1
  %450 = icmp eq i8 %449, 0
  br i1 %450, label %451, label %454

451:                                              ; preds = %446
  %452 = extractvalue { %"struct.WTF::KeyValuePair.7"*, i8 } %447, 0
  %453 = getelementptr inbounds %"struct.WTF::KeyValuePair.7", %"struct.WTF::KeyValuePair.7"* %452, i64 0, i32 1
  tail call void @_ZN3WTF17GenericHashTraitsINS_6StringEE5StoreIRA272_KcEEvOT_RS1_([272 x i8]* nonnull dereferenceable(272) @.str.111, %"class.WTF::String"* dereferenceable(8) %453) #9
  br label %454

454:                                              ; preds = %451, %446
  %455 = tail call { %"struct.WTF::KeyValuePair.7"*, i8 } @_ZN3WTF9HashTableINS_12AtomicStringENS_12KeyValuePairIS1_NS_6StringEEENS_24KeyValuePairKeyExtractorENS_16AtomicStringHashENS_18HashMapValueTraitsINS_10HashTraitsIS1_EENS8_IS3_EEEES9_NS_18PartitionAllocatorEE6insertINS_17HashMapTranslatorISB_S6_SC_EERA21_KcRA328_SH_EENS_18HashTableAddResultISD_S4_EEOT0_OT1_(%"class.WTF::HashTable.5"* bitcast (%"class.WTF::StaticSingleton.472"* @_ZZN5blink12_GLOBAL__N_122GetUACounterStyleRulesEvE10s_ua_rules to %"class.WTF::HashTable.5"*), [21 x i8]* nonnull dereferenceable(21) @.str.112, [328 x i8]* nonnull dereferenceable(328) @.str.113) #9
  %456 = extractvalue { %"struct.WTF::KeyValuePair.7"*, i8 } %455, 1
  %457 = and i8 %456, 1
  %458 = icmp eq i8 %457, 0
  br i1 %458, label %459, label %462

459:                                              ; preds = %454
  %460 = extractvalue { %"struct.WTF::KeyValuePair.7"*, i8 } %455, 0
  %461 = getelementptr inbounds %"struct.WTF::KeyValuePair.7", %"struct.WTF::KeyValuePair.7"* %460, i64 0, i32 1
  tail call void @_ZN3WTF17GenericHashTraitsINS_6StringEE5StoreIRA328_KcEEvOT_RS1_([328 x i8]* nonnull dereferenceable(328) @.str.113, %"class.WTF::String"* dereferenceable(8) %461) #9
  br label %462

462:                                              ; preds = %459, %454
  %463 = tail call { %"struct.WTF::KeyValuePair.7"*, i8 } @_ZN3WTF9HashTableINS_12AtomicStringENS_12KeyValuePairIS1_NS_6StringEEENS_24KeyValuePairKeyExtractorENS_16AtomicStringHashENS_18HashMapValueTraitsINS_10HashTraitsIS1_EENS8_IS3_EEEES9_NS_18PartitionAllocatorEE6insertINS_17HashMapTranslatorISB_S6_SC_EERA24_KcRA312_SH_EENS_18HashTableAddResultISD_S4_EEOT0_OT1_(%"class.WTF::HashTable.5"* bitcast (%"class.WTF::StaticSingleton.472"* @_ZZN5blink12_GLOBAL__N_122GetUACounterStyleRulesEvE10s_ua_rules to %"class.WTF::HashTable.5"*), [24 x i8]* nonnull dereferenceable(24) @.str.114, [312 x i8]* nonnull dereferenceable(312) @.str.115) #9
  %464 = extractvalue { %"struct.WTF::KeyValuePair.7"*, i8 } %463, 1
  %465 = and i8 %464, 1
  %466 = icmp eq i8 %465, 0
  br i1 %466, label %467, label %470

467:                                              ; preds = %462
  %468 = extractvalue { %"struct.WTF::KeyValuePair.7"*, i8 } %463, 0
  %469 = getelementptr inbounds %"struct.WTF::KeyValuePair.7", %"struct.WTF::KeyValuePair.7"* %468, i64 0, i32 1
  tail call void @_ZN3WTF17GenericHashTraitsINS_6StringEE5StoreIRA312_KcEEvOT_RS1_([312 x i8]* nonnull dereferenceable(312) @.str.115, %"class.WTF::String"* dereferenceable(8) %469) #9
  br label %470

470:                                              ; preds = %467, %462
  %471 = tail call { %"struct.WTF::KeyValuePair.7"*, i8 } @_ZN3WTF9HashTableINS_12AtomicStringENS_12KeyValuePairIS1_NS_6StringEEENS_24KeyValuePairKeyExtractorENS_16AtomicStringHashENS_18HashMapValueTraitsINS_10HashTraitsIS1_EENS8_IS3_EEEES9_NS_18PartitionAllocatorEE6insertINS_17HashMapTranslatorISB_S6_SC_EERA24_KcRA336_SH_EENS_18HashTableAddResultISD_S4_EEOT0_OT1_(%"class.WTF::HashTable.5"* bitcast (%"class.WTF::StaticSingleton.472"* @_ZZN5blink12_GLOBAL__N_122GetUACounterStyleRulesEvE10s_ua_rules to %"class.WTF::HashTable.5"*), [24 x i8]* nonnull dereferenceable(24) @.str.116, [336 x i8]* nonnull dereferenceable(336) @.str.117) #9
  %472 = extractvalue { %"struct.WTF::KeyValuePair.7"*, i8 } %471, 1
  %473 = and i8 %472, 1
  %474 = icmp eq i8 %473, 0
  br i1 %474, label %475, label %478

475:                                              ; preds = %470
  %476 = extractvalue { %"struct.WTF::KeyValuePair.7"*, i8 } %471, 0
  %477 = getelementptr inbounds %"struct.WTF::KeyValuePair.7", %"struct.WTF::KeyValuePair.7"* %476, i64 0, i32 1
  tail call void @_ZN3WTF17GenericHashTraitsINS_6StringEE5StoreIRA336_KcEEvOT_RS1_([336 x i8]* nonnull dereferenceable(336) @.str.117, %"class.WTF::String"* dereferenceable(8) %477) #9
  br label %478

478:                                              ; preds = %475, %470
  %479 = tail call { %"struct.WTF::KeyValuePair.7"*, i8 } @_ZN3WTF9HashTableINS_12AtomicStringENS_12KeyValuePairIS1_NS_6StringEEENS_24KeyValuePairKeyExtractorENS_16AtomicStringHashENS_18HashMapValueTraitsINS_10HashTraitsIS1_EENS8_IS3_EEEES9_NS_18PartitionAllocatorEE6insertINS_17HashMapTranslatorISB_S6_SC_EERA7_KcRA154_SH_EENS_18HashTableAddResultISD_S4_EEOT0_OT1_(%"class.WTF::HashTable.5"* bitcast (%"class.WTF::StaticSingleton.472"* @_ZZN5blink12_GLOBAL__N_122GetUACounterStyleRulesEvE10s_ua_rules to %"class.WTF::HashTable.5"*), [7 x i8]* nonnull dereferenceable(7) @.str.118, [154 x i8]* nonnull dereferenceable(154) @.str.119) #9
  %480 = extractvalue { %"struct.WTF::KeyValuePair.7"*, i8 } %479, 1
  %481 = and i8 %480, 1
  %482 = icmp eq i8 %481, 0
  br i1 %482, label %483, label %486

483:                                              ; preds = %478
  %484 = extractvalue { %"struct.WTF::KeyValuePair.7"*, i8 } %479, 0
  %485 = getelementptr inbounds %"struct.WTF::KeyValuePair.7", %"struct.WTF::KeyValuePair.7"* %484, i64 0, i32 1
  tail call void @_ZN3WTF17GenericHashTraitsINS_6StringEE5StoreIRA154_KcEEvOT_RS1_([154 x i8]* nonnull dereferenceable(154) @.str.119, %"class.WTF::String"* dereferenceable(8) %485) #9
  br label %486

486:                                              ; preds = %483, %478
  %487 = tail call { %"struct.WTF::KeyValuePair.7"*, i8 } @_ZN3WTF9HashTableINS_12AtomicStringENS_12KeyValuePairIS1_NS_6StringEEENS_24KeyValuePairKeyExtractorENS_16AtomicStringHashENS_18HashMapValueTraitsINS_10HashTraitsIS1_EENS8_IS3_EEEES9_NS_18PartitionAllocatorEE6insertINS_17HashMapTranslatorISB_S6_SC_EERA17_KcRA154_SH_EENS_18HashTableAddResultISD_S4_EEOT0_OT1_(%"class.WTF::HashTable.5"* bitcast (%"class.WTF::StaticSingleton.472"* @_ZZN5blink12_GLOBAL__N_122GetUACounterStyleRulesEvE10s_ua_rules to %"class.WTF::HashTable.5"*), [17 x i8]* nonnull dereferenceable(17) @.str.120, [154 x i8]* nonnull dereferenceable(154) @.str.121) #9
  %488 = extractvalue { %"struct.WTF::KeyValuePair.7"*, i8 } %487, 1
  %489 = and i8 %488, 1
  %490 = icmp eq i8 %489, 0
  br i1 %490, label %491, label %494

491:                                              ; preds = %486
  %492 = extractvalue { %"struct.WTF::KeyValuePair.7"*, i8 } %487, 0
  %493 = getelementptr inbounds %"struct.WTF::KeyValuePair.7", %"struct.WTF::KeyValuePair.7"* %492, i64 0, i32 1
  tail call void @_ZN3WTF17GenericHashTraitsINS_6StringEE5StoreIRA154_KcEEvOT_RS1_([154 x i8]* nonnull dereferenceable(154) @.str.121, %"class.WTF::String"* dereferenceable(8) %493) #9
  br label %494

494:                                              ; preds = %491, %486
  %495 = tail call { %"struct.WTF::KeyValuePair.7"*, i8 } @_ZN3WTF9HashTableINS_12AtomicStringENS_12KeyValuePairIS1_NS_6StringEEENS_24KeyValuePairKeyExtractorENS_16AtomicStringHashENS_18HashMapValueTraitsINS_10HashTraitsIS1_EENS8_IS3_EEEES9_NS_18PartitionAllocatorEE6insertINS_17HashMapTranslatorISB_S6_SC_EERA5_KcRA33_SH_EENS_18HashTableAddResultISD_S4_EEOT0_OT1_(%"class.WTF::HashTable.5"* bitcast (%"class.WTF::StaticSingleton.472"* @_ZZN5blink12_GLOBAL__N_122GetUACounterStyleRulesEvE10s_ua_rules to %"class.WTF::HashTable.5"*), [5 x i8]* nonnull dereferenceable(5) @.str.122, [33 x i8]* nonnull dereferenceable(33) @.str.123) #9
  %496 = extractvalue { %"struct.WTF::KeyValuePair.7"*, i8 } %495, 1
  %497 = and i8 %496, 1
  %498 = icmp eq i8 %497, 0
  br i1 %498, label %499, label %502

499:                                              ; preds = %494
  %500 = extractvalue { %"struct.WTF::KeyValuePair.7"*, i8 } %495, 0
  %501 = getelementptr inbounds %"struct.WTF::KeyValuePair.7", %"struct.WTF::KeyValuePair.7"* %500, i64 0, i32 1
  tail call void @_ZN3WTF17GenericHashTraitsINS_6StringEE5StoreIRA33_KcEEvOT_RS1_([33 x i8]* nonnull dereferenceable(33) @.str.123, %"class.WTF::String"* dereferenceable(8) %501) #9
  br label %502

502:                                              ; preds = %494, %499
  tail call void @__cxa_guard_release(i64* nonnull @_ZGVZN5blink12_GLOBAL__N_122GetUACounterStyleRulesEvE10s_ua_rules) #9
  br label %503

503:                                              ; preds = %3, %502, %0
  ret %"class.WTF::HashMap.4"* bitcast (%"class.WTF::StaticSingleton.472"* @_ZZN5blink12_GLOBAL__N_122GetUACounterStyleRulesEvE10s_ua_rules to %"class.WTF::HashMap.4"*)
}

; Function Attrs: nounwind ssp uwtable
define hidden %"class.blink::CounterStyleMap"* @_ZN5blink15CounterStyleMap20GetUACounterStyleMapEv() local_unnamed_addr #0 align 2 {
  %1 = load atomic i8, i8* bitcast (i64* @_ZGVZN5blink15CounterStyleMap20GetUACounterStyleMapEvE22s_ua_counter_style_map to i8*) acquire, align 8
  %2 = icmp eq i8 %1, 0
  br i1 %2, label %3, label %36, !prof !2

3:                                                ; preds = %0
  %4 = tail call i32 @__cxa_guard_acquire(i64* nonnull @_ZGVZN5blink15CounterStyleMap20GetUACounterStyleMapEvE22s_ua_counter_style_map) #9
  %5 = icmp eq i32 %4, 0
  br i1 %5, label %36, label %6

6:                                                ; preds = %3
  %7 = tail call %"class.blink::CounterStyleMap"* @_ZN5blink15CounterStyleMap23CreateUACounterStyleMapEv() #9
  store %"class.blink::CounterStyleMap"* %7, %"class.blink::CounterStyleMap"** bitcast (%"class.WTF::StaticSingleton"* @_ZZN5blink15CounterStyleMap20GetUACounterStyleMapEvE22s_ua_counter_style_map to %"class.blink::CounterStyleMap"**), align 8
  store %"class.blink::PersistentNode"* null, %"class.blink::PersistentNode"** bitcast (i8* getelementptr inbounds (%"class.WTF::StaticSingleton", %"class.WTF::StaticSingleton"* @_ZZN5blink15CounterStyleMap20GetUACounterStyleMapEvE22s_ua_counter_style_map, i64 0, i32 0, i32 0, i64 8) to %"class.blink::PersistentNode"**), align 8
  %8 = ptrtoint %"class.blink::CounterStyleMap"* %7 to i64
  switch i64 %8, label %9 [
    i64 0, label %35
    i64 -1, label %35
  ]

9:                                                ; preds = %6
  %10 = load %"class.WTF::ThreadSpecific"*, %"class.WTF::ThreadSpecific"** @_ZN5blink11ThreadState16thread_specific_E, align 8
  %11 = getelementptr inbounds %"class.WTF::ThreadSpecific", %"class.WTF::ThreadSpecific"* %10, i64 0, i32 1
  %12 = tail call i8* @_ZNK4base18ThreadLocalStorage4Slot3GetEv(%"class.base::ThreadLocalStorage::Slot"* %11) #9
  %13 = icmp eq i8* %12, null
  br i1 %13, label %14, label %16, !prof !6

14:                                               ; preds = %9
  %15 = tail call i8* @_ZN3WTF10Partitions16FastZeroedMallocEmPKc(i64 8, i8* getelementptr inbounds ([68 x i8], [68 x i8]* @__PRETTY_FUNCTION__._ZN3WTF21GetStringWithTypeNameIPN5blink11ThreadStateEEEPKcv, i64 0, i64 0)) #9
  tail call void @_ZN4base18ThreadLocalStorage4Slot3SetEPv(%"class.base::ThreadLocalStorage::Slot"* %11, i8* %15) #9
  br label %16

16:                                               ; preds = %14, %9
  %17 = phi i8* [ %15, %14 ], [ %12, %9 ]
  %18 = bitcast i8* %17 to %"class.blink::ThreadState"**
  %19 = load %"class.blink::ThreadState"*, %"class.blink::ThreadState"** %18, align 8
  %20 = getelementptr inbounds %"class.blink::ThreadState", %"class.blink::ThreadState"* %19, i64 0, i32 3, i32 0, i32 0, i32 0
  %21 = load %"class.blink::PersistentRegion"*, %"class.blink::PersistentRegion"** %20, align 8
  %22 = getelementptr inbounds %"class.blink::PersistentRegion", %"class.blink::PersistentRegion"* %21, i64 0, i32 0, i32 0
  %23 = load %"class.blink::PersistentNode"*, %"class.blink::PersistentNode"** %22, align 8
  %24 = icmp eq %"class.blink::PersistentNode"* %23, null
  br i1 %24, label %25, label %28, !prof !6

25:                                               ; preds = %16
  %26 = getelementptr inbounds %"class.blink::PersistentRegion", %"class.blink::PersistentRegion"* %21, i64 0, i32 0
  tail call void @_ZN5blink20PersistentRegionBase15EnsureNodeSlotsEv(%"class.blink::PersistentRegionBase"* %26) #9
  %27 = load %"class.blink::PersistentNode"*, %"class.blink::PersistentNode"** %22, align 8
  br label %28

28:                                               ; preds = %25, %16
  %29 = phi %"class.blink::PersistentNode"* [ %27, %25 ], [ %23, %16 ]
  %30 = bitcast %"class.blink::PersistentNode"* %29 to i64*
  %31 = load i64, i64* %30, align 8
  %32 = bitcast %"class.blink::PersistentRegion"* %21 to i64*
  store i64 %31, i64* %32, align 8
  %33 = bitcast %"class.blink::PersistentNode"* %29 to %"class.blink::PersistentBase"**
  store %"class.blink::PersistentBase"* bitcast (%"class.WTF::StaticSingleton"* @_ZZN5blink15CounterStyleMap20GetUACounterStyleMapEvE22s_ua_counter_style_map to %"class.blink::PersistentBase"*), %"class.blink::PersistentBase"** %33, align 8
  %34 = getelementptr inbounds %"class.blink::PersistentNode", %"class.blink::PersistentNode"* %29, i64 0, i32 1
  store void (%"class.blink::Visitor"*, i8*)* @_ZN5blink19TraceMethodDelegateINS_14PersistentBaseINS_15CounterStyleMapELNS_31WeaknessPersistentConfigurationE0ELNS_38CrossThreadnessPersistentConfigurationE0EEEXadL_ZNKS5_15TracePersistentEPNS_7VisitorEEEE10TrampolineES7_PKv, void (%"class.blink::Visitor"*, i8*)** %34, align 8
  store %"class.blink::PersistentNode"* %29, %"class.blink::PersistentNode"** bitcast (i8* getelementptr inbounds (%"class.WTF::StaticSingleton", %"class.WTF::StaticSingleton"* @_ZZN5blink15CounterStyleMap20GetUACounterStyleMapEvE22s_ua_counter_style_map, i64 0, i32 0, i32 0, i64 8) to %"class.blink::PersistentNode"**), align 8
  br label %35

35:                                               ; preds = %6, %6, %28
  tail call void @__cxa_guard_release(i64* nonnull @_ZGVZN5blink15CounterStyleMap20GetUACounterStyleMapEvE22s_ua_counter_style_map) #9
  br label %36

36:                                               ; preds = %3, %35, %0
  %37 = load %"class.blink::CounterStyleMap"*, %"class.blink::CounterStyleMap"** bitcast (%"class.WTF::StaticSingleton"* @_ZZN5blink15CounterStyleMap20GetUACounterStyleMapEvE22s_ua_counter_style_map to %"class.blink::CounterStyleMap"**), align 8
  ret %"class.blink::CounterStyleMap"* %37
}

; Function Attrs: nofree nounwind
declare i32 @__cxa_guard_acquire(i64*) local_unnamed_addr #2

; Function Attrs: nofree nounwind
declare void @__cxa_guard_release(i64*) local_unnamed_addr #2

; Function Attrs: nounwind ssp uwtable
define hidden dereferenceable(160) %"class.blink::CounterStyle"* @_ZN5blink15CounterStyleMap20CreateUACounterStyleERKN3WTF12AtomicStringE(%"class.blink::CounterStyleMap"*, %"class.WTF::AtomicString"* dereferenceable(8)) local_unnamed_addr #0 align 2 {
  %3 = alloca %"class.WTF::StringView", align 8
  %4 = alloca %"class.WTF::StringView", align 8
  %5 = alloca %"class.WTF::StringBuilder", align 8
  %6 = alloca %"class.WTF::StringView", align 8
  %7 = alloca %"class.WTF::StringView", align 8
  %8 = alloca %"class.WTF::StringView", align 8
  %9 = alloca %"class.WTF::StringView", align 8
  %10 = alloca %"class.WTF::StringView", align 8
  %11 = alloca %"class.WTF::String", align 8
  %12 = alloca %"class.blink::CounterStyle"*, align 8
  %13 = bitcast %"class.WTF::String"* %11 to i8*
  call void @llvm.lifetime.start.p0i8(i64 8, i8* nonnull %13) #9
  %14 = bitcast %"class.WTF::StringBuilder"* %5 to i8*
  call void @llvm.lifetime.start.p0i8(i64 48, i8* nonnull %14) #9
  call void @llvm.memset.p0i8.i64(i8* nonnull align 8 %14, i8 -86, i64 48, i1 false) #9
  %15 = getelementptr inbounds %"class.WTF::StringBuilder", %"class.WTF::StringBuilder"* %5, i64 0, i32 0, i32 0, i32 0
  store %"class.WTF::StringImpl"* null, %"class.WTF::StringImpl"** %15, align 8
  %16 = getelementptr inbounds %"class.WTF::StringBuilder", %"class.WTF::StringBuilder"* %5, i64 0, i32 1
  %17 = bitcast %union.anon.490* %16 to i8*
  store i8 0, i8* %17, align 8
  %18 = getelementptr inbounds %"class.WTF::StringBuilder", %"class.WTF::StringBuilder"* %5, i64 0, i32 2
  store i32 0, i32* %18, align 8
  %19 = getelementptr inbounds %"class.WTF::StringBuilder", %"class.WTF::StringBuilder"* %5, i64 0, i32 3
  store i8 1, i8* %19, align 4
  %20 = getelementptr inbounds %"class.WTF::StringBuilder", %"class.WTF::StringBuilder"* %5, i64 0, i32 4
  store i8 0, i8* %20, align 1
  %21 = bitcast %"class.WTF::StringView"* %6 to i8*
  call void @llvm.lifetime.start.p0i8(i64 24, i8* nonnull %21) #9
  %22 = load i64, i64* bitcast (%"class.WTF::StringImpl"** @_ZN3WTF10StringImpl6empty_E to i64*), align 8
  %23 = bitcast %"class.WTF::StringView"* %6 to i64*
  store i64 %22, i64* %23, align 8
  %24 = getelementptr inbounds %"class.WTF::StringView", %"class.WTF::StringView"* %6, i64 0, i32 1
  store i8* getelementptr inbounds ([16 x i8], [16 x i8]* @.str.126, i64 0, i64 0), i8** %24, align 8
  %25 = getelementptr inbounds %"class.WTF::StringView", %"class.WTF::StringView"* %6, i64 0, i32 2
  store i32 15, i32* %25, align 8
  call void @_ZN3WTF13StringBuilder6AppendERKNS_10StringViewE(%"class.WTF::StringBuilder"* nonnull %5, %"class.WTF::StringView"* nonnull dereferenceable(24) %6) #9
  call void @llvm.lifetime.end.p0i8(i64 24, i8* nonnull %21) #9
  %26 = bitcast %"class.WTF::StringView"* %7 to i8*
  call void @llvm.lifetime.start.p0i8(i64 24, i8* nonnull %26) #9
  %27 = getelementptr inbounds %"class.WTF::AtomicString", %"class.WTF::AtomicString"* %1, i64 0, i32 0, i32 0, i32 0
  %28 = load %"class.WTF::StringImpl"*, %"class.WTF::StringImpl"** %27, align 8
  %29 = icmp eq %"class.WTF::StringImpl"* %28, null
  br i1 %29, label %30, label %34

30:                                               ; preds = %2
  %31 = getelementptr inbounds %"class.WTF::StringView", %"class.WTF::StringView"* %7, i64 0, i32 1
  store i8* null, i8** %31, align 8
  %32 = load i64, i64* bitcast (%"class.WTF::StringImpl"** @_ZN3WTF10StringImpl6empty_E to i64*), align 8
  %33 = bitcast %"class.WTF::StringView"* %7 to i64*
  store i64 %32, i64* %33, align 8
  br label %41

34:                                               ; preds = %2
  %35 = getelementptr inbounds %"class.WTF::StringView", %"class.WTF::StringView"* %7, i64 0, i32 0
  store %"class.WTF::StringImpl"* %28, %"class.WTF::StringImpl"** %35, align 8
  %36 = getelementptr inbounds %"class.WTF::StringImpl", %"class.WTF::StringImpl"* %28, i64 0, i32 1
  %37 = load i32, i32* %36, align 4
  %38 = getelementptr inbounds %"class.WTF::StringImpl", %"class.WTF::StringImpl"* %28, i64 1
  %39 = getelementptr inbounds %"class.WTF::StringView", %"class.WTF::StringView"* %7, i64 0, i32 1
  %40 = bitcast i8** %39 to %"class.WTF::StringImpl"**
  store %"class.WTF::StringImpl"* %38, %"class.WTF::StringImpl"** %40, align 8
  br label %41

41:                                               ; preds = %34, %30
  %42 = phi i32 [ %37, %34 ], [ 0, %30 ]
  %43 = getelementptr inbounds %"class.WTF::StringView", %"class.WTF::StringView"* %7, i64 0, i32 2
  store i32 %42, i32* %43, align 8
  call void @_ZN3WTF13StringBuilder6AppendERKNS_10StringViewE(%"class.WTF::StringBuilder"* nonnull %5, %"class.WTF::StringView"* nonnull dereferenceable(24) %7) #9
  call void @llvm.lifetime.end.p0i8(i64 24, i8* nonnull %26) #9
  %44 = bitcast %"class.WTF::StringView"* %8 to i8*
  call void @llvm.lifetime.start.p0i8(i64 24, i8* nonnull %44) #9
  %45 = load i64, i64* bitcast (%"class.WTF::StringImpl"** @_ZN3WTF10StringImpl6empty_E to i64*), align 8
  %46 = bitcast %"class.WTF::StringView"* %8 to i64*
  store i64 %45, i64* %46, align 8
  %47 = getelementptr inbounds %"class.WTF::StringView", %"class.WTF::StringView"* %8, i64 0, i32 1
  store i8* getelementptr inbounds ([2 x i8], [2 x i8]* @.str.127, i64 0, i64 0), i8** %47, align 8
  %48 = getelementptr inbounds %"class.WTF::StringView", %"class.WTF::StringView"* %8, i64 0, i32 2
  store i32 1, i32* %48, align 8
  call void @_ZN3WTF13StringBuilder6AppendERKNS_10StringViewE(%"class.WTF::StringBuilder"* nonnull %5, %"class.WTF::StringView"* nonnull dereferenceable(24) %8) #9
  call void @llvm.lifetime.end.p0i8(i64 24, i8* nonnull %44) #9
  %49 = bitcast %"class.WTF::StringView"* %9 to i8*
  call void @llvm.lifetime.start.p0i8(i64 24, i8* nonnull %49) #9
  %50 = call fastcc dereferenceable(24) %"class.WTF::HashMap.4"* @_ZN5blink12_GLOBAL__N_122GetUACounterStyleRulesEv() #9
  %51 = call %"class.WTF::StringImpl"* @_ZNK3WTF7HashMapINS_12AtomicStringENS_6StringENS_16AtomicStringHashENS_10HashTraitsIS1_EENS4_IS2_EENS_18PartitionAllocatorEE2atERKS1_(%"class.WTF::HashMap.4"* %50, %"class.WTF::AtomicString"* dereferenceable(8) %1) #9
  %52 = icmp eq %"class.WTF::StringImpl"* %51, null
  br i1 %52, label %53, label %58

53:                                               ; preds = %41
  %54 = getelementptr inbounds %"class.WTF::StringView", %"class.WTF::StringView"* %9, i64 0, i32 1
  store i8* null, i8** %54, align 8
  %55 = load i64, i64* bitcast (%"class.WTF::StringImpl"** @_ZN3WTF10StringImpl6empty_E to i64*), align 8
  %56 = bitcast %"class.WTF::StringView"* %9 to i64*
  store i64 %55, i64* %56, align 8
  %57 = getelementptr inbounds %"class.WTF::StringView", %"class.WTF::StringView"* %9, i64 0, i32 2
  store i32 0, i32* %57, align 8
  call void @_ZN3WTF13StringBuilder6AppendERKNS_10StringViewE(%"class.WTF::StringBuilder"* nonnull %5, %"class.WTF::StringView"* nonnull dereferenceable(24) %9) #9
  br label %78

58:                                               ; preds = %41
  %59 = getelementptr inbounds %"class.WTF::StringView", %"class.WTF::StringView"* %9, i64 0, i32 0
  store %"class.WTF::StringImpl"* %51, %"class.WTF::StringImpl"** %59, align 8
  %60 = getelementptr inbounds %"class.WTF::StringImpl", %"class.WTF::StringImpl"* %51, i64 0, i32 1
  %61 = load i32, i32* %60, align 4
  %62 = getelementptr inbounds %"class.WTF::StringImpl", %"class.WTF::StringImpl"* %51, i64 1
  %63 = getelementptr inbounds %"class.WTF::StringView", %"class.WTF::StringView"* %9, i64 0, i32 1
  %64 = bitcast i8** %63 to %"class.WTF::StringImpl"**
  store %"class.WTF::StringImpl"* %62, %"class.WTF::StringImpl"** %64, align 8
  %65 = getelementptr inbounds %"class.WTF::StringView", %"class.WTF::StringView"* %9, i64 0, i32 2
  store i32 %61, i32* %65, align 8
  call void @_ZN3WTF13StringBuilder6AppendERKNS_10StringViewE(%"class.WTF::StringBuilder"* nonnull %5, %"class.WTF::StringView"* nonnull dereferenceable(24) %9) #9
  %66 = getelementptr inbounds %"class.WTF::StringImpl", %"class.WTF::StringImpl"* %51, i64 0, i32 2, i32 0, i32 0, i32 0, i32 0, i32 0
  %67 = load atomic i32, i32* %66 monotonic, align 4
  %68 = and i32 %67, 2
  %69 = icmp eq i32 %68, 0
  %70 = getelementptr inbounds %"class.WTF::StringImpl", %"class.WTF::StringImpl"* %51, i64 0, i32 0
  %71 = load i32, i32* %70, align 4
  br i1 %69, label %72, label %74

72:                                               ; preds = %58
  %73 = add i32 %71, -1
  store i32 %73, i32* %70, align 4
  br label %74

74:                                               ; preds = %72, %58
  %75 = phi i32 [ %73, %72 ], [ %71, %58 ]
  %76 = icmp eq i32 %75, 0
  br i1 %76, label %77, label %78

77:                                               ; preds = %74
  call void @_ZNK3WTF10StringImpl18DestroyIfNotStaticEv(%"class.WTF::StringImpl"* nonnull %51) #9
  br label %78

78:                                               ; preds = %77, %74, %53
  call void @llvm.lifetime.end.p0i8(i64 24, i8* nonnull %49) #9
  %79 = bitcast %"class.WTF::StringView"* %10 to i8*
  call void @llvm.lifetime.start.p0i8(i64 24, i8* nonnull %79) #9
  %80 = load i64, i64* bitcast (%"class.WTF::StringImpl"** @_ZN3WTF10StringImpl6empty_E to i64*), align 8
  %81 = bitcast %"class.WTF::StringView"* %10 to i64*
  store i64 %80, i64* %81, align 8
  %82 = getelementptr inbounds %"class.WTF::StringView", %"class.WTF::StringView"* %10, i64 0, i32 1
  store i8* getelementptr inbounds ([2 x i8], [2 x i8]* @.str.128, i64 0, i64 0), i8** %82, align 8
  %83 = getelementptr inbounds %"class.WTF::StringView", %"class.WTF::StringView"* %10, i64 0, i32 2
  store i32 1, i32* %83, align 8
  call void @_ZN3WTF13StringBuilder6AppendERKNS_10StringViewE(%"class.WTF::StringBuilder"* nonnull %5, %"class.WTF::StringView"* nonnull dereferenceable(24) %10) #9
  call void @llvm.lifetime.end.p0i8(i64 24, i8* nonnull %79) #9
  %84 = call %"class.WTF::StringImpl"* @_ZN3WTF13StringBuilder8ToStringEv(%"class.WTF::StringBuilder"* nonnull %5) #9
  call void @_ZN3WTF13StringBuilder5ClearEv(%"class.WTF::StringBuilder"* nonnull %5) #9
  %85 = load %"class.WTF::StringImpl"*, %"class.WTF::StringImpl"** %15, align 8
  %86 = icmp eq %"class.WTF::StringImpl"* %85, null
  br i1 %86, label %100, label %87

87:                                               ; preds = %78
  %88 = getelementptr inbounds %"class.WTF::StringImpl", %"class.WTF::StringImpl"* %85, i64 0, i32 2, i32 0, i32 0, i32 0, i32 0, i32 0
  %89 = load atomic i32, i32* %88 monotonic, align 4
  %90 = and i32 %89, 2
  %91 = icmp eq i32 %90, 0
  %92 = getelementptr inbounds %"class.WTF::StringImpl", %"class.WTF::StringImpl"* %85, i64 0, i32 0
  %93 = load i32, i32* %92, align 4
  br i1 %91, label %94, label %96

94:                                               ; preds = %87
  %95 = add i32 %93, -1
  store i32 %95, i32* %92, align 4
  br label %96

96:                                               ; preds = %94, %87
  %97 = phi i32 [ %95, %94 ], [ %93, %87 ]
  %98 = icmp eq i32 %97, 0
  br i1 %98, label %99, label %100

99:                                               ; preds = %96
  call void @_ZNK3WTF10StringImpl18DestroyIfNotStaticEv(%"class.WTF::StringImpl"* nonnull %85) #9
  br label %100

100:                                              ; preds = %78, %96, %99
  call void @llvm.lifetime.end.p0i8(i64 48, i8* nonnull %14) #9
  %101 = getelementptr inbounds %"class.WTF::String", %"class.WTF::String"* %11, i64 0, i32 0, i32 0
  store %"class.WTF::StringImpl"* %84, %"class.WTF::StringImpl"** %101, align 8
  %102 = call %"class.blink::StyleSheetContents"* @_ZN5blink21CSSDefaultStyleSheets12ParseUASheetERKN3WTF6StringE(%"class.WTF::String"* nonnull dereferenceable(8) %11) #9
  %103 = getelementptr inbounds %"class.blink::StyleSheetContents", %"class.blink::StyleSheetContents"* %102, i64 0, i32 4, i32 0
  %104 = call dereferenceable(8) %"class.blink::Member.241"* @_ZNK3WTF6VectorIN5blink6MemberINS1_13StyleRuleBaseEEELj0ENS1_13HeapAllocatorEE2atEj(%"class.WTF::Vector.238"* %103, i32 0) #9
  %105 = bitcast %"class.blink::Member.241"* %104 to %"class.blink::StyleRuleCounterStyle"**
  %106 = load %"class.blink::StyleRuleCounterStyle"*, %"class.blink::StyleRuleCounterStyle"** %105, align 8
  %107 = bitcast %"class.blink::CounterStyle"** %12 to i8*
  call void @llvm.lifetime.start.p0i8(i64 8, i8* nonnull %107) #9
  %108 = call %"class.blink::CounterStyle"* @_ZN5blink12CounterStyle6CreateERKNS_21StyleRuleCounterStyleE(%"class.blink::StyleRuleCounterStyle"* dereferenceable(104) %106) #9
  store %"class.blink::CounterStyle"* %108, %"class.blink::CounterStyle"** %12, align 8
  %109 = getelementptr inbounds %"class.blink::CounterStyle", %"class.blink::CounterStyle"* %108, i64 0, i32 19
  store i8 1, i8* %109, align 8
  %110 = bitcast %"class.WTF::StringView"* %3 to i8*
  %111 = getelementptr inbounds %"class.WTF::StringView", %"class.WTF::StringView"* %3, i64 0, i32 0
  %112 = getelementptr inbounds %"class.WTF::StringView", %"class.WTF::StringView"* %3, i64 0, i32 1
  %113 = bitcast i8** %112 to %"class.WTF::StringImpl"**
  %114 = bitcast %"class.WTF::StringView"* %3 to i64*
  %115 = getelementptr inbounds %"class.WTF::StringView", %"class.WTF::StringView"* %3, i64 0, i32 2
  %116 = bitcast %"class.WTF::StringView"* %4 to i8*
  %117 = bitcast %"class.WTF::StringView"* %4 to i64*
  %118 = getelementptr inbounds %"class.WTF::StringView", %"class.WTF::StringView"* %4, i64 0, i32 1
  %119 = getelementptr inbounds %"class.WTF::StringView", %"class.WTF::StringView"* %4, i64 0, i32 2
  call void @llvm.lifetime.start.p0i8(i64 24, i8* nonnull %110) #9
  %120 = load %"class.WTF::StringImpl"*, %"class.WTF::StringImpl"** %27, align 8
  %121 = icmp eq %"class.WTF::StringImpl"* %120, null
  br i1 %121, label %125, label %127

122:                                              ; preds = %132
  call void @llvm.lifetime.start.p0i8(i64 24, i8* nonnull %110) #9
  %123 = load %"class.WTF::StringImpl"*, %"class.WTF::StringImpl"** %27, align 8
  %124 = icmp eq %"class.WTF::StringImpl"* %123, null
  br i1 %124, label %141, label %136

125:                                              ; preds = %100
  store i8* null, i8** %112, align 8
  %126 = load i64, i64* bitcast (%"class.WTF::StringImpl"** @_ZN3WTF10StringImpl6empty_E to i64*), align 8
  store i64 %126, i64* %114, align 8
  br label %132

127:                                              ; preds = %100
  store %"class.WTF::StringImpl"* %120, %"class.WTF::StringImpl"** %111, align 8
  %128 = getelementptr inbounds %"class.WTF::StringImpl", %"class.WTF::StringImpl"* %120, i64 0, i32 1
  %129 = load i32, i32* %128, align 4
  %130 = getelementptr inbounds %"class.WTF::StringImpl", %"class.WTF::StringImpl"* %120, i64 1
  store %"class.WTF::StringImpl"* %130, %"class.WTF::StringImpl"** %113, align 8
  %131 = load i64, i64* bitcast (%"class.WTF::StringImpl"** @_ZN3WTF10StringImpl6empty_E to i64*), align 8
  br label %132

132:                                              ; preds = %127, %125
  %133 = phi i64 [ %131, %127 ], [ %126, %125 ]
  %134 = phi i32 [ %129, %127 ], [ 0, %125 ]
  store i32 %134, i32* %115, align 8
  call void @llvm.lifetime.start.p0i8(i64 24, i8* nonnull %116) #9
  store i64 %133, i64* %117, align 8
  store i8* getelementptr inbounds ([5 x i8], [5 x i8]* @.str.74, i64 0, i64 0), i8** %118, align 8
  store i32 4, i32* %119, align 8
  %135 = call zeroext i1 @_ZN3WTF15EqualStringViewERKNS_10StringViewES2_(%"class.WTF::StringView"* nonnull dereferenceable(24) %3, %"class.WTF::StringView"* nonnull dereferenceable(24) %4) #9
  call void @llvm.lifetime.end.p0i8(i64 24, i8* nonnull %116) #9
  call void @llvm.lifetime.end.p0i8(i64 24, i8* nonnull %110) #9
  br i1 %135, label %189, label %122

136:                                              ; preds = %122
  store %"class.WTF::StringImpl"* %123, %"class.WTF::StringImpl"** %111, align 8
  %137 = getelementptr inbounds %"class.WTF::StringImpl", %"class.WTF::StringImpl"* %123, i64 0, i32 1
  %138 = load i32, i32* %137, align 4
  %139 = getelementptr inbounds %"class.WTF::StringImpl", %"class.WTF::StringImpl"* %123, i64 1
  store %"class.WTF::StringImpl"* %139, %"class.WTF::StringImpl"** %113, align 8
  %140 = load i64, i64* bitcast (%"class.WTF::StringImpl"** @_ZN3WTF10StringImpl6empty_E to i64*), align 8
  br label %143

141:                                              ; preds = %122
  store i8* null, i8** %112, align 8
  %142 = load i64, i64* bitcast (%"class.WTF::StringImpl"** @_ZN3WTF10StringImpl6empty_E to i64*), align 8
  store i64 %142, i64* %114, align 8
  br label %143

143:                                              ; preds = %141, %136
  %144 = phi i64 [ %140, %136 ], [ %142, %141 ]
  %145 = phi i32 [ %138, %136 ], [ 0, %141 ]
  store i32 %145, i32* %115, align 8
  call void @llvm.lifetime.start.p0i8(i64 24, i8* nonnull %116) #9
  store i64 %144, i64* %117, align 8
  store i8* getelementptr inbounds ([7 x i8], [7 x i8]* @.str.78, i64 0, i64 0), i8** %118, align 8
  store i32 6, i32* %119, align 8
  %146 = call zeroext i1 @_ZN3WTF15EqualStringViewERKNS_10StringViewES2_(%"class.WTF::StringView"* nonnull dereferenceable(24) %3, %"class.WTF::StringView"* nonnull dereferenceable(24) %4) #9
  call void @llvm.lifetime.end.p0i8(i64 24, i8* nonnull %116) #9
  call void @llvm.lifetime.end.p0i8(i64 24, i8* nonnull %110) #9
  br i1 %146, label %189, label %147

147:                                              ; preds = %143
  call void @llvm.lifetime.start.p0i8(i64 24, i8* nonnull %110) #9
  %148 = load %"class.WTF::StringImpl"*, %"class.WTF::StringImpl"** %27, align 8
  %149 = icmp eq %"class.WTF::StringImpl"* %148, null
  br i1 %149, label %155, label %150

150:                                              ; preds = %147
  store %"class.WTF::StringImpl"* %148, %"class.WTF::StringImpl"** %111, align 8
  %151 = getelementptr inbounds %"class.WTF::StringImpl", %"class.WTF::StringImpl"* %148, i64 0, i32 1
  %152 = load i32, i32* %151, align 4
  %153 = getelementptr inbounds %"class.WTF::StringImpl", %"class.WTF::StringImpl"* %148, i64 1
  store %"class.WTF::StringImpl"* %153, %"class.WTF::StringImpl"** %113, align 8
  %154 = load i64, i64* bitcast (%"class.WTF::StringImpl"** @_ZN3WTF10StringImpl6empty_E to i64*), align 8
  br label %157

155:                                              ; preds = %147
  store i8* null, i8** %112, align 8
  %156 = load i64, i64* bitcast (%"class.WTF::StringImpl"** @_ZN3WTF10StringImpl6empty_E to i64*), align 8
  store i64 %156, i64* %114, align 8
  br label %157

157:                                              ; preds = %155, %150
  %158 = phi i64 [ %154, %150 ], [ %156, %155 ]
  %159 = phi i32 [ %152, %150 ], [ 0, %155 ]
  store i32 %159, i32* %115, align 8
  call void @llvm.lifetime.start.p0i8(i64 24, i8* nonnull %116) #9
  store i64 %158, i64* %117, align 8
  store i8* getelementptr inbounds ([7 x i8], [7 x i8]* @.str.76, i64 0, i64 0), i8** %118, align 8
  store i32 6, i32* %119, align 8
  %160 = call zeroext i1 @_ZN3WTF15EqualStringViewERKNS_10StringViewES2_(%"class.WTF::StringView"* nonnull dereferenceable(24) %3, %"class.WTF::StringView"* nonnull dereferenceable(24) %4) #9
  call void @llvm.lifetime.end.p0i8(i64 24, i8* nonnull %116) #9
  call void @llvm.lifetime.end.p0i8(i64 24, i8* nonnull %110) #9
  br i1 %160, label %189, label %161

161:                                              ; preds = %157
  call void @llvm.lifetime.start.p0i8(i64 24, i8* nonnull %110) #9
  %162 = load %"class.WTF::StringImpl"*, %"class.WTF::StringImpl"** %27, align 8
  %163 = icmp eq %"class.WTF::StringImpl"* %162, null
  br i1 %163, label %169, label %164

164:                                              ; preds = %161
  store %"class.WTF::StringImpl"* %162, %"class.WTF::StringImpl"** %111, align 8
  %165 = getelementptr inbounds %"class.WTF::StringImpl", %"class.WTF::StringImpl"* %162, i64 0, i32 1
  %166 = load i32, i32* %165, align 4
  %167 = getelementptr inbounds %"class.WTF::StringImpl", %"class.WTF::StringImpl"* %162, i64 1
  store %"class.WTF::StringImpl"* %167, %"class.WTF::StringImpl"** %113, align 8
  %168 = load i64, i64* bitcast (%"class.WTF::StringImpl"** @_ZN3WTF10StringImpl6empty_E to i64*), align 8
  br label %171

169:                                              ; preds = %161
  store i8* null, i8** %112, align 8
  %170 = load i64, i64* bitcast (%"class.WTF::StringImpl"** @_ZN3WTF10StringImpl6empty_E to i64*), align 8
  store i64 %170, i64* %114, align 8
  br label %171

171:                                              ; preds = %169, %164
  %172 = phi i64 [ %168, %164 ], [ %170, %169 ]
  %173 = phi i32 [ %166, %164 ], [ 0, %169 ]
  store i32 %173, i32* %115, align 8
  call void @llvm.lifetime.start.p0i8(i64 24, i8* nonnull %116) #9
  store i64 %172, i64* %117, align 8
  store i8* getelementptr inbounds ([16 x i8], [16 x i8]* @.str.80, i64 0, i64 0), i8** %118, align 8
  store i32 15, i32* %119, align 8
  %174 = call zeroext i1 @_ZN3WTF15EqualStringViewERKNS_10StringViewES2_(%"class.WTF::StringView"* nonnull dereferenceable(24) %3, %"class.WTF::StringView"* nonnull dereferenceable(24) %4) #9
  call void @llvm.lifetime.end.p0i8(i64 24, i8* nonnull %116) #9
  call void @llvm.lifetime.end.p0i8(i64 24, i8* nonnull %110) #9
  br i1 %174, label %189, label %175

175:                                              ; preds = %171
  call void @llvm.lifetime.start.p0i8(i64 24, i8* nonnull %110) #9
  %176 = load %"class.WTF::StringImpl"*, %"class.WTF::StringImpl"** %27, align 8
  %177 = icmp eq %"class.WTF::StringImpl"* %176, null
  br i1 %177, label %183, label %178

178:                                              ; preds = %175
  store %"class.WTF::StringImpl"* %176, %"class.WTF::StringImpl"** %111, align 8
  %179 = getelementptr inbounds %"class.WTF::StringImpl", %"class.WTF::StringImpl"* %176, i64 0, i32 1
  %180 = load i32, i32* %179, align 4
  %181 = getelementptr inbounds %"class.WTF::StringImpl", %"class.WTF::StringImpl"* %176, i64 1
  store %"class.WTF::StringImpl"* %181, %"class.WTF::StringImpl"** %113, align 8
  %182 = load i64, i64* bitcast (%"class.WTF::StringImpl"** @_ZN3WTF10StringImpl6empty_E to i64*), align 8
  br label %185

183:                                              ; preds = %175
  store i8* null, i8** %112, align 8
  %184 = load i64, i64* bitcast (%"class.WTF::StringImpl"** @_ZN3WTF10StringImpl6empty_E to i64*), align 8
  store i64 %184, i64* %114, align 8
  br label %185

185:                                              ; preds = %178, %183
  %186 = phi i64 [ %182, %178 ], [ %184, %183 ]
  %187 = phi i32 [ %180, %178 ], [ 0, %183 ]
  store i32 %187, i32* %115, align 8
  call void @llvm.lifetime.start.p0i8(i64 24, i8* nonnull %116) #9
  store i64 %186, i64* %117, align 8
  store i8* getelementptr inbounds ([18 x i8], [18 x i8]* @.str.82, i64 0, i64 0), i8** %118, align 8
  store i32 17, i32* %119, align 8
  %188 = call zeroext i1 @_ZN3WTF15EqualStringViewERKNS_10StringViewES2_(%"class.WTF::StringView"* nonnull dereferenceable(24) %3, %"class.WTF::StringView"* nonnull dereferenceable(24) %4) #9
  call void @llvm.lifetime.end.p0i8(i64 24, i8* nonnull %116) #9
  call void @llvm.lifetime.end.p0i8(i64 24, i8* nonnull %110) #9
  br i1 %188, label %189, label %192

189:                                              ; preds = %132, %143, %157, %171, %185
  %190 = load %"class.blink::CounterStyle"*, %"class.blink::CounterStyle"** %12, align 8
  %191 = getelementptr inbounds %"class.blink::CounterStyle", %"class.blink::CounterStyle"* %190, i64 0, i32 20
  store i8 1, i8* %191, align 1
  br label %192

192:                                              ; preds = %189, %185
  %193 = getelementptr inbounds %"class.blink::CounterStyleMap", %"class.blink::CounterStyleMap"* %0, i64 0, i32 2, i32 0, i32 0
  %194 = call { %"struct.WTF::KeyValuePair"*, i8 } @_ZN3WTF9HashTableINS_12AtomicStringENS_12KeyValuePairIS1_N5blink6MemberINS3_12CounterStyleEEEEENS_24KeyValuePairKeyExtractorENS_16AtomicStringHashENS_18HashMapValueTraitsINS_10HashTraitsIS1_EENSB_IS6_EEEESC_NS3_13HeapAllocatorEE6insertINS_17HashMapTranslatorISE_S9_SF_EERKS1_RPS5_EENS_18HashTableAddResultISG_S7_EEOT0_OT1_(%"class.WTF::HashTable"* %193, %"class.WTF::AtomicString"* dereferenceable(8) %1, %"class.blink::CounterStyle"** nonnull dereferenceable(8) %12) #9
  %195 = extractvalue { %"struct.WTF::KeyValuePair"*, i8 } %194, 1
  %196 = and i8 %195, 1
  %197 = icmp eq i8 %196, 0
  br i1 %197, label %198, label %209

198:                                              ; preds = %192
  %199 = extractvalue { %"struct.WTF::KeyValuePair"*, i8 } %194, 0
  %200 = getelementptr inbounds %"struct.WTF::KeyValuePair", %"struct.WTF::KeyValuePair"* %199, i64 0, i32 1
  %201 = load %"class.blink::CounterStyle"*, %"class.blink::CounterStyle"** %12, align 8
  %202 = ptrtoint %"class.blink::CounterStyle"* %201 to i64
  %203 = bitcast %"class.blink::Member.199"* %200 to i64*
  store atomic i64 %202, i64* %203 monotonic, align 8
  %204 = load atomic i32, i32* getelementptr inbounds (%"class.blink::AtomicEntryFlag", %"class.blink::AtomicEntryFlag"* @_ZN5blink11ThreadState25incremental_marking_flag_E, i64 0, i32 0, i32 0, i32 0, i32 0, i32 0, i32 0) monotonic, align 4
  %205 = icmp eq i32 %204, 0
  br i1 %205, label %209, label %206

206:                                              ; preds = %198
  %207 = bitcast %"class.blink::CounterStyle"* %201 to i8*
  %208 = call zeroext i1 @_ZN5blink14MarkingVisitor16WriteBarrierSlowEPv(i8* %207) #9
  br label %209

209:                                              ; preds = %192, %198, %206
  %210 = load %"class.blink::CounterStyle"*, %"class.blink::CounterStyle"** %12, align 8
  %211 = getelementptr inbounds %"class.blink::CounterStyle", %"class.blink::CounterStyle"* %210, i64 0, i32 2
  %212 = load i32, i32* %211, align 4
  %213 = icmp eq i32 %212, 17
  br i1 %213, label %214, label %216

214:                                              ; preds = %209
  call void @_ZN5blink15CounterStyleMap17ResolveExtendsForERNS_12CounterStyleE(%"class.blink::CounterStyleMap"* %0, %"class.blink::CounterStyle"* dereferenceable(160) %210) #9
  %215 = load %"class.blink::CounterStyle"*, %"class.blink::CounterStyle"** %12, align 8
  br label %216

216:                                              ; preds = %214, %209
  %217 = phi %"class.blink::CounterStyle"* [ %215, %214 ], [ %210, %209 ]
  %218 = getelementptr inbounds %"class.blink::CounterStyle", %"class.blink::CounterStyle"* %217, i64 0, i32 6, i32 0, i32 0
  %219 = load %"class.blink::CounterStyle"*, %"class.blink::CounterStyle"** %218, align 8
  %220 = icmp eq %"class.blink::CounterStyle"* %219, null
  br i1 %220, label %221, label %223

221:                                              ; preds = %216
  call void @_ZN5blink15CounterStyleMap18ResolveFallbackForERNS_12CounterStyleE(%"class.blink::CounterStyleMap"* %0, %"class.blink::CounterStyle"* dereferenceable(160) %217) #9
  %222 = load %"class.blink::CounterStyle"*, %"class.blink::CounterStyle"** %12, align 8
  br label %223

223:                                              ; preds = %221, %216
  %224 = phi %"class.blink::CounterStyle"* [ %222, %221 ], [ %217, %216 ]
  call void @llvm.lifetime.end.p0i8(i64 8, i8* nonnull %107) #9
  %225 = load %"class.WTF::StringImpl"*, %"class.WTF::StringImpl"** %101, align 8
  %226 = icmp eq %"class.WTF::StringImpl"* %225, null
  br i1 %226, label %240, label %227

227:                                              ; preds = %223
  %228 = getelementptr inbounds %"class.WTF::StringImpl", %"class.WTF::StringImpl"* %225, i64 0, i32 2, i32 0, i32 0, i32 0, i32 0, i32 0
  %229 = load atomic i32, i32* %228 monotonic, align 4
  %230 = and i32 %229, 2
  %231 = icmp eq i32 %230, 0
  %232 = getelementptr inbounds %"class.WTF::StringImpl", %"class.WTF::StringImpl"* %225, i64 0, i32 0
  %233 = load i32, i32* %232, align 4
  br i1 %231, label %234, label %236

234:                                              ; preds = %227
  %235 = add i32 %233, -1
  store i32 %235, i32* %232, align 4
  br label %236

236:                                              ; preds = %234, %227
  %237 = phi i32 [ %235, %234 ], [ %233, %227 ]
  %238 = icmp eq i32 %237, 0
  br i1 %238, label %239, label %240

239:                                              ; preds = %236
  call void @_ZNK3WTF10StringImpl18DestroyIfNotStaticEv(%"class.WTF::StringImpl"* nonnull %225) #9
  br label %240

240:                                              ; preds = %223, %236, %239
  call void @llvm.lifetime.end.p0i8(i64 8, i8* nonnull %13) #9
  ret %"class.blink::CounterStyle"* %224
}

declare %"class.blink::StyleSheetContents"* @_ZN5blink21CSSDefaultStyleSheets12ParseUASheetERKN3WTF6StringE(%"class.WTF::String"* dereferenceable(8)) local_unnamed_addr #3

declare %"class.blink::CounterStyle"* @_ZN5blink12CounterStyle6CreateERKNS_21StyleRuleCounterStyleE(%"class.blink::StyleRuleCounterStyle"* dereferenceable(104)) local_unnamed_addr #3

declare void @_ZN5blink15CounterStyleMap17ResolveExtendsForERNS_12CounterStyleE(%"class.blink::CounterStyleMap"*, %"class.blink::CounterStyle"* dereferenceable(160)) local_unnamed_addr #3

declare void @_ZN5blink15CounterStyleMap18ResolveFallbackForERNS_12CounterStyleE(%"class.blink::CounterStyleMap"*, %"class.blink::CounterStyle"* dereferenceable(160)) local_unnamed_addr #3

; Function Attrs: nounwind ssp uwtable
define linkonce_odr hidden void @_ZN3WTF17GenericHashTraitsINS_6StringEE5StoreIRA79_KcEEvOT_RS1_([79 x i8]* dereferenceable(79), %"class.WTF::String"* dereferenceable(8)) local_unnamed_addr #0 comdat align 2 {
  %3 = alloca %"class.WTF::String", align 8
  %4 = bitcast %"class.WTF::String"* %3 to i8*
  call void @llvm.lifetime.start.p0i8(i64 8, i8* nonnull %4) #9
  %5 = getelementptr inbounds [79 x i8], [79 x i8]* %0, i64 0, i64 0
  %6 = icmp eq [79 x i8]* %0, null
  br i1 %6, label %9, label %7

7:                                                ; preds = %2
  %8 = tail call i64 @strlen(i8* nonnull %5) #10
  br label %9

9:                                                ; preds = %2, %7
  %10 = phi i64 [ %8, %7 ], [ 0, %2 ]
  call void @_ZN3WTF6StringC2EPKcm(%"class.WTF::String"* nonnull %3, i8* %5, i64 %10) #9
  %11 = getelementptr inbounds %"class.WTF::String", %"class.WTF::String"* %3, i64 0, i32 0, i32 0
  %12 = bitcast %"class.WTF::String"* %3 to i64*
  %13 = load i64, i64* %12, align 8
  store %"class.WTF::StringImpl"* null, %"class.WTF::StringImpl"** %11, align 8
  %14 = bitcast %"class.WTF::String"* %1 to i64*
  %15 = getelementptr inbounds %"class.WTF::String", %"class.WTF::String"* %1, i64 0, i32 0, i32 0
  %16 = load %"class.WTF::StringImpl"*, %"class.WTF::StringImpl"** %15, align 8
  store i64 %13, i64* %14, align 8
  %17 = icmp eq %"class.WTF::StringImpl"* %16, null
  br i1 %17, label %31, label %18

18:                                               ; preds = %9
  %19 = getelementptr inbounds %"class.WTF::StringImpl", %"class.WTF::StringImpl"* %16, i64 0, i32 2, i32 0, i32 0, i32 0, i32 0, i32 0
  %20 = load atomic i32, i32* %19 monotonic, align 4
  %21 = and i32 %20, 2
  %22 = icmp eq i32 %21, 0
  %23 = getelementptr inbounds %"class.WTF::StringImpl", %"class.WTF::StringImpl"* %16, i64 0, i32 0
  %24 = load i32, i32* %23, align 4
  br i1 %22, label %25, label %27

25:                                               ; preds = %18
  %26 = add i32 %24, -1
  store i32 %26, i32* %23, align 4
  br label %27

27:                                               ; preds = %25, %18
  %28 = phi i32 [ %26, %25 ], [ %24, %18 ]
  %29 = icmp eq i32 %28, 0
  br i1 %29, label %30, label %31

30:                                               ; preds = %27
  call void @_ZNK3WTF10StringImpl18DestroyIfNotStaticEv(%"class.WTF::StringImpl"* nonnull %16) #9
  br label %31

31:                                               ; preds = %9, %27, %30
  %32 = load %"class.WTF::StringImpl"*, %"class.WTF::StringImpl"** %11, align 8
  %33 = icmp eq %"class.WTF::StringImpl"* %32, null
  br i1 %33, label %47, label %34

34:                                               ; preds = %31
  %35 = getelementptr inbounds %"class.WTF::StringImpl", %"class.WTF::StringImpl"* %32, i64 0, i32 2, i32 0, i32 0, i32 0, i32 0, i32 0
  %36 = load atomic i32, i32* %35 monotonic, align 4
  %37 = and i32 %36, 2
  %38 = icmp eq i32 %37, 0
  %39 = getelementptr inbounds %"class.WTF::StringImpl", %"class.WTF::StringImpl"* %32, i64 0, i32 0
  %40 = load i32, i32* %39, align 4
  br i1 %38, label %41, label %43

41:                                               ; preds = %34
  %42 = add i32 %40, -1
  store i32 %42, i32* %39, align 4
  br label %43

43:                                               ; preds = %41, %34
  %44 = phi i32 [ %42, %41 ], [ %40, %34 ]
  %45 = icmp eq i32 %44, 0
  br i1 %45, label %46, label %47

46:                                               ; preds = %43
  call void @_ZNK3WTF10StringImpl18DestroyIfNotStaticEv(%"class.WTF::StringImpl"* nonnull %32) #9
  br label %47

47:                                               ; preds = %31, %43, %46
  call void @llvm.lifetime.end.p0i8(i64 8, i8* nonnull %4) #9
  ret void
}

; Function Attrs: nounwind ssp uwtable
define linkonce_odr hidden { %"struct.WTF::KeyValuePair.7"*, i8 } @_ZN3WTF9HashTableINS_12AtomicStringENS_12KeyValuePairIS1_NS_6StringEEENS_24KeyValuePairKeyExtractorENS_16AtomicStringHashENS_18HashMapValueTraitsINS_10HashTraitsIS1_EENS8_IS3_EEEES9_NS_18PartitionAllocatorEE6insertINS_17HashMapTranslatorISB_S6_SC_EERA8_KcRA79_SH_EENS_18HashTableAddResultISD_S4_EEOT0_OT1_(%"class.WTF::HashTable.5"*, [8 x i8]* dereferenceable(8), [79 x i8]* dereferenceable(79)) local_unnamed_addr #0 comdat align 2 {
  %4 = alloca %"class.WTF::AtomicString", align 8
  %5 = alloca %"class.WTF::AtomicString", align 8
  %6 = getelementptr inbounds %"class.WTF::HashTable.5", %"class.WTF::HashTable.5"* %0, i64 0, i32 0
  %7 = load %"struct.WTF::KeyValuePair.7"*, %"struct.WTF::KeyValuePair.7"** %6, align 8
  %8 = icmp eq %"struct.WTF::KeyValuePair.7"* %7, null
  br i1 %8, label %9, label %12

9:                                                ; preds = %3
  %10 = tail call %"struct.WTF::KeyValuePair.7"* @_ZN3WTF9HashTableINS_12AtomicStringENS_12KeyValuePairIS1_NS_6StringEEENS_24KeyValuePairKeyExtractorENS_16AtomicStringHashENS_18HashMapValueTraitsINS_10HashTraitsIS1_EENS8_IS3_EEEES9_NS_18PartitionAllocatorEE6ExpandEPS4_(%"class.WTF::HashTable.5"* %0, %"struct.WTF::KeyValuePair.7"* null)
  %11 = load %"struct.WTF::KeyValuePair.7"*, %"struct.WTF::KeyValuePair.7"** %6, align 8
  br label %12

12:                                               ; preds = %3, %9
  %13 = phi %"struct.WTF::KeyValuePair.7"* [ %7, %3 ], [ %11, %9 ]
  %14 = getelementptr inbounds %"class.WTF::HashTable.5", %"class.WTF::HashTable.5"* %0, i64 0, i32 1
  %15 = load i32, i32* %14, align 8
  %16 = add i32 %15, -1
  %17 = zext i32 %16 to i64
  %18 = bitcast %"class.WTF::AtomicString"* %5 to i8*
  call void @llvm.lifetime.start.p0i8(i64 8, i8* nonnull %18) #9
  %19 = getelementptr inbounds [8 x i8], [8 x i8]* %1, i64 0, i64 0
  %20 = icmp eq [8 x i8]* %1, null
  br i1 %20, label %23, label %21

21:                                               ; preds = %12
  %22 = tail call i64 @strlen(i8* nonnull %19) #10
  br label %23

23:                                               ; preds = %21, %12
  %24 = phi i64 [ %22, %21 ], [ 0, %12 ]
  call void @_ZN3WTF12AtomicStringC2EPKhm(%"class.WTF::AtomicString"* nonnull %5, i8* %19, i64 %24) #9
  %25 = getelementptr inbounds %"class.WTF::AtomicString", %"class.WTF::AtomicString"* %5, i64 0, i32 0, i32 0, i32 0
  %26 = load %"class.WTF::StringImpl"*, %"class.WTF::StringImpl"** %25, align 8
  %27 = getelementptr inbounds %"class.WTF::StringImpl", %"class.WTF::StringImpl"* %26, i64 0, i32 2, i32 0, i32 0, i32 0, i32 0, i32 0
  %28 = load atomic i32, i32* %27 monotonic, align 4
  %29 = lshr i32 %28, 8
  %30 = icmp eq %"class.WTF::StringImpl"* %26, null
  br i1 %30, label %43, label %31

31:                                               ; preds = %23
  %32 = load atomic i32, i32* %27 monotonic, align 4
  %33 = and i32 %32, 2
  %34 = icmp eq i32 %33, 0
  %35 = getelementptr inbounds %"class.WTF::StringImpl", %"class.WTF::StringImpl"* %26, i64 0, i32 0
  %36 = load i32, i32* %35, align 4
  br i1 %34, label %37, label %39

37:                                               ; preds = %31
  %38 = add i32 %36, -1
  store i32 %38, i32* %35, align 4
  br label %39

39:                                               ; preds = %37, %31
  %40 = phi i32 [ %38, %37 ], [ %36, %31 ]
  %41 = icmp eq i32 %40, 0
  br i1 %41, label %42, label %43

42:                                               ; preds = %39
  call void @_ZNK3WTF10StringImpl18DestroyIfNotStaticEv(%"class.WTF::StringImpl"* nonnull %26) #9
  br label %43

43:                                               ; preds = %23, %39, %42
  call void @llvm.lifetime.end.p0i8(i64 8, i8* nonnull %18) #9
  %44 = and i32 %29, %16
  %45 = zext i32 %44 to i64
  %46 = getelementptr inbounds %"struct.WTF::KeyValuePair.7", %"struct.WTF::KeyValuePair.7"* %13, i64 %45
  %47 = getelementptr inbounds %"struct.WTF::KeyValuePair.7", %"struct.WTF::KeyValuePair.7"* %46, i64 0, i32 0, i32 0, i32 0, i32 0
  %48 = load %"class.WTF::StringImpl"*, %"class.WTF::StringImpl"** %47, align 8
  %49 = icmp eq %"class.WTF::StringImpl"* %48, null
  br i1 %49, label %118, label %50

50:                                               ; preds = %43
  %51 = bitcast %"class.WTF::AtomicString"* %4 to i8*
  %52 = getelementptr inbounds %"class.WTF::AtomicString", %"class.WTF::AtomicString"* %4, i64 0, i32 0, i32 0, i32 0
  %53 = xor i32 %29, -1
  %54 = lshr i32 %28, 31
  %55 = add nsw i32 %54, %53
  %56 = shl i32 %55, 12
  %57 = xor i32 %56, %55
  %58 = lshr i32 %57, 7
  %59 = xor i32 %58, %57
  %60 = shl i32 %59, 2
  %61 = xor i32 %60, %59
  %62 = lshr i32 %61, 20
  %63 = xor i32 %62, %61
  %64 = or i32 %63, 1
  %65 = zext i32 %64 to i64
  br label %66

66:                                               ; preds = %50, %98
  %67 = phi %"struct.WTF::KeyValuePair.7"* [ %46, %50 ], [ %104, %98 ]
  %68 = phi %"struct.WTF::KeyValuePair.7"* [ null, %50 ], [ %99, %98 ]
  %69 = phi i64 [ %45, %50 ], [ %103, %98 ]
  %70 = phi i64 [ 0, %50 ], [ %101, %98 ]
  %71 = bitcast %"struct.WTF::KeyValuePair.7"* %67 to i8**
  %72 = load i8*, i8** %71, align 8
  %73 = icmp eq i8* %72, inttoptr (i64 -1 to i8*)
  br i1 %73, label %98, label %74

74:                                               ; preds = %66
  call void @llvm.lifetime.start.p0i8(i64 8, i8* nonnull %51) #9
  br i1 %20, label %77, label %75

75:                                               ; preds = %74
  %76 = call i64 @strlen(i8* nonnull %19) #10
  br label %77

77:                                               ; preds = %75, %74
  %78 = phi i64 [ %76, %75 ], [ 0, %74 ]
  call void @_ZN3WTF12AtomicStringC2EPKhm(%"class.WTF::AtomicString"* nonnull %4, i8* %19, i64 %78) #9
  %79 = getelementptr inbounds %"struct.WTF::KeyValuePair.7", %"struct.WTF::KeyValuePair.7"* %67, i64 0, i32 0, i32 0, i32 0, i32 0
  %80 = load %"class.WTF::StringImpl"*, %"class.WTF::StringImpl"** %79, align 8
  %81 = load %"class.WTF::StringImpl"*, %"class.WTF::StringImpl"** %52, align 8
  %82 = icmp eq %"class.WTF::StringImpl"* %80, %81
  %83 = icmp eq %"class.WTF::StringImpl"* %81, null
  br i1 %83, label %97, label %84

84:                                               ; preds = %77
  %85 = getelementptr inbounds %"class.WTF::StringImpl", %"class.WTF::StringImpl"* %81, i64 0, i32 2, i32 0, i32 0, i32 0, i32 0, i32 0
  %86 = load atomic i32, i32* %85 monotonic, align 4
  %87 = and i32 %86, 2
  %88 = icmp eq i32 %87, 0
  %89 = getelementptr inbounds %"class.WTF::StringImpl", %"class.WTF::StringImpl"* %81, i64 0, i32 0
  %90 = load i32, i32* %89, align 4
  br i1 %88, label %91, label %93

91:                                               ; preds = %84
  %92 = add i32 %90, -1
  store i32 %92, i32* %89, align 4
  br label %93

93:                                               ; preds = %91, %84
  %94 = phi i32 [ %92, %91 ], [ %90, %84 ]
  %95 = icmp eq i32 %94, 0
  br i1 %95, label %96, label %97

96:                                               ; preds = %93
  call void @_ZNK3WTF10StringImpl18DestroyIfNotStaticEv(%"class.WTF::StringImpl"* nonnull %81) #9
  br label %97

97:                                               ; preds = %77, %93, %96
  call void @llvm.lifetime.end.p0i8(i64 8, i8* nonnull %51) #9
  br i1 %82, label %131, label %98

98:                                               ; preds = %66, %97
  %99 = phi %"struct.WTF::KeyValuePair.7"* [ %68, %97 ], [ %67, %66 ]
  %100 = icmp eq i64 %70, 0
  %101 = select i1 %100, i64 %65, i64 %70
  %102 = add i64 %101, %69
  %103 = and i64 %102, %17
  %104 = getelementptr inbounds %"struct.WTF::KeyValuePair.7", %"struct.WTF::KeyValuePair.7"* %13, i64 %103
  %105 = getelementptr inbounds %"struct.WTF::KeyValuePair.7", %"struct.WTF::KeyValuePair.7"* %104, i64 0, i32 0, i32 0, i32 0, i32 0
  %106 = load %"class.WTF::StringImpl"*, %"class.WTF::StringImpl"** %105, align 8
  %107 = icmp eq %"class.WTF::StringImpl"* %106, null
  br i1 %107, label %108, label %66

108:                                              ; preds = %98
  %109 = icmp eq %"struct.WTF::KeyValuePair.7"* %99, null
  br i1 %109, label %118, label %110

110:                                              ; preds = %108
  %111 = bitcast %"struct.WTF::KeyValuePair.7"* %99 to i8*
  call void @llvm.memset.p0i8.i64(i8* nonnull align 8 %111, i8 0, i64 16, i1 false) #9
  %112 = getelementptr inbounds %"class.WTF::HashTable.5", %"class.WTF::HashTable.5"* %0, i64 0, i32 3
  %113 = load i32, i32* %112, align 8
  %114 = add i32 %113, 2147483647
  %115 = and i32 %114, 2147483647
  %116 = and i32 %113, -2147483648
  %117 = or i32 %115, %116
  store i32 %117, i32* %112, align 8
  br label %118

118:                                              ; preds = %43, %108, %110
  %119 = phi %"struct.WTF::KeyValuePair.7"* [ %99, %110 ], [ %104, %108 ], [ %46, %43 ]
  call void @_ZN3WTF17HashMapTranslatorINS_18HashMapValueTraitsINS_10HashTraitsINS_12AtomicStringEEENS2_INS_6StringEEEEENS_16AtomicStringHashENS_18PartitionAllocatorEE9TranslateINS_12KeyValuePairIS3_S5_EERA8_KcRA79_SE_EEvRT_OT0_OT1_(%"struct.WTF::KeyValuePair.7"* dereferenceable(16) %119, [8 x i8]* dereferenceable(8) %1, [79 x i8]* dereferenceable(79) %2)
  %120 = getelementptr inbounds %"class.WTF::HashTable.5", %"class.WTF::HashTable.5"* %0, i64 0, i32 2
  %121 = load i32, i32* %120, align 4
  %122 = add i32 %121, 1
  store i32 %122, i32* %120, align 4
  %123 = getelementptr inbounds %"class.WTF::HashTable.5", %"class.WTF::HashTable.5"* %0, i64 0, i32 3
  %124 = load i32, i32* %123, align 8
  %125 = add i32 %124, %122
  %126 = shl i32 %125, 1
  %127 = load i32, i32* %14, align 8
  %128 = icmp ult i32 %126, %127
  br i1 %128, label %131, label %129

129:                                              ; preds = %118
  %130 = call %"struct.WTF::KeyValuePair.7"* @_ZN3WTF9HashTableINS_12AtomicStringENS_12KeyValuePairIS1_NS_6StringEEENS_24KeyValuePairKeyExtractorENS_16AtomicStringHashENS_18HashMapValueTraitsINS_10HashTraitsIS1_EENS8_IS3_EEEES9_NS_18PartitionAllocatorEE6ExpandEPS4_(%"class.WTF::HashTable.5"* %0, %"struct.WTF::KeyValuePair.7"* %119)
  br label %131

131:                                              ; preds = %97, %118, %129
  %132 = phi i8 [ 1, %118 ], [ 1, %129 ], [ 0, %97 ]
  %133 = phi %"struct.WTF::KeyValuePair.7"* [ %119, %118 ], [ %130, %129 ], [ %67, %97 ]
  %134 = insertvalue { %"struct.WTF::KeyValuePair.7"*, i8 } undef, %"struct.WTF::KeyValuePair.7"* %133, 0
  %135 = insertvalue { %"struct.WTF::KeyValuePair.7"*, i8 } %134, i8 %132, 1
  ret { %"struct.WTF::KeyValuePair.7"*, i8 } %135
}

; Function Attrs: nounwind ssp uwtable
define linkonce_odr hidden %"struct.WTF::KeyValuePair.7"* @_ZN3WTF9HashTableINS_12AtomicStringENS_12KeyValuePairIS1_NS_6StringEEENS_24KeyValuePairKeyExtractorENS_16AtomicStringHashENS_18HashMapValueTraitsINS_10HashTraitsIS1_EENS8_IS3_EEEES9_NS_18PartitionAllocatorEE6ExpandEPS4_(%"class.WTF::HashTable.5"*, %"struct.WTF::KeyValuePair.7"*) local_unnamed_addr #0 comdat align 2 {
  %3 = alloca %"class.logging::CheckOpResult", align 8
  %4 = alloca %"class.logging::CheckOpResult", align 8
  %5 = alloca %"class.logging::CheckError", align 8
  %6 = getelementptr inbounds %"class.WTF::HashTable.5", %"class.WTF::HashTable.5"* %0, i64 0, i32 1
  %7 = load i32, i32* %6, align 8
  %8 = icmp eq i32 %7, 0
  br i1 %8, label %31, label %9

9:                                                ; preds = %2
  %10 = getelementptr inbounds %"class.WTF::HashTable.5", %"class.WTF::HashTable.5"* %0, i64 0, i32 2
  %11 = load i32, i32* %10, align 4
  %12 = mul i32 %11, 6
  %13 = shl i32 %7, 1
  %14 = icmp ult i32 %12, %13
  br i1 %14, label %31, label %15

15:                                               ; preds = %9
  %16 = bitcast %"class.logging::CheckOpResult"* %4 to i8*
  call void @llvm.lifetime.start.p0i8(i64 8, i8* nonnull %16) #9
  %17 = getelementptr inbounds %"class.logging::CheckOpResult", %"class.logging::CheckOpResult"* %4, i64 0, i32 0
  store i8* inttoptr (i64 -6148914691236517206 to i8*), i8** %17, align 8
  %18 = bitcast %"class.logging::CheckOpResult"* %3 to i8*
  call void @llvm.lifetime.start.p0i8(i64 8, i8* nonnull %18)
  %19 = icmp ugt i32 %13, %7
  br i1 %19, label %20, label %21

20:                                               ; preds = %15
  call void @llvm.lifetime.end.p0i8(i64 8, i8* nonnull %18)
  store i8* null, i8** %17, align 8
  br label %30

21:                                               ; preds = %15
  %22 = tail call i8* @_ZN7logging15CheckOpValueStrEj(i32 %13) #9
  %23 = tail call i8* @_ZN7logging15CheckOpValueStrEj(i32 %7) #9
  call void @_ZN7logging13CheckOpResultC1EPKcPcS3_(%"class.logging::CheckOpResult"* nonnull %3, i8* getelementptr inbounds ([23 x i8], [23 x i8]* @.str.124, i64 0, i64 0), i8* %22, i8* %23) #9
  %24 = getelementptr inbounds %"class.logging::CheckOpResult", %"class.logging::CheckOpResult"* %3, i64 0, i32 0
  %25 = load i8*, i8** %24, align 8
  call void @llvm.lifetime.end.p0i8(i64 8, i8* nonnull %18)
  store i8* %25, i8** %17, align 8
  %26 = icmp eq i8* %25, null
  br i1 %26, label %30, label %27

27:                                               ; preds = %21
  %28 = bitcast %"class.logging::CheckError"* %5 to i8*
  call void @llvm.lifetime.start.p0i8(i64 8, i8* nonnull %28) #9
  call void @_ZN7logging10CheckError7CheckOpEPKciPNS_13CheckOpResultE(%"class.logging::CheckError"* nonnull sret %5, i8* getelementptr inbounds ([59 x i8], [59 x i8]* @.str.125, i64 0, i64 0), i32 1783, %"class.logging::CheckOpResult"* nonnull %4) #9
  %29 = call dereferenceable(160) %"class.std::__1::basic_ostream"* @_ZN7logging10CheckError6streamEv(%"class.logging::CheckError"* nonnull %5) #9
  call void @_ZN7logging10CheckErrorD1Ev(%"class.logging::CheckError"* nonnull %5) #9
  call void @llvm.lifetime.end.p0i8(i64 8, i8* nonnull %28) #9
  br label %30

30:                                               ; preds = %20, %21, %27
  call void @llvm.lifetime.end.p0i8(i64 8, i8* nonnull %16) #9
  br label %31

31:                                               ; preds = %9, %2, %30
  %32 = phi i32 [ %13, %30 ], [ 8, %2 ], [ %7, %9 ]
  %33 = zext i32 %32 to i64
  %34 = shl nuw nsw i64 %33, 4
  %35 = call i8* @_ZN3WTF18PartitionAllocator15AllocateBackingEmPKc(i64 %34, i8* getelementptr inbounds ([97 x i8], [97 x i8]* @__PRETTY_FUNCTION__._ZN3WTF21GetStringWithTypeNameINS_12KeyValuePairINS_12AtomicStringENS_6StringEEEEEPKcv, i64 0, i64 0)) #9
  call void @llvm.memset.p0i8.i64(i8* align 1 %35, i8 0, i64 %34, i1 false) #9
  %36 = bitcast i8* %35 to %"struct.WTF::KeyValuePair.7"*
  %37 = call %"struct.WTF::KeyValuePair.7"* @_ZN3WTF9HashTableINS_12AtomicStringENS_12KeyValuePairIS1_NS_6StringEEENS_24KeyValuePairKeyExtractorENS_16AtomicStringHashENS_18HashMapValueTraitsINS_10HashTraitsIS1_EENS8_IS3_EEEES9_NS_18PartitionAllocatorEE8RehashToEPS4_jSE_(%"class.WTF::HashTable.5"* %0, %"struct.WTF::KeyValuePair.7"* %36, i32 %32, %"struct.WTF::KeyValuePair.7"* %1) #9
  ret %"struct.WTF::KeyValuePair.7"* %37
}

; Function Attrs: nounwind ssp uwtable
define linkonce_odr hidden void @_ZN3WTF17HashMapTranslatorINS_18HashMapValueTraitsINS_10HashTraitsINS_12AtomicStringEEENS2_INS_6StringEEEEENS_16AtomicStringHashENS_18PartitionAllocatorEE9TranslateINS_12KeyValuePairIS3_S5_EERA8_KcRA79_SE_EEvRT_OT0_OT1_(%"struct.WTF::KeyValuePair.7"* dereferenceable(16), [8 x i8]* dereferenceable(8), [79 x i8]* dereferenceable(79)) local_unnamed_addr #0 comdat align 2 {
  %4 = alloca %"class.WTF::AtomicString", align 8
  %5 = bitcast %"class.WTF::AtomicString"* %4 to i8*
  call void @llvm.lifetime.start.p0i8(i64 8, i8* nonnull %5) #9
  %6 = getelementptr inbounds [8 x i8], [8 x i8]* %1, i64 0, i64 0
  %7 = icmp eq [8 x i8]* %1, null
  br i1 %7, label %10, label %8

8:                                                ; preds = %3
  %9 = tail call i64 @strlen(i8* nonnull %6) #10
  br label %10

10:                                               ; preds = %3, %8
  %11 = phi i64 [ %9, %8 ], [ 0, %3 ]
  call void @_ZN3WTF12AtomicStringC2EPKhm(%"class.WTF::AtomicString"* nonnull %4, i8* %6, i64 %11) #9
  %12 = getelementptr inbounds %"class.WTF::AtomicString", %"class.WTF::AtomicString"* %4, i64 0, i32 0, i32 0, i32 0
  %13 = bitcast %"class.WTF::AtomicString"* %4 to i64*
  %14 = load i64, i64* %13, align 8
  store %"class.WTF::StringImpl"* null, %"class.WTF::StringImpl"** %12, align 8
  %15 = bitcast %"struct.WTF::KeyValuePair.7"* %0 to i64*
  %16 = getelementptr inbounds %"struct.WTF::KeyValuePair.7", %"struct.WTF::KeyValuePair.7"* %0, i64 0, i32 0, i32 0, i32 0, i32 0
  %17 = load %"class.WTF::StringImpl"*, %"class.WTF::StringImpl"** %16, align 8
  store i64 %14, i64* %15, align 8
  %18 = icmp eq %"class.WTF::StringImpl"* %17, null
  br i1 %18, label %32, label %19

19:                                               ; preds = %10
  %20 = getelementptr inbounds %"class.WTF::StringImpl", %"class.WTF::StringImpl"* %17, i64 0, i32 2, i32 0, i32 0, i32 0, i32 0, i32 0
  %21 = load atomic i32, i32* %20 monotonic, align 4
  %22 = and i32 %21, 2
  %23 = icmp eq i32 %22, 0
  %24 = getelementptr inbounds %"class.WTF::StringImpl", %"class.WTF::StringImpl"* %17, i64 0, i32 0
  %25 = load i32, i32* %24, align 4
  br i1 %23, label %26, label %28

26:                                               ; preds = %19
  %27 = add i32 %25, -1
  store i32 %27, i32* %24, align 4
  br label %28

28:                                               ; preds = %26, %19
  %29 = phi i32 [ %27, %26 ], [ %25, %19 ]
  %30 = icmp eq i32 %29, 0
  br i1 %30, label %31, label %32

31:                                               ; preds = %28
  call void @_ZNK3WTF10StringImpl18DestroyIfNotStaticEv(%"class.WTF::StringImpl"* nonnull %17) #9
  br label %32

32:                                               ; preds = %10, %28, %31
  %33 = load %"class.WTF::StringImpl"*, %"class.WTF::StringImpl"** %12, align 8
  %34 = icmp eq %"class.WTF::StringImpl"* %33, null
  br i1 %34, label %48, label %35

35:                                               ; preds = %32
  %36 = getelementptr inbounds %"class.WTF::StringImpl", %"class.WTF::StringImpl"* %33, i64 0, i32 2, i32 0, i32 0, i32 0, i32 0, i32 0
  %37 = load atomic i32, i32* %36 monotonic, align 4
  %38 = and i32 %37, 2
  %39 = icmp eq i32 %38, 0
  %40 = getelementptr inbounds %"class.WTF::StringImpl", %"class.WTF::StringImpl"* %33, i64 0, i32 0
  %41 = load i32, i32* %40, align 4
  br i1 %39, label %42, label %44

42:                                               ; preds = %35
  %43 = add i32 %41, -1
  store i32 %43, i32* %40, align 4
  br label %44

44:                                               ; preds = %42, %35
  %45 = phi i32 [ %43, %42 ], [ %41, %35 ]
  %46 = icmp eq i32 %45, 0
  br i1 %46, label %47, label %48

47:                                               ; preds = %44
  call void @_ZNK3WTF10StringImpl18DestroyIfNotStaticEv(%"class.WTF::StringImpl"* nonnull %33) #9
  br label %48

48:                                               ; preds = %32, %44, %47
  call void @llvm.lifetime.end.p0i8(i64 8, i8* nonnull %5) #9
  %49 = getelementptr inbounds %"struct.WTF::KeyValuePair.7", %"struct.WTF::KeyValuePair.7"* %0, i64 0, i32 1
  call void @_ZN3WTF17GenericHashTraitsINS_6StringEE5StoreIRA79_KcEEvOT_RS1_([79 x i8]* dereferenceable(79) %2, %"class.WTF::String"* dereferenceable(8) %49)
  ret void
}

declare void @_ZN7logging10CheckError7CheckOpEPKciPNS_13CheckOpResultE(%"class.logging::CheckError"* sret, i8*, i32, %"class.logging::CheckOpResult"*) local_unnamed_addr #3

declare dereferenceable(160) %"class.std::__1::basic_ostream"* @_ZN7logging10CheckError6streamEv(%"class.logging::CheckError"*) local_unnamed_addr #3

; Function Attrs: nounwind
declare void @_ZN7logging10CheckErrorD1Ev(%"class.logging::CheckError"*) unnamed_addr #4

declare i8* @_ZN7logging15CheckOpValueStrEj(i32) local_unnamed_addr #3

declare void @_ZN7logging13CheckOpResultC1EPKcPcS3_(%"class.logging::CheckOpResult"*, i8*, i8*, i8*) unnamed_addr #3

; Function Attrs: nounwind ssp uwtable
define linkonce_odr hidden %"struct.WTF::KeyValuePair.7"* @_ZN3WTF9HashTableINS_12AtomicStringENS_12KeyValuePairIS1_NS_6StringEEENS_24KeyValuePairKeyExtractorENS_16AtomicStringHashENS_18HashMapValueTraitsINS_10HashTraitsIS1_EENS8_IS3_EEEES9_NS_18PartitionAllocatorEE8RehashToEPS4_jSE_(%"class.WTF::HashTable.5"*, %"struct.WTF::KeyValuePair.7"*, i32, %"struct.WTF::KeyValuePair.7"*) local_unnamed_addr #0 comdat align 2 {
  %5 = alloca %"class.WTF::HashTable.5", align 8
  %6 = bitcast %"class.WTF::HashTable.5"* %5 to i8*
  call void @llvm.lifetime.start.p0i8(i64 24, i8* nonnull %6) #9
  %7 = getelementptr inbounds %"class.WTF::HashTable.5", %"class.WTF::HashTable.5"* %5, i64 0, i32 0
  %8 = getelementptr inbounds %"class.WTF::HashTable.5", %"class.WTF::HashTable.5"* %5, i64 0, i32 1
  %9 = getelementptr inbounds %"class.WTF::HashTable.5", %"class.WTF::HashTable.5"* %5, i64 0, i32 2
  %10 = getelementptr inbounds %"class.WTF::HashTable.5", %"class.WTF::HashTable.5"* %5, i64 0, i32 3
  %11 = bitcast %"class.WTF::HashTable.5"* %5 to i8*
  call void @llvm.memset.p0i8.i64(i8* nonnull align 8 %11, i8 -86, i64 24, i1 false)
  store %"struct.WTF::KeyValuePair.7"* %1, %"struct.WTF::KeyValuePair.7"** %7, align 8
  store i32 %2, i32* %8, align 8
  store i32 0, i32* %9, align 4
  store i32 0, i32* %10, align 8
  %12 = getelementptr inbounds %"class.WTF::HashTable.5", %"class.WTF::HashTable.5"* %0, i64 0, i32 1
  %13 = load i32, i32* %12, align 8
  %14 = icmp eq i32 %13, 0
  %15 = getelementptr inbounds %"class.WTF::HashTable.5", %"class.WTF::HashTable.5"* %0, i64 0, i32 0
  br i1 %14, label %16, label %21

16:                                               ; preds = %4
  %17 = ptrtoint %"struct.WTF::KeyValuePair.7"* %1 to i64
  %18 = bitcast %"class.WTF::HashTable.5"* %0 to i64*
  %19 = load i64, i64* %18, align 8
  %20 = bitcast %"class.WTF::HashTable.5"* %5 to i64*
  br label %28

21:                                               ; preds = %4
  %22 = load %"struct.WTF::KeyValuePair.7"*, %"struct.WTF::KeyValuePair.7"** %15, align 8
  %23 = ptrtoint %"struct.WTF::KeyValuePair.7"* %22 to i64
  br label %42

24:                                               ; preds = %60
  %25 = bitcast %"class.WTF::HashTable.5"* %5 to i64*
  %26 = load i64, i64* %25, align 8
  %27 = bitcast %"class.WTF::HashTable.5"* %0 to i64*
  br label %28

28:                                               ; preds = %16, %24
  %29 = phi i64* [ %20, %16 ], [ %25, %24 ]
  %30 = phi i64* [ %18, %16 ], [ %27, %24 ]
  %31 = phi i64 [ %17, %16 ], [ %26, %24 ]
  %32 = phi i64 [ %19, %16 ], [ %61, %24 ]
  %33 = phi %"struct.WTF::KeyValuePair.7"* [ null, %16 ], [ %64, %24 ]
  %34 = phi i32 [ 0, %16 ], [ %62, %24 ]
  store atomic i64 %31, i64* %30 monotonic, align 8
  store i32 %2, i32* %12, align 8
  store i64 %32, i64* %29, align 8
  store i32 %34, i32* %8, align 8
  %35 = icmp eq i64 %32, 0
  br i1 %35, label %38, label %36

36:                                               ; preds = %28
  %37 = inttoptr i64 %32 to %"struct.WTF::KeyValuePair.7"*
  call void @_ZN3WTF9HashTableINS_12AtomicStringENS_12KeyValuePairIS1_NS_6StringEEENS_24KeyValuePairKeyExtractorENS_16AtomicStringHashENS_18HashMapValueTraitsINS_10HashTraitsIS1_EENS8_IS3_EEEES9_NS_18PartitionAllocatorEE29DeleteAllBucketsAndDeallocateEPS4_j(%"struct.WTF::KeyValuePair.7"* nonnull %37, i32 %34) #9
  store atomic i64 0, i64* %29 monotonic, align 8
  store i32 0, i32* %8, align 8
  store i32 0, i32* %9, align 4
  br label %38

38:                                               ; preds = %28, %36
  %39 = getelementptr inbounds %"class.WTF::HashTable.5", %"class.WTF::HashTable.5"* %0, i64 0, i32 3
  %40 = load i32, i32* %39, align 8
  %41 = and i32 %40, -2147483648
  store i32 %41, i32* %39, align 8
  call void @llvm.lifetime.end.p0i8(i64 24, i8* nonnull %6) #9
  ret %"struct.WTF::KeyValuePair.7"* %33

42:                                               ; preds = %21, %60
  %43 = phi i64 [ %61, %60 ], [ %23, %21 ]
  %44 = phi i32 [ %62, %60 ], [ %13, %21 ]
  %45 = phi %"struct.WTF::KeyValuePair.7"* [ %63, %60 ], [ %22, %21 ]
  %46 = phi %"struct.WTF::KeyValuePair.7"* [ %64, %60 ], [ null, %21 ]
  %47 = phi i32 [ %65, %60 ], [ 0, %21 ]
  %48 = zext i32 %47 to i64
  %49 = getelementptr inbounds %"struct.WTF::KeyValuePair.7", %"struct.WTF::KeyValuePair.7"* %45, i64 %48
  %50 = bitcast %"struct.WTF::KeyValuePair.7"* %49 to i64*
  %51 = load i64, i64* %50, align 8
  switch i64 %51, label %52 [
    i64 -1, label %60
    i64 0, label %60
  ]

52:                                               ; preds = %42
  %53 = call %"struct.WTF::KeyValuePair.7"* @_ZN3WTF9HashTableINS_12AtomicStringENS_12KeyValuePairIS1_NS_6StringEEENS_24KeyValuePairKeyExtractorENS_16AtomicStringHashENS_18HashMapValueTraitsINS_10HashTraitsIS1_EENS8_IS3_EEEES9_NS_18PartitionAllocatorEE8ReinsertEOS4_(%"class.WTF::HashTable.5"* nonnull %5, %"struct.WTF::KeyValuePair.7"* dereferenceable(16) %49)
  %54 = load %"struct.WTF::KeyValuePair.7"*, %"struct.WTF::KeyValuePair.7"** %15, align 8
  %55 = getelementptr inbounds %"struct.WTF::KeyValuePair.7", %"struct.WTF::KeyValuePair.7"* %54, i64 %48
  %56 = icmp eq %"struct.WTF::KeyValuePair.7"* %55, %3
  %57 = select i1 %56, %"struct.WTF::KeyValuePair.7"* %53, %"struct.WTF::KeyValuePair.7"* %46
  %58 = load i32, i32* %12, align 8
  %59 = ptrtoint %"struct.WTF::KeyValuePair.7"* %54 to i64
  br label %60

60:                                               ; preds = %42, %42, %52
  %61 = phi i64 [ %43, %42 ], [ %59, %52 ], [ %43, %42 ]
  %62 = phi i32 [ %44, %42 ], [ %58, %52 ], [ %44, %42 ]
  %63 = phi %"struct.WTF::KeyValuePair.7"* [ %45, %42 ], [ %54, %52 ], [ %45, %42 ]
  %64 = phi %"struct.WTF::KeyValuePair.7"* [ %46, %42 ], [ %57, %52 ], [ %46, %42 ]
  %65 = add i32 %47, 1
  %66 = icmp eq i32 %65, %62
  br i1 %66, label %24, label %42
}

; Function Attrs: cold noreturn nounwind
declare void @llvm.trap() #5

declare i8* @_ZN3WTF18PartitionAllocator15AllocateBackingEmPKc(i64, i8*) local_unnamed_addr #3

; Function Attrs: argmemonly nounwind
declare void @llvm.memset.p0i8.i64(i8* nocapture writeonly, i8, i64, i1 immarg) #1

; Function Attrs: nounwind ssp uwtable
define linkonce_odr hidden %"struct.WTF::KeyValuePair.7"* @_ZN3WTF9HashTableINS_12AtomicStringENS_12KeyValuePairIS1_NS_6StringEEENS_24KeyValuePairKeyExtractorENS_16AtomicStringHashENS_18HashMapValueTraitsINS_10HashTraitsIS1_EENS8_IS3_EEEES9_NS_18PartitionAllocatorEE8ReinsertEOS4_(%"class.WTF::HashTable.5"*, %"struct.WTF::KeyValuePair.7"* dereferenceable(16)) local_unnamed_addr #0 comdat align 2 {
  %3 = getelementptr inbounds %"class.WTF::HashTable.5", %"class.WTF::HashTable.5"* %0, i64 0, i32 0
  %4 = load %"struct.WTF::KeyValuePair.7"*, %"struct.WTF::KeyValuePair.7"** %3, align 8
  %5 = getelementptr inbounds %"class.WTF::HashTable.5", %"class.WTF::HashTable.5"* %0, i64 0, i32 1
  %6 = load i32, i32* %5, align 8
  %7 = add i32 %6, -1
  %8 = zext i32 %7 to i64
  %9 = getelementptr inbounds %"struct.WTF::KeyValuePair.7", %"struct.WTF::KeyValuePair.7"* %1, i64 0, i32 0, i32 0, i32 0, i32 0
  %10 = load %"class.WTF::StringImpl"*, %"class.WTF::StringImpl"** %9, align 8
  %11 = getelementptr inbounds %"class.WTF::StringImpl", %"class.WTF::StringImpl"* %10, i64 0, i32 2, i32 0, i32 0, i32 0, i32 0, i32 0
  %12 = load atomic i32, i32* %11 monotonic, align 4
  %13 = lshr i32 %12, 8
  %14 = and i32 %13, %7
  %15 = zext i32 %14 to i64
  %16 = getelementptr inbounds %"struct.WTF::KeyValuePair.7", %"struct.WTF::KeyValuePair.7"* %4, i64 %15
  %17 = ptrtoint %"struct.WTF::KeyValuePair.7"* %16 to i64
  %18 = getelementptr inbounds %"struct.WTF::KeyValuePair.7", %"struct.WTF::KeyValuePair.7"* %16, i64 0, i32 0, i32 0, i32 0, i32 0
  %19 = load %"class.WTF::StringImpl"*, %"class.WTF::StringImpl"** %18, align 8
  %20 = icmp eq %"class.WTF::StringImpl"* %19, null
  br i1 %20, label %37, label %21

21:                                               ; preds = %2
  %22 = xor i32 %13, -1
  %23 = lshr i32 %12, 31
  %24 = add nsw i32 %23, %22
  %25 = shl i32 %24, 12
  %26 = xor i32 %25, %24
  %27 = lshr i32 %26, 7
  %28 = xor i32 %27, %26
  %29 = shl i32 %28, 2
  %30 = xor i32 %29, %28
  %31 = lshr i32 %30, 20
  %32 = xor i32 %31, %30
  %33 = or i32 %32, 1
  %34 = zext i32 %33 to i64
  br label %43

35:                                               ; preds = %55
  %36 = ptrtoint %"struct.WTF::KeyValuePair.7"* %61 to i64
  br label %37

37:                                               ; preds = %35, %2
  %38 = phi i64 [ %17, %2 ], [ %36, %35 ]
  %39 = phi %"struct.WTF::KeyValuePair.7"* [ null, %2 ], [ %56, %35 ]
  %40 = icmp eq %"struct.WTF::KeyValuePair.7"* %39, null
  %41 = ptrtoint %"struct.WTF::KeyValuePair.7"* %39 to i64
  %42 = select i1 %40, i64 %38, i64 %41
  br label %66

43:                                               ; preds = %55, %21
  %44 = phi %"struct.WTF::KeyValuePair.7"* [ null, %21 ], [ %56, %55 ]
  %45 = phi i64 [ %17, %21 ], [ %62, %55 ]
  %46 = phi %"struct.WTF::KeyValuePair.7"* [ %16, %21 ], [ %61, %55 ]
  %47 = phi i64 [ %15, %21 ], [ %60, %55 ]
  %48 = phi i64 [ 0, %21 ], [ %58, %55 ]
  %49 = bitcast %"struct.WTF::KeyValuePair.7"* %46 to i8**
  %50 = load i8*, i8** %49, align 8
  %51 = icmp eq i8* %50, inttoptr (i64 -1 to i8*)
  br i1 %51, label %55, label %52

52:                                               ; preds = %43
  %53 = bitcast i8* %50 to %"class.WTF::StringImpl"*
  %54 = icmp eq %"class.WTF::StringImpl"* %10, %53
  br i1 %54, label %66, label %55

55:                                               ; preds = %52, %43
  %56 = phi %"struct.WTF::KeyValuePair.7"* [ %44, %52 ], [ %46, %43 ]
  %57 = icmp eq i64 %48, 0
  %58 = select i1 %57, i64 %34, i64 %48
  %59 = add i64 %58, %47
  %60 = and i64 %59, %8
  %61 = getelementptr inbounds %"struct.WTF::KeyValuePair.7", %"struct.WTF::KeyValuePair.7"* %4, i64 %60
  %62 = ptrtoint %"struct.WTF::KeyValuePair.7"* %61 to i64
  %63 = getelementptr inbounds %"struct.WTF::KeyValuePair.7", %"struct.WTF::KeyValuePair.7"* %61, i64 0, i32 0, i32 0, i32 0, i32 0
  %64 = load %"class.WTF::StringImpl"*, %"class.WTF::StringImpl"** %63, align 8
  %65 = icmp eq %"class.WTF::StringImpl"* %64, null
  br i1 %65, label %35, label %43

66:                                               ; preds = %52, %37
  %67 = phi i64 [ %42, %37 ], [ %45, %52 ]
  %68 = inttoptr i64 %67 to %"struct.WTF::KeyValuePair.7"*
  %69 = getelementptr inbounds %"struct.WTF::KeyValuePair.7", %"struct.WTF::KeyValuePair.7"* %68, i64 0, i32 1, i32 0, i32 0
  %70 = load %"class.WTF::StringImpl"*, %"class.WTF::StringImpl"** %69, align 8
  %71 = icmp eq %"class.WTF::StringImpl"* %70, null
  br i1 %71, label %85, label %72

72:                                               ; preds = %66
  %73 = getelementptr inbounds %"class.WTF::StringImpl", %"class.WTF::StringImpl"* %70, i64 0, i32 2, i32 0, i32 0, i32 0, i32 0, i32 0
  %74 = load atomic i32, i32* %73 monotonic, align 4
  %75 = and i32 %74, 2
  %76 = icmp eq i32 %75, 0
  %77 = getelementptr inbounds %"class.WTF::StringImpl", %"class.WTF::StringImpl"* %70, i64 0, i32 0
  %78 = load i32, i32* %77, align 4
  br i1 %76, label %79, label %81

79:                                               ; preds = %72
  %80 = add i32 %78, -1
  store i32 %80, i32* %77, align 4
  br label %81

81:                                               ; preds = %79, %72
  %82 = phi i32 [ %80, %79 ], [ %78, %72 ]
  %83 = icmp eq i32 %82, 0
  br i1 %83, label %84, label %85

84:                                               ; preds = %81
  tail call void @_ZNK3WTF10StringImpl18DestroyIfNotStaticEv(%"class.WTF::StringImpl"* nonnull %70) #9
  br label %85

85:                                               ; preds = %84, %81, %66
  %86 = getelementptr inbounds %"struct.WTF::KeyValuePair.7", %"struct.WTF::KeyValuePair.7"* %68, i64 0, i32 0, i32 0, i32 0, i32 0
  %87 = load %"class.WTF::StringImpl"*, %"class.WTF::StringImpl"** %86, align 8
  %88 = icmp eq %"class.WTF::StringImpl"* %87, null
  br i1 %88, label %102, label %89

89:                                               ; preds = %85
  %90 = getelementptr inbounds %"class.WTF::StringImpl", %"class.WTF::StringImpl"* %87, i64 0, i32 2, i32 0, i32 0, i32 0, i32 0, i32 0
  %91 = load atomic i32, i32* %90 monotonic, align 4
  %92 = and i32 %91, 2
  %93 = icmp eq i32 %92, 0
  %94 = getelementptr inbounds %"class.WTF::StringImpl", %"class.WTF::StringImpl"* %87, i64 0, i32 0
  %95 = load i32, i32* %94, align 4
  br i1 %93, label %96, label %98

96:                                               ; preds = %89
  %97 = add i32 %95, -1
  store i32 %97, i32* %94, align 4
  br label %98

98:                                               ; preds = %96, %89
  %99 = phi i32 [ %97, %96 ], [ %95, %89 ]
  %100 = icmp eq i32 %99, 0
  br i1 %100, label %101, label %102

101:                                              ; preds = %98
  tail call void @_ZNK3WTF10StringImpl18DestroyIfNotStaticEv(%"class.WTF::StringImpl"* nonnull %87) #9
  br label %102

102:                                              ; preds = %85, %98, %101
  %103 = bitcast %"struct.WTF::KeyValuePair.7"* %1 to i64*
  %104 = load i64, i64* %103, align 8
  %105 = inttoptr i64 %67 to i64*
  store i64 %104, i64* %105, align 8
  store %"class.WTF::StringImpl"* null, %"class.WTF::StringImpl"** %9, align 8
  %106 = getelementptr inbounds %"struct.WTF::KeyValuePair.7", %"struct.WTF::KeyValuePair.7"* %68, i64 0, i32 1
  %107 = getelementptr inbounds %"struct.WTF::KeyValuePair.7", %"struct.WTF::KeyValuePair.7"* %1, i64 0, i32 1
  %108 = getelementptr inbounds %"class.WTF::String", %"class.WTF::String"* %107, i64 0, i32 0, i32 0
  %109 = bitcast %"class.WTF::String"* %107 to i64*
  %110 = load i64, i64* %109, align 8
  %111 = bitcast %"class.WTF::String"* %106 to i64*
  store i64 %110, i64* %111, align 8
  store %"class.WTF::StringImpl"* null, %"class.WTF::StringImpl"** %108, align 8
  ret %"struct.WTF::KeyValuePair.7"* %68
}

; Function Attrs: nounwind ssp uwtable
define linkonce_odr hidden void @_ZN3WTF9HashTableINS_12AtomicStringENS_12KeyValuePairIS1_NS_6StringEEENS_24KeyValuePairKeyExtractorENS_16AtomicStringHashENS_18HashMapValueTraitsINS_10HashTraitsIS1_EENS8_IS3_EEEES9_NS_18PartitionAllocatorEE29DeleteAllBucketsAndDeallocateEPS4_j(%"struct.WTF::KeyValuePair.7"*, i32) local_unnamed_addr #0 comdat align 2 {
  %3 = icmp eq i32 %1, 0
  br i1 %3, label %6, label %4

4:                                                ; preds = %2
  %5 = zext i32 %1 to i64
  br label %8

6:                                                ; preds = %48, %2
  %7 = bitcast %"struct.WTF::KeyValuePair.7"* %0 to i8*
  tail call void @_ZN3WTF18PartitionAllocator11FreeBackingEPv(i8* %7) #9
  ret void

8:                                                ; preds = %48, %4
  %9 = phi i64 [ 0, %4 ], [ %49, %48 ]
  %10 = getelementptr inbounds %"struct.WTF::KeyValuePair.7", %"struct.WTF::KeyValuePair.7"* %0, i64 %9
  %11 = bitcast %"struct.WTF::KeyValuePair.7"* %10 to i8**
  %12 = load i8*, i8** %11, align 8
  %13 = icmp eq i8* %12, inttoptr (i64 -1 to i8*)
  br i1 %13, label %48, label %14

14:                                               ; preds = %8
  %15 = getelementptr inbounds %"struct.WTF::KeyValuePair.7", %"struct.WTF::KeyValuePair.7"* %0, i64 %9, i32 1, i32 0, i32 0
  %16 = load %"class.WTF::StringImpl"*, %"class.WTF::StringImpl"** %15, align 8
  %17 = icmp eq %"class.WTF::StringImpl"* %16, null
  br i1 %17, label %31, label %18

18:                                               ; preds = %14
  %19 = getelementptr inbounds %"class.WTF::StringImpl", %"class.WTF::StringImpl"* %16, i64 0, i32 2, i32 0, i32 0, i32 0, i32 0, i32 0
  %20 = load atomic i32, i32* %19 monotonic, align 4
  %21 = and i32 %20, 2
  %22 = icmp eq i32 %21, 0
  %23 = getelementptr inbounds %"class.WTF::StringImpl", %"class.WTF::StringImpl"* %16, i64 0, i32 0
  %24 = load i32, i32* %23, align 4
  br i1 %22, label %25, label %27

25:                                               ; preds = %18
  %26 = add i32 %24, -1
  store i32 %26, i32* %23, align 4
  br label %27

27:                                               ; preds = %25, %18
  %28 = phi i32 [ %26, %25 ], [ %24, %18 ]
  %29 = icmp eq i32 %28, 0
  br i1 %29, label %30, label %31

30:                                               ; preds = %27
  tail call void @_ZNK3WTF10StringImpl18DestroyIfNotStaticEv(%"class.WTF::StringImpl"* nonnull %16) #9
  br label %31

31:                                               ; preds = %30, %27, %14
  %32 = getelementptr inbounds %"struct.WTF::KeyValuePair.7", %"struct.WTF::KeyValuePair.7"* %10, i64 0, i32 0, i32 0, i32 0, i32 0
  %33 = load %"class.WTF::StringImpl"*, %"class.WTF::StringImpl"** %32, align 8
  %34 = icmp eq %"class.WTF::StringImpl"* %33, null
  br i1 %34, label %48, label %35

35:                                               ; preds = %31
  %36 = getelementptr inbounds %"class.WTF::StringImpl", %"class.WTF::StringImpl"* %33, i64 0, i32 2, i32 0, i32 0, i32 0, i32 0, i32 0
  %37 = load atomic i32, i32* %36 monotonic, align 4
  %38 = and i32 %37, 2
  %39 = icmp eq i32 %38, 0
  %40 = getelementptr inbounds %"class.WTF::StringImpl", %"class.WTF::StringImpl"* %33, i64 0, i32 0
  %41 = load i32, i32* %40, align 4
  br i1 %39, label %42, label %44

42:                                               ; preds = %35
  %43 = add i32 %41, -1
  store i32 %43, i32* %40, align 4
  br label %44

44:                                               ; preds = %42, %35
  %45 = phi i32 [ %43, %42 ], [ %41, %35 ]
  %46 = icmp eq i32 %45, 0
  br i1 %46, label %47, label %48

47:                                               ; preds = %44
  tail call void @_ZNK3WTF10StringImpl18DestroyIfNotStaticEv(%"class.WTF::StringImpl"* nonnull %33) #9
  br label %48

48:                                               ; preds = %47, %44, %31, %8
  %49 = add nuw nsw i64 %9, 1
  %50 = icmp eq i64 %49, %5
  br i1 %50, label %6, label %8
}

declare void @_ZN3WTF18PartitionAllocator11FreeBackingEPv(i8*) local_unnamed_addr #3

; Function Attrs: argmemonly nofree nounwind readonly
declare i64 @strlen(i8* nocapture) local_unnamed_addr #6

declare void @_ZN3WTF12AtomicStringC2EPKhm(%"class.WTF::AtomicString"*, i8*, i64) unnamed_addr #3

declare void @_ZNK3WTF10StringImpl18DestroyIfNotStaticEv(%"class.WTF::StringImpl"*) local_unnamed_addr #3

declare void @_ZN3WTF6StringC2EPKcm(%"class.WTF::String"*, i8*, i64) unnamed_addr #3

; Function Attrs: nounwind ssp uwtable
define linkonce_odr hidden void @_ZN3WTF17GenericHashTraitsINS_6StringEE5StoreIRA49_KcEEvOT_RS1_([49 x i8]* dereferenceable(49), %"class.WTF::String"* dereferenceable(8)) local_unnamed_addr #0 comdat align 2 {
  %3 = alloca %"class.WTF::String", align 8
  %4 = bitcast %"class.WTF::String"* %3 to i8*
  call void @llvm.lifetime.start.p0i8(i64 8, i8* nonnull %4) #9
  %5 = getelementptr inbounds [49 x i8], [49 x i8]* %0, i64 0, i64 0
  %6 = icmp eq [49 x i8]* %0, null
  br i1 %6, label %9, label %7

7:                                                ; preds = %2
  %8 = tail call i64 @strlen(i8* nonnull %5) #10
  br label %9

9:                                                ; preds = %2, %7
  %10 = phi i64 [ %8, %7 ], [ 0, %2 ]
  call void @_ZN3WTF6StringC2EPKcm(%"class.WTF::String"* nonnull %3, i8* %5, i64 %10) #9
  %11 = getelementptr inbounds %"class.WTF::String", %"class.WTF::String"* %3, i64 0, i32 0, i32 0
  %12 = bitcast %"class.WTF::String"* %3 to i64*
  %13 = load i64, i64* %12, align 8
  store %"class.WTF::StringImpl"* null, %"class.WTF::StringImpl"** %11, align 8
  %14 = bitcast %"class.WTF::String"* %1 to i64*
  %15 = getelementptr inbounds %"class.WTF::String", %"class.WTF::String"* %1, i64 0, i32 0, i32 0
  %16 = load %"class.WTF::StringImpl"*, %"class.WTF::StringImpl"** %15, align 8
  store i64 %13, i64* %14, align 8
  %17 = icmp eq %"class.WTF::StringImpl"* %16, null
  br i1 %17, label %31, label %18

18:                                               ; preds = %9
  %19 = getelementptr inbounds %"class.WTF::StringImpl", %"class.WTF::StringImpl"* %16, i64 0, i32 2, i32 0, i32 0, i32 0, i32 0, i32 0
  %20 = load atomic i32, i32* %19 monotonic, align 4
  %21 = and i32 %20, 2
  %22 = icmp eq i32 %21, 0
  %23 = getelementptr inbounds %"class.WTF::StringImpl", %"class.WTF::StringImpl"* %16, i64 0, i32 0
  %24 = load i32, i32* %23, align 4
  br i1 %22, label %25, label %27

25:                                               ; preds = %18
  %26 = add i32 %24, -1
  store i32 %26, i32* %23, align 4
  br label %27

27:                                               ; preds = %25, %18
  %28 = phi i32 [ %26, %25 ], [ %24, %18 ]
  %29 = icmp eq i32 %28, 0
  br i1 %29, label %30, label %31

30:                                               ; preds = %27
  call void @_ZNK3WTF10StringImpl18DestroyIfNotStaticEv(%"class.WTF::StringImpl"* nonnull %16) #9
  br label %31

31:                                               ; preds = %9, %27, %30
  %32 = load %"class.WTF::StringImpl"*, %"class.WTF::StringImpl"** %11, align 8
  %33 = icmp eq %"class.WTF::StringImpl"* %32, null
  br i1 %33, label %47, label %34

34:                                               ; preds = %31
  %35 = getelementptr inbounds %"class.WTF::StringImpl", %"class.WTF::StringImpl"* %32, i64 0, i32 2, i32 0, i32 0, i32 0, i32 0, i32 0
  %36 = load atomic i32, i32* %35 monotonic, align 4
  %37 = and i32 %36, 2
  %38 = icmp eq i32 %37, 0
  %39 = getelementptr inbounds %"class.WTF::StringImpl", %"class.WTF::StringImpl"* %32, i64 0, i32 0
  %40 = load i32, i32* %39, align 4
  br i1 %38, label %41, label %43

41:                                               ; preds = %34
  %42 = add i32 %40, -1
  store i32 %42, i32* %39, align 4
  br label %43

43:                                               ; preds = %41, %34
  %44 = phi i32 [ %42, %41 ], [ %40, %34 ]
  %45 = icmp eq i32 %44, 0
  br i1 %45, label %46, label %47

46:                                               ; preds = %43
  call void @_ZNK3WTF10StringImpl18DestroyIfNotStaticEv(%"class.WTF::StringImpl"* nonnull %32) #9
  br label %47

47:                                               ; preds = %31, %43, %46
  call void @llvm.lifetime.end.p0i8(i64 8, i8* nonnull %4) #9
  ret void
}

; Function Attrs: nounwind ssp uwtable
define linkonce_odr hidden { %"struct.WTF::KeyValuePair.7"*, i8 } @_ZN3WTF9HashTableINS_12AtomicStringENS_12KeyValuePairIS1_NS_6StringEEENS_24KeyValuePairKeyExtractorENS_16AtomicStringHashENS_18HashMapValueTraitsINS_10HashTraitsIS1_EENS8_IS3_EEEES9_NS_18PartitionAllocatorEE6insertINS_17HashMapTranslatorISB_S6_SC_EERA21_KcRA49_SH_EENS_18HashTableAddResultISD_S4_EEOT0_OT1_(%"class.WTF::HashTable.5"*, [21 x i8]* dereferenceable(21), [49 x i8]* dereferenceable(49)) local_unnamed_addr #0 comdat align 2 {
  %4 = alloca %"class.WTF::AtomicString", align 8
  %5 = alloca %"class.WTF::AtomicString", align 8
  %6 = getelementptr inbounds %"class.WTF::HashTable.5", %"class.WTF::HashTable.5"* %0, i64 0, i32 0
  %7 = load %"struct.WTF::KeyValuePair.7"*, %"struct.WTF::KeyValuePair.7"** %6, align 8
  %8 = icmp eq %"struct.WTF::KeyValuePair.7"* %7, null
  br i1 %8, label %9, label %12

9:                                                ; preds = %3
  %10 = tail call %"struct.WTF::KeyValuePair.7"* @_ZN3WTF9HashTableINS_12AtomicStringENS_12KeyValuePairIS1_NS_6StringEEENS_24KeyValuePairKeyExtractorENS_16AtomicStringHashENS_18HashMapValueTraitsINS_10HashTraitsIS1_EENS8_IS3_EEEES9_NS_18PartitionAllocatorEE6ExpandEPS4_(%"class.WTF::HashTable.5"* %0, %"struct.WTF::KeyValuePair.7"* null)
  %11 = load %"struct.WTF::KeyValuePair.7"*, %"struct.WTF::KeyValuePair.7"** %6, align 8
  br label %12

12:                                               ; preds = %3, %9
  %13 = phi %"struct.WTF::KeyValuePair.7"* [ %7, %3 ], [ %11, %9 ]
  %14 = getelementptr inbounds %"class.WTF::HashTable.5", %"class.WTF::HashTable.5"* %0, i64 0, i32 1
  %15 = load i32, i32* %14, align 8
  %16 = add i32 %15, -1
  %17 = zext i32 %16 to i64
  %18 = bitcast %"class.WTF::AtomicString"* %5 to i8*
  call void @llvm.lifetime.start.p0i8(i64 8, i8* nonnull %18) #9
  %19 = getelementptr inbounds [21 x i8], [21 x i8]* %1, i64 0, i64 0
  %20 = icmp eq [21 x i8]* %1, null
  br i1 %20, label %23, label %21

21:                                               ; preds = %12
  %22 = tail call i64 @strlen(i8* nonnull %19) #10
  br label %23

23:                                               ; preds = %21, %12
  %24 = phi i64 [ %22, %21 ], [ 0, %12 ]
  call void @_ZN3WTF12AtomicStringC2EPKhm(%"class.WTF::AtomicString"* nonnull %5, i8* %19, i64 %24) #9
  %25 = getelementptr inbounds %"class.WTF::AtomicString", %"class.WTF::AtomicString"* %5, i64 0, i32 0, i32 0, i32 0
  %26 = load %"class.WTF::StringImpl"*, %"class.WTF::StringImpl"** %25, align 8
  %27 = getelementptr inbounds %"class.WTF::StringImpl", %"class.WTF::StringImpl"* %26, i64 0, i32 2, i32 0, i32 0, i32 0, i32 0, i32 0
  %28 = load atomic i32, i32* %27 monotonic, align 4
  %29 = lshr i32 %28, 8
  %30 = icmp eq %"class.WTF::StringImpl"* %26, null
  br i1 %30, label %43, label %31

31:                                               ; preds = %23
  %32 = load atomic i32, i32* %27 monotonic, align 4
  %33 = and i32 %32, 2
  %34 = icmp eq i32 %33, 0
  %35 = getelementptr inbounds %"class.WTF::StringImpl", %"class.WTF::StringImpl"* %26, i64 0, i32 0
  %36 = load i32, i32* %35, align 4
  br i1 %34, label %37, label %39

37:                                               ; preds = %31
  %38 = add i32 %36, -1
  store i32 %38, i32* %35, align 4
  br label %39

39:                                               ; preds = %37, %31
  %40 = phi i32 [ %38, %37 ], [ %36, %31 ]
  %41 = icmp eq i32 %40, 0
  br i1 %41, label %42, label %43

42:                                               ; preds = %39
  call void @_ZNK3WTF10StringImpl18DestroyIfNotStaticEv(%"class.WTF::StringImpl"* nonnull %26) #9
  br label %43

43:                                               ; preds = %23, %39, %42
  call void @llvm.lifetime.end.p0i8(i64 8, i8* nonnull %18) #9
  %44 = and i32 %29, %16
  %45 = zext i32 %44 to i64
  %46 = getelementptr inbounds %"struct.WTF::KeyValuePair.7", %"struct.WTF::KeyValuePair.7"* %13, i64 %45
  %47 = getelementptr inbounds %"struct.WTF::KeyValuePair.7", %"struct.WTF::KeyValuePair.7"* %46, i64 0, i32 0, i32 0, i32 0, i32 0
  %48 = load %"class.WTF::StringImpl"*, %"class.WTF::StringImpl"** %47, align 8
  %49 = icmp eq %"class.WTF::StringImpl"* %48, null
  br i1 %49, label %118, label %50

50:                                               ; preds = %43
  %51 = bitcast %"class.WTF::AtomicString"* %4 to i8*
  %52 = getelementptr inbounds %"class.WTF::AtomicString", %"class.WTF::AtomicString"* %4, i64 0, i32 0, i32 0, i32 0
  %53 = xor i32 %29, -1
  %54 = lshr i32 %28, 31
  %55 = add nsw i32 %54, %53
  %56 = shl i32 %55, 12
  %57 = xor i32 %56, %55
  %58 = lshr i32 %57, 7
  %59 = xor i32 %58, %57
  %60 = shl i32 %59, 2
  %61 = xor i32 %60, %59
  %62 = lshr i32 %61, 20
  %63 = xor i32 %62, %61
  %64 = or i32 %63, 1
  %65 = zext i32 %64 to i64
  br label %66

66:                                               ; preds = %50, %98
  %67 = phi %"struct.WTF::KeyValuePair.7"* [ %46, %50 ], [ %104, %98 ]
  %68 = phi %"struct.WTF::KeyValuePair.7"* [ null, %50 ], [ %99, %98 ]
  %69 = phi i64 [ %45, %50 ], [ %103, %98 ]
  %70 = phi i64 [ 0, %50 ], [ %101, %98 ]
  %71 = bitcast %"struct.WTF::KeyValuePair.7"* %67 to i8**
  %72 = load i8*, i8** %71, align 8
  %73 = icmp eq i8* %72, inttoptr (i64 -1 to i8*)
  br i1 %73, label %98, label %74

74:                                               ; preds = %66
  call void @llvm.lifetime.start.p0i8(i64 8, i8* nonnull %51) #9
  br i1 %20, label %77, label %75

75:                                               ; preds = %74
  %76 = call i64 @strlen(i8* nonnull %19) #10
  br label %77

77:                                               ; preds = %75, %74
  %78 = phi i64 [ %76, %75 ], [ 0, %74 ]
  call void @_ZN3WTF12AtomicStringC2EPKhm(%"class.WTF::AtomicString"* nonnull %4, i8* %19, i64 %78) #9
  %79 = getelementptr inbounds %"struct.WTF::KeyValuePair.7", %"struct.WTF::KeyValuePair.7"* %67, i64 0, i32 0, i32 0, i32 0, i32 0
  %80 = load %"class.WTF::StringImpl"*, %"class.WTF::StringImpl"** %79, align 8
  %81 = load %"class.WTF::StringImpl"*, %"class.WTF::StringImpl"** %52, align 8
  %82 = icmp eq %"class.WTF::StringImpl"* %80, %81
  %83 = icmp eq %"class.WTF::StringImpl"* %81, null
  br i1 %83, label %97, label %84

84:                                               ; preds = %77
  %85 = getelementptr inbounds %"class.WTF::StringImpl", %"class.WTF::StringImpl"* %81, i64 0, i32 2, i32 0, i32 0, i32 0, i32 0, i32 0
  %86 = load atomic i32, i32* %85 monotonic, align 4
  %87 = and i32 %86, 2
  %88 = icmp eq i32 %87, 0
  %89 = getelementptr inbounds %"class.WTF::StringImpl", %"class.WTF::StringImpl"* %81, i64 0, i32 0
  %90 = load i32, i32* %89, align 4
  br i1 %88, label %91, label %93

91:                                               ; preds = %84
  %92 = add i32 %90, -1
  store i32 %92, i32* %89, align 4
  br label %93

93:                                               ; preds = %91, %84
  %94 = phi i32 [ %92, %91 ], [ %90, %84 ]
  %95 = icmp eq i32 %94, 0
  br i1 %95, label %96, label %97

96:                                               ; preds = %93
  call void @_ZNK3WTF10StringImpl18DestroyIfNotStaticEv(%"class.WTF::StringImpl"* nonnull %81) #9
  br label %97

97:                                               ; preds = %77, %93, %96
  call void @llvm.lifetime.end.p0i8(i64 8, i8* nonnull %51) #9
  br i1 %82, label %131, label %98

98:                                               ; preds = %66, %97
  %99 = phi %"struct.WTF::KeyValuePair.7"* [ %68, %97 ], [ %67, %66 ]
  %100 = icmp eq i64 %70, 0
  %101 = select i1 %100, i64 %65, i64 %70
  %102 = add i64 %101, %69
  %103 = and i64 %102, %17
  %104 = getelementptr inbounds %"struct.WTF::KeyValuePair.7", %"struct.WTF::KeyValuePair.7"* %13, i64 %103
  %105 = getelementptr inbounds %"struct.WTF::KeyValuePair.7", %"struct.WTF::KeyValuePair.7"* %104, i64 0, i32 0, i32 0, i32 0, i32 0
  %106 = load %"class.WTF::StringImpl"*, %"class.WTF::StringImpl"** %105, align 8
  %107 = icmp eq %"class.WTF::StringImpl"* %106, null
  br i1 %107, label %108, label %66

108:                                              ; preds = %98
  %109 = icmp eq %"struct.WTF::KeyValuePair.7"* %99, null
  br i1 %109, label %118, label %110

110:                                              ; preds = %108
  %111 = bitcast %"struct.WTF::KeyValuePair.7"* %99 to i8*
  call void @llvm.memset.p0i8.i64(i8* nonnull align 8 %111, i8 0, i64 16, i1 false) #9
  %112 = getelementptr inbounds %"class.WTF::HashTable.5", %"class.WTF::HashTable.5"* %0, i64 0, i32 3
  %113 = load i32, i32* %112, align 8
  %114 = add i32 %113, 2147483647
  %115 = and i32 %114, 2147483647
  %116 = and i32 %113, -2147483648
  %117 = or i32 %115, %116
  store i32 %117, i32* %112, align 8
  br label %118

118:                                              ; preds = %43, %108, %110
  %119 = phi %"struct.WTF::KeyValuePair.7"* [ %99, %110 ], [ %104, %108 ], [ %46, %43 ]
  call void @_ZN3WTF17HashMapTranslatorINS_18HashMapValueTraitsINS_10HashTraitsINS_12AtomicStringEEENS2_INS_6StringEEEEENS_16AtomicStringHashENS_18PartitionAllocatorEE9TranslateINS_12KeyValuePairIS3_S5_EERA21_KcRA49_SE_EEvRT_OT0_OT1_(%"struct.WTF::KeyValuePair.7"* dereferenceable(16) %119, [21 x i8]* dereferenceable(21) %1, [49 x i8]* dereferenceable(49) %2)
  %120 = getelementptr inbounds %"class.WTF::HashTable.5", %"class.WTF::HashTable.5"* %0, i64 0, i32 2
  %121 = load i32, i32* %120, align 4
  %122 = add i32 %121, 1
  store i32 %122, i32* %120, align 4
  %123 = getelementptr inbounds %"class.WTF::HashTable.5", %"class.WTF::HashTable.5"* %0, i64 0, i32 3
  %124 = load i32, i32* %123, align 8
  %125 = add i32 %124, %122
  %126 = shl i32 %125, 1
  %127 = load i32, i32* %14, align 8
  %128 = icmp ult i32 %126, %127
  br i1 %128, label %131, label %129

129:                                              ; preds = %118
  %130 = call %"struct.WTF::KeyValuePair.7"* @_ZN3WTF9HashTableINS_12AtomicStringENS_12KeyValuePairIS1_NS_6StringEEENS_24KeyValuePairKeyExtractorENS_16AtomicStringHashENS_18HashMapValueTraitsINS_10HashTraitsIS1_EENS8_IS3_EEEES9_NS_18PartitionAllocatorEE6ExpandEPS4_(%"class.WTF::HashTable.5"* %0, %"struct.WTF::KeyValuePair.7"* %119)
  br label %131

131:                                              ; preds = %97, %118, %129
  %132 = phi i8 [ 1, %118 ], [ 1, %129 ], [ 0, %97 ]
  %133 = phi %"struct.WTF::KeyValuePair.7"* [ %119, %118 ], [ %130, %129 ], [ %67, %97 ]
  %134 = insertvalue { %"struct.WTF::KeyValuePair.7"*, i8 } undef, %"struct.WTF::KeyValuePair.7"* %133, 0
  %135 = insertvalue { %"struct.WTF::KeyValuePair.7"*, i8 } %134, i8 %132, 1
  ret { %"struct.WTF::KeyValuePair.7"*, i8 } %135
}

; Function Attrs: nounwind ssp uwtable
define linkonce_odr hidden void @_ZN3WTF17HashMapTranslatorINS_18HashMapValueTraitsINS_10HashTraitsINS_12AtomicStringEEENS2_INS_6StringEEEEENS_16AtomicStringHashENS_18PartitionAllocatorEE9TranslateINS_12KeyValuePairIS3_S5_EERA21_KcRA49_SE_EEvRT_OT0_OT1_(%"struct.WTF::KeyValuePair.7"* dereferenceable(16), [21 x i8]* dereferenceable(21), [49 x i8]* dereferenceable(49)) local_unnamed_addr #0 comdat align 2 {
  %4 = alloca %"class.WTF::AtomicString", align 8
  %5 = bitcast %"class.WTF::AtomicString"* %4 to i8*
  call void @llvm.lifetime.start.p0i8(i64 8, i8* nonnull %5) #9
  %6 = getelementptr inbounds [21 x i8], [21 x i8]* %1, i64 0, i64 0
  %7 = icmp eq [21 x i8]* %1, null
  br i1 %7, label %10, label %8

8:                                                ; preds = %3
  %9 = tail call i64 @strlen(i8* nonnull %6) #10
  br label %10

10:                                               ; preds = %3, %8
  %11 = phi i64 [ %9, %8 ], [ 0, %3 ]
  call void @_ZN3WTF12AtomicStringC2EPKhm(%"class.WTF::AtomicString"* nonnull %4, i8* %6, i64 %11) #9
  %12 = getelementptr inbounds %"class.WTF::AtomicString", %"class.WTF::AtomicString"* %4, i64 0, i32 0, i32 0, i32 0
  %13 = bitcast %"class.WTF::AtomicString"* %4 to i64*
  %14 = load i64, i64* %13, align 8
  store %"class.WTF::StringImpl"* null, %"class.WTF::StringImpl"** %12, align 8
  %15 = bitcast %"struct.WTF::KeyValuePair.7"* %0 to i64*
  %16 = getelementptr inbounds %"struct.WTF::KeyValuePair.7", %"struct.WTF::KeyValuePair.7"* %0, i64 0, i32 0, i32 0, i32 0, i32 0
  %17 = load %"class.WTF::StringImpl"*, %"class.WTF::StringImpl"** %16, align 8
  store i64 %14, i64* %15, align 8
  %18 = icmp eq %"class.WTF::StringImpl"* %17, null
  br i1 %18, label %32, label %19

19:                                               ; preds = %10
  %20 = getelementptr inbounds %"class.WTF::StringImpl", %"class.WTF::StringImpl"* %17, i64 0, i32 2, i32 0, i32 0, i32 0, i32 0, i32 0
  %21 = load atomic i32, i32* %20 monotonic, align 4
  %22 = and i32 %21, 2
  %23 = icmp eq i32 %22, 0
  %24 = getelementptr inbounds %"class.WTF::StringImpl", %"class.WTF::StringImpl"* %17, i64 0, i32 0
  %25 = load i32, i32* %24, align 4
  br i1 %23, label %26, label %28

26:                                               ; preds = %19
  %27 = add i32 %25, -1
  store i32 %27, i32* %24, align 4
  br label %28

28:                                               ; preds = %26, %19
  %29 = phi i32 [ %27, %26 ], [ %25, %19 ]
  %30 = icmp eq i32 %29, 0
  br i1 %30, label %31, label %32

31:                                               ; preds = %28
  call void @_ZNK3WTF10StringImpl18DestroyIfNotStaticEv(%"class.WTF::StringImpl"* nonnull %17) #9
  br label %32

32:                                               ; preds = %10, %28, %31
  %33 = load %"class.WTF::StringImpl"*, %"class.WTF::StringImpl"** %12, align 8
  %34 = icmp eq %"class.WTF::StringImpl"* %33, null
  br i1 %34, label %48, label %35

35:                                               ; preds = %32
  %36 = getelementptr inbounds %"class.WTF::StringImpl", %"class.WTF::StringImpl"* %33, i64 0, i32 2, i32 0, i32 0, i32 0, i32 0, i32 0
  %37 = load atomic i32, i32* %36 monotonic, align 4
  %38 = and i32 %37, 2
  %39 = icmp eq i32 %38, 0
  %40 = getelementptr inbounds %"class.WTF::StringImpl", %"class.WTF::StringImpl"* %33, i64 0, i32 0
  %41 = load i32, i32* %40, align 4
  br i1 %39, label %42, label %44

42:                                               ; preds = %35
  %43 = add i32 %41, -1
  store i32 %43, i32* %40, align 4
  br label %44

44:                                               ; preds = %42, %35
  %45 = phi i32 [ %43, %42 ], [ %41, %35 ]
  %46 = icmp eq i32 %45, 0
  br i1 %46, label %47, label %48

47:                                               ; preds = %44
  call void @_ZNK3WTF10StringImpl18DestroyIfNotStaticEv(%"class.WTF::StringImpl"* nonnull %33) #9
  br label %48

48:                                               ; preds = %32, %44, %47
  call void @llvm.lifetime.end.p0i8(i64 8, i8* nonnull %5) #9
  %49 = getelementptr inbounds %"struct.WTF::KeyValuePair.7", %"struct.WTF::KeyValuePair.7"* %0, i64 0, i32 1
  call void @_ZN3WTF17GenericHashTraitsINS_6StringEE5StoreIRA49_KcEEvOT_RS1_([49 x i8]* dereferenceable(49) %2, %"class.WTF::String"* dereferenceable(8) %49)
  ret void
}

; Function Attrs: nounwind ssp uwtable
define linkonce_odr hidden void @_ZN3WTF17GenericHashTraitsINS_6StringEE5StoreIRA109_KcEEvOT_RS1_([109 x i8]* dereferenceable(109), %"class.WTF::String"* dereferenceable(8)) local_unnamed_addr #0 comdat align 2 {
  %3 = alloca %"class.WTF::String", align 8
  %4 = bitcast %"class.WTF::String"* %3 to i8*
  call void @llvm.lifetime.start.p0i8(i64 8, i8* nonnull %4) #9
  %5 = getelementptr inbounds [109 x i8], [109 x i8]* %0, i64 0, i64 0
  %6 = icmp eq [109 x i8]* %0, null
  br i1 %6, label %9, label %7

7:                                                ; preds = %2
  %8 = tail call i64 @strlen(i8* nonnull %5) #10
  br label %9

9:                                                ; preds = %2, %7
  %10 = phi i64 [ %8, %7 ], [ 0, %2 ]
  call void @_ZN3WTF6StringC2EPKcm(%"class.WTF::String"* nonnull %3, i8* %5, i64 %10) #9
  %11 = getelementptr inbounds %"class.WTF::String", %"class.WTF::String"* %3, i64 0, i32 0, i32 0
  %12 = bitcast %"class.WTF::String"* %3 to i64*
  %13 = load i64, i64* %12, align 8
  store %"class.WTF::StringImpl"* null, %"class.WTF::StringImpl"** %11, align 8
  %14 = bitcast %"class.WTF::String"* %1 to i64*
  %15 = getelementptr inbounds %"class.WTF::String", %"class.WTF::String"* %1, i64 0, i32 0, i32 0
  %16 = load %"class.WTF::StringImpl"*, %"class.WTF::StringImpl"** %15, align 8
  store i64 %13, i64* %14, align 8
  %17 = icmp eq %"class.WTF::StringImpl"* %16, null
  br i1 %17, label %31, label %18

18:                                               ; preds = %9
  %19 = getelementptr inbounds %"class.WTF::StringImpl", %"class.WTF::StringImpl"* %16, i64 0, i32 2, i32 0, i32 0, i32 0, i32 0, i32 0
  %20 = load atomic i32, i32* %19 monotonic, align 4
  %21 = and i32 %20, 2
  %22 = icmp eq i32 %21, 0
  %23 = getelementptr inbounds %"class.WTF::StringImpl", %"class.WTF::StringImpl"* %16, i64 0, i32 0
  %24 = load i32, i32* %23, align 4
  br i1 %22, label %25, label %27

25:                                               ; preds = %18
  %26 = add i32 %24, -1
  store i32 %26, i32* %23, align 4
  br label %27

27:                                               ; preds = %25, %18
  %28 = phi i32 [ %26, %25 ], [ %24, %18 ]
  %29 = icmp eq i32 %28, 0
  br i1 %29, label %30, label %31

30:                                               ; preds = %27
  call void @_ZNK3WTF10StringImpl18DestroyIfNotStaticEv(%"class.WTF::StringImpl"* nonnull %16) #9
  br label %31

31:                                               ; preds = %9, %27, %30
  %32 = load %"class.WTF::StringImpl"*, %"class.WTF::StringImpl"** %11, align 8
  %33 = icmp eq %"class.WTF::StringImpl"* %32, null
  br i1 %33, label %47, label %34

34:                                               ; preds = %31
  %35 = getelementptr inbounds %"class.WTF::StringImpl", %"class.WTF::StringImpl"* %32, i64 0, i32 2, i32 0, i32 0, i32 0, i32 0, i32 0
  %36 = load atomic i32, i32* %35 monotonic, align 4
  %37 = and i32 %36, 2
  %38 = icmp eq i32 %37, 0
  %39 = getelementptr inbounds %"class.WTF::StringImpl", %"class.WTF::StringImpl"* %32, i64 0, i32 0
  %40 = load i32, i32* %39, align 4
  br i1 %38, label %41, label %43

41:                                               ; preds = %34
  %42 = add i32 %40, -1
  store i32 %42, i32* %39, align 4
  br label %43

43:                                               ; preds = %41, %34
  %44 = phi i32 [ %42, %41 ], [ %40, %34 ]
  %45 = icmp eq i32 %44, 0
  br i1 %45, label %46, label %47

46:                                               ; preds = %43
  call void @_ZNK3WTF10StringImpl18DestroyIfNotStaticEv(%"class.WTF::StringImpl"* nonnull %32) #9
  br label %47

47:                                               ; preds = %31, %43, %46
  call void @llvm.lifetime.end.p0i8(i64 8, i8* nonnull %4) #9
  ret void
}

; Function Attrs: nounwind ssp uwtable
define linkonce_odr hidden { %"struct.WTF::KeyValuePair.7"*, i8 } @_ZN3WTF9HashTableINS_12AtomicStringENS_12KeyValuePairIS1_NS_6StringEEENS_24KeyValuePairKeyExtractorENS_16AtomicStringHashENS_18HashMapValueTraitsINS_10HashTraitsIS1_EENS8_IS3_EEEES9_NS_18PartitionAllocatorEE6insertINS_17HashMapTranslatorISB_S6_SC_EERA13_KcRA109_SH_EENS_18HashTableAddResultISD_S4_EEOT0_OT1_(%"class.WTF::HashTable.5"*, [13 x i8]* dereferenceable(13), [109 x i8]* dereferenceable(109)) local_unnamed_addr #0 comdat align 2 {
  %4 = alloca %"class.WTF::AtomicString", align 8
  %5 = alloca %"class.WTF::AtomicString", align 8
  %6 = getelementptr inbounds %"class.WTF::HashTable.5", %"class.WTF::HashTable.5"* %0, i64 0, i32 0
  %7 = load %"struct.WTF::KeyValuePair.7"*, %"struct.WTF::KeyValuePair.7"** %6, align 8
  %8 = icmp eq %"struct.WTF::KeyValuePair.7"* %7, null
  br i1 %8, label %9, label %12

9:                                                ; preds = %3
  %10 = tail call %"struct.WTF::KeyValuePair.7"* @_ZN3WTF9HashTableINS_12AtomicStringENS_12KeyValuePairIS1_NS_6StringEEENS_24KeyValuePairKeyExtractorENS_16AtomicStringHashENS_18HashMapValueTraitsINS_10HashTraitsIS1_EENS8_IS3_EEEES9_NS_18PartitionAllocatorEE6ExpandEPS4_(%"class.WTF::HashTable.5"* %0, %"struct.WTF::KeyValuePair.7"* null)
  %11 = load %"struct.WTF::KeyValuePair.7"*, %"struct.WTF::KeyValuePair.7"** %6, align 8
  br label %12

12:                                               ; preds = %3, %9
  %13 = phi %"struct.WTF::KeyValuePair.7"* [ %7, %3 ], [ %11, %9 ]
  %14 = getelementptr inbounds %"class.WTF::HashTable.5", %"class.WTF::HashTable.5"* %0, i64 0, i32 1
  %15 = load i32, i32* %14, align 8
  %16 = add i32 %15, -1
  %17 = zext i32 %16 to i64
  %18 = bitcast %"class.WTF::AtomicString"* %5 to i8*
  call void @llvm.lifetime.start.p0i8(i64 8, i8* nonnull %18) #9
  %19 = getelementptr inbounds [13 x i8], [13 x i8]* %1, i64 0, i64 0
  %20 = icmp eq [13 x i8]* %1, null
  br i1 %20, label %23, label %21

21:                                               ; preds = %12
  %22 = tail call i64 @strlen(i8* nonnull %19) #10
  br label %23

23:                                               ; preds = %21, %12
  %24 = phi i64 [ %22, %21 ], [ 0, %12 ]
  call void @_ZN3WTF12AtomicStringC2EPKhm(%"class.WTF::AtomicString"* nonnull %5, i8* %19, i64 %24) #9
  %25 = getelementptr inbounds %"class.WTF::AtomicString", %"class.WTF::AtomicString"* %5, i64 0, i32 0, i32 0, i32 0
  %26 = load %"class.WTF::StringImpl"*, %"class.WTF::StringImpl"** %25, align 8
  %27 = getelementptr inbounds %"class.WTF::StringImpl", %"class.WTF::StringImpl"* %26, i64 0, i32 2, i32 0, i32 0, i32 0, i32 0, i32 0
  %28 = load atomic i32, i32* %27 monotonic, align 4
  %29 = lshr i32 %28, 8
  %30 = icmp eq %"class.WTF::StringImpl"* %26, null
  br i1 %30, label %43, label %31

31:                                               ; preds = %23
  %32 = load atomic i32, i32* %27 monotonic, align 4
  %33 = and i32 %32, 2
  %34 = icmp eq i32 %33, 0
  %35 = getelementptr inbounds %"class.WTF::StringImpl", %"class.WTF::StringImpl"* %26, i64 0, i32 0
  %36 = load i32, i32* %35, align 4
  br i1 %34, label %37, label %39

37:                                               ; preds = %31
  %38 = add i32 %36, -1
  store i32 %38, i32* %35, align 4
  br label %39

39:                                               ; preds = %37, %31
  %40 = phi i32 [ %38, %37 ], [ %36, %31 ]
  %41 = icmp eq i32 %40, 0
  br i1 %41, label %42, label %43

42:                                               ; preds = %39
  call void @_ZNK3WTF10StringImpl18DestroyIfNotStaticEv(%"class.WTF::StringImpl"* nonnull %26) #9
  br label %43

43:                                               ; preds = %23, %39, %42
  call void @llvm.lifetime.end.p0i8(i64 8, i8* nonnull %18) #9
  %44 = and i32 %29, %16
  %45 = zext i32 %44 to i64
  %46 = getelementptr inbounds %"struct.WTF::KeyValuePair.7", %"struct.WTF::KeyValuePair.7"* %13, i64 %45
  %47 = getelementptr inbounds %"struct.WTF::KeyValuePair.7", %"struct.WTF::KeyValuePair.7"* %46, i64 0, i32 0, i32 0, i32 0, i32 0
  %48 = load %"class.WTF::StringImpl"*, %"class.WTF::StringImpl"** %47, align 8
  %49 = icmp eq %"class.WTF::StringImpl"* %48, null
  br i1 %49, label %118, label %50

50:                                               ; preds = %43
  %51 = bitcast %"class.WTF::AtomicString"* %4 to i8*
  %52 = getelementptr inbounds %"class.WTF::AtomicString", %"class.WTF::AtomicString"* %4, i64 0, i32 0, i32 0, i32 0
  %53 = xor i32 %29, -1
  %54 = lshr i32 %28, 31
  %55 = add nsw i32 %54, %53
  %56 = shl i32 %55, 12
  %57 = xor i32 %56, %55
  %58 = lshr i32 %57, 7
  %59 = xor i32 %58, %57
  %60 = shl i32 %59, 2
  %61 = xor i32 %60, %59
  %62 = lshr i32 %61, 20
  %63 = xor i32 %62, %61
  %64 = or i32 %63, 1
  %65 = zext i32 %64 to i64
  br label %66

66:                                               ; preds = %50, %98
  %67 = phi %"struct.WTF::KeyValuePair.7"* [ %46, %50 ], [ %104, %98 ]
  %68 = phi %"struct.WTF::KeyValuePair.7"* [ null, %50 ], [ %99, %98 ]
  %69 = phi i64 [ %45, %50 ], [ %103, %98 ]
  %70 = phi i64 [ 0, %50 ], [ %101, %98 ]
  %71 = bitcast %"struct.WTF::KeyValuePair.7"* %67 to i8**
  %72 = load i8*, i8** %71, align 8
  %73 = icmp eq i8* %72, inttoptr (i64 -1 to i8*)
  br i1 %73, label %98, label %74

74:                                               ; preds = %66
  call void @llvm.lifetime.start.p0i8(i64 8, i8* nonnull %51) #9
  br i1 %20, label %77, label %75

75:                                               ; preds = %74
  %76 = call i64 @strlen(i8* nonnull %19) #10
  br label %77

77:                                               ; preds = %75, %74
  %78 = phi i64 [ %76, %75 ], [ 0, %74 ]
  call void @_ZN3WTF12AtomicStringC2EPKhm(%"class.WTF::AtomicString"* nonnull %4, i8* %19, i64 %78) #9
  %79 = getelementptr inbounds %"struct.WTF::KeyValuePair.7", %"struct.WTF::KeyValuePair.7"* %67, i64 0, i32 0, i32 0, i32 0, i32 0
  %80 = load %"class.WTF::StringImpl"*, %"class.WTF::StringImpl"** %79, align 8
  %81 = load %"class.WTF::StringImpl"*, %"class.WTF::StringImpl"** %52, align 8
  %82 = icmp eq %"class.WTF::StringImpl"* %80, %81
  %83 = icmp eq %"class.WTF::StringImpl"* %81, null
  br i1 %83, label %97, label %84

84:                                               ; preds = %77
  %85 = getelementptr inbounds %"class.WTF::StringImpl", %"class.WTF::StringImpl"* %81, i64 0, i32 2, i32 0, i32 0, i32 0, i32 0, i32 0
  %86 = load atomic i32, i32* %85 monotonic, align 4
  %87 = and i32 %86, 2
  %88 = icmp eq i32 %87, 0
  %89 = getelementptr inbounds %"class.WTF::StringImpl", %"class.WTF::StringImpl"* %81, i64 0, i32 0
  %90 = load i32, i32* %89, align 4
  br i1 %88, label %91, label %93

91:                                               ; preds = %84
  %92 = add i32 %90, -1
  store i32 %92, i32* %89, align 4
  br label %93

93:                                               ; preds = %91, %84
  %94 = phi i32 [ %92, %91 ], [ %90, %84 ]
  %95 = icmp eq i32 %94, 0
  br i1 %95, label %96, label %97

96:                                               ; preds = %93
  call void @_ZNK3WTF10StringImpl18DestroyIfNotStaticEv(%"class.WTF::StringImpl"* nonnull %81) #9
  br label %97

97:                                               ; preds = %77, %93, %96
  call void @llvm.lifetime.end.p0i8(i64 8, i8* nonnull %51) #9
  br i1 %82, label %131, label %98

98:                                               ; preds = %66, %97
  %99 = phi %"struct.WTF::KeyValuePair.7"* [ %68, %97 ], [ %67, %66 ]
  %100 = icmp eq i64 %70, 0
  %101 = select i1 %100, i64 %65, i64 %70
  %102 = add i64 %101, %69
  %103 = and i64 %102, %17
  %104 = getelementptr inbounds %"struct.WTF::KeyValuePair.7", %"struct.WTF::KeyValuePair.7"* %13, i64 %103
  %105 = getelementptr inbounds %"struct.WTF::KeyValuePair.7", %"struct.WTF::KeyValuePair.7"* %104, i64 0, i32 0, i32 0, i32 0, i32 0
  %106 = load %"class.WTF::StringImpl"*, %"class.WTF::StringImpl"** %105, align 8
  %107 = icmp eq %"class.WTF::StringImpl"* %106, null
  br i1 %107, label %108, label %66

108:                                              ; preds = %98
  %109 = icmp eq %"struct.WTF::KeyValuePair.7"* %99, null
  br i1 %109, label %118, label %110

110:                                              ; preds = %108
  %111 = bitcast %"struct.WTF::KeyValuePair.7"* %99 to i8*
  call void @llvm.memset.p0i8.i64(i8* nonnull align 8 %111, i8 0, i64 16, i1 false) #9
  %112 = getelementptr inbounds %"class.WTF::HashTable.5", %"class.WTF::HashTable.5"* %0, i64 0, i32 3
  %113 = load i32, i32* %112, align 8
  %114 = add i32 %113, 2147483647
  %115 = and i32 %114, 2147483647
  %116 = and i32 %113, -2147483648
  %117 = or i32 %115, %116
  store i32 %117, i32* %112, align 8
  br label %118

118:                                              ; preds = %43, %108, %110
  %119 = phi %"struct.WTF::KeyValuePair.7"* [ %99, %110 ], [ %104, %108 ], [ %46, %43 ]
  call void @_ZN3WTF17HashMapTranslatorINS_18HashMapValueTraitsINS_10HashTraitsINS_12AtomicStringEEENS2_INS_6StringEEEEENS_16AtomicStringHashENS_18PartitionAllocatorEE9TranslateINS_12KeyValuePairIS3_S5_EERA13_KcRA109_SE_EEvRT_OT0_OT1_(%"struct.WTF::KeyValuePair.7"* dereferenceable(16) %119, [13 x i8]* dereferenceable(13) %1, [109 x i8]* dereferenceable(109) %2)
  %120 = getelementptr inbounds %"class.WTF::HashTable.5", %"class.WTF::HashTable.5"* %0, i64 0, i32 2
  %121 = load i32, i32* %120, align 4
  %122 = add i32 %121, 1
  store i32 %122, i32* %120, align 4
  %123 = getelementptr inbounds %"class.WTF::HashTable.5", %"class.WTF::HashTable.5"* %0, i64 0, i32 3
  %124 = load i32, i32* %123, align 8
  %125 = add i32 %124, %122
  %126 = shl i32 %125, 1
  %127 = load i32, i32* %14, align 8
  %128 = icmp ult i32 %126, %127
  br i1 %128, label %131, label %129

129:                                              ; preds = %118
  %130 = call %"struct.WTF::KeyValuePair.7"* @_ZN3WTF9HashTableINS_12AtomicStringENS_12KeyValuePairIS1_NS_6StringEEENS_24KeyValuePairKeyExtractorENS_16AtomicStringHashENS_18HashMapValueTraitsINS_10HashTraitsIS1_EENS8_IS3_EEEES9_NS_18PartitionAllocatorEE6ExpandEPS4_(%"class.WTF::HashTable.5"* %0, %"struct.WTF::KeyValuePair.7"* %119)
  br label %131

131:                                              ; preds = %97, %118, %129
  %132 = phi i8 [ 1, %118 ], [ 1, %129 ], [ 0, %97 ]
  %133 = phi %"struct.WTF::KeyValuePair.7"* [ %119, %118 ], [ %130, %129 ], [ %67, %97 ]
  %134 = insertvalue { %"struct.WTF::KeyValuePair.7"*, i8 } undef, %"struct.WTF::KeyValuePair.7"* %133, 0
  %135 = insertvalue { %"struct.WTF::KeyValuePair.7"*, i8 } %134, i8 %132, 1
  ret { %"struct.WTF::KeyValuePair.7"*, i8 } %135
}

; Function Attrs: nounwind ssp uwtable
define linkonce_odr hidden void @_ZN3WTF17HashMapTranslatorINS_18HashMapValueTraitsINS_10HashTraitsINS_12AtomicStringEEENS2_INS_6StringEEEEENS_16AtomicStringHashENS_18PartitionAllocatorEE9TranslateINS_12KeyValuePairIS3_S5_EERA13_KcRA109_SE_EEvRT_OT0_OT1_(%"struct.WTF::KeyValuePair.7"* dereferenceable(16), [13 x i8]* dereferenceable(13), [109 x i8]* dereferenceable(109)) local_unnamed_addr #0 comdat align 2 {
  %4 = alloca %"class.WTF::AtomicString", align 8
  %5 = bitcast %"class.WTF::AtomicString"* %4 to i8*
  call void @llvm.lifetime.start.p0i8(i64 8, i8* nonnull %5) #9
  %6 = getelementptr inbounds [13 x i8], [13 x i8]* %1, i64 0, i64 0
  %7 = icmp eq [13 x i8]* %1, null
  br i1 %7, label %10, label %8

8:                                                ; preds = %3
  %9 = tail call i64 @strlen(i8* nonnull %6) #10
  br label %10

10:                                               ; preds = %3, %8
  %11 = phi i64 [ %9, %8 ], [ 0, %3 ]
  call void @_ZN3WTF12AtomicStringC2EPKhm(%"class.WTF::AtomicString"* nonnull %4, i8* %6, i64 %11) #9
  %12 = getelementptr inbounds %"class.WTF::AtomicString", %"class.WTF::AtomicString"* %4, i64 0, i32 0, i32 0, i32 0
  %13 = bitcast %"class.WTF::AtomicString"* %4 to i64*
  %14 = load i64, i64* %13, align 8
  store %"class.WTF::StringImpl"* null, %"class.WTF::StringImpl"** %12, align 8
  %15 = bitcast %"struct.WTF::KeyValuePair.7"* %0 to i64*
  %16 = getelementptr inbounds %"struct.WTF::KeyValuePair.7", %"struct.WTF::KeyValuePair.7"* %0, i64 0, i32 0, i32 0, i32 0, i32 0
  %17 = load %"class.WTF::StringImpl"*, %"class.WTF::StringImpl"** %16, align 8
  store i64 %14, i64* %15, align 8
  %18 = icmp eq %"class.WTF::StringImpl"* %17, null
  br i1 %18, label %32, label %19

19:                                               ; preds = %10
  %20 = getelementptr inbounds %"class.WTF::StringImpl", %"class.WTF::StringImpl"* %17, i64 0, i32 2, i32 0, i32 0, i32 0, i32 0, i32 0
  %21 = load atomic i32, i32* %20 monotonic, align 4
  %22 = and i32 %21, 2
  %23 = icmp eq i32 %22, 0
  %24 = getelementptr inbounds %"class.WTF::StringImpl", %"class.WTF::StringImpl"* %17, i64 0, i32 0
  %25 = load i32, i32* %24, align 4
  br i1 %23, label %26, label %28

26:                                               ; preds = %19
  %27 = add i32 %25, -1
  store i32 %27, i32* %24, align 4
  br label %28

28:                                               ; preds = %26, %19
  %29 = phi i32 [ %27, %26 ], [ %25, %19 ]
  %30 = icmp eq i32 %29, 0
  br i1 %30, label %31, label %32

31:                                               ; preds = %28
  call void @_ZNK3WTF10StringImpl18DestroyIfNotStaticEv(%"class.WTF::StringImpl"* nonnull %17) #9
  br label %32

32:                                               ; preds = %10, %28, %31
  %33 = load %"class.WTF::StringImpl"*, %"class.WTF::StringImpl"** %12, align 8
  %34 = icmp eq %"class.WTF::StringImpl"* %33, null
  br i1 %34, label %48, label %35

35:                                               ; preds = %32
  %36 = getelementptr inbounds %"class.WTF::StringImpl", %"class.WTF::StringImpl"* %33, i64 0, i32 2, i32 0, i32 0, i32 0, i32 0, i32 0
  %37 = load atomic i32, i32* %36 monotonic, align 4
  %38 = and i32 %37, 2
  %39 = icmp eq i32 %38, 0
  %40 = getelementptr inbounds %"class.WTF::StringImpl", %"class.WTF::StringImpl"* %33, i64 0, i32 0
  %41 = load i32, i32* %40, align 4
  br i1 %39, label %42, label %44

42:                                               ; preds = %35
  %43 = add i32 %41, -1
  store i32 %43, i32* %40, align 4
  br label %44

44:                                               ; preds = %42, %35
  %45 = phi i32 [ %43, %42 ], [ %41, %35 ]
  %46 = icmp eq i32 %45, 0
  br i1 %46, label %47, label %48

47:                                               ; preds = %44
  call void @_ZNK3WTF10StringImpl18DestroyIfNotStaticEv(%"class.WTF::StringImpl"* nonnull %33) #9
  br label %48

48:                                               ; preds = %32, %44, %47
  call void @llvm.lifetime.end.p0i8(i64 8, i8* nonnull %5) #9
  %49 = getelementptr inbounds %"struct.WTF::KeyValuePair.7", %"struct.WTF::KeyValuePair.7"* %0, i64 0, i32 1
  call void @_ZN3WTF17GenericHashTraitsINS_6StringEE5StoreIRA109_KcEEvOT_RS1_([109 x i8]* dereferenceable(109) %2, %"class.WTF::String"* dereferenceable(8) %49)
  ret void
}

; Function Attrs: nounwind ssp uwtable
define linkonce_odr hidden void @_ZN3WTF17GenericHashTraitsINS_6StringEE5StoreIRA65_KcEEvOT_RS1_([65 x i8]* dereferenceable(65), %"class.WTF::String"* dereferenceable(8)) local_unnamed_addr #0 comdat align 2 {
  %3 = alloca %"class.WTF::String", align 8
  %4 = bitcast %"class.WTF::String"* %3 to i8*
  call void @llvm.lifetime.start.p0i8(i64 8, i8* nonnull %4) #9
  %5 = getelementptr inbounds [65 x i8], [65 x i8]* %0, i64 0, i64 0
  %6 = icmp eq [65 x i8]* %0, null
  br i1 %6, label %9, label %7

7:                                                ; preds = %2
  %8 = tail call i64 @strlen(i8* nonnull %5) #10
  br label %9

9:                                                ; preds = %2, %7
  %10 = phi i64 [ %8, %7 ], [ 0, %2 ]
  call void @_ZN3WTF6StringC2EPKcm(%"class.WTF::String"* nonnull %3, i8* %5, i64 %10) #9
  %11 = getelementptr inbounds %"class.WTF::String", %"class.WTF::String"* %3, i64 0, i32 0, i32 0
  %12 = bitcast %"class.WTF::String"* %3 to i64*
  %13 = load i64, i64* %12, align 8
  store %"class.WTF::StringImpl"* null, %"class.WTF::StringImpl"** %11, align 8
  %14 = bitcast %"class.WTF::String"* %1 to i64*
  %15 = getelementptr inbounds %"class.WTF::String", %"class.WTF::String"* %1, i64 0, i32 0, i32 0
  %16 = load %"class.WTF::StringImpl"*, %"class.WTF::StringImpl"** %15, align 8
  store i64 %13, i64* %14, align 8
  %17 = icmp eq %"class.WTF::StringImpl"* %16, null
  br i1 %17, label %31, label %18

18:                                               ; preds = %9
  %19 = getelementptr inbounds %"class.WTF::StringImpl", %"class.WTF::StringImpl"* %16, i64 0, i32 2, i32 0, i32 0, i32 0, i32 0, i32 0
  %20 = load atomic i32, i32* %19 monotonic, align 4
  %21 = and i32 %20, 2
  %22 = icmp eq i32 %21, 0
  %23 = getelementptr inbounds %"class.WTF::StringImpl", %"class.WTF::StringImpl"* %16, i64 0, i32 0
  %24 = load i32, i32* %23, align 4
  br i1 %22, label %25, label %27

25:                                               ; preds = %18
  %26 = add i32 %24, -1
  store i32 %26, i32* %23, align 4
  br label %27

27:                                               ; preds = %25, %18
  %28 = phi i32 [ %26, %25 ], [ %24, %18 ]
  %29 = icmp eq i32 %28, 0
  br i1 %29, label %30, label %31

30:                                               ; preds = %27
  call void @_ZNK3WTF10StringImpl18DestroyIfNotStaticEv(%"class.WTF::StringImpl"* nonnull %16) #9
  br label %31

31:                                               ; preds = %9, %27, %30
  %32 = load %"class.WTF::StringImpl"*, %"class.WTF::StringImpl"** %11, align 8
  %33 = icmp eq %"class.WTF::StringImpl"* %32, null
  br i1 %33, label %47, label %34

34:                                               ; preds = %31
  %35 = getelementptr inbounds %"class.WTF::StringImpl", %"class.WTF::StringImpl"* %32, i64 0, i32 2, i32 0, i32 0, i32 0, i32 0, i32 0
  %36 = load atomic i32, i32* %35 monotonic, align 4
  %37 = and i32 %36, 2
  %38 = icmp eq i32 %37, 0
  %39 = getelementptr inbounds %"class.WTF::StringImpl", %"class.WTF::StringImpl"* %32, i64 0, i32 0
  %40 = load i32, i32* %39, align 4
  br i1 %38, label %41, label %43

41:                                               ; preds = %34
  %42 = add i32 %40, -1
  store i32 %42, i32* %39, align 4
  br label %43

43:                                               ; preds = %41, %34
  %44 = phi i32 [ %42, %41 ], [ %40, %34 ]
  %45 = icmp eq i32 %44, 0
  br i1 %45, label %46, label %47

46:                                               ; preds = %43
  call void @_ZNK3WTF10StringImpl18DestroyIfNotStaticEv(%"class.WTF::StringImpl"* nonnull %32) #9
  br label %47

47:                                               ; preds = %31, %43, %46
  call void @llvm.lifetime.end.p0i8(i64 8, i8* nonnull %4) #9
  ret void
}

; Function Attrs: nounwind ssp uwtable
define linkonce_odr hidden { %"struct.WTF::KeyValuePair.7"*, i8 } @_ZN3WTF9HashTableINS_12AtomicStringENS_12KeyValuePairIS1_NS_6StringEEENS_24KeyValuePairKeyExtractorENS_16AtomicStringHashENS_18HashMapValueTraitsINS_10HashTraitsIS1_EENS8_IS3_EEEES9_NS_18PartitionAllocatorEE6insertINS_17HashMapTranslatorISB_S6_SC_EERA9_KcRA65_SH_EENS_18HashTableAddResultISD_S4_EEOT0_OT1_(%"class.WTF::HashTable.5"*, [9 x i8]* dereferenceable(9), [65 x i8]* dereferenceable(65)) local_unnamed_addr #0 comdat align 2 {
  %4 = alloca %"class.WTF::AtomicString", align 8
  %5 = alloca %"class.WTF::AtomicString", align 8
  %6 = getelementptr inbounds %"class.WTF::HashTable.5", %"class.WTF::HashTable.5"* %0, i64 0, i32 0
  %7 = load %"struct.WTF::KeyValuePair.7"*, %"struct.WTF::KeyValuePair.7"** %6, align 8
  %8 = icmp eq %"struct.WTF::KeyValuePair.7"* %7, null
  br i1 %8, label %9, label %12

9:                                                ; preds = %3
  %10 = tail call %"struct.WTF::KeyValuePair.7"* @_ZN3WTF9HashTableINS_12AtomicStringENS_12KeyValuePairIS1_NS_6StringEEENS_24KeyValuePairKeyExtractorENS_16AtomicStringHashENS_18HashMapValueTraitsINS_10HashTraitsIS1_EENS8_IS3_EEEES9_NS_18PartitionAllocatorEE6ExpandEPS4_(%"class.WTF::HashTable.5"* %0, %"struct.WTF::KeyValuePair.7"* null)
  %11 = load %"struct.WTF::KeyValuePair.7"*, %"struct.WTF::KeyValuePair.7"** %6, align 8
  br label %12

12:                                               ; preds = %3, %9
  %13 = phi %"struct.WTF::KeyValuePair.7"* [ %7, %3 ], [ %11, %9 ]
  %14 = getelementptr inbounds %"class.WTF::HashTable.5", %"class.WTF::HashTable.5"* %0, i64 0, i32 1
  %15 = load i32, i32* %14, align 8
  %16 = add i32 %15, -1
  %17 = zext i32 %16 to i64
  %18 = bitcast %"class.WTF::AtomicString"* %5 to i8*
  call void @llvm.lifetime.start.p0i8(i64 8, i8* nonnull %18) #9
  %19 = getelementptr inbounds [9 x i8], [9 x i8]* %1, i64 0, i64 0
  %20 = icmp eq [9 x i8]* %1, null
  br i1 %20, label %23, label %21

21:                                               ; preds = %12
  %22 = tail call i64 @strlen(i8* nonnull %19) #10
  br label %23

23:                                               ; preds = %21, %12
  %24 = phi i64 [ %22, %21 ], [ 0, %12 ]
  call void @_ZN3WTF12AtomicStringC2EPKhm(%"class.WTF::AtomicString"* nonnull %5, i8* %19, i64 %24) #9
  %25 = getelementptr inbounds %"class.WTF::AtomicString", %"class.WTF::AtomicString"* %5, i64 0, i32 0, i32 0, i32 0
  %26 = load %"class.WTF::StringImpl"*, %"class.WTF::StringImpl"** %25, align 8
  %27 = getelementptr inbounds %"class.WTF::StringImpl", %"class.WTF::StringImpl"* %26, i64 0, i32 2, i32 0, i32 0, i32 0, i32 0, i32 0
  %28 = load atomic i32, i32* %27 monotonic, align 4
  %29 = lshr i32 %28, 8
  %30 = icmp eq %"class.WTF::StringImpl"* %26, null
  br i1 %30, label %43, label %31

31:                                               ; preds = %23
  %32 = load atomic i32, i32* %27 monotonic, align 4
  %33 = and i32 %32, 2
  %34 = icmp eq i32 %33, 0
  %35 = getelementptr inbounds %"class.WTF::StringImpl", %"class.WTF::StringImpl"* %26, i64 0, i32 0
  %36 = load i32, i32* %35, align 4
  br i1 %34, label %37, label %39

37:                                               ; preds = %31
  %38 = add i32 %36, -1
  store i32 %38, i32* %35, align 4
  br label %39

39:                                               ; preds = %37, %31
  %40 = phi i32 [ %38, %37 ], [ %36, %31 ]
  %41 = icmp eq i32 %40, 0
  br i1 %41, label %42, label %43

42:                                               ; preds = %39
  call void @_ZNK3WTF10StringImpl18DestroyIfNotStaticEv(%"class.WTF::StringImpl"* nonnull %26) #9
  br label %43

43:                                               ; preds = %23, %39, %42
  call void @llvm.lifetime.end.p0i8(i64 8, i8* nonnull %18) #9
  %44 = and i32 %29, %16
  %45 = zext i32 %44 to i64
  %46 = getelementptr inbounds %"struct.WTF::KeyValuePair.7", %"struct.WTF::KeyValuePair.7"* %13, i64 %45
  %47 = getelementptr inbounds %"struct.WTF::KeyValuePair.7", %"struct.WTF::KeyValuePair.7"* %46, i64 0, i32 0, i32 0, i32 0, i32 0
  %48 = load %"class.WTF::StringImpl"*, %"class.WTF::StringImpl"** %47, align 8
  %49 = icmp eq %"class.WTF::StringImpl"* %48, null
  br i1 %49, label %118, label %50

50:                                               ; preds = %43
  %51 = bitcast %"class.WTF::AtomicString"* %4 to i8*
  %52 = getelementptr inbounds %"class.WTF::AtomicString", %"class.WTF::AtomicString"* %4, i64 0, i32 0, i32 0, i32 0
  %53 = xor i32 %29, -1
  %54 = lshr i32 %28, 31
  %55 = add nsw i32 %54, %53
  %56 = shl i32 %55, 12
  %57 = xor i32 %56, %55
  %58 = lshr i32 %57, 7
  %59 = xor i32 %58, %57
  %60 = shl i32 %59, 2
  %61 = xor i32 %60, %59
  %62 = lshr i32 %61, 20
  %63 = xor i32 %62, %61
  %64 = or i32 %63, 1
  %65 = zext i32 %64 to i64
  br label %66

66:                                               ; preds = %50, %98
  %67 = phi %"struct.WTF::KeyValuePair.7"* [ %46, %50 ], [ %104, %98 ]
  %68 = phi %"struct.WTF::KeyValuePair.7"* [ null, %50 ], [ %99, %98 ]
  %69 = phi i64 [ %45, %50 ], [ %103, %98 ]
  %70 = phi i64 [ 0, %50 ], [ %101, %98 ]
  %71 = bitcast %"struct.WTF::KeyValuePair.7"* %67 to i8**
  %72 = load i8*, i8** %71, align 8
  %73 = icmp eq i8* %72, inttoptr (i64 -1 to i8*)
  br i1 %73, label %98, label %74

74:                                               ; preds = %66
  call void @llvm.lifetime.start.p0i8(i64 8, i8* nonnull %51) #9
  br i1 %20, label %77, label %75

75:                                               ; preds = %74
  %76 = call i64 @strlen(i8* nonnull %19) #10
  br label %77

77:                                               ; preds = %75, %74
  %78 = phi i64 [ %76, %75 ], [ 0, %74 ]
  call void @_ZN3WTF12AtomicStringC2EPKhm(%"class.WTF::AtomicString"* nonnull %4, i8* %19, i64 %78) #9
  %79 = getelementptr inbounds %"struct.WTF::KeyValuePair.7", %"struct.WTF::KeyValuePair.7"* %67, i64 0, i32 0, i32 0, i32 0, i32 0
  %80 = load %"class.WTF::StringImpl"*, %"class.WTF::StringImpl"** %79, align 8
  %81 = load %"class.WTF::StringImpl"*, %"class.WTF::StringImpl"** %52, align 8
  %82 = icmp eq %"class.WTF::StringImpl"* %80, %81
  %83 = icmp eq %"class.WTF::StringImpl"* %81, null
  br i1 %83, label %97, label %84

84:                                               ; preds = %77
  %85 = getelementptr inbounds %"class.WTF::StringImpl", %"class.WTF::StringImpl"* %81, i64 0, i32 2, i32 0, i32 0, i32 0, i32 0, i32 0
  %86 = load atomic i32, i32* %85 monotonic, align 4
  %87 = and i32 %86, 2
  %88 = icmp eq i32 %87, 0
  %89 = getelementptr inbounds %"class.WTF::StringImpl", %"class.WTF::StringImpl"* %81, i64 0, i32 0
  %90 = load i32, i32* %89, align 4
  br i1 %88, label %91, label %93

91:                                               ; preds = %84
  %92 = add i32 %90, -1
  store i32 %92, i32* %89, align 4
  br label %93

93:                                               ; preds = %91, %84
  %94 = phi i32 [ %92, %91 ], [ %90, %84 ]
  %95 = icmp eq i32 %94, 0
  br i1 %95, label %96, label %97

96:                                               ; preds = %93
  call void @_ZNK3WTF10StringImpl18DestroyIfNotStaticEv(%"class.WTF::StringImpl"* nonnull %81) #9
  br label %97

97:                                               ; preds = %77, %93, %96
  call void @llvm.lifetime.end.p0i8(i64 8, i8* nonnull %51) #9
  br i1 %82, label %131, label %98

98:                                               ; preds = %66, %97
  %99 = phi %"struct.WTF::KeyValuePair.7"* [ %68, %97 ], [ %67, %66 ]
  %100 = icmp eq i64 %70, 0
  %101 = select i1 %100, i64 %65, i64 %70
  %102 = add i64 %101, %69
  %103 = and i64 %102, %17
  %104 = getelementptr inbounds %"struct.WTF::KeyValuePair.7", %"struct.WTF::KeyValuePair.7"* %13, i64 %103
  %105 = getelementptr inbounds %"struct.WTF::KeyValuePair.7", %"struct.WTF::KeyValuePair.7"* %104, i64 0, i32 0, i32 0, i32 0, i32 0
  %106 = load %"class.WTF::StringImpl"*, %"class.WTF::StringImpl"** %105, align 8
  %107 = icmp eq %"class.WTF::StringImpl"* %106, null
  br i1 %107, label %108, label %66

108:                                              ; preds = %98
  %109 = icmp eq %"struct.WTF::KeyValuePair.7"* %99, null
  br i1 %109, label %118, label %110

110:                                              ; preds = %108
  %111 = bitcast %"struct.WTF::KeyValuePair.7"* %99 to i8*
  call void @llvm.memset.p0i8.i64(i8* nonnull align 8 %111, i8 0, i64 16, i1 false) #9
  %112 = getelementptr inbounds %"class.WTF::HashTable.5", %"class.WTF::HashTable.5"* %0, i64 0, i32 3
  %113 = load i32, i32* %112, align 8
  %114 = add i32 %113, 2147483647
  %115 = and i32 %114, 2147483647
  %116 = and i32 %113, -2147483648
  %117 = or i32 %115, %116
  store i32 %117, i32* %112, align 8
  br label %118

118:                                              ; preds = %43, %108, %110
  %119 = phi %"struct.WTF::KeyValuePair.7"* [ %99, %110 ], [ %104, %108 ], [ %46, %43 ]
  call void @_ZN3WTF17HashMapTranslatorINS_18HashMapValueTraitsINS_10HashTraitsINS_12AtomicStringEEENS2_INS_6StringEEEEENS_16AtomicStringHashENS_18PartitionAllocatorEE9TranslateINS_12KeyValuePairIS3_S5_EERA9_KcRA65_SE_EEvRT_OT0_OT1_(%"struct.WTF::KeyValuePair.7"* dereferenceable(16) %119, [9 x i8]* dereferenceable(9) %1, [65 x i8]* dereferenceable(65) %2)
  %120 = getelementptr inbounds %"class.WTF::HashTable.5", %"class.WTF::HashTable.5"* %0, i64 0, i32 2
  %121 = load i32, i32* %120, align 4
  %122 = add i32 %121, 1
  store i32 %122, i32* %120, align 4
  %123 = getelementptr inbounds %"class.WTF::HashTable.5", %"class.WTF::HashTable.5"* %0, i64 0, i32 3
  %124 = load i32, i32* %123, align 8
  %125 = add i32 %124, %122
  %126 = shl i32 %125, 1
  %127 = load i32, i32* %14, align 8
  %128 = icmp ult i32 %126, %127
  br i1 %128, label %131, label %129

129:                                              ; preds = %118
  %130 = call %"struct.WTF::KeyValuePair.7"* @_ZN3WTF9HashTableINS_12AtomicStringENS_12KeyValuePairIS1_NS_6StringEEENS_24KeyValuePairKeyExtractorENS_16AtomicStringHashENS_18HashMapValueTraitsINS_10HashTraitsIS1_EENS8_IS3_EEEES9_NS_18PartitionAllocatorEE6ExpandEPS4_(%"class.WTF::HashTable.5"* %0, %"struct.WTF::KeyValuePair.7"* %119)
  br label %131

131:                                              ; preds = %97, %118, %129
  %132 = phi i8 [ 1, %118 ], [ 1, %129 ], [ 0, %97 ]
  %133 = phi %"struct.WTF::KeyValuePair.7"* [ %119, %118 ], [ %130, %129 ], [ %67, %97 ]
  %134 = insertvalue { %"struct.WTF::KeyValuePair.7"*, i8 } undef, %"struct.WTF::KeyValuePair.7"* %133, 0
  %135 = insertvalue { %"struct.WTF::KeyValuePair.7"*, i8 } %134, i8 %132, 1
  ret { %"struct.WTF::KeyValuePair.7"*, i8 } %135
}

; Function Attrs: nounwind ssp uwtable
define linkonce_odr hidden void @_ZN3WTF17HashMapTranslatorINS_18HashMapValueTraitsINS_10HashTraitsINS_12AtomicStringEEENS2_INS_6StringEEEEENS_16AtomicStringHashENS_18PartitionAllocatorEE9TranslateINS_12KeyValuePairIS3_S5_EERA9_KcRA65_SE_EEvRT_OT0_OT1_(%"struct.WTF::KeyValuePair.7"* dereferenceable(16), [9 x i8]* dereferenceable(9), [65 x i8]* dereferenceable(65)) local_unnamed_addr #0 comdat align 2 {
  %4 = alloca %"class.WTF::AtomicString", align 8
  %5 = bitcast %"class.WTF::AtomicString"* %4 to i8*
  call void @llvm.lifetime.start.p0i8(i64 8, i8* nonnull %5) #9
  %6 = getelementptr inbounds [9 x i8], [9 x i8]* %1, i64 0, i64 0
  %7 = icmp eq [9 x i8]* %1, null
  br i1 %7, label %10, label %8

8:                                                ; preds = %3
  %9 = tail call i64 @strlen(i8* nonnull %6) #10
  br label %10

10:                                               ; preds = %3, %8
  %11 = phi i64 [ %9, %8 ], [ 0, %3 ]
  call void @_ZN3WTF12AtomicStringC2EPKhm(%"class.WTF::AtomicString"* nonnull %4, i8* %6, i64 %11) #9
  %12 = getelementptr inbounds %"class.WTF::AtomicString", %"class.WTF::AtomicString"* %4, i64 0, i32 0, i32 0, i32 0
  %13 = bitcast %"class.WTF::AtomicString"* %4 to i64*
  %14 = load i64, i64* %13, align 8
  store %"class.WTF::StringImpl"* null, %"class.WTF::StringImpl"** %12, align 8
  %15 = bitcast %"struct.WTF::KeyValuePair.7"* %0 to i64*
  %16 = getelementptr inbounds %"struct.WTF::KeyValuePair.7", %"struct.WTF::KeyValuePair.7"* %0, i64 0, i32 0, i32 0, i32 0, i32 0
  %17 = load %"class.WTF::StringImpl"*, %"class.WTF::StringImpl"** %16, align 8
  store i64 %14, i64* %15, align 8
  %18 = icmp eq %"class.WTF::StringImpl"* %17, null
  br i1 %18, label %32, label %19

19:                                               ; preds = %10
  %20 = getelementptr inbounds %"class.WTF::StringImpl", %"class.WTF::StringImpl"* %17, i64 0, i32 2, i32 0, i32 0, i32 0, i32 0, i32 0
  %21 = load atomic i32, i32* %20 monotonic, align 4
  %22 = and i32 %21, 2
  %23 = icmp eq i32 %22, 0
  %24 = getelementptr inbounds %"class.WTF::StringImpl", %"class.WTF::StringImpl"* %17, i64 0, i32 0
  %25 = load i32, i32* %24, align 4
  br i1 %23, label %26, label %28

26:                                               ; preds = %19
  %27 = add i32 %25, -1
  store i32 %27, i32* %24, align 4
  br label %28

28:                                               ; preds = %26, %19
  %29 = phi i32 [ %27, %26 ], [ %25, %19 ]
  %30 = icmp eq i32 %29, 0
  br i1 %30, label %31, label %32

31:                                               ; preds = %28
  call void @_ZNK3WTF10StringImpl18DestroyIfNotStaticEv(%"class.WTF::StringImpl"* nonnull %17) #9
  br label %32

32:                                               ; preds = %10, %28, %31
  %33 = load %"class.WTF::StringImpl"*, %"class.WTF::StringImpl"** %12, align 8
  %34 = icmp eq %"class.WTF::StringImpl"* %33, null
  br i1 %34, label %48, label %35

35:                                               ; preds = %32
  %36 = getelementptr inbounds %"class.WTF::StringImpl", %"class.WTF::StringImpl"* %33, i64 0, i32 2, i32 0, i32 0, i32 0, i32 0, i32 0
  %37 = load atomic i32, i32* %36 monotonic, align 4
  %38 = and i32 %37, 2
  %39 = icmp eq i32 %38, 0
  %40 = getelementptr inbounds %"class.WTF::StringImpl", %"class.WTF::StringImpl"* %33, i64 0, i32 0
  %41 = load i32, i32* %40, align 4
  br i1 %39, label %42, label %44

42:                                               ; preds = %35
  %43 = add i32 %41, -1
  store i32 %43, i32* %40, align 4
  br label %44

44:                                               ; preds = %42, %35
  %45 = phi i32 [ %43, %42 ], [ %41, %35 ]
  %46 = icmp eq i32 %45, 0
  br i1 %46, label %47, label %48

47:                                               ; preds = %44
  call void @_ZNK3WTF10StringImpl18DestroyIfNotStaticEv(%"class.WTF::StringImpl"* nonnull %33) #9
  br label %48

48:                                               ; preds = %32, %44, %47
  call void @llvm.lifetime.end.p0i8(i64 8, i8* nonnull %5) #9
  %49 = getelementptr inbounds %"struct.WTF::KeyValuePair.7", %"struct.WTF::KeyValuePair.7"* %0, i64 0, i32 1
  call void @_ZN3WTF17GenericHashTraitsINS_6StringEE5StoreIRA65_KcEEvOT_RS1_([65 x i8]* dereferenceable(65) %2, %"class.WTF::String"* dereferenceable(8) %49)
  ret void
}

; Function Attrs: nounwind ssp uwtable
define linkonce_odr hidden void @_ZN3WTF17GenericHashTraitsINS_6StringEE5StoreIRA34_KcEEvOT_RS1_([34 x i8]* dereferenceable(34), %"class.WTF::String"* dereferenceable(8)) local_unnamed_addr #0 comdat align 2 {
  %3 = alloca %"class.WTF::String", align 8
  %4 = bitcast %"class.WTF::String"* %3 to i8*
  call void @llvm.lifetime.start.p0i8(i64 8, i8* nonnull %4) #9
  %5 = getelementptr inbounds [34 x i8], [34 x i8]* %0, i64 0, i64 0
  %6 = icmp eq [34 x i8]* %0, null
  br i1 %6, label %9, label %7

7:                                                ; preds = %2
  %8 = tail call i64 @strlen(i8* nonnull %5) #10
  br label %9

9:                                                ; preds = %2, %7
  %10 = phi i64 [ %8, %7 ], [ 0, %2 ]
  call void @_ZN3WTF6StringC2EPKcm(%"class.WTF::String"* nonnull %3, i8* %5, i64 %10) #9
  %11 = getelementptr inbounds %"class.WTF::String", %"class.WTF::String"* %3, i64 0, i32 0, i32 0
  %12 = bitcast %"class.WTF::String"* %3 to i64*
  %13 = load i64, i64* %12, align 8
  store %"class.WTF::StringImpl"* null, %"class.WTF::StringImpl"** %11, align 8
  %14 = bitcast %"class.WTF::String"* %1 to i64*
  %15 = getelementptr inbounds %"class.WTF::String", %"class.WTF::String"* %1, i64 0, i32 0, i32 0
  %16 = load %"class.WTF::StringImpl"*, %"class.WTF::StringImpl"** %15, align 8
  store i64 %13, i64* %14, align 8
  %17 = icmp eq %"class.WTF::StringImpl"* %16, null
  br i1 %17, label %31, label %18

18:                                               ; preds = %9
  %19 = getelementptr inbounds %"class.WTF::StringImpl", %"class.WTF::StringImpl"* %16, i64 0, i32 2, i32 0, i32 0, i32 0, i32 0, i32 0
  %20 = load atomic i32, i32* %19 monotonic, align 4
  %21 = and i32 %20, 2
  %22 = icmp eq i32 %21, 0
  %23 = getelementptr inbounds %"class.WTF::StringImpl", %"class.WTF::StringImpl"* %16, i64 0, i32 0
  %24 = load i32, i32* %23, align 4
  br i1 %22, label %25, label %27

25:                                               ; preds = %18
  %26 = add i32 %24, -1
  store i32 %26, i32* %23, align 4
  br label %27

27:                                               ; preds = %25, %18
  %28 = phi i32 [ %26, %25 ], [ %24, %18 ]
  %29 = icmp eq i32 %28, 0
  br i1 %29, label %30, label %31

30:                                               ; preds = %27
  call void @_ZNK3WTF10StringImpl18DestroyIfNotStaticEv(%"class.WTF::StringImpl"* nonnull %16) #9
  br label %31

31:                                               ; preds = %9, %27, %30
  %32 = load %"class.WTF::StringImpl"*, %"class.WTF::StringImpl"** %11, align 8
  %33 = icmp eq %"class.WTF::StringImpl"* %32, null
  br i1 %33, label %47, label %34

34:                                               ; preds = %31
  %35 = getelementptr inbounds %"class.WTF::StringImpl", %"class.WTF::StringImpl"* %32, i64 0, i32 2, i32 0, i32 0, i32 0, i32 0, i32 0
  %36 = load atomic i32, i32* %35 monotonic, align 4
  %37 = and i32 %36, 2
  %38 = icmp eq i32 %37, 0
  %39 = getelementptr inbounds %"class.WTF::StringImpl", %"class.WTF::StringImpl"* %32, i64 0, i32 0
  %40 = load i32, i32* %39, align 4
  br i1 %38, label %41, label %43

41:                                               ; preds = %34
  %42 = add i32 %40, -1
  store i32 %42, i32* %39, align 4
  br label %43

43:                                               ; preds = %41, %34
  %44 = phi i32 [ %42, %41 ], [ %40, %34 ]
  %45 = icmp eq i32 %44, 0
  br i1 %45, label %46, label %47

46:                                               ; preds = %43
  call void @_ZNK3WTF10StringImpl18DestroyIfNotStaticEv(%"class.WTF::StringImpl"* nonnull %32) #9
  br label %47

47:                                               ; preds = %31, %43, %46
  call void @llvm.lifetime.end.p0i8(i64 8, i8* nonnull %4) #9
  ret void
}

; Function Attrs: nounwind ssp uwtable
define linkonce_odr hidden { %"struct.WTF::KeyValuePair.7"*, i8 } @_ZN3WTF9HashTableINS_12AtomicStringENS_12KeyValuePairIS1_NS_6StringEEENS_24KeyValuePairKeyExtractorENS_16AtomicStringHashENS_18HashMapValueTraitsINS_10HashTraitsIS1_EENS8_IS3_EEEES9_NS_18PartitionAllocatorEE6insertINS_17HashMapTranslatorISB_S6_SC_EERA15_KcRA34_SH_EENS_18HashTableAddResultISD_S4_EEOT0_OT1_(%"class.WTF::HashTable.5"*, [15 x i8]* dereferenceable(15), [34 x i8]* dereferenceable(34)) local_unnamed_addr #0 comdat align 2 {
  %4 = alloca %"class.WTF::AtomicString", align 8
  %5 = alloca %"class.WTF::AtomicString", align 8
  %6 = getelementptr inbounds %"class.WTF::HashTable.5", %"class.WTF::HashTable.5"* %0, i64 0, i32 0
  %7 = load %"struct.WTF::KeyValuePair.7"*, %"struct.WTF::KeyValuePair.7"** %6, align 8
  %8 = icmp eq %"struct.WTF::KeyValuePair.7"* %7, null
  br i1 %8, label %9, label %12

9:                                                ; preds = %3
  %10 = tail call %"struct.WTF::KeyValuePair.7"* @_ZN3WTF9HashTableINS_12AtomicStringENS_12KeyValuePairIS1_NS_6StringEEENS_24KeyValuePairKeyExtractorENS_16AtomicStringHashENS_18HashMapValueTraitsINS_10HashTraitsIS1_EENS8_IS3_EEEES9_NS_18PartitionAllocatorEE6ExpandEPS4_(%"class.WTF::HashTable.5"* %0, %"struct.WTF::KeyValuePair.7"* null)
  %11 = load %"struct.WTF::KeyValuePair.7"*, %"struct.WTF::KeyValuePair.7"** %6, align 8
  br label %12

12:                                               ; preds = %3, %9
  %13 = phi %"struct.WTF::KeyValuePair.7"* [ %7, %3 ], [ %11, %9 ]
  %14 = getelementptr inbounds %"class.WTF::HashTable.5", %"class.WTF::HashTable.5"* %0, i64 0, i32 1
  %15 = load i32, i32* %14, align 8
  %16 = add i32 %15, -1
  %17 = zext i32 %16 to i64
  %18 = bitcast %"class.WTF::AtomicString"* %5 to i8*
  call void @llvm.lifetime.start.p0i8(i64 8, i8* nonnull %18) #9
  %19 = getelementptr inbounds [15 x i8], [15 x i8]* %1, i64 0, i64 0
  %20 = icmp eq [15 x i8]* %1, null
  br i1 %20, label %23, label %21

21:                                               ; preds = %12
  %22 = tail call i64 @strlen(i8* nonnull %19) #10
  br label %23

23:                                               ; preds = %21, %12
  %24 = phi i64 [ %22, %21 ], [ 0, %12 ]
  call void @_ZN3WTF12AtomicStringC2EPKhm(%"class.WTF::AtomicString"* nonnull %5, i8* %19, i64 %24) #9
  %25 = getelementptr inbounds %"class.WTF::AtomicString", %"class.WTF::AtomicString"* %5, i64 0, i32 0, i32 0, i32 0
  %26 = load %"class.WTF::StringImpl"*, %"class.WTF::StringImpl"** %25, align 8
  %27 = getelementptr inbounds %"class.WTF::StringImpl", %"class.WTF::StringImpl"* %26, i64 0, i32 2, i32 0, i32 0, i32 0, i32 0, i32 0
  %28 = load atomic i32, i32* %27 monotonic, align 4
  %29 = lshr i32 %28, 8
  %30 = icmp eq %"class.WTF::StringImpl"* %26, null
  br i1 %30, label %43, label %31

31:                                               ; preds = %23
  %32 = load atomic i32, i32* %27 monotonic, align 4
  %33 = and i32 %32, 2
  %34 = icmp eq i32 %33, 0
  %35 = getelementptr inbounds %"class.WTF::StringImpl", %"class.WTF::StringImpl"* %26, i64 0, i32 0
  %36 = load i32, i32* %35, align 4
  br i1 %34, label %37, label %39

37:                                               ; preds = %31
  %38 = add i32 %36, -1
  store i32 %38, i32* %35, align 4
  br label %39

39:                                               ; preds = %37, %31
  %40 = phi i32 [ %38, %37 ], [ %36, %31 ]
  %41 = icmp eq i32 %40, 0
  br i1 %41, label %42, label %43

42:                                               ; preds = %39
  call void @_ZNK3WTF10StringImpl18DestroyIfNotStaticEv(%"class.WTF::StringImpl"* nonnull %26) #9
  br label %43

43:                                               ; preds = %23, %39, %42
  call void @llvm.lifetime.end.p0i8(i64 8, i8* nonnull %18) #9
  %44 = and i32 %29, %16
  %45 = zext i32 %44 to i64
  %46 = getelementptr inbounds %"struct.WTF::KeyValuePair.7", %"struct.WTF::KeyValuePair.7"* %13, i64 %45
  %47 = getelementptr inbounds %"struct.WTF::KeyValuePair.7", %"struct.WTF::KeyValuePair.7"* %46, i64 0, i32 0, i32 0, i32 0, i32 0
  %48 = load %"class.WTF::StringImpl"*, %"class.WTF::StringImpl"** %47, align 8
  %49 = icmp eq %"class.WTF::StringImpl"* %48, null
  br i1 %49, label %118, label %50

50:                                               ; preds = %43
  %51 = bitcast %"class.WTF::AtomicString"* %4 to i8*
  %52 = getelementptr inbounds %"class.WTF::AtomicString", %"class.WTF::AtomicString"* %4, i64 0, i32 0, i32 0, i32 0
  %53 = xor i32 %29, -1
  %54 = lshr i32 %28, 31
  %55 = add nsw i32 %54, %53
  %56 = shl i32 %55, 12
  %57 = xor i32 %56, %55
  %58 = lshr i32 %57, 7
  %59 = xor i32 %58, %57
  %60 = shl i32 %59, 2
  %61 = xor i32 %60, %59
  %62 = lshr i32 %61, 20
  %63 = xor i32 %62, %61
  %64 = or i32 %63, 1
  %65 = zext i32 %64 to i64
  br label %66

66:                                               ; preds = %50, %98
  %67 = phi %"struct.WTF::KeyValuePair.7"* [ %46, %50 ], [ %104, %98 ]
  %68 = phi %"struct.WTF::KeyValuePair.7"* [ null, %50 ], [ %99, %98 ]
  %69 = phi i64 [ %45, %50 ], [ %103, %98 ]
  %70 = phi i64 [ 0, %50 ], [ %101, %98 ]
  %71 = bitcast %"struct.WTF::KeyValuePair.7"* %67 to i8**
  %72 = load i8*, i8** %71, align 8
  %73 = icmp eq i8* %72, inttoptr (i64 -1 to i8*)
  br i1 %73, label %98, label %74

74:                                               ; preds = %66
  call void @llvm.lifetime.start.p0i8(i64 8, i8* nonnull %51) #9
  br i1 %20, label %77, label %75

75:                                               ; preds = %74
  %76 = call i64 @strlen(i8* nonnull %19) #10
  br label %77

77:                                               ; preds = %75, %74
  %78 = phi i64 [ %76, %75 ], [ 0, %74 ]
  call void @_ZN3WTF12AtomicStringC2EPKhm(%"class.WTF::AtomicString"* nonnull %4, i8* %19, i64 %78) #9
  %79 = getelementptr inbounds %"struct.WTF::KeyValuePair.7", %"struct.WTF::KeyValuePair.7"* %67, i64 0, i32 0, i32 0, i32 0, i32 0
  %80 = load %"class.WTF::StringImpl"*, %"class.WTF::StringImpl"** %79, align 8
  %81 = load %"class.WTF::StringImpl"*, %"class.WTF::StringImpl"** %52, align 8
  %82 = icmp eq %"class.WTF::StringImpl"* %80, %81
  %83 = icmp eq %"class.WTF::StringImpl"* %81, null
  br i1 %83, label %97, label %84

84:                                               ; preds = %77
  %85 = getelementptr inbounds %"class.WTF::StringImpl", %"class.WTF::StringImpl"* %81, i64 0, i32 2, i32 0, i32 0, i32 0, i32 0, i32 0
  %86 = load atomic i32, i32* %85 monotonic, align 4
  %87 = and i32 %86, 2
  %88 = icmp eq i32 %87, 0
  %89 = getelementptr inbounds %"class.WTF::StringImpl", %"class.WTF::StringImpl"* %81, i64 0, i32 0
  %90 = load i32, i32* %89, align 4
  br i1 %88, label %91, label %93

91:                                               ; preds = %84
  %92 = add i32 %90, -1
  store i32 %92, i32* %89, align 4
  br label %93

93:                                               ; preds = %91, %84
  %94 = phi i32 [ %92, %91 ], [ %90, %84 ]
  %95 = icmp eq i32 %94, 0
  br i1 %95, label %96, label %97

96:                                               ; preds = %93
  call void @_ZNK3WTF10StringImpl18DestroyIfNotStaticEv(%"class.WTF::StringImpl"* nonnull %81) #9
  br label %97

97:                                               ; preds = %77, %93, %96
  call void @llvm.lifetime.end.p0i8(i64 8, i8* nonnull %51) #9
  br i1 %82, label %131, label %98

98:                                               ; preds = %66, %97
  %99 = phi %"struct.WTF::KeyValuePair.7"* [ %68, %97 ], [ %67, %66 ]
  %100 = icmp eq i64 %70, 0
  %101 = select i1 %100, i64 %65, i64 %70
  %102 = add i64 %101, %69
  %103 = and i64 %102, %17
  %104 = getelementptr inbounds %"struct.WTF::KeyValuePair.7", %"struct.WTF::KeyValuePair.7"* %13, i64 %103
  %105 = getelementptr inbounds %"struct.WTF::KeyValuePair.7", %"struct.WTF::KeyValuePair.7"* %104, i64 0, i32 0, i32 0, i32 0, i32 0
  %106 = load %"class.WTF::StringImpl"*, %"class.WTF::StringImpl"** %105, align 8
  %107 = icmp eq %"class.WTF::StringImpl"* %106, null
  br i1 %107, label %108, label %66

108:                                              ; preds = %98
  %109 = icmp eq %"struct.WTF::KeyValuePair.7"* %99, null
  br i1 %109, label %118, label %110

110:                                              ; preds = %108
  %111 = bitcast %"struct.WTF::KeyValuePair.7"* %99 to i8*
  call void @llvm.memset.p0i8.i64(i8* nonnull align 8 %111, i8 0, i64 16, i1 false) #9
  %112 = getelementptr inbounds %"class.WTF::HashTable.5", %"class.WTF::HashTable.5"* %0, i64 0, i32 3
  %113 = load i32, i32* %112, align 8
  %114 = add i32 %113, 2147483647
  %115 = and i32 %114, 2147483647
  %116 = and i32 %113, -2147483648
  %117 = or i32 %115, %116
  store i32 %117, i32* %112, align 8
  br label %118

118:                                              ; preds = %43, %108, %110
  %119 = phi %"struct.WTF::KeyValuePair.7"* [ %99, %110 ], [ %104, %108 ], [ %46, %43 ]
  call void @_ZN3WTF17HashMapTranslatorINS_18HashMapValueTraitsINS_10HashTraitsINS_12AtomicStringEEENS2_INS_6StringEEEEENS_16AtomicStringHashENS_18PartitionAllocatorEE9TranslateINS_12KeyValuePairIS3_S5_EERA15_KcRA34_SE_EEvRT_OT0_OT1_(%"struct.WTF::KeyValuePair.7"* dereferenceable(16) %119, [15 x i8]* dereferenceable(15) %1, [34 x i8]* dereferenceable(34) %2)
  %120 = getelementptr inbounds %"class.WTF::HashTable.5", %"class.WTF::HashTable.5"* %0, i64 0, i32 2
  %121 = load i32, i32* %120, align 4
  %122 = add i32 %121, 1
  store i32 %122, i32* %120, align 4
  %123 = getelementptr inbounds %"class.WTF::HashTable.5", %"class.WTF::HashTable.5"* %0, i64 0, i32 3
  %124 = load i32, i32* %123, align 8
  %125 = add i32 %124, %122
  %126 = shl i32 %125, 1
  %127 = load i32, i32* %14, align 8
  %128 = icmp ult i32 %126, %127
  br i1 %128, label %131, label %129

129:                                              ; preds = %118
  %130 = call %"struct.WTF::KeyValuePair.7"* @_ZN3WTF9HashTableINS_12AtomicStringENS_12KeyValuePairIS1_NS_6StringEEENS_24KeyValuePairKeyExtractorENS_16AtomicStringHashENS_18HashMapValueTraitsINS_10HashTraitsIS1_EENS8_IS3_EEEES9_NS_18PartitionAllocatorEE6ExpandEPS4_(%"class.WTF::HashTable.5"* %0, %"struct.WTF::KeyValuePair.7"* %119)
  br label %131

131:                                              ; preds = %97, %118, %129
  %132 = phi i8 [ 1, %118 ], [ 1, %129 ], [ 0, %97 ]
  %133 = phi %"struct.WTF::KeyValuePair.7"* [ %119, %118 ], [ %130, %129 ], [ %67, %97 ]
  %134 = insertvalue { %"struct.WTF::KeyValuePair.7"*, i8 } undef, %"struct.WTF::KeyValuePair.7"* %133, 0
  %135 = insertvalue { %"struct.WTF::KeyValuePair.7"*, i8 } %134, i8 %132, 1
  ret { %"struct.WTF::KeyValuePair.7"*, i8 } %135
}

; Function Attrs: nounwind ssp uwtable
define linkonce_odr hidden void @_ZN3WTF17HashMapTranslatorINS_18HashMapValueTraitsINS_10HashTraitsINS_12AtomicStringEEENS2_INS_6StringEEEEENS_16AtomicStringHashENS_18PartitionAllocatorEE9TranslateINS_12KeyValuePairIS3_S5_EERA15_KcRA34_SE_EEvRT_OT0_OT1_(%"struct.WTF::KeyValuePair.7"* dereferenceable(16), [15 x i8]* dereferenceable(15), [34 x i8]* dereferenceable(34)) local_unnamed_addr #0 comdat align 2 {
  %4 = alloca %"class.WTF::AtomicString", align 8
  %5 = bitcast %"class.WTF::AtomicString"* %4 to i8*
  call void @llvm.lifetime.start.p0i8(i64 8, i8* nonnull %5) #9
  %6 = getelementptr inbounds [15 x i8], [15 x i8]* %1, i64 0, i64 0
  %7 = icmp eq [15 x i8]* %1, null
  br i1 %7, label %10, label %8

8:                                                ; preds = %3
  %9 = tail call i64 @strlen(i8* nonnull %6) #10
  br label %10

10:                                               ; preds = %3, %8
  %11 = phi i64 [ %9, %8 ], [ 0, %3 ]
  call void @_ZN3WTF12AtomicStringC2EPKhm(%"class.WTF::AtomicString"* nonnull %4, i8* %6, i64 %11) #9
  %12 = getelementptr inbounds %"class.WTF::AtomicString", %"class.WTF::AtomicString"* %4, i64 0, i32 0, i32 0, i32 0
  %13 = bitcast %"class.WTF::AtomicString"* %4 to i64*
  %14 = load i64, i64* %13, align 8
  store %"class.WTF::StringImpl"* null, %"class.WTF::StringImpl"** %12, align 8
  %15 = bitcast %"struct.WTF::KeyValuePair.7"* %0 to i64*
  %16 = getelementptr inbounds %"struct.WTF::KeyValuePair.7", %"struct.WTF::KeyValuePair.7"* %0, i64 0, i32 0, i32 0, i32 0, i32 0
  %17 = load %"class.WTF::StringImpl"*, %"class.WTF::StringImpl"** %16, align 8
  store i64 %14, i64* %15, align 8
  %18 = icmp eq %"class.WTF::StringImpl"* %17, null
  br i1 %18, label %32, label %19

19:                                               ; preds = %10
  %20 = getelementptr inbounds %"class.WTF::StringImpl", %"class.WTF::StringImpl"* %17, i64 0, i32 2, i32 0, i32 0, i32 0, i32 0, i32 0
  %21 = load atomic i32, i32* %20 monotonic, align 4
  %22 = and i32 %21, 2
  %23 = icmp eq i32 %22, 0
  %24 = getelementptr inbounds %"class.WTF::StringImpl", %"class.WTF::StringImpl"* %17, i64 0, i32 0
  %25 = load i32, i32* %24, align 4
  br i1 %23, label %26, label %28

26:                                               ; preds = %19
  %27 = add i32 %25, -1
  store i32 %27, i32* %24, align 4
  br label %28

28:                                               ; preds = %26, %19
  %29 = phi i32 [ %27, %26 ], [ %25, %19 ]
  %30 = icmp eq i32 %29, 0
  br i1 %30, label %31, label %32

31:                                               ; preds = %28
  call void @_ZNK3WTF10StringImpl18DestroyIfNotStaticEv(%"class.WTF::StringImpl"* nonnull %17) #9
  br label %32

32:                                               ; preds = %10, %28, %31
  %33 = load %"class.WTF::StringImpl"*, %"class.WTF::StringImpl"** %12, align 8
  %34 = icmp eq %"class.WTF::StringImpl"* %33, null
  br i1 %34, label %48, label %35

35:                                               ; preds = %32
  %36 = getelementptr inbounds %"class.WTF::StringImpl", %"class.WTF::StringImpl"* %33, i64 0, i32 2, i32 0, i32 0, i32 0, i32 0, i32 0
  %37 = load atomic i32, i32* %36 monotonic, align 4
  %38 = and i32 %37, 2
  %39 = icmp eq i32 %38, 0
  %40 = getelementptr inbounds %"class.WTF::StringImpl", %"class.WTF::StringImpl"* %33, i64 0, i32 0
  %41 = load i32, i32* %40, align 4
  br i1 %39, label %42, label %44

42:                                               ; preds = %35
  %43 = add i32 %41, -1
  store i32 %43, i32* %40, align 4
  br label %44

44:                                               ; preds = %42, %35
  %45 = phi i32 [ %43, %42 ], [ %41, %35 ]
  %46 = icmp eq i32 %45, 0
  br i1 %46, label %47, label %48

47:                                               ; preds = %44
  call void @_ZNK3WTF10StringImpl18DestroyIfNotStaticEv(%"class.WTF::StringImpl"* nonnull %33) #9
  br label %48

48:                                               ; preds = %32, %44, %47
  call void @llvm.lifetime.end.p0i8(i64 8, i8* nonnull %5) #9
  %49 = getelementptr inbounds %"struct.WTF::KeyValuePair.7", %"struct.WTF::KeyValuePair.7"* %0, i64 0, i32 1
  call void @_ZN3WTF17GenericHashTraitsINS_6StringEE5StoreIRA34_KcEEvOT_RS1_([34 x i8]* dereferenceable(34) %2, %"class.WTF::String"* dereferenceable(8) %49)
  ret void
}

; Function Attrs: nounwind ssp uwtable
define linkonce_odr hidden { %"struct.WTF::KeyValuePair.7"*, i8 } @_ZN3WTF9HashTableINS_12AtomicStringENS_12KeyValuePairIS1_NS_6StringEEENS_24KeyValuePairKeyExtractorENS_16AtomicStringHashENS_18HashMapValueTraitsINS_10HashTraitsIS1_EENS8_IS3_EEEES9_NS_18PartitionAllocatorEE6insertINS_17HashMapTranslatorISB_S6_SC_EERA15_KcRA65_SH_EENS_18HashTableAddResultISD_S4_EEOT0_OT1_(%"class.WTF::HashTable.5"*, [15 x i8]* dereferenceable(15), [65 x i8]* dereferenceable(65)) local_unnamed_addr #0 comdat align 2 {
  %4 = alloca %"class.WTF::AtomicString", align 8
  %5 = alloca %"class.WTF::AtomicString", align 8
  %6 = getelementptr inbounds %"class.WTF::HashTable.5", %"class.WTF::HashTable.5"* %0, i64 0, i32 0
  %7 = load %"struct.WTF::KeyValuePair.7"*, %"struct.WTF::KeyValuePair.7"** %6, align 8
  %8 = icmp eq %"struct.WTF::KeyValuePair.7"* %7, null
  br i1 %8, label %9, label %12

9:                                                ; preds = %3
  %10 = tail call %"struct.WTF::KeyValuePair.7"* @_ZN3WTF9HashTableINS_12AtomicStringENS_12KeyValuePairIS1_NS_6StringEEENS_24KeyValuePairKeyExtractorENS_16AtomicStringHashENS_18HashMapValueTraitsINS_10HashTraitsIS1_EENS8_IS3_EEEES9_NS_18PartitionAllocatorEE6ExpandEPS4_(%"class.WTF::HashTable.5"* %0, %"struct.WTF::KeyValuePair.7"* null)
  %11 = load %"struct.WTF::KeyValuePair.7"*, %"struct.WTF::KeyValuePair.7"** %6, align 8
  br label %12

12:                                               ; preds = %3, %9
  %13 = phi %"struct.WTF::KeyValuePair.7"* [ %7, %3 ], [ %11, %9 ]
  %14 = getelementptr inbounds %"class.WTF::HashTable.5", %"class.WTF::HashTable.5"* %0, i64 0, i32 1
  %15 = load i32, i32* %14, align 8
  %16 = add i32 %15, -1
  %17 = zext i32 %16 to i64
  %18 = bitcast %"class.WTF::AtomicString"* %5 to i8*
  call void @llvm.lifetime.start.p0i8(i64 8, i8* nonnull %18) #9
  %19 = getelementptr inbounds [15 x i8], [15 x i8]* %1, i64 0, i64 0
  %20 = icmp eq [15 x i8]* %1, null
  br i1 %20, label %23, label %21

21:                                               ; preds = %12
  %22 = tail call i64 @strlen(i8* nonnull %19) #10
  br label %23

23:                                               ; preds = %21, %12
  %24 = phi i64 [ %22, %21 ], [ 0, %12 ]
  call void @_ZN3WTF12AtomicStringC2EPKhm(%"class.WTF::AtomicString"* nonnull %5, i8* %19, i64 %24) #9
  %25 = getelementptr inbounds %"class.WTF::AtomicString", %"class.WTF::AtomicString"* %5, i64 0, i32 0, i32 0, i32 0
  %26 = load %"class.WTF::StringImpl"*, %"class.WTF::StringImpl"** %25, align 8
  %27 = getelementptr inbounds %"class.WTF::StringImpl", %"class.WTF::StringImpl"* %26, i64 0, i32 2, i32 0, i32 0, i32 0, i32 0, i32 0
  %28 = load atomic i32, i32* %27 monotonic, align 4
  %29 = lshr i32 %28, 8
  %30 = icmp eq %"class.WTF::StringImpl"* %26, null
  br i1 %30, label %43, label %31

31:                                               ; preds = %23
  %32 = load atomic i32, i32* %27 monotonic, align 4
  %33 = and i32 %32, 2
  %34 = icmp eq i32 %33, 0
  %35 = getelementptr inbounds %"class.WTF::StringImpl", %"class.WTF::StringImpl"* %26, i64 0, i32 0
  %36 = load i32, i32* %35, align 4
  br i1 %34, label %37, label %39

37:                                               ; preds = %31
  %38 = add i32 %36, -1
  store i32 %38, i32* %35, align 4
  br label %39

39:                                               ; preds = %37, %31
  %40 = phi i32 [ %38, %37 ], [ %36, %31 ]
  %41 = icmp eq i32 %40, 0
  br i1 %41, label %42, label %43

42:                                               ; preds = %39
  call void @_ZNK3WTF10StringImpl18DestroyIfNotStaticEv(%"class.WTF::StringImpl"* nonnull %26) #9
  br label %43

43:                                               ; preds = %23, %39, %42
  call void @llvm.lifetime.end.p0i8(i64 8, i8* nonnull %18) #9
  %44 = and i32 %29, %16
  %45 = zext i32 %44 to i64
  %46 = getelementptr inbounds %"struct.WTF::KeyValuePair.7", %"struct.WTF::KeyValuePair.7"* %13, i64 %45
  %47 = getelementptr inbounds %"struct.WTF::KeyValuePair.7", %"struct.WTF::KeyValuePair.7"* %46, i64 0, i32 0, i32 0, i32 0, i32 0
  %48 = load %"class.WTF::StringImpl"*, %"class.WTF::StringImpl"** %47, align 8
  %49 = icmp eq %"class.WTF::StringImpl"* %48, null
  br i1 %49, label %118, label %50

50:                                               ; preds = %43
  %51 = bitcast %"class.WTF::AtomicString"* %4 to i8*
  %52 = getelementptr inbounds %"class.WTF::AtomicString", %"class.WTF::AtomicString"* %4, i64 0, i32 0, i32 0, i32 0
  %53 = xor i32 %29, -1
  %54 = lshr i32 %28, 31
  %55 = add nsw i32 %54, %53
  %56 = shl i32 %55, 12
  %57 = xor i32 %56, %55
  %58 = lshr i32 %57, 7
  %59 = xor i32 %58, %57
  %60 = shl i32 %59, 2
  %61 = xor i32 %60, %59
  %62 = lshr i32 %61, 20
  %63 = xor i32 %62, %61
  %64 = or i32 %63, 1
  %65 = zext i32 %64 to i64
  br label %66

66:                                               ; preds = %50, %98
  %67 = phi %"struct.WTF::KeyValuePair.7"* [ %46, %50 ], [ %104, %98 ]
  %68 = phi %"struct.WTF::KeyValuePair.7"* [ null, %50 ], [ %99, %98 ]
  %69 = phi i64 [ %45, %50 ], [ %103, %98 ]
  %70 = phi i64 [ 0, %50 ], [ %101, %98 ]
  %71 = bitcast %"struct.WTF::KeyValuePair.7"* %67 to i8**
  %72 = load i8*, i8** %71, align 8
  %73 = icmp eq i8* %72, inttoptr (i64 -1 to i8*)
  br i1 %73, label %98, label %74

74:                                               ; preds = %66
  call void @llvm.lifetime.start.p0i8(i64 8, i8* nonnull %51) #9
  br i1 %20, label %77, label %75

75:                                               ; preds = %74
  %76 = call i64 @strlen(i8* nonnull %19) #10
  br label %77

77:                                               ; preds = %75, %74
  %78 = phi i64 [ %76, %75 ], [ 0, %74 ]
  call void @_ZN3WTF12AtomicStringC2EPKhm(%"class.WTF::AtomicString"* nonnull %4, i8* %19, i64 %78) #9
  %79 = getelementptr inbounds %"struct.WTF::KeyValuePair.7", %"struct.WTF::KeyValuePair.7"* %67, i64 0, i32 0, i32 0, i32 0, i32 0
  %80 = load %"class.WTF::StringImpl"*, %"class.WTF::StringImpl"** %79, align 8
  %81 = load %"class.WTF::StringImpl"*, %"class.WTF::StringImpl"** %52, align 8
  %82 = icmp eq %"class.WTF::StringImpl"* %80, %81
  %83 = icmp eq %"class.WTF::StringImpl"* %81, null
  br i1 %83, label %97, label %84

84:                                               ; preds = %77
  %85 = getelementptr inbounds %"class.WTF::StringImpl", %"class.WTF::StringImpl"* %81, i64 0, i32 2, i32 0, i32 0, i32 0, i32 0, i32 0
  %86 = load atomic i32, i32* %85 monotonic, align 4
  %87 = and i32 %86, 2
  %88 = icmp eq i32 %87, 0
  %89 = getelementptr inbounds %"class.WTF::StringImpl", %"class.WTF::StringImpl"* %81, i64 0, i32 0
  %90 = load i32, i32* %89, align 4
  br i1 %88, label %91, label %93

91:                                               ; preds = %84
  %92 = add i32 %90, -1
  store i32 %92, i32* %89, align 4
  br label %93

93:                                               ; preds = %91, %84
  %94 = phi i32 [ %92, %91 ], [ %90, %84 ]
  %95 = icmp eq i32 %94, 0
  br i1 %95, label %96, label %97

96:                                               ; preds = %93
  call void @_ZNK3WTF10StringImpl18DestroyIfNotStaticEv(%"class.WTF::StringImpl"* nonnull %81) #9
  br label %97

97:                                               ; preds = %77, %93, %96
  call void @llvm.lifetime.end.p0i8(i64 8, i8* nonnull %51) #9
  br i1 %82, label %131, label %98

98:                                               ; preds = %66, %97
  %99 = phi %"struct.WTF::KeyValuePair.7"* [ %68, %97 ], [ %67, %66 ]
  %100 = icmp eq i64 %70, 0
  %101 = select i1 %100, i64 %65, i64 %70
  %102 = add i64 %101, %69
  %103 = and i64 %102, %17
  %104 = getelementptr inbounds %"struct.WTF::KeyValuePair.7", %"struct.WTF::KeyValuePair.7"* %13, i64 %103
  %105 = getelementptr inbounds %"struct.WTF::KeyValuePair.7", %"struct.WTF::KeyValuePair.7"* %104, i64 0, i32 0, i32 0, i32 0, i32 0
  %106 = load %"class.WTF::StringImpl"*, %"class.WTF::StringImpl"** %105, align 8
  %107 = icmp eq %"class.WTF::StringImpl"* %106, null
  br i1 %107, label %108, label %66

108:                                              ; preds = %98
  %109 = icmp eq %"struct.WTF::KeyValuePair.7"* %99, null
  br i1 %109, label %118, label %110

110:                                              ; preds = %108
  %111 = bitcast %"struct.WTF::KeyValuePair.7"* %99 to i8*
  call void @llvm.memset.p0i8.i64(i8* nonnull align 8 %111, i8 0, i64 16, i1 false) #9
  %112 = getelementptr inbounds %"class.WTF::HashTable.5", %"class.WTF::HashTable.5"* %0, i64 0, i32 3
  %113 = load i32, i32* %112, align 8
  %114 = add i32 %113, 2147483647
  %115 = and i32 %114, 2147483647
  %116 = and i32 %113, -2147483648
  %117 = or i32 %115, %116
  store i32 %117, i32* %112, align 8
  br label %118

118:                                              ; preds = %43, %108, %110
  %119 = phi %"struct.WTF::KeyValuePair.7"* [ %99, %110 ], [ %104, %108 ], [ %46, %43 ]
  call void @_ZN3WTF17HashMapTranslatorINS_18HashMapValueTraitsINS_10HashTraitsINS_12AtomicStringEEENS2_INS_6StringEEEEENS_16AtomicStringHashENS_18PartitionAllocatorEE9TranslateINS_12KeyValuePairIS3_S5_EERA15_KcRA65_SE_EEvRT_OT0_OT1_(%"struct.WTF::KeyValuePair.7"* dereferenceable(16) %119, [15 x i8]* dereferenceable(15) %1, [65 x i8]* dereferenceable(65) %2)
  %120 = getelementptr inbounds %"class.WTF::HashTable.5", %"class.WTF::HashTable.5"* %0, i64 0, i32 2
  %121 = load i32, i32* %120, align 4
  %122 = add i32 %121, 1
  store i32 %122, i32* %120, align 4
  %123 = getelementptr inbounds %"class.WTF::HashTable.5", %"class.WTF::HashTable.5"* %0, i64 0, i32 3
  %124 = load i32, i32* %123, align 8
  %125 = add i32 %124, %122
  %126 = shl i32 %125, 1
  %127 = load i32, i32* %14, align 8
  %128 = icmp ult i32 %126, %127
  br i1 %128, label %131, label %129

129:                                              ; preds = %118
  %130 = call %"struct.WTF::KeyValuePair.7"* @_ZN3WTF9HashTableINS_12AtomicStringENS_12KeyValuePairIS1_NS_6StringEEENS_24KeyValuePairKeyExtractorENS_16AtomicStringHashENS_18HashMapValueTraitsINS_10HashTraitsIS1_EENS8_IS3_EEEES9_NS_18PartitionAllocatorEE6ExpandEPS4_(%"class.WTF::HashTable.5"* %0, %"struct.WTF::KeyValuePair.7"* %119)
  br label %131

131:                                              ; preds = %97, %118, %129
  %132 = phi i8 [ 1, %118 ], [ 1, %129 ], [ 0, %97 ]
  %133 = phi %"struct.WTF::KeyValuePair.7"* [ %119, %118 ], [ %130, %129 ], [ %67, %97 ]
  %134 = insertvalue { %"struct.WTF::KeyValuePair.7"*, i8 } undef, %"struct.WTF::KeyValuePair.7"* %133, 0
  %135 = insertvalue { %"struct.WTF::KeyValuePair.7"*, i8 } %134, i8 %132, 1
  ret { %"struct.WTF::KeyValuePair.7"*, i8 } %135
}

; Function Attrs: nounwind ssp uwtable
define linkonce_odr hidden void @_ZN3WTF17HashMapTranslatorINS_18HashMapValueTraitsINS_10HashTraitsINS_12AtomicStringEEENS2_INS_6StringEEEEENS_16AtomicStringHashENS_18PartitionAllocatorEE9TranslateINS_12KeyValuePairIS3_S5_EERA15_KcRA65_SE_EEvRT_OT0_OT1_(%"struct.WTF::KeyValuePair.7"* dereferenceable(16), [15 x i8]* dereferenceable(15), [65 x i8]* dereferenceable(65)) local_unnamed_addr #0 comdat align 2 {
  %4 = alloca %"class.WTF::AtomicString", align 8
  %5 = bitcast %"class.WTF::AtomicString"* %4 to i8*
  call void @llvm.lifetime.start.p0i8(i64 8, i8* nonnull %5) #9
  %6 = getelementptr inbounds [15 x i8], [15 x i8]* %1, i64 0, i64 0
  %7 = icmp eq [15 x i8]* %1, null
  br i1 %7, label %10, label %8

8:                                                ; preds = %3
  %9 = tail call i64 @strlen(i8* nonnull %6) #10
  br label %10

10:                                               ; preds = %3, %8
  %11 = phi i64 [ %9, %8 ], [ 0, %3 ]
  call void @_ZN3WTF12AtomicStringC2EPKhm(%"class.WTF::AtomicString"* nonnull %4, i8* %6, i64 %11) #9
  %12 = getelementptr inbounds %"class.WTF::AtomicString", %"class.WTF::AtomicString"* %4, i64 0, i32 0, i32 0, i32 0
  %13 = bitcast %"class.WTF::AtomicString"* %4 to i64*
  %14 = load i64, i64* %13, align 8
  store %"class.WTF::StringImpl"* null, %"class.WTF::StringImpl"** %12, align 8
  %15 = bitcast %"struct.WTF::KeyValuePair.7"* %0 to i64*
  %16 = getelementptr inbounds %"struct.WTF::KeyValuePair.7", %"struct.WTF::KeyValuePair.7"* %0, i64 0, i32 0, i32 0, i32 0, i32 0
  %17 = load %"class.WTF::StringImpl"*, %"class.WTF::StringImpl"** %16, align 8
  store i64 %14, i64* %15, align 8
  %18 = icmp eq %"class.WTF::StringImpl"* %17, null
  br i1 %18, label %32, label %19

19:                                               ; preds = %10
  %20 = getelementptr inbounds %"class.WTF::StringImpl", %"class.WTF::StringImpl"* %17, i64 0, i32 2, i32 0, i32 0, i32 0, i32 0, i32 0
  %21 = load atomic i32, i32* %20 monotonic, align 4
  %22 = and i32 %21, 2
  %23 = icmp eq i32 %22, 0
  %24 = getelementptr inbounds %"class.WTF::StringImpl", %"class.WTF::StringImpl"* %17, i64 0, i32 0
  %25 = load i32, i32* %24, align 4
  br i1 %23, label %26, label %28

26:                                               ; preds = %19
  %27 = add i32 %25, -1
  store i32 %27, i32* %24, align 4
  br label %28

28:                                               ; preds = %26, %19
  %29 = phi i32 [ %27, %26 ], [ %25, %19 ]
  %30 = icmp eq i32 %29, 0
  br i1 %30, label %31, label %32

31:                                               ; preds = %28
  call void @_ZNK3WTF10StringImpl18DestroyIfNotStaticEv(%"class.WTF::StringImpl"* nonnull %17) #9
  br label %32

32:                                               ; preds = %10, %28, %31
  %33 = load %"class.WTF::StringImpl"*, %"class.WTF::StringImpl"** %12, align 8
  %34 = icmp eq %"class.WTF::StringImpl"* %33, null
  br i1 %34, label %48, label %35

35:                                               ; preds = %32
  %36 = getelementptr inbounds %"class.WTF::StringImpl", %"class.WTF::StringImpl"* %33, i64 0, i32 2, i32 0, i32 0, i32 0, i32 0, i32 0
  %37 = load atomic i32, i32* %36 monotonic, align 4
  %38 = and i32 %37, 2
  %39 = icmp eq i32 %38, 0
  %40 = getelementptr inbounds %"class.WTF::StringImpl", %"class.WTF::StringImpl"* %33, i64 0, i32 0
  %41 = load i32, i32* %40, align 4
  br i1 %39, label %42, label %44

42:                                               ; preds = %35
  %43 = add i32 %41, -1
  store i32 %43, i32* %40, align 4
  br label %44

44:                                               ; preds = %42, %35
  %45 = phi i32 [ %43, %42 ], [ %41, %35 ]
  %46 = icmp eq i32 %45, 0
  br i1 %46, label %47, label %48

47:                                               ; preds = %44
  call void @_ZNK3WTF10StringImpl18DestroyIfNotStaticEv(%"class.WTF::StringImpl"* nonnull %33) #9
  br label %48

48:                                               ; preds = %32, %44, %47
  call void @llvm.lifetime.end.p0i8(i64 8, i8* nonnull %5) #9
  %49 = getelementptr inbounds %"struct.WTF::KeyValuePair.7", %"struct.WTF::KeyValuePair.7"* %0, i64 0, i32 1
  call void @_ZN3WTF17GenericHashTraitsINS_6StringEE5StoreIRA65_KcEEvOT_RS1_([65 x i8]* dereferenceable(65) %2, %"class.WTF::String"* dereferenceable(8) %49)
  ret void
}

; Function Attrs: nounwind ssp uwtable
define linkonce_odr hidden { %"struct.WTF::KeyValuePair.7"*, i8 } @_ZN3WTF9HashTableINS_12AtomicStringENS_12KeyValuePairIS1_NS_6StringEEENS_24KeyValuePairKeyExtractorENS_16AtomicStringHashENS_18HashMapValueTraitsINS_10HashTraitsIS1_EENS8_IS3_EEEES9_NS_18PartitionAllocatorEE6insertINS_17HashMapTranslatorISB_S6_SC_EERA8_KcRA109_SH_EENS_18HashTableAddResultISD_S4_EEOT0_OT1_(%"class.WTF::HashTable.5"*, [8 x i8]* dereferenceable(8), [109 x i8]* dereferenceable(109)) local_unnamed_addr #0 comdat align 2 {
  %4 = alloca %"class.WTF::AtomicString", align 8
  %5 = alloca %"class.WTF::AtomicString", align 8
  %6 = getelementptr inbounds %"class.WTF::HashTable.5", %"class.WTF::HashTable.5"* %0, i64 0, i32 0
  %7 = load %"struct.WTF::KeyValuePair.7"*, %"struct.WTF::KeyValuePair.7"** %6, align 8
  %8 = icmp eq %"struct.WTF::KeyValuePair.7"* %7, null
  br i1 %8, label %9, label %12

9:                                                ; preds = %3
  %10 = tail call %"struct.WTF::KeyValuePair.7"* @_ZN3WTF9HashTableINS_12AtomicStringENS_12KeyValuePairIS1_NS_6StringEEENS_24KeyValuePairKeyExtractorENS_16AtomicStringHashENS_18HashMapValueTraitsINS_10HashTraitsIS1_EENS8_IS3_EEEES9_NS_18PartitionAllocatorEE6ExpandEPS4_(%"class.WTF::HashTable.5"* %0, %"struct.WTF::KeyValuePair.7"* null)
  %11 = load %"struct.WTF::KeyValuePair.7"*, %"struct.WTF::KeyValuePair.7"** %6, align 8
  br label %12

12:                                               ; preds = %3, %9
  %13 = phi %"struct.WTF::KeyValuePair.7"* [ %7, %3 ], [ %11, %9 ]
  %14 = getelementptr inbounds %"class.WTF::HashTable.5", %"class.WTF::HashTable.5"* %0, i64 0, i32 1
  %15 = load i32, i32* %14, align 8
  %16 = add i32 %15, -1
  %17 = zext i32 %16 to i64
  %18 = bitcast %"class.WTF::AtomicString"* %5 to i8*
  call void @llvm.lifetime.start.p0i8(i64 8, i8* nonnull %18) #9
  %19 = getelementptr inbounds [8 x i8], [8 x i8]* %1, i64 0, i64 0
  %20 = icmp eq [8 x i8]* %1, null
  br i1 %20, label %23, label %21

21:                                               ; preds = %12
  %22 = tail call i64 @strlen(i8* nonnull %19) #10
  br label %23

23:                                               ; preds = %21, %12
  %24 = phi i64 [ %22, %21 ], [ 0, %12 ]
  call void @_ZN3WTF12AtomicStringC2EPKhm(%"class.WTF::AtomicString"* nonnull %5, i8* %19, i64 %24) #9
  %25 = getelementptr inbounds %"class.WTF::AtomicString", %"class.WTF::AtomicString"* %5, i64 0, i32 0, i32 0, i32 0
  %26 = load %"class.WTF::StringImpl"*, %"class.WTF::StringImpl"** %25, align 8
  %27 = getelementptr inbounds %"class.WTF::StringImpl", %"class.WTF::StringImpl"* %26, i64 0, i32 2, i32 0, i32 0, i32 0, i32 0, i32 0
  %28 = load atomic i32, i32* %27 monotonic, align 4
  %29 = lshr i32 %28, 8
  %30 = icmp eq %"class.WTF::StringImpl"* %26, null
  br i1 %30, label %43, label %31

31:                                               ; preds = %23
  %32 = load atomic i32, i32* %27 monotonic, align 4
  %33 = and i32 %32, 2
  %34 = icmp eq i32 %33, 0
  %35 = getelementptr inbounds %"class.WTF::StringImpl", %"class.WTF::StringImpl"* %26, i64 0, i32 0
  %36 = load i32, i32* %35, align 4
  br i1 %34, label %37, label %39

37:                                               ; preds = %31
  %38 = add i32 %36, -1
  store i32 %38, i32* %35, align 4
  br label %39

39:                                               ; preds = %37, %31
  %40 = phi i32 [ %38, %37 ], [ %36, %31 ]
  %41 = icmp eq i32 %40, 0
  br i1 %41, label %42, label %43

42:                                               ; preds = %39
  call void @_ZNK3WTF10StringImpl18DestroyIfNotStaticEv(%"class.WTF::StringImpl"* nonnull %26) #9
  br label %43

43:                                               ; preds = %23, %39, %42
  call void @llvm.lifetime.end.p0i8(i64 8, i8* nonnull %18) #9
  %44 = and i32 %29, %16
  %45 = zext i32 %44 to i64
  %46 = getelementptr inbounds %"struct.WTF::KeyValuePair.7", %"struct.WTF::KeyValuePair.7"* %13, i64 %45
  %47 = getelementptr inbounds %"struct.WTF::KeyValuePair.7", %"struct.WTF::KeyValuePair.7"* %46, i64 0, i32 0, i32 0, i32 0, i32 0
  %48 = load %"class.WTF::StringImpl"*, %"class.WTF::StringImpl"** %47, align 8
  %49 = icmp eq %"class.WTF::StringImpl"* %48, null
  br i1 %49, label %118, label %50

50:                                               ; preds = %43
  %51 = bitcast %"class.WTF::AtomicString"* %4 to i8*
  %52 = getelementptr inbounds %"class.WTF::AtomicString", %"class.WTF::AtomicString"* %4, i64 0, i32 0, i32 0, i32 0
  %53 = xor i32 %29, -1
  %54 = lshr i32 %28, 31
  %55 = add nsw i32 %54, %53
  %56 = shl i32 %55, 12
  %57 = xor i32 %56, %55
  %58 = lshr i32 %57, 7
  %59 = xor i32 %58, %57
  %60 = shl i32 %59, 2
  %61 = xor i32 %60, %59
  %62 = lshr i32 %61, 20
  %63 = xor i32 %62, %61
  %64 = or i32 %63, 1
  %65 = zext i32 %64 to i64
  br label %66

66:                                               ; preds = %50, %98
  %67 = phi %"struct.WTF::KeyValuePair.7"* [ %46, %50 ], [ %104, %98 ]
  %68 = phi %"struct.WTF::KeyValuePair.7"* [ null, %50 ], [ %99, %98 ]
  %69 = phi i64 [ %45, %50 ], [ %103, %98 ]
  %70 = phi i64 [ 0, %50 ], [ %101, %98 ]
  %71 = bitcast %"struct.WTF::KeyValuePair.7"* %67 to i8**
  %72 = load i8*, i8** %71, align 8
  %73 = icmp eq i8* %72, inttoptr (i64 -1 to i8*)
  br i1 %73, label %98, label %74

74:                                               ; preds = %66
  call void @llvm.lifetime.start.p0i8(i64 8, i8* nonnull %51) #9
  br i1 %20, label %77, label %75

75:                                               ; preds = %74
  %76 = call i64 @strlen(i8* nonnull %19) #10
  br label %77

77:                                               ; preds = %75, %74
  %78 = phi i64 [ %76, %75 ], [ 0, %74 ]
  call void @_ZN3WTF12AtomicStringC2EPKhm(%"class.WTF::AtomicString"* nonnull %4, i8* %19, i64 %78) #9
  %79 = getelementptr inbounds %"struct.WTF::KeyValuePair.7", %"struct.WTF::KeyValuePair.7"* %67, i64 0, i32 0, i32 0, i32 0, i32 0
  %80 = load %"class.WTF::StringImpl"*, %"class.WTF::StringImpl"** %79, align 8
  %81 = load %"class.WTF::StringImpl"*, %"class.WTF::StringImpl"** %52, align 8
  %82 = icmp eq %"class.WTF::StringImpl"* %80, %81
  %83 = icmp eq %"class.WTF::StringImpl"* %81, null
  br i1 %83, label %97, label %84

84:                                               ; preds = %77
  %85 = getelementptr inbounds %"class.WTF::StringImpl", %"class.WTF::StringImpl"* %81, i64 0, i32 2, i32 0, i32 0, i32 0, i32 0, i32 0
  %86 = load atomic i32, i32* %85 monotonic, align 4
  %87 = and i32 %86, 2
  %88 = icmp eq i32 %87, 0
  %89 = getelementptr inbounds %"class.WTF::StringImpl", %"class.WTF::StringImpl"* %81, i64 0, i32 0
  %90 = load i32, i32* %89, align 4
  br i1 %88, label %91, label %93

91:                                               ; preds = %84
  %92 = add i32 %90, -1
  store i32 %92, i32* %89, align 4
  br label %93

93:                                               ; preds = %91, %84
  %94 = phi i32 [ %92, %91 ], [ %90, %84 ]
  %95 = icmp eq i32 %94, 0
  br i1 %95, label %96, label %97

96:                                               ; preds = %93
  call void @_ZNK3WTF10StringImpl18DestroyIfNotStaticEv(%"class.WTF::StringImpl"* nonnull %81) #9
  br label %97

97:                                               ; preds = %77, %93, %96
  call void @llvm.lifetime.end.p0i8(i64 8, i8* nonnull %51) #9
  br i1 %82, label %131, label %98

98:                                               ; preds = %66, %97
  %99 = phi %"struct.WTF::KeyValuePair.7"* [ %68, %97 ], [ %67, %66 ]
  %100 = icmp eq i64 %70, 0
  %101 = select i1 %100, i64 %65, i64 %70
  %102 = add i64 %101, %69
  %103 = and i64 %102, %17
  %104 = getelementptr inbounds %"struct.WTF::KeyValuePair.7", %"struct.WTF::KeyValuePair.7"* %13, i64 %103
  %105 = getelementptr inbounds %"struct.WTF::KeyValuePair.7", %"struct.WTF::KeyValuePair.7"* %104, i64 0, i32 0, i32 0, i32 0, i32 0
  %106 = load %"class.WTF::StringImpl"*, %"class.WTF::StringImpl"** %105, align 8
  %107 = icmp eq %"class.WTF::StringImpl"* %106, null
  br i1 %107, label %108, label %66

108:                                              ; preds = %98
  %109 = icmp eq %"struct.WTF::KeyValuePair.7"* %99, null
  br i1 %109, label %118, label %110

110:                                              ; preds = %108
  %111 = bitcast %"struct.WTF::KeyValuePair.7"* %99 to i8*
  call void @llvm.memset.p0i8.i64(i8* nonnull align 8 %111, i8 0, i64 16, i1 false) #9
  %112 = getelementptr inbounds %"class.WTF::HashTable.5", %"class.WTF::HashTable.5"* %0, i64 0, i32 3
  %113 = load i32, i32* %112, align 8
  %114 = add i32 %113, 2147483647
  %115 = and i32 %114, 2147483647
  %116 = and i32 %113, -2147483648
  %117 = or i32 %115, %116
  store i32 %117, i32* %112, align 8
  br label %118

118:                                              ; preds = %43, %108, %110
  %119 = phi %"struct.WTF::KeyValuePair.7"* [ %99, %110 ], [ %104, %108 ], [ %46, %43 ]
  call void @_ZN3WTF17HashMapTranslatorINS_18HashMapValueTraitsINS_10HashTraitsINS_12AtomicStringEEENS2_INS_6StringEEEEENS_16AtomicStringHashENS_18PartitionAllocatorEE9TranslateINS_12KeyValuePairIS3_S5_EERA8_KcRA109_SE_EEvRT_OT0_OT1_(%"struct.WTF::KeyValuePair.7"* dereferenceable(16) %119, [8 x i8]* dereferenceable(8) %1, [109 x i8]* dereferenceable(109) %2)
  %120 = getelementptr inbounds %"class.WTF::HashTable.5", %"class.WTF::HashTable.5"* %0, i64 0, i32 2
  %121 = load i32, i32* %120, align 4
  %122 = add i32 %121, 1
  store i32 %122, i32* %120, align 4
  %123 = getelementptr inbounds %"class.WTF::HashTable.5", %"class.WTF::HashTable.5"* %0, i64 0, i32 3
  %124 = load i32, i32* %123, align 8
  %125 = add i32 %124, %122
  %126 = shl i32 %125, 1
  %127 = load i32, i32* %14, align 8
  %128 = icmp ult i32 %126, %127
  br i1 %128, label %131, label %129

129:                                              ; preds = %118
  %130 = call %"struct.WTF::KeyValuePair.7"* @_ZN3WTF9HashTableINS_12AtomicStringENS_12KeyValuePairIS1_NS_6StringEEENS_24KeyValuePairKeyExtractorENS_16AtomicStringHashENS_18HashMapValueTraitsINS_10HashTraitsIS1_EENS8_IS3_EEEES9_NS_18PartitionAllocatorEE6ExpandEPS4_(%"class.WTF::HashTable.5"* %0, %"struct.WTF::KeyValuePair.7"* %119)
  br label %131

131:                                              ; preds = %97, %118, %129
  %132 = phi i8 [ 1, %118 ], [ 1, %129 ], [ 0, %97 ]
  %133 = phi %"struct.WTF::KeyValuePair.7"* [ %119, %118 ], [ %130, %129 ], [ %67, %97 ]
  %134 = insertvalue { %"struct.WTF::KeyValuePair.7"*, i8 } undef, %"struct.WTF::KeyValuePair.7"* %133, 0
  %135 = insertvalue { %"struct.WTF::KeyValuePair.7"*, i8 } %134, i8 %132, 1
  ret { %"struct.WTF::KeyValuePair.7"*, i8 } %135
}

; Function Attrs: nounwind ssp uwtable
define linkonce_odr hidden void @_ZN3WTF17HashMapTranslatorINS_18HashMapValueTraitsINS_10HashTraitsINS_12AtomicStringEEENS2_INS_6StringEEEEENS_16AtomicStringHashENS_18PartitionAllocatorEE9TranslateINS_12KeyValuePairIS3_S5_EERA8_KcRA109_SE_EEvRT_OT0_OT1_(%"struct.WTF::KeyValuePair.7"* dereferenceable(16), [8 x i8]* dereferenceable(8), [109 x i8]* dereferenceable(109)) local_unnamed_addr #0 comdat align 2 {
  %4 = alloca %"class.WTF::AtomicString", align 8
  %5 = bitcast %"class.WTF::AtomicString"* %4 to i8*
  call void @llvm.lifetime.start.p0i8(i64 8, i8* nonnull %5) #9
  %6 = getelementptr inbounds [8 x i8], [8 x i8]* %1, i64 0, i64 0
  %7 = icmp eq [8 x i8]* %1, null
  br i1 %7, label %10, label %8

8:                                                ; preds = %3
  %9 = tail call i64 @strlen(i8* nonnull %6) #10
  br label %10

10:                                               ; preds = %3, %8
  %11 = phi i64 [ %9, %8 ], [ 0, %3 ]
  call void @_ZN3WTF12AtomicStringC2EPKhm(%"class.WTF::AtomicString"* nonnull %4, i8* %6, i64 %11) #9
  %12 = getelementptr inbounds %"class.WTF::AtomicString", %"class.WTF::AtomicString"* %4, i64 0, i32 0, i32 0, i32 0
  %13 = bitcast %"class.WTF::AtomicString"* %4 to i64*
  %14 = load i64, i64* %13, align 8
  store %"class.WTF::StringImpl"* null, %"class.WTF::StringImpl"** %12, align 8
  %15 = bitcast %"struct.WTF::KeyValuePair.7"* %0 to i64*
  %16 = getelementptr inbounds %"struct.WTF::KeyValuePair.7", %"struct.WTF::KeyValuePair.7"* %0, i64 0, i32 0, i32 0, i32 0, i32 0
  %17 = load %"class.WTF::StringImpl"*, %"class.WTF::StringImpl"** %16, align 8
  store i64 %14, i64* %15, align 8
  %18 = icmp eq %"class.WTF::StringImpl"* %17, null
  br i1 %18, label %32, label %19

19:                                               ; preds = %10
  %20 = getelementptr inbounds %"class.WTF::StringImpl", %"class.WTF::StringImpl"* %17, i64 0, i32 2, i32 0, i32 0, i32 0, i32 0, i32 0
  %21 = load atomic i32, i32* %20 monotonic, align 4
  %22 = and i32 %21, 2
  %23 = icmp eq i32 %22, 0
  %24 = getelementptr inbounds %"class.WTF::StringImpl", %"class.WTF::StringImpl"* %17, i64 0, i32 0
  %25 = load i32, i32* %24, align 4
  br i1 %23, label %26, label %28

26:                                               ; preds = %19
  %27 = add i32 %25, -1
  store i32 %27, i32* %24, align 4
  br label %28

28:                                               ; preds = %26, %19
  %29 = phi i32 [ %27, %26 ], [ %25, %19 ]
  %30 = icmp eq i32 %29, 0
  br i1 %30, label %31, label %32

31:                                               ; preds = %28
  call void @_ZNK3WTF10StringImpl18DestroyIfNotStaticEv(%"class.WTF::StringImpl"* nonnull %17) #9
  br label %32

32:                                               ; preds = %10, %28, %31
  %33 = load %"class.WTF::StringImpl"*, %"class.WTF::StringImpl"** %12, align 8
  %34 = icmp eq %"class.WTF::StringImpl"* %33, null
  br i1 %34, label %48, label %35

35:                                               ; preds = %32
  %36 = getelementptr inbounds %"class.WTF::StringImpl", %"class.WTF::StringImpl"* %33, i64 0, i32 2, i32 0, i32 0, i32 0, i32 0, i32 0
  %37 = load atomic i32, i32* %36 monotonic, align 4
  %38 = and i32 %37, 2
  %39 = icmp eq i32 %38, 0
  %40 = getelementptr inbounds %"class.WTF::StringImpl", %"class.WTF::StringImpl"* %33, i64 0, i32 0
  %41 = load i32, i32* %40, align 4
  br i1 %39, label %42, label %44

42:                                               ; preds = %35
  %43 = add i32 %41, -1
  store i32 %43, i32* %40, align 4
  br label %44

44:                                               ; preds = %42, %35
  %45 = phi i32 [ %43, %42 ], [ %41, %35 ]
  %46 = icmp eq i32 %45, 0
  br i1 %46, label %47, label %48

47:                                               ; preds = %44
  call void @_ZNK3WTF10StringImpl18DestroyIfNotStaticEv(%"class.WTF::StringImpl"* nonnull %33) #9
  br label %48

48:                                               ; preds = %32, %44, %47
  call void @llvm.lifetime.end.p0i8(i64 8, i8* nonnull %5) #9
  %49 = getelementptr inbounds %"struct.WTF::KeyValuePair.7", %"struct.WTF::KeyValuePair.7"* %0, i64 0, i32 1
  call void @_ZN3WTF17GenericHashTraitsINS_6StringEE5StoreIRA109_KcEEvOT_RS1_([109 x i8]* dereferenceable(109) %2, %"class.WTF::String"* dereferenceable(8) %49)
  ret void
}

; Function Attrs: nounwind ssp uwtable
define linkonce_odr hidden void @_ZN3WTF17GenericHashTraitsINS_6StringEE5StoreIRA119_KcEEvOT_RS1_([119 x i8]* dereferenceable(119), %"class.WTF::String"* dereferenceable(8)) local_unnamed_addr #0 comdat align 2 {
  %3 = alloca %"class.WTF::String", align 8
  %4 = bitcast %"class.WTF::String"* %3 to i8*
  call void @llvm.lifetime.start.p0i8(i64 8, i8* nonnull %4) #9
  %5 = getelementptr inbounds [119 x i8], [119 x i8]* %0, i64 0, i64 0
  %6 = icmp eq [119 x i8]* %0, null
  br i1 %6, label %9, label %7

7:                                                ; preds = %2
  %8 = tail call i64 @strlen(i8* nonnull %5) #10
  br label %9

9:                                                ; preds = %2, %7
  %10 = phi i64 [ %8, %7 ], [ 0, %2 ]
  call void @_ZN3WTF6StringC2EPKcm(%"class.WTF::String"* nonnull %3, i8* %5, i64 %10) #9
  %11 = getelementptr inbounds %"class.WTF::String", %"class.WTF::String"* %3, i64 0, i32 0, i32 0
  %12 = bitcast %"class.WTF::String"* %3 to i64*
  %13 = load i64, i64* %12, align 8
  store %"class.WTF::StringImpl"* null, %"class.WTF::StringImpl"** %11, align 8
  %14 = bitcast %"class.WTF::String"* %1 to i64*
  %15 = getelementptr inbounds %"class.WTF::String", %"class.WTF::String"* %1, i64 0, i32 0, i32 0
  %16 = load %"class.WTF::StringImpl"*, %"class.WTF::StringImpl"** %15, align 8
  store i64 %13, i64* %14, align 8
  %17 = icmp eq %"class.WTF::StringImpl"* %16, null
  br i1 %17, label %31, label %18

18:                                               ; preds = %9
  %19 = getelementptr inbounds %"class.WTF::StringImpl", %"class.WTF::StringImpl"* %16, i64 0, i32 2, i32 0, i32 0, i32 0, i32 0, i32 0
  %20 = load atomic i32, i32* %19 monotonic, align 4
  %21 = and i32 %20, 2
  %22 = icmp eq i32 %21, 0
  %23 = getelementptr inbounds %"class.WTF::StringImpl", %"class.WTF::StringImpl"* %16, i64 0, i32 0
  %24 = load i32, i32* %23, align 4
  br i1 %22, label %25, label %27

25:                                               ; preds = %18
  %26 = add i32 %24, -1
  store i32 %26, i32* %23, align 4
  br label %27

27:                                               ; preds = %25, %18
  %28 = phi i32 [ %26, %25 ], [ %24, %18 ]
  %29 = icmp eq i32 %28, 0
  br i1 %29, label %30, label %31

30:                                               ; preds = %27
  call void @_ZNK3WTF10StringImpl18DestroyIfNotStaticEv(%"class.WTF::StringImpl"* nonnull %16) #9
  br label %31

31:                                               ; preds = %9, %27, %30
  %32 = load %"class.WTF::StringImpl"*, %"class.WTF::StringImpl"** %11, align 8
  %33 = icmp eq %"class.WTF::StringImpl"* %32, null
  br i1 %33, label %47, label %34

34:                                               ; preds = %31
  %35 = getelementptr inbounds %"class.WTF::StringImpl", %"class.WTF::StringImpl"* %32, i64 0, i32 2, i32 0, i32 0, i32 0, i32 0, i32 0
  %36 = load atomic i32, i32* %35 monotonic, align 4
  %37 = and i32 %36, 2
  %38 = icmp eq i32 %37, 0
  %39 = getelementptr inbounds %"class.WTF::StringImpl", %"class.WTF::StringImpl"* %32, i64 0, i32 0
  %40 = load i32, i32* %39, align 4
  br i1 %38, label %41, label %43

41:                                               ; preds = %34
  %42 = add i32 %40, -1
  store i32 %42, i32* %39, align 4
  br label %43

43:                                               ; preds = %41, %34
  %44 = phi i32 [ %42, %41 ], [ %40, %34 ]
  %45 = icmp eq i32 %44, 0
  br i1 %45, label %46, label %47

46:                                               ; preds = %43
  call void @_ZNK3WTF10StringImpl18DestroyIfNotStaticEv(%"class.WTF::StringImpl"* nonnull %32) #9
  br label %47

47:                                               ; preds = %31, %43, %46
  call void @llvm.lifetime.end.p0i8(i64 8, i8* nonnull %4) #9
  ret void
}

; Function Attrs: nounwind ssp uwtable
define linkonce_odr hidden { %"struct.WTF::KeyValuePair.7"*, i8 } @_ZN3WTF9HashTableINS_12AtomicStringENS_12KeyValuePairIS1_NS_6StringEEENS_24KeyValuePairKeyExtractorENS_16AtomicStringHashENS_18HashMapValueTraitsINS_10HashTraitsIS1_EENS8_IS3_EEEES9_NS_18PartitionAllocatorEE6insertINS_17HashMapTranslatorISB_S6_SC_EERA10_KcRA119_SH_EENS_18HashTableAddResultISD_S4_EEOT0_OT1_(%"class.WTF::HashTable.5"*, [10 x i8]* dereferenceable(10), [119 x i8]* dereferenceable(119)) local_unnamed_addr #0 comdat align 2 {
  %4 = alloca %"class.WTF::AtomicString", align 8
  %5 = alloca %"class.WTF::AtomicString", align 8
  %6 = getelementptr inbounds %"class.WTF::HashTable.5", %"class.WTF::HashTable.5"* %0, i64 0, i32 0
  %7 = load %"struct.WTF::KeyValuePair.7"*, %"struct.WTF::KeyValuePair.7"** %6, align 8
  %8 = icmp eq %"struct.WTF::KeyValuePair.7"* %7, null
  br i1 %8, label %9, label %12

9:                                                ; preds = %3
  %10 = tail call %"struct.WTF::KeyValuePair.7"* @_ZN3WTF9HashTableINS_12AtomicStringENS_12KeyValuePairIS1_NS_6StringEEENS_24KeyValuePairKeyExtractorENS_16AtomicStringHashENS_18HashMapValueTraitsINS_10HashTraitsIS1_EENS8_IS3_EEEES9_NS_18PartitionAllocatorEE6ExpandEPS4_(%"class.WTF::HashTable.5"* %0, %"struct.WTF::KeyValuePair.7"* null)
  %11 = load %"struct.WTF::KeyValuePair.7"*, %"struct.WTF::KeyValuePair.7"** %6, align 8
  br label %12

12:                                               ; preds = %3, %9
  %13 = phi %"struct.WTF::KeyValuePair.7"* [ %7, %3 ], [ %11, %9 ]
  %14 = getelementptr inbounds %"class.WTF::HashTable.5", %"class.WTF::HashTable.5"* %0, i64 0, i32 1
  %15 = load i32, i32* %14, align 8
  %16 = add i32 %15, -1
  %17 = zext i32 %16 to i64
  %18 = bitcast %"class.WTF::AtomicString"* %5 to i8*
  call void @llvm.lifetime.start.p0i8(i64 8, i8* nonnull %18) #9
  %19 = getelementptr inbounds [10 x i8], [10 x i8]* %1, i64 0, i64 0
  %20 = icmp eq [10 x i8]* %1, null
  br i1 %20, label %23, label %21

21:                                               ; preds = %12
  %22 = tail call i64 @strlen(i8* nonnull %19) #10
  br label %23

23:                                               ; preds = %21, %12
  %24 = phi i64 [ %22, %21 ], [ 0, %12 ]
  call void @_ZN3WTF12AtomicStringC2EPKhm(%"class.WTF::AtomicString"* nonnull %5, i8* %19, i64 %24) #9
  %25 = getelementptr inbounds %"class.WTF::AtomicString", %"class.WTF::AtomicString"* %5, i64 0, i32 0, i32 0, i32 0
  %26 = load %"class.WTF::StringImpl"*, %"class.WTF::StringImpl"** %25, align 8
  %27 = getelementptr inbounds %"class.WTF::StringImpl", %"class.WTF::StringImpl"* %26, i64 0, i32 2, i32 0, i32 0, i32 0, i32 0, i32 0
  %28 = load atomic i32, i32* %27 monotonic, align 4
  %29 = lshr i32 %28, 8
  %30 = icmp eq %"class.WTF::StringImpl"* %26, null
  br i1 %30, label %43, label %31

31:                                               ; preds = %23
  %32 = load atomic i32, i32* %27 monotonic, align 4
  %33 = and i32 %32, 2
  %34 = icmp eq i32 %33, 0
  %35 = getelementptr inbounds %"class.WTF::StringImpl", %"class.WTF::StringImpl"* %26, i64 0, i32 0
  %36 = load i32, i32* %35, align 4
  br i1 %34, label %37, label %39

37:                                               ; preds = %31
  %38 = add i32 %36, -1
  store i32 %38, i32* %35, align 4
  br label %39

39:                                               ; preds = %37, %31
  %40 = phi i32 [ %38, %37 ], [ %36, %31 ]
  %41 = icmp eq i32 %40, 0
  br i1 %41, label %42, label %43

42:                                               ; preds = %39
  call void @_ZNK3WTF10StringImpl18DestroyIfNotStaticEv(%"class.WTF::StringImpl"* nonnull %26) #9
  br label %43

43:                                               ; preds = %23, %39, %42
  call void @llvm.lifetime.end.p0i8(i64 8, i8* nonnull %18) #9
  %44 = and i32 %29, %16
  %45 = zext i32 %44 to i64
  %46 = getelementptr inbounds %"struct.WTF::KeyValuePair.7", %"struct.WTF::KeyValuePair.7"* %13, i64 %45
  %47 = getelementptr inbounds %"struct.WTF::KeyValuePair.7", %"struct.WTF::KeyValuePair.7"* %46, i64 0, i32 0, i32 0, i32 0, i32 0
  %48 = load %"class.WTF::StringImpl"*, %"class.WTF::StringImpl"** %47, align 8
  %49 = icmp eq %"class.WTF::StringImpl"* %48, null
  br i1 %49, label %118, label %50

50:                                               ; preds = %43
  %51 = bitcast %"class.WTF::AtomicString"* %4 to i8*
  %52 = getelementptr inbounds %"class.WTF::AtomicString", %"class.WTF::AtomicString"* %4, i64 0, i32 0, i32 0, i32 0
  %53 = xor i32 %29, -1
  %54 = lshr i32 %28, 31
  %55 = add nsw i32 %54, %53
  %56 = shl i32 %55, 12
  %57 = xor i32 %56, %55
  %58 = lshr i32 %57, 7
  %59 = xor i32 %58, %57
  %60 = shl i32 %59, 2
  %61 = xor i32 %60, %59
  %62 = lshr i32 %61, 20
  %63 = xor i32 %62, %61
  %64 = or i32 %63, 1
  %65 = zext i32 %64 to i64
  br label %66

66:                                               ; preds = %50, %98
  %67 = phi %"struct.WTF::KeyValuePair.7"* [ %46, %50 ], [ %104, %98 ]
  %68 = phi %"struct.WTF::KeyValuePair.7"* [ null, %50 ], [ %99, %98 ]
  %69 = phi i64 [ %45, %50 ], [ %103, %98 ]
  %70 = phi i64 [ 0, %50 ], [ %101, %98 ]
  %71 = bitcast %"struct.WTF::KeyValuePair.7"* %67 to i8**
  %72 = load i8*, i8** %71, align 8
  %73 = icmp eq i8* %72, inttoptr (i64 -1 to i8*)
  br i1 %73, label %98, label %74

74:                                               ; preds = %66
  call void @llvm.lifetime.start.p0i8(i64 8, i8* nonnull %51) #9
  br i1 %20, label %77, label %75

75:                                               ; preds = %74
  %76 = call i64 @strlen(i8* nonnull %19) #10
  br label %77

77:                                               ; preds = %75, %74
  %78 = phi i64 [ %76, %75 ], [ 0, %74 ]
  call void @_ZN3WTF12AtomicStringC2EPKhm(%"class.WTF::AtomicString"* nonnull %4, i8* %19, i64 %78) #9
  %79 = getelementptr inbounds %"struct.WTF::KeyValuePair.7", %"struct.WTF::KeyValuePair.7"* %67, i64 0, i32 0, i32 0, i32 0, i32 0
  %80 = load %"class.WTF::StringImpl"*, %"class.WTF::StringImpl"** %79, align 8
  %81 = load %"class.WTF::StringImpl"*, %"class.WTF::StringImpl"** %52, align 8
  %82 = icmp eq %"class.WTF::StringImpl"* %80, %81
  %83 = icmp eq %"class.WTF::StringImpl"* %81, null
  br i1 %83, label %97, label %84

84:                                               ; preds = %77
  %85 = getelementptr inbounds %"class.WTF::StringImpl", %"class.WTF::StringImpl"* %81, i64 0, i32 2, i32 0, i32 0, i32 0, i32 0, i32 0
  %86 = load atomic i32, i32* %85 monotonic, align 4
  %87 = and i32 %86, 2
  %88 = icmp eq i32 %87, 0
  %89 = getelementptr inbounds %"class.WTF::StringImpl", %"class.WTF::StringImpl"* %81, i64 0, i32 0
  %90 = load i32, i32* %89, align 4
  br i1 %88, label %91, label %93

91:                                               ; preds = %84
  %92 = add i32 %90, -1
  store i32 %92, i32* %89, align 4
  br label %93

93:                                               ; preds = %91, %84
  %94 = phi i32 [ %92, %91 ], [ %90, %84 ]
  %95 = icmp eq i32 %94, 0
  br i1 %95, label %96, label %97

96:                                               ; preds = %93
  call void @_ZNK3WTF10StringImpl18DestroyIfNotStaticEv(%"class.WTF::StringImpl"* nonnull %81) #9
  br label %97

97:                                               ; preds = %77, %93, %96
  call void @llvm.lifetime.end.p0i8(i64 8, i8* nonnull %51) #9
  br i1 %82, label %131, label %98

98:                                               ; preds = %66, %97
  %99 = phi %"struct.WTF::KeyValuePair.7"* [ %68, %97 ], [ %67, %66 ]
  %100 = icmp eq i64 %70, 0
  %101 = select i1 %100, i64 %65, i64 %70
  %102 = add i64 %101, %69
  %103 = and i64 %102, %17
  %104 = getelementptr inbounds %"struct.WTF::KeyValuePair.7", %"struct.WTF::KeyValuePair.7"* %13, i64 %103
  %105 = getelementptr inbounds %"struct.WTF::KeyValuePair.7", %"struct.WTF::KeyValuePair.7"* %104, i64 0, i32 0, i32 0, i32 0, i32 0
  %106 = load %"class.WTF::StringImpl"*, %"class.WTF::StringImpl"** %105, align 8
  %107 = icmp eq %"class.WTF::StringImpl"* %106, null
  br i1 %107, label %108, label %66

108:                                              ; preds = %98
  %109 = icmp eq %"struct.WTF::KeyValuePair.7"* %99, null
  br i1 %109, label %118, label %110

110:                                              ; preds = %108
  %111 = bitcast %"struct.WTF::KeyValuePair.7"* %99 to i8*
  call void @llvm.memset.p0i8.i64(i8* nonnull align 8 %111, i8 0, i64 16, i1 false) #9
  %112 = getelementptr inbounds %"class.WTF::HashTable.5", %"class.WTF::HashTable.5"* %0, i64 0, i32 3
  %113 = load i32, i32* %112, align 8
  %114 = add i32 %113, 2147483647
  %115 = and i32 %114, 2147483647
  %116 = and i32 %113, -2147483648
  %117 = or i32 %115, %116
  store i32 %117, i32* %112, align 8
  br label %118

118:                                              ; preds = %43, %108, %110
  %119 = phi %"struct.WTF::KeyValuePair.7"* [ %99, %110 ], [ %104, %108 ], [ %46, %43 ]
  call void @_ZN3WTF17HashMapTranslatorINS_18HashMapValueTraitsINS_10HashTraitsINS_12AtomicStringEEENS2_INS_6StringEEEEENS_16AtomicStringHashENS_18PartitionAllocatorEE9TranslateINS_12KeyValuePairIS3_S5_EERA10_KcRA119_SE_EEvRT_OT0_OT1_(%"struct.WTF::KeyValuePair.7"* dereferenceable(16) %119, [10 x i8]* dereferenceable(10) %1, [119 x i8]* dereferenceable(119) %2)
  %120 = getelementptr inbounds %"class.WTF::HashTable.5", %"class.WTF::HashTable.5"* %0, i64 0, i32 2
  %121 = load i32, i32* %120, align 4
  %122 = add i32 %121, 1
  store i32 %122, i32* %120, align 4
  %123 = getelementptr inbounds %"class.WTF::HashTable.5", %"class.WTF::HashTable.5"* %0, i64 0, i32 3
  %124 = load i32, i32* %123, align 8
  %125 = add i32 %124, %122
  %126 = shl i32 %125, 1
  %127 = load i32, i32* %14, align 8
  %128 = icmp ult i32 %126, %127
  br i1 %128, label %131, label %129

129:                                              ; preds = %118
  %130 = call %"struct.WTF::KeyValuePair.7"* @_ZN3WTF9HashTableINS_12AtomicStringENS_12KeyValuePairIS1_NS_6StringEEENS_24KeyValuePairKeyExtractorENS_16AtomicStringHashENS_18HashMapValueTraitsINS_10HashTraitsIS1_EENS8_IS3_EEEES9_NS_18PartitionAllocatorEE6ExpandEPS4_(%"class.WTF::HashTable.5"* %0, %"struct.WTF::KeyValuePair.7"* %119)
  br label %131

131:                                              ; preds = %97, %118, %129
  %132 = phi i8 [ 1, %118 ], [ 1, %129 ], [ 0, %97 ]
  %133 = phi %"struct.WTF::KeyValuePair.7"* [ %119, %118 ], [ %130, %129 ], [ %67, %97 ]
  %134 = insertvalue { %"struct.WTF::KeyValuePair.7"*, i8 } undef, %"struct.WTF::KeyValuePair.7"* %133, 0
  %135 = insertvalue { %"struct.WTF::KeyValuePair.7"*, i8 } %134, i8 %132, 1
  ret { %"struct.WTF::KeyValuePair.7"*, i8 } %135
}

; Function Attrs: nounwind ssp uwtable
define linkonce_odr hidden void @_ZN3WTF17HashMapTranslatorINS_18HashMapValueTraitsINS_10HashTraitsINS_12AtomicStringEEENS2_INS_6StringEEEEENS_16AtomicStringHashENS_18PartitionAllocatorEE9TranslateINS_12KeyValuePairIS3_S5_EERA10_KcRA119_SE_EEvRT_OT0_OT1_(%"struct.WTF::KeyValuePair.7"* dereferenceable(16), [10 x i8]* dereferenceable(10), [119 x i8]* dereferenceable(119)) local_unnamed_addr #0 comdat align 2 {
  %4 = alloca %"class.WTF::AtomicString", align 8
  %5 = bitcast %"class.WTF::AtomicString"* %4 to i8*
  call void @llvm.lifetime.start.p0i8(i64 8, i8* nonnull %5) #9
  %6 = getelementptr inbounds [10 x i8], [10 x i8]* %1, i64 0, i64 0
  %7 = icmp eq [10 x i8]* %1, null
  br i1 %7, label %10, label %8

8:                                                ; preds = %3
  %9 = tail call i64 @strlen(i8* nonnull %6) #10
  br label %10

10:                                               ; preds = %3, %8
  %11 = phi i64 [ %9, %8 ], [ 0, %3 ]
  call void @_ZN3WTF12AtomicStringC2EPKhm(%"class.WTF::AtomicString"* nonnull %4, i8* %6, i64 %11) #9
  %12 = getelementptr inbounds %"class.WTF::AtomicString", %"class.WTF::AtomicString"* %4, i64 0, i32 0, i32 0, i32 0
  %13 = bitcast %"class.WTF::AtomicString"* %4 to i64*
  %14 = load i64, i64* %13, align 8
  store %"class.WTF::StringImpl"* null, %"class.WTF::StringImpl"** %12, align 8
  %15 = bitcast %"struct.WTF::KeyValuePair.7"* %0 to i64*
  %16 = getelementptr inbounds %"struct.WTF::KeyValuePair.7", %"struct.WTF::KeyValuePair.7"* %0, i64 0, i32 0, i32 0, i32 0, i32 0
  %17 = load %"class.WTF::StringImpl"*, %"class.WTF::StringImpl"** %16, align 8
  store i64 %14, i64* %15, align 8
  %18 = icmp eq %"class.WTF::StringImpl"* %17, null
  br i1 %18, label %32, label %19

19:                                               ; preds = %10
  %20 = getelementptr inbounds %"class.WTF::StringImpl", %"class.WTF::StringImpl"* %17, i64 0, i32 2, i32 0, i32 0, i32 0, i32 0, i32 0
  %21 = load atomic i32, i32* %20 monotonic, align 4
  %22 = and i32 %21, 2
  %23 = icmp eq i32 %22, 0
  %24 = getelementptr inbounds %"class.WTF::StringImpl", %"class.WTF::StringImpl"* %17, i64 0, i32 0
  %25 = load i32, i32* %24, align 4
  br i1 %23, label %26, label %28

26:                                               ; preds = %19
  %27 = add i32 %25, -1
  store i32 %27, i32* %24, align 4
  br label %28

28:                                               ; preds = %26, %19
  %29 = phi i32 [ %27, %26 ], [ %25, %19 ]
  %30 = icmp eq i32 %29, 0
  br i1 %30, label %31, label %32

31:                                               ; preds = %28
  call void @_ZNK3WTF10StringImpl18DestroyIfNotStaticEv(%"class.WTF::StringImpl"* nonnull %17) #9
  br label %32

32:                                               ; preds = %10, %28, %31
  %33 = load %"class.WTF::StringImpl"*, %"class.WTF::StringImpl"** %12, align 8
  %34 = icmp eq %"class.WTF::StringImpl"* %33, null
  br i1 %34, label %48, label %35

35:                                               ; preds = %32
  %36 = getelementptr inbounds %"class.WTF::StringImpl", %"class.WTF::StringImpl"* %33, i64 0, i32 2, i32 0, i32 0, i32 0, i32 0, i32 0
  %37 = load atomic i32, i32* %36 monotonic, align 4
  %38 = and i32 %37, 2
  %39 = icmp eq i32 %38, 0
  %40 = getelementptr inbounds %"class.WTF::StringImpl", %"class.WTF::StringImpl"* %33, i64 0, i32 0
  %41 = load i32, i32* %40, align 4
  br i1 %39, label %42, label %44

42:                                               ; preds = %35
  %43 = add i32 %41, -1
  store i32 %43, i32* %40, align 4
  br label %44

44:                                               ; preds = %42, %35
  %45 = phi i32 [ %43, %42 ], [ %41, %35 ]
  %46 = icmp eq i32 %45, 0
  br i1 %46, label %47, label %48

47:                                               ; preds = %44
  call void @_ZNK3WTF10StringImpl18DestroyIfNotStaticEv(%"class.WTF::StringImpl"* nonnull %33) #9
  br label %48

48:                                               ; preds = %32, %44, %47
  call void @llvm.lifetime.end.p0i8(i64 8, i8* nonnull %5) #9
  %49 = getelementptr inbounds %"struct.WTF::KeyValuePair.7", %"struct.WTF::KeyValuePair.7"* %0, i64 0, i32 1
  call void @_ZN3WTF17GenericHashTraitsINS_6StringEE5StoreIRA119_KcEEvOT_RS1_([119 x i8]* dereferenceable(119) %2, %"class.WTF::String"* dereferenceable(8) %49)
  ret void
}

; Function Attrs: nounwind ssp uwtable
define linkonce_odr hidden void @_ZN3WTF17GenericHashTraitsINS_6StringEE5StoreIRA35_KcEEvOT_RS1_([35 x i8]* dereferenceable(35), %"class.WTF::String"* dereferenceable(8)) local_unnamed_addr #0 comdat align 2 {
  %3 = alloca %"class.WTF::String", align 8
  %4 = bitcast %"class.WTF::String"* %3 to i8*
  call void @llvm.lifetime.start.p0i8(i64 8, i8* nonnull %4) #9
  %5 = getelementptr inbounds [35 x i8], [35 x i8]* %0, i64 0, i64 0
  %6 = icmp eq [35 x i8]* %0, null
  br i1 %6, label %9, label %7

7:                                                ; preds = %2
  %8 = tail call i64 @strlen(i8* nonnull %5) #10
  br label %9

9:                                                ; preds = %2, %7
  %10 = phi i64 [ %8, %7 ], [ 0, %2 ]
  call void @_ZN3WTF6StringC2EPKcm(%"class.WTF::String"* nonnull %3, i8* %5, i64 %10) #9
  %11 = getelementptr inbounds %"class.WTF::String", %"class.WTF::String"* %3, i64 0, i32 0, i32 0
  %12 = bitcast %"class.WTF::String"* %3 to i64*
  %13 = load i64, i64* %12, align 8
  store %"class.WTF::StringImpl"* null, %"class.WTF::StringImpl"** %11, align 8
  %14 = bitcast %"class.WTF::String"* %1 to i64*
  %15 = getelementptr inbounds %"class.WTF::String", %"class.WTF::String"* %1, i64 0, i32 0, i32 0
  %16 = load %"class.WTF::StringImpl"*, %"class.WTF::StringImpl"** %15, align 8
  store i64 %13, i64* %14, align 8
  %17 = icmp eq %"class.WTF::StringImpl"* %16, null
  br i1 %17, label %31, label %18

18:                                               ; preds = %9
  %19 = getelementptr inbounds %"class.WTF::StringImpl", %"class.WTF::StringImpl"* %16, i64 0, i32 2, i32 0, i32 0, i32 0, i32 0, i32 0
  %20 = load atomic i32, i32* %19 monotonic, align 4
  %21 = and i32 %20, 2
  %22 = icmp eq i32 %21, 0
  %23 = getelementptr inbounds %"class.WTF::StringImpl", %"class.WTF::StringImpl"* %16, i64 0, i32 0
  %24 = load i32, i32* %23, align 4
  br i1 %22, label %25, label %27

25:                                               ; preds = %18
  %26 = add i32 %24, -1
  store i32 %26, i32* %23, align 4
  br label %27

27:                                               ; preds = %25, %18
  %28 = phi i32 [ %26, %25 ], [ %24, %18 ]
  %29 = icmp eq i32 %28, 0
  br i1 %29, label %30, label %31

30:                                               ; preds = %27
  call void @_ZNK3WTF10StringImpl18DestroyIfNotStaticEv(%"class.WTF::StringImpl"* nonnull %16) #9
  br label %31

31:                                               ; preds = %9, %27, %30
  %32 = load %"class.WTF::StringImpl"*, %"class.WTF::StringImpl"** %11, align 8
  %33 = icmp eq %"class.WTF::StringImpl"* %32, null
  br i1 %33, label %47, label %34

34:                                               ; preds = %31
  %35 = getelementptr inbounds %"class.WTF::StringImpl", %"class.WTF::StringImpl"* %32, i64 0, i32 2, i32 0, i32 0, i32 0, i32 0, i32 0
  %36 = load atomic i32, i32* %35 monotonic, align 4
  %37 = and i32 %36, 2
  %38 = icmp eq i32 %37, 0
  %39 = getelementptr inbounds %"class.WTF::StringImpl", %"class.WTF::StringImpl"* %32, i64 0, i32 0
  %40 = load i32, i32* %39, align 4
  br i1 %38, label %41, label %43

41:                                               ; preds = %34
  %42 = add i32 %40, -1
  store i32 %42, i32* %39, align 4
  br label %43

43:                                               ; preds = %41, %34
  %44 = phi i32 [ %42, %41 ], [ %40, %34 ]
  %45 = icmp eq i32 %44, 0
  br i1 %45, label %46, label %47

46:                                               ; preds = %43
  call void @_ZNK3WTF10StringImpl18DestroyIfNotStaticEv(%"class.WTF::StringImpl"* nonnull %32) #9
  br label %47

47:                                               ; preds = %31, %43, %46
  call void @llvm.lifetime.end.p0i8(i64 8, i8* nonnull %4) #9
  ret void
}

; Function Attrs: nounwind ssp uwtable
define linkonce_odr hidden { %"struct.WTF::KeyValuePair.7"*, i8 } @_ZN3WTF9HashTableINS_12AtomicStringENS_12KeyValuePairIS1_NS_6StringEEENS_24KeyValuePairKeyExtractorENS_16AtomicStringHashENS_18HashMapValueTraitsINS_10HashTraitsIS1_EENS8_IS3_EEEES9_NS_18PartitionAllocatorEE6insertINS_17HashMapTranslatorISB_S6_SC_EERA6_KcRA35_SH_EENS_18HashTableAddResultISD_S4_EEOT0_OT1_(%"class.WTF::HashTable.5"*, [6 x i8]* dereferenceable(6), [35 x i8]* dereferenceable(35)) local_unnamed_addr #0 comdat align 2 {
  %4 = alloca %"class.WTF::AtomicString", align 8
  %5 = alloca %"class.WTF::AtomicString", align 8
  %6 = getelementptr inbounds %"class.WTF::HashTable.5", %"class.WTF::HashTable.5"* %0, i64 0, i32 0
  %7 = load %"struct.WTF::KeyValuePair.7"*, %"struct.WTF::KeyValuePair.7"** %6, align 8
  %8 = icmp eq %"struct.WTF::KeyValuePair.7"* %7, null
  br i1 %8, label %9, label %12

9:                                                ; preds = %3
  %10 = tail call %"struct.WTF::KeyValuePair.7"* @_ZN3WTF9HashTableINS_12AtomicStringENS_12KeyValuePairIS1_NS_6StringEEENS_24KeyValuePairKeyExtractorENS_16AtomicStringHashENS_18HashMapValueTraitsINS_10HashTraitsIS1_EENS8_IS3_EEEES9_NS_18PartitionAllocatorEE6ExpandEPS4_(%"class.WTF::HashTable.5"* %0, %"struct.WTF::KeyValuePair.7"* null)
  %11 = load %"struct.WTF::KeyValuePair.7"*, %"struct.WTF::KeyValuePair.7"** %6, align 8
  br label %12

12:                                               ; preds = %3, %9
  %13 = phi %"struct.WTF::KeyValuePair.7"* [ %7, %3 ], [ %11, %9 ]
  %14 = getelementptr inbounds %"class.WTF::HashTable.5", %"class.WTF::HashTable.5"* %0, i64 0, i32 1
  %15 = load i32, i32* %14, align 8
  %16 = add i32 %15, -1
  %17 = zext i32 %16 to i64
  %18 = bitcast %"class.WTF::AtomicString"* %5 to i8*
  call void @llvm.lifetime.start.p0i8(i64 8, i8* nonnull %18) #9
  %19 = getelementptr inbounds [6 x i8], [6 x i8]* %1, i64 0, i64 0
  %20 = icmp eq [6 x i8]* %1, null
  br i1 %20, label %23, label %21

21:                                               ; preds = %12
  %22 = tail call i64 @strlen(i8* nonnull %19) #10
  br label %23

23:                                               ; preds = %21, %12
  %24 = phi i64 [ %22, %21 ], [ 0, %12 ]
  call void @_ZN3WTF12AtomicStringC2EPKhm(%"class.WTF::AtomicString"* nonnull %5, i8* %19, i64 %24) #9
  %25 = getelementptr inbounds %"class.WTF::AtomicString", %"class.WTF::AtomicString"* %5, i64 0, i32 0, i32 0, i32 0
  %26 = load %"class.WTF::StringImpl"*, %"class.WTF::StringImpl"** %25, align 8
  %27 = getelementptr inbounds %"class.WTF::StringImpl", %"class.WTF::StringImpl"* %26, i64 0, i32 2, i32 0, i32 0, i32 0, i32 0, i32 0
  %28 = load atomic i32, i32* %27 monotonic, align 4
  %29 = lshr i32 %28, 8
  %30 = icmp eq %"class.WTF::StringImpl"* %26, null
  br i1 %30, label %43, label %31

31:                                               ; preds = %23
  %32 = load atomic i32, i32* %27 monotonic, align 4
  %33 = and i32 %32, 2
  %34 = icmp eq i32 %33, 0
  %35 = getelementptr inbounds %"class.WTF::StringImpl", %"class.WTF::StringImpl"* %26, i64 0, i32 0
  %36 = load i32, i32* %35, align 4
  br i1 %34, label %37, label %39

37:                                               ; preds = %31
  %38 = add i32 %36, -1
  store i32 %38, i32* %35, align 4
  br label %39

39:                                               ; preds = %37, %31
  %40 = phi i32 [ %38, %37 ], [ %36, %31 ]
  %41 = icmp eq i32 %40, 0
  br i1 %41, label %42, label %43

42:                                               ; preds = %39
  call void @_ZNK3WTF10StringImpl18DestroyIfNotStaticEv(%"class.WTF::StringImpl"* nonnull %26) #9
  br label %43

43:                                               ; preds = %23, %39, %42
  call void @llvm.lifetime.end.p0i8(i64 8, i8* nonnull %18) #9
  %44 = and i32 %29, %16
  %45 = zext i32 %44 to i64
  %46 = getelementptr inbounds %"struct.WTF::KeyValuePair.7", %"struct.WTF::KeyValuePair.7"* %13, i64 %45
  %47 = getelementptr inbounds %"struct.WTF::KeyValuePair.7", %"struct.WTF::KeyValuePair.7"* %46, i64 0, i32 0, i32 0, i32 0, i32 0
  %48 = load %"class.WTF::StringImpl"*, %"class.WTF::StringImpl"** %47, align 8
  %49 = icmp eq %"class.WTF::StringImpl"* %48, null
  br i1 %49, label %118, label %50

50:                                               ; preds = %43
  %51 = bitcast %"class.WTF::AtomicString"* %4 to i8*
  %52 = getelementptr inbounds %"class.WTF::AtomicString", %"class.WTF::AtomicString"* %4, i64 0, i32 0, i32 0, i32 0
  %53 = xor i32 %29, -1
  %54 = lshr i32 %28, 31
  %55 = add nsw i32 %54, %53
  %56 = shl i32 %55, 12
  %57 = xor i32 %56, %55
  %58 = lshr i32 %57, 7
  %59 = xor i32 %58, %57
  %60 = shl i32 %59, 2
  %61 = xor i32 %60, %59
  %62 = lshr i32 %61, 20
  %63 = xor i32 %62, %61
  %64 = or i32 %63, 1
  %65 = zext i32 %64 to i64
  br label %66

66:                                               ; preds = %50, %98
  %67 = phi %"struct.WTF::KeyValuePair.7"* [ %46, %50 ], [ %104, %98 ]
  %68 = phi %"struct.WTF::KeyValuePair.7"* [ null, %50 ], [ %99, %98 ]
  %69 = phi i64 [ %45, %50 ], [ %103, %98 ]
  %70 = phi i64 [ 0, %50 ], [ %101, %98 ]
  %71 = bitcast %"struct.WTF::KeyValuePair.7"* %67 to i8**
  %72 = load i8*, i8** %71, align 8
  %73 = icmp eq i8* %72, inttoptr (i64 -1 to i8*)
  br i1 %73, label %98, label %74

74:                                               ; preds = %66
  call void @llvm.lifetime.start.p0i8(i64 8, i8* nonnull %51) #9
  br i1 %20, label %77, label %75

75:                                               ; preds = %74
  %76 = call i64 @strlen(i8* nonnull %19) #10
  br label %77

77:                                               ; preds = %75, %74
  %78 = phi i64 [ %76, %75 ], [ 0, %74 ]
  call void @_ZN3WTF12AtomicStringC2EPKhm(%"class.WTF::AtomicString"* nonnull %4, i8* %19, i64 %78) #9
  %79 = getelementptr inbounds %"struct.WTF::KeyValuePair.7", %"struct.WTF::KeyValuePair.7"* %67, i64 0, i32 0, i32 0, i32 0, i32 0
  %80 = load %"class.WTF::StringImpl"*, %"class.WTF::StringImpl"** %79, align 8
  %81 = load %"class.WTF::StringImpl"*, %"class.WTF::StringImpl"** %52, align 8
  %82 = icmp eq %"class.WTF::StringImpl"* %80, %81
  %83 = icmp eq %"class.WTF::StringImpl"* %81, null
  br i1 %83, label %97, label %84

84:                                               ; preds = %77
  %85 = getelementptr inbounds %"class.WTF::StringImpl", %"class.WTF::StringImpl"* %81, i64 0, i32 2, i32 0, i32 0, i32 0, i32 0, i32 0
  %86 = load atomic i32, i32* %85 monotonic, align 4
  %87 = and i32 %86, 2
  %88 = icmp eq i32 %87, 0
  %89 = getelementptr inbounds %"class.WTF::StringImpl", %"class.WTF::StringImpl"* %81, i64 0, i32 0
  %90 = load i32, i32* %89, align 4
  br i1 %88, label %91, label %93

91:                                               ; preds = %84
  %92 = add i32 %90, -1
  store i32 %92, i32* %89, align 4
  br label %93

93:                                               ; preds = %91, %84
  %94 = phi i32 [ %92, %91 ], [ %90, %84 ]
  %95 = icmp eq i32 %94, 0
  br i1 %95, label %96, label %97

96:                                               ; preds = %93
  call void @_ZNK3WTF10StringImpl18DestroyIfNotStaticEv(%"class.WTF::StringImpl"* nonnull %81) #9
  br label %97

97:                                               ; preds = %77, %93, %96
  call void @llvm.lifetime.end.p0i8(i64 8, i8* nonnull %51) #9
  br i1 %82, label %131, label %98

98:                                               ; preds = %66, %97
  %99 = phi %"struct.WTF::KeyValuePair.7"* [ %68, %97 ], [ %67, %66 ]
  %100 = icmp eq i64 %70, 0
  %101 = select i1 %100, i64 %65, i64 %70
  %102 = add i64 %101, %69
  %103 = and i64 %102, %17
  %104 = getelementptr inbounds %"struct.WTF::KeyValuePair.7", %"struct.WTF::KeyValuePair.7"* %13, i64 %103
  %105 = getelementptr inbounds %"struct.WTF::KeyValuePair.7", %"struct.WTF::KeyValuePair.7"* %104, i64 0, i32 0, i32 0, i32 0, i32 0
  %106 = load %"class.WTF::StringImpl"*, %"class.WTF::StringImpl"** %105, align 8
  %107 = icmp eq %"class.WTF::StringImpl"* %106, null
  br i1 %107, label %108, label %66

108:                                              ; preds = %98
  %109 = icmp eq %"struct.WTF::KeyValuePair.7"* %99, null
  br i1 %109, label %118, label %110

110:                                              ; preds = %108
  %111 = bitcast %"struct.WTF::KeyValuePair.7"* %99 to i8*
  call void @llvm.memset.p0i8.i64(i8* nonnull align 8 %111, i8 0, i64 16, i1 false) #9
  %112 = getelementptr inbounds %"class.WTF::HashTable.5", %"class.WTF::HashTable.5"* %0, i64 0, i32 3
  %113 = load i32, i32* %112, align 8
  %114 = add i32 %113, 2147483647
  %115 = and i32 %114, 2147483647
  %116 = and i32 %113, -2147483648
  %117 = or i32 %115, %116
  store i32 %117, i32* %112, align 8
  br label %118

118:                                              ; preds = %43, %108, %110
  %119 = phi %"struct.WTF::KeyValuePair.7"* [ %99, %110 ], [ %104, %108 ], [ %46, %43 ]
  call void @_ZN3WTF17HashMapTranslatorINS_18HashMapValueTraitsINS_10HashTraitsINS_12AtomicStringEEENS2_INS_6StringEEEEENS_16AtomicStringHashENS_18PartitionAllocatorEE9TranslateINS_12KeyValuePairIS3_S5_EERA6_KcRA35_SE_EEvRT_OT0_OT1_(%"struct.WTF::KeyValuePair.7"* dereferenceable(16) %119, [6 x i8]* dereferenceable(6) %1, [35 x i8]* dereferenceable(35) %2)
  %120 = getelementptr inbounds %"class.WTF::HashTable.5", %"class.WTF::HashTable.5"* %0, i64 0, i32 2
  %121 = load i32, i32* %120, align 4
  %122 = add i32 %121, 1
  store i32 %122, i32* %120, align 4
  %123 = getelementptr inbounds %"class.WTF::HashTable.5", %"class.WTF::HashTable.5"* %0, i64 0, i32 3
  %124 = load i32, i32* %123, align 8
  %125 = add i32 %124, %122
  %126 = shl i32 %125, 1
  %127 = load i32, i32* %14, align 8
  %128 = icmp ult i32 %126, %127
  br i1 %128, label %131, label %129

129:                                              ; preds = %118
  %130 = call %"struct.WTF::KeyValuePair.7"* @_ZN3WTF9HashTableINS_12AtomicStringENS_12KeyValuePairIS1_NS_6StringEEENS_24KeyValuePairKeyExtractorENS_16AtomicStringHashENS_18HashMapValueTraitsINS_10HashTraitsIS1_EENS8_IS3_EEEES9_NS_18PartitionAllocatorEE6ExpandEPS4_(%"class.WTF::HashTable.5"* %0, %"struct.WTF::KeyValuePair.7"* %119)
  br label %131

131:                                              ; preds = %97, %118, %129
  %132 = phi i8 [ 1, %118 ], [ 1, %129 ], [ 0, %97 ]
  %133 = phi %"struct.WTF::KeyValuePair.7"* [ %119, %118 ], [ %130, %129 ], [ %67, %97 ]
  %134 = insertvalue { %"struct.WTF::KeyValuePair.7"*, i8 } undef, %"struct.WTF::KeyValuePair.7"* %133, 0
  %135 = insertvalue { %"struct.WTF::KeyValuePair.7"*, i8 } %134, i8 %132, 1
  ret { %"struct.WTF::KeyValuePair.7"*, i8 } %135
}

; Function Attrs: nounwind ssp uwtable
define linkonce_odr hidden void @_ZN3WTF17HashMapTranslatorINS_18HashMapValueTraitsINS_10HashTraitsINS_12AtomicStringEEENS2_INS_6StringEEEEENS_16AtomicStringHashENS_18PartitionAllocatorEE9TranslateINS_12KeyValuePairIS3_S5_EERA6_KcRA35_SE_EEvRT_OT0_OT1_(%"struct.WTF::KeyValuePair.7"* dereferenceable(16), [6 x i8]* dereferenceable(6), [35 x i8]* dereferenceable(35)) local_unnamed_addr #0 comdat align 2 {
  %4 = alloca %"class.WTF::AtomicString", align 8
  %5 = bitcast %"class.WTF::AtomicString"* %4 to i8*
  call void @llvm.lifetime.start.p0i8(i64 8, i8* nonnull %5) #9
  %6 = getelementptr inbounds [6 x i8], [6 x i8]* %1, i64 0, i64 0
  %7 = icmp eq [6 x i8]* %1, null
  br i1 %7, label %10, label %8

8:                                                ; preds = %3
  %9 = tail call i64 @strlen(i8* nonnull %6) #10
  br label %10

10:                                               ; preds = %3, %8
  %11 = phi i64 [ %9, %8 ], [ 0, %3 ]
  call void @_ZN3WTF12AtomicStringC2EPKhm(%"class.WTF::AtomicString"* nonnull %4, i8* %6, i64 %11) #9
  %12 = getelementptr inbounds %"class.WTF::AtomicString", %"class.WTF::AtomicString"* %4, i64 0, i32 0, i32 0, i32 0
  %13 = bitcast %"class.WTF::AtomicString"* %4 to i64*
  %14 = load i64, i64* %13, align 8
  store %"class.WTF::StringImpl"* null, %"class.WTF::StringImpl"** %12, align 8
  %15 = bitcast %"struct.WTF::KeyValuePair.7"* %0 to i64*
  %16 = getelementptr inbounds %"struct.WTF::KeyValuePair.7", %"struct.WTF::KeyValuePair.7"* %0, i64 0, i32 0, i32 0, i32 0, i32 0
  %17 = load %"class.WTF::StringImpl"*, %"class.WTF::StringImpl"** %16, align 8
  store i64 %14, i64* %15, align 8
  %18 = icmp eq %"class.WTF::StringImpl"* %17, null
  br i1 %18, label %32, label %19

19:                                               ; preds = %10
  %20 = getelementptr inbounds %"class.WTF::StringImpl", %"class.WTF::StringImpl"* %17, i64 0, i32 2, i32 0, i32 0, i32 0, i32 0, i32 0
  %21 = load atomic i32, i32* %20 monotonic, align 4
  %22 = and i32 %21, 2
  %23 = icmp eq i32 %22, 0
  %24 = getelementptr inbounds %"class.WTF::StringImpl", %"class.WTF::StringImpl"* %17, i64 0, i32 0
  %25 = load i32, i32* %24, align 4
  br i1 %23, label %26, label %28

26:                                               ; preds = %19
  %27 = add i32 %25, -1
  store i32 %27, i32* %24, align 4
  br label %28

28:                                               ; preds = %26, %19
  %29 = phi i32 [ %27, %26 ], [ %25, %19 ]
  %30 = icmp eq i32 %29, 0
  br i1 %30, label %31, label %32

31:                                               ; preds = %28
  call void @_ZNK3WTF10StringImpl18DestroyIfNotStaticEv(%"class.WTF::StringImpl"* nonnull %17) #9
  br label %32

32:                                               ; preds = %10, %28, %31
  %33 = load %"class.WTF::StringImpl"*, %"class.WTF::StringImpl"** %12, align 8
  %34 = icmp eq %"class.WTF::StringImpl"* %33, null
  br i1 %34, label %48, label %35

35:                                               ; preds = %32
  %36 = getelementptr inbounds %"class.WTF::StringImpl", %"class.WTF::StringImpl"* %33, i64 0, i32 2, i32 0, i32 0, i32 0, i32 0, i32 0
  %37 = load atomic i32, i32* %36 monotonic, align 4
  %38 = and i32 %37, 2
  %39 = icmp eq i32 %38, 0
  %40 = getelementptr inbounds %"class.WTF::StringImpl", %"class.WTF::StringImpl"* %33, i64 0, i32 0
  %41 = load i32, i32* %40, align 4
  br i1 %39, label %42, label %44

42:                                               ; preds = %35
  %43 = add i32 %41, -1
  store i32 %43, i32* %40, align 4
  br label %44

44:                                               ; preds = %42, %35
  %45 = phi i32 [ %43, %42 ], [ %41, %35 ]
  %46 = icmp eq i32 %45, 0
  br i1 %46, label %47, label %48

47:                                               ; preds = %44
  call void @_ZNK3WTF10StringImpl18DestroyIfNotStaticEv(%"class.WTF::StringImpl"* nonnull %33) #9
  br label %48

48:                                               ; preds = %32, %44, %47
  call void @llvm.lifetime.end.p0i8(i64 8, i8* nonnull %5) #9
  %49 = getelementptr inbounds %"struct.WTF::KeyValuePair.7", %"struct.WTF::KeyValuePair.7"* %0, i64 0, i32 1
  call void @_ZN3WTF17GenericHashTraitsINS_6StringEE5StoreIRA35_KcEEvOT_RS1_([35 x i8]* dereferenceable(35) %2, %"class.WTF::String"* dereferenceable(8) %49)
  ret void
}

; Function Attrs: nounwind ssp uwtable
define linkonce_odr hidden void @_ZN3WTF17GenericHashTraitsINS_6StringEE5StoreIRA163_KcEEvOT_RS1_([163 x i8]* dereferenceable(163), %"class.WTF::String"* dereferenceable(8)) local_unnamed_addr #0 comdat align 2 {
  %3 = alloca %"class.WTF::String", align 8
  %4 = bitcast %"class.WTF::String"* %3 to i8*
  call void @llvm.lifetime.start.p0i8(i64 8, i8* nonnull %4) #9
  %5 = getelementptr inbounds [163 x i8], [163 x i8]* %0, i64 0, i64 0
  %6 = icmp eq [163 x i8]* %0, null
  br i1 %6, label %9, label %7

7:                                                ; preds = %2
  %8 = tail call i64 @strlen(i8* nonnull %5) #10
  br label %9

9:                                                ; preds = %2, %7
  %10 = phi i64 [ %8, %7 ], [ 0, %2 ]
  call void @_ZN3WTF6StringC2EPKcm(%"class.WTF::String"* nonnull %3, i8* %5, i64 %10) #9
  %11 = getelementptr inbounds %"class.WTF::String", %"class.WTF::String"* %3, i64 0, i32 0, i32 0
  %12 = bitcast %"class.WTF::String"* %3 to i64*
  %13 = load i64, i64* %12, align 8
  store %"class.WTF::StringImpl"* null, %"class.WTF::StringImpl"** %11, align 8
  %14 = bitcast %"class.WTF::String"* %1 to i64*
  %15 = getelementptr inbounds %"class.WTF::String", %"class.WTF::String"* %1, i64 0, i32 0, i32 0
  %16 = load %"class.WTF::StringImpl"*, %"class.WTF::StringImpl"** %15, align 8
  store i64 %13, i64* %14, align 8
  %17 = icmp eq %"class.WTF::StringImpl"* %16, null
  br i1 %17, label %31, label %18

18:                                               ; preds = %9
  %19 = getelementptr inbounds %"class.WTF::StringImpl", %"class.WTF::StringImpl"* %16, i64 0, i32 2, i32 0, i32 0, i32 0, i32 0, i32 0
  %20 = load atomic i32, i32* %19 monotonic, align 4
  %21 = and i32 %20, 2
  %22 = icmp eq i32 %21, 0
  %23 = getelementptr inbounds %"class.WTF::StringImpl", %"class.WTF::StringImpl"* %16, i64 0, i32 0
  %24 = load i32, i32* %23, align 4
  br i1 %22, label %25, label %27

25:                                               ; preds = %18
  %26 = add i32 %24, -1
  store i32 %26, i32* %23, align 4
  br label %27

27:                                               ; preds = %25, %18
  %28 = phi i32 [ %26, %25 ], [ %24, %18 ]
  %29 = icmp eq i32 %28, 0
  br i1 %29, label %30, label %31

30:                                               ; preds = %27
  call void @_ZNK3WTF10StringImpl18DestroyIfNotStaticEv(%"class.WTF::StringImpl"* nonnull %16) #9
  br label %31

31:                                               ; preds = %9, %27, %30
  %32 = load %"class.WTF::StringImpl"*, %"class.WTF::StringImpl"** %11, align 8
  %33 = icmp eq %"class.WTF::StringImpl"* %32, null
  br i1 %33, label %47, label %34

34:                                               ; preds = %31
  %35 = getelementptr inbounds %"class.WTF::StringImpl", %"class.WTF::StringImpl"* %32, i64 0, i32 2, i32 0, i32 0, i32 0, i32 0, i32 0
  %36 = load atomic i32, i32* %35 monotonic, align 4
  %37 = and i32 %36, 2
  %38 = icmp eq i32 %37, 0
  %39 = getelementptr inbounds %"class.WTF::StringImpl", %"class.WTF::StringImpl"* %32, i64 0, i32 0
  %40 = load i32, i32* %39, align 4
  br i1 %38, label %41, label %43

41:                                               ; preds = %34
  %42 = add i32 %40, -1
  store i32 %42, i32* %39, align 4
  br label %43

43:                                               ; preds = %41, %34
  %44 = phi i32 [ %42, %41 ], [ %40, %34 ]
  %45 = icmp eq i32 %44, 0
  br i1 %45, label %46, label %47

46:                                               ; preds = %43
  call void @_ZNK3WTF10StringImpl18DestroyIfNotStaticEv(%"class.WTF::StringImpl"* nonnull %32) #9
  br label %47

47:                                               ; preds = %31, %43, %46
  call void @llvm.lifetime.end.p0i8(i64 8, i8* nonnull %4) #9
  ret void
}

; Function Attrs: nounwind ssp uwtable
define linkonce_odr hidden { %"struct.WTF::KeyValuePair.7"*, i8 } @_ZN3WTF9HashTableINS_12AtomicStringENS_12KeyValuePairIS1_NS_6StringEEENS_24KeyValuePairKeyExtractorENS_16AtomicStringHashENS_18HashMapValueTraitsINS_10HashTraitsIS1_EENS8_IS3_EEEES9_NS_18PartitionAllocatorEE6insertINS_17HashMapTranslatorISB_S6_SC_EERA12_KcRA163_SH_EENS_18HashTableAddResultISD_S4_EEOT0_OT1_(%"class.WTF::HashTable.5"*, [12 x i8]* dereferenceable(12), [163 x i8]* dereferenceable(163)) local_unnamed_addr #0 comdat align 2 {
  %4 = alloca %"class.WTF::AtomicString", align 8
  %5 = alloca %"class.WTF::AtomicString", align 8
  %6 = getelementptr inbounds %"class.WTF::HashTable.5", %"class.WTF::HashTable.5"* %0, i64 0, i32 0
  %7 = load %"struct.WTF::KeyValuePair.7"*, %"struct.WTF::KeyValuePair.7"** %6, align 8
  %8 = icmp eq %"struct.WTF::KeyValuePair.7"* %7, null
  br i1 %8, label %9, label %12

9:                                                ; preds = %3
  %10 = tail call %"struct.WTF::KeyValuePair.7"* @_ZN3WTF9HashTableINS_12AtomicStringENS_12KeyValuePairIS1_NS_6StringEEENS_24KeyValuePairKeyExtractorENS_16AtomicStringHashENS_18HashMapValueTraitsINS_10HashTraitsIS1_EENS8_IS3_EEEES9_NS_18PartitionAllocatorEE6ExpandEPS4_(%"class.WTF::HashTable.5"* %0, %"struct.WTF::KeyValuePair.7"* null)
  %11 = load %"struct.WTF::KeyValuePair.7"*, %"struct.WTF::KeyValuePair.7"** %6, align 8
  br label %12

12:                                               ; preds = %3, %9
  %13 = phi %"struct.WTF::KeyValuePair.7"* [ %7, %3 ], [ %11, %9 ]
  %14 = getelementptr inbounds %"class.WTF::HashTable.5", %"class.WTF::HashTable.5"* %0, i64 0, i32 1
  %15 = load i32, i32* %14, align 8
  %16 = add i32 %15, -1
  %17 = zext i32 %16 to i64
  %18 = bitcast %"class.WTF::AtomicString"* %5 to i8*
  call void @llvm.lifetime.start.p0i8(i64 8, i8* nonnull %18) #9
  %19 = getelementptr inbounds [12 x i8], [12 x i8]* %1, i64 0, i64 0
  %20 = icmp eq [12 x i8]* %1, null
  br i1 %20, label %23, label %21

21:                                               ; preds = %12
  %22 = tail call i64 @strlen(i8* nonnull %19) #10
  br label %23

23:                                               ; preds = %21, %12
  %24 = phi i64 [ %22, %21 ], [ 0, %12 ]
  call void @_ZN3WTF12AtomicStringC2EPKhm(%"class.WTF::AtomicString"* nonnull %5, i8* %19, i64 %24) #9
  %25 = getelementptr inbounds %"class.WTF::AtomicString", %"class.WTF::AtomicString"* %5, i64 0, i32 0, i32 0, i32 0
  %26 = load %"class.WTF::StringImpl"*, %"class.WTF::StringImpl"** %25, align 8
  %27 = getelementptr inbounds %"class.WTF::StringImpl", %"class.WTF::StringImpl"* %26, i64 0, i32 2, i32 0, i32 0, i32 0, i32 0, i32 0
  %28 = load atomic i32, i32* %27 monotonic, align 4
  %29 = lshr i32 %28, 8
  %30 = icmp eq %"class.WTF::StringImpl"* %26, null
  br i1 %30, label %43, label %31

31:                                               ; preds = %23
  %32 = load atomic i32, i32* %27 monotonic, align 4
  %33 = and i32 %32, 2
  %34 = icmp eq i32 %33, 0
  %35 = getelementptr inbounds %"class.WTF::StringImpl", %"class.WTF::StringImpl"* %26, i64 0, i32 0
  %36 = load i32, i32* %35, align 4
  br i1 %34, label %37, label %39

37:                                               ; preds = %31
  %38 = add i32 %36, -1
  store i32 %38, i32* %35, align 4
  br label %39

39:                                               ; preds = %37, %31
  %40 = phi i32 [ %38, %37 ], [ %36, %31 ]
  %41 = icmp eq i32 %40, 0
  br i1 %41, label %42, label %43

42:                                               ; preds = %39
  call void @_ZNK3WTF10StringImpl18DestroyIfNotStaticEv(%"class.WTF::StringImpl"* nonnull %26) #9
  br label %43

43:                                               ; preds = %23, %39, %42
  call void @llvm.lifetime.end.p0i8(i64 8, i8* nonnull %18) #9
  %44 = and i32 %29, %16
  %45 = zext i32 %44 to i64
  %46 = getelementptr inbounds %"struct.WTF::KeyValuePair.7", %"struct.WTF::KeyValuePair.7"* %13, i64 %45
  %47 = getelementptr inbounds %"struct.WTF::KeyValuePair.7", %"struct.WTF::KeyValuePair.7"* %46, i64 0, i32 0, i32 0, i32 0, i32 0
  %48 = load %"class.WTF::StringImpl"*, %"class.WTF::StringImpl"** %47, align 8
  %49 = icmp eq %"class.WTF::StringImpl"* %48, null
  br i1 %49, label %118, label %50

50:                                               ; preds = %43
  %51 = bitcast %"class.WTF::AtomicString"* %4 to i8*
  %52 = getelementptr inbounds %"class.WTF::AtomicString", %"class.WTF::AtomicString"* %4, i64 0, i32 0, i32 0, i32 0
  %53 = xor i32 %29, -1
  %54 = lshr i32 %28, 31
  %55 = add nsw i32 %54, %53
  %56 = shl i32 %55, 12
  %57 = xor i32 %56, %55
  %58 = lshr i32 %57, 7
  %59 = xor i32 %58, %57
  %60 = shl i32 %59, 2
  %61 = xor i32 %60, %59
  %62 = lshr i32 %61, 20
  %63 = xor i32 %62, %61
  %64 = or i32 %63, 1
  %65 = zext i32 %64 to i64
  br label %66

66:                                               ; preds = %50, %98
  %67 = phi %"struct.WTF::KeyValuePair.7"* [ %46, %50 ], [ %104, %98 ]
  %68 = phi %"struct.WTF::KeyValuePair.7"* [ null, %50 ], [ %99, %98 ]
  %69 = phi i64 [ %45, %50 ], [ %103, %98 ]
  %70 = phi i64 [ 0, %50 ], [ %101, %98 ]
  %71 = bitcast %"struct.WTF::KeyValuePair.7"* %67 to i8**
  %72 = load i8*, i8** %71, align 8
  %73 = icmp eq i8* %72, inttoptr (i64 -1 to i8*)
  br i1 %73, label %98, label %74

74:                                               ; preds = %66
  call void @llvm.lifetime.start.p0i8(i64 8, i8* nonnull %51) #9
  br i1 %20, label %77, label %75

75:                                               ; preds = %74
  %76 = call i64 @strlen(i8* nonnull %19) #10
  br label %77

77:                                               ; preds = %75, %74
  %78 = phi i64 [ %76, %75 ], [ 0, %74 ]
  call void @_ZN3WTF12AtomicStringC2EPKhm(%"class.WTF::AtomicString"* nonnull %4, i8* %19, i64 %78) #9
  %79 = getelementptr inbounds %"struct.WTF::KeyValuePair.7", %"struct.WTF::KeyValuePair.7"* %67, i64 0, i32 0, i32 0, i32 0, i32 0
  %80 = load %"class.WTF::StringImpl"*, %"class.WTF::StringImpl"** %79, align 8
  %81 = load %"class.WTF::StringImpl"*, %"class.WTF::StringImpl"** %52, align 8
  %82 = icmp eq %"class.WTF::StringImpl"* %80, %81
  %83 = icmp eq %"class.WTF::StringImpl"* %81, null
  br i1 %83, label %97, label %84

84:                                               ; preds = %77
  %85 = getelementptr inbounds %"class.WTF::StringImpl", %"class.WTF::StringImpl"* %81, i64 0, i32 2, i32 0, i32 0, i32 0, i32 0, i32 0
  %86 = load atomic i32, i32* %85 monotonic, align 4
  %87 = and i32 %86, 2
  %88 = icmp eq i32 %87, 0
  %89 = getelementptr inbounds %"class.WTF::StringImpl", %"class.WTF::StringImpl"* %81, i64 0, i32 0
  %90 = load i32, i32* %89, align 4
  br i1 %88, label %91, label %93

91:                                               ; preds = %84
  %92 = add i32 %90, -1
  store i32 %92, i32* %89, align 4
  br label %93

93:                                               ; preds = %91, %84
  %94 = phi i32 [ %92, %91 ], [ %90, %84 ]
  %95 = icmp eq i32 %94, 0
  br i1 %95, label %96, label %97

96:                                               ; preds = %93
  call void @_ZNK3WTF10StringImpl18DestroyIfNotStaticEv(%"class.WTF::StringImpl"* nonnull %81) #9
  br label %97

97:                                               ; preds = %77, %93, %96
  call void @llvm.lifetime.end.p0i8(i64 8, i8* nonnull %51) #9
  br i1 %82, label %131, label %98

98:                                               ; preds = %66, %97
  %99 = phi %"struct.WTF::KeyValuePair.7"* [ %68, %97 ], [ %67, %66 ]
  %100 = icmp eq i64 %70, 0
  %101 = select i1 %100, i64 %65, i64 %70
  %102 = add i64 %101, %69
  %103 = and i64 %102, %17
  %104 = getelementptr inbounds %"struct.WTF::KeyValuePair.7", %"struct.WTF::KeyValuePair.7"* %13, i64 %103
  %105 = getelementptr inbounds %"struct.WTF::KeyValuePair.7", %"struct.WTF::KeyValuePair.7"* %104, i64 0, i32 0, i32 0, i32 0, i32 0
  %106 = load %"class.WTF::StringImpl"*, %"class.WTF::StringImpl"** %105, align 8
  %107 = icmp eq %"class.WTF::StringImpl"* %106, null
  br i1 %107, label %108, label %66

108:                                              ; preds = %98
  %109 = icmp eq %"struct.WTF::KeyValuePair.7"* %99, null
  br i1 %109, label %118, label %110

110:                                              ; preds = %108
  %111 = bitcast %"struct.WTF::KeyValuePair.7"* %99 to i8*
  call void @llvm.memset.p0i8.i64(i8* nonnull align 8 %111, i8 0, i64 16, i1 false) #9
  %112 = getelementptr inbounds %"class.WTF::HashTable.5", %"class.WTF::HashTable.5"* %0, i64 0, i32 3
  %113 = load i32, i32* %112, align 8
  %114 = add i32 %113, 2147483647
  %115 = and i32 %114, 2147483647
  %116 = and i32 %113, -2147483648
  %117 = or i32 %115, %116
  store i32 %117, i32* %112, align 8
  br label %118

118:                                              ; preds = %43, %108, %110
  %119 = phi %"struct.WTF::KeyValuePair.7"* [ %99, %110 ], [ %104, %108 ], [ %46, %43 ]
  call void @_ZN3WTF17HashMapTranslatorINS_18HashMapValueTraitsINS_10HashTraitsINS_12AtomicStringEEENS2_INS_6StringEEEEENS_16AtomicStringHashENS_18PartitionAllocatorEE9TranslateINS_12KeyValuePairIS3_S5_EERA12_KcRA163_SE_EEvRT_OT0_OT1_(%"struct.WTF::KeyValuePair.7"* dereferenceable(16) %119, [12 x i8]* dereferenceable(12) %1, [163 x i8]* dereferenceable(163) %2)
  %120 = getelementptr inbounds %"class.WTF::HashTable.5", %"class.WTF::HashTable.5"* %0, i64 0, i32 2
  %121 = load i32, i32* %120, align 4
  %122 = add i32 %121, 1
  store i32 %122, i32* %120, align 4
  %123 = getelementptr inbounds %"class.WTF::HashTable.5", %"class.WTF::HashTable.5"* %0, i64 0, i32 3
  %124 = load i32, i32* %123, align 8
  %125 = add i32 %124, %122
  %126 = shl i32 %125, 1
  %127 = load i32, i32* %14, align 8
  %128 = icmp ult i32 %126, %127
  br i1 %128, label %131, label %129

129:                                              ; preds = %118
  %130 = call %"struct.WTF::KeyValuePair.7"* @_ZN3WTF9HashTableINS_12AtomicStringENS_12KeyValuePairIS1_NS_6StringEEENS_24KeyValuePairKeyExtractorENS_16AtomicStringHashENS_18HashMapValueTraitsINS_10HashTraitsIS1_EENS8_IS3_EEEES9_NS_18PartitionAllocatorEE6ExpandEPS4_(%"class.WTF::HashTable.5"* %0, %"struct.WTF::KeyValuePair.7"* %119)
  br label %131

131:                                              ; preds = %97, %118, %129
  %132 = phi i8 [ 1, %118 ], [ 1, %129 ], [ 0, %97 ]
  %133 = phi %"struct.WTF::KeyValuePair.7"* [ %119, %118 ], [ %130, %129 ], [ %67, %97 ]
  %134 = insertvalue { %"struct.WTF::KeyValuePair.7"*, i8 } undef, %"struct.WTF::KeyValuePair.7"* %133, 0
  %135 = insertvalue { %"struct.WTF::KeyValuePair.7"*, i8 } %134, i8 %132, 1
  ret { %"struct.WTF::KeyValuePair.7"*, i8 } %135
}

; Function Attrs: nounwind ssp uwtable
define linkonce_odr hidden void @_ZN3WTF17HashMapTranslatorINS_18HashMapValueTraitsINS_10HashTraitsINS_12AtomicStringEEENS2_INS_6StringEEEEENS_16AtomicStringHashENS_18PartitionAllocatorEE9TranslateINS_12KeyValuePairIS3_S5_EERA12_KcRA163_SE_EEvRT_OT0_OT1_(%"struct.WTF::KeyValuePair.7"* dereferenceable(16), [12 x i8]* dereferenceable(12), [163 x i8]* dereferenceable(163)) local_unnamed_addr #0 comdat align 2 {
  %4 = alloca %"class.WTF::AtomicString", align 8
  %5 = bitcast %"class.WTF::AtomicString"* %4 to i8*
  call void @llvm.lifetime.start.p0i8(i64 8, i8* nonnull %5) #9
  %6 = getelementptr inbounds [12 x i8], [12 x i8]* %1, i64 0, i64 0
  %7 = icmp eq [12 x i8]* %1, null
  br i1 %7, label %10, label %8

8:                                                ; preds = %3
  %9 = tail call i64 @strlen(i8* nonnull %6) #10
  br label %10

10:                                               ; preds = %3, %8
  %11 = phi i64 [ %9, %8 ], [ 0, %3 ]
  call void @_ZN3WTF12AtomicStringC2EPKhm(%"class.WTF::AtomicString"* nonnull %4, i8* %6, i64 %11) #9
  %12 = getelementptr inbounds %"class.WTF::AtomicString", %"class.WTF::AtomicString"* %4, i64 0, i32 0, i32 0, i32 0
  %13 = bitcast %"class.WTF::AtomicString"* %4 to i64*
  %14 = load i64, i64* %13, align 8
  store %"class.WTF::StringImpl"* null, %"class.WTF::StringImpl"** %12, align 8
  %15 = bitcast %"struct.WTF::KeyValuePair.7"* %0 to i64*
  %16 = getelementptr inbounds %"struct.WTF::KeyValuePair.7", %"struct.WTF::KeyValuePair.7"* %0, i64 0, i32 0, i32 0, i32 0, i32 0
  %17 = load %"class.WTF::StringImpl"*, %"class.WTF::StringImpl"** %16, align 8
  store i64 %14, i64* %15, align 8
  %18 = icmp eq %"class.WTF::StringImpl"* %17, null
  br i1 %18, label %32, label %19

19:                                               ; preds = %10
  %20 = getelementptr inbounds %"class.WTF::StringImpl", %"class.WTF::StringImpl"* %17, i64 0, i32 2, i32 0, i32 0, i32 0, i32 0, i32 0
  %21 = load atomic i32, i32* %20 monotonic, align 4
  %22 = and i32 %21, 2
  %23 = icmp eq i32 %22, 0
  %24 = getelementptr inbounds %"class.WTF::StringImpl", %"class.WTF::StringImpl"* %17, i64 0, i32 0
  %25 = load i32, i32* %24, align 4
  br i1 %23, label %26, label %28

26:                                               ; preds = %19
  %27 = add i32 %25, -1
  store i32 %27, i32* %24, align 4
  br label %28

28:                                               ; preds = %26, %19
  %29 = phi i32 [ %27, %26 ], [ %25, %19 ]
  %30 = icmp eq i32 %29, 0
  br i1 %30, label %31, label %32

31:                                               ; preds = %28
  call void @_ZNK3WTF10StringImpl18DestroyIfNotStaticEv(%"class.WTF::StringImpl"* nonnull %17) #9
  br label %32

32:                                               ; preds = %10, %28, %31
  %33 = load %"class.WTF::StringImpl"*, %"class.WTF::StringImpl"** %12, align 8
  %34 = icmp eq %"class.WTF::StringImpl"* %33, null
  br i1 %34, label %48, label %35

35:                                               ; preds = %32
  %36 = getelementptr inbounds %"class.WTF::StringImpl", %"class.WTF::StringImpl"* %33, i64 0, i32 2, i32 0, i32 0, i32 0, i32 0, i32 0
  %37 = load atomic i32, i32* %36 monotonic, align 4
  %38 = and i32 %37, 2
  %39 = icmp eq i32 %38, 0
  %40 = getelementptr inbounds %"class.WTF::StringImpl", %"class.WTF::StringImpl"* %33, i64 0, i32 0
  %41 = load i32, i32* %40, align 4
  br i1 %39, label %42, label %44

42:                                               ; preds = %35
  %43 = add i32 %41, -1
  store i32 %43, i32* %40, align 4
  br label %44

44:                                               ; preds = %42, %35
  %45 = phi i32 [ %43, %42 ], [ %41, %35 ]
  %46 = icmp eq i32 %45, 0
  br i1 %46, label %47, label %48

47:                                               ; preds = %44
  call void @_ZNK3WTF10StringImpl18DestroyIfNotStaticEv(%"class.WTF::StringImpl"* nonnull %33) #9
  br label %48

48:                                               ; preds = %32, %44, %47
  call void @llvm.lifetime.end.p0i8(i64 8, i8* nonnull %5) #9
  %49 = getelementptr inbounds %"struct.WTF::KeyValuePair.7", %"struct.WTF::KeyValuePair.7"* %0, i64 0, i32 1
  call void @_ZN3WTF17GenericHashTraitsINS_6StringEE5StoreIRA163_KcEEvOT_RS1_([163 x i8]* dereferenceable(163) %2, %"class.WTF::String"* dereferenceable(8) %49)
  ret void
}

; Function Attrs: nounwind ssp uwtable
define linkonce_odr hidden { %"struct.WTF::KeyValuePair.7"*, i8 } @_ZN3WTF9HashTableINS_12AtomicStringENS_12KeyValuePairIS1_NS_6StringEEENS_24KeyValuePairKeyExtractorENS_16AtomicStringHashENS_18HashMapValueTraitsINS_10HashTraitsIS1_EENS8_IS3_EEEES9_NS_18PartitionAllocatorEE6insertINS_17HashMapTranslatorISB_S6_SC_EERA11_KcRA109_SH_EENS_18HashTableAddResultISD_S4_EEOT0_OT1_(%"class.WTF::HashTable.5"*, [11 x i8]* dereferenceable(11), [109 x i8]* dereferenceable(109)) local_unnamed_addr #0 comdat align 2 {
  %4 = alloca %"class.WTF::AtomicString", align 8
  %5 = alloca %"class.WTF::AtomicString", align 8
  %6 = getelementptr inbounds %"class.WTF::HashTable.5", %"class.WTF::HashTable.5"* %0, i64 0, i32 0
  %7 = load %"struct.WTF::KeyValuePair.7"*, %"struct.WTF::KeyValuePair.7"** %6, align 8
  %8 = icmp eq %"struct.WTF::KeyValuePair.7"* %7, null
  br i1 %8, label %9, label %12

9:                                                ; preds = %3
  %10 = tail call %"struct.WTF::KeyValuePair.7"* @_ZN3WTF9HashTableINS_12AtomicStringENS_12KeyValuePairIS1_NS_6StringEEENS_24KeyValuePairKeyExtractorENS_16AtomicStringHashENS_18HashMapValueTraitsINS_10HashTraitsIS1_EENS8_IS3_EEEES9_NS_18PartitionAllocatorEE6ExpandEPS4_(%"class.WTF::HashTable.5"* %0, %"struct.WTF::KeyValuePair.7"* null)
  %11 = load %"struct.WTF::KeyValuePair.7"*, %"struct.WTF::KeyValuePair.7"** %6, align 8
  br label %12

12:                                               ; preds = %3, %9
  %13 = phi %"struct.WTF::KeyValuePair.7"* [ %7, %3 ], [ %11, %9 ]
  %14 = getelementptr inbounds %"class.WTF::HashTable.5", %"class.WTF::HashTable.5"* %0, i64 0, i32 1
  %15 = load i32, i32* %14, align 8
  %16 = add i32 %15, -1
  %17 = zext i32 %16 to i64
  %18 = bitcast %"class.WTF::AtomicString"* %5 to i8*
  call void @llvm.lifetime.start.p0i8(i64 8, i8* nonnull %18) #9
  %19 = getelementptr inbounds [11 x i8], [11 x i8]* %1, i64 0, i64 0
  %20 = icmp eq [11 x i8]* %1, null
  br i1 %20, label %23, label %21

21:                                               ; preds = %12
  %22 = tail call i64 @strlen(i8* nonnull %19) #10
  br label %23

23:                                               ; preds = %21, %12
  %24 = phi i64 [ %22, %21 ], [ 0, %12 ]
  call void @_ZN3WTF12AtomicStringC2EPKhm(%"class.WTF::AtomicString"* nonnull %5, i8* %19, i64 %24) #9
  %25 = getelementptr inbounds %"class.WTF::AtomicString", %"class.WTF::AtomicString"* %5, i64 0, i32 0, i32 0, i32 0
  %26 = load %"class.WTF::StringImpl"*, %"class.WTF::StringImpl"** %25, align 8
  %27 = getelementptr inbounds %"class.WTF::StringImpl", %"class.WTF::StringImpl"* %26, i64 0, i32 2, i32 0, i32 0, i32 0, i32 0, i32 0
  %28 = load atomic i32, i32* %27 monotonic, align 4
  %29 = lshr i32 %28, 8
  %30 = icmp eq %"class.WTF::StringImpl"* %26, null
  br i1 %30, label %43, label %31

31:                                               ; preds = %23
  %32 = load atomic i32, i32* %27 monotonic, align 4
  %33 = and i32 %32, 2
  %34 = icmp eq i32 %33, 0
  %35 = getelementptr inbounds %"class.WTF::StringImpl", %"class.WTF::StringImpl"* %26, i64 0, i32 0
  %36 = load i32, i32* %35, align 4
  br i1 %34, label %37, label %39

37:                                               ; preds = %31
  %38 = add i32 %36, -1
  store i32 %38, i32* %35, align 4
  br label %39

39:                                               ; preds = %37, %31
  %40 = phi i32 [ %38, %37 ], [ %36, %31 ]
  %41 = icmp eq i32 %40, 0
  br i1 %41, label %42, label %43

42:                                               ; preds = %39
  call void @_ZNK3WTF10StringImpl18DestroyIfNotStaticEv(%"class.WTF::StringImpl"* nonnull %26) #9
  br label %43

43:                                               ; preds = %23, %39, %42
  call void @llvm.lifetime.end.p0i8(i64 8, i8* nonnull %18) #9
  %44 = and i32 %29, %16
  %45 = zext i32 %44 to i64
  %46 = getelementptr inbounds %"struct.WTF::KeyValuePair.7", %"struct.WTF::KeyValuePair.7"* %13, i64 %45
  %47 = getelementptr inbounds %"struct.WTF::KeyValuePair.7", %"struct.WTF::KeyValuePair.7"* %46, i64 0, i32 0, i32 0, i32 0, i32 0
  %48 = load %"class.WTF::StringImpl"*, %"class.WTF::StringImpl"** %47, align 8
  %49 = icmp eq %"class.WTF::StringImpl"* %48, null
  br i1 %49, label %118, label %50

50:                                               ; preds = %43
  %51 = bitcast %"class.WTF::AtomicString"* %4 to i8*
  %52 = getelementptr inbounds %"class.WTF::AtomicString", %"class.WTF::AtomicString"* %4, i64 0, i32 0, i32 0, i32 0
  %53 = xor i32 %29, -1
  %54 = lshr i32 %28, 31
  %55 = add nsw i32 %54, %53
  %56 = shl i32 %55, 12
  %57 = xor i32 %56, %55
  %58 = lshr i32 %57, 7
  %59 = xor i32 %58, %57
  %60 = shl i32 %59, 2
  %61 = xor i32 %60, %59
  %62 = lshr i32 %61, 20
  %63 = xor i32 %62, %61
  %64 = or i32 %63, 1
  %65 = zext i32 %64 to i64
  br label %66

66:                                               ; preds = %50, %98
  %67 = phi %"struct.WTF::KeyValuePair.7"* [ %46, %50 ], [ %104, %98 ]
  %68 = phi %"struct.WTF::KeyValuePair.7"* [ null, %50 ], [ %99, %98 ]
  %69 = phi i64 [ %45, %50 ], [ %103, %98 ]
  %70 = phi i64 [ 0, %50 ], [ %101, %98 ]
  %71 = bitcast %"struct.WTF::KeyValuePair.7"* %67 to i8**
  %72 = load i8*, i8** %71, align 8
  %73 = icmp eq i8* %72, inttoptr (i64 -1 to i8*)
  br i1 %73, label %98, label %74

74:                                               ; preds = %66
  call void @llvm.lifetime.start.p0i8(i64 8, i8* nonnull %51) #9
  br i1 %20, label %77, label %75

75:                                               ; preds = %74
  %76 = call i64 @strlen(i8* nonnull %19) #10
  br label %77

77:                                               ; preds = %75, %74
  %78 = phi i64 [ %76, %75 ], [ 0, %74 ]
  call void @_ZN3WTF12AtomicStringC2EPKhm(%"class.WTF::AtomicString"* nonnull %4, i8* %19, i64 %78) #9
  %79 = getelementptr inbounds %"struct.WTF::KeyValuePair.7", %"struct.WTF::KeyValuePair.7"* %67, i64 0, i32 0, i32 0, i32 0, i32 0
  %80 = load %"class.WTF::StringImpl"*, %"class.WTF::StringImpl"** %79, align 8
  %81 = load %"class.WTF::StringImpl"*, %"class.WTF::StringImpl"** %52, align 8
  %82 = icmp eq %"class.WTF::StringImpl"* %80, %81
  %83 = icmp eq %"class.WTF::StringImpl"* %81, null
  br i1 %83, label %97, label %84

84:                                               ; preds = %77
  %85 = getelementptr inbounds %"class.WTF::StringImpl", %"class.WTF::StringImpl"* %81, i64 0, i32 2, i32 0, i32 0, i32 0, i32 0, i32 0
  %86 = load atomic i32, i32* %85 monotonic, align 4
  %87 = and i32 %86, 2
  %88 = icmp eq i32 %87, 0
  %89 = getelementptr inbounds %"class.WTF::StringImpl", %"class.WTF::StringImpl"* %81, i64 0, i32 0
  %90 = load i32, i32* %89, align 4
  br i1 %88, label %91, label %93

91:                                               ; preds = %84
  %92 = add i32 %90, -1
  store i32 %92, i32* %89, align 4
  br label %93

93:                                               ; preds = %91, %84
  %94 = phi i32 [ %92, %91 ], [ %90, %84 ]
  %95 = icmp eq i32 %94, 0
  br i1 %95, label %96, label %97

96:                                               ; preds = %93
  call void @_ZNK3WTF10StringImpl18DestroyIfNotStaticEv(%"class.WTF::StringImpl"* nonnull %81) #9
  br label %97

97:                                               ; preds = %77, %93, %96
  call void @llvm.lifetime.end.p0i8(i64 8, i8* nonnull %51) #9
  br i1 %82, label %131, label %98

98:                                               ; preds = %66, %97
  %99 = phi %"struct.WTF::KeyValuePair.7"* [ %68, %97 ], [ %67, %66 ]
  %100 = icmp eq i64 %70, 0
  %101 = select i1 %100, i64 %65, i64 %70
  %102 = add i64 %101, %69
  %103 = and i64 %102, %17
  %104 = getelementptr inbounds %"struct.WTF::KeyValuePair.7", %"struct.WTF::KeyValuePair.7"* %13, i64 %103
  %105 = getelementptr inbounds %"struct.WTF::KeyValuePair.7", %"struct.WTF::KeyValuePair.7"* %104, i64 0, i32 0, i32 0, i32 0, i32 0
  %106 = load %"class.WTF::StringImpl"*, %"class.WTF::StringImpl"** %105, align 8
  %107 = icmp eq %"class.WTF::StringImpl"* %106, null
  br i1 %107, label %108, label %66

108:                                              ; preds = %98
  %109 = icmp eq %"struct.WTF::KeyValuePair.7"* %99, null
  br i1 %109, label %118, label %110

110:                                              ; preds = %108
  %111 = bitcast %"struct.WTF::KeyValuePair.7"* %99 to i8*
  call void @llvm.memset.p0i8.i64(i8* nonnull align 8 %111, i8 0, i64 16, i1 false) #9
  %112 = getelementptr inbounds %"class.WTF::HashTable.5", %"class.WTF::HashTable.5"* %0, i64 0, i32 3
  %113 = load i32, i32* %112, align 8
  %114 = add i32 %113, 2147483647
  %115 = and i32 %114, 2147483647
  %116 = and i32 %113, -2147483648
  %117 = or i32 %115, %116
  store i32 %117, i32* %112, align 8
  br label %118

118:                                              ; preds = %43, %108, %110
  %119 = phi %"struct.WTF::KeyValuePair.7"* [ %99, %110 ], [ %104, %108 ], [ %46, %43 ]
  call void @_ZN3WTF17HashMapTranslatorINS_18HashMapValueTraitsINS_10HashTraitsINS_12AtomicStringEEENS2_INS_6StringEEEEENS_16AtomicStringHashENS_18PartitionAllocatorEE9TranslateINS_12KeyValuePairIS3_S5_EERA11_KcRA109_SE_EEvRT_OT0_OT1_(%"struct.WTF::KeyValuePair.7"* dereferenceable(16) %119, [11 x i8]* dereferenceable(11) %1, [109 x i8]* dereferenceable(109) %2)
  %120 = getelementptr inbounds %"class.WTF::HashTable.5", %"class.WTF::HashTable.5"* %0, i64 0, i32 2
  %121 = load i32, i32* %120, align 4
  %122 = add i32 %121, 1
  store i32 %122, i32* %120, align 4
  %123 = getelementptr inbounds %"class.WTF::HashTable.5", %"class.WTF::HashTable.5"* %0, i64 0, i32 3
  %124 = load i32, i32* %123, align 8
  %125 = add i32 %124, %122
  %126 = shl i32 %125, 1
  %127 = load i32, i32* %14, align 8
  %128 = icmp ult i32 %126, %127
  br i1 %128, label %131, label %129

129:                                              ; preds = %118
  %130 = call %"struct.WTF::KeyValuePair.7"* @_ZN3WTF9HashTableINS_12AtomicStringENS_12KeyValuePairIS1_NS_6StringEEENS_24KeyValuePairKeyExtractorENS_16AtomicStringHashENS_18HashMapValueTraitsINS_10HashTraitsIS1_EENS8_IS3_EEEES9_NS_18PartitionAllocatorEE6ExpandEPS4_(%"class.WTF::HashTable.5"* %0, %"struct.WTF::KeyValuePair.7"* %119)
  br label %131

131:                                              ; preds = %97, %118, %129
  %132 = phi i8 [ 1, %118 ], [ 1, %129 ], [ 0, %97 ]
  %133 = phi %"struct.WTF::KeyValuePair.7"* [ %119, %118 ], [ %130, %129 ], [ %67, %97 ]
  %134 = insertvalue { %"struct.WTF::KeyValuePair.7"*, i8 } undef, %"struct.WTF::KeyValuePair.7"* %133, 0
  %135 = insertvalue { %"struct.WTF::KeyValuePair.7"*, i8 } %134, i8 %132, 1
  ret { %"struct.WTF::KeyValuePair.7"*, i8 } %135
}

; Function Attrs: nounwind ssp uwtable
define linkonce_odr hidden void @_ZN3WTF17HashMapTranslatorINS_18HashMapValueTraitsINS_10HashTraitsINS_12AtomicStringEEENS2_INS_6StringEEEEENS_16AtomicStringHashENS_18PartitionAllocatorEE9TranslateINS_12KeyValuePairIS3_S5_EERA11_KcRA109_SE_EEvRT_OT0_OT1_(%"struct.WTF::KeyValuePair.7"* dereferenceable(16), [11 x i8]* dereferenceable(11), [109 x i8]* dereferenceable(109)) local_unnamed_addr #0 comdat align 2 {
  %4 = alloca %"class.WTF::AtomicString", align 8
  %5 = bitcast %"class.WTF::AtomicString"* %4 to i8*
  call void @llvm.lifetime.start.p0i8(i64 8, i8* nonnull %5) #9
  %6 = getelementptr inbounds [11 x i8], [11 x i8]* %1, i64 0, i64 0
  %7 = icmp eq [11 x i8]* %1, null
  br i1 %7, label %10, label %8

8:                                                ; preds = %3
  %9 = tail call i64 @strlen(i8* nonnull %6) #10
  br label %10

10:                                               ; preds = %3, %8
  %11 = phi i64 [ %9, %8 ], [ 0, %3 ]
  call void @_ZN3WTF12AtomicStringC2EPKhm(%"class.WTF::AtomicString"* nonnull %4, i8* %6, i64 %11) #9
  %12 = getelementptr inbounds %"class.WTF::AtomicString", %"class.WTF::AtomicString"* %4, i64 0, i32 0, i32 0, i32 0
  %13 = bitcast %"class.WTF::AtomicString"* %4 to i64*
  %14 = load i64, i64* %13, align 8
  store %"class.WTF::StringImpl"* null, %"class.WTF::StringImpl"** %12, align 8
  %15 = bitcast %"struct.WTF::KeyValuePair.7"* %0 to i64*
  %16 = getelementptr inbounds %"struct.WTF::KeyValuePair.7", %"struct.WTF::KeyValuePair.7"* %0, i64 0, i32 0, i32 0, i32 0, i32 0
  %17 = load %"class.WTF::StringImpl"*, %"class.WTF::StringImpl"** %16, align 8
  store i64 %14, i64* %15, align 8
  %18 = icmp eq %"class.WTF::StringImpl"* %17, null
  br i1 %18, label %32, label %19

19:                                               ; preds = %10
  %20 = getelementptr inbounds %"class.WTF::StringImpl", %"class.WTF::StringImpl"* %17, i64 0, i32 2, i32 0, i32 0, i32 0, i32 0, i32 0
  %21 = load atomic i32, i32* %20 monotonic, align 4
  %22 = and i32 %21, 2
  %23 = icmp eq i32 %22, 0
  %24 = getelementptr inbounds %"class.WTF::StringImpl", %"class.WTF::StringImpl"* %17, i64 0, i32 0
  %25 = load i32, i32* %24, align 4
  br i1 %23, label %26, label %28

26:                                               ; preds = %19
  %27 = add i32 %25, -1
  store i32 %27, i32* %24, align 4
  br label %28

28:                                               ; preds = %26, %19
  %29 = phi i32 [ %27, %26 ], [ %25, %19 ]
  %30 = icmp eq i32 %29, 0
  br i1 %30, label %31, label %32

31:                                               ; preds = %28
  call void @_ZNK3WTF10StringImpl18DestroyIfNotStaticEv(%"class.WTF::StringImpl"* nonnull %17) #9
  br label %32

32:                                               ; preds = %10, %28, %31
  %33 = load %"class.WTF::StringImpl"*, %"class.WTF::StringImpl"** %12, align 8
  %34 = icmp eq %"class.WTF::StringImpl"* %33, null
  br i1 %34, label %48, label %35

35:                                               ; preds = %32
  %36 = getelementptr inbounds %"class.WTF::StringImpl", %"class.WTF::StringImpl"* %33, i64 0, i32 2, i32 0, i32 0, i32 0, i32 0, i32 0
  %37 = load atomic i32, i32* %36 monotonic, align 4
  %38 = and i32 %37, 2
  %39 = icmp eq i32 %38, 0
  %40 = getelementptr inbounds %"class.WTF::StringImpl", %"class.WTF::StringImpl"* %33, i64 0, i32 0
  %41 = load i32, i32* %40, align 4
  br i1 %39, label %42, label %44

42:                                               ; preds = %35
  %43 = add i32 %41, -1
  store i32 %43, i32* %40, align 4
  br label %44

44:                                               ; preds = %42, %35
  %45 = phi i32 [ %43, %42 ], [ %41, %35 ]
  %46 = icmp eq i32 %45, 0
  br i1 %46, label %47, label %48

47:                                               ; preds = %44
  call void @_ZNK3WTF10StringImpl18DestroyIfNotStaticEv(%"class.WTF::StringImpl"* nonnull %33) #9
  br label %48

48:                                               ; preds = %32, %44, %47
  call void @llvm.lifetime.end.p0i8(i64 8, i8* nonnull %5) #9
  %49 = getelementptr inbounds %"struct.WTF::KeyValuePair.7", %"struct.WTF::KeyValuePair.7"* %0, i64 0, i32 1
  call void @_ZN3WTF17GenericHashTraitsINS_6StringEE5StoreIRA109_KcEEvOT_RS1_([109 x i8]* dereferenceable(109) %2, %"class.WTF::String"* dereferenceable(8) %49)
  ret void
}

; Function Attrs: nounwind ssp uwtable
define linkonce_odr hidden void @_ZN3WTF17GenericHashTraitsINS_6StringEE5StoreIRA459_KcEEvOT_RS1_([459 x i8]* dereferenceable(459), %"class.WTF::String"* dereferenceable(8)) local_unnamed_addr #0 comdat align 2 {
  %3 = alloca %"class.WTF::String", align 8
  %4 = bitcast %"class.WTF::String"* %3 to i8*
  call void @llvm.lifetime.start.p0i8(i64 8, i8* nonnull %4) #9
  %5 = getelementptr inbounds [459 x i8], [459 x i8]* %0, i64 0, i64 0
  %6 = icmp eq [459 x i8]* %0, null
  br i1 %6, label %9, label %7

7:                                                ; preds = %2
  %8 = tail call i64 @strlen(i8* nonnull %5) #10
  br label %9

9:                                                ; preds = %2, %7
  %10 = phi i64 [ %8, %7 ], [ 0, %2 ]
  call void @_ZN3WTF6StringC2EPKcm(%"class.WTF::String"* nonnull %3, i8* %5, i64 %10) #9
  %11 = getelementptr inbounds %"class.WTF::String", %"class.WTF::String"* %3, i64 0, i32 0, i32 0
  %12 = bitcast %"class.WTF::String"* %3 to i64*
  %13 = load i64, i64* %12, align 8
  store %"class.WTF::StringImpl"* null, %"class.WTF::StringImpl"** %11, align 8
  %14 = bitcast %"class.WTF::String"* %1 to i64*
  %15 = getelementptr inbounds %"class.WTF::String", %"class.WTF::String"* %1, i64 0, i32 0, i32 0
  %16 = load %"class.WTF::StringImpl"*, %"class.WTF::StringImpl"** %15, align 8
  store i64 %13, i64* %14, align 8
  %17 = icmp eq %"class.WTF::StringImpl"* %16, null
  br i1 %17, label %31, label %18

18:                                               ; preds = %9
  %19 = getelementptr inbounds %"class.WTF::StringImpl", %"class.WTF::StringImpl"* %16, i64 0, i32 2, i32 0, i32 0, i32 0, i32 0, i32 0
  %20 = load atomic i32, i32* %19 monotonic, align 4
  %21 = and i32 %20, 2
  %22 = icmp eq i32 %21, 0
  %23 = getelementptr inbounds %"class.WTF::StringImpl", %"class.WTF::StringImpl"* %16, i64 0, i32 0
  %24 = load i32, i32* %23, align 4
  br i1 %22, label %25, label %27

25:                                               ; preds = %18
  %26 = add i32 %24, -1
  store i32 %26, i32* %23, align 4
  br label %27

27:                                               ; preds = %25, %18
  %28 = phi i32 [ %26, %25 ], [ %24, %18 ]
  %29 = icmp eq i32 %28, 0
  br i1 %29, label %30, label %31

30:                                               ; preds = %27
  call void @_ZNK3WTF10StringImpl18DestroyIfNotStaticEv(%"class.WTF::StringImpl"* nonnull %16) #9
  br label %31

31:                                               ; preds = %9, %27, %30
  %32 = load %"class.WTF::StringImpl"*, %"class.WTF::StringImpl"** %11, align 8
  %33 = icmp eq %"class.WTF::StringImpl"* %32, null
  br i1 %33, label %47, label %34

34:                                               ; preds = %31
  %35 = getelementptr inbounds %"class.WTF::StringImpl", %"class.WTF::StringImpl"* %32, i64 0, i32 2, i32 0, i32 0, i32 0, i32 0, i32 0
  %36 = load atomic i32, i32* %35 monotonic, align 4
  %37 = and i32 %36, 2
  %38 = icmp eq i32 %37, 0
  %39 = getelementptr inbounds %"class.WTF::StringImpl", %"class.WTF::StringImpl"* %32, i64 0, i32 0
  %40 = load i32, i32* %39, align 4
  br i1 %38, label %41, label %43

41:                                               ; preds = %34
  %42 = add i32 %40, -1
  store i32 %42, i32* %39, align 4
  br label %43

43:                                               ; preds = %41, %34
  %44 = phi i32 [ %42, %41 ], [ %40, %34 ]
  %45 = icmp eq i32 %44, 0
  br i1 %45, label %46, label %47

46:                                               ; preds = %43
  call void @_ZNK3WTF10StringImpl18DestroyIfNotStaticEv(%"class.WTF::StringImpl"* nonnull %32) #9
  br label %47

47:                                               ; preds = %31, %43, %46
  call void @llvm.lifetime.end.p0i8(i64 8, i8* nonnull %4) #9
  ret void
}

; Function Attrs: nounwind ssp uwtable
define linkonce_odr hidden { %"struct.WTF::KeyValuePair.7"*, i8 } @_ZN3WTF9HashTableINS_12AtomicStringENS_12KeyValuePairIS1_NS_6StringEEENS_24KeyValuePairKeyExtractorENS_16AtomicStringHashENS_18HashMapValueTraitsINS_10HashTraitsIS1_EENS8_IS3_EEEES9_NS_18PartitionAllocatorEE6insertINS_17HashMapTranslatorISB_S6_SC_EERA9_KcRA459_SH_EENS_18HashTableAddResultISD_S4_EEOT0_OT1_(%"class.WTF::HashTable.5"*, [9 x i8]* dereferenceable(9), [459 x i8]* dereferenceable(459)) local_unnamed_addr #0 comdat align 2 {
  %4 = alloca %"class.WTF::AtomicString", align 8
  %5 = alloca %"class.WTF::AtomicString", align 8
  %6 = getelementptr inbounds %"class.WTF::HashTable.5", %"class.WTF::HashTable.5"* %0, i64 0, i32 0
  %7 = load %"struct.WTF::KeyValuePair.7"*, %"struct.WTF::KeyValuePair.7"** %6, align 8
  %8 = icmp eq %"struct.WTF::KeyValuePair.7"* %7, null
  br i1 %8, label %9, label %12

9:                                                ; preds = %3
  %10 = tail call %"struct.WTF::KeyValuePair.7"* @_ZN3WTF9HashTableINS_12AtomicStringENS_12KeyValuePairIS1_NS_6StringEEENS_24KeyValuePairKeyExtractorENS_16AtomicStringHashENS_18HashMapValueTraitsINS_10HashTraitsIS1_EENS8_IS3_EEEES9_NS_18PartitionAllocatorEE6ExpandEPS4_(%"class.WTF::HashTable.5"* %0, %"struct.WTF::KeyValuePair.7"* null)
  %11 = load %"struct.WTF::KeyValuePair.7"*, %"struct.WTF::KeyValuePair.7"** %6, align 8
  br label %12

12:                                               ; preds = %3, %9
  %13 = phi %"struct.WTF::KeyValuePair.7"* [ %7, %3 ], [ %11, %9 ]
  %14 = getelementptr inbounds %"class.WTF::HashTable.5", %"class.WTF::HashTable.5"* %0, i64 0, i32 1
  %15 = load i32, i32* %14, align 8
  %16 = add i32 %15, -1
  %17 = zext i32 %16 to i64
  %18 = bitcast %"class.WTF::AtomicString"* %5 to i8*
  call void @llvm.lifetime.start.p0i8(i64 8, i8* nonnull %18) #9
  %19 = getelementptr inbounds [9 x i8], [9 x i8]* %1, i64 0, i64 0
  %20 = icmp eq [9 x i8]* %1, null
  br i1 %20, label %23, label %21

21:                                               ; preds = %12
  %22 = tail call i64 @strlen(i8* nonnull %19) #10
  br label %23

23:                                               ; preds = %21, %12
  %24 = phi i64 [ %22, %21 ], [ 0, %12 ]
  call void @_ZN3WTF12AtomicStringC2EPKhm(%"class.WTF::AtomicString"* nonnull %5, i8* %19, i64 %24) #9
  %25 = getelementptr inbounds %"class.WTF::AtomicString", %"class.WTF::AtomicString"* %5, i64 0, i32 0, i32 0, i32 0
  %26 = load %"class.WTF::StringImpl"*, %"class.WTF::StringImpl"** %25, align 8
  %27 = getelementptr inbounds %"class.WTF::StringImpl", %"class.WTF::StringImpl"* %26, i64 0, i32 2, i32 0, i32 0, i32 0, i32 0, i32 0
  %28 = load atomic i32, i32* %27 monotonic, align 4
  %29 = lshr i32 %28, 8
  %30 = icmp eq %"class.WTF::StringImpl"* %26, null
  br i1 %30, label %43, label %31

31:                                               ; preds = %23
  %32 = load atomic i32, i32* %27 monotonic, align 4
  %33 = and i32 %32, 2
  %34 = icmp eq i32 %33, 0
  %35 = getelementptr inbounds %"class.WTF::StringImpl", %"class.WTF::StringImpl"* %26, i64 0, i32 0
  %36 = load i32, i32* %35, align 4
  br i1 %34, label %37, label %39

37:                                               ; preds = %31
  %38 = add i32 %36, -1
  store i32 %38, i32* %35, align 4
  br label %39

39:                                               ; preds = %37, %31
  %40 = phi i32 [ %38, %37 ], [ %36, %31 ]
  %41 = icmp eq i32 %40, 0
  br i1 %41, label %42, label %43

42:                                               ; preds = %39
  call void @_ZNK3WTF10StringImpl18DestroyIfNotStaticEv(%"class.WTF::StringImpl"* nonnull %26) #9
  br label %43

43:                                               ; preds = %23, %39, %42
  call void @llvm.lifetime.end.p0i8(i64 8, i8* nonnull %18) #9
  %44 = and i32 %29, %16
  %45 = zext i32 %44 to i64
  %46 = getelementptr inbounds %"struct.WTF::KeyValuePair.7", %"struct.WTF::KeyValuePair.7"* %13, i64 %45
  %47 = getelementptr inbounds %"struct.WTF::KeyValuePair.7", %"struct.WTF::KeyValuePair.7"* %46, i64 0, i32 0, i32 0, i32 0, i32 0
  %48 = load %"class.WTF::StringImpl"*, %"class.WTF::StringImpl"** %47, align 8
  %49 = icmp eq %"class.WTF::StringImpl"* %48, null
  br i1 %49, label %118, label %50

50:                                               ; preds = %43
  %51 = bitcast %"class.WTF::AtomicString"* %4 to i8*
  %52 = getelementptr inbounds %"class.WTF::AtomicString", %"class.WTF::AtomicString"* %4, i64 0, i32 0, i32 0, i32 0
  %53 = xor i32 %29, -1
  %54 = lshr i32 %28, 31
  %55 = add nsw i32 %54, %53
  %56 = shl i32 %55, 12
  %57 = xor i32 %56, %55
  %58 = lshr i32 %57, 7
  %59 = xor i32 %58, %57
  %60 = shl i32 %59, 2
  %61 = xor i32 %60, %59
  %62 = lshr i32 %61, 20
  %63 = xor i32 %62, %61
  %64 = or i32 %63, 1
  %65 = zext i32 %64 to i64
  br label %66

66:                                               ; preds = %50, %98
  %67 = phi %"struct.WTF::KeyValuePair.7"* [ %46, %50 ], [ %104, %98 ]
  %68 = phi %"struct.WTF::KeyValuePair.7"* [ null, %50 ], [ %99, %98 ]
  %69 = phi i64 [ %45, %50 ], [ %103, %98 ]
  %70 = phi i64 [ 0, %50 ], [ %101, %98 ]
  %71 = bitcast %"struct.WTF::KeyValuePair.7"* %67 to i8**
  %72 = load i8*, i8** %71, align 8
  %73 = icmp eq i8* %72, inttoptr (i64 -1 to i8*)
  br i1 %73, label %98, label %74

74:                                               ; preds = %66
  call void @llvm.lifetime.start.p0i8(i64 8, i8* nonnull %51) #9
  br i1 %20, label %77, label %75

75:                                               ; preds = %74
  %76 = call i64 @strlen(i8* nonnull %19) #10
  br label %77

77:                                               ; preds = %75, %74
  %78 = phi i64 [ %76, %75 ], [ 0, %74 ]
  call void @_ZN3WTF12AtomicStringC2EPKhm(%"class.WTF::AtomicString"* nonnull %4, i8* %19, i64 %78) #9
  %79 = getelementptr inbounds %"struct.WTF::KeyValuePair.7", %"struct.WTF::KeyValuePair.7"* %67, i64 0, i32 0, i32 0, i32 0, i32 0
  %80 = load %"class.WTF::StringImpl"*, %"class.WTF::StringImpl"** %79, align 8
  %81 = load %"class.WTF::StringImpl"*, %"class.WTF::StringImpl"** %52, align 8
  %82 = icmp eq %"class.WTF::StringImpl"* %80, %81
  %83 = icmp eq %"class.WTF::StringImpl"* %81, null
  br i1 %83, label %97, label %84

84:                                               ; preds = %77
  %85 = getelementptr inbounds %"class.WTF::StringImpl", %"class.WTF::StringImpl"* %81, i64 0, i32 2, i32 0, i32 0, i32 0, i32 0, i32 0
  %86 = load atomic i32, i32* %85 monotonic, align 4
  %87 = and i32 %86, 2
  %88 = icmp eq i32 %87, 0
  %89 = getelementptr inbounds %"class.WTF::StringImpl", %"class.WTF::StringImpl"* %81, i64 0, i32 0
  %90 = load i32, i32* %89, align 4
  br i1 %88, label %91, label %93

91:                                               ; preds = %84
  %92 = add i32 %90, -1
  store i32 %92, i32* %89, align 4
  br label %93

93:                                               ; preds = %91, %84
  %94 = phi i32 [ %92, %91 ], [ %90, %84 ]
  %95 = icmp eq i32 %94, 0
  br i1 %95, label %96, label %97

96:                                               ; preds = %93
  call void @_ZNK3WTF10StringImpl18DestroyIfNotStaticEv(%"class.WTF::StringImpl"* nonnull %81) #9
  br label %97

97:                                               ; preds = %77, %93, %96
  call void @llvm.lifetime.end.p0i8(i64 8, i8* nonnull %51) #9
  br i1 %82, label %131, label %98

98:                                               ; preds = %66, %97
  %99 = phi %"struct.WTF::KeyValuePair.7"* [ %68, %97 ], [ %67, %66 ]
  %100 = icmp eq i64 %70, 0
  %101 = select i1 %100, i64 %65, i64 %70
  %102 = add i64 %101, %69
  %103 = and i64 %102, %17
  %104 = getelementptr inbounds %"struct.WTF::KeyValuePair.7", %"struct.WTF::KeyValuePair.7"* %13, i64 %103
  %105 = getelementptr inbounds %"struct.WTF::KeyValuePair.7", %"struct.WTF::KeyValuePair.7"* %104, i64 0, i32 0, i32 0, i32 0, i32 0
  %106 = load %"class.WTF::StringImpl"*, %"class.WTF::StringImpl"** %105, align 8
  %107 = icmp eq %"class.WTF::StringImpl"* %106, null
  br i1 %107, label %108, label %66

108:                                              ; preds = %98
  %109 = icmp eq %"struct.WTF::KeyValuePair.7"* %99, null
  br i1 %109, label %118, label %110

110:                                              ; preds = %108
  %111 = bitcast %"struct.WTF::KeyValuePair.7"* %99 to i8*
  call void @llvm.memset.p0i8.i64(i8* nonnull align 8 %111, i8 0, i64 16, i1 false) #9
  %112 = getelementptr inbounds %"class.WTF::HashTable.5", %"class.WTF::HashTable.5"* %0, i64 0, i32 3
  %113 = load i32, i32* %112, align 8
  %114 = add i32 %113, 2147483647
  %115 = and i32 %114, 2147483647
  %116 = and i32 %113, -2147483648
  %117 = or i32 %115, %116
  store i32 %117, i32* %112, align 8
  br label %118

118:                                              ; preds = %43, %108, %110
  %119 = phi %"struct.WTF::KeyValuePair.7"* [ %99, %110 ], [ %104, %108 ], [ %46, %43 ]
  call void @_ZN3WTF17HashMapTranslatorINS_18HashMapValueTraitsINS_10HashTraitsINS_12AtomicStringEEENS2_INS_6StringEEEEENS_16AtomicStringHashENS_18PartitionAllocatorEE9TranslateINS_12KeyValuePairIS3_S5_EERA9_KcRA459_SE_EEvRT_OT0_OT1_(%"struct.WTF::KeyValuePair.7"* dereferenceable(16) %119, [9 x i8]* dereferenceable(9) %1, [459 x i8]* dereferenceable(459) %2)
  %120 = getelementptr inbounds %"class.WTF::HashTable.5", %"class.WTF::HashTable.5"* %0, i64 0, i32 2
  %121 = load i32, i32* %120, align 4
  %122 = add i32 %121, 1
  store i32 %122, i32* %120, align 4
  %123 = getelementptr inbounds %"class.WTF::HashTable.5", %"class.WTF::HashTable.5"* %0, i64 0, i32 3
  %124 = load i32, i32* %123, align 8
  %125 = add i32 %124, %122
  %126 = shl i32 %125, 1
  %127 = load i32, i32* %14, align 8
  %128 = icmp ult i32 %126, %127
  br i1 %128, label %131, label %129

129:                                              ; preds = %118
  %130 = call %"struct.WTF::KeyValuePair.7"* @_ZN3WTF9HashTableINS_12AtomicStringENS_12KeyValuePairIS1_NS_6StringEEENS_24KeyValuePairKeyExtractorENS_16AtomicStringHashENS_18HashMapValueTraitsINS_10HashTraitsIS1_EENS8_IS3_EEEES9_NS_18PartitionAllocatorEE6ExpandEPS4_(%"class.WTF::HashTable.5"* %0, %"struct.WTF::KeyValuePair.7"* %119)
  br label %131

131:                                              ; preds = %97, %118, %129
  %132 = phi i8 [ 1, %118 ], [ 1, %129 ], [ 0, %97 ]
  %133 = phi %"struct.WTF::KeyValuePair.7"* [ %119, %118 ], [ %130, %129 ], [ %67, %97 ]
  %134 = insertvalue { %"struct.WTF::KeyValuePair.7"*, i8 } undef, %"struct.WTF::KeyValuePair.7"* %133, 0
  %135 = insertvalue { %"struct.WTF::KeyValuePair.7"*, i8 } %134, i8 %132, 1
  ret { %"struct.WTF::KeyValuePair.7"*, i8 } %135
}

; Function Attrs: nounwind ssp uwtable
define linkonce_odr hidden void @_ZN3WTF17HashMapTranslatorINS_18HashMapValueTraitsINS_10HashTraitsINS_12AtomicStringEEENS2_INS_6StringEEEEENS_16AtomicStringHashENS_18PartitionAllocatorEE9TranslateINS_12KeyValuePairIS3_S5_EERA9_KcRA459_SE_EEvRT_OT0_OT1_(%"struct.WTF::KeyValuePair.7"* dereferenceable(16), [9 x i8]* dereferenceable(9), [459 x i8]* dereferenceable(459)) local_unnamed_addr #0 comdat align 2 {
  %4 = alloca %"class.WTF::AtomicString", align 8
  %5 = bitcast %"class.WTF::AtomicString"* %4 to i8*
  call void @llvm.lifetime.start.p0i8(i64 8, i8* nonnull %5) #9
  %6 = getelementptr inbounds [9 x i8], [9 x i8]* %1, i64 0, i64 0
  %7 = icmp eq [9 x i8]* %1, null
  br i1 %7, label %10, label %8

8:                                                ; preds = %3
  %9 = tail call i64 @strlen(i8* nonnull %6) #10
  br label %10

10:                                               ; preds = %3, %8
  %11 = phi i64 [ %9, %8 ], [ 0, %3 ]
  call void @_ZN3WTF12AtomicStringC2EPKhm(%"class.WTF::AtomicString"* nonnull %4, i8* %6, i64 %11) #9
  %12 = getelementptr inbounds %"class.WTF::AtomicString", %"class.WTF::AtomicString"* %4, i64 0, i32 0, i32 0, i32 0
  %13 = bitcast %"class.WTF::AtomicString"* %4 to i64*
  %14 = load i64, i64* %13, align 8
  store %"class.WTF::StringImpl"* null, %"class.WTF::StringImpl"** %12, align 8
  %15 = bitcast %"struct.WTF::KeyValuePair.7"* %0 to i64*
  %16 = getelementptr inbounds %"struct.WTF::KeyValuePair.7", %"struct.WTF::KeyValuePair.7"* %0, i64 0, i32 0, i32 0, i32 0, i32 0
  %17 = load %"class.WTF::StringImpl"*, %"class.WTF::StringImpl"** %16, align 8
  store i64 %14, i64* %15, align 8
  %18 = icmp eq %"class.WTF::StringImpl"* %17, null
  br i1 %18, label %32, label %19

19:                                               ; preds = %10
  %20 = getelementptr inbounds %"class.WTF::StringImpl", %"class.WTF::StringImpl"* %17, i64 0, i32 2, i32 0, i32 0, i32 0, i32 0, i32 0
  %21 = load atomic i32, i32* %20 monotonic, align 4
  %22 = and i32 %21, 2
  %23 = icmp eq i32 %22, 0
  %24 = getelementptr inbounds %"class.WTF::StringImpl", %"class.WTF::StringImpl"* %17, i64 0, i32 0
  %25 = load i32, i32* %24, align 4
  br i1 %23, label %26, label %28

26:                                               ; preds = %19
  %27 = add i32 %25, -1
  store i32 %27, i32* %24, align 4
  br label %28

28:                                               ; preds = %26, %19
  %29 = phi i32 [ %27, %26 ], [ %25, %19 ]
  %30 = icmp eq i32 %29, 0
  br i1 %30, label %31, label %32

31:                                               ; preds = %28
  call void @_ZNK3WTF10StringImpl18DestroyIfNotStaticEv(%"class.WTF::StringImpl"* nonnull %17) #9
  br label %32

32:                                               ; preds = %10, %28, %31
  %33 = load %"class.WTF::StringImpl"*, %"class.WTF::StringImpl"** %12, align 8
  %34 = icmp eq %"class.WTF::StringImpl"* %33, null
  br i1 %34, label %48, label %35

35:                                               ; preds = %32
  %36 = getelementptr inbounds %"class.WTF::StringImpl", %"class.WTF::StringImpl"* %33, i64 0, i32 2, i32 0, i32 0, i32 0, i32 0, i32 0
  %37 = load atomic i32, i32* %36 monotonic, align 4
  %38 = and i32 %37, 2
  %39 = icmp eq i32 %38, 0
  %40 = getelementptr inbounds %"class.WTF::StringImpl", %"class.WTF::StringImpl"* %33, i64 0, i32 0
  %41 = load i32, i32* %40, align 4
  br i1 %39, label %42, label %44

42:                                               ; preds = %35
  %43 = add i32 %41, -1
  store i32 %43, i32* %40, align 4
  br label %44

44:                                               ; preds = %42, %35
  %45 = phi i32 [ %43, %42 ], [ %41, %35 ]
  %46 = icmp eq i32 %45, 0
  br i1 %46, label %47, label %48

47:                                               ; preds = %44
  call void @_ZNK3WTF10StringImpl18DestroyIfNotStaticEv(%"class.WTF::StringImpl"* nonnull %33) #9
  br label %48

48:                                               ; preds = %32, %44, %47
  call void @llvm.lifetime.end.p0i8(i64 8, i8* nonnull %5) #9
  %49 = getelementptr inbounds %"struct.WTF::KeyValuePair.7", %"struct.WTF::KeyValuePair.7"* %0, i64 0, i32 1
  call void @_ZN3WTF17GenericHashTraitsINS_6StringEE5StoreIRA459_KcEEvOT_RS1_([459 x i8]* dereferenceable(459) %2, %"class.WTF::String"* dereferenceable(8) %49)
  ret void
}

; Function Attrs: nounwind ssp uwtable
define linkonce_odr hidden { %"struct.WTF::KeyValuePair.7"*, i8 } @_ZN3WTF9HashTableINS_12AtomicStringENS_12KeyValuePairIS1_NS_6StringEEENS_24KeyValuePairKeyExtractorENS_16AtomicStringHashENS_18HashMapValueTraitsINS_10HashTraitsIS1_EENS8_IS3_EEEES9_NS_18PartitionAllocatorEE6insertINS_17HashMapTranslatorISB_S6_SC_EERA9_KcRA109_SH_EENS_18HashTableAddResultISD_S4_EEOT0_OT1_(%"class.WTF::HashTable.5"*, [9 x i8]* dereferenceable(9), [109 x i8]* dereferenceable(109)) local_unnamed_addr #0 comdat align 2 {
  %4 = alloca %"class.WTF::AtomicString", align 8
  %5 = alloca %"class.WTF::AtomicString", align 8
  %6 = getelementptr inbounds %"class.WTF::HashTable.5", %"class.WTF::HashTable.5"* %0, i64 0, i32 0
  %7 = load %"struct.WTF::KeyValuePair.7"*, %"struct.WTF::KeyValuePair.7"** %6, align 8
  %8 = icmp eq %"struct.WTF::KeyValuePair.7"* %7, null
  br i1 %8, label %9, label %12

9:                                                ; preds = %3
  %10 = tail call %"struct.WTF::KeyValuePair.7"* @_ZN3WTF9HashTableINS_12AtomicStringENS_12KeyValuePairIS1_NS_6StringEEENS_24KeyValuePairKeyExtractorENS_16AtomicStringHashENS_18HashMapValueTraitsINS_10HashTraitsIS1_EENS8_IS3_EEEES9_NS_18PartitionAllocatorEE6ExpandEPS4_(%"class.WTF::HashTable.5"* %0, %"struct.WTF::KeyValuePair.7"* null)
  %11 = load %"struct.WTF::KeyValuePair.7"*, %"struct.WTF::KeyValuePair.7"** %6, align 8
  br label %12

12:                                               ; preds = %3, %9
  %13 = phi %"struct.WTF::KeyValuePair.7"* [ %7, %3 ], [ %11, %9 ]
  %14 = getelementptr inbounds %"class.WTF::HashTable.5", %"class.WTF::HashTable.5"* %0, i64 0, i32 1
  %15 = load i32, i32* %14, align 8
  %16 = add i32 %15, -1
  %17 = zext i32 %16 to i64
  %18 = bitcast %"class.WTF::AtomicString"* %5 to i8*
  call void @llvm.lifetime.start.p0i8(i64 8, i8* nonnull %18) #9
  %19 = getelementptr inbounds [9 x i8], [9 x i8]* %1, i64 0, i64 0
  %20 = icmp eq [9 x i8]* %1, null
  br i1 %20, label %23, label %21

21:                                               ; preds = %12
  %22 = tail call i64 @strlen(i8* nonnull %19) #10
  br label %23

23:                                               ; preds = %21, %12
  %24 = phi i64 [ %22, %21 ], [ 0, %12 ]
  call void @_ZN3WTF12AtomicStringC2EPKhm(%"class.WTF::AtomicString"* nonnull %5, i8* %19, i64 %24) #9
  %25 = getelementptr inbounds %"class.WTF::AtomicString", %"class.WTF::AtomicString"* %5, i64 0, i32 0, i32 0, i32 0
  %26 = load %"class.WTF::StringImpl"*, %"class.WTF::StringImpl"** %25, align 8
  %27 = getelementptr inbounds %"class.WTF::StringImpl", %"class.WTF::StringImpl"* %26, i64 0, i32 2, i32 0, i32 0, i32 0, i32 0, i32 0
  %28 = load atomic i32, i32* %27 monotonic, align 4
  %29 = lshr i32 %28, 8
  %30 = icmp eq %"class.WTF::StringImpl"* %26, null
  br i1 %30, label %43, label %31

31:                                               ; preds = %23
  %32 = load atomic i32, i32* %27 monotonic, align 4
  %33 = and i32 %32, 2
  %34 = icmp eq i32 %33, 0
  %35 = getelementptr inbounds %"class.WTF::StringImpl", %"class.WTF::StringImpl"* %26, i64 0, i32 0
  %36 = load i32, i32* %35, align 4
  br i1 %34, label %37, label %39

37:                                               ; preds = %31
  %38 = add i32 %36, -1
  store i32 %38, i32* %35, align 4
  br label %39

39:                                               ; preds = %37, %31
  %40 = phi i32 [ %38, %37 ], [ %36, %31 ]
  %41 = icmp eq i32 %40, 0
  br i1 %41, label %42, label %43

42:                                               ; preds = %39
  call void @_ZNK3WTF10StringImpl18DestroyIfNotStaticEv(%"class.WTF::StringImpl"* nonnull %26) #9
  br label %43

43:                                               ; preds = %23, %39, %42
  call void @llvm.lifetime.end.p0i8(i64 8, i8* nonnull %18) #9
  %44 = and i32 %29, %16
  %45 = zext i32 %44 to i64
  %46 = getelementptr inbounds %"struct.WTF::KeyValuePair.7", %"struct.WTF::KeyValuePair.7"* %13, i64 %45
  %47 = getelementptr inbounds %"struct.WTF::KeyValuePair.7", %"struct.WTF::KeyValuePair.7"* %46, i64 0, i32 0, i32 0, i32 0, i32 0
  %48 = load %"class.WTF::StringImpl"*, %"class.WTF::StringImpl"** %47, align 8
  %49 = icmp eq %"class.WTF::StringImpl"* %48, null
  br i1 %49, label %118, label %50

50:                                               ; preds = %43
  %51 = bitcast %"class.WTF::AtomicString"* %4 to i8*
  %52 = getelementptr inbounds %"class.WTF::AtomicString", %"class.WTF::AtomicString"* %4, i64 0, i32 0, i32 0, i32 0
  %53 = xor i32 %29, -1
  %54 = lshr i32 %28, 31
  %55 = add nsw i32 %54, %53
  %56 = shl i32 %55, 12
  %57 = xor i32 %56, %55
  %58 = lshr i32 %57, 7
  %59 = xor i32 %58, %57
  %60 = shl i32 %59, 2
  %61 = xor i32 %60, %59
  %62 = lshr i32 %61, 20
  %63 = xor i32 %62, %61
  %64 = or i32 %63, 1
  %65 = zext i32 %64 to i64
  br label %66

66:                                               ; preds = %50, %98
  %67 = phi %"struct.WTF::KeyValuePair.7"* [ %46, %50 ], [ %104, %98 ]
  %68 = phi %"struct.WTF::KeyValuePair.7"* [ null, %50 ], [ %99, %98 ]
  %69 = phi i64 [ %45, %50 ], [ %103, %98 ]
  %70 = phi i64 [ 0, %50 ], [ %101, %98 ]
  %71 = bitcast %"struct.WTF::KeyValuePair.7"* %67 to i8**
  %72 = load i8*, i8** %71, align 8
  %73 = icmp eq i8* %72, inttoptr (i64 -1 to i8*)
  br i1 %73, label %98, label %74

74:                                               ; preds = %66
  call void @llvm.lifetime.start.p0i8(i64 8, i8* nonnull %51) #9
  br i1 %20, label %77, label %75

75:                                               ; preds = %74
  %76 = call i64 @strlen(i8* nonnull %19) #10
  br label %77

77:                                               ; preds = %75, %74
  %78 = phi i64 [ %76, %75 ], [ 0, %74 ]
  call void @_ZN3WTF12AtomicStringC2EPKhm(%"class.WTF::AtomicString"* nonnull %4, i8* %19, i64 %78) #9
  %79 = getelementptr inbounds %"struct.WTF::KeyValuePair.7", %"struct.WTF::KeyValuePair.7"* %67, i64 0, i32 0, i32 0, i32 0, i32 0
  %80 = load %"class.WTF::StringImpl"*, %"class.WTF::StringImpl"** %79, align 8
  %81 = load %"class.WTF::StringImpl"*, %"class.WTF::StringImpl"** %52, align 8
  %82 = icmp eq %"class.WTF::StringImpl"* %80, %81
  %83 = icmp eq %"class.WTF::StringImpl"* %81, null
  br i1 %83, label %97, label %84

84:                                               ; preds = %77
  %85 = getelementptr inbounds %"class.WTF::StringImpl", %"class.WTF::StringImpl"* %81, i64 0, i32 2, i32 0, i32 0, i32 0, i32 0, i32 0
  %86 = load atomic i32, i32* %85 monotonic, align 4
  %87 = and i32 %86, 2
  %88 = icmp eq i32 %87, 0
  %89 = getelementptr inbounds %"class.WTF::StringImpl", %"class.WTF::StringImpl"* %81, i64 0, i32 0
  %90 = load i32, i32* %89, align 4
  br i1 %88, label %91, label %93

91:                                               ; preds = %84
  %92 = add i32 %90, -1
  store i32 %92, i32* %89, align 4
  br label %93

93:                                               ; preds = %91, %84
  %94 = phi i32 [ %92, %91 ], [ %90, %84 ]
  %95 = icmp eq i32 %94, 0
  br i1 %95, label %96, label %97

96:                                               ; preds = %93
  call void @_ZNK3WTF10StringImpl18DestroyIfNotStaticEv(%"class.WTF::StringImpl"* nonnull %81) #9
  br label %97

97:                                               ; preds = %77, %93, %96
  call void @llvm.lifetime.end.p0i8(i64 8, i8* nonnull %51) #9
  br i1 %82, label %131, label %98

98:                                               ; preds = %66, %97
  %99 = phi %"struct.WTF::KeyValuePair.7"* [ %68, %97 ], [ %67, %66 ]
  %100 = icmp eq i64 %70, 0
  %101 = select i1 %100, i64 %65, i64 %70
  %102 = add i64 %101, %69
  %103 = and i64 %102, %17
  %104 = getelementptr inbounds %"struct.WTF::KeyValuePair.7", %"struct.WTF::KeyValuePair.7"* %13, i64 %103
  %105 = getelementptr inbounds %"struct.WTF::KeyValuePair.7", %"struct.WTF::KeyValuePair.7"* %104, i64 0, i32 0, i32 0, i32 0, i32 0
  %106 = load %"class.WTF::StringImpl"*, %"class.WTF::StringImpl"** %105, align 8
  %107 = icmp eq %"class.WTF::StringImpl"* %106, null
  br i1 %107, label %108, label %66

108:                                              ; preds = %98
  %109 = icmp eq %"struct.WTF::KeyValuePair.7"* %99, null
  br i1 %109, label %118, label %110

110:                                              ; preds = %108
  %111 = bitcast %"struct.WTF::KeyValuePair.7"* %99 to i8*
  call void @llvm.memset.p0i8.i64(i8* nonnull align 8 %111, i8 0, i64 16, i1 false) #9
  %112 = getelementptr inbounds %"class.WTF::HashTable.5", %"class.WTF::HashTable.5"* %0, i64 0, i32 3
  %113 = load i32, i32* %112, align 8
  %114 = add i32 %113, 2147483647
  %115 = and i32 %114, 2147483647
  %116 = and i32 %113, -2147483648
  %117 = or i32 %115, %116
  store i32 %117, i32* %112, align 8
  br label %118

118:                                              ; preds = %43, %108, %110
  %119 = phi %"struct.WTF::KeyValuePair.7"* [ %99, %110 ], [ %104, %108 ], [ %46, %43 ]
  call void @_ZN3WTF17HashMapTranslatorINS_18HashMapValueTraitsINS_10HashTraitsINS_12AtomicStringEEENS2_INS_6StringEEEEENS_16AtomicStringHashENS_18PartitionAllocatorEE9TranslateINS_12KeyValuePairIS3_S5_EERA9_KcRA109_SE_EEvRT_OT0_OT1_(%"struct.WTF::KeyValuePair.7"* dereferenceable(16) %119, [9 x i8]* dereferenceable(9) %1, [109 x i8]* dereferenceable(109) %2)
  %120 = getelementptr inbounds %"class.WTF::HashTable.5", %"class.WTF::HashTable.5"* %0, i64 0, i32 2
  %121 = load i32, i32* %120, align 4
  %122 = add i32 %121, 1
  store i32 %122, i32* %120, align 4
  %123 = getelementptr inbounds %"class.WTF::HashTable.5", %"class.WTF::HashTable.5"* %0, i64 0, i32 3
  %124 = load i32, i32* %123, align 8
  %125 = add i32 %124, %122
  %126 = shl i32 %125, 1
  %127 = load i32, i32* %14, align 8
  %128 = icmp ult i32 %126, %127
  br i1 %128, label %131, label %129

129:                                              ; preds = %118
  %130 = call %"struct.WTF::KeyValuePair.7"* @_ZN3WTF9HashTableINS_12AtomicStringENS_12KeyValuePairIS1_NS_6StringEEENS_24KeyValuePairKeyExtractorENS_16AtomicStringHashENS_18HashMapValueTraitsINS_10HashTraitsIS1_EENS8_IS3_EEEES9_NS_18PartitionAllocatorEE6ExpandEPS4_(%"class.WTF::HashTable.5"* %0, %"struct.WTF::KeyValuePair.7"* %119)
  br label %131

131:                                              ; preds = %97, %118, %129
  %132 = phi i8 [ 1, %118 ], [ 1, %129 ], [ 0, %97 ]
  %133 = phi %"struct.WTF::KeyValuePair.7"* [ %119, %118 ], [ %130, %129 ], [ %67, %97 ]
  %134 = insertvalue { %"struct.WTF::KeyValuePair.7"*, i8 } undef, %"struct.WTF::KeyValuePair.7"* %133, 0
  %135 = insertvalue { %"struct.WTF::KeyValuePair.7"*, i8 } %134, i8 %132, 1
  ret { %"struct.WTF::KeyValuePair.7"*, i8 } %135
}

; Function Attrs: nounwind ssp uwtable
define linkonce_odr hidden void @_ZN3WTF17HashMapTranslatorINS_18HashMapValueTraitsINS_10HashTraitsINS_12AtomicStringEEENS2_INS_6StringEEEEENS_16AtomicStringHashENS_18PartitionAllocatorEE9TranslateINS_12KeyValuePairIS3_S5_EERA9_KcRA109_SE_EEvRT_OT0_OT1_(%"struct.WTF::KeyValuePair.7"* dereferenceable(16), [9 x i8]* dereferenceable(9), [109 x i8]* dereferenceable(109)) local_unnamed_addr #0 comdat align 2 {
  %4 = alloca %"class.WTF::AtomicString", align 8
  %5 = bitcast %"class.WTF::AtomicString"* %4 to i8*
  call void @llvm.lifetime.start.p0i8(i64 8, i8* nonnull %5) #9
  %6 = getelementptr inbounds [9 x i8], [9 x i8]* %1, i64 0, i64 0
  %7 = icmp eq [9 x i8]* %1, null
  br i1 %7, label %10, label %8

8:                                                ; preds = %3
  %9 = tail call i64 @strlen(i8* nonnull %6) #10
  br label %10

10:                                               ; preds = %3, %8
  %11 = phi i64 [ %9, %8 ], [ 0, %3 ]
  call void @_ZN3WTF12AtomicStringC2EPKhm(%"class.WTF::AtomicString"* nonnull %4, i8* %6, i64 %11) #9
  %12 = getelementptr inbounds %"class.WTF::AtomicString", %"class.WTF::AtomicString"* %4, i64 0, i32 0, i32 0, i32 0
  %13 = bitcast %"class.WTF::AtomicString"* %4 to i64*
  %14 = load i64, i64* %13, align 8
  store %"class.WTF::StringImpl"* null, %"class.WTF::StringImpl"** %12, align 8
  %15 = bitcast %"struct.WTF::KeyValuePair.7"* %0 to i64*
  %16 = getelementptr inbounds %"struct.WTF::KeyValuePair.7", %"struct.WTF::KeyValuePair.7"* %0, i64 0, i32 0, i32 0, i32 0, i32 0
  %17 = load %"class.WTF::StringImpl"*, %"class.WTF::StringImpl"** %16, align 8
  store i64 %14, i64* %15, align 8
  %18 = icmp eq %"class.WTF::StringImpl"* %17, null
  br i1 %18, label %32, label %19

19:                                               ; preds = %10
  %20 = getelementptr inbounds %"class.WTF::StringImpl", %"class.WTF::StringImpl"* %17, i64 0, i32 2, i32 0, i32 0, i32 0, i32 0, i32 0
  %21 = load atomic i32, i32* %20 monotonic, align 4
  %22 = and i32 %21, 2
  %23 = icmp eq i32 %22, 0
  %24 = getelementptr inbounds %"class.WTF::StringImpl", %"class.WTF::StringImpl"* %17, i64 0, i32 0
  %25 = load i32, i32* %24, align 4
  br i1 %23, label %26, label %28

26:                                               ; preds = %19
  %27 = add i32 %25, -1
  store i32 %27, i32* %24, align 4
  br label %28

28:                                               ; preds = %26, %19
  %29 = phi i32 [ %27, %26 ], [ %25, %19 ]
  %30 = icmp eq i32 %29, 0
  br i1 %30, label %31, label %32

31:                                               ; preds = %28
  call void @_ZNK3WTF10StringImpl18DestroyIfNotStaticEv(%"class.WTF::StringImpl"* nonnull %17) #9
  br label %32

32:                                               ; preds = %10, %28, %31
  %33 = load %"class.WTF::StringImpl"*, %"class.WTF::StringImpl"** %12, align 8
  %34 = icmp eq %"class.WTF::StringImpl"* %33, null
  br i1 %34, label %48, label %35

35:                                               ; preds = %32
  %36 = getelementptr inbounds %"class.WTF::StringImpl", %"class.WTF::StringImpl"* %33, i64 0, i32 2, i32 0, i32 0, i32 0, i32 0, i32 0
  %37 = load atomic i32, i32* %36 monotonic, align 4
  %38 = and i32 %37, 2
  %39 = icmp eq i32 %38, 0
  %40 = getelementptr inbounds %"class.WTF::StringImpl", %"class.WTF::StringImpl"* %33, i64 0, i32 0
  %41 = load i32, i32* %40, align 4
  br i1 %39, label %42, label %44

42:                                               ; preds = %35
  %43 = add i32 %41, -1
  store i32 %43, i32* %40, align 4
  br label %44

44:                                               ; preds = %42, %35
  %45 = phi i32 [ %43, %42 ], [ %41, %35 ]
  %46 = icmp eq i32 %45, 0
  br i1 %46, label %47, label %48

47:                                               ; preds = %44
  call void @_ZNK3WTF10StringImpl18DestroyIfNotStaticEv(%"class.WTF::StringImpl"* nonnull %33) #9
  br label %48

48:                                               ; preds = %32, %44, %47
  call void @llvm.lifetime.end.p0i8(i64 8, i8* nonnull %5) #9
  %49 = getelementptr inbounds %"struct.WTF::KeyValuePair.7", %"struct.WTF::KeyValuePair.7"* %0, i64 0, i32 1
  call void @_ZN3WTF17GenericHashTraitsINS_6StringEE5StoreIRA109_KcEEvOT_RS1_([109 x i8]* dereferenceable(109) %2, %"class.WTF::String"* dereferenceable(8) %49)
  ret void
}

; Function Attrs: nounwind ssp uwtable
define linkonce_odr hidden void @_ZN3WTF17GenericHashTraitsINS_6StringEE5StoreIRA55_KcEEvOT_RS1_([55 x i8]* dereferenceable(55), %"class.WTF::String"* dereferenceable(8)) local_unnamed_addr #0 comdat align 2 {
  %3 = alloca %"class.WTF::String", align 8
  %4 = bitcast %"class.WTF::String"* %3 to i8*
  call void @llvm.lifetime.start.p0i8(i64 8, i8* nonnull %4) #9
  %5 = getelementptr inbounds [55 x i8], [55 x i8]* %0, i64 0, i64 0
  %6 = icmp eq [55 x i8]* %0, null
  br i1 %6, label %9, label %7

7:                                                ; preds = %2
  %8 = tail call i64 @strlen(i8* nonnull %5) #10
  br label %9

9:                                                ; preds = %2, %7
  %10 = phi i64 [ %8, %7 ], [ 0, %2 ]
  call void @_ZN3WTF6StringC2EPKcm(%"class.WTF::String"* nonnull %3, i8* %5, i64 %10) #9
  %11 = getelementptr inbounds %"class.WTF::String", %"class.WTF::String"* %3, i64 0, i32 0, i32 0
  %12 = bitcast %"class.WTF::String"* %3 to i64*
  %13 = load i64, i64* %12, align 8
  store %"class.WTF::StringImpl"* null, %"class.WTF::StringImpl"** %11, align 8
  %14 = bitcast %"class.WTF::String"* %1 to i64*
  %15 = getelementptr inbounds %"class.WTF::String", %"class.WTF::String"* %1, i64 0, i32 0, i32 0
  %16 = load %"class.WTF::StringImpl"*, %"class.WTF::StringImpl"** %15, align 8
  store i64 %13, i64* %14, align 8
  %17 = icmp eq %"class.WTF::StringImpl"* %16, null
  br i1 %17, label %31, label %18

18:                                               ; preds = %9
  %19 = getelementptr inbounds %"class.WTF::StringImpl", %"class.WTF::StringImpl"* %16, i64 0, i32 2, i32 0, i32 0, i32 0, i32 0, i32 0
  %20 = load atomic i32, i32* %19 monotonic, align 4
  %21 = and i32 %20, 2
  %22 = icmp eq i32 %21, 0
  %23 = getelementptr inbounds %"class.WTF::StringImpl", %"class.WTF::StringImpl"* %16, i64 0, i32 0
  %24 = load i32, i32* %23, align 4
  br i1 %22, label %25, label %27

25:                                               ; preds = %18
  %26 = add i32 %24, -1
  store i32 %26, i32* %23, align 4
  br label %27

27:                                               ; preds = %25, %18
  %28 = phi i32 [ %26, %25 ], [ %24, %18 ]
  %29 = icmp eq i32 %28, 0
  br i1 %29, label %30, label %31

30:                                               ; preds = %27
  call void @_ZNK3WTF10StringImpl18DestroyIfNotStaticEv(%"class.WTF::StringImpl"* nonnull %16) #9
  br label %31

31:                                               ; preds = %9, %27, %30
  %32 = load %"class.WTF::StringImpl"*, %"class.WTF::StringImpl"** %11, align 8
  %33 = icmp eq %"class.WTF::StringImpl"* %32, null
  br i1 %33, label %47, label %34

34:                                               ; preds = %31
  %35 = getelementptr inbounds %"class.WTF::StringImpl", %"class.WTF::StringImpl"* %32, i64 0, i32 2, i32 0, i32 0, i32 0, i32 0, i32 0
  %36 = load atomic i32, i32* %35 monotonic, align 4
  %37 = and i32 %36, 2
  %38 = icmp eq i32 %37, 0
  %39 = getelementptr inbounds %"class.WTF::StringImpl", %"class.WTF::StringImpl"* %32, i64 0, i32 0
  %40 = load i32, i32* %39, align 4
  br i1 %38, label %41, label %43

41:                                               ; preds = %34
  %42 = add i32 %40, -1
  store i32 %42, i32* %39, align 4
  br label %43

43:                                               ; preds = %41, %34
  %44 = phi i32 [ %42, %41 ], [ %40, %34 ]
  %45 = icmp eq i32 %44, 0
  br i1 %45, label %46, label %47

46:                                               ; preds = %43
  call void @_ZNK3WTF10StringImpl18DestroyIfNotStaticEv(%"class.WTF::StringImpl"* nonnull %32) #9
  br label %47

47:                                               ; preds = %31, %43, %46
  call void @llvm.lifetime.end.p0i8(i64 8, i8* nonnull %4) #9
  ret void
}

; Function Attrs: nounwind ssp uwtable
define linkonce_odr hidden { %"struct.WTF::KeyValuePair.7"*, i8 } @_ZN3WTF9HashTableINS_12AtomicStringENS_12KeyValuePairIS1_NS_6StringEEENS_24KeyValuePairKeyExtractorENS_16AtomicStringHashENS_18HashMapValueTraitsINS_10HashTraitsIS1_EENS8_IS3_EEEES9_NS_18PartitionAllocatorEE6insertINS_17HashMapTranslatorISB_S6_SC_EERA7_KcRA55_SH_EENS_18HashTableAddResultISD_S4_EEOT0_OT1_(%"class.WTF::HashTable.5"*, [7 x i8]* dereferenceable(7), [55 x i8]* dereferenceable(55)) local_unnamed_addr #0 comdat align 2 {
  %4 = alloca %"class.WTF::AtomicString", align 8
  %5 = alloca %"class.WTF::AtomicString", align 8
  %6 = getelementptr inbounds %"class.WTF::HashTable.5", %"class.WTF::HashTable.5"* %0, i64 0, i32 0
  %7 = load %"struct.WTF::KeyValuePair.7"*, %"struct.WTF::KeyValuePair.7"** %6, align 8
  %8 = icmp eq %"struct.WTF::KeyValuePair.7"* %7, null
  br i1 %8, label %9, label %12

9:                                                ; preds = %3
  %10 = tail call %"struct.WTF::KeyValuePair.7"* @_ZN3WTF9HashTableINS_12AtomicStringENS_12KeyValuePairIS1_NS_6StringEEENS_24KeyValuePairKeyExtractorENS_16AtomicStringHashENS_18HashMapValueTraitsINS_10HashTraitsIS1_EENS8_IS3_EEEES9_NS_18PartitionAllocatorEE6ExpandEPS4_(%"class.WTF::HashTable.5"* %0, %"struct.WTF::KeyValuePair.7"* null)
  %11 = load %"struct.WTF::KeyValuePair.7"*, %"struct.WTF::KeyValuePair.7"** %6, align 8
  br label %12

12:                                               ; preds = %3, %9
  %13 = phi %"struct.WTF::KeyValuePair.7"* [ %7, %3 ], [ %11, %9 ]
  %14 = getelementptr inbounds %"class.WTF::HashTable.5", %"class.WTF::HashTable.5"* %0, i64 0, i32 1
  %15 = load i32, i32* %14, align 8
  %16 = add i32 %15, -1
  %17 = zext i32 %16 to i64
  %18 = bitcast %"class.WTF::AtomicString"* %5 to i8*
  call void @llvm.lifetime.start.p0i8(i64 8, i8* nonnull %18) #9
  %19 = getelementptr inbounds [7 x i8], [7 x i8]* %1, i64 0, i64 0
  %20 = icmp eq [7 x i8]* %1, null
  br i1 %20, label %23, label %21

21:                                               ; preds = %12
  %22 = tail call i64 @strlen(i8* nonnull %19) #10
  br label %23

23:                                               ; preds = %21, %12
  %24 = phi i64 [ %22, %21 ], [ 0, %12 ]
  call void @_ZN3WTF12AtomicStringC2EPKhm(%"class.WTF::AtomicString"* nonnull %5, i8* %19, i64 %24) #9
  %25 = getelementptr inbounds %"class.WTF::AtomicString", %"class.WTF::AtomicString"* %5, i64 0, i32 0, i32 0, i32 0
  %26 = load %"class.WTF::StringImpl"*, %"class.WTF::StringImpl"** %25, align 8
  %27 = getelementptr inbounds %"class.WTF::StringImpl", %"class.WTF::StringImpl"* %26, i64 0, i32 2, i32 0, i32 0, i32 0, i32 0, i32 0
  %28 = load atomic i32, i32* %27 monotonic, align 4
  %29 = lshr i32 %28, 8
  %30 = icmp eq %"class.WTF::StringImpl"* %26, null
  br i1 %30, label %43, label %31

31:                                               ; preds = %23
  %32 = load atomic i32, i32* %27 monotonic, align 4
  %33 = and i32 %32, 2
  %34 = icmp eq i32 %33, 0
  %35 = getelementptr inbounds %"class.WTF::StringImpl", %"class.WTF::StringImpl"* %26, i64 0, i32 0
  %36 = load i32, i32* %35, align 4
  br i1 %34, label %37, label %39

37:                                               ; preds = %31
  %38 = add i32 %36, -1
  store i32 %38, i32* %35, align 4
  br label %39

39:                                               ; preds = %37, %31
  %40 = phi i32 [ %38, %37 ], [ %36, %31 ]
  %41 = icmp eq i32 %40, 0
  br i1 %41, label %42, label %43

42:                                               ; preds = %39
  call void @_ZNK3WTF10StringImpl18DestroyIfNotStaticEv(%"class.WTF::StringImpl"* nonnull %26) #9
  br label %43

43:                                               ; preds = %23, %39, %42
  call void @llvm.lifetime.end.p0i8(i64 8, i8* nonnull %18) #9
  %44 = and i32 %29, %16
  %45 = zext i32 %44 to i64
  %46 = getelementptr inbounds %"struct.WTF::KeyValuePair.7", %"struct.WTF::KeyValuePair.7"* %13, i64 %45
  %47 = getelementptr inbounds %"struct.WTF::KeyValuePair.7", %"struct.WTF::KeyValuePair.7"* %46, i64 0, i32 0, i32 0, i32 0, i32 0
  %48 = load %"class.WTF::StringImpl"*, %"class.WTF::StringImpl"** %47, align 8
  %49 = icmp eq %"class.WTF::StringImpl"* %48, null
  br i1 %49, label %118, label %50

50:                                               ; preds = %43
  %51 = bitcast %"class.WTF::AtomicString"* %4 to i8*
  %52 = getelementptr inbounds %"class.WTF::AtomicString", %"class.WTF::AtomicString"* %4, i64 0, i32 0, i32 0, i32 0
  %53 = xor i32 %29, -1
  %54 = lshr i32 %28, 31
  %55 = add nsw i32 %54, %53
  %56 = shl i32 %55, 12
  %57 = xor i32 %56, %55
  %58 = lshr i32 %57, 7
  %59 = xor i32 %58, %57
  %60 = shl i32 %59, 2
  %61 = xor i32 %60, %59
  %62 = lshr i32 %61, 20
  %63 = xor i32 %62, %61
  %64 = or i32 %63, 1
  %65 = zext i32 %64 to i64
  br label %66

66:                                               ; preds = %50, %98
  %67 = phi %"struct.WTF::KeyValuePair.7"* [ %46, %50 ], [ %104, %98 ]
  %68 = phi %"struct.WTF::KeyValuePair.7"* [ null, %50 ], [ %99, %98 ]
  %69 = phi i64 [ %45, %50 ], [ %103, %98 ]
  %70 = phi i64 [ 0, %50 ], [ %101, %98 ]
  %71 = bitcast %"struct.WTF::KeyValuePair.7"* %67 to i8**
  %72 = load i8*, i8** %71, align 8
  %73 = icmp eq i8* %72, inttoptr (i64 -1 to i8*)
  br i1 %73, label %98, label %74

74:                                               ; preds = %66
  call void @llvm.lifetime.start.p0i8(i64 8, i8* nonnull %51) #9
  br i1 %20, label %77, label %75

