; ModuleID = 'gen/services/metrics/public/cpp/ukm_builders.cc'
source_filename = "gen/services/metrics/public/cpp/ukm_builders.cc"
target datalayout = "e-m:e-i64:64-f80:128-n8:16:32:64-S128"
target triple = "x86_64-unknown-linux-gnu"

module asm ".symver exp, exp@GLIBC_2.2.5"
module asm ".symver exp2, exp2@GLIBC_2.2.5"
module asm ".symver exp2f, exp2f@GLIBC_2.2.5"
module asm ".symver expf, expf@GLIBC_2.2.5"
module asm ".symver lgamma, lgamma@GLIBC_2.2.5"
module asm ".symver lgammaf, lgammaf@GLIBC_2.2.5"
module asm ".symver lgammal, lgammal@GLIBC_2.2.5"
module asm ".symver log, log@GLIBC_2.2.5"
module asm ".symver log2, log2@GLIBC_2.2.5"
module asm ".symver log2f, log2f@GLIBC_2.2.5"
module asm ".symver logf, logf@GLIBC_2.2.5"
module asm ".symver pow, pow@GLIBC_2.2.5"
module asm ".symver powf, powf@GLIBC_2.2.5"

%"class.ukm::builders::AbusiveExperienceHeuristic" = type { %"class.ukm::internal::UkmEntryBuilderBase" }
%"class.ukm::internal::UkmEntryBuilderBase" = type { i32 (...)**, %"class.mojo::StructPtr" }
%"class.mojo::StructPtr" = type { %"class.std::__1::unique_ptr" }
%"class.std::__1::unique_ptr" = type { %"class.std::__1::__compressed_pair" }
%"class.std::__1::__compressed_pair" = type { %"struct.std::__1::__compressed_pair_elem" }
%"struct.std::__1::__compressed_pair_elem" = type { %"class.ukm::mojom::UkmEntry"* }
%"class.ukm::mojom::UkmEntry" = type { i64, i64, %"class.base::flat_map" }
%"class.base::flat_map" = type { %"class.base::internal::flat_tree" }
%"class.base::internal::flat_tree" = type { %"class.std::__1::vector" }
%"class.std::__1::vector" = type { %"class.std::__1::__vector_base" }
%"class.std::__1::__vector_base" = type { %"struct.std::__1::pair"*, %"struct.std::__1::pair"*, %"class.std::__1::__compressed_pair.0" }
%"struct.std::__1::pair" = type opaque
%"class.std::__1::__compressed_pair.0" = type { %"struct.std::__1::__compressed_pair_elem.1" }
%"struct.std::__1::__compressed_pair_elem.1" = type { %"struct.std::__1::pair"* }
%"class.ukm::builders::AbusiveExperienceHeuristic_JavaScriptDialog" = type { %"class.ukm::internal::UkmEntryBuilderBase" }
%"class.ukm::builders::AbusiveExperienceHeuristic_TabUnder" = type { %"class.ukm::internal::UkmEntryBuilderBase" }
%"class.ukm::builders::AbusiveExperienceHeuristic_WindowOpen" = type { %"class.ukm::internal::UkmEntryBuilderBase" }
%"class.ukm::builders::Accessibility_ImageDescriptions" = type { %"class.ukm::internal::UkmEntryBuilderBase" }
%"class.ukm::builders::Accessibility_Renderer" = type { %"class.ukm::internal::UkmEntryBuilderBase" }
%"class.ukm::builders::AdFrameLoad" = type { %"class.ukm::internal::UkmEntryBuilderBase" }
%"class.ukm::builders::AdPageLoad" = type { %"class.ukm::internal::UkmEntryBuilderBase" }
%"class.ukm::builders::AdsIntervention_LastIntervention" = type { %"class.ukm::internal::UkmEntryBuilderBase" }
%"class.ukm::builders::AmpPageLoad" = type { %"class.ukm::internal::UkmEntryBuilderBase" }
%"class.ukm::builders::Android_MultiWindowChangeActivity" = type { %"class.ukm::internal::UkmEntryBuilderBase" }
%"class.ukm::builders::Android_MultiWindowState" = type { %"class.ukm::internal::UkmEntryBuilderBase" }
%"class.ukm::builders::Android_ScreenRotation" = type { %"class.ukm::internal::UkmEntryBuilderBase" }
%"class.ukm::builders::Android_UserRequestedUserAgentChange" = type { %"class.ukm::internal::UkmEntryBuilderBase" }
%"class.ukm::builders::AppListAppClickData" = type { %"class.ukm::internal::UkmEntryBuilderBase" }
%"class.ukm::builders::AppListAppLaunch" = type { %"class.ukm::internal::UkmEntryBuilderBase" }
%"class.ukm::builders::Autofill_CardUploadDecision" = type { %"class.ukm::internal::UkmEntryBuilderBase" }
%"class.ukm::builders::Autofill_DeveloperEngagement" = type { %"class.ukm::internal::UkmEntryBuilderBase" }
%"class.ukm::builders::Autofill_EditedAutofilledFieldAtSubmission" = type { %"class.ukm::internal::UkmEntryBuilderBase" }
%"class.ukm::builders::Autofill_FieldFillStatus" = type { %"class.ukm::internal::UkmEntryBuilderBase" }
%"class.ukm::builders::Autofill_FieldTypeValidation" = type { %"class.ukm::internal::UkmEntryBuilderBase" }
%"class.ukm::builders::Autofill_FormEvent" = type { %"class.ukm::internal::UkmEntryBuilderBase" }
%"class.ukm::builders::Autofill_FormFillSuccessIOS" = type { %"class.ukm::internal::UkmEntryBuilderBase" }
%"class.ukm::builders::Autofill_FormSubmitted" = type { %"class.ukm::internal::UkmEntryBuilderBase" }
%"class.ukm::builders::Autofill_HiddenRepresentationalFieldSkipDecision" = type { %"class.ukm::internal::UkmEntryBuilderBase" }
%"class.ukm::builders::Autofill_InteractedWithForm" = type { %"class.ukm::internal::UkmEntryBuilderBase" }
%"class.ukm::builders::Autofill_RepeatedServerTypePredictionRationalized" = type { %"class.ukm::internal::UkmEntryBuilderBase" }
%"class.ukm::builders::Autofill_SuggestionFilled" = type { %"class.ukm::internal::UkmEntryBuilderBase" }
%"class.ukm::builders::Autofill_SuggestionsShown" = type { %"class.ukm::internal::UkmEntryBuilderBase" }
%"class.ukm::builders::Autofill_TextFieldDidChange" = type { %"class.ukm::internal::UkmEntryBuilderBase" }
%"class.ukm::builders::AutofillAssistant_InChromeTriggering" = type { %"class.ukm::internal::UkmEntryBuilderBase" }
%"class.ukm::builders::AutofillAssistant_LiteScriptFinished" = type { %"class.ukm::internal::UkmEntryBuilderBase" }
%"class.ukm::builders::AutofillAssistant_LiteScriptOnboarding" = type { %"class.ukm::internal::UkmEntryBuilderBase" }
%"class.ukm::builders::AutofillAssistant_LiteScriptShownToUser" = type { %"class.ukm::internal::UkmEntryBuilderBase" }
%"class.ukm::builders::AutofillAssistant_LiteScriptStarted" = type { %"class.ukm::internal::UkmEntryBuilderBase" }
%"class.ukm::builders::BackForwardCacheDisabledForRenderFrameHostReason" = type { %"class.ukm::internal::UkmEntryBuilderBase" }
%"class.ukm::builders::BackgroundFetch" = type { %"class.ukm::internal::UkmEntryBuilderBase" }
%"class.ukm::builders::BackgroundFetchDeletingRegistration" = type { %"class.ukm::internal::UkmEntryBuilderBase" }
%"class.ukm::builders::BackgroundSyncCompleted" = type { %"class.ukm::internal::UkmEntryBuilderBase" }
%"class.ukm::builders::BackgroundSyncRegistered" = type { %"class.ukm::internal::UkmEntryBuilderBase" }
%"class.ukm::builders::Badging" = type { %"class.ukm::internal::UkmEntryBuilderBase" }
%"class.ukm::builders::Blink_ContextMenu_ImageSelection" = type { %"class.ukm::internal::UkmEntryBuilderBase" }
%"class.ukm::builders::Blink_FindInPage" = type { %"class.ukm::internal::UkmEntryBuilderBase" }
%"class.ukm::builders::Blink_HTMLParsing" = type { %"class.ukm::internal::UkmEntryBuilderBase" }
%"class.ukm::builders::Blink_PageLoad" = type { %"class.ukm::internal::UkmEntryBuilderBase" }
%"class.ukm::builders::Blink_PaintTiming" = type { %"class.ukm::internal::UkmEntryBuilderBase" }
%"class.ukm::builders::Blink_Script_AsyncScripts" = type { %"class.ukm::internal::UkmEntryBuilderBase" }
%"class.ukm::builders::Blink_UpdateTime" = type { %"class.ukm::internal::UkmEntryBuilderBase" }
%"class.ukm::builders::Blink_UseCounter" = type { %"class.ukm::internal::UkmEntryBuilderBase" }
%"class.ukm::builders::ClickInput" = type { %"class.ukm::internal::UkmEntryBuilderBase" }
%"class.ukm::builders::ClientRenderingAPI" = type { %"class.ukm::internal::UkmEntryBuilderBase" }
%"class.ukm::builders::Compositor_Rendering" = type { %"class.ukm::internal::UkmEntryBuilderBase" }
%"class.ukm::builders::Compositor_UserInteraction" = type { %"class.ukm::internal::UkmEntryBuilderBase" }
%"class.ukm::builders::ContactsPicker_ShareStatistics" = type { %"class.ukm::internal::UkmEntryBuilderBase" }
%"class.ukm::builders::ContentIndex_Added" = type { %"class.ukm::internal::UkmEntryBuilderBase" }
%"class.ukm::builders::ContentIndex_DeletedByUser" = type { %"class.ukm::internal::UkmEntryBuilderBase" }
%"class.ukm::builders::ContentIndex_Opened" = type { %"class.ukm::internal::UkmEntryBuilderBase" }
%"class.ukm::builders::ContextMenuAndroid_Selected" = type { %"class.ukm::internal::UkmEntryBuilderBase" }
%"class.ukm::builders::ContextMenuAndroid_Shown" = type { %"class.ukm::internal::UkmEntryBuilderBase" }
%"class.ukm::builders::ContextualSearch" = type { %"class.ukm::internal::UkmEntryBuilderBase" }
%"class.ukm::builders::CPUUsageMeasurement" = type { %"class.ukm::internal::UkmEntryBuilderBase" }
%"class.ukm::builders::DataReductionProxy" = type { %"class.ukm::internal::UkmEntryBuilderBase" }
%"class.ukm::builders::DocumentCreated" = type { %"class.ukm::internal::UkmEntryBuilderBase" }
%"class.ukm::builders::Download_Completed" = type { %"class.ukm::internal::UkmEntryBuilderBase" }
%"class.ukm::builders::Download_Interrupted" = type { %"class.ukm::internal::UkmEntryBuilderBase" }
%"class.ukm::builders::Download_Resumed" = type { %"class.ukm::internal::UkmEntryBuilderBase" }
%"class.ukm::builders::Download_Started" = type { %"class.ukm::internal::UkmEntryBuilderBase" }
%"class.ukm::builders::Event_ScrollBegin_Touch" = type { %"class.ukm::internal::UkmEntryBuilderBase" }
%"class.ukm::builders::Event_ScrollBegin_Wheel" = type { %"class.ukm::internal::UkmEntryBuilderBase" }
%"class.ukm::builders::Event_ScrollUpdate_Touch" = type { %"class.ukm::internal::UkmEntryBuilderBase" }
%"class.ukm::builders::Event_ScrollUpdate_Wheel" = type { %"class.ukm::internal::UkmEntryBuilderBase" }
%"class.ukm::builders::Extensions_WebRequest_KeepaliveRequestFinished" = type { %"class.ukm::internal::UkmEntryBuilderBase" }
%"class.ukm::builders::FileSystemAPI_WebRequest" = type { %"class.ukm::internal::UkmEntryBuilderBase" }
%"class.ukm::builders::FlocPageLoad" = type { %"class.ukm::internal::UkmEntryBuilderBase" }
%"class.ukm::builders::FontMatchAttempts" = type { %"class.ukm::internal::UkmEntryBuilderBase" }
%"class.ukm::builders::GeneratedNavigation" = type { %"class.ukm::internal::UkmEntryBuilderBase" }
%"class.ukm::builders::GoogleDocsOfflineExtension" = type { %"class.ukm::internal::UkmEntryBuilderBase" }
%"class.ukm::builders::Graphics_Smoothness_EventLatency" = type { %"class.ukm::internal::UkmEntryBuilderBase" }
%"class.ukm::builders::Graphics_Smoothness_Latency" = type { %"class.ukm::internal::UkmEntryBuilderBase" }
%"class.ukm::builders::Graphics_Smoothness_NormalizedPercentDroppedFrames" = type { %"class.ukm::internal::UkmEntryBuilderBase" }
%"class.ukm::builders::Graphics_Smoothness_PercentDroppedFrames" = type { %"class.ukm::internal::UkmEntryBuilderBase" }
%"class.ukm::builders::HistoryManipulationIntervention" = type { %"class.ukm::internal::UkmEntryBuilderBase" }
%"class.ukm::builders::HistoryNavigation" = type { %"class.ukm::internal::UkmEntryBuilderBase" }
%"class.ukm::builders::Identifiability" = type { %"class.ukm::internal::UkmEntryBuilderBase" }
%"class.ukm::builders::InputEvent" = type { %"class.ukm::internal::UkmEntryBuilderBase" }
%"class.ukm::builders::InputMethod_NonCompliantApi" = type { %"class.ukm::internal::UkmEntryBuilderBase" }
%"class.ukm::builders::InstalledRelatedApps" = type { %"class.ukm::internal::UkmEntryBuilderBase" }
%"class.ukm::builders::Intervention_DocumentWrite_ScriptBlock" = type { %"class.ukm::internal::UkmEntryBuilderBase" }
%"class.ukm::builders::IOS_FindInPageSearchMatches" = type { %"class.ukm::internal::UkmEntryBuilderBase" }
%"class.ukm::builders::IOS_IsDefaultBrowser" = type { %"class.ukm::internal::UkmEntryBuilderBase" }
%"class.ukm::builders::IOS_PageAddedToReadingList" = type { %"class.ukm::internal::UkmEntryBuilderBase" }
%"class.ukm::builders::IOS_PageZoomChanged" = type { %"class.ukm::internal::UkmEntryBuilderBase" }
%"class.ukm::builders::IOS_RendererGone" = type { %"class.ukm::internal::UkmEntryBuilderBase" }
%"class.ukm::builders::IOS_URLMismatchInLegacyAndSlimNavigationManager" = type { %"class.ukm::internal::UkmEntryBuilderBase" }
%"class.ukm::builders::JavascriptFrameworkPageLoad" = type { %"class.ukm::internal::UkmEntryBuilderBase" }
%"class.ukm::builders::Layout_DisplayCutout_StateChanged" = type { %"class.ukm::internal::UkmEntryBuilderBase" }
%"class.ukm::builders::LiteVideo" = type { %"class.ukm::internal::UkmEntryBuilderBase" }
%"class.ukm::builders::LoadCountsPerTopLevelDocument" = type { %"class.ukm::internal::UkmEntryBuilderBase" }
%"class.ukm::builders::LoadingPredictor" = type { %"class.ukm::internal::UkmEntryBuilderBase" }
%"class.ukm::builders::LocalNetworkRequests" = type { %"class.ukm::internal::UkmEntryBuilderBase" }
%"class.ukm::builders::LoginDetection" = type { %"class.ukm::internal::UkmEntryBuilderBase" }
%"class.ukm::builders::LookalikeUrl_NavigationSuggestion" = type { %"class.ukm::internal::UkmEntryBuilderBase" }
%"class.ukm::builders::MainFrameNavigation" = type { %"class.ukm::internal::UkmEntryBuilderBase" }
%"class.ukm::builders::Media_Autoplay_Attempt" = type { %"class.ukm::internal::UkmEntryBuilderBase" }
%"class.ukm::builders::Media_Autoplay_AudioContext" = type { %"class.ukm::internal::UkmEntryBuilderBase" }
%"class.ukm::builders::Media_Autoplay_Muted_UnmuteAction" = type { %"class.ukm::internal::UkmEntryBuilderBase" }
%"class.ukm::builders::Media_BasicPlayback" = type { %"class.ukm::internal::UkmEntryBuilderBase" }
%"class.ukm::builders::Media_EME_ApiPromiseRejection" = type { %"class.ukm::internal::UkmEntryBuilderBase" }
%"class.ukm::builders::Media_EME_CreateMediaKeys" = type { %"class.ukm::internal::UkmEntryBuilderBase" }
%"class.ukm::builders::Media_EME_RequestMediaKeySystemAccess" = type { %"class.ukm::internal::UkmEntryBuilderBase" }
%"class.ukm::builders::Media_Engagement_SessionFinished" = type { %"class.ukm::internal::UkmEntryBuilderBase" }
%"class.ukm::builders::Media_Engagement_ShortPlaybackIgnored" = type { %"class.ukm::internal::UkmEntryBuilderBase" }
%"class.ukm::builders::Media_Feed_Discover" = type { %"class.ukm::internal::UkmEntryBuilderBase" }
%"class.ukm::builders::Media_GlobalMediaControls_ActionButtonPressed" = type { %"class.ukm::internal::UkmEntryBuilderBase" }
%"class.ukm::builders::Media_Kaleidoscope_Navigation" = type { %"class.ukm::internal::UkmEntryBuilderBase" }
%"class.ukm::builders::Media_Learning_PredictionRecord" = type { %"class.ukm::internal::UkmEntryBuilderBase" }
%"class.ukm::builders::Media_SiteMuted" = type { %"class.ukm::internal::UkmEntryBuilderBase" }
%"class.ukm::builders::Media_VideoDecodePerfRecord" = type { %"class.ukm::internal::UkmEntryBuilderBase" }
%"class.ukm::builders::Media_WebAudio_AudioContext_AudibleTime" = type { %"class.ukm::internal::UkmEntryBuilderBase" }
%"class.ukm::builders::Media_WebMediaPlayerState" = type { %"class.ukm::internal::UkmEntryBuilderBase" }
%"class.ukm::builders::MediaRouter_CastWebSenderExtensionLoadUrl" = type { %"class.ukm::internal::UkmEntryBuilderBase" }
%"class.ukm::builders::MediaRouter_SiteInitiatedMirroringStarted" = type { %"class.ukm::internal::UkmEntryBuilderBase" }
%"class.ukm::builders::MediaRouter_TabMirroringStarted" = type { %"class.ukm::internal::UkmEntryBuilderBase" }
%"class.ukm::builders::Memory_Experimental" = type { %"class.ukm::internal::UkmEntryBuilderBase" }
%"class.ukm::builders::Memory_TabFootprint" = type { %"class.ukm::internal::UkmEntryBuilderBase" }
%"class.ukm::builders::MixedContentAutoupgrade_ResourceRequest" = type { %"class.ukm::internal::UkmEntryBuilderBase" }
%"class.ukm::builders::MobileFriendliness" = type { %"class.ukm::internal::UkmEntryBuilderBase" }
%"class.ukm::builders::MobileMenu_DirectShare" = type { %"class.ukm::internal::UkmEntryBuilderBase" }
%"class.ukm::builders::MobileMenu_FindInPage" = type { %"class.ukm::internal::UkmEntryBuilderBase" }
%"class.ukm::builders::MobileMenu_Share" = type { %"class.ukm::internal::UkmEntryBuilderBase" }
%"class.ukm::builders::NavigationPredictorAnchorElementMetrics" = type { %"class.ukm::internal::UkmEntryBuilderBase" }
%"class.ukm::builders::NavigationPredictorPageLinkClick" = type { %"class.ukm::internal::UkmEntryBuilderBase" }
%"class.ukm::builders::NavigationPredictorPageLinkMetrics" = type { %"class.ukm::internal::UkmEntryBuilderBase" }
%"class.ukm::builders::NavigationTiming" = type { %"class.ukm::internal::UkmEntryBuilderBase" }
%"class.ukm::builders::Net_LegacyTLSVersion" = type { %"class.ukm::internal::UkmEntryBuilderBase" }
%"class.ukm::builders::NoStatePrefetch" = type { %"class.ukm::internal::UkmEntryBuilderBase" }
%"class.ukm::builders::Notification" = type { %"class.ukm::internal::UkmEntryBuilderBase" }
%"class.ukm::builders::OptimizationGuide" = type { %"class.ukm::internal::UkmEntryBuilderBase" }
%"class.ukm::builders::OptimizationGuideAutotuning" = type { %"class.ukm::internal::UkmEntryBuilderBase" }
%"class.ukm::builders::PageDomainInfo" = type { %"class.ukm::internal::UkmEntryBuilderBase" }
%"class.ukm::builders::PageForegroundSession" = type { %"class.ukm::internal::UkmEntryBuilderBase" }
%"class.ukm::builders::PageInfoBubble" = type { %"class.ukm::internal::UkmEntryBuilderBase" }
%"class.ukm::builders::PageLoad" = type { %"class.ukm::internal::UkmEntryBuilderBase" }
%"class.ukm::builders::PageLoad_FromGoogleSearch" = type { %"class.ukm::internal::UkmEntryBuilderBase" }
%"class.ukm::builders::PageLoad_Internal" = type { %"class.ukm::internal::UkmEntryBuilderBase" }
%"class.ukm::builders::PageLoad_ServiceWorkerControlled" = type { %"class.ukm::internal::UkmEntryBuilderBase" }
%"class.ukm::builders::PageLoad_SignedExchange" = type { %"class.ukm::internal::UkmEntryBuilderBase" }
%"class.ukm::builders::PageWithPassword" = type { %"class.ukm::internal::UkmEntryBuilderBase" }
%"class.ukm::builders::PaintPreviewCapture" = type { %"class.ukm::internal::UkmEntryBuilderBase" }
%"class.ukm::builders::PasswordForm" = type { %"class.ukm::internal::UkmEntryBuilderBase" }
%"class.ukm::builders::PasswordManager_WellKnownChangePasswordResult" = type { %"class.ukm::internal::UkmEntryBuilderBase" }
%"class.ukm::builders::PaymentApp_CheckoutEvents" = type { %"class.ukm::internal::UkmEntryBuilderBase" }
%"class.ukm::builders::PaymentRequest_CheckoutEvents" = type { %"class.ukm::internal::UkmEntryBuilderBase" }
%"class.ukm::builders::PaymentRequest_TransactionAmount" = type { %"class.ukm::internal::UkmEntryBuilderBase" }
%"class.ukm::builders::Pepper_Broker" = type { %"class.ukm::internal::UkmEntryBuilderBase" }
%"class.ukm::builders::PerfectHeuristics" = type { %"class.ukm::internal::UkmEntryBuilderBase" }
%"class.ukm::builders::PerformanceAPI_LongTask" = type { %"class.ukm::internal::UkmEntryBuilderBase" }
%"class.ukm::builders::PerformanceAPI_Memory" = type { %"class.ukm::internal::UkmEntryBuilderBase" }
%"class.ukm::builders::PerformanceAPI_Memory_Legacy" = type { %"class.ukm::internal::UkmEntryBuilderBase" }
%"class.ukm::builders::PeriodicBackgroundSyncEventCompleted" = type { %"class.ukm::internal::UkmEntryBuilderBase" }
%"class.ukm::builders::PeriodicBackgroundSyncRegistered" = type { %"class.ukm::internal::UkmEntryBuilderBase" }
%"class.ukm::builders::Permission" = type { %"class.ukm::internal::UkmEntryBuilderBase" }
%"class.ukm::builders::PermissionUsage" = type { %"class.ukm::internal::UkmEntryBuilderBase" }
%"class.ukm::builders::Plugins_FlashInstance" = type { %"class.ukm::internal::UkmEntryBuilderBase" }
%"class.ukm::builders::Popup_Closed" = type { %"class.ukm::internal::UkmEntryBuilderBase" }
%"class.ukm::builders::Popup_Page" = type { %"class.ukm::internal::UkmEntryBuilderBase" }
%"class.ukm::builders::Portal_Activate" = type { %"class.ukm::internal::UkmEntryBuilderBase" }
%"class.ukm::builders::PostMessage_Incoming_Frame" = type { %"class.ukm::internal::UkmEntryBuilderBase" }
%"class.ukm::builders::PostMessage_Incoming_Page" = type { %"class.ukm::internal::UkmEntryBuilderBase" }
%"class.ukm::builders::PowerUsageScenariosIntervalData" = type { %"class.ukm::internal::UkmEntryBuilderBase" }
%"class.ukm::builders::PrefetchProxy" = type { %"class.ukm::internal::UkmEntryBuilderBase" }
%"class.ukm::builders::PrefetchProxy_AfterSRPClick" = type { %"class.ukm::internal::UkmEntryBuilderBase" }
%"class.ukm::builders::PrefetchProxy_PrefetchedResource" = type { %"class.ukm::internal::UkmEntryBuilderBase" }
%"class.ukm::builders::Previews" = type { %"class.ukm::internal::UkmEntryBuilderBase" }
%"class.ukm::builders::PublicImageCompressionDataUse" = type { %"class.ukm::internal::UkmEntryBuilderBase" }
%"class.ukm::builders::PublicImageCompressionImageLoad" = type { %"class.ukm::internal::UkmEntryBuilderBase" }
%"class.ukm::builders::PWA_Visit" = type { %"class.ukm::internal::UkmEntryBuilderBase" }
%"class.ukm::builders::ReaderModeActivated" = type { %"class.ukm::internal::UkmEntryBuilderBase" }
%"class.ukm::builders::ReaderModeReceivedDistillability" = type { %"class.ukm::internal::UkmEntryBuilderBase" }
%"class.ukm::builders::RendererSchedulerTask" = type { %"class.ukm::internal::UkmEntryBuilderBase" }
%"class.ukm::builders::ResponsivenessMeasurement" = type { %"class.ukm::internal::UkmEntryBuilderBase" }
%"class.ukm::builders::SameSiteDifferentSchemeRequest" = type { %"class.ukm::internal::UkmEntryBuilderBase" }
%"class.ukm::builders::SameSiteDifferentSchemeResponse" = type { %"class.ukm::internal::UkmEntryBuilderBase" }
%"class.ukm::builders::SchemefulSameSiteContextDowngrade" = type { %"class.ukm::internal::UkmEntryBuilderBase" }
%"class.ukm::builders::ScreenBrightness" = type { %"class.ukm::internal::UkmEntryBuilderBase" }
%"class.ukm::builders::Security_SafetyTip" = type { %"class.ukm::internal::UkmEntryBuilderBase" }
%"class.ukm::builders::Security_SiteEngagement" = type { %"class.ukm::internal::UkmEntryBuilderBase" }
%"class.ukm::builders::SharedHighlights_LinkGenerated" = type { %"class.ukm::internal::UkmEntryBuilderBase" }
%"class.ukm::builders::SharedHighlights_LinkOpened" = type { %"class.ukm::internal::UkmEntryBuilderBase" }
%"class.ukm::builders::Sharing_ClickToCall" = type { %"class.ukm::internal::UkmEntryBuilderBase" }
%"class.ukm::builders::SmartCharging" = type { %"class.ukm::internal::UkmEntryBuilderBase" }
%"class.ukm::builders::SMSReceiver" = type { %"class.ukm::internal::UkmEntryBuilderBase" }
%"class.ukm::builders::SSL_MixedContentShown2" = type { %"class.ukm::internal::UkmEntryBuilderBase" }
%"class.ukm::builders::SubresourceFilter" = type { %"class.ukm::internal::UkmEntryBuilderBase" }
%"class.ukm::builders::SubresourceRedirect_PublicSrcVideoCompression" = type { %"class.ukm::internal::UkmEntryBuilderBase" }
%"class.ukm::builders::Tab_RendererOOM" = type { %"class.ukm::internal::UkmEntryBuilderBase" }
%"class.ukm::builders::Tab_Screenshot" = type { %"class.ukm::internal::UkmEntryBuilderBase" }
%"class.ukm::builders::TabManager_Background_FirstAlertFired" = type { %"class.ukm::internal::UkmEntryBuilderBase" }
%"class.ukm::builders::TabManager_Background_FirstAudioStarts" = type { %"class.ukm::internal::UkmEntryBuilderBase" }
%"class.ukm::builders::TabManager_Background_FirstFaviconUpdated" = type { %"class.ukm::internal::UkmEntryBuilderBase" }
%"class.ukm::builders::TabManager_Background_FirstNonPersistentNotificationCreated" = type { %"class.ukm::internal::UkmEntryBuilderBase" }
%"class.ukm::builders::TabManager_Background_FirstTitleUpdated" = type { %"class.ukm::internal::UkmEntryBuilderBase" }
%"class.ukm::builders::TabManager_Background_ForegroundedOrClosed" = type { %"class.ukm::internal::UkmEntryBuilderBase" }
%"class.ukm::builders::TabManager_Experimental_BackgroundTabOpening_TabSwitchLoadStopped" = type { %"class.ukm::internal::UkmEntryBuilderBase" }
%"class.ukm::builders::TabManager_Experimental_SessionRestore_ForegroundTab_PageLoad" = type { %"class.ukm::internal::UkmEntryBuilderBase" }
%"class.ukm::builders::TabManager_Experimental_SessionRestore_TabSwitchLoadStopped" = type { %"class.ukm::internal::UkmEntryBuilderBase" }
%"class.ukm::builders::TabManager_LifecycleStateChange" = type { %"class.ukm::internal::UkmEntryBuilderBase" }
%"class.ukm::builders::TabManager_SessionRestore_ForegroundTab_ExpectedTaskQueueingDurationInfo" = type { %"class.ukm::internal::UkmEntryBuilderBase" }
%"class.ukm::builders::TabManager_TabLifetime" = type { %"class.ukm::internal::UkmEntryBuilderBase" }
%"class.ukm::builders::TabManager_TabMetrics" = type { %"class.ukm::internal::UkmEntryBuilderBase" }
%"class.ukm::builders::TabManager_WindowMetrics" = type { %"class.ukm::internal::UkmEntryBuilderBase" }
%"class.ukm::builders::TouchToFill_Shown" = type { %"class.ukm::internal::UkmEntryBuilderBase" }
%"class.ukm::builders::Translate" = type { %"class.ukm::internal::UkmEntryBuilderBase" }
%"class.ukm::builders::TranslatePageLoad" = type { %"class.ukm::internal::UkmEntryBuilderBase" }
%"class.ukm::builders::TrustedWebActivity_Open" = type { %"class.ukm::internal::UkmEntryBuilderBase" }
%"class.ukm::builders::TrustedWebActivity_QualityEnforcementViolation" = type { %"class.ukm::internal::UkmEntryBuilderBase" }
%"class.ukm::builders::Unload" = type { %"class.ukm::internal::UkmEntryBuilderBase" }
%"class.ukm::builders::UserActivity" = type { %"class.ukm::internal::UkmEntryBuilderBase" }
%"class.ukm::builders::UserActivityId" = type { %"class.ukm::internal::UkmEntryBuilderBase" }
%"class.ukm::builders::UserSettingsEvent" = type { %"class.ukm::internal::UkmEntryBuilderBase" }
%"class.ukm::builders::V8_Wasm_ModuleCompiled" = type { %"class.ukm::internal::UkmEntryBuilderBase" }
%"class.ukm::builders::V8_Wasm_ModuleDecoded" = type { %"class.ukm::internal::UkmEntryBuilderBase" }
%"class.ukm::builders::V8_Wasm_ModuleInstantiated" = type { %"class.ukm::internal::UkmEntryBuilderBase" }
%"class.ukm::builders::V8_Wasm_ModuleTieredUp" = type { %"class.ukm::internal::UkmEntryBuilderBase" }
%"class.ukm::builders::VirtualKeyboard_Open" = type { %"class.ukm::internal::UkmEntryBuilderBase" }
%"class.ukm::builders::WebAPK_Install" = type { %"class.ukm::internal::UkmEntryBuilderBase" }
%"class.ukm::builders::WebAPK_SessionEnd" = type { %"class.ukm::internal::UkmEntryBuilderBase" }
%"class.ukm::builders::WebAPK_Uninstall" = type { %"class.ukm::internal::UkmEntryBuilderBase" }
%"class.ukm::builders::WebAPK_Visit" = type { %"class.ukm::internal::UkmEntryBuilderBase" }
%"class.ukm::builders::WebApp_DailyInteraction" = type { %"class.ukm::internal::UkmEntryBuilderBase" }
%"class.ukm::builders::WebOTPImpact" = type { %"class.ukm::internal::UkmEntryBuilderBase" }
%"class.ukm::builders::WebRTC_AddressHarvesting" = type { %"class.ukm::internal::UkmEntryBuilderBase" }
%"class.ukm::builders::WebRTC_ComplexSdp" = type { %"class.ukm::internal::UkmEntryBuilderBase" }
%"class.ukm::builders::Worker_ClientAdded" = type { %"class.ukm::internal::UkmEntryBuilderBase" }
%"class.ukm::builders::XR_WebXR" = type { %"class.ukm::internal::UkmEntryBuilderBase" }
%"class.ukm::builders::XR_WebXR_Session" = type { %"class.ukm::internal::UkmEntryBuilderBase" }
%"class.ukm::builders::XR_WebXR_SessionRequest" = type { %"class.ukm::internal::UkmEntryBuilderBase" }

@_ZN3ukm8builders26AbusiveExperienceHeuristic10kEntryNameE = hidden local_unnamed_addr constant [27 x i8] c"AbusiveExperienceHeuristic\00", align 16
@_ZN3ukm8builders26AbusiveExperienceHeuristic14kEntryNameHashE = hidden local_unnamed_addr constant i64 4325886147604803651, align 8
@_ZTVN3ukm8builders26AbusiveExperienceHeuristicE = hidden unnamed_addr constant { [4 x i8*] } { [4 x i8*] [i8* null, i8* null, i8* bitcast (void (%"class.ukm::builders::AbusiveExperienceHeuristic"*)* @_ZN3ukm8builders26AbusiveExperienceHeuristicD2Ev to i8*), i8* bitcast (void (%"class.ukm::builders::AbusiveExperienceHeuristic"*)* @_ZN3ukm8builders26AbusiveExperienceHeuristicD0Ev to i8*)] }, align 8
@_ZN3ukm8builders26AbusiveExperienceHeuristic16kDidTabUnderNameE = hidden local_unnamed_addr constant [12 x i8] c"DidTabUnder\00", align 1
@_ZN3ukm8builders26AbusiveExperienceHeuristic20kDidTabUnderNameHashE = hidden local_unnamed_addr constant i64 1632877231929054164, align 8
@_ZN3ukm8builders26AbusiveExperienceHeuristic30kDidWindowOpenFromAdScriptNameE = hidden local_unnamed_addr constant [26 x i8] c"DidWindowOpenFromAdScript\00", align 16
@_ZN3ukm8builders26AbusiveExperienceHeuristic34kDidWindowOpenFromAdScriptNameHashE = hidden local_unnamed_addr constant i64 -7449493641200350455, align 8
@_ZN3ukm8builders26AbusiveExperienceHeuristic32kDidWindowOpenFromAdSubframeNameE = hidden local_unnamed_addr constant [28 x i8] c"DidWindowOpenFromAdSubframe\00", align 16
@_ZN3ukm8builders26AbusiveExperienceHeuristic36kDidWindowOpenFromAdSubframeNameHashE = hidden local_unnamed_addr constant i64 -5915766345205749337, align 8
@_ZN3ukm8builders43AbusiveExperienceHeuristic_JavaScriptDialog10kEntryNameE = hidden local_unnamed_addr constant [44 x i8] c"AbusiveExperienceHeuristic.JavaScriptDialog\00", align 16
@_ZN3ukm8builders43AbusiveExperienceHeuristic_JavaScriptDialog14kEntryNameHashE = hidden local_unnamed_addr constant i64 2140536877907621174, align 8
@_ZTVN3ukm8builders43AbusiveExperienceHeuristic_JavaScriptDialogE = hidden unnamed_addr constant { [4 x i8*] } { [4 x i8*] [i8* null, i8* null, i8* bitcast (void (%"class.ukm::builders::AbusiveExperienceHeuristic_JavaScriptDialog"*)* @_ZN3ukm8builders43AbusiveExperienceHeuristic_JavaScriptDialogD2Ev to i8*), i8* bitcast (void (%"class.ukm::builders::AbusiveExperienceHeuristic_JavaScriptDialog"*)* @_ZN3ukm8builders43AbusiveExperienceHeuristic_JavaScriptDialogD0Ev to i8*)] }, align 8
@_ZN3ukm8builders43AbusiveExperienceHeuristic_JavaScriptDialog19kDismissalCauseNameE = hidden local_unnamed_addr constant [15 x i8] c"DismissalCause\00", align 1
@_ZN3ukm8builders43AbusiveExperienceHeuristic_JavaScriptDialog23kDismissalCauseNameHashE = hidden local_unnamed_addr constant i64 253402870863803684, align 8
@_ZN3ukm8builders35AbusiveExperienceHeuristic_TabUnder10kEntryNameE = hidden local_unnamed_addr constant [36 x i8] c"AbusiveExperienceHeuristic.TabUnder\00", align 16
@_ZN3ukm8builders35AbusiveExperienceHeuristic_TabUnder14kEntryNameHashE = hidden local_unnamed_addr constant i64 -4418920024771217768, align 8
@_ZTVN3ukm8builders35AbusiveExperienceHeuristic_TabUnderE = hidden unnamed_addr constant { [4 x i8*] } { [4 x i8*] [i8* null, i8* null, i8* bitcast (void (%"class.ukm::builders::AbusiveExperienceHeuristic_TabUnder"*)* @_ZN3ukm8builders35AbusiveExperienceHeuristic_TabUnderD2Ev to i8*), i8* bitcast (void (%"class.ukm::builders::AbusiveExperienceHeuristic_TabUnder"*)* @_ZN3ukm8builders35AbusiveExperienceHeuristic_TabUnderD0Ev to i8*)] }, align 8
@_ZN3ukm8builders35AbusiveExperienceHeuristic_TabUnder16kDidTabUnderNameE = hidden local_unnamed_addr constant [12 x i8] c"DidTabUnder\00", align 1
@_ZN3ukm8builders35AbusiveExperienceHeuristic_TabUnder20kDidTabUnderNameHashE = hidden local_unnamed_addr constant i64 1632877231929054164, align 8
@_ZN3ukm8builders37AbusiveExperienceHeuristic_WindowOpen10kEntryNameE = hidden local_unnamed_addr constant [38 x i8] c"AbusiveExperienceHeuristic.WindowOpen\00", align 16
@_ZN3ukm8builders37AbusiveExperienceHeuristic_WindowOpen14kEntryNameHashE = hidden local_unnamed_addr constant i64 -8531832785196214936, align 8
@_ZTVN3ukm8builders37AbusiveExperienceHeuristic_WindowOpenE = hidden unnamed_addr constant { [4 x i8*] } { [4 x i8*] [i8* null, i8* null, i8* bitcast (void (%"class.ukm::builders::AbusiveExperienceHeuristic_WindowOpen"*)* @_ZN3ukm8builders37AbusiveExperienceHeuristic_WindowOpenD2Ev to i8*), i8* bitcast (void (%"class.ukm::builders::AbusiveExperienceHeuristic_WindowOpen"*)* @_ZN3ukm8builders37AbusiveExperienceHeuristic_WindowOpenD0Ev to i8*)] }, align 8
@_ZN3ukm8builders37AbusiveExperienceHeuristic_WindowOpen17kFromAdScriptNameE = hidden local_unnamed_addr constant [13 x i8] c"FromAdScript\00", align 1
@_ZN3ukm8builders37AbusiveExperienceHeuristic_WindowOpen21kFromAdScriptNameHashE = hidden local_unnamed_addr constant i64 -3190155972537419310, align 8
@_ZN3ukm8builders37AbusiveExperienceHeuristic_WindowOpen19kFromAdSubframeNameE = hidden local_unnamed_addr constant [15 x i8] c"FromAdSubframe\00", align 1
@_ZN3ukm8builders37AbusiveExperienceHeuristic_WindowOpen23kFromAdSubframeNameHashE = hidden local_unnamed_addr constant i64 -7250745543570328195, align 8
@_ZN3ukm8builders31Accessibility_ImageDescriptions10kEntryNameE = hidden local_unnamed_addr constant [32 x i8] c"Accessibility.ImageDescriptions\00", align 16
@_ZN3ukm8builders31Accessibility_ImageDescriptions14kEntryNameHashE = hidden local_unnamed_addr constant i64 -803344073289766704, align 8
@_ZTVN3ukm8builders31Accessibility_ImageDescriptionsE = hidden unnamed_addr constant { [4 x i8*] } { [4 x i8*] [i8* null, i8* null, i8* bitcast (void (%"class.ukm::builders::Accessibility_ImageDescriptions"*)* @_ZN3ukm8builders31Accessibility_ImageDescriptionsD2Ev to i8*), i8* bitcast (void (%"class.ukm::builders::Accessibility_ImageDescriptions"*)* @_ZN3ukm8builders31Accessibility_ImageDescriptionsD0Ev to i8*)] }, align 8
@_ZN3ukm8builders31Accessibility_ImageDescriptions16kDescriptionNameE = hidden local_unnamed_addr constant [12 x i8] c"Description\00", align 1
@_ZN3ukm8builders31Accessibility_ImageDescriptions20kDescriptionNameHashE = hidden local_unnamed_addr constant i64 -5357122062287255427, align 8
@_ZN3ukm8builders31Accessibility_ImageDescriptions25kImageAlreadyHasLabelNameE = hidden local_unnamed_addr constant [21 x i8] c"ImageAlreadyHasLabel\00", align 16
@_ZN3ukm8builders31Accessibility_ImageDescriptions29kImageAlreadyHasLabelNameHashE = hidden local_unnamed_addr constant i64 -1009547449717179837, align 8
@_ZN3ukm8builders31Accessibility_ImageDescriptions8kOCRNameE = hidden local_unnamed_addr constant [4 x i8] c"OCR\00", align 1
@_ZN3ukm8builders31Accessibility_ImageDescriptions12kOCRNameHashE = hidden local_unnamed_addr constant i64 -780876323867717081, align 8
@_ZN3ukm8builders22Accessibility_Renderer10kEntryNameE = hidden local_unnamed_addr constant [23 x i8] c"Accessibility.Renderer\00", align 16
@_ZN3ukm8builders22Accessibility_Renderer14kEntryNameHashE = hidden local_unnamed_addr constant i64 -6518047275667690733, align 8
@_ZTVN3ukm8builders22Accessibility_RendererE = hidden unnamed_addr constant { [4 x i8*] } { [4 x i8*] [i8* null, i8* null, i8* bitcast (void (%"class.ukm::builders::Accessibility_Renderer"*)* @_ZN3ukm8builders22Accessibility_RendererD2Ev to i8*), i8* bitcast (void (%"class.ukm::builders::Accessibility_Renderer"*)* @_ZN3ukm8builders22Accessibility_RendererD0Ev to i8*)] }, align 8
@_ZN3ukm8builders22Accessibility_Renderer43kCpuTime_SendPendingAccessibilityEventsNameE = hidden local_unnamed_addr constant [39 x i8] c"CpuTime.SendPendingAccessibilityEvents\00", align 16
@_ZN3ukm8builders22Accessibility_Renderer47kCpuTime_SendPendingAccessibilityEventsNameHashE = hidden local_unnamed_addr constant i64 -7523438818517326955, align 8
@_ZN3ukm8builders11AdFrameLoad10kEntryNameE = hidden local_unnamed_addr constant [12 x i8] c"AdFrameLoad\00", align 1
@_ZN3ukm8builders11AdFrameLoad14kEntryNameHashE = hidden local_unnamed_addr constant i64 9171478480016060997, align 8
@_ZTVN3ukm8builders11AdFrameLoadE = hidden unnamed_addr constant { [4 x i8*] } { [4 x i8*] [i8* null, i8* null, i8* bitcast (void (%"class.ukm::builders::AdFrameLoad"*)* @_ZN3ukm8builders11AdFrameLoadD2Ev to i8*), i8* bitcast (void (%"class.ukm::builders::AdFrameLoad"*)* @_ZN3ukm8builders11AdFrameLoadD0Ev to i8*)] }, align 8
@_ZN3ukm8builders11AdFrameLoad32kCpuTime_PeakWindowedPercentNameE = hidden local_unnamed_addr constant [28 x i8] c"CpuTime.PeakWindowedPercent\00", align 16
@_ZN3ukm8builders11AdFrameLoad36kCpuTime_PeakWindowedPercentNameHashE = hidden local_unnamed_addr constant i64 -7751836657602730046, align 8
@_ZN3ukm8builders11AdFrameLoad26kCpuTime_PreActivationNameE = hidden local_unnamed_addr constant [22 x i8] c"CpuTime.PreActivation\00", align 16
@_ZN3ukm8builders11AdFrameLoad30kCpuTime_PreActivationNameHashE = hidden local_unnamed_addr constant i64 5794315328615334038, align 8
@_ZN3ukm8builders11AdFrameLoad18kCpuTime_TotalNameE = hidden local_unnamed_addr constant [14 x i8] c"CpuTime.Total\00", align 1
@_ZN3ukm8builders11AdFrameLoad22kCpuTime_TotalNameHashE = hidden local_unnamed_addr constant i64 -3096642553369414756, align 8
@_ZN3ukm8builders11AdFrameLoad15kFrameDepthNameE = hidden local_unnamed_addr constant [11 x i8] c"FrameDepth\00", align 1
@_ZN3ukm8builders11AdFrameLoad19kFrameDepthNameHashE = hidden local_unnamed_addr constant i64 5259598389912370111, align 8
@_ZN3ukm8builders11AdFrameLoad24kLoading_CacheBytes2NameE = hidden local_unnamed_addr constant [20 x i8] c"Loading.CacheBytes2\00", align 16
@_ZN3ukm8builders11AdFrameLoad28kLoading_CacheBytes2NameHashE = hidden local_unnamed_addr constant i64 2812659824544278329, align 8
@_ZN3ukm8builders11AdFrameLoad23kLoading_ImageBytesNameE = hidden local_unnamed_addr constant [19 x i8] c"Loading.ImageBytes\00", align 16
@_ZN3ukm8builders11AdFrameLoad27kLoading_ImageBytesNameHashE = hidden local_unnamed_addr constant i64 4267019114733925172, align 8
@_ZN3ukm8builders11AdFrameLoad28kLoading_JavascriptBytesNameE = hidden local_unnamed_addr constant [24 x i8] c"Loading.JavascriptBytes\00", align 16
@_ZN3ukm8builders11AdFrameLoad32kLoading_JavascriptBytesNameHashE = hidden local_unnamed_addr constant i64 -8683793506603577654, align 8
@_ZN3ukm8builders11AdFrameLoad25kLoading_NetworkBytesNameE = hidden local_unnamed_addr constant [21 x i8] c"Loading.NetworkBytes\00", align 16
@_ZN3ukm8builders11AdFrameLoad29kLoading_NetworkBytesNameHashE = hidden local_unnamed_addr constant i64 2909577699402783051, align 8
@_ZN3ukm8builders11AdFrameLoad25kLoading_NumResourcesNameE = hidden local_unnamed_addr constant [21 x i8] c"Loading.NumResources\00", align 16
@_ZN3ukm8builders11AdFrameLoad29kLoading_NumResourcesNameHashE = hidden local_unnamed_addr constant i64 -4996683865242477307, align 8
@_ZN3ukm8builders11AdFrameLoad23kLoading_VideoBytesNameE = hidden local_unnamed_addr constant [19 x i8] c"Loading.VideoBytes\00", align 16
@_ZN3ukm8builders11AdFrameLoad27kLoading_VideoBytesNameHashE = hidden local_unnamed_addr constant i64 -3435336407915173773, align 8
@_ZN3ukm8builders11AdFrameLoad23kStatus_CrossOriginNameE = hidden local_unnamed_addr constant [19 x i8] c"Status.CrossOrigin\00", align 16
@_ZN3ukm8builders11AdFrameLoad27kStatus_CrossOriginNameHashE = hidden local_unnamed_addr constant i64 4568069380683941241, align 8
@_ZN3ukm8builders11AdFrameLoad17kStatus_MediaNameE = hidden local_unnamed_addr constant [13 x i8] c"Status.Media\00", align 1
@_ZN3ukm8builders11AdFrameLoad21kStatus_MediaNameHashE = hidden local_unnamed_addr constant i64 4546060596826334451, align 8
@_ZN3ukm8builders11AdFrameLoad26kStatus_UserActivationNameE = hidden local_unnamed_addr constant [22 x i8] c"Status.UserActivation\00", align 16
@_ZN3ukm8builders11AdFrameLoad30kStatus_UserActivationNameHashE = hidden local_unnamed_addr constant i64 5097180316580530092, align 8
@_ZN3ukm8builders11AdFrameLoad32kTiming_FirstContentfulPaintNameE = hidden local_unnamed_addr constant [28 x i8] c"Timing.FirstContentfulPaint\00", align 16
@_ZN3ukm8builders11AdFrameLoad36kTiming_FirstContentfulPaintNameHashE = hidden local_unnamed_addr constant i64 -503165592203007859, align 8
@_ZN3ukm8builders11AdFrameLoad23kTiming_InteractiveNameE = hidden local_unnamed_addr constant [19 x i8] c"Timing.Interactive\00", align 16
@_ZN3ukm8builders11AdFrameLoad27kTiming_InteractiveNameHashE = hidden local_unnamed_addr constant i64 -3321381542052476291, align 8
@_ZN3ukm8builders11AdFrameLoad27kVisibility_FrameHeightNameE = hidden local_unnamed_addr constant [23 x i8] c"Visibility.FrameHeight\00", align 16
@_ZN3ukm8builders11AdFrameLoad31kVisibility_FrameHeightNameHashE = hidden local_unnamed_addr constant i64 7279397677831738677, align 8
@_ZN3ukm8builders11AdFrameLoad26kVisibility_FrameWidthNameE = hidden local_unnamed_addr constant [22 x i8] c"Visibility.FrameWidth\00", align 16
@_ZN3ukm8builders11AdFrameLoad30kVisibility_FrameWidthNameHashE = hidden local_unnamed_addr constant i64 3041121436852256629, align 8
@_ZN3ukm8builders11AdFrameLoad22kVisibility_HiddenNameE = hidden local_unnamed_addr constant [18 x i8] c"Visibility.Hidden\00", align 16
@_ZN3ukm8builders11AdFrameLoad26kVisibility_HiddenNameHashE = hidden local_unnamed_addr constant i64 -7704400569309910056, align 8
@_ZN3ukm8builders10AdPageLoad10kEntryNameE = hidden local_unnamed_addr constant [11 x i8] c"AdPageLoad\00", align 1
@_ZN3ukm8builders10AdPageLoad14kEntryNameHashE = hidden local_unnamed_addr constant i64 897698866892786861, align 8
@_ZTVN3ukm8builders10AdPageLoadE = hidden unnamed_addr constant { [4 x i8*] } { [4 x i8*] [i8* null, i8* null, i8* bitcast (void (%"class.ukm::builders::AdPageLoad"*)* @_ZN3ukm8builders10AdPageLoadD2Ev to i8*), i8* bitcast (void (%"class.ukm::builders::AdPageLoad"*)* @_ZN3ukm8builders10AdPageLoadD0Ev to i8*)] }, align 8
@_ZN3ukm8builders10AdPageLoad12kAdBytesNameE = hidden local_unnamed_addr constant [8 x i8] c"AdBytes\00", align 1
@_ZN3ukm8builders10AdPageLoad16kAdBytesNameHashE = hidden local_unnamed_addr constant i64 6659033870686188869, align 8
@_ZN3ukm8builders10AdPageLoad14kAdCpuTimeNameE = hidden local_unnamed_addr constant [10 x i8] c"AdCpuTime\00", align 1
@_ZN3ukm8builders10AdPageLoad18kAdCpuTimeNameHashE = hidden local_unnamed_addr constant i64 4851683766975122096, align 8
@_ZN3ukm8builders10AdPageLoad22kAdJavascriptBytesNameE = hidden local_unnamed_addr constant [18 x i8] c"AdJavascriptBytes\00", align 16
@_ZN3ukm8builders10AdPageLoad26kAdJavascriptBytesNameHashE = hidden local_unnamed_addr constant i64 -4450159710857689180, align 8
@_ZN3ukm8builders10AdPageLoad17kAdVideoBytesNameE = hidden local_unnamed_addr constant [13 x i8] c"AdVideoBytes\00", align 1
@_ZN3ukm8builders10AdPageLoad21kAdVideoBytesNameHashE = hidden local_unnamed_addr constant i64 4207294672781050458, align 8
@_ZN3ukm8builders10AdPageLoad21kMainframeAdBytesNameE = hidden local_unnamed_addr constant [17 x i8] c"MainframeAdBytes\00", align 16
@_ZN3ukm8builders10AdPageLoad25kMainframeAdBytesNameHashE = hidden local_unnamed_addr constant i64 -8303775567676200487, align 8
@_ZN3ukm8builders10AdPageLoad23kMaxAdDensityByAreaNameE = hidden local_unnamed_addr constant [19 x i8] c"MaxAdDensityByArea\00", align 16
@_ZN3ukm8builders10AdPageLoad27kMaxAdDensityByAreaNameHashE = hidden local_unnamed_addr constant i64 7067391914447638302, align 8
@_ZN3ukm8builders10AdPageLoad25kMaxAdDensityByHeightNameE = hidden local_unnamed_addr constant [21 x i8] c"MaxAdDensityByHeight\00", align 16
@_ZN3ukm8builders10AdPageLoad29kMaxAdDensityByHeightNameHashE = hidden local_unnamed_addr constant i64 -7331688654934935772, align 8
@_ZN3ukm8builders10AdPageLoad15kTotalBytesNameE = hidden local_unnamed_addr constant [11 x i8] c"TotalBytes\00", align 1
@_ZN3ukm8builders10AdPageLoad19kTotalBytesNameHashE = hidden local_unnamed_addr constant i64 8087173487984213000, align 8
@_ZN3ukm8builders32AdsIntervention_LastIntervention10kEntryNameE = hidden local_unnamed_addr constant [33 x i8] c"AdsIntervention.LastIntervention\00", align 16
@_ZN3ukm8builders32AdsIntervention_LastIntervention14kEntryNameHashE = hidden local_unnamed_addr constant i64 2556877997165288079, align 8
@_ZTVN3ukm8builders32AdsIntervention_LastInterventionE = hidden unnamed_addr constant { [4 x i8*] } { [4 x i8*] [i8* null, i8* null, i8* bitcast (void (%"class.ukm::builders::AdsIntervention_LastIntervention"*)* @_ZN3ukm8builders32AdsIntervention_LastInterventionD2Ev to i8*), i8* bitcast (void (%"class.ukm::builders::AdsIntervention_LastIntervention"*)* @_ZN3ukm8builders32AdsIntervention_LastInterventionD0Ev to i8*)] }, align 8
@_ZN3ukm8builders32AdsIntervention_LastIntervention23kInterventionStatusNameE = hidden local_unnamed_addr constant [19 x i8] c"InterventionStatus\00", align 16
@_ZN3ukm8builders32AdsIntervention_LastIntervention27kInterventionStatusNameHashE = hidden local_unnamed_addr constant i64 -1039407183737429514, align 8
@_ZN3ukm8builders32AdsIntervention_LastIntervention21kInterventionTypeNameE = hidden local_unnamed_addr constant [17 x i8] c"InterventionType\00", align 16
@_ZN3ukm8builders32AdsIntervention_LastIntervention25kInterventionTypeNameHashE = hidden local_unnamed_addr constant i64 -8012935761507627288, align 8
@_ZN3ukm8builders11AmpPageLoad10kEntryNameE = hidden local_unnamed_addr constant [12 x i8] c"AmpPageLoad\00", align 1
@_ZN3ukm8builders11AmpPageLoad14kEntryNameHashE = hidden local_unnamed_addr constant i64 -3157916274154857002, align 8
@_ZTVN3ukm8builders11AmpPageLoadE = hidden unnamed_addr constant { [4 x i8*] } { [4 x i8*] [i8* null, i8* null, i8* bitcast (void (%"class.ukm::builders::AmpPageLoad"*)* @_ZN3ukm8builders11AmpPageLoadD2Ev to i8*), i8* bitcast (void (%"class.ukm::builders::AmpPageLoad"*)* @_ZN3ukm8builders11AmpPageLoadD0Ev to i8*)] }, align 8
@_ZN3ukm8builders11AmpPageLoad25kMainFrameAmpPageLoadNameE = hidden local_unnamed_addr constant [21 x i8] c"MainFrameAmpPageLoad\00", align 16
@_ZN3ukm8builders11AmpPageLoad29kMainFrameAmpPageLoadNameHashE = hidden local_unnamed_addr constant i64 5461195790241701747, align 8
@_ZN3ukm8builders11AmpPageLoad48kSubFrame_InteractiveTiming_FirstInputDelay4NameE = hidden local_unnamed_addr constant [44 x i8] c"SubFrame.InteractiveTiming.FirstInputDelay4\00", align 16
@_ZN3ukm8builders11AmpPageLoad52kSubFrame_InteractiveTiming_FirstInputDelay4NameHashE = hidden local_unnamed_addr constant i64 4724951111204316736, align 8
@_ZN3ukm8builders11AmpPageLoad83kSubFrame_LayoutInstability_AverageCumulativeShiftScore_SessionWindow_Gap5000msNameE = hidden local_unnamed_addr constant [79 x i8] c"SubFrame.LayoutInstability.AverageCumulativeShiftScore.SessionWindow.Gap5000ms\00", align 16
@_ZN3ukm8builders11AmpPageLoad87kSubFrame_LayoutInstability_AverageCumulativeShiftScore_SessionWindow_Gap5000msNameHashE = hidden local_unnamed_addr constant i64 6982575967264382290, align 8
@_ZN3ukm8builders11AmpPageLoad52kSubFrame_LayoutInstability_CumulativeShiftScoreNameE = hidden local_unnamed_addr constant [48 x i8] c"SubFrame.LayoutInstability.CumulativeShiftScore\00", align 16
@_ZN3ukm8builders11AmpPageLoad56kSubFrame_LayoutInstability_CumulativeShiftScoreNameHashE = hidden local_unnamed_addr constant i64 -2028299518204215786, align 8
@_ZN3ukm8builders11AmpPageLoad72kSubFrame_LayoutInstability_CumulativeShiftScore_BeforeInputOrScrollNameE = hidden local_unnamed_addr constant [68 x i8] c"SubFrame.LayoutInstability.CumulativeShiftScore.BeforeInputOrScroll\00", align 16
@_ZN3ukm8builders11AmpPageLoad76kSubFrame_LayoutInstability_CumulativeShiftScore_BeforeInputOrScrollNameHashE = hidden local_unnamed_addr constant i64 -4176505781786891889, align 8
@_ZN3ukm8builders11AmpPageLoad79kSubFrame_LayoutInstability_MaxCumulativeShiftScore_SessionWindow_Gap1000msNameE = hidden local_unnamed_addr constant [75 x i8] c"SubFrame.LayoutInstability.MaxCumulativeShiftScore.SessionWindow.Gap1000ms\00", align 16
@_ZN3ukm8builders11AmpPageLoad83kSubFrame_LayoutInstability_MaxCumulativeShiftScore_SessionWindow_Gap1000msNameHashE = hidden local_unnamed_addr constant i64 -8648122582102743861, align 8
@_ZN3ukm8builders11AmpPageLoad89kSubFrame_LayoutInstability_MaxCumulativeShiftScore_SessionWindow_Gap1000ms_Max5000msNameE = hidden local_unnamed_addr constant [85 x i8] c"SubFrame.LayoutInstability.MaxCumulativeShiftScore.SessionWindow.Gap1000ms.Max5000ms\00", align 16
@_ZN3ukm8builders11AmpPageLoad93kSubFrame_LayoutInstability_MaxCumulativeShiftScore_SessionWindow_Gap1000ms_Max5000msNameHashE = hidden local_unnamed_addr constant i64 -5965207238698315485, align 8
@_ZN3ukm8builders11AmpPageLoad97kSubFrame_LayoutInstability_MaxCumulativeShiftScore_SessionWindowByInputs_Gap1000ms_Max5000msNameE = hidden local_unnamed_addr constant [93 x i8] c"SubFrame.LayoutInstability.MaxCumulativeShiftScore.SessionWindowByInputs.Gap1000ms.Max5000ms\00", align 16
@_ZN3ukm8builders11AmpPageLoad101kSubFrame_LayoutInstability_MaxCumulativeShiftScore_SessionWindowByInputs_Gap1000ms_Max5000msNameHashE = hidden local_unnamed_addr constant i64 -5775259554992727218, align 8
@_ZN3ukm8builders11AmpPageLoad84kSubFrame_LayoutInstability_MaxCumulativeShiftScore_SlidingWindow_Duration1000msNameE = hidden local_unnamed_addr constant [80 x i8] c"SubFrame.LayoutInstability.MaxCumulativeShiftScore.SlidingWindow.Duration1000ms\00", align 16
@_ZN3ukm8builders11AmpPageLoad88kSubFrame_LayoutInstability_MaxCumulativeShiftScore_SlidingWindow_Duration1000msNameHashE = hidden local_unnamed_addr constant i64 7431066408629809939, align 8
@_ZN3ukm8builders11AmpPageLoad83kSubFrame_LayoutInstability_MaxCumulativeShiftScore_SlidingWindow_Duration300msNameE = hidden local_unnamed_addr constant [79 x i8] c"SubFrame.LayoutInstability.MaxCumulativeShiftScore.SlidingWindow.Duration300ms\00", align 16
@_ZN3ukm8builders11AmpPageLoad87kSubFrame_LayoutInstability_MaxCumulativeShiftScore_SlidingWindow_Duration300msNameHashE = hidden local_unnamed_addr constant i64 -632071971660617600, align 8
@_ZN3ukm8builders11AmpPageLoad48kSubFrame_MainFrameToSubFrameNavigationDeltaNameE = hidden local_unnamed_addr constant [44 x i8] c"SubFrame.MainFrameToSubFrameNavigationDelta\00", align 16
@_ZN3ukm8builders11AmpPageLoad52kSubFrame_MainFrameToSubFrameNavigationDeltaNameHashE = hidden local_unnamed_addr constant i64 8980472913360711190, align 8
@_ZN3ukm8builders11AmpPageLoad58kSubFrame_PaintTiming_NavigationToFirstContentfulPaintNameE = hidden local_unnamed_addr constant [54 x i8] c"SubFrame.PaintTiming.NavigationToFirstContentfulPaint\00", align 16
@_ZN3ukm8builders11AmpPageLoad62kSubFrame_PaintTiming_NavigationToFirstContentfulPaintNameHashE = hidden local_unnamed_addr constant i64 638842222187756601, align 8
@_ZN3ukm8builders11AmpPageLoad48kSubFrame_PaintTiming_NavigationToFirstPaintNameE = hidden local_unnamed_addr constant [44 x i8] c"SubFrame.PaintTiming.NavigationToFirstPaint\00", align 16
@_ZN3ukm8builders11AmpPageLoad52kSubFrame_PaintTiming_NavigationToFirstPaintNameHashE = hidden local_unnamed_addr constant i64 248118270008625401, align 8
@_ZN3ukm8builders11AmpPageLoad60kSubFrame_PaintTiming_NavigationToLargestContentfulPaintNameE = hidden local_unnamed_addr constant [56 x i8] c"SubFrame.PaintTiming.NavigationToLargestContentfulPaint\00", align 16
@_ZN3ukm8builders11AmpPageLoad64kSubFrame_PaintTiming_NavigationToLargestContentfulPaintNameHashE = hidden local_unnamed_addr constant i64 7926371826234720799, align 8
@_ZN3ukm8builders11AmpPageLoad61kSubFrame_PaintTiming_NavigationToLargestContentfulPaint2NameE = hidden local_unnamed_addr constant [57 x i8] c"SubFrame.PaintTiming.NavigationToLargestContentfulPaint2\00", align 16
@_ZN3ukm8builders11AmpPageLoad65kSubFrame_PaintTiming_NavigationToLargestContentfulPaint2NameHashE = hidden local_unnamed_addr constant i64 2719061015675078879, align 8
@_ZN3ukm8builders11AmpPageLoad24kSubFrameAmpPageLoadNameE = hidden local_unnamed_addr constant [20 x i8] c"SubFrameAmpPageLoad\00", align 16
@_ZN3ukm8builders11AmpPageLoad28kSubFrameAmpPageLoadNameHashE = hidden local_unnamed_addr constant i64 6483268505712723387, align 8
@_ZN3ukm8builders33Android_MultiWindowChangeActivity10kEntryNameE = hidden local_unnamed_addr constant [34 x i8] c"Android.MultiWindowChangeActivity\00", align 16
@_ZN3ukm8builders33Android_MultiWindowChangeActivity14kEntryNameHashE = hidden local_unnamed_addr constant i64 4355485518635673093, align 8
@_ZTVN3ukm8builders33Android_MultiWindowChangeActivityE = hidden unnamed_addr constant { [4 x i8*] } { [4 x i8*] [i8* null, i8* null, i8* bitcast (void (%"class.ukm::builders::Android_MultiWindowChangeActivity"*)* @_ZN3ukm8builders33Android_MultiWindowChangeActivityD2Ev to i8*), i8* bitcast (void (%"class.ukm::builders::Android_MultiWindowChangeActivity"*)* @_ZN3ukm8builders33Android_MultiWindowChangeActivityD0Ev to i8*)] }, align 8
@_ZN3ukm8builders33Android_MultiWindowChangeActivity17kActivityTypeNameE = hidden local_unnamed_addr constant [13 x i8] c"ActivityType\00", align 1
@_ZN3ukm8builders33Android_MultiWindowChangeActivity21kActivityTypeNameHashE = hidden local_unnamed_addr constant i64 3974259668746749924, align 8
@_ZN3ukm8builders24Android_MultiWindowState10kEntryNameE = hidden local_unnamed_addr constant [25 x i8] c"Android.MultiWindowState\00", align 16
@_ZN3ukm8builders24Android_MultiWindowState14kEntryNameHashE = hidden local_unnamed_addr constant i64 -8350070693977977602, align 8
@_ZTVN3ukm8builders24Android_MultiWindowStateE = hidden unnamed_addr constant { [4 x i8*] } { [4 x i8*] [i8* null, i8* null, i8* bitcast (void (%"class.ukm::builders::Android_MultiWindowState"*)* @_ZN3ukm8builders24Android_MultiWindowStateD2Ev to i8*), i8* bitcast (void (%"class.ukm::builders::Android_MultiWindowState"*)* @_ZN3ukm8builders24Android_MultiWindowStateD0Ev to i8*)] }, align 8
@_ZN3ukm8builders24Android_MultiWindowState16kWindowStateNameE = hidden local_unnamed_addr constant [12 x i8] c"WindowState\00", align 1
@_ZN3ukm8builders24Android_MultiWindowState20kWindowStateNameHashE = hidden local_unnamed_addr constant i64 6916821418093523230, align 8
@_ZN3ukm8builders22Android_ScreenRotation10kEntryNameE = hidden local_unnamed_addr constant [23 x i8] c"Android.ScreenRotation\00", align 16
@_ZN3ukm8builders22Android_ScreenRotation14kEntryNameHashE = hidden local_unnamed_addr constant i64 8962487173277472783, align 8
@_ZTVN3ukm8builders22Android_ScreenRotationE = hidden unnamed_addr constant { [4 x i8*] } { [4 x i8*] [i8* null, i8* null, i8* bitcast (void (%"class.ukm::builders::Android_ScreenRotation"*)* @_ZN3ukm8builders22Android_ScreenRotationD2Ev to i8*), i8* bitcast (void (%"class.ukm::builders::Android_ScreenRotation"*)* @_ZN3ukm8builders22Android_ScreenRotationD0Ev to i8*)] }, align 8
@_ZN3ukm8builders22Android_ScreenRotation28kTargetDeviceOrientationNameE = hidden local_unnamed_addr constant [24 x i8] c"TargetDeviceOrientation\00", align 16
@_ZN3ukm8builders22Android_ScreenRotation32kTargetDeviceOrientationNameHashE = hidden local_unnamed_addr constant i64 -2915407582965777248, align 8
@_ZN3ukm8builders36Android_UserRequestedUserAgentChange10kEntryNameE = hidden local_unnamed_addr constant [37 x i8] c"Android.UserRequestedUserAgentChange\00", align 16
@_ZN3ukm8builders36Android_UserRequestedUserAgentChange14kEntryNameHashE = hidden local_unnamed_addr constant i64 -6876407270172316410, align 8
@_ZTVN3ukm8builders36Android_UserRequestedUserAgentChangeE = hidden unnamed_addr constant { [4 x i8*] } { [4 x i8*] [i8* null, i8* null, i8* bitcast (void (%"class.ukm::builders::Android_UserRequestedUserAgentChange"*)* @_ZN3ukm8builders36Android_UserRequestedUserAgentChangeD2Ev to i8*), i8* bitcast (void (%"class.ukm::builders::Android_UserRequestedUserAgentChange"*)* @_ZN3ukm8builders36Android_UserRequestedUserAgentChangeD0Ev to i8*)] }, align 8
@_ZN3ukm8builders36Android_UserRequestedUserAgentChange18kUserAgentTypeNameE = hidden local_unnamed_addr constant [14 x i8] c"UserAgentType\00", align 1
@_ZN3ukm8builders36Android_UserRequestedUserAgentChange22kUserAgentTypeNameHashE = hidden local_unnamed_addr constant i64 2318367853561664205, align 8
@_ZN3ukm8builders19AppListAppClickData10kEntryNameE = hidden local_unnamed_addr constant [20 x i8] c"AppListAppClickData\00", align 16
@_ZN3ukm8builders19AppListAppClickData14kEntryNameHashE = hidden local_unnamed_addr constant i64 4589718692267131532, align 8
@_ZTVN3ukm8builders19AppListAppClickDataE = hidden unnamed_addr constant { [4 x i8*] } { [4 x i8*] [i8* null, i8* null, i8* bitcast (void (%"class.ukm::builders::AppListAppClickData"*)* @_ZN3ukm8builders19AppListAppClickDataD2Ev to i8*), i8* bitcast (void (%"class.ukm::builders::AppListAppClickData"*)* @_ZN3ukm8builders19AppListAppClickDataD0Ev to i8*)] }, align 8
@_ZN3ukm8builders19AppListAppClickData16kAppLaunchIdNameE = hidden local_unnamed_addr constant [12 x i8] c"AppLaunchId\00", align 1
@_ZN3ukm8builders19AppListAppClickData20kAppLaunchIdNameHashE = hidden local_unnamed_addr constant i64 -305505022203863413, align 8
@_ZN3ukm8builders19AppListAppClickData12kAppTypeNameE = hidden local_unnamed_addr constant [8 x i8] c"AppType\00", align 1
@_ZN3ukm8builders19AppListAppClickData16kAppTypeNameHashE = hidden local_unnamed_addr constant i64 8663828604683851647, align 8
@_ZN3ukm8builders19AppListAppClickData14kClickRankNameE = hidden local_unnamed_addr constant [10 x i8] c"ClickRank\00", align 1
@_ZN3ukm8builders19AppListAppClickData18kClickRankNameHashE = hidden local_unnamed_addr constant i64 2055104011801596037, align 8
@_ZN3ukm8builders19AppListAppClickData21kClicksEachHour00NameE = hidden local_unnamed_addr constant [17 x i8] c"ClicksEachHour00\00", align 16
@_ZN3ukm8builders19AppListAppClickData25kClicksEachHour00NameHashE = hidden local_unnamed_addr constant i64 -8594525130120113079, align 8
@_ZN3ukm8builders19AppListAppClickData21kClicksEachHour01NameE = hidden local_unnamed_addr constant [17 x i8] c"ClicksEachHour01\00", align 16
@_ZN3ukm8builders19AppListAppClickData25kClicksEachHour01NameHashE = hidden local_unnamed_addr constant i64 4594220155145935772, align 8
@_ZN3ukm8builders19AppListAppClickData21kClicksEachHour02NameE = hidden local_unnamed_addr constant [17 x i8] c"ClicksEachHour02\00", align 16
@_ZN3ukm8builders19AppListAppClickData25kClicksEachHour02NameHashE = hidden local_unnamed_addr constant i64 2979946241209199190, align 8
@_ZN3ukm8builders19AppListAppClickData21kClicksEachHour03NameE = hidden local_unnamed_addr constant [17 x i8] c"ClicksEachHour03\00", align 16
@_ZN3ukm8builders19AppListAppClickData25kClicksEachHour03NameHashE = hidden local_unnamed_addr constant i64 2807870101964151999, align 8
@_ZN3ukm8builders19AppListAppClickData21kClicksEachHour04NameE = hidden local_unnamed_addr constant [17 x i8] c"ClicksEachHour04\00", align 16
@_ZN3ukm8builders19AppListAppClickData25kClicksEachHour04NameHashE = hidden local_unnamed_addr constant i64 714499009068860843, align 8
@_ZN3ukm8builders19AppListAppClickData21kClicksEachHour05NameE = hidden local_unnamed_addr constant [17 x i8] c"ClicksEachHour05\00", align 16
@_ZN3ukm8builders19AppListAppClickData25kClicksEachHour05NameHashE = hidden local_unnamed_addr constant i64 -733555105077405469, align 8
@_ZN3ukm8builders19AppListAppClickData21kClicksEachHour06NameE = hidden local_unnamed_addr constant [17 x i8] c"ClicksEachHour06\00", align 16
@_ZN3ukm8builders19AppListAppClickData25kClicksEachHour06NameHashE = hidden local_unnamed_addr constant i64 1175107707626973313, align 8
@_ZN3ukm8builders19AppListAppClickData21kClicksEachHour07NameE = hidden local_unnamed_addr constant [17 x i8] c"ClicksEachHour07\00", align 16
@_ZN3ukm8builders19AppListAppClickData25kClicksEachHour07NameHashE = hidden local_unnamed_addr constant i64 2271012638508829384, align 8
@_ZN3ukm8builders19AppListAppClickData21kClicksEachHour08NameE = hidden local_unnamed_addr constant [17 x i8] c"ClicksEachHour08\00", align 16
@_ZN3ukm8builders19AppListAppClickData25kClicksEachHour08NameHashE = hidden local_unnamed_addr constant i64 1772457901586832457, align 8
@_ZN3ukm8builders19AppListAppClickData21kClicksEachHour09NameE = hidden local_unnamed_addr constant [17 x i8] c"ClicksEachHour09\00", align 16
@_ZN3ukm8builders19AppListAppClickData25kClicksEachHour09NameHashE = hidden local_unnamed_addr constant i64 2851247351851385842, align 8
@_ZN3ukm8builders19AppListAppClickData21kClicksEachHour10NameE = hidden local_unnamed_addr constant [17 x i8] c"ClicksEachHour10\00", align 16
@_ZN3ukm8builders19AppListAppClickData25kClicksEachHour10NameHashE = hidden local_unnamed_addr constant i64 1806588398743155997, align 8
@_ZN3ukm8builders19AppListAppClickData21kClicksEachHour11NameE = hidden local_unnamed_addr constant [17 x i8] c"ClicksEachHour11\00", align 16
@_ZN3ukm8builders19AppListAppClickData25kClicksEachHour11NameHashE = hidden local_unnamed_addr constant i64 3131444643108020140, align 8
@_ZN3ukm8builders19AppListAppClickData21kClicksEachHour12NameE = hidden local_unnamed_addr constant [17 x i8] c"ClicksEachHour12\00", align 16
@_ZN3ukm8builders19AppListAppClickData25kClicksEachHour12NameHashE = hidden local_unnamed_addr constant i64 2448014348189133351, align 8
@_ZN3ukm8builders19AppListAppClickData21kClicksEachHour13NameE = hidden local_unnamed_addr constant [17 x i8] c"ClicksEachHour13\00", align 16
@_ZN3ukm8builders19AppListAppClickData25kClicksEachHour13NameHashE = hidden local_unnamed_addr constant i64 -196305357853571270, align 8
@_ZN3ukm8builders19AppListAppClickData21kClicksEachHour14NameE = hidden local_unnamed_addr constant [17 x i8] c"ClicksEachHour14\00", align 16
@_ZN3ukm8builders19AppListAppClickData25kClicksEachHour14NameHashE = hidden local_unnamed_addr constant i64 -751752736775482054, align 8
@_ZN3ukm8builders19AppListAppClickData21kClicksEachHour15NameE = hidden local_unnamed_addr constant [17 x i8] c"ClicksEachHour15\00", align 16
@_ZN3ukm8builders19AppListAppClickData25kClicksEachHour15NameHashE = hidden local_unnamed_addr constant i64 841563503357754805, align 8
@_ZN3ukm8builders19AppListAppClickData21kClicksEachHour16NameE = hidden local_unnamed_addr constant [17 x i8] c"ClicksEachHour16\00", align 16
@_ZN3ukm8builders19AppListAppClickData25kClicksEachHour16NameHashE = hidden local_unnamed_addr constant i64 2083341464824283347, align 8
@_ZN3ukm8builders19AppListAppClickData21kClicksEachHour17NameE = hidden local_unnamed_addr constant [17 x i8] c"ClicksEachHour17\00", align 16
@_ZN3ukm8builders19AppListAppClickData25kClicksEachHour17NameHashE = hidden local_unnamed_addr constant i64 -2329355008831834833, align 8
@_ZN3ukm8builders19AppListAppClickData21kClicksEachHour18NameE = hidden local_unnamed_addr constant [17 x i8] c"ClicksEachHour18\00", align 16
@_ZN3ukm8builders19AppListAppClickData25kClicksEachHour18NameHashE = hidden local_unnamed_addr constant i64 8357842770757548892, align 8
@_ZN3ukm8builders19AppListAppClickData21kClicksEachHour19NameE = hidden local_unnamed_addr constant [17 x i8] c"ClicksEachHour19\00", align 16
@_ZN3ukm8builders19AppListAppClickData25kClicksEachHour19NameHashE = hidden local_unnamed_addr constant i64 9017652834579276383, align 8
@_ZN3ukm8builders19AppListAppClickData21kClicksEachHour20NameE = hidden local_unnamed_addr constant [17 x i8] c"ClicksEachHour20\00", align 16
@_ZN3ukm8builders19AppListAppClickData25kClicksEachHour20NameHashE = hidden local_unnamed_addr constant i64 -2137473322879491350, align 8
@_ZN3ukm8builders19AppListAppClickData21kClicksEachHour21NameE = hidden local_unnamed_addr constant [17 x i8] c"ClicksEachHour21\00", align 16
@_ZN3ukm8builders19AppListAppClickData25kClicksEachHour21NameHashE = hidden local_unnamed_addr constant i64 8993148668647496674, align 8
@_ZN3ukm8builders19AppListAppClickData21kClicksEachHour22NameE = hidden local_unnamed_addr constant [17 x i8] c"ClicksEachHour22\00", align 16
@_ZN3ukm8builders19AppListAppClickData25kClicksEachHour22NameHashE = hidden local_unnamed_addr constant i64 6608700521453268064, align 8
@_ZN3ukm8builders19AppListAppClickData21kClicksEachHour23NameE = hidden local_unnamed_addr constant [17 x i8] c"ClicksEachHour23\00", align 16
@_ZN3ukm8builders19AppListAppClickData25kClicksEachHour23NameHashE = hidden local_unnamed_addr constant i64 -8262122003427258413, align 8
@_ZN3ukm8builders19AppListAppClickData22kClicksLast24HoursNameE = hidden local_unnamed_addr constant [18 x i8] c"ClicksLast24Hours\00", align 16
@_ZN3ukm8builders19AppListAppClickData26kClicksLast24HoursNameHashE = hidden local_unnamed_addr constant i64 8208362521514978200, align 8
@_ZN3ukm8builders19AppListAppClickData19kClicksLastHourNameE = hidden local_unnamed_addr constant [15 x i8] c"ClicksLastHour\00", align 1
@_ZN3ukm8builders19AppListAppClickData23kClicksLastHourNameHashE = hidden local_unnamed_addr constant i64 -6859106999306128622, align 8
@_ZN3ukm8builders19AppListAppClickData21kLastLaunchedFromNameE = hidden local_unnamed_addr constant [17 x i8] c"LastLaunchedFrom\00", align 16
@_ZN3ukm8builders19AppListAppClickData25kLastLaunchedFromNameHashE = hidden local_unnamed_addr constant i64 -495834982782810416, align 8
@_ZN3ukm8builders19AppListAppClickData26kMostRecentlyUsedIndexNameE = hidden local_unnamed_addr constant [22 x i8] c"MostRecentlyUsedIndex\00", align 16
@_ZN3ukm8builders19AppListAppClickData30kMostRecentlyUsedIndexNameHashE = hidden local_unnamed_addr constant i64 4904327804870856216, align 8
@_ZN3ukm8builders19AppListAppClickData19kSequenceNumberNameE = hidden local_unnamed_addr constant [15 x i8] c"SequenceNumber\00", align 1
@_ZN3ukm8builders19AppListAppClickData23kSequenceNumberNameHashE = hidden local_unnamed_addr constant i64 3161886034278201905, align 8
@_ZN3ukm8builders19AppListAppClickData23kTimeSinceLastClickNameE = hidden local_unnamed_addr constant [19 x i8] c"TimeSinceLastClick\00", align 16
@_ZN3ukm8builders19AppListAppClickData27kTimeSinceLastClickNameHashE = hidden local_unnamed_addr constant i64 6482216598721160744, align 8
@_ZN3ukm8builders19AppListAppClickData16kTotalClicksNameE = hidden local_unnamed_addr constant [12 x i8] c"TotalClicks\00", align 1
@_ZN3ukm8builders19AppListAppClickData20kTotalClicksNameHashE = hidden local_unnamed_addr constant i64 -3546854182423763942, align 8
@_ZN3ukm8builders16AppListAppLaunch10kEntryNameE = hidden local_unnamed_addr constant [17 x i8] c"AppListAppLaunch\00", align 16
@_ZN3ukm8builders16AppListAppLaunch14kEntryNameHashE = hidden local_unnamed_addr constant i64 -1811287726082099789, align 8
@_ZTVN3ukm8builders16AppListAppLaunchE = hidden unnamed_addr constant { [4 x i8*] } { [4 x i8*] [i8* null, i8* null, i8* bitcast (void (%"class.ukm::builders::AppListAppLaunch"*)* @_ZN3ukm8builders16AppListAppLaunchD2Ev to i8*), i8* bitcast (void (%"class.ukm::builders::AppListAppLaunch"*)* @_ZN3ukm8builders16AppListAppLaunchD0Ev to i8*)] }, align 8
@_ZN3ukm8builders16AppListAppLaunch25kAllClicksLast24HoursNameE = hidden local_unnamed_addr constant [21 x i8] c"AllClicksLast24Hours\00", align 16
@_ZN3ukm8builders16AppListAppLaunch29kAllClicksLast24HoursNameHashE = hidden local_unnamed_addr constant i64 4575029519393656215, align 8
@_ZN3ukm8builders16AppListAppLaunch22kAllClicksLastHourNameE = hidden local_unnamed_addr constant [18 x i8] c"AllClicksLastHour\00", align 16
@_ZN3ukm8builders16AppListAppLaunch26kAllClicksLastHourNameHashE = hidden local_unnamed_addr constant i64 -3752119404093941635, align 8
@_ZN3ukm8builders16AppListAppLaunch12kAppTypeNameE = hidden local_unnamed_addr constant [8 x i8] c"AppType\00", align 1
@_ZN3ukm8builders16AppListAppLaunch16kAppTypeNameHashE = hidden local_unnamed_addr constant i64 8663828604683851647, align 8
@_ZN3ukm8builders16AppListAppLaunch16kClickMethodNameE = hidden local_unnamed_addr constant [12 x i8] c"ClickMethod\00", align 1
@_ZN3ukm8builders16AppListAppLaunch20kClickMethodNameHashE = hidden local_unnamed_addr constant i64 6788393749258903020, align 8
@_ZN3ukm8builders16AppListAppLaunch14kDayOfWeekNameE = hidden local_unnamed_addr constant [10 x i8] c"DayOfWeek\00", align 1
@_ZN3ukm8builders16AppListAppLaunch18kDayOfWeekNameHashE = hidden local_unnamed_addr constant i64 -2834735534568602335, align 8
@_ZN3ukm8builders16AppListAppLaunch15kDeviceModeNameE = hidden local_unnamed_addr constant [11 x i8] c"DeviceMode\00", align 1
@_ZN3ukm8builders16AppListAppLaunch19kDeviceModeNameHashE = hidden local_unnamed_addr constant i64 -894709574419518343, align 8
@_ZN3ukm8builders16AppListAppLaunch15kDeviceTypeNameE = hidden local_unnamed_addr constant [11 x i8] c"DeviceType\00", align 1
@_ZN3ukm8builders16AppListAppLaunch19kDeviceTypeNameHashE = hidden local_unnamed_addr constant i64 7795620498098931292, align 8
@_ZN3ukm8builders16AppListAppLaunch14kHourOfDayNameE = hidden local_unnamed_addr constant [10 x i8] c"HourOfDay\00", align 1
@_ZN3ukm8builders16AppListAppLaunch18kHourOfDayNameHashE = hidden local_unnamed_addr constant i64 7458652416968136217, align 8
@_ZN3ukm8builders16AppListAppLaunch17kLaunchedFromNameE = hidden local_unnamed_addr constant [13 x i8] c"LaunchedFrom\00", align 1
@_ZN3ukm8builders16AppListAppLaunch21kLaunchedFromNameHashE = hidden local_unnamed_addr constant i64 6515313514467325646, align 8
@_ZN3ukm8builders16AppListAppLaunch18kPositionIndexNameE = hidden local_unnamed_addr constant [14 x i8] c"PositionIndex\00", align 1
@_ZN3ukm8builders16AppListAppLaunch22kPositionIndexNameHashE = hidden local_unnamed_addr constant i64 -6933053053386484247, align 8
@_ZN3ukm8builders16AppListAppLaunch15kTotalHoursNameE = hidden local_unnamed_addr constant [11 x i8] c"TotalHours\00", align 1
@_ZN3ukm8builders16AppListAppLaunch19kTotalHoursNameHashE = hidden local_unnamed_addr constant i64 -3675003749638116448, align 8
@_ZN3ukm8builders27Autofill_CardUploadDecision10kEntryNameE = hidden local_unnamed_addr constant [28 x i8] c"Autofill.CardUploadDecision\00", align 16
@_ZN3ukm8builders27Autofill_CardUploadDecision14kEntryNameHashE = hidden local_unnamed_addr constant i64 3597047501124112026, align 8
@_ZTVN3ukm8builders27Autofill_CardUploadDecisionE = hidden unnamed_addr constant { [4 x i8*] } { [4 x i8*] [i8* null, i8* null, i8* bitcast (void (%"class.ukm::builders::Autofill_CardUploadDecision"*)* @_ZN3ukm8builders27Autofill_CardUploadDecisionD2Ev to i8*), i8* bitcast (void (%"class.ukm::builders::Autofill_CardUploadDecision"*)* @_ZN3ukm8builders27Autofill_CardUploadDecisionD0Ev to i8*)] }, align 8
@_ZN3ukm8builders27Autofill_CardUploadDecision19kUploadDecisionNameE = hidden local_unnamed_addr constant [15 x i8] c"UploadDecision\00", align 1
@_ZN3ukm8builders27Autofill_CardUploadDecision23kUploadDecisionNameHashE = hidden local_unnamed_addr constant i64 1530202151366371243, align 8
@_ZN3ukm8builders28Autofill_DeveloperEngagement10kEntryNameE = hidden local_unnamed_addr constant [29 x i8] c"Autofill.DeveloperEngagement\00", align 16
@_ZN3ukm8builders28Autofill_DeveloperEngagement14kEntryNameHashE = hidden local_unnamed_addr constant i64 -3896680770338577050, align 8
@_ZTVN3ukm8builders28Autofill_DeveloperEngagementE = hidden unnamed_addr constant { [4 x i8*] } { [4 x i8*] [i8* null, i8* null, i8* bitcast (void (%"class.ukm::builders::Autofill_DeveloperEngagement"*)* @_ZN3ukm8builders28Autofill_DeveloperEngagementD2Ev to i8*), i8* bitcast (void (%"class.ukm::builders::Autofill_DeveloperEngagement"*)* @_ZN3ukm8builders28Autofill_DeveloperEngagementD0Ev to i8*)] }, align 8
@_ZN3ukm8builders28Autofill_DeveloperEngagement24kDeveloperEngagementNameE = hidden local_unnamed_addr constant [20 x i8] c"DeveloperEngagement\00", align 16
@_ZN3ukm8builders28Autofill_DeveloperEngagement28kDeveloperEngagementNameHashE = hidden local_unnamed_addr constant i64 -2908409958058894019, align 8
@_ZN3ukm8builders28Autofill_DeveloperEngagement18kFormSignatureNameE = hidden local_unnamed_addr constant [14 x i8] c"FormSignature\00", align 1
@_ZN3ukm8builders28Autofill_DeveloperEngagement22kFormSignatureNameHashE = hidden local_unnamed_addr constant i64 4815584921581567107, align 8
@_ZN3ukm8builders28Autofill_DeveloperEngagement14kFormTypesNameE = hidden local_unnamed_addr constant [10 x i8] c"FormTypes\00", align 1
@_ZN3ukm8builders28Autofill_DeveloperEngagement18kFormTypesNameHashE = hidden local_unnamed_addr constant i64 -7679334262388673469, align 8
@_ZN3ukm8builders28Autofill_DeveloperEngagement20kIsForCreditCardNameE = hidden local_unnamed_addr constant [16 x i8] c"IsForCreditCard\00", align 16
@_ZN3ukm8builders28Autofill_DeveloperEngagement24kIsForCreditCardNameHashE = hidden local_unnamed_addr constant i64 -2953228551641263161, align 8
@_ZN3ukm8builders42Autofill_EditedAutofilledFieldAtSubmission10kEntryNameE = hidden local_unnamed_addr constant [43 x i8] c"Autofill.EditedAutofilledFieldAtSubmission\00", align 16
@_ZN3ukm8builders42Autofill_EditedAutofilledFieldAtSubmission14kEntryNameHashE = hidden local_unnamed_addr constant i64 -3377378124661850900, align 8
@_ZTVN3ukm8builders42Autofill_EditedAutofilledFieldAtSubmissionE = hidden unnamed_addr constant { [4 x i8*] } { [4 x i8*] [i8* null, i8* null, i8* bitcast (void (%"class.ukm::builders::Autofill_EditedAutofilledFieldAtSubmission"*)* @_ZN3ukm8builders42Autofill_EditedAutofilledFieldAtSubmissionD2Ev to i8*), i8* bitcast (void (%"class.ukm::builders::Autofill_EditedAutofilledFieldAtSubmission"*)* @_ZN3ukm8builders42Autofill_EditedAutofilledFieldAtSubmissionD0Ev to i8*)] }, align 8
@_ZN3ukm8builders42Autofill_EditedAutofilledFieldAtSubmission19kFieldSignatureNameE = hidden local_unnamed_addr constant [15 x i8] c"FieldSignature\00", align 1
@_ZN3ukm8builders42Autofill_EditedAutofilledFieldAtSubmission23kFieldSignatureNameHashE = hidden local_unnamed_addr constant i64 -5898708269882244805, align 8
@_ZN3ukm8builders42Autofill_EditedAutofilledFieldAtSubmission18kFormSignatureNameE = hidden local_unnamed_addr constant [14 x i8] c"FormSignature\00", align 1
@_ZN3ukm8builders42Autofill_EditedAutofilledFieldAtSubmission22kFormSignatureNameHashE = hidden local_unnamed_addr constant i64 4815584921581567107, align 8
@_ZN3ukm8builders42Autofill_EditedAutofilledFieldAtSubmission16kOverallTypeNameE = hidden local_unnamed_addr constant [12 x i8] c"OverallType\00", align 1
@_ZN3ukm8builders42Autofill_EditedAutofilledFieldAtSubmission20kOverallTypeNameHashE = hidden local_unnamed_addr constant i64 -1550484294858853540, align 8
@_ZN3ukm8builders24Autofill_FieldFillStatus10kEntryNameE = hidden local_unnamed_addr constant [25 x i8] c"Autofill.FieldFillStatus\00", align 16
@_ZN3ukm8builders24Autofill_FieldFillStatus14kEntryNameHashE = hidden local_unnamed_addr constant i64 -6990295125668076625, align 8
@_ZTVN3ukm8builders24Autofill_FieldFillStatusE = hidden unnamed_addr constant { [4 x i8*] } { [4 x i8*] [i8* null, i8* null, i8* bitcast (void (%"class.ukm::builders::Autofill_FieldFillStatus"*)* @_ZN3ukm8builders24Autofill_FieldFillStatusD2Ev to i8*), i8* bitcast (void (%"class.ukm::builders::Autofill_FieldFillStatus"*)* @_ZN3ukm8builders24Autofill_FieldFillStatusD0Ev to i8*)] }, align 8
@_ZN3ukm8builders24Autofill_FieldFillStatus19kFieldSignatureNameE = hidden local_unnamed_addr constant [15 x i8] c"FieldSignature\00", align 1
@_ZN3ukm8builders24Autofill_FieldFillStatus23kFieldSignatureNameHashE = hidden local_unnamed_addr constant i64 -5898708269882244805, align 8
@_ZN3ukm8builders24Autofill_FieldFillStatus18kFormSignatureNameE = hidden local_unnamed_addr constant [14 x i8] c"FormSignature\00", align 1
@_ZN3ukm8builders24Autofill_FieldFillStatus22kFormSignatureNameHashE = hidden local_unnamed_addr constant i64 4815584921581567107, align 8
@_ZN3ukm8builders24Autofill_FieldFillStatus17kIsAutofilledNameE = hidden local_unnamed_addr constant [13 x i8] c"IsAutofilled\00", align 1
@_ZN3ukm8builders24Autofill_FieldFillStatus21kIsAutofilledNameHashE = hidden local_unnamed_addr constant i64 -895468745745046849, align 8
@_ZN3ukm8builders24Autofill_FieldFillStatus32kMillisecondsSinceFormParsedNameE = hidden local_unnamed_addr constant [28 x i8] c"MillisecondsSinceFormParsed\00", align 16
@_ZN3ukm8builders24Autofill_FieldFillStatus36kMillisecondsSinceFormParsedNameHashE = hidden local_unnamed_addr constant i64 822617360850595330, align 8
@_ZN3ukm8builders24Autofill_FieldFillStatus21kPredictionSourceNameE = hidden local_unnamed_addr constant [17 x i8] c"PredictionSource\00", align 16
@_ZN3ukm8builders24Autofill_FieldFillStatus25kPredictionSourceNameHashE = hidden local_unnamed_addr constant i64 5017294346205954242, align 8
@_ZN3ukm8builders24Autofill_FieldFillStatus20kValidationEventNameE = hidden local_unnamed_addr constant [16 x i8] c"ValidationEvent\00", align 16
@_ZN3ukm8builders24Autofill_FieldFillStatus24kValidationEventNameHashE = hidden local_unnamed_addr constant i64 -1085186175142762244, align 8
@_ZN3ukm8builders24Autofill_FieldFillStatus28kWasPreviouslyAutofilledNameE = hidden local_unnamed_addr constant [24 x i8] c"WasPreviouslyAutofilled\00", align 16
@_ZN3ukm8builders24Autofill_FieldFillStatus32kWasPreviouslyAutofilledNameHashE = hidden local_unnamed_addr constant i64 1646712375187153208, align 8
@_ZN3ukm8builders28Autofill_FieldTypeValidation10kEntryNameE = hidden local_unnamed_addr constant [29 x i8] c"Autofill.FieldTypeValidation\00", align 16
@_ZN3ukm8builders28Autofill_FieldTypeValidation14kEntryNameHashE = hidden local_unnamed_addr constant i64 1290380890049589579, align 8
@_ZTVN3ukm8builders28Autofill_FieldTypeValidationE = hidden unnamed_addr constant { [4 x i8*] } { [4 x i8*] [i8* null, i8* null, i8* bitcast (void (%"class.ukm::builders::Autofill_FieldTypeValidation"*)* @_ZN3ukm8builders28Autofill_FieldTypeValidationD2Ev to i8*), i8* bitcast (void (%"class.ukm::builders::Autofill_FieldTypeValidation"*)* @_ZN3ukm8builders28Autofill_FieldTypeValidationD0Ev to i8*)] }, align 8
@_ZN3ukm8builders28Autofill_FieldTypeValidation15kActualTypeNameE = hidden local_unnamed_addr constant [11 x i8] c"ActualType\00", align 1
@_ZN3ukm8builders28Autofill_FieldTypeValidation19kActualTypeNameHashE = hidden local_unnamed_addr constant i64 4245305632546756744, align 8
@_ZN3ukm8builders28Autofill_FieldTypeValidation19kFieldSignatureNameE = hidden local_unnamed_addr constant [15 x i8] c"FieldSignature\00", align 1
@_ZN3ukm8builders28Autofill_FieldTypeValidation23kFieldSignatureNameHashE = hidden local_unnamed_addr constant i64 -5898708269882244805, align 8
@_ZN3ukm8builders28Autofill_FieldTypeValidation18kFormSignatureNameE = hidden local_unnamed_addr constant [14 x i8] c"FormSignature\00", align 1
@_ZN3ukm8builders28Autofill_FieldTypeValidation22kFormSignatureNameHashE = hidden local_unnamed_addr constant i64 4815584921581567107, align 8
@_ZN3ukm8builders28Autofill_FieldTypeValidation32kMillisecondsSinceFormParsedNameE = hidden local_unnamed_addr constant [28 x i8] c"MillisecondsSinceFormParsed\00", align 16
@_ZN3ukm8builders28Autofill_FieldTypeValidation36kMillisecondsSinceFormParsedNameHashE = hidden local_unnamed_addr constant i64 822617360850595330, align 8
@_ZN3ukm8builders28Autofill_FieldTypeValidation18kPredictedTypeNameE = hidden local_unnamed_addr constant [14 x i8] c"PredictedType\00", align 1
@_ZN3ukm8builders28Autofill_FieldTypeValidation22kPredictedTypeNameHashE = hidden local_unnamed_addr constant i64 -5327778740113641553, align 8
@_ZN3ukm8builders28Autofill_FieldTypeValidation21kPredictionSourceNameE = hidden local_unnamed_addr constant [17 x i8] c"PredictionSource\00", align 16
@_ZN3ukm8builders28Autofill_FieldTypeValidation25kPredictionSourceNameHashE = hidden local_unnamed_addr constant i64 5017294346205954242, align 8
@_ZN3ukm8builders28Autofill_FieldTypeValidation20kValidationEventNameE = hidden local_unnamed_addr constant [16 x i8] c"ValidationEvent\00", align 16
@_ZN3ukm8builders28Autofill_FieldTypeValidation24kValidationEventNameHashE = hidden local_unnamed_addr constant i64 -1085186175142762244, align 8
@_ZN3ukm8builders18Autofill_FormEvent10kEntryNameE = hidden local_unnamed_addr constant [19 x i8] c"Autofill.FormEvent\00", align 16
@_ZN3ukm8builders18Autofill_FormEvent14kEntryNameHashE = hidden local_unnamed_addr constant i64 -1815088287185062091, align 8
@_ZTVN3ukm8builders18Autofill_FormEventE = hidden unnamed_addr constant { [4 x i8*] } { [4 x i8*] [i8* null, i8* null, i8* bitcast (void (%"class.ukm::builders::Autofill_FormEvent"*)* @_ZN3ukm8builders18Autofill_FormEventD2Ev to i8*), i8* bitcast (void (%"class.ukm::builders::Autofill_FormEvent"*)* @_ZN3ukm8builders18Autofill_FormEventD0Ev to i8*)] }, align 8
@_ZN3ukm8builders18Autofill_FormEvent22kAutofillFormEventNameE = hidden local_unnamed_addr constant [18 x i8] c"AutofillFormEvent\00", align 16
@_ZN3ukm8builders18Autofill_FormEvent26kAutofillFormEventNameHashE = hidden local_unnamed_addr constant i64 101161368576121811, align 8
@_ZN3ukm8builders18Autofill_FormEvent14kFormTypesNameE = hidden local_unnamed_addr constant [10 x i8] c"FormTypes\00", align 1
@_ZN3ukm8builders18Autofill_FormEvent18kFormTypesNameHashE = hidden local_unnamed_addr constant i64 -7679334262388673469, align 8
@_ZN3ukm8builders18Autofill_FormEvent32kMillisecondsSinceFormParsedNameE = hidden local_unnamed_addr constant [28 x i8] c"MillisecondsSinceFormParsed\00", align 16
@_ZN3ukm8builders18Autofill_FormEvent36kMillisecondsSinceFormParsedNameHashE = hidden local_unnamed_addr constant i64 822617360850595330, align 8
@_ZN3ukm8builders27Autofill_FormFillSuccessIOS10kEntryNameE = hidden local_unnamed_addr constant [28 x i8] c"Autofill.FormFillSuccessIOS\00", align 16
@_ZN3ukm8builders27Autofill_FormFillSuccessIOS14kEntryNameHashE = hidden local_unnamed_addr constant i64 409508311075101037, align 8
@_ZTVN3ukm8builders27Autofill_FormFillSuccessIOSE = hidden unnamed_addr constant { [4 x i8*] } { [4 x i8*] [i8* null, i8* null, i8* bitcast (void (%"class.ukm::builders::Autofill_FormFillSuccessIOS"*)* @_ZN3ukm8builders27Autofill_FormFillSuccessIOSD2Ev to i8*), i8* bitcast (void (%"class.ukm::builders::Autofill_FormFillSuccessIOS"*)* @_ZN3ukm8builders27Autofill_FormFillSuccessIOSD0Ev to i8*)] }, align 8
@_ZN3ukm8builders27Autofill_FormFillSuccessIOS20kFormFillSuccessNameE = hidden local_unnamed_addr constant [16 x i8] c"FormFillSuccess\00", align 16
@_ZN3ukm8builders27Autofill_FormFillSuccessIOS24kFormFillSuccessNameHashE = hidden local_unnamed_addr constant i64 4441642850899500057, align 8
@_ZN3ukm8builders22Autofill_FormSubmitted10kEntryNameE = hidden local_unnamed_addr constant [23 x i8] c"Autofill.FormSubmitted\00", align 16
@_ZN3ukm8builders22Autofill_FormSubmitted14kEntryNameHashE = hidden local_unnamed_addr constant i64 -5655733072698466253, align 8
@_ZTVN3ukm8builders22Autofill_FormSubmittedE = hidden unnamed_addr constant { [4 x i8*] } { [4 x i8*] [i8* null, i8* null, i8* bitcast (void (%"class.ukm::builders::Autofill_FormSubmitted"*)* @_ZN3ukm8builders22Autofill_FormSubmittedD2Ev to i8*), i8* bitcast (void (%"class.ukm::builders::Autofill_FormSubmitted"*)* @_ZN3ukm8builders22Autofill_FormSubmittedD0Ev to i8*)] }, align 8
@_ZN3ukm8builders22Autofill_FormSubmitted31kAutofillFormSubmittedStateNameE = hidden local_unnamed_addr constant [27 x i8] c"AutofillFormSubmittedState\00", align 16
@_ZN3ukm8builders22Autofill_FormSubmitted35kAutofillFormSubmittedStateNameHashE = hidden local_unnamed_addr constant i64 4964829566871574464, align 8
@_ZN3ukm8builders22Autofill_FormSubmitted18kFormSignatureNameE = hidden local_unnamed_addr constant [14 x i8] c"FormSignature\00", align 1
@_ZN3ukm8builders22Autofill_FormSubmitted22kFormSignatureNameHashE = hidden local_unnamed_addr constant i64 4815584921581567107, align 8
@_ZN3ukm8builders22Autofill_FormSubmitted14kFormTypesNameE = hidden local_unnamed_addr constant [10 x i8] c"FormTypes\00", align 1
@_ZN3ukm8builders22Autofill_FormSubmitted18kFormTypesNameHashE = hidden local_unnamed_addr constant i64 -7679334262388673469, align 8
@_ZN3ukm8builders22Autofill_FormSubmitted19kHasUpiVpaFieldNameE = hidden local_unnamed_addr constant [15 x i8] c"HasUpiVpaField\00", align 1
@_ZN3ukm8builders22Autofill_FormSubmitted23kHasUpiVpaFieldNameHashE = hidden local_unnamed_addr constant i64 3630243921977557291, align 8
@_ZN3ukm8builders22Autofill_FormSubmitted20kIsForCreditCardNameE = hidden local_unnamed_addr constant [16 x i8] c"IsForCreditCard\00", align 16
@_ZN3ukm8builders22Autofill_FormSubmitted24kIsForCreditCardNameHashE = hidden local_unnamed_addr constant i64 -2953228551641263161, align 8
@_ZN3ukm8builders22Autofill_FormSubmitted32kMillisecondsSinceFormParsedNameE = hidden local_unnamed_addr constant [28 x i8] c"MillisecondsSinceFormParsed\00", align 16
@_ZN3ukm8builders22Autofill_FormSubmitted36kMillisecondsSinceFormParsedNameHashE = hidden local_unnamed_addr constant i64 822617360850595330, align 8
@_ZN3ukm8builders48Autofill_HiddenRepresentationalFieldSkipDecision10kEntryNameE = hidden local_unnamed_addr constant [49 x i8] c"Autofill.HiddenRepresentationalFieldSkipDecision\00", align 16
@_ZN3ukm8builders48Autofill_HiddenRepresentationalFieldSkipDecision14kEntryNameHashE = hidden local_unnamed_addr constant i64 -3965529250286627588, align 8
@_ZTVN3ukm8builders48Autofill_HiddenRepresentationalFieldSkipDecisionE = hidden unnamed_addr constant { [4 x i8*] } { [4 x i8*] [i8* null, i8* null, i8* bitcast (void (%"class.ukm::builders::Autofill_HiddenRepresentationalFieldSkipDecision"*)* @_ZN3ukm8builders48Autofill_HiddenRepresentationalFieldSkipDecisionD2Ev to i8*), i8* bitcast (void (%"class.ukm::builders::Autofill_HiddenRepresentationalFieldSkipDecision"*)* @_ZN3ukm8builders48Autofill_HiddenRepresentationalFieldSkipDecisionD0Ev to i8*)] }, align 8
@_ZN3ukm8builders48Autofill_HiddenRepresentationalFieldSkipDecision21kFieldOverallTypeNameE = hidden local_unnamed_addr constant [17 x i8] c"FieldOverallType\00", align 16
@_ZN3ukm8builders48Autofill_HiddenRepresentationalFieldSkipDecision25kFieldOverallTypeNameHashE = hidden local_unnamed_addr constant i64 5024560379185631865, align 8
@_ZN3ukm8builders48Autofill_HiddenRepresentationalFieldSkipDecision19kFieldSignatureNameE = hidden local_unnamed_addr constant [15 x i8] c"FieldSignature\00", align 1
@_ZN3ukm8builders48Autofill_HiddenRepresentationalFieldSkipDecision23kFieldSignatureNameHashE = hidden local_unnamed_addr constant i64 -5898708269882244805, align 8
@_ZN3ukm8builders48Autofill_HiddenRepresentationalFieldSkipDecision19kFieldTypeGroupNameE = hidden local_unnamed_addr constant [15 x i8] c"FieldTypeGroup\00", align 1
@_ZN3ukm8builders48Autofill_HiddenRepresentationalFieldSkipDecision23kFieldTypeGroupNameHashE = hidden local_unnamed_addr constant i64 4771816394504495494, align 8
@_ZN3ukm8builders48Autofill_HiddenRepresentationalFieldSkipDecision18kFormSignatureNameE = hidden local_unnamed_addr constant [14 x i8] c"FormSignature\00", align 1
@_ZN3ukm8builders48Autofill_HiddenRepresentationalFieldSkipDecision22kFormSignatureNameHashE = hidden local_unnamed_addr constant i64 4815584921581567107, align 8
@_ZN3ukm8builders48Autofill_HiddenRepresentationalFieldSkipDecision18kHeuristicTypeNameE = hidden local_unnamed_addr constant [14 x i8] c"HeuristicType\00", align 1
@_ZN3ukm8builders48Autofill_HiddenRepresentationalFieldSkipDecision22kHeuristicTypeNameHashE = hidden local_unnamed_addr constant i64 -1212063223282492487, align 8
@_ZN3ukm8builders48Autofill_HiddenRepresentationalFieldSkipDecision18kHtmlFieldModeNameE = hidden local_unnamed_addr constant [14 x i8] c"HtmlFieldMode\00", align 1
@_ZN3ukm8builders48Autofill_HiddenRepresentationalFieldSkipDecision22kHtmlFieldModeNameHashE = hidden local_unnamed_addr constant i64 -3294837187846168315, align 8
@_ZN3ukm8builders48Autofill_HiddenRepresentationalFieldSkipDecision18kHtmlFieldTypeNameE = hidden local_unnamed_addr constant [14 x i8] c"HtmlFieldType\00", align 1
@_ZN3ukm8builders48Autofill_HiddenRepresentationalFieldSkipDecision22kHtmlFieldTypeNameHashE = hidden local_unnamed_addr constant i64 -5425132533489665519, align 8
@_ZN3ukm8builders48Autofill_HiddenRepresentationalFieldSkipDecision14kIsSkippedNameE = hidden local_unnamed_addr constant [10 x i8] c"IsSkipped\00", align 1
@_ZN3ukm8builders48Autofill_HiddenRepresentationalFieldSkipDecision18kIsSkippedNameHashE = hidden local_unnamed_addr constant i64 -4576906299675017022, align 8
@_ZN3ukm8builders48Autofill_HiddenRepresentationalFieldSkipDecision15kServerTypeNameE = hidden local_unnamed_addr constant [11 x i8] c"ServerType\00", align 1
@_ZN3ukm8builders48Autofill_HiddenRepresentationalFieldSkipDecision19kServerTypeNameHashE = hidden local_unnamed_addr constant i64 3640361506783159573, align 8
@_ZN3ukm8builders27Autofill_InteractedWithForm10kEntryNameE = hidden local_unnamed_addr constant [28 x i8] c"Autofill.InteractedWithForm\00", align 16
@_ZN3ukm8builders27Autofill_InteractedWithForm14kEntryNameHashE = hidden local_unnamed_addr constant i64 -5503630508180926402, align 8
@_ZTVN3ukm8builders27Autofill_InteractedWithFormE = hidden unnamed_addr constant { [4 x i8*] } { [4 x i8*] [i8* null, i8* null, i8* bitcast (void (%"class.ukm::builders::Autofill_InteractedWithForm"*)* @_ZN3ukm8builders27Autofill_InteractedWithFormD2Ev to i8*), i8* bitcast (void (%"class.ukm::builders::Autofill_InteractedWithForm"*)* @_ZN3ukm8builders27Autofill_InteractedWithFormD0Ev to i8*)] }, align 8
@_ZN3ukm8builders27Autofill_InteractedWithForm18kFormSignatureNameE = hidden local_unnamed_addr constant [14 x i8] c"FormSignature\00", align 1
@_ZN3ukm8builders27Autofill_InteractedWithForm22kFormSignatureNameHashE = hidden local_unnamed_addr constant i64 4815584921581567107, align 8
@_ZN3ukm8builders27Autofill_InteractedWithForm14kFormTypesNameE = hidden local_unnamed_addr constant [10 x i8] c"FormTypes\00", align 1
@_ZN3ukm8builders27Autofill_InteractedWithForm18kFormTypesNameHashE = hidden local_unnamed_addr constant i64 -7679334262388673469, align 8
@_ZN3ukm8builders27Autofill_InteractedWithForm20kIsForCreditCardNameE = hidden local_unnamed_addr constant [16 x i8] c"IsForCreditCard\00", align 16
@_ZN3ukm8builders27Autofill_InteractedWithForm24kIsForCreditCardNameHashE = hidden local_unnamed_addr constant i64 -2953228551641263161, align 8
@_ZN3ukm8builders27Autofill_InteractedWithForm25kLocalRecordTypeCountNameE = hidden local_unnamed_addr constant [21 x i8] c"LocalRecordTypeCount\00", align 16
@_ZN3ukm8builders27Autofill_InteractedWithForm29kLocalRecordTypeCountNameHashE = hidden local_unnamed_addr constant i64 4967504613046448052, align 8
@_ZN3ukm8builders27Autofill_InteractedWithForm26kServerRecordTypeCountNameE = hidden local_unnamed_addr constant [22 x i8] c"ServerRecordTypeCount\00", align 16
@_ZN3ukm8builders27Autofill_InteractedWithForm30kServerRecordTypeCountNameHashE = hidden local_unnamed_addr constant i64 7268279397149312763, align 8
@_ZN3ukm8builders49Autofill_RepeatedServerTypePredictionRationalized10kEntryNameE = hidden local_unnamed_addr constant [50 x i8] c"Autofill.RepeatedServerTypePredictionRationalized\00", align 16
@_ZN3ukm8builders49Autofill_RepeatedServerTypePredictionRationalized14kEntryNameHashE = hidden local_unnamed_addr constant i64 -8025585933764927115, align 8
@_ZTVN3ukm8builders49Autofill_RepeatedServerTypePredictionRationalizedE = hidden unnamed_addr constant { [4 x i8*] } { [4 x i8*] [i8* null, i8* null, i8* bitcast (void (%"class.ukm::builders::Autofill_RepeatedServerTypePredictionRationalized"*)* @_ZN3ukm8builders49Autofill_RepeatedServerTypePredictionRationalizedD2Ev to i8*), i8* bitcast (void (%"class.ukm::builders::Autofill_RepeatedServerTypePredictionRationalized"*)* @_ZN3ukm8builders49Autofill_RepeatedServerTypePredictionRationalizedD0Ev to i8*)] }, align 8
@_ZN3ukm8builders49Autofill_RepeatedServerTypePredictionRationalized24kFieldNewOverallTypeNameE = hidden local_unnamed_addr constant [20 x i8] c"FieldNewOverallType\00", align 16
@_ZN3ukm8builders49Autofill_RepeatedServerTypePredictionRationalized28kFieldNewOverallTypeNameHashE = hidden local_unnamed_addr constant i64 -783908110489854975, align 8
@_ZN3ukm8builders49Autofill_RepeatedServerTypePredictionRationalized24kFieldOldOverallTypeNameE = hidden local_unnamed_addr constant [20 x i8] c"FieldOldOverallType\00", align 16
@_ZN3ukm8builders49Autofill_RepeatedServerTypePredictionRationalized28kFieldOldOverallTypeNameHashE = hidden local_unnamed_addr constant i64 -2017602147650554771, align 8
@_ZN3ukm8builders49Autofill_RepeatedServerTypePredictionRationalized19kFieldSignatureNameE = hidden local_unnamed_addr constant [15 x i8] c"FieldSignature\00", align 1
@_ZN3ukm8builders49Autofill_RepeatedServerTypePredictionRationalized23kFieldSignatureNameHashE = hidden local_unnamed_addr constant i64 -5898708269882244805, align 8
@_ZN3ukm8builders49Autofill_RepeatedServerTypePredictionRationalized19kFieldTypeGroupNameE = hidden local_unnamed_addr constant [15 x i8] c"FieldTypeGroup\00", align 1
@_ZN3ukm8builders49Autofill_RepeatedServerTypePredictionRationalized23kFieldTypeGroupNameHashE = hidden local_unnamed_addr constant i64 4771816394504495494, align 8
@_ZN3ukm8builders49Autofill_RepeatedServerTypePredictionRationalized18kFormSignatureNameE = hidden local_unnamed_addr constant [14 x i8] c"FormSignature\00", align 1
@_ZN3ukm8builders49Autofill_RepeatedServerTypePredictionRationalized22kFormSignatureNameHashE = hidden local_unnamed_addr constant i64 4815584921581567107, align 8
@_ZN3ukm8builders49Autofill_RepeatedServerTypePredictionRationalized18kHeuristicTypeNameE = hidden local_unnamed_addr constant [14 x i8] c"HeuristicType\00", align 1
@_ZN3ukm8builders49Autofill_RepeatedServerTypePredictionRationalized22kHeuristicTypeNameHashE = hidden local_unnamed_addr constant i64 -1212063223282492487, align 8
@_ZN3ukm8builders49Autofill_RepeatedServerTypePredictionRationalized18kHtmlFieldModeNameE = hidden local_unnamed_addr constant [14 x i8] c"HtmlFieldMode\00", align 1
@_ZN3ukm8builders49Autofill_RepeatedServerTypePredictionRationalized22kHtmlFieldModeNameHashE = hidden local_unnamed_addr constant i64 -3294837187846168315, align 8
@_ZN3ukm8builders49Autofill_RepeatedServerTypePredictionRationalized18kHtmlFieldTypeNameE = hidden local_unnamed_addr constant [14 x i8] c"HtmlFieldType\00", align 1
@_ZN3ukm8builders49Autofill_RepeatedServerTypePredictionRationalized22kHtmlFieldTypeNameHashE = hidden local_unnamed_addr constant i64 -5425132533489665519, align 8
@_ZN3ukm8builders49Autofill_RepeatedServerTypePredictionRationalized15kServerTypeNameE = hidden local_unnamed_addr constant [11 x i8] c"ServerType\00", align 1
@_ZN3ukm8builders49Autofill_RepeatedServerTypePredictionRationalized19kServerTypeNameHashE = hidden local_unnamed_addr constant i64 3640361506783159573, align 8
@_ZN3ukm8builders25Autofill_SuggestionFilled10kEntryNameE = hidden local_unnamed_addr constant [26 x i8] c"Autofill.SuggestionFilled\00", align 16
@_ZN3ukm8builders25Autofill_SuggestionFilled14kEntryNameHashE = hidden local_unnamed_addr constant i64 -743475609020666994, align 8
@_ZTVN3ukm8builders25Autofill_SuggestionFilledE = hidden unnamed_addr constant { [4 x i8*] } { [4 x i8*] [i8* null, i8* null, i8* bitcast (void (%"class.ukm::builders::Autofill_SuggestionFilled"*)* @_ZN3ukm8builders25Autofill_SuggestionFilledD2Ev to i8*), i8* bitcast (void (%"class.ukm::builders::Autofill_SuggestionFilled"*)* @_ZN3ukm8builders25Autofill_SuggestionFilledD0Ev to i8*)] }, align 8
@_ZN3ukm8builders25Autofill_SuggestionFilled19kFieldSignatureNameE = hidden local_unnamed_addr constant [15 x i8] c"FieldSignature\00", align 1
@_ZN3ukm8builders25Autofill_SuggestionFilled23kFieldSignatureNameHashE = hidden local_unnamed_addr constant i64 -5898708269882244805, align 8
@_ZN3ukm8builders25Autofill_SuggestionFilled18kFormSignatureNameE = hidden local_unnamed_addr constant [14 x i8] c"FormSignature\00", align 1
@_ZN3ukm8builders25Autofill_SuggestionFilled22kFormSignatureNameHashE = hidden local_unnamed_addr constant i64 4815584921581567107, align 8
@_ZN3ukm8builders25Autofill_SuggestionFilled20kIsForCreditCardNameE = hidden local_unnamed_addr constant [16 x i8] c"IsForCreditCard\00", align 16
@_ZN3ukm8builders25Autofill_SuggestionFilled24kIsForCreditCardNameHashE = hidden local_unnamed_addr constant i64 -2953228551641263161, align 8
@_ZN3ukm8builders25Autofill_SuggestionFilled32kMillisecondsSinceFormParsedNameE = hidden local_unnamed_addr constant [28 x i8] c"MillisecondsSinceFormParsed\00", align 16
@_ZN3ukm8builders25Autofill_SuggestionFilled36kMillisecondsSinceFormParsedNameHashE = hidden local_unnamed_addr constant i64 822617360850595330, align 8
@_ZN3ukm8builders25Autofill_SuggestionFilled15kRecordTypeNameE = hidden local_unnamed_addr constant [11 x i8] c"RecordType\00", align 1
@_ZN3ukm8builders25Autofill_SuggestionFilled19kRecordTypeNameHashE = hidden local_unnamed_addr constant i64 2556852903161176255, align 8
@_ZN3ukm8builders25Autofill_SuggestionsShown10kEntryNameE = hidden local_unnamed_addr constant [26 x i8] c"Autofill.SuggestionsShown\00", align 16
@_ZN3ukm8builders25Autofill_SuggestionsShown14kEntryNameHashE = hidden local_unnamed_addr constant i64 7579660929739851736, align 8
@_ZTVN3ukm8builders25Autofill_SuggestionsShownE = hidden unnamed_addr constant { [4 x i8*] } { [4 x i8*] [i8* null, i8* null, i8* bitcast (void (%"class.ukm::builders::Autofill_SuggestionsShown"*)* @_ZN3ukm8builders25Autofill_SuggestionsShownD2Ev to i8*), i8* bitcast (void (%"class.ukm::builders::Autofill_SuggestionsShown"*)* @_ZN3ukm8builders25Autofill_SuggestionsShownD0Ev to i8*)] }, align 8
@_ZN3ukm8builders25Autofill_SuggestionsShown19kFieldSignatureNameE = hidden local_unnamed_addr constant [15 x i8] c"FieldSignature\00", align 1
@_ZN3ukm8builders25Autofill_SuggestionsShown23kFieldSignatureNameHashE = hidden local_unnamed_addr constant i64 -5898708269882244805, align 8
@_ZN3ukm8builders25Autofill_SuggestionsShown18kFormSignatureNameE = hidden local_unnamed_addr constant [14 x i8] c"FormSignature\00", align 1
@_ZN3ukm8builders25Autofill_SuggestionsShown22kFormSignatureNameHashE = hidden local_unnamed_addr constant i64 4815584921581567107, align 8
@_ZN3ukm8builders25Autofill_SuggestionsShown18kHeuristicTypeNameE = hidden local_unnamed_addr constant [14 x i8] c"HeuristicType\00", align 1
@_ZN3ukm8builders25Autofill_SuggestionsShown22kHeuristicTypeNameHashE = hidden local_unnamed_addr constant i64 -1212063223282492487, align 8
@_ZN3ukm8builders25Autofill_SuggestionsShown18kHtmlFieldTypeNameE = hidden local_unnamed_addr constant [14 x i8] c"HtmlFieldType\00", align 1
@_ZN3ukm8builders25Autofill_SuggestionsShown22kHtmlFieldTypeNameHashE = hidden local_unnamed_addr constant i64 -5425132533489665519, align 8
@_ZN3ukm8builders25Autofill_SuggestionsShown32kMillisecondsSinceFormParsedNameE = hidden local_unnamed_addr constant [28 x i8] c"MillisecondsSinceFormParsed\00", align 16
@_ZN3ukm8builders25Autofill_SuggestionsShown36kMillisecondsSinceFormParsedNameHashE = hidden local_unnamed_addr constant i64 822617360850595330, align 8
@_ZN3ukm8builders25Autofill_SuggestionsShown15kServerTypeNameE = hidden local_unnamed_addr constant [11 x i8] c"ServerType\00", align 1
@_ZN3ukm8builders25Autofill_SuggestionsShown19kServerTypeNameHashE = hidden local_unnamed_addr constant i64 3640361506783159573, align 8
@_ZN3ukm8builders27Autofill_TextFieldDidChange10kEntryNameE = hidden local_unnamed_addr constant [28 x i8] c"Autofill.TextFieldDidChange\00", align 16
@_ZN3ukm8builders27Autofill_TextFieldDidChange14kEntryNameHashE = hidden local_unnamed_addr constant i64 8376184896509210883, align 8
@_ZTVN3ukm8builders27Autofill_TextFieldDidChangeE = hidden unnamed_addr constant { [4 x i8*] } { [4 x i8*] [i8* null, i8* null, i8* bitcast (void (%"class.ukm::builders::Autofill_TextFieldDidChange"*)* @_ZN3ukm8builders27Autofill_TextFieldDidChangeD2Ev to i8*), i8* bitcast (void (%"class.ukm::builders::Autofill_TextFieldDidChange"*)* @_ZN3ukm8builders27Autofill_TextFieldDidChangeD0Ev to i8*)] }, align 8
@_ZN3ukm8builders27Autofill_TextFieldDidChange19kFieldSignatureNameE = hidden local_unnamed_addr constant [15 x i8] c"FieldSignature\00", align 1
@_ZN3ukm8builders27Autofill_TextFieldDidChange23kFieldSignatureNameHashE = hidden local_unnamed_addr constant i64 -5898708269882244805, align 8
@_ZN3ukm8builders27Autofill_TextFieldDidChange19kFieldTypeGroupNameE = hidden local_unnamed_addr constant [15 x i8] c"FieldTypeGroup\00", align 1
@_ZN3ukm8builders27Autofill_TextFieldDidChange23kFieldTypeGroupNameHashE = hidden local_unnamed_addr constant i64 4771816394504495494, align 8
@_ZN3ukm8builders27Autofill_TextFieldDidChange18kFormSignatureNameE = hidden local_unnamed_addr constant [14 x i8] c"FormSignature\00", align 1
@_ZN3ukm8builders27Autofill_TextFieldDidChange22kFormSignatureNameHashE = hidden local_unnamed_addr constant i64 4815584921581567107, align 8
@_ZN3ukm8builders27Autofill_TextFieldDidChange18kHeuristicTypeNameE = hidden local_unnamed_addr constant [14 x i8] c"HeuristicType\00", align 1
@_ZN3ukm8builders27Autofill_TextFieldDidChange22kHeuristicTypeNameHashE = hidden local_unnamed_addr constant i64 -1212063223282492487, align 8
@_ZN3ukm8builders27Autofill_TextFieldDidChange18kHtmlFieldModeNameE = hidden local_unnamed_addr constant [14 x i8] c"HtmlFieldMode\00", align 1
@_ZN3ukm8builders27Autofill_TextFieldDidChange22kHtmlFieldModeNameHashE = hidden local_unnamed_addr constant i64 -3294837187846168315, align 8
@_ZN3ukm8builders27Autofill_TextFieldDidChange18kHtmlFieldTypeNameE = hidden local_unnamed_addr constant [14 x i8] c"HtmlFieldType\00", align 1
@_ZN3ukm8builders27Autofill_TextFieldDidChange22kHtmlFieldTypeNameHashE = hidden local_unnamed_addr constant i64 -5425132533489665519, align 8
@_ZN3ukm8builders27Autofill_TextFieldDidChange17kIsAutofilledNameE = hidden local_unnamed_addr constant [13 x i8] c"IsAutofilled\00", align 1
@_ZN3ukm8builders27Autofill_TextFieldDidChange21kIsAutofilledNameHashE = hidden local_unnamed_addr constant i64 -895468745745046849, align 8
@_ZN3ukm8builders27Autofill_TextFieldDidChange12kIsEmptyNameE = hidden local_unnamed_addr constant [8 x i8] c"IsEmpty\00", align 1
@_ZN3ukm8builders27Autofill_TextFieldDidChange16kIsEmptyNameHashE = hidden local_unnamed_addr constant i64 -5112455899838944351, align 8
@_ZN3ukm8builders27Autofill_TextFieldDidChange32kMillisecondsSinceFormParsedNameE = hidden local_unnamed_addr constant [28 x i8] c"MillisecondsSinceFormParsed\00", align 16
@_ZN3ukm8builders27Autofill_TextFieldDidChange36kMillisecondsSinceFormParsedNameHashE = hidden local_unnamed_addr constant i64 822617360850595330, align 8
@_ZN3ukm8builders27Autofill_TextFieldDidChange15kServerTypeNameE = hidden local_unnamed_addr constant [11 x i8] c"ServerType\00", align 1
@_ZN3ukm8builders27Autofill_TextFieldDidChange19kServerTypeNameHashE = hidden local_unnamed_addr constant i64 3640361506783159573, align 8
@_ZN3ukm8builders36AutofillAssistant_InChromeTriggering10kEntryNameE = hidden local_unnamed_addr constant [37 x i8] c"AutofillAssistant.InChromeTriggering\00", align 16
@_ZN3ukm8builders36AutofillAssistant_InChromeTriggering14kEntryNameHashE = hidden local_unnamed_addr constant i64 -6865689947775554120, align 8
@_ZTVN3ukm8builders36AutofillAssistant_InChromeTriggeringE = hidden unnamed_addr constant { [4 x i8*] } { [4 x i8*] [i8* null, i8* null, i8* bitcast (void (%"class.ukm::builders::AutofillAssistant_InChromeTriggering"*)* @_ZN3ukm8builders36AutofillAssistant_InChromeTriggeringD2Ev to i8*), i8* bitcast (void (%"class.ukm::builders::AutofillAssistant_InChromeTriggering"*)* @_ZN3ukm8builders36AutofillAssistant_InChromeTriggeringD0Ev to i8*)] }, align 8
@_ZN3ukm8builders36AutofillAssistant_InChromeTriggering26kInChromeTriggerActionNameE = hidden local_unnamed_addr constant [22 x i8] c"InChromeTriggerAction\00", align 16
@_ZN3ukm8builders36AutofillAssistant_InChromeTriggering30kInChromeTriggerActionNameHashE = hidden local_unnamed_addr constant i64 -3026677565635850772, align 8
@_ZN3ukm8builders36AutofillAssistant_LiteScriptFinished10kEntryNameE = hidden local_unnamed_addr constant [37 x i8] c"AutofillAssistant.LiteScriptFinished\00", align 16
@_ZN3ukm8builders36AutofillAssistant_LiteScriptFinished14kEntryNameHashE = hidden local_unnamed_addr constant i64 2310564600423055465, align 8
@_ZTVN3ukm8builders36AutofillAssistant_LiteScriptFinishedE = hidden unnamed_addr constant { [4 x i8*] } { [4 x i8*] [i8* null, i8* null, i8* bitcast (void (%"class.ukm::builders::AutofillAssistant_LiteScriptFinished"*)* @_ZN3ukm8builders36AutofillAssistant_LiteScriptFinishedD2Ev to i8*), i8* bitcast (void (%"class.ukm::builders::AutofillAssistant_LiteScriptFinished"*)* @_ZN3ukm8builders36AutofillAssistant_LiteScriptFinishedD0Ev to i8*)] }, align 8
@_ZN3ukm8builders36AutofillAssistant_LiteScriptFinished23kLiteScriptFinishedNameE = hidden local_unnamed_addr constant [19 x i8] c"LiteScriptFinished\00", align 16
@_ZN3ukm8builders36AutofillAssistant_LiteScriptFinished27kLiteScriptFinishedNameHashE = hidden local_unnamed_addr constant i64 5125339363723155819, align 8
@_ZN3ukm8builders36AutofillAssistant_LiteScriptFinished18kTriggerUITypeNameE = hidden local_unnamed_addr constant [14 x i8] c"TriggerUIType\00", align 1
@_ZN3ukm8builders36AutofillAssistant_LiteScriptFinished22kTriggerUITypeNameHashE = hidden local_unnamed_addr constant i64 -5110747882347819192, align 8
@_ZN3ukm8builders38AutofillAssistant_LiteScriptOnboarding10kEntryNameE = hidden local_unnamed_addr constant [39 x i8] c"AutofillAssistant.LiteScriptOnboarding\00", align 16
@_ZN3ukm8builders38AutofillAssistant_LiteScriptOnboarding14kEntryNameHashE = hidden local_unnamed_addr constant i64 5594888896079082193, align 8
@_ZTVN3ukm8builders38AutofillAssistant_LiteScriptOnboardingE = hidden unnamed_addr constant { [4 x i8*] } { [4 x i8*] [i8* null, i8* null, i8* bitcast (void (%"class.ukm::builders::AutofillAssistant_LiteScriptOnboarding"*)* @_ZN3ukm8builders38AutofillAssistant_LiteScriptOnboardingD2Ev to i8*), i8* bitcast (void (%"class.ukm::builders::AutofillAssistant_LiteScriptOnboarding"*)* @_ZN3ukm8builders38AutofillAssistant_LiteScriptOnboardingD0Ev to i8*)] }, align 8
@_ZN3ukm8builders38AutofillAssistant_LiteScriptOnboarding25kLiteScriptOnboardingNameE = hidden local_unnamed_addr constant [21 x i8] c"LiteScriptOnboarding\00", align 16
@_ZN3ukm8builders38AutofillAssistant_LiteScriptOnboarding29kLiteScriptOnboardingNameHashE = hidden local_unnamed_addr constant i64 8244069972074137310, align 8
@_ZN3ukm8builders38AutofillAssistant_LiteScriptOnboarding18kTriggerUITypeNameE = hidden local_unnamed_addr constant [14 x i8] c"TriggerUIType\00", align 1
@_ZN3ukm8builders38AutofillAssistant_LiteScriptOnboarding22kTriggerUITypeNameHashE = hidden local_unnamed_addr constant i64 -5110747882347819192, align 8
@_ZN3ukm8builders39AutofillAssistant_LiteScriptShownToUser10kEntryNameE = hidden local_unnamed_addr constant [40 x i8] c"AutofillAssistant.LiteScriptShownToUser\00", align 16
@_ZN3ukm8builders39AutofillAssistant_LiteScriptShownToUser14kEntryNameHashE = hidden local_unnamed_addr constant i64 2839413550083166052, align 8
@_ZTVN3ukm8builders39AutofillAssistant_LiteScriptShownToUserE = hidden unnamed_addr constant { [4 x i8*] } { [4 x i8*] [i8* null, i8* null, i8* bitcast (void (%"class.ukm::builders::AutofillAssistant_LiteScriptShownToUser"*)* @_ZN3ukm8builders39AutofillAssistant_LiteScriptShownToUserD2Ev to i8*), i8* bitcast (void (%"class.ukm::builders::AutofillAssistant_LiteScriptShownToUser"*)* @_ZN3ukm8builders39AutofillAssistant_LiteScriptShownToUserD0Ev to i8*)] }, align 8
@_ZN3ukm8builders39AutofillAssistant_LiteScriptShownToUser26kLiteScriptShownToUserNameE = hidden local_unnamed_addr constant [22 x i8] c"LiteScriptShownToUser\00", align 16
@_ZN3ukm8builders39AutofillAssistant_LiteScriptShownToUser30kLiteScriptShownToUserNameHashE = hidden local_unnamed_addr constant i64 6185346537454290336, align 8
@_ZN3ukm8builders39AutofillAssistant_LiteScriptShownToUser18kTriggerUITypeNameE = hidden local_unnamed_addr constant [14 x i8] c"TriggerUIType\00", align 1
@_ZN3ukm8builders39AutofillAssistant_LiteScriptShownToUser22kTriggerUITypeNameHashE = hidden local_unnamed_addr constant i64 -5110747882347819192, align 8
@_ZN3ukm8builders35AutofillAssistant_LiteScriptStarted10kEntryNameE = hidden local_unnamed_addr constant [36 x i8] c"AutofillAssistant.LiteScriptStarted\00", align 16
@_ZN3ukm8builders35AutofillAssistant_LiteScriptStarted14kEntryNameHashE = hidden local_unnamed_addr constant i64 6546378162427464679, align 8
@_ZTVN3ukm8builders35AutofillAssistant_LiteScriptStartedE = hidden unnamed_addr constant { [4 x i8*] } { [4 x i8*] [i8* null, i8* null, i8* bitcast (void (%"class.ukm::builders::AutofillAssistant_LiteScriptStarted"*)* @_ZN3ukm8builders35AutofillAssistant_LiteScriptStartedD2Ev to i8*), i8* bitcast (void (%"class.ukm::builders::AutofillAssistant_LiteScriptStarted"*)* @_ZN3ukm8builders35AutofillAssistant_LiteScriptStartedD0Ev to i8*)] }, align 8
@_ZN3ukm8builders35AutofillAssistant_LiteScriptStarted22kLiteScriptStartedNameE = hidden local_unnamed_addr constant [18 x i8] c"LiteScriptStarted\00", align 16
@_ZN3ukm8builders35AutofillAssistant_LiteScriptStarted26kLiteScriptStartedNameHashE = hidden local_unnamed_addr constant i64 -1833443409384864909, align 8
@_ZN3ukm8builders35AutofillAssistant_LiteScriptStarted18kTriggerUITypeNameE = hidden local_unnamed_addr constant [14 x i8] c"TriggerUIType\00", align 1
@_ZN3ukm8builders35AutofillAssistant_LiteScriptStarted22kTriggerUITypeNameHashE = hidden local_unnamed_addr constant i64 -5110747882347819192, align 8
@_ZN3ukm8builders48BackForwardCacheDisabledForRenderFrameHostReason10kEntryNameE = hidden local_unnamed_addr constant [49 x i8] c"BackForwardCacheDisabledForRenderFrameHostReason\00", align 16
@_ZN3ukm8builders48BackForwardCacheDisabledForRenderFrameHostReason14kEntryNameHashE = hidden local_unnamed_addr constant i64 2667461721042691467, align 8
@_ZTVN3ukm8builders48BackForwardCacheDisabledForRenderFrameHostReasonE = hidden unnamed_addr constant { [4 x i8*] } { [4 x i8*] [i8* null, i8* null, i8* bitcast (void (%"class.ukm::builders::BackForwardCacheDisabledForRenderFrameHostReason"*)* @_ZN3ukm8builders48BackForwardCacheDisabledForRenderFrameHostReasonD2Ev to i8*), i8* bitcast (void (%"class.ukm::builders::BackForwardCacheDisabledForRenderFrameHostReason"*)* @_ZN3ukm8builders48BackForwardCacheDisabledForRenderFrameHostReasonD0Ev to i8*)] }, align 8
@_ZN3ukm8builders48BackForwardCacheDisabledForRenderFrameHostReason12kReason2NameE = hidden local_unnamed_addr constant [8 x i8] c"Reason2\00", align 1
@_ZN3ukm8builders48BackForwardCacheDisabledForRenderFrameHostReason16kReason2NameHashE = hidden local_unnamed_addr constant i64 -5157983512920430213, align 8
@_ZN3ukm8builders15BackgroundFetch10kEntryNameE = hidden local_unnamed_addr constant [16 x i8] c"BackgroundFetch\00", align 16
@_ZN3ukm8builders15BackgroundFetch14kEntryNameHashE = hidden local_unnamed_addr constant i64 -3186098583640146122, align 8
@_ZTVN3ukm8builders15BackgroundFetchE = hidden unnamed_addr constant { [4 x i8*] } { [4 x i8*] [i8* null, i8* null, i8* bitcast (void (%"class.ukm::builders::BackgroundFetch"*)* @_ZN3ukm8builders15BackgroundFetchD2Ev to i8*), i8* bitcast (void (%"class.ukm::builders::BackgroundFetch"*)* @_ZN3ukm8builders15BackgroundFetchD0Ev to i8*)] }, align 8
@_ZN3ukm8builders15BackgroundFetch27kDeniedDueToPermissionsNameE = hidden local_unnamed_addr constant [23 x i8] c"DeniedDueToPermissions\00", align 16
@_ZN3ukm8builders15BackgroundFetch31kDeniedDueToPermissionsNameHashE = hidden local_unnamed_addr constant i64 2758060228952433941, align 8
@_ZN3ukm8builders15BackgroundFetch18kDownloadTotalNameE = hidden local_unnamed_addr constant [14 x i8] c"DownloadTotal\00", align 1
@_ZN3ukm8builders15BackgroundFetch22kDownloadTotalNameHashE = hidden local_unnamed_addr constant i64 8410270676684853040, align 8
@_ZN3ukm8builders15BackgroundFetch13kHasTitleNameE = hidden local_unnamed_addr constant [9 x i8] c"HasTitle\00", align 1
@_ZN3ukm8builders15BackgroundFetch17kHasTitleNameHashE = hidden local_unnamed_addr constant i64 -1982123144306963078, align 8
@_ZN3ukm8builders15BackgroundFetch13kNumIconsNameE = hidden local_unnamed_addr constant [9 x i8] c"NumIcons\00", align 1
@_ZN3ukm8builders15BackgroundFetch17kNumIconsNameHashE = hidden local_unnamed_addr constant i64 -5738721077484464237, align 8
@_ZN3ukm8builders15BackgroundFetch23kNumRequestsInFetchNameE = hidden local_unnamed_addr constant [19 x i8] c"NumRequestsInFetch\00", align 16
@_ZN3ukm8builders15BackgroundFetch27kNumRequestsInFetchNameHashE = hidden local_unnamed_addr constant i64 -2950263466705931573, align 8
@_ZN3ukm8builders15BackgroundFetch33kRatioOfIdealToChosenIconSizeNameE = hidden local_unnamed_addr constant [29 x i8] c"RatioOfIdealToChosenIconSize\00", align 16
@_ZN3ukm8builders15BackgroundFetch37kRatioOfIdealToChosenIconSizeNameHashE = hidden local_unnamed_addr constant i64 -287915096515453373, align 8
@_ZN3ukm8builders35BackgroundFetchDeletingRegistration10kEntryNameE = hidden local_unnamed_addr constant [36 x i8] c"BackgroundFetchDeletingRegistration\00", align 16
@_ZN3ukm8builders35BackgroundFetchDeletingRegistration14kEntryNameHashE = hidden local_unnamed_addr constant i64 2765600174500981245, align 8
@_ZTVN3ukm8builders35BackgroundFetchDeletingRegistrationE = hidden unnamed_addr constant { [4 x i8*] } { [4 x i8*] [i8* null, i8* null, i8* bitcast (void (%"class.ukm::builders::BackgroundFetchDeletingRegistration"*)* @_ZN3ukm8builders35BackgroundFetchDeletingRegistrationD2Ev to i8*), i8* bitcast (void (%"class.ukm::builders::BackgroundFetchDeletingRegistration"*)* @_ZN3ukm8builders35BackgroundFetchDeletingRegistrationD0Ev to i8*)] }, align 8
@_ZN3ukm8builders35BackgroundFetchDeletingRegistration23kUserInitiatedAbortNameE = hidden local_unnamed_addr constant [19 x i8] c"UserInitiatedAbort\00", align 16
@_ZN3ukm8builders35BackgroundFetchDeletingRegistration27kUserInitiatedAbortNameHashE = hidden local_unnamed_addr constant i64 2365076081250918859, align 8
@_ZN3ukm8builders23BackgroundSyncCompleted10kEntryNameE = hidden local_unnamed_addr constant [24 x i8] c"BackgroundSyncCompleted\00", align 16
@_ZN3ukm8builders23BackgroundSyncCompleted14kEntryNameHashE = hidden local_unnamed_addr constant i64 7109245137155486527, align 8
@_ZTVN3ukm8builders23BackgroundSyncCompletedE = hidden unnamed_addr constant { [4 x i8*] } { [4 x i8*] [i8* null, i8* null, i8* bitcast (void (%"class.ukm::builders::BackgroundSyncCompleted"*)* @_ZN3ukm8builders23BackgroundSyncCompletedD2Ev to i8*), i8* bitcast (void (%"class.ukm::builders::BackgroundSyncCompleted"*)* @_ZN3ukm8builders23BackgroundSyncCompletedD0Ev to i8*)] }, align 8
@_ZN3ukm8builders23BackgroundSyncCompleted16kMaxAttemptsNameE = hidden local_unnamed_addr constant [12 x i8] c"MaxAttempts\00", align 1
@_ZN3ukm8builders23BackgroundSyncCompleted20kMaxAttemptsNameHashE = hidden local_unnamed_addr constant i64 -4635527887683331270, align 8
@_ZN3ukm8builders23BackgroundSyncCompleted16kNumAttemptsNameE = hidden local_unnamed_addr constant [12 x i8] c"NumAttempts\00", align 1
@_ZN3ukm8builders23BackgroundSyncCompleted20kNumAttemptsNameHashE = hidden local_unnamed_addr constant i64 537979731801272247, align 8
@_ZN3ukm8builders23BackgroundSyncCompleted11kStatusNameE = hidden local_unnamed_addr constant [7 x i8] c"Status\00", align 1
@_ZN3ukm8builders23BackgroundSyncCompleted15kStatusNameHashE = hidden local_unnamed_addr constant i64 -1417603893889880363, align 8
@_ZN3ukm8builders24BackgroundSyncRegistered10kEntryNameE = hidden local_unnamed_addr constant [25 x i8] c"BackgroundSyncRegistered\00", align 16
@_ZN3ukm8builders24BackgroundSyncRegistered14kEntryNameHashE = hidden local_unnamed_addr constant i64 3511425855963568724, align 8
@_ZTVN3ukm8builders24BackgroundSyncRegisteredE = hidden unnamed_addr constant { [4 x i8*] } { [4 x i8*] [i8* null, i8* null, i8* bitcast (void (%"class.ukm::builders::BackgroundSyncRegistered"*)* @_ZN3ukm8builders24BackgroundSyncRegisteredD2Ev to i8*), i8* bitcast (void (%"class.ukm::builders::BackgroundSyncRegistered"*)* @_ZN3ukm8builders24BackgroundSyncRegisteredD0Ev to i8*)] }, align 8
@_ZN3ukm8builders24BackgroundSyncRegistered12kCanFireNameE = hidden local_unnamed_addr constant [8 x i8] c"CanFire\00", align 1
@_ZN3ukm8builders24BackgroundSyncRegistered16kCanFireNameHashE = hidden local_unnamed_addr constant i64 -3988073082902377085, align 8
@_ZN3ukm8builders24BackgroundSyncRegistered19kIsReregisteredNameE = hidden local_unnamed_addr constant [15 x i8] c"IsReregistered\00", align 1
@_ZN3ukm8builders24BackgroundSyncRegistered23kIsReregisteredNameHashE = hidden local_unnamed_addr constant i64 -8364002383767731155, align 8
@_ZN3ukm8builders7Badging10kEntryNameE = hidden local_unnamed_addr constant [8 x i8] c"Badging\00", align 1
@_ZN3ukm8builders7Badging14kEntryNameHashE = hidden local_unnamed_addr constant i64 -5768079867717086274, align 8
@_ZTVN3ukm8builders7BadgingE = hidden unnamed_addr constant { [4 x i8*] } { [4 x i8*] [i8* null, i8* null, i8* bitcast (void (%"class.ukm::builders::Badging"*)* @_ZN3ukm8builders7BadgingD2Ev to i8*), i8* bitcast (void (%"class.ukm::builders::Badging"*)* @_ZN3ukm8builders7BadgingD0Ev to i8*)] }, align 8
@_ZN3ukm8builders7Badging19kUpdateAppBadgeNameE = hidden local_unnamed_addr constant [15 x i8] c"UpdateAppBadge\00", align 1
@_ZN3ukm8builders7Badging23kUpdateAppBadgeNameHashE = hidden local_unnamed_addr constant i64 5657178876164813495, align 8
@_ZN3ukm8builders32Blink_ContextMenu_ImageSelection10kEntryNameE = hidden local_unnamed_addr constant [33 x i8] c"Blink.ContextMenu.ImageSelection\00", align 16
@_ZN3ukm8builders32Blink_ContextMenu_ImageSelection14kEntryNameHashE = hidden local_unnamed_addr constant i64 -3691782760673041667, align 8
@_ZTVN3ukm8builders32Blink_ContextMenu_ImageSelectionE = hidden unnamed_addr constant { [4 x i8*] } { [4 x i8*] [i8* null, i8* null, i8* bitcast (void (%"class.ukm::builders::Blink_ContextMenu_ImageSelection"*)* @_ZN3ukm8builders32Blink_ContextMenu_ImageSelectionD2Ev to i8*), i8* bitcast (void (%"class.ukm::builders::Blink_ContextMenu_ImageSelection"*)* @_ZN3ukm8builders32Blink_ContextMenu_ImageSelectionD0Ev to i8*)] }, align 8
@_ZN3ukm8builders32Blink_ContextMenu_ImageSelection12kOutcomeNameE = hidden local_unnamed_addr constant [8 x i8] c"Outcome\00", align 1
@_ZN3ukm8builders32Blink_ContextMenu_ImageSelection16kOutcomeNameHashE = hidden local_unnamed_addr constant i64 -3498244298818792109, align 8
@_ZN3ukm8builders16Blink_FindInPage10kEntryNameE = hidden local_unnamed_addr constant [17 x i8] c"Blink.FindInPage\00", align 16
@_ZN3ukm8builders16Blink_FindInPage14kEntryNameHashE = hidden local_unnamed_addr constant i64 -3943627504327831816, align 8
@_ZTVN3ukm8builders16Blink_FindInPageE = hidden unnamed_addr constant { [4 x i8*] } { [4 x i8*] [i8* null, i8* null, i8* bitcast (void (%"class.ukm::builders::Blink_FindInPage"*)* @_ZN3ukm8builders16Blink_FindInPageD2Ev to i8*), i8* bitcast (void (%"class.ukm::builders::Blink_FindInPage"*)* @_ZN3ukm8builders16Blink_FindInPageD0Ev to i8*)] }, align 8
@_ZN3ukm8builders16Blink_FindInPage39kBeforematchExpandedHiddenMatchableNameE = hidden local_unnamed_addr constant [35 x i8] c"BeforematchExpandedHiddenMatchable\00", align 16
@_ZN3ukm8builders16Blink_FindInPage43kBeforematchExpandedHiddenMatchableNameHashE = hidden local_unnamed_addr constant i64 1418541422054982411, align 8
@_ZN3ukm8builders16Blink_FindInPage30kDidHaveRenderSubtreeMatchNameE = hidden local_unnamed_addr constant [26 x i8] c"DidHaveRenderSubtreeMatch\00", align 16
@_ZN3ukm8builders16Blink_FindInPage34kDidHaveRenderSubtreeMatchNameHashE = hidden local_unnamed_addr constant i64 -8009412389058375401, align 8
@_ZN3ukm8builders16Blink_FindInPage14kDidSearchNameE = hidden local_unnamed_addr constant [10 x i8] c"DidSearch\00", align 1
@_ZN3ukm8builders16Blink_FindInPage18kDidSearchNameHashE = hidden local_unnamed_addr constant i64 -7209726115681482882, align 8
@_ZN3ukm8builders17Blink_HTMLParsing10kEntryNameE = hidden local_unnamed_addr constant [18 x i8] c"Blink.HTMLParsing\00", align 16
@_ZN3ukm8builders17Blink_HTMLParsing14kEntryNameHashE = hidden local_unnamed_addr constant i64 -6476970479566323586, align 8
@_ZTVN3ukm8builders17Blink_HTMLParsingE = hidden unnamed_addr constant { [4 x i8*] } { [4 x i8*] [i8* null, i8* null, i8* bitcast (void (%"class.ukm::builders::Blink_HTMLParsing"*)* @_ZN3ukm8builders17Blink_HTMLParsingD2Ev to i8*), i8* bitcast (void (%"class.ukm::builders::Blink_HTMLParsing"*)* @_ZN3ukm8builders17Blink_HTMLParsingD0Ev to i8*)] }, align 8
@_ZN3ukm8builders17Blink_HTMLParsing15kChunkCountNameE = hidden local_unnamed_addr constant [11 x i8] c"ChunkCount\00", align 1
@_ZN3ukm8builders17Blink_HTMLParsing19kChunkCountNameHashE = hidden local_unnamed_addr constant i64 -6328859393574995692, align 8
@_ZN3ukm8builders17Blink_HTMLParsing19kParsingTimeMaxNameE = hidden local_unnamed_addr constant [15 x i8] c"ParsingTimeMax\00", align 1
@_ZN3ukm8builders17Blink_HTMLParsing23kParsingTimeMaxNameHashE = hidden local_unnamed_addr constant i64 -1346132034963650721, align 8
@_ZN3ukm8builders17Blink_HTMLParsing19kParsingTimeMinNameE = hidden local_unnamed_addr constant [15 x i8] c"ParsingTimeMin\00", align 1
@_ZN3ukm8builders17Blink_HTMLParsing23kParsingTimeMinNameHashE = hidden local_unnamed_addr constant i64 1069166688745848743, align 8
@_ZN3ukm8builders17Blink_HTMLParsing21kParsingTimeTotalNameE = hidden local_unnamed_addr constant [17 x i8] c"ParsingTimeTotal\00", align 16
@_ZN3ukm8builders17Blink_HTMLParsing25kParsingTimeTotalNameHashE = hidden local_unnamed_addr constant i64 4428025718068016638, align 8
@_ZN3ukm8builders17Blink_HTMLParsing24kTokensParsedAverageNameE = hidden local_unnamed_addr constant [20 x i8] c"TokensParsedAverage\00", align 16
@_ZN3ukm8builders17Blink_HTMLParsing28kTokensParsedAverageNameHashE = hidden local_unnamed_addr constant i64 -8454805316254348530, align 8
@_ZN3ukm8builders17Blink_HTMLParsing20kTokensParsedMaxNameE = hidden local_unnamed_addr constant [16 x i8] c"TokensParsedMax\00", align 16
@_ZN3ukm8builders17Blink_HTMLParsing24kTokensParsedMaxNameHashE = hidden local_unnamed_addr constant i64 5038652062281821354, align 8
@_ZN3ukm8builders17Blink_HTMLParsing20kTokensParsedMinNameE = hidden local_unnamed_addr constant [16 x i8] c"TokensParsedMin\00", align 16
@_ZN3ukm8builders17Blink_HTMLParsing24kTokensParsedMinNameHashE = hidden local_unnamed_addr constant i64 -654088878949290911, align 8
@_ZN3ukm8builders17Blink_HTMLParsing23kYieldedTimeAverageNameE = hidden local_unnamed_addr constant [19 x i8] c"YieldedTimeAverage\00", align 16
@_ZN3ukm8builders17Blink_HTMLParsing27kYieldedTimeAverageNameHashE = hidden local_unnamed_addr constant i64 -4721981949930474280, align 8
@_ZN3ukm8builders17Blink_HTMLParsing19kYieldedTimeMaxNameE = hidden local_unnamed_addr constant [15 x i8] c"YieldedTimeMax\00", align 1
@_ZN3ukm8builders17Blink_HTMLParsing23kYieldedTimeMaxNameHashE = hidden local_unnamed_addr constant i64 -8438998139684335265, align 8
@_ZN3ukm8builders17Blink_HTMLParsing19kYieldedTimeMinNameE = hidden local_unnamed_addr constant [15 x i8] c"YieldedTimeMin\00", align 1
@_ZN3ukm8builders17Blink_HTMLParsing23kYieldedTimeMinNameHashE = hidden local_unnamed_addr constant i64 -3891911633019200843, align 8
@_ZN3ukm8builders14Blink_PageLoad10kEntryNameE = hidden local_unnamed_addr constant [15 x i8] c"Blink.PageLoad\00", align 1
@_ZN3ukm8builders14Blink_PageLoad14kEntryNameHashE = hidden local_unnamed_addr constant i64 -7131317316883991642, align 8
@_ZTVN3ukm8builders14Blink_PageLoadE = hidden unnamed_addr constant { [4 x i8*] } { [4 x i8*] [i8* null, i8* null, i8* bitcast (void (%"class.ukm::builders::Blink_PageLoad"*)* @_ZN3ukm8builders14Blink_PageLoadD2Ev to i8*), i8* bitcast (void (%"class.ukm::builders::Blink_PageLoad"*)* @_ZN3ukm8builders14Blink_PageLoadD0Ev to i8*)] }, align 8
@_ZN3ukm8builders14Blink_PageLoad45kAnchorElementMetricsIntersectionObserverNameE = hidden local_unnamed_addr constant [41 x i8] c"AnchorElementMetricsIntersectionObserver\00", align 16
@_ZN3ukm8builders14Blink_PageLoad49kAnchorElementMetricsIntersectionObserverNameHashE = hidden local_unnamed_addr constant i64 -3449542141590793717, align 8
@_ZN3ukm8builders14Blink_PageLoad12kAnimateNameE = hidden local_unnamed_addr constant [8 x i8] c"Animate\00", align 1
@_ZN3ukm8builders14Blink_PageLoad16kAnimateNameHashE = hidden local_unnamed_addr constant i64 404752839576342973, align 8
@_ZN3ukm8builders14Blink_PageLoad27kCompositingAssignmentsNameE = hidden local_unnamed_addr constant [23 x i8] c"CompositingAssignments\00", align 16
@_ZN3ukm8builders14Blink_PageLoad31kCompositingAssignmentsNameHashE = hidden local_unnamed_addr constant i64 4336516153886956676, align 8
@_ZN3ukm8builders14Blink_PageLoad22kCompositingCommitNameE = hidden local_unnamed_addr constant [18 x i8] c"CompositingCommit\00", align 16
@_ZN3ukm8builders14Blink_PageLoad26kCompositingCommitNameHashE = hidden local_unnamed_addr constant i64 -2637422537294046306, align 8
@_ZN3ukm8builders14Blink_PageLoad22kCompositingInputsNameE = hidden local_unnamed_addr constant [18 x i8] c"CompositingInputs\00", align 16
@_ZN3ukm8builders14Blink_PageLoad26kCompositingInputsNameHashE = hidden local_unnamed_addr constant i64 3671162331545334715, align 8
@_ZN3ukm8builders14Blink_PageLoad26kContentDocumentUpdateNameE = hidden local_unnamed_addr constant [22 x i8] c"ContentDocumentUpdate\00", align 16
@_ZN3ukm8builders14Blink_PageLoad30kContentDocumentUpdateNameHashE = hidden local_unnamed_addr constant i64 1358745339642406099, align 8
@_ZN3ukm8builders14Blink_PageLoad36kDisplayLockIntersectionObserverNameE = hidden local_unnamed_addr constant [32 x i8] c"DisplayLockIntersectionObserver\00", align 16
@_ZN3ukm8builders14Blink_PageLoad40kDisplayLockIntersectionObserverNameHashE = hidden local_unnamed_addr constant i64 7178067269321593883, align 8
@_ZN3ukm8builders14Blink_PageLoad25kForcedStyleAndLayoutNameE = hidden local_unnamed_addr constant [21 x i8] c"ForcedStyleAndLayout\00", align 16
@_ZN3ukm8builders14Blink_PageLoad29kForcedStyleAndLayoutNameHashE = hidden local_unnamed_addr constant i64 -2837657676760641656, align 8
@_ZN3ukm8builders14Blink_PageLoad22kHandleInputEventsNameE = hidden local_unnamed_addr constant [18 x i8] c"HandleInputEvents\00", align 16
@_ZN3ukm8builders14Blink_PageLoad26kHandleInputEventsNameHashE = hidden local_unnamed_addr constant i64 8113352720551083585, align 8
@_ZN3ukm8builders14Blink_PageLoad26kHitTestDocumentUpdateNameE = hidden local_unnamed_addr constant [22 x i8] c"HitTestDocumentUpdate\00", align 16
@_ZN3ukm8builders14Blink_PageLoad30kHitTestDocumentUpdateNameHashE = hidden local_unnamed_addr constant i64 -6721823658344430140, align 8
@_ZN3ukm8builders14Blink_PageLoad25kImplCompositorCommitNameE = hidden local_unnamed_addr constant [21 x i8] c"ImplCompositorCommit\00", align 16
@_ZN3ukm8builders14Blink_PageLoad29kImplCompositorCommitNameHashE = hidden local_unnamed_addr constant i64 -4812629273954922671, align 8
@_ZN3ukm8builders14Blink_PageLoad28kIntersectionObservationNameE = hidden local_unnamed_addr constant [24 x i8] c"IntersectionObservation\00", align 16
@_ZN3ukm8builders14Blink_PageLoad32kIntersectionObservationNameHashE = hidden local_unnamed_addr constant i64 -2988125252690528239, align 8
@_ZN3ukm8builders14Blink_PageLoad29kJavascriptDocumentUpdateNameE = hidden local_unnamed_addr constant [25 x i8] c"JavascriptDocumentUpdate\00", align 16
@_ZN3ukm8builders14Blink_PageLoad33kJavascriptDocumentUpdateNameHashE = hidden local_unnamed_addr constant i64 838763158452309866, align 8
@_ZN3ukm8builders14Blink_PageLoad35kJavascriptIntersectionObserverNameE = hidden local_unnamed_addr constant [31 x i8] c"JavascriptIntersectionObserver\00", align 16
@_ZN3ukm8builders14Blink_PageLoad39kJavascriptIntersectionObserverNameHashE = hidden local_unnamed_addr constant i64 -404456509678958634, align 8
@_ZN3ukm8builders14Blink_PageLoad11kLayoutNameE = hidden local_unnamed_addr constant [7 x i8] c"Layout\00", align 1
@_ZN3ukm8builders14Blink_PageLoad15kLayoutNameHashE = hidden local_unnamed_addr constant i64 -1451919652219601800, align 8
@_ZN3ukm8builders14Blink_PageLoad33kLazyLoadIntersectionObserverNameE = hidden local_unnamed_addr constant [29 x i8] c"LazyLoadIntersectionObserver\00", align 16
@_ZN3ukm8builders14Blink_PageLoad37kLazyLoadIntersectionObserverNameHashE = hidden local_unnamed_addr constant i64 -5342342879581530517, align 8
@_ZN3ukm8builders14Blink_PageLoad14kMainFrameNameE = hidden local_unnamed_addr constant [10 x i8] c"MainFrame\00", align 1
@_ZN3ukm8builders14Blink_PageLoad18kMainFrameNameHashE = hidden local_unnamed_addr constant i64 4089985743552002450, align 8
@_ZN3ukm8builders14Blink_PageLoad30kMediaIntersectionObserverNameE = hidden local_unnamed_addr constant [26 x i8] c"MediaIntersectionObserver\00", align 16
@_ZN3ukm8builders14Blink_PageLoad34kMediaIntersectionObserverNameHashE = hidden local_unnamed_addr constant i64 7929379986308471900, align 8
@_ZN3ukm8builders14Blink_PageLoad10kPaintNameE = hidden local_unnamed_addr constant [6 x i8] c"Paint\00", align 1
@_ZN3ukm8builders14Blink_PageLoad14kPaintNameHashE = hidden local_unnamed_addr constant i64 5188891880448173739, align 8
@_ZN3ukm8builders14Blink_PageLoad13kPrePaintNameE = hidden local_unnamed_addr constant [9 x i8] c"PrePaint\00", align 1
@_ZN3ukm8builders14Blink_PageLoad17kPrePaintNameHashE = hidden local_unnamed_addr constant i64 4880392982914161630, align 8
@_ZN3ukm8builders14Blink_PageLoad25kScrollDocumentUpdateNameE = hidden local_unnamed_addr constant [21 x i8] c"ScrollDocumentUpdate\00", align 16
@_ZN3ukm8builders14Blink_PageLoad29kScrollDocumentUpdateNameHashE = hidden local_unnamed_addr constant i64 -6932196484163248257, align 8
@_ZN3ukm8builders14Blink_PageLoad26kServiceDocumentUpdateNameE = hidden local_unnamed_addr constant [22 x i8] c"ServiceDocumentUpdate\00", align 16
@_ZN3ukm8builders14Blink_PageLoad30kServiceDocumentUpdateNameHashE = hidden local_unnamed_addr constant i64 -5017981116923336520, align 8
@_ZN3ukm8builders14Blink_PageLoad10kStyleNameE = hidden local_unnamed_addr constant [6 x i8] c"Style\00", align 1
@_ZN3ukm8builders14Blink_PageLoad14kStyleNameHashE = hidden local_unnamed_addr constant i64 -5897376231885803999, align 8
@_ZN3ukm8builders14Blink_PageLoad17kUpdateLayersNameE = hidden local_unnamed_addr constant [13 x i8] c"UpdateLayers\00", align 1
@_ZN3ukm8builders14Blink_PageLoad21kUpdateLayersNameHashE = hidden local_unnamed_addr constant i64 1916294310099025691, align 8
@_ZN3ukm8builders14Blink_PageLoad31kUpdateViewportIntersectionNameE = hidden local_unnamed_addr constant [27 x i8] c"UpdateViewportIntersection\00", align 16
@_ZN3ukm8builders14Blink_PageLoad35kUpdateViewportIntersectionNameHashE = hidden local_unnamed_addr constant i64 1757331034736396629, align 8
@_ZN3ukm8builders14Blink_PageLoad29kUserDrivenDocumentUpdateNameE = hidden local_unnamed_addr constant [25 x i8] c"UserDrivenDocumentUpdate\00", align 16
@_ZN3ukm8builders14Blink_PageLoad33kUserDrivenDocumentUpdateNameHashE = hidden local_unnamed_addr constant i64 -3100032599974303869, align 8
@_ZN3ukm8builders14Blink_PageLoad18kWaitForCommitNameE = hidden local_unnamed_addr constant [14 x i8] c"WaitForCommit\00", align 1
@_ZN3ukm8builders14Blink_PageLoad22kWaitForCommitNameHashE = hidden local_unnamed_addr constant i64 -2253359029411034642, align 8
@_ZN3ukm8builders17Blink_PaintTiming10kEntryNameE = hidden local_unnamed_addr constant [18 x i8] c"Blink.PaintTiming\00", align 16
@_ZN3ukm8builders17Blink_PaintTiming14kEntryNameHashE = hidden local_unnamed_addr constant i64 -4354774045813134139, align 8
@_ZTVN3ukm8builders17Blink_PaintTimingE = hidden unnamed_addr constant { [4 x i8*] } { [4 x i8*] [i8* null, i8* null, i8* bitcast (void (%"class.ukm::builders::Blink_PaintTiming"*)* @_ZN3ukm8builders17Blink_PaintTimingD2Ev to i8*), i8* bitcast (void (%"class.ukm::builders::Blink_PaintTiming"*)* @_ZN3ukm8builders17Blink_PaintTimingD0Ev to i8*)] }, align 8
@_ZN3ukm8builders17Blink_PaintTiming34kLCPDebugging_HasViewportImageNameE = hidden local_unnamed_addr constant [30 x i8] c"LCPDebugging.HasViewportImage\00", align 16
@_ZN3ukm8builders17Blink_PaintTiming38kLCPDebugging_HasViewportImageNameHashE = hidden local_unnamed_addr constant i64 -1645804223139933546, align 8
@_ZN3ukm8builders25Blink_Script_AsyncScripts10kEntryNameE = hidden local_unnamed_addr constant [26 x i8] c"Blink.Script.AsyncScripts\00", align 16
@_ZN3ukm8builders25Blink_Script_AsyncScripts14kEntryNameHashE = hidden local_unnamed_addr constant i64 -1539009283911515112, align 8
@_ZTVN3ukm8builders25Blink_Script_AsyncScriptsE = hidden unnamed_addr constant { [4 x i8*] } { [4 x i8*] [i8* null, i8* null, i8* bitcast (void (%"class.ukm::builders::Blink_Script_AsyncScripts"*)* @_ZN3ukm8builders25Blink_Script_AsyncScriptsD2Ev to i8*), i8* bitcast (void (%"class.ukm::builders::Blink_Script_AsyncScripts"*)* @_ZN3ukm8builders25Blink_Script_AsyncScriptsD0Ev to i8*)] }, align 8
@_ZN3ukm8builders25Blink_Script_AsyncScripts21kAsyncScriptCountNameE = hidden local_unnamed_addr constant [17 x i8] c"AsyncScriptCount\00", align 16
@_ZN3ukm8builders25Blink_Script_AsyncScripts25kAsyncScriptCountNameHashE = hidden local_unnamed_addr constant i64 4930820782463131368, align 8
@_ZN3ukm8builders16Blink_UpdateTime10kEntryNameE = hidden local_unnamed_addr constant [17 x i8] c"Blink.UpdateTime\00", align 16
@_ZN3ukm8builders16Blink_UpdateTime14kEntryNameHashE = hidden local_unnamed_addr constant i64 397568092790313676, align 8
@_ZTVN3ukm8builders16Blink_UpdateTimeE = hidden unnamed_addr constant { [4 x i8*] } { [4 x i8*] [i8* null, i8* null, i8* bitcast (void (%"class.ukm::builders::Blink_UpdateTime"*)* @_ZN3ukm8builders16Blink_UpdateTimeD2Ev to i8*), i8* bitcast (void (%"class.ukm::builders::Blink_UpdateTime"*)* @_ZN3ukm8builders16Blink_UpdateTimeD0Ev to i8*)] }, align 8
@_ZN3ukm8builders16Blink_UpdateTime45kAnchorElementMetricsIntersectionObserverNameE = hidden local_unnamed_addr constant [41 x i8] c"AnchorElementMetricsIntersectionObserver\00", align 16
@_ZN3ukm8builders16Blink_UpdateTime49kAnchorElementMetricsIntersectionObserverNameHashE = hidden local_unnamed_addr constant i64 -3449542141590793717, align 8
@_ZN3ukm8builders16Blink_UpdateTime59kAnchorElementMetricsIntersectionObserverBeginMainFrameNameE = hidden local_unnamed_addr constant [55 x i8] c"AnchorElementMetricsIntersectionObserverBeginMainFrame\00", align 16
@_ZN3ukm8builders16Blink_UpdateTime63kAnchorElementMetricsIntersectionObserverBeginMainFrameNameHashE = hidden local_unnamed_addr constant i64 9195304428041768096, align 8
@_ZN3ukm8builders16Blink_UpdateTime12kAnimateNameE = hidden local_unnamed_addr constant [8 x i8] c"Animate\00", align 1
@_ZN3ukm8builders16Blink_UpdateTime16kAnimateNameHashE = hidden local_unnamed_addr constant i64 404752839576342973, align 8
@_ZN3ukm8builders16Blink_UpdateTime26kAnimateBeginMainFrameNameE = hidden local_unnamed_addr constant [22 x i8] c"AnimateBeginMainFrame\00", align 16
@_ZN3ukm8builders16Blink_UpdateTime30kAnimateBeginMainFrameNameHashE = hidden local_unnamed_addr constant i64 -8824725523007774605, align 8
@_ZN3ukm8builders16Blink_UpdateTime27kCompositingAssignmentsNameE = hidden local_unnamed_addr constant [23 x i8] c"CompositingAssignments\00", align 16
@_ZN3ukm8builders16Blink_UpdateTime31kCompositingAssignmentsNameHashE = hidden local_unnamed_addr constant i64 4336516153886956676, align 8
@_ZN3ukm8builders16Blink_UpdateTime41kCompositingAssignmentsBeginMainFrameNameE = hidden local_unnamed_addr constant [37 x i8] c"CompositingAssignmentsBeginMainFrame\00", align 16
@_ZN3ukm8builders16Blink_UpdateTime45kCompositingAssignmentsBeginMainFrameNameHashE = hidden local_unnamed_addr constant i64 3938857959570288443, align 8
@_ZN3ukm8builders16Blink_UpdateTime22kCompositingCommitNameE = hidden local_unnamed_addr constant [18 x i8] c"CompositingCommit\00", align 16
@_ZN3ukm8builders16Blink_UpdateTime26kCompositingCommitNameHashE = hidden local_unnamed_addr constant i64 -2637422537294046306, align 8
@_ZN3ukm8builders16Blink_UpdateTime36kCompositingCommitBeginMainFrameNameE = hidden local_unnamed_addr constant [32 x i8] c"CompositingCommitBeginMainFrame\00", align 16
@_ZN3ukm8builders16Blink_UpdateTime40kCompositingCommitBeginMainFrameNameHashE = hidden local_unnamed_addr constant i64 8598538897615787952, align 8
@_ZN3ukm8builders16Blink_UpdateTime22kCompositingInputsNameE = hidden local_unnamed_addr constant [18 x i8] c"CompositingInputs\00", align 16
@_ZN3ukm8builders16Blink_UpdateTime26kCompositingInputsNameHashE = hidden local_unnamed_addr constant i64 3671162331545334715, align 8
@_ZN3ukm8builders16Blink_UpdateTime36kCompositingInputsBeginMainFrameNameE = hidden local_unnamed_addr constant [32 x i8] c"CompositingInputsBeginMainFrame\00", align 16
@_ZN3ukm8builders16Blink_UpdateTime40kCompositingInputsBeginMainFrameNameHashE = hidden local_unnamed_addr constant i64 1004024316266743286, align 8
@_ZN3ukm8builders16Blink_UpdateTime26kContentDocumentUpdateNameE = hidden local_unnamed_addr constant [22 x i8] c"ContentDocumentUpdate\00", align 16
@_ZN3ukm8builders16Blink_UpdateTime30kContentDocumentUpdateNameHashE = hidden local_unnamed_addr constant i64 1358745339642406099, align 8
@_ZN3ukm8builders16Blink_UpdateTime40kContentDocumentUpdateBeginMainFrameNameE = hidden local_unnamed_addr constant [36 x i8] c"ContentDocumentUpdateBeginMainFrame\00", align 16
@_ZN3ukm8builders16Blink_UpdateTime44kContentDocumentUpdateBeginMainFrameNameHashE = hidden local_unnamed_addr constant i64 7410495369725843276, align 8
@_ZN3ukm8builders16Blink_UpdateTime36kDisplayLockIntersectionObserverNameE = hidden local_unnamed_addr constant [32 x i8] c"DisplayLockIntersectionObserver\00", align 16
@_ZN3ukm8builders16Blink_UpdateTime40kDisplayLockIntersectionObserverNameHashE = hidden local_unnamed_addr constant i64 7178067269321593883, align 8
@_ZN3ukm8builders16Blink_UpdateTime50kDisplayLockIntersectionObserverBeginMainFrameNameE = hidden local_unnamed_addr constant [46 x i8] c"DisplayLockIntersectionObserverBeginMainFrame\00", align 16
@_ZN3ukm8builders16Blink_UpdateTime54kDisplayLockIntersectionObserverBeginMainFrameNameHashE = hidden local_unnamed_addr constant i64 -2612359143984870591, align 8
@_ZN3ukm8builders16Blink_UpdateTime25kForcedStyleAndLayoutNameE = hidden local_unnamed_addr constant [21 x i8] c"ForcedStyleAndLayout\00", align 16
@_ZN3ukm8builders16Blink_UpdateTime29kForcedStyleAndLayoutNameHashE = hidden local_unnamed_addr constant i64 -2837657676760641656, align 8
@_ZN3ukm8builders16Blink_UpdateTime39kForcedStyleAndLayoutBeginMainFrameNameE = hidden local_unnamed_addr constant [35 x i8] c"ForcedStyleAndLayoutBeginMainFrame\00", align 16
@_ZN3ukm8builders16Blink_UpdateTime43kForcedStyleAndLayoutBeginMainFrameNameHashE = hidden local_unnamed_addr constant i64 -2118770796036561989, align 8
@_ZN3ukm8builders16Blink_UpdateTime22kHandleInputEventsNameE = hidden local_unnamed_addr constant [18 x i8] c"HandleInputEvents\00", align 16
@_ZN3ukm8builders16Blink_UpdateTime26kHandleInputEventsNameHashE = hidden local_unnamed_addr constant i64 8113352720551083585, align 8
@_ZN3ukm8builders16Blink_UpdateTime36kHandleInputEventsBeginMainFrameNameE = hidden local_unnamed_addr constant [32 x i8] c"HandleInputEventsBeginMainFrame\00", align 16
@_ZN3ukm8builders16Blink_UpdateTime40kHandleInputEventsBeginMainFrameNameHashE = hidden local_unnamed_addr constant i64 -5152551140424006310, align 8
@_ZN3ukm8builders16Blink_UpdateTime26kHitTestDocumentUpdateNameE = hidden local_unnamed_addr constant [22 x i8] c"HitTestDocumentUpdate\00", align 16
@_ZN3ukm8builders16Blink_UpdateTime30kHitTestDocumentUpdateNameHashE = hidden local_unnamed_addr constant i64 -6721823658344430140, align 8
@_ZN3ukm8builders16Blink_UpdateTime40kHitTestDocumentUpdateBeginMainFrameNameE = hidden local_unnamed_addr constant [36 x i8] c"HitTestDocumentUpdateBeginMainFrame\00", align 16
@_ZN3ukm8builders16Blink_UpdateTime44kHitTestDocumentUpdateBeginMainFrameNameHashE = hidden local_unnamed_addr constant i64 1812023415449158670, align 8
@_ZN3ukm8builders16Blink_UpdateTime25kImplCompositorCommitNameE = hidden local_unnamed_addr constant [21 x i8] c"ImplCompositorCommit\00", align 16
@_ZN3ukm8builders16Blink_UpdateTime29kImplCompositorCommitNameHashE = hidden local_unnamed_addr constant i64 -4812629273954922671, align 8
@_ZN3ukm8builders16Blink_UpdateTime39kImplCompositorCommitBeginMainFrameNameE = hidden local_unnamed_addr constant [35 x i8] c"ImplCompositorCommitBeginMainFrame\00", align 16
@_ZN3ukm8builders16Blink_UpdateTime43kImplCompositorCommitBeginMainFrameNameHashE = hidden local_unnamed_addr constant i64 4032810828473550911, align 8
@_ZN3ukm8builders16Blink_UpdateTime28kIntersectionObservationNameE = hidden local_unnamed_addr constant [24 x i8] c"IntersectionObservation\00", align 16
@_ZN3ukm8builders16Blink_UpdateTime32kIntersectionObservationNameHashE = hidden local_unnamed_addr constant i64 -2988125252690528239, align 8
@_ZN3ukm8builders16Blink_UpdateTime42kIntersectionObservationBeginMainFrameNameE = hidden local_unnamed_addr constant [38 x i8] c"IntersectionObservationBeginMainFrame\00", align 16
@_ZN3ukm8builders16Blink_UpdateTime46kIntersectionObservationBeginMainFrameNameHashE = hidden local_unnamed_addr constant i64 -1612247079381577780, align 8
@_ZN3ukm8builders16Blink_UpdateTime29kJavascriptDocumentUpdateNameE = hidden local_unnamed_addr constant [25 x i8] c"JavascriptDocumentUpdate\00", align 16
@_ZN3ukm8builders16Blink_UpdateTime33kJavascriptDocumentUpdateNameHashE = hidden local_unnamed_addr constant i64 838763158452309866, align 8
@_ZN3ukm8builders16Blink_UpdateTime43kJavascriptDocumentUpdateBeginMainFrameNameE = hidden local_unnamed_addr constant [39 x i8] c"JavascriptDocumentUpdateBeginMainFrame\00", align 16
@_ZN3ukm8builders16Blink_UpdateTime47kJavascriptDocumentUpdateBeginMainFrameNameHashE = hidden local_unnamed_addr constant i64 7022936487950091361, align 8
@_ZN3ukm8builders16Blink_UpdateTime35kJavascriptIntersectionObserverNameE = hidden local_unnamed_addr constant [31 x i8] c"JavascriptIntersectionObserver\00", align 16
@_ZN3ukm8builders16Blink_UpdateTime39kJavascriptIntersectionObserverNameHashE = hidden local_unnamed_addr constant i64 -404456509678958634, align 8
@_ZN3ukm8builders16Blink_UpdateTime49kJavascriptIntersectionObserverBeginMainFrameNameE = hidden local_unnamed_addr constant [45 x i8] c"JavascriptIntersectionObserverBeginMainFrame\00", align 16
@_ZN3ukm8builders16Blink_UpdateTime53kJavascriptIntersectionObserverBeginMainFrameNameHashE = hidden local_unnamed_addr constant i64 -782904119597086557, align 8
@_ZN3ukm8builders16Blink_UpdateTime11kLayoutNameE = hidden local_unnamed_addr constant [7 x i8] c"Layout\00", align 1
@_ZN3ukm8builders16Blink_UpdateTime15kLayoutNameHashE = hidden local_unnamed_addr constant i64 -1451919652219601800, align 8
@_ZN3ukm8builders16Blink_UpdateTime25kLayoutBeginMainFrameNameE = hidden local_unnamed_addr constant [21 x i8] c"LayoutBeginMainFrame\00", align 16
@_ZN3ukm8builders16Blink_UpdateTime29kLayoutBeginMainFrameNameHashE = hidden local_unnamed_addr constant i64 -6994059488987669248, align 8
@_ZN3ukm8builders16Blink_UpdateTime33kLazyLoadIntersectionObserverNameE = hidden local_unnamed_addr constant [29 x i8] c"LazyLoadIntersectionObserver\00", align 16
@_ZN3ukm8builders16Blink_UpdateTime37kLazyLoadIntersectionObserverNameHashE = hidden local_unnamed_addr constant i64 -5342342879581530517, align 8
@_ZN3ukm8builders16Blink_UpdateTime47kLazyLoadIntersectionObserverBeginMainFrameNameE = hidden local_unnamed_addr constant [43 x i8] c"LazyLoadIntersectionObserverBeginMainFrame\00", align 16
@_ZN3ukm8builders16Blink_UpdateTime51kLazyLoadIntersectionObserverBeginMainFrameNameHashE = hidden local_unnamed_addr constant i64 5364811165188730962, align 8
@_ZN3ukm8builders16Blink_UpdateTime14kMainFrameNameE = hidden local_unnamed_addr constant [10 x i8] c"MainFrame\00", align 1
@_ZN3ukm8builders16Blink_UpdateTime18kMainFrameNameHashE = hidden local_unnamed_addr constant i64 4089985743552002450, align 8
@_ZN3ukm8builders16Blink_UpdateTime25kMainFrameIsBeforeFCPNameE = hidden local_unnamed_addr constant [21 x i8] c"MainFrameIsBeforeFCP\00", align 16
@_ZN3ukm8builders16Blink_UpdateTime29kMainFrameIsBeforeFCPNameHashE = hidden local_unnamed_addr constant i64 -8560974673426719844, align 8
@_ZN3ukm8builders16Blink_UpdateTime21kMainFrameReasonsNameE = hidden local_unnamed_addr constant [17 x i8] c"MainFrameReasons\00", align 16
@_ZN3ukm8builders16Blink_UpdateTime25kMainFrameReasonsNameHashE = hidden local_unnamed_addr constant i64 8828908854731562228, align 8
@_ZN3ukm8builders16Blink_UpdateTime30kMediaIntersectionObserverNameE = hidden local_unnamed_addr constant [26 x i8] c"MediaIntersectionObserver\00", align 16
@_ZN3ukm8builders16Blink_UpdateTime34kMediaIntersectionObserverNameHashE = hidden local_unnamed_addr constant i64 7929379986308471900, align 8
@_ZN3ukm8builders16Blink_UpdateTime44kMediaIntersectionObserverBeginMainFrameNameE = hidden local_unnamed_addr constant [40 x i8] c"MediaIntersectionObserverBeginMainFrame\00", align 16
@_ZN3ukm8builders16Blink_UpdateTime48kMediaIntersectionObserverBeginMainFrameNameHashE = hidden local_unnamed_addr constant i64 4033991528825288813, align 8
@_ZN3ukm8builders16Blink_UpdateTime10kPaintNameE = hidden local_unnamed_addr constant [6 x i8] c"Paint\00", align 1
@_ZN3ukm8builders16Blink_UpdateTime14kPaintNameHashE = hidden local_unnamed_addr constant i64 5188891880448173739, align 8
@_ZN3ukm8builders16Blink_UpdateTime24kPaintBeginMainFrameNameE = hidden local_unnamed_addr constant [20 x i8] c"PaintBeginMainFrame\00", align 16
@_ZN3ukm8builders16Blink_UpdateTime28kPaintBeginMainFrameNameHashE = hidden local_unnamed_addr constant i64 -3197912967852046620, align 8
@_ZN3ukm8builders16Blink_UpdateTime13kPrePaintNameE = hidden local_unnamed_addr constant [9 x i8] c"PrePaint\00", align 1
@_ZN3ukm8builders16Blink_UpdateTime17kPrePaintNameHashE = hidden local_unnamed_addr constant i64 4880392982914161630, align 8
@_ZN3ukm8builders16Blink_UpdateTime27kPrePaintBeginMainFrameNameE = hidden local_unnamed_addr constant [23 x i8] c"PrePaintBeginMainFrame\00", align 16
@_ZN3ukm8builders16Blink_UpdateTime31kPrePaintBeginMainFrameNameHashE = hidden local_unnamed_addr constant i64 -1879217759347684399, align 8
@_ZN3ukm8builders16Blink_UpdateTime25kScrollDocumentUpdateNameE = hidden local_unnamed_addr constant [21 x i8] c"ScrollDocumentUpdate\00", align 16
@_ZN3ukm8builders16Blink_UpdateTime29kScrollDocumentUpdateNameHashE = hidden local_unnamed_addr constant i64 -6932196484163248257, align 8
@_ZN3ukm8builders16Blink_UpdateTime39kScrollDocumentUpdateBeginMainFrameNameE = hidden local_unnamed_addr constant [35 x i8] c"ScrollDocumentUpdateBeginMainFrame\00", align 16
@_ZN3ukm8builders16Blink_UpdateTime43kScrollDocumentUpdateBeginMainFrameNameHashE = hidden local_unnamed_addr constant i64 1146724715168225299, align 8
@_ZN3ukm8builders16Blink_UpdateTime26kServiceDocumentUpdateNameE = hidden local_unnamed_addr constant [22 x i8] c"ServiceDocumentUpdate\00", align 16
@_ZN3ukm8builders16Blink_UpdateTime30kServiceDocumentUpdateNameHashE = hidden local_unnamed_addr constant i64 -5017981116923336520, align 8
@_ZN3ukm8builders16Blink_UpdateTime40kServiceDocumentUpdateBeginMainFrameNameE = hidden local_unnamed_addr constant [36 x i8] c"ServiceDocumentUpdateBeginMainFrame\00", align 16
@_ZN3ukm8builders16Blink_UpdateTime44kServiceDocumentUpdateBeginMainFrameNameHashE = hidden local_unnamed_addr constant i64 -9220346994756708889, align 8
@_ZN3ukm8builders16Blink_UpdateTime10kStyleNameE = hidden local_unnamed_addr constant [6 x i8] c"Style\00", align 1
@_ZN3ukm8builders16Blink_UpdateTime14kStyleNameHashE = hidden local_unnamed_addr constant i64 -5897376231885803999, align 8
@_ZN3ukm8builders16Blink_UpdateTime24kStyleBeginMainFrameNameE = hidden local_unnamed_addr constant [20 x i8] c"StyleBeginMainFrame\00", align 16
@_ZN3ukm8builders16Blink_UpdateTime28kStyleBeginMainFrameNameHashE = hidden local_unnamed_addr constant i64 -7902924404712246046, align 8
@_ZN3ukm8builders16Blink_UpdateTime20kStylePercentageNameE = hidden local_unnamed_addr constant [16 x i8] c"StylePercentage\00", align 16
@_ZN3ukm8builders16Blink_UpdateTime24kStylePercentageNameHashE = hidden local_unnamed_addr constant i64 -9036110219824671740, align 8
@_ZN3ukm8builders16Blink_UpdateTime17kUpdateLayersNameE = hidden local_unnamed_addr constant [13 x i8] c"UpdateLayers\00", align 1
@_ZN3ukm8builders16Blink_UpdateTime21kUpdateLayersNameHashE = hidden local_unnamed_addr constant i64 1916294310099025691, align 8
@_ZN3ukm8builders16Blink_UpdateTime31kUpdateLayersBeginMainFrameNameE = hidden local_unnamed_addr constant [27 x i8] c"UpdateLayersBeginMainFrame\00", align 16
@_ZN3ukm8builders16Blink_UpdateTime35kUpdateLayersBeginMainFrameNameHashE = hidden local_unnamed_addr constant i64 -9065747331949369157, align 8
@_ZN3ukm8builders16Blink_UpdateTime31kUpdateViewportIntersectionNameE = hidden local_unnamed_addr constant [27 x i8] c"UpdateViewportIntersection\00", align 16
@_ZN3ukm8builders16Blink_UpdateTime35kUpdateViewportIntersectionNameHashE = hidden local_unnamed_addr constant i64 1757331034736396629, align 8
@_ZN3ukm8builders16Blink_UpdateTime45kUpdateViewportIntersectionBeginMainFrameNameE = hidden local_unnamed_addr constant [41 x i8] c"UpdateViewportIntersectionBeginMainFrame\00", align 16
@_ZN3ukm8builders16Blink_UpdateTime49kUpdateViewportIntersectionBeginMainFrameNameHashE = hidden local_unnamed_addr constant i64 -7302734591555785712, align 8
@_ZN3ukm8builders16Blink_UpdateTime29kUserDrivenDocumentUpdateNameE = hidden local_unnamed_addr constant [25 x i8] c"UserDrivenDocumentUpdate\00", align 16
@_ZN3ukm8builders16Blink_UpdateTime33kUserDrivenDocumentUpdateNameHashE = hidden local_unnamed_addr constant i64 -3100032599974303869, align 8
@_ZN3ukm8builders16Blink_UpdateTime43kUserDrivenDocumentUpdateBeginMainFrameNameE = hidden local_unnamed_addr constant [39 x i8] c"UserDrivenDocumentUpdateBeginMainFrame\00", align 16
@_ZN3ukm8builders16Blink_UpdateTime47kUserDrivenDocumentUpdateBeginMainFrameNameHashE = hidden local_unnamed_addr constant i64 -8656042313570469868, align 8
@_ZN3ukm8builders16Blink_UpdateTime18kWaitForCommitNameE = hidden local_unnamed_addr constant [14 x i8] c"WaitForCommit\00", align 1
@_ZN3ukm8builders16Blink_UpdateTime22kWaitForCommitNameHashE = hidden local_unnamed_addr constant i64 -2253359029411034642, align 8
@_ZN3ukm8builders16Blink_UpdateTime32kWaitForCommitBeginMainFrameNameE = hidden local_unnamed_addr constant [28 x i8] c"WaitForCommitBeginMainFrame\00", align 16
@_ZN3ukm8builders16Blink_UpdateTime36kWaitForCommitBeginMainFrameNameHashE = hidden local_unnamed_addr constant i64 2189166352894194716, align 8
@_ZN3ukm8builders16Blink_UseCounter10kEntryNameE = hidden local_unnamed_addr constant [17 x i8] c"Blink.UseCounter\00", align 16
@_ZN3ukm8builders16Blink_UseCounter14kEntryNameHashE = hidden local_unnamed_addr constant i64 -1960623501023170240, align 8
@_ZTVN3ukm8builders16Blink_UseCounterE = hidden unnamed_addr constant { [4 x i8*] } { [4 x i8*] [i8* null, i8* null, i8* bitcast (void (%"class.ukm::builders::Blink_UseCounter"*)* @_ZN3ukm8builders16Blink_UseCounterD2Ev to i8*), i8* bitcast (void (%"class.ukm::builders::Blink_UseCounter"*)* @_ZN3ukm8builders16Blink_UseCounterD0Ev to i8*)] }, align 8
@_ZN3ukm8builders16Blink_UseCounter12kFeatureNameE = hidden local_unnamed_addr constant [8 x i8] c"Feature\00", align 1
@_ZN3ukm8builders16Blink_UseCounter16kFeatureNameHashE = hidden local_unnamed_addr constant i64 2378497229593503977, align 8
@_ZN3ukm8builders16Blink_UseCounter23kIsMainFrameFeatureNameE = hidden local_unnamed_addr constant [19 x i8] c"IsMainFrameFeature\00", align 16
@_ZN3ukm8builders16Blink_UseCounter27kIsMainFrameFeatureNameHashE = hidden local_unnamed_addr constant i64 8112503265735119902, align 8
@_ZN3ukm8builders10ClickInput10kEntryNameE = hidden local_unnamed_addr constant [11 x i8] c"ClickInput\00", align 1
@_ZN3ukm8builders10ClickInput14kEntryNameHashE = hidden local_unnamed_addr constant i64 -176223783609196534, align 8
@_ZTVN3ukm8builders10ClickInputE = hidden unnamed_addr constant { [4 x i8*] } { [4 x i8*] [i8* null, i8* null, i8* bitcast (void (%"class.ukm::builders::ClickInput"*)* @_ZN3ukm8builders10ClickInputD2Ev to i8*), i8* bitcast (void (%"class.ukm::builders::ClickInput"*)* @_ZN3ukm8builders10ClickInputD0Ev to i8*)] }, align 8
@_ZN3ukm8builders10ClickInput33kExperimental_ClickInputBurstNameE = hidden local_unnamed_addr constant [29 x i8] c"Experimental.ClickInputBurst\00", align 16
@_ZN3ukm8builders10ClickInput37kExperimental_ClickInputBurstNameHashE = hidden local_unnamed_addr constant i64 -3306256406370410400, align 8
@_ZN3ukm8builders18ClientRenderingAPI10kEntryNameE = hidden local_unnamed_addr constant [19 x i8] c"ClientRenderingAPI\00", align 16
@_ZN3ukm8builders18ClientRenderingAPI14kEntryNameHashE = hidden local_unnamed_addr constant i64 528939567029470806, align 8
@_ZTVN3ukm8builders18ClientRenderingAPIE = hidden unnamed_addr constant { [4 x i8*] } { [4 x i8*] [i8* null, i8* null, i8* bitcast (void (%"class.ukm::builders::ClientRenderingAPI"*)* @_ZN3ukm8builders18ClientRenderingAPID2Ev to i8*), i8* bitcast (void (%"class.ukm::builders::ClientRenderingAPI"*)* @_ZN3ukm8builders18ClientRenderingAPID0Ev to i8*)] }, align 8
@_ZN3ukm8builders18ClientRenderingAPI28kCanvas_RenderingContextNameE = hidden local_unnamed_addr constant [24 x i8] c"Canvas.RenderingContext\00", align 16
@_ZN3ukm8builders18ClientRenderingAPI32kCanvas_RenderingContextNameHashE = hidden local_unnamed_addr constant i64 4637085183716198224, align 8
@_ZN3ukm8builders18ClientRenderingAPI35kCanvas_RenderingContextDrawnToNameE = hidden local_unnamed_addr constant [31 x i8] c"Canvas.RenderingContextDrawnTo\00", align 16
@_ZN3ukm8builders18ClientRenderingAPI39kCanvas_RenderingContextDrawnToNameHashE = hidden local_unnamed_addr constant i64 -103699008032871057, align 8
@_ZN3ukm8builders18ClientRenderingAPI14kGPUDeviceNameE = hidden local_unnamed_addr constant [10 x i8] c"GPUDevice\00", align 1
@_ZN3ukm8builders18ClientRenderingAPI18kGPUDeviceNameHashE = hidden local_unnamed_addr constant i64 -7100337709727692875, align 8
@_ZN3ukm8builders18ClientRenderingAPI37kOffscreenCanvas_RenderingContextNameE = hidden local_unnamed_addr constant [33 x i8] c"OffscreenCanvas.RenderingContext\00", align 16
@_ZN3ukm8builders18ClientRenderingAPI41kOffscreenCanvas_RenderingContextNameHashE = hidden local_unnamed_addr constant i64 9150383311060652241, align 8
@_ZN3ukm8builders18ClientRenderingAPI44kOffscreenCanvas_RenderingContextDrawnToNameE = hidden local_unnamed_addr constant [40 x i8] c"OffscreenCanvas.RenderingContextDrawnTo\00", align 16
@_ZN3ukm8builders18ClientRenderingAPI48kOffscreenCanvas_RenderingContextDrawnToNameHashE = hidden local_unnamed_addr constant i64 -4268214830970353233, align 8
@_ZN3ukm8builders20Compositor_Rendering10kEntryNameE = hidden local_unnamed_addr constant [21 x i8] c"Compositor.Rendering\00", align 16
@_ZN3ukm8builders20Compositor_Rendering14kEntryNameHashE = hidden local_unnamed_addr constant i64 -442885004474633969, align 8
@_ZTVN3ukm8builders20Compositor_RenderingE = hidden unnamed_addr constant { [4 x i8*] } { [4 x i8*] [i8* null, i8* null, i8* bitcast (void (%"class.ukm::builders::Compositor_Rendering"*)* @_ZN3ukm8builders20Compositor_RenderingD2Ev to i8*), i8* bitcast (void (%"class.ukm::builders::Compositor_Rendering"*)* @_ZN3ukm8builders20Compositor_RenderingD0Ev to i8*)] }, align 8
@_ZN3ukm8builders20Compositor_Rendering30kCheckerboardedImagesCountNameE = hidden local_unnamed_addr constant [26 x i8] c"CheckerboardedImagesCount\00", align 16
@_ZN3ukm8builders20Compositor_Rendering34kCheckerboardedImagesCountNameHashE = hidden local_unnamed_addr constant i64 1155611193130623091, align 8
@_ZN3ukm8builders26Compositor_UserInteraction10kEntryNameE = hidden local_unnamed_addr constant [27 x i8] c"Compositor.UserInteraction\00", align 16
@_ZN3ukm8builders26Compositor_UserInteraction14kEntryNameHashE = hidden local_unnamed_addr constant i64 3378172330402895005, align 8
@_ZTVN3ukm8builders26Compositor_UserInteractionE = hidden unnamed_addr constant { [4 x i8*] } { [4 x i8*] [i8* null, i8* null, i8* bitcast (void (%"class.ukm::builders::Compositor_UserInteraction"*)* @_ZN3ukm8builders26Compositor_UserInteractionD2Ev to i8*), i8* bitcast (void (%"class.ukm::builders::Compositor_UserInteraction"*)* @_ZN3ukm8builders26Compositor_UserInteractionD0Ev to i8*)] }, align 8
@_ZN3ukm8builders26Compositor_UserInteraction30kCheckerboardedContentAreaNameE = hidden local_unnamed_addr constant [26 x i8] c"CheckerboardedContentArea\00", align 16
@_ZN3ukm8builders26Compositor_UserInteraction34kCheckerboardedContentAreaNameHashE = hidden local_unnamed_addr constant i64 -82040032011441356, align 8
@_ZN3ukm8builders26Compositor_UserInteraction35kCheckerboardedContentAreaRatioNameE = hidden local_unnamed_addr constant [31 x i8] c"CheckerboardedContentAreaRatio\00", align 16
@_ZN3ukm8builders26Compositor_UserInteraction39kCheckerboardedContentAreaRatioNameHashE = hidden local_unnamed_addr constant i64 6812281970879011502, align 8
@_ZN3ukm8builders26Compositor_UserInteraction30kCheckerboardedImagesCountNameE = hidden local_unnamed_addr constant [26 x i8] c"CheckerboardedImagesCount\00", align 16
@_ZN3ukm8builders26Compositor_UserInteraction34kCheckerboardedImagesCountNameHashE = hidden local_unnamed_addr constant i64 1155611193130623091, align 8
@_ZN3ukm8builders26Compositor_UserInteraction20kNumMissingTilesNameE = hidden local_unnamed_addr constant [16 x i8] c"NumMissingTiles\00", align 16
@_ZN3ukm8builders26Compositor_UserInteraction24kNumMissingTilesNameHashE = hidden local_unnamed_addr constant i64 -3969383782770942717, align 8
@_ZN3ukm8builders30ContactsPicker_ShareStatistics10kEntryNameE = hidden local_unnamed_addr constant [31 x i8] c"ContactsPicker.ShareStatistics\00", align 16
@_ZN3ukm8builders30ContactsPicker_ShareStatistics14kEntryNameHashE = hidden local_unnamed_addr constant i64 -7071068115193649409, align 8
@_ZTVN3ukm8builders30ContactsPicker_ShareStatisticsE = hidden unnamed_addr constant { [4 x i8*] } { [4 x i8*] [i8* null, i8* null, i8* bitcast (void (%"class.ukm::builders::ContactsPicker_ShareStatistics"*)* @_ZN3ukm8builders30ContactsPicker_ShareStatisticsD2Ev to i8*), i8* bitcast (void (%"class.ukm::builders::ContactsPicker_ShareStatistics"*)* @_ZN3ukm8builders30ContactsPicker_ShareStatisticsD0Ev to i8*)] }, align 8
@_ZN3ukm8builders30ContactsPicker_ShareStatistics24kPropertiesRequestedNameE = hidden local_unnamed_addr constant [20 x i8] c"PropertiesRequested\00", align 16
@_ZN3ukm8builders30ContactsPicker_ShareStatistics28kPropertiesRequestedNameHashE = hidden local_unnamed_addr constant i64 -71462120556558378, align 8
@_ZN3ukm8builders30ContactsPicker_ShareStatistics16kSelectCountNameE = hidden local_unnamed_addr constant [12 x i8] c"SelectCount\00", align 1
@_ZN3ukm8builders30ContactsPicker_ShareStatistics20kSelectCountNameHashE = hidden local_unnamed_addr constant i64 5527119260645369915, align 8
@_ZN3ukm8builders30ContactsPicker_ShareStatistics21kSelectPercentageNameE = hidden local_unnamed_addr constant [17 x i8] c"SelectPercentage\00", align 16
@_ZN3ukm8builders30ContactsPicker_ShareStatistics25kSelectPercentageNameHashE = hidden local_unnamed_addr constant i64 -8651443002055910673, align 8
@_ZN3ukm8builders18ContentIndex_Added10kEntryNameE = hidden local_unnamed_addr constant [19 x i8] c"ContentIndex.Added\00", align 16
@_ZN3ukm8builders18ContentIndex_Added14kEntryNameHashE = hidden local_unnamed_addr constant i64 7195670717417274603, align 8
@_ZTVN3ukm8builders18ContentIndex_AddedE = hidden unnamed_addr constant { [4 x i8*] } { [4 x i8*] [i8* null, i8* null, i8* bitcast (void (%"class.ukm::builders::ContentIndex_Added"*)* @_ZN3ukm8builders18ContentIndex_AddedD2Ev to i8*), i8* bitcast (void (%"class.ukm::builders::ContentIndex_Added"*)* @_ZN3ukm8builders18ContentIndex_AddedD0Ev to i8*)] }, align 8
@_ZN3ukm8builders18ContentIndex_Added13kCategoryNameE = hidden local_unnamed_addr constant [9 x i8] c"Category\00", align 1
@_ZN3ukm8builders18ContentIndex_Added17kCategoryNameHashE = hidden local_unnamed_addr constant i64 4241224519481557898, align 8
@_ZN3ukm8builders26ContentIndex_DeletedByUser10kEntryNameE = hidden local_unnamed_addr constant [27 x i8] c"ContentIndex.DeletedByUser\00", align 16
@_ZN3ukm8builders26ContentIndex_DeletedByUser14kEntryNameHashE = hidden local_unnamed_addr constant i64 8302809238691294596, align 8
@_ZTVN3ukm8builders26ContentIndex_DeletedByUserE = hidden unnamed_addr constant { [4 x i8*] } { [4 x i8*] [i8* null, i8* null, i8* bitcast (void (%"class.ukm::builders::ContentIndex_DeletedByUser"*)* @_ZN3ukm8builders26ContentIndex_DeletedByUserD2Ev to i8*), i8* bitcast (void (%"class.ukm::builders::ContentIndex_DeletedByUser"*)* @_ZN3ukm8builders26ContentIndex_DeletedByUserD0Ev to i8*)] }, align 8
@_ZN3ukm8builders26ContentIndex_DeletedByUser12kDeletedNameE = hidden local_unnamed_addr constant [8 x i8] c"Deleted\00", align 1
@_ZN3ukm8builders26ContentIndex_DeletedByUser16kDeletedNameHashE = hidden local_unnamed_addr constant i64 6910211073230771657, align 8
@_ZN3ukm8builders19ContentIndex_Opened10kEntryNameE = hidden local_unnamed_addr constant [20 x i8] c"ContentIndex.Opened\00", align 16
@_ZN3ukm8builders19ContentIndex_Opened14kEntryNameHashE = hidden local_unnamed_addr constant i64 4039427715416584382, align 8
@_ZTVN3ukm8builders19ContentIndex_OpenedE = hidden unnamed_addr constant { [4 x i8*] } { [4 x i8*] [i8* null, i8* null, i8* bitcast (void (%"class.ukm::builders::ContentIndex_Opened"*)* @_ZN3ukm8builders19ContentIndex_OpenedD2Ev to i8*), i8* bitcast (void (%"class.ukm::builders::ContentIndex_Opened"*)* @_ZN3ukm8builders19ContentIndex_OpenedD0Ev to i8*)] }, align 8
@_ZN3ukm8builders19ContentIndex_Opened14kIsOfflineNameE = hidden local_unnamed_addr constant [10 x i8] c"IsOffline\00", align 1
@_ZN3ukm8builders19ContentIndex_Opened18kIsOfflineNameHashE = hidden local_unnamed_addr constant i64 -1147929111010270159, align 8
@_ZN3ukm8builders27ContextMenuAndroid_Selected10kEntryNameE = hidden local_unnamed_addr constant [28 x i8] c"ContextMenuAndroid.Selected\00", align 16
@_ZN3ukm8builders27ContextMenuAndroid_Selected14kEntryNameHashE = hidden local_unnamed_addr constant i64 1205887675013444985, align 8
@_ZTVN3ukm8builders27ContextMenuAndroid_SelectedE = hidden unnamed_addr constant { [4 x i8*] } { [4 x i8*] [i8* null, i8* null, i8* bitcast (void (%"class.ukm::builders::ContextMenuAndroid_Selected"*)* @_ZN3ukm8builders27ContextMenuAndroid_SelectedD2Ev to i8*), i8* bitcast (void (%"class.ukm::builders::ContextMenuAndroid_Selected"*)* @_ZN3ukm8builders27ContextMenuAndroid_SelectedD0Ev to i8*)] }, align 8
@_ZN3ukm8builders27ContextMenuAndroid_Selected11kActionNameE = hidden local_unnamed_addr constant [7 x i8] c"Action\00", align 1
@_ZN3ukm8builders27ContextMenuAndroid_Selected15kActionNameHashE = hidden local_unnamed_addr constant i64 21381969153622804, align 8
@_ZN3ukm8builders24ContextMenuAndroid_Shown10kEntryNameE = hidden local_unnamed_addr constant [25 x i8] c"ContextMenuAndroid.Shown\00", align 16
@_ZN3ukm8builders24ContextMenuAndroid_Shown14kEntryNameHashE = hidden local_unnamed_addr constant i64 -5799926363703714873, align 8
@_ZTVN3ukm8builders24ContextMenuAndroid_ShownE = hidden unnamed_addr constant { [4 x i8*] } { [4 x i8*] [i8* null, i8* null, i8* bitcast (void (%"class.ukm::builders::ContextMenuAndroid_Shown"*)* @_ZN3ukm8builders24ContextMenuAndroid_ShownD2Ev to i8*), i8* bitcast (void (%"class.ukm::builders::ContextMenuAndroid_Shown"*)* @_ZN3ukm8builders24ContextMenuAndroid_ShownD0Ev to i8*)] }, align 8
@_ZN3ukm8builders24ContextMenuAndroid_Shown18kSearchByImageNameE = hidden local_unnamed_addr constant [14 x i8] c"SearchByImage\00", align 1
@_ZN3ukm8builders24ContextMenuAndroid_Shown22kSearchByImageNameHashE = hidden local_unnamed_addr constant i64 6108028259674083300, align 8
@_ZN3ukm8builders24ContextMenuAndroid_Shown25kSearchWithGoogleLensNameE = hidden local_unnamed_addr constant [21 x i8] c"SearchWithGoogleLens\00", align 16
@_ZN3ukm8builders24ContextMenuAndroid_Shown29kSearchWithGoogleLensNameHashE = hidden local_unnamed_addr constant i64 -4785910484017554876, align 8
@_ZN3ukm8builders24ContextMenuAndroid_Shown23kShopWithGoogleLensNameE = hidden local_unnamed_addr constant [19 x i8] c"ShopWithGoogleLens\00", align 16
@_ZN3ukm8builders24ContextMenuAndroid_Shown27kShopWithGoogleLensNameHashE = hidden local_unnamed_addr constant i64 8394054406851481398, align 8
@_ZN3ukm8builders24ContextMenuAndroid_Shown27kShopWithGoogleLensChipNameE = hidden local_unnamed_addr constant [23 x i8] c"ShopWithGoogleLensChip\00", align 16
@_ZN3ukm8builders24ContextMenuAndroid_Shown31kShopWithGoogleLensChipNameHashE = hidden local_unnamed_addr constant i64 307017728732963727, align 8
@_ZN3ukm8builders24ContextMenuAndroid_Shown32kTranslateWithGoogleLensChipNameE = hidden local_unnamed_addr constant [28 x i8] c"TranslateWithGoogleLensChip\00", align 16
@_ZN3ukm8builders24ContextMenuAndroid_Shown36kTranslateWithGoogleLensChipNameHashE = hidden local_unnamed_addr constant i64 1156733219451370314, align 8
@_ZN3ukm8builders16ContextualSearch10kEntryNameE = hidden local_unnamed_addr constant [17 x i8] c"ContextualSearch\00", align 16
@_ZN3ukm8builders16ContextualSearch14kEntryNameHashE = hidden local_unnamed_addr constant i64 -3567324246740757281, align 8
@_ZTVN3ukm8builders16ContextualSearchE = hidden unnamed_addr constant { [4 x i8*] } { [4 x i8*] [i8* null, i8* null, i8* bitcast (void (%"class.ukm::builders::ContextualSearch"*)* @_ZN3ukm8builders16ContextualSearchD2Ev to i8*), i8* bitcast (void (%"class.ukm::builders::ContextualSearch"*)* @_ZN3ukm8builders16ContextualSearchD0Ev to i8*)] }, align 8
@_ZN3ukm8builders16ContextualSearch13kDidOptInNameE = hidden local_unnamed_addr constant [9 x i8] c"DidOptIn\00", align 1
@_ZN3ukm8builders16ContextualSearch17kDidOptInNameHashE = hidden local_unnamed_addr constant i64 -5805959946658636621, align 8
@_ZN3ukm8builders16ContextualSearch26kDurationAfterScrollMsNameE = hidden local_unnamed_addr constant [22 x i8] c"DurationAfterScrollMs\00", align 16
@_ZN3ukm8builders16ContextualSearch30kDurationAfterScrollMsNameHashE = hidden local_unnamed_addr constant i64 -8752780426008078888, align 8
@_ZN3ukm8builders16ContextualSearch27kEntityImpressionsCountNameE = hidden local_unnamed_addr constant [23 x i8] c"EntityImpressionsCount\00", align 16
@_ZN3ukm8builders16ContextualSearch31kEntityImpressionsCountNameHashE = hidden local_unnamed_addr constant i64 -2493962319702905761, align 8
@_ZN3ukm8builders16ContextualSearch21kEntityOpensCountNameE = hidden local_unnamed_addr constant [17 x i8] c"EntityOpensCount\00", align 16
@_ZN3ukm8builders16ContextualSearch25kEntityOpensCountNameHashE = hidden local_unnamed_addr constant i64 641585822242808710, align 8
@_ZN3ukm8builders16ContextualSearch13kFontSizeNameE = hidden local_unnamed_addr constant [9 x i8] c"FontSize\00", align 1
@_ZN3ukm8builders16ContextualSearch17kFontSizeNameHashE = hidden local_unnamed_addr constant i64 2643658496925572245, align 8
@_ZN3ukm8builders16ContextualSearch13kIsEntityNameE = hidden local_unnamed_addr constant [9 x i8] c"IsEntity\00", align 1
@_ZN3ukm8builders16ContextualSearch17kIsEntityNameHashE = hidden local_unnamed_addr constant i64 7662372954863476590, align 8
@_ZN3ukm8builders16ContextualSearch21kIsEntityEligibleNameE = hidden local_unnamed_addr constant [17 x i8] c"IsEntityEligible\00", align 16
@_ZN3ukm8builders16ContextualSearch25kIsEntityEligibleNameHashE = hidden local_unnamed_addr constant i64 -3798385517340078218, align 8
@_ZN3ukm8builders16ContextualSearch11kIsHttpNameE = hidden local_unnamed_addr constant [7 x i8] c"IsHttp\00", align 1
@_ZN3ukm8builders16ContextualSearch15kIsHttpNameHashE = hidden local_unnamed_addr constant i64 1002302620744868215, align 8
@_ZN3ukm8builders16ContextualSearch23kIsLanguageMismatchNameE = hidden local_unnamed_addr constant [19 x i8] c"IsLanguageMismatch\00", align 16
@_ZN3ukm8builders16ContextualSearch27kIsLanguageMismatchNameHashE = hidden local_unnamed_addr constant i64 2255335648555969039, align 8
@_ZN3ukm8builders16ContextualSearch15kIsLongWordNameE = hidden local_unnamed_addr constant [11 x i8] c"IsLongWord\00", align 1
@_ZN3ukm8builders16ContextualSearch19kIsLongWordNameHashE = hidden local_unnamed_addr constant i64 -298226121232004271, align 8
@_ZN3ukm8builders16ContextualSearch24kIsSecondTapOverrideNameE = hidden local_unnamed_addr constant [20 x i8] c"IsSecondTapOverride\00", align 16
@_ZN3ukm8builders16ContextualSearch28kIsSecondTapOverrideNameHashE = hidden local_unnamed_addr constant i64 8788769137190271820, align 8
@_ZN3ukm8builders16ContextualSearch16kIsShortWordNameE = hidden local_unnamed_addr constant [12 x i8] c"IsShortWord\00", align 1
@_ZN3ukm8builders16ContextualSearch20kIsShortWordNameHashE = hidden local_unnamed_addr constant i64 7992627050111663729, align 8
@_ZN3ukm8builders16ContextualSearch15kIsWordEdgeNameE = hidden local_unnamed_addr constant [11 x i8] c"IsWordEdge\00", align 1
@_ZN3ukm8builders16ContextualSearch19kIsWordEdgeNameHashE = hidden local_unnamed_addr constant i64 7068207925783210246, align 8
@_ZN3ukm8builders16ContextualSearch14kOpenCountNameE = hidden local_unnamed_addr constant [10 x i8] c"OpenCount\00", align 1
@_ZN3ukm8builders16ContextualSearch18kOpenCountNameHashE = hidden local_unnamed_addr constant i64 8476882816646040416, align 8
@_ZN3ukm8builders16ContextualSearch28kOutcomeRankerDidPredictNameE = hidden local_unnamed_addr constant [24 x i8] c"OutcomeRankerDidPredict\00", align 16
@_ZN3ukm8builders16ContextualSearch32kOutcomeRankerDidPredictNameHashE = hidden local_unnamed_addr constant i64 1223460898641686759, align 8
@_ZN3ukm8builders16ContextualSearch28kOutcomeRankerPredictionNameE = hidden local_unnamed_addr constant [24 x i8] c"OutcomeRankerPrediction\00", align 16
@_ZN3ukm8builders16ContextualSearch32kOutcomeRankerPredictionNameHashE = hidden local_unnamed_addr constant i64 -2914464562860507192, align 8
@_ZN3ukm8builders16ContextualSearch33kOutcomeRankerPredictionScoreNameE = hidden local_unnamed_addr constant [29 x i8] c"OutcomeRankerPredictionScore\00", align 16
@_ZN3ukm8builders16ContextualSearch37kOutcomeRankerPredictionScoreNameHashE = hidden local_unnamed_addr constant i64 -7583677166080977689, align 8
@_ZN3ukm8builders16ContextualSearch29kOutcomeWasCardsDataShownNameE = hidden local_unnamed_addr constant [25 x i8] c"OutcomeWasCardsDataShown\00", align 16
@_ZN3ukm8builders16ContextualSearch33kOutcomeWasCardsDataShownNameHashE = hidden local_unnamed_addr constant i64 -7860425708334089414, align 8
@_ZN3ukm8builders16ContextualSearch26kOutcomeWasPanelOpenedNameE = hidden local_unnamed_addr constant [22 x i8] c"OutcomeWasPanelOpened\00", align 16
@_ZN3ukm8builders16ContextualSearch30kOutcomeWasPanelOpenedNameHashE = hidden local_unnamed_addr constant i64 1283040101353376836, align 8
@_ZN3ukm8builders16ContextualSearch33kOutcomeWasQuickActionClickedNameE = hidden local_unnamed_addr constant [29 x i8] c"OutcomeWasQuickActionClicked\00", align 16
@_ZN3ukm8builders16ContextualSearch37kOutcomeWasQuickActionClickedNameHashE = hidden local_unnamed_addr constant i64 4665494976417872953, align 8
@_ZN3ukm8builders16ContextualSearch30kOutcomeWasQuickAnswerSeenNameE = hidden local_unnamed_addr constant [26 x i8] c"OutcomeWasQuickAnswerSeen\00", align 16
@_ZN3ukm8builders16ContextualSearch34kOutcomeWasQuickAnswerSeenNameHashE = hidden local_unnamed_addr constant i64 107968630341396949, align 8
@_ZN3ukm8builders16ContextualSearch21kPortionOfElementNameE = hidden local_unnamed_addr constant [17 x i8] c"PortionOfElement\00", align 16
@_ZN3ukm8builders16ContextualSearch25kPortionOfElementNameHashE = hidden local_unnamed_addr constant i64 -2160903432626682984, align 8
@_ZN3ukm8builders16ContextualSearch28kPrevious28DayCtrPercentNameE = hidden local_unnamed_addr constant [24 x i8] c"Previous28DayCtrPercent\00", align 16
@_ZN3ukm8builders16ContextualSearch32kPrevious28DayCtrPercentNameHashE = hidden local_unnamed_addr constant i64 959880084996189379, align 8
@_ZN3ukm8builders16ContextualSearch34kPrevious28DayImpressionsCountNameE = hidden local_unnamed_addr constant [30 x i8] c"Previous28DayImpressionsCount\00", align 16
@_ZN3ukm8builders16ContextualSearch38kPrevious28DayImpressionsCountNameHashE = hidden local_unnamed_addr constant i64 -2686166566640891720, align 8
@_ZN3ukm8builders16ContextualSearch27kPreviousWeekCtrPercentNameE = hidden local_unnamed_addr constant [23 x i8] c"PreviousWeekCtrPercent\00", align 16
@_ZN3ukm8builders16ContextualSearch31kPreviousWeekCtrPercentNameHashE = hidden local_unnamed_addr constant i64 -8268019789580234415, align 8
@_ZN3ukm8builders16ContextualSearch33kPreviousWeekImpressionsCountNameE = hidden local_unnamed_addr constant [29 x i8] c"PreviousWeekImpressionsCount\00", align 16
@_ZN3ukm8builders16ContextualSearch37kPreviousWeekImpressionsCountNameHashE = hidden local_unnamed_addr constant i64 -8825455594137898810, align 8
@_ZN3ukm8builders16ContextualSearch32kQuickActionImpressionsCountNameE = hidden local_unnamed_addr constant [28 x i8] c"QuickActionImpressionsCount\00", align 16
@_ZN3ukm8builders16ContextualSearch36kQuickActionImpressionsCountNameHashE = hidden local_unnamed_addr constant i64 5143533701497306060, align 8
@_ZN3ukm8builders16ContextualSearch24kQuickActionsIgnoredNameE = hidden local_unnamed_addr constant [20 x i8] c"QuickActionsIgnored\00", align 16
@_ZN3ukm8builders16ContextualSearch28kQuickActionsIgnoredNameHashE = hidden local_unnamed_addr constant i64 990579457210023058, align 8
@_ZN3ukm8builders16ContextualSearch22kQuickActionsTakenNameE = hidden local_unnamed_addr constant [18 x i8] c"QuickActionsTaken\00", align 16
@_ZN3ukm8builders16ContextualSearch26kQuickActionsTakenNameHashE = hidden local_unnamed_addr constant i64 -6393963929942815762, align 8
@_ZN3ukm8builders16ContextualSearch21kQuickAnswerCountNameE = hidden local_unnamed_addr constant [17 x i8] c"QuickAnswerCount\00", align 16
@_ZN3ukm8builders16ContextualSearch25kQuickAnswerCountNameHashE = hidden local_unnamed_addr constant i64 4510489829885602207, align 8
@_ZN3ukm8builders16ContextualSearch17kScreenTopDpsNameE = hidden local_unnamed_addr constant [13 x i8] c"ScreenTopDps\00", align 1
@_ZN3ukm8builders16ContextualSearch21kScreenTopDpsNameHashE = hidden local_unnamed_addr constant i64 -5762837724454479224, align 8
@_ZN3ukm8builders16ContextualSearch13kTapCountNameE = hidden local_unnamed_addr constant [9 x i8] c"TapCount\00", align 1
@_ZN3ukm8builders16ContextualSearch17kTapCountNameHashE = hidden local_unnamed_addr constant i64 271089889000519387, align 8
@_ZN3ukm8builders16ContextualSearch18kTapDurationMsNameE = hidden local_unnamed_addr constant [14 x i8] c"TapDurationMs\00", align 1
@_ZN3ukm8builders16ContextualSearch22kTapDurationMsNameHashE = hidden local_unnamed_addr constant i64 -9010927384887846294, align 8
@_ZN3ukm8builders16ContextualSearch20kWasScreenBottomNameE = hidden local_unnamed_addr constant [16 x i8] c"WasScreenBottom\00", align 16
@_ZN3ukm8builders16ContextualSearch24kWasScreenBottomNameHashE = hidden local_unnamed_addr constant i64 8966660250732563679, align 8
@_ZN3ukm8builders19CPUUsageMeasurement10kEntryNameE = hidden local_unnamed_addr constant [20 x i8] c"CPUUsageMeasurement\00", align 16
@_ZN3ukm8builders19CPUUsageMeasurement14kEntryNameHashE = hidden local_unnamed_addr constant i64 988984496812825435, align 8
@_ZTVN3ukm8builders19CPUUsageMeasurementE = hidden unnamed_addr constant { [4 x i8*] } { [4 x i8*] [i8* null, i8* null, i8* bitcast (void (%"class.ukm::builders::CPUUsageMeasurement"*)* @_ZN3ukm8builders19CPUUsageMeasurementD2Ev to i8*), i8* bitcast (void (%"class.ukm::builders::CPUUsageMeasurement"*)* @_ZN3ukm8builders19CPUUsageMeasurementD0Ev to i8*)] }, align 8
@_ZN3ukm8builders19CPUUsageMeasurement13kCPUUsageNameE = hidden local_unnamed_addr constant [9 x i8] c"CPUUsage\00", align 1
@_ZN3ukm8builders19CPUUsageMeasurement17kCPUUsageNameHashE = hidden local_unnamed_addr constant i64 4766204289640456177, align 8
@_ZN3ukm8builders19CPUUsageMeasurement14kEventTypeNameE = hidden local_unnamed_addr constant [10 x i8] c"EventType\00", align 1
@_ZN3ukm8builders19CPUUsageMeasurement18kEventTypeNameHashE = hidden local_unnamed_addr constant i64 5446425777535537951, align 8
@_ZN3ukm8builders19CPUUsageMeasurement14kIsVisibleNameE = hidden local_unnamed_addr constant [10 x i8] c"IsVisible\00", align 1
@_ZN3ukm8builders19CPUUsageMeasurement18kIsVisibleNameHashE = hidden local_unnamed_addr constant i64 1485165748725517792, align 8
@_ZN3ukm8builders19CPUUsageMeasurement27kNumberOfCoresidentTabsNameE = hidden local_unnamed_addr constant [23 x i8] c"NumberOfCoresidentTabs\00", align 16
@_ZN3ukm8builders19CPUUsageMeasurement31kNumberOfCoresidentTabsNameHashE = hidden local_unnamed_addr constant i64 -8743363091905280222, align 8
@_ZN3ukm8builders19CPUUsageMeasurement28kObservationWindowSizeMsNameE = hidden local_unnamed_addr constant [24 x i8] c"ObservationWindowSizeMs\00", align 16
@_ZN3ukm8builders19CPUUsageMeasurement32kObservationWindowSizeMsNameHashE = hidden local_unnamed_addr constant i64 73587915121421831, align 8
@_ZN3ukm8builders19CPUUsageMeasurement20kProcessUptimeMsNameE = hidden local_unnamed_addr constant [16 x i8] c"ProcessUptimeMs\00", align 16
@_ZN3ukm8builders19CPUUsageMeasurement24kProcessUptimeMsNameHashE = hidden local_unnamed_addr constant i64 -5450736865339089078, align 8
@_ZN3ukm8builders18DataReductionProxy10kEntryNameE = hidden local_unnamed_addr constant [19 x i8] c"DataReductionProxy\00", align 16
@_ZN3ukm8builders18DataReductionProxy14kEntryNameHashE = hidden local_unnamed_addr constant i64 26394013458683718, align 8
@_ZTVN3ukm8builders18DataReductionProxyE = hidden unnamed_addr constant { [4 x i8*] } { [4 x i8*] [i8* null, i8* null, i8* bitcast (void (%"class.ukm::builders::DataReductionProxy"*)* @_ZN3ukm8builders18DataReductionProxyD2Ev to i8*), i8* bitcast (void (%"class.ukm::builders::DataReductionProxy"*)* @_ZN3ukm8builders18DataReductionProxyD0Ev to i8*)] }, align 8
@_ZN3ukm8builders18DataReductionProxy22kDataSaverPageUUIDNameE = hidden local_unnamed_addr constant [18 x i8] c"DataSaverPageUUID\00", align 16
@_ZN3ukm8builders18DataReductionProxy26kDataSaverPageUUIDNameHashE = hidden local_unnamed_addr constant i64 -5629560865682443631, align 8
@_ZN3ukm8builders18DataReductionProxy34kEstimatedOriginalNetworkBytesNameE = hidden local_unnamed_addr constant [30 x i8] c"EstimatedOriginalNetworkBytes\00", align 16
@_ZN3ukm8builders18DataReductionProxy38kEstimatedOriginalNetworkBytesNameHashE = hidden local_unnamed_addr constant i64 -1447554425181731034, align 8
@_ZN3ukm8builders15DocumentCreated10kEntryNameE = hidden local_unnamed_addr constant [16 x i8] c"DocumentCreated\00", align 16
@_ZN3ukm8builders15DocumentCreated14kEntryNameHashE = hidden local_unnamed_addr constant i64 2704655726834470033, align 8
@_ZTVN3ukm8builders15DocumentCreatedE = hidden unnamed_addr constant { [4 x i8*] } { [4 x i8*] [i8* null, i8* null, i8* bitcast (void (%"class.ukm::builders::DocumentCreated"*)* @_ZN3ukm8builders15DocumentCreatedD2Ev to i8*), i8* bitcast (void (%"class.ukm::builders::DocumentCreated"*)* @_ZN3ukm8builders15DocumentCreatedD0Ev to i8*)] }, align 8
@_ZN3ukm8builders15DocumentCreated23kIsCrossOriginFrameNameE = hidden local_unnamed_addr constant [19 x i8] c"IsCrossOriginFrame\00", align 16
@_ZN3ukm8builders15DocumentCreated27kIsCrossOriginFrameNameHashE = hidden local_unnamed_addr constant i64 -3392231387275611929, align 8
@_ZN3ukm8builders15DocumentCreated21kIsCrossSiteFrameNameE = hidden local_unnamed_addr constant [17 x i8] c"IsCrossSiteFrame\00", align 16
@_ZN3ukm8builders15DocumentCreated25kIsCrossSiteFrameNameHashE = hidden local_unnamed_addr constant i64 2664425578681353266, align 8
@_ZN3ukm8builders15DocumentCreated16kIsMainFrameNameE = hidden local_unnamed_addr constant [12 x i8] c"IsMainFrame\00", align 1
@_ZN3ukm8builders15DocumentCreated20kIsMainFrameNameHashE = hidden local_unnamed_addr constant i64 7266626398784684486, align 8
@_ZN3ukm8builders15DocumentCreated23kNavigationSourceIdNameE = hidden local_unnamed_addr constant [19 x i8] c"NavigationSourceId\00", align 16
@_ZN3ukm8builders15DocumentCreated27kNavigationSourceIdNameHashE = hidden local_unnamed_addr constant i64 -1637084481495096611, align 8
@_ZN3ukm8builders18Download_Completed10kEntryNameE = hidden local_unnamed_addr constant [19 x i8] c"Download.Completed\00", align 16
@_ZN3ukm8builders18Download_Completed14kEntryNameHashE = hidden local_unnamed_addr constant i64 -8628051204068969659, align 8
@_ZTVN3ukm8builders18Download_CompletedE = hidden unnamed_addr constant { [4 x i8*] } { [4 x i8*] [i8* null, i8* null, i8* bitcast (void (%"class.ukm::builders::Download_Completed"*)* @_ZN3ukm8builders18Download_CompletedD2Ev to i8*), i8* bitcast (void (%"class.ukm::builders::Download_Completed"*)* @_ZN3ukm8builders18Download_CompletedD0Ev to i8*)] }, align 8
@_ZN3ukm8builders18Download_Completed16kBytesWastedNameE = hidden local_unnamed_addr constant [12 x i8] c"BytesWasted\00", align 1
@_ZN3ukm8builders18Download_Completed20kBytesWastedNameHashE = hidden local_unnamed_addr constant i64 -5370545585366874507, align 8
@_ZN3ukm8builders18Download_Completed15kDownloadIdNameE = hidden local_unnamed_addr constant [11 x i8] c"DownloadId\00", align 1
@_ZN3ukm8builders18Download_Completed19kDownloadIdNameHashE = hidden local_unnamed_addr constant i64 -6870488207520590551, align 8
@_ZN3ukm8builders18Download_Completed22kResultingFileSizeNameE = hidden local_unnamed_addr constant [18 x i8] c"ResultingFileSize\00", align 16
@_ZN3ukm8builders18Download_Completed26kResultingFileSizeNameHashE = hidden local_unnamed_addr constant i64 -8576557133303476351, align 8
@_ZN3ukm8builders18Download_Completed19kTimeSinceStartNameE = hidden local_unnamed_addr constant [15 x i8] c"TimeSinceStart\00", align 1
@_ZN3ukm8builders18Download_Completed23kTimeSinceStartNameHashE = hidden local_unnamed_addr constant i64 1379962242842370033, align 8
@_ZN3ukm8builders20Download_Interrupted10kEntryNameE = hidden local_unnamed_addr constant [21 x i8] c"Download.Interrupted\00", align 16
@_ZN3ukm8builders20Download_Interrupted14kEntryNameHashE = hidden local_unnamed_addr constant i64 9706055097174303, align 8
@_ZTVN3ukm8builders20Download_InterruptedE = hidden unnamed_addr constant { [4 x i8*] } { [4 x i8*] [i8* null, i8* null, i8* bitcast (void (%"class.ukm::builders::Download_Interrupted"*)* @_ZN3ukm8builders20Download_InterruptedD2Ev to i8*), i8* bitcast (void (%"class.ukm::builders::Download_Interrupted"*)* @_ZN3ukm8builders20Download_InterruptedD0Ev to i8*)] }, align 8
@_ZN3ukm8builders20Download_Interrupted16kBytesWastedNameE = hidden local_unnamed_addr constant [12 x i8] c"BytesWasted\00", align 1
@_ZN3ukm8builders20Download_Interrupted20kBytesWastedNameHashE = hidden local_unnamed_addr constant i64 -5370545585366874507, align 8
@_ZN3ukm8builders20Download_Interrupted21kChangeInFileSizeNameE = hidden local_unnamed_addr constant [17 x i8] c"ChangeInFileSize\00", align 16
@_ZN3ukm8builders20Download_Interrupted25kChangeInFileSizeNameHashE = hidden local_unnamed_addr constant i64 -1503337369569552502, align 8
@_ZN3ukm8builders20Download_Interrupted15kDownloadIdNameE = hidden local_unnamed_addr constant [11 x i8] c"DownloadId\00", align 1
@_ZN3ukm8builders20Download_Interrupted19kDownloadIdNameHashE = hidden local_unnamed_addr constant i64 -6870488207520590551, align 8
@_ZN3ukm8builders20Download_Interrupted11kReasonNameE = hidden local_unnamed_addr constant [7 x i8] c"Reason\00", align 1
@_ZN3ukm8builders20Download_Interrupted15kReasonNameHashE = hidden local_unnamed_addr constant i64 -927086387882318, align 8
@_ZN3ukm8builders20Download_Interrupted22kResultingFileSizeNameE = hidden local_unnamed_addr constant [18 x i8] c"ResultingFileSize\00", align 16
@_ZN3ukm8builders20Download_Interrupted26kResultingFileSizeNameHashE = hidden local_unnamed_addr constant i64 -8576557133303476351, align 8
@_ZN3ukm8builders20Download_Interrupted19kTimeSinceStartNameE = hidden local_unnamed_addr constant [15 x i8] c"TimeSinceStart\00", align 1
@_ZN3ukm8builders20Download_Interrupted23kTimeSinceStartNameHashE = hidden local_unnamed_addr constant i64 1379962242842370033, align 8
@_ZN3ukm8builders16Download_Resumed10kEntryNameE = hidden local_unnamed_addr constant [17 x i8] c"Download.Resumed\00", align 16
@_ZN3ukm8builders16Download_Resumed14kEntryNameHashE = hidden local_unnamed_addr constant i64 9188207819461355990, align 8
@_ZTVN3ukm8builders16Download_ResumedE = hidden unnamed_addr constant { [4 x i8*] } { [4 x i8*] [i8* null, i8* null, i8* bitcast (void (%"class.ukm::builders::Download_Resumed"*)* @_ZN3ukm8builders16Download_ResumedD2Ev to i8*), i8* bitcast (void (%"class.ukm::builders::Download_Resumed"*)* @_ZN3ukm8builders16Download_ResumedD0Ev to i8*)] }, align 8
@_ZN3ukm8builders16Download_Resumed15kDownloadIdNameE = hidden local_unnamed_addr constant [11 x i8] c"DownloadId\00", align 1
@_ZN3ukm8builders16Download_Resumed19kDownloadIdNameHashE = hidden local_unnamed_addr constant i64 -6870488207520590551, align 8
@_ZN3ukm8builders16Download_Resumed9kModeNameE = hidden local_unnamed_addr constant [5 x i8] c"Mode\00", align 1
@_ZN3ukm8builders16Download_Resumed13kModeNameHashE = hidden local_unnamed_addr constant i64 7281166215790160128, align 8
@_ZN3ukm8builders16Download_Resumed19kTimeSinceStartNameE = hidden local_unnamed_addr constant [15 x i8] c"TimeSinceStart\00", align 1
@_ZN3ukm8builders16Download_Resumed23kTimeSinceStartNameHashE = hidden local_unnamed_addr constant i64 1379962242842370033, align 8
@_ZN3ukm8builders16Download_Started10kEntryNameE = hidden local_unnamed_addr constant [17 x i8] c"Download.Started\00", align 16
@_ZN3ukm8builders16Download_Started14kEntryNameHashE = hidden local_unnamed_addr constant i64 2153997617158303225, align 8
@_ZTVN3ukm8builders16Download_StartedE = hidden unnamed_addr constant { [4 x i8*] } { [4 x i8*] [i8* null, i8* null, i8* bitcast (void (%"class.ukm::builders::Download_Started"*)* @_ZN3ukm8builders16Download_StartedD2Ev to i8*), i8* bitcast (void (%"class.ukm::builders::Download_Started"*)* @_ZN3ukm8builders16Download_StartedD0Ev to i8*)] }, align 8
@_ZN3ukm8builders16Download_Started31kDownloadConnectionSecurityNameE = hidden local_unnamed_addr constant [27 x i8] c"DownloadConnectionSecurity\00", align 16
@_ZN3ukm8builders16Download_Started35kDownloadConnectionSecurityNameHashE = hidden local_unnamed_addr constant i64 1575516418771310819, align 8
@_ZN3ukm8builders16Download_Started15kDownloadIdNameE = hidden local_unnamed_addr constant [11 x i8] c"DownloadId\00", align 1
@_ZN3ukm8builders16Download_Started19kDownloadIdNameHashE = hidden local_unnamed_addr constant i64 -6870488207520590551, align 8
@_ZN3ukm8builders16Download_Started19kDownloadSourceNameE = hidden local_unnamed_addr constant [15 x i8] c"DownloadSource\00", align 1
@_ZN3ukm8builders16Download_Started23kDownloadSourceNameHashE = hidden local_unnamed_addr constant i64 -6488937945099384216, align 8
@_ZN3ukm8builders16Download_Started13kFileTypeNameE = hidden local_unnamed_addr constant [9 x i8] c"FileType\00", align 1
@_ZN3ukm8builders16Download_Started17kFileTypeNameHashE = hidden local_unnamed_addr constant i64 1646892813222506878, align 8
@_ZN3ukm8builders16Download_Started23kIsSameHostDownloadNameE = hidden local_unnamed_addr constant [19 x i8] c"IsSameHostDownload\00", align 16
@_ZN3ukm8builders16Download_Started27kIsSameHostDownloadNameHashE = hidden local_unnamed_addr constant i64 -6602075847893235900, align 8
@_ZN3ukm8builders23Event_ScrollBegin_Touch10kEntryNameE = hidden local_unnamed_addr constant [24 x i8] c"Event.ScrollBegin.Touch\00", align 16
@_ZN3ukm8builders23Event_ScrollBegin_Touch14kEntryNameHashE = hidden local_unnamed_addr constant i64 -6191489036960934130, align 8
@_ZTVN3ukm8builders23Event_ScrollBegin_TouchE = hidden unnamed_addr constant { [4 x i8*] } { [4 x i8*] [i8* null, i8* null, i8* bitcast (void (%"class.ukm::builders::Event_ScrollBegin_Touch"*)* @_ZN3ukm8builders23Event_ScrollBegin_TouchD2Ev to i8*), i8* bitcast (void (%"class.ukm::builders::Event_ScrollBegin_Touch"*)* @_ZN3ukm8builders23Event_ScrollBegin_TouchD0Ev to i8*)] }, align 8
@_ZN3ukm8builders23Event_ScrollBegin_Touch17kIsMainThreadNameE = hidden local_unnamed_addr constant [13 x i8] c"IsMainThread\00", align 1
@_ZN3ukm8builders23Event_ScrollBegin_Touch21kIsMainThreadNameHashE = hidden local_unnamed_addr constant i64 1011657010800388108, align 8
@_ZN3ukm8builders23Event_ScrollBegin_Touch18kTimeToHandledNameE = hidden local_unnamed_addr constant [14 x i8] c"TimeToHandled\00", align 1
@_ZN3ukm8builders23Event_ScrollBegin_Touch22kTimeToHandledNameHashE = hidden local_unnamed_addr constant i64 -7799494319383070747, align 8
@_ZN3ukm8builders23Event_ScrollBegin_Touch32kTimeToScrollUpdateSwapBeginNameE = hidden local_unnamed_addr constant [28 x i8] c"TimeToScrollUpdateSwapBegin\00", align 16
@_ZN3ukm8builders23Event_ScrollBegin_Touch36kTimeToScrollUpdateSwapBeginNameHashE = hidden local_unnamed_addr constant i64 1631660777277694939, align 8
@_ZN3ukm8builders23Event_ScrollBegin_Wheel10kEntryNameE = hidden local_unnamed_addr constant [24 x i8] c"Event.ScrollBegin.Wheel\00", align 16
@_ZN3ukm8builders23Event_ScrollBegin_Wheel14kEntryNameHashE = hidden local_unnamed_addr constant i64 -3258510946823965107, align 8
@_ZTVN3ukm8builders23Event_ScrollBegin_WheelE = hidden unnamed_addr constant { [4 x i8*] } { [4 x i8*] [i8* null, i8* null, i8* bitcast (void (%"class.ukm::builders::Event_ScrollBegin_Wheel"*)* @_ZN3ukm8builders23Event_ScrollBegin_WheelD2Ev to i8*), i8* bitcast (void (%"class.ukm::builders::Event_ScrollBegin_Wheel"*)* @_ZN3ukm8builders23Event_ScrollBegin_WheelD0Ev to i8*)] }, align 8
@_ZN3ukm8builders23Event_ScrollBegin_Wheel17kIsMainThreadNameE = hidden local_unnamed_addr constant [13 x i8] c"IsMainThread\00", align 1
@_ZN3ukm8builders23Event_ScrollBegin_Wheel21kIsMainThreadNameHashE = hidden local_unnamed_addr constant i64 1011657010800388108, align 8
@_ZN3ukm8builders23Event_ScrollBegin_Wheel18kTimeToHandledNameE = hidden local_unnamed_addr constant [14 x i8] c"TimeToHandled\00", align 1
@_ZN3ukm8builders23Event_ScrollBegin_Wheel22kTimeToHandledNameHashE = hidden local_unnamed_addr constant i64 -7799494319383070747, align 8
@_ZN3ukm8builders23Event_ScrollBegin_Wheel32kTimeToScrollUpdateSwapBeginNameE = hidden local_unnamed_addr constant [28 x i8] c"TimeToScrollUpdateSwapBegin\00", align 16
@_ZN3ukm8builders23Event_ScrollBegin_Wheel36kTimeToScrollUpdateSwapBeginNameHashE = hidden local_unnamed_addr constant i64 1631660777277694939, align 8
@_ZN3ukm8builders24Event_ScrollUpdate_Touch10kEntryNameE = hidden local_unnamed_addr constant [25 x i8] c"Event.ScrollUpdate.Touch\00", align 16
@_ZN3ukm8builders24Event_ScrollUpdate_Touch14kEntryNameHashE = hidden local_unnamed_addr constant i64 7257623327097011244, align 8
@_ZTVN3ukm8builders24Event_ScrollUpdate_TouchE = hidden unnamed_addr constant { [4 x i8*] } { [4 x i8*] [i8* null, i8* null, i8* bitcast (void (%"class.ukm::builders::Event_ScrollUpdate_Touch"*)* @_ZN3ukm8builders24Event_ScrollUpdate_TouchD2Ev to i8*), i8* bitcast (void (%"class.ukm::builders::Event_ScrollUpdate_Touch"*)* @_ZN3ukm8builders24Event_ScrollUpdate_TouchD0Ev to i8*)] }, align 8
@_ZN3ukm8builders24Event_ScrollUpdate_Touch17kIsMainThreadNameE = hidden local_unnamed_addr constant [13 x i8] c"IsMainThread\00", align 1
@_ZN3ukm8builders24Event_ScrollUpdate_Touch21kIsMainThreadNameHashE = hidden local_unnamed_addr constant i64 1011657010800388108, align 8
@_ZN3ukm8builders24Event_ScrollUpdate_Touch18kTimeToHandledNameE = hidden local_unnamed_addr constant [14 x i8] c"TimeToHandled\00", align 1
@_ZN3ukm8builders24Event_ScrollUpdate_Touch22kTimeToHandledNameHashE = hidden local_unnamed_addr constant i64 -7799494319383070747, align 8
@_ZN3ukm8builders24Event_ScrollUpdate_Touch32kTimeToScrollUpdateSwapBeginNameE = hidden local_unnamed_addr constant [28 x i8] c"TimeToScrollUpdateSwapBegin\00", align 16
@_ZN3ukm8builders24Event_ScrollUpdate_Touch36kTimeToScrollUpdateSwapBeginNameHashE = hidden local_unnamed_addr constant i64 1631660777277694939, align 8
@_ZN3ukm8builders24Event_ScrollUpdate_Wheel10kEntryNameE = hidden local_unnamed_addr constant [25 x i8] c"Event.ScrollUpdate.Wheel\00", align 16
@_ZN3ukm8builders24Event_ScrollUpdate_Wheel14kEntryNameHashE = hidden local_unnamed_addr constant i64 -5483037040580004606, align 8
@_ZTVN3ukm8builders24Event_ScrollUpdate_WheelE = hidden unnamed_addr constant { [4 x i8*] } { [4 x i8*] [i8* null, i8* null, i8* bitcast (void (%"class.ukm::builders::Event_ScrollUpdate_Wheel"*)* @_ZN3ukm8builders24Event_ScrollUpdate_WheelD2Ev to i8*), i8* bitcast (void (%"class.ukm::builders::Event_ScrollUpdate_Wheel"*)* @_ZN3ukm8builders24Event_ScrollUpdate_WheelD0Ev to i8*)] }, align 8
@_ZN3ukm8builders24Event_ScrollUpdate_Wheel17kIsMainThreadNameE = hidden local_unnamed_addr constant [13 x i8] c"IsMainThread\00", align 1
@_ZN3ukm8builders24Event_ScrollUpdate_Wheel21kIsMainThreadNameHashE = hidden local_unnamed_addr constant i64 1011657010800388108, align 8
@_ZN3ukm8builders24Event_ScrollUpdate_Wheel18kTimeToHandledNameE = hidden local_unnamed_addr constant [14 x i8] c"TimeToHandled\00", align 1
@_ZN3ukm8builders24Event_ScrollUpdate_Wheel22kTimeToHandledNameHashE = hidden local_unnamed_addr constant i64 -7799494319383070747, align 8
@_ZN3ukm8builders24Event_ScrollUpdate_Wheel32kTimeToScrollUpdateSwapBeginNameE = hidden local_unnamed_addr constant [28 x i8] c"TimeToScrollUpdateSwapBegin\00", align 16
@_ZN3ukm8builders24Event_ScrollUpdate_Wheel36kTimeToScrollUpdateSwapBeginNameHashE = hidden local_unnamed_addr constant i64 1631660777277694939, align 8
@_ZN3ukm8builders46Extensions_WebRequest_KeepaliveRequestFinished10kEntryNameE = hidden local_unnamed_addr constant [47 x i8] c"Extensions.WebRequest.KeepaliveRequestFinished\00", align 16
@_ZN3ukm8builders46Extensions_WebRequest_KeepaliveRequestFinished14kEntryNameHashE = hidden local_unnamed_addr constant i64 -5922185739988580072, align 8
@_ZTVN3ukm8builders46Extensions_WebRequest_KeepaliveRequestFinishedE = hidden unnamed_addr constant { [4 x i8*] } { [4 x i8*] [i8* null, i8* null, i8* bitcast (void (%"class.ukm::builders::Extensions_WebRequest_KeepaliveRequestFinished"*)* @_ZN3ukm8builders46Extensions_WebRequest_KeepaliveRequestFinishedD2Ev to i8*), i8* bitcast (void (%"class.ukm::builders::Extensions_WebRequest_KeepaliveRequestFinished"*)* @_ZN3ukm8builders46Extensions_WebRequest_KeepaliveRequestFinishedD0Ev to i8*)] }, align 8
@_ZN3ukm8builders46Extensions_WebRequest_KeepaliveRequestFinished17kNumRedirectsNameE = hidden local_unnamed_addr constant [13 x i8] c"NumRedirects\00", align 1
@_ZN3ukm8builders46Extensions_WebRequest_KeepaliveRequestFinished21kNumRedirectsNameHashE = hidden local_unnamed_addr constant i64 8673123609428887707, align 8
@_ZN3ukm8builders46Extensions_WebRequest_KeepaliveRequestFinished10kStateNameE = hidden local_unnamed_addr constant [6 x i8] c"State\00", align 1
@_ZN3ukm8builders46Extensions_WebRequest_KeepaliveRequestFinished14kStateNameHashE = hidden local_unnamed_addr constant i64 5089810972385038852, align 8
@_ZN3ukm8builders24FileSystemAPI_WebRequest10kEntryNameE = hidden local_unnamed_addr constant [25 x i8] c"FileSystemAPI.WebRequest\00", align 16
@_ZN3ukm8builders24FileSystemAPI_WebRequest14kEntryNameHashE = hidden local_unnamed_addr constant i64 -2702118746496160545, align 8
@_ZTVN3ukm8builders24FileSystemAPI_WebRequestE = hidden unnamed_addr constant { [4 x i8*] } { [4 x i8*] [i8* null, i8* null, i8* bitcast (void (%"class.ukm::builders::FileSystemAPI_WebRequest"*)* @_ZN3ukm8builders24FileSystemAPI_WebRequestD2Ev to i8*), i8* bitcast (void (%"class.ukm::builders::FileSystemAPI_WebRequest"*)* @_ZN3ukm8builders24FileSystemAPI_WebRequestD0Ev to i8*)] }, align 8
@_ZN3ukm8builders24FileSystemAPI_WebRequest15kPersistentNameE = hidden local_unnamed_addr constant [11 x i8] c"Persistent\00", align 1
@_ZN3ukm8builders24FileSystemAPI_WebRequest19kPersistentNameHashE = hidden local_unnamed_addr constant i64 6910695792866800057, align 8
@_ZN3ukm8builders24FileSystemAPI_WebRequest14kTemporaryNameE = hidden local_unnamed_addr constant [10 x i8] c"Temporary\00", align 1
@_ZN3ukm8builders24FileSystemAPI_WebRequest18kTemporaryNameHashE = hidden local_unnamed_addr constant i64 1213822862652674492, align 8
@_ZN3ukm8builders12FlocPageLoad10kEntryNameE = hidden local_unnamed_addr constant [13 x i8] c"FlocPageLoad\00", align 1
@_ZN3ukm8builders12FlocPageLoad14kEntryNameHashE = hidden local_unnamed_addr constant i64 6247082832829199138, align 8
@_ZTVN3ukm8builders12FlocPageLoadE = hidden unnamed_addr constant { [4 x i8*] } { [4 x i8*] [i8* null, i8* null, i8* bitcast (void (%"class.ukm::builders::FlocPageLoad"*)* @_ZN3ukm8builders12FlocPageLoadD2Ev to i8*), i8* bitcast (void (%"class.ukm::builders::FlocPageLoad"*)* @_ZN3ukm8builders12FlocPageLoadD0Ev to i8*)] }, align 8
@_ZN3ukm8builders12FlocPageLoad11kFlocIdNameE = hidden local_unnamed_addr constant [7 x i8] c"FlocId\00", align 1
@_ZN3ukm8builders12FlocPageLoad15kFlocIdNameHashE = hidden local_unnamed_addr constant i64 -6313846726329760401, align 8
@_ZN3ukm8builders17FontMatchAttempts10kEntryNameE = hidden local_unnamed_addr constant [18 x i8] c"FontMatchAttempts\00", align 16
@_ZN3ukm8builders17FontMatchAttempts14kEntryNameHashE = hidden local_unnamed_addr constant i64 -4350612161437630561, align 8
@_ZTVN3ukm8builders17FontMatchAttemptsE = hidden unnamed_addr constant { [4 x i8*] } { [4 x i8*] [i8* null, i8* null, i8* bitcast (void (%"class.ukm::builders::FontMatchAttempts"*)* @_ZN3ukm8builders17FontMatchAttemptsD2Ev to i8*), i8* bitcast (void (%"class.ukm::builders::FontMatchAttempts"*)* @_ZN3ukm8builders17FontMatchAttemptsD0Ev to i8*)] }, align 8
@_ZN3ukm8builders17FontMatchAttempts16kLoadContextNameE = hidden local_unnamed_addr constant [12 x i8] c"LoadContext\00", align 1
@_ZN3ukm8builders17FontMatchAttempts20kLoadContextNameHashE = hidden local_unnamed_addr constant i64 -1554491102685944470, align 8
@_ZN3ukm8builders17FontMatchAttempts22kLocalFontFailuresNameE = hidden local_unnamed_addr constant [18 x i8] c"LocalFontFailures\00", align 16
@_ZN3ukm8builders17FontMatchAttempts26kLocalFontFailuresNameHashE = hidden local_unnamed_addr constant i64 -7072551989180742389, align 8
@_ZN3ukm8builders17FontMatchAttempts23kLocalFontSuccessesNameE = hidden local_unnamed_addr constant [19 x i8] c"LocalFontSuccesses\00", align 16
@_ZN3ukm8builders17FontMatchAttempts27kLocalFontSuccessesNameHashE = hidden local_unnamed_addr constant i64 3770291609206623888, align 8
@_ZN3ukm8builders17FontMatchAttempts19kLocalFontTotalNameE = hidden local_unnamed_addr constant [15 x i8] c"LocalFontTotal\00", align 1
@_ZN3ukm8builders17FontMatchAttempts23kLocalFontTotalNameHashE = hidden local_unnamed_addr constant i64 -761405033023634829, align 8
@_ZN3ukm8builders17FontMatchAttempts29kSystemFontFamilyFailuresNameE = hidden local_unnamed_addr constant [25 x i8] c"SystemFontFamilyFailures\00", align 16
@_ZN3ukm8builders17FontMatchAttempts33kSystemFontFamilyFailuresNameHashE = hidden local_unnamed_addr constant i64 -171598802596782376, align 8
@_ZN3ukm8builders17FontMatchAttempts30kSystemFontFamilySuccessesNameE = hidden local_unnamed_addr constant [26 x i8] c"SystemFontFamilySuccesses\00", align 16
@_ZN3ukm8builders17FontMatchAttempts34kSystemFontFamilySuccessesNameHashE = hidden local_unnamed_addr constant i64 -7603218000280282759, align 8
@_ZN3ukm8builders17FontMatchAttempts26kSystemFontFamilyTotalNameE = hidden local_unnamed_addr constant [22 x i8] c"SystemFontFamilyTotal\00", align 16
@_ZN3ukm8builders17FontMatchAttempts30kSystemFontFamilyTotalNameHashE = hidden local_unnamed_addr constant i64 1182063639024995192, align 8
@_ZN3ukm8builders17FontMatchAttempts26kWebFontFamilyFailuresNameE = hidden local_unnamed_addr constant [22 x i8] c"WebFontFamilyFailures\00", align 16
@_ZN3ukm8builders17FontMatchAttempts30kWebFontFamilyFailuresNameHashE = hidden local_unnamed_addr constant i64 -2629093906206949428, align 8
@_ZN3ukm8builders17FontMatchAttempts27kWebFontFamilySuccessesNameE = hidden local_unnamed_addr constant [23 x i8] c"WebFontFamilySuccesses\00", align 16
@_ZN3ukm8builders17FontMatchAttempts31kWebFontFamilySuccessesNameHashE = hidden local_unnamed_addr constant i64 -6785054966263221802, align 8
@_ZN3ukm8builders17FontMatchAttempts23kWebFontFamilyTotalNameE = hidden local_unnamed_addr constant [19 x i8] c"WebFontFamilyTotal\00", align 16
@_ZN3ukm8builders17FontMatchAttempts27kWebFontFamilyTotalNameHashE = hidden local_unnamed_addr constant i64 8062248841809542318, align 8
@_ZN3ukm8builders19GeneratedNavigation10kEntryNameE = hidden local_unnamed_addr constant [20 x i8] c"GeneratedNavigation\00", align 16
@_ZN3ukm8builders19GeneratedNavigation14kEntryNameHashE = hidden local_unnamed_addr constant i64 -733041511255810523, align 8
@_ZTVN3ukm8builders19GeneratedNavigationE = hidden unnamed_addr constant { [4 x i8*] } { [4 x i8*] [i8* null, i8* null, i8* bitcast (void (%"class.ukm::builders::GeneratedNavigation"*)* @_ZN3ukm8builders19GeneratedNavigationD2Ev to i8*), i8* bitcast (void (%"class.ukm::builders::GeneratedNavigation"*)* @_ZN3ukm8builders19GeneratedNavigationD0Ev to i8*)] }, align 8
@_ZN3ukm8builders19GeneratedNavigation34kFinalURLIsDefaultSearchEngineNameE = hidden local_unnamed_addr constant [30 x i8] c"FinalURLIsDefaultSearchEngine\00", align 16
@_ZN3ukm8builders19GeneratedNavigation38kFinalURLIsDefaultSearchEngineNameHashE = hidden local_unnamed_addr constant i64 1036686794479530753, align 8
@_ZN3ukm8builders19GeneratedNavigation23kFinalURLIsHomePageNameE = hidden local_unnamed_addr constant [19 x i8] c"FinalURLIsHomePage\00", align 16
@_ZN3ukm8builders19GeneratedNavigation27kFinalURLIsHomePageNameHashE = hidden local_unnamed_addr constant i64 1917448393817607381, align 8
@_ZN3ukm8builders19GeneratedNavigation34kFirstURLIsDefaultSearchEngineNameE = hidden local_unnamed_addr constant [30 x i8] c"FirstURLIsDefaultSearchEngine\00", align 16
@_ZN3ukm8builders19GeneratedNavigation38kFirstURLIsDefaultSearchEngineNameHashE = hidden local_unnamed_addr constant i64 -1557864280643014413, align 8
@_ZN3ukm8builders19GeneratedNavigation23kFirstURLIsHomePageNameE = hidden local_unnamed_addr constant [19 x i8] c"FirstURLIsHomePage\00", align 16
@_ZN3ukm8builders19GeneratedNavigation27kFirstURLIsHomePageNameHashE = hidden local_unnamed_addr constant i64 7866972537372757464, align 8
@_ZN3ukm8builders26GoogleDocsOfflineExtension10kEntryNameE = hidden local_unnamed_addr constant [27 x i8] c"GoogleDocsOfflineExtension\00", align 16
@_ZN3ukm8builders26GoogleDocsOfflineExtension14kEntryNameHashE = hidden local_unnamed_addr constant i64 3420244295988015024, align 8
@_ZTVN3ukm8builders26GoogleDocsOfflineExtensionE = hidden unnamed_addr constant { [4 x i8*] } { [4 x i8*] [i8* null, i8* null, i8* bitcast (void (%"class.ukm::builders::GoogleDocsOfflineExtension"*)* @_ZN3ukm8builders26GoogleDocsOfflineExtensionD2Ev to i8*), i8* bitcast (void (%"class.ukm::builders::GoogleDocsOfflineExtension"*)* @_ZN3ukm8builders26GoogleDocsOfflineExtensionD0Ev to i8*)] }, align 8
@_ZN3ukm8builders26GoogleDocsOfflineExtension22kResourceRequestedNameE = hidden local_unnamed_addr constant [18 x i8] c"ResourceRequested\00", align 16
@_ZN3ukm8builders26GoogleDocsOfflineExtension26kResourceRequestedNameHashE = hidden local_unnamed_addr constant i64 121230110045336584, align 8
@_ZN3ukm8builders32Graphics_Smoothness_EventLatency10kEntryNameE = hidden local_unnamed_addr constant [33 x i8] c"Graphics.Smoothness.EventLatency\00", align 16
@_ZN3ukm8builders32Graphics_Smoothness_EventLatency14kEntryNameHashE = hidden local_unnamed_addr constant i64 -6869327150290870009, align 8
@_ZTVN3ukm8builders32Graphics_Smoothness_EventLatencyE = hidden unnamed_addr constant { [4 x i8*] } { [4 x i8*] [i8* null, i8* null, i8* bitcast (void (%"class.ukm::builders::Graphics_Smoothness_EventLatency"*)* @_ZN3ukm8builders32Graphics_Smoothness_EventLatencyD2Ev to i8*), i8* bitcast (void (%"class.ukm::builders::Graphics_Smoothness_EventLatency"*)* @_ZN3ukm8builders32Graphics_Smoothness_EventLatencyD0Ev to i8*)] }, align 8
@_ZN3ukm8builders32Graphics_Smoothness_EventLatency15kActivationNameE = hidden local_unnamed_addr constant [11 x i8] c"Activation\00", align 1
@_ZN3ukm8builders32Graphics_Smoothness_EventLatency19kActivationNameHashE = hidden local_unnamed_addr constant i64 -6222234774378099450, align 8
@_ZN3ukm8builders32Graphics_Smoothness_EventLatency39kBeginImplFrameToSendBeginMainFrameNameE = hidden local_unnamed_addr constant [35 x i8] c"BeginImplFrameToSendBeginMainFrame\00", align 16
@_ZN3ukm8builders32Graphics_Smoothness_EventLatency43kBeginImplFrameToSendBeginMainFrameNameHashE = hidden local_unnamed_addr constant i64 -1438571462482612834, align 8
@_ZN3ukm8builders32Graphics_Smoothness_EventLatency11kCommitNameE = hidden local_unnamed_addr constant [7 x i8] c"Commit\00", align 1
@_ZN3ukm8builders32Graphics_Smoothness_EventLatency15kCommitNameHashE = hidden local_unnamed_addr constant i64 6473274705490247427, align 8
@_ZN3ukm8builders32Graphics_Smoothness_EventLatency39kEndActivateToSubmitCompositorFrameNameE = hidden local_unnamed_addr constant [35 x i8] c"EndActivateToSubmitCompositorFrame\00", align 16
@_ZN3ukm8builders32Graphics_Smoothness_EventLatency43kEndActivateToSubmitCompositorFrameNameHashE = hidden local_unnamed_addr constant i64 -2017835038002759033, align 8
@_ZN3ukm8builders32Graphics_Smoothness_EventLatency26kEndCommitToActivationNameE = hidden local_unnamed_addr constant [22 x i8] c"EndCommitToActivation\00", align 16
@_ZN3ukm8builders32Graphics_Smoothness_EventLatency30kEndCommitToActivationNameHashE = hidden local_unnamed_addr constant i64 3830696727341877188, align 8
@_ZN3ukm8builders32Graphics_Smoothness_EventLatency14kEventTypeNameE = hidden local_unnamed_addr constant [10 x i8] c"EventType\00", align 1
@_ZN3ukm8builders32Graphics_Smoothness_EventLatency18kEventTypeNameHashE = hidden local_unnamed_addr constant i64 5446425777535537951, align 8
@_ZN3ukm8builders32Graphics_Smoothness_EventLatency35kGenerationToRendererCompositorNameE = hidden local_unnamed_addr constant [31 x i8] c"GenerationToRendererCompositor\00", align 16
@_ZN3ukm8builders32Graphics_Smoothness_EventLatency39kGenerationToRendererCompositorNameHashE = hidden local_unnamed_addr constant i64 969682407373868024, align 8
@_ZN3ukm8builders32Graphics_Smoothness_EventLatency43kRendererCompositorFinishedToActivationNameE = hidden local_unnamed_addr constant [39 x i8] c"RendererCompositorFinishedToActivation\00", align 16
@_ZN3ukm8builders32Graphics_Smoothness_EventLatency47kRendererCompositorFinishedToActivationNameHashE = hidden local_unnamed_addr constant i64 -2518828118962428011, align 8
@_ZN3ukm8builders32Graphics_Smoothness_EventLatency47kRendererCompositorFinishedToBeginImplFrameNameE = hidden local_unnamed_addr constant [43 x i8] c"RendererCompositorFinishedToBeginImplFrame\00", align 16
@_ZN3ukm8builders32Graphics_Smoothness_EventLatency51kRendererCompositorFinishedToBeginImplFrameNameHashE = hidden local_unnamed_addr constant i64 -6414197523992942526, align 8
@_ZN3ukm8builders32Graphics_Smoothness_EventLatency39kRendererCompositorFinishedToCommitNameE = hidden local_unnamed_addr constant [35 x i8] c"RendererCompositorFinishedToCommit\00", align 16
@_ZN3ukm8builders32Graphics_Smoothness_EventLatency43kRendererCompositorFinishedToCommitNameHashE = hidden local_unnamed_addr constant i64 -8609598447107563612, align 8
@_ZN3ukm8builders32Graphics_Smoothness_EventLatency44kRendererCompositorFinishedToEndActivateNameE = hidden local_unnamed_addr constant [40 x i8] c"RendererCompositorFinishedToEndActivate\00", align 16
@_ZN3ukm8builders32Graphics_Smoothness_EventLatency48kRendererCompositorFinishedToEndActivateNameHashE = hidden local_unnamed_addr constant i64 -8617757193881688966, align 8
@_ZN3ukm8builders32Graphics_Smoothness_EventLatency42kRendererCompositorFinishedToEndCommitNameE = hidden local_unnamed_addr constant [38 x i8] c"RendererCompositorFinishedToEndCommit\00", align 16
@_ZN3ukm8builders32Graphics_Smoothness_EventLatency46kRendererCompositorFinishedToEndCommitNameHashE = hidden local_unnamed_addr constant i64 4629632394901522803, align 8
@_ZN3ukm8builders32Graphics_Smoothness_EventLatency51kRendererCompositorFinishedToSendBeginMainFrameNameE = hidden local_unnamed_addr constant [47 x i8] c"RendererCompositorFinishedToSendBeginMainFrame\00", align 16
@_ZN3ukm8builders32Graphics_Smoothness_EventLatency55kRendererCompositorFinishedToSendBeginMainFrameNameHashE = hidden local_unnamed_addr constant i64 -1341504685208810726, align 8
@_ZN3ukm8builders32Graphics_Smoothness_EventLatency54kRendererCompositorFinishedToSubmitCompositorFrameNameE = hidden local_unnamed_addr constant [50 x i8] c"RendererCompositorFinishedToSubmitCompositorFrame\00", align 16
@_ZN3ukm8builders32Graphics_Smoothness_EventLatency58kRendererCompositorFinishedToSubmitCompositorFrameNameHashE = hidden local_unnamed_addr constant i64 -175312813227600213, align 8
@_ZN3ukm8builders32Graphics_Smoothness_EventLatency33kRendererCompositorProcessingNameE = hidden local_unnamed_addr constant [29 x i8] c"RendererCompositorProcessing\00", align 16
@_ZN3ukm8builders32Graphics_Smoothness_EventLatency37kRendererCompositorProcessingNameHashE = hidden local_unnamed_addr constant i64 5028192811609492297, align 8
@_ZN3ukm8builders32Graphics_Smoothness_EventLatency36kRendererCompositorQueueingDelayNameE = hidden local_unnamed_addr constant [32 x i8] c"RendererCompositorQueueingDelay\00", align 16
@_ZN3ukm8builders32Graphics_Smoothness_EventLatency40kRendererCompositorQueueingDelayNameHashE = hidden local_unnamed_addr constant i64 2468258078399488287, align 8
@_ZN3ukm8builders32Graphics_Smoothness_EventLatency29kRendererCompositorToMainNameE = hidden local_unnamed_addr constant [25 x i8] c"RendererCompositorToMain\00", align 16
@_ZN3ukm8builders32Graphics_Smoothness_EventLatency33kRendererCompositorToMainNameHashE = hidden local_unnamed_addr constant i64 -1170384141888309582, align 8
@_ZN3ukm8builders32Graphics_Smoothness_EventLatency37kRendererMainFinishedToActivationNameE = hidden local_unnamed_addr constant [33 x i8] c"RendererMainFinishedToActivation\00", align 16
@_ZN3ukm8builders32Graphics_Smoothness_EventLatency41kRendererMainFinishedToActivationNameHashE = hidden local_unnamed_addr constant i64 -8428720885693889147, align 8
@_ZN3ukm8builders32Graphics_Smoothness_EventLatency41kRendererMainFinishedToBeginImplFrameNameE = hidden local_unnamed_addr constant [37 x i8] c"RendererMainFinishedToBeginImplFrame\00", align 16
@_ZN3ukm8builders32Graphics_Smoothness_EventLatency45kRendererMainFinishedToBeginImplFrameNameHashE = hidden local_unnamed_addr constant i64 5159593079225697322, align 8
@_ZN3ukm8builders32Graphics_Smoothness_EventLatency33kRendererMainFinishedToCommitNameE = hidden local_unnamed_addr constant [29 x i8] c"RendererMainFinishedToCommit\00", align 16
@_ZN3ukm8builders32Graphics_Smoothness_EventLatency37kRendererMainFinishedToCommitNameHashE = hidden local_unnamed_addr constant i64 -8408885758598383399, align 8
@_ZN3ukm8builders32Graphics_Smoothness_EventLatency38kRendererMainFinishedToEndActivateNameE = hidden local_unnamed_addr constant [34 x i8] c"RendererMainFinishedToEndActivate\00", align 16
@_ZN3ukm8builders32Graphics_Smoothness_EventLatency42kRendererMainFinishedToEndActivateNameHashE = hidden local_unnamed_addr constant i64 2461849999618300610, align 8
@_ZN3ukm8builders32Graphics_Smoothness_EventLatency36kRendererMainFinishedToEndCommitNameE = hidden local_unnamed_addr constant [32 x i8] c"RendererMainFinishedToEndCommit\00", align 16
@_ZN3ukm8builders32Graphics_Smoothness_EventLatency40kRendererMainFinishedToEndCommitNameHashE = hidden local_unnamed_addr constant i64 -7970166235303351781, align 8
@_ZN3ukm8builders32Graphics_Smoothness_EventLatency45kRendererMainFinishedToSendBeginMainFrameNameE = hidden local_unnamed_addr constant [41 x i8] c"RendererMainFinishedToSendBeginMainFrame\00", align 16
@_ZN3ukm8builders32Graphics_Smoothness_EventLatency49kRendererMainFinishedToSendBeginMainFrameNameHashE = hidden local_unnamed_addr constant i64 6474019368894038500, align 8
@_ZN3ukm8builders32Graphics_Smoothness_EventLatency48kRendererMainFinishedToSubmitCompositorFrameNameE = hidden local_unnamed_addr constant [44 x i8] c"RendererMainFinishedToSubmitCompositorFrame\00", align 16
@_ZN3ukm8builders32Graphics_Smoothness_EventLatency52kRendererMainFinishedToSubmitCompositorFrameNameHashE = hidden local_unnamed_addr constant i64 9123582581286357486, align 8
@_ZN3ukm8builders32Graphics_Smoothness_EventLatency27kRendererMainProcessingNameE = hidden local_unnamed_addr constant [23 x i8] c"RendererMainProcessing\00", align 16
@_ZN3ukm8builders32Graphics_Smoothness_EventLatency31kRendererMainProcessingNameHashE = hidden local_unnamed_addr constant i64 -8156490243296538612, align 8
@_ZN3ukm8builders32Graphics_Smoothness_EventLatency20kScrollInputTypeNameE = hidden local_unnamed_addr constant [16 x i8] c"ScrollInputType\00", align 16
@_ZN3ukm8builders32Graphics_Smoothness_EventLatency24kScrollInputTypeNameHashE = hidden local_unnamed_addr constant i64 -1438200440062457035, align 8
@_ZN3ukm8builders32Graphics_Smoothness_EventLatency31kSendBeginMainFrameToCommitNameE = hidden local_unnamed_addr constant [27 x i8] c"SendBeginMainFrameToCommit\00", align 16
@_ZN3ukm8builders32Graphics_Smoothness_EventLatency35kSendBeginMainFrameToCommitNameHashE = hidden local_unnamed_addr constant i64 4533040338292079001, align 8
@_ZN3ukm8builders32Graphics_Smoothness_EventLatency39kSendBeginMainFrameToCommit_AnimateNameE = hidden local_unnamed_addr constant [35 x i8] c"SendBeginMainFrameToCommit.Animate\00", align 16
@_ZN3ukm8builders32Graphics_Smoothness_EventLatency43kSendBeginMainFrameToCommit_AnimateNameHashE = hidden local_unnamed_addr constant i64 8343767389934127044, align 8
@_ZN3ukm8builders32Graphics_Smoothness_EventLatency54kSendBeginMainFrameToCommit_BeginMainSentToStartedNameE = hidden local_unnamed_addr constant [50 x i8] c"SendBeginMainFrameToCommit.BeginMainSentToStarted\00", align 16
@_ZN3ukm8builders32Graphics_Smoothness_EventLatency58kSendBeginMainFrameToCommit_BeginMainSentToStartedNameHashE = hidden local_unnamed_addr constant i64 5384975942974359718, align 8
@_ZN3ukm8builders32Graphics_Smoothness_EventLatency47kSendBeginMainFrameToCommit_CompositeCommitNameE = hidden local_unnamed_addr constant [43 x i8] c"SendBeginMainFrameToCommit.CompositeCommit\00", align 16
@_ZN3ukm8builders32Graphics_Smoothness_EventLatency51kSendBeginMainFrameToCommit_CompositeCommitNameHashE = hidden local_unnamed_addr constant i64 -7870789462505032655, align 8
@_ZN3ukm8builders32Graphics_Smoothness_EventLatency54kSendBeginMainFrameToCommit_CompositingAssignmentsNameE = hidden local_unnamed_addr constant [50 x i8] c"SendBeginMainFrameToCommit.CompositingAssignments\00", align 16
@_ZN3ukm8builders32Graphics_Smoothness_EventLatency58kSendBeginMainFrameToCommit_CompositingAssignmentsNameHashE = hidden local_unnamed_addr constant i64 6222993175375072104, align 8
@_ZN3ukm8builders32Graphics_Smoothness_EventLatency49kSendBeginMainFrameToCommit_CompositingInputsNameE = hidden local_unnamed_addr constant [45 x i8] c"SendBeginMainFrameToCommit.CompositingInputs\00", align 16
@_ZN3ukm8builders32Graphics_Smoothness_EventLatency53kSendBeginMainFrameToCommit_CompositingInputsNameHashE = hidden local_unnamed_addr constant i64 829465320820564719, align 8
@_ZN3ukm8builders32Graphics_Smoothness_EventLatency49kSendBeginMainFrameToCommit_HandleInputEventsNameE = hidden local_unnamed_addr constant [45 x i8] c"SendBeginMainFrameToCommit.HandleInputEvents\00", align 16
@_ZN3ukm8builders32Graphics_Smoothness_EventLatency53kSendBeginMainFrameToCommit_HandleInputEventsNameHashE = hidden local_unnamed_addr constant i64 1165118933490711579, align 8
@_ZN3ukm8builders32Graphics_Smoothness_EventLatency44kSendBeginMainFrameToCommit_LayoutUpdateNameE = hidden local_unnamed_addr constant [40 x i8] c"SendBeginMainFrameToCommit.LayoutUpdate\00", align 16
@_ZN3ukm8builders32Graphics_Smoothness_EventLatency48kSendBeginMainFrameToCommit_LayoutUpdateNameHashE = hidden local_unnamed_addr constant i64 -8221135947057414582, align 8
@_ZN3ukm8builders32Graphics_Smoothness_EventLatency37kSendBeginMainFrameToCommit_PaintNameE = hidden local_unnamed_addr constant [33 x i8] c"SendBeginMainFrameToCommit.Paint\00", align 16
@_ZN3ukm8builders32Graphics_Smoothness_EventLatency41kSendBeginMainFrameToCommit_PaintNameHashE = hidden local_unnamed_addr constant i64 232555831202593428, align 8
@_ZN3ukm8builders32Graphics_Smoothness_EventLatency40kSendBeginMainFrameToCommit_PrepaintNameE = hidden local_unnamed_addr constant [36 x i8] c"SendBeginMainFrameToCommit.Prepaint\00", align 16
@_ZN3ukm8builders32Graphics_Smoothness_EventLatency44kSendBeginMainFrameToCommit_PrepaintNameHashE = hidden local_unnamed_addr constant i64 -4403696163224381983, align 8
@_ZN3ukm8builders32Graphics_Smoothness_EventLatency43kSendBeginMainFrameToCommit_StyleUpdateNameE = hidden local_unnamed_addr constant [39 x i8] c"SendBeginMainFrameToCommit.StyleUpdate\00", align 16
@_ZN3ukm8builders32Graphics_Smoothness_EventLatency47kSendBeginMainFrameToCommit_StyleUpdateNameHashE = hidden local_unnamed_addr constant i64 5007375205011789513, align 8
@_ZN3ukm8builders32Graphics_Smoothness_EventLatency44kSendBeginMainFrameToCommit_UpdateLayersNameE = hidden local_unnamed_addr constant [40 x i8] c"SendBeginMainFrameToCommit.UpdateLayers\00", align 16
@_ZN3ukm8builders32Graphics_Smoothness_EventLatency48kSendBeginMainFrameToCommit_UpdateLayersNameHashE = hidden local_unnamed_addr constant i64 6804362734965297093, align 8
@_ZN3ukm8builders32Graphics_Smoothness_EventLatency55kSubmitCompositorFrameToPresentationCompositorFrameNameE = hidden local_unnamed_addr constant [51 x i8] c"SubmitCompositorFrameToPresentationCompositorFrame\00", align 16
@_ZN3ukm8builders32Graphics_Smoothness_EventLatency59kSubmitCompositorFrameToPresentationCompositorFrameNameHashE = hidden local_unnamed_addr constant i64 6674140523643808969, align 8
@_ZN3ukm8builders32Graphics_Smoothness_EventLatency84kSubmitCompositorFrameToPresentationCompositorFrame_BufferAvailableToBufferReadyNameE = hidden local_unnamed_addr constant [80 x i8] c"SubmitCompositorFrameToPresentationCompositorFrame.BufferAvailableToBufferReady\00", align 16
@_ZN3ukm8builders32Graphics_Smoothness_EventLatency88kSubmitCompositorFrameToPresentationCompositorFrame_BufferAvailableToBufferReadyNameHashE = hidden local_unnamed_addr constant i64 607984992502472994, align 8
@_ZN3ukm8builders32Graphics_Smoothness_EventLatency74kSubmitCompositorFrameToPresentationCompositorFrame_BufferReadyToLatchNameE = hidden local_unnamed_addr constant [70 x i8] c"SubmitCompositorFrameToPresentationCompositorFrame.BufferReadyToLatch\00", align 16
@_ZN3ukm8builders32Graphics_Smoothness_EventLatency78kSubmitCompositorFrameToPresentationCompositorFrame_BufferReadyToLatchNameHashE = hidden local_unnamed_addr constant i64 2975991725388751644, align 8
@_ZN3ukm8builders32Graphics_Smoothness_EventLatency70kSubmitCompositorFrameToPresentationCompositorFrame_LatchToSwapEndNameE = hidden local_unnamed_addr constant [66 x i8] c"SubmitCompositorFrameToPresentationCompositorFrame.LatchToSwapEnd\00", align 16
@_ZN3ukm8builders32Graphics_Smoothness_EventLatency74kSubmitCompositorFrameToPresentationCompositorFrame_LatchToSwapEndNameHashE = hidden local_unnamed_addr constant i64 -8099475967446043595, align 8
@_ZN3ukm8builders32Graphics_Smoothness_EventLatency90kSubmitCompositorFrameToPresentationCompositorFrame_ReceivedCompositorFrameToStartDrawNameE = hidden local_unnamed_addr constant [86 x i8] c"SubmitCompositorFrameToPresentationCompositorFrame.ReceivedCompositorFrameToStartDraw\00", align 16
@_ZN3ukm8builders32Graphics_Smoothness_EventLatency94kSubmitCompositorFrameToPresentationCompositorFrame_ReceivedCompositorFrameToStartDrawNameHashE = hidden local_unnamed_addr constant i64 -7260727992975809443, align 8
@_ZN3ukm8builders32Graphics_Smoothness_EventLatency76kSubmitCompositorFrameToPresentationCompositorFrame_StartDrawToSwapStartNameE = hidden local_unnamed_addr constant [72 x i8] c"SubmitCompositorFrameToPresentationCompositorFrame.StartDrawToSwapStart\00", align 16
@_ZN3ukm8builders32Graphics_Smoothness_EventLatency80kSubmitCompositorFrameToPresentationCompositorFrame_StartDrawToSwapStartNameHashE = hidden local_unnamed_addr constant i64 7210524409551472901, align 8
@_ZN3ukm8builders32Graphics_Smoothness_EventLatency86kSubmitCompositorFrameToPresentationCompositorFrame_SubmitToReceiveCompositorFrameNameE = hidden local_unnamed_addr constant [82 x i8] c"SubmitCompositorFrameToPresentationCompositorFrame.SubmitToReceiveCompositorFrame\00", align 16
@_ZN3ukm8builders32Graphics_Smoothness_EventLatency90kSubmitCompositorFrameToPresentationCompositorFrame_SubmitToReceiveCompositorFrameNameHashE = hidden local_unnamed_addr constant i64 -4140269542814261173, align 8
@_ZN3ukm8builders32Graphics_Smoothness_EventLatency92kSubmitCompositorFrameToPresentationCompositorFrame_SwapEndToPresentationCompositorFrameNameE = hidden local_unnamed_addr constant [88 x i8] c"SubmitCompositorFrameToPresentationCompositorFrame.SwapEndToPresentationCompositorFrame\00", align 16
@_ZN3ukm8builders32Graphics_Smoothness_EventLatency96kSubmitCompositorFrameToPresentationCompositorFrame_SwapEndToPresentationCompositorFrameNameHashE = hidden local_unnamed_addr constant i64 838162815137783913, align 8
@_ZN3ukm8builders32Graphics_Smoothness_EventLatency82kSubmitCompositorFrameToPresentationCompositorFrame_SwapStartToBufferAvailableNameE = hidden local_unnamed_addr constant [78 x i8] c"SubmitCompositorFrameToPresentationCompositorFrame.SwapStartToBufferAvailable\00", align 16
@_ZN3ukm8builders32Graphics_Smoothness_EventLatency86kSubmitCompositorFrameToPresentationCompositorFrame_SwapStartToBufferAvailableNameHashE = hidden local_unnamed_addr constant i64 6636157383910377693, align 8
@_ZN3ukm8builders32Graphics_Smoothness_EventLatency74kSubmitCompositorFrameToPresentationCompositorFrame_SwapStartToSwapEndNameE = hidden local_unnamed_addr constant [70 x i8] c"SubmitCompositorFrameToPresentationCompositorFrame.SwapStartToSwapEnd\00", align 16
@_ZN3ukm8builders32Graphics_Smoothness_EventLatency78kSubmitCompositorFrameToPresentationCompositorFrame_SwapStartToSwapEndNameHashE = hidden local_unnamed_addr constant i64 6621395714715301150, align 8
@_ZN3ukm8builders32Graphics_Smoothness_EventLatency17kTotalLatencyNameE = hidden local_unnamed_addr constant [13 x i8] c"TotalLatency\00", align 1
@_ZN3ukm8builders32Graphics_Smoothness_EventLatency21kTotalLatencyNameHashE = hidden local_unnamed_addr constant i64 1484146670166706245, align 8
@_ZN3ukm8builders32Graphics_Smoothness_EventLatency28kTotalLatencyToSwapBeginNameE = hidden local_unnamed_addr constant [24 x i8] c"TotalLatencyToSwapBegin\00", align 16
@_ZN3ukm8builders32Graphics_Smoothness_EventLatency32kTotalLatencyToSwapBeginNameHashE = hidden local_unnamed_addr constant i64 -4687565045750490592, align 8
@_ZN3ukm8builders27Graphics_Smoothness_Latency10kEntryNameE = hidden local_unnamed_addr constant [28 x i8] c"Graphics.Smoothness.Latency\00", align 16
@_ZN3ukm8builders27Graphics_Smoothness_Latency14kEntryNameHashE = hidden local_unnamed_addr constant i64 4259890394998283936, align 8
@_ZTVN3ukm8builders27Graphics_Smoothness_LatencyE = hidden unnamed_addr constant { [4 x i8*] } { [4 x i8*] [i8* null, i8* null, i8* bitcast (void (%"class.ukm::builders::Graphics_Smoothness_Latency"*)* @_ZN3ukm8builders27Graphics_Smoothness_LatencyD2Ev to i8*), i8* bitcast (void (%"class.ukm::builders::Graphics_Smoothness_Latency"*)* @_ZN3ukm8builders27Graphics_Smoothness_LatencyD0Ev to i8*)] }, align 8
@_ZN3ukm8builders27Graphics_Smoothness_Latency15kActivationNameE = hidden local_unnamed_addr constant [11 x i8] c"Activation\00", align 1
@_ZN3ukm8builders27Graphics_Smoothness_Latency19kActivationNameHashE = hidden local_unnamed_addr constant i64 -6222234774378099450, align 8
@_ZN3ukm8builders27Graphics_Smoothness_Latency39kBeginImplFrameToSendBeginMainFrameNameE = hidden local_unnamed_addr constant [35 x i8] c"BeginImplFrameToSendBeginMainFrame\00", align 16
@_ZN3ukm8builders27Graphics_Smoothness_Latency43kBeginImplFrameToSendBeginMainFrameNameHashE = hidden local_unnamed_addr constant i64 -1438571462482612834, align 8
@_ZN3ukm8builders27Graphics_Smoothness_Latency20kCanvasAnimationNameE = hidden local_unnamed_addr constant [16 x i8] c"CanvasAnimation\00", align 16
@_ZN3ukm8builders27Graphics_Smoothness_Latency24kCanvasAnimationNameHashE = hidden local_unnamed_addr constant i64 1503700410924474831, align 8
@_ZN3ukm8builders27Graphics_Smoothness_Latency11kCommitNameE = hidden local_unnamed_addr constant [7 x i8] c"Commit\00", align 1
@_ZN3ukm8builders27Graphics_Smoothness_Latency15kCommitNameHashE = hidden local_unnamed_addr constant i64 6473274705490247427, align 8
@_ZN3ukm8builders27Graphics_Smoothness_Latency24kCompositorAnimationNameE = hidden local_unnamed_addr constant [20 x i8] c"CompositorAnimation\00", align 16
@_ZN3ukm8builders27Graphics_Smoothness_Latency28kCompositorAnimationNameHashE = hidden local_unnamed_addr constant i64 -6606978132311203401, align 8
@_ZN3ukm8builders27Graphics_Smoothness_Latency39kEndActivateToSubmitCompositorFrameNameE = hidden local_unnamed_addr constant [35 x i8] c"EndActivateToSubmitCompositorFrame\00", align 16
@_ZN3ukm8builders27Graphics_Smoothness_Latency43kEndActivateToSubmitCompositorFrameNameHashE = hidden local_unnamed_addr constant i64 -2017835038002759033, align 8
@_ZN3ukm8builders27Graphics_Smoothness_Latency26kEndCommitToActivationNameE = hidden local_unnamed_addr constant [22 x i8] c"EndCommitToActivation\00", align 16
@_ZN3ukm8builders27Graphics_Smoothness_Latency30kEndCommitToActivationNameHashE = hidden local_unnamed_addr constant i64 3830696727341877188, align 8
@_ZN3ukm8builders27Graphics_Smoothness_Latency16kJSAnimationNameE = hidden local_unnamed_addr constant [12 x i8] c"JSAnimation\00", align 1
@_ZN3ukm8builders27Graphics_Smoothness_Latency20kJSAnimationNameHashE = hidden local_unnamed_addr constant i64 1267442116416858132, align 8
@_ZN3ukm8builders27Graphics_Smoothness_Latency24kMainThreadAnimationNameE = hidden local_unnamed_addr constant [20 x i8] c"MainThreadAnimation\00", align 16
@_ZN3ukm8builders27Graphics_Smoothness_Latency28kMainThreadAnimationNameHashE = hidden local_unnamed_addr constant i64 -861402904306173146, align 8
@_ZN3ukm8builders27Graphics_Smoothness_Latency16kMissedFrameNameE = hidden local_unnamed_addr constant [12 x i8] c"MissedFrame\00", align 1
@_ZN3ukm8builders27Graphics_Smoothness_Latency20kMissedFrameNameHashE = hidden local_unnamed_addr constant i64 4476428804431606583, align 8
@_ZN3ukm8builders27Graphics_Smoothness_Latency14kPinchZoomNameE = hidden local_unnamed_addr constant [10 x i8] c"PinchZoom\00", align 1
@_ZN3ukm8builders27Graphics_Smoothness_Latency18kPinchZoomNameHashE = hidden local_unnamed_addr constant i64 -6382711192811968637, align 8
@_ZN3ukm8builders27Graphics_Smoothness_Latency8kRAFNameE = hidden local_unnamed_addr constant [4 x i8] c"RAF\00", align 1
@_ZN3ukm8builders27Graphics_Smoothness_Latency12kRAFNameHashE = hidden local_unnamed_addr constant i64 5697873212277685907, align 8
@_ZN3ukm8builders27Graphics_Smoothness_Latency20kScrollbarScrollNameE = hidden local_unnamed_addr constant [16 x i8] c"ScrollbarScroll\00", align 16
@_ZN3ukm8builders27Graphics_Smoothness_Latency24kScrollbarScrollNameHashE = hidden local_unnamed_addr constant i64 -9140933901941233324, align 8
@_ZN3ukm8builders27Graphics_Smoothness_Latency31kSendBeginMainFrameToCommitNameE = hidden local_unnamed_addr constant [27 x i8] c"SendBeginMainFrameToCommit\00", align 16
@_ZN3ukm8builders27Graphics_Smoothness_Latency35kSendBeginMainFrameToCommitNameHashE = hidden local_unnamed_addr constant i64 4533040338292079001, align 8
@_ZN3ukm8builders27Graphics_Smoothness_Latency39kSendBeginMainFrameToCommit_AnimateNameE = hidden local_unnamed_addr constant [35 x i8] c"SendBeginMainFrameToCommit.Animate\00", align 16
@_ZN3ukm8builders27Graphics_Smoothness_Latency43kSendBeginMainFrameToCommit_AnimateNameHashE = hidden local_unnamed_addr constant i64 8343767389934127044, align 8
@_ZN3ukm8builders27Graphics_Smoothness_Latency54kSendBeginMainFrameToCommit_BeginMainSentToStartedNameE = hidden local_unnamed_addr constant [50 x i8] c"SendBeginMainFrameToCommit.BeginMainSentToStarted\00", align 16
@_ZN3ukm8builders27Graphics_Smoothness_Latency58kSendBeginMainFrameToCommit_BeginMainSentToStartedNameHashE = hidden local_unnamed_addr constant i64 5384975942974359718, align 8
@_ZN3ukm8builders27Graphics_Smoothness_Latency47kSendBeginMainFrameToCommit_CompositeCommitNameE = hidden local_unnamed_addr constant [43 x i8] c"SendBeginMainFrameToCommit.CompositeCommit\00", align 16
@_ZN3ukm8builders27Graphics_Smoothness_Latency51kSendBeginMainFrameToCommit_CompositeCommitNameHashE = hidden local_unnamed_addr constant i64 -7870789462505032655, align 8
@_ZN3ukm8builders27Graphics_Smoothness_Latency54kSendBeginMainFrameToCommit_CompositingAssignmentsNameE = hidden local_unnamed_addr constant [50 x i8] c"SendBeginMainFrameToCommit.CompositingAssignments\00", align 16
@_ZN3ukm8builders27Graphics_Smoothness_Latency58kSendBeginMainFrameToCommit_CompositingAssignmentsNameHashE = hidden local_unnamed_addr constant i64 6222993175375072104, align 8
@_ZN3ukm8builders27Graphics_Smoothness_Latency49kSendBeginMainFrameToCommit_CompositingInputsNameE = hidden local_unnamed_addr constant [45 x i8] c"SendBeginMainFrameToCommit.CompositingInputs\00", align 16
@_ZN3ukm8builders27Graphics_Smoothness_Latency53kSendBeginMainFrameToCommit_CompositingInputsNameHashE = hidden local_unnamed_addr constant i64 829465320820564719, align 8
@_ZN3ukm8builders27Graphics_Smoothness_Latency49kSendBeginMainFrameToCommit_HandleInputEventsNameE = hidden local_unnamed_addr constant [45 x i8] c"SendBeginMainFrameToCommit.HandleInputEvents\00", align 16
@_ZN3ukm8builders27Graphics_Smoothness_Latency53kSendBeginMainFrameToCommit_HandleInputEventsNameHashE = hidden local_unnamed_addr constant i64 1165118933490711579, align 8
@_ZN3ukm8builders27Graphics_Smoothness_Latency44kSendBeginMainFrameToCommit_LayoutUpdateNameE = hidden local_unnamed_addr constant [40 x i8] c"SendBeginMainFrameToCommit.LayoutUpdate\00", align 16
@_ZN3ukm8builders27Graphics_Smoothness_Latency48kSendBeginMainFrameToCommit_LayoutUpdateNameHashE = hidden local_unnamed_addr constant i64 -8221135947057414582, align 8
@_ZN3ukm8builders27Graphics_Smoothness_Latency37kSendBeginMainFrameToCommit_PaintNameE = hidden local_unnamed_addr constant [33 x i8] c"SendBeginMainFrameToCommit.Paint\00", align 16
@_ZN3ukm8builders27Graphics_Smoothness_Latency41kSendBeginMainFrameToCommit_PaintNameHashE = hidden local_unnamed_addr constant i64 232555831202593428, align 8
@_ZN3ukm8builders27Graphics_Smoothness_Latency40kSendBeginMainFrameToCommit_PrepaintNameE = hidden local_unnamed_addr constant [36 x i8] c"SendBeginMainFrameToCommit.Prepaint\00", align 16
@_ZN3ukm8builders27Graphics_Smoothness_Latency44kSendBeginMainFrameToCommit_PrepaintNameHashE = hidden local_unnamed_addr constant i64 -4403696163224381983, align 8
@_ZN3ukm8builders27Graphics_Smoothness_Latency43kSendBeginMainFrameToCommit_StyleUpdateNameE = hidden local_unnamed_addr constant [39 x i8] c"SendBeginMainFrameToCommit.StyleUpdate\00", align 16
@_ZN3ukm8builders27Graphics_Smoothness_Latency47kSendBeginMainFrameToCommit_StyleUpdateNameHashE = hidden local_unnamed_addr constant i64 5007375205011789513, align 8
@_ZN3ukm8builders27Graphics_Smoothness_Latency44kSendBeginMainFrameToCommit_UpdateLayersNameE = hidden local_unnamed_addr constant [40 x i8] c"SendBeginMainFrameToCommit.UpdateLayers\00", align 16
@_ZN3ukm8builders27Graphics_Smoothness_Latency48kSendBeginMainFrameToCommit_UpdateLayersNameHashE = hidden local_unnamed_addr constant i64 6804362734965297093, align 8
@_ZN3ukm8builders27Graphics_Smoothness_Latency55kSubmitCompositorFrameToPresentationCompositorFrameNameE = hidden local_unnamed_addr constant [51 x i8] c"SubmitCompositorFrameToPresentationCompositorFrame\00", align 16
@_ZN3ukm8builders27Graphics_Smoothness_Latency59kSubmitCompositorFrameToPresentationCompositorFrameNameHashE = hidden local_unnamed_addr constant i64 6674140523643808969, align 8
@_ZN3ukm8builders27Graphics_Smoothness_Latency84kSubmitCompositorFrameToPresentationCompositorFrame_BufferAvailableToBufferReadyNameE = hidden local_unnamed_addr constant [80 x i8] c"SubmitCompositorFrameToPresentationCompositorFrame.BufferAvailableToBufferReady\00", align 16
@_ZN3ukm8builders27Graphics_Smoothness_Latency88kSubmitCompositorFrameToPresentationCompositorFrame_BufferAvailableToBufferReadyNameHashE = hidden local_unnamed_addr constant i64 607984992502472994, align 8
@_ZN3ukm8builders27Graphics_Smoothness_Latency74kSubmitCompositorFrameToPresentationCompositorFrame_BufferReadyToLatchNameE = hidden local_unnamed_addr constant [70 x i8] c"SubmitCompositorFrameToPresentationCompositorFrame.BufferReadyToLatch\00", align 16
@_ZN3ukm8builders27Graphics_Smoothness_Latency78kSubmitCompositorFrameToPresentationCompositorFrame_BufferReadyToLatchNameHashE = hidden local_unnamed_addr constant i64 2975991725388751644, align 8
@_ZN3ukm8builders27Graphics_Smoothness_Latency70kSubmitCompositorFrameToPresentationCompositorFrame_LatchToSwapEndNameE = hidden local_unnamed_addr constant [66 x i8] c"SubmitCompositorFrameToPresentationCompositorFrame.LatchToSwapEnd\00", align 16
@_ZN3ukm8builders27Graphics_Smoothness_Latency74kSubmitCompositorFrameToPresentationCompositorFrame_LatchToSwapEndNameHashE = hidden local_unnamed_addr constant i64 -8099475967446043595, align 8
@_ZN3ukm8builders27Graphics_Smoothness_Latency90kSubmitCompositorFrameToPresentationCompositorFrame_ReceivedCompositorFrameToStartDrawNameE = hidden local_unnamed_addr constant [86 x i8] c"SubmitCompositorFrameToPresentationCompositorFrame.ReceivedCompositorFrameToStartDraw\00", align 16
@_ZN3ukm8builders27Graphics_Smoothness_Latency94kSubmitCompositorFrameToPresentationCompositorFrame_ReceivedCompositorFrameToStartDrawNameHashE = hidden local_unnamed_addr constant i64 -7260727992975809443, align 8
@_ZN3ukm8builders27Graphics_Smoothness_Latency76kSubmitCompositorFrameToPresentationCompositorFrame_StartDrawToSwapStartNameE = hidden local_unnamed_addr constant [72 x i8] c"SubmitCompositorFrameToPresentationCompositorFrame.StartDrawToSwapStart\00", align 16
@_ZN3ukm8builders27Graphics_Smoothness_Latency80kSubmitCompositorFrameToPresentationCompositorFrame_StartDrawToSwapStartNameHashE = hidden local_unnamed_addr constant i64 7210524409551472901, align 8
@_ZN3ukm8builders27Graphics_Smoothness_Latency86kSubmitCompositorFrameToPresentationCompositorFrame_SubmitToReceiveCompositorFrameNameE = hidden local_unnamed_addr constant [82 x i8] c"SubmitCompositorFrameToPresentationCompositorFrame.SubmitToReceiveCompositorFrame\00", align 16
@_ZN3ukm8builders27Graphics_Smoothness_Latency90kSubmitCompositorFrameToPresentationCompositorFrame_SubmitToReceiveCompositorFrameNameHashE = hidden local_unnamed_addr constant i64 -4140269542814261173, align 8
@_ZN3ukm8builders27Graphics_Smoothness_Latency92kSubmitCompositorFrameToPresentationCompositorFrame_SwapEndToPresentationCompositorFrameNameE = hidden local_unnamed_addr constant [88 x i8] c"SubmitCompositorFrameToPresentationCompositorFrame.SwapEndToPresentationCompositorFrame\00", align 16
@_ZN3ukm8builders27Graphics_Smoothness_Latency96kSubmitCompositorFrameToPresentationCompositorFrame_SwapEndToPresentationCompositorFrameNameHashE = hidden local_unnamed_addr constant i64 838162815137783913, align 8
@_ZN3ukm8builders27Graphics_Smoothness_Latency82kSubmitCompositorFrameToPresentationCompositorFrame_SwapStartToBufferAvailableNameE = hidden local_unnamed_addr constant [78 x i8] c"SubmitCompositorFrameToPresentationCompositorFrame.SwapStartToBufferAvailable\00", align 16
@_ZN3ukm8builders27Graphics_Smoothness_Latency86kSubmitCompositorFrameToPresentationCompositorFrame_SwapStartToBufferAvailableNameHashE = hidden local_unnamed_addr constant i64 6636157383910377693, align 8
@_ZN3ukm8builders27Graphics_Smoothness_Latency74kSubmitCompositorFrameToPresentationCompositorFrame_SwapStartToSwapEndNameE = hidden local_unnamed_addr constant [70 x i8] c"SubmitCompositorFrameToPresentationCompositorFrame.SwapStartToSwapEnd\00", align 16
@_ZN3ukm8builders27Graphics_Smoothness_Latency78kSubmitCompositorFrameToPresentationCompositorFrame_SwapStartToSwapEndNameHashE = hidden local_unnamed_addr constant i64 6621395714715301150, align 8
@_ZN3ukm8builders27Graphics_Smoothness_Latency17kTotalLatencyNameE = hidden local_unnamed_addr constant [13 x i8] c"TotalLatency\00", align 1
@_ZN3ukm8builders27Graphics_Smoothness_Latency21kTotalLatencyNameHashE = hidden local_unnamed_addr constant i64 1484146670166706245, align 8
@_ZN3ukm8builders27Graphics_Smoothness_Latency16kTouchScrollNameE = hidden local_unnamed_addr constant [12 x i8] c"TouchScroll\00", align 1
@_ZN3ukm8builders27Graphics_Smoothness_Latency20kTouchScrollNameHashE = hidden local_unnamed_addr constant i64 -6547178833331699261, align 8
@_ZN3ukm8builders27Graphics_Smoothness_Latency12kUnknownNameE = hidden local_unnamed_addr constant [8 x i8] c"Unknown\00", align 1
@_ZN3ukm8builders27Graphics_Smoothness_Latency16kUnknownNameHashE = hidden local_unnamed_addr constant i64 -8640090376444186392, align 8
@_ZN3ukm8builders27Graphics_Smoothness_Latency10kVideoNameE = hidden local_unnamed_addr constant [6 x i8] c"Video\00", align 1
@_ZN3ukm8builders27Graphics_Smoothness_Latency14kVideoNameHashE = hidden local_unnamed_addr constant i64 3810838688059735925, align 8
@_ZN3ukm8builders27Graphics_Smoothness_Latency16kWheelScrollNameE = hidden local_unnamed_addr constant [12 x i8] c"WheelScroll\00", align 1
@_ZN3ukm8builders27Graphics_Smoothness_Latency20kWheelScrollNameHashE = hidden local_unnamed_addr constant i64 82067021580369146, align 8
@_ZN3ukm8builders50Graphics_Smoothness_NormalizedPercentDroppedFrames10kEntryNameE = hidden local_unnamed_addr constant [51 x i8] c"Graphics.Smoothness.NormalizedPercentDroppedFrames\00", align 16
@_ZN3ukm8builders50Graphics_Smoothness_NormalizedPercentDroppedFrames14kEntryNameHashE = hidden local_unnamed_addr constant i64 5416874090953909475, align 8
@_ZTVN3ukm8builders50Graphics_Smoothness_NormalizedPercentDroppedFramesE = hidden unnamed_addr constant { [4 x i8*] } { [4 x i8*] [i8* null, i8* null, i8* bitcast (void (%"class.ukm::builders::Graphics_Smoothness_NormalizedPercentDroppedFrames"*)* @_ZN3ukm8builders50Graphics_Smoothness_NormalizedPercentDroppedFramesD2Ev to i8*), i8* bitcast (void (%"class.ukm::builders::Graphics_Smoothness_NormalizedPercentDroppedFrames"*)* @_ZN3ukm8builders50Graphics_Smoothness_NormalizedPercentDroppedFramesD0Ev to i8*)] }, align 8
@_ZN3ukm8builders50Graphics_Smoothness_NormalizedPercentDroppedFrames19kAboveThresholdNameE = hidden local_unnamed_addr constant [15 x i8] c"AboveThreshold\00", align 1
@_ZN3ukm8builders50Graphics_Smoothness_NormalizedPercentDroppedFrames23kAboveThresholdNameHashE = hidden local_unnamed_addr constant i64 3903388314598942607, align 8
@_ZN3ukm8builders50Graphics_Smoothness_NormalizedPercentDroppedFrames12kAverageNameE = hidden local_unnamed_addr constant [8 x i8] c"Average\00", align 1
@_ZN3ukm8builders50Graphics_Smoothness_NormalizedPercentDroppedFrames16kAverageNameHashE = hidden local_unnamed_addr constant i64 -5653859120553875104, align 8
@_ZN3ukm8builders50Graphics_Smoothness_NormalizedPercentDroppedFrames17kPercentile95NameE = hidden local_unnamed_addr constant [13 x i8] c"Percentile95\00", align 1
@_ZN3ukm8builders50Graphics_Smoothness_NormalizedPercentDroppedFrames21kPercentile95NameHashE = hidden local_unnamed_addr constant i64 -95473706345267492, align 8
@_ZN3ukm8builders50Graphics_Smoothness_NormalizedPercentDroppedFrames28kTimingSinceFCPWorstCaseNameE = hidden local_unnamed_addr constant [24 x i8] c"TimingSinceFCPWorstCase\00", align 16
@_ZN3ukm8builders50Graphics_Smoothness_NormalizedPercentDroppedFrames32kTimingSinceFCPWorstCaseNameHashE = hidden local_unnamed_addr constant i64 -4374888869498297118, align 8
@_ZN3ukm8builders50Graphics_Smoothness_NormalizedPercentDroppedFrames14kWorstCaseNameE = hidden local_unnamed_addr constant [10 x i8] c"WorstCase\00", align 1
@_ZN3ukm8builders50Graphics_Smoothness_NormalizedPercentDroppedFrames18kWorstCaseNameHashE = hidden local_unnamed_addr constant i64 -5812282342618306896, align 8
@_ZN3ukm8builders50Graphics_Smoothness_NormalizedPercentDroppedFrames23kWorstCaseAfter1SecNameE = hidden local_unnamed_addr constant [19 x i8] c"WorstCaseAfter1Sec\00", align 16
@_ZN3ukm8builders50Graphics_Smoothness_NormalizedPercentDroppedFrames27kWorstCaseAfter1SecNameHashE = hidden local_unnamed_addr constant i64 6530659958993034807, align 8
@_ZN3ukm8builders50Graphics_Smoothness_NormalizedPercentDroppedFrames23kWorstCaseAfter2SecNameE = hidden local_unnamed_addr constant [19 x i8] c"WorstCaseAfter2Sec\00", align 16
@_ZN3ukm8builders50Graphics_Smoothness_NormalizedPercentDroppedFrames27kWorstCaseAfter2SecNameHashE = hidden local_unnamed_addr constant i64 5627268941328769276, align 8
@_ZN3ukm8builders50Graphics_Smoothness_NormalizedPercentDroppedFrames23kWorstCaseAfter5SecNameE = hidden local_unnamed_addr constant [19 x i8] c"WorstCaseAfter5Sec\00", align 16
@_ZN3ukm8builders50Graphics_Smoothness_NormalizedPercentDroppedFrames27kWorstCaseAfter5SecNameHashE = hidden local_unnamed_addr constant i64 -2855959208363851255, align 8
@_ZN3ukm8builders40Graphics_Smoothness_PercentDroppedFrames10kEntryNameE = hidden local_unnamed_addr constant [41 x i8] c"Graphics.Smoothness.PercentDroppedFrames\00", align 16
@_ZN3ukm8builders40Graphics_Smoothness_PercentDroppedFrames14kEntryNameHashE = hidden local_unnamed_addr constant i64 6831778698353217167, align 8
@_ZTVN3ukm8builders40Graphics_Smoothness_PercentDroppedFramesE = hidden unnamed_addr constant { [4 x i8*] } { [4 x i8*] [i8* null, i8* null, i8* bitcast (void (%"class.ukm::builders::Graphics_Smoothness_PercentDroppedFrames"*)* @_ZN3ukm8builders40Graphics_Smoothness_PercentDroppedFramesD2Ev to i8*), i8* bitcast (void (%"class.ukm::builders::Graphics_Smoothness_PercentDroppedFrames"*)* @_ZN3ukm8builders40Graphics_Smoothness_PercentDroppedFramesD0Ev to i8*)] }, align 8
@_ZN3ukm8builders40Graphics_Smoothness_PercentDroppedFrames18kAllAnimationsNameE = hidden local_unnamed_addr constant [14 x i8] c"AllAnimations\00", align 1
@_ZN3ukm8builders40Graphics_Smoothness_PercentDroppedFrames22kAllAnimationsNameHashE = hidden local_unnamed_addr constant i64 -9028099383324516553, align 8
@_ZN3ukm8builders40Graphics_Smoothness_PercentDroppedFrames20kAllInteractionsNameE = hidden local_unnamed_addr constant [16 x i8] c"AllInteractions\00", align 16
@_ZN3ukm8builders40Graphics_Smoothness_PercentDroppedFrames24kAllInteractionsNameHashE = hidden local_unnamed_addr constant i64 -5397552831675767284, align 8
@_ZN3ukm8builders40Graphics_Smoothness_PercentDroppedFrames17kAllSequencesNameE = hidden local_unnamed_addr constant [13 x i8] c"AllSequences\00", align 1
@_ZN3ukm8builders40Graphics_Smoothness_PercentDroppedFrames21kAllSequencesNameHashE = hidden local_unnamed_addr constant i64 6028515937420265331, align 8
@_ZN3ukm8builders40Graphics_Smoothness_PercentDroppedFrames41kCompositorThread_CompositorAnimationNameE = hidden local_unnamed_addr constant [37 x i8] c"CompositorThread.CompositorAnimation\00", align 16
@_ZN3ukm8builders40Graphics_Smoothness_PercentDroppedFrames45kCompositorThread_CompositorAnimationNameHashE = hidden local_unnamed_addr constant i64 -6937757985265359022, align 8
@_ZN3ukm8builders40Graphics_Smoothness_PercentDroppedFrames41kCompositorThread_MainThreadAnimationNameE = hidden local_unnamed_addr constant [37 x i8] c"CompositorThread.MainThreadAnimation\00", align 16
@_ZN3ukm8builders40Graphics_Smoothness_PercentDroppedFrames45kCompositorThread_MainThreadAnimationNameHashE = hidden local_unnamed_addr constant i64 3902324856980997333, align 8
@_ZN3ukm8builders40Graphics_Smoothness_PercentDroppedFrames31kCompositorThread_PinchZoomNameE = hidden local_unnamed_addr constant [27 x i8] c"CompositorThread.PinchZoom\00", align 16
@_ZN3ukm8builders40Graphics_Smoothness_PercentDroppedFrames35kCompositorThread_PinchZoomNameHashE = hidden local_unnamed_addr constant i64 -4419669523406751098, align 8
@_ZN3ukm8builders40Graphics_Smoothness_PercentDroppedFrames25kCompositorThread_RAFNameE = hidden local_unnamed_addr constant [21 x i8] c"CompositorThread.RAF\00", align 16
@_ZN3ukm8builders40Graphics_Smoothness_PercentDroppedFrames29kCompositorThread_RAFNameHashE = hidden local_unnamed_addr constant i64 -8256076933645080429, align 8
@_ZN3ukm8builders40Graphics_Smoothness_PercentDroppedFrames37kCompositorThread_ScrollbarScrollNameE = hidden local_unnamed_addr constant [33 x i8] c"CompositorThread.ScrollbarScroll\00", align 16
@_ZN3ukm8builders40Graphics_Smoothness_PercentDroppedFrames41kCompositorThread_ScrollbarScrollNameHashE = hidden local_unnamed_addr constant i64 -2686175296560124830, align 8
@_ZN3ukm8builders40Graphics_Smoothness_PercentDroppedFrames33kCompositorThread_TouchScrollNameE = hidden local_unnamed_addr constant [29 x i8] c"CompositorThread.TouchScroll\00", align 16
@_ZN3ukm8builders40Graphics_Smoothness_PercentDroppedFrames37kCompositorThread_TouchScrollNameHashE = hidden local_unnamed_addr constant i64 1734389275819109649, align 8
@_ZN3ukm8builders40Graphics_Smoothness_PercentDroppedFrames27kCompositorThread_VideoNameE = hidden local_unnamed_addr constant [23 x i8] c"CompositorThread.Video\00", align 16
@_ZN3ukm8builders40Graphics_Smoothness_PercentDroppedFrames31kCompositorThread_VideoNameHashE = hidden local_unnamed_addr constant i64 2464666396187755279, align 8
@_ZN3ukm8builders40Graphics_Smoothness_PercentDroppedFrames33kCompositorThread_WheelScrollNameE = hidden local_unnamed_addr constant [29 x i8] c"CompositorThread.WheelScroll\00", align 16
@_ZN3ukm8builders40Graphics_Smoothness_PercentDroppedFrames37kCompositorThread_WheelScrollNameHashE = hidden local_unnamed_addr constant i64 -3333834453562682701, align 8
@_ZN3ukm8builders40Graphics_Smoothness_PercentDroppedFrames31kMainThread_CanvasAnimationNameE = hidden local_unnamed_addr constant [27 x i8] c"MainThread.CanvasAnimation\00", align 16
@_ZN3ukm8builders40Graphics_Smoothness_PercentDroppedFrames35kMainThread_CanvasAnimationNameHashE = hidden local_unnamed_addr constant i64 -7802859726181050341, align 8
@_ZN3ukm8builders40Graphics_Smoothness_PercentDroppedFrames35kMainThread_CompositorAnimationNameE = hidden local_unnamed_addr constant [31 x i8] c"MainThread.CompositorAnimation\00", align 16
@_ZN3ukm8builders40Graphics_Smoothness_PercentDroppedFrames39kMainThread_CompositorAnimationNameHashE = hidden local_unnamed_addr constant i64 1114728914573230140, align 8
@_ZN3ukm8builders40Graphics_Smoothness_PercentDroppedFrames27kMainThread_JSAnimationNameE = hidden local_unnamed_addr constant [23 x i8] c"MainThread.JSAnimation\00", align 16
@_ZN3ukm8builders40Graphics_Smoothness_PercentDroppedFrames31kMainThread_JSAnimationNameHashE = hidden local_unnamed_addr constant i64 3510020179050407317, align 8
@_ZN3ukm8builders40Graphics_Smoothness_PercentDroppedFrames35kMainThread_MainThreadAnimationNameE = hidden local_unnamed_addr constant [31 x i8] c"MainThread.MainThreadAnimation\00", align 16
@_ZN3ukm8builders40Graphics_Smoothness_PercentDroppedFrames39kMainThread_MainThreadAnimationNameHashE = hidden local_unnamed_addr constant i64 -9029131553310848302, align 8
@_ZN3ukm8builders40Graphics_Smoothness_PercentDroppedFrames25kMainThread_PinchZoomNameE = hidden local_unnamed_addr constant [21 x i8] c"MainThread.PinchZoom\00", align 16
@_ZN3ukm8builders40Graphics_Smoothness_PercentDroppedFrames29kMainThread_PinchZoomNameHashE = hidden local_unnamed_addr constant i64 8673404319606286985, align 8
@_ZN3ukm8builders40Graphics_Smoothness_PercentDroppedFrames19kMainThread_RAFNameE = hidden local_unnamed_addr constant [15 x i8] c"MainThread.RAF\00", align 1
@_ZN3ukm8builders40Graphics_Smoothness_PercentDroppedFrames23kMainThread_RAFNameHashE = hidden local_unnamed_addr constant i64 6083877763173548455, align 8
@_ZN3ukm8builders40Graphics_Smoothness_PercentDroppedFrames31kMainThread_ScrollbarScrollNameE = hidden local_unnamed_addr constant [27 x i8] c"MainThread.ScrollbarScroll\00", align 16
@_ZN3ukm8builders40Graphics_Smoothness_PercentDroppedFrames35kMainThread_ScrollbarScrollNameHashE = hidden local_unnamed_addr constant i64 44152623868955141, align 8
@_ZN3ukm8builders40Graphics_Smoothness_PercentDroppedFrames27kMainThread_TouchScrollNameE = hidden local_unnamed_addr constant [23 x i8] c"MainThread.TouchScroll\00", align 16
@_ZN3ukm8builders40Graphics_Smoothness_PercentDroppedFrames31kMainThread_TouchScrollNameHashE = hidden local_unnamed_addr constant i64 -1492898929441731024, align 8
@_ZN3ukm8builders40Graphics_Smoothness_PercentDroppedFrames21kMainThread_VideoNameE = hidden local_unnamed_addr constant [17 x i8] c"MainThread.Video\00", align 16
@_ZN3ukm8builders40Graphics_Smoothness_PercentDroppedFrames25kMainThread_VideoNameHashE = hidden local_unnamed_addr constant i64 4791323324276332364, align 8
@_ZN3ukm8builders40Graphics_Smoothness_PercentDroppedFrames27kMainThread_WheelScrollNameE = hidden local_unnamed_addr constant [23 x i8] c"MainThread.WheelScroll\00", align 16
@_ZN3ukm8builders40Graphics_Smoothness_PercentDroppedFrames31kMainThread_WheelScrollNameHashE = hidden local_unnamed_addr constant i64 1226328940498258039, align 8
@_ZN3ukm8builders40Graphics_Smoothness_PercentDroppedFrames27kSlowerThread_PinchZoomNameE = hidden local_unnamed_addr constant [23 x i8] c"SlowerThread.PinchZoom\00", align 16
@_ZN3ukm8builders40Graphics_Smoothness_PercentDroppedFrames31kSlowerThread_PinchZoomNameHashE = hidden local_unnamed_addr constant i64 -4742124737001493863, align 8
@_ZN3ukm8builders31HistoryManipulationIntervention10kEntryNameE = hidden local_unnamed_addr constant [32 x i8] c"HistoryManipulationIntervention\00", align 16
@_ZN3ukm8builders31HistoryManipulationIntervention14kEntryNameHashE = hidden local_unnamed_addr constant i64 -461672271583567176, align 8
@_ZTVN3ukm8builders31HistoryManipulationInterventionE = hidden unnamed_addr constant { [4 x i8*] } { [4 x i8*] [i8* null, i8* null, i8* bitcast (void (%"class.ukm::builders::HistoryManipulationIntervention"*)* @_ZN3ukm8builders31HistoryManipulationInterventionD2Ev to i8*), i8* bitcast (void (%"class.ukm::builders::HistoryManipulationIntervention"*)* @_ZN3ukm8builders31HistoryManipulationInterventionD0Ev to i8*)] }, align 8
@_ZN3ukm8builders17HistoryNavigation10kEntryNameE = hidden local_unnamed_addr constant [18 x i8] c"HistoryNavigation\00", align 16
@_ZN3ukm8builders17HistoryNavigation14kEntryNameHashE = hidden local_unnamed_addr constant i64 6390056345493314213, align 8
@_ZTVN3ukm8builders17HistoryNavigationE = hidden unnamed_addr constant { [4 x i8*] } { [4 x i8*] [i8* null, i8* null, i8* bitcast (void (%"class.ukm::builders::HistoryNavigation"*)* @_ZN3ukm8builders17HistoryNavigationD2Ev to i8*), i8* bitcast (void (%"class.ukm::builders::HistoryNavigation"*)* @_ZN3ukm8builders17HistoryNavigationD0Ev to i8*)] }, align 8
@_ZN3ukm8builders17HistoryNavigation84kAverageCumulativeShiftScoreAfterBackForwardCacheRestore_SessionWindow_Gap5000msNameE = hidden local_unnamed_addr constant [80 x i8] c"AverageCumulativeShiftScoreAfterBackForwardCacheRestore.SessionWindow.Gap5000ms\00", align 16
@_ZN3ukm8builders17HistoryNavigation88kAverageCumulativeShiftScoreAfterBackForwardCacheRestore_SessionWindow_Gap5000msNameHashE = hidden local_unnamed_addr constant i64 -2953353777888851865, align 8
@_ZN3ukm8builders17HistoryNavigation41kBackForwardCache_BlocklistedFeaturesNameE = hidden local_unnamed_addr constant [37 x i8] c"BackForwardCache.BlocklistedFeatures\00", align 16
@_ZN3ukm8builders17HistoryNavigation45kBackForwardCache_BlocklistedFeaturesNameHashE = hidden local_unnamed_addr constant i64 114784820077506701, align 8
@_ZN3ukm8builders17HistoryNavigation54kBackForwardCache_BrowsingInstanceNotSwappedReasonNameE = hidden local_unnamed_addr constant [50 x i8] c"BackForwardCache.BrowsingInstanceNotSwappedReason\00", align 16
@_ZN3ukm8builders17HistoryNavigation58kBackForwardCache_BrowsingInstanceNotSwappedReasonNameHashE = hidden local_unnamed_addr constant i64 15224206336538316, align 8
@_ZN3ukm8builders17HistoryNavigation59kBackForwardCache_DisabledForRenderFrameHostReasonCountNameE = hidden local_unnamed_addr constant [55 x i8] c"BackForwardCache.DisabledForRenderFrameHostReasonCount\00", align 16
@_ZN3ukm8builders17HistoryNavigation63kBackForwardCache_DisabledForRenderFrameHostReasonCountNameHashE = hidden local_unnamed_addr constant i64 -3195481317854157115, align 8
@_ZN3ukm8builders17HistoryNavigation31kBackForwardCache_IsAmpPageNameE = hidden local_unnamed_addr constant [27 x i8] c"BackForwardCache.IsAmpPage\00", align 16
@_ZN3ukm8builders17HistoryNavigation35kBackForwardCache_IsAmpPageNameHashE = hidden local_unnamed_addr constant i64 4085141071540433903, align 8
@_ZN3ukm8builders17HistoryNavigation50kBackForwardCache_IsServedFromBackForwardCacheNameE = hidden local_unnamed_addr constant [46 x i8] c"BackForwardCache.IsServedFromBackForwardCache\00", align 16
@_ZN3ukm8builders17HistoryNavigation54kBackForwardCache_IsServedFromBackForwardCacheNameHashE = hidden local_unnamed_addr constant i64 4696927693770382140, align 8
@_ZN3ukm8builders17HistoryNavigation40kBackForwardCache_NotRestoredReasonsNameE = hidden local_unnamed_addr constant [36 x i8] c"BackForwardCache.NotRestoredReasons\00", align 16
@_ZN3ukm8builders17HistoryNavigation44kBackForwardCache_NotRestoredReasonsNameHashE = hidden local_unnamed_addr constant i64 1788460300115305264, align 8
@_ZN3ukm8builders17HistoryNavigation33kCrossOriginSubframesFeaturesNameE = hidden local_unnamed_addr constant [29 x i8] c"CrossOriginSubframesFeatures\00", align 16
@_ZN3ukm8builders17HistoryNavigation37kCrossOriginSubframesFeaturesNameHashE = hidden local_unnamed_addr constant i64 -2609527674850797468, align 8
@_ZN3ukm8builders17HistoryNavigation53kCumulativeShiftScoreAfterBackForwardCacheRestoreNameE = hidden local_unnamed_addr constant [49 x i8] c"CumulativeShiftScoreAfterBackForwardCacheRestore\00", align 16
@_ZN3ukm8builders17HistoryNavigation57kCumulativeShiftScoreAfterBackForwardCacheRestoreNameHashE = hidden local_unnamed_addr constant i64 4082107668430352853, align 8
@_ZN3ukm8builders17HistoryNavigation48kFirstInputDelayAfterBackForwardCacheRestoreNameE = hidden local_unnamed_addr constant [44 x i8] c"FirstInputDelayAfterBackForwardCacheRestore\00", align 16
@_ZN3ukm8builders17HistoryNavigation52kFirstInputDelayAfterBackForwardCacheRestoreNameHashE = hidden local_unnamed_addr constant i64 6232396995651525280, align 8
@_ZN3ukm8builders17HistoryNavigation59kFirstRequestAnimationFrameAfterBackForwardCacheRestoreNameE = hidden local_unnamed_addr constant [55 x i8] c"FirstRequestAnimationFrameAfterBackForwardCacheRestore\00", align 16
@_ZN3ukm8builders17HistoryNavigation63kFirstRequestAnimationFrameAfterBackForwardCacheRestoreNameHashE = hidden local_unnamed_addr constant i64 3321594754409068745, align 8
@_ZN3ukm8builders17HistoryNavigation67kLastCommittedCrossDocumentNavigationSourceIdForTheSameDocumentNameE = hidden local_unnamed_addr constant [63 x i8] c"LastCommittedCrossDocumentNavigationSourceIdForTheSameDocument\00", align 16
@_ZN3ukm8builders17HistoryNavigation71kLastCommittedCrossDocumentNavigationSourceIdForTheSameDocumentNameHashE = hidden local_unnamed_addr constant i64 -7496442293781257206, align 8
@_ZN3ukm8builders17HistoryNavigation44kLastCommittedSourceIdForTheSameDocumentNameE = hidden local_unnamed_addr constant [40 x i8] c"LastCommittedSourceIdForTheSameDocument\00", align 16
@_ZN3ukm8builders17HistoryNavigation48kLastCommittedSourceIdForTheSameDocumentNameHashE = hidden local_unnamed_addr constant i64 1687479106038719889, align 8
@_ZN3ukm8builders17HistoryNavigation22kMainFrameFeaturesNameE = hidden local_unnamed_addr constant [18 x i8] c"MainFrameFeatures\00", align 16
@_ZN3ukm8builders17HistoryNavigation26kMainFrameFeaturesNameHashE = hidden local_unnamed_addr constant i64 277837253456542220, align 8
@_ZN3ukm8builders17HistoryNavigation80kMaxCumulativeShiftScoreAfterBackForwardCacheRestore_SessionWindow_Gap1000msNameE = hidden local_unnamed_addr constant [76 x i8] c"MaxCumulativeShiftScoreAfterBackForwardCacheRestore.SessionWindow.Gap1000ms\00", align 16
@_ZN3ukm8builders17HistoryNavigation84kMaxCumulativeShiftScoreAfterBackForwardCacheRestore_SessionWindow_Gap1000msNameHashE = hidden local_unnamed_addr constant i64 -8112379848468011368, align 8
@_ZN3ukm8builders17HistoryNavigation90kMaxCumulativeShiftScoreAfterBackForwardCacheRestore_SessionWindow_Gap1000ms_Max5000msNameE = hidden local_unnamed_addr constant [86 x i8] c"MaxCumulativeShiftScoreAfterBackForwardCacheRestore.SessionWindow.Gap1000ms.Max5000ms\00", align 16
@_ZN3ukm8builders17HistoryNavigation94kMaxCumulativeShiftScoreAfterBackForwardCacheRestore_SessionWindow_Gap1000ms_Max5000msNameHashE = hidden local_unnamed_addr constant i64 -2362154082038118369, align 8
@_ZN3ukm8builders17HistoryNavigation98kMaxCumulativeShiftScoreAfterBackForwardCacheRestore_SessionWindowByInputs_Gap1000ms_Max5000msNameE = hidden local_unnamed_addr constant [94 x i8] c"MaxCumulativeShiftScoreAfterBackForwardCacheRestore.SessionWindowByInputs.Gap1000ms.Max5000ms\00", align 16
@_ZN3ukm8builders17HistoryNavigation102kMaxCumulativeShiftScoreAfterBackForwardCacheRestore_SessionWindowByInputs_Gap1000ms_Max5000msNameHashE = hidden local_unnamed_addr constant i64 5255191360372776599, align 8
@_ZN3ukm8builders17HistoryNavigation85kMaxCumulativeShiftScoreAfterBackForwardCacheRestore_SlidingWindow_Duration1000msNameE = hidden local_unnamed_addr constant [81 x i8] c"MaxCumulativeShiftScoreAfterBackForwardCacheRestore.SlidingWindow.Duration1000ms\00", align 16
@_ZN3ukm8builders17HistoryNavigation89kMaxCumulativeShiftScoreAfterBackForwardCacheRestore_SlidingWindow_Duration1000msNameHashE = hidden local_unnamed_addr constant i64 3814244528271931262, align 8
@_ZN3ukm8builders17HistoryNavigation84kMaxCumulativeShiftScoreAfterBackForwardCacheRestore_SlidingWindow_Duration300msNameE = hidden local_unnamed_addr constant [80 x i8] c"MaxCumulativeShiftScoreAfterBackForwardCacheRestore.SlidingWindow.Duration300ms\00", align 16
@_ZN3ukm8builders17HistoryNavigation88kMaxCumulativeShiftScoreAfterBackForwardCacheRestore_SlidingWindow_Duration300msNameHashE = hidden local_unnamed_addr constant i64 -2889292232177839629, align 8
@_ZN3ukm8builders17HistoryNavigation45kNavigatedToTheMostRecentEntryForDocumentNameE = hidden local_unnamed_addr constant [41 x i8] c"NavigatedToTheMostRecentEntryForDocument\00", align 16
@_ZN3ukm8builders17HistoryNavigation49kNavigatedToTheMostRecentEntryForDocumentNameHashE = hidden local_unnamed_addr constant i64 -1460760721778262271, align 8
@_ZN3ukm8builders17HistoryNavigation55kNavigationToFirstPaintAfterBackForwardCacheRestoreNameE = hidden local_unnamed_addr constant [51 x i8] c"NavigationToFirstPaintAfterBackForwardCacheRestore\00", align 16
@_ZN3ukm8builders17HistoryNavigation59kNavigationToFirstPaintAfterBackForwardCacheRestoreNameHashE = hidden local_unnamed_addr constant i64 8986422447916353406, align 8
@_ZN3ukm8builders17HistoryNavigation32kSameOriginSubframesFeaturesNameE = hidden local_unnamed_addr constant [28 x i8] c"SameOriginSubframesFeatures\00", align 16
@_ZN3ukm8builders17HistoryNavigation36kSameOriginSubframesFeaturesNameHashE = hidden local_unnamed_addr constant i64 3171771254759560933, align 8
@_ZN3ukm8builders17HistoryNavigation60kSecondRequestAnimationFrameAfterBackForwardCacheRestoreNameE = hidden local_unnamed_addr constant [56 x i8] c"SecondRequestAnimationFrameAfterBackForwardCacheRestore\00", align 16
@_ZN3ukm8builders17HistoryNavigation64kSecondRequestAnimationFrameAfterBackForwardCacheRestoreNameHashE = hidden local_unnamed_addr constant i64 78690090811193125, align 8
@_ZN3ukm8builders17HistoryNavigation59kThirdRequestAnimationFrameAfterBackForwardCacheRestoreNameE = hidden local_unnamed_addr constant [55 x i8] c"ThirdRequestAnimationFrameAfterBackForwardCacheRestore\00", align 16
@_ZN3ukm8builders17HistoryNavigation63kThirdRequestAnimationFrameAfterBackForwardCacheRestoreNameHashE = hidden local_unnamed_addr constant i64 2281099162348055178, align 8
@_ZN3ukm8builders17HistoryNavigation39kTimeSinceNavigatedAwayFromDocumentNameE = hidden local_unnamed_addr constant [35 x i8] c"TimeSinceNavigatedAwayFromDocument\00", align 16
@_ZN3ukm8builders17HistoryNavigation43kTimeSinceNavigatedAwayFromDocumentNameHashE = hidden local_unnamed_addr constant i64 -1052375548038460466, align 8
@_ZN3ukm8builders15Identifiability10kEntryNameE = hidden local_unnamed_addr constant [16 x i8] c"Identifiability\00", align 16
@_ZN3ukm8builders15Identifiability14kEntryNameHashE = hidden local_unnamed_addr constant i64 287024497009309687, align 8
@_ZTVN3ukm8builders15IdentifiabilityE = hidden unnamed_addr constant { [4 x i8*] } { [4 x i8*] [i8* null, i8* null, i8* bitcast (void (%"class.ukm::builders::Identifiability"*)* @_ZN3ukm8builders15IdentifiabilityD2Ev to i8*), i8* bitcast (void (%"class.ukm::builders::Identifiability"*)* @_ZN3ukm8builders15IdentifiabilityD0Ev to i8*)] }, align 8
@_ZN3ukm8builders15Identifiability25kGeneratorVersion_926NameE = hidden local_unnamed_addr constant [21 x i8] c"GeneratorVersion.926\00", align 16
@_ZN3ukm8builders15Identifiability29kGeneratorVersion_926NameHashE = hidden local_unnamed_addr constant i64 896956215682477568, align 8
@_ZN3ukm8builders15Identifiability24kStudyGeneration_626NameE = hidden local_unnamed_addr constant [20 x i8] c"StudyGeneration.626\00", align 16
@_ZN3ukm8builders15Identifiability28kStudyGeneration_626NameHashE = hidden local_unnamed_addr constant i64 -7265558706860759040, align 8
@_ZN3ukm8builders10InputEvent10kEntryNameE = hidden local_unnamed_addr constant [11 x i8] c"InputEvent\00", align 1
@_ZN3ukm8builders10InputEvent14kEntryNameHashE = hidden local_unnamed_addr constant i64 2784102704372436909, align 8
@_ZTVN3ukm8builders10InputEventE = hidden unnamed_addr constant { [4 x i8*] } { [4 x i8*] [i8* null, i8* null, i8* bitcast (void (%"class.ukm::builders::InputEvent"*)* @_ZN3ukm8builders10InputEventD2Ev to i8*), i8* bitcast (void (%"class.ukm::builders::InputEvent"*)* @_ZN3ukm8builders10InputEventD0Ev to i8*)] }, align 8
@_ZN3ukm8builders10InputEvent14kEventTypeNameE = hidden local_unnamed_addr constant [10 x i8] c"EventType\00", align 1
@_ZN3ukm8builders10InputEvent18kEventTypeNameHashE = hidden local_unnamed_addr constant i64 5446425777535537951, align 8
@_ZN3ukm8builders10InputEvent33kInteractiveTiming_InputDelayNameE = hidden local_unnamed_addr constant [29 x i8] c"InteractiveTiming.InputDelay\00", align 16
@_ZN3ukm8builders10InputEvent37kInteractiveTiming_InputDelayNameHashE = hidden local_unnamed_addr constant i64 4816242175536355714, align 8
@_ZN3ukm8builders10InputEvent52kInteractiveTiming_ProcessingFinishedToNextPaintNameE = hidden local_unnamed_addr constant [48 x i8] c"InteractiveTiming.ProcessingFinishedToNextPaint\00", align 16
@_ZN3ukm8builders10InputEvent56kInteractiveTiming_ProcessingFinishedToNextPaintNameHashE = hidden local_unnamed_addr constant i64 -9200502536449615870, align 8
@_ZN3ukm8builders10InputEvent37kInteractiveTiming_ProcessingTimeNameE = hidden local_unnamed_addr constant [33 x i8] c"InteractiveTiming.ProcessingTime\00", align 16
@_ZN3ukm8builders10InputEvent41kInteractiveTiming_ProcessingTimeNameHashE = hidden local_unnamed_addr constant i64 7806768776702689257, align 8
@_ZN3ukm8builders27InputMethod_NonCompliantApi10kEntryNameE = hidden local_unnamed_addr constant [28 x i8] c"InputMethod.NonCompliantApi\00", align 16
@_ZN3ukm8builders27InputMethod_NonCompliantApi14kEntryNameHashE = hidden local_unnamed_addr constant i64 -1656244375746019949, align 8
@_ZTVN3ukm8builders27InputMethod_NonCompliantApiE = hidden unnamed_addr constant { [4 x i8*] } { [4 x i8*] [i8* null, i8* null, i8* bitcast (void (%"class.ukm::builders::InputMethod_NonCompliantApi"*)* @_ZN3ukm8builders27InputMethod_NonCompliantApiD2Ev to i8*), i8* bitcast (void (%"class.ukm::builders::InputMethod_NonCompliantApi"*)* @_ZN3ukm8builders27InputMethod_NonCompliantApiD0Ev to i8*)] }, align 8
@_ZN3ukm8builders27InputMethod_NonCompliantApi26kNonCompliantOperationNameE = hidden local_unnamed_addr constant [22 x i8] c"NonCompliantOperation\00", align 16
@_ZN3ukm8builders27InputMethod_NonCompliantApi30kNonCompliantOperationNameHashE = hidden local_unnamed_addr constant i64 4174906312331753936, align 8
@_ZN3ukm8builders20InstalledRelatedApps10kEntryNameE = hidden local_unnamed_addr constant [21 x i8] c"InstalledRelatedApps\00", align 16
@_ZN3ukm8builders20InstalledRelatedApps14kEntryNameHashE = hidden local_unnamed_addr constant i64 1640774753589741944, align 8
@_ZTVN3ukm8builders20InstalledRelatedAppsE = hidden unnamed_addr constant { [4 x i8*] } { [4 x i8*] [i8* null, i8* null, i8* bitcast (void (%"class.ukm::builders::InstalledRelatedApps"*)* @_ZN3ukm8builders20InstalledRelatedAppsD2Ev to i8*), i8* bitcast (void (%"class.ukm::builders::InstalledRelatedApps"*)* @_ZN3ukm8builders20InstalledRelatedAppsD0Ev to i8*)] }, align 8
@_ZN3ukm8builders20InstalledRelatedApps11kCalledNameE = hidden local_unnamed_addr constant [7 x i8] c"Called\00", align 1
@_ZN3ukm8builders20InstalledRelatedApps15kCalledNameHashE = hidden local_unnamed_addr constant i64 3312022293166359599, align 8
@_ZN3ukm8builders38Intervention_DocumentWrite_ScriptBlock10kEntryNameE = hidden local_unnamed_addr constant [39 x i8] c"Intervention.DocumentWrite.ScriptBlock\00", align 16
@_ZN3ukm8builders38Intervention_DocumentWrite_ScriptBlock14kEntryNameHashE = hidden local_unnamed_addr constant i64 -8060356355851594513, align 8
@_ZTVN3ukm8builders38Intervention_DocumentWrite_ScriptBlockE = hidden unnamed_addr constant { [4 x i8*] } { [4 x i8*] [i8* null, i8* null, i8* bitcast (void (%"class.ukm::builders::Intervention_DocumentWrite_ScriptBlock"*)* @_ZN3ukm8builders38Intervention_DocumentWrite_ScriptBlockD2Ev to i8*), i8* bitcast (void (%"class.ukm::builders::Intervention_DocumentWrite_ScriptBlock"*)* @_ZN3ukm8builders38Intervention_DocumentWrite_ScriptBlockD0Ev to i8*)] }, align 8
@_ZN3ukm8builders38Intervention_DocumentWrite_ScriptBlock20kDisabled_ReloadNameE = hidden local_unnamed_addr constant [16 x i8] c"Disabled.Reload\00", align 16
@_ZN3ukm8builders38Intervention_DocumentWrite_ScriptBlock24kDisabled_ReloadNameHashE = hidden local_unnamed_addr constant i64 3949106941696904177, align 8
@_ZN3ukm8builders38Intervention_DocumentWrite_ScriptBlock63kParseTiming_ParseBlockedOnScriptExecutionFromDocumentWriteNameE = hidden local_unnamed_addr constant [59 x i8] c"ParseTiming.ParseBlockedOnScriptExecutionFromDocumentWrite\00", align 16
@_ZN3ukm8builders38Intervention_DocumentWrite_ScriptBlock67kParseTiming_ParseBlockedOnScriptExecutionFromDocumentWriteNameHashE = hidden local_unnamed_addr constant i64 -2439344440470859485, align 8
@_ZN3ukm8builders38Intervention_DocumentWrite_ScriptBlock58kParseTiming_ParseBlockedOnScriptLoadFromDocumentWriteNameE = hidden local_unnamed_addr constant [54 x i8] c"ParseTiming.ParseBlockedOnScriptLoadFromDocumentWrite\00", align 16
@_ZN3ukm8builders38Intervention_DocumentWrite_ScriptBlock62kParseTiming_ParseBlockedOnScriptLoadFromDocumentWriteNameHashE = hidden local_unnamed_addr constant i64 310867285454477562, align 8
@_ZN3ukm8builders27IOS_FindInPageSearchMatches10kEntryNameE = hidden local_unnamed_addr constant [28 x i8] c"IOS.FindInPageSearchMatches\00", align 16
@_ZN3ukm8builders27IOS_FindInPageSearchMatches14kEntryNameHashE = hidden local_unnamed_addr constant i64 3999691266874322037, align 8
@_ZTVN3ukm8builders27IOS_FindInPageSearchMatchesE = hidden unnamed_addr constant { [4 x i8*] } { [4 x i8*] [i8* null, i8* null, i8* bitcast (void (%"class.ukm::builders::IOS_FindInPageSearchMatches"*)* @_ZN3ukm8builders27IOS_FindInPageSearchMatchesD2Ev to i8*), i8* bitcast (void (%"class.ukm::builders::IOS_FindInPageSearchMatches"*)* @_ZN3ukm8builders27IOS_FindInPageSearchMatchesD0Ev to i8*)] }, align 8
@_ZN3ukm8builders27IOS_FindInPageSearchMatches15kHasMatchesNameE = hidden local_unnamed_addr constant [11 x i8] c"HasMatches\00", align 1
@_ZN3ukm8builders27IOS_FindInPageSearchMatches19kHasMatchesNameHashE = hidden local_unnamed_addr constant i64 7077976188191291377, align 8
@_ZN3ukm8builders20IOS_IsDefaultBrowser10kEntryNameE = hidden local_unnamed_addr constant [21 x i8] c"IOS.IsDefaultBrowser\00", align 16
@_ZN3ukm8builders20IOS_IsDefaultBrowser14kEntryNameHashE = hidden local_unnamed_addr constant i64 -9045092953798767209, align 8
@_ZTVN3ukm8builders20IOS_IsDefaultBrowserE = hidden unnamed_addr constant { [4 x i8*] } { [4 x i8*] [i8* null, i8* null, i8* bitcast (void (%"class.ukm::builders::IOS_IsDefaultBrowser"*)* @_ZN3ukm8builders20IOS_IsDefaultBrowserD2Ev to i8*), i8* bitcast (void (%"class.ukm::builders::IOS_IsDefaultBrowser"*)* @_ZN3ukm8builders20IOS_IsDefaultBrowserD0Ev to i8*)] }, align 8
@_ZN3ukm8builders20IOS_IsDefaultBrowser21kIsDefaultBrowserNameE = hidden local_unnamed_addr constant [17 x i8] c"IsDefaultBrowser\00", align 16
@_ZN3ukm8builders20IOS_IsDefaultBrowser25kIsDefaultBrowserNameHashE = hidden local_unnamed_addr constant i64 7467500293102567370, align 8
@_ZN3ukm8builders26IOS_PageAddedToReadingList10kEntryNameE = hidden local_unnamed_addr constant [27 x i8] c"IOS.PageAddedToReadingList\00", align 16
@_ZN3ukm8builders26IOS_PageAddedToReadingList14kEntryNameHashE = hidden local_unnamed_addr constant i64 -6606225867245675614, align 8
@_ZTVN3ukm8builders26IOS_PageAddedToReadingListE = hidden unnamed_addr constant { [4 x i8*] } { [4 x i8*] [i8* null, i8* null, i8* bitcast (void (%"class.ukm::builders::IOS_PageAddedToReadingList"*)* @_ZN3ukm8builders26IOS_PageAddedToReadingListD2Ev to i8*), i8* bitcast (void (%"class.ukm::builders::IOS_PageAddedToReadingList"*)* @_ZN3ukm8builders26IOS_PageAddedToReadingListD0Ev to i8*)] }, align 8
@_ZN3ukm8builders26IOS_PageAddedToReadingList22kAddedFromMessagesNameE = hidden local_unnamed_addr constant [18 x i8] c"AddedFromMessages\00", align 16
@_ZN3ukm8builders26IOS_PageAddedToReadingList26kAddedFromMessagesNameHashE = hidden local_unnamed_addr constant i64 1961682952303606781, align 8
@_ZN3ukm8builders19IOS_PageZoomChanged10kEntryNameE = hidden local_unnamed_addr constant [20 x i8] c"IOS.PageZoomChanged\00", align 16
@_ZN3ukm8builders19IOS_PageZoomChanged14kEntryNameHashE = hidden local_unnamed_addr constant i64 4631281682778806273, align 8
@_ZTVN3ukm8builders19IOS_PageZoomChangedE = hidden unnamed_addr constant { [4 x i8*] } { [4 x i8*] [i8* null, i8* null, i8* bitcast (void (%"class.ukm::builders::IOS_PageZoomChanged"*)* @_ZN3ukm8builders19IOS_PageZoomChangedD2Ev to i8*), i8* bitcast (void (%"class.ukm::builders::IOS_PageZoomChanged"*)* @_ZN3ukm8builders19IOS_PageZoomChangedD0Ev to i8*)] }, align 8
@_ZN3ukm8builders19IOS_PageZoomChanged24kContentSizeCategoryNameE = hidden local_unnamed_addr constant [20 x i8] c"ContentSizeCategory\00", align 16
@_ZN3ukm8builders19IOS_PageZoomChanged28kContentSizeCategoryNameHashE = hidden local_unnamed_addr constant i64 -1221819292678835268, align 8
@_ZN3ukm8builders19IOS_PageZoomChanged21kOverallZoomLevelNameE = hidden local_unnamed_addr constant [17 x i8] c"OverallZoomLevel\00", align 16
@_ZN3ukm8builders19IOS_PageZoomChanged25kOverallZoomLevelNameHashE = hidden local_unnamed_addr constant i64 2817337295596296593, align 8
@_ZN3ukm8builders19IOS_PageZoomChanged18kUserZoomLevelNameE = hidden local_unnamed_addr constant [14 x i8] c"UserZoomLevel\00", align 1
@_ZN3ukm8builders19IOS_PageZoomChanged22kUserZoomLevelNameHashE = hidden local_unnamed_addr constant i64 -4646137384120486660, align 8
@_ZN3ukm8builders16IOS_RendererGone10kEntryNameE = hidden local_unnamed_addr constant [17 x i8] c"IOS.RendererGone\00", align 16
@_ZN3ukm8builders16IOS_RendererGone14kEntryNameHashE = hidden local_unnamed_addr constant i64 -7733165642039262630, align 8
@_ZTVN3ukm8builders16IOS_RendererGoneE = hidden unnamed_addr constant { [4 x i8*] } { [4 x i8*] [i8* null, i8* null, i8* bitcast (void (%"class.ukm::builders::IOS_RendererGone"*)* @_ZN3ukm8builders16IOS_RendererGoneD2Ev to i8*), i8* bitcast (void (%"class.ukm::builders::IOS_RendererGone"*)* @_ZN3ukm8builders16IOS_RendererGoneD0Ev to i8*)] }, align 8
@_ZN3ukm8builders16IOS_RendererGone31kAliveRecentlyRendererCountNameE = hidden local_unnamed_addr constant [27 x i8] c"AliveRecentlyRendererCount\00", align 16
@_ZN3ukm8builders16IOS_RendererGone35kAliveRecentlyRendererCountNameHashE = hidden local_unnamed_addr constant i64 -3513297367713644004, align 8
@_ZN3ukm8builders16IOS_RendererGone23kAliveRendererCountNameE = hidden local_unnamed_addr constant [19 x i8] c"AliveRendererCount\00", align 16
@_ZN3ukm8builders16IOS_RendererGone27kAliveRendererCountNameHashE = hidden local_unnamed_addr constant i64 4517554268483005232, align 8
@_ZN3ukm8builders16IOS_RendererGone17kInForegroundNameE = hidden local_unnamed_addr constant [13 x i8] c"InForeground\00", align 1
@_ZN3ukm8builders16IOS_RendererGone21kInForegroundNameHashE = hidden local_unnamed_addr constant i64 -2359422670769985558, align 8
@_ZN3ukm8builders16IOS_RendererGone21kSawMemoryWarningNameE = hidden local_unnamed_addr constant [17 x i8] c"SawMemoryWarning\00", align 16
@_ZN3ukm8builders16IOS_RendererGone25kSawMemoryWarningNameHashE = hidden local_unnamed_addr constant i64 449336318584050538, align 8
@_ZN3ukm8builders47IOS_URLMismatchInLegacyAndSlimNavigationManager10kEntryNameE = hidden local_unnamed_addr constant [48 x i8] c"IOS.URLMismatchInLegacyAndSlimNavigationManager\00", align 16
@_ZN3ukm8builders47IOS_URLMismatchInLegacyAndSlimNavigationManager14kEntryNameHashE = hidden local_unnamed_addr constant i64 -273533559311071627, align 8
@_ZTVN3ukm8builders47IOS_URLMismatchInLegacyAndSlimNavigationManagerE = hidden unnamed_addr constant { [4 x i8*] } { [4 x i8*] [i8* null, i8* null, i8* bitcast (void (%"class.ukm::builders::IOS_URLMismatchInLegacyAndSlimNavigationManager"*)* @_ZN3ukm8builders47IOS_URLMismatchInLegacyAndSlimNavigationManagerD2Ev to i8*), i8* bitcast (void (%"class.ukm::builders::IOS_URLMismatchInLegacyAndSlimNavigationManager"*)* @_ZN3ukm8builders47IOS_URLMismatchInLegacyAndSlimNavigationManagerD0Ev to i8*)] }, align 8
@_ZN3ukm8builders47IOS_URLMismatchInLegacyAndSlimNavigationManager16kHasMismatchNameE = hidden local_unnamed_addr constant [12 x i8] c"HasMismatch\00", align 1
@_ZN3ukm8builders47IOS_URLMismatchInLegacyAndSlimNavigationManager20kHasMismatchNameHashE = hidden local_unnamed_addr constant i64 -4076799325396717595, align 8
@_ZN3ukm8builders27JavascriptFrameworkPageLoad10kEntryNameE = hidden local_unnamed_addr constant [28 x i8] c"JavascriptFrameworkPageLoad\00", align 16
@_ZN3ukm8builders27JavascriptFrameworkPageLoad14kEntryNameHashE = hidden local_unnamed_addr constant i64 7566859152267022983, align 8
@_ZTVN3ukm8builders27JavascriptFrameworkPageLoadE = hidden unnamed_addr constant { [4 x i8*] } { [4 x i8*] [i8* null, i8* null, i8* bitcast (void (%"class.ukm::builders::JavascriptFrameworkPageLoad"*)* @_ZN3ukm8builders27JavascriptFrameworkPageLoadD2Ev to i8*), i8* bitcast (void (%"class.ukm::builders::JavascriptFrameworkPageLoad"*)* @_ZN3ukm8builders27JavascriptFrameworkPageLoadD0Ev to i8*)] }, align 8
@_ZN3ukm8builders27JavascriptFrameworkPageLoad19kNextJSPageLoadNameE = hidden local_unnamed_addr constant [15 x i8] c"NextJSPageLoad\00", align 1
@_ZN3ukm8builders27JavascriptFrameworkPageLoad23kNextJSPageLoadNameHashE = hidden local_unnamed_addr constant i64 5823716105324724425, align 8
@_ZN3ukm8builders33Layout_DisplayCutout_StateChanged10kEntryNameE = hidden local_unnamed_addr constant [34 x i8] c"Layout.DisplayCutout.StateChanged\00", align 16
@_ZN3ukm8builders33Layout_DisplayCutout_StateChanged14kEntryNameHashE = hidden local_unnamed_addr constant i64 1389206047285929549, align 8
@_ZTVN3ukm8builders33Layout_DisplayCutout_StateChangedE = hidden unnamed_addr constant { [4 x i8*] } { [4 x i8*] [i8* null, i8* null, i8* bitcast (void (%"class.ukm::builders::Layout_DisplayCutout_StateChanged"*)* @_ZN3ukm8builders33Layout_DisplayCutout_StateChangedD2Ev to i8*), i8* bitcast (void (%"class.ukm::builders::Layout_DisplayCutout_StateChanged"*)* @_ZN3ukm8builders33Layout_DisplayCutout_StateChangedD0Ev to i8*)] }, align 8
@_ZN3ukm8builders33Layout_DisplayCutout_StateChanged16kIsMainFrameNameE = hidden local_unnamed_addr constant [12 x i8] c"IsMainFrame\00", align 1
@_ZN3ukm8builders33Layout_DisplayCutout_StateChanged20kIsMainFrameNameHashE = hidden local_unnamed_addr constant i64 7266626398784684486, align 8
@_ZN3ukm8builders33Layout_DisplayCutout_StateChanged21kSafeAreasPresentNameE = hidden local_unnamed_addr constant [17 x i8] c"SafeAreasPresent\00", align 16
@_ZN3ukm8builders33Layout_DisplayCutout_StateChanged25kSafeAreasPresentNameHashE = hidden local_unnamed_addr constant i64 -3664158593403221753, align 8
@_ZN3ukm8builders33Layout_DisplayCutout_StateChanged24kViewportFit_AppliedNameE = hidden local_unnamed_addr constant [20 x i8] c"ViewportFit.Applied\00", align 16
@_ZN3ukm8builders33Layout_DisplayCutout_StateChanged28kViewportFit_AppliedNameHashE = hidden local_unnamed_addr constant i64 3174683684013141815, align 8
@_ZN3ukm8builders33Layout_DisplayCutout_StateChanged30kViewportFit_IgnoredReasonNameE = hidden local_unnamed_addr constant [26 x i8] c"ViewportFit.IgnoredReason\00", align 16
@_ZN3ukm8builders33Layout_DisplayCutout_StateChanged34kViewportFit_IgnoredReasonNameHashE = hidden local_unnamed_addr constant i64 -7808213337105535679, align 8
@_ZN3ukm8builders33Layout_DisplayCutout_StateChanged25kViewportFit_SuppliedNameE = hidden local_unnamed_addr constant [21 x i8] c"ViewportFit.Supplied\00", align 16
@_ZN3ukm8builders33Layout_DisplayCutout_StateChanged29kViewportFit_SuppliedNameHashE = hidden local_unnamed_addr constant i64 3782339936139345310, align 8
@_ZN3ukm8builders9LiteVideo10kEntryNameE = hidden local_unnamed_addr constant [10 x i8] c"LiteVideo\00", align 1
@_ZN3ukm8builders9LiteVideo14kEntryNameHashE = hidden local_unnamed_addr constant i64 3752395495487792644, align 8
@_ZTVN3ukm8builders9LiteVideoE = hidden unnamed_addr constant { [4 x i8*] } { [4 x i8*] [i8* null, i8* null, i8* bitcast (void (%"class.ukm::builders::LiteVideo"*)* @_ZN3ukm8builders9LiteVideoD2Ev to i8*), i8* bitcast (void (%"class.ukm::builders::LiteVideo"*)* @_ZN3ukm8builders9LiteVideoD0Ev to i8*)] }, align 8
@_ZN3ukm8builders9LiteVideo20kBlocklistReasonNameE = hidden local_unnamed_addr constant [16 x i8] c"BlocklistReason\00", align 16
@_ZN3ukm8builders9LiteVideo24kBlocklistReasonNameHashE = hidden local_unnamed_addr constant i64 -450236461298637694, align 8
@_ZN3ukm8builders9LiteVideo21kThrottlingResultNameE = hidden local_unnamed_addr constant [17 x i8] c"ThrottlingResult\00", align 16
@_ZN3ukm8builders9LiteVideo25kThrottlingResultNameHashE = hidden local_unnamed_addr constant i64 -3958203392011785889, align 8
@_ZN3ukm8builders9LiteVideo28kThrottlingStartDecisionNameE = hidden local_unnamed_addr constant [24 x i8] c"ThrottlingStartDecision\00", align 16
@_ZN3ukm8builders9LiteVideo32kThrottlingStartDecisionNameHashE = hidden local_unnamed_addr constant i64 1058583389352749283, align 8
@_ZN3ukm8builders29LoadCountsPerTopLevelDocument10kEntryNameE = hidden local_unnamed_addr constant [30 x i8] c"LoadCountsPerTopLevelDocument\00", align 16
@_ZN3ukm8builders29LoadCountsPerTopLevelDocument14kEntryNameHashE = hidden local_unnamed_addr constant i64 2459509573580782733, align 8
@_ZTVN3ukm8builders29LoadCountsPerTopLevelDocumentE = hidden unnamed_addr constant { [4 x i8*] } { [4 x i8*] [i8* null, i8* null, i8* bitcast (void (%"class.ukm::builders::LoadCountsPerTopLevelDocument"*)* @_ZN3ukm8builders29LoadCountsPerTopLevelDocumentD2Ev to i8*), i8* bitcast (void (%"class.ukm::builders::LoadCountsPerTopLevelDocument"*)* @_ZN3ukm8builders29LoadCountsPerTopLevelDocumentD0Ev to i8*)] }, align 8
@_ZN3ukm8builders29LoadCountsPerTopLevelDocument41kNumMainFrameSameDocumentLoads_HiddenNameE = hidden local_unnamed_addr constant [37 x i8] c"NumMainFrameSameDocumentLoads_Hidden\00", align 16
@_ZN3ukm8builders29LoadCountsPerTopLevelDocument45kNumMainFrameSameDocumentLoads_HiddenNameHashE = hidden local_unnamed_addr constant i64 -2138363647889781700, align 8
@_ZN3ukm8builders29LoadCountsPerTopLevelDocument42kNumMainFrameSameDocumentLoads_VisibleNameE = hidden local_unnamed_addr constant [38 x i8] c"NumMainFrameSameDocumentLoads_Visible\00", align 16
@_ZN3ukm8builders29LoadCountsPerTopLevelDocument46kNumMainFrameSameDocumentLoads_VisibleNameHashE = hidden local_unnamed_addr constant i64 -135008512755525648, align 8
@_ZN3ukm8builders29LoadCountsPerTopLevelDocument45kNumSubFrameDifferentDocumentLoads_HiddenNameE = hidden local_unnamed_addr constant [41 x i8] c"NumSubFrameDifferentDocumentLoads_Hidden\00", align 16
@_ZN3ukm8builders29LoadCountsPerTopLevelDocument49kNumSubFrameDifferentDocumentLoads_HiddenNameHashE = hidden local_unnamed_addr constant i64 -3714907352167372174, align 8
@_ZN3ukm8builders29LoadCountsPerTopLevelDocument46kNumSubFrameDifferentDocumentLoads_VisibleNameE = hidden local_unnamed_addr constant [42 x i8] c"NumSubFrameDifferentDocumentLoads_Visible\00", align 16
@_ZN3ukm8builders29LoadCountsPerTopLevelDocument50kNumSubFrameDifferentDocumentLoads_VisibleNameHashE = hidden local_unnamed_addr constant i64 3665858183442379349, align 8
@_ZN3ukm8builders29LoadCountsPerTopLevelDocument40kNumSubFrameSameDocumentLoads_HiddenNameE = hidden local_unnamed_addr constant [36 x i8] c"NumSubFrameSameDocumentLoads_Hidden\00", align 16
@_ZN3ukm8builders29LoadCountsPerTopLevelDocument44kNumSubFrameSameDocumentLoads_HiddenNameHashE = hidden local_unnamed_addr constant i64 1725595575573050, align 8
@_ZN3ukm8builders29LoadCountsPerTopLevelDocument41kNumSubFrameSameDocumentLoads_VisibleNameE = hidden local_unnamed_addr constant [37 x i8] c"NumSubFrameSameDocumentLoads_Visible\00", align 16
@_ZN3ukm8builders29LoadCountsPerTopLevelDocument45kNumSubFrameSameDocumentLoads_VisibleNameHashE = hidden local_unnamed_addr constant i64 6499928911562111241, align 8
@_ZN3ukm8builders16LoadingPredictor10kEntryNameE = hidden local_unnamed_addr constant [17 x i8] c"LoadingPredictor\00", align 16
@_ZN3ukm8builders16LoadingPredictor14kEntryNameHashE = hidden local_unnamed_addr constant i64 -1266578128021209993, align 8
@_ZTVN3ukm8builders16LoadingPredictorE = hidden unnamed_addr constant { [4 x i8*] } { [4 x i8*] [i8* null, i8* null, i8* bitcast (void (%"class.ukm::builders::LoadingPredictor"*)* @_ZN3ukm8builders16LoadingPredictorD2Ev to i8*), i8* bitcast (void (%"class.ukm::builders::LoadingPredictor"*)* @_ZN3ukm8builders16LoadingPredictorD0Ev to i8*)] }, align 8
@_ZN3ukm8builders16LoadingPredictor49kCorrectSubresourceOriginPreconnectsInitiatedNameE = hidden local_unnamed_addr constant [45 x i8] c"CorrectSubresourceOriginPreconnectsInitiated\00", align 16
@_ZN3ukm8builders16LoadingPredictor53kCorrectSubresourceOriginPreconnectsInitiatedNameHashE = hidden local_unnamed_addr constant i64 -7427897888146135507, align 8
@_ZN3ukm8builders16LoadingPredictor42kCorrectSubresourcePrefetchesInitiatedNameE = hidden local_unnamed_addr constant [38 x i8] c"CorrectSubresourcePrefetchesInitiated\00", align 16
@_ZN3ukm8builders16LoadingPredictor46kCorrectSubresourcePrefetchesInitiatedNameHashE = hidden local_unnamed_addr constant i64 7523816529585587032, align 8
@_ZN3ukm8builders16LoadingPredictor45kLocalPredictionCorrectlyPredictedOriginsNameE = hidden local_unnamed_addr constant [41 x i8] c"LocalPredictionCorrectlyPredictedOrigins\00", align 16
@_ZN3ukm8builders16LoadingPredictor49kLocalPredictionCorrectlyPredictedOriginsNameHashE = hidden local_unnamed_addr constant i64 -6556351423108848682, align 8
@_ZN3ukm8builders16LoadingPredictor27kLocalPredictionOriginsNameE = hidden local_unnamed_addr constant [23 x i8] c"LocalPredictionOrigins\00", align 16
@_ZN3ukm8builders16LoadingPredictor31kLocalPredictionOriginsNameHashE = hidden local_unnamed_addr constant i64 4632708717020315528, align 8
@_ZN3ukm8builders16LoadingPredictor55kNavigationStartToFirstSubresourcePrefetchInitiatedNameE = hidden local_unnamed_addr constant [51 x i8] c"NavigationStartToFirstSubresourcePrefetchInitiated\00", align 16
@_ZN3ukm8builders16LoadingPredictor59kNavigationStartToFirstSubresourcePrefetchInitiatedNameHashE = hidden local_unnamed_addr constant i64 -4545990411969251710, align 8
@_ZN3ukm8builders16LoadingPredictor38kNavigationStartToNavigationCommitNameE = hidden local_unnamed_addr constant [34 x i8] c"NavigationStartToNavigationCommit\00", align 16
@_ZN3ukm8builders16LoadingPredictor42kNavigationStartToNavigationCommitNameHashE = hidden local_unnamed_addr constant i64 3398767228309508687, align 8
@_ZN3ukm8builders16LoadingPredictor56kNavigationStartToOptimizationGuidePredictionArrivedNameE = hidden local_unnamed_addr constant [52 x i8] c"NavigationStartToOptimizationGuidePredictionArrived\00", align 16
@_ZN3ukm8builders16LoadingPredictor60kNavigationStartToOptimizationGuidePredictionArrivedNameHashE = hidden local_unnamed_addr constant i64 -7370846435851585134, align 8
@_ZN3ukm8builders16LoadingPredictor57kOptimizationGuidePredictionCorrectlyPredictedOriginsNameE = hidden local_unnamed_addr constant [53 x i8] c"OptimizationGuidePredictionCorrectlyPredictedOrigins\00", align 16
@_ZN3ukm8builders16LoadingPredictor61kOptimizationGuidePredictionCorrectlyPredictedOriginsNameHashE = hidden local_unnamed_addr constant i64 -4762444435477504445, align 8
@_ZN3ukm8builders16LoadingPredictor62kOptimizationGuidePredictionCorrectlyPredictedSubresourcesNameE = hidden local_unnamed_addr constant [58 x i8] c"OptimizationGuidePredictionCorrectlyPredictedSubresources\00", align 16
@_ZN3ukm8builders16LoadingPredictor66kOptimizationGuidePredictionCorrectlyPredictedSubresourcesNameHashE = hidden local_unnamed_addr constant i64 -8068239199329424469, align 8
@_ZN3ukm8builders16LoadingPredictor40kOptimizationGuidePredictionDecisionNameE = hidden local_unnamed_addr constant [36 x i8] c"OptimizationGuidePredictionDecision\00", align 16
@_ZN3ukm8builders16LoadingPredictor44kOptimizationGuidePredictionDecisionNameHashE = hidden local_unnamed_addr constant i64 -3109530226196708770, align 8
@_ZN3ukm8builders16LoadingPredictor39kOptimizationGuidePredictionOriginsNameE = hidden local_unnamed_addr constant [35 x i8] c"OptimizationGuidePredictionOrigins\00", align 16
@_ZN3ukm8builders16LoadingPredictor43kOptimizationGuidePredictionOriginsNameHashE = hidden local_unnamed_addr constant i64 -2622279300901699593, align 8
@_ZN3ukm8builders16LoadingPredictor44kOptimizationGuidePredictionSubresourcesNameE = hidden local_unnamed_addr constant [40 x i8] c"OptimizationGuidePredictionSubresources\00", align 16
@_ZN3ukm8builders16LoadingPredictor48kOptimizationGuidePredictionSubresourcesNameHashE = hidden local_unnamed_addr constant i64 -2077319125898193724, align 8
@_ZN3ukm8builders16LoadingPredictor42kSubresourceOriginPreconnectsInitiatedNameE = hidden local_unnamed_addr constant [38 x i8] c"SubresourceOriginPreconnectsInitiated\00", align 16
@_ZN3ukm8builders16LoadingPredictor46kSubresourceOriginPreconnectsInitiatedNameHashE = hidden local_unnamed_addr constant i64 207068642963595880, align 8
@_ZN3ukm8builders16LoadingPredictor35kSubresourcePrefetchesInitiatedNameE = hidden local_unnamed_addr constant [31 x i8] c"SubresourcePrefetchesInitiated\00", align 16
@_ZN3ukm8builders16LoadingPredictor39kSubresourcePrefetchesInitiatedNameHashE = hidden local_unnamed_addr constant i64 -9216673082076669597, align 8
@_ZN3ukm8builders20LocalNetworkRequests10kEntryNameE = hidden local_unnamed_addr constant [21 x i8] c"LocalNetworkRequests\00", align 16
@_ZN3ukm8builders20LocalNetworkRequests14kEntryNameHashE = hidden local_unnamed_addr constant i64 5563841616204153427, align 8
@_ZTVN3ukm8builders20LocalNetworkRequestsE = hidden unnamed_addr constant { [4 x i8*] } { [4 x i8*] [i8* null, i8* null, i8* bitcast (void (%"class.ukm::builders::LocalNetworkRequests"*)* @_ZN3ukm8builders20LocalNetworkRequestsD2Ev to i8*), i8* bitcast (void (%"class.ukm::builders::LocalNetworkRequests"*)* @_ZN3ukm8builders20LocalNetworkRequestsD0Ev to i8*)] }, align 8
@_ZN3ukm8builders20LocalNetworkRequests17kCount_FailedNameE = hidden local_unnamed_addr constant [13 x i8] c"Count.Failed\00", align 1
@_ZN3ukm8builders20LocalNetworkRequests21kCount_FailedNameHashE = hidden local_unnamed_addr constant i64 4332170555344799116, align 8
@_ZN3ukm8builders20LocalNetworkRequests21kCount_SuccessfulNameE = hidden local_unnamed_addr constant [17 x i8] c"Count.Successful\00", align 16
@_ZN3ukm8builders20LocalNetworkRequests25kCount_SuccessfulNameHashE = hidden local_unnamed_addr constant i64 7366317784072625071, align 8
@_ZN3ukm8builders20LocalNetworkRequests13kPortTypeNameE = hidden local_unnamed_addr constant [9 x i8] c"PortType\00", align 1
@_ZN3ukm8builders20LocalNetworkRequests17kPortTypeNameHashE = hidden local_unnamed_addr constant i64 8660532902729963646, align 8
@_ZN3ukm8builders20LocalNetworkRequests17kResourceTypeNameE = hidden local_unnamed_addr constant [13 x i8] c"ResourceType\00", align 1
@_ZN3ukm8builders20LocalNetworkRequests21kResourceTypeNameHashE = hidden local_unnamed_addr constant i64 -4997139087611094522, align 8
@_ZN3ukm8builders14LoginDetection10kEntryNameE = hidden local_unnamed_addr constant [15 x i8] c"LoginDetection\00", align 1
@_ZN3ukm8builders14LoginDetection14kEntryNameHashE = hidden local_unnamed_addr constant i64 -8911964984689916483, align 8
@_ZTVN3ukm8builders14LoginDetectionE = hidden unnamed_addr constant { [4 x i8*] } { [4 x i8*] [i8* null, i8* null, i8* bitcast (void (%"class.ukm::builders::LoginDetection"*)* @_ZN3ukm8builders14LoginDetectionD2Ev to i8*), i8* bitcast (void (%"class.ukm::builders::LoginDetection"*)* @_ZN3ukm8builders14LoginDetectionD0Ev to i8*)] }, align 8
@_ZN3ukm8builders14LoginDetection19kPage_LoginTypeNameE = hidden local_unnamed_addr constant [15 x i8] c"Page.LoginType\00", align 1
@_ZN3ukm8builders14LoginDetection23kPage_LoginTypeNameHashE = hidden local_unnamed_addr constant i64 -7597028838640939580, align 8
@_ZN3ukm8builders33LookalikeUrl_NavigationSuggestion10kEntryNameE = hidden local_unnamed_addr constant [34 x i8] c"LookalikeUrl.NavigationSuggestion\00", align 16
@_ZN3ukm8builders33LookalikeUrl_NavigationSuggestion14kEntryNameHashE = hidden local_unnamed_addr constant i64 6455694443766360259, align 8
@_ZTVN3ukm8builders33LookalikeUrl_NavigationSuggestionE = hidden unnamed_addr constant { [4 x i8*] } { [4 x i8*] [i8* null, i8* null, i8* bitcast (void (%"class.ukm::builders::LookalikeUrl_NavigationSuggestion"*)* @_ZN3ukm8builders33LookalikeUrl_NavigationSuggestionD2Ev to i8*), i8* bitcast (void (%"class.ukm::builders::LookalikeUrl_NavigationSuggestion"*)* @_ZN3ukm8builders33LookalikeUrl_NavigationSuggestionD0Ev to i8*)] }, align 8
@_ZN3ukm8builders33LookalikeUrl_NavigationSuggestion14kMatchTypeNameE = hidden local_unnamed_addr constant [10 x i8] c"MatchType\00", align 1
@_ZN3ukm8builders33LookalikeUrl_NavigationSuggestion18kMatchTypeNameHashE = hidden local_unnamed_addr constant i64 -7265048508063063705, align 8
@_ZN3ukm8builders33LookalikeUrl_NavigationSuggestion26kTriggeredByInitialUrlNameE = hidden local_unnamed_addr constant [22 x i8] c"TriggeredByInitialUrl\00", align 16
@_ZN3ukm8builders33LookalikeUrl_NavigationSuggestion30kTriggeredByInitialUrlNameHashE = hidden local_unnamed_addr constant i64 -7007770822355133978, align 8
@_ZN3ukm8builders33LookalikeUrl_NavigationSuggestion15kUserActionNameE = hidden local_unnamed_addr constant [11 x i8] c"UserAction\00", align 1
@_ZN3ukm8builders33LookalikeUrl_NavigationSuggestion19kUserActionNameHashE = hidden local_unnamed_addr constant i64 -7015036799894001729, align 8
@_ZN3ukm8builders19MainFrameNavigation10kEntryNameE = hidden local_unnamed_addr constant [20 x i8] c"MainFrameNavigation\00", align 16
@_ZN3ukm8builders19MainFrameNavigation14kEntryNameHashE = hidden local_unnamed_addr constant i64 -918622398028885683, align 8
@_ZTVN3ukm8builders19MainFrameNavigationE = hidden unnamed_addr constant { [4 x i8*] } { [4 x i8*] [i8* null, i8* null, i8* bitcast (void (%"class.ukm::builders::MainFrameNavigation"*)* @_ZN3ukm8builders19MainFrameNavigationD2Ev to i8*), i8* bitcast (void (%"class.ukm::builders::MainFrameNavigation"*)* @_ZN3ukm8builders19MainFrameNavigationD0Ev to i8*)] }, align 8
@_ZN3ukm8builders19MainFrameNavigation14kDidCommitNameE = hidden local_unnamed_addr constant [10 x i8] c"DidCommit\00", align 1
@_ZN3ukm8builders19MainFrameNavigation18kDidCommitNameHashE = hidden local_unnamed_addr constant i64 -3356440681081020386, align 8
@_ZN3ukm8builders22Media_Autoplay_Attempt10kEntryNameE = hidden local_unnamed_addr constant [23 x i8] c"Media.Autoplay.Attempt\00", align 16
@_ZN3ukm8builders22Media_Autoplay_Attempt14kEntryNameHashE = hidden local_unnamed_addr constant i64 -3089243070703168839, align 8
@_ZTVN3ukm8builders22Media_Autoplay_AttemptE = hidden unnamed_addr constant { [4 x i8*] } { [4 x i8*] [i8* null, i8* null, i8* bitcast (void (%"class.ukm::builders::Media_Autoplay_Attempt"*)* @_ZN3ukm8builders22Media_Autoplay_AttemptD2Ev to i8*), i8* bitcast (void (%"class.ukm::builders::Media_Autoplay_Attempt"*)* @_ZN3ukm8builders22Media_Autoplay_AttemptD0Ev to i8*)] }, align 8
@_ZN3ukm8builders22Media_Autoplay_Attempt15kAudioTrackNameE = hidden local_unnamed_addr constant [11 x i8] c"AudioTrack\00", align 1
@_ZN3ukm8builders22Media_Autoplay_Attempt19kAudioTrackNameHashE = hidden local_unnamed_addr constant i64 -6705349843200939990, align 8
@_ZN3ukm8builders22Media_Autoplay_Attempt24kHighMediaEngagementNameE = hidden local_unnamed_addr constant [20 x i8] c"HighMediaEngagement\00", align 16
@_ZN3ukm8builders22Media_Autoplay_Attempt28kHighMediaEngagementNameHashE = hidden local_unnamed_addr constant i64 7387526769811817505, align 8
@_ZN3ukm8builders22Media_Autoplay_Attempt10kMutedNameE = hidden local_unnamed_addr constant [6 x i8] c"Muted\00", align 1
@_ZN3ukm8builders22Media_Autoplay_Attempt14kMutedNameHashE = hidden local_unnamed_addr constant i64 8116925261070264013, align 8
@_ZN3ukm8builders22Media_Autoplay_Attempt11kSourceNameE = hidden local_unnamed_addr constant [7 x i8] c"Source\00", align 1
@_ZN3ukm8builders22Media_Autoplay_Attempt15kSourceNameHashE = hidden local_unnamed_addr constant i64 -928940189757711412, align 8
@_ZN3ukm8builders22Media_Autoplay_Attempt24kUserGestureRequiredNameE = hidden local_unnamed_addr constant [20 x i8] c"UserGestureRequired\00", align 16
@_ZN3ukm8builders22Media_Autoplay_Attempt28kUserGestureRequiredNameHashE = hidden local_unnamed_addr constant i64 -23554150635596784, align 8
@_ZN3ukm8builders22Media_Autoplay_Attempt22kUserGestureStatusNameE = hidden local_unnamed_addr constant [18 x i8] c"UserGestureStatus\00", align 16
@_ZN3ukm8builders22Media_Autoplay_Attempt26kUserGestureStatusNameHashE = hidden local_unnamed_addr constant i64 -1328024993513557222, align 8
@_ZN3ukm8builders22Media_Autoplay_Attempt15kVideoTrackNameE = hidden local_unnamed_addr constant [11 x i8] c"VideoTrack\00", align 1
@_ZN3ukm8builders22Media_Autoplay_Attempt19kVideoTrackNameHashE = hidden local_unnamed_addr constant i64 4366426770158320744, align 8
@_ZN3ukm8builders27Media_Autoplay_AudioContext10kEntryNameE = hidden local_unnamed_addr constant [28 x i8] c"Media.Autoplay.AudioContext\00", align 16
@_ZN3ukm8builders27Media_Autoplay_AudioContext14kEntryNameHashE = hidden local_unnamed_addr constant i64 2039378813737092278, align 8
@_ZTVN3ukm8builders27Media_Autoplay_AudioContextE = hidden unnamed_addr constant { [4 x i8*] } { [4 x i8*] [i8* null, i8* null, i8* bitcast (void (%"class.ukm::builders::Media_Autoplay_AudioContext"*)* @_ZN3ukm8builders27Media_Autoplay_AudioContextD2Ev to i8*), i8* bitcast (void (%"class.ukm::builders::Media_Autoplay_AudioContext"*)* @_ZN3ukm8builders27Media_Autoplay_AudioContextD0Ev to i8*)] }, align 8
@_ZN3ukm8builders27Media_Autoplay_AudioContext22kSourceNodeStartedNameE = hidden local_unnamed_addr constant [18 x i8] c"SourceNodeStarted\00", align 16
@_ZN3ukm8builders27Media_Autoplay_AudioContext26kSourceNodeStartedNameHashE = hidden local_unnamed_addr constant i64 -7943562630226843404, align 8
@_ZN3ukm8builders27Media_Autoplay_AudioContext11kStatusNameE = hidden local_unnamed_addr constant [7 x i8] c"Status\00", align 1
@_ZN3ukm8builders27Media_Autoplay_AudioContext15kStatusNameHashE = hidden local_unnamed_addr constant i64 -1417603893889880363, align 8
@_ZN3ukm8builders27Media_Autoplay_AudioContext15kUnlockTypeNameE = hidden local_unnamed_addr constant [11 x i8] c"UnlockType\00", align 1
@_ZN3ukm8builders27Media_Autoplay_AudioContext19kUnlockTypeNameHashE = hidden local_unnamed_addr constant i64 -6928997731922843387, align 8
@_ZN3ukm8builders33Media_Autoplay_Muted_UnmuteAction10kEntryNameE = hidden local_unnamed_addr constant [34 x i8] c"Media.Autoplay.Muted.UnmuteAction\00", align 16
@_ZN3ukm8builders33Media_Autoplay_Muted_UnmuteAction14kEntryNameHashE = hidden local_unnamed_addr constant i64 3015822386723746523, align 8
@_ZTVN3ukm8builders33Media_Autoplay_Muted_UnmuteActionE = hidden unnamed_addr constant { [4 x i8*] } { [4 x i8*] [i8* null, i8* null, i8* bitcast (void (%"class.ukm::builders::Media_Autoplay_Muted_UnmuteAction"*)* @_ZN3ukm8builders33Media_Autoplay_Muted_UnmuteActionD2Ev to i8*), i8* bitcast (void (%"class.ukm::builders::Media_Autoplay_Muted_UnmuteAction"*)* @_ZN3ukm8builders33Media_Autoplay_Muted_UnmuteActionD0Ev to i8*)] }, align 8
@_ZN3ukm8builders33Media_Autoplay_Muted_UnmuteAction11kResultNameE = hidden local_unnamed_addr constant [7 x i8] c"Result\00", align 1
@_ZN3ukm8builders33Media_Autoplay_Muted_UnmuteAction15kResultNameHashE = hidden local_unnamed_addr constant i64 -8148592787988159167, align 8
@_ZN3ukm8builders33Media_Autoplay_Muted_UnmuteAction11kSourceNameE = hidden local_unnamed_addr constant [7 x i8] c"Source\00", align 1
@_ZN3ukm8builders33Media_Autoplay_Muted_UnmuteAction15kSourceNameHashE = hidden local_unnamed_addr constant i64 -928940189757711412, align 8
@_ZN3ukm8builders19Media_BasicPlayback10kEntryNameE = hidden local_unnamed_addr constant [20 x i8] c"Media.BasicPlayback\00", align 16
@_ZN3ukm8builders19Media_BasicPlayback14kEntryNameHashE = hidden local_unnamed_addr constant i64 8416658001170131658, align 8
@_ZTVN3ukm8builders19Media_BasicPlaybackE = hidden unnamed_addr constant { [4 x i8*] } { [4 x i8*] [i8* null, i8* null, i8* bitcast (void (%"class.ukm::builders::Media_BasicPlayback"*)* @_ZN3ukm8builders19Media_BasicPlaybackD2Ev to i8*), i8* bitcast (void (%"class.ukm::builders::Media_BasicPlayback"*)* @_ZN3ukm8builders19Media_BasicPlaybackD0Ev to i8*)] }, align 8
@_ZN3ukm8builders19Media_BasicPlayback15kAudioCodecNameE = hidden local_unnamed_addr constant [11 x i8] c"AudioCodec\00", align 1
@_ZN3ukm8builders19Media_BasicPlayback19kAudioCodecNameHashE = hidden local_unnamed_addr constant i64 1465592132233517979, align 8
@_ZN3ukm8builders19Media_BasicPlayback22kAudioCodecProfileNameE = hidden local_unnamed_addr constant [18 x i8] c"AudioCodecProfile\00", align 16
@_ZN3ukm8builders19Media_BasicPlayback26kAudioCodecProfileNameHashE = hidden local_unnamed_addr constant i64 -2929631274817699308, align 8
@_ZN3ukm8builders19Media_BasicPlayback21kAudioDecoderNameNameE = hidden local_unnamed_addr constant [17 x i8] c"AudioDecoderName\00", align 16
@_ZN3ukm8builders19Media_BasicPlayback25kAudioDecoderNameNameHashE = hidden local_unnamed_addr constant i64 7400968670179001125, align 8
@_ZN3ukm8builders19Media_BasicPlayback26kAudioEncryptionSchemeNameE = hidden local_unnamed_addr constant [22 x i8] c"AudioEncryptionScheme\00", align 16
@_ZN3ukm8builders19Media_BasicPlayback30kAudioEncryptionSchemeNameHashE = hidden local_unnamed_addr constant i64 -9167351353953922401, align 8
@_ZN3ukm8builders19Media_BasicPlayback22kAutoplayInitiatedNameE = hidden local_unnamed_addr constant [18 x i8] c"AutoplayInitiated\00", align 16
@_ZN3ukm8builders19Media_BasicPlayback26kAutoplayInitiatedNameHashE = hidden local_unnamed_addr constant i64 5475295434443958193, align 8
@_ZN3ukm8builders19Media_BasicPlayback28kCompletedRebuffersCountNameE = hidden local_unnamed_addr constant [24 x i8] c"CompletedRebuffersCount\00", align 16
@_ZN3ukm8builders19Media_BasicPlayback32kCompletedRebuffersCountNameHashE = hidden local_unnamed_addr constant i64 -7044875935678694765, align 8
@_ZN3ukm8builders19Media_BasicPlayback31kCompletedRebuffersDurationNameE = hidden local_unnamed_addr constant [27 x i8] c"CompletedRebuffersDuration\00", align 16
@_ZN3ukm8builders19Media_BasicPlayback35kCompletedRebuffersDurationNameHashE = hidden local_unnamed_addr constant i64 7260457768772866332, align 8
@_ZN3ukm8builders19Media_BasicPlayback13kDurationNameE = hidden local_unnamed_addr constant [9 x i8] c"Duration\00", align 1
@_ZN3ukm8builders19Media_BasicPlayback17kDurationNameHashE = hidden local_unnamed_addr constant i64 -2293129492661939053, align 8
@_ZN3ukm8builders19Media_BasicPlayback13kHasAudioNameE = hidden local_unnamed_addr constant [9 x i8] c"HasAudio\00", align 1
@_ZN3ukm8builders19Media_BasicPlayback17kHasAudioNameHashE = hidden local_unnamed_addr constant i64 -7338747157668480936, align 8
@_ZN3ukm8builders19Media_BasicPlayback13kHasVideoNameE = hidden local_unnamed_addr constant [9 x i8] c"HasVideo\00", align 1
@_ZN3ukm8builders19Media_BasicPlayback17kHasVideoNameHashE = hidden local_unnamed_addr constant i64 -4278339220731645575, align 8
@_ZN3ukm8builders19Media_BasicPlayback17kIsBackgroundNameE = hidden local_unnamed_addr constant [13 x i8] c"IsBackground\00", align 1
@_ZN3ukm8builders19Media_BasicPlayback21kIsBackgroundNameHashE = hidden local_unnamed_addr constant i64 5213574143647769765, align 8
@_ZN3ukm8builders19Media_BasicPlayback10kIsEMENameE = hidden local_unnamed_addr constant [6 x i8] c"IsEME\00", align 1
@_ZN3ukm8builders19Media_BasicPlayback14kIsEMENameHashE = hidden local_unnamed_addr constant i64 -8843195487093934755, align 8
@_ZN3ukm8builders19Media_BasicPlayback10kIsMSENameE = hidden local_unnamed_addr constant [6 x i8] c"IsMSE\00", align 1
@_ZN3ukm8builders19Media_BasicPlayback14kIsMSENameHashE = hidden local_unnamed_addr constant i64 1649159027333078910, align 8
@_ZN3ukm8builders19Media_BasicPlayback12kIsMutedNameE = hidden local_unnamed_addr constant [8 x i8] c"IsMuted\00", align 1
@_ZN3ukm8builders19Media_BasicPlayback16kIsMutedNameHashE = hidden local_unnamed_addr constant i64 -2136648277644203997, align 8
@_ZN3ukm8builders19Media_BasicPlayback15kIsTopFrameNameE = hidden local_unnamed_addr constant [11 x i8] c"IsTopFrame\00", align 1
@_ZN3ukm8builders19Media_BasicPlayback19kIsTopFrameNameHashE = hidden local_unnamed_addr constant i64 -6369837800898122785, align 8
@_ZN3ukm8builders19Media_BasicPlayback23kLastPipelineStatusNameE = hidden local_unnamed_addr constant [19 x i8] c"LastPipelineStatus\00", align 16
@_ZN3ukm8builders19Media_BasicPlayback27kLastPipelineStatusNameHashE = hidden local_unnamed_addr constant i64 7379597174511267180, align 8
@_ZN3ukm8builders19Media_BasicPlayback29kMeanTimeBetweenRebuffersNameE = hidden local_unnamed_addr constant [25 x i8] c"MeanTimeBetweenRebuffers\00", align 16
@_ZN3ukm8builders19Media_BasicPlayback33kMeanTimeBetweenRebuffersNameHashE = hidden local_unnamed_addr constant i64 4184550771348788496, align 8
@_ZN3ukm8builders19Media_BasicPlayback20kMediaStreamTypeNameE = hidden local_unnamed_addr constant [16 x i8] c"MediaStreamType\00", align 16
@_ZN3ukm8builders19Media_BasicPlayback24kMediaStreamTypeNameHashE = hidden local_unnamed_addr constant i64 -3091729381921401524, align 8
@_ZN3ukm8builders19Media_BasicPlayback13kPlayerIDNameE = hidden local_unnamed_addr constant [9 x i8] c"PlayerID\00", align 1
@_ZN3ukm8builders19Media_BasicPlayback17kPlayerIDNameHashE = hidden local_unnamed_addr constant i64 -3720519674257034696, align 8
@_ZN3ukm8builders19Media_BasicPlayback19kRebuffersCountNameE = hidden local_unnamed_addr constant [15 x i8] c"RebuffersCount\00", align 1
@_ZN3ukm8builders19Media_BasicPlayback23kRebuffersCountNameHashE = hidden local_unnamed_addr constant i64 -4639672959801653903, align 8
@_ZN3ukm8builders19Media_BasicPlayback15kVideoCodecNameE = hidden local_unnamed_addr constant [11 x i8] c"VideoCodec\00", align 1
@_ZN3ukm8builders19Media_BasicPlayback19kVideoCodecNameHashE = hidden local_unnamed_addr constant i64 4277283989099800257, align 8
@_ZN3ukm8builders19Media_BasicPlayback22kVideoCodecProfileNameE = hidden local_unnamed_addr constant [18 x i8] c"VideoCodecProfile\00", align 16
@_ZN3ukm8builders19Media_BasicPlayback26kVideoCodecProfileNameHashE = hidden local_unnamed_addr constant i64 -4896820163345984077, align 8
@_ZN3ukm8builders19Media_BasicPlayback21kVideoDecoderNameNameE = hidden local_unnamed_addr constant [17 x i8] c"VideoDecoderName\00", align 16
@_ZN3ukm8builders19Media_BasicPlayback25kVideoDecoderNameNameHashE = hidden local_unnamed_addr constant i64 2955371204855076682, align 8
@_ZN3ukm8builders19Media_BasicPlayback26kVideoEncryptionSchemeNameE = hidden local_unnamed_addr constant [22 x i8] c"VideoEncryptionScheme\00", align 16
@_ZN3ukm8builders19Media_BasicPlayback30kVideoEncryptionSchemeNameHashE = hidden local_unnamed_addr constant i64 8020364149971333246, align 8
@_ZN3ukm8builders19Media_BasicPlayback23kVideoFramesDecodedNameE = hidden local_unnamed_addr constant [19 x i8] c"VideoFramesDecoded\00", align 16
@_ZN3ukm8builders19Media_BasicPlayback27kVideoFramesDecodedNameHashE = hidden local_unnamed_addr constant i64 5249207403669740374, align 8
@_ZN3ukm8builders19Media_BasicPlayback23kVideoFramesDroppedNameE = hidden local_unnamed_addr constant [19 x i8] c"VideoFramesDropped\00", align 16
@_ZN3ukm8builders19Media_BasicPlayback27kVideoFramesDroppedNameHashE = hidden local_unnamed_addr constant i64 -1614171539137602913, align 8
@_ZN3ukm8builders19Media_BasicPlayback23kVideoNaturalHeightNameE = hidden local_unnamed_addr constant [19 x i8] c"VideoNaturalHeight\00", align 16
@_ZN3ukm8builders19Media_BasicPlayback27kVideoNaturalHeightNameHashE = hidden local_unnamed_addr constant i64 1900038218584603521, align 8
@_ZN3ukm8builders19Media_BasicPlayback22kVideoNaturalWidthNameE = hidden local_unnamed_addr constant [18 x i8] c"VideoNaturalWidth\00", align 16
@_ZN3ukm8builders19Media_BasicPlayback26kVideoNaturalWidthNameHashE = hidden local_unnamed_addr constant i64 7910695112651016017, align 8
@_ZN3ukm8builders19Media_BasicPlayback14kWatchTimeNameE = hidden local_unnamed_addr constant [10 x i8] c"WatchTime\00", align 1
@_ZN3ukm8builders19Media_BasicPlayback18kWatchTimeNameHashE = hidden local_unnamed_addr constant i64 4238353176698564424, align 8
@_ZN3ukm8builders19Media_BasicPlayback17kWatchTime_ACNameE = hidden local_unnamed_addr constant [13 x i8] c"WatchTime.AC\00", align 1
@_ZN3ukm8builders19Media_BasicPlayback21kWatchTime_ACNameHashE = hidden local_unnamed_addr constant i64 -6200995123923494965, align 8
@_ZN3ukm8builders19Media_BasicPlayback22kWatchTime_BatteryNameE = hidden local_unnamed_addr constant [18 x i8] c"WatchTime.Battery\00", align 16
@_ZN3ukm8builders19Media_BasicPlayback26kWatchTime_BatteryNameHashE = hidden local_unnamed_addr constant i64 4816984999048658540, align 8
@_ZN3ukm8builders19Media_BasicPlayback32kWatchTime_DisplayFullscreenNameE = hidden local_unnamed_addr constant [28 x i8] c"WatchTime.DisplayFullscreen\00", align 16
@_ZN3ukm8builders19Media_BasicPlayback36kWatchTime_DisplayFullscreenNameHashE = hidden local_unnamed_addr constant i64 -819505212320410011, align 8
@_ZN3ukm8builders19Media_BasicPlayback28kWatchTime_DisplayInlineNameE = hidden local_unnamed_addr constant [24 x i8] c"WatchTime.DisplayInline\00", align 16
@_ZN3ukm8builders19Media_BasicPlayback32kWatchTime_DisplayInlineNameHashE = hidden local_unnamed_addr constant i64 6904900890184958698, align 8
@_ZN3ukm8builders19Media_BasicPlayback38kWatchTime_DisplayPictureInPictureNameE = hidden local_unnamed_addr constant [34 x i8] c"WatchTime.DisplayPictureInPicture\00", align 16
@_ZN3ukm8builders19Media_BasicPlayback42kWatchTime_DisplayPictureInPictureNameHashE = hidden local_unnamed_addr constant i64 -2400523959552382900, align 8
@_ZN3ukm8builders19Media_BasicPlayback32kWatchTime_NativeControlsOffNameE = hidden local_unnamed_addr constant [28 x i8] c"WatchTime.NativeControlsOff\00", align 16
@_ZN3ukm8builders19Media_BasicPlayback36kWatchTime_NativeControlsOffNameHashE = hidden local_unnamed_addr constant i64 -7945744358753330604, align 8
@_ZN3ukm8builders19Media_BasicPlayback31kWatchTime_NativeControlsOnNameE = hidden local_unnamed_addr constant [27 x i8] c"WatchTime.NativeControlsOn\00", align 16
@_ZN3ukm8builders19Media_BasicPlayback35kWatchTime_NativeControlsOnNameHashE = hidden local_unnamed_addr constant i64 7643229976440928650, align 8
@_ZN3ukm8builders29Media_EME_ApiPromiseRejection10kEntryNameE = hidden local_unnamed_addr constant [30 x i8] c"Media.EME.ApiPromiseRejection\00", align 16
@_ZN3ukm8builders29Media_EME_ApiPromiseRejection14kEntryNameHashE = hidden local_unnamed_addr constant i64 7968428823878627316, align 8
@_ZTVN3ukm8builders29Media_EME_ApiPromiseRejectionE = hidden unnamed_addr constant { [4 x i8*] } { [4 x i8*] [i8* null, i8* null, i8* bitcast (void (%"class.ukm::builders::Media_EME_ApiPromiseRejection"*)* @_ZN3ukm8builders29Media_EME_ApiPromiseRejectionD2Ev to i8*), i8* bitcast (void (%"class.ukm::builders::Media_EME_ApiPromiseRejection"*)* @_ZN3ukm8builders29Media_EME_ApiPromiseRejectionD0Ev to i8*)] }, align 8
@_ZN3ukm8builders29Media_EME_ApiPromiseRejection8kApiNameE = hidden local_unnamed_addr constant [4 x i8] c"Api\00", align 1
@_ZN3ukm8builders29Media_EME_ApiPromiseRejection12kApiNameHashE = hidden local_unnamed_addr constant i64 8243361657487571724, align 8
@_ZN3ukm8builders29Media_EME_ApiPromiseRejection15kSystemCodeNameE = hidden local_unnamed_addr constant [11 x i8] c"SystemCode\00", align 1
@_ZN3ukm8builders29Media_EME_ApiPromiseRejection19kSystemCodeNameHashE = hidden local_unnamed_addr constant i64 2228946995368470143, align 8
@_ZN3ukm8builders25Media_EME_CreateMediaKeys10kEntryNameE = hidden local_unnamed_addr constant [26 x i8] c"Media.EME.CreateMediaKeys\00", align 16
@_ZN3ukm8builders25Media_EME_CreateMediaKeys14kEntryNameHashE = hidden local_unnamed_addr constant i64 -1782264485983363090, align 8
@_ZTVN3ukm8builders25Media_EME_CreateMediaKeysE = hidden unnamed_addr constant { [4 x i8*] } { [4 x i8*] [i8* null, i8* null, i8* bitcast (void (%"class.ukm::builders::Media_EME_CreateMediaKeys"*)* @_ZN3ukm8builders25Media_EME_CreateMediaKeysD2Ev to i8*), i8* bitcast (void (%"class.ukm::builders::Media_EME_CreateMediaKeys"*)* @_ZN3ukm8builders25Media_EME_CreateMediaKeysD0Ev to i8*)] }, align 8
@_ZN3ukm8builders25Media_EME_CreateMediaKeys14kIsAdFrameNameE = hidden local_unnamed_addr constant [10 x i8] c"IsAdFrame\00", align 1
@_ZN3ukm8builders25Media_EME_CreateMediaKeys18kIsAdFrameNameHashE = hidden local_unnamed_addr constant i64 4919021348770235533, align 8
@_ZN3ukm8builders25Media_EME_CreateMediaKeys18kIsCrossOriginNameE = hidden local_unnamed_addr constant [14 x i8] c"IsCrossOrigin\00", align 1
@_ZN3ukm8builders25Media_EME_CreateMediaKeys22kIsCrossOriginNameHashE = hidden local_unnamed_addr constant i64 -8569771455822133850, align 8
@_ZN3ukm8builders25Media_EME_CreateMediaKeys15kIsTopFrameNameE = hidden local_unnamed_addr constant [11 x i8] c"IsTopFrame\00", align 1
@_ZN3ukm8builders25Media_EME_CreateMediaKeys19kIsTopFrameNameHashE = hidden local_unnamed_addr constant i64 -6369837800898122785, align 8
@_ZN3ukm8builders25Media_EME_CreateMediaKeys14kKeySystemNameE = hidden local_unnamed_addr constant [10 x i8] c"KeySystem\00", align 1
@_ZN3ukm8builders25Media_EME_CreateMediaKeys18kKeySystemNameHashE = hidden local_unnamed_addr constant i64 3295482835808862800, align 8
@_ZN3ukm8builders37Media_EME_RequestMediaKeySystemAccess10kEntryNameE = hidden local_unnamed_addr constant [38 x i8] c"Media.EME.RequestMediaKeySystemAccess\00", align 16
@_ZN3ukm8builders37Media_EME_RequestMediaKeySystemAccess14kEntryNameHashE = hidden local_unnamed_addr constant i64 -4428674805661786893, align 8
@_ZTVN3ukm8builders37Media_EME_RequestMediaKeySystemAccessE = hidden unnamed_addr constant { [4 x i8*] } { [4 x i8*] [i8* null, i8* null, i8* bitcast (void (%"class.ukm::builders::Media_EME_RequestMediaKeySystemAccess"*)* @_ZN3ukm8builders37Media_EME_RequestMediaKeySystemAccessD2Ev to i8*), i8* bitcast (void (%"class.ukm::builders::Media_EME_RequestMediaKeySystemAccess"*)* @_ZN3ukm8builders37Media_EME_RequestMediaKeySystemAccessD0Ev to i8*)] }, align 8
@_ZN3ukm8builders37Media_EME_RequestMediaKeySystemAccess14kIsAdFrameNameE = hidden local_unnamed_addr constant [10 x i8] c"IsAdFrame\00", align 1
@_ZN3ukm8builders37Media_EME_RequestMediaKeySystemAccess18kIsAdFrameNameHashE = hidden local_unnamed_addr constant i64 4919021348770235533, align 8
@_ZN3ukm8builders37Media_EME_RequestMediaKeySystemAccess18kIsCrossOriginNameE = hidden local_unnamed_addr constant [14 x i8] c"IsCrossOrigin\00", align 1
@_ZN3ukm8builders37Media_EME_RequestMediaKeySystemAccess22kIsCrossOriginNameHashE = hidden local_unnamed_addr constant i64 -8569771455822133850, align 8
@_ZN3ukm8builders37Media_EME_RequestMediaKeySystemAccess15kIsTopFrameNameE = hidden local_unnamed_addr constant [11 x i8] c"IsTopFrame\00", align 1
@_ZN3ukm8builders37Media_EME_RequestMediaKeySystemAccess19kIsTopFrameNameHashE = hidden local_unnamed_addr constant i64 -6369837800898122785, align 8
@_ZN3ukm8builders37Media_EME_RequestMediaKeySystemAccess14kKeySystemNameE = hidden local_unnamed_addr constant [10 x i8] c"KeySystem\00", align 1
@_ZN3ukm8builders37Media_EME_RequestMediaKeySystemAccess18kKeySystemNameHashE = hidden local_unnamed_addr constant i64 3295482835808862800, align 8
@_ZN3ukm8builders37Media_EME_RequestMediaKeySystemAccess22kVideoCapabilitiesNameE = hidden local_unnamed_addr constant [18 x i8] c"VideoCapabilities\00", align 16
@_ZN3ukm8builders37Media_EME_RequestMediaKeySystemAccess26kVideoCapabilitiesNameHashE = hidden local_unnamed_addr constant i64 -2219266521794856878, align 8
@_ZN3ukm8builders37Media_EME_RequestMediaKeySystemAccess41kVideoCapabilities_HasEmptyRobustnessNameE = hidden local_unnamed_addr constant [37 x i8] c"VideoCapabilities.HasEmptyRobustness\00", align 16
@_ZN3ukm8builders37Media_EME_RequestMediaKeySystemAccess45kVideoCapabilities_HasEmptyRobustnessNameHashE = hidden local_unnamed_addr constant i64 6254942854308824331, align 8
@_ZN3ukm8builders37Media_EME_RequestMediaKeySystemAccess47kVideoCapabilities_HasHwSecureAllRobustnessNameE = hidden local_unnamed_addr constant [43 x i8] c"VideoCapabilities.HasHwSecureAllRobustness\00", align 16
@_ZN3ukm8builders37Media_EME_RequestMediaKeySystemAccess51kVideoCapabilities_HasHwSecureAllRobustnessNameHashE = hidden local_unnamed_addr constant i64 -7525610917844643282, align 8
@_ZN3ukm8builders32Media_Engagement_SessionFinished10kEntryNameE = hidden local_unnamed_addr constant [33 x i8] c"Media.Engagement.SessionFinished\00", align 16
@_ZN3ukm8builders32Media_Engagement_SessionFinished14kEntryNameHashE = hidden local_unnamed_addr constant i64 886585293387977076, align 8
@_ZTVN3ukm8builders32Media_Engagement_SessionFinishedE = hidden unnamed_addr constant { [4 x i8*] } { [4 x i8*] [i8* null, i8* null, i8* bitcast (void (%"class.ukm::builders::Media_Engagement_SessionFinished"*)* @_ZN3ukm8builders32Media_Engagement_SessionFinishedD2Ev to i8*), i8* bitcast (void (%"class.ukm::builders::Media_Engagement_SessionFinished"*)* @_ZN3ukm8builders32Media_Engagement_SessionFinishedD0Ev to i8*)] }, align 8
@_ZN3ukm8builders32Media_Engagement_SessionFinished22kEngagement_IsHighNameE = hidden local_unnamed_addr constant [18 x i8] c"Engagement.IsHigh\00", align 16
@_ZN3ukm8builders32Media_Engagement_SessionFinished26kEngagement_IsHighNameHashE = hidden local_unnamed_addr constant i64 3559175725154865187, align 8
@_ZN3ukm8builders32Media_Engagement_SessionFinished21kEngagement_ScoreNameE = hidden local_unnamed_addr constant [17 x i8] c"Engagement.Score\00", align 16
@_ZN3ukm8builders32Media_Engagement_SessionFinished25kEngagement_ScoreNameHashE = hidden local_unnamed_addr constant i64 6115011579945185747, align 8
@_ZN3ukm8builders32Media_Engagement_SessionFinished20kPlaybacks_TotalNameE = hidden local_unnamed_addr constant [16 x i8] c"Playbacks.Total\00", align 16
@_ZN3ukm8builders32Media_Engagement_SessionFinished24kPlaybacks_TotalNameHashE = hidden local_unnamed_addr constant i64 -1027718425883091187, align 8
@_ZN3ukm8builders32Media_Engagement_SessionFinished25kPlayer_Audible_DeltaNameE = hidden local_unnamed_addr constant [21 x i8] c"Player.Audible.Delta\00", align 16
@_ZN3ukm8builders32Media_Engagement_SessionFinished29kPlayer_Audible_DeltaNameHashE = hidden local_unnamed_addr constant i64 -866093084283917707, align 8
@_ZN3ukm8builders32Media_Engagement_SessionFinished29kPlayer_Significant_DeltaNameE = hidden local_unnamed_addr constant [25 x i8] c"Player.Significant.Delta\00", align 16
@_ZN3ukm8builders32Media_Engagement_SessionFinished33kPlayer_Significant_DeltaNameHashE = hidden local_unnamed_addr constant i64 1233203601745147659, align 8
@_ZN3ukm8builders32Media_Engagement_SessionFinished17kVisits_TotalNameE = hidden local_unnamed_addr constant [13 x i8] c"Visits.Total\00", align 1
@_ZN3ukm8builders32Media_Engagement_SessionFinished21kVisits_TotalNameHashE = hidden local_unnamed_addr constant i64 8621457172620586317, align 8
@_ZN3ukm8builders37Media_Engagement_ShortPlaybackIgnored10kEntryNameE = hidden local_unnamed_addr constant [38 x i8] c"Media.Engagement.ShortPlaybackIgnored\00", align 16
@_ZN3ukm8builders37Media_Engagement_ShortPlaybackIgnored14kEntryNameHashE = hidden local_unnamed_addr constant i64 -5430153636870383695, align 8
@_ZTVN3ukm8builders37Media_Engagement_ShortPlaybackIgnoredE = hidden unnamed_addr constant { [4 x i8*] } { [4 x i8*] [i8* null, i8* null, i8* bitcast (void (%"class.ukm::builders::Media_Engagement_ShortPlaybackIgnored"*)* @_ZN3ukm8builders37Media_Engagement_ShortPlaybackIgnoredD2Ev to i8*), i8* bitcast (void (%"class.ukm::builders::Media_Engagement_ShortPlaybackIgnored"*)* @_ZN3ukm8builders37Media_Engagement_ShortPlaybackIgnoredD0Ev to i8*)] }, align 8
@_ZN3ukm8builders37Media_Engagement_ShortPlaybackIgnored11kLengthNameE = hidden local_unnamed_addr constant [7 x i8] c"Length\00", align 1
@_ZN3ukm8builders37Media_Engagement_ShortPlaybackIgnored15kLengthNameHashE = hidden local_unnamed_addr constant i64 -5032037643606040513, align 8
@_ZN3ukm8builders19Media_Feed_Discover10kEntryNameE = hidden local_unnamed_addr constant [20 x i8] c"Media.Feed.Discover\00", align 16
@_ZN3ukm8builders19Media_Feed_Discover14kEntryNameHashE = hidden local_unnamed_addr constant i64 -8540979829118873997, align 8
@_ZTVN3ukm8builders19Media_Feed_DiscoverE = hidden unnamed_addr constant { [4 x i8*] } { [4 x i8*] [i8* null, i8* null, i8* bitcast (void (%"class.ukm::builders::Media_Feed_Discover"*)* @_ZN3ukm8builders19Media_Feed_DiscoverD2Ev to i8*), i8* bitcast (void (%"class.ukm::builders::Media_Feed_Discover"*)* @_ZN3ukm8builders19Media_Feed_DiscoverD0Ev to i8*)] }, align 8
@_ZN3ukm8builders19Media_Feed_Discover17kHasMediaFeedNameE = hidden local_unnamed_addr constant [13 x i8] c"HasMediaFeed\00", align 1
@_ZN3ukm8builders19Media_Feed_Discover21kHasMediaFeedNameHashE = hidden local_unnamed_addr constant i64 8108709776245181348, align 8
@_ZN3ukm8builders45Media_GlobalMediaControls_ActionButtonPressed10kEntryNameE = hidden local_unnamed_addr constant [46 x i8] c"Media.GlobalMediaControls.ActionButtonPressed\00", align 16
@_ZN3ukm8builders45Media_GlobalMediaControls_ActionButtonPressed14kEntryNameHashE = hidden local_unnamed_addr constant i64 -3745269002391614568, align 8
@_ZTVN3ukm8builders45Media_GlobalMediaControls_ActionButtonPressedE = hidden unnamed_addr constant { [4 x i8*] } { [4 x i8*] [i8* null, i8* null, i8* bitcast (void (%"class.ukm::builders::Media_GlobalMediaControls_ActionButtonPressed"*)* @_ZN3ukm8builders45Media_GlobalMediaControls_ActionButtonPressedD2Ev to i8*), i8* bitcast (void (%"class.ukm::builders::Media_GlobalMediaControls_ActionButtonPressed"*)* @_ZN3ukm8builders45Media_GlobalMediaControls_ActionButtonPressedD0Ev to i8*)] }, align 8
@_ZN3ukm8builders45Media_GlobalMediaControls_ActionButtonPressed23kMediaSessionActionNameE = hidden local_unnamed_addr constant [19 x i8] c"MediaSessionAction\00", align 16
@_ZN3ukm8builders45Media_GlobalMediaControls_ActionButtonPressed27kMediaSessionActionNameHashE = hidden local_unnamed_addr constant i64 -6079657527825719421, align 8
@_ZN3ukm8builders29Media_Kaleidoscope_Navigation10kEntryNameE = hidden local_unnamed_addr constant [30 x i8] c"Media.Kaleidoscope.Navigation\00", align 16
@_ZN3ukm8builders29Media_Kaleidoscope_Navigation14kEntryNameHashE = hidden local_unnamed_addr constant i64 -3846110420062528172, align 8
@_ZTVN3ukm8builders29Media_Kaleidoscope_NavigationE = hidden unnamed_addr constant { [4 x i8*] } { [4 x i8*] [i8* null, i8* null, i8* bitcast (void (%"class.ukm::builders::Media_Kaleidoscope_Navigation"*)* @_ZN3ukm8builders29Media_Kaleidoscope_NavigationD2Ev to i8*), i8* bitcast (void (%"class.ukm::builders::Media_Kaleidoscope_Navigation"*)* @_ZN3ukm8builders29Media_Kaleidoscope_NavigationD0Ev to i8*)] }, align 8
@_ZN3ukm8builders29Media_Kaleidoscope_Navigation24kWasFromKaleidoscopeNameE = hidden local_unnamed_addr constant [20 x i8] c"WasFromKaleidoscope\00", align 16
@_ZN3ukm8builders29Media_Kaleidoscope_Navigation28kWasFromKaleidoscopeNameHashE = hidden local_unnamed_addr constant i64 -3393065423746534778, align 8
@_ZN3ukm8builders31Media_Learning_PredictionRecord10kEntryNameE = hidden local_unnamed_addr constant [32 x i8] c"Media.Learning.PredictionRecord\00", align 16
@_ZN3ukm8builders31Media_Learning_PredictionRecord14kEntryNameHashE = hidden local_unnamed_addr constant i64 5140299263436558885, align 8
@_ZTVN3ukm8builders31Media_Learning_PredictionRecordE = hidden unnamed_addr constant { [4 x i8*] } { [4 x i8*] [i8* null, i8* null, i8* bitcast (void (%"class.ukm::builders::Media_Learning_PredictionRecord"*)* @_ZN3ukm8builders31Media_Learning_PredictionRecordD2Ev to i8*), i8* bitcast (void (%"class.ukm::builders::Media_Learning_PredictionRecord"*)* @_ZN3ukm8builders31Media_Learning_PredictionRecordD0Ev to i8*)] }, align 8
@_ZN3ukm8builders31Media_Learning_PredictionRecord17kLearningTaskNameE = hidden local_unnamed_addr constant [13 x i8] c"LearningTask\00", align 1
@_ZN3ukm8builders31Media_Learning_PredictionRecord21kLearningTaskNameHashE = hidden local_unnamed_addr constant i64 3255462620316368086, align 8
@_ZN3ukm8builders31Media_Learning_PredictionRecord18kObservedValueNameE = hidden local_unnamed_addr constant [14 x i8] c"ObservedValue\00", align 1
@_ZN3ukm8builders31Media_Learning_PredictionRecord22kObservedValueNameHashE = hidden local_unnamed_addr constant i64 -9111635765747536967, align 8
@_ZN3ukm8builders31Media_Learning_PredictionRecord19kPredictedValueNameE = hidden local_unnamed_addr constant [15 x i8] c"PredictedValue\00", align 1
@_ZN3ukm8builders31Media_Learning_PredictionRecord23kPredictedValueNameHashE = hidden local_unnamed_addr constant i64 -3924543740164233022, align 8
@_ZN3ukm8builders31Media_Learning_PredictionRecord21kTrainingDataSizeNameE = hidden local_unnamed_addr constant [17 x i8] c"TrainingDataSize\00", align 16
@_ZN3ukm8builders31Media_Learning_PredictionRecord25kTrainingDataSizeNameHashE = hidden local_unnamed_addr constant i64 -1382398963587809868, align 8
@_ZN3ukm8builders31Media_Learning_PredictionRecord28kTrainingDataTotalWeightNameE = hidden local_unnamed_addr constant [24 x i8] c"TrainingDataTotalWeight\00", align 16
@_ZN3ukm8builders31Media_Learning_PredictionRecord32kTrainingDataTotalWeightNameHashE = hidden local_unnamed_addr constant i64 7855079783080918129, align 8
@_ZN3ukm8builders15Media_SiteMuted10kEntryNameE = hidden local_unnamed_addr constant [16 x i8] c"Media.SiteMuted\00", align 16
@_ZN3ukm8builders15Media_SiteMuted14kEntryNameHashE = hidden local_unnamed_addr constant i64 -8961041687998066772, align 8
@_ZTVN3ukm8builders15Media_SiteMutedE = hidden unnamed_addr constant { [4 x i8*] } { [4 x i8*] [i8* null, i8* null, i8* bitcast (void (%"class.ukm::builders::Media_SiteMuted"*)* @_ZN3ukm8builders15Media_SiteMutedD2Ev to i8*), i8* bitcast (void (%"class.ukm::builders::Media_SiteMuted"*)* @_ZN3ukm8builders15Media_SiteMutedD0Ev to i8*)] }, align 8
@_ZN3ukm8builders15Media_SiteMuted15kMuteReasonNameE = hidden local_unnamed_addr constant [11 x i8] c"MuteReason\00", align 1
@_ZN3ukm8builders15Media_SiteMuted19kMuteReasonNameHashE = hidden local_unnamed_addr constant i64 -6735694380413923324, align 8
@_ZN3ukm8builders27Media_VideoDecodePerfRecord10kEntryNameE = hidden local_unnamed_addr constant [28 x i8] c"Media.VideoDecodePerfRecord\00", align 16
@_ZN3ukm8builders27Media_VideoDecodePerfRecord14kEntryNameHashE = hidden local_unnamed_addr constant i64 4207699002180294249, align 8
@_ZTVN3ukm8builders27Media_VideoDecodePerfRecordE = hidden unnamed_addr constant { [4 x i8*] } { [4 x i8*] [i8* null, i8* null, i8* bitcast (void (%"class.ukm::builders::Media_VideoDecodePerfRecord"*)* @_ZN3ukm8builders27Media_VideoDecodePerfRecordD2Ev to i8*), i8* bitcast (void (%"class.ukm::builders::Media_VideoDecodePerfRecord"*)* @_ZN3ukm8builders27Media_VideoDecodePerfRecordD0Ev to i8*)] }, align 8
@_ZN3ukm8builders27Media_VideoDecodePerfRecord39kPerf_ApiWouldClaimIsPowerEfficientNameE = hidden local_unnamed_addr constant [35 x i8] c"Perf.ApiWouldClaimIsPowerEfficient\00", align 16
@_ZN3ukm8builders27Media_VideoDecodePerfRecord43kPerf_ApiWouldClaimIsPowerEfficientNameHashE = hidden local_unnamed_addr constant i64 5735887776585123091, align 8
@_ZN3ukm8builders27Media_VideoDecodePerfRecord31kPerf_ApiWouldClaimIsSmoothNameE = hidden local_unnamed_addr constant [27 x i8] c"Perf.ApiWouldClaimIsSmooth\00", align 16
@_ZN3ukm8builders27Media_VideoDecodePerfRecord35kPerf_ApiWouldClaimIsSmoothNameHashE = hidden local_unnamed_addr constant i64 -5775375581738020907, align 8
@_ZN3ukm8builders27Media_VideoDecodePerfRecord32kPerf_PastVideoFramesDecodedNameE = hidden local_unnamed_addr constant [28 x i8] c"Perf.PastVideoFramesDecoded\00", align 16
@_ZN3ukm8builders27Media_VideoDecodePerfRecord36kPerf_PastVideoFramesDecodedNameHashE = hidden local_unnamed_addr constant i64 8441960325832700449, align 8
@_ZN3ukm8builders27Media_VideoDecodePerfRecord32kPerf_PastVideoFramesDroppedNameE = hidden local_unnamed_addr constant [28 x i8] c"Perf.PastVideoFramesDropped\00", align 16
@_ZN3ukm8builders27Media_VideoDecodePerfRecord36kPerf_PastVideoFramesDroppedNameHashE = hidden local_unnamed_addr constant i64 -27771137189203766, align 8
@_ZN3ukm8builders27Media_VideoDecodePerfRecord39kPerf_PastVideoFramesPowerEfficientNameE = hidden local_unnamed_addr constant [35 x i8] c"Perf.PastVideoFramesPowerEfficient\00", align 16
@_ZN3ukm8builders27Media_VideoDecodePerfRecord43kPerf_PastVideoFramesPowerEfficientNameHashE = hidden local_unnamed_addr constant i64 7446723482648341353, align 8
@_ZN3ukm8builders27Media_VideoDecodePerfRecord32kPerf_RecordIsPowerEfficientNameE = hidden local_unnamed_addr constant [28 x i8] c"Perf.RecordIsPowerEfficient\00", align 16
@_ZN3ukm8builders27Media_VideoDecodePerfRecord36kPerf_RecordIsPowerEfficientNameHashE = hidden local_unnamed_addr constant i64 8067819045200543647, align 8
@_ZN3ukm8builders27Media_VideoDecodePerfRecord24kPerf_RecordIsSmoothNameE = hidden local_unnamed_addr constant [20 x i8] c"Perf.RecordIsSmooth\00", align 16
@_ZN3ukm8builders27Media_VideoDecodePerfRecord28kPerf_RecordIsSmoothNameHashE = hidden local_unnamed_addr constant i64 -5778799726679953346, align 8
@_ZN3ukm8builders27Media_VideoDecodePerfRecord28kPerf_VideoFramesDecodedNameE = hidden local_unnamed_addr constant [24 x i8] c"Perf.VideoFramesDecoded\00", align 16
@_ZN3ukm8builders27Media_VideoDecodePerfRecord32kPerf_VideoFramesDecodedNameHashE = hidden local_unnamed_addr constant i64 -5298288247633238280, align 8
@_ZN3ukm8builders27Media_VideoDecodePerfRecord28kPerf_VideoFramesDroppedNameE = hidden local_unnamed_addr constant [24 x i8] c"Perf.VideoFramesDropped\00", align 16
@_ZN3ukm8builders27Media_VideoDecodePerfRecord32kPerf_VideoFramesDroppedNameHashE = hidden local_unnamed_addr constant i64 -8752648568620153551, align 8
@_ZN3ukm8builders27Media_VideoDecodePerfRecord35kPerf_VideoFramesPowerEfficientNameE = hidden local_unnamed_addr constant [31 x i8] c"Perf.VideoFramesPowerEfficient\00", align 16
@_ZN3ukm8builders27Media_VideoDecodePerfRecord39kPerf_VideoFramesPowerEfficientNameHashE = hidden local_unnamed_addr constant i64 977668949207851975, align 8
@_ZN3ukm8builders27Media_VideoDecodePerfRecord23kVideo_CodecProfileNameE = hidden local_unnamed_addr constant [19 x i8] c"Video.CodecProfile\00", align 16
@_ZN3ukm8builders27Media_VideoDecodePerfRecord27kVideo_CodecProfileNameHashE = hidden local_unnamed_addr constant i64 -5749002480777662360, align 8
@_ZN3ukm8builders27Media_VideoDecodePerfRecord24kVideo_EME_KeySystemNameE = hidden local_unnamed_addr constant [20 x i8] c"Video.EME.KeySystem\00", align 16
@_ZN3ukm8builders27Media_VideoDecodePerfRecord28kVideo_EME_KeySystemNameHashE = hidden local_unnamed_addr constant i64 -2650415948426932161, align 8
@_ZN3ukm8builders27Media_VideoDecodePerfRecord32kVideo_EME_UseHwSecureCodecsNameE = hidden local_unnamed_addr constant [28 x i8] c"Video.EME.UseHwSecureCodecs\00", align 16
@_ZN3ukm8builders27Media_VideoDecodePerfRecord36kVideo_EME_UseHwSecureCodecsNameHashE = hidden local_unnamed_addr constant i64 6542307800731144643, align 8
@_ZN3ukm8builders27Media_VideoDecodePerfRecord26kVideo_FramesPerSecondNameE = hidden local_unnamed_addr constant [22 x i8] c"Video.FramesPerSecond\00", align 16
@_ZN3ukm8builders27Media_VideoDecodePerfRecord30kVideo_FramesPerSecondNameHashE = hidden local_unnamed_addr constant i64 -9162728888573139867, align 8
@_ZN3ukm8builders27Media_VideoDecodePerfRecord21kVideo_InTopFrameNameE = hidden local_unnamed_addr constant [17 x i8] c"Video.InTopFrame\00", align 16
@_ZN3ukm8builders27Media_VideoDecodePerfRecord25kVideo_InTopFrameNameHashE = hidden local_unnamed_addr constant i64 2486969173492159481, align 8
@_ZN3ukm8builders27Media_VideoDecodePerfRecord24kVideo_NaturalHeightNameE = hidden local_unnamed_addr constant [20 x i8] c"Video.NaturalHeight\00", align 16
@_ZN3ukm8builders27Media_VideoDecodePerfRecord28kVideo_NaturalHeightNameHashE = hidden local_unnamed_addr constant i64 6424389758392557464, align 8
@_ZN3ukm8builders27Media_VideoDecodePerfRecord23kVideo_NaturalWidthNameE = hidden local_unnamed_addr constant [19 x i8] c"Video.NaturalWidth\00", align 16
@_ZN3ukm8builders27Media_VideoDecodePerfRecord27kVideo_NaturalWidthNameHashE = hidden local_unnamed_addr constant i64 -5761930992209500777, align 8
@_ZN3ukm8builders27Media_VideoDecodePerfRecord19kVideo_PlayerIDNameE = hidden local_unnamed_addr constant [15 x i8] c"Video.PlayerID\00", align 1
@_ZN3ukm8builders27Media_VideoDecodePerfRecord23kVideo_PlayerIDNameHashE = hidden local_unnamed_addr constant i64 -7143592694276952246, align 8
@_ZN3ukm8builders39Media_WebAudio_AudioContext_AudibleTime10kEntryNameE = hidden local_unnamed_addr constant [40 x i8] c"Media.WebAudio.AudioContext.AudibleTime\00", align 16
@_ZN3ukm8builders39Media_WebAudio_AudioContext_AudibleTime14kEntryNameHashE = hidden local_unnamed_addr constant i64 -1132705977606954226, align 8
@_ZTVN3ukm8builders39Media_WebAudio_AudioContext_AudibleTimeE = hidden unnamed_addr constant { [4 x i8*] } { [4 x i8*] [i8* null, i8* null, i8* bitcast (void (%"class.ukm::builders::Media_WebAudio_AudioContext_AudibleTime"*)* @_ZN3ukm8builders39Media_WebAudio_AudioContext_AudibleTimeD2Ev to i8*), i8* bitcast (void (%"class.ukm::builders::Media_WebAudio_AudioContext_AudibleTime"*)* @_ZN3ukm8builders39Media_WebAudio_AudioContext_AudibleTimeD0Ev to i8*)] }, align 8
@_ZN3ukm8builders39Media_WebAudio_AudioContext_AudibleTime16kAudibleTimeNameE = hidden local_unnamed_addr constant [12 x i8] c"AudibleTime\00", align 1
@_ZN3ukm8builders39Media_WebAudio_AudioContext_AudibleTime20kAudibleTimeNameHashE = hidden local_unnamed_addr constant i64 -5572998711966100976, align 8
@_ZN3ukm8builders39Media_WebAudio_AudioContext_AudibleTime16kIsMainFrameNameE = hidden local_unnamed_addr constant [12 x i8] c"IsMainFrame\00", align 1
@_ZN3ukm8builders39Media_WebAudio_AudioContext_AudibleTime20kIsMainFrameNameHashE = hidden local_unnamed_addr constant i64 7266626398784684486, align 8
@_ZN3ukm8builders25Media_WebMediaPlayerState10kEntryNameE = hidden local_unnamed_addr constant [26 x i8] c"Media.WebMediaPlayerState\00", align 16
@_ZN3ukm8builders25Media_WebMediaPlayerState14kEntryNameHashE = hidden local_unnamed_addr constant i64 -4018283185480163537, align 8
@_ZTVN3ukm8builders25Media_WebMediaPlayerStateE = hidden unnamed_addr constant { [4 x i8*] } { [4 x i8*] [i8* null, i8* null, i8* bitcast (void (%"class.ukm::builders::Media_WebMediaPlayerState"*)* @_ZN3ukm8builders25Media_WebMediaPlayerStateD2Ev to i8*), i8* bitcast (void (%"class.ukm::builders::Media_WebMediaPlayerState"*)* @_ZN3ukm8builders25Media_WebMediaPlayerStateD0Ev to i8*)] }, align 8
@_ZN3ukm8builders25Media_WebMediaPlayerState18kContainerNameNameE = hidden local_unnamed_addr constant [14 x i8] c"ContainerName\00", align 1
@_ZN3ukm8builders25Media_WebMediaPlayerState22kContainerNameNameHashE = hidden local_unnamed_addr constant i64 4418601378549410313, align 8
@_ZN3ukm8builders25Media_WebMediaPlayerState24kFinalPipelineStatusNameE = hidden local_unnamed_addr constant [20 x i8] c"FinalPipelineStatus\00", align 16
@_ZN3ukm8builders25Media_WebMediaPlayerState28kFinalPipelineStatusNameHashE = hidden local_unnamed_addr constant i64 -7907089267010238362, align 8
@_ZN3ukm8builders25Media_WebMediaPlayerState10kIsEMENameE = hidden local_unnamed_addr constant [6 x i8] c"IsEME\00", align 1
@_ZN3ukm8builders25Media_WebMediaPlayerState14kIsEMENameHashE = hidden local_unnamed_addr constant i64 -8843195487093934755, align 8
@_ZN3ukm8builders25Media_WebMediaPlayerState10kIsMSENameE = hidden local_unnamed_addr constant [6 x i8] c"IsMSE\00", align 1
@_ZN3ukm8builders25Media_WebMediaPlayerState14kIsMSENameHashE = hidden local_unnamed_addr constant i64 1649159027333078910, align 8
@_ZN3ukm8builders25Media_WebMediaPlayerState15kIsTopFrameNameE = hidden local_unnamed_addr constant [11 x i8] c"IsTopFrame\00", align 1
@_ZN3ukm8builders25Media_WebMediaPlayerState19kIsTopFrameNameHashE = hidden local_unnamed_addr constant i64 -6369837800898122785, align 8
@_ZN3ukm8builders25Media_WebMediaPlayerState13kPlayerIDNameE = hidden local_unnamed_addr constant [9 x i8] c"PlayerID\00", align 1
@_ZN3ukm8builders25Media_WebMediaPlayerState17kPlayerIDNameHashE = hidden local_unnamed_addr constant i64 -3720519674257034696, align 8
@_ZN3ukm8builders25Media_WebMediaPlayerState17kRendererTypeNameE = hidden local_unnamed_addr constant [13 x i8] c"RendererType\00", align 1
@_ZN3ukm8builders25Media_WebMediaPlayerState21kRendererTypeNameHashE = hidden local_unnamed_addr constant i64 -7032820373538913343, align 8
@_ZN3ukm8builders25Media_WebMediaPlayerState21kTimeToFirstFrameNameE = hidden local_unnamed_addr constant [17 x i8] c"TimeToFirstFrame\00", align 16
@_ZN3ukm8builders25Media_WebMediaPlayerState25kTimeToFirstFrameNameHashE = hidden local_unnamed_addr constant i64 4692112185366530109, align 8
@_ZN3ukm8builders25Media_WebMediaPlayerState19kTimeToMetadataNameE = hidden local_unnamed_addr constant [15 x i8] c"TimeToMetadata\00", align 1
@_ZN3ukm8builders25Media_WebMediaPlayerState23kTimeToMetadataNameHashE = hidden local_unnamed_addr constant i64 4362545705166911725, align 8
@_ZN3ukm8builders25Media_WebMediaPlayerState20kTimeToPlayReadyNameE = hidden local_unnamed_addr constant [16 x i8] c"TimeToPlayReady\00", align 16
@_ZN3ukm8builders25Media_WebMediaPlayerState24kTimeToPlayReadyNameHashE = hidden local_unnamed_addr constant i64 3934160282665258072, align 8
@_ZN3ukm8builders25Media_WebMediaPlayerState14kURLSchemeNameE = hidden local_unnamed_addr constant [10 x i8] c"URLScheme\00", align 1
@_ZN3ukm8builders25Media_WebMediaPlayerState18kURLSchemeNameHashE = hidden local_unnamed_addr constant i64 2127881778750603395, align 8
@_ZN3ukm8builders41MediaRouter_CastWebSenderExtensionLoadUrl10kEntryNameE = hidden local_unnamed_addr constant [42 x i8] c"MediaRouter.CastWebSenderExtensionLoadUrl\00", align 16
@_ZN3ukm8builders41MediaRouter_CastWebSenderExtensionLoadUrl14kEntryNameHashE = hidden local_unnamed_addr constant i64 3512705025017023804, align 8
@_ZTVN3ukm8builders41MediaRouter_CastWebSenderExtensionLoadUrlE = hidden unnamed_addr constant { [4 x i8*] } { [4 x i8*] [i8* null, i8* null, i8* bitcast (void (%"class.ukm::builders::MediaRouter_CastWebSenderExtensionLoadUrl"*)* @_ZN3ukm8builders41MediaRouter_CastWebSenderExtensionLoadUrlD2Ev to i8*), i8* bitcast (void (%"class.ukm::builders::MediaRouter_CastWebSenderExtensionLoadUrl"*)* @_ZN3ukm8builders41MediaRouter_CastWebSenderExtensionLoadUrlD0Ev to i8*)] }, align 8
@_ZN3ukm8builders41MediaRouter_CastWebSenderExtensionLoadUrl16kHasOccurredNameE = hidden local_unnamed_addr constant [12 x i8] c"HasOccurred\00", align 1
@_ZN3ukm8builders41MediaRouter_CastWebSenderExtensionLoadUrl20kHasOccurredNameHashE = hidden local_unnamed_addr constant i64 1401967873843414280, align 8
@_ZN3ukm8builders41MediaRouter_SiteInitiatedMirroringStarted10kEntryNameE = hidden local_unnamed_addr constant [42 x i8] c"MediaRouter.SiteInitiatedMirroringStarted\00", align 16
@_ZN3ukm8builders41MediaRouter_SiteInitiatedMirroringStarted14kEntryNameHashE = hidden local_unnamed_addr constant i64 -1949108107852632264, align 8
@_ZTVN3ukm8builders41MediaRouter_SiteInitiatedMirroringStartedE = hidden unnamed_addr constant { [4 x i8*] } { [4 x i8*] [i8* null, i8* null, i8* bitcast (void (%"class.ukm::builders::MediaRouter_SiteInitiatedMirroringStarted"*)* @_ZN3ukm8builders41MediaRouter_SiteInitiatedMirroringStartedD2Ev to i8*), i8* bitcast (void (%"class.ukm::builders::MediaRouter_SiteInitiatedMirroringStarted"*)* @_ZN3ukm8builders41MediaRouter_SiteInitiatedMirroringStartedD0Ev to i8*)] }, align 8
@_ZN3ukm8builders41MediaRouter_SiteInitiatedMirroringStarted22kAllowAudioCaptureNameE = hidden local_unnamed_addr constant [18 x i8] c"AllowAudioCapture\00", align 16
@_ZN3ukm8builders41MediaRouter_SiteInitiatedMirroringStarted26kAllowAudioCaptureNameHashE = hidden local_unnamed_addr constant i64 -4084709842134025903, align 8
@_ZN3ukm8builders31MediaRouter_TabMirroringStarted10kEntryNameE = hidden local_unnamed_addr constant [32 x i8] c"MediaRouter.TabMirroringStarted\00", align 16
@_ZN3ukm8builders31MediaRouter_TabMirroringStarted14kEntryNameHashE = hidden local_unnamed_addr constant i64 2088599620296425553, align 8
@_ZTVN3ukm8builders31MediaRouter_TabMirroringStartedE = hidden unnamed_addr constant { [4 x i8*] } { [4 x i8*] [i8* null, i8* null, i8* bitcast (void (%"class.ukm::builders::MediaRouter_TabMirroringStarted"*)* @_ZN3ukm8builders31MediaRouter_TabMirroringStartedD2Ev to i8*), i8* bitcast (void (%"class.ukm::builders::MediaRouter_TabMirroringStarted"*)* @_ZN3ukm8builders31MediaRouter_TabMirroringStartedD0Ev to i8*)] }, align 8
@_ZN3ukm8builders31MediaRouter_TabMirroringStarted15kAudioStateNameE = hidden local_unnamed_addr constant [11 x i8] c"AudioState\00", align 1
@_ZN3ukm8builders31MediaRouter_TabMirroringStarted19kAudioStateNameHashE = hidden local_unnamed_addr constant i64 -1161210388563153887, align 8
@_ZN3ukm8builders19Memory_Experimental10kEntryNameE = hidden local_unnamed_addr constant [20 x i8] c"Memory.Experimental\00", align 16
@_ZN3ukm8builders19Memory_Experimental14kEntryNameHashE = hidden local_unnamed_addr constant i64 2958711939369432145, align 8
@_ZTVN3ukm8builders19Memory_ExperimentalE = hidden unnamed_addr constant { [4 x i8*] } { [4 x i8*] [i8* null, i8* null, i8* bitcast (void (%"class.ukm::builders::Memory_Experimental"*)* @_ZN3ukm8builders19Memory_ExperimentalD2Ev to i8*), i8* bitcast (void (%"class.ukm::builders::Memory_Experimental"*)* @_ZN3ukm8builders19Memory_ExperimentalD0Ev to i8*)] }, align 8
@_ZN3ukm8builders19Memory_Experimental16kArrayBufferNameE = hidden local_unnamed_addr constant [12 x i8] c"ArrayBuffer\00", align 1
@_ZN3ukm8builders19Memory_Experimental20kArrayBufferNameHashE = hidden local_unnamed_addr constant i64 -6721005311697626147, align 8
@_ZN3ukm8builders19Memory_Experimental12kBlinkGCNameE = hidden local_unnamed_addr constant [8 x i8] c"BlinkGC\00", align 1
@_ZN3ukm8builders19Memory_Experimental16kBlinkGCNameHashE = hidden local_unnamed_addr constant i64 7968550169431094519, align 8
@_ZN3ukm8builders19Memory_Experimental29kBlinkGC_AllocatedObjectsNameE = hidden local_unnamed_addr constant [25 x i8] c"BlinkGC.AllocatedObjects\00", align 16
@_ZN3ukm8builders19Memory_Experimental33kBlinkGC_AllocatedObjectsNameHashE = hidden local_unnamed_addr constant i64 2308711769835636489, align 8
@_ZN3ukm8builders19Memory_Experimental37kCanvasResourceProvider_SkSurfaceNameE = hidden local_unnamed_addr constant [33 x i8] c"CanvasResourceProvider.SkSurface\00", align 16
@_ZN3ukm8builders19Memory_Experimental41kCanvasResourceProvider_SkSurfaceNameHashE = hidden local_unnamed_addr constant i64 6464412163022849223, align 8
@_ZN3ukm8builders19Memory_Experimental18kCommandBufferNameE = hidden local_unnamed_addr constant [14 x i8] c"CommandBuffer\00", align 1
@_ZN3ukm8builders19Memory_Experimental22kCommandBufferNameHashE = hidden local_unnamed_addr constant i64 -6695743014526136067, align 8
@_ZN3ukm8builders19Memory_Experimental16kDiscardableNameE = hidden local_unnamed_addr constant [12 x i8] c"Discardable\00", align 1
@_ZN3ukm8builders19Memory_Experimental20kDiscardableNameHashE = hidden local_unnamed_addr constant i64 200561209145538443, align 8
@_ZN3ukm8builders19Memory_Experimental20kDownloadServiceNameE = hidden local_unnamed_addr constant [16 x i8] c"DownloadService\00", align 16
@_ZN3ukm8builders19Memory_Experimental24kDownloadServiceNameHashE = hidden local_unnamed_addr constant i64 7359304541321789172, align 8
@_ZN3ukm8builders19Memory_Experimental26kExtensions_ValueStoreNameE = hidden local_unnamed_addr constant [22 x i8] c"Extensions.ValueStore\00", align 16
@_ZN3ukm8builders19Memory_Experimental30kExtensions_ValueStoreNameHashE = hidden local_unnamed_addr constant i64 29559029929544692, align 8
@_ZN3ukm8builders19Memory_Experimental15kFontCachesNameE = hidden local_unnamed_addr constant [11 x i8] c"FontCaches\00", align 1
@_ZN3ukm8builders19Memory_Experimental19kFontCachesNameHashE = hidden local_unnamed_addr constant i64 -1917683068775609316, align 8
@_ZN3ukm8builders19Memory_Experimental14kGpuMemoryNameE = hidden local_unnamed_addr constant [10 x i8] c"GpuMemory\00", align 1
@_ZN3ukm8builders19Memory_Experimental18kGpuMemoryNameHashE = hidden local_unnamed_addr constant i64 490077485390910541, align 8
@_ZN3ukm8builders19Memory_Experimental12kHistoryNameE = hidden local_unnamed_addr constant [8 x i8] c"History\00", align 1
@_ZN3ukm8builders19Memory_Experimental16kHistoryNameHashE = hidden local_unnamed_addr constant i64 1644574205037202324, align 8
@_ZN3ukm8builders19Memory_Experimental14kIsVisibleNameE = hidden local_unnamed_addr constant [10 x i8] c"IsVisible\00", align 1
@_ZN3ukm8builders19Memory_Experimental18kIsVisibleNameHashE = hidden local_unnamed_addr constant i64 1485165748725517792, align 8
@_ZN3ukm8builders19Memory_Experimental13kJavaHeapNameE = hidden local_unnamed_addr constant [9 x i8] c"JavaHeap\00", align 1
@_ZN3ukm8builders19Memory_Experimental17kJavaHeapNameHashE = hidden local_unnamed_addr constant i64 8862862044285854091, align 8
@_ZN3ukm8builders19Memory_Experimental18kLevelDatabaseNameE = hidden local_unnamed_addr constant [14 x i8] c"LevelDatabase\00", align 1
@_ZN3ukm8builders19Memory_Experimental22kLevelDatabaseNameHashE = hidden local_unnamed_addr constant i64 -7097893855410938641, align 8
@_ZN3ukm8builders19Memory_Experimental11kMallocNameE = hidden local_unnamed_addr constant [7 x i8] c"Malloc\00", align 1
@_ZN3ukm8builders19Memory_Experimental15kMallocNameHashE = hidden local_unnamed_addr constant i64 1238957276816977011, align 8
@_ZN3ukm8builders19Memory_Experimental28kMalloc_AllocatedObjectsNameE = hidden local_unnamed_addr constant [24 x i8] c"Malloc.AllocatedObjects\00", align 16
@_ZN3ukm8builders19Memory_Experimental32kMalloc_AllocatedObjectsNameHashE = hidden local_unnamed_addr constant i64 1925721785185208243, align 8
@_ZN3ukm8builders19Memory_Experimental8kNetNameE = hidden local_unnamed_addr constant [4 x i8] c"Net\00", align 1
@_ZN3ukm8builders19Memory_Experimental12kNetNameHashE = hidden local_unnamed_addr constant i64 5769866783646202089, align 8
@_ZN3ukm8builders19Memory_Experimental26kNet_UrlRequestContextNameE = hidden local_unnamed_addr constant [22 x i8] c"Net.UrlRequestContext\00", align 16
@_ZN3ukm8builders19Memory_Experimental30kNet_UrlRequestContextNameHashE = hidden local_unnamed_addr constant i64 4591518805853525343, align 8
@_ZN3ukm8builders19Memory_Experimental24kNumberOfAdSubframesNameE = hidden local_unnamed_addr constant [20 x i8] c"NumberOfAdSubframes\00", align 16
@_ZN3ukm8builders19Memory_Experimental28kNumberOfAdSubframesNameHashE = hidden local_unnamed_addr constant i64 -7703561730161031618, align 8
@_ZN3ukm8builders19Memory_Experimental32kNumberOfArrayBufferContentsNameE = hidden local_unnamed_addr constant [28 x i8] c"NumberOfArrayBufferContents\00", align 16
@_ZN3ukm8builders19Memory_Experimental36kNumberOfArrayBufferContentsNameHashE = hidden local_unnamed_addr constant i64 -5182246287772591467, align 8
@_ZN3ukm8builders19Memory_Experimental33kNumberOfDetachedScriptStatesNameE = hidden local_unnamed_addr constant [29 x i8] c"NumberOfDetachedScriptStates\00", align 16
@_ZN3ukm8builders19Memory_Experimental37kNumberOfDetachedScriptStatesNameHashE = hidden local_unnamed_addr constant i64 -181645674606662346, align 8
@_ZN3ukm8builders19Memory_Experimental22kNumberOfDocumentsNameE = hidden local_unnamed_addr constant [18 x i8] c"NumberOfDocuments\00", align 16
@_ZN3ukm8builders19Memory_Experimental26kNumberOfDocumentsNameHashE = hidden local_unnamed_addr constant i64 5733109213322944724, align 8
@_ZN3ukm8builders19Memory_Experimental23kNumberOfExtensionsNameE = hidden local_unnamed_addr constant [19 x i8] c"NumberOfExtensions\00", align 16
@_ZN3ukm8builders19Memory_Experimental27kNumberOfExtensionsNameHashE = hidden local_unnamed_addr constant i64 3403202119543761618, align 8
@_ZN3ukm8builders19Memory_Experimental19kNumberOfFramesNameE = hidden local_unnamed_addr constant [15 x i8] c"NumberOfFrames\00", align 1
@_ZN3ukm8builders19Memory_Experimental23kNumberOfFramesNameHashE = hidden local_unnamed_addr constant i64 6940065104966512226, align 8
@_ZN3ukm8builders19Memory_Experimental26kNumberOfLayoutObjectsNameE = hidden local_unnamed_addr constant [22 x i8] c"NumberOfLayoutObjects\00", align 16
@_ZN3ukm8builders19Memory_Experimental30kNumberOfLayoutObjectsNameHashE = hidden local_unnamed_addr constant i64 3649880882460262866, align 8
@_ZN3ukm8builders19Memory_Experimental24kNumberOfMojoHandlesNameE = hidden local_unnamed_addr constant [20 x i8] c"NumberOfMojoHandles\00", align 16
@_ZN3ukm8builders19Memory_Experimental28kNumberOfMojoHandlesNameHashE = hidden local_unnamed_addr constant i64 -1632571112600823880, align 8
@_ZN3ukm8builders19Memory_Experimental18kNumberOfNodesNameE = hidden local_unnamed_addr constant [14 x i8] c"NumberOfNodes\00", align 1
@_ZN3ukm8builders19Memory_Experimental22kNumberOfNodesNameHashE = hidden local_unnamed_addr constant i64 -2802756327298284052, align 8
@_ZN3ukm8builders19Memory_Experimental28kNumberOfWebMediaPlayersNameE = hidden local_unnamed_addr constant [24 x i8] c"NumberOfWebMediaPlayers\00", align 16
@_ZN3ukm8builders19Memory_Experimental32kNumberOfWebMediaPlayersNameHashE = hidden local_unnamed_addr constant i64 -5641833751247221084, align 8
@_ZN3ukm8builders19Memory_Experimental23kOmniboxSuggestionsNameE = hidden local_unnamed_addr constant [19 x i8] c"OmniboxSuggestions\00", align 16
@_ZN3ukm8builders19Memory_Experimental27kOmniboxSuggestionsNameHashE = hidden local_unnamed_addr constant i64 -1090853022858541891, align 8
@_ZN3ukm8builders19Memory_Experimental19kPartitionAllocNameE = hidden local_unnamed_addr constant [15 x i8] c"PartitionAlloc\00", align 1
@_ZN3ukm8builders19Memory_Experimental23kPartitionAllocNameHashE = hidden local_unnamed_addr constant i64 -8836261400117106592, align 8
@_ZN3ukm8builders19Memory_Experimental36kPartitionAlloc_AllocatedObjectsNameE = hidden local_unnamed_addr constant [32 x i8] c"PartitionAlloc.AllocatedObjects\00", align 16
@_ZN3ukm8builders19Memory_Experimental40kPartitionAlloc_AllocatedObjectsNameHashE = hidden local_unnamed_addr constant i64 -3222560616504458801, align 8
@_ZN3ukm8builders19Memory_Experimental42kPartitionAlloc_Partitions_ArrayBufferNameE = hidden local_unnamed_addr constant [38 x i8] c"PartitionAlloc.Partitions.ArrayBuffer\00", align 16
@_ZN3ukm8builders19Memory_Experimental46kPartitionAlloc_Partitions_ArrayBufferNameHashE = hidden local_unnamed_addr constant i64 806433197023658949, align 8
@_ZN3ukm8builders19Memory_Experimental37kPartitionAlloc_Partitions_BufferNameE = hidden local_unnamed_addr constant [33 x i8] c"PartitionAlloc.Partitions.Buffer\00", align 16
@_ZN3ukm8builders19Memory_Experimental41kPartitionAlloc_Partitions_BufferNameHashE = hidden local_unnamed_addr constant i64 -6104861477675988366, align 8
@_ZN3ukm8builders19Memory_Experimental41kPartitionAlloc_Partitions_FastMallocNameE = hidden local_unnamed_addr constant [37 x i8] c"PartitionAlloc.Partitions.FastMalloc\00", align 16
@_ZN3ukm8builders19Memory_Experimental45kPartitionAlloc_Partitions_FastMallocNameHashE = hidden local_unnamed_addr constant i64 -4568691494964953326, align 8
@_ZN3ukm8builders19Memory_Experimental37kPartitionAlloc_Partitions_LayoutNameE = hidden local_unnamed_addr constant [33 x i8] c"PartitionAlloc.Partitions.Layout\00", align 16
@_ZN3ukm8builders19Memory_Experimental41kPartitionAlloc_Partitions_LayoutNameHashE = hidden local_unnamed_addr constant i64 6655809818244318026, align 8
@_ZN3ukm8builders19Memory_Experimental27kPrivateMemoryFootprintNameE = hidden local_unnamed_addr constant [23 x i8] c"PrivateMemoryFootprint\00", align 16
@_ZN3ukm8builders19Memory_Experimental31kPrivateMemoryFootprintNameHashE = hidden local_unnamed_addr constant i64 -8394230536289730427, align 8
@_ZN3ukm8builders19Memory_Experimental25kPrivateSwapFootprintNameE = hidden local_unnamed_addr constant [21 x i8] c"PrivateSwapFootprint\00", align 16
@_ZN3ukm8builders19Memory_Experimental29kPrivateSwapFootprintNameHashE = hidden local_unnamed_addr constant i64 -4875337875188666167, align 8
@_ZN3ukm8builders19Memory_Experimental16kProcessTypeNameE = hidden local_unnamed_addr constant [12 x i8] c"ProcessType\00", align 1
@_ZN3ukm8builders19Memory_Experimental20kProcessTypeNameHashE = hidden local_unnamed_addr constant i64 7486237172651555104, align 8
@_ZN3ukm8builders19Memory_Experimental13kResidentNameE = hidden local_unnamed_addr constant [9 x i8] c"Resident\00", align 1
@_ZN3ukm8builders19Memory_Experimental17kResidentNameHashE = hidden local_unnamed_addr constant i64 -4985332478328870178, align 8
@_ZN3ukm8builders19Memory_Experimental26kSharedMemoryFootprintNameE = hidden local_unnamed_addr constant [22 x i8] c"SharedMemoryFootprint\00", align 16
@_ZN3ukm8builders19Memory_Experimental30kSharedMemoryFootprintNameHashE = hidden local_unnamed_addr constant i64 -946102926031800541, align 8
@_ZN3ukm8builders19Memory_Experimental16kSiteStorageNameE = hidden local_unnamed_addr constant [12 x i8] c"SiteStorage\00", align 1
@_ZN3ukm8builders19Memory_Experimental20kSiteStorageNameHashE = hidden local_unnamed_addr constant i64 9072081726198684739, align 8
@_ZN3ukm8builders19Memory_Experimental28kSiteStorage_BlobStorageNameE = hidden local_unnamed_addr constant [24 x i8] c"SiteStorage.BlobStorage\00", align 16
@_ZN3ukm8builders19Memory_Experimental32kSiteStorage_BlobStorageNameHashE = hidden local_unnamed_addr constant i64 7198093127485286680, align 8
@_ZN3ukm8builders19Memory_Experimental24kSiteStorage_IndexDBNameE = hidden local_unnamed_addr constant [20 x i8] c"SiteStorage.IndexDB\00", align 16
@_ZN3ukm8builders19Memory_Experimental28kSiteStorage_IndexDBNameHashE = hidden local_unnamed_addr constant i64 6402762799502043507, align 8
@_ZN3ukm8builders19Memory_Experimental29kSiteStorage_LocalStorageNameE = hidden local_unnamed_addr constant [25 x i8] c"SiteStorage.LocalStorage\00", align 16
@_ZN3ukm8builders19Memory_Experimental33kSiteStorage_LocalStorageNameHashE = hidden local_unnamed_addr constant i64 -3513615616579467541, align 8
@_ZN3ukm8builders19Memory_Experimental31kSiteStorage_SessionStorageNameE = hidden local_unnamed_addr constant [27 x i8] c"SiteStorage.SessionStorage\00", align 16
@_ZN3ukm8builders19Memory_Experimental35kSiteStorage_SessionStorageNameHashE = hidden local_unnamed_addr constant i64 -4237302498590069401, align 8
@_ZN3ukm8builders19Memory_Experimental9kSkiaNameE = hidden local_unnamed_addr constant [5 x i8] c"Skia\00", align 1
@_ZN3ukm8builders19Memory_Experimental13kSkiaNameHashE = hidden local_unnamed_addr constant i64 -8454822830692602500, align 8
@_ZN3ukm8builders19Memory_Experimental22kSkia_SkGlyphCacheNameE = hidden local_unnamed_addr constant [18 x i8] c"Skia.SkGlyphCache\00", align 16
@_ZN3ukm8builders19Memory_Experimental26kSkia_SkGlyphCacheNameHashE = hidden local_unnamed_addr constant i64 8035476658629055040, align 8
@_ZN3ukm8builders19Memory_Experimental25kSkia_SkResourceCacheNameE = hidden local_unnamed_addr constant [21 x i8] c"Skia.SkResourceCache\00", align 16
@_ZN3ukm8builders19Memory_Experimental29kSkia_SkResourceCacheNameHashE = hidden local_unnamed_addr constant i64 6214163245680517898, align 8
@_ZN3ukm8builders19Memory_Experimental11kSqliteNameE = hidden local_unnamed_addr constant [7 x i8] c"Sqlite\00", align 1
@_ZN3ukm8builders19Memory_Experimental15kSqliteNameHashE = hidden local_unnamed_addr constant i64 2900118879024321274, align 8
@_ZN3ukm8builders19Memory_Experimental9kSyncNameE = hidden local_unnamed_addr constant [5 x i8] c"Sync\00", align 1
@_ZN3ukm8builders19Memory_Experimental13kSyncNameHashE = hidden local_unnamed_addr constant i64 -2816865188163905934, align 8
@_ZN3ukm8builders19Memory_Experimental15kTabRestoreNameE = hidden local_unnamed_addr constant [11 x i8] c"TabRestore\00", align 1
@_ZN3ukm8builders19Memory_Experimental19kTabRestoreNameHashE = hidden local_unnamed_addr constant i64 4112632899105915167, align 8
@_ZN3ukm8builders19Memory_Experimental28kTimeSinceLastNavigationNameE = hidden local_unnamed_addr constant [24 x i8] c"TimeSinceLastNavigation\00", align 16
@_ZN3ukm8builders19Memory_Experimental32kTimeSinceLastNavigationNameHashE = hidden local_unnamed_addr constant i64 -4508358121668147458, align 8
@_ZN3ukm8builders19Memory_Experimental34kTimeSinceLastVisibilityChangeNameE = hidden local_unnamed_addr constant [30 x i8] c"TimeSinceLastVisibilityChange\00", align 16
@_ZN3ukm8builders19Memory_Experimental38kTimeSinceLastVisibilityChangeNameHashE = hidden local_unnamed_addr constant i64 6720756525548063269, align 8
@_ZN3ukm8builders19Memory_Experimental34kTotal2_PrivateMemoryFootprintNameE = hidden local_unnamed_addr constant [30 x i8] c"Total2.PrivateMemoryFootprint\00", align 16
@_ZN3ukm8builders19Memory_Experimental38kTotal2_PrivateMemoryFootprintNameHashE = hidden local_unnamed_addr constant i64 3202306657284943476, align 8
@_ZN3ukm8builders19Memory_Experimental33kTotal2_SharedMemoryFootprintNameE = hidden local_unnamed_addr constant [29 x i8] c"Total2.SharedMemoryFootprint\00", align 16
@_ZN3ukm8builders19Memory_Experimental37kTotal2_SharedMemoryFootprintNameHashE = hidden local_unnamed_addr constant i64 -6095083842042538904, align 8
@_ZN3ukm8builders19Memory_Experimental7kUINameE = hidden local_unnamed_addr constant [3 x i8] c"UI\00", align 1
@_ZN3ukm8builders19Memory_Experimental11kUINameHashE = hidden local_unnamed_addr constant i64 8214408844178480006, align 8
@_ZN3ukm8builders19Memory_Experimental11kUptimeNameE = hidden local_unnamed_addr constant [7 x i8] c"Uptime\00", align 1
@_ZN3ukm8builders19Memory_Experimental15kUptimeNameHashE = hidden local_unnamed_addr constant i64 -3392122701970367248, align 8
@_ZN3ukm8builders19Memory_Experimental7kV8NameE = hidden local_unnamed_addr constant [3 x i8] c"V8\00", align 1
@_ZN3ukm8builders19Memory_Experimental11kV8NameHashE = hidden local_unnamed_addr constant i64 -1550333854404671841, align 8
@_ZN3ukm8builders19Memory_Experimental24kV8_AllocatedObjectsNameE = hidden local_unnamed_addr constant [20 x i8] c"V8.AllocatedObjects\00", align 16
@_ZN3ukm8builders19Memory_Experimental28kV8_AllocatedObjectsNameHashE = hidden local_unnamed_addr constant i64 -5678680447497835661, align 8
@_ZN3ukm8builders19Memory_Experimental12kV8_MainNameE = hidden local_unnamed_addr constant [8 x i8] c"V8.Main\00", align 1
@_ZN3ukm8builders19Memory_Experimental16kV8_MainNameHashE = hidden local_unnamed_addr constant i64 -2623974627661920297, align 8
@_ZN3ukm8builders19Memory_Experimental29kV8_Main_AllocatedObjectsNameE = hidden local_unnamed_addr constant [25 x i8] c"V8.Main.AllocatedObjects\00", align 16
@_ZN3ukm8builders19Memory_Experimental33kV8_Main_AllocatedObjectsNameHashE = hidden local_unnamed_addr constant i64 6415930962248516020, align 8
@_ZN3ukm8builders19Memory_Experimental26kV8_Main_GlobalHandlesNameE = hidden local_unnamed_addr constant [22 x i8] c"V8.Main.GlobalHandles\00", align 16
@_ZN3ukm8builders19Memory_Experimental30kV8_Main_GlobalHandlesNameHashE = hidden local_unnamed_addr constant i64 -2864920963737298725, align 8
@_ZN3ukm8builders19Memory_Experimental43kV8_Main_GlobalHandles_AllocatedObjectsNameE = hidden local_unnamed_addr constant [39 x i8] c"V8.Main.GlobalHandles.AllocatedObjects\00", align 16
@_ZN3ukm8builders19Memory_Experimental47kV8_Main_GlobalHandles_AllocatedObjectsNameHashE = hidden local_unnamed_addr constant i64 -5056219546958695123, align 8
@_ZN3ukm8builders19Memory_Experimental17kV8_Main_HeapNameE = hidden local_unnamed_addr constant [13 x i8] c"V8.Main.Heap\00", align 1
@_ZN3ukm8builders19Memory_Experimental21kV8_Main_HeapNameHashE = hidden local_unnamed_addr constant i64 1921939464854386930, align 8
@_ZN3ukm8builders19Memory_Experimental34kV8_Main_Heap_AllocatedObjectsNameE = hidden local_unnamed_addr constant [30 x i8] c"V8.Main.Heap.AllocatedObjects\00", align 16
@_ZN3ukm8builders19Memory_Experimental38kV8_Main_Heap_AllocatedObjectsNameHashE = hidden local_unnamed_addr constant i64 -47080388708615307, align 8
@_ZN3ukm8builders19Memory_Experimental38kV8_Main_Heap_CodeLargeObjectSpaceNameE = hidden local_unnamed_addr constant [34 x i8] c"V8.Main.Heap.CodeLargeObjectSpace\00", align 16
@_ZN3ukm8builders19Memory_Experimental42kV8_Main_Heap_CodeLargeObjectSpaceNameHashE = hidden local_unnamed_addr constant i64 -1952620171279163547, align 8
@_ZN3ukm8builders19Memory_Experimental55kV8_Main_Heap_CodeLargeObjectSpace_AllocatedObjectsNameE = hidden local_unnamed_addr constant [51 x i8] c"V8.Main.Heap.CodeLargeObjectSpace.AllocatedObjects\00", align 16
@_ZN3ukm8builders19Memory_Experimental59kV8_Main_Heap_CodeLargeObjectSpace_AllocatedObjectsNameHashE = hidden local_unnamed_addr constant i64 2364189807997549859, align 8
@_ZN3ukm8builders19Memory_Experimental27kV8_Main_Heap_CodeSpaceNameE = hidden local_unnamed_addr constant [23 x i8] c"V8.Main.Heap.CodeSpace\00", align 16
@_ZN3ukm8builders19Memory_Experimental31kV8_Main_Heap_CodeSpaceNameHashE = hidden local_unnamed_addr constant i64 -515348576174668467, align 8
@_ZN3ukm8builders19Memory_Experimental44kV8_Main_Heap_CodeSpace_AllocatedObjectsNameE = hidden local_unnamed_addr constant [40 x i8] c"V8.Main.Heap.CodeSpace.AllocatedObjects\00", align 16
@_ZN3ukm8builders19Memory_Experimental48kV8_Main_Heap_CodeSpace_AllocatedObjectsNameHashE = hidden local_unnamed_addr constant i64 8854776756506961912, align 8
@_ZN3ukm8builders19Memory_Experimental34kV8_Main_Heap_LargeObjectSpaceNameE = hidden local_unnamed_addr constant [30 x i8] c"V8.Main.Heap.LargeObjectSpace\00", align 16
@_ZN3ukm8builders19Memory_Experimental38kV8_Main_Heap_LargeObjectSpaceNameHashE = hidden local_unnamed_addr constant i64 -6695777950274425557, align 8
@_ZN3ukm8builders19Memory_Experimental51kV8_Main_Heap_LargeObjectSpace_AllocatedObjectsNameE = hidden local_unnamed_addr constant [47 x i8] c"V8.Main.Heap.LargeObjectSpace.AllocatedObjects\00", align 16
@_ZN3ukm8builders19Memory_Experimental55kV8_Main_Heap_LargeObjectSpace_AllocatedObjectsNameHashE = hidden local_unnamed_addr constant i64 -6882359730533262431, align 8
@_ZN3ukm8builders19Memory_Experimental26kV8_Main_Heap_MapSpaceNameE = hidden local_unnamed_addr constant [22 x i8] c"V8.Main.Heap.MapSpace\00", align 16
@_ZN3ukm8builders19Memory_Experimental30kV8_Main_Heap_MapSpaceNameHashE = hidden local_unnamed_addr constant i64 -6468132438283253297, align 8
@_ZN3ukm8builders19Memory_Experimental43kV8_Main_Heap_MapSpace_AllocatedObjectsNameE = hidden local_unnamed_addr constant [39 x i8] c"V8.Main.Heap.MapSpace.AllocatedObjects\00", align 16
@_ZN3ukm8builders19Memory_Experimental47kV8_Main_Heap_MapSpace_AllocatedObjectsNameHashE = hidden local_unnamed_addr constant i64 -1772336196740243812, align 8
@_ZN3ukm8builders19Memory_Experimental37kV8_Main_Heap_NewLargeObjectSpaceNameE = hidden local_unnamed_addr constant [33 x i8] c"V8.Main.Heap.NewLargeObjectSpace\00", align 16
@_ZN3ukm8builders19Memory_Experimental41kV8_Main_Heap_NewLargeObjectSpaceNameHashE = hidden local_unnamed_addr constant i64 834392200182619412, align 8
@_ZN3ukm8builders19Memory_Experimental54kV8_Main_Heap_NewLargeObjectSpace_AllocatedObjectsNameE = hidden local_unnamed_addr constant [50 x i8] c"V8.Main.Heap.NewLargeObjectSpace.AllocatedObjects\00", align 16
@_ZN3ukm8builders19Memory_Experimental58kV8_Main_Heap_NewLargeObjectSpace_AllocatedObjectsNameHashE = hidden local_unnamed_addr constant i64 -668449731992668382, align 8
@_ZN3ukm8builders19Memory_Experimental26kV8_Main_Heap_NewSpaceNameE = hidden local_unnamed_addr constant [22 x i8] c"V8.Main.Heap.NewSpace\00", align 16
@_ZN3ukm8builders19Memory_Experimental30kV8_Main_Heap_NewSpaceNameHashE = hidden local_unnamed_addr constant i64 -8125497592280137161, align 8
@_ZN3ukm8builders19Memory_Experimental43kV8_Main_Heap_NewSpace_AllocatedObjectsNameE = hidden local_unnamed_addr constant [39 x i8] c"V8.Main.Heap.NewSpace.AllocatedObjects\00", align 16
@_ZN3ukm8builders19Memory_Experimental47kV8_Main_Heap_NewSpace_AllocatedObjectsNameHashE = hidden local_unnamed_addr constant i64 -3629000416053144332, align 8
@_ZN3ukm8builders19Memory_Experimental26kV8_Main_Heap_OldSpaceNameE = hidden local_unnamed_addr constant [22 x i8] c"V8.Main.Heap.OldSpace\00", align 16
@_ZN3ukm8builders19Memory_Experimental30kV8_Main_Heap_OldSpaceNameHashE = hidden local_unnamed_addr constant i64 -7273309805691657309, align 8
@_ZN3ukm8builders19Memory_Experimental43kV8_Main_Heap_OldSpace_AllocatedObjectsNameE = hidden local_unnamed_addr constant [39 x i8] c"V8.Main.Heap.OldSpace.AllocatedObjects\00", align 16
@_ZN3ukm8builders19Memory_Experimental47kV8_Main_Heap_OldSpace_AllocatedObjectsNameHashE = hidden local_unnamed_addr constant i64 -2611683125214354109, align 8
@_ZN3ukm8builders19Memory_Experimental31kV8_Main_Heap_ReadOnlySpaceNameE = hidden local_unnamed_addr constant [27 x i8] c"V8.Main.Heap.ReadOnlySpace\00", align 16
@_ZN3ukm8builders19Memory_Experimental35kV8_Main_Heap_ReadOnlySpaceNameHashE = hidden local_unnamed_addr constant i64 4433186457491512075, align 8
@_ZN3ukm8builders19Memory_Experimental48kV8_Main_Heap_ReadOnlySpace_AllocatedObjectsNameE = hidden local_unnamed_addr constant [44 x i8] c"V8.Main.Heap.ReadOnlySpace.AllocatedObjects\00", align 16
@_ZN3ukm8builders19Memory_Experimental52kV8_Main_Heap_ReadOnlySpace_AllocatedObjectsNameHashE = hidden local_unnamed_addr constant i64 -8781027583917703384, align 8
@_ZN3ukm8builders19Memory_Experimental19kV8_Main_MallocNameE = hidden local_unnamed_addr constant [15 x i8] c"V8.Main.Malloc\00", align 1
@_ZN3ukm8builders19Memory_Experimental23kV8_Main_MallocNameHashE = hidden local_unnamed_addr constant i64 5158976984073464014, align 8
@_ZN3ukm8builders19Memory_Experimental15kV8_WorkersNameE = hidden local_unnamed_addr constant [11 x i8] c"V8.Workers\00", align 1
@_ZN3ukm8builders19Memory_Experimental19kV8_WorkersNameHashE = hidden local_unnamed_addr constant i64 8553202260117802914, align 8
@_ZN3ukm8builders19Memory_Experimental32kV8_Workers_AllocatedObjectsNameE = hidden local_unnamed_addr constant [28 x i8] c"V8.Workers.AllocatedObjects\00", align 16
@_ZN3ukm8builders19Memory_Experimental36kV8_Workers_AllocatedObjectsNameHashE = hidden local_unnamed_addr constant i64 -6269389475809107013, align 8
@_ZN3ukm8builders19Memory_Experimental13kWebCacheNameE = hidden local_unnamed_addr constant [9 x i8] c"WebCache\00", align 1
@_ZN3ukm8builders19Memory_Experimental17kWebCacheNameHashE = hidden local_unnamed_addr constant i64 -4958725842518945195, align 8
@_ZN3ukm8builders19Memory_Experimental36kWebCache_CSSStylesheetResourcesNameE = hidden local_unnamed_addr constant [32 x i8] c"WebCache.CSSStylesheetResources\00", align 16
@_ZN3ukm8builders19Memory_Experimental40kWebCache_CSSStylesheetResourcesNameHashE = hidden local_unnamed_addr constant i64 9097814082721146272, align 8
@_ZN3ukm8builders19Memory_Experimental45kWebCache_EncodedSizeDuplicatedInDataUrlsNameE = hidden local_unnamed_addr constant [41 x i8] c"WebCache.EncodedSizeDuplicatedInDataUrls\00", align 16
@_ZN3ukm8builders19Memory_Experimental49kWebCache_EncodedSizeDuplicatedInDataUrlsNameHashE = hidden local_unnamed_addr constant i64 -4303092425848980717, align 8
@_ZN3ukm8builders19Memory_Experimental27kWebCache_FontResourcesNameE = hidden local_unnamed_addr constant [23 x i8] c"WebCache.FontResources\00", align 16
@_ZN3ukm8builders19Memory_Experimental31kWebCache_FontResourcesNameHashE = hidden local_unnamed_addr constant i64 -8818597281363937299, align 8
@_ZN3ukm8builders19Memory_Experimental28kWebCache_ImageResourcesNameE = hidden local_unnamed_addr constant [24 x i8] c"WebCache.ImageResources\00", align 16
@_ZN3ukm8builders19Memory_Experimental32kWebCache_ImageResourcesNameHashE = hidden local_unnamed_addr constant i64 -8931733606856740933, align 8
@_ZN3ukm8builders19Memory_Experimental28kWebCache_OtherResourcesNameE = hidden local_unnamed_addr constant [24 x i8] c"WebCache.OtherResources\00", align 16
@_ZN3ukm8builders19Memory_Experimental32kWebCache_OtherResourcesNameHashE = hidden local_unnamed_addr constant i64 -714607482547025036, align 8
@_ZN3ukm8builders19Memory_Experimental29kWebCache_ScriptResourcesNameE = hidden local_unnamed_addr constant [25 x i8] c"WebCache.ScriptResources\00", align 16
@_ZN3ukm8builders19Memory_Experimental33kWebCache_ScriptResourcesNameHashE = hidden local_unnamed_addr constant i64 3925250771305782664, align 8
@_ZN3ukm8builders19Memory_Experimental25kWebCache_V8CodeCacheNameE = hidden local_unnamed_addr constant [21 x i8] c"WebCache.V8CodeCache\00", align 16
@_ZN3ukm8builders19Memory_Experimental29kWebCache_V8CodeCacheNameHashE = hidden local_unnamed_addr constant i64 -5664007963999624581, align 8
@_ZN3ukm8builders19Memory_Experimental36kWebCache_XSLStylesheetResourcesNameE = hidden local_unnamed_addr constant [32 x i8] c"WebCache.XSLStylesheetResources\00", align 16
@_ZN3ukm8builders19Memory_Experimental40kWebCache_XSLStylesheetResourcesNameHashE = hidden local_unnamed_addr constant i64 -5725052360511697050, align 8
@_ZN3ukm8builders19Memory_Experimental25kWebMediaPlayer_AudioNameE = hidden local_unnamed_addr constant [21 x i8] c"WebMediaPlayer.Audio\00", align 16
@_ZN3ukm8builders19Memory_Experimental29kWebMediaPlayer_AudioNameHashE = hidden local_unnamed_addr constant i64 -8635665883570687624, align 8
@_ZN3ukm8builders19Memory_Experimental30kWebMediaPlayer_DataSourceNameE = hidden local_unnamed_addr constant [26 x i8] c"WebMediaPlayer.DataSource\00", align 16
@_ZN3ukm8builders19Memory_Experimental34kWebMediaPlayer_DataSourceNameHashE = hidden local_unnamed_addr constant i64 7384723713952795180, align 8
@_ZN3ukm8builders19Memory_Experimental27kWebMediaPlayer_DemuxerNameE = hidden local_unnamed_addr constant [23 x i8] c"WebMediaPlayer.Demuxer\00", align 16
@_ZN3ukm8builders19Memory_Experimental31kWebMediaPlayer_DemuxerNameHashE = hidden local_unnamed_addr constant i64 -2538105375160400123, align 8
@_ZN3ukm8builders19Memory_Experimental25kWebMediaPlayer_VideoNameE = hidden local_unnamed_addr constant [21 x i8] c"WebMediaPlayer.Video\00", align 16
@_ZN3ukm8builders19Memory_Experimental29kWebMediaPlayer_VideoNameHashE = hidden local_unnamed_addr constant i64 -2317059209704987554, align 8
@_ZN3ukm8builders19Memory_TabFootprint10kEntryNameE = hidden local_unnamed_addr constant [20 x i8] c"Memory.TabFootprint\00", align 16
@_ZN3ukm8builders19Memory_TabFootprint14kEntryNameHashE = hidden local_unnamed_addr constant i64 -6015992179520957970, align 8
@_ZTVN3ukm8builders19Memory_TabFootprintE = hidden unnamed_addr constant { [4 x i8*] } { [4 x i8*] [i8* null, i8* null, i8* bitcast (void (%"class.ukm::builders::Memory_TabFootprint"*)* @_ZN3ukm8builders19Memory_TabFootprintD2Ev to i8*), i8* bitcast (void (%"class.ukm::builders::Memory_TabFootprint"*)* @_ZN3ukm8builders19Memory_TabFootprintD0Ev to i8*)] }, align 8
@_ZN3ukm8builders19Memory_TabFootprint24kMainFrameProcessPMFNameE = hidden local_unnamed_addr constant [20 x i8] c"MainFrameProcessPMF\00", align 16
@_ZN3ukm8builders19Memory_TabFootprint28kMainFrameProcessPMFNameHashE = hidden local_unnamed_addr constant i64 -5664799725122858419, align 8
@_ZN3ukm8builders19Memory_TabFootprint32kSubFrameProcessPMF_ExcludedNameE = hidden local_unnamed_addr constant [28 x i8] c"SubFrameProcessPMF.Excluded\00", align 16
@_ZN3ukm8builders19Memory_TabFootprint36kSubFrameProcessPMF_ExcludedNameHashE = hidden local_unnamed_addr constant i64 4544803109589615267, align 8
@_ZN3ukm8builders19Memory_TabFootprint32kSubFrameProcessPMF_IncludedNameE = hidden local_unnamed_addr constant [28 x i8] c"SubFrameProcessPMF.Included\00", align 16
@_ZN3ukm8builders19Memory_TabFootprint36kSubFrameProcessPMF_IncludedNameHashE = hidden local_unnamed_addr constant i64 -7948739532689395823, align 8
@_ZN3ukm8builders19Memory_TabFootprint29kSubFrameProcessPMF_TotalNameE = hidden local_unnamed_addr constant [25 x i8] c"SubFrameProcessPMF.Total\00", align 16
@_ZN3ukm8builders19Memory_TabFootprint33kSubFrameProcessPMF_TotalNameHashE = hidden local_unnamed_addr constant i64 -7188125178626190015, align 8
@_ZN3ukm8builders19Memory_TabFootprint11kTabPMFNameE = hidden local_unnamed_addr constant [7 x i8] c"TabPMF\00", align 1
@_ZN3ukm8builders19Memory_TabFootprint15kTabPMFNameHashE = hidden local_unnamed_addr constant i64 5878461021664314052, align 8
@_ZN3ukm8builders39MixedContentAutoupgrade_ResourceRequest10kEntryNameE = hidden local_unnamed_addr constant [40 x i8] c"MixedContentAutoupgrade.ResourceRequest\00", align 16
@_ZN3ukm8builders39MixedContentAutoupgrade_ResourceRequest14kEntryNameHashE = hidden local_unnamed_addr constant i64 -8500379563030666731, align 8
@_ZTVN3ukm8builders39MixedContentAutoupgrade_ResourceRequestE = hidden unnamed_addr constant { [4 x i8*] } { [4 x i8*] [i8* null, i8* null, i8* bitcast (void (%"class.ukm::builders::MixedContentAutoupgrade_ResourceRequest"*)* @_ZN3ukm8builders39MixedContentAutoupgrade_ResourceRequestD2Ev to i8*), i8* bitcast (void (%"class.ukm::builders::MixedContentAutoupgrade_ResourceRequest"*)* @_ZN3ukm8builders39MixedContentAutoupgrade_ResourceRequestD0Ev to i8*)] }, align 8
@_ZN3ukm8builders39MixedContentAutoupgrade_ResourceRequest9kCodeNameE = hidden local_unnamed_addr constant [5 x i8] c"Code\00", align 1
@_ZN3ukm8builders39MixedContentAutoupgrade_ResourceRequest13kCodeNameHashE = hidden local_unnamed_addr constant i64 -3887245461466690769, align 8
@_ZN3ukm8builders39MixedContentAutoupgrade_ResourceRequest11kStatusNameE = hidden local_unnamed_addr constant [7 x i8] c"Status\00", align 1
@_ZN3ukm8builders39MixedContentAutoupgrade_ResourceRequest15kStatusNameHashE = hidden local_unnamed_addr constant i64 -1417603893889880363, align 8
@_ZN3ukm8builders18MobileFriendliness10kEntryNameE = hidden local_unnamed_addr constant [19 x i8] c"MobileFriendliness\00", align 16
@_ZN3ukm8builders18MobileFriendliness14kEntryNameHashE = hidden local_unnamed_addr constant i64 2031262019788538998, align 8
@_ZTVN3ukm8builders18MobileFriendlinessE = hidden unnamed_addr constant { [4 x i8*] } { [4 x i8*] [i8* null, i8* null, i8* bitcast (void (%"class.ukm::builders::MobileFriendliness"*)* @_ZN3ukm8builders18MobileFriendlinessD2Ev to i8*), i8* bitcast (void (%"class.ukm::builders::MobileFriendliness"*)* @_ZN3ukm8builders18MobileFriendlinessD0Ev to i8*)] }, align 8
@_ZN3ukm8builders18MobileFriendliness18kAllowUserZoomNameE = hidden local_unnamed_addr constant [14 x i8] c"AllowUserZoom\00", align 1
@_ZN3ukm8builders18MobileFriendliness22kAllowUserZoomNameHashE = hidden local_unnamed_addr constant i64 -4303996428002400597, align 8
@_ZN3ukm8builders18MobileFriendliness23kBadTapTargetsRatioNameE = hidden local_unnamed_addr constant [19 x i8] c"BadTapTargetsRatio\00", align 16
@_ZN3ukm8builders18MobileFriendliness27kBadTapTargetsRatioNameHashE = hidden local_unnamed_addr constant i64 -7437197049629027538, align 8
@_ZN3ukm8builders18MobileFriendliness19kSmallTextRatioNameE = hidden local_unnamed_addr constant [15 x i8] c"SmallTextRatio\00", align 1
@_ZN3ukm8builders18MobileFriendliness23kSmallTextRatioNameHashE = hidden local_unnamed_addr constant i64 5694740463845988499, align 8
@_ZN3ukm8builders18MobileFriendliness41kTextContentOutsideViewportPercentageNameE = hidden local_unnamed_addr constant [37 x i8] c"TextContentOutsideViewportPercentage\00", align 16
@_ZN3ukm8builders18MobileFriendliness45kTextContentOutsideViewportPercentageNameHashE = hidden local_unnamed_addr constant i64 -5074853110999558035, align 8
@_ZN3ukm8builders18MobileFriendliness24kViewportDeviceWidthNameE = hidden local_unnamed_addr constant [20 x i8] c"ViewportDeviceWidth\00", align 16
@_ZN3ukm8builders18MobileFriendliness28kViewportDeviceWidthNameHashE = hidden local_unnamed_addr constant i64 -1009975167300625713, align 8
@_ZN3ukm8builders18MobileFriendliness27kViewportHardcodedWidthNameE = hidden local_unnamed_addr constant [23 x i8] c"ViewportHardcodedWidth\00", align 16
@_ZN3ukm8builders18MobileFriendliness31kViewportHardcodedWidthNameHashE = hidden local_unnamed_addr constant i64 8491227714119818609, align 8
@_ZN3ukm8builders18MobileFriendliness28kViewportInitialScaleX10NameE = hidden local_unnamed_addr constant [24 x i8] c"ViewportInitialScaleX10\00", align 16
@_ZN3ukm8builders18MobileFriendliness32kViewportInitialScaleX10NameHashE = hidden local_unnamed_addr constant i64 -8102570874513853483, align 8
@_ZN3ukm8builders22MobileMenu_DirectShare10kEntryNameE = hidden local_unnamed_addr constant [23 x i8] c"MobileMenu.DirectShare\00", align 16
@_ZN3ukm8builders22MobileMenu_DirectShare14kEntryNameHashE = hidden local_unnamed_addr constant i64 -8123087291928980713, align 8
@_ZTVN3ukm8builders22MobileMenu_DirectShareE = hidden unnamed_addr constant { [4 x i8*] } { [4 x i8*] [i8* null, i8* null, i8* bitcast (void (%"class.ukm::builders::MobileMenu_DirectShare"*)* @_ZN3ukm8builders22MobileMenu_DirectShareD2Ev to i8*), i8* bitcast (void (%"class.ukm::builders::MobileMenu_DirectShare"*)* @_ZN3ukm8builders22MobileMenu_DirectShareD0Ev to i8*)] }, align 8
@_ZN3ukm8builders22MobileMenu_DirectShare16kHasOccurredNameE = hidden local_unnamed_addr constant [12 x i8] c"HasOccurred\00", align 1
@_ZN3ukm8builders22MobileMenu_DirectShare20kHasOccurredNameHashE = hidden local_unnamed_addr constant i64 1401967873843414280, align 8
@_ZN3ukm8builders21MobileMenu_FindInPage10kEntryNameE = hidden local_unnamed_addr constant [22 x i8] c"MobileMenu.FindInPage\00", align 16
@_ZN3ukm8builders21MobileMenu_FindInPage14kEntryNameHashE = hidden local_unnamed_addr constant i64 317096594738729330, align 8
@_ZTVN3ukm8builders21MobileMenu_FindInPageE = hidden unnamed_addr constant { [4 x i8*] } { [4 x i8*] [i8* null, i8* null, i8* bitcast (void (%"class.ukm::builders::MobileMenu_FindInPage"*)* @_ZN3ukm8builders21MobileMenu_FindInPageD2Ev to i8*), i8* bitcast (void (%"class.ukm::builders::MobileMenu_FindInPage"*)* @_ZN3ukm8builders21MobileMenu_FindInPageD0Ev to i8*)] }, align 8
@_ZN3ukm8builders21MobileMenu_FindInPage16kHasOccurredNameE = hidden local_unnamed_addr constant [12 x i8] c"HasOccurred\00", align 1
@_ZN3ukm8builders21MobileMenu_FindInPage20kHasOccurredNameHashE = hidden local_unnamed_addr constant i64 1401967873843414280, align 8
@_ZN3ukm8builders16MobileMenu_Share10kEntryNameE = hidden local_unnamed_addr constant [17 x i8] c"MobileMenu.Share\00", align 16
@_ZN3ukm8builders16MobileMenu_Share14kEntryNameHashE = hidden local_unnamed_addr constant i64 -1813987271253078406, align 8
@_ZTVN3ukm8builders16MobileMenu_ShareE = hidden unnamed_addr constant { [4 x i8*] } { [4 x i8*] [i8* null, i8* null, i8* bitcast (void (%"class.ukm::builders::MobileMenu_Share"*)* @_ZN3ukm8builders16MobileMenu_ShareD2Ev to i8*), i8* bitcast (void (%"class.ukm::builders::MobileMenu_Share"*)* @_ZN3ukm8builders16MobileMenu_ShareD0Ev to i8*)] }, align 8
@_ZN3ukm8builders16MobileMenu_Share16kHasOccurredNameE = hidden local_unnamed_addr constant [12 x i8] c"HasOccurred\00", align 1
@_ZN3ukm8builders16MobileMenu_Share20kHasOccurredNameHashE = hidden local_unnamed_addr constant i64 1401967873843414280, align 8
@_ZN3ukm8builders39NavigationPredictorAnchorElementMetrics10kEntryNameE = hidden local_unnamed_addr constant [40 x i8] c"NavigationPredictorAnchorElementMetrics\00", align 16
@_ZN3ukm8builders39NavigationPredictorAnchorElementMetrics14kEntryNameHashE = hidden local_unnamed_addr constant i64 4064735116116070675, align 8
@_ZTVN3ukm8builders39NavigationPredictorAnchorElementMetricsE = hidden unnamed_addr constant { [4 x i8*] } { [4 x i8*] [i8* null, i8* null, i8* bitcast (void (%"class.ukm::builders::NavigationPredictorAnchorElementMetrics"*)* @_ZN3ukm8builders39NavigationPredictorAnchorElementMetricsD2Ev to i8*), i8* bitcast (void (%"class.ukm::builders::NavigationPredictorAnchorElementMetrics"*)* @_ZN3ukm8builders39NavigationPredictorAnchorElementMetricsD0Ev to i8*)] }, align 8
@_ZN3ukm8builders39NavigationPredictorAnchorElementMetrics16kAnchorIndexNameE = hidden local_unnamed_addr constant [12 x i8] c"AnchorIndex\00", align 1
@_ZN3ukm8builders39NavigationPredictorAnchorElementMetrics20kAnchorIndexNameHashE = hidden local_unnamed_addr constant i64 -9048860036671245767, align 8
@_ZN3ukm8builders39NavigationPredictorAnchorElementMetrics21kBucketedPathHashNameE = hidden local_unnamed_addr constant [17 x i8] c"BucketedPathHash\00", align 16
@_ZN3ukm8builders39NavigationPredictorAnchorElementMetrics25kBucketedPathHashNameHashE = hidden local_unnamed_addr constant i64 8736781991002893450, align 8
@_ZN3ukm8builders39NavigationPredictorAnchorElementMetrics18kContainsImageNameE = hidden local_unnamed_addr constant [14 x i8] c"ContainsImage\00", align 1
@_ZN3ukm8builders39NavigationPredictorAnchorElementMetrics22kContainsImageNameHashE = hidden local_unnamed_addr constant i64 -2005105107856296256, align 8
@_ZN3ukm8builders39NavigationPredictorAnchorElementMetrics13kFontSizeNameE = hidden local_unnamed_addr constant [9 x i8] c"FontSize\00", align 1
@_ZN3ukm8builders39NavigationPredictorAnchorElementMetrics17kFontSizeNameHashE = hidden local_unnamed_addr constant i64 2643658496925572245, align 8
@_ZN3ukm8builders39NavigationPredictorAnchorElementMetrics19kHasTextSiblingNameE = hidden local_unnamed_addr constant [15 x i8] c"HasTextSibling\00", align 1
@_ZN3ukm8builders39NavigationPredictorAnchorElementMetrics23kHasTextSiblingNameHashE = hidden local_unnamed_addr constant i64 5766907595008553355, align 8
@_ZN3ukm8builders39NavigationPredictorAnchorElementMetrics11kIsBoldNameE = hidden local_unnamed_addr constant [7 x i8] c"IsBold\00", align 1
@_ZN3ukm8builders39NavigationPredictorAnchorElementMetrics15kIsBoldNameHashE = hidden local_unnamed_addr constant i64 4144648385448633082, align 8
@_ZN3ukm8builders39NavigationPredictorAnchorElementMetrics15kIsInIframeNameE = hidden local_unnamed_addr constant [11 x i8] c"IsInIframe\00", align 1
@_ZN3ukm8builders39NavigationPredictorAnchorElementMetrics19kIsInIframeNameHashE = hidden local_unnamed_addr constant i64 2879927029285282397, align 8
@_ZN3ukm8builders39NavigationPredictorAnchorElementMetrics26kIsURLIncrementedByOneNameE = hidden local_unnamed_addr constant [22 x i8] c"IsURLIncrementedByOne\00", align 16
@_ZN3ukm8builders39NavigationPredictorAnchorElementMetrics30kIsURLIncrementedByOneNameHashE = hidden local_unnamed_addr constant i64 3472078046519927012, align 8
@_ZN3ukm8builders39NavigationPredictorAnchorElementMetrics34kNavigationStartToLinkLoggedMsNameE = hidden local_unnamed_addr constant [30 x i8] c"NavigationStartToLinkLoggedMs\00", align 16
@_ZN3ukm8builders39NavigationPredictorAnchorElementMetrics38kNavigationStartToLinkLoggedMsNameHashE = hidden local_unnamed_addr constant i64 2339728805912802951, align 8
@_ZN3ukm8builders39NavigationPredictorAnchorElementMetrics14kPathDepthNameE = hidden local_unnamed_addr constant [10 x i8] c"PathDepth\00", align 1
@_ZN3ukm8builders39NavigationPredictorAnchorElementMetrics18kPathDepthNameHashE = hidden local_unnamed_addr constant i64 5175545670794720336, align 8
@_ZN3ukm8builders39NavigationPredictorAnchorElementMetrics15kPathLengthNameE = hidden local_unnamed_addr constant [11 x i8] c"PathLength\00", align 1
@_ZN3ukm8builders39NavigationPredictorAnchorElementMetrics19kPathLengthNameHashE = hidden local_unnamed_addr constant i64 1889323937569217530, align 8
@_ZN3ukm8builders39NavigationPredictorAnchorElementMetrics25kPercentClickableAreaNameE = hidden local_unnamed_addr constant [21 x i8] c"PercentClickableArea\00", align 16
@_ZN3ukm8builders39NavigationPredictorAnchorElementMetrics29kPercentClickableAreaNameHashE = hidden local_unnamed_addr constant i64 -6284243148640024057, align 8
@_ZN3ukm8builders39NavigationPredictorAnchorElementMetrics28kPercentVerticalDistanceNameE = hidden local_unnamed_addr constant [24 x i8] c"PercentVerticalDistance\00", align 16
@_ZN3ukm8builders39NavigationPredictorAnchorElementMetrics32kPercentVerticalDistanceNameHashE = hidden local_unnamed_addr constant i64 -3467086660514388160, align 8
@_ZN3ukm8builders39NavigationPredictorAnchorElementMetrics15kSameOriginNameE = hidden local_unnamed_addr constant [11 x i8] c"SameOrigin\00", align 1
@_ZN3ukm8builders39NavigationPredictorAnchorElementMetrics19kSameOriginNameHashE = hidden local_unnamed_addr constant i64 3198866256218607801, align 8
@_ZN3ukm8builders32NavigationPredictorPageLinkClick10kEntryNameE = hidden local_unnamed_addr constant [33 x i8] c"NavigationPredictorPageLinkClick\00", align 16
@_ZN3ukm8builders32NavigationPredictorPageLinkClick14kEntryNameHashE = hidden local_unnamed_addr constant i64 -7670828429001661727, align 8
@_ZTVN3ukm8builders32NavigationPredictorPageLinkClickE = hidden unnamed_addr constant { [4 x i8*] } { [4 x i8*] [i8* null, i8* null, i8* bitcast (void (%"class.ukm::builders::NavigationPredictorPageLinkClick"*)* @_ZN3ukm8builders32NavigationPredictorPageLinkClickD2Ev to i8*), i8* bitcast (void (%"class.ukm::builders::NavigationPredictorPageLinkClick"*)* @_ZN3ukm8builders32NavigationPredictorPageLinkClickD0Ev to i8*)] }, align 8
@_ZN3ukm8builders32NavigationPredictorPageLinkClick23kAnchorElementIndexNameE = hidden local_unnamed_addr constant [19 x i8] c"AnchorElementIndex\00", align 16
@_ZN3ukm8builders32NavigationPredictorPageLinkClick27kAnchorElementIndexNameHashE = hidden local_unnamed_addr constant i64 -7968136504846480340, align 8
@_ZN3ukm8builders32NavigationPredictorPageLinkClick18kHrefUnchangedNameE = hidden local_unnamed_addr constant [14 x i8] c"HrefUnchanged\00", align 1
@_ZN3ukm8builders32NavigationPredictorPageLinkClick22kHrefUnchangedNameHashE = hidden local_unnamed_addr constant i64 3501437891647978003, align 8
@_ZN3ukm8builders34NavigationPredictorPageLinkMetrics10kEntryNameE = hidden local_unnamed_addr constant [35 x i8] c"NavigationPredictorPageLinkMetrics\00", align 16
@_ZN3ukm8builders34NavigationPredictorPageLinkMetrics14kEntryNameHashE = hidden local_unnamed_addr constant i64 367468233168747720, align 8
@_ZTVN3ukm8builders34NavigationPredictorPageLinkMetricsE = hidden unnamed_addr constant { [4 x i8*] } { [4 x i8*] [i8* null, i8* null, i8* bitcast (void (%"class.ukm::builders::NavigationPredictorPageLinkMetrics"*)* @_ZN3ukm8builders34NavigationPredictorPageLinkMetricsD2Ev to i8*), i8* bitcast (void (%"class.ukm::builders::NavigationPredictorPageLinkMetrics"*)* @_ZN3ukm8builders34NavigationPredictorPageLinkMetricsD0Ev to i8*)] }, align 8
@_ZN3ukm8builders34NavigationPredictorPageLinkMetrics23kMedianLinkLocationNameE = hidden local_unnamed_addr constant [19 x i8] c"MedianLinkLocation\00", align 16
@_ZN3ukm8builders34NavigationPredictorPageLinkMetrics27kMedianLinkLocationNameHashE = hidden local_unnamed_addr constant i64 -7954627416995133850, align 8
@_ZN3ukm8builders34NavigationPredictorPageLinkMetrics34kNumberOfAnchors_ContainsImageNameE = hidden local_unnamed_addr constant [30 x i8] c"NumberOfAnchors.ContainsImage\00", align 16
@_ZN3ukm8builders34NavigationPredictorPageLinkMetrics38kNumberOfAnchors_ContainsImageNameHashE = hidden local_unnamed_addr constant i64 924687343626407188, align 8
@_ZN3ukm8builders34NavigationPredictorPageLinkMetrics29kNumberOfAnchors_InIframeNameE = hidden local_unnamed_addr constant [25 x i8] c"NumberOfAnchors.InIframe\00", align 16
@_ZN3ukm8builders34NavigationPredictorPageLinkMetrics33kNumberOfAnchors_InIframeNameHashE = hidden local_unnamed_addr constant i64 6586263068289067744, align 8
@_ZN3ukm8builders34NavigationPredictorPageLinkMetrics29kNumberOfAnchors_SameHostNameE = hidden local_unnamed_addr constant [25 x i8] c"NumberOfAnchors.SameHost\00", align 16
@_ZN3ukm8builders34NavigationPredictorPageLinkMetrics33kNumberOfAnchors_SameHostNameHashE = hidden local_unnamed_addr constant i64 6024206236807188452, align 8
@_ZN3ukm8builders34NavigationPredictorPageLinkMetrics26kNumberOfAnchors_TotalNameE = hidden local_unnamed_addr constant [22 x i8] c"NumberOfAnchors.Total\00", align 16
@_ZN3ukm8builders34NavigationPredictorPageLinkMetrics30kNumberOfAnchors_TotalNameHashE = hidden local_unnamed_addr constant i64 2837656844888606476, align 8
@_ZN3ukm8builders34NavigationPredictorPageLinkMetrics35kNumberOfAnchors_URLIncrementedNameE = hidden local_unnamed_addr constant [31 x i8] c"NumberOfAnchors.URLIncremented\00", align 16
@_ZN3ukm8builders34NavigationPredictorPageLinkMetrics39kNumberOfAnchors_URLIncrementedNameHashE = hidden local_unnamed_addr constant i64 4900312954566928460, align 8
@_ZN3ukm8builders34NavigationPredictorPageLinkMetrics24kTotalClickableSpaceNameE = hidden local_unnamed_addr constant [20 x i8] c"TotalClickableSpace\00", align 16
@_ZN3ukm8builders34NavigationPredictorPageLinkMetrics28kTotalClickableSpaceNameHashE = hidden local_unnamed_addr constant i64 1923089912871098586, align 8
@_ZN3ukm8builders34NavigationPredictorPageLinkMetrics20kViewport_HeightNameE = hidden local_unnamed_addr constant [16 x i8] c"Viewport.Height\00", align 16
@_ZN3ukm8builders34NavigationPredictorPageLinkMetrics24kViewport_HeightNameHashE = hidden local_unnamed_addr constant i64 6402799756853104710, align 8
@_ZN3ukm8builders34NavigationPredictorPageLinkMetrics19kViewport_WidthNameE = hidden local_unnamed_addr constant [15 x i8] c"Viewport.Width\00", align 1
@_ZN3ukm8builders34NavigationPredictorPageLinkMetrics23kViewport_WidthNameHashE = hidden local_unnamed_addr constant i64 2201646688798995121, align 8
@_ZN3ukm8builders16NavigationTiming10kEntryNameE = hidden local_unnamed_addr constant [17 x i8] c"NavigationTiming\00", align 16
@_ZN3ukm8builders16NavigationTiming14kEntryNameHashE = hidden local_unnamed_addr constant i64 -8192918288246346398, align 8
@_ZTVN3ukm8builders16NavigationTimingE = hidden unnamed_addr constant { [4 x i8*] } { [4 x i8*] [i8* null, i8* null, i8* bitcast (void (%"class.ukm::builders::NavigationTiming"*)* @_ZN3ukm8builders16NavigationTimingD2Ev to i8*), i8* bitcast (void (%"class.ukm::builders::NavigationTiming"*)* @_ZN3ukm8builders16NavigationTimingD0Ev to i8*)] }, align 8
@_ZN3ukm8builders16NavigationTiming30kEarlyHintsForFinalRequestNameE = hidden local_unnamed_addr constant [26 x i8] c"EarlyHintsForFinalRequest\00", align 16
@_ZN3ukm8builders16NavigationTiming34kEarlyHintsForFinalRequestNameHashE = hidden local_unnamed_addr constant i64 5092628848011672940, align 8
@_ZN3ukm8builders16NavigationTiming30kEarlyHintsForFirstRequestNameE = hidden local_unnamed_addr constant [26 x i8] c"EarlyHintsForFirstRequest\00", align 16
@_ZN3ukm8builders16NavigationTiming34kEarlyHintsForFirstRequestNameHashE = hidden local_unnamed_addr constant i64 311721564212070322, align 8
@_ZN3ukm8builders16NavigationTiming24kFinalLoaderCallbackNameE = hidden local_unnamed_addr constant [20 x i8] c"FinalLoaderCallback\00", align 16
@_ZN3ukm8builders16NavigationTiming28kFinalLoaderCallbackNameHashE = hidden local_unnamed_addr constant i64 6374469588262495910, align 8
@_ZN3ukm8builders16NavigationTiming22kFinalRequestStartNameE = hidden local_unnamed_addr constant [18 x i8] c"FinalRequestStart\00", align 16
@_ZN3ukm8builders16NavigationTiming26kFinalRequestStartNameHashE = hidden local_unnamed_addr constant i64 -6631344128355457470, align 8
@_ZN3ukm8builders16NavigationTiming23kFinalResponseStartNameE = hidden local_unnamed_addr constant [19 x i8] c"FinalResponseStart\00", align 16
@_ZN3ukm8builders16NavigationTiming27kFinalResponseStartNameHashE = hidden local_unnamed_addr constant i64 -4531396662273464270, align 8
@_ZN3ukm8builders16NavigationTiming24kFirstLoaderCallbackNameE = hidden local_unnamed_addr constant [20 x i8] c"FirstLoaderCallback\00", align 16
@_ZN3ukm8builders16NavigationTiming28kFirstLoaderCallbackNameHashE = hidden local_unnamed_addr constant i64 -2826932748565614044, align 8
@_ZN3ukm8builders16NavigationTiming22kFirstRequestStartNameE = hidden local_unnamed_addr constant [18 x i8] c"FirstRequestStart\00", align 16
@_ZN3ukm8builders16NavigationTiming26kFirstRequestStartNameHashE = hidden local_unnamed_addr constant i64 8607578836164150031, align 8
@_ZN3ukm8builders16NavigationTiming23kFirstResponseStartNameE = hidden local_unnamed_addr constant [19 x i8] c"FirstResponseStart\00", align 16
@_ZN3ukm8builders16NavigationTiming27kFirstResponseStartNameHashE = hidden local_unnamed_addr constant i64 -5525135585814608432, align 8
@_ZN3ukm8builders16NavigationTiming25kNavigationCommitSentNameE = hidden local_unnamed_addr constant [21 x i8] c"NavigationCommitSent\00", align 16
@_ZN3ukm8builders16NavigationTiming29kNavigationCommitSentNameHashE = hidden local_unnamed_addr constant i64 -7690750861686413247, align 8
@_ZN3ukm8builders20Net_LegacyTLSVersion10kEntryNameE = hidden local_unnamed_addr constant [21 x i8] c"Net.LegacyTLSVersion\00", align 16
@_ZN3ukm8builders20Net_LegacyTLSVersion14kEntryNameHashE = hidden local_unnamed_addr constant i64 83722319975286136, align 8
@_ZTVN3ukm8builders20Net_LegacyTLSVersionE = hidden unnamed_addr constant { [4 x i8*] } { [4 x i8*] [i8* null, i8* null, i8* bitcast (void (%"class.ukm::builders::Net_LegacyTLSVersion"*)* @_ZN3ukm8builders20Net_LegacyTLSVersionD2Ev to i8*), i8* bitcast (void (%"class.ukm::builders::Net_LegacyTLSVersion"*)* @_ZN3ukm8builders20Net_LegacyTLSVersionD0Ev to i8*)] }, align 8
@_ZN3ukm8builders20Net_LegacyTLSVersion17kIsAdResourceNameE = hidden local_unnamed_addr constant [13 x i8] c"IsAdResource\00", align 1
@_ZN3ukm8builders20Net_LegacyTLSVersion21kIsAdResourceNameHashE = hidden local_unnamed_addr constant i64 -8997167219842358161, align 8
@_ZN3ukm8builders20Net_LegacyTLSVersion16kIsMainFrameNameE = hidden local_unnamed_addr constant [12 x i8] c"IsMainFrame\00", align 1
@_ZN3ukm8builders20Net_LegacyTLSVersion20kIsMainFrameNameHashE = hidden local_unnamed_addr constant i64 7266626398784684486, align 8
@_ZN3ukm8builders20Net_LegacyTLSVersion18kIsSubresourceNameE = hidden local_unnamed_addr constant [14 x i8] c"IsSubresource\00", align 1
@_ZN3ukm8builders20Net_LegacyTLSVersion22kIsSubresourceNameHashE = hidden local_unnamed_addr constant i64 -8762430444497217645, align 8
@_ZN3ukm8builders15NoStatePrefetch10kEntryNameE = hidden local_unnamed_addr constant [16 x i8] c"NoStatePrefetch\00", align 16
@_ZN3ukm8builders15NoStatePrefetch14kEntryNameHashE = hidden local_unnamed_addr constant i64 5007192410804132260, align 8
@_ZTVN3ukm8builders15NoStatePrefetchE = hidden unnamed_addr constant { [4 x i8*] } { [4 x i8*] [i8* null, i8* null, i8* bitcast (void (%"class.ukm::builders::NoStatePrefetch"*)* @_ZN3ukm8builders15NoStatePrefetchD2Ev to i8*), i8* bitcast (void (%"class.ukm::builders::NoStatePrefetch"*)* @_ZN3ukm8builders15NoStatePrefetchD0Ev to i8*)] }, align 8
@_ZN3ukm8builders15NoStatePrefetch35kPrefetchedRecently_FinalStatusNameE = hidden local_unnamed_addr constant [31 x i8] c"PrefetchedRecently.FinalStatus\00", align 16
@_ZN3ukm8builders15NoStatePrefetch39kPrefetchedRecently_FinalStatusNameHashE = hidden local_unnamed_addr constant i64 -8650272226060282866, align 8
@_ZN3ukm8builders15NoStatePrefetch30kPrefetchedRecently_OriginNameE = hidden local_unnamed_addr constant [26 x i8] c"PrefetchedRecently.Origin\00", align 16
@_ZN3ukm8builders15NoStatePrefetch34kPrefetchedRecently_OriginNameHashE = hidden local_unnamed_addr constant i64 2530841639179133763, align 8
@_ZN3ukm8builders15NoStatePrefetch35kPrefetchedRecently_PrefetchAgeNameE = hidden local_unnamed_addr constant [31 x i8] c"PrefetchedRecently.PrefetchAge\00", align 16
@_ZN3ukm8builders15NoStatePrefetch39kPrefetchedRecently_PrefetchAgeNameHashE = hidden local_unnamed_addr constant i64 -8023772648311652209, align 8
@_ZN3ukm8builders12Notification10kEntryNameE = hidden local_unnamed_addr constant [13 x i8] c"Notification\00", align 1
@_ZN3ukm8builders12Notification14kEntryNameHashE = hidden local_unnamed_addr constant i64 -7579548434429113515, align 8
@_ZTVN3ukm8builders12NotificationE = hidden unnamed_addr constant { [4 x i8*] } { [4 x i8*] [i8* null, i8* null, i8* bitcast (void (%"class.ukm::builders::Notification"*)* @_ZN3ukm8builders12NotificationD2Ev to i8*), i8* bitcast (void (%"class.ukm::builders::Notification"*)* @_ZN3ukm8builders12NotificationD0Ev to i8*)] }, align 8
@_ZN3ukm8builders12Notification17kClosedReasonNameE = hidden local_unnamed_addr constant [13 x i8] c"ClosedReason\00", align 1
@_ZN3ukm8builders12Notification21kClosedReasonNameHashE = hidden local_unnamed_addr constant i64 -1426012782668150232, align 8
@_ZN3ukm8builders12Notification34kDidReplaceAnotherNotificationNameE = hidden local_unnamed_addr constant [30 x i8] c"DidReplaceAnotherNotification\00", align 16
@_ZN3ukm8builders12Notification38kDidReplaceAnotherNotificationNameHashE = hidden local_unnamed_addr constant i64 -3749432013274728212, align 8
@_ZN3ukm8builders12Notification24kDidUserOpenSettingsNameE = hidden local_unnamed_addr constant [20 x i8] c"DidUserOpenSettings\00", align 16
@_ZN3ukm8builders12Notification28kDidUserOpenSettingsNameHashE = hidden local_unnamed_addr constant i64 -5989049115097321880, align 8
@_ZN3ukm8builders12Notification13kHasBadgeNameE = hidden local_unnamed_addr constant [9 x i8] c"HasBadge\00", align 1
@_ZN3ukm8builders12Notification17kHasBadgeNameHashE = hidden local_unnamed_addr constant i64 1404314928722833713, align 8
@_ZN3ukm8builders12Notification12kHasIconNameE = hidden local_unnamed_addr constant [8 x i8] c"HasIcon\00", align 1
@_ZN3ukm8builders12Notification16kHasIconNameHashE = hidden local_unnamed_addr constant i64 4132654540182426756, align 8
@_ZN3ukm8builders12Notification13kHasImageNameE = hidden local_unnamed_addr constant [9 x i8] c"HasImage\00", align 1
@_ZN3ukm8builders12Notification17kHasImageNameHashE = hidden local_unnamed_addr constant i64 -2780170561508532880, align 8
@_ZN3ukm8builders12Notification16kHasRenotifyNameE = hidden local_unnamed_addr constant [12 x i8] c"HasRenotify\00", align 1
@_ZN3ukm8builders12Notification20kHasRenotifyNameHashE = hidden local_unnamed_addr constant i64 1255778828920234902, align 8
@_ZN3ukm8builders12Notification11kHasTagNameE = hidden local_unnamed_addr constant [7 x i8] c"HasTag\00", align 1
@_ZN3ukm8builders12Notification15kHasTagNameHashE = hidden local_unnamed_addr constant i64 -8043322728912452030, align 8
@_ZN3ukm8builders12Notification13kIsSilentNameE = hidden local_unnamed_addr constant [9 x i8] c"IsSilent\00", align 1
@_ZN3ukm8builders12Notification17kIsSilentNameHashE = hidden local_unnamed_addr constant i64 -5835450024282430951, align 8
@_ZN3ukm8builders12Notification26kNumActionButtonClicksNameE = hidden local_unnamed_addr constant [22 x i8] c"NumActionButtonClicks\00", align 16
@_ZN3ukm8builders12Notification30kNumActionButtonClicksNameHashE = hidden local_unnamed_addr constant i64 -3046625320756029994, align 8
@_ZN3ukm8builders12Notification15kNumActionsNameE = hidden local_unnamed_addr constant [11 x i8] c"NumActions\00", align 1
@_ZN3ukm8builders12Notification19kNumActionsNameHashE = hidden local_unnamed_addr constant i64 1524089126526666739, align 8
@_ZN3ukm8builders12Notification14kNumClicksNameE = hidden local_unnamed_addr constant [10 x i8] c"NumClicks\00", align 1
@_ZN3ukm8builders12Notification18kNumClicksNameHashE = hidden local_unnamed_addr constant i64 7685741146111146271, align 8
@_ZN3ukm8builders12Notification23kRequireInteractionNameE = hidden local_unnamed_addr constant [19 x i8] c"RequireInteraction\00", align 16
@_ZN3ukm8builders12Notification27kRequireInteractionNameHashE = hidden local_unnamed_addr constant i64 1417488390737291945, align 8
@_ZN3ukm8builders12Notification19kTimeUntilCloseNameE = hidden local_unnamed_addr constant [15 x i8] c"TimeUntilClose\00", align 1
@_ZN3ukm8builders12Notification23kTimeUntilCloseNameHashE = hidden local_unnamed_addr constant i64 -6446836646813293289, align 8
@_ZN3ukm8builders12Notification24kTimeUntilFirstClickNameE = hidden local_unnamed_addr constant [20 x i8] c"TimeUntilFirstClick\00", align 16
@_ZN3ukm8builders12Notification28kTimeUntilFirstClickNameHashE = hidden local_unnamed_addr constant i64 5643047780569843127, align 8
@_ZN3ukm8builders12Notification23kTimeUntilLastClickNameE = hidden local_unnamed_addr constant [19 x i8] c"TimeUntilLastClick\00", align 16
@_ZN3ukm8builders12Notification27kTimeUntilLastClickNameHashE = hidden local_unnamed_addr constant i64 -7270942756295070752, align 8
@_ZN3ukm8builders17OptimizationGuide10kEntryNameE = hidden local_unnamed_addr constant [18 x i8] c"OptimizationGuide\00", align 16
@_ZN3ukm8builders17OptimizationGuide14kEntryNameHashE = hidden local_unnamed_addr constant i64 2087579403365801585, align 8
@_ZTVN3ukm8builders17OptimizationGuideE = hidden unnamed_addr constant { [4 x i8*] } { [4 x i8*] [i8* null, i8* null, i8* bitcast (void (%"class.ukm::builders::OptimizationGuide"*)* @_ZN3ukm8builders17OptimizationGuideD2Ev to i8*), i8* bitcast (void (%"class.ukm::builders::OptimizationGuide"*)* @_ZN3ukm8builders17OptimizationGuideD0Ev to i8*)] }, align 8
@_ZN3ukm8builders17OptimizationGuide38kNavigationHintsFetchAttemptStatusNameE = hidden local_unnamed_addr constant [34 x i8] c"NavigationHintsFetchAttemptStatus\00", align 16
@_ZN3ukm8builders17OptimizationGuide42kNavigationHintsFetchAttemptStatusNameHashE = hidden local_unnamed_addr constant i64 1464000691203191735, align 8
@_ZN3ukm8builders17OptimizationGuide39kNavigationHintsFetchRequestLatencyNameE = hidden local_unnamed_addr constant [35 x i8] c"NavigationHintsFetchRequestLatency\00", align 16
@_ZN3ukm8builders17OptimizationGuide43kNavigationHintsFetchRequestLatencyNameHashE = hidden local_unnamed_addr constant i64 6533440160746002973, align 8
@_ZN3ukm8builders17OptimizationGuide34kRegisteredOptimizationTargetsNameE = hidden local_unnamed_addr constant [30 x i8] c"RegisteredOptimizationTargets\00", align 16
@_ZN3ukm8builders17OptimizationGuide38kRegisteredOptimizationTargetsNameHashE = hidden local_unnamed_addr constant i64 -1863225592294019911, align 8
@_ZN3ukm8builders17OptimizationGuide32kRegisteredOptimizationTypesNameE = hidden local_unnamed_addr constant [28 x i8] c"RegisteredOptimizationTypes\00", align 16
@_ZN3ukm8builders17OptimizationGuide36kRegisteredOptimizationTypesNameHashE = hidden local_unnamed_addr constant i64 -2191151034253065511, align 8
@_ZN3ukm8builders27OptimizationGuideAutotuning10kEntryNameE = hidden local_unnamed_addr constant [28 x i8] c"OptimizationGuideAutotuning\00", align 16
@_ZN3ukm8builders27OptimizationGuideAutotuning14kEntryNameHashE = hidden local_unnamed_addr constant i64 -6714522415431125297, align 8
@_ZTVN3ukm8builders27OptimizationGuideAutotuningE = hidden unnamed_addr constant { [4 x i8*] } { [4 x i8*] [i8* null, i8* null, i8* bitcast (void (%"class.ukm::builders::OptimizationGuideAutotuning"*)* @_ZN3ukm8builders27OptimizationGuideAutotuningD2Ev to i8*), i8* bitcast (void (%"class.ukm::builders::OptimizationGuideAutotuning"*)* @_ZN3ukm8builders27OptimizationGuideAutotuningD0Ev to i8*)] }, align 8
@_ZN3ukm8builders27OptimizationGuideAutotuning21kOptimizationTypeNameE = hidden local_unnamed_addr constant [17 x i8] c"OptimizationType\00", align 16
@_ZN3ukm8builders27OptimizationGuideAutotuning25kOptimizationTypeNameHashE = hidden local_unnamed_addr constant i64 1272077668834660209, align 8
@_ZN3ukm8builders27OptimizationGuideAutotuning18kTuningVersionNameE = hidden local_unnamed_addr constant [14 x i8] c"TuningVersion\00", align 1
@_ZN3ukm8builders27OptimizationGuideAutotuning22kTuningVersionNameHashE = hidden local_unnamed_addr constant i64 5592181253919848306, align 8
@_ZN3ukm8builders14PageDomainInfo10kEntryNameE = hidden local_unnamed_addr constant [15 x i8] c"PageDomainInfo\00", align 1
@_ZN3ukm8builders14PageDomainInfo14kEntryNameHashE = hidden local_unnamed_addr constant i64 -5593121303231038523, align 8
@_ZTVN3ukm8builders14PageDomainInfoE = hidden unnamed_addr constant { [4 x i8*] } { [4 x i8*] [i8* null, i8* null, i8* bitcast (void (%"class.ukm::builders::PageDomainInfo"*)* @_ZN3ukm8builders14PageDomainInfoD2Ev to i8*), i8* bitcast (void (%"class.ukm::builders::PageDomainInfo"*)* @_ZN3ukm8builders14PageDomainInfoD0Ev to i8*)] }, align 8
@_ZN3ukm8builders14PageDomainInfo15kDomainTypeNameE = hidden local_unnamed_addr constant [11 x i8] c"DomainType\00", align 1
@_ZN3ukm8builders14PageDomainInfo19kDomainTypeNameHashE = hidden local_unnamed_addr constant i64 7797620970950375408, align 8
@_ZN3ukm8builders21PageForegroundSession10kEntryNameE = hidden local_unnamed_addr constant [22 x i8] c"PageForegroundSession\00", align 16
@_ZN3ukm8builders21PageForegroundSession14kEntryNameHashE = hidden local_unnamed_addr constant i64 -4023721108658565304, align 8
@_ZTVN3ukm8builders21PageForegroundSessionE = hidden unnamed_addr constant { [4 x i8*] } { [4 x i8*] [i8* null, i8* null, i8* bitcast (void (%"class.ukm::builders::PageForegroundSession"*)* @_ZN3ukm8builders21PageForegroundSessionD2Ev to i8*), i8* bitcast (void (%"class.ukm::builders::PageForegroundSession"*)* @_ZN3ukm8builders21PageForegroundSessionD0Ev to i8*)] }, align 8
@_ZN3ukm8builders21PageForegroundSession23kForegroundDurationNameE = hidden local_unnamed_addr constant [19 x i8] c"ForegroundDuration\00", align 16
@_ZN3ukm8builders21PageForegroundSession27kForegroundDurationNameHashE = hidden local_unnamed_addr constant i64 -4406250453856452704, align 8
@_ZN3ukm8builders21PageForegroundSession29kForegroundNumInputEventsNameE = hidden local_unnamed_addr constant [25 x i8] c"ForegroundNumInputEvents\00", align 16
@_ZN3ukm8builders21PageForegroundSession33kForegroundNumInputEventsNameHashE = hidden local_unnamed_addr constant i64 8312183371249827438, align 8
@_ZN3ukm8builders21PageForegroundSession38kForegroundTotalAdjustedInputDelayNameE = hidden local_unnamed_addr constant [34 x i8] c"ForegroundTotalAdjustedInputDelay\00", align 16
@_ZN3ukm8builders21PageForegroundSession42kForegroundTotalAdjustedInputDelayNameHashE = hidden local_unnamed_addr constant i64 4081792426231663378, align 8
@_ZN3ukm8builders21PageForegroundSession30kForegroundTotalInputDelayNameE = hidden local_unnamed_addr constant [26 x i8] c"ForegroundTotalInputDelay\00", align 16
@_ZN3ukm8builders21PageForegroundSession34kForegroundTotalInputDelayNameHashE = hidden local_unnamed_addr constant i64 8008711279838603073, align 8
@_ZN3ukm8builders14PageInfoBubble10kEntryNameE = hidden local_unnamed_addr constant [15 x i8] c"PageInfoBubble\00", align 1
@_ZN3ukm8builders14PageInfoBubble14kEntryNameHashE = hidden local_unnamed_addr constant i64 -8275099350383746445, align 8
@_ZTVN3ukm8builders14PageInfoBubbleE = hidden unnamed_addr constant { [4 x i8*] } { [4 x i8*] [i8* null, i8* null, i8* bitcast (void (%"class.ukm::builders::PageInfoBubble"*)* @_ZN3ukm8builders14PageInfoBubbleD2Ev to i8*), i8* bitcast (void (%"class.ukm::builders::PageInfoBubble"*)* @_ZN3ukm8builders14PageInfoBubbleD0Ev to i8*)] }, align 8
@_ZN3ukm8builders14PageInfoBubble16kActionTakenNameE = hidden local_unnamed_addr constant [12 x i8] c"ActionTaken\00", align 1
@_ZN3ukm8builders14PageInfoBubble20kActionTakenNameHashE = hidden local_unnamed_addr constant i64 -8945940828803116101, align 8
@_ZN3ukm8builders8PageLoad10kEntryNameE = hidden local_unnamed_addr constant [9 x i8] c"PageLoad\00", align 1
@_ZN3ukm8builders8PageLoad14kEntryNameHashE = hidden local_unnamed_addr constant i64 -6020711262871383275, align 8
@_ZTVN3ukm8builders8PageLoadE = hidden unnamed_addr constant { [4 x i8*] } { [4 x i8*] [i8* null, i8* null, i8* bitcast (void (%"class.ukm::builders::PageLoad"*)* @_ZN3ukm8builders8PageLoadD2Ev to i8*), i8* bitcast (void (%"class.ukm::builders::PageLoad"*)* @_ZN3ukm8builders8PageLoadD0Ev to i8*)] }, align 8
@_ZN3ukm8builders8PageLoad12kCpuTimeNameE = hidden local_unnamed_addr constant [8 x i8] c"CpuTime\00", align 1
@_ZN3ukm8builders8PageLoad16kCpuTimeNameHashE = hidden local_unnamed_addr constant i64 6353397511912813717, align 8
@_ZN3ukm8builders8PageLoad58kDocumentTiming_NavigationToDOMContentLoadedEventFiredNameE = hidden local_unnamed_addr constant [54 x i8] c"DocumentTiming.NavigationToDOMContentLoadedEventFired\00", align 16
@_ZN3ukm8builders8PageLoad62kDocumentTiming_NavigationToDOMContentLoadedEventFiredNameHashE = hidden local_unnamed_addr constant i64 6867802542830008226, align 8
@_ZN3ukm8builders8PageLoad46kDocumentTiming_NavigationToLoadEventFiredNameE = hidden local_unnamed_addr constant [42 x i8] c"DocumentTiming.NavigationToLoadEventFired\00", align 16
@_ZN3ukm8builders8PageLoad50kDocumentTiming_NavigationToLoadEventFiredNameHashE = hidden local_unnamed_addr constant i64 -8954483705823427798, align 8
@_ZN3ukm8builders8PageLoad34kDurationSinceLastVisitSecondsNameE = hidden local_unnamed_addr constant [30 x i8] c"DurationSinceLastVisitSeconds\00", align 16
@_ZN3ukm8builders8PageLoad38kDurationSinceLastVisitSecondsNameHashE = hidden local_unnamed_addr constant i64 -4381876652893781611, align 8
@_ZN3ukm8builders8PageLoad40kExperimental_InputToNavigationStartNameE = hidden local_unnamed_addr constant [36 x i8] c"Experimental.InputToNavigationStart\00", align 16
@_ZN3ukm8builders8PageLoad44kExperimental_InputToNavigationStartNameHashE = hidden local_unnamed_addr constant i64 -1983448865767341870, align 8
@_ZN3ukm8builders8PageLoad42kExperimental_Navigation_UserInitiatedNameE = hidden local_unnamed_addr constant [38 x i8] c"Experimental.Navigation.UserInitiated\00", align 16
@_ZN3ukm8builders8PageLoad46kExperimental_Navigation_UserInitiatedNameHashE = hidden local_unnamed_addr constant i64 -1796535358494941342, align 8
@_ZN3ukm8builders8PageLoad30kExperimental_PageLoadTypeNameE = hidden local_unnamed_addr constant [26 x i8] c"Experimental.PageLoadType\00", align 16
@_ZN3ukm8builders8PageLoad34kExperimental_PageLoadTypeNameHashE = hidden local_unnamed_addr constant i64 3954864695611377582, align 8
@_ZN3ukm8builders8PageLoad62kExperimental_PaintTiming_NavigationToFirstMeaningfulPaintNameE = hidden local_unnamed_addr constant [58 x i8] c"Experimental.PaintTiming.NavigationToFirstMeaningfulPaint\00", align 16
@_ZN3ukm8builders8PageLoad66kExperimental_PaintTiming_NavigationToFirstMeaningfulPaintNameHashE = hidden local_unnamed_addr constant i64 7669206824977834951, align 8
@_ZN3ukm8builders8PageLoad41kExperimental_TotalForegroundDurationNameE = hidden local_unnamed_addr constant [37 x i8] c"Experimental.TotalForegroundDuration\00", align 16
@_ZN3ukm8builders8PageLoad45kExperimental_TotalForegroundDurationNameHashE = hidden local_unnamed_addr constant i64 3470931647240642399, align 8
@_ZN3ukm8builders8PageLoad39kInteractiveTiming_FirstInputDelay4NameE = hidden local_unnamed_addr constant [35 x i8] c"InteractiveTiming.FirstInputDelay4\00", align 16
@_ZN3ukm8builders8PageLoad43kInteractiveTiming_FirstInputDelay4NameHashE = hidden local_unnamed_addr constant i64 6127468907094730300, align 8
@_ZN3ukm8builders8PageLoad48kInteractiveTiming_FirstInputProcessingTimesNameE = hidden local_unnamed_addr constant [44 x i8] c"InteractiveTiming.FirstInputProcessingTimes\00", align 16
@_ZN3ukm8builders8PageLoad52kInteractiveTiming_FirstInputProcessingTimesNameHashE = hidden local_unnamed_addr constant i64 1593757276256967582, align 8
@_ZN3ukm8builders8PageLoad43kInteractiveTiming_FirstInputTimestamp4NameE = hidden local_unnamed_addr constant [39 x i8] c"InteractiveTiming.FirstInputTimestamp4\00", align 16
@_ZN3ukm8builders8PageLoad47kInteractiveTiming_FirstInputTimestamp4NameHashE = hidden local_unnamed_addr constant i64 -2177981636398751777, align 8
@_ZN3ukm8builders8PageLoad39kInteractiveTiming_FirstScrollDelayNameE = hidden local_unnamed_addr constant [35 x i8] c"InteractiveTiming.FirstScrollDelay\00", align 16
@_ZN3ukm8builders8PageLoad43kInteractiveTiming_FirstScrollDelayNameHashE = hidden local_unnamed_addr constant i64 -5679398612639546298, align 8
@_ZN3ukm8builders8PageLoad41kInteractiveTiming_LongestInputDelay4NameE = hidden local_unnamed_addr constant [37 x i8] c"InteractiveTiming.LongestInputDelay4\00", align 16
@_ZN3ukm8builders8PageLoad45kInteractiveTiming_LongestInputDelay4NameHashE = hidden local_unnamed_addr constant i64 9023942308232641926, align 8
@_ZN3ukm8builders8PageLoad45kInteractiveTiming_LongestInputTimestamp4NameE = hidden local_unnamed_addr constant [41 x i8] c"InteractiveTiming.LongestInputTimestamp4\00", align 16
@_ZN3ukm8builders8PageLoad49kInteractiveTiming_LongestInputTimestamp4NameHashE = hidden local_unnamed_addr constant i64 4114176268949136412, align 8
@_ZN3ukm8builders8PageLoad37kInteractiveTiming_NumInputEventsNameE = hidden local_unnamed_addr constant [33 x i8] c"InteractiveTiming.NumInputEvents\00", align 16
@_ZN3ukm8builders8PageLoad41kInteractiveTiming_NumInputEventsNameHashE = hidden local_unnamed_addr constant i64 396062217706944461, align 8
@_ZN3ukm8builders8PageLoad46kInteractiveTiming_TotalAdjustedInputDelayNameE = hidden local_unnamed_addr constant [42 x i8] c"InteractiveTiming.TotalAdjustedInputDelay\00", align 16
@_ZN3ukm8builders8PageLoad50kInteractiveTiming_TotalAdjustedInputDelayNameHashE = hidden local_unnamed_addr constant i64 6954135380531273761, align 8
@_ZN3ukm8builders8PageLoad38kInteractiveTiming_TotalInputDelayNameE = hidden local_unnamed_addr constant [34 x i8] c"InteractiveTiming.TotalInputDelay\00", align 16
@_ZN3ukm8builders8PageLoad42kInteractiveTiming_TotalInputDelayNameHashE = hidden local_unnamed_addr constant i64 -7304935970648977081, align 8
@_ZN3ukm8builders8PageLoad29kIsCrossProcessNavigationNameE = hidden local_unnamed_addr constant [25 x i8] c"IsCrossProcessNavigation\00", align 16
@_ZN3ukm8builders8PageLoad33kIsCrossProcessNavigationNameHashE = hidden local_unnamed_addr constant i64 -3680743615460981415, align 8
@_ZN3ukm8builders8PageLoad23kIsExistingBookmarkNameE = hidden local_unnamed_addr constant [19 x i8] c"IsExistingBookmark\00", align 16
@_ZN3ukm8builders8PageLoad27kIsExistingBookmarkNameHashE = hidden local_unnamed_addr constant i64 3849262661369815215, align 8
@_ZN3ukm8builders8PageLoad29kIsExistingPartOfTabGroupNameE = hidden local_unnamed_addr constant [25 x i8] c"IsExistingPartOfTabGroup\00", align 16
@_ZN3ukm8builders8PageLoad33kIsExistingPartOfTabGroupNameHashE = hidden local_unnamed_addr constant i64 6457812980021662913, align 8
@_ZN3ukm8builders8PageLoad18kIsNewBookmarkNameE = hidden local_unnamed_addr constant [14 x i8] c"IsNewBookmark\00", align 1
@_ZN3ukm8builders8PageLoad22kIsNewBookmarkNameHashE = hidden local_unnamed_addr constant i64 1135618230855533423, align 8
@_ZN3ukm8builders8PageLoad20kIsNTPCustomLinkNameE = hidden local_unnamed_addr constant [16 x i8] c"IsNTPCustomLink\00", align 16
@_ZN3ukm8builders8PageLoad24kIsNTPCustomLinkNameHashE = hidden local_unnamed_addr constant i64 8353494371537711160, align 8
@_ZN3ukm8builders8PageLoad23kIsPlacedInTabGroupNameE = hidden local_unnamed_addr constant [19 x i8] c"IsPlacedInTabGroup\00", align 16
@_ZN3ukm8builders8PageLoad27kIsPlacedInTabGroupNameHashE = hidden local_unnamed_addr constant i64 6426447933177595047, align 8
@_ZN3ukm8builders8PageLoad74kLayoutInstability_AverageCumulativeShiftScore_SessionWindow_Gap5000msNameE = hidden local_unnamed_addr constant [70 x i8] c"LayoutInstability.AverageCumulativeShiftScore.SessionWindow.Gap5000ms\00", align 16
@_ZN3ukm8builders8PageLoad78kLayoutInstability_AverageCumulativeShiftScore_SessionWindow_Gap5000msNameHashE = hidden local_unnamed_addr constant i64 7366111029977376286, align 8
@_ZN3ukm8builders8PageLoad43kLayoutInstability_CumulativeShiftScoreNameE = hidden local_unnamed_addr constant [39 x i8] c"LayoutInstability.CumulativeShiftScore\00", align 16
@_ZN3ukm8builders8PageLoad47kLayoutInstability_CumulativeShiftScoreNameHashE = hidden local_unnamed_addr constant i64 6355895514150060407, align 8
@_ZN3ukm8builders8PageLoad63kLayoutInstability_CumulativeShiftScore_BeforeInputOrScrollNameE = hidden local_unnamed_addr constant [59 x i8] c"LayoutInstability.CumulativeShiftScore.BeforeInputOrScroll\00", align 16
@_ZN3ukm8builders8PageLoad67kLayoutInstability_CumulativeShiftScore_BeforeInputOrScrollNameHashE = hidden local_unnamed_addr constant i64 4412907526533667174, align 8
@_ZN3ukm8builders8PageLoad53kLayoutInstability_CumulativeShiftScore_MainFrameNameE = hidden local_unnamed_addr constant [49 x i8] c"LayoutInstability.CumulativeShiftScore.MainFrame\00", align 16
@_ZN3ukm8builders8PageLoad57kLayoutInstability_CumulativeShiftScore_MainFrameNameHashE = hidden local_unnamed_addr constant i64 -6740299949858043107, align 8
@_ZN3ukm8builders8PageLoad73kLayoutInstability_CumulativeShiftScore_MainFrame_BeforeInputOrScrollNameE = hidden local_unnamed_addr constant [69 x i8] c"LayoutInstability.CumulativeShiftScore.MainFrame.BeforeInputOrScroll\00", align 16
@_ZN3ukm8builders8PageLoad77kLayoutInstability_CumulativeShiftScore_MainFrame_BeforeInputOrScrollNameHashE = hidden local_unnamed_addr constant i64 -2712957806961960170, align 8
@_ZN3ukm8builders8PageLoad70kLayoutInstability_MaxCumulativeShiftScore_SessionWindow_Gap1000msNameE = hidden local_unnamed_addr constant [66 x i8] c"LayoutInstability.MaxCumulativeShiftScore.SessionWindow.Gap1000ms\00", align 16
@_ZN3ukm8builders8PageLoad74kLayoutInstability_MaxCumulativeShiftScore_SessionWindow_Gap1000msNameHashE = hidden local_unnamed_addr constant i64 4064389985317360859, align 8
@_ZN3ukm8builders8PageLoad80kLayoutInstability_MaxCumulativeShiftScore_SessionWindow_Gap1000ms_Max5000msNameE = hidden local_unnamed_addr constant [76 x i8] c"LayoutInstability.MaxCumulativeShiftScore.SessionWindow.Gap1000ms.Max5000ms\00", align 16
@_ZN3ukm8builders8PageLoad84kLayoutInstability_MaxCumulativeShiftScore_SessionWindow_Gap1000ms_Max5000msNameHashE = hidden local_unnamed_addr constant i64 -7616274183452537483, align 8
@_ZN3ukm8builders8PageLoad88kLayoutInstability_MaxCumulativeShiftScore_SessionWindowByInputs_Gap1000ms_Max5000msNameE = hidden local_unnamed_addr constant [84 x i8] c"LayoutInstability.MaxCumulativeShiftScore.SessionWindowByInputs.Gap1000ms.Max5000ms\00", align 16
@_ZN3ukm8builders8PageLoad92kLayoutInstability_MaxCumulativeShiftScore_SessionWindowByInputs_Gap1000ms_Max5000msNameHashE = hidden local_unnamed_addr constant i64 4203757051240337720, align 8
@_ZN3ukm8builders8PageLoad75kLayoutInstability_MaxCumulativeShiftScore_SlidingWindow_Duration1000msNameE = hidden local_unnamed_addr constant [71 x i8] c"LayoutInstability.MaxCumulativeShiftScore.SlidingWindow.Duration1000ms\00", align 16
@_ZN3ukm8builders8PageLoad79kLayoutInstability_MaxCumulativeShiftScore_SlidingWindow_Duration1000msNameHashE = hidden local_unnamed_addr constant i64 -8326351039032753840, align 8
@_ZN3ukm8builders8PageLoad74kLayoutInstability_MaxCumulativeShiftScore_SlidingWindow_Duration300msNameE = hidden local_unnamed_addr constant [70 x i8] c"LayoutInstability.MaxCumulativeShiftScore.SlidingWindow.Duration300ms\00", align 16
@_ZN3ukm8builders8PageLoad78kLayoutInstability_MaxCumulativeShiftScore_SlidingWindow_Duration300msNameHashE = hidden local_unnamed_addr constant i64 6871856905128777052, align 8
@_ZN3ukm8builders8PageLoad31kMainDocumentSequenceNumberNameE = hidden local_unnamed_addr constant [27 x i8] c"MainDocumentSequenceNumber\00", align 16
@_ZN3ukm8builders8PageLoad35kMainDocumentSequenceNumberNameHashE = hidden local_unnamed_addr constant i64 5968137368190340881, align 8
@_ZN3ukm8builders8PageLoad35kMainFrameResource_ConnectDelayNameE = hidden local_unnamed_addr constant [31 x i8] c"MainFrameResource.ConnectDelay\00", align 16
@_ZN3ukm8builders8PageLoad39kMainFrameResource_ConnectDelayNameHashE = hidden local_unnamed_addr constant i64 4568735770730238095, align 8
@_ZN3ukm8builders8PageLoad31kMainFrameResource_DNSDelayNameE = hidden local_unnamed_addr constant [27 x i8] c"MainFrameResource.DNSDelay\00", align 16
@_ZN3ukm8builders8PageLoad35kMainFrameResource_DNSDelayNameHashE = hidden local_unnamed_addr constant i64 7307227729996236826, align 8
@_ZN3ukm8builders8PageLoad41kMainFrameResource_HttpProtocolSchemeNameE = hidden local_unnamed_addr constant [37 x i8] c"MainFrameResource.HttpProtocolScheme\00", align 16
@_ZN3ukm8builders8PageLoad45kMainFrameResource_HttpProtocolSchemeNameHashE = hidden local_unnamed_addr constant i64 3007836930622015766, align 8
@_ZN3ukm8builders8PageLoad59kMainFrameResource_NavigationStartToReceiveHeadersStartNameE = hidden local_unnamed_addr constant [55 x i8] c"MainFrameResource.NavigationStartToReceiveHeadersStart\00", align 16
@_ZN3ukm8builders8PageLoad63kMainFrameResource_NavigationStartToReceiveHeadersStartNameHashE = hidden local_unnamed_addr constant i64 1663480531586966499, align 8
@_ZN3ukm8builders8PageLoad52kMainFrameResource_NavigationStartToRequestStartNameE = hidden local_unnamed_addr constant [48 x i8] c"MainFrameResource.NavigationStartToRequestStart\00", align 16
@_ZN3ukm8builders8PageLoad56kMainFrameResource_NavigationStartToRequestStartNameHashE = hidden local_unnamed_addr constant i64 2378326484600041608, align 8
@_ZN3ukm8builders8PageLoad36kMainFrameResource_RedirectCountNameE = hidden local_unnamed_addr constant [32 x i8] c"MainFrameResource.RedirectCount\00", align 16
@_ZN3ukm8builders8PageLoad40kMainFrameResource_RedirectCountNameHashE = hidden local_unnamed_addr constant i64 -5500976164111031780, align 8
@_ZN3ukm8builders8PageLoad40kMainFrameResource_RequestHadCookiesNameE = hidden local_unnamed_addr constant [36 x i8] c"MainFrameResource.RequestHadCookies\00", align 16
@_ZN3ukm8builders8PageLoad44kMainFrameResource_RequestHadCookiesNameHashE = hidden local_unnamed_addr constant i64 8178313979867835427, align 8
@_ZN3ukm8builders8PageLoad54kMainFrameResource_RequestStartToReceiveHeadersEndNameE = hidden local_unnamed_addr constant [50 x i8] c"MainFrameResource.RequestStartToReceiveHeadersEnd\00", align 16
@_ZN3ukm8builders8PageLoad58kMainFrameResource_RequestStartToReceiveHeadersEndNameHashE = hidden local_unnamed_addr constant i64 -2710874034679262243, align 8
@_ZN3ukm8builders8PageLoad46kMainFrameResource_RequestStartToSendStartNameE = hidden local_unnamed_addr constant [42 x i8] c"MainFrameResource.RequestStartToSendStart\00", align 16
@_ZN3ukm8builders8PageLoad50kMainFrameResource_RequestStartToSendStartNameHashE = hidden local_unnamed_addr constant i64 -4470513216490462874, align 8
@_ZN3ukm8builders8PageLoad51kMainFrameResource_SendStartToReceiveHeadersEndNameE = hidden local_unnamed_addr constant [47 x i8] c"MainFrameResource.SendStartToReceiveHeadersEnd\00", align 16
@_ZN3ukm8builders8PageLoad55kMainFrameResource_SendStartToReceiveHeadersEndNameHashE = hidden local_unnamed_addr constant i64 -3517401667133716179, align 8
@_ZN3ukm8builders8PageLoad35kMainFrameResource_SocketReusedNameE = hidden local_unnamed_addr constant [31 x i8] c"MainFrameResource.SocketReused\00", align 16
@_ZN3ukm8builders8PageLoad39kMainFrameResource_SocketReusedNameHashE = hidden local_unnamed_addr constant i64 6515553691927856961, align 8
@_ZN3ukm8builders8PageLoad30kNavigation_PageEndReason3NameE = hidden local_unnamed_addr constant [26 x i8] c"Navigation.PageEndReason3\00", align 16
@_ZN3ukm8builders8PageLoad34kNavigation_PageEndReason3NameHashE = hidden local_unnamed_addr constant i64 7884760301518296515, align 8
@_ZN3ukm8builders8PageLoad30kNavigation_PageTransitionNameE = hidden local_unnamed_addr constant [26 x i8] c"Navigation.PageTransition\00", align 16
@_ZN3ukm8builders8PageLoad34kNavigation_PageTransitionNameHashE = hidden local_unnamed_addr constant i64 6618380684727568744, align 8
@_ZN3ukm8builders8PageLoad26kNavigationEntryOffsetNameE = hidden local_unnamed_addr constant [22 x i8] c"NavigationEntryOffset\00", align 16
@_ZN3ukm8builders8PageLoad30kNavigationEntryOffsetNameHashE = hidden local_unnamed_addr constant i64 -1105879149350484618, align 8
@_ZN3ukm8builders8PageLoad20kNet_CacheBytes2NameE = hidden local_unnamed_addr constant [16 x i8] c"Net.CacheBytes2\00", align 16
@_ZN3ukm8builders8PageLoad24kNet_CacheBytes2NameHashE = hidden local_unnamed_addr constant i64 6646370524195624485, align 8
@_ZN3ukm8builders8PageLoad49kNet_DownstreamKbpsEstimate_OnNavigationStartNameE = hidden local_unnamed_addr constant [45 x i8] c"Net.DownstreamKbpsEstimate.OnNavigationStart\00", align 16
@_ZN3ukm8builders8PageLoad53kNet_DownstreamKbpsEstimate_OnNavigationStartNameHashE = hidden local_unnamed_addr constant i64 -9018270189838868157, align 8
@_ZN3ukm8builders8PageLoad51kNet_EffectiveConnectionType2_OnNavigationStartNameE = hidden local_unnamed_addr constant [47 x i8] c"Net.EffectiveConnectionType2.OnNavigationStart\00", align 16
@_ZN3ukm8builders8PageLoad55kNet_EffectiveConnectionType2_OnNavigationStartNameHashE = hidden local_unnamed_addr constant i64 -5941314592954252084, align 8
@_ZN3ukm8builders8PageLoad42kNet_ErrorCode_OnFailedProvisionalLoadNameE = hidden local_unnamed_addr constant [38 x i8] c"Net.ErrorCode.OnFailedProvisionalLoad\00", align 16
@_ZN3ukm8builders8PageLoad46kNet_ErrorCode_OnFailedProvisionalLoadNameHashE = hidden local_unnamed_addr constant i64 -8052330697101991139, align 8
@_ZN3ukm8builders8PageLoad25kNet_HttpResponseCodeNameE = hidden local_unnamed_addr constant [21 x i8] c"Net.HttpResponseCode\00", align 16
@_ZN3ukm8builders8PageLoad29kNet_HttpResponseCodeNameHashE = hidden local_unnamed_addr constant i64 578349876587866241, align 8
@_ZN3ukm8builders8PageLoad42kNet_HttpRttEstimate_OnNavigationStartNameE = hidden local_unnamed_addr constant [38 x i8] c"Net.HttpRttEstimate.OnNavigationStart\00", align 16
@_ZN3ukm8builders8PageLoad46kNet_HttpRttEstimate_OnNavigationStartNameHashE = hidden local_unnamed_addr constant i64 5774646068519167414, align 8
@_ZN3ukm8builders8PageLoad19kNet_ImageBytesNameE = hidden local_unnamed_addr constant [15 x i8] c"Net.ImageBytes\00", align 1
@_ZN3ukm8builders8PageLoad23kNet_ImageBytesNameHashE = hidden local_unnamed_addr constant i64 5183779451881510109, align 8
@_ZN3ukm8builders8PageLoad27kNet_ImageSubframeBytesNameE = hidden local_unnamed_addr constant [23 x i8] c"Net.ImageSubframeBytes\00", align 16
@_ZN3ukm8builders8PageLoad31kNet_ImageSubframeBytesNameHashE = hidden local_unnamed_addr constant i64 -3511960956087326817, align 8
@_ZN3ukm8builders8PageLoad24kNet_JavaScriptBytesNameE = hidden local_unnamed_addr constant [20 x i8] c"Net.JavaScriptBytes\00", align 16
@_ZN3ukm8builders8PageLoad28kNet_JavaScriptBytesNameHashE = hidden local_unnamed_addr constant i64 -1940338939865886304, align 8
@_ZN3ukm8builders8PageLoad27kNet_JavaScriptMaxBytesNameE = hidden local_unnamed_addr constant [23 x i8] c"Net.JavaScriptMaxBytes\00", align 16
@_ZN3ukm8builders8PageLoad31kNet_JavaScriptMaxBytesNameHashE = hidden local_unnamed_addr constant i64 5476124973335865020, align 8
@_ZN3ukm8builders8PageLoad19kNet_MediaBytesNameE = hidden local_unnamed_addr constant [15 x i8] c"Net.MediaBytes\00", align 1
@_ZN3ukm8builders8PageLoad23kNet_MediaBytesNameHashE = hidden local_unnamed_addr constant i64 -6569868710320993336, align 8
@_ZN3ukm8builders8PageLoad22kNet_NetworkBytes2NameE = hidden local_unnamed_addr constant [18 x i8] c"Net.NetworkBytes2\00", align 16
@_ZN3ukm8builders8PageLoad26kNet_NetworkBytes2NameHashE = hidden local_unnamed_addr constant i64 -448953961954244910, align 8
@_ZN3ukm8builders8PageLoad47kNet_TransportRttEstimate_OnNavigationStartNameE = hidden local_unnamed_addr constant [43 x i8] c"Net.TransportRttEstimate.OnNavigationStart\00", align 16
@_ZN3ukm8builders8PageLoad51kNet_TransportRttEstimate_OnNavigationStartNameHashE = hidden local_unnamed_addr constant i64 1015883933811308473, align 8
@_ZN3ukm8builders8PageLoad21kOmniboxUrlCopiedNameE = hidden local_unnamed_addr constant [17 x i8] c"OmniboxUrlCopied\00", align 16
@_ZN3ukm8builders8PageLoad25kOmniboxUrlCopiedNameHashE = hidden local_unnamed_addr constant i64 -8196687802328532527, align 8
@_ZN3ukm8builders8PageLoad34kPageTiming_ForegroundDurationNameE = hidden local_unnamed_addr constant [30 x i8] c"PageTiming.ForegroundDuration\00", align 16
@_ZN3ukm8builders8PageLoad38kPageTiming_ForegroundDurationNameHashE = hidden local_unnamed_addr constant i64 2843257204381097865, align 8
@_ZN3ukm8builders8PageLoad49kPageTiming_NavigationToFailedProvisionalLoadNameE = hidden local_unnamed_addr constant [45 x i8] c"PageTiming.NavigationToFailedProvisionalLoad\00", align 16
@_ZN3ukm8builders8PageLoad53kPageTiming_NavigationToFailedProvisionalLoadNameHashE = hidden local_unnamed_addr constant i64 -6460431437019698362, align 8
@_ZN3ukm8builders8PageLoad41kPageTiming_UserTimingMarkFullyLoadedNameE = hidden local_unnamed_addr constant [37 x i8] c"PageTiming.UserTimingMarkFullyLoaded\00", align 16
@_ZN3ukm8builders8PageLoad45kPageTiming_UserTimingMarkFullyLoadedNameHashE = hidden local_unnamed_addr constant i64 -4619754878653140472, align 8
@_ZN3ukm8builders8PageLoad42kPageTiming_UserTimingMarkFullyVisibleNameE = hidden local_unnamed_addr constant [38 x i8] c"PageTiming.UserTimingMarkFullyVisible\00", align 16
@_ZN3ukm8builders8PageLoad46kPageTiming_UserTimingMarkFullyVisibleNameHashE = hidden local_unnamed_addr constant i64 242363805495563163, align 8
@_ZN3ukm8builders8PageLoad41kPageTiming_UserTimingMarkInteractiveNameE = hidden local_unnamed_addr constant [37 x i8] c"PageTiming.UserTimingMarkInteractive\00", align 16
@_ZN3ukm8builders8PageLoad45kPageTiming_UserTimingMarkInteractiveNameHashE = hidden local_unnamed_addr constant i64 4567670599554371322, align 8
@_ZN3ukm8builders8PageLoad49kPaintTiming_NavigationToFirstContentfulPaintNameE = hidden local_unnamed_addr constant [45 x i8] c"PaintTiming.NavigationToFirstContentfulPaint\00", align 16
@_ZN3ukm8builders8PageLoad53kPaintTiming_NavigationToFirstContentfulPaintNameHashE = hidden local_unnamed_addr constant i64 8518716400092239089, align 8
@_ZN3ukm8builders8PageLoad39kPaintTiming_NavigationToFirstPaintNameE = hidden local_unnamed_addr constant [35 x i8] c"PaintTiming.NavigationToFirstPaint\00", align 16
@_ZN3ukm8builders8PageLoad43kPaintTiming_NavigationToFirstPaintNameHashE = hidden local_unnamed_addr constant i64 7259095400115977984, align 8
@_ZN3ukm8builders8PageLoad51kPaintTiming_NavigationToLargestContentfulPaintNameE = hidden local_unnamed_addr constant [47 x i8] c"PaintTiming.NavigationToLargestContentfulPaint\00", align 16
@_ZN3ukm8builders8PageLoad55kPaintTiming_NavigationToLargestContentfulPaintNameHashE = hidden local_unnamed_addr constant i64 2541572237502750312, align 8
@_ZN3ukm8builders8PageLoad61kPaintTiming_NavigationToLargestContentfulPaint_MainFrameNameE = hidden local_unnamed_addr constant [57 x i8] c"PaintTiming.NavigationToLargestContentfulPaint.MainFrame\00", align 16
@_ZN3ukm8builders8PageLoad65kPaintTiming_NavigationToLargestContentfulPaint_MainFrameNameHashE = hidden local_unnamed_addr constant i64 110015268269975783, align 8
@_ZN3ukm8builders8PageLoad52kPaintTiming_NavigationToLargestContentfulPaint2NameE = hidden local_unnamed_addr constant [48 x i8] c"PaintTiming.NavigationToLargestContentfulPaint2\00", align 16
@_ZN3ukm8builders8PageLoad56kPaintTiming_NavigationToLargestContentfulPaint2NameHashE = hidden local_unnamed_addr constant i64 -6938280713105688601, align 8
@_ZN3ukm8builders8PageLoad62kPaintTiming_NavigationToLargestContentfulPaint2_MainFrameNameE = hidden local_unnamed_addr constant [58 x i8] c"PaintTiming.NavigationToLargestContentfulPaint2.MainFrame\00", align 16
@_ZN3ukm8builders8PageLoad66kPaintTiming_NavigationToLargestContentfulPaint2_MainFrameNameHashE = hidden local_unnamed_addr constant i64 6221533677409529418, align 8
@_ZN3ukm8builders8PageLoad39kParseTiming_NavigationToParseStartNameE = hidden local_unnamed_addr constant [35 x i8] c"ParseTiming.NavigationToParseStart\00", align 16
@_ZN3ukm8builders8PageLoad43kParseTiming_NavigationToParseStartNameHashE = hidden local_unnamed_addr constant i64 -4599668138921906732, align 8
@_ZN3ukm8builders8PageLoad24kSiteEngagementScoreNameE = hidden local_unnamed_addr constant [20 x i8] c"SiteEngagementScore\00", align 16
@_ZN3ukm8builders8PageLoad28kSiteEngagementScoreNameHashE = hidden local_unnamed_addr constant i64 325008584515519231, align 8
@_ZN3ukm8builders8PageLoad40kSiteInstanceRenderProcessAssignmentNameE = hidden local_unnamed_addr constant [36 x i8] c"SiteInstanceRenderProcessAssignment\00", align 16
@_ZN3ukm8builders8PageLoad44kSiteInstanceRenderProcessAssignmentNameHashE = hidden local_unnamed_addr constant i64 -5447887846659137381, align 8
@_ZN3ukm8builders8PageLoad43kThirdPartyCookieBlockingEnabledForSiteNameE = hidden local_unnamed_addr constant [39 x i8] c"ThirdPartyCookieBlockingEnabledForSite\00", align 16
@_ZN3ukm8builders8PageLoad47kThirdPartyCookieBlockingEnabledForSiteNameHashE = hidden local_unnamed_addr constant i64 440600315450942530, align 8
@_ZN3ukm8builders8PageLoad14kWasCachedNameE = hidden local_unnamed_addr constant [10 x i8] c"WasCached\00", align 1
@_ZN3ukm8builders8PageLoad18kWasCachedNameHashE = hidden local_unnamed_addr constant i64 8288453355921177151, align 8
@_ZN3ukm8builders25PageLoad_FromGoogleSearch10kEntryNameE = hidden local_unnamed_addr constant [26 x i8] c"PageLoad.FromGoogleSearch\00", align 16
@_ZN3ukm8builders25PageLoad_FromGoogleSearch14kEntryNameHashE = hidden local_unnamed_addr constant i64 8384138607730558665, align 8
@_ZTVN3ukm8builders25PageLoad_FromGoogleSearchE = hidden unnamed_addr constant { [4 x i8*] } { [4 x i8*] [i8* null, i8* null, i8* bitcast (void (%"class.ukm::builders::PageLoad_FromGoogleSearch"*)* @_ZN3ukm8builders25PageLoad_FromGoogleSearchD2Ev to i8*), i8* bitcast (void (%"class.ukm::builders::PageLoad_FromGoogleSearch"*)* @_ZN3ukm8builders25PageLoad_FromGoogleSearchD0Ev to i8*)] }, align 8
@_ZN3ukm8builders17PageLoad_Internal10kEntryNameE = hidden local_unnamed_addr constant [18 x i8] c"PageLoad.Internal\00", align 16
@_ZN3ukm8builders17PageLoad_Internal14kEntryNameHashE = hidden local_unnamed_addr constant i64 5441732143890651748, align 8
@_ZTVN3ukm8builders17PageLoad_InternalE = hidden unnamed_addr constant { [4 x i8*] } { [4 x i8*] [i8* null, i8* null, i8* bitcast (void (%"class.ukm::builders::PageLoad_Internal"*)* @_ZN3ukm8builders17PageLoad_InternalD2Ev to i8*), i8* bitcast (void (%"class.ukm::builders::PageLoad_Internal"*)* @_ZN3ukm8builders17PageLoad_InternalD0Ev to i8*)] }, align 8
@_ZN3ukm8builders17PageLoad_Internal63kPaintTiming_ExperimentalLargestContentfulPaint_ContentTypeNameE = hidden local_unnamed_addr constant [59 x i8] c"PaintTiming.ExperimentalLargestContentfulPaint.ContentType\00", align 16
@_ZN3ukm8builders17PageLoad_Internal67kPaintTiming_ExperimentalLargestContentfulPaint_ContentTypeNameHashE = hidden local_unnamed_addr constant i64 2569577768105358307, align 8
@_ZN3ukm8builders17PageLoad_Internal68kPaintTiming_ExperimentalLargestContentfulPaint_TerminationStateNameE = hidden local_unnamed_addr constant [64 x i8] c"PaintTiming.ExperimentalLargestContentfulPaint.TerminationState\00", align 16
@_ZN3ukm8builders17PageLoad_Internal72kPaintTiming_ExperimentalLargestContentfulPaint_TerminationStateNameHashE = hidden local_unnamed_addr constant i64 -5887911897307451112, align 8
@_ZN3ukm8builders17PageLoad_Internal51kPaintTiming_LargestContentfulPaint_ContentTypeNameE = hidden local_unnamed_addr constant [47 x i8] c"PaintTiming.LargestContentfulPaint.ContentType\00", align 16
@_ZN3ukm8builders17PageLoad_Internal55kPaintTiming_LargestContentfulPaint_ContentTypeNameHashE = hidden local_unnamed_addr constant i64 -1722367993401566707, align 8
@_ZN3ukm8builders17PageLoad_Internal56kPaintTiming_LargestContentfulPaint_TerminationStateNameE = hidden local_unnamed_addr constant [52 x i8] c"PaintTiming.LargestContentfulPaint.TerminationState\00", align 16
@_ZN3ukm8builders17PageLoad_Internal60kPaintTiming_LargestContentfulPaint_TerminationStateNameHashE = hidden local_unnamed_addr constant i64 5926365039165737690, align 8
@_ZN3ukm8builders32PageLoad_ServiceWorkerControlled10kEntryNameE = hidden local_unnamed_addr constant [33 x i8] c"PageLoad.ServiceWorkerControlled\00", align 16
@_ZN3ukm8builders32PageLoad_ServiceWorkerControlled14kEntryNameHashE = hidden local_unnamed_addr constant i64 -379439785936296590, align 8
@_ZTVN3ukm8builders32PageLoad_ServiceWorkerControlledE = hidden unnamed_addr constant { [4 x i8*] } { [4 x i8*] [i8* null, i8* null, i8* bitcast (void (%"class.ukm::builders::PageLoad_ServiceWorkerControlled"*)* @_ZN3ukm8builders32PageLoad_ServiceWorkerControlledD2Ev to i8*), i8* bitcast (void (%"class.ukm::builders::PageLoad_ServiceWorkerControlled"*)* @_ZN3ukm8builders32PageLoad_ServiceWorkerControlledD0Ev to i8*)] }, align 8
@_ZN3ukm8builders23PageLoad_SignedExchange10kEntryNameE = hidden local_unnamed_addr constant [24 x i8] c"PageLoad.SignedExchange\00", align 16
@_ZN3ukm8builders23PageLoad_SignedExchange14kEntryNameHashE = hidden local_unnamed_addr constant i64 -3880729623631440798, align 8
@_ZTVN3ukm8builders23PageLoad_SignedExchangeE = hidden unnamed_addr constant { [4 x i8*] } { [4 x i8*] [i8* null, i8* null, i8* bitcast (void (%"class.ukm::builders::PageLoad_SignedExchange"*)* @_ZN3ukm8builders23PageLoad_SignedExchangeD2Ev to i8*), i8* bitcast (void (%"class.ukm::builders::PageLoad_SignedExchange"*)* @_ZN3ukm8builders23PageLoad_SignedExchangeD0Ev to i8*)] }, align 8
@_ZN3ukm8builders23PageLoad_SignedExchange26kServedFromGoogleCacheNameE = hidden local_unnamed_addr constant [22 x i8] c"ServedFromGoogleCache\00", align 16
@_ZN3ukm8builders23PageLoad_SignedExchange30kServedFromGoogleCacheNameHashE = hidden local_unnamed_addr constant i64 -714058524417308933, align 8
@_ZN3ukm8builders16PageWithPassword10kEntryNameE = hidden local_unnamed_addr constant [17 x i8] c"PageWithPassword\00", align 16
@_ZN3ukm8builders16PageWithPassword14kEntryNameHashE = hidden local_unnamed_addr constant i64 2493630448790526384, align 8
@_ZTVN3ukm8builders16PageWithPasswordE = hidden unnamed_addr constant { [4 x i8*] } { [4 x i8*] [i8* null, i8* null, i8* bitcast (void (%"class.ukm::builders::PageWithPassword"*)* @_ZN3ukm8builders16PageWithPasswordD2Ev to i8*), i8* bitcast (void (%"class.ukm::builders::PageWithPassword"*)* @_ZN3ukm8builders16PageWithPasswordD0Ev to i8*)] }, align 8
@_ZN3ukm8builders16PageWithPassword25kFormManagerAvailableNameE = hidden local_unnamed_addr constant [21 x i8] c"FormManagerAvailable\00", align 16
@_ZN3ukm8builders16PageWithPassword29kFormManagerAvailableNameHashE = hidden local_unnamed_addr constant i64 -2378084265906385266, align 8
@_ZN3ukm8builders16PageWithPassword24kPageLevelUserActionNameE = hidden local_unnamed_addr constant [20 x i8] c"PageLevelUserAction\00", align 16
@_ZN3ukm8builders16PageWithPassword28kPageLevelUserActionNameHashE = hidden local_unnamed_addr constant i64 -7469494177550160581, align 8
@_ZN3ukm8builders16PageWithPassword27kProvisionalSaveFailureNameE = hidden local_unnamed_addr constant [23 x i8] c"ProvisionalSaveFailure\00", align 16
@_ZN3ukm8builders16PageWithPassword31kProvisionalSaveFailureNameHashE = hidden local_unnamed_addr constant i64 7470710753863609401, align 8
@_ZN3ukm8builders16PageWithPassword30kUserModifiedPasswordFieldNameE = hidden local_unnamed_addr constant [26 x i8] c"UserModifiedPasswordField\00", align 16
@_ZN3ukm8builders16PageWithPassword34kUserModifiedPasswordFieldNameHashE = hidden local_unnamed_addr constant i64 2714307025842210332, align 8
@_ZN3ukm8builders19PaintPreviewCapture10kEntryNameE = hidden local_unnamed_addr constant [20 x i8] c"PaintPreviewCapture\00", align 16
@_ZN3ukm8builders19PaintPreviewCapture14kEntryNameHashE = hidden local_unnamed_addr constant i64 1595630084981618121, align 8
@_ZTVN3ukm8builders19PaintPreviewCaptureE = hidden unnamed_addr constant { [4 x i8*] } { [4 x i8*] [i8* null, i8* null, i8* bitcast (void (%"class.ukm::builders::PaintPreviewCapture"*)* @_ZN3ukm8builders19PaintPreviewCaptureD2Ev to i8*), i8* bitcast (void (%"class.ukm::builders::PaintPreviewCapture"*)* @_ZN3ukm8builders19PaintPreviewCaptureD0Ev to i8*)] }, align 8
@_ZN3ukm8builders19PaintPreviewCapture21kBlinkCaptureTimeNameE = hidden local_unnamed_addr constant [17 x i8] c"BlinkCaptureTime\00", align 16
@_ZN3ukm8builders19PaintPreviewCapture25kBlinkCaptureTimeNameHashE = hidden local_unnamed_addr constant i64 6510140679687069140, align 8
@_ZN3ukm8builders19PaintPreviewCapture25kCompressedOnDiskSizeNameE = hidden local_unnamed_addr constant [21 x i8] c"CompressedOnDiskSize\00", align 16
@_ZN3ukm8builders19PaintPreviewCapture29kCompressedOnDiskSizeNameHashE = hidden local_unnamed_addr constant i64 -5475244267524410569, align 8
@_ZN3ukm8builders12PasswordForm10kEntryNameE = hidden local_unnamed_addr constant [13 x i8] c"PasswordForm\00", align 1
@_ZN3ukm8builders12PasswordForm14kEntryNameHashE = hidden local_unnamed_addr constant i64 8060270586115376858, align 8
@_ZTVN3ukm8builders12PasswordFormE = hidden unnamed_addr constant { [4 x i8*] } { [4 x i8*] [i8* null, i8* null, i8* bitcast (void (%"class.ukm::builders::PasswordForm"*)* @_ZN3ukm8builders12PasswordFormD2Ev to i8*), i8* bitcast (void (%"class.ukm::builders::PasswordForm"*)* @_ZN3ukm8builders12PasswordFormD0Ev to i8*)] }, align 8
@_ZN3ukm8builders12PasswordForm26kContext_FormSignatureNameE = hidden local_unnamed_addr constant [22 x i8] c"Context.FormSignature\00", align 16
@_ZN3ukm8builders12PasswordForm30kContext_FormSignatureNameHashE = hidden local_unnamed_addr constant i64 7963393494324030143, align 8
@_ZN3ukm8builders12PasswordForm23kDynamicFormChangesNameE = hidden local_unnamed_addr constant [19 x i8] c"DynamicFormChanges\00", align 16
@_ZN3ukm8builders12PasswordForm27kDynamicFormChangesNameHashE = hidden local_unnamed_addr constant i64 2597861915893901769, align 8
@_ZN3ukm8builders12PasswordForm38kFill_FirstFillingResultInRendererNameE = hidden local_unnamed_addr constant [34 x i8] c"Fill.FirstFillingResultInRenderer\00", align 16
@_ZN3ukm8builders12PasswordForm42kFill_FirstFillingResultInRendererNameHashE = hidden local_unnamed_addr constant i64 2520810486634620725, align 8
@_ZN3ukm8builders12PasswordForm36kFill_FirstWaitForUsernameReasonNameE = hidden local_unnamed_addr constant [32 x i8] c"Fill.FirstWaitForUsernameReason\00", align 16
@_ZN3ukm8builders12PasswordForm40kFill_FirstWaitForUsernameReasonNameHashE = hidden local_unnamed_addr constant i64 7438807842425949182, align 8
@_ZN3ukm8builders12PasswordForm15kFillOnLoadNameE = hidden local_unnamed_addr constant [11 x i8] c"FillOnLoad\00", align 1
@_ZN3ukm8builders12PasswordForm19kFillOnLoadNameHashE = hidden local_unnamed_addr constant i64 -6536058990492600743, align 8
@_ZN3ukm8builders12PasswordForm33kGeneration_GeneratedPasswordNameE = hidden local_unnamed_addr constant [29 x i8] c"Generation.GeneratedPassword\00", align 16
@_ZN3ukm8builders12PasswordForm37kGeneration_GeneratedPasswordNameHashE = hidden local_unnamed_addr constant i64 63581670180275077, align 8
@_ZN3ukm8builders12PasswordForm41kGeneration_GeneratedPasswordModifiedNameE = hidden local_unnamed_addr constant [37 x i8] c"Generation.GeneratedPasswordModified\00", align 16
@_ZN3ukm8builders12PasswordForm45kGeneration_GeneratedPasswordModifiedNameHashE = hidden local_unnamed_addr constant i64 2019134969922041879, align 8
@_ZN3ukm8builders12PasswordForm26kGeneration_PopupShownNameE = hidden local_unnamed_addr constant [22 x i8] c"Generation.PopupShown\00", align 16
@_ZN3ukm8builders12PasswordForm30kGeneration_PopupShownNameHashE = hidden local_unnamed_addr constant i64 3779268428021661864, align 8
@_ZN3ukm8builders12PasswordForm23kManagerFill_ActionNameE = hidden local_unnamed_addr constant [19 x i8] c"ManagerFill.Action\00", align 16
@_ZN3ukm8builders12PasswordForm27kManagerFill_ActionNameHashE = hidden local_unnamed_addr constant i64 -7967291269269493482, align 8
@_ZN3ukm8builders12PasswordForm27kManagerFill_AssistanceNameE = hidden local_unnamed_addr constant [23 x i8] c"ManagerFill.Assistance\00", align 16
@_ZN3ukm8builders12PasswordForm31kManagerFill_AssistanceNameHashE = hidden local_unnamed_addr constant i64 8134193492903112186, align 8
@_ZN3ukm8builders12PasswordForm24kReadonlyWhenFillingNameE = hidden local_unnamed_addr constant [20 x i8] c"ReadonlyWhenFilling\00", align 16
@_ZN3ukm8builders12PasswordForm28kReadonlyWhenFillingNameHashE = hidden local_unnamed_addr constant i64 4514761882709205318, align 8
@_ZN3ukm8builders12PasswordForm23kReadonlyWhenSavingNameE = hidden local_unnamed_addr constant [19 x i8] c"ReadonlyWhenSaving\00", align 16
@_ZN3ukm8builders12PasswordForm27kReadonlyWhenSavingNameHashE = hidden local_unnamed_addr constant i64 3695413570360800308, align 8
@_ZN3ukm8builders12PasswordForm30kSaving_Prompt_InteractionNameE = hidden local_unnamed_addr constant [26 x i8] c"Saving.Prompt.Interaction\00", align 16
@_ZN3ukm8builders12PasswordForm34kSaving_Prompt_InteractionNameHashE = hidden local_unnamed_addr constant i64 -7186716261692244654, align 8
@_ZN3ukm8builders12PasswordForm24kSaving_Prompt_ShownNameE = hidden local_unnamed_addr constant [20 x i8] c"Saving.Prompt.Shown\00", align 16
@_ZN3ukm8builders12PasswordForm28kSaving_Prompt_ShownNameHashE = hidden local_unnamed_addr constant i64 -1295940427830030058, align 8
@_ZN3ukm8builders12PasswordForm26kSaving_Prompt_TriggerNameE = hidden local_unnamed_addr constant [22 x i8] c"Saving.Prompt.Trigger\00", align 16
@_ZN3ukm8builders12PasswordForm30kSaving_Prompt_TriggerNameHashE = hidden local_unnamed_addr constant i64 -4076699438011478962, align 8
@_ZN3ukm8builders12PasswordForm41kSaving_ShowedManualFallbackForSavingNameE = hidden local_unnamed_addr constant [37 x i8] c"Saving.ShowedManualFallbackForSaving\00", align 16
@_ZN3ukm8builders12PasswordForm45kSaving_ShowedManualFallbackForSavingNameHashE = hidden local_unnamed_addr constant i64 1380853887219072743, align 8
@_ZN3ukm8builders12PasswordForm25kSubmission_IndicatorNameE = hidden local_unnamed_addr constant [21 x i8] c"Submission.Indicator\00", align 16
@_ZN3ukm8builders12PasswordForm29kSubmission_IndicatorNameHashE = hidden local_unnamed_addr constant i64 2585760809099691441, align 8
@_ZN3ukm8builders12PasswordForm24kSubmission_ObservedNameE = hidden local_unnamed_addr constant [20 x i8] c"Submission.Observed\00", align 16
@_ZN3ukm8builders12PasswordForm28kSubmission_ObservedNameHashE = hidden local_unnamed_addr constant i64 4515933539223991436, align 8
@_ZN3ukm8builders12PasswordForm32kSubmission_SubmissionResultNameE = hidden local_unnamed_addr constant [28 x i8] c"Submission.SubmissionResult\00", align 16
@_ZN3ukm8builders12PasswordForm36kSubmission_SubmissionResultNameHashE = hidden local_unnamed_addr constant i64 -3199072526784333975, align 8
@_ZN3ukm8builders12PasswordForm33kSubmission_SubmittedFormTypeNameE = hidden local_unnamed_addr constant [29 x i8] c"Submission.SubmittedFormType\00", align 16
@_ZN3ukm8builders12PasswordForm37kSubmission_SubmittedFormTypeNameHashE = hidden local_unnamed_addr constant i64 9111877994358158676, align 8
@_ZN3ukm8builders12PasswordForm32kUpdating_Prompt_InteractionNameE = hidden local_unnamed_addr constant [28 x i8] c"Updating.Prompt.Interaction\00", align 16
@_ZN3ukm8builders12PasswordForm36kUpdating_Prompt_InteractionNameHashE = hidden local_unnamed_addr constant i64 -4126032693647928674, align 8
@_ZN3ukm8builders12PasswordForm26kUpdating_Prompt_ShownNameE = hidden local_unnamed_addr constant [22 x i8] c"Updating.Prompt.Shown\00", align 16
@_ZN3ukm8builders12PasswordForm30kUpdating_Prompt_ShownNameHashE = hidden local_unnamed_addr constant i64 -665109358344341816, align 8
@_ZN3ukm8builders12PasswordForm28kUpdating_Prompt_TriggerNameE = hidden local_unnamed_addr constant [24 x i8] c"Updating.Prompt.Trigger\00", align 16
@_ZN3ukm8builders12PasswordForm32kUpdating_Prompt_TriggerNameHashE = hidden local_unnamed_addr constant i64 -3237560894993921789, align 8
@_ZN3ukm8builders12PasswordForm40kUser_Action_CorrectedUsernameInFormNameE = hidden local_unnamed_addr constant [36 x i8] c"User.Action.CorrectedUsernameInForm\00", align 16
@_ZN3ukm8builders12PasswordForm44kUser_Action_CorrectedUsernameInFormNameHashE = hidden local_unnamed_addr constant i64 7751416161539292552, align 8
@_ZN3ukm8builders12PasswordForm39kUser_Action_EditedUsernameInBubbleNameE = hidden local_unnamed_addr constant [35 x i8] c"User.Action.EditedUsernameInBubble\00", align 16
@_ZN3ukm8builders12PasswordForm43kUser_Action_EditedUsernameInBubbleNameHashE = hidden local_unnamed_addr constant i64 -7480084369066192139, align 8
@_ZN3ukm8builders12PasswordForm50kUser_Action_SelectedDifferentPasswordInBubbleNameE = hidden local_unnamed_addr constant [46 x i8] c"User.Action.SelectedDifferentPasswordInBubble\00", align 16
@_ZN3ukm8builders12PasswordForm54kUser_Action_SelectedDifferentPasswordInBubbleNameHashE = hidden local_unnamed_addr constant i64 6311303221302518030, align 8
@_ZN3ukm8builders12PasswordForm49kUser_Action_TriggeredManualFallbackForSavingNameE = hidden local_unnamed_addr constant [45 x i8] c"User.Action.TriggeredManualFallbackForSaving\00", align 16
@_ZN3ukm8builders12PasswordForm53kUser_Action_TriggeredManualFallbackForSavingNameHashE = hidden local_unnamed_addr constant i64 2587019996419876036, align 8
@_ZN3ukm8builders45PasswordManager_WellKnownChangePasswordResult10kEntryNameE = hidden local_unnamed_addr constant [46 x i8] c"PasswordManager.WellKnownChangePasswordResult\00", align 16
@_ZN3ukm8builders45PasswordManager_WellKnownChangePasswordResult14kEntryNameHashE = hidden local_unnamed_addr constant i64 8595641688177899640, align 8
@_ZTVN3ukm8builders45PasswordManager_WellKnownChangePasswordResultE = hidden unnamed_addr constant { [4 x i8*] } { [4 x i8*] [i8* null, i8* null, i8* bitcast (void (%"class.ukm::builders::PasswordManager_WellKnownChangePasswordResult"*)* @_ZN3ukm8builders45PasswordManager_WellKnownChangePasswordResultD2Ev to i8*), i8* bitcast (void (%"class.ukm::builders::PasswordManager_WellKnownChangePasswordResult"*)* @_ZN3ukm8builders45PasswordManager_WellKnownChangePasswordResultD0Ev to i8*)] }, align 8
@_ZN3ukm8builders45PasswordManager_WellKnownChangePasswordResult34kWellKnownChangePasswordResultNameE = hidden local_unnamed_addr constant [30 x i8] c"WellKnownChangePasswordResult\00", align 16
@_ZN3ukm8builders45PasswordManager_WellKnownChangePasswordResult38kWellKnownChangePasswordResultNameHashE = hidden local_unnamed_addr constant i64 -4268060290464884155, align 8
@_ZN3ukm8builders25PaymentApp_CheckoutEvents10kEntryNameE = hidden local_unnamed_addr constant [26 x i8] c"PaymentApp.CheckoutEvents\00", align 16
@_ZN3ukm8builders25PaymentApp_CheckoutEvents14kEntryNameHashE = hidden local_unnamed_addr constant i64 702207440764833882, align 8
@_ZTVN3ukm8builders25PaymentApp_CheckoutEventsE = hidden unnamed_addr constant { [4 x i8*] } { [4 x i8*] [i8* null, i8* null, i8* bitcast (void (%"class.ukm::builders::PaymentApp_CheckoutEvents"*)* @_ZN3ukm8builders25PaymentApp_CheckoutEventsD2Ev to i8*), i8* bitcast (void (%"class.ukm::builders::PaymentApp_CheckoutEvents"*)* @_ZN3ukm8builders25PaymentApp_CheckoutEventsD0Ev to i8*)] }, align 8
@_ZN3ukm8builders25PaymentApp_CheckoutEvents21kCompletionStatusNameE = hidden local_unnamed_addr constant [17 x i8] c"CompletionStatus\00", align 16
@_ZN3ukm8builders25PaymentApp_CheckoutEvents25kCompletionStatusNameHashE = hidden local_unnamed_addr constant i64 5881049836470043232, align 8
@_ZN3ukm8builders25PaymentApp_CheckoutEvents11kEventsNameE = hidden local_unnamed_addr constant [7 x i8] c"Events\00", align 1
@_ZN3ukm8builders25PaymentApp_CheckoutEvents15kEventsNameHashE = hidden local_unnamed_addr constant i64 -8648609799668013165, align 8
@_ZN3ukm8builders25PaymentApp_CheckoutEvents12kEvents2NameE = hidden local_unnamed_addr constant [8 x i8] c"Events2\00", align 1
@_ZN3ukm8builders25PaymentApp_CheckoutEvents16kEvents2NameHashE = hidden local_unnamed_addr constant i64 -3941233622178395919, align 8
@_ZN3ukm8builders29PaymentRequest_CheckoutEvents10kEntryNameE = hidden local_unnamed_addr constant [30 x i8] c"PaymentRequest.CheckoutEvents\00", align 16
@_ZN3ukm8builders29PaymentRequest_CheckoutEvents14kEntryNameHashE = hidden local_unnamed_addr constant i64 9066413457122162526, align 8
@_ZTVN3ukm8builders29PaymentRequest_CheckoutEventsE = hidden unnamed_addr constant { [4 x i8*] } { [4 x i8*] [i8* null, i8* null, i8* bitcast (void (%"class.ukm::builders::PaymentRequest_CheckoutEvents"*)* @_ZN3ukm8builders29PaymentRequest_CheckoutEventsD2Ev to i8*), i8* bitcast (void (%"class.ukm::builders::PaymentRequest_CheckoutEvents"*)* @_ZN3ukm8builders29PaymentRequest_CheckoutEventsD0Ev to i8*)] }, align 8
@_ZN3ukm8builders29PaymentRequest_CheckoutEvents21kCompletionStatusNameE = hidden local_unnamed_addr constant [17 x i8] c"CompletionStatus\00", align 16
@_ZN3ukm8builders29PaymentRequest_CheckoutEvents25kCompletionStatusNameHashE = hidden local_unnamed_addr constant i64 5881049836470043232, align 8
@_ZN3ukm8builders29PaymentRequest_CheckoutEvents11kEventsNameE = hidden local_unnamed_addr constant [7 x i8] c"Events\00", align 1
@_ZN3ukm8builders29PaymentRequest_CheckoutEvents15kEventsNameHashE = hidden local_unnamed_addr constant i64 -8648609799668013165, align 8
@_ZN3ukm8builders29PaymentRequest_CheckoutEvents12kEvents2NameE = hidden local_unnamed_addr constant [8 x i8] c"Events2\00", align 1
@_ZN3ukm8builders29PaymentRequest_CheckoutEvents16kEvents2NameHashE = hidden local_unnamed_addr constant i64 -3941233622178395919, align 8
@_ZN3ukm8builders32PaymentRequest_TransactionAmount10kEntryNameE = hidden local_unnamed_addr constant [33 x i8] c"PaymentRequest.TransactionAmount\00", align 16
@_ZN3ukm8builders32PaymentRequest_TransactionAmount14kEntryNameHashE = hidden local_unnamed_addr constant i64 4090736682116197688, align 8
@_ZTVN3ukm8builders32PaymentRequest_TransactionAmountE = hidden unnamed_addr constant { [4 x i8*] } { [4 x i8*] [i8* null, i8* null, i8* bitcast (void (%"class.ukm::builders::PaymentRequest_TransactionAmount"*)* @_ZN3ukm8builders32PaymentRequest_TransactionAmountD2Ev to i8*), i8* bitcast (void (%"class.ukm::builders::PaymentRequest_TransactionAmount"*)* @_ZN3ukm8builders32PaymentRequest_TransactionAmountD0Ev to i8*)] }, align 8
@_ZN3ukm8builders32PaymentRequest_TransactionAmount13kCategoryNameE = hidden local_unnamed_addr constant [9 x i8] c"Category\00", align 1
@_ZN3ukm8builders32PaymentRequest_TransactionAmount17kCategoryNameHashE = hidden local_unnamed_addr constant i64 4241224519481557898, align 8
@_ZN3ukm8builders32PaymentRequest_TransactionAmount21kCompletionStatusNameE = hidden local_unnamed_addr constant [17 x i8] c"CompletionStatus\00", align 16
@_ZN3ukm8builders32PaymentRequest_TransactionAmount25kCompletionStatusNameHashE = hidden local_unnamed_addr constant i64 5881049836470043232, align 8
@_ZN3ukm8builders13Pepper_Broker10kEntryNameE = hidden local_unnamed_addr constant [14 x i8] c"Pepper.Broker\00", align 1
@_ZN3ukm8builders13Pepper_Broker14kEntryNameHashE = hidden local_unnamed_addr constant i64 4863880088883807024, align 8
@_ZTVN3ukm8builders13Pepper_BrokerE = hidden unnamed_addr constant { [4 x i8*] } { [4 x i8*] [i8* null, i8* null, i8* bitcast (void (%"class.ukm::builders::Pepper_Broker"*)* @_ZN3ukm8builders13Pepper_BrokerD2Ev to i8*), i8* bitcast (void (%"class.ukm::builders::Pepper_Broker"*)* @_ZN3ukm8builders13Pepper_BrokerD0Ev to i8*)] }, align 8
@_ZN3ukm8builders17PerfectHeuristics10kEntryNameE = hidden local_unnamed_addr constant [18 x i8] c"PerfectHeuristics\00", align 16
@_ZN3ukm8builders17PerfectHeuristics14kEntryNameHashE = hidden local_unnamed_addr constant i64 -790757888265457995, align 8
@_ZTVN3ukm8builders17PerfectHeuristicsE = hidden unnamed_addr constant { [4 x i8*] } { [4 x i8*] [i8* null, i8* null, i8* bitcast (void (%"class.ukm::builders::PerfectHeuristics"*)* @_ZN3ukm8builders17PerfectHeuristicsD2Ev to i8*), i8* bitcast (void (%"class.ukm::builders::PerfectHeuristics"*)* @_ZN3ukm8builders17PerfectHeuristicsD0Ev to i8*)] }, align 8
@_ZN3ukm8builders17PerfectHeuristics57kdelay_async_script_execution_before_finished_parsingNameE = hidden local_unnamed_addr constant [53 x i8] c"delay_async_script_execution_before_finished_parsing\00", align 16
@_ZN3ukm8builders17PerfectHeuristics61kdelay_async_script_execution_before_finished_parsingNameHashE = hidden local_unnamed_addr constant i64 -4745409017641122364, align 8
@_ZN3ukm8builders17PerfectHeuristics38kDelayCompetingLowPriorityRequestsNameE = hidden local_unnamed_addr constant [34 x i8] c"DelayCompetingLowPriorityRequests\00", align 16
@_ZN3ukm8builders17PerfectHeuristics42kDelayCompetingLowPriorityRequestsNameHashE = hidden local_unnamed_addr constant i64 -6156127029386719017, align 8
@_ZN3ukm8builders23PerformanceAPI_LongTask10kEntryNameE = hidden local_unnamed_addr constant [24 x i8] c"PerformanceAPI.LongTask\00", align 16
@_ZN3ukm8builders23PerformanceAPI_LongTask14kEntryNameHashE = hidden local_unnamed_addr constant i64 8942554384206766435, align 8
@_ZTVN3ukm8builders23PerformanceAPI_LongTaskE = hidden unnamed_addr constant { [4 x i8*] } { [4 x i8*] [i8* null, i8* null, i8* bitcast (void (%"class.ukm::builders::PerformanceAPI_LongTask"*)* @_ZN3ukm8builders23PerformanceAPI_LongTaskD2Ev to i8*), i8* bitcast (void (%"class.ukm::builders::PerformanceAPI_LongTask"*)* @_ZN3ukm8builders23PerformanceAPI_LongTaskD0Ev to i8*)] }, align 8
@_ZN3ukm8builders23PerformanceAPI_LongTask13kDurationNameE = hidden local_unnamed_addr constant [9 x i8] c"Duration\00", align 1
@_ZN3ukm8builders23PerformanceAPI_LongTask17kDurationNameHashE = hidden local_unnamed_addr constant i64 -2293129492661939053, align 8
@_ZN3ukm8builders23PerformanceAPI_LongTask19kDuration_V8_GCNameE = hidden local_unnamed_addr constant [15 x i8] c"Duration.V8.GC\00", align 1
@_ZN3ukm8builders23PerformanceAPI_LongTask23kDuration_V8_GCNameHashE = hidden local_unnamed_addr constant i64 -7098013842965112096, align 8
@_ZN3ukm8builders23PerformanceAPI_LongTask31kDuration_V8_GC_Full_AtomicNameE = hidden local_unnamed_addr constant [27 x i8] c"Duration.V8.GC.Full.Atomic\00", align 16
@_ZN3ukm8builders23PerformanceAPI_LongTask35kDuration_V8_GC_Full_AtomicNameHashE = hidden local_unnamed_addr constant i64 -7773505583155008059, align 8
@_ZN3ukm8builders23PerformanceAPI_LongTask36kDuration_V8_GC_Full_IncrementalNameE = hidden local_unnamed_addr constant [32 x i8] c"Duration.V8.GC.Full.Incremental\00", align 16
@_ZN3ukm8builders23PerformanceAPI_LongTask40kDuration_V8_GC_Full_IncrementalNameHashE = hidden local_unnamed_addr constant i64 -1251414221650602973, align 8
@_ZN3ukm8builders23PerformanceAPI_LongTask25kDuration_V8_GC_YoungNameE = hidden local_unnamed_addr constant [21 x i8] c"Duration.V8.GC.Young\00", align 16
@_ZN3ukm8builders23PerformanceAPI_LongTask29kDuration_V8_GC_YoungNameHashE = hidden local_unnamed_addr constant i64 6481026756167768720, align 8
@_ZN3ukm8builders23PerformanceAPI_LongTask14kStartTimeNameE = hidden local_unnamed_addr constant [10 x i8] c"StartTime\00", align 1
@_ZN3ukm8builders23PerformanceAPI_LongTask18kStartTimeNameHashE = hidden local_unnamed_addr constant i64 -7770451445182764689, align 8
@_ZN3ukm8builders21PerformanceAPI_Memory10kEntryNameE = hidden local_unnamed_addr constant [22 x i8] c"PerformanceAPI.Memory\00", align 16
@_ZN3ukm8builders21PerformanceAPI_Memory14kEntryNameHashE = hidden local_unnamed_addr constant i64 -6624339883618569518, align 8
@_ZTVN3ukm8builders21PerformanceAPI_MemoryE = hidden unnamed_addr constant { [4 x i8*] } { [4 x i8*] [i8* null, i8* null, i8* bitcast (void (%"class.ukm::builders::PerformanceAPI_Memory"*)* @_ZN3ukm8builders21PerformanceAPI_MemoryD2Ev to i8*), i8* bitcast (void (%"class.ukm::builders::PerformanceAPI_Memory"*)* @_ZN3ukm8builders21PerformanceAPI_MemoryD0Ev to i8*)] }, align 8
@_ZN3ukm8builders21PerformanceAPI_Memory8kDomNameE = hidden local_unnamed_addr constant [4 x i8] c"Dom\00", align 1
@_ZN3ukm8builders21PerformanceAPI_Memory12kDomNameHashE = hidden local_unnamed_addr constant i64 -8867763589565531992, align 8
@_ZN3ukm8builders21PerformanceAPI_Memory15kJavaScriptNameE = hidden local_unnamed_addr constant [11 x i8] c"JavaScript\00", align 1
@_ZN3ukm8builders21PerformanceAPI_Memory19kJavaScriptNameHashE = hidden local_unnamed_addr constant i64 7521387064766892559, align 8
@_ZN3ukm8builders21PerformanceAPI_Memory31kJavaScript_DedicatedWorkerNameE = hidden local_unnamed_addr constant [27 x i8] c"JavaScript.DedicatedWorker\00", align 16
@_ZN3ukm8builders21PerformanceAPI_Memory35kJavaScript_DedicatedWorkerNameHashE = hidden local_unnamed_addr constant i64 -1916044715962543612, align 8
@_ZN3ukm8builders21PerformanceAPI_Memory11kSharedNameE = hidden local_unnamed_addr constant [7 x i8] c"Shared\00", align 1
@_ZN3ukm8builders21PerformanceAPI_Memory15kSharedNameHashE = hidden local_unnamed_addr constant i64 -6479150813176402140, align 8
@_ZN3ukm8builders28PerformanceAPI_Memory_Legacy10kEntryNameE = hidden local_unnamed_addr constant [29 x i8] c"PerformanceAPI.Memory.Legacy\00", align 16
@_ZN3ukm8builders28PerformanceAPI_Memory_Legacy14kEntryNameHashE = hidden local_unnamed_addr constant i64 2959950180700461082, align 8
@_ZTVN3ukm8builders28PerformanceAPI_Memory_LegacyE = hidden unnamed_addr constant { [4 x i8*] } { [4 x i8*] [i8* null, i8* null, i8* bitcast (void (%"class.ukm::builders::PerformanceAPI_Memory_Legacy"*)* @_ZN3ukm8builders28PerformanceAPI_Memory_LegacyD2Ev to i8*), i8* bitcast (void (%"class.ukm::builders::PerformanceAPI_Memory_Legacy"*)* @_ZN3ukm8builders28PerformanceAPI_Memory_LegacyD0Ev to i8*)] }, align 8
@_ZN3ukm8builders28PerformanceAPI_Memory_Legacy15kJavaScriptNameE = hidden local_unnamed_addr constant [11 x i8] c"JavaScript\00", align 1
@_ZN3ukm8builders28PerformanceAPI_Memory_Legacy19kJavaScriptNameHashE = hidden local_unnamed_addr constant i64 7521387064766892559, align 8
@_ZN3ukm8builders36PeriodicBackgroundSyncEventCompleted10kEntryNameE = hidden local_unnamed_addr constant [37 x i8] c"PeriodicBackgroundSyncEventCompleted\00", align 16
@_ZN3ukm8builders36PeriodicBackgroundSyncEventCompleted14kEntryNameHashE = hidden local_unnamed_addr constant i64 -7583612990984321235, align 8
@_ZTVN3ukm8builders36PeriodicBackgroundSyncEventCompletedE = hidden unnamed_addr constant { [4 x i8*] } { [4 x i8*] [i8* null, i8* null, i8* bitcast (void (%"class.ukm::builders::PeriodicBackgroundSyncEventCompleted"*)* @_ZN3ukm8builders36PeriodicBackgroundSyncEventCompletedD2Ev to i8*), i8* bitcast (void (%"class.ukm::builders::PeriodicBackgroundSyncEventCompleted"*)* @_ZN3ukm8builders36PeriodicBackgroundSyncEventCompletedD0Ev to i8*)] }, align 8
@_ZN3ukm8builders36PeriodicBackgroundSyncEventCompleted16kMaxAttemptsNameE = hidden local_unnamed_addr constant [12 x i8] c"MaxAttempts\00", align 1
@_ZN3ukm8builders36PeriodicBackgroundSyncEventCompleted20kMaxAttemptsNameHashE = hidden local_unnamed_addr constant i64 -4635527887683331270, align 8
@_ZN3ukm8builders36PeriodicBackgroundSyncEventCompleted16kNumAttemptsNameE = hidden local_unnamed_addr constant [12 x i8] c"NumAttempts\00", align 1
@_ZN3ukm8builders36PeriodicBackgroundSyncEventCompleted20kNumAttemptsNameHashE = hidden local_unnamed_addr constant i64 537979731801272247, align 8
@_ZN3ukm8builders36PeriodicBackgroundSyncEventCompleted11kStatusNameE = hidden local_unnamed_addr constant [7 x i8] c"Status\00", align 1
@_ZN3ukm8builders36PeriodicBackgroundSyncEventCompleted15kStatusNameHashE = hidden local_unnamed_addr constant i64 -1417603893889880363, align 8
@_ZN3ukm8builders32PeriodicBackgroundSyncRegistered10kEntryNameE = hidden local_unnamed_addr constant [33 x i8] c"PeriodicBackgroundSyncRegistered\00", align 16
@_ZN3ukm8builders32PeriodicBackgroundSyncRegistered14kEntryNameHashE = hidden local_unnamed_addr constant i64 8211654418406942912, align 8
@_ZTVN3ukm8builders32PeriodicBackgroundSyncRegisteredE = hidden unnamed_addr constant { [4 x i8*] } { [4 x i8*] [i8* null, i8* null, i8* bitcast (void (%"class.ukm::builders::PeriodicBackgroundSyncRegistered"*)* @_ZN3ukm8builders32PeriodicBackgroundSyncRegisteredD2Ev to i8*), i8* bitcast (void (%"class.ukm::builders::PeriodicBackgroundSyncRegistered"*)* @_ZN3ukm8builders32PeriodicBackgroundSyncRegisteredD0Ev to i8*)] }, align 8
@_ZN3ukm8builders32PeriodicBackgroundSyncRegistered19kIsReregisteredNameE = hidden local_unnamed_addr constant [15 x i8] c"IsReregistered\00", align 1
@_ZN3ukm8builders32PeriodicBackgroundSyncRegistered23kIsReregisteredNameHashE = hidden local_unnamed_addr constant i64 -8364002383767731155, align 8
@_ZN3ukm8builders32PeriodicBackgroundSyncRegistered18kMinIntervalMsNameE = hidden local_unnamed_addr constant [14 x i8] c"MinIntervalMs\00", align 1
@_ZN3ukm8builders32PeriodicBackgroundSyncRegistered22kMinIntervalMsNameHashE = hidden local_unnamed_addr constant i64 -7116126681044516983, align 8
@_ZN3ukm8builders10Permission10kEntryNameE = hidden local_unnamed_addr constant [11 x i8] c"Permission\00", align 1
@_ZN3ukm8builders10Permission14kEntryNameHashE = hidden local_unnamed_addr constant i64 -1342659789353687269, align 8
@_ZTVN3ukm8builders10PermissionE = hidden unnamed_addr constant { [4 x i8*] } { [4 x i8*] [i8* null, i8* null, i8* bitcast (void (%"class.ukm::builders::Permission"*)* @_ZN3ukm8builders10PermissionD2Ev to i8*), i8* bitcast (void (%"class.ukm::builders::Permission"*)* @_ZN3ukm8builders10PermissionD0Ev to i8*)] }, align 8
@_ZN3ukm8builders10Permission11kActionNameE = hidden local_unnamed_addr constant [7 x i8] c"Action\00", align 1
@_ZN3ukm8builders10Permission15kActionNameHashE = hidden local_unnamed_addr constant i64 21381969153622804, align 8
@_ZN3ukm8builders10Permission12kGestureNameE = hidden local_unnamed_addr constant [8 x i8] c"Gesture\00", align 1
@_ZN3ukm8builders10Permission16kGestureNameHashE = hidden local_unnamed_addr constant i64 1976985484619472355, align 8
@_ZN3ukm8builders10Permission36kPermissionAutoRevocationHistoryNameE = hidden local_unnamed_addr constant [32 x i8] c"PermissionAutoRevocationHistory\00", align 16
@_ZN3ukm8builders10Permission40kPermissionAutoRevocationHistoryNameHashE = hidden local_unnamed_addr constant i64 4395845358858109531, align 8
@_ZN3ukm8builders10Permission19kPermissionTypeNameE = hidden local_unnamed_addr constant [15 x i8] c"PermissionType\00", align 1
@_ZN3ukm8builders10Permission23kPermissionTypeNameHashE = hidden local_unnamed_addr constant i64 -5608657988819969776, align 8
@_ZN3ukm8builders10Permission43kPredictionsApiResponse_GrantLikelihoodNameE = hidden local_unnamed_addr constant [39 x i8] c"PredictionsApiResponse.GrantLikelihood\00", align 16
@_ZN3ukm8builders10Permission47kPredictionsApiResponse_GrantLikelihoodNameHashE = hidden local_unnamed_addr constant i64 -8006185928961100586, align 8
@_ZN3ukm8builders10Permission20kPriorDismissalsNameE = hidden local_unnamed_addr constant [16 x i8] c"PriorDismissals\00", align 16
@_ZN3ukm8builders10Permission24kPriorDismissalsNameHashE = hidden local_unnamed_addr constant i64 -8813833631470799137, align 8
@_ZN3ukm8builders10Permission17kPriorIgnoresNameE = hidden local_unnamed_addr constant [13 x i8] c"PriorIgnores\00", align 1
@_ZN3ukm8builders10Permission21kPriorIgnoresNameHashE = hidden local_unnamed_addr constant i64 1762046784113667081, align 8
@_ZN3ukm8builders10Permission22kPromptDispositionNameE = hidden local_unnamed_addr constant [18 x i8] c"PromptDisposition\00", align 16
@_ZN3ukm8builders10Permission26kPromptDispositionNameHashE = hidden local_unnamed_addr constant i64 1320746900446203052, align 8
@_ZN3ukm8builders10Permission28kPromptDispositionReasonNameE = hidden local_unnamed_addr constant [24 x i8] c"PromptDispositionReason\00", align 16
@_ZN3ukm8builders10Permission32kPromptDispositionReasonNameHashE = hidden local_unnamed_addr constant i64 4135685975003167800, align 8
@_ZN3ukm8builders10Permission30kSatisfiedAdaptiveTriggersNameE = hidden local_unnamed_addr constant [26 x i8] c"SatisfiedAdaptiveTriggers\00", align 16
@_ZN3ukm8builders10Permission34kSatisfiedAdaptiveTriggersNameHashE = hidden local_unnamed_addr constant i64 -6347545535798416087, align 8
@_ZN3ukm8builders10Permission11kSourceNameE = hidden local_unnamed_addr constant [7 x i8] c"Source\00", align 1
@_ZN3ukm8builders10Permission15kSourceNameHashE = hidden local_unnamed_addr constant i64 -928940189757711412, align 8
@_ZN3ukm8builders10Permission19kTimeToDecisionNameE = hidden local_unnamed_addr constant [15 x i8] c"TimeToDecision\00", align 1
@_ZN3ukm8builders10Permission23kTimeToDecisionNameHashE = hidden local_unnamed_addr constant i64 9106479769666366905, align 8
@_ZN3ukm8builders15PermissionUsage10kEntryNameE = hidden local_unnamed_addr constant [16 x i8] c"PermissionUsage\00", align 16
@_ZN3ukm8builders15PermissionUsage14kEntryNameHashE = hidden local_unnamed_addr constant i64 -3376108886697559979, align 8
@_ZTVN3ukm8builders15PermissionUsageE = hidden unnamed_addr constant { [4 x i8*] } { [4 x i8*] [i8* null, i8* null, i8* bitcast (void (%"class.ukm::builders::PermissionUsage"*)* @_ZN3ukm8builders15PermissionUsageD2Ev to i8*), i8* bitcast (void (%"class.ukm::builders::PermissionUsage"*)* @_ZN3ukm8builders15PermissionUsageD0Ev to i8*)] }, align 8
@_ZN3ukm8builders15PermissionUsage19kPermissionTypeNameE = hidden local_unnamed_addr constant [15 x i8] c"PermissionType\00", align 1
@_ZN3ukm8builders15PermissionUsage23kPermissionTypeNameHashE = hidden local_unnamed_addr constant i64 -5608657988819969776, align 8
@_ZN3ukm8builders21Plugins_FlashInstance10kEntryNameE = hidden local_unnamed_addr constant [22 x i8] c"Plugins.FlashInstance\00", align 16
@_ZN3ukm8builders21Plugins_FlashInstance14kEntryNameHashE = hidden local_unnamed_addr constant i64 2851782918499658607, align 8
@_ZTVN3ukm8builders21Plugins_FlashInstanceE = hidden unnamed_addr constant { [4 x i8*] } { [4 x i8*] [i8* null, i8* null, i8* bitcast (void (%"class.ukm::builders::Plugins_FlashInstance"*)* @_ZN3ukm8builders21Plugins_FlashInstanceD2Ev to i8*), i8* bitcast (void (%"class.ukm::builders::Plugins_FlashInstance"*)* @_ZN3ukm8builders21Plugins_FlashInstanceD0Ev to i8*)] }, align 8
@_ZN3ukm8builders12Popup_Closed10kEntryNameE = hidden local_unnamed_addr constant [13 x i8] c"Popup.Closed\00", align 1
@_ZN3ukm8builders12Popup_Closed14kEntryNameHashE = hidden local_unnamed_addr constant i64 5373577291340314501, align 8
@_ZTVN3ukm8builders12Popup_ClosedE = hidden unnamed_addr constant { [4 x i8*] } { [4 x i8*] [i8* null, i8* null, i8* bitcast (void (%"class.ukm::builders::Popup_Closed"*)* @_ZN3ukm8builders12Popup_ClosedD2Ev to i8*), i8* bitcast (void (%"class.ukm::builders::Popup_Closed"*)* @_ZN3ukm8builders12Popup_ClosedD0Ev to i8*)] }, align 8
@_ZN3ukm8builders12Popup_Closed19kEngagementTimeNameE = hidden local_unnamed_addr constant [15 x i8] c"EngagementTime\00", align 1
@_ZN3ukm8builders12Popup_Closed23kEngagementTimeNameHashE = hidden local_unnamed_addr constant i64 5757927903187539607, align 8
@_ZN3ukm8builders12Popup_Closed30kNumActivationInteractionsNameE = hidden local_unnamed_addr constant [26 x i8] c"NumActivationInteractions\00", align 16
@_ZN3ukm8builders12Popup_Closed34kNumActivationInteractionsNameHashE = hidden local_unnamed_addr constant i64 1968290450355139412, align 8
@_ZN3ukm8builders12Popup_Closed38kNumGestureScrollBeginInteractionsNameE = hidden local_unnamed_addr constant [34 x i8] c"NumGestureScrollBeginInteractions\00", align 16
@_ZN3ukm8builders12Popup_Closed42kNumGestureScrollBeginInteractionsNameHashE = hidden local_unnamed_addr constant i64 -1991332464796823345, align 8
@_ZN3ukm8builders12Popup_Closed20kNumInteractionsNameE = hidden local_unnamed_addr constant [16 x i8] c"NumInteractions\00", align 16
@_ZN3ukm8builders12Popup_Closed24kNumInteractionsNameHashE = hidden local_unnamed_addr constant i64 5654420946245687695, align 8
@_ZN3ukm8builders12Popup_Closed18kRedirectCountNameE = hidden local_unnamed_addr constant [14 x i8] c"RedirectCount\00", align 1
@_ZN3ukm8builders12Popup_Closed22kRedirectCountNameHashE = hidden local_unnamed_addr constant i64 -6375482790498041738, align 8
@_ZN3ukm8builders12Popup_Closed23kSafeBrowsingStatusNameE = hidden local_unnamed_addr constant [19 x i8] c"SafeBrowsingStatus\00", align 16
@_ZN3ukm8builders12Popup_Closed27kSafeBrowsingStatusNameHashE = hidden local_unnamed_addr constant i64 -8799691971172107635, align 8
@_ZN3ukm8builders12Popup_Closed12kTrustedNameE = hidden local_unnamed_addr constant [8 x i8] c"Trusted\00", align 1
@_ZN3ukm8builders12Popup_Closed16kTrustedNameHashE = hidden local_unnamed_addr constant i64 -4593568875943135588, align 8
@_ZN3ukm8builders12Popup_Closed23kUserInitiatedCloseNameE = hidden local_unnamed_addr constant [19 x i8] c"UserInitiatedClose\00", align 16
@_ZN3ukm8builders12Popup_Closed27kUserInitiatedCloseNameHashE = hidden local_unnamed_addr constant i64 -1994253560944011371, align 8
@_ZN3ukm8builders12Popup_Closed26kWindowOpenDispositionNameE = hidden local_unnamed_addr constant [22 x i8] c"WindowOpenDisposition\00", align 16
@_ZN3ukm8builders12Popup_Closed30kWindowOpenDispositionNameHashE = hidden local_unnamed_addr constant i64 -642348934239786583, align 8
@_ZN3ukm8builders10Popup_Page10kEntryNameE = hidden local_unnamed_addr constant [11 x i8] c"Popup.Page\00", align 1
@_ZN3ukm8builders10Popup_Page14kEntryNameHashE = hidden local_unnamed_addr constant i64 -9169740698266024101, align 8
@_ZTVN3ukm8builders10Popup_PageE = hidden unnamed_addr constant { [4 x i8*] } { [4 x i8*] [i8* null, i8* null, i8* bitcast (void (%"class.ukm::builders::Popup_Page"*)* @_ZN3ukm8builders10Popup_PageD2Ev to i8*), i8* bitcast (void (%"class.ukm::builders::Popup_Page"*)* @_ZN3ukm8builders10Popup_PageD0Ev to i8*)] }, align 8
@_ZN3ukm8builders10Popup_Page12kAllowedNameE = hidden local_unnamed_addr constant [8 x i8] c"Allowed\00", align 1
@_ZN3ukm8builders10Popup_Page16kAllowedNameHashE = hidden local_unnamed_addr constant i64 -4944981194572007538, align 8
@_ZN3ukm8builders15Portal_Activate10kEntryNameE = hidden local_unnamed_addr constant [16 x i8] c"Portal.Activate\00", align 16
@_ZN3ukm8builders15Portal_Activate14kEntryNameHashE = hidden local_unnamed_addr constant i64 570650911258459707, align 8
@_ZTVN3ukm8builders15Portal_ActivateE = hidden unnamed_addr constant { [4 x i8*] } { [4 x i8*] [i8* null, i8* null, i8* bitcast (void (%"class.ukm::builders::Portal_Activate"*)* @_ZN3ukm8builders15Portal_ActivateD2Ev to i8*), i8* bitcast (void (%"class.ukm::builders::Portal_Activate"*)* @_ZN3ukm8builders15Portal_ActivateD0Ev to i8*)] }, align 8
@_ZN3ukm8builders15Portal_Activate45kPaintTiming_PortalActivationToFirstPaintNameE = hidden local_unnamed_addr constant [41 x i8] c"PaintTiming.PortalActivationToFirstPaint\00", align 16
@_ZN3ukm8builders15Portal_Activate49kPaintTiming_PortalActivationToFirstPaintNameHashE = hidden local_unnamed_addr constant i64 -8095745655372554471, align 8
@_ZN3ukm8builders15Portal_Activate21kPortalActivationNameE = hidden local_unnamed_addr constant [17 x i8] c"PortalActivation\00", align 16
@_ZN3ukm8builders15Portal_Activate25kPortalActivationNameHashE = hidden local_unnamed_addr constant i64 4430962806322008522, align 8
@_ZN3ukm8builders15Portal_Activate30kPortalActivationBeforeLCPNameE = hidden local_unnamed_addr constant [26 x i8] c"PortalActivationBeforeLCP\00", align 16
@_ZN3ukm8builders15Portal_Activate34kPortalActivationBeforeLCPNameHashE = hidden local_unnamed_addr constant i64 -2271364079607840838, align 8
@_ZN3ukm8builders26PostMessage_Incoming_Frame10kEntryNameE = hidden local_unnamed_addr constant [27 x i8] c"PostMessage.Incoming.Frame\00", align 16
@_ZN3ukm8builders26PostMessage_Incoming_Frame14kEntryNameHashE = hidden local_unnamed_addr constant i64 -8403235218635289999, align 8
@_ZTVN3ukm8builders26PostMessage_Incoming_FrameE = hidden unnamed_addr constant { [4 x i8*] } { [4 x i8*] [i8* null, i8* null, i8* bitcast (void (%"class.ukm::builders::PostMessage_Incoming_Frame"*)* @_ZN3ukm8builders26PostMessage_Incoming_FrameD2Ev to i8*), i8* bitcast (void (%"class.ukm::builders::PostMessage_Incoming_Frame"*)* @_ZN3ukm8builders26PostMessage_Incoming_FrameD0Ev to i8*)] }, align 8
@_ZN3ukm8builders26PostMessage_Incoming_Frame24kSourceFrameSourceIdNameE = hidden local_unnamed_addr constant [20 x i8] c"SourceFrameSourceId\00", align 16
@_ZN3ukm8builders26PostMessage_Incoming_Frame28kSourceFrameSourceIdNameHashE = hidden local_unnamed_addr constant i64 -5770680465550407745, align 8
@_ZN3ukm8builders25PostMessage_Incoming_Page10kEntryNameE = hidden local_unnamed_addr constant [26 x i8] c"PostMessage.Incoming.Page\00", align 16
@_ZN3ukm8builders25PostMessage_Incoming_Page14kEntryNameHashE = hidden local_unnamed_addr constant i64 2379299131482791346, align 8
@_ZTVN3ukm8builders25PostMessage_Incoming_PageE = hidden unnamed_addr constant { [4 x i8*] } { [4 x i8*] [i8* null, i8* null, i8* bitcast (void (%"class.ukm::builders::PostMessage_Incoming_Page"*)* @_ZN3ukm8builders25PostMessage_Incoming_PageD2Ev to i8*), i8* bitcast (void (%"class.ukm::builders::PostMessage_Incoming_Page"*)* @_ZN3ukm8builders25PostMessage_Incoming_PageD0Ev to i8*)] }, align 8
@_ZN3ukm8builders25PostMessage_Incoming_Page23kSourcePageSourceIdNameE = hidden local_unnamed_addr constant [19 x i8] c"SourcePageSourceId\00", align 16
@_ZN3ukm8builders25PostMessage_Incoming_Page27kSourcePageSourceIdNameHashE = hidden local_unnamed_addr constant i64 4061575427618401686, align 8
@_ZN3ukm8builders31PowerUsageScenariosIntervalData10kEntryNameE = hidden local_unnamed_addr constant [32 x i8] c"PowerUsageScenariosIntervalData\00", align 16
@_ZN3ukm8builders31PowerUsageScenariosIntervalData14kEntryNameHashE = hidden local_unnamed_addr constant i64 1484103205961568756, align 8
@_ZTVN3ukm8builders31PowerUsageScenariosIntervalDataE = hidden unnamed_addr constant { [4 x i8*] } { [4 x i8*] [i8* null, i8* null, i8* bitcast (void (%"class.ukm::builders::PowerUsageScenariosIntervalData"*)* @_ZN3ukm8builders31PowerUsageScenariosIntervalDataD2Ev to i8*), i8* bitcast (void (%"class.ukm::builders::PowerUsageScenariosIntervalData"*)* @_ZN3ukm8builders31PowerUsageScenariosIntervalDataD0Ev to i8*)] }, align 8
@_ZN3ukm8builders31PowerUsageScenariosIntervalData25kBatteryDischargeModeNameE = hidden local_unnamed_addr constant [21 x i8] c"BatteryDischargeMode\00", align 16
@_ZN3ukm8builders31PowerUsageScenariosIntervalData29kBatteryDischargeModeNameHashE = hidden local_unnamed_addr constant i64 8012802177325134825, align 8
@_ZN3ukm8builders31PowerUsageScenariosIntervalData25kBatteryDischargeRateNameE = hidden local_unnamed_addr constant [21 x i8] c"BatteryDischargeRate\00", align 16
@_ZN3ukm8builders31PowerUsageScenariosIntervalData29kBatteryDischargeRateNameHashE = hidden local_unnamed_addr constant i64 -7706464942581498896, align 8
@_ZN3ukm8builders31PowerUsageScenariosIntervalData24kBrowserShuttingDownNameE = hidden local_unnamed_addr constant [20 x i8] c"BrowserShuttingDown\00", align 16
@_ZN3ukm8builders31PowerUsageScenariosIntervalData28kBrowserShuttingDownNameHashE = hidden local_unnamed_addr constant i64 4764183469636912406, align 8
@_ZN3ukm8builders31PowerUsageScenariosIntervalData14kCPUTimeMsNameE = hidden local_unnamed_addr constant [10 x i8] c"CPUTimeMs\00", align 1
@_ZN3ukm8builders31PowerUsageScenariosIntervalData18kCPUTimeMsNameHashE = hidden local_unnamed_addr constant i64 6926632203034980955, align 8
@_ZN3ukm8builders31PowerUsageScenariosIntervalData22kEnergyImpactScoreNameE = hidden local_unnamed_addr constant [18 x i8] c"EnergyImpactScore\00", align 16
@_ZN3ukm8builders31PowerUsageScenariosIntervalData26kEnergyImpactScoreNameHashE = hidden local_unnamed_addr constant i64 -576048815037792395, align 8
@_ZN3ukm8builders31PowerUsageScenariosIntervalData40kFullscreenVideoSingleMonitorSecondsNameE = hidden local_unnamed_addr constant [36 x i8] c"FullscreenVideoSingleMonitorSeconds\00", align 16
@_ZN3ukm8builders31PowerUsageScenariosIntervalData44kFullscreenVideoSingleMonitorSecondsNameHashE = hidden local_unnamed_addr constant i64 5005689392526458623, align 8
@_ZN3ukm8builders31PowerUsageScenariosIntervalData16kIdleWakeUpsNameE = hidden local_unnamed_addr constant [12 x i8] c"IdleWakeUps\00", align 1
@_ZN3ukm8builders31PowerUsageScenariosIntervalData20kIdleWakeUpsNameHashE = hidden local_unnamed_addr constant i64 -5317263324808615088, align 8
@_ZN3ukm8builders31PowerUsageScenariosIntervalData28kIntervalDurationSecondsNameE = hidden local_unnamed_addr constant [24 x i8] c"IntervalDurationSeconds\00", align 16
@_ZN3ukm8builders31PowerUsageScenariosIntervalData32kIntervalDurationSecondsNameHashE = hidden local_unnamed_addr constant i64 -8386228751376575570, align 8
@_ZN3ukm8builders31PowerUsageScenariosIntervalData16kMaxTabCountNameE = hidden local_unnamed_addr constant [12 x i8] c"MaxTabCount\00", align 1
@_ZN3ukm8builders31PowerUsageScenariosIntervalData20kMaxTabCountNameHashE = hidden local_unnamed_addr constant i64 -8484697691318084768, align 8
@_ZN3ukm8builders31PowerUsageScenariosIntervalData26kMaxVisibleWindowCountNameE = hidden local_unnamed_addr constant [22 x i8] c"MaxVisibleWindowCount\00", align 16
@_ZN3ukm8builders31PowerUsageScenariosIntervalData30kMaxVisibleWindowCountNameHashE = hidden local_unnamed_addr constant i64 -2910665199471301455, align 8
@_ZN3ukm8builders31PowerUsageScenariosIntervalData32kOriginVisibilityTimeSecondsNameE = hidden local_unnamed_addr constant [28 x i8] c"OriginVisibilityTimeSeconds\00", align 16
@_ZN3ukm8builders31PowerUsageScenariosIntervalData36kOriginVisibilityTimeSecondsNameHashE = hidden local_unnamed_addr constant i64 4655053852122721981, align 8
@_ZN3ukm8builders31PowerUsageScenariosIntervalData17kPackageExitsNameE = hidden local_unnamed_addr constant [13 x i8] c"PackageExits\00", align 1
@_ZN3ukm8builders31PowerUsageScenariosIntervalData21kPackageExitsNameHashE = hidden local_unnamed_addr constant i64 -3946283136744912924, align 8
@_ZN3ukm8builders31PowerUsageScenariosIntervalData24kPlayingAudioSecondsNameE = hidden local_unnamed_addr constant [20 x i8] c"PlayingAudioSeconds\00", align 16
@_ZN3ukm8builders31PowerUsageScenariosIntervalData28kPlayingAudioSecondsNameHashE = hidden local_unnamed_addr constant i64 3986924567980634530, align 8
@_ZN3ukm8builders31PowerUsageScenariosIntervalData14kTabClosedNameE = hidden local_unnamed_addr constant [10 x i8] c"TabClosed\00", align 1
@_ZN3ukm8builders31PowerUsageScenariosIntervalData18kTabClosedNameHashE = hidden local_unnamed_addr constant i64 -919518438041719458, align 8
@_ZN3ukm8builders31PowerUsageScenariosIntervalData33kTimePlayingVideoInVisibleTabNameE = hidden local_unnamed_addr constant [29 x i8] c"TimePlayingVideoInVisibleTab\00", align 16
@_ZN3ukm8builders31PowerUsageScenariosIntervalData37kTimePlayingVideoInVisibleTabNameHashE = hidden local_unnamed_addr constant i64 -2951548886268442368, align 8
@_ZN3ukm8builders31PowerUsageScenariosIntervalData43kTimeSinceInteractionWithBrowserSecondsNameE = hidden local_unnamed_addr constant [39 x i8] c"TimeSinceInteractionWithBrowserSeconds\00", align 16
@_ZN3ukm8builders31PowerUsageScenariosIntervalData47kTimeSinceInteractionWithBrowserSecondsNameHashE = hidden local_unnamed_addr constant i64 6261712889956192806, align 8
@_ZN3ukm8builders31PowerUsageScenariosIntervalData42kTimeSinceInteractionWithSystemSecondsNameE = hidden local_unnamed_addr constant [38 x i8] c"TimeSinceInteractionWithSystemSeconds\00", align 16
@_ZN3ukm8builders31PowerUsageScenariosIntervalData46kTimeSinceInteractionWithSystemSecondsNameHashE = hidden local_unnamed_addr constant i64 -2070358897586998929, align 8
@_ZN3ukm8builders31PowerUsageScenariosIntervalData40kTimeWithOpenWebRTCConnectionSecondsNameE = hidden local_unnamed_addr constant [36 x i8] c"TimeWithOpenWebRTCConnectionSeconds\00", align 16
@_ZN3ukm8builders31PowerUsageScenariosIntervalData44kTimeWithOpenWebRTCConnectionSecondsNameHashE = hidden local_unnamed_addr constant i64 2972750681128012711, align 8
@_ZN3ukm8builders31PowerUsageScenariosIntervalData29kTopLevelNavigationEventsNameE = hidden local_unnamed_addr constant [25 x i8] c"TopLevelNavigationEvents\00", align 16
@_ZN3ukm8builders31PowerUsageScenariosIntervalData33kTopLevelNavigationEventsNameHashE = hidden local_unnamed_addr constant i64 9007247521834190514, align 8
@_ZN3ukm8builders31PowerUsageScenariosIntervalData18kUptimeSecondsNameE = hidden local_unnamed_addr constant [14 x i8] c"UptimeSeconds\00", align 1
@_ZN3ukm8builders31PowerUsageScenariosIntervalData22kUptimeSecondsNameHashE = hidden local_unnamed_addr constant i64 2001952298541068222, align 8
@_ZN3ukm8builders31PowerUsageScenariosIntervalData29kURLVisibilityTimeSecondsNameE = hidden local_unnamed_addr constant [25 x i8] c"URLVisibilityTimeSeconds\00", align 16
@_ZN3ukm8builders31PowerUsageScenariosIntervalData33kURLVisibilityTimeSecondsNameHashE = hidden local_unnamed_addr constant i64 -61688913284798606, align 8
@_ZN3ukm8builders31PowerUsageScenariosIntervalData25kUserInteractionCountNameE = hidden local_unnamed_addr constant [21 x i8] c"UserInteractionCount\00", align 16
@_ZN3ukm8builders31PowerUsageScenariosIntervalData29kUserInteractionCountNameHashE = hidden local_unnamed_addr constant i64 -7473249371643076103, align 8
@_ZN3ukm8builders31PowerUsageScenariosIntervalData24kVideoCaptureSecondsNameE = hidden local_unnamed_addr constant [20 x i8] c"VideoCaptureSeconds\00", align 16
@_ZN3ukm8builders31PowerUsageScenariosIntervalData28kVideoCaptureSecondsNameHashE = hidden local_unnamed_addr constant i64 5770286108963634075, align 8
@_ZN3ukm8builders13PrefetchProxy10kEntryNameE = hidden local_unnamed_addr constant [14 x i8] c"PrefetchProxy\00", align 1
@_ZN3ukm8builders13PrefetchProxy14kEntryNameHashE = hidden local_unnamed_addr constant i64 -7094502320994345600, align 8
@_ZTVN3ukm8builders13PrefetchProxyE = hidden unnamed_addr constant { [4 x i8*] } { [4 x i8*] [i8* null, i8* null, i8* bitcast (void (%"class.ukm::builders::PrefetchProxy"*)* @_ZN3ukm8builders13PrefetchProxyD2Ev to i8*), i8* bitcast (void (%"class.ukm::builders::PrefetchProxy"*)* @_ZN3ukm8builders13PrefetchProxyD0Ev to i8*)] }, align 8
@_ZN3ukm8builders13PrefetchProxy41kcount_css_js_loaded_cache_before_fcpNameE = hidden local_unnamed_addr constant [37 x i8] c"count_css_js_loaded_cache_before_fcp\00", align 16
@_ZN3ukm8builders13PrefetchProxy45kcount_css_js_loaded_cache_before_fcpNameHashE = hidden local_unnamed_addr constant i64 -9171541545253488474, align 8
@_ZN3ukm8builders13PrefetchProxy43kcount_css_js_loaded_network_before_fcpNameE = hidden local_unnamed_addr constant [39 x i8] c"count_css_js_loaded_network_before_fcp\00", align 16
@_ZN3ukm8builders13PrefetchProxy47kcount_css_js_loaded_network_before_fcpNameHashE = hidden local_unnamed_addr constant i64 -2652530386975060971, align 8
@_ZN3ukm8builders13PrefetchProxy36kdays_since_last_visit_to_originNameE = hidden local_unnamed_addr constant [32 x i8] c"days_since_last_visit_to_origin\00", align 16
@_ZN3ukm8builders13PrefetchProxy40kdays_since_last_visit_to_originNameHashE = hidden local_unnamed_addr constant i64 210860424475155511, align 8
@_ZN3ukm8builders13PrefetchProxy35kordered_eligible_pages_bitmaskNameE = hidden local_unnamed_addr constant [31 x i8] c"ordered_eligible_pages_bitmask\00", align 16
@_ZN3ukm8builders13PrefetchProxy39kordered_eligible_pages_bitmaskNameHashE = hidden local_unnamed_addr constant i64 -3574543246863000577, align 8
@_ZN3ukm8builders13PrefetchProxy29kprefetch_attempted_countNameE = hidden local_unnamed_addr constant [25 x i8] c"prefetch_attempted_count\00", align 16
@_ZN3ukm8builders13PrefetchProxy33kprefetch_attempted_countNameHashE = hidden local_unnamed_addr constant i64 -4437689338069200597, align 8
@_ZN3ukm8builders13PrefetchProxy28kprefetch_eligible_countNameE = hidden local_unnamed_addr constant [24 x i8] c"prefetch_eligible_count\00", align 16
@_ZN3ukm8builders13PrefetchProxy32kprefetch_eligible_countNameHashE = hidden local_unnamed_addr constant i64 2248218164746653975, align 8
@_ZN3ukm8builders13PrefetchProxy30kprefetch_successful_countNameE = hidden local_unnamed_addr constant [26 x i8] c"prefetch_successful_count\00", align 16
@_ZN3ukm8builders13PrefetchProxy34kprefetch_successful_countNameHashE = hidden local_unnamed_addr constant i64 -5068035385561176594, align 8
@_ZN3ukm8builders27PrefetchProxy_AfterSRPClick10kEntryNameE = hidden local_unnamed_addr constant [28 x i8] c"PrefetchProxy.AfterSRPClick\00", align 16
@_ZN3ukm8builders27PrefetchProxy_AfterSRPClick14kEntryNameHashE = hidden local_unnamed_addr constant i64 6674705951757661648, align 8
@_ZTVN3ukm8builders27PrefetchProxy_AfterSRPClickE = hidden unnamed_addr constant { [4 x i8*] } { [4 x i8*] [i8* null, i8* null, i8* bitcast (void (%"class.ukm::builders::PrefetchProxy_AfterSRPClick"*)* @_ZN3ukm8builders27PrefetchProxy_AfterSRPClickD2Ev to i8*), i8* bitcast (void (%"class.ukm::builders::PrefetchProxy_AfterSRPClick"*)* @_ZN3ukm8builders27PrefetchProxy_AfterSRPClickD0Ev to i8*)] }, align 8
@_ZN3ukm8builders27PrefetchProxy_AfterSRPClick27kClickedLinkSRPPositionNameE = hidden local_unnamed_addr constant [23 x i8] c"ClickedLinkSRPPosition\00", align 16
@_ZN3ukm8builders27PrefetchProxy_AfterSRPClick31kClickedLinkSRPPositionNameHashE = hidden local_unnamed_addr constant i64 6517804828846600668, align 8
@_ZN3ukm8builders27PrefetchProxy_AfterSRPClick19kProbeLatencyMsNameE = hidden local_unnamed_addr constant [15 x i8] c"ProbeLatencyMs\00", align 1
@_ZN3ukm8builders27PrefetchProxy_AfterSRPClick23kProbeLatencyMsNameHashE = hidden local_unnamed_addr constant i64 8004524944946139403, align 8
@_ZN3ukm8builders27PrefetchProxy_AfterSRPClick27kSRPClickPrefetchStatusNameE = hidden local_unnamed_addr constant [23 x i8] c"SRPClickPrefetchStatus\00", align 16
@_ZN3ukm8builders27PrefetchProxy_AfterSRPClick31kSRPClickPrefetchStatusNameHashE = hidden local_unnamed_addr constant i64 7878335820719982043, align 8
@_ZN3ukm8builders27PrefetchProxy_AfterSRPClick29kSRPPrefetchEligibleCountNameE = hidden local_unnamed_addr constant [25 x i8] c"SRPPrefetchEligibleCount\00", align 16
@_ZN3ukm8builders27PrefetchProxy_AfterSRPClick33kSRPPrefetchEligibleCountNameHashE = hidden local_unnamed_addr constant i64 -5841462488788619555, align 8
@_ZN3ukm8builders32PrefetchProxy_PrefetchedResource10kEntryNameE = hidden local_unnamed_addr constant [33 x i8] c"PrefetchProxy.PrefetchedResource\00", align 16
@_ZN3ukm8builders32PrefetchProxy_PrefetchedResource14kEntryNameHashE = hidden local_unnamed_addr constant i64 4145272093809115535, align 8
@_ZTVN3ukm8builders32PrefetchProxy_PrefetchedResourceE = hidden unnamed_addr constant { [4 x i8*] } { [4 x i8*] [i8* null, i8* null, i8* bitcast (void (%"class.ukm::builders::PrefetchProxy_PrefetchedResource"*)* @_ZN3ukm8builders32PrefetchProxy_PrefetchedResourceD2Ev to i8*), i8* bitcast (void (%"class.ukm::builders::PrefetchProxy_PrefetchedResource"*)* @_ZN3ukm8builders32PrefetchProxy_PrefetchedResourceD0Ev to i8*)] }, align 8
@_ZN3ukm8builders32PrefetchProxy_PrefetchedResource15kDataLengthNameE = hidden local_unnamed_addr constant [11 x i8] c"DataLength\00", align 1
@_ZN3ukm8builders32PrefetchProxy_PrefetchedResource19kDataLengthNameHashE = hidden local_unnamed_addr constant i64 -1356884563705385759, align 8
@_ZN3ukm8builders32PrefetchProxy_PrefetchedResource20kFetchDurationMSNameE = hidden local_unnamed_addr constant [16 x i8] c"FetchDurationMS\00", align 16
@_ZN3ukm8builders32PrefetchProxy_PrefetchedResource24kFetchDurationMSNameHashE = hidden local_unnamed_addr constant i64 4613084086861472268, align 8
@_ZN3ukm8builders32PrefetchProxy_PrefetchedResource23kISPFilteringStatusNameE = hidden local_unnamed_addr constant [19 x i8] c"ISPFilteringStatus\00", align 16
@_ZN3ukm8builders32PrefetchProxy_PrefetchedResource27kISPFilteringStatusNameHashE = hidden local_unnamed_addr constant i64 6757338012734431050, align 8
@_ZN3ukm8builders32PrefetchProxy_PrefetchedResource16kLinkClickedNameE = hidden local_unnamed_addr constant [12 x i8] c"LinkClicked\00", align 1
@_ZN3ukm8builders32PrefetchProxy_PrefetchedResource20kLinkClickedNameHashE = hidden local_unnamed_addr constant i64 4362171511329748408, align 8
@_ZN3ukm8builders32PrefetchProxy_PrefetchedResource17kLinkPositionNameE = hidden local_unnamed_addr constant [13 x i8] c"LinkPosition\00", align 1
@_ZN3ukm8builders32PrefetchProxy_PrefetchedResource21kLinkPositionNameHashE = hidden local_unnamed_addr constant i64 3631041696461386974, align 8
@_ZN3ukm8builders32PrefetchProxy_PrefetchedResource34kNavigationStartToFetchStartMSNameE = hidden local_unnamed_addr constant [30 x i8] c"NavigationStartToFetchStartMS\00", align 16
@_ZN3ukm8builders32PrefetchProxy_PrefetchedResource38kNavigationStartToFetchStartMSNameHashE = hidden local_unnamed_addr constant i64 4817477453931099929, align 8
@_ZN3ukm8builders32PrefetchProxy_PrefetchedResource17kResourceTypeNameE = hidden local_unnamed_addr constant [13 x i8] c"ResourceType\00", align 1
@_ZN3ukm8builders32PrefetchProxy_PrefetchedResource21kResourceTypeNameHashE = hidden local_unnamed_addr constant i64 -4997139087611094522, align 8
@_ZN3ukm8builders32PrefetchProxy_PrefetchedResource11kStatusNameE = hidden local_unnamed_addr constant [7 x i8] c"Status\00", align 1
@_ZN3ukm8builders32PrefetchProxy_PrefetchedResource15kStatusNameHashE = hidden local_unnamed_addr constant i64 -1417603893889880363, align 8
@_ZN3ukm8builders8Previews10kEntryNameE = hidden local_unnamed_addr constant [9 x i8] c"Previews\00", align 1
@_ZN3ukm8builders8Previews14kEntryNameHashE = hidden local_unnamed_addr constant i64 -2270743603862633945, align 8
@_ZTVN3ukm8builders8PreviewsE = hidden unnamed_addr constant { [4 x i8*] } { [4 x i8*] [i8* null, i8* null, i8* bitcast (void (%"class.ukm::builders::Previews"*)* @_ZN3ukm8builders8PreviewsD2Ev to i8*), i8* bitcast (void (%"class.ukm::builders::Previews"*)* @_ZN3ukm8builders8PreviewsD0Ev to i8*)] }, align 8
@_ZN3ukm8builders8Previews14klite_pageNameE = hidden local_unnamed_addr constant [10 x i8] c"lite_page\00", align 1
@_ZN3ukm8builders8Previews18klite_pageNameHashE = hidden local_unnamed_addr constant i64 3925409904844646530, align 8
@_ZN3ukm8builders8Previews22ksave_data_enabledNameE = hidden local_unnamed_addr constant [18 x i8] c"save_data_enabled\00", align 16
@_ZN3ukm8builders8Previews26ksave_data_enabledNameHashE = hidden local_unnamed_addr constant i64 1653640859566235189, align 8
@_ZN3ukm8builders29PublicImageCompressionDataUse10kEntryNameE = hidden local_unnamed_addr constant [30 x i8] c"PublicImageCompressionDataUse\00", align 16
@_ZN3ukm8builders29PublicImageCompressionDataUse14kEntryNameHashE = hidden local_unnamed_addr constant i64 -8048248711508290527, align 8
@_ZTVN3ukm8builders29PublicImageCompressionDataUseE = hidden unnamed_addr constant { [4 x i8*] } { [4 x i8*] [i8* null, i8* null, i8* bitcast (void (%"class.ukm::builders::PublicImageCompressionDataUse"*)* @_ZN3ukm8builders29PublicImageCompressionDataUseD2Ev to i8*), i8* bitcast (void (%"class.ukm::builders::PublicImageCompressionDataUse"*)* @_ZN3ukm8builders29PublicImageCompressionDataUseD0Ev to i8*)] }, align 8
@_ZN3ukm8builders29PublicImageCompressionDataUse27kCompressibleImageBytesNameE = hidden local_unnamed_addr constant [23 x i8] c"CompressibleImageBytes\00", align 16
@_ZN3ukm8builders29PublicImageCompressionDataUse31kCompressibleImageBytesNameHashE = hidden local_unnamed_addr constant i64 8749575241013944733, align 8
@_ZN3ukm8builders29PublicImageCompressionDataUse58kIneligibleImageHintsUnavailableAndMissingInHintsBytesNameE = hidden local_unnamed_addr constant [54 x i8] c"IneligibleImageHintsUnavailableAndMissingInHintsBytes\00", align 16
@_ZN3ukm8builders29PublicImageCompressionDataUse62kIneligibleImageHintsUnavailableAndMissingInHintsBytesNameHashE = hidden local_unnamed_addr constant i64 -9148248149896917598, align 8
@_ZN3ukm8builders29PublicImageCompressionDataUse56kIneligibleImageHintsUnavailableButCompressibleBytesNameE = hidden local_unnamed_addr constant [52 x i8] c"IneligibleImageHintsUnavailableButCompressibleBytes\00", align 16
@_ZN3ukm8builders29PublicImageCompressionDataUse60kIneligibleImageHintsUnavailableButCompressibleBytesNameHashE = hidden local_unnamed_addr constant i64 8173649068346122036, align 8
@_ZN3ukm8builders29PublicImageCompressionDataUse41kIneligibleImageHintsUnavailableBytesNameE = hidden local_unnamed_addr constant [37 x i8] c"IneligibleImageHintsUnavailableBytes\00", align 16
@_ZN3ukm8builders29PublicImageCompressionDataUse45kIneligibleImageHintsUnavailableBytesNameHashE = hidden local_unnamed_addr constant i64 -4700209829402237687, align 8
@_ZN3ukm8builders29PublicImageCompressionDataUse39kIneligibleMissingInImageHintsBytesNameE = hidden local_unnamed_addr constant [35 x i8] c"IneligibleMissingInImageHintsBytes\00", align 16
@_ZN3ukm8builders29PublicImageCompressionDataUse43kIneligibleMissingInImageHintsBytesNameHashE = hidden local_unnamed_addr constant i64 -224549088761877805, align 8
@_ZN3ukm8builders29PublicImageCompressionDataUse30kIneligibleOtherImageBytesNameE = hidden local_unnamed_addr constant [26 x i8] c"IneligibleOtherImageBytes\00", align 16
@_ZN3ukm8builders29PublicImageCompressionDataUse34kIneligibleOtherImageBytesNameHashE = hidden local_unnamed_addr constant i64 -3145075461098997193, align 8
@_ZN3ukm8builders31PublicImageCompressionImageLoad10kEntryNameE = hidden local_unnamed_addr constant [32 x i8] c"PublicImageCompressionImageLoad\00", align 16
@_ZN3ukm8builders31PublicImageCompressionImageLoad14kEntryNameHashE = hidden local_unnamed_addr constant i64 120432532251604400, align 8
@_ZTVN3ukm8builders31PublicImageCompressionImageLoadE = hidden unnamed_addr constant { [4 x i8*] } { [4 x i8*] [i8* null, i8* null, i8* bitcast (void (%"class.ukm::builders::PublicImageCompressionImageLoad"*)* @_ZN3ukm8builders31PublicImageCompressionImageLoadD2Ev to i8*), i8* bitcast (void (%"class.ukm::builders::PublicImageCompressionImageLoad"*)* @_ZN3ukm8builders31PublicImageCompressionImageLoadD0Ev to i8*)] }, align 8
@_ZN3ukm8builders31PublicImageCompressionImageLoad26kCompressionPercentageNameE = hidden local_unnamed_addr constant [22 x i8] c"CompressionPercentage\00", align 16
@_ZN3ukm8builders31PublicImageCompressionImageLoad30kCompressionPercentageNameHashE = hidden local_unnamed_addr constant i64 6874733196176228263, align 8
@_ZN3ukm8builders31PublicImageCompressionImageLoad28kNavigationToRequestSentNameE = hidden local_unnamed_addr constant [24 x i8] c"NavigationToRequestSent\00", align 16
@_ZN3ukm8builders31PublicImageCompressionImageLoad32kNavigationToRequestSentNameHashE = hidden local_unnamed_addr constant i64 1810083485808758275, align 8
@_ZN3ukm8builders31PublicImageCompressionImageLoad29kNavigationToRequestStartNameE = hidden local_unnamed_addr constant [25 x i8] c"NavigationToRequestStart\00", align 16
@_ZN3ukm8builders31PublicImageCompressionImageLoad33kNavigationToRequestStartNameHashE = hidden local_unnamed_addr constant i64 -8157743712659440787, align 8
@_ZN3ukm8builders31PublicImageCompressionImageLoad33kNavigationToResponseReceivedNameE = hidden local_unnamed_addr constant [29 x i8] c"NavigationToResponseReceived\00", align 16
@_ZN3ukm8builders31PublicImageCompressionImageLoad37kNavigationToResponseReceivedNameHashE = hidden local_unnamed_addr constant i64 3744822797338561685, align 8
@_ZN3ukm8builders31PublicImageCompressionImageLoad18kOriginalBytesNameE = hidden local_unnamed_addr constant [14 x i8] c"OriginalBytes\00", align 1
@_ZN3ukm8builders31PublicImageCompressionImageLoad22kOriginalBytesNameHashE = hidden local_unnamed_addr constant i64 7584776194520610226, align 8
@_ZN3ukm8builders31PublicImageCompressionImageLoad19kRedirectResultNameE = hidden local_unnamed_addr constant [15 x i8] c"RedirectResult\00", align 1
@_ZN3ukm8builders31PublicImageCompressionImageLoad23kRedirectResultNameHashE = hidden local_unnamed_addr constant i64 -309708023863493296, align 8
@_ZN3ukm8builders31PublicImageCompressionImageLoad28kRobotsRulesFetchLatencyNameE = hidden local_unnamed_addr constant [24 x i8] c"RobotsRulesFetchLatency\00", align 16
@_ZN3ukm8builders31PublicImageCompressionImageLoad32kRobotsRulesFetchLatencyNameHashE = hidden local_unnamed_addr constant i64 4732045845745102887, align 8
@_ZN3ukm8builders9PWA_Visit10kEntryNameE = hidden local_unnamed_addr constant [10 x i8] c"PWA.Visit\00", align 1
@_ZN3ukm8builders9PWA_Visit14kEntryNameHashE = hidden local_unnamed_addr constant i64 4791378639615025150, align 8
@_ZTVN3ukm8builders9PWA_VisitE = hidden unnamed_addr constant { [4 x i8*] } { [4 x i8*] [i8* null, i8* null, i8* bitcast (void (%"class.ukm::builders::PWA_Visit"*)* @_ZN3ukm8builders9PWA_VisitD2Ev to i8*), i8* bitcast (void (%"class.ukm::builders::PWA_Visit"*)* @_ZN3ukm8builders9PWA_VisitD0Ev to i8*)] }, align 8
@_ZN3ukm8builders9PWA_Visit17kLaunchSourceNameE = hidden local_unnamed_addr constant [13 x i8] c"LaunchSource\00", align 1
@_ZN3ukm8builders9PWA_Visit21kLaunchSourceNameHashE = hidden local_unnamed_addr constant i64 5360095524695749322, align 8
@_ZN3ukm8builders9PWA_Visit24kWebAPKableSiteVisitNameE = hidden local_unnamed_addr constant [20 x i8] c"WebAPKableSiteVisit\00", align 16
@_ZN3ukm8builders9PWA_Visit28kWebAPKableSiteVisitNameHashE = hidden local_unnamed_addr constant i64 4362561697839438819, align 8
@_ZN3ukm8builders19ReaderModeActivated10kEntryNameE = hidden local_unnamed_addr constant [20 x i8] c"ReaderModeActivated\00", align 16
@_ZN3ukm8builders19ReaderModeActivated14kEntryNameHashE = hidden local_unnamed_addr constant i64 -3432691708235657564, align 8
@_ZTVN3ukm8builders19ReaderModeActivatedE = hidden unnamed_addr constant { [4 x i8*] } { [4 x i8*] [i8* null, i8* null, i8* bitcast (void (%"class.ukm::builders::ReaderModeActivated"*)* @_ZN3ukm8builders19ReaderModeActivatedD2Ev to i8*), i8* bitcast (void (%"class.ukm::builders::ReaderModeActivated"*)* @_ZN3ukm8builders19ReaderModeActivatedD0Ev to i8*)] }, align 8
@_ZN3ukm8builders19ReaderModeActivated24kActivatedViaOmniboxNameE = hidden local_unnamed_addr constant [20 x i8] c"ActivatedViaOmnibox\00", align 16
@_ZN3ukm8builders19ReaderModeActivated28kActivatedViaOmniboxNameHashE = hidden local_unnamed_addr constant i64 2176968808273118322, align 8
@_ZN3ukm8builders32ReaderModeReceivedDistillability10kEntryNameE = hidden local_unnamed_addr constant [33 x i8] c"ReaderModeReceivedDistillability\00", align 16
@_ZN3ukm8builders32ReaderModeReceivedDistillability14kEntryNameHashE = hidden local_unnamed_addr constant i64 3308537368968335608, align 8
