; ModuleID = 'gen/services/metrics/public/cpp/ukm_decode.cc'
source_filename = "gen/services/metrics/public/cpp/ukm_decode.cc"
target datalayout = "e-m:e-i64:64-f80:128-n8:16:32:64-S128"
target triple = "x86_64-unknown-linux-gnu"

module asm ".symver exp, exp@GLIBC_2.2.5"
module asm ".symver exp2, exp2@GLIBC_2.2.5"
module asm ".symver exp2f, exp2f@GLIBC_2.2.5"
module asm ".symver expf, expf@GLIBC_2.2.5"
module asm ".symver lgamma, lgamma@GLIBC_2.2.5"
module asm ".symver lgammaf, lgammaf@GLIBC_2.2.5"
module asm ".symver lgammal, lgammal@GLIBC_2.2.5"
module asm ".symver log, log@GLIBC_2.2.5"
module asm ".symver log2, log2@GLIBC_2.2.5"
module asm ".symver log2f, log2f@GLIBC_2.2.5"
module asm ".symver logf, logf@GLIBC_2.2.5"
module asm ".symver pow, pow@GLIBC_2.2.5"
module asm ".symver powf, powf@GLIBC_2.2.5"

%"struct.std::__1::pair.14" = type { i64, i8* }
%"class.std::__1::map" = type { %"class.std::__1::__tree" }
%"class.std::__1::__tree" = type { %"class.std::__1::__tree_end_node"*, %"class.std::__1::__compressed_pair", %"class.std::__1::__compressed_pair.1" }
%"class.std::__1::__tree_end_node" = type { %"class.std::__1::__tree_node_base"* }
%"class.std::__1::__tree_node_base" = type <{ %"class.std::__1::__tree_end_node", %"class.std::__1::__tree_node_base"*, %"class.std::__1::__tree_end_node"*, i8, [7 x i8] }>
%"class.std::__1::__compressed_pair" = type { %"struct.std::__1::__compressed_pair_elem" }
%"struct.std::__1::__compressed_pair_elem" = type { %"class.std::__1::__tree_end_node" }
%"class.std::__1::__compressed_pair.1" = type { %"struct.std::__1::__compressed_pair_elem.2" }
%"struct.std::__1::__compressed_pair_elem.2" = type { i64 }
%"struct.std::__1::pair" = type { i64, %"struct.ukm::builders::EntryDecoder" }
%"struct.ukm::builders::EntryDecoder" = type { i8*, %"class.std::__1::map.4" }
%"class.std::__1::map.4" = type { %"class.std::__1::__tree.5" }
%"class.std::__1::__tree.5" = type { %"class.std::__1::__tree_end_node"*, %"class.std::__1::__compressed_pair.6", %"class.std::__1::__compressed_pair.10" }
%"class.std::__1::__compressed_pair.6" = type { %"struct.std::__1::__compressed_pair_elem" }
%"class.std::__1::__compressed_pair.10" = type { %"struct.std::__1::__compressed_pair_elem.2" }
%"struct.std::__1::less" = type { i8 }
%"class.std::__1::__tree_node" = type { %"class.std::__1::__tree_node_base.base", %"struct.std::__1::__value_type" }
%"class.std::__1::__tree_node_base.base" = type <{ %"class.std::__1::__tree_end_node", %"class.std::__1::__tree_node_base"*, %"class.std::__1::__tree_end_node"*, i8 }>
%"struct.std::__1::__value_type" = type { %"struct.std::__1::pair.14" }
%"class.std::__1::__tree_node.25" = type { %"class.std::__1::__tree_node_base.base", %"struct.std::__1::__value_type.26" }
%"struct.std::__1::__value_type.26" = type { %"struct.std::__1::pair" }

$_ZNSt3__13mapImPKcNS_4lessImEENS_9allocatorINS_4pairIKmS2_EEEEEC2ESt16initializer_listIS8_ERKS4_ = comdat any

$_ZNSt3__13mapImPKcNS_4lessImEENS_9allocatorINS_4pairIKmS2_EEEEE6insertINS_20__map_const_iteratorINS_21__tree_const_iteratorINS_12__value_typeImS2_EEPNS_11__tree_nodeISF_PvEElEEEEEEvT_SM_ = comdat any

$_ZNSt3__16__treeINS_12__value_typeImPKcEENS_19__map_value_compareImS4_NS_4lessImEELb1EEENS_9allocatorIS4_EEE12__find_equalImEERPNS_16__tree_node_baseIPvEENS_21__tree_const_iteratorIS4_PNS_11__tree_nodeIS4_SE_EElEERPNS_15__tree_end_nodeISG_EESH_RKT_ = comdat any

$_ZNSt3__127__tree_balance_after_insertIPNS_16__tree_node_baseIPvEEEEvT_S5_ = comdat any

$_ZNSt3__16__treeINS_12__value_typeImPKcEENS_19__map_value_compareImS4_NS_4lessImEELb1EEENS_9allocatorIS4_EEE7destroyEPNS_11__tree_nodeIS4_PvEE = comdat any

$_ZNSt3__16__treeINS_12__value_typeImN3ukm8builders12EntryDecoderEEENS_19__map_value_compareImS5_NS_4lessImEELb1EEENS_9allocatorIS5_EEE30__emplace_hint_unique_key_argsImJRKNS_4pairIKmS4_EEEEENSE_INS_15__tree_iteratorIS5_PNS_11__tree_nodeIS5_PvEElEEbEENS_21__tree_const_iteratorIS5_SN_lEERKT_DpOT0_ = comdat any

$_ZNSt3__16__treeINS_12__value_typeImN3ukm8builders12EntryDecoderEEENS_19__map_value_compareImS5_NS_4lessImEELb1EEENS_9allocatorIS5_EEE12__find_equalImEERPNS_16__tree_node_baseIPvEENS_21__tree_const_iteratorIS5_PNS_11__tree_nodeIS5_SF_EElEERPNS_15__tree_end_nodeISH_EESI_RKT_ = comdat any

@_ZN3ukm8builders26AbusiveExperienceHeuristic10kEntryNameE = external constant [0 x i8], align 1
@_ZN3ukm8builders26AbusiveExperienceHeuristic16kDidTabUnderNameE = external constant [0 x i8], align 1
@_ZN3ukm8builders26AbusiveExperienceHeuristic30kDidWindowOpenFromAdScriptNameE = external constant [0 x i8], align 1
@_ZN3ukm8builders26AbusiveExperienceHeuristic32kDidWindowOpenFromAdSubframeNameE = external constant [0 x i8], align 1
@.ref.tmp = private constant [3 x %"struct.std::__1::pair.14"] [%"struct.std::__1::pair.14" { i64 1632877231929054164, i8* getelementptr inbounds ([0 x i8], [0 x i8]* @_ZN3ukm8builders26AbusiveExperienceHeuristic16kDidTabUnderNameE, i32 0, i32 0) }, %"struct.std::__1::pair.14" { i64 -7449493641200350455, i8* getelementptr inbounds ([0 x i8], [0 x i8]* @_ZN3ukm8builders26AbusiveExperienceHeuristic30kDidWindowOpenFromAdScriptNameE, i32 0, i32 0) }, %"struct.std::__1::pair.14" { i64 -5915766345205749337, i8* getelementptr inbounds ([0 x i8], [0 x i8]* @_ZN3ukm8builders26AbusiveExperienceHeuristic32kDidWindowOpenFromAdSubframeNameE, i32 0, i32 0) }], align 8
@_ZN3ukm8builders43AbusiveExperienceHeuristic_JavaScriptDialog10kEntryNameE = external constant [0 x i8], align 1
@_ZN3ukm8builders43AbusiveExperienceHeuristic_JavaScriptDialog19kDismissalCauseNameE = external constant [0 x i8], align 1
@.ref.tmp.1 = private constant [1 x %"struct.std::__1::pair.14"] [%"struct.std::__1::pair.14" { i64 253402870863803684, i8* getelementptr inbounds ([0 x i8], [0 x i8]* @_ZN3ukm8builders43AbusiveExperienceHeuristic_JavaScriptDialog19kDismissalCauseNameE, i32 0, i32 0) }], align 8
@_ZN3ukm8builders35AbusiveExperienceHeuristic_TabUnder10kEntryNameE = external constant [0 x i8], align 1
@_ZN3ukm8builders35AbusiveExperienceHeuristic_TabUnder16kDidTabUnderNameE = external constant [0 x i8], align 1
@.ref.tmp.2 = private constant [1 x %"struct.std::__1::pair.14"] [%"struct.std::__1::pair.14" { i64 1632877231929054164, i8* getelementptr inbounds ([0 x i8], [0 x i8]* @_ZN3ukm8builders35AbusiveExperienceHeuristic_TabUnder16kDidTabUnderNameE, i32 0, i32 0) }], align 8
@_ZN3ukm8builders37AbusiveExperienceHeuristic_WindowOpen10kEntryNameE = external constant [0 x i8], align 1
@_ZN3ukm8builders37AbusiveExperienceHeuristic_WindowOpen17kFromAdScriptNameE = external constant [0 x i8], align 1
@_ZN3ukm8builders37AbusiveExperienceHeuristic_WindowOpen19kFromAdSubframeNameE = external constant [0 x i8], align 1
@.ref.tmp.3 = private constant [2 x %"struct.std::__1::pair.14"] [%"struct.std::__1::pair.14" { i64 -3190155972537419310, i8* getelementptr inbounds ([0 x i8], [0 x i8]* @_ZN3ukm8builders37AbusiveExperienceHeuristic_WindowOpen17kFromAdScriptNameE, i32 0, i32 0) }, %"struct.std::__1::pair.14" { i64 -7250745543570328195, i8* getelementptr inbounds ([0 x i8], [0 x i8]* @_ZN3ukm8builders37AbusiveExperienceHeuristic_WindowOpen19kFromAdSubframeNameE, i32 0, i32 0) }], align 8
@_ZN3ukm8builders31Accessibility_ImageDescriptions10kEntryNameE = external constant [0 x i8], align 1
@_ZN3ukm8builders31Accessibility_ImageDescriptions16kDescriptionNameE = external constant [0 x i8], align 1
@_ZN3ukm8builders31Accessibility_ImageDescriptions25kImageAlreadyHasLabelNameE = external constant [0 x i8], align 1
@_ZN3ukm8builders31Accessibility_ImageDescriptions8kOCRNameE = external constant [0 x i8], align 1
@.ref.tmp.4 = private constant [3 x %"struct.std::__1::pair.14"] [%"struct.std::__1::pair.14" { i64 -5357122062287255427, i8* getelementptr inbounds ([0 x i8], [0 x i8]* @_ZN3ukm8builders31Accessibility_ImageDescriptions16kDescriptionNameE, i32 0, i32 0) }, %"struct.std::__1::pair.14" { i64 -1009547449717179837, i8* getelementptr inbounds ([0 x i8], [0 x i8]* @_ZN3ukm8builders31Accessibility_ImageDescriptions25kImageAlreadyHasLabelNameE, i32 0, i32 0) }, %"struct.std::__1::pair.14" { i64 -780876323867717081, i8* getelementptr inbounds ([0 x i8], [0 x i8]* @_ZN3ukm8builders31Accessibility_ImageDescriptions8kOCRNameE, i32 0, i32 0) }], align 8
@_ZN3ukm8builders22Accessibility_Renderer10kEntryNameE = external constant [0 x i8], align 1
@_ZN3ukm8builders22Accessibility_Renderer43kCpuTime_SendPendingAccessibilityEventsNameE = external constant [0 x i8], align 1
@.ref.tmp.5 = private constant [1 x %"struct.std::__1::pair.14"] [%"struct.std::__1::pair.14" { i64 -7523438818517326955, i8* getelementptr inbounds ([0 x i8], [0 x i8]* @_ZN3ukm8builders22Accessibility_Renderer43kCpuTime_SendPendingAccessibilityEventsNameE, i32 0, i32 0) }], align 8
@_ZN3ukm8builders11AdFrameLoad10kEntryNameE = external constant [0 x i8], align 1
@_ZN3ukm8builders11AdFrameLoad32kCpuTime_PeakWindowedPercentNameE = external constant [0 x i8], align 1
@_ZN3ukm8builders11AdFrameLoad26kCpuTime_PreActivationNameE = external constant [0 x i8], align 1
@_ZN3ukm8builders11AdFrameLoad18kCpuTime_TotalNameE = external constant [0 x i8], align 1
@_ZN3ukm8builders11AdFrameLoad15kFrameDepthNameE = external constant [0 x i8], align 1
@_ZN3ukm8builders11AdFrameLoad24kLoading_CacheBytes2NameE = external constant [0 x i8], align 1
@_ZN3ukm8builders11AdFrameLoad23kLoading_ImageBytesNameE = external constant [0 x i8], align 1
@_ZN3ukm8builders11AdFrameLoad28kLoading_JavascriptBytesNameE = external constant [0 x i8], align 1
@_ZN3ukm8builders11AdFrameLoad25kLoading_NetworkBytesNameE = external constant [0 x i8], align 1
@_ZN3ukm8builders11AdFrameLoad25kLoading_NumResourcesNameE = external constant [0 x i8], align 1
@_ZN3ukm8builders11AdFrameLoad23kLoading_VideoBytesNameE = external constant [0 x i8], align 1
@_ZN3ukm8builders11AdFrameLoad23kStatus_CrossOriginNameE = external constant [0 x i8], align 1
@_ZN3ukm8builders11AdFrameLoad17kStatus_MediaNameE = external constant [0 x i8], align 1
@_ZN3ukm8builders11AdFrameLoad26kStatus_UserActivationNameE = external constant [0 x i8], align 1
@_ZN3ukm8builders11AdFrameLoad32kTiming_FirstContentfulPaintNameE = external constant [0 x i8], align 1
@_ZN3ukm8builders11AdFrameLoad23kTiming_InteractiveNameE = external constant [0 x i8], align 1
@_ZN3ukm8builders11AdFrameLoad27kVisibility_FrameHeightNameE = external constant [0 x i8], align 1
@_ZN3ukm8builders11AdFrameLoad26kVisibility_FrameWidthNameE = external constant [0 x i8], align 1
@_ZN3ukm8builders11AdFrameLoad22kVisibility_HiddenNameE = external constant [0 x i8], align 1
@.ref.tmp.6 = private constant [18 x %"struct.std::__1::pair.14"] [%"struct.std::__1::pair.14" { i64 -7751836657602730046, i8* getelementptr inbounds ([0 x i8], [0 x i8]* @_ZN3ukm8builders11AdFrameLoad32kCpuTime_PeakWindowedPercentNameE, i32 0, i32 0) }, %"struct.std::__1::pair.14" { i64 5794315328615334038, i8* getelementptr inbounds ([0 x i8], [0 x i8]* @_ZN3ukm8builders11AdFrameLoad26kCpuTime_PreActivationNameE, i32 0, i32 0) }, %"struct.std::__1::pair.14" { i64 -3096642553369414756, i8* getelementptr inbounds ([0 x i8], [0 x i8]* @_ZN3ukm8builders11AdFrameLoad18kCpuTime_TotalNameE, i32 0, i32 0) }, %"struct.std::__1::pair.14" { i64 5259598389912370111, i8* getelementptr inbounds ([0 x i8], [0 x i8]* @_ZN3ukm8builders11AdFrameLoad15kFrameDepthNameE, i32 0, i32 0) }, %"struct.std::__1::pair.14" { i64 2812659824544278329, i8* getelementptr inbounds ([0 x i8], [0 x i8]* @_ZN3ukm8builders11AdFrameLoad24kLoading_CacheBytes2NameE, i32 0, i32 0) }, %"struct.std::__1::pair.14" { i64 4267019114733925172, i8* getelementptr inbounds ([0 x i8], [0 x i8]* @_ZN3ukm8builders11AdFrameLoad23kLoading_ImageBytesNameE, i32 0, i32 0) }, %"struct.std::__1::pair.14" { i64 -8683793506603577654, i8* getelementptr inbounds ([0 x i8], [0 x i8]* @_ZN3ukm8builders11AdFrameLoad28kLoading_JavascriptBytesNameE, i32 0, i32 0) }, %"struct.std::__1::pair.14" { i64 2909577699402783051, i8* getelementptr inbounds ([0 x i8], [0 x i8]* @_ZN3ukm8builders11AdFrameLoad25kLoading_NetworkBytesNameE, i32 0, i32 0) }, %"struct.std::__1::pair.14" { i64 -4996683865242477307, i8* getelementptr inbounds ([0 x i8], [0 x i8]* @_ZN3ukm8builders11AdFrameLoad25kLoading_NumResourcesNameE, i32 0, i32 0) }, %"struct.std::__1::pair.14" { i64 -3435336407915173773, i8* getelementptr inbounds ([0 x i8], [0 x i8]* @_ZN3ukm8builders11AdFrameLoad23kLoading_VideoBytesNameE, i32 0, i32 0) }, %"struct.std::__1::pair.14" { i64 4568069380683941241, i8* getelementptr inbounds ([0 x i8], [0 x i8]* @_ZN3ukm8builders11AdFrameLoad23kStatus_CrossOriginNameE, i32 0, i32 0) }, %"struct.std::__1::pair.14" { i64 4546060596826334451, i8* getelementptr inbounds ([0 x i8], [0 x i8]* @_ZN3ukm8builders11AdFrameLoad17kStatus_MediaNameE, i32 0, i32 0) }, %"struct.std::__1::pair.14" { i64 5097180316580530092, i8* getelementptr inbounds ([0 x i8], [0 x i8]* @_ZN3ukm8builders11AdFrameLoad26kStatus_UserActivationNameE, i32 0, i32 0) }, %"struct.std::__1::pair.14" { i64 -503165592203007859, i8* getelementptr inbounds ([0 x i8], [0 x i8]* @_ZN3ukm8builders11AdFrameLoad32kTiming_FirstContentfulPaintNameE, i32 0, i32 0) }, %"struct.std::__1::pair.14" { i64 -3321381542052476291, i8* getelementptr inbounds ([0 x i8], [0 x i8]* @_ZN3ukm8builders11AdFrameLoad23kTiming_InteractiveNameE, i32 0, i32 0) }, %"struct.std::__1::pair.14" { i64 7279397677831738677, i8* getelementptr inbounds ([0 x i8], [0 x i8]* @_ZN3ukm8builders11AdFrameLoad27kVisibility_FrameHeightNameE, i32 0, i32 0) }, %"struct.std::__1::pair.14" { i64 3041121436852256629, i8* getelementptr inbounds ([0 x i8], [0 x i8]* @_ZN3ukm8builders11AdFrameLoad26kVisibility_FrameWidthNameE, i32 0, i32 0) }, %"struct.std::__1::pair.14" { i64 -7704400569309910056, i8* getelementptr inbounds ([0 x i8], [0 x i8]* @_ZN3ukm8builders11AdFrameLoad22kVisibility_HiddenNameE, i32 0, i32 0) }], align 8
@_ZN3ukm8builders10AdPageLoad10kEntryNameE = external constant [0 x i8], align 1
@_ZN3ukm8builders10AdPageLoad12kAdBytesNameE = external constant [0 x i8], align 1
@_ZN3ukm8builders10AdPageLoad14kAdCpuTimeNameE = external constant [0 x i8], align 1
@_ZN3ukm8builders10AdPageLoad22kAdJavascriptBytesNameE = external constant [0 x i8], align 1
@_ZN3ukm8builders10AdPageLoad17kAdVideoBytesNameE = external constant [0 x i8], align 1
@_ZN3ukm8builders10AdPageLoad21kMainframeAdBytesNameE = external constant [0 x i8], align 1
@_ZN3ukm8builders10AdPageLoad23kMaxAdDensityByAreaNameE = external constant [0 x i8], align 1
@_ZN3ukm8builders10AdPageLoad25kMaxAdDensityByHeightNameE = external constant [0 x i8], align 1
@_ZN3ukm8builders10AdPageLoad15kTotalBytesNameE = external constant [0 x i8], align 1
@.ref.tmp.7 = private constant [8 x %"struct.std::__1::pair.14"] [%"struct.std::__1::pair.14" { i64 6659033870686188869, i8* getelementptr inbounds ([0 x i8], [0 x i8]* @_ZN3ukm8builders10AdPageLoad12kAdBytesNameE, i32 0, i32 0) }, %"struct.std::__1::pair.14" { i64 4851683766975122096, i8* getelementptr inbounds ([0 x i8], [0 x i8]* @_ZN3ukm8builders10AdPageLoad14kAdCpuTimeNameE, i32 0, i32 0) }, %"struct.std::__1::pair.14" { i64 -4450159710857689180, i8* getelementptr inbounds ([0 x i8], [0 x i8]* @_ZN3ukm8builders10AdPageLoad22kAdJavascriptBytesNameE, i32 0, i32 0) }, %"struct.std::__1::pair.14" { i64 4207294672781050458, i8* getelementptr inbounds ([0 x i8], [0 x i8]* @_ZN3ukm8builders10AdPageLoad17kAdVideoBytesNameE, i32 0, i32 0) }, %"struct.std::__1::pair.14" { i64 -8303775567676200487, i8* getelementptr inbounds ([0 x i8], [0 x i8]* @_ZN3ukm8builders10AdPageLoad21kMainframeAdBytesNameE, i32 0, i32 0) }, %"struct.std::__1::pair.14" { i64 7067391914447638302, i8* getelementptr inbounds ([0 x i8], [0 x i8]* @_ZN3ukm8builders10AdPageLoad23kMaxAdDensityByAreaNameE, i32 0, i32 0) }, %"struct.std::__1::pair.14" { i64 -7331688654934935772, i8* getelementptr inbounds ([0 x i8], [0 x i8]* @_ZN3ukm8builders10AdPageLoad25kMaxAdDensityByHeightNameE, i32 0, i32 0) }, %"struct.std::__1::pair.14" { i64 8087173487984213000, i8* getelementptr inbounds ([0 x i8], [0 x i8]* @_ZN3ukm8builders10AdPageLoad15kTotalBytesNameE, i32 0, i32 0) }], align 8
@_ZN3ukm8builders32AdsIntervention_LastIntervention10kEntryNameE = external constant [0 x i8], align 1
@_ZN3ukm8builders32AdsIntervention_LastIntervention23kInterventionStatusNameE = external constant [0 x i8], align 1
@_ZN3ukm8builders32AdsIntervention_LastIntervention21kInterventionTypeNameE = external constant [0 x i8], align 1
@.ref.tmp.8 = private constant [2 x %"struct.std::__1::pair.14"] [%"struct.std::__1::pair.14" { i64 -1039407183737429514, i8* getelementptr inbounds ([0 x i8], [0 x i8]* @_ZN3ukm8builders32AdsIntervention_LastIntervention23kInterventionStatusNameE, i32 0, i32 0) }, %"struct.std::__1::pair.14" { i64 -8012935761507627288, i8* getelementptr inbounds ([0 x i8], [0 x i8]* @_ZN3ukm8builders32AdsIntervention_LastIntervention21kInterventionTypeNameE, i32 0, i32 0) }], align 8
@_ZN3ukm8builders11AmpPageLoad10kEntryNameE = external constant [0 x i8], align 1
@_ZN3ukm8builders11AmpPageLoad25kMainFrameAmpPageLoadNameE = external constant [0 x i8], align 1
@_ZN3ukm8builders11AmpPageLoad48kSubFrame_InteractiveTiming_FirstInputDelay4NameE = external constant [0 x i8], align 1
@_ZN3ukm8builders11AmpPageLoad83kSubFrame_LayoutInstability_AverageCumulativeShiftScore_SessionWindow_Gap5000msNameE = external constant [0 x i8], align 1
@_ZN3ukm8builders11AmpPageLoad52kSubFrame_LayoutInstability_CumulativeShiftScoreNameE = external constant [0 x i8], align 1
@_ZN3ukm8builders11AmpPageLoad72kSubFrame_LayoutInstability_CumulativeShiftScore_BeforeInputOrScrollNameE = external constant [0 x i8], align 1
@_ZN3ukm8builders11AmpPageLoad79kSubFrame_LayoutInstability_MaxCumulativeShiftScore_SessionWindow_Gap1000msNameE = external constant [0 x i8], align 1
@_ZN3ukm8builders11AmpPageLoad89kSubFrame_LayoutInstability_MaxCumulativeShiftScore_SessionWindow_Gap1000ms_Max5000msNameE = external constant [0 x i8], align 1
@_ZN3ukm8builders11AmpPageLoad97kSubFrame_LayoutInstability_MaxCumulativeShiftScore_SessionWindowByInputs_Gap1000ms_Max5000msNameE = external constant [0 x i8], align 1
@_ZN3ukm8builders11AmpPageLoad84kSubFrame_LayoutInstability_MaxCumulativeShiftScore_SlidingWindow_Duration1000msNameE = external constant [0 x i8], align 1
@_ZN3ukm8builders11AmpPageLoad83kSubFrame_LayoutInstability_MaxCumulativeShiftScore_SlidingWindow_Duration300msNameE = external constant [0 x i8], align 1
@_ZN3ukm8builders11AmpPageLoad48kSubFrame_MainFrameToSubFrameNavigationDeltaNameE = external constant [0 x i8], align 1
@_ZN3ukm8builders11AmpPageLoad58kSubFrame_PaintTiming_NavigationToFirstContentfulPaintNameE = external constant [0 x i8], align 1
@_ZN3ukm8builders11AmpPageLoad48kSubFrame_PaintTiming_NavigationToFirstPaintNameE = external constant [0 x i8], align 1
@_ZN3ukm8builders11AmpPageLoad60kSubFrame_PaintTiming_NavigationToLargestContentfulPaintNameE = external constant [0 x i8], align 1
@_ZN3ukm8builders11AmpPageLoad61kSubFrame_PaintTiming_NavigationToLargestContentfulPaint2NameE = external constant [0 x i8], align 1
@_ZN3ukm8builders11AmpPageLoad24kSubFrameAmpPageLoadNameE = external constant [0 x i8], align 1
@.ref.tmp.9 = private constant [16 x %"struct.std::__1::pair.14"] [%"struct.std::__1::pair.14" { i64 5461195790241701747, i8* getelementptr inbounds ([0 x i8], [0 x i8]* @_ZN3ukm8builders11AmpPageLoad25kMainFrameAmpPageLoadNameE, i32 0, i32 0) }, %"struct.std::__1::pair.14" { i64 4724951111204316736, i8* getelementptr inbounds ([0 x i8], [0 x i8]* @_ZN3ukm8builders11AmpPageLoad48kSubFrame_InteractiveTiming_FirstInputDelay4NameE, i32 0, i32 0) }, %"struct.std::__1::pair.14" { i64 6982575967264382290, i8* getelementptr inbounds ([0 x i8], [0 x i8]* @_ZN3ukm8builders11AmpPageLoad83kSubFrame_LayoutInstability_AverageCumulativeShiftScore_SessionWindow_Gap5000msNameE, i32 0, i32 0) }, %"struct.std::__1::pair.14" { i64 -2028299518204215786, i8* getelementptr inbounds ([0 x i8], [0 x i8]* @_ZN3ukm8builders11AmpPageLoad52kSubFrame_LayoutInstability_CumulativeShiftScoreNameE, i32 0, i32 0) }, %"struct.std::__1::pair.14" { i64 -4176505781786891889, i8* getelementptr inbounds ([0 x i8], [0 x i8]* @_ZN3ukm8builders11AmpPageLoad72kSubFrame_LayoutInstability_CumulativeShiftScore_BeforeInputOrScrollNameE, i32 0, i32 0) }, %"struct.std::__1::pair.14" { i64 -8648122582102743861, i8* getelementptr inbounds ([0 x i8], [0 x i8]* @_ZN3ukm8builders11AmpPageLoad79kSubFrame_LayoutInstability_MaxCumulativeShiftScore_SessionWindow_Gap1000msNameE, i32 0, i32 0) }, %"struct.std::__1::pair.14" { i64 -5965207238698315485, i8* getelementptr inbounds ([0 x i8], [0 x i8]* @_ZN3ukm8builders11AmpPageLoad89kSubFrame_LayoutInstability_MaxCumulativeShiftScore_SessionWindow_Gap1000ms_Max5000msNameE, i32 0, i32 0) }, %"struct.std::__1::pair.14" { i64 -5775259554992727218, i8* getelementptr inbounds ([0 x i8], [0 x i8]* @_ZN3ukm8builders11AmpPageLoad97kSubFrame_LayoutInstability_MaxCumulativeShiftScore_SessionWindowByInputs_Gap1000ms_Max5000msNameE, i32 0, i32 0) }, %"struct.std::__1::pair.14" { i64 7431066408629809939, i8* getelementptr inbounds ([0 x i8], [0 x i8]* @_ZN3ukm8builders11AmpPageLoad84kSubFrame_LayoutInstability_MaxCumulativeShiftScore_SlidingWindow_Duration1000msNameE, i32 0, i32 0) }, %"struct.std::__1::pair.14" { i64 -632071971660617600, i8* getelementptr inbounds ([0 x i8], [0 x i8]* @_ZN3ukm8builders11AmpPageLoad83kSubFrame_LayoutInstability_MaxCumulativeShiftScore_SlidingWindow_Duration300msNameE, i32 0, i32 0) }, %"struct.std::__1::pair.14" { i64 8980472913360711190, i8* getelementptr inbounds ([0 x i8], [0 x i8]* @_ZN3ukm8builders11AmpPageLoad48kSubFrame_MainFrameToSubFrameNavigationDeltaNameE, i32 0, i32 0) }, %"struct.std::__1::pair.14" { i64 638842222187756601, i8* getelementptr inbounds ([0 x i8], [0 x i8]* @_ZN3ukm8builders11AmpPageLoad58kSubFrame_PaintTiming_NavigationToFirstContentfulPaintNameE, i32 0, i32 0) }, %"struct.std::__1::pair.14" { i64 248118270008625401, i8* getelementptr inbounds ([0 x i8], [0 x i8]* @_ZN3ukm8builders11AmpPageLoad48kSubFrame_PaintTiming_NavigationToFirstPaintNameE, i32 0, i32 0) }, %"struct.std::__1::pair.14" { i64 7926371826234720799, i8* getelementptr inbounds ([0 x i8], [0 x i8]* @_ZN3ukm8builders11AmpPageLoad60kSubFrame_PaintTiming_NavigationToLargestContentfulPaintNameE, i32 0, i32 0) }, %"struct.std::__1::pair.14" { i64 2719061015675078879, i8* getelementptr inbounds ([0 x i8], [0 x i8]* @_ZN3ukm8builders11AmpPageLoad61kSubFrame_PaintTiming_NavigationToLargestContentfulPaint2NameE, i32 0, i32 0) }, %"struct.std::__1::pair.14" { i64 6483268505712723387, i8* getelementptr inbounds ([0 x i8], [0 x i8]* @_ZN3ukm8builders11AmpPageLoad24kSubFrameAmpPageLoadNameE, i32 0, i32 0) }], align 8
@_ZN3ukm8builders33Android_MultiWindowChangeActivity10kEntryNameE = external constant [0 x i8], align 1
@_ZN3ukm8builders33Android_MultiWindowChangeActivity17kActivityTypeNameE = external constant [0 x i8], align 1
@.ref.tmp.10 = private constant [1 x %"struct.std::__1::pair.14"] [%"struct.std::__1::pair.14" { i64 3974259668746749924, i8* getelementptr inbounds ([0 x i8], [0 x i8]* @_ZN3ukm8builders33Android_MultiWindowChangeActivity17kActivityTypeNameE, i32 0, i32 0) }], align 8
@_ZN3ukm8builders24Android_MultiWindowState10kEntryNameE = external constant [0 x i8], align 1
@_ZN3ukm8builders24Android_MultiWindowState16kWindowStateNameE = external constant [0 x i8], align 1
@.ref.tmp.11 = private constant [1 x %"struct.std::__1::pair.14"] [%"struct.std::__1::pair.14" { i64 6916821418093523230, i8* getelementptr inbounds ([0 x i8], [0 x i8]* @_ZN3ukm8builders24Android_MultiWindowState16kWindowStateNameE, i32 0, i32 0) }], align 8
@_ZN3ukm8builders22Android_ScreenRotation10kEntryNameE = external constant [0 x i8], align 1
@_ZN3ukm8builders22Android_ScreenRotation28kTargetDeviceOrientationNameE = external constant [0 x i8], align 1
@.ref.tmp.12 = private constant [1 x %"struct.std::__1::pair.14"] [%"struct.std::__1::pair.14" { i64 -2915407582965777248, i8* getelementptr inbounds ([0 x i8], [0 x i8]* @_ZN3ukm8builders22Android_ScreenRotation28kTargetDeviceOrientationNameE, i32 0, i32 0) }], align 8
@_ZN3ukm8builders36Android_UserRequestedUserAgentChange10kEntryNameE = external constant [0 x i8], align 1
@_ZN3ukm8builders36Android_UserRequestedUserAgentChange18kUserAgentTypeNameE = external constant [0 x i8], align 1
@.ref.tmp.13 = private constant [1 x %"struct.std::__1::pair.14"] [%"struct.std::__1::pair.14" { i64 2318367853561664205, i8* getelementptr inbounds ([0 x i8], [0 x i8]* @_ZN3ukm8builders36Android_UserRequestedUserAgentChange18kUserAgentTypeNameE, i32 0, i32 0) }], align 8
@_ZN3ukm8builders19AppListAppClickData10kEntryNameE = external constant [0 x i8], align 1
@_ZN3ukm8builders19AppListAppClickData16kAppLaunchIdNameE = external constant [0 x i8], align 1
@_ZN3ukm8builders19AppListAppClickData12kAppTypeNameE = external constant [0 x i8], align 1
@_ZN3ukm8builders19AppListAppClickData14kClickRankNameE = external constant [0 x i8], align 1
@_ZN3ukm8builders19AppListAppClickData21kClicksEachHour00NameE = external constant [0 x i8], align 1
@_ZN3ukm8builders19AppListAppClickData21kClicksEachHour01NameE = external constant [0 x i8], align 1
@_ZN3ukm8builders19AppListAppClickData21kClicksEachHour02NameE = external constant [0 x i8], align 1
@_ZN3ukm8builders19AppListAppClickData21kClicksEachHour03NameE = external constant [0 x i8], align 1
@_ZN3ukm8builders19AppListAppClickData21kClicksEachHour04NameE = external constant [0 x i8], align 1
@_ZN3ukm8builders19AppListAppClickData21kClicksEachHour05NameE = external constant [0 x i8], align 1
@_ZN3ukm8builders19AppListAppClickData21kClicksEachHour06NameE = external constant [0 x i8], align 1
@_ZN3ukm8builders19AppListAppClickData21kClicksEachHour07NameE = external constant [0 x i8], align 1
@_ZN3ukm8builders19AppListAppClickData21kClicksEachHour08NameE = external constant [0 x i8], align 1
@_ZN3ukm8builders19AppListAppClickData21kClicksEachHour09NameE = external constant [0 x i8], align 1
@_ZN3ukm8builders19AppListAppClickData21kClicksEachHour10NameE = external constant [0 x i8], align 1
@_ZN3ukm8builders19AppListAppClickData21kClicksEachHour11NameE = external constant [0 x i8], align 1
@_ZN3ukm8builders19AppListAppClickData21kClicksEachHour12NameE = external constant [0 x i8], align 1
@_ZN3ukm8builders19AppListAppClickData21kClicksEachHour13NameE = external constant [0 x i8], align 1
@_ZN3ukm8builders19AppListAppClickData21kClicksEachHour14NameE = external constant [0 x i8], align 1
@_ZN3ukm8builders19AppListAppClickData21kClicksEachHour15NameE = external constant [0 x i8], align 1
@_ZN3ukm8builders19AppListAppClickData21kClicksEachHour16NameE = external constant [0 x i8], align 1
@_ZN3ukm8builders19AppListAppClickData21kClicksEachHour17NameE = external constant [0 x i8], align 1
@_ZN3ukm8builders19AppListAppClickData21kClicksEachHour18NameE = external constant [0 x i8], align 1
@_ZN3ukm8builders19AppListAppClickData21kClicksEachHour19NameE = external constant [0 x i8], align 1
@_ZN3ukm8builders19AppListAppClickData21kClicksEachHour20NameE = external constant [0 x i8], align 1
@_ZN3ukm8builders19AppListAppClickData21kClicksEachHour21NameE = external constant [0 x i8], align 1
@_ZN3ukm8builders19AppListAppClickData21kClicksEachHour22NameE = external constant [0 x i8], align 1
@_ZN3ukm8builders19AppListAppClickData21kClicksEachHour23NameE = external constant [0 x i8], align 1
@_ZN3ukm8builders19AppListAppClickData22kClicksLast24HoursNameE = external constant [0 x i8], align 1
@_ZN3ukm8builders19AppListAppClickData19kClicksLastHourNameE = external constant [0 x i8], align 1
@_ZN3ukm8builders19AppListAppClickData21kLastLaunchedFromNameE = external constant [0 x i8], align 1
@_ZN3ukm8builders19AppListAppClickData26kMostRecentlyUsedIndexNameE = external constant [0 x i8], align 1
@_ZN3ukm8builders19AppListAppClickData19kSequenceNumberNameE = external constant [0 x i8], align 1
@_ZN3ukm8builders19AppListAppClickData23kTimeSinceLastClickNameE = external constant [0 x i8], align 1
@_ZN3ukm8builders19AppListAppClickData16kTotalClicksNameE = external constant [0 x i8], align 1
@.ref.tmp.14 = private constant [34 x %"struct.std::__1::pair.14"] [%"struct.std::__1::pair.14" { i64 -305505022203863413, i8* getelementptr inbounds ([0 x i8], [0 x i8]* @_ZN3ukm8builders19AppListAppClickData16kAppLaunchIdNameE, i32 0, i32 0) }, %"struct.std::__1::pair.14" { i64 8663828604683851647, i8* getelementptr inbounds ([0 x i8], [0 x i8]* @_ZN3ukm8builders19AppListAppClickData12kAppTypeNameE, i32 0, i32 0) }, %"struct.std::__1::pair.14" { i64 2055104011801596037, i8* getelementptr inbounds ([0 x i8], [0 x i8]* @_ZN3ukm8builders19AppListAppClickData14kClickRankNameE, i32 0, i32 0) }, %"struct.std::__1::pair.14" { i64 -8594525130120113079, i8* getelementptr inbounds ([0 x i8], [0 x i8]* @_ZN3ukm8builders19AppListAppClickData21kClicksEachHour00NameE, i32 0, i32 0) }, %"struct.std::__1::pair.14" { i64 4594220155145935772, i8* getelementptr inbounds ([0 x i8], [0 x i8]* @_ZN3ukm8builders19AppListAppClickData21kClicksEachHour01NameE, i32 0, i32 0) }, %"struct.std::__1::pair.14" { i64 2979946241209199190, i8* getelementptr inbounds ([0 x i8], [0 x i8]* @_ZN3ukm8builders19AppListAppClickData21kClicksEachHour02NameE, i32 0, i32 0) }, %"struct.std::__1::pair.14" { i64 2807870101964151999, i8* getelementptr inbounds ([0 x i8], [0 x i8]* @_ZN3ukm8builders19AppListAppClickData21kClicksEachHour03NameE, i32 0, i32 0) }, %"struct.std::__1::pair.14" { i64 714499009068860843, i8* getelementptr inbounds ([0 x i8], [0 x i8]* @_ZN3ukm8builders19AppListAppClickData21kClicksEachHour04NameE, i32 0, i32 0) }, %"struct.std::__1::pair.14" { i64 -733555105077405469, i8* getelementptr inbounds ([0 x i8], [0 x i8]* @_ZN3ukm8builders19AppListAppClickData21kClicksEachHour05NameE, i32 0, i32 0) }, %"struct.std::__1::pair.14" { i64 1175107707626973313, i8* getelementptr inbounds ([0 x i8], [0 x i8]* @_ZN3ukm8builders19AppListAppClickData21kClicksEachHour06NameE, i32 0, i32 0) }, %"struct.std::__1::pair.14" { i64 2271012638508829384, i8* getelementptr inbounds ([0 x i8], [0 x i8]* @_ZN3ukm8builders19AppListAppClickData21kClicksEachHour07NameE, i32 0, i32 0) }, %"struct.std::__1::pair.14" { i64 1772457901586832457, i8* getelementptr inbounds ([0 x i8], [0 x i8]* @_ZN3ukm8builders19AppListAppClickData21kClicksEachHour08NameE, i32 0, i32 0) }, %"struct.std::__1::pair.14" { i64 2851247351851385842, i8* getelementptr inbounds ([0 x i8], [0 x i8]* @_ZN3ukm8builders19AppListAppClickData21kClicksEachHour09NameE, i32 0, i32 0) }, %"struct.std::__1::pair.14" { i64 1806588398743155997, i8* getelementptr inbounds ([0 x i8], [0 x i8]* @_ZN3ukm8builders19AppListAppClickData21kClicksEachHour10NameE, i32 0, i32 0) }, %"struct.std::__1::pair.14" { i64 3131444643108020140, i8* getelementptr inbounds ([0 x i8], [0 x i8]* @_ZN3ukm8builders19AppListAppClickData21kClicksEachHour11NameE, i32 0, i32 0) }, %"struct.std::__1::pair.14" { i64 2448014348189133351, i8* getelementptr inbounds ([0 x i8], [0 x i8]* @_ZN3ukm8builders19AppListAppClickData21kClicksEachHour12NameE, i32 0, i32 0) }, %"struct.std::__1::pair.14" { i64 -196305357853571270, i8* getelementptr inbounds ([0 x i8], [0 x i8]* @_ZN3ukm8builders19AppListAppClickData21kClicksEachHour13NameE, i32 0, i32 0) }, %"struct.std::__1::pair.14" { i64 -751752736775482054, i8* getelementptr inbounds ([0 x i8], [0 x i8]* @_ZN3ukm8builders19AppListAppClickData21kClicksEachHour14NameE, i32 0, i32 0) }, %"struct.std::__1::pair.14" { i64 841563503357754805, i8* getelementptr inbounds ([0 x i8], [0 x i8]* @_ZN3ukm8builders19AppListAppClickData21kClicksEachHour15NameE, i32 0, i32 0) }, %"struct.std::__1::pair.14" { i64 2083341464824283347, i8* getelementptr inbounds ([0 x i8], [0 x i8]* @_ZN3ukm8builders19AppListAppClickData21kClicksEachHour16NameE, i32 0, i32 0) }, %"struct.std::__1::pair.14" { i64 -2329355008831834833, i8* getelementptr inbounds ([0 x i8], [0 x i8]* @_ZN3ukm8builders19AppListAppClickData21kClicksEachHour17NameE, i32 0, i32 0) }, %"struct.std::__1::pair.14" { i64 8357842770757548892, i8* getelementptr inbounds ([0 x i8], [0 x i8]* @_ZN3ukm8builders19AppListAppClickData21kClicksEachHour18NameE, i32 0, i32 0) }, %"struct.std::__1::pair.14" { i64 9017652834579276383, i8* getelementptr inbounds ([0 x i8], [0 x i8]* @_ZN3ukm8builders19AppListAppClickData21kClicksEachHour19NameE, i32 0, i32 0) }, %"struct.std::__1::pair.14" { i64 -2137473322879491350, i8* getelementptr inbounds ([0 x i8], [0 x i8]* @_ZN3ukm8builders19AppListAppClickData21kClicksEachHour20NameE, i32 0, i32 0) }, %"struct.std::__1::pair.14" { i64 8993148668647496674, i8* getelementptr inbounds ([0 x i8], [0 x i8]* @_ZN3ukm8builders19AppListAppClickData21kClicksEachHour21NameE, i32 0, i32 0) }, %"struct.std::__1::pair.14" { i64 6608700521453268064, i8* getelementptr inbounds ([0 x i8], [0 x i8]* @_ZN3ukm8builders19AppListAppClickData21kClicksEachHour22NameE, i32 0, i32 0) }, %"struct.std::__1::pair.14" { i64 -8262122003427258413, i8* getelementptr inbounds ([0 x i8], [0 x i8]* @_ZN3ukm8builders19AppListAppClickData21kClicksEachHour23NameE, i32 0, i32 0) }, %"struct.std::__1::pair.14" { i64 8208362521514978200, i8* getelementptr inbounds ([0 x i8], [0 x i8]* @_ZN3ukm8builders19AppListAppClickData22kClicksLast24HoursNameE, i32 0, i32 0) }, %"struct.std::__1::pair.14" { i64 -6859106999306128622, i8* getelementptr inbounds ([0 x i8], [0 x i8]* @_ZN3ukm8builders19AppListAppClickData19kClicksLastHourNameE, i32 0, i32 0) }, %"struct.std::__1::pair.14" { i64 -495834982782810416, i8* getelementptr inbounds ([0 x i8], [0 x i8]* @_ZN3ukm8builders19AppListAppClickData21kLastLaunchedFromNameE, i32 0, i32 0) }, %"struct.std::__1::pair.14" { i64 4904327804870856216, i8* getelementptr inbounds ([0 x i8], [0 x i8]* @_ZN3ukm8builders19AppListAppClickData26kMostRecentlyUsedIndexNameE, i32 0, i32 0) }, %"struct.std::__1::pair.14" { i64 3161886034278201905, i8* getelementptr inbounds ([0 x i8], [0 x i8]* @_ZN3ukm8builders19AppListAppClickData19kSequenceNumberNameE, i32 0, i32 0) }, %"struct.std::__1::pair.14" { i64 6482216598721160744, i8* getelementptr inbounds ([0 x i8], [0 x i8]* @_ZN3ukm8builders19AppListAppClickData23kTimeSinceLastClickNameE, i32 0, i32 0) }, %"struct.std::__1::pair.14" { i64 -3546854182423763942, i8* getelementptr inbounds ([0 x i8], [0 x i8]* @_ZN3ukm8builders19AppListAppClickData16kTotalClicksNameE, i32 0, i32 0) }], align 8
@_ZN3ukm8builders16AppListAppLaunch10kEntryNameE = external constant [0 x i8], align 1
@_ZN3ukm8builders16AppListAppLaunch25kAllClicksLast24HoursNameE = external constant [0 x i8], align 1
@_ZN3ukm8builders16AppListAppLaunch22kAllClicksLastHourNameE = external constant [0 x i8], align 1
@_ZN3ukm8builders16AppListAppLaunch12kAppTypeNameE = external constant [0 x i8], align 1
@_ZN3ukm8builders16AppListAppLaunch16kClickMethodNameE = external constant [0 x i8], align 1
@_ZN3ukm8builders16AppListAppLaunch14kDayOfWeekNameE = external constant [0 x i8], align 1
@_ZN3ukm8builders16AppListAppLaunch15kDeviceModeNameE = external constant [0 x i8], align 1
@_ZN3ukm8builders16AppListAppLaunch15kDeviceTypeNameE = external constant [0 x i8], align 1
@_ZN3ukm8builders16AppListAppLaunch14kHourOfDayNameE = external constant [0 x i8], align 1
@_ZN3ukm8builders16AppListAppLaunch17kLaunchedFromNameE = external constant [0 x i8], align 1
@_ZN3ukm8builders16AppListAppLaunch18kPositionIndexNameE = external constant [0 x i8], align 1
@_ZN3ukm8builders16AppListAppLaunch15kTotalHoursNameE = external constant [0 x i8], align 1
@.ref.tmp.15 = private constant [11 x %"struct.std::__1::pair.14"] [%"struct.std::__1::pair.14" { i64 4575029519393656215, i8* getelementptr inbounds ([0 x i8], [0 x i8]* @_ZN3ukm8builders16AppListAppLaunch25kAllClicksLast24HoursNameE, i32 0, i32 0) }, %"struct.std::__1::pair.14" { i64 -3752119404093941635, i8* getelementptr inbounds ([0 x i8], [0 x i8]* @_ZN3ukm8builders16AppListAppLaunch22kAllClicksLastHourNameE, i32 0, i32 0) }, %"struct.std::__1::pair.14" { i64 8663828604683851647, i8* getelementptr inbounds ([0 x i8], [0 x i8]* @_ZN3ukm8builders16AppListAppLaunch12kAppTypeNameE, i32 0, i32 0) }, %"struct.std::__1::pair.14" { i64 6788393749258903020, i8* getelementptr inbounds ([0 x i8], [0 x i8]* @_ZN3ukm8builders16AppListAppLaunch16kClickMethodNameE, i32 0, i32 0) }, %"struct.std::__1::pair.14" { i64 -2834735534568602335, i8* getelementptr inbounds ([0 x i8], [0 x i8]* @_ZN3ukm8builders16AppListAppLaunch14kDayOfWeekNameE, i32 0, i32 0) }, %"struct.std::__1::pair.14" { i64 -894709574419518343, i8* getelementptr inbounds ([0 x i8], [0 x i8]* @_ZN3ukm8builders16AppListAppLaunch15kDeviceModeNameE, i32 0, i32 0) }, %"struct.std::__1::pair.14" { i64 7795620498098931292, i8* getelementptr inbounds ([0 x i8], [0 x i8]* @_ZN3ukm8builders16AppListAppLaunch15kDeviceTypeNameE, i32 0, i32 0) }, %"struct.std::__1::pair.14" { i64 7458652416968136217, i8* getelementptr inbounds ([0 x i8], [0 x i8]* @_ZN3ukm8builders16AppListAppLaunch14kHourOfDayNameE, i32 0, i32 0) }, %"struct.std::__1::pair.14" { i64 6515313514467325646, i8* getelementptr inbounds ([0 x i8], [0 x i8]* @_ZN3ukm8builders16AppListAppLaunch17kLaunchedFromNameE, i32 0, i32 0) }, %"struct.std::__1::pair.14" { i64 -6933053053386484247, i8* getelementptr inbounds ([0 x i8], [0 x i8]* @_ZN3ukm8builders16AppListAppLaunch18kPositionIndexNameE, i32 0, i32 0) }, %"struct.std::__1::pair.14" { i64 -3675003749638116448, i8* getelementptr inbounds ([0 x i8], [0 x i8]* @_ZN3ukm8builders16AppListAppLaunch15kTotalHoursNameE, i32 0, i32 0) }], align 8
@_ZN3ukm8builders27Autofill_CardUploadDecision10kEntryNameE = external constant [0 x i8], align 1
@_ZN3ukm8builders27Autofill_CardUploadDecision19kUploadDecisionNameE = external constant [0 x i8], align 1
@.ref.tmp.16 = private constant [1 x %"struct.std::__1::pair.14"] [%"struct.std::__1::pair.14" { i64 1530202151366371243, i8* getelementptr inbounds ([0 x i8], [0 x i8]* @_ZN3ukm8builders27Autofill_CardUploadDecision19kUploadDecisionNameE, i32 0, i32 0) }], align 8
@_ZN3ukm8builders28Autofill_DeveloperEngagement10kEntryNameE = external constant [0 x i8], align 1
@_ZN3ukm8builders28Autofill_DeveloperEngagement24kDeveloperEngagementNameE = external constant [0 x i8], align 1
@_ZN3ukm8builders28Autofill_DeveloperEngagement18kFormSignatureNameE = external constant [0 x i8], align 1
@_ZN3ukm8builders28Autofill_DeveloperEngagement14kFormTypesNameE = external constant [0 x i8], align 1
@_ZN3ukm8builders28Autofill_DeveloperEngagement20kIsForCreditCardNameE = external constant [0 x i8], align 1
@.ref.tmp.17 = private constant [4 x %"struct.std::__1::pair.14"] [%"struct.std::__1::pair.14" { i64 -2908409958058894019, i8* getelementptr inbounds ([0 x i8], [0 x i8]* @_ZN3ukm8builders28Autofill_DeveloperEngagement24kDeveloperEngagementNameE, i32 0, i32 0) }, %"struct.std::__1::pair.14" { i64 4815584921581567107, i8* getelementptr inbounds ([0 x i8], [0 x i8]* @_ZN3ukm8builders28Autofill_DeveloperEngagement18kFormSignatureNameE, i32 0, i32 0) }, %"struct.std::__1::pair.14" { i64 -7679334262388673469, i8* getelementptr inbounds ([0 x i8], [0 x i8]* @_ZN3ukm8builders28Autofill_DeveloperEngagement14kFormTypesNameE, i32 0, i32 0) }, %"struct.std::__1::pair.14" { i64 -2953228551641263161, i8* getelementptr inbounds ([0 x i8], [0 x i8]* @_ZN3ukm8builders28Autofill_DeveloperEngagement20kIsForCreditCardNameE, i32 0, i32 0) }], align 8
@_ZN3ukm8builders42Autofill_EditedAutofilledFieldAtSubmission10kEntryNameE = external constant [0 x i8], align 1
@_ZN3ukm8builders42Autofill_EditedAutofilledFieldAtSubmission19kFieldSignatureNameE = external constant [0 x i8], align 1
@_ZN3ukm8builders42Autofill_EditedAutofilledFieldAtSubmission18kFormSignatureNameE = external constant [0 x i8], align 1
@_ZN3ukm8builders42Autofill_EditedAutofilledFieldAtSubmission16kOverallTypeNameE = external constant [0 x i8], align 1
@.ref.tmp.18 = private constant [3 x %"struct.std::__1::pair.14"] [%"struct.std::__1::pair.14" { i64 -5898708269882244805, i8* getelementptr inbounds ([0 x i8], [0 x i8]* @_ZN3ukm8builders42Autofill_EditedAutofilledFieldAtSubmission19kFieldSignatureNameE, i32 0, i32 0) }, %"struct.std::__1::pair.14" { i64 4815584921581567107, i8* getelementptr inbounds ([0 x i8], [0 x i8]* @_ZN3ukm8builders42Autofill_EditedAutofilledFieldAtSubmission18kFormSignatureNameE, i32 0, i32 0) }, %"struct.std::__1::pair.14" { i64 -1550484294858853540, i8* getelementptr inbounds ([0 x i8], [0 x i8]* @_ZN3ukm8builders42Autofill_EditedAutofilledFieldAtSubmission16kOverallTypeNameE, i32 0, i32 0) }], align 8
@_ZN3ukm8builders24Autofill_FieldFillStatus10kEntryNameE = external constant [0 x i8], align 1
@_ZN3ukm8builders24Autofill_FieldFillStatus19kFieldSignatureNameE = external constant [0 x i8], align 1
@_ZN3ukm8builders24Autofill_FieldFillStatus18kFormSignatureNameE = external constant [0 x i8], align 1
@_ZN3ukm8builders24Autofill_FieldFillStatus17kIsAutofilledNameE = external constant [0 x i8], align 1
@_ZN3ukm8builders24Autofill_FieldFillStatus32kMillisecondsSinceFormParsedNameE = external constant [0 x i8], align 1
@_ZN3ukm8builders24Autofill_FieldFillStatus21kPredictionSourceNameE = external constant [0 x i8], align 1
@_ZN3ukm8builders24Autofill_FieldFillStatus20kValidationEventNameE = external constant [0 x i8], align 1
@_ZN3ukm8builders24Autofill_FieldFillStatus28kWasPreviouslyAutofilledNameE = external constant [0 x i8], align 1
@.ref.tmp.19 = private constant [7 x %"struct.std::__1::pair.14"] [%"struct.std::__1::pair.14" { i64 -5898708269882244805, i8* getelementptr inbounds ([0 x i8], [0 x i8]* @_ZN3ukm8builders24Autofill_FieldFillStatus19kFieldSignatureNameE, i32 0, i32 0) }, %"struct.std::__1::pair.14" { i64 4815584921581567107, i8* getelementptr inbounds ([0 x i8], [0 x i8]* @_ZN3ukm8builders24Autofill_FieldFillStatus18kFormSignatureNameE, i32 0, i32 0) }, %"struct.std::__1::pair.14" { i64 -895468745745046849, i8* getelementptr inbounds ([0 x i8], [0 x i8]* @_ZN3ukm8builders24Autofill_FieldFillStatus17kIsAutofilledNameE, i32 0, i32 0) }, %"struct.std::__1::pair.14" { i64 822617360850595330, i8* getelementptr inbounds ([0 x i8], [0 x i8]* @_ZN3ukm8builders24Autofill_FieldFillStatus32kMillisecondsSinceFormParsedNameE, i32 0, i32 0) }, %"struct.std::__1::pair.14" { i64 5017294346205954242, i8* getelementptr inbounds ([0 x i8], [0 x i8]* @_ZN3ukm8builders24Autofill_FieldFillStatus21kPredictionSourceNameE, i32 0, i32 0) }, %"struct.std::__1::pair.14" { i64 -1085186175142762244, i8* getelementptr inbounds ([0 x i8], [0 x i8]* @_ZN3ukm8builders24Autofill_FieldFillStatus20kValidationEventNameE, i32 0, i32 0) }, %"struct.std::__1::pair.14" { i64 1646712375187153208, i8* getelementptr inbounds ([0 x i8], [0 x i8]* @_ZN3ukm8builders24Autofill_FieldFillStatus28kWasPreviouslyAutofilledNameE, i32 0, i32 0) }], align 8
@_ZN3ukm8builders28Autofill_FieldTypeValidation10kEntryNameE = external constant [0 x i8], align 1
@_ZN3ukm8builders28Autofill_FieldTypeValidation15kActualTypeNameE = external constant [0 x i8], align 1
@_ZN3ukm8builders28Autofill_FieldTypeValidation19kFieldSignatureNameE = external constant [0 x i8], align 1
@_ZN3ukm8builders28Autofill_FieldTypeValidation18kFormSignatureNameE = external constant [0 x i8], align 1
@_ZN3ukm8builders28Autofill_FieldTypeValidation32kMillisecondsSinceFormParsedNameE = external constant [0 x i8], align 1
@_ZN3ukm8builders28Autofill_FieldTypeValidation18kPredictedTypeNameE = external constant [0 x i8], align 1
@_ZN3ukm8builders28Autofill_FieldTypeValidation21kPredictionSourceNameE = external constant [0 x i8], align 1
@_ZN3ukm8builders28Autofill_FieldTypeValidation20kValidationEventNameE = external constant [0 x i8], align 1
@.ref.tmp.20 = private constant [7 x %"struct.std::__1::pair.14"] [%"struct.std::__1::pair.14" { i64 4245305632546756744, i8* getelementptr inbounds ([0 x i8], [0 x i8]* @_ZN3ukm8builders28Autofill_FieldTypeValidation15kActualTypeNameE, i32 0, i32 0) }, %"struct.std::__1::pair.14" { i64 -5898708269882244805, i8* getelementptr inbounds ([0 x i8], [0 x i8]* @_ZN3ukm8builders28Autofill_FieldTypeValidation19kFieldSignatureNameE, i32 0, i32 0) }, %"struct.std::__1::pair.14" { i64 4815584921581567107, i8* getelementptr inbounds ([0 x i8], [0 x i8]* @_ZN3ukm8builders28Autofill_FieldTypeValidation18kFormSignatureNameE, i32 0, i32 0) }, %"struct.std::__1::pair.14" { i64 822617360850595330, i8* getelementptr inbounds ([0 x i8], [0 x i8]* @_ZN3ukm8builders28Autofill_FieldTypeValidation32kMillisecondsSinceFormParsedNameE, i32 0, i32 0) }, %"struct.std::__1::pair.14" { i64 -5327778740113641553, i8* getelementptr inbounds ([0 x i8], [0 x i8]* @_ZN3ukm8builders28Autofill_FieldTypeValidation18kPredictedTypeNameE, i32 0, i32 0) }, %"struct.std::__1::pair.14" { i64 5017294346205954242, i8* getelementptr inbounds ([0 x i8], [0 x i8]* @_ZN3ukm8builders28Autofill_FieldTypeValidation21kPredictionSourceNameE, i32 0, i32 0) }, %"struct.std::__1::pair.14" { i64 -1085186175142762244, i8* getelementptr inbounds ([0 x i8], [0 x i8]* @_ZN3ukm8builders28Autofill_FieldTypeValidation20kValidationEventNameE, i32 0, i32 0) }], align 8
@_ZN3ukm8builders18Autofill_FormEvent10kEntryNameE = external constant [0 x i8], align 1
@_ZN3ukm8builders18Autofill_FormEvent22kAutofillFormEventNameE = external constant [0 x i8], align 1
@_ZN3ukm8builders18Autofill_FormEvent14kFormTypesNameE = external constant [0 x i8], align 1
@_ZN3ukm8builders18Autofill_FormEvent32kMillisecondsSinceFormParsedNameE = external constant [0 x i8], align 1
@.ref.tmp.21 = private constant [3 x %"struct.std::__1::pair.14"] [%"struct.std::__1::pair.14" { i64 101161368576121811, i8* getelementptr inbounds ([0 x i8], [0 x i8]* @_ZN3ukm8builders18Autofill_FormEvent22kAutofillFormEventNameE, i32 0, i32 0) }, %"struct.std::__1::pair.14" { i64 -7679334262388673469, i8* getelementptr inbounds ([0 x i8], [0 x i8]* @_ZN3ukm8builders18Autofill_FormEvent14kFormTypesNameE, i32 0, i32 0) }, %"struct.std::__1::pair.14" { i64 822617360850595330, i8* getelementptr inbounds ([0 x i8], [0 x i8]* @_ZN3ukm8builders18Autofill_FormEvent32kMillisecondsSinceFormParsedNameE, i32 0, i32 0) }], align 8
@_ZN3ukm8builders27Autofill_FormFillSuccessIOS10kEntryNameE = external constant [0 x i8], align 1
@_ZN3ukm8builders27Autofill_FormFillSuccessIOS20kFormFillSuccessNameE = external constant [0 x i8], align 1
@.ref.tmp.22 = private constant [1 x %"struct.std::__1::pair.14"] [%"struct.std::__1::pair.14" { i64 4441642850899500057, i8* getelementptr inbounds ([0 x i8], [0 x i8]* @_ZN3ukm8builders27Autofill_FormFillSuccessIOS20kFormFillSuccessNameE, i32 0, i32 0) }], align 8
@_ZN3ukm8builders22Autofill_FormSubmitted10kEntryNameE = external constant [0 x i8], align 1
@_ZN3ukm8builders22Autofill_FormSubmitted31kAutofillFormSubmittedStateNameE = external constant [0 x i8], align 1
@_ZN3ukm8builders22Autofill_FormSubmitted18kFormSignatureNameE = external constant [0 x i8], align 1
@_ZN3ukm8builders22Autofill_FormSubmitted14kFormTypesNameE = external constant [0 x i8], align 1
@_ZN3ukm8builders22Autofill_FormSubmitted19kHasUpiVpaFieldNameE = external constant [0 x i8], align 1
@_ZN3ukm8builders22Autofill_FormSubmitted20kIsForCreditCardNameE = external constant [0 x i8], align 1
@_ZN3ukm8builders22Autofill_FormSubmitted32kMillisecondsSinceFormParsedNameE = external constant [0 x i8], align 1
@.ref.tmp.23 = private constant [6 x %"struct.std::__1::pair.14"] [%"struct.std::__1::pair.14" { i64 4964829566871574464, i8* getelementptr inbounds ([0 x i8], [0 x i8]* @_ZN3ukm8builders22Autofill_FormSubmitted31kAutofillFormSubmittedStateNameE, i32 0, i32 0) }, %"struct.std::__1::pair.14" { i64 4815584921581567107, i8* getelementptr inbounds ([0 x i8], [0 x i8]* @_ZN3ukm8builders22Autofill_FormSubmitted18kFormSignatureNameE, i32 0, i32 0) }, %"struct.std::__1::pair.14" { i64 -7679334262388673469, i8* getelementptr inbounds ([0 x i8], [0 x i8]* @_ZN3ukm8builders22Autofill_FormSubmitted14kFormTypesNameE, i32 0, i32 0) }, %"struct.std::__1::pair.14" { i64 3630243921977557291, i8* getelementptr inbounds ([0 x i8], [0 x i8]* @_ZN3ukm8builders22Autofill_FormSubmitted19kHasUpiVpaFieldNameE, i32 0, i32 0) }, %"struct.std::__1::pair.14" { i64 -2953228551641263161, i8* getelementptr inbounds ([0 x i8], [0 x i8]* @_ZN3ukm8builders22Autofill_FormSubmitted20kIsForCreditCardNameE, i32 0, i32 0) }, %"struct.std::__1::pair.14" { i64 822617360850595330, i8* getelementptr inbounds ([0 x i8], [0 x i8]* @_ZN3ukm8builders22Autofill_FormSubmitted32kMillisecondsSinceFormParsedNameE, i32 0, i32 0) }], align 8
@_ZN3ukm8builders48Autofill_HiddenRepresentationalFieldSkipDecision10kEntryNameE = external constant [0 x i8], align 1
@_ZN3ukm8builders48Autofill_HiddenRepresentationalFieldSkipDecision21kFieldOverallTypeNameE = external constant [0 x i8], align 1
@_ZN3ukm8builders48Autofill_HiddenRepresentationalFieldSkipDecision19kFieldSignatureNameE = external constant [0 x i8], align 1
@_ZN3ukm8builders48Autofill_HiddenRepresentationalFieldSkipDecision19kFieldTypeGroupNameE = external constant [0 x i8], align 1
@_ZN3ukm8builders48Autofill_HiddenRepresentationalFieldSkipDecision18kFormSignatureNameE = external constant [0 x i8], align 1
@_ZN3ukm8builders48Autofill_HiddenRepresentationalFieldSkipDecision18kHeuristicTypeNameE = external constant [0 x i8], align 1
@_ZN3ukm8builders48Autofill_HiddenRepresentationalFieldSkipDecision18kHtmlFieldModeNameE = external constant [0 x i8], align 1
@_ZN3ukm8builders48Autofill_HiddenRepresentationalFieldSkipDecision18kHtmlFieldTypeNameE = external constant [0 x i8], align 1
@_ZN3ukm8builders48Autofill_HiddenRepresentationalFieldSkipDecision14kIsSkippedNameE = external constant [0 x i8], align 1
@_ZN3ukm8builders48Autofill_HiddenRepresentationalFieldSkipDecision15kServerTypeNameE = external constant [0 x i8], align 1
@.ref.tmp.24 = private constant [9 x %"struct.std::__1::pair.14"] [%"struct.std::__1::pair.14" { i64 5024560379185631865, i8* getelementptr inbounds ([0 x i8], [0 x i8]* @_ZN3ukm8builders48Autofill_HiddenRepresentationalFieldSkipDecision21kFieldOverallTypeNameE, i32 0, i32 0) }, %"struct.std::__1::pair.14" { i64 -5898708269882244805, i8* getelementptr inbounds ([0 x i8], [0 x i8]* @_ZN3ukm8builders48Autofill_HiddenRepresentationalFieldSkipDecision19kFieldSignatureNameE, i32 0, i32 0) }, %"struct.std::__1::pair.14" { i64 4771816394504495494, i8* getelementptr inbounds ([0 x i8], [0 x i8]* @_ZN3ukm8builders48Autofill_HiddenRepresentationalFieldSkipDecision19kFieldTypeGroupNameE, i32 0, i32 0) }, %"struct.std::__1::pair.14" { i64 4815584921581567107, i8* getelementptr inbounds ([0 x i8], [0 x i8]* @_ZN3ukm8builders48Autofill_HiddenRepresentationalFieldSkipDecision18kFormSignatureNameE, i32 0, i32 0) }, %"struct.std::__1::pair.14" { i64 -1212063223282492487, i8* getelementptr inbounds ([0 x i8], [0 x i8]* @_ZN3ukm8builders48Autofill_HiddenRepresentationalFieldSkipDecision18kHeuristicTypeNameE, i32 0, i32 0) }, %"struct.std::__1::pair.14" { i64 -3294837187846168315, i8* getelementptr inbounds ([0 x i8], [0 x i8]* @_ZN3ukm8builders48Autofill_HiddenRepresentationalFieldSkipDecision18kHtmlFieldModeNameE, i32 0, i32 0) }, %"struct.std::__1::pair.14" { i64 -5425132533489665519, i8* getelementptr inbounds ([0 x i8], [0 x i8]* @_ZN3ukm8builders48Autofill_HiddenRepresentationalFieldSkipDecision18kHtmlFieldTypeNameE, i32 0, i32 0) }, %"struct.std::__1::pair.14" { i64 -4576906299675017022, i8* getelementptr inbounds ([0 x i8], [0 x i8]* @_ZN3ukm8builders48Autofill_HiddenRepresentationalFieldSkipDecision14kIsSkippedNameE, i32 0, i32 0) }, %"struct.std::__1::pair.14" { i64 3640361506783159573, i8* getelementptr inbounds ([0 x i8], [0 x i8]* @_ZN3ukm8builders48Autofill_HiddenRepresentationalFieldSkipDecision15kServerTypeNameE, i32 0, i32 0) }], align 8
@_ZN3ukm8builders27Autofill_InteractedWithForm10kEntryNameE = external constant [0 x i8], align 1
@_ZN3ukm8builders27Autofill_InteractedWithForm18kFormSignatureNameE = external constant [0 x i8], align 1
@_ZN3ukm8builders27Autofill_InteractedWithForm14kFormTypesNameE = external constant [0 x i8], align 1
@_ZN3ukm8builders27Autofill_InteractedWithForm20kIsForCreditCardNameE = external constant [0 x i8], align 1
@_ZN3ukm8builders27Autofill_InteractedWithForm25kLocalRecordTypeCountNameE = external constant [0 x i8], align 1
@_ZN3ukm8builders27Autofill_InteractedWithForm26kServerRecordTypeCountNameE = external constant [0 x i8], align 1
@.ref.tmp.25 = private constant [5 x %"struct.std::__1::pair.14"] [%"struct.std::__1::pair.14" { i64 4815584921581567107, i8* getelementptr inbounds ([0 x i8], [0 x i8]* @_ZN3ukm8builders27Autofill_InteractedWithForm18kFormSignatureNameE, i32 0, i32 0) }, %"struct.std::__1::pair.14" { i64 -7679334262388673469, i8* getelementptr inbounds ([0 x i8], [0 x i8]* @_ZN3ukm8builders27Autofill_InteractedWithForm14kFormTypesNameE, i32 0, i32 0) }, %"struct.std::__1::pair.14" { i64 -2953228551641263161, i8* getelementptr inbounds ([0 x i8], [0 x i8]* @_ZN3ukm8builders27Autofill_InteractedWithForm20kIsForCreditCardNameE, i32 0, i32 0) }, %"struct.std::__1::pair.14" { i64 4967504613046448052, i8* getelementptr inbounds ([0 x i8], [0 x i8]* @_ZN3ukm8builders27Autofill_InteractedWithForm25kLocalRecordTypeCountNameE, i32 0, i32 0) }, %"struct.std::__1::pair.14" { i64 7268279397149312763, i8* getelementptr inbounds ([0 x i8], [0 x i8]* @_ZN3ukm8builders27Autofill_InteractedWithForm26kServerRecordTypeCountNameE, i32 0, i32 0) }], align 8
@_ZN3ukm8builders49Autofill_RepeatedServerTypePredictionRationalized10kEntryNameE = external constant [0 x i8], align 1
@_ZN3ukm8builders49Autofill_RepeatedServerTypePredictionRationalized24kFieldNewOverallTypeNameE = external constant [0 x i8], align 1
@_ZN3ukm8builders49Autofill_RepeatedServerTypePredictionRationalized24kFieldOldOverallTypeNameE = external constant [0 x i8], align 1
@_ZN3ukm8builders49Autofill_RepeatedServerTypePredictionRationalized19kFieldSignatureNameE = external constant [0 x i8], align 1
@_ZN3ukm8builders49Autofill_RepeatedServerTypePredictionRationalized19kFieldTypeGroupNameE = external constant [0 x i8], align 1
@_ZN3ukm8builders49Autofill_RepeatedServerTypePredictionRationalized18kFormSignatureNameE = external constant [0 x i8], align 1
@_ZN3ukm8builders49Autofill_RepeatedServerTypePredictionRationalized18kHeuristicTypeNameE = external constant [0 x i8], align 1
@_ZN3ukm8builders49Autofill_RepeatedServerTypePredictionRationalized18kHtmlFieldModeNameE = external constant [0 x i8], align 1
@_ZN3ukm8builders49Autofill_RepeatedServerTypePredictionRationalized18kHtmlFieldTypeNameE = external constant [0 x i8], align 1
@_ZN3ukm8builders49Autofill_RepeatedServerTypePredictionRationalized15kServerTypeNameE = external constant [0 x i8], align 1
@.ref.tmp.26 = private constant [9 x %"struct.std::__1::pair.14"] [%"struct.std::__1::pair.14" { i64 -783908110489854975, i8* getelementptr inbounds ([0 x i8], [0 x i8]* @_ZN3ukm8builders49Autofill_RepeatedServerTypePredictionRationalized24kFieldNewOverallTypeNameE, i32 0, i32 0) }, %"struct.std::__1::pair.14" { i64 -2017602147650554771, i8* getelementptr inbounds ([0 x i8], [0 x i8]* @_ZN3ukm8builders49Autofill_RepeatedServerTypePredictionRationalized24kFieldOldOverallTypeNameE, i32 0, i32 0) }, %"struct.std::__1::pair.14" { i64 -5898708269882244805, i8* getelementptr inbounds ([0 x i8], [0 x i8]* @_ZN3ukm8builders49Autofill_RepeatedServerTypePredictionRationalized19kFieldSignatureNameE, i32 0, i32 0) }, %"struct.std::__1::pair.14" { i64 4771816394504495494, i8* getelementptr inbounds ([0 x i8], [0 x i8]* @_ZN3ukm8builders49Autofill_RepeatedServerTypePredictionRationalized19kFieldTypeGroupNameE, i32 0, i32 0) }, %"struct.std::__1::pair.14" { i64 4815584921581567107, i8* getelementptr inbounds ([0 x i8], [0 x i8]* @_ZN3ukm8builders49Autofill_RepeatedServerTypePredictionRationalized18kFormSignatureNameE, i32 0, i32 0) }, %"struct.std::__1::pair.14" { i64 -1212063223282492487, i8* getelementptr inbounds ([0 x i8], [0 x i8]* @_ZN3ukm8builders49Autofill_RepeatedServerTypePredictionRationalized18kHeuristicTypeNameE, i32 0, i32 0) }, %"struct.std::__1::pair.14" { i64 -3294837187846168315, i8* getelementptr inbounds ([0 x i8], [0 x i8]* @_ZN3ukm8builders49Autofill_RepeatedServerTypePredictionRationalized18kHtmlFieldModeNameE, i32 0, i32 0) }, %"struct.std::__1::pair.14" { i64 -5425132533489665519, i8* getelementptr inbounds ([0 x i8], [0 x i8]* @_ZN3ukm8builders49Autofill_RepeatedServerTypePredictionRationalized18kHtmlFieldTypeNameE, i32 0, i32 0) }, %"struct.std::__1::pair.14" { i64 3640361506783159573, i8* getelementptr inbounds ([0 x i8], [0 x i8]* @_ZN3ukm8builders49Autofill_RepeatedServerTypePredictionRationalized15kServerTypeNameE, i32 0, i32 0) }], align 8
@_ZN3ukm8builders25Autofill_SuggestionFilled10kEntryNameE = external constant [0 x i8], align 1
@_ZN3ukm8builders25Autofill_SuggestionFilled19kFieldSignatureNameE = external constant [0 x i8], align 1
@_ZN3ukm8builders25Autofill_SuggestionFilled18kFormSignatureNameE = external constant [0 x i8], align 1
@_ZN3ukm8builders25Autofill_SuggestionFilled20kIsForCreditCardNameE = external constant [0 x i8], align 1
@_ZN3ukm8builders25Autofill_SuggestionFilled32kMillisecondsSinceFormParsedNameE = external constant [0 x i8], align 1
@_ZN3ukm8builders25Autofill_SuggestionFilled15kRecordTypeNameE = external constant [0 x i8], align 1
@.ref.tmp.27 = private constant [5 x %"struct.std::__1::pair.14"] [%"struct.std::__1::pair.14" { i64 -5898708269882244805, i8* getelementptr inbounds ([0 x i8], [0 x i8]* @_ZN3ukm8builders25Autofill_SuggestionFilled19kFieldSignatureNameE, i32 0, i32 0) }, %"struct.std::__1::pair.14" { i64 4815584921581567107, i8* getelementptr inbounds ([0 x i8], [0 x i8]* @_ZN3ukm8builders25Autofill_SuggestionFilled18kFormSignatureNameE, i32 0, i32 0) }, %"struct.std::__1::pair.14" { i64 -2953228551641263161, i8* getelementptr inbounds ([0 x i8], [0 x i8]* @_ZN3ukm8builders25Autofill_SuggestionFilled20kIsForCreditCardNameE, i32 0, i32 0) }, %"struct.std::__1::pair.14" { i64 822617360850595330, i8* getelementptr inbounds ([0 x i8], [0 x i8]* @_ZN3ukm8builders25Autofill_SuggestionFilled32kMillisecondsSinceFormParsedNameE, i32 0, i32 0) }, %"struct.std::__1::pair.14" { i64 2556852903161176255, i8* getelementptr inbounds ([0 x i8], [0 x i8]* @_ZN3ukm8builders25Autofill_SuggestionFilled15kRecordTypeNameE, i32 0, i32 0) }], align 8
@_ZN3ukm8builders25Autofill_SuggestionsShown10kEntryNameE = external constant [0 x i8], align 1
@_ZN3ukm8builders25Autofill_SuggestionsShown19kFieldSignatureNameE = external constant [0 x i8], align 1
@_ZN3ukm8builders25Autofill_SuggestionsShown18kFormSignatureNameE = external constant [0 x i8], align 1
@_ZN3ukm8builders25Autofill_SuggestionsShown18kHeuristicTypeNameE = external constant [0 x i8], align 1
@_ZN3ukm8builders25Autofill_SuggestionsShown18kHtmlFieldTypeNameE = external constant [0 x i8], align 1
@_ZN3ukm8builders25Autofill_SuggestionsShown32kMillisecondsSinceFormParsedNameE = external constant [0 x i8], align 1
@_ZN3ukm8builders25Autofill_SuggestionsShown15kServerTypeNameE = external constant [0 x i8], align 1
@.ref.tmp.28 = private constant [6 x %"struct.std::__1::pair.14"] [%"struct.std::__1::pair.14" { i64 -5898708269882244805, i8* getelementptr inbounds ([0 x i8], [0 x i8]* @_ZN3ukm8builders25Autofill_SuggestionsShown19kFieldSignatureNameE, i32 0, i32 0) }, %"struct.std::__1::pair.14" { i64 4815584921581567107, i8* getelementptr inbounds ([0 x i8], [0 x i8]* @_ZN3ukm8builders25Autofill_SuggestionsShown18kFormSignatureNameE, i32 0, i32 0) }, %"struct.std::__1::pair.14" { i64 -1212063223282492487, i8* getelementptr inbounds ([0 x i8], [0 x i8]* @_ZN3ukm8builders25Autofill_SuggestionsShown18kHeuristicTypeNameE, i32 0, i32 0) }, %"struct.std::__1::pair.14" { i64 -5425132533489665519, i8* getelementptr inbounds ([0 x i8], [0 x i8]* @_ZN3ukm8builders25Autofill_SuggestionsShown18kHtmlFieldTypeNameE, i32 0, i32 0) }, %"struct.std::__1::pair.14" { i64 822617360850595330, i8* getelementptr inbounds ([0 x i8], [0 x i8]* @_ZN3ukm8builders25Autofill_SuggestionsShown32kMillisecondsSinceFormParsedNameE, i32 0, i32 0) }, %"struct.std::__1::pair.14" { i64 3640361506783159573, i8* getelementptr inbounds ([0 x i8], [0 x i8]* @_ZN3ukm8builders25Autofill_SuggestionsShown15kServerTypeNameE, i32 0, i32 0) }], align 8
@_ZN3ukm8builders27Autofill_TextFieldDidChange10kEntryNameE = external constant [0 x i8], align 1
@_ZN3ukm8builders27Autofill_TextFieldDidChange19kFieldSignatureNameE = external constant [0 x i8], align 1
@_ZN3ukm8builders27Autofill_TextFieldDidChange19kFieldTypeGroupNameE = external constant [0 x i8], align 1
@_ZN3ukm8builders27Autofill_TextFieldDidChange18kFormSignatureNameE = external constant [0 x i8], align 1
@_ZN3ukm8builders27Autofill_TextFieldDidChange18kHeuristicTypeNameE = external constant [0 x i8], align 1
@_ZN3ukm8builders27Autofill_TextFieldDidChange18kHtmlFieldModeNameE = external constant [0 x i8], align 1
@_ZN3ukm8builders27Autofill_TextFieldDidChange18kHtmlFieldTypeNameE = external constant [0 x i8], align 1
@_ZN3ukm8builders27Autofill_TextFieldDidChange17kIsAutofilledNameE = external constant [0 x i8], align 1
@_ZN3ukm8builders27Autofill_TextFieldDidChange12kIsEmptyNameE = external constant [0 x i8], align 1
@_ZN3ukm8builders27Autofill_TextFieldDidChange32kMillisecondsSinceFormParsedNameE = external constant [0 x i8], align 1
@_ZN3ukm8builders27Autofill_TextFieldDidChange15kServerTypeNameE = external constant [0 x i8], align 1
@.ref.tmp.29 = private constant [10 x %"struct.std::__1::pair.14"] [%"struct.std::__1::pair.14" { i64 -5898708269882244805, i8* getelementptr inbounds ([0 x i8], [0 x i8]* @_ZN3ukm8builders27Autofill_TextFieldDidChange19kFieldSignatureNameE, i32 0, i32 0) }, %"struct.std::__1::pair.14" { i64 4771816394504495494, i8* getelementptr inbounds ([0 x i8], [0 x i8]* @_ZN3ukm8builders27Autofill_TextFieldDidChange19kFieldTypeGroupNameE, i32 0, i32 0) }, %"struct.std::__1::pair.14" { i64 4815584921581567107, i8* getelementptr inbounds ([0 x i8], [0 x i8]* @_ZN3ukm8builders27Autofill_TextFieldDidChange18kFormSignatureNameE, i32 0, i32 0) }, %"struct.std::__1::pair.14" { i64 -1212063223282492487, i8* getelementptr inbounds ([0 x i8], [0 x i8]* @_ZN3ukm8builders27Autofill_TextFieldDidChange18kHeuristicTypeNameE, i32 0, i32 0) }, %"struct.std::__1::pair.14" { i64 -3294837187846168315, i8* getelementptr inbounds ([0 x i8], [0 x i8]* @_ZN3ukm8builders27Autofill_TextFieldDidChange18kHtmlFieldModeNameE, i32 0, i32 0) }, %"struct.std::__1::pair.14" { i64 -5425132533489665519, i8* getelementptr inbounds ([0 x i8], [0 x i8]* @_ZN3ukm8builders27Autofill_TextFieldDidChange18kHtmlFieldTypeNameE, i32 0, i32 0) }, %"struct.std::__1::pair.14" { i64 -895468745745046849, i8* getelementptr inbounds ([0 x i8], [0 x i8]* @_ZN3ukm8builders27Autofill_TextFieldDidChange17kIsAutofilledNameE, i32 0, i32 0) }, %"struct.std::__1::pair.14" { i64 -5112455899838944351, i8* getelementptr inbounds ([0 x i8], [0 x i8]* @_ZN3ukm8builders27Autofill_TextFieldDidChange12kIsEmptyNameE, i32 0, i32 0) }, %"struct.std::__1::pair.14" { i64 822617360850595330, i8* getelementptr inbounds ([0 x i8], [0 x i8]* @_ZN3ukm8builders27Autofill_TextFieldDidChange32kMillisecondsSinceFormParsedNameE, i32 0, i32 0) }, %"struct.std::__1::pair.14" { i64 3640361506783159573, i8* getelementptr inbounds ([0 x i8], [0 x i8]* @_ZN3ukm8builders27Autofill_TextFieldDidChange15kServerTypeNameE, i32 0, i32 0) }], align 8
@_ZN3ukm8builders36AutofillAssistant_InChromeTriggering10kEntryNameE = external constant [0 x i8], align 1
@_ZN3ukm8builders36AutofillAssistant_InChromeTriggering26kInChromeTriggerActionNameE = external constant [0 x i8], align 1
@.ref.tmp.30 = private constant [1 x %"struct.std::__1::pair.14"] [%"struct.std::__1::pair.14" { i64 -3026677565635850772, i8* getelementptr inbounds ([0 x i8], [0 x i8]* @_ZN3ukm8builders36AutofillAssistant_InChromeTriggering26kInChromeTriggerActionNameE, i32 0, i32 0) }], align 8
@_ZN3ukm8builders36AutofillAssistant_LiteScriptFinished10kEntryNameE = external constant [0 x i8], align 1
@_ZN3ukm8builders36AutofillAssistant_LiteScriptFinished23kLiteScriptFinishedNameE = external constant [0 x i8], align 1
@_ZN3ukm8builders36AutofillAssistant_LiteScriptFinished18kTriggerUITypeNameE = external constant [0 x i8], align 1
@.ref.tmp.31 = private constant [2 x %"struct.std::__1::pair.14"] [%"struct.std::__1::pair.14" { i64 5125339363723155819, i8* getelementptr inbounds ([0 x i8], [0 x i8]* @_ZN3ukm8builders36AutofillAssistant_LiteScriptFinished23kLiteScriptFinishedNameE, i32 0, i32 0) }, %"struct.std::__1::pair.14" { i64 -5110747882347819192, i8* getelementptr inbounds ([0 x i8], [0 x i8]* @_ZN3ukm8builders36AutofillAssistant_LiteScriptFinished18kTriggerUITypeNameE, i32 0, i32 0) }], align 8
@_ZN3ukm8builders38AutofillAssistant_LiteScriptOnboarding10kEntryNameE = external constant [0 x i8], align 1
@_ZN3ukm8builders38AutofillAssistant_LiteScriptOnboarding25kLiteScriptOnboardingNameE = external constant [0 x i8], align 1
@_ZN3ukm8builders38AutofillAssistant_LiteScriptOnboarding18kTriggerUITypeNameE = external constant [0 x i8], align 1
@.ref.tmp.32 = private constant [2 x %"struct.std::__1::pair.14"] [%"struct.std::__1::pair.14" { i64 8244069972074137310, i8* getelementptr inbounds ([0 x i8], [0 x i8]* @_ZN3ukm8builders38AutofillAssistant_LiteScriptOnboarding25kLiteScriptOnboardingNameE, i32 0, i32 0) }, %"struct.std::__1::pair.14" { i64 -5110747882347819192, i8* getelementptr inbounds ([0 x i8], [0 x i8]* @_ZN3ukm8builders38AutofillAssistant_LiteScriptOnboarding18kTriggerUITypeNameE, i32 0, i32 0) }], align 8
@_ZN3ukm8builders39AutofillAssistant_LiteScriptShownToUser10kEntryNameE = external constant [0 x i8], align 1
@_ZN3ukm8builders39AutofillAssistant_LiteScriptShownToUser26kLiteScriptShownToUserNameE = external constant [0 x i8], align 1
@_ZN3ukm8builders39AutofillAssistant_LiteScriptShownToUser18kTriggerUITypeNameE = external constant [0 x i8], align 1
@.ref.tmp.33 = private constant [2 x %"struct.std::__1::pair.14"] [%"struct.std::__1::pair.14" { i64 6185346537454290336, i8* getelementptr inbounds ([0 x i8], [0 x i8]* @_ZN3ukm8builders39AutofillAssistant_LiteScriptShownToUser26kLiteScriptShownToUserNameE, i32 0, i32 0) }, %"struct.std::__1::pair.14" { i64 -5110747882347819192, i8* getelementptr inbounds ([0 x i8], [0 x i8]* @_ZN3ukm8builders39AutofillAssistant_LiteScriptShownToUser18kTriggerUITypeNameE, i32 0, i32 0) }], align 8
@_ZN3ukm8builders35AutofillAssistant_LiteScriptStarted10kEntryNameE = external constant [0 x i8], align 1
@_ZN3ukm8builders35AutofillAssistant_LiteScriptStarted22kLiteScriptStartedNameE = external constant [0 x i8], align 1
@_ZN3ukm8builders35AutofillAssistant_LiteScriptStarted18kTriggerUITypeNameE = external constant [0 x i8], align 1
@.ref.tmp.34 = private constant [2 x %"struct.std::__1::pair.14"] [%"struct.std::__1::pair.14" { i64 -1833443409384864909, i8* getelementptr inbounds ([0 x i8], [0 x i8]* @_ZN3ukm8builders35AutofillAssistant_LiteScriptStarted22kLiteScriptStartedNameE, i32 0, i32 0) }, %"struct.std::__1::pair.14" { i64 -5110747882347819192, i8* getelementptr inbounds ([0 x i8], [0 x i8]* @_ZN3ukm8builders35AutofillAssistant_LiteScriptStarted18kTriggerUITypeNameE, i32 0, i32 0) }], align 8
@_ZN3ukm8builders48BackForwardCacheDisabledForRenderFrameHostReason10kEntryNameE = external constant [0 x i8], align 1
@_ZN3ukm8builders48BackForwardCacheDisabledForRenderFrameHostReason12kReason2NameE = external constant [0 x i8], align 1
@.ref.tmp.35 = private constant [1 x %"struct.std::__1::pair.14"] [%"struct.std::__1::pair.14" { i64 -5157983512920430213, i8* getelementptr inbounds ([0 x i8], [0 x i8]* @_ZN3ukm8builders48BackForwardCacheDisabledForRenderFrameHostReason12kReason2NameE, i32 0, i32 0) }], align 8
@_ZN3ukm8builders15BackgroundFetch10kEntryNameE = external constant [0 x i8], align 1
@_ZN3ukm8builders15BackgroundFetch27kDeniedDueToPermissionsNameE = external constant [0 x i8], align 1
@_ZN3ukm8builders15BackgroundFetch18kDownloadTotalNameE = external constant [0 x i8], align 1
@_ZN3ukm8builders15BackgroundFetch13kHasTitleNameE = external constant [0 x i8], align 1
@_ZN3ukm8builders15BackgroundFetch13kNumIconsNameE = external constant [0 x i8], align 1
@_ZN3ukm8builders15BackgroundFetch23kNumRequestsInFetchNameE = external constant [0 x i8], align 1
@_ZN3ukm8builders15BackgroundFetch33kRatioOfIdealToChosenIconSizeNameE = external constant [0 x i8], align 1
@.ref.tmp.36 = private constant [6 x %"struct.std::__1::pair.14"] [%"struct.std::__1::pair.14" { i64 2758060228952433941, i8* getelementptr inbounds ([0 x i8], [0 x i8]* @_ZN3ukm8builders15BackgroundFetch27kDeniedDueToPermissionsNameE, i32 0, i32 0) }, %"struct.std::__1::pair.14" { i64 8410270676684853040, i8* getelementptr inbounds ([0 x i8], [0 x i8]* @_ZN3ukm8builders15BackgroundFetch18kDownloadTotalNameE, i32 0, i32 0) }, %"struct.std::__1::pair.14" { i64 -1982123144306963078, i8* getelementptr inbounds ([0 x i8], [0 x i8]* @_ZN3ukm8builders15BackgroundFetch13kHasTitleNameE, i32 0, i32 0) }, %"struct.std::__1::pair.14" { i64 -5738721077484464237, i8* getelementptr inbounds ([0 x i8], [0 x i8]* @_ZN3ukm8builders15BackgroundFetch13kNumIconsNameE, i32 0, i32 0) }, %"struct.std::__1::pair.14" { i64 -2950263466705931573, i8* getelementptr inbounds ([0 x i8], [0 x i8]* @_ZN3ukm8builders15BackgroundFetch23kNumRequestsInFetchNameE, i32 0, i32 0) }, %"struct.std::__1::pair.14" { i64 -287915096515453373, i8* getelementptr inbounds ([0 x i8], [0 x i8]* @_ZN3ukm8builders15BackgroundFetch33kRatioOfIdealToChosenIconSizeNameE, i32 0, i32 0) }], align 8
@_ZN3ukm8builders35BackgroundFetchDeletingRegistration10kEntryNameE = external constant [0 x i8], align 1
@_ZN3ukm8builders35BackgroundFetchDeletingRegistration23kUserInitiatedAbortNameE = external constant [0 x i8], align 1
@.ref.tmp.37 = private constant [1 x %"struct.std::__1::pair.14"] [%"struct.std::__1::pair.14" { i64 2365076081250918859, i8* getelementptr inbounds ([0 x i8], [0 x i8]* @_ZN3ukm8builders35BackgroundFetchDeletingRegistration23kUserInitiatedAbortNameE, i32 0, i32 0) }], align 8
@_ZN3ukm8builders23BackgroundSyncCompleted10kEntryNameE = external constant [0 x i8], align 1
@_ZN3ukm8builders23BackgroundSyncCompleted16kMaxAttemptsNameE = external constant [0 x i8], align 1
@_ZN3ukm8builders23BackgroundSyncCompleted16kNumAttemptsNameE = external constant [0 x i8], align 1
@_ZN3ukm8builders23BackgroundSyncCompleted11kStatusNameE = external constant [0 x i8], align 1
@.ref.tmp.38 = private constant [3 x %"struct.std::__1::pair.14"] [%"struct.std::__1::pair.14" { i64 -4635527887683331270, i8* getelementptr inbounds ([0 x i8], [0 x i8]* @_ZN3ukm8builders23BackgroundSyncCompleted16kMaxAttemptsNameE, i32 0, i32 0) }, %"struct.std::__1::pair.14" { i64 537979731801272247, i8* getelementptr inbounds ([0 x i8], [0 x i8]* @_ZN3ukm8builders23BackgroundSyncCompleted16kNumAttemptsNameE, i32 0, i32 0) }, %"struct.std::__1::pair.14" { i64 -1417603893889880363, i8* getelementptr inbounds ([0 x i8], [0 x i8]* @_ZN3ukm8builders23BackgroundSyncCompleted11kStatusNameE, i32 0, i32 0) }], align 8
@_ZN3ukm8builders24BackgroundSyncRegistered10kEntryNameE = external constant [0 x i8], align 1
@_ZN3ukm8builders24BackgroundSyncRegistered12kCanFireNameE = external constant [0 x i8], align 1
@_ZN3ukm8builders24BackgroundSyncRegistered19kIsReregisteredNameE = external constant [0 x i8], align 1
@.ref.tmp.39 = private constant [2 x %"struct.std::__1::pair.14"] [%"struct.std::__1::pair.14" { i64 -3988073082902377085, i8* getelementptr inbounds ([0 x i8], [0 x i8]* @_ZN3ukm8builders24BackgroundSyncRegistered12kCanFireNameE, i32 0, i32 0) }, %"struct.std::__1::pair.14" { i64 -8364002383767731155, i8* getelementptr inbounds ([0 x i8], [0 x i8]* @_ZN3ukm8builders24BackgroundSyncRegistered19kIsReregisteredNameE, i32 0, i32 0) }], align 8
@_ZN3ukm8builders7Badging10kEntryNameE = external constant [0 x i8], align 1
@_ZN3ukm8builders7Badging19kUpdateAppBadgeNameE = external constant [0 x i8], align 1
@.ref.tmp.40 = private constant [1 x %"struct.std::__1::pair.14"] [%"struct.std::__1::pair.14" { i64 5657178876164813495, i8* getelementptr inbounds ([0 x i8], [0 x i8]* @_ZN3ukm8builders7Badging19kUpdateAppBadgeNameE, i32 0, i32 0) }], align 8
@_ZN3ukm8builders32Blink_ContextMenu_ImageSelection10kEntryNameE = external constant [0 x i8], align 1
@_ZN3ukm8builders32Blink_ContextMenu_ImageSelection12kOutcomeNameE = external constant [0 x i8], align 1
@.ref.tmp.41 = private constant [1 x %"struct.std::__1::pair.14"] [%"struct.std::__1::pair.14" { i64 -3498244298818792109, i8* getelementptr inbounds ([0 x i8], [0 x i8]* @_ZN3ukm8builders32Blink_ContextMenu_ImageSelection12kOutcomeNameE, i32 0, i32 0) }], align 8
@_ZN3ukm8builders16Blink_FindInPage10kEntryNameE = external constant [0 x i8], align 1
@_ZN3ukm8builders16Blink_FindInPage39kBeforematchExpandedHiddenMatchableNameE = external constant [0 x i8], align 1
@_ZN3ukm8builders16Blink_FindInPage30kDidHaveRenderSubtreeMatchNameE = external constant [0 x i8], align 1
@_ZN3ukm8builders16Blink_FindInPage14kDidSearchNameE = external constant [0 x i8], align 1
@.ref.tmp.42 = private constant [3 x %"struct.std::__1::pair.14"] [%"struct.std::__1::pair.14" { i64 1418541422054982411, i8* getelementptr inbounds ([0 x i8], [0 x i8]* @_ZN3ukm8builders16Blink_FindInPage39kBeforematchExpandedHiddenMatchableNameE, i32 0, i32 0) }, %"struct.std::__1::pair.14" { i64 -8009412389058375401, i8* getelementptr inbounds ([0 x i8], [0 x i8]* @_ZN3ukm8builders16Blink_FindInPage30kDidHaveRenderSubtreeMatchNameE, i32 0, i32 0) }, %"struct.std::__1::pair.14" { i64 -7209726115681482882, i8* getelementptr inbounds ([0 x i8], [0 x i8]* @_ZN3ukm8builders16Blink_FindInPage14kDidSearchNameE, i32 0, i32 0) }], align 8
@_ZN3ukm8builders17Blink_HTMLParsing10kEntryNameE = external constant [0 x i8], align 1
@_ZN3ukm8builders17Blink_HTMLParsing15kChunkCountNameE = external constant [0 x i8], align 1
@_ZN3ukm8builders17Blink_HTMLParsing19kParsingTimeMaxNameE = external constant [0 x i8], align 1
@_ZN3ukm8builders17Blink_HTMLParsing19kParsingTimeMinNameE = external constant [0 x i8], align 1
@_ZN3ukm8builders17Blink_HTMLParsing21kParsingTimeTotalNameE = external constant [0 x i8], align 1
@_ZN3ukm8builders17Blink_HTMLParsing24kTokensParsedAverageNameE = external constant [0 x i8], align 1
@_ZN3ukm8builders17Blink_HTMLParsing20kTokensParsedMaxNameE = external constant [0 x i8], align 1
@_ZN3ukm8builders17Blink_HTMLParsing20kTokensParsedMinNameE = external constant [0 x i8], align 1
@_ZN3ukm8builders17Blink_HTMLParsing23kYieldedTimeAverageNameE = external constant [0 x i8], align 1
@_ZN3ukm8builders17Blink_HTMLParsing19kYieldedTimeMaxNameE = external constant [0 x i8], align 1
@_ZN3ukm8builders17Blink_HTMLParsing19kYieldedTimeMinNameE = external constant [0 x i8], align 1
@.ref.tmp.43 = private constant [10 x %"struct.std::__1::pair.14"] [%"struct.std::__1::pair.14" { i64 -6328859393574995692, i8* getelementptr inbounds ([0 x i8], [0 x i8]* @_ZN3ukm8builders17Blink_HTMLParsing15kChunkCountNameE, i32 0, i32 0) }, %"struct.std::__1::pair.14" { i64 -1346132034963650721, i8* getelementptr inbounds ([0 x i8], [0 x i8]* @_ZN3ukm8builders17Blink_HTMLParsing19kParsingTimeMaxNameE, i32 0, i32 0) }, %"struct.std::__1::pair.14" { i64 1069166688745848743, i8* getelementptr inbounds ([0 x i8], [0 x i8]* @_ZN3ukm8builders17Blink_HTMLParsing19kParsingTimeMinNameE, i32 0, i32 0) }, %"struct.std::__1::pair.14" { i64 4428025718068016638, i8* getelementptr inbounds ([0 x i8], [0 x i8]* @_ZN3ukm8builders17Blink_HTMLParsing21kParsingTimeTotalNameE, i32 0, i32 0) }, %"struct.std::__1::pair.14" { i64 -8454805316254348530, i8* getelementptr inbounds ([0 x i8], [0 x i8]* @_ZN3ukm8builders17Blink_HTMLParsing24kTokensParsedAverageNameE, i32 0, i32 0) }, %"struct.std::__1::pair.14" { i64 5038652062281821354, i8* getelementptr inbounds ([0 x i8], [0 x i8]* @_ZN3ukm8builders17Blink_HTMLParsing20kTokensParsedMaxNameE, i32 0, i32 0) }, %"struct.std::__1::pair.14" { i64 -654088878949290911, i8* getelementptr inbounds ([0 x i8], [0 x i8]* @_ZN3ukm8builders17Blink_HTMLParsing20kTokensParsedMinNameE, i32 0, i32 0) }, %"struct.std::__1::pair.14" { i64 -4721981949930474280, i8* getelementptr inbounds ([0 x i8], [0 x i8]* @_ZN3ukm8builders17Blink_HTMLParsing23kYieldedTimeAverageNameE, i32 0, i32 0) }, %"struct.std::__1::pair.14" { i64 -8438998139684335265, i8* getelementptr inbounds ([0 x i8], [0 x i8]* @_ZN3ukm8builders17Blink_HTMLParsing19kYieldedTimeMaxNameE, i32 0, i32 0) }, %"struct.std::__1::pair.14" { i64 -3891911633019200843, i8* getelementptr inbounds ([0 x i8], [0 x i8]* @_ZN3ukm8builders17Blink_HTMLParsing19kYieldedTimeMinNameE, i32 0, i32 0) }], align 8
@_ZN3ukm8builders14Blink_PageLoad10kEntryNameE = external constant [0 x i8], align 1
@_ZN3ukm8builders14Blink_PageLoad45kAnchorElementMetricsIntersectionObserverNameE = external constant [0 x i8], align 1
@_ZN3ukm8builders14Blink_PageLoad12kAnimateNameE = external constant [0 x i8], align 1
@_ZN3ukm8builders14Blink_PageLoad27kCompositingAssignmentsNameE = external constant [0 x i8], align 1
@_ZN3ukm8builders14Blink_PageLoad22kCompositingCommitNameE = external constant [0 x i8], align 1
@_ZN3ukm8builders14Blink_PageLoad22kCompositingInputsNameE = external constant [0 x i8], align 1
@_ZN3ukm8builders14Blink_PageLoad26kContentDocumentUpdateNameE = external constant [0 x i8], align 1
@_ZN3ukm8builders14Blink_PageLoad36kDisplayLockIntersectionObserverNameE = external constant [0 x i8], align 1
@_ZN3ukm8builders14Blink_PageLoad25kForcedStyleAndLayoutNameE = external constant [0 x i8], align 1
@_ZN3ukm8builders14Blink_PageLoad22kHandleInputEventsNameE = external constant [0 x i8], align 1
@_ZN3ukm8builders14Blink_PageLoad26kHitTestDocumentUpdateNameE = external constant [0 x i8], align 1
@_ZN3ukm8builders14Blink_PageLoad25kImplCompositorCommitNameE = external constant [0 x i8], align 1
@_ZN3ukm8builders14Blink_PageLoad28kIntersectionObservationNameE = external constant [0 x i8], align 1
@_ZN3ukm8builders14Blink_PageLoad29kJavascriptDocumentUpdateNameE = external constant [0 x i8], align 1
@_ZN3ukm8builders14Blink_PageLoad35kJavascriptIntersectionObserverNameE = external constant [0 x i8], align 1
@_ZN3ukm8builders14Blink_PageLoad11kLayoutNameE = external constant [0 x i8], align 1
@_ZN3ukm8builders14Blink_PageLoad33kLazyLoadIntersectionObserverNameE = external constant [0 x i8], align 1
@_ZN3ukm8builders14Blink_PageLoad14kMainFrameNameE = external constant [0 x i8], align 1
@_ZN3ukm8builders14Blink_PageLoad30kMediaIntersectionObserverNameE = external constant [0 x i8], align 1
@_ZN3ukm8builders14Blink_PageLoad10kPaintNameE = external constant [0 x i8], align 1
@_ZN3ukm8builders14Blink_PageLoad13kPrePaintNameE = external constant [0 x i8], align 1
@_ZN3ukm8builders14Blink_PageLoad25kScrollDocumentUpdateNameE = external constant [0 x i8], align 1
@_ZN3ukm8builders14Blink_PageLoad26kServiceDocumentUpdateNameE = external constant [0 x i8], align 1
@_ZN3ukm8builders14Blink_PageLoad10kStyleNameE = external constant [0 x i8], align 1
@_ZN3ukm8builders14Blink_PageLoad17kUpdateLayersNameE = external constant [0 x i8], align 1
@_ZN3ukm8builders14Blink_PageLoad31kUpdateViewportIntersectionNameE = external constant [0 x i8], align 1
@_ZN3ukm8builders14Blink_PageLoad29kUserDrivenDocumentUpdateNameE = external constant [0 x i8], align 1
@_ZN3ukm8builders14Blink_PageLoad18kWaitForCommitNameE = external constant [0 x i8], align 1
@.ref.tmp.44 = private constant [27 x %"struct.std::__1::pair.14"] [%"struct.std::__1::pair.14" { i64 -3449542141590793717, i8* getelementptr inbounds ([0 x i8], [0 x i8]* @_ZN3ukm8builders14Blink_PageLoad45kAnchorElementMetricsIntersectionObserverNameE, i32 0, i32 0) }, %"struct.std::__1::pair.14" { i64 404752839576342973, i8* getelementptr inbounds ([0 x i8], [0 x i8]* @_ZN3ukm8builders14Blink_PageLoad12kAnimateNameE, i32 0, i32 0) }, %"struct.std::__1::pair.14" { i64 4336516153886956676, i8* getelementptr inbounds ([0 x i8], [0 x i8]* @_ZN3ukm8builders14Blink_PageLoad27kCompositingAssignmentsNameE, i32 0, i32 0) }, %"struct.std::__1::pair.14" { i64 -2637422537294046306, i8* getelementptr inbounds ([0 x i8], [0 x i8]* @_ZN3ukm8builders14Blink_PageLoad22kCompositingCommitNameE, i32 0, i32 0) }, %"struct.std::__1::pair.14" { i64 3671162331545334715, i8* getelementptr inbounds ([0 x i8], [0 x i8]* @_ZN3ukm8builders14Blink_PageLoad22kCompositingInputsNameE, i32 0, i32 0) }, %"struct.std::__1::pair.14" { i64 1358745339642406099, i8* getelementptr inbounds ([0 x i8], [0 x i8]* @_ZN3ukm8builders14Blink_PageLoad26kContentDocumentUpdateNameE, i32 0, i32 0) }, %"struct.std::__1::pair.14" { i64 7178067269321593883, i8* getelementptr inbounds ([0 x i8], [0 x i8]* @_ZN3ukm8builders14Blink_PageLoad36kDisplayLockIntersectionObserverNameE, i32 0, i32 0) }, %"struct.std::__1::pair.14" { i64 -2837657676760641656, i8* getelementptr inbounds ([0 x i8], [0 x i8]* @_ZN3ukm8builders14Blink_PageLoad25kForcedStyleAndLayoutNameE, i32 0, i32 0) }, %"struct.std::__1::pair.14" { i64 8113352720551083585, i8* getelementptr inbounds ([0 x i8], [0 x i8]* @_ZN3ukm8builders14Blink_PageLoad22kHandleInputEventsNameE, i32 0, i32 0) }, %"struct.std::__1::pair.14" { i64 -6721823658344430140, i8* getelementptr inbounds ([0 x i8], [0 x i8]* @_ZN3ukm8builders14Blink_PageLoad26kHitTestDocumentUpdateNameE, i32 0, i32 0) }, %"struct.std::__1::pair.14" { i64 -4812629273954922671, i8* getelementptr inbounds ([0 x i8], [0 x i8]* @_ZN3ukm8builders14Blink_PageLoad25kImplCompositorCommitNameE, i32 0, i32 0) }, %"struct.std::__1::pair.14" { i64 -2988125252690528239, i8* getelementptr inbounds ([0 x i8], [0 x i8]* @_ZN3ukm8builders14Blink_PageLoad28kIntersectionObservationNameE, i32 0, i32 0) }, %"struct.std::__1::pair.14" { i64 838763158452309866, i8* getelementptr inbounds ([0 x i8], [0 x i8]* @_ZN3ukm8builders14Blink_PageLoad29kJavascriptDocumentUpdateNameE, i32 0, i32 0) }, %"struct.std::__1::pair.14" { i64 -404456509678958634, i8* getelementptr inbounds ([0 x i8], [0 x i8]* @_ZN3ukm8builders14Blink_PageLoad35kJavascriptIntersectionObserverNameE, i32 0, i32 0) }, %"struct.std::__1::pair.14" { i64 -1451919652219601800, i8* getelementptr inbounds ([0 x i8], [0 x i8]* @_ZN3ukm8builders14Blink_PageLoad11kLayoutNameE, i32 0, i32 0) }, %"struct.std::__1::pair.14" { i64 -5342342879581530517, i8* getelementptr inbounds ([0 x i8], [0 x i8]* @_ZN3ukm8builders14Blink_PageLoad33kLazyLoadIntersectionObserverNameE, i32 0, i32 0) }, %"struct.std::__1::pair.14" { i64 4089985743552002450, i8* getelementptr inbounds ([0 x i8], [0 x i8]* @_ZN3ukm8builders14Blink_PageLoad14kMainFrameNameE, i32 0, i32 0) }, %"struct.std::__1::pair.14" { i64 7929379986308471900, i8* getelementptr inbounds ([0 x i8], [0 x i8]* @_ZN3ukm8builders14Blink_PageLoad30kMediaIntersectionObserverNameE, i32 0, i32 0) }, %"struct.std::__1::pair.14" { i64 5188891880448173739, i8* getelementptr inbounds ([0 x i8], [0 x i8]* @_ZN3ukm8builders14Blink_PageLoad10kPaintNameE, i32 0, i32 0) }, %"struct.std::__1::pair.14" { i64 4880392982914161630, i8* getelementptr inbounds ([0 x i8], [0 x i8]* @_ZN3ukm8builders14Blink_PageLoad13kPrePaintNameE, i32 0, i32 0) }, %"struct.std::__1::pair.14" { i64 -6932196484163248257, i8* getelementptr inbounds ([0 x i8], [0 x i8]* @_ZN3ukm8builders14Blink_PageLoad25kScrollDocumentUpdateNameE, i32 0, i32 0) }, %"struct.std::__1::pair.14" { i64 -5017981116923336520, i8* getelementptr inbounds ([0 x i8], [0 x i8]* @_ZN3ukm8builders14Blink_PageLoad26kServiceDocumentUpdateNameE, i32 0, i32 0) }, %"struct.std::__1::pair.14" { i64 -5897376231885803999, i8* getelementptr inbounds ([0 x i8], [0 x i8]* @_ZN3ukm8builders14Blink_PageLoad10kStyleNameE, i32 0, i32 0) }, %"struct.std::__1::pair.14" { i64 1916294310099025691, i8* getelementptr inbounds ([0 x i8], [0 x i8]* @_ZN3ukm8builders14Blink_PageLoad17kUpdateLayersNameE, i32 0, i32 0) }, %"struct.std::__1::pair.14" { i64 1757331034736396629, i8* getelementptr inbounds ([0 x i8], [0 x i8]* @_ZN3ukm8builders14Blink_PageLoad31kUpdateViewportIntersectionNameE, i32 0, i32 0) }, %"struct.std::__1::pair.14" { i64 -3100032599974303869, i8* getelementptr inbounds ([0 x i8], [0 x i8]* @_ZN3ukm8builders14Blink_PageLoad29kUserDrivenDocumentUpdateNameE, i32 0, i32 0) }, %"struct.std::__1::pair.14" { i64 -2253359029411034642, i8* getelementptr inbounds ([0 x i8], [0 x i8]* @_ZN3ukm8builders14Blink_PageLoad18kWaitForCommitNameE, i32 0, i32 0) }], align 8
@_ZN3ukm8builders17Blink_PaintTiming10kEntryNameE = external constant [0 x i8], align 1
@_ZN3ukm8builders17Blink_PaintTiming34kLCPDebugging_HasViewportImageNameE = external constant [0 x i8], align 1
@.ref.tmp.45 = private constant [1 x %"struct.std::__1::pair.14"] [%"struct.std::__1::pair.14" { i64 -1645804223139933546, i8* getelementptr inbounds ([0 x i8], [0 x i8]* @_ZN3ukm8builders17Blink_PaintTiming34kLCPDebugging_HasViewportImageNameE, i32 0, i32 0) }], align 8
@_ZN3ukm8builders25Blink_Script_AsyncScripts10kEntryNameE = external constant [0 x i8], align 1
@_ZN3ukm8builders25Blink_Script_AsyncScripts21kAsyncScriptCountNameE = external constant [0 x i8], align 1
@.ref.tmp.46 = private constant [1 x %"struct.std::__1::pair.14"] [%"struct.std::__1::pair.14" { i64 4930820782463131368, i8* getelementptr inbounds ([0 x i8], [0 x i8]* @_ZN3ukm8builders25Blink_Script_AsyncScripts21kAsyncScriptCountNameE, i32 0, i32 0) }], align 8
@_ZN3ukm8builders16Blink_UpdateTime10kEntryNameE = external constant [0 x i8], align 1
@_ZN3ukm8builders16Blink_UpdateTime45kAnchorElementMetricsIntersectionObserverNameE = external constant [0 x i8], align 1
@_ZN3ukm8builders16Blink_UpdateTime59kAnchorElementMetricsIntersectionObserverBeginMainFrameNameE = external constant [0 x i8], align 1
@_ZN3ukm8builders16Blink_UpdateTime12kAnimateNameE = external constant [0 x i8], align 1
@_ZN3ukm8builders16Blink_UpdateTime26kAnimateBeginMainFrameNameE = external constant [0 x i8], align 1
@_ZN3ukm8builders16Blink_UpdateTime27kCompositingAssignmentsNameE = external constant [0 x i8], align 1
@_ZN3ukm8builders16Blink_UpdateTime41kCompositingAssignmentsBeginMainFrameNameE = external constant [0 x i8], align 1
@_ZN3ukm8builders16Blink_UpdateTime22kCompositingCommitNameE = external constant [0 x i8], align 1
@_ZN3ukm8builders16Blink_UpdateTime36kCompositingCommitBeginMainFrameNameE = external constant [0 x i8], align 1
@_ZN3ukm8builders16Blink_UpdateTime22kCompositingInputsNameE = external constant [0 x i8], align 1
@_ZN3ukm8builders16Blink_UpdateTime36kCompositingInputsBeginMainFrameNameE = external constant [0 x i8], align 1
@_ZN3ukm8builders16Blink_UpdateTime26kContentDocumentUpdateNameE = external constant [0 x i8], align 1
@_ZN3ukm8builders16Blink_UpdateTime40kContentDocumentUpdateBeginMainFrameNameE = external constant [0 x i8], align 1
@_ZN3ukm8builders16Blink_UpdateTime36kDisplayLockIntersectionObserverNameE = external constant [0 x i8], align 1
@_ZN3ukm8builders16Blink_UpdateTime50kDisplayLockIntersectionObserverBeginMainFrameNameE = external constant [0 x i8], align 1
@_ZN3ukm8builders16Blink_UpdateTime25kForcedStyleAndLayoutNameE = external constant [0 x i8], align 1
@_ZN3ukm8builders16Blink_UpdateTime39kForcedStyleAndLayoutBeginMainFrameNameE = external constant [0 x i8], align 1
@_ZN3ukm8builders16Blink_UpdateTime22kHandleInputEventsNameE = external constant [0 x i8], align 1
@_ZN3ukm8builders16Blink_UpdateTime36kHandleInputEventsBeginMainFrameNameE = external constant [0 x i8], align 1
@_ZN3ukm8builders16Blink_UpdateTime26kHitTestDocumentUpdateNameE = external constant [0 x i8], align 1
@_ZN3ukm8builders16Blink_UpdateTime40kHitTestDocumentUpdateBeginMainFrameNameE = external constant [0 x i8], align 1
@_ZN3ukm8builders16Blink_UpdateTime25kImplCompositorCommitNameE = external constant [0 x i8], align 1
@_ZN3ukm8builders16Blink_UpdateTime39kImplCompositorCommitBeginMainFrameNameE = external constant [0 x i8], align 1
@_ZN3ukm8builders16Blink_UpdateTime28kIntersectionObservationNameE = external constant [0 x i8], align 1
@_ZN3ukm8builders16Blink_UpdateTime42kIntersectionObservationBeginMainFrameNameE = external constant [0 x i8], align 1
@_ZN3ukm8builders16Blink_UpdateTime29kJavascriptDocumentUpdateNameE = external constant [0 x i8], align 1
@_ZN3ukm8builders16Blink_UpdateTime43kJavascriptDocumentUpdateBeginMainFrameNameE = external constant [0 x i8], align 1
@_ZN3ukm8builders16Blink_UpdateTime35kJavascriptIntersectionObserverNameE = external constant [0 x i8], align 1
@_ZN3ukm8builders16Blink_UpdateTime49kJavascriptIntersectionObserverBeginMainFrameNameE = external constant [0 x i8], align 1
@_ZN3ukm8builders16Blink_UpdateTime11kLayoutNameE = external constant [0 x i8], align 1
@_ZN3ukm8builders16Blink_UpdateTime25kLayoutBeginMainFrameNameE = external constant [0 x i8], align 1
@_ZN3ukm8builders16Blink_UpdateTime33kLazyLoadIntersectionObserverNameE = external constant [0 x i8], align 1
@_ZN3ukm8builders16Blink_UpdateTime47kLazyLoadIntersectionObserverBeginMainFrameNameE = external constant [0 x i8], align 1
@_ZN3ukm8builders16Blink_UpdateTime14kMainFrameNameE = external constant [0 x i8], align 1
@_ZN3ukm8builders16Blink_UpdateTime25kMainFrameIsBeforeFCPNameE = external constant [0 x i8], align 1
@_ZN3ukm8builders16Blink_UpdateTime21kMainFrameReasonsNameE = external constant [0 x i8], align 1
@_ZN3ukm8builders16Blink_UpdateTime30kMediaIntersectionObserverNameE = external constant [0 x i8], align 1
@_ZN3ukm8builders16Blink_UpdateTime44kMediaIntersectionObserverBeginMainFrameNameE = external constant [0 x i8], align 1
@_ZN3ukm8builders16Blink_UpdateTime10kPaintNameE = external constant [0 x i8], align 1
@_ZN3ukm8builders16Blink_UpdateTime24kPaintBeginMainFrameNameE = external constant [0 x i8], align 1
@_ZN3ukm8builders16Blink_UpdateTime13kPrePaintNameE = external constant [0 x i8], align 1
@_ZN3ukm8builders16Blink_UpdateTime27kPrePaintBeginMainFrameNameE = external constant [0 x i8], align 1
@_ZN3ukm8builders16Blink_UpdateTime25kScrollDocumentUpdateNameE = external constant [0 x i8], align 1
@_ZN3ukm8builders16Blink_UpdateTime39kScrollDocumentUpdateBeginMainFrameNameE = external constant [0 x i8], align 1
@_ZN3ukm8builders16Blink_UpdateTime26kServiceDocumentUpdateNameE = external constant [0 x i8], align 1
@_ZN3ukm8builders16Blink_UpdateTime40kServiceDocumentUpdateBeginMainFrameNameE = external constant [0 x i8], align 1
@_ZN3ukm8builders16Blink_UpdateTime10kStyleNameE = external constant [0 x i8], align 1
@_ZN3ukm8builders16Blink_UpdateTime24kStyleBeginMainFrameNameE = external constant [0 x i8], align 1
@_ZN3ukm8builders16Blink_UpdateTime20kStylePercentageNameE = external constant [0 x i8], align 1
@_ZN3ukm8builders16Blink_UpdateTime17kUpdateLayersNameE = external constant [0 x i8], align 1
@_ZN3ukm8builders16Blink_UpdateTime31kUpdateLayersBeginMainFrameNameE = external constant [0 x i8], align 1
@_ZN3ukm8builders16Blink_UpdateTime31kUpdateViewportIntersectionNameE = external constant [0 x i8], align 1
@_ZN3ukm8builders16Blink_UpdateTime45kUpdateViewportIntersectionBeginMainFrameNameE = external constant [0 x i8], align 1
@_ZN3ukm8builders16Blink_UpdateTime29kUserDrivenDocumentUpdateNameE = external constant [0 x i8], align 1
@_ZN3ukm8builders16Blink_UpdateTime43kUserDrivenDocumentUpdateBeginMainFrameNameE = external constant [0 x i8], align 1
@_ZN3ukm8builders16Blink_UpdateTime18kWaitForCommitNameE = external constant [0 x i8], align 1
@_ZN3ukm8builders16Blink_UpdateTime32kWaitForCommitBeginMainFrameNameE = external constant [0 x i8], align 1
@.ref.tmp.47 = private constant [56 x %"struct.std::__1::pair.14"] [%"struct.std::__1::pair.14" { i64 -3449542141590793717, i8* getelementptr inbounds ([0 x i8], [0 x i8]* @_ZN3ukm8builders16Blink_UpdateTime45kAnchorElementMetricsIntersectionObserverNameE, i32 0, i32 0) }, %"struct.std::__1::pair.14" { i64 9195304428041768096, i8* getelementptr inbounds ([0 x i8], [0 x i8]* @_ZN3ukm8builders16Blink_UpdateTime59kAnchorElementMetricsIntersectionObserverBeginMainFrameNameE, i32 0, i32 0) }, %"struct.std::__1::pair.14" { i64 404752839576342973, i8* getelementptr inbounds ([0 x i8], [0 x i8]* @_ZN3ukm8builders16Blink_UpdateTime12kAnimateNameE, i32 0, i32 0) }, %"struct.std::__1::pair.14" { i64 -8824725523007774605, i8* getelementptr inbounds ([0 x i8], [0 x i8]* @_ZN3ukm8builders16Blink_UpdateTime26kAnimateBeginMainFrameNameE, i32 0, i32 0) }, %"struct.std::__1::pair.14" { i64 4336516153886956676, i8* getelementptr inbounds ([0 x i8], [0 x i8]* @_ZN3ukm8builders16Blink_UpdateTime27kCompositingAssignmentsNameE, i32 0, i32 0) }, %"struct.std::__1::pair.14" { i64 3938857959570288443, i8* getelementptr inbounds ([0 x i8], [0 x i8]* @_ZN3ukm8builders16Blink_UpdateTime41kCompositingAssignmentsBeginMainFrameNameE, i32 0, i32 0) }, %"struct.std::__1::pair.14" { i64 -2637422537294046306, i8* getelementptr inbounds ([0 x i8], [0 x i8]* @_ZN3ukm8builders16Blink_UpdateTime22kCompositingCommitNameE, i32 0, i32 0) }, %"struct.std::__1::pair.14" { i64 8598538897615787952, i8* getelementptr inbounds ([0 x i8], [0 x i8]* @_ZN3ukm8builders16Blink_UpdateTime36kCompositingCommitBeginMainFrameNameE, i32 0, i32 0) }, %"struct.std::__1::pair.14" { i64 3671162331545334715, i8* getelementptr inbounds ([0 x i8], [0 x i8]* @_ZN3ukm8builders16Blink_UpdateTime22kCompositingInputsNameE, i32 0, i32 0) }, %"struct.std::__1::pair.14" { i64 1004024316266743286, i8* getelementptr inbounds ([0 x i8], [0 x i8]* @_ZN3ukm8builders16Blink_UpdateTime36kCompositingInputsBeginMainFrameNameE, i32 0, i32 0) }, %"struct.std::__1::pair.14" { i64 1358745339642406099, i8* getelementptr inbounds ([0 x i8], [0 x i8]* @_ZN3ukm8builders16Blink_UpdateTime26kContentDocumentUpdateNameE, i32 0, i32 0) }, %"struct.std::__1::pair.14" { i64 7410495369725843276, i8* getelementptr inbounds ([0 x i8], [0 x i8]* @_ZN3ukm8builders16Blink_UpdateTime40kContentDocumentUpdateBeginMainFrameNameE, i32 0, i32 0) }, %"struct.std::__1::pair.14" { i64 7178067269321593883, i8* getelementptr inbounds ([0 x i8], [0 x i8]* @_ZN3ukm8builders16Blink_UpdateTime36kDisplayLockIntersectionObserverNameE, i32 0, i32 0) }, %"struct.std::__1::pair.14" { i64 -2612359143984870591, i8* getelementptr inbounds ([0 x i8], [0 x i8]* @_ZN3ukm8builders16Blink_UpdateTime50kDisplayLockIntersectionObserverBeginMainFrameNameE, i32 0, i32 0) }, %"struct.std::__1::pair.14" { i64 -2837657676760641656, i8* getelementptr inbounds ([0 x i8], [0 x i8]* @_ZN3ukm8builders16Blink_UpdateTime25kForcedStyleAndLayoutNameE, i32 0, i32 0) }, %"struct.std::__1::pair.14" { i64 -2118770796036561989, i8* getelementptr inbounds ([0 x i8], [0 x i8]* @_ZN3ukm8builders16Blink_UpdateTime39kForcedStyleAndLayoutBeginMainFrameNameE, i32 0, i32 0) }, %"struct.std::__1::pair.14" { i64 8113352720551083585, i8* getelementptr inbounds ([0 x i8], [0 x i8]* @_ZN3ukm8builders16Blink_UpdateTime22kHandleInputEventsNameE, i32 0, i32 0) }, %"struct.std::__1::pair.14" { i64 -5152551140424006310, i8* getelementptr inbounds ([0 x i8], [0 x i8]* @_ZN3ukm8builders16Blink_UpdateTime36kHandleInputEventsBeginMainFrameNameE, i32 0, i32 0) }, %"struct.std::__1::pair.14" { i64 -6721823658344430140, i8* getelementptr inbounds ([0 x i8], [0 x i8]* @_ZN3ukm8builders16Blink_UpdateTime26kHitTestDocumentUpdateNameE, i32 0, i32 0) }, %"struct.std::__1::pair.14" { i64 1812023415449158670, i8* getelementptr inbounds ([0 x i8], [0 x i8]* @_ZN3ukm8builders16Blink_UpdateTime40kHitTestDocumentUpdateBeginMainFrameNameE, i32 0, i32 0) }, %"struct.std::__1::pair.14" { i64 -4812629273954922671, i8* getelementptr inbounds ([0 x i8], [0 x i8]* @_ZN3ukm8builders16Blink_UpdateTime25kImplCompositorCommitNameE, i32 0, i32 0) }, %"struct.std::__1::pair.14" { i64 4032810828473550911, i8* getelementptr inbounds ([0 x i8], [0 x i8]* @_ZN3ukm8builders16Blink_UpdateTime39kImplCompositorCommitBeginMainFrameNameE, i32 0, i32 0) }, %"struct.std::__1::pair.14" { i64 -2988125252690528239, i8* getelementptr inbounds ([0 x i8], [0 x i8]* @_ZN3ukm8builders16Blink_UpdateTime28kIntersectionObservationNameE, i32 0, i32 0) }, %"struct.std::__1::pair.14" { i64 -1612247079381577780, i8* getelementptr inbounds ([0 x i8], [0 x i8]* @_ZN3ukm8builders16Blink_UpdateTime42kIntersectionObservationBeginMainFrameNameE, i32 0, i32 0) }, %"struct.std::__1::pair.14" { i64 838763158452309866, i8* getelementptr inbounds ([0 x i8], [0 x i8]* @_ZN3ukm8builders16Blink_UpdateTime29kJavascriptDocumentUpdateNameE, i32 0, i32 0) }, %"struct.std::__1::pair.14" { i64 7022936487950091361, i8* getelementptr inbounds ([0 x i8], [0 x i8]* @_ZN3ukm8builders16Blink_UpdateTime43kJavascriptDocumentUpdateBeginMainFrameNameE, i32 0, i32 0) }, %"struct.std::__1::pair.14" { i64 -404456509678958634, i8* getelementptr inbounds ([0 x i8], [0 x i8]* @_ZN3ukm8builders16Blink_UpdateTime35kJavascriptIntersectionObserverNameE, i32 0, i32 0) }, %"struct.std::__1::pair.14" { i64 -782904119597086557, i8* getelementptr inbounds ([0 x i8], [0 x i8]* @_ZN3ukm8builders16Blink_UpdateTime49kJavascriptIntersectionObserverBeginMainFrameNameE, i32 0, i32 0) }, %"struct.std::__1::pair.14" { i64 -1451919652219601800, i8* getelementptr inbounds ([0 x i8], [0 x i8]* @_ZN3ukm8builders16Blink_UpdateTime11kLayoutNameE, i32 0, i32 0) }, %"struct.std::__1::pair.14" { i64 -6994059488987669248, i8* getelementptr inbounds ([0 x i8], [0 x i8]* @_ZN3ukm8builders16Blink_UpdateTime25kLayoutBeginMainFrameNameE, i32 0, i32 0) }, %"struct.std::__1::pair.14" { i64 -5342342879581530517, i8* getelementptr inbounds ([0 x i8], [0 x i8]* @_ZN3ukm8builders16Blink_UpdateTime33kLazyLoadIntersectionObserverNameE, i32 0, i32 0) }, %"struct.std::__1::pair.14" { i64 5364811165188730962, i8* getelementptr inbounds ([0 x i8], [0 x i8]* @_ZN3ukm8builders16Blink_UpdateTime47kLazyLoadIntersectionObserverBeginMainFrameNameE, i32 0, i32 0) }, %"struct.std::__1::pair.14" { i64 4089985743552002450, i8* getelementptr inbounds ([0 x i8], [0 x i8]* @_ZN3ukm8builders16Blink_UpdateTime14kMainFrameNameE, i32 0, i32 0) }, %"struct.std::__1::pair.14" { i64 -8560974673426719844, i8* getelementptr inbounds ([0 x i8], [0 x i8]* @_ZN3ukm8builders16Blink_UpdateTime25kMainFrameIsBeforeFCPNameE, i32 0, i32 0) }, %"struct.std::__1::pair.14" { i64 8828908854731562228, i8* getelementptr inbounds ([0 x i8], [0 x i8]* @_ZN3ukm8builders16Blink_UpdateTime21kMainFrameReasonsNameE, i32 0, i32 0) }, %"struct.std::__1::pair.14" { i64 7929379986308471900, i8* getelementptr inbounds ([0 x i8], [0 x i8]* @_ZN3ukm8builders16Blink_UpdateTime30kMediaIntersectionObserverNameE, i32 0, i32 0) }, %"struct.std::__1::pair.14" { i64 4033991528825288813, i8* getelementptr inbounds ([0 x i8], [0 x i8]* @_ZN3ukm8builders16Blink_UpdateTime44kMediaIntersectionObserverBeginMainFrameNameE, i32 0, i32 0) }, %"struct.std::__1::pair.14" { i64 5188891880448173739, i8* getelementptr inbounds ([0 x i8], [0 x i8]* @_ZN3ukm8builders16Blink_UpdateTime10kPaintNameE, i32 0, i32 0) }, %"struct.std::__1::pair.14" { i64 -3197912967852046620, i8* getelementptr inbounds ([0 x i8], [0 x i8]* @_ZN3ukm8builders16Blink_UpdateTime24kPaintBeginMainFrameNameE, i32 0, i32 0) }, %"struct.std::__1::pair.14" { i64 4880392982914161630, i8* getelementptr inbounds ([0 x i8], [0 x i8]* @_ZN3ukm8builders16Blink_UpdateTime13kPrePaintNameE, i32 0, i32 0) }, %"struct.std::__1::pair.14" { i64 -1879217759347684399, i8* getelementptr inbounds ([0 x i8], [0 x i8]* @_ZN3ukm8builders16Blink_UpdateTime27kPrePaintBeginMainFrameNameE, i32 0, i32 0) }, %"struct.std::__1::pair.14" { i64 -6932196484163248257, i8* getelementptr inbounds ([0 x i8], [0 x i8]* @_ZN3ukm8builders16Blink_UpdateTime25kScrollDocumentUpdateNameE, i32 0, i32 0) }, %"struct.std::__1::pair.14" { i64 1146724715168225299, i8* getelementptr inbounds ([0 x i8], [0 x i8]* @_ZN3ukm8builders16Blink_UpdateTime39kScrollDocumentUpdateBeginMainFrameNameE, i32 0, i32 0) }, %"struct.std::__1::pair.14" { i64 -5017981116923336520, i8* getelementptr inbounds ([0 x i8], [0 x i8]* @_ZN3ukm8builders16Blink_UpdateTime26kServiceDocumentUpdateNameE, i32 0, i32 0) }, %"struct.std::__1::pair.14" { i64 -9220346994756708889, i8* getelementptr inbounds ([0 x i8], [0 x i8]* @_ZN3ukm8builders16Blink_UpdateTime40kServiceDocumentUpdateBeginMainFrameNameE, i32 0, i32 0) }, %"struct.std::__1::pair.14" { i64 -5897376231885803999, i8* getelementptr inbounds ([0 x i8], [0 x i8]* @_ZN3ukm8builders16Blink_UpdateTime10kStyleNameE, i32 0, i32 0) }, %"struct.std::__1::pair.14" { i64 -7902924404712246046, i8* getelementptr inbounds ([0 x i8], [0 x i8]* @_ZN3ukm8builders16Blink_UpdateTime24kStyleBeginMainFrameNameE, i32 0, i32 0) }, %"struct.std::__1::pair.14" { i64 -9036110219824671740, i8* getelementptr inbounds ([0 x i8], [0 x i8]* @_ZN3ukm8builders16Blink_UpdateTime20kStylePercentageNameE, i32 0, i32 0) }, %"struct.std::__1::pair.14" { i64 1916294310099025691, i8* getelementptr inbounds ([0 x i8], [0 x i8]* @_ZN3ukm8builders16Blink_UpdateTime17kUpdateLayersNameE, i32 0, i32 0) }, %"struct.std::__1::pair.14" { i64 -9065747331949369157, i8* getelementptr inbounds ([0 x i8], [0 x i8]* @_ZN3ukm8builders16Blink_UpdateTime31kUpdateLayersBeginMainFrameNameE, i32 0, i32 0) }, %"struct.std::__1::pair.14" { i64 1757331034736396629, i8* getelementptr inbounds ([0 x i8], [0 x i8]* @_ZN3ukm8builders16Blink_UpdateTime31kUpdateViewportIntersectionNameE, i32 0, i32 0) }, %"struct.std::__1::pair.14" { i64 -7302734591555785712, i8* getelementptr inbounds ([0 x i8], [0 x i8]* @_ZN3ukm8builders16Blink_UpdateTime45kUpdateViewportIntersectionBeginMainFrameNameE, i32 0, i32 0) }, %"struct.std::__1::pair.14" { i64 -3100032599974303869, i8* getelementptr inbounds ([0 x i8], [0 x i8]* @_ZN3ukm8builders16Blink_UpdateTime29kUserDrivenDocumentUpdateNameE, i32 0, i32 0) }, %"struct.std::__1::pair.14" { i64 -8656042313570469868, i8* getelementptr inbounds ([0 x i8], [0 x i8]* @_ZN3ukm8builders16Blink_UpdateTime43kUserDrivenDocumentUpdateBeginMainFrameNameE, i32 0, i32 0) }, %"struct.std::__1::pair.14" { i64 -2253359029411034642, i8* getelementptr inbounds ([0 x i8], [0 x i8]* @_ZN3ukm8builders16Blink_UpdateTime18kWaitForCommitNameE, i32 0, i32 0) }, %"struct.std::__1::pair.14" { i64 2189166352894194716, i8* getelementptr inbounds ([0 x i8], [0 x i8]* @_ZN3ukm8builders16Blink_UpdateTime32kWaitForCommitBeginMainFrameNameE, i32 0, i32 0) }], align 8
@_ZN3ukm8builders16Blink_UseCounter10kEntryNameE = external constant [0 x i8], align 1
@_ZN3ukm8builders16Blink_UseCounter12kFeatureNameE = external constant [0 x i8], align 1
@_ZN3ukm8builders16Blink_UseCounter23kIsMainFrameFeatureNameE = external constant [0 x i8], align 1
@.ref.tmp.48 = private constant [2 x %"struct.std::__1::pair.14"] [%"struct.std::__1::pair.14" { i64 2378497229593503977, i8* getelementptr inbounds ([0 x i8], [0 x i8]* @_ZN3ukm8builders16Blink_UseCounter12kFeatureNameE, i32 0, i32 0) }, %"struct.std::__1::pair.14" { i64 8112503265735119902, i8* getelementptr inbounds ([0 x i8], [0 x i8]* @_ZN3ukm8builders16Blink_UseCounter23kIsMainFrameFeatureNameE, i32 0, i32 0) }], align 8
@_ZN3ukm8builders10ClickInput10kEntryNameE = external constant [0 x i8], align 1
@_ZN3ukm8builders10ClickInput33kExperimental_ClickInputBurstNameE = external constant [0 x i8], align 1
@.ref.tmp.49 = private constant [1 x %"struct.std::__1::pair.14"] [%"struct.std::__1::pair.14" { i64 -3306256406370410400, i8* getelementptr inbounds ([0 x i8], [0 x i8]* @_ZN3ukm8builders10ClickInput33kExperimental_ClickInputBurstNameE, i32 0, i32 0) }], align 8
@_ZN3ukm8builders18ClientRenderingAPI10kEntryNameE = external constant [0 x i8], align 1
@_ZN3ukm8builders18ClientRenderingAPI28kCanvas_RenderingContextNameE = external constant [0 x i8], align 1
@_ZN3ukm8builders18ClientRenderingAPI35kCanvas_RenderingContextDrawnToNameE = external constant [0 x i8], align 1
@_ZN3ukm8builders18ClientRenderingAPI14kGPUDeviceNameE = external constant [0 x i8], align 1
@_ZN3ukm8builders18ClientRenderingAPI37kOffscreenCanvas_RenderingContextNameE = external constant [0 x i8], align 1
@_ZN3ukm8builders18ClientRenderingAPI44kOffscreenCanvas_RenderingContextDrawnToNameE = external constant [0 x i8], align 1
@.ref.tmp.50 = private constant [5 x %"struct.std::__1::pair.14"] [%"struct.std::__1::pair.14" { i64 4637085183716198224, i8* getelementptr inbounds ([0 x i8], [0 x i8]* @_ZN3ukm8builders18ClientRenderingAPI28kCanvas_RenderingContextNameE, i32 0, i32 0) }, %"struct.std::__1::pair.14" { i64 -103699008032871057, i8* getelementptr inbounds ([0 x i8], [0 x i8]* @_ZN3ukm8builders18ClientRenderingAPI35kCanvas_RenderingContextDrawnToNameE, i32 0, i32 0) }, %"struct.std::__1::pair.14" { i64 -7100337709727692875, i8* getelementptr inbounds ([0 x i8], [0 x i8]* @_ZN3ukm8builders18ClientRenderingAPI14kGPUDeviceNameE, i32 0, i32 0) }, %"struct.std::__1::pair.14" { i64 9150383311060652241, i8* getelementptr inbounds ([0 x i8], [0 x i8]* @_ZN3ukm8builders18ClientRenderingAPI37kOffscreenCanvas_RenderingContextNameE, i32 0, i32 0) }, %"struct.std::__1::pair.14" { i64 -4268214830970353233, i8* getelementptr inbounds ([0 x i8], [0 x i8]* @_ZN3ukm8builders18ClientRenderingAPI44kOffscreenCanvas_RenderingContextDrawnToNameE, i32 0, i32 0) }], align 8
@_ZN3ukm8builders20Compositor_Rendering10kEntryNameE = external constant [0 x i8], align 1
@_ZN3ukm8builders20Compositor_Rendering30kCheckerboardedImagesCountNameE = external constant [0 x i8], align 1
@.ref.tmp.51 = private constant [1 x %"struct.std::__1::pair.14"] [%"struct.std::__1::pair.14" { i64 1155611193130623091, i8* getelementptr inbounds ([0 x i8], [0 x i8]* @_ZN3ukm8builders20Compositor_Rendering30kCheckerboardedImagesCountNameE, i32 0, i32 0) }], align 8
@_ZN3ukm8builders26Compositor_UserInteraction10kEntryNameE = external constant [0 x i8], align 1
@_ZN3ukm8builders26Compositor_UserInteraction30kCheckerboardedContentAreaNameE = external constant [0 x i8], align 1
@_ZN3ukm8builders26Compositor_UserInteraction35kCheckerboardedContentAreaRatioNameE = external constant [0 x i8], align 1
@_ZN3ukm8builders26Compositor_UserInteraction30kCheckerboardedImagesCountNameE = external constant [0 x i8], align 1
@_ZN3ukm8builders26Compositor_UserInteraction20kNumMissingTilesNameE = external constant [0 x i8], align 1
@.ref.tmp.52 = private constant [4 x %"struct.std::__1::pair.14"] [%"struct.std::__1::pair.14" { i64 -82040032011441356, i8* getelementptr inbounds ([0 x i8], [0 x i8]* @_ZN3ukm8builders26Compositor_UserInteraction30kCheckerboardedContentAreaNameE, i32 0, i32 0) }, %"struct.std::__1::pair.14" { i64 6812281970879011502, i8* getelementptr inbounds ([0 x i8], [0 x i8]* @_ZN3ukm8builders26Compositor_UserInteraction35kCheckerboardedContentAreaRatioNameE, i32 0, i32 0) }, %"struct.std::__1::pair.14" { i64 1155611193130623091, i8* getelementptr inbounds ([0 x i8], [0 x i8]* @_ZN3ukm8builders26Compositor_UserInteraction30kCheckerboardedImagesCountNameE, i32 0, i32 0) }, %"struct.std::__1::pair.14" { i64 -3969383782770942717, i8* getelementptr inbounds ([0 x i8], [0 x i8]* @_ZN3ukm8builders26Compositor_UserInteraction20kNumMissingTilesNameE, i32 0, i32 0) }], align 8
@_ZN3ukm8builders30ContactsPicker_ShareStatistics10kEntryNameE = external constant [0 x i8], align 1
@_ZN3ukm8builders30ContactsPicker_ShareStatistics24kPropertiesRequestedNameE = external constant [0 x i8], align 1
@_ZN3ukm8builders30ContactsPicker_ShareStatistics16kSelectCountNameE = external constant [0 x i8], align 1
@_ZN3ukm8builders30ContactsPicker_ShareStatistics21kSelectPercentageNameE = external constant [0 x i8], align 1
@.ref.tmp.53 = private constant [3 x %"struct.std::__1::pair.14"] [%"struct.std::__1::pair.14" { i64 -71462120556558378, i8* getelementptr inbounds ([0 x i8], [0 x i8]* @_ZN3ukm8builders30ContactsPicker_ShareStatistics24kPropertiesRequestedNameE, i32 0, i32 0) }, %"struct.std::__1::pair.14" { i64 5527119260645369915, i8* getelementptr inbounds ([0 x i8], [0 x i8]* @_ZN3ukm8builders30ContactsPicker_ShareStatistics16kSelectCountNameE, i32 0, i32 0) }, %"struct.std::__1::pair.14" { i64 -8651443002055910673, i8* getelementptr inbounds ([0 x i8], [0 x i8]* @_ZN3ukm8builders30ContactsPicker_ShareStatistics21kSelectPercentageNameE, i32 0, i32 0) }], align 8
@_ZN3ukm8builders18ContentIndex_Added10kEntryNameE = external constant [0 x i8], align 1
@_ZN3ukm8builders18ContentIndex_Added13kCategoryNameE = external constant [0 x i8], align 1
@.ref.tmp.54 = private constant [1 x %"struct.std::__1::pair.14"] [%"struct.std::__1::pair.14" { i64 4241224519481557898, i8* getelementptr inbounds ([0 x i8], [0 x i8]* @_ZN3ukm8builders18ContentIndex_Added13kCategoryNameE, i32 0, i32 0) }], align 8
@_ZN3ukm8builders26ContentIndex_DeletedByUser10kEntryNameE = external constant [0 x i8], align 1
@_ZN3ukm8builders26ContentIndex_DeletedByUser12kDeletedNameE = external constant [0 x i8], align 1
@.ref.tmp.55 = private constant [1 x %"struct.std::__1::pair.14"] [%"struct.std::__1::pair.14" { i64 6910211073230771657, i8* getelementptr inbounds ([0 x i8], [0 x i8]* @_ZN3ukm8builders26ContentIndex_DeletedByUser12kDeletedNameE, i32 0, i32 0) }], align 8
@_ZN3ukm8builders19ContentIndex_Opened10kEntryNameE = external constant [0 x i8], align 1
@_ZN3ukm8builders19ContentIndex_Opened14kIsOfflineNameE = external constant [0 x i8], align 1
@.ref.tmp.56 = private constant [1 x %"struct.std::__1::pair.14"] [%"struct.std::__1::pair.14" { i64 -1147929111010270159, i8* getelementptr inbounds ([0 x i8], [0 x i8]* @_ZN3ukm8builders19ContentIndex_Opened14kIsOfflineNameE, i32 0, i32 0) }], align 8
@_ZN3ukm8builders27ContextMenuAndroid_Selected10kEntryNameE = external constant [0 x i8], align 1
@_ZN3ukm8builders27ContextMenuAndroid_Selected11kActionNameE = external constant [0 x i8], align 1
@.ref.tmp.57 = private constant [1 x %"struct.std::__1::pair.14"] [%"struct.std::__1::pair.14" { i64 21381969153622804, i8* getelementptr inbounds ([0 x i8], [0 x i8]* @_ZN3ukm8builders27ContextMenuAndroid_Selected11kActionNameE, i32 0, i32 0) }], align 8
@_ZN3ukm8builders24ContextMenuAndroid_Shown10kEntryNameE = external constant [0 x i8], align 1
@_ZN3ukm8builders24ContextMenuAndroid_Shown18kSearchByImageNameE = external constant [0 x i8], align 1
@_ZN3ukm8builders24ContextMenuAndroid_Shown25kSearchWithGoogleLensNameE = external constant [0 x i8], align 1
@_ZN3ukm8builders24ContextMenuAndroid_Shown23kShopWithGoogleLensNameE = external constant [0 x i8], align 1
@_ZN3ukm8builders24ContextMenuAndroid_Shown27kShopWithGoogleLensChipNameE = external constant [0 x i8], align 1
@_ZN3ukm8builders24ContextMenuAndroid_Shown32kTranslateWithGoogleLensChipNameE = external constant [0 x i8], align 1
@.ref.tmp.58 = private constant [5 x %"struct.std::__1::pair.14"] [%"struct.std::__1::pair.14" { i64 6108028259674083300, i8* getelementptr inbounds ([0 x i8], [0 x i8]* @_ZN3ukm8builders24ContextMenuAndroid_Shown18kSearchByImageNameE, i32 0, i32 0) }, %"struct.std::__1::pair.14" { i64 -4785910484017554876, i8* getelementptr inbounds ([0 x i8], [0 x i8]* @_ZN3ukm8builders24ContextMenuAndroid_Shown25kSearchWithGoogleLensNameE, i32 0, i32 0) }, %"struct.std::__1::pair.14" { i64 8394054406851481398, i8* getelementptr inbounds ([0 x i8], [0 x i8]* @_ZN3ukm8builders24ContextMenuAndroid_Shown23kShopWithGoogleLensNameE, i32 0, i32 0) }, %"struct.std::__1::pair.14" { i64 307017728732963727, i8* getelementptr inbounds ([0 x i8], [0 x i8]* @_ZN3ukm8builders24ContextMenuAndroid_Shown27kShopWithGoogleLensChipNameE, i32 0, i32 0) }, %"struct.std::__1::pair.14" { i64 1156733219451370314, i8* getelementptr inbounds ([0 x i8], [0 x i8]* @_ZN3ukm8builders24ContextMenuAndroid_Shown32kTranslateWithGoogleLensChipNameE, i32 0, i32 0) }], align 8
@_ZN3ukm8builders16ContextualSearch10kEntryNameE = external constant [0 x i8], align 1
@_ZN3ukm8builders16ContextualSearch13kDidOptInNameE = external constant [0 x i8], align 1
@_ZN3ukm8builders16ContextualSearch26kDurationAfterScrollMsNameE = external constant [0 x i8], align 1
@_ZN3ukm8builders16ContextualSearch27kEntityImpressionsCountNameE = external constant [0 x i8], align 1
@_ZN3ukm8builders16ContextualSearch21kEntityOpensCountNameE = external constant [0 x i8], align 1
@_ZN3ukm8builders16ContextualSearch13kFontSizeNameE = external constant [0 x i8], align 1
@_ZN3ukm8builders16ContextualSearch13kIsEntityNameE = external constant [0 x i8], align 1
@_ZN3ukm8builders16ContextualSearch21kIsEntityEligibleNameE = external constant [0 x i8], align 1
@_ZN3ukm8builders16ContextualSearch11kIsHttpNameE = external constant [0 x i8], align 1
@_ZN3ukm8builders16ContextualSearch23kIsLanguageMismatchNameE = external constant [0 x i8], align 1
@_ZN3ukm8builders16ContextualSearch15kIsLongWordNameE = external constant [0 x i8], align 1
@_ZN3ukm8builders16ContextualSearch24kIsSecondTapOverrideNameE = external constant [0 x i8], align 1
@_ZN3ukm8builders16ContextualSearch16kIsShortWordNameE = external constant [0 x i8], align 1
@_ZN3ukm8builders16ContextualSearch15kIsWordEdgeNameE = external constant [0 x i8], align 1
@_ZN3ukm8builders16ContextualSearch14kOpenCountNameE = external constant [0 x i8], align 1
@_ZN3ukm8builders16ContextualSearch28kOutcomeRankerDidPredictNameE = external constant [0 x i8], align 1
@_ZN3ukm8builders16ContextualSearch28kOutcomeRankerPredictionNameE = external constant [0 x i8], align 1
@_ZN3ukm8builders16ContextualSearch33kOutcomeRankerPredictionScoreNameE = external constant [0 x i8], align 1
@_ZN3ukm8builders16ContextualSearch29kOutcomeWasCardsDataShownNameE = external constant [0 x i8], align 1
@_ZN3ukm8builders16ContextualSearch26kOutcomeWasPanelOpenedNameE = external constant [0 x i8], align 1
@_ZN3ukm8builders16ContextualSearch33kOutcomeWasQuickActionClickedNameE = external constant [0 x i8], align 1
@_ZN3ukm8builders16ContextualSearch30kOutcomeWasQuickAnswerSeenNameE = external constant [0 x i8], align 1
@_ZN3ukm8builders16ContextualSearch21kPortionOfElementNameE = external constant [0 x i8], align 1
@_ZN3ukm8builders16ContextualSearch28kPrevious28DayCtrPercentNameE = external constant [0 x i8], align 1
@_ZN3ukm8builders16ContextualSearch34kPrevious28DayImpressionsCountNameE = external constant [0 x i8], align 1
@_ZN3ukm8builders16ContextualSearch27kPreviousWeekCtrPercentNameE = external constant [0 x i8], align 1
@_ZN3ukm8builders16ContextualSearch33kPreviousWeekImpressionsCountNameE = external constant [0 x i8], align 1
@_ZN3ukm8builders16ContextualSearch32kQuickActionImpressionsCountNameE = external constant [0 x i8], align 1
@_ZN3ukm8builders16ContextualSearch24kQuickActionsIgnoredNameE = external constant [0 x i8], align 1
@_ZN3ukm8builders16ContextualSearch22kQuickActionsTakenNameE = external constant [0 x i8], align 1
@_ZN3ukm8builders16ContextualSearch21kQuickAnswerCountNameE = external constant [0 x i8], align 1
@_ZN3ukm8builders16ContextualSearch17kScreenTopDpsNameE = external constant [0 x i8], align 1
@_ZN3ukm8builders16ContextualSearch13kTapCountNameE = external constant [0 x i8], align 1
@_ZN3ukm8builders16ContextualSearch18kTapDurationMsNameE = external constant [0 x i8], align 1
@_ZN3ukm8builders16ContextualSearch20kWasScreenBottomNameE = external constant [0 x i8], align 1
@.ref.tmp.59 = private constant [34 x %"struct.std::__1::pair.14"] [%"struct.std::__1::pair.14" { i64 -5805959946658636621, i8* getelementptr inbounds ([0 x i8], [0 x i8]* @_ZN3ukm8builders16ContextualSearch13kDidOptInNameE, i32 0, i32 0) }, %"struct.std::__1::pair.14" { i64 -8752780426008078888, i8* getelementptr inbounds ([0 x i8], [0 x i8]* @_ZN3ukm8builders16ContextualSearch26kDurationAfterScrollMsNameE, i32 0, i32 0) }, %"struct.std::__1::pair.14" { i64 -2493962319702905761, i8* getelementptr inbounds ([0 x i8], [0 x i8]* @_ZN3ukm8builders16ContextualSearch27kEntityImpressionsCountNameE, i32 0, i32 0) }, %"struct.std::__1::pair.14" { i64 641585822242808710, i8* getelementptr inbounds ([0 x i8], [0 x i8]* @_ZN3ukm8builders16ContextualSearch21kEntityOpensCountNameE, i32 0, i32 0) }, %"struct.std::__1::pair.14" { i64 2643658496925572245, i8* getelementptr inbounds ([0 x i8], [0 x i8]* @_ZN3ukm8builders16ContextualSearch13kFontSizeNameE, i32 0, i32 0) }, %"struct.std::__1::pair.14" { i64 7662372954863476590, i8* getelementptr inbounds ([0 x i8], [0 x i8]* @_ZN3ukm8builders16ContextualSearch13kIsEntityNameE, i32 0, i32 0) }, %"struct.std::__1::pair.14" { i64 -3798385517340078218, i8* getelementptr inbounds ([0 x i8], [0 x i8]* @_ZN3ukm8builders16ContextualSearch21kIsEntityEligibleNameE, i32 0, i32 0) }, %"struct.std::__1::pair.14" { i64 1002302620744868215, i8* getelementptr inbounds ([0 x i8], [0 x i8]* @_ZN3ukm8builders16ContextualSearch11kIsHttpNameE, i32 0, i32 0) }, %"struct.std::__1::pair.14" { i64 2255335648555969039, i8* getelementptr inbounds ([0 x i8], [0 x i8]* @_ZN3ukm8builders16ContextualSearch23kIsLanguageMismatchNameE, i32 0, i32 0) }, %"struct.std::__1::pair.14" { i64 -298226121232004271, i8* getelementptr inbounds ([0 x i8], [0 x i8]* @_ZN3ukm8builders16ContextualSearch15kIsLongWordNameE, i32 0, i32 0) }, %"struct.std::__1::pair.14" { i64 8788769137190271820, i8* getelementptr inbounds ([0 x i8], [0 x i8]* @_ZN3ukm8builders16ContextualSearch24kIsSecondTapOverrideNameE, i32 0, i32 0) }, %"struct.std::__1::pair.14" { i64 7992627050111663729, i8* getelementptr inbounds ([0 x i8], [0 x i8]* @_ZN3ukm8builders16ContextualSearch16kIsShortWordNameE, i32 0, i32 0) }, %"struct.std::__1::pair.14" { i64 7068207925783210246, i8* getelementptr inbounds ([0 x i8], [0 x i8]* @_ZN3ukm8builders16ContextualSearch15kIsWordEdgeNameE, i32 0, i32 0) }, %"struct.std::__1::pair.14" { i64 8476882816646040416, i8* getelementptr inbounds ([0 x i8], [0 x i8]* @_ZN3ukm8builders16ContextualSearch14kOpenCountNameE, i32 0, i32 0) }, %"struct.std::__1::pair.14" { i64 1223460898641686759, i8* getelementptr inbounds ([0 x i8], [0 x i8]* @_ZN3ukm8builders16ContextualSearch28kOutcomeRankerDidPredictNameE, i32 0, i32 0) }, %"struct.std::__1::pair.14" { i64 -2914464562860507192, i8* getelementptr inbounds ([0 x i8], [0 x i8]* @_ZN3ukm8builders16ContextualSearch28kOutcomeRankerPredictionNameE, i32 0, i32 0) }, %"struct.std::__1::pair.14" { i64 -7583677166080977689, i8* getelementptr inbounds ([0 x i8], [0 x i8]* @_ZN3ukm8builders16ContextualSearch33kOutcomeRankerPredictionScoreNameE, i32 0, i32 0) }, %"struct.std::__1::pair.14" { i64 -7860425708334089414, i8* getelementptr inbounds ([0 x i8], [0 x i8]* @_ZN3ukm8builders16ContextualSearch29kOutcomeWasCardsDataShownNameE, i32 0, i32 0) }, %"struct.std::__1::pair.14" { i64 1283040101353376836, i8* getelementptr inbounds ([0 x i8], [0 x i8]* @_ZN3ukm8builders16ContextualSearch26kOutcomeWasPanelOpenedNameE, i32 0, i32 0) }, %"struct.std::__1::pair.14" { i64 4665494976417872953, i8* getelementptr inbounds ([0 x i8], [0 x i8]* @_ZN3ukm8builders16ContextualSearch33kOutcomeWasQuickActionClickedNameE, i32 0, i32 0) }, %"struct.std::__1::pair.14" { i64 107968630341396949, i8* getelementptr inbounds ([0 x i8], [0 x i8]* @_ZN3ukm8builders16ContextualSearch30kOutcomeWasQuickAnswerSeenNameE, i32 0, i32 0) }, %"struct.std::__1::pair.14" { i64 -2160903432626682984, i8* getelementptr inbounds ([0 x i8], [0 x i8]* @_ZN3ukm8builders16ContextualSearch21kPortionOfElementNameE, i32 0, i32 0) }, %"struct.std::__1::pair.14" { i64 959880084996189379, i8* getelementptr inbounds ([0 x i8], [0 x i8]* @_ZN3ukm8builders16ContextualSearch28kPrevious28DayCtrPercentNameE, i32 0, i32 0) }, %"struct.std::__1::pair.14" { i64 -2686166566640891720, i8* getelementptr inbounds ([0 x i8], [0 x i8]* @_ZN3ukm8builders16ContextualSearch34kPrevious28DayImpressionsCountNameE, i32 0, i32 0) }, %"struct.std::__1::pair.14" { i64 -8268019789580234415, i8* getelementptr inbounds ([0 x i8], [0 x i8]* @_ZN3ukm8builders16ContextualSearch27kPreviousWeekCtrPercentNameE, i32 0, i32 0) }, %"struct.std::__1::pair.14" { i64 -8825455594137898810, i8* getelementptr inbounds ([0 x i8], [0 x i8]* @_ZN3ukm8builders16ContextualSearch33kPreviousWeekImpressionsCountNameE, i32 0, i32 0) }, %"struct.std::__1::pair.14" { i64 5143533701497306060, i8* getelementptr inbounds ([0 x i8], [0 x i8]* @_ZN3ukm8builders16ContextualSearch32kQuickActionImpressionsCountNameE, i32 0, i32 0) }, %"struct.std::__1::pair.14" { i64 990579457210023058, i8* getelementptr inbounds ([0 x i8], [0 x i8]* @_ZN3ukm8builders16ContextualSearch24kQuickActionsIgnoredNameE, i32 0, i32 0) }, %"struct.std::__1::pair.14" { i64 -6393963929942815762, i8* getelementptr inbounds ([0 x i8], [0 x i8]* @_ZN3ukm8builders16ContextualSearch22kQuickActionsTakenNameE, i32 0, i32 0) }, %"struct.std::__1::pair.14" { i64 4510489829885602207, i8* getelementptr inbounds ([0 x i8], [0 x i8]* @_ZN3ukm8builders16ContextualSearch21kQuickAnswerCountNameE, i32 0, i32 0) }, %"struct.std::__1::pair.14" { i64 -5762837724454479224, i8* getelementptr inbounds ([0 x i8], [0 x i8]* @_ZN3ukm8builders16ContextualSearch17kScreenTopDpsNameE, i32 0, i32 0) }, %"struct.std::__1::pair.14" { i64 271089889000519387, i8* getelementptr inbounds ([0 x i8], [0 x i8]* @_ZN3ukm8builders16ContextualSearch13kTapCountNameE, i32 0, i32 0) }, %"struct.std::__1::pair.14" { i64 -9010927384887846294, i8* getelementptr inbounds ([0 x i8], [0 x i8]* @_ZN3ukm8builders16ContextualSearch18kTapDurationMsNameE, i32 0, i32 0) }, %"struct.std::__1::pair.14" { i64 8966660250732563679, i8* getelementptr inbounds ([0 x i8], [0 x i8]* @_ZN3ukm8builders16ContextualSearch20kWasScreenBottomNameE, i32 0, i32 0) }], align 8
@_ZN3ukm8builders19CPUUsageMeasurement10kEntryNameE = external constant [0 x i8], align 1
@_ZN3ukm8builders19CPUUsageMeasurement13kCPUUsageNameE = external constant [0 x i8], align 1
@_ZN3ukm8builders19CPUUsageMeasurement14kEventTypeNameE = external constant [0 x i8], align 1
@_ZN3ukm8builders19CPUUsageMeasurement14kIsVisibleNameE = external constant [0 x i8], align 1
@_ZN3ukm8builders19CPUUsageMeasurement27kNumberOfCoresidentTabsNameE = external constant [0 x i8], align 1
@_ZN3ukm8builders19CPUUsageMeasurement28kObservationWindowSizeMsNameE = external constant [0 x i8], align 1
@_ZN3ukm8builders19CPUUsageMeasurement20kProcessUptimeMsNameE = external constant [0 x i8], align 1
@.ref.tmp.60 = private constant [6 x %"struct.std::__1::pair.14"] [%"struct.std::__1::pair.14" { i64 4766204289640456177, i8* getelementptr inbounds ([0 x i8], [0 x i8]* @_ZN3ukm8builders19CPUUsageMeasurement13kCPUUsageNameE, i32 0, i32 0) }, %"struct.std::__1::pair.14" { i64 5446425777535537951, i8* getelementptr inbounds ([0 x i8], [0 x i8]* @_ZN3ukm8builders19CPUUsageMeasurement14kEventTypeNameE, i32 0, i32 0) }, %"struct.std::__1::pair.14" { i64 1485165748725517792, i8* getelementptr inbounds ([0 x i8], [0 x i8]* @_ZN3ukm8builders19CPUUsageMeasurement14kIsVisibleNameE, i32 0, i32 0) }, %"struct.std::__1::pair.14" { i64 -8743363091905280222, i8* getelementptr inbounds ([0 x i8], [0 x i8]* @_ZN3ukm8builders19CPUUsageMeasurement27kNumberOfCoresidentTabsNameE, i32 0, i32 0) }, %"struct.std::__1::pair.14" { i64 73587915121421831, i8* getelementptr inbounds ([0 x i8], [0 x i8]* @_ZN3ukm8builders19CPUUsageMeasurement28kObservationWindowSizeMsNameE, i32 0, i32 0) }, %"struct.std::__1::pair.14" { i64 -5450736865339089078, i8* getelementptr inbounds ([0 x i8], [0 x i8]* @_ZN3ukm8builders19CPUUsageMeasurement20kProcessUptimeMsNameE, i32 0, i32 0) }], align 8
@_ZN3ukm8builders18DataReductionProxy10kEntryNameE = external constant [0 x i8], align 1
@_ZN3ukm8builders18DataReductionProxy22kDataSaverPageUUIDNameE = external constant [0 x i8], align 1
@_ZN3ukm8builders18DataReductionProxy34kEstimatedOriginalNetworkBytesNameE = external constant [0 x i8], align 1
@.ref.tmp.61 = private constant [2 x %"struct.std::__1::pair.14"] [%"struct.std::__1::pair.14" { i64 -5629560865682443631, i8* getelementptr inbounds ([0 x i8], [0 x i8]* @_ZN3ukm8builders18DataReductionProxy22kDataSaverPageUUIDNameE, i32 0, i32 0) }, %"struct.std::__1::pair.14" { i64 -1447554425181731034, i8* getelementptr inbounds ([0 x i8], [0 x i8]* @_ZN3ukm8builders18DataReductionProxy34kEstimatedOriginalNetworkBytesNameE, i32 0, i32 0) }], align 8
@_ZN3ukm8builders15DocumentCreated10kEntryNameE = external constant [0 x i8], align 1
@_ZN3ukm8builders15DocumentCreated23kIsCrossOriginFrameNameE = external constant [0 x i8], align 1
@_ZN3ukm8builders15DocumentCreated21kIsCrossSiteFrameNameE = external constant [0 x i8], align 1
@_ZN3ukm8builders15DocumentCreated16kIsMainFrameNameE = external constant [0 x i8], align 1
@_ZN3ukm8builders15DocumentCreated23kNavigationSourceIdNameE = external constant [0 x i8], align 1
@.ref.tmp.62 = private constant [4 x %"struct.std::__1::pair.14"] [%"struct.std::__1::pair.14" { i64 -3392231387275611929, i8* getelementptr inbounds ([0 x i8], [0 x i8]* @_ZN3ukm8builders15DocumentCreated23kIsCrossOriginFrameNameE, i32 0, i32 0) }, %"struct.std::__1::pair.14" { i64 2664425578681353266, i8* getelementptr inbounds ([0 x i8], [0 x i8]* @_ZN3ukm8builders15DocumentCreated21kIsCrossSiteFrameNameE, i32 0, i32 0) }, %"struct.std::__1::pair.14" { i64 7266626398784684486, i8* getelementptr inbounds ([0 x i8], [0 x i8]* @_ZN3ukm8builders15DocumentCreated16kIsMainFrameNameE, i32 0, i32 0) }, %"struct.std::__1::pair.14" { i64 -1637084481495096611, i8* getelementptr inbounds ([0 x i8], [0 x i8]* @_ZN3ukm8builders15DocumentCreated23kNavigationSourceIdNameE, i32 0, i32 0) }], align 8
@_ZN3ukm8builders18Download_Completed10kEntryNameE = external constant [0 x i8], align 1
@_ZN3ukm8builders18Download_Completed16kBytesWastedNameE = external constant [0 x i8], align 1
@_ZN3ukm8builders18Download_Completed15kDownloadIdNameE = external constant [0 x i8], align 1
@_ZN3ukm8builders18Download_Completed22kResultingFileSizeNameE = external constant [0 x i8], align 1
@_ZN3ukm8builders18Download_Completed19kTimeSinceStartNameE = external constant [0 x i8], align 1
@.ref.tmp.63 = private constant [4 x %"struct.std::__1::pair.14"] [%"struct.std::__1::pair.14" { i64 -5370545585366874507, i8* getelementptr inbounds ([0 x i8], [0 x i8]* @_ZN3ukm8builders18Download_Completed16kBytesWastedNameE, i32 0, i32 0) }, %"struct.std::__1::pair.14" { i64 -6870488207520590551, i8* getelementptr inbounds ([0 x i8], [0 x i8]* @_ZN3ukm8builders18Download_Completed15kDownloadIdNameE, i32 0, i32 0) }, %"struct.std::__1::pair.14" { i64 -8576557133303476351, i8* getelementptr inbounds ([0 x i8], [0 x i8]* @_ZN3ukm8builders18Download_Completed22kResultingFileSizeNameE, i32 0, i32 0) }, %"struct.std::__1::pair.14" { i64 1379962242842370033, i8* getelementptr inbounds ([0 x i8], [0 x i8]* @_ZN3ukm8builders18Download_Completed19kTimeSinceStartNameE, i32 0, i32 0) }], align 8
@_ZN3ukm8builders20Download_Interrupted10kEntryNameE = external constant [0 x i8], align 1
@_ZN3ukm8builders20Download_Interrupted16kBytesWastedNameE = external constant [0 x i8], align 1
@_ZN3ukm8builders20Download_Interrupted21kChangeInFileSizeNameE = external constant [0 x i8], align 1
@_ZN3ukm8builders20Download_Interrupted15kDownloadIdNameE = external constant [0 x i8], align 1
@_ZN3ukm8builders20Download_Interrupted11kReasonNameE = external constant [0 x i8], align 1
@_ZN3ukm8builders20Download_Interrupted22kResultingFileSizeNameE = external constant [0 x i8], align 1
@_ZN3ukm8builders20Download_Interrupted19kTimeSinceStartNameE = external constant [0 x i8], align 1
@.ref.tmp.64 = private constant [6 x %"struct.std::__1::pair.14"] [%"struct.std::__1::pair.14" { i64 -5370545585366874507, i8* getelementptr inbounds ([0 x i8], [0 x i8]* @_ZN3ukm8builders20Download_Interrupted16kBytesWastedNameE, i32 0, i32 0) }, %"struct.std::__1::pair.14" { i64 -1503337369569552502, i8* getelementptr inbounds ([0 x i8], [0 x i8]* @_ZN3ukm8builders20Download_Interrupted21kChangeInFileSizeNameE, i32 0, i32 0) }, %"struct.std::__1::pair.14" { i64 -6870488207520590551, i8* getelementptr inbounds ([0 x i8], [0 x i8]* @_ZN3ukm8builders20Download_Interrupted15kDownloadIdNameE, i32 0, i32 0) }, %"struct.std::__1::pair.14" { i64 -927086387882318, i8* getelementptr inbounds ([0 x i8], [0 x i8]* @_ZN3ukm8builders20Download_Interrupted11kReasonNameE, i32 0, i32 0) }, %"struct.std::__1::pair.14" { i64 -8576557133303476351, i8* getelementptr inbounds ([0 x i8], [0 x i8]* @_ZN3ukm8builders20Download_Interrupted22kResultingFileSizeNameE, i32 0, i32 0) }, %"struct.std::__1::pair.14" { i64 1379962242842370033, i8* getelementptr inbounds ([0 x i8], [0 x i8]* @_ZN3ukm8builders20Download_Interrupted19kTimeSinceStartNameE, i32 0, i32 0) }], align 8
@_ZN3ukm8builders16Download_Resumed10kEntryNameE = external constant [0 x i8], align 1
@_ZN3ukm8builders16Download_Resumed15kDownloadIdNameE = external constant [0 x i8], align 1
@_ZN3ukm8builders16Download_Resumed9kModeNameE = external constant [0 x i8], align 1
@_ZN3ukm8builders16Download_Resumed19kTimeSinceStartNameE = external constant [0 x i8], align 1
@.ref.tmp.65 = private constant [3 x %"struct.std::__1::pair.14"] [%"struct.std::__1::pair.14" { i64 -6870488207520590551, i8* getelementptr inbounds ([0 x i8], [0 x i8]* @_ZN3ukm8builders16Download_Resumed15kDownloadIdNameE, i32 0, i32 0) }, %"struct.std::__1::pair.14" { i64 7281166215790160128, i8* getelementptr inbounds ([0 x i8], [0 x i8]* @_ZN3ukm8builders16Download_Resumed9kModeNameE, i32 0, i32 0) }, %"struct.std::__1::pair.14" { i64 1379962242842370033, i8* getelementptr inbounds ([0 x i8], [0 x i8]* @_ZN3ukm8builders16Download_Resumed19kTimeSinceStartNameE, i32 0, i32 0) }], align 8
@_ZN3ukm8builders16Download_Started10kEntryNameE = external constant [0 x i8], align 1
@_ZN3ukm8builders16Download_Started31kDownloadConnectionSecurityNameE = external constant [0 x i8], align 1
@_ZN3ukm8builders16Download_Started15kDownloadIdNameE = external constant [0 x i8], align 1
@_ZN3ukm8builders16Download_Started19kDownloadSourceNameE = external constant [0 x i8], align 1
@_ZN3ukm8builders16Download_Started13kFileTypeNameE = external constant [0 x i8], align 1
@_ZN3ukm8builders16Download_Started23kIsSameHostDownloadNameE = external constant [0 x i8], align 1
@.ref.tmp.66 = private constant [5 x %"struct.std::__1::pair.14"] [%"struct.std::__1::pair.14" { i64 1575516418771310819, i8* getelementptr inbounds ([0 x i8], [0 x i8]* @_ZN3ukm8builders16Download_Started31kDownloadConnectionSecurityNameE, i32 0, i32 0) }, %"struct.std::__1::pair.14" { i64 -6870488207520590551, i8* getelementptr inbounds ([0 x i8], [0 x i8]* @_ZN3ukm8builders16Download_Started15kDownloadIdNameE, i32 0, i32 0) }, %"struct.std::__1::pair.14" { i64 -6488937945099384216, i8* getelementptr inbounds ([0 x i8], [0 x i8]* @_ZN3ukm8builders16Download_Started19kDownloadSourceNameE, i32 0, i32 0) }, %"struct.std::__1::pair.14" { i64 1646892813222506878, i8* getelementptr inbounds ([0 x i8], [0 x i8]* @_ZN3ukm8builders16Download_Started13kFileTypeNameE, i32 0, i32 0) }, %"struct.std::__1::pair.14" { i64 -6602075847893235900, i8* getelementptr inbounds ([0 x i8], [0 x i8]* @_ZN3ukm8builders16Download_Started23kIsSameHostDownloadNameE, i32 0, i32 0) }], align 8
@_ZN3ukm8builders23Event_ScrollBegin_Touch10kEntryNameE = external constant [0 x i8], align 1
@_ZN3ukm8builders23Event_ScrollBegin_Touch17kIsMainThreadNameE = external constant [0 x i8], align 1
@_ZN3ukm8builders23Event_ScrollBegin_Touch18kTimeToHandledNameE = external constant [0 x i8], align 1
@_ZN3ukm8builders23Event_ScrollBegin_Touch32kTimeToScrollUpdateSwapBeginNameE = external constant [0 x i8], align 1
@.ref.tmp.67 = private constant [3 x %"struct.std::__1::pair.14"] [%"struct.std::__1::pair.14" { i64 1011657010800388108, i8* getelementptr inbounds ([0 x i8], [0 x i8]* @_ZN3ukm8builders23Event_ScrollBegin_Touch17kIsMainThreadNameE, i32 0, i32 0) }, %"struct.std::__1::pair.14" { i64 -7799494319383070747, i8* getelementptr inbounds ([0 x i8], [0 x i8]* @_ZN3ukm8builders23Event_ScrollBegin_Touch18kTimeToHandledNameE, i32 0, i32 0) }, %"struct.std::__1::pair.14" { i64 1631660777277694939, i8* getelementptr inbounds ([0 x i8], [0 x i8]* @_ZN3ukm8builders23Event_ScrollBegin_Touch32kTimeToScrollUpdateSwapBeginNameE, i32 0, i32 0) }], align 8
@_ZN3ukm8builders23Event_ScrollBegin_Wheel10kEntryNameE = external constant [0 x i8], align 1
@_ZN3ukm8builders23Event_ScrollBegin_Wheel17kIsMainThreadNameE = external constant [0 x i8], align 1
@_ZN3ukm8builders23Event_ScrollBegin_Wheel18kTimeToHandledNameE = external constant [0 x i8], align 1
@_ZN3ukm8builders23Event_ScrollBegin_Wheel32kTimeToScrollUpdateSwapBeginNameE = external constant [0 x i8], align 1
@.ref.tmp.68 = private constant [3 x %"struct.std::__1::pair.14"] [%"struct.std::__1::pair.14" { i64 1011657010800388108, i8* getelementptr inbounds ([0 x i8], [0 x i8]* @_ZN3ukm8builders23Event_ScrollBegin_Wheel17kIsMainThreadNameE, i32 0, i32 0) }, %"struct.std::__1::pair.14" { i64 -7799494319383070747, i8* getelementptr inbounds ([0 x i8], [0 x i8]* @_ZN3ukm8builders23Event_ScrollBegin_Wheel18kTimeToHandledNameE, i32 0, i32 0) }, %"struct.std::__1::pair.14" { i64 1631660777277694939, i8* getelementptr inbounds ([0 x i8], [0 x i8]* @_ZN3ukm8builders23Event_ScrollBegin_Wheel32kTimeToScrollUpdateSwapBeginNameE, i32 0, i32 0) }], align 8
@_ZN3ukm8builders24Event_ScrollUpdate_Touch10kEntryNameE = external constant [0 x i8], align 1
@_ZN3ukm8builders24Event_ScrollUpdate_Touch17kIsMainThreadNameE = external constant [0 x i8], align 1
@_ZN3ukm8builders24Event_ScrollUpdate_Touch18kTimeToHandledNameE = external constant [0 x i8], align 1
@_ZN3ukm8builders24Event_ScrollUpdate_Touch32kTimeToScrollUpdateSwapBeginNameE = external constant [0 x i8], align 1
@.ref.tmp.69 = private constant [3 x %"struct.std::__1::pair.14"] [%"struct.std::__1::pair.14" { i64 1011657010800388108, i8* getelementptr inbounds ([0 x i8], [0 x i8]* @_ZN3ukm8builders24Event_ScrollUpdate_Touch17kIsMainThreadNameE, i32 0, i32 0) }, %"struct.std::__1::pair.14" { i64 -7799494319383070747, i8* getelementptr inbounds ([0 x i8], [0 x i8]* @_ZN3ukm8builders24Event_ScrollUpdate_Touch18kTimeToHandledNameE, i32 0, i32 0) }, %"struct.std::__1::pair.14" { i64 1631660777277694939, i8* getelementptr inbounds ([0 x i8], [0 x i8]* @_ZN3ukm8builders24Event_ScrollUpdate_Touch32kTimeToScrollUpdateSwapBeginNameE, i32 0, i32 0) }], align 8
@_ZN3ukm8builders24Event_ScrollUpdate_Wheel10kEntryNameE = external constant [0 x i8], align 1
@_ZN3ukm8builders24Event_ScrollUpdate_Wheel17kIsMainThreadNameE = external constant [0 x i8], align 1
@_ZN3ukm8builders24Event_ScrollUpdate_Wheel18kTimeToHandledNameE = external constant [0 x i8], align 1
@_ZN3ukm8builders24Event_ScrollUpdate_Wheel32kTimeToScrollUpdateSwapBeginNameE = external constant [0 x i8], align 1
@.ref.tmp.70 = private constant [3 x %"struct.std::__1::pair.14"] [%"struct.std::__1::pair.14" { i64 1011657010800388108, i8* getelementptr inbounds ([0 x i8], [0 x i8]* @_ZN3ukm8builders24Event_ScrollUpdate_Wheel17kIsMainThreadNameE, i32 0, i32 0) }, %"struct.std::__1::pair.14" { i64 -7799494319383070747, i8* getelementptr inbounds ([0 x i8], [0 x i8]* @_ZN3ukm8builders24Event_ScrollUpdate_Wheel18kTimeToHandledNameE, i32 0, i32 0) }, %"struct.std::__1::pair.14" { i64 1631660777277694939, i8* getelementptr inbounds ([0 x i8], [0 x i8]* @_ZN3ukm8builders24Event_ScrollUpdate_Wheel32kTimeToScrollUpdateSwapBeginNameE, i32 0, i32 0) }], align 8
@_ZN3ukm8builders46Extensions_WebRequest_KeepaliveRequestFinished10kEntryNameE = external constant [0 x i8], align 1
@_ZN3ukm8builders46Extensions_WebRequest_KeepaliveRequestFinished17kNumRedirectsNameE = external constant [0 x i8], align 1
@_ZN3ukm8builders46Extensions_WebRequest_KeepaliveRequestFinished10kStateNameE = external constant [0 x i8], align 1
@.ref.tmp.71 = private constant [2 x %"struct.std::__1::pair.14"] [%"struct.std::__1::pair.14" { i64 8673123609428887707, i8* getelementptr inbounds ([0 x i8], [0 x i8]* @_ZN3ukm8builders46Extensions_WebRequest_KeepaliveRequestFinished17kNumRedirectsNameE, i32 0, i32 0) }, %"struct.std::__1::pair.14" { i64 5089810972385038852, i8* getelementptr inbounds ([0 x i8], [0 x i8]* @_ZN3ukm8builders46Extensions_WebRequest_KeepaliveRequestFinished10kStateNameE, i32 0, i32 0) }], align 8
@_ZN3ukm8builders24FileSystemAPI_WebRequest10kEntryNameE = external constant [0 x i8], align 1
@_ZN3ukm8builders24FileSystemAPI_WebRequest15kPersistentNameE = external constant [0 x i8], align 1
@_ZN3ukm8builders24FileSystemAPI_WebRequest14kTemporaryNameE = external constant [0 x i8], align 1
@.ref.tmp.72 = private constant [2 x %"struct.std::__1::pair.14"] [%"struct.std::__1::pair.14" { i64 6910695792866800057, i8* getelementptr inbounds ([0 x i8], [0 x i8]* @_ZN3ukm8builders24FileSystemAPI_WebRequest15kPersistentNameE, i32 0, i32 0) }, %"struct.std::__1::pair.14" { i64 1213822862652674492, i8* getelementptr inbounds ([0 x i8], [0 x i8]* @_ZN3ukm8builders24FileSystemAPI_WebRequest14kTemporaryNameE, i32 0, i32 0) }], align 8
@_ZN3ukm8builders12FlocPageLoad10kEntryNameE = external constant [0 x i8], align 1
@_ZN3ukm8builders12FlocPageLoad11kFlocIdNameE = external constant [0 x i8], align 1
@.ref.tmp.73 = private constant [1 x %"struct.std::__1::pair.14"] [%"struct.std::__1::pair.14" { i64 -6313846726329760401, i8* getelementptr inbounds ([0 x i8], [0 x i8]* @_ZN3ukm8builders12FlocPageLoad11kFlocIdNameE, i32 0, i32 0) }], align 8
@_ZN3ukm8builders17FontMatchAttempts10kEntryNameE = external constant [0 x i8], align 1
@_ZN3ukm8builders17FontMatchAttempts16kLoadContextNameE = external constant [0 x i8], align 1
@_ZN3ukm8builders17FontMatchAttempts22kLocalFontFailuresNameE = external constant [0 x i8], align 1
@_ZN3ukm8builders17FontMatchAttempts23kLocalFontSuccessesNameE = external constant [0 x i8], align 1
@_ZN3ukm8builders17FontMatchAttempts19kLocalFontTotalNameE = external constant [0 x i8], align 1
@_ZN3ukm8builders17FontMatchAttempts29kSystemFontFamilyFailuresNameE = external constant [0 x i8], align 1
@_ZN3ukm8builders17FontMatchAttempts30kSystemFontFamilySuccessesNameE = external constant [0 x i8], align 1
@_ZN3ukm8builders17FontMatchAttempts26kSystemFontFamilyTotalNameE = external constant [0 x i8], align 1
@_ZN3ukm8builders17FontMatchAttempts26kWebFontFamilyFailuresNameE = external constant [0 x i8], align 1
@_ZN3ukm8builders17FontMatchAttempts27kWebFontFamilySuccessesNameE = external constant [0 x i8], align 1
@_ZN3ukm8builders17FontMatchAttempts23kWebFontFamilyTotalNameE = external constant [0 x i8], align 1
@.ref.tmp.74 = private constant [10 x %"struct.std::__1::pair.14"] [%"struct.std::__1::pair.14" { i64 -1554491102685944470, i8* getelementptr inbounds ([0 x i8], [0 x i8]* @_ZN3ukm8builders17FontMatchAttempts16kLoadContextNameE, i32 0, i32 0) }, %"struct.std::__1::pair.14" { i64 -7072551989180742389, i8* getelementptr inbounds ([0 x i8], [0 x i8]* @_ZN3ukm8builders17FontMatchAttempts22kLocalFontFailuresNameE, i32 0, i32 0) }, %"struct.std::__1::pair.14" { i64 3770291609206623888, i8* getelementptr inbounds ([0 x i8], [0 x i8]* @_ZN3ukm8builders17FontMatchAttempts23kLocalFontSuccessesNameE, i32 0, i32 0) }, %"struct.std::__1::pair.14" { i64 -761405033023634829, i8* getelementptr inbounds ([0 x i8], [0 x i8]* @_ZN3ukm8builders17FontMatchAttempts19kLocalFontTotalNameE, i32 0, i32 0) }, %"struct.std::__1::pair.14" { i64 -171598802596782376, i8* getelementptr inbounds ([0 x i8], [0 x i8]* @_ZN3ukm8builders17FontMatchAttempts29kSystemFontFamilyFailuresNameE, i32 0, i32 0) }, %"struct.std::__1::pair.14" { i64 -7603218000280282759, i8* getelementptr inbounds ([0 x i8], [0 x i8]* @_ZN3ukm8builders17FontMatchAttempts30kSystemFontFamilySuccessesNameE, i32 0, i32 0) }, %"struct.std::__1::pair.14" { i64 1182063639024995192, i8* getelementptr inbounds ([0 x i8], [0 x i8]* @_ZN3ukm8builders17FontMatchAttempts26kSystemFontFamilyTotalNameE, i32 0, i32 0) }, %"struct.std::__1::pair.14" { i64 -2629093906206949428, i8* getelementptr inbounds ([0 x i8], [0 x i8]* @_ZN3ukm8builders17FontMatchAttempts26kWebFontFamilyFailuresNameE, i32 0, i32 0) }, %"struct.std::__1::pair.14" { i64 -6785054966263221802, i8* getelementptr inbounds ([0 x i8], [0 x i8]* @_ZN3ukm8builders17FontMatchAttempts27kWebFontFamilySuccessesNameE, i32 0, i32 0) }, %"struct.std::__1::pair.14" { i64 8062248841809542318, i8* getelementptr inbounds ([0 x i8], [0 x i8]* @_ZN3ukm8builders17FontMatchAttempts23kWebFontFamilyTotalNameE, i32 0, i32 0) }], align 8
@_ZN3ukm8builders19GeneratedNavigation10kEntryNameE = external constant [0 x i8], align 1
@_ZN3ukm8builders19GeneratedNavigation34kFinalURLIsDefaultSearchEngineNameE = external constant [0 x i8], align 1
@_ZN3ukm8builders19GeneratedNavigation23kFinalURLIsHomePageNameE = external constant [0 x i8], align 1
@_ZN3ukm8builders19GeneratedNavigation34kFirstURLIsDefaultSearchEngineNameE = external constant [0 x i8], align 1
@_ZN3ukm8builders19GeneratedNavigation23kFirstURLIsHomePageNameE = external constant [0 x i8], align 1
@.ref.tmp.75 = private constant [4 x %"struct.std::__1::pair.14"] [%"struct.std::__1::pair.14" { i64 1036686794479530753, i8* getelementptr inbounds ([0 x i8], [0 x i8]* @_ZN3ukm8builders19GeneratedNavigation34kFinalURLIsDefaultSearchEngineNameE, i32 0, i32 0) }, %"struct.std::__1::pair.14" { i64 1917448393817607381, i8* getelementptr inbounds ([0 x i8], [0 x i8]* @_ZN3ukm8builders19GeneratedNavigation23kFinalURLIsHomePageNameE, i32 0, i32 0) }, %"struct.std::__1::pair.14" { i64 -1557864280643014413, i8* getelementptr inbounds ([0 x i8], [0 x i8]* @_ZN3ukm8builders19GeneratedNavigation34kFirstURLIsDefaultSearchEngineNameE, i32 0, i32 0) }, %"struct.std::__1::pair.14" { i64 7866972537372757464, i8* getelementptr inbounds ([0 x i8], [0 x i8]* @_ZN3ukm8builders19GeneratedNavigation23kFirstURLIsHomePageNameE, i32 0, i32 0) }], align 8
@_ZN3ukm8builders26GoogleDocsOfflineExtension10kEntryNameE = external constant [0 x i8], align 1
@_ZN3ukm8builders26GoogleDocsOfflineExtension22kResourceRequestedNameE = external constant [0 x i8], align 1
@.ref.tmp.76 = private constant [1 x %"struct.std::__1::pair.14"] [%"struct.std::__1::pair.14" { i64 121230110045336584, i8* getelementptr inbounds ([0 x i8], [0 x i8]* @_ZN3ukm8builders26GoogleDocsOfflineExtension22kResourceRequestedNameE, i32 0, i32 0) }], align 8
@_ZN3ukm8builders32Graphics_Smoothness_EventLatency10kEntryNameE = external constant [0 x i8], align 1
@_ZN3ukm8builders32Graphics_Smoothness_EventLatency15kActivationNameE = external constant [0 x i8], align 1
@_ZN3ukm8builders32Graphics_Smoothness_EventLatency39kBeginImplFrameToSendBeginMainFrameNameE = external constant [0 x i8], align 1
@_ZN3ukm8builders32Graphics_Smoothness_EventLatency11kCommitNameE = external constant [0 x i8], align 1
@_ZN3ukm8builders32Graphics_Smoothness_EventLatency39kEndActivateToSubmitCompositorFrameNameE = external constant [0 x i8], align 1
@_ZN3ukm8builders32Graphics_Smoothness_EventLatency26kEndCommitToActivationNameE = external constant [0 x i8], align 1
@_ZN3ukm8builders32Graphics_Smoothness_EventLatency14kEventTypeNameE = external constant [0 x i8], align 1
@_ZN3ukm8builders32Graphics_Smoothness_EventLatency35kGenerationToRendererCompositorNameE = external constant [0 x i8], align 1
@_ZN3ukm8builders32Graphics_Smoothness_EventLatency43kRendererCompositorFinishedToActivationNameE = external constant [0 x i8], align 1
@_ZN3ukm8builders32Graphics_Smoothness_EventLatency47kRendererCompositorFinishedToBeginImplFrameNameE = external constant [0 x i8], align 1
@_ZN3ukm8builders32Graphics_Smoothness_EventLatency39kRendererCompositorFinishedToCommitNameE = external constant [0 x i8], align 1
@_ZN3ukm8builders32Graphics_Smoothness_EventLatency44kRendererCompositorFinishedToEndActivateNameE = external constant [0 x i8], align 1
@_ZN3ukm8builders32Graphics_Smoothness_EventLatency42kRendererCompositorFinishedToEndCommitNameE = external constant [0 x i8], align 1
@_ZN3ukm8builders32Graphics_Smoothness_EventLatency51kRendererCompositorFinishedToSendBeginMainFrameNameE = external constant [0 x i8], align 1
@_ZN3ukm8builders32Graphics_Smoothness_EventLatency54kRendererCompositorFinishedToSubmitCompositorFrameNameE = external constant [0 x i8], align 1
@_ZN3ukm8builders32Graphics_Smoothness_EventLatency33kRendererCompositorProcessingNameE = external constant [0 x i8], align 1
@_ZN3ukm8builders32Graphics_Smoothness_EventLatency36kRendererCompositorQueueingDelayNameE = external constant [0 x i8], align 1
@_ZN3ukm8builders32Graphics_Smoothness_EventLatency29kRendererCompositorToMainNameE = external constant [0 x i8], align 1
@_ZN3ukm8builders32Graphics_Smoothness_EventLatency37kRendererMainFinishedToActivationNameE = external constant [0 x i8], align 1
@_ZN3ukm8builders32Graphics_Smoothness_EventLatency41kRendererMainFinishedToBeginImplFrameNameE = external constant [0 x i8], align 1
@_ZN3ukm8builders32Graphics_Smoothness_EventLatency33kRendererMainFinishedToCommitNameE = external constant [0 x i8], align 1
@_ZN3ukm8builders32Graphics_Smoothness_EventLatency38kRendererMainFinishedToEndActivateNameE = external constant [0 x i8], align 1
@_ZN3ukm8builders32Graphics_Smoothness_EventLatency36kRendererMainFinishedToEndCommitNameE = external constant [0 x i8], align 1
@_ZN3ukm8builders32Graphics_Smoothness_EventLatency45kRendererMainFinishedToSendBeginMainFrameNameE = external constant [0 x i8], align 1
@_ZN3ukm8builders32Graphics_Smoothness_EventLatency48kRendererMainFinishedToSubmitCompositorFrameNameE = external constant [0 x i8], align 1
@_ZN3ukm8builders32Graphics_Smoothness_EventLatency27kRendererMainProcessingNameE = external constant [0 x i8], align 1
@_ZN3ukm8builders32Graphics_Smoothness_EventLatency20kScrollInputTypeNameE = external constant [0 x i8], align 1
@_ZN3ukm8builders32Graphics_Smoothness_EventLatency31kSendBeginMainFrameToCommitNameE = external constant [0 x i8], align 1
@_ZN3ukm8builders32Graphics_Smoothness_EventLatency39kSendBeginMainFrameToCommit_AnimateNameE = external constant [0 x i8], align 1
@_ZN3ukm8builders32Graphics_Smoothness_EventLatency54kSendBeginMainFrameToCommit_BeginMainSentToStartedNameE = external constant [0 x i8], align 1
@_ZN3ukm8builders32Graphics_Smoothness_EventLatency47kSendBeginMainFrameToCommit_CompositeCommitNameE = external constant [0 x i8], align 1
@_ZN3ukm8builders32Graphics_Smoothness_EventLatency54kSendBeginMainFrameToCommit_CompositingAssignmentsNameE = external constant [0 x i8], align 1
@_ZN3ukm8builders32Graphics_Smoothness_EventLatency49kSendBeginMainFrameToCommit_CompositingInputsNameE = external constant [0 x i8], align 1
@_ZN3ukm8builders32Graphics_Smoothness_EventLatency49kSendBeginMainFrameToCommit_HandleInputEventsNameE = external constant [0 x i8], align 1
@_ZN3ukm8builders32Graphics_Smoothness_EventLatency44kSendBeginMainFrameToCommit_LayoutUpdateNameE = external constant [0 x i8], align 1
@_ZN3ukm8builders32Graphics_Smoothness_EventLatency37kSendBeginMainFrameToCommit_PaintNameE = external constant [0 x i8], align 1
@_ZN3ukm8builders32Graphics_Smoothness_EventLatency40kSendBeginMainFrameToCommit_PrepaintNameE = external constant [0 x i8], align 1
@_ZN3ukm8builders32Graphics_Smoothness_EventLatency43kSendBeginMainFrameToCommit_StyleUpdateNameE = external constant [0 x i8], align 1
@_ZN3ukm8builders32Graphics_Smoothness_EventLatency44kSendBeginMainFrameToCommit_UpdateLayersNameE = external constant [0 x i8], align 1
@_ZN3ukm8builders32Graphics_Smoothness_EventLatency55kSubmitCompositorFrameToPresentationCompositorFrameNameE = external constant [0 x i8], align 1
@_ZN3ukm8builders32Graphics_Smoothness_EventLatency84kSubmitCompositorFrameToPresentationCompositorFrame_BufferAvailableToBufferReadyNameE = external constant [0 x i8], align 1
@_ZN3ukm8builders32Graphics_Smoothness_EventLatency74kSubmitCompositorFrameToPresentationCompositorFrame_BufferReadyToLatchNameE = external constant [0 x i8], align 1
@_ZN3ukm8builders32Graphics_Smoothness_EventLatency70kSubmitCompositorFrameToPresentationCompositorFrame_LatchToSwapEndNameE = external constant [0 x i8], align 1
@_ZN3ukm8builders32Graphics_Smoothness_EventLatency90kSubmitCompositorFrameToPresentationCompositorFrame_ReceivedCompositorFrameToStartDrawNameE = external constant [0 x i8], align 1
@_ZN3ukm8builders32Graphics_Smoothness_EventLatency76kSubmitCompositorFrameToPresentationCompositorFrame_StartDrawToSwapStartNameE = external constant [0 x i8], align 1
@_ZN3ukm8builders32Graphics_Smoothness_EventLatency86kSubmitCompositorFrameToPresentationCompositorFrame_SubmitToReceiveCompositorFrameNameE = external constant [0 x i8], align 1
@_ZN3ukm8builders32Graphics_Smoothness_EventLatency92kSubmitCompositorFrameToPresentationCompositorFrame_SwapEndToPresentationCompositorFrameNameE = external constant [0 x i8], align 1
@_ZN3ukm8builders32Graphics_Smoothness_EventLatency82kSubmitCompositorFrameToPresentationCompositorFrame_SwapStartToBufferAvailableNameE = external constant [0 x i8], align 1
@_ZN3ukm8builders32Graphics_Smoothness_EventLatency74kSubmitCompositorFrameToPresentationCompositorFrame_SwapStartToSwapEndNameE = external constant [0 x i8], align 1
@_ZN3ukm8builders32Graphics_Smoothness_EventLatency17kTotalLatencyNameE = external constant [0 x i8], align 1
@_ZN3ukm8builders32Graphics_Smoothness_EventLatency28kTotalLatencyToSwapBeginNameE = external constant [0 x i8], align 1
@.ref.tmp.77 = private constant [50 x %"struct.std::__1::pair.14"] [%"struct.std::__1::pair.14" { i64 -6222234774378099450, i8* getelementptr inbounds ([0 x i8], [0 x i8]* @_ZN3ukm8builders32Graphics_Smoothness_EventLatency15kActivationNameE, i32 0, i32 0) }, %"struct.std::__1::pair.14" { i64 -1438571462482612834, i8* getelementptr inbounds ([0 x i8], [0 x i8]* @_ZN3ukm8builders32Graphics_Smoothness_EventLatency39kBeginImplFrameToSendBeginMainFrameNameE, i32 0, i32 0) }, %"struct.std::__1::pair.14" { i64 6473274705490247427, i8* getelementptr inbounds ([0 x i8], [0 x i8]* @_ZN3ukm8builders32Graphics_Smoothness_EventLatency11kCommitNameE, i32 0, i32 0) }, %"struct.std::__1::pair.14" { i64 -2017835038002759033, i8* getelementptr inbounds ([0 x i8], [0 x i8]* @_ZN3ukm8builders32Graphics_Smoothness_EventLatency39kEndActivateToSubmitCompositorFrameNameE, i32 0, i32 0) }, %"struct.std::__1::pair.14" { i64 3830696727341877188, i8* getelementptr inbounds ([0 x i8], [0 x i8]* @_ZN3ukm8builders32Graphics_Smoothness_EventLatency26kEndCommitToActivationNameE, i32 0, i32 0) }, %"struct.std::__1::pair.14" { i64 5446425777535537951, i8* getelementptr inbounds ([0 x i8], [0 x i8]* @_ZN3ukm8builders32Graphics_Smoothness_EventLatency14kEventTypeNameE, i32 0, i32 0) }, %"struct.std::__1::pair.14" { i64 969682407373868024, i8* getelementptr inbounds ([0 x i8], [0 x i8]* @_ZN3ukm8builders32Graphics_Smoothness_EventLatency35kGenerationToRendererCompositorNameE, i32 0, i32 0) }, %"struct.std::__1::pair.14" { i64 -2518828118962428011, i8* getelementptr inbounds ([0 x i8], [0 x i8]* @_ZN3ukm8builders32Graphics_Smoothness_EventLatency43kRendererCompositorFinishedToActivationNameE, i32 0, i32 0) }, %"struct.std::__1::pair.14" { i64 -6414197523992942526, i8* getelementptr inbounds ([0 x i8], [0 x i8]* @_ZN3ukm8builders32Graphics_Smoothness_EventLatency47kRendererCompositorFinishedToBeginImplFrameNameE, i32 0, i32 0) }, %"struct.std::__1::pair.14" { i64 -8609598447107563612, i8* getelementptr inbounds ([0 x i8], [0 x i8]* @_ZN3ukm8builders32Graphics_Smoothness_EventLatency39kRendererCompositorFinishedToCommitNameE, i32 0, i32 0) }, %"struct.std::__1::pair.14" { i64 -8617757193881688966, i8* getelementptr inbounds ([0 x i8], [0 x i8]* @_ZN3ukm8builders32Graphics_Smoothness_EventLatency44kRendererCompositorFinishedToEndActivateNameE, i32 0, i32 0) }, %"struct.std::__1::pair.14" { i64 4629632394901522803, i8* getelementptr inbounds ([0 x i8], [0 x i8]* @_ZN3ukm8builders32Graphics_Smoothness_EventLatency42kRendererCompositorFinishedToEndCommitNameE, i32 0, i32 0) }, %"struct.std::__1::pair.14" { i64 -1341504685208810726, i8* getelementptr inbounds ([0 x i8], [0 x i8]* @_ZN3ukm8builders32Graphics_Smoothness_EventLatency51kRendererCompositorFinishedToSendBeginMainFrameNameE, i32 0, i32 0) }, %"struct.std::__1::pair.14" { i64 -175312813227600213, i8* getelementptr inbounds ([0 x i8], [0 x i8]* @_ZN3ukm8builders32Graphics_Smoothness_EventLatency54kRendererCompositorFinishedToSubmitCompositorFrameNameE, i32 0, i32 0) }, %"struct.std::__1::pair.14" { i64 5028192811609492297, i8* getelementptr inbounds ([0 x i8], [0 x i8]* @_ZN3ukm8builders32Graphics_Smoothness_EventLatency33kRendererCompositorProcessingNameE, i32 0, i32 0) }, %"struct.std::__1::pair.14" { i64 2468258078399488287, i8* getelementptr inbounds ([0 x i8], [0 x i8]* @_ZN3ukm8builders32Graphics_Smoothness_EventLatency36kRendererCompositorQueueingDelayNameE, i32 0, i32 0) }, %"struct.std::__1::pair.14" { i64 -1170384141888309582, i8* getelementptr inbounds ([0 x i8], [0 x i8]* @_ZN3ukm8builders32Graphics_Smoothness_EventLatency29kRendererCompositorToMainNameE, i32 0, i32 0) }, %"struct.std::__1::pair.14" { i64 -8428720885693889147, i8* getelementptr inbounds ([0 x i8], [0 x i8]* @_ZN3ukm8builders32Graphics_Smoothness_EventLatency37kRendererMainFinishedToActivationNameE, i32 0, i32 0) }, %"struct.std::__1::pair.14" { i64 5159593079225697322, i8* getelementptr inbounds ([0 x i8], [0 x i8]* @_ZN3ukm8builders32Graphics_Smoothness_EventLatency41kRendererMainFinishedToBeginImplFrameNameE, i32 0, i32 0) }, %"struct.std::__1::pair.14" { i64 -8408885758598383399, i8* getelementptr inbounds ([0 x i8], [0 x i8]* @_ZN3ukm8builders32Graphics_Smoothness_EventLatency33kRendererMainFinishedToCommitNameE, i32 0, i32 0) }, %"struct.std::__1::pair.14" { i64 2461849999618300610, i8* getelementptr inbounds ([0 x i8], [0 x i8]* @_ZN3ukm8builders32Graphics_Smoothness_EventLatency38kRendererMainFinishedToEndActivateNameE, i32 0, i32 0) }, %"struct.std::__1::pair.14" { i64 -7970166235303351781, i8* getelementptr inbounds ([0 x i8], [0 x i8]* @_ZN3ukm8builders32Graphics_Smoothness_EventLatency36kRendererMainFinishedToEndCommitNameE, i32 0, i32 0) }, %"struct.std::__1::pair.14" { i64 6474019368894038500, i8* getelementptr inbounds ([0 x i8], [0 x i8]* @_ZN3ukm8builders32Graphics_Smoothness_EventLatency45kRendererMainFinishedToSendBeginMainFrameNameE, i32 0, i32 0) }, %"struct.std::__1::pair.14" { i64 9123582581286357486, i8* getelementptr inbounds ([0 x i8], [0 x i8]* @_ZN3ukm8builders32Graphics_Smoothness_EventLatency48kRendererMainFinishedToSubmitCompositorFrameNameE, i32 0, i32 0) }, %"struct.std::__1::pair.14" { i64 -8156490243296538612, i8* getelementptr inbounds ([0 x i8], [0 x i8]* @_ZN3ukm8builders32Graphics_Smoothness_EventLatency27kRendererMainProcessingNameE, i32 0, i32 0) }, %"struct.std::__1::pair.14" { i64 -1438200440062457035, i8* getelementptr inbounds ([0 x i8], [0 x i8]* @_ZN3ukm8builders32Graphics_Smoothness_EventLatency20kScrollInputTypeNameE, i32 0, i32 0) }, %"struct.std::__1::pair.14" { i64 4533040338292079001, i8* getelementptr inbounds ([0 x i8], [0 x i8]* @_ZN3ukm8builders32Graphics_Smoothness_EventLatency31kSendBeginMainFrameToCommitNameE, i32 0, i32 0) }, %"struct.std::__1::pair.14" { i64 8343767389934127044, i8* getelementptr inbounds ([0 x i8], [0 x i8]* @_ZN3ukm8builders32Graphics_Smoothness_EventLatency39kSendBeginMainFrameToCommit_AnimateNameE, i32 0, i32 0) }, %"struct.std::__1::pair.14" { i64 5384975942974359718, i8* getelementptr inbounds ([0 x i8], [0 x i8]* @_ZN3ukm8builders32Graphics_Smoothness_EventLatency54kSendBeginMainFrameToCommit_BeginMainSentToStartedNameE, i32 0, i32 0) }, %"struct.std::__1::pair.14" { i64 -7870789462505032655, i8* getelementptr inbounds ([0 x i8], [0 x i8]* @_ZN3ukm8builders32Graphics_Smoothness_EventLatency47kSendBeginMainFrameToCommit_CompositeCommitNameE, i32 0, i32 0) }, %"struct.std::__1::pair.14" { i64 6222993175375072104, i8* getelementptr inbounds ([0 x i8], [0 x i8]* @_ZN3ukm8builders32Graphics_Smoothness_EventLatency54kSendBeginMainFrameToCommit_CompositingAssignmentsNameE, i32 0, i32 0) }, %"struct.std::__1::pair.14" { i64 829465320820564719, i8* getelementptr inbounds ([0 x i8], [0 x i8]* @_ZN3ukm8builders32Graphics_Smoothness_EventLatency49kSendBeginMainFrameToCommit_CompositingInputsNameE, i32 0, i32 0) }, %"struct.std::__1::pair.14" { i64 1165118933490711579, i8* getelementptr inbounds ([0 x i8], [0 x i8]* @_ZN3ukm8builders32Graphics_Smoothness_EventLatency49kSendBeginMainFrameToCommit_HandleInputEventsNameE, i32 0, i32 0) }, %"struct.std::__1::pair.14" { i64 -8221135947057414582, i8* getelementptr inbounds ([0 x i8], [0 x i8]* @_ZN3ukm8builders32Graphics_Smoothness_EventLatency44kSendBeginMainFrameToCommit_LayoutUpdateNameE, i32 0, i32 0) }, %"struct.std::__1::pair.14" { i64 232555831202593428, i8* getelementptr inbounds ([0 x i8], [0 x i8]* @_ZN3ukm8builders32Graphics_Smoothness_EventLatency37kSendBeginMainFrameToCommit_PaintNameE, i32 0, i32 0) }, %"struct.std::__1::pair.14" { i64 -4403696163224381983, i8* getelementptr inbounds ([0 x i8], [0 x i8]* @_ZN3ukm8builders32Graphics_Smoothness_EventLatency40kSendBeginMainFrameToCommit_PrepaintNameE, i32 0, i32 0) }, %"struct.std::__1::pair.14" { i64 5007375205011789513, i8* getelementptr inbounds ([0 x i8], [0 x i8]* @_ZN3ukm8builders32Graphics_Smoothness_EventLatency43kSendBeginMainFrameToCommit_StyleUpdateNameE, i32 0, i32 0) }, %"struct.std::__1::pair.14" { i64 6804362734965297093, i8* getelementptr inbounds ([0 x i8], [0 x i8]* @_ZN3ukm8builders32Graphics_Smoothness_EventLatency44kSendBeginMainFrameToCommit_UpdateLayersNameE, i32 0, i32 0) }, %"struct.std::__1::pair.14" { i64 6674140523643808969, i8* getelementptr inbounds ([0 x i8], [0 x i8]* @_ZN3ukm8builders32Graphics_Smoothness_EventLatency55kSubmitCompositorFrameToPresentationCompositorFrameNameE, i32 0, i32 0) }, %"struct.std::__1::pair.14" { i64 607984992502472994, i8* getelementptr inbounds ([0 x i8], [0 x i8]* @_ZN3ukm8builders32Graphics_Smoothness_EventLatency84kSubmitCompositorFrameToPresentationCompositorFrame_BufferAvailableToBufferReadyNameE, i32 0, i32 0) }, %"struct.std::__1::pair.14" { i64 2975991725388751644, i8* getelementptr inbounds ([0 x i8], [0 x i8]* @_ZN3ukm8builders32Graphics_Smoothness_EventLatency74kSubmitCompositorFrameToPresentationCompositorFrame_BufferReadyToLatchNameE, i32 0, i32 0) }, %"struct.std::__1::pair.14" { i64 -8099475967446043595, i8* getelementptr inbounds ([0 x i8], [0 x i8]* @_ZN3ukm8builders32Graphics_Smoothness_EventLatency70kSubmitCompositorFrameToPresentationCompositorFrame_LatchToSwapEndNameE, i32 0, i32 0) }, %"struct.std::__1::pair.14" { i64 -7260727992975809443, i8* getelementptr inbounds ([0 x i8], [0 x i8]* @_ZN3ukm8builders32Graphics_Smoothness_EventLatency90kSubmitCompositorFrameToPresentationCompositorFrame_ReceivedCompositorFrameToStartDrawNameE, i32 0, i32 0) }, %"struct.std::__1::pair.14" { i64 7210524409551472901, i8* getelementptr inbounds ([0 x i8], [0 x i8]* @_ZN3ukm8builders32Graphics_Smoothness_EventLatency76kSubmitCompositorFrameToPresentationCompositorFrame_StartDrawToSwapStartNameE, i32 0, i32 0) }, %"struct.std::__1::pair.14" { i64 -4140269542814261173, i8* getelementptr inbounds ([0 x i8], [0 x i8]* @_ZN3ukm8builders32Graphics_Smoothness_EventLatency86kSubmitCompositorFrameToPresentationCompositorFrame_SubmitToReceiveCompositorFrameNameE, i32 0, i32 0) }, %"struct.std::__1::pair.14" { i64 838162815137783913, i8* getelementptr inbounds ([0 x i8], [0 x i8]* @_ZN3ukm8builders32Graphics_Smoothness_EventLatency92kSubmitCompositorFrameToPresentationCompositorFrame_SwapEndToPresentationCompositorFrameNameE, i32 0, i32 0) }, %"struct.std::__1::pair.14" { i64 6636157383910377693, i8* getelementptr inbounds ([0 x i8], [0 x i8]* @_ZN3ukm8builders32Graphics_Smoothness_EventLatency82kSubmitCompositorFrameToPresentationCompositorFrame_SwapStartToBufferAvailableNameE, i32 0, i32 0) }, %"struct.std::__1::pair.14" { i64 6621395714715301150, i8* getelementptr inbounds ([0 x i8], [0 x i8]* @_ZN3ukm8builders32Graphics_Smoothness_EventLatency74kSubmitCompositorFrameToPresentationCompositorFrame_SwapStartToSwapEndNameE, i32 0, i32 0) }, %"struct.std::__1::pair.14" { i64 1484146670166706245, i8* getelementptr inbounds ([0 x i8], [0 x i8]* @_ZN3ukm8builders32Graphics_Smoothness_EventLatency17kTotalLatencyNameE, i32 0, i32 0) }, %"struct.std::__1::pair.14" { i64 -4687565045750490592, i8* getelementptr inbounds ([0 x i8], [0 x i8]* @_ZN3ukm8builders32Graphics_Smoothness_EventLatency28kTotalLatencyToSwapBeginNameE, i32 0, i32 0) }], align 8
@_ZN3ukm8builders27Graphics_Smoothness_Latency10kEntryNameE = external constant [0 x i8], align 1
@_ZN3ukm8builders27Graphics_Smoothness_Latency15kActivationNameE = external constant [0 x i8], align 1
@_ZN3ukm8builders27Graphics_Smoothness_Latency39kBeginImplFrameToSendBeginMainFrameNameE = external constant [0 x i8], align 1
@_ZN3ukm8builders27Graphics_Smoothness_Latency20kCanvasAnimationNameE = external constant [0 x i8], align 1
@_ZN3ukm8builders27Graphics_Smoothness_Latency11kCommitNameE = external constant [0 x i8], align 1
@_ZN3ukm8builders27Graphics_Smoothness_Latency24kCompositorAnimationNameE = external constant [0 x i8], align 1
@_ZN3ukm8builders27Graphics_Smoothness_Latency39kEndActivateToSubmitCompositorFrameNameE = external constant [0 x i8], align 1
@_ZN3ukm8builders27Graphics_Smoothness_Latency26kEndCommitToActivationNameE = external constant [0 x i8], align 1
@_ZN3ukm8builders27Graphics_Smoothness_Latency16kJSAnimationNameE = external constant [0 x i8], align 1
@_ZN3ukm8builders27Graphics_Smoothness_Latency24kMainThreadAnimationNameE = external constant [0 x i8], align 1
@_ZN3ukm8builders27Graphics_Smoothness_Latency16kMissedFrameNameE = external constant [0 x i8], align 1
@_ZN3ukm8builders27Graphics_Smoothness_Latency14kPinchZoomNameE = external constant [0 x i8], align 1
@_ZN3ukm8builders27Graphics_Smoothness_Latency8kRAFNameE = external constant [0 x i8], align 1
@_ZN3ukm8builders27Graphics_Smoothness_Latency20kScrollbarScrollNameE = external constant [0 x i8], align 1
@_ZN3ukm8builders27Graphics_Smoothness_Latency31kSendBeginMainFrameToCommitNameE = external constant [0 x i8], align 1
@_ZN3ukm8builders27Graphics_Smoothness_Latency39kSendBeginMainFrameToCommit_AnimateNameE = external constant [0 x i8], align 1
@_ZN3ukm8builders27Graphics_Smoothness_Latency54kSendBeginMainFrameToCommit_BeginMainSentToStartedNameE = external constant [0 x i8], align 1
@_ZN3ukm8builders27Graphics_Smoothness_Latency47kSendBeginMainFrameToCommit_CompositeCommitNameE = external constant [0 x i8], align 1
@_ZN3ukm8builders27Graphics_Smoothness_Latency54kSendBeginMainFrameToCommit_CompositingAssignmentsNameE = external constant [0 x i8], align 1
@_ZN3ukm8builders27Graphics_Smoothness_Latency49kSendBeginMainFrameToCommit_CompositingInputsNameE = external constant [0 x i8], align 1
@_ZN3ukm8builders27Graphics_Smoothness_Latency49kSendBeginMainFrameToCommit_HandleInputEventsNameE = external constant [0 x i8], align 1
@_ZN3ukm8builders27Graphics_Smoothness_Latency44kSendBeginMainFrameToCommit_LayoutUpdateNameE = external constant [0 x i8], align 1
@_ZN3ukm8builders27Graphics_Smoothness_Latency37kSendBeginMainFrameToCommit_PaintNameE = external constant [0 x i8], align 1
@_ZN3ukm8builders27Graphics_Smoothness_Latency40kSendBeginMainFrameToCommit_PrepaintNameE = external constant [0 x i8], align 1
@_ZN3ukm8builders27Graphics_Smoothness_Latency43kSendBeginMainFrameToCommit_StyleUpdateNameE = external constant [0 x i8], align 1
@_ZN3ukm8builders27Graphics_Smoothness_Latency44kSendBeginMainFrameToCommit_UpdateLayersNameE = external constant [0 x i8], align 1
@_ZN3ukm8builders27Graphics_Smoothness_Latency55kSubmitCompositorFrameToPresentationCompositorFrameNameE = external constant [0 x i8], align 1
@_ZN3ukm8builders27Graphics_Smoothness_Latency84kSubmitCompositorFrameToPresentationCompositorFrame_BufferAvailableToBufferReadyNameE = external constant [0 x i8], align 1
@_ZN3ukm8builders27Graphics_Smoothness_Latency74kSubmitCompositorFrameToPresentationCompositorFrame_BufferReadyToLatchNameE = external constant [0 x i8], align 1
@_ZN3ukm8builders27Graphics_Smoothness_Latency70kSubmitCompositorFrameToPresentationCompositorFrame_LatchToSwapEndNameE = external constant [0 x i8], align 1
@_ZN3ukm8builders27Graphics_Smoothness_Latency90kSubmitCompositorFrameToPresentationCompositorFrame_ReceivedCompositorFrameToStartDrawNameE = external constant [0 x i8], align 1
@_ZN3ukm8builders27Graphics_Smoothness_Latency76kSubmitCompositorFrameToPresentationCompositorFrame_StartDrawToSwapStartNameE = external constant [0 x i8], align 1
@_ZN3ukm8builders27Graphics_Smoothness_Latency86kSubmitCompositorFrameToPresentationCompositorFrame_SubmitToReceiveCompositorFrameNameE = external constant [0 x i8], align 1
@_ZN3ukm8builders27Graphics_Smoothness_Latency92kSubmitCompositorFrameToPresentationCompositorFrame_SwapEndToPresentationCompositorFrameNameE = external constant [0 x i8], align 1
@_ZN3ukm8builders27Graphics_Smoothness_Latency82kSubmitCompositorFrameToPresentationCompositorFrame_SwapStartToBufferAvailableNameE = external constant [0 x i8], align 1
@_ZN3ukm8builders27Graphics_Smoothness_Latency74kSubmitCompositorFrameToPresentationCompositorFrame_SwapStartToSwapEndNameE = external constant [0 x i8], align 1
@_ZN3ukm8builders27Graphics_Smoothness_Latency17kTotalLatencyNameE = external constant [0 x i8], align 1
@_ZN3ukm8builders27Graphics_Smoothness_Latency16kTouchScrollNameE = external constant [0 x i8], align 1
@_ZN3ukm8builders27Graphics_Smoothness_Latency12kUnknownNameE = external constant [0 x i8], align 1
@_ZN3ukm8builders27Graphics_Smoothness_Latency10kVideoNameE = external constant [0 x i8], align 1
@_ZN3ukm8builders27Graphics_Smoothness_Latency16kWheelScrollNameE = external constant [0 x i8], align 1
@.ref.tmp.78 = private constant [40 x %"struct.std::__1::pair.14"] [%"struct.std::__1::pair.14" { i64 -6222234774378099450, i8* getelementptr inbounds ([0 x i8], [0 x i8]* @_ZN3ukm8builders27Graphics_Smoothness_Latency15kActivationNameE, i32 0, i32 0) }, %"struct.std::__1::pair.14" { i64 -1438571462482612834, i8* getelementptr inbounds ([0 x i8], [0 x i8]* @_ZN3ukm8builders27Graphics_Smoothness_Latency39kBeginImplFrameToSendBeginMainFrameNameE, i32 0, i32 0) }, %"struct.std::__1::pair.14" { i64 1503700410924474831, i8* getelementptr inbounds ([0 x i8], [0 x i8]* @_ZN3ukm8builders27Graphics_Smoothness_Latency20kCanvasAnimationNameE, i32 0, i32 0) }, %"struct.std::__1::pair.14" { i64 6473274705490247427, i8* getelementptr inbounds ([0 x i8], [0 x i8]* @_ZN3ukm8builders27Graphics_Smoothness_Latency11kCommitNameE, i32 0, i32 0) }, %"struct.std::__1::pair.14" { i64 -6606978132311203401, i8* getelementptr inbounds ([0 x i8], [0 x i8]* @_ZN3ukm8builders27Graphics_Smoothness_Latency24kCompositorAnimationNameE, i32 0, i32 0) }, %"struct.std::__1::pair.14" { i64 -2017835038002759033, i8* getelementptr inbounds ([0 x i8], [0 x i8]* @_ZN3ukm8builders27Graphics_Smoothness_Latency39kEndActivateToSubmitCompositorFrameNameE, i32 0, i32 0) }, %"struct.std::__1::pair.14" { i64 3830696727341877188, i8* getelementptr inbounds ([0 x i8], [0 x i8]* @_ZN3ukm8builders27Graphics_Smoothness_Latency26kEndCommitToActivationNameE, i32 0, i32 0) }, %"struct.std::__1::pair.14" { i64 1267442116416858132, i8* getelementptr inbounds ([0 x i8], [0 x i8]* @_ZN3ukm8builders27Graphics_Smoothness_Latency16kJSAnimationNameE, i32 0, i32 0) }, %"struct.std::__1::pair.14" { i64 -861402904306173146, i8* getelementptr inbounds ([0 x i8], [0 x i8]* @_ZN3ukm8builders27Graphics_Smoothness_Latency24kMainThreadAnimationNameE, i32 0, i32 0) }, %"struct.std::__1::pair.14" { i64 4476428804431606583, i8* getelementptr inbounds ([0 x i8], [0 x i8]* @_ZN3ukm8builders27Graphics_Smoothness_Latency16kMissedFrameNameE, i32 0, i32 0) }, %"struct.std::__1::pair.14" { i64 -6382711192811968637, i8* getelementptr inbounds ([0 x i8], [0 x i8]* @_ZN3ukm8builders27Graphics_Smoothness_Latency14kPinchZoomNameE, i32 0, i32 0) }, %"struct.std::__1::pair.14" { i64 5697873212277685907, i8* getelementptr inbounds ([0 x i8], [0 x i8]* @_ZN3ukm8builders27Graphics_Smoothness_Latency8kRAFNameE, i32 0, i32 0) }, %"struct.std::__1::pair.14" { i64 -9140933901941233324, i8* getelementptr inbounds ([0 x i8], [0 x i8]* @_ZN3ukm8builders27Graphics_Smoothness_Latency20kScrollbarScrollNameE, i32 0, i32 0) }, %"struct.std::__1::pair.14" { i64 4533040338292079001, i8* getelementptr inbounds ([0 x i8], [0 x i8]* @_ZN3ukm8builders27Graphics_Smoothness_Latency31kSendBeginMainFrameToCommitNameE, i32 0, i32 0) }, %"struct.std::__1::pair.14" { i64 8343767389934127044, i8* getelementptr inbounds ([0 x i8], [0 x i8]* @_ZN3ukm8builders27Graphics_Smoothness_Latency39kSendBeginMainFrameToCommit_AnimateNameE, i32 0, i32 0) }, %"struct.std::__1::pair.14" { i64 5384975942974359718, i8* getelementptr inbounds ([0 x i8], [0 x i8]* @_ZN3ukm8builders27Graphics_Smoothness_Latency54kSendBeginMainFrameToCommit_BeginMainSentToStartedNameE, i32 0, i32 0) }, %"struct.std::__1::pair.14" { i64 -7870789462505032655, i8* getelementptr inbounds ([0 x i8], [0 x i8]* @_ZN3ukm8builders27Graphics_Smoothness_Latency47kSendBeginMainFrameToCommit_CompositeCommitNameE, i32 0, i32 0) }, %"struct.std::__1::pair.14" { i64 6222993175375072104, i8* getelementptr inbounds ([0 x i8], [0 x i8]* @_ZN3ukm8builders27Graphics_Smoothness_Latency54kSendBeginMainFrameToCommit_CompositingAssignmentsNameE, i32 0, i32 0) }, %"struct.std::__1::pair.14" { i64 829465320820564719, i8* getelementptr inbounds ([0 x i8], [0 x i8]* @_ZN3ukm8builders27Graphics_Smoothness_Latency49kSendBeginMainFrameToCommit_CompositingInputsNameE, i32 0, i32 0) }, %"struct.std::__1::pair.14" { i64 1165118933490711579, i8* getelementptr inbounds ([0 x i8], [0 x i8]* @_ZN3ukm8builders27Graphics_Smoothness_Latency49kSendBeginMainFrameToCommit_HandleInputEventsNameE, i32 0, i32 0) }, %"struct.std::__1::pair.14" { i64 -8221135947057414582, i8* getelementptr inbounds ([0 x i8], [0 x i8]* @_ZN3ukm8builders27Graphics_Smoothness_Latency44kSendBeginMainFrameToCommit_LayoutUpdateNameE, i32 0, i32 0) }, %"struct.std::__1::pair.14" { i64 232555831202593428, i8* getelementptr inbounds ([0 x i8], [0 x i8]* @_ZN3ukm8builders27Graphics_Smoothness_Latency37kSendBeginMainFrameToCommit_PaintNameE, i32 0, i32 0) }, %"struct.std::__1::pair.14" { i64 -4403696163224381983, i8* getelementptr inbounds ([0 x i8], [0 x i8]* @_ZN3ukm8builders27Graphics_Smoothness_Latency40kSendBeginMainFrameToCommit_PrepaintNameE, i32 0, i32 0) }, %"struct.std::__1::pair.14" { i64 5007375205011789513, i8* getelementptr inbounds ([0 x i8], [0 x i8]* @_ZN3ukm8builders27Graphics_Smoothness_Latency43kSendBeginMainFrameToCommit_StyleUpdateNameE, i32 0, i32 0) }, %"struct.std::__1::pair.14" { i64 6804362734965297093, i8* getelementptr inbounds ([0 x i8], [0 x i8]* @_ZN3ukm8builders27Graphics_Smoothness_Latency44kSendBeginMainFrameToCommit_UpdateLayersNameE, i32 0, i32 0) }, %"struct.std::__1::pair.14" { i64 6674140523643808969, i8* getelementptr inbounds ([0 x i8], [0 x i8]* @_ZN3ukm8builders27Graphics_Smoothness_Latency55kSubmitCompositorFrameToPresentationCompositorFrameNameE, i32 0, i32 0) }, %"struct.std::__1::pair.14" { i64 607984992502472994, i8* getelementptr inbounds ([0 x i8], [0 x i8]* @_ZN3ukm8builders27Graphics_Smoothness_Latency84kSubmitCompositorFrameToPresentationCompositorFrame_BufferAvailableToBufferReadyNameE, i32 0, i32 0) }, %"struct.std::__1::pair.14" { i64 2975991725388751644, i8* getelementptr inbounds ([0 x i8], [0 x i8]* @_ZN3ukm8builders27Graphics_Smoothness_Latency74kSubmitCompositorFrameToPresentationCompositorFrame_BufferReadyToLatchNameE, i32 0, i32 0) }, %"struct.std::__1::pair.14" { i64 -8099475967446043595, i8* getelementptr inbounds ([0 x i8], [0 x i8]* @_ZN3ukm8builders27Graphics_Smoothness_Latency70kSubmitCompositorFrameToPresentationCompositorFrame_LatchToSwapEndNameE, i32 0, i32 0) }, %"struct.std::__1::pair.14" { i64 -7260727992975809443, i8* getelementptr inbounds ([0 x i8], [0 x i8]* @_ZN3ukm8builders27Graphics_Smoothness_Latency90kSubmitCompositorFrameToPresentationCompositorFrame_ReceivedCompositorFrameToStartDrawNameE, i32 0, i32 0) }, %"struct.std::__1::pair.14" { i64 7210524409551472901, i8* getelementptr inbounds ([0 x i8], [0 x i8]* @_ZN3ukm8builders27Graphics_Smoothness_Latency76kSubmitCompositorFrameToPresentationCompositorFrame_StartDrawToSwapStartNameE, i32 0, i32 0) }, %"struct.std::__1::pair.14" { i64 -4140269542814261173, i8* getelementptr inbounds ([0 x i8], [0 x i8]* @_ZN3ukm8builders27Graphics_Smoothness_Latency86kSubmitCompositorFrameToPresentationCompositorFrame_SubmitToReceiveCompositorFrameNameE, i32 0, i32 0) }, %"struct.std::__1::pair.14" { i64 838162815137783913, i8* getelementptr inbounds ([0 x i8], [0 x i8]* @_ZN3ukm8builders27Graphics_Smoothness_Latency92kSubmitCompositorFrameToPresentationCompositorFrame_SwapEndToPresentationCompositorFrameNameE, i32 0, i32 0) }, %"struct.std::__1::pair.14" { i64 6636157383910377693, i8* getelementptr inbounds ([0 x i8], [0 x i8]* @_ZN3ukm8builders27Graphics_Smoothness_Latency82kSubmitCompositorFrameToPresentationCompositorFrame_SwapStartToBufferAvailableNameE, i32 0, i32 0) }, %"struct.std::__1::pair.14" { i64 6621395714715301150, i8* getelementptr inbounds ([0 x i8], [0 x i8]* @_ZN3ukm8builders27Graphics_Smoothness_Latency74kSubmitCompositorFrameToPresentationCompositorFrame_SwapStartToSwapEndNameE, i32 0, i32 0) }, %"struct.std::__1::pair.14" { i64 1484146670166706245, i8* getelementptr inbounds ([0 x i8], [0 x i8]* @_ZN3ukm8builders27Graphics_Smoothness_Latency17kTotalLatencyNameE, i32 0, i32 0) }, %"struct.std::__1::pair.14" { i64 -6547178833331699261, i8* getelementptr inbounds ([0 x i8], [0 x i8]* @_ZN3ukm8builders27Graphics_Smoothness_Latency16kTouchScrollNameE, i32 0, i32 0) }, %"struct.std::__1::pair.14" { i64 -8640090376444186392, i8* getelementptr inbounds ([0 x i8], [0 x i8]* @_ZN3ukm8builders27Graphics_Smoothness_Latency12kUnknownNameE, i32 0, i32 0) }, %"struct.std::__1::pair.14" { i64 3810838688059735925, i8* getelementptr inbounds ([0 x i8], [0 x i8]* @_ZN3ukm8builders27Graphics_Smoothness_Latency10kVideoNameE, i32 0, i32 0) }, %"struct.std::__1::pair.14" { i64 82067021580369146, i8* getelementptr inbounds ([0 x i8], [0 x i8]* @_ZN3ukm8builders27Graphics_Smoothness_Latency16kWheelScrollNameE, i32 0, i32 0) }], align 8
@_ZN3ukm8builders50Graphics_Smoothness_NormalizedPercentDroppedFrames10kEntryNameE = external constant [0 x i8], align 1
@_ZN3ukm8builders50Graphics_Smoothness_NormalizedPercentDroppedFrames19kAboveThresholdNameE = external constant [0 x i8], align 1
@_ZN3ukm8builders50Graphics_Smoothness_NormalizedPercentDroppedFrames12kAverageNameE = external constant [0 x i8], align 1
@_ZN3ukm8builders50Graphics_Smoothness_NormalizedPercentDroppedFrames17kPercentile95NameE = external constant [0 x i8], align 1
@_ZN3ukm8builders50Graphics_Smoothness_NormalizedPercentDroppedFrames28kTimingSinceFCPWorstCaseNameE = external constant [0 x i8], align 1
@_ZN3ukm8builders50Graphics_Smoothness_NormalizedPercentDroppedFrames14kWorstCaseNameE = external constant [0 x i8], align 1
@_ZN3ukm8builders50Graphics_Smoothness_NormalizedPercentDroppedFrames23kWorstCaseAfter1SecNameE = external constant [0 x i8], align 1
@_ZN3ukm8builders50Graphics_Smoothness_NormalizedPercentDroppedFrames23kWorstCaseAfter2SecNameE = external constant [0 x i8], align 1
@_ZN3ukm8builders50Graphics_Smoothness_NormalizedPercentDroppedFrames23kWorstCaseAfter5SecNameE = external constant [0 x i8], align 1
@.ref.tmp.79 = private constant [8 x %"struct.std::__1::pair.14"] [%"struct.std::__1::pair.14" { i64 3903388314598942607, i8* getelementptr inbounds ([0 x i8], [0 x i8]* @_ZN3ukm8builders50Graphics_Smoothness_NormalizedPercentDroppedFrames19kAboveThresholdNameE, i32 0, i32 0) }, %"struct.std::__1::pair.14" { i64 -5653859120553875104, i8* getelementptr inbounds ([0 x i8], [0 x i8]* @_ZN3ukm8builders50Graphics_Smoothness_NormalizedPercentDroppedFrames12kAverageNameE, i32 0, i32 0) }, %"struct.std::__1::pair.14" { i64 -95473706345267492, i8* getelementptr inbounds ([0 x i8], [0 x i8]* @_ZN3ukm8builders50Graphics_Smoothness_NormalizedPercentDroppedFrames17kPercentile95NameE, i32 0, i32 0) }, %"struct.std::__1::pair.14" { i64 -4374888869498297118, i8* getelementptr inbounds ([0 x i8], [0 x i8]* @_ZN3ukm8builders50Graphics_Smoothness_NormalizedPercentDroppedFrames28kTimingSinceFCPWorstCaseNameE, i32 0, i32 0) }, %"struct.std::__1::pair.14" { i64 -5812282342618306896, i8* getelementptr inbounds ([0 x i8], [0 x i8]* @_ZN3ukm8builders50Graphics_Smoothness_NormalizedPercentDroppedFrames14kWorstCaseNameE, i32 0, i32 0) }, %"struct.std::__1::pair.14" { i64 6530659958993034807, i8* getelementptr inbounds ([0 x i8], [0 x i8]* @_ZN3ukm8builders50Graphics_Smoothness_NormalizedPercentDroppedFrames23kWorstCaseAfter1SecNameE, i32 0, i32 0) }, %"struct.std::__1::pair.14" { i64 5627268941328769276, i8* getelementptr inbounds ([0 x i8], [0 x i8]* @_ZN3ukm8builders50Graphics_Smoothness_NormalizedPercentDroppedFrames23kWorstCaseAfter2SecNameE, i32 0, i32 0) }, %"struct.std::__1::pair.14" { i64 -2855959208363851255, i8* getelementptr inbounds ([0 x i8], [0 x i8]* @_ZN3ukm8builders50Graphics_Smoothness_NormalizedPercentDroppedFrames23kWorstCaseAfter5SecNameE, i32 0, i32 0) }], align 8
@_ZN3ukm8builders40Graphics_Smoothness_PercentDroppedFrames10kEntryNameE = external constant [0 x i8], align 1
@_ZN3ukm8builders40Graphics_Smoothness_PercentDroppedFrames18kAllAnimationsNameE = external constant [0 x i8], align 1
@_ZN3ukm8builders40Graphics_Smoothness_PercentDroppedFrames20kAllInteractionsNameE = external constant [0 x i8], align 1
@_ZN3ukm8builders40Graphics_Smoothness_PercentDroppedFrames17kAllSequencesNameE = external constant [0 x i8], align 1
@_ZN3ukm8builders40Graphics_Smoothness_PercentDroppedFrames41kCompositorThread_CompositorAnimationNameE = external constant [0 x i8], align 1
@_ZN3ukm8builders40Graphics_Smoothness_PercentDroppedFrames41kCompositorThread_MainThreadAnimationNameE = external constant [0 x i8], align 1
@_ZN3ukm8builders40Graphics_Smoothness_PercentDroppedFrames31kCompositorThread_PinchZoomNameE = external constant [0 x i8], align 1
@_ZN3ukm8builders40Graphics_Smoothness_PercentDroppedFrames25kCompositorThread_RAFNameE = external constant [0 x i8], align 1
@_ZN3ukm8builders40Graphics_Smoothness_PercentDroppedFrames37kCompositorThread_ScrollbarScrollNameE = external constant [0 x i8], align 1
@_ZN3ukm8builders40Graphics_Smoothness_PercentDroppedFrames33kCompositorThread_TouchScrollNameE = external constant [0 x i8], align 1
@_ZN3ukm8builders40Graphics_Smoothness_PercentDroppedFrames27kCompositorThread_VideoNameE = external constant [0 x i8], align 1
@_ZN3ukm8builders40Graphics_Smoothness_PercentDroppedFrames33kCompositorThread_WheelScrollNameE = external constant [0 x i8], align 1
@_ZN3ukm8builders40Graphics_Smoothness_PercentDroppedFrames31kMainThread_CanvasAnimationNameE = external constant [0 x i8], align 1
@_ZN3ukm8builders40Graphics_Smoothness_PercentDroppedFrames35kMainThread_CompositorAnimationNameE = external constant [0 x i8], align 1
@_ZN3ukm8builders40Graphics_Smoothness_PercentDroppedFrames27kMainThread_JSAnimationNameE = external constant [0 x i8], align 1
@_ZN3ukm8builders40Graphics_Smoothness_PercentDroppedFrames35kMainThread_MainThreadAnimationNameE = external constant [0 x i8], align 1
@_ZN3ukm8builders40Graphics_Smoothness_PercentDroppedFrames25kMainThread_PinchZoomNameE = external constant [0 x i8], align 1
@_ZN3ukm8builders40Graphics_Smoothness_PercentDroppedFrames19kMainThread_RAFNameE = external constant [0 x i8], align 1
@_ZN3ukm8builders40Graphics_Smoothness_PercentDroppedFrames31kMainThread_ScrollbarScrollNameE = external constant [0 x i8], align 1
@_ZN3ukm8builders40Graphics_Smoothness_PercentDroppedFrames27kMainThread_TouchScrollNameE = external constant [0 x i8], align 1
@_ZN3ukm8builders40Graphics_Smoothness_PercentDroppedFrames21kMainThread_VideoNameE = external constant [0 x i8], align 1
@_ZN3ukm8builders40Graphics_Smoothness_PercentDroppedFrames27kMainThread_WheelScrollNameE = external constant [0 x i8], align 1
@_ZN3ukm8builders40Graphics_Smoothness_PercentDroppedFrames27kSlowerThread_PinchZoomNameE = external constant [0 x i8], align 1
@.ref.tmp.80 = private constant [22 x %"struct.std::__1::pair.14"] [%"struct.std::__1::pair.14" { i64 -9028099383324516553, i8* getelementptr inbounds ([0 x i8], [0 x i8]* @_ZN3ukm8builders40Graphics_Smoothness_PercentDroppedFrames18kAllAnimationsNameE, i32 0, i32 0) }, %"struct.std::__1::pair.14" { i64 -5397552831675767284, i8* getelementptr inbounds ([0 x i8], [0 x i8]* @_ZN3ukm8builders40Graphics_Smoothness_PercentDroppedFrames20kAllInteractionsNameE, i32 0, i32 0) }, %"struct.std::__1::pair.14" { i64 6028515937420265331, i8* getelementptr inbounds ([0 x i8], [0 x i8]* @_ZN3ukm8builders40Graphics_Smoothness_PercentDroppedFrames17kAllSequencesNameE, i32 0, i32 0) }, %"struct.std::__1::pair.14" { i64 -6937757985265359022, i8* getelementptr inbounds ([0 x i8], [0 x i8]* @_ZN3ukm8builders40Graphics_Smoothness_PercentDroppedFrames41kCompositorThread_CompositorAnimationNameE, i32 0, i32 0) }, %"struct.std::__1::pair.14" { i64 3902324856980997333, i8* getelementptr inbounds ([0 x i8], [0 x i8]* @_ZN3ukm8builders40Graphics_Smoothness_PercentDroppedFrames41kCompositorThread_MainThreadAnimationNameE, i32 0, i32 0) }, %"struct.std::__1::pair.14" { i64 -4419669523406751098, i8* getelementptr inbounds ([0 x i8], [0 x i8]* @_ZN3ukm8builders40Graphics_Smoothness_PercentDroppedFrames31kCompositorThread_PinchZoomNameE, i32 0, i32 0) }, %"struct.std::__1::pair.14" { i64 -8256076933645080429, i8* getelementptr inbounds ([0 x i8], [0 x i8]* @_ZN3ukm8builders40Graphics_Smoothness_PercentDroppedFrames25kCompositorThread_RAFNameE, i32 0, i32 0) }, %"struct.std::__1::pair.14" { i64 -2686175296560124830, i8* getelementptr inbounds ([0 x i8], [0 x i8]* @_ZN3ukm8builders40Graphics_Smoothness_PercentDroppedFrames37kCompositorThread_ScrollbarScrollNameE, i32 0, i32 0) }, %"struct.std::__1::pair.14" { i64 1734389275819109649, i8* getelementptr inbounds ([0 x i8], [0 x i8]* @_ZN3ukm8builders40Graphics_Smoothness_PercentDroppedFrames33kCompositorThread_TouchScrollNameE, i32 0, i32 0) }, %"struct.std::__1::pair.14" { i64 2464666396187755279, i8* getelementptr inbounds ([0 x i8], [0 x i8]* @_ZN3ukm8builders40Graphics_Smoothness_PercentDroppedFrames27kCompositorThread_VideoNameE, i32 0, i32 0) }, %"struct.std::__1::pair.14" { i64 -3333834453562682701, i8* getelementptr inbounds ([0 x i8], [0 x i8]* @_ZN3ukm8builders40Graphics_Smoothness_PercentDroppedFrames33kCompositorThread_WheelScrollNameE, i32 0, i32 0) }, %"struct.std::__1::pair.14" { i64 -7802859726181050341, i8* getelementptr inbounds ([0 x i8], [0 x i8]* @_ZN3ukm8builders40Graphics_Smoothness_PercentDroppedFrames31kMainThread_CanvasAnimationNameE, i32 0, i32 0) }, %"struct.std::__1::pair.14" { i64 1114728914573230140, i8* getelementptr inbounds ([0 x i8], [0 x i8]* @_ZN3ukm8builders40Graphics_Smoothness_PercentDroppedFrames35kMainThread_CompositorAnimationNameE, i32 0, i32 0) }, %"struct.std::__1::pair.14" { i64 3510020179050407317, i8* getelementptr inbounds ([0 x i8], [0 x i8]* @_ZN3ukm8builders40Graphics_Smoothness_PercentDroppedFrames27kMainThread_JSAnimationNameE, i32 0, i32 0) }, %"struct.std::__1::pair.14" { i64 -9029131553310848302, i8* getelementptr inbounds ([0 x i8], [0 x i8]* @_ZN3ukm8builders40Graphics_Smoothness_PercentDroppedFrames35kMainThread_MainThreadAnimationNameE, i32 0, i32 0) }, %"struct.std::__1::pair.14" { i64 8673404319606286985, i8* getelementptr inbounds ([0 x i8], [0 x i8]* @_ZN3ukm8builders40Graphics_Smoothness_PercentDroppedFrames25kMainThread_PinchZoomNameE, i32 0, i32 0) }, %"struct.std::__1::pair.14" { i64 6083877763173548455, i8* getelementptr inbounds ([0 x i8], [0 x i8]* @_ZN3ukm8builders40Graphics_Smoothness_PercentDroppedFrames19kMainThread_RAFNameE, i32 0, i32 0) }, %"struct.std::__1::pair.14" { i64 44152623868955141, i8* getelementptr inbounds ([0 x i8], [0 x i8]* @_ZN3ukm8builders40Graphics_Smoothness_PercentDroppedFrames31kMainThread_ScrollbarScrollNameE, i32 0, i32 0) }, %"struct.std::__1::pair.14" { i64 -1492898929441731024, i8* getelementptr inbounds ([0 x i8], [0 x i8]* @_ZN3ukm8builders40Graphics_Smoothness_PercentDroppedFrames27kMainThread_TouchScrollNameE, i32 0, i32 0) }, %"struct.std::__1::pair.14" { i64 4791323324276332364, i8* getelementptr inbounds ([0 x i8], [0 x i8]* @_ZN3ukm8builders40Graphics_Smoothness_PercentDroppedFrames21kMainThread_VideoNameE, i32 0, i32 0) }, %"struct.std::__1::pair.14" { i64 1226328940498258039, i8* getelementptr inbounds ([0 x i8], [0 x i8]* @_ZN3ukm8builders40Graphics_Smoothness_PercentDroppedFrames27kMainThread_WheelScrollNameE, i32 0, i32 0) }, %"struct.std::__1::pair.14" { i64 -4742124737001493863, i8* getelementptr inbounds ([0 x i8], [0 x i8]* @_ZN3ukm8builders40Graphics_Smoothness_PercentDroppedFrames27kSlowerThread_PinchZoomNameE, i32 0, i32 0) }], align 8
@_ZN3ukm8builders31HistoryManipulationIntervention10kEntryNameE = external constant [0 x i8], align 1
@_ZN3ukm8builders17HistoryNavigation10kEntryNameE = external constant [0 x i8], align 1
@_ZN3ukm8builders17HistoryNavigation84kAverageCumulativeShiftScoreAfterBackForwardCacheRestore_SessionWindow_Gap5000msNameE = external constant [0 x i8], align 1
@_ZN3ukm8builders17HistoryNavigation41kBackForwardCache_BlocklistedFeaturesNameE = external constant [0 x i8], align 1
@_ZN3ukm8builders17HistoryNavigation54kBackForwardCache_BrowsingInstanceNotSwappedReasonNameE = external constant [0 x i8], align 1
@_ZN3ukm8builders17HistoryNavigation59kBackForwardCache_DisabledForRenderFrameHostReasonCountNameE = external constant [0 x i8], align 1
@_ZN3ukm8builders17HistoryNavigation31kBackForwardCache_IsAmpPageNameE = external constant [0 x i8], align 1
@_ZN3ukm8builders17HistoryNavigation50kBackForwardCache_IsServedFromBackForwardCacheNameE = external constant [0 x i8], align 1
@_ZN3ukm8builders17HistoryNavigation40kBackForwardCache_NotRestoredReasonsNameE = external constant [0 x i8], align 1
@_ZN3ukm8builders17HistoryNavigation33kCrossOriginSubframesFeaturesNameE = external constant [0 x i8], align 1
@_ZN3ukm8builders17HistoryNavigation53kCumulativeShiftScoreAfterBackForwardCacheRestoreNameE = external constant [0 x i8], align 1
@_ZN3ukm8builders17HistoryNavigation48kFirstInputDelayAfterBackForwardCacheRestoreNameE = external constant [0 x i8], align 1
@_ZN3ukm8builders17HistoryNavigation59kFirstRequestAnimationFrameAfterBackForwardCacheRestoreNameE = external constant [0 x i8], align 1
@_ZN3ukm8builders17HistoryNavigation67kLastCommittedCrossDocumentNavigationSourceIdForTheSameDocumentNameE = external constant [0 x i8], align 1
@_ZN3ukm8builders17HistoryNavigation44kLastCommittedSourceIdForTheSameDocumentNameE = external constant [0 x i8], align 1
@_ZN3ukm8builders17HistoryNavigation22kMainFrameFeaturesNameE = external constant [0 x i8], align 1
@_ZN3ukm8builders17HistoryNavigation80kMaxCumulativeShiftScoreAfterBackForwardCacheRestore_SessionWindow_Gap1000msNameE = external constant [0 x i8], align 1
@_ZN3ukm8builders17HistoryNavigation90kMaxCumulativeShiftScoreAfterBackForwardCacheRestore_SessionWindow_Gap1000ms_Max5000msNameE = external constant [0 x i8], align 1
@_ZN3ukm8builders17HistoryNavigation98kMaxCumulativeShiftScoreAfterBackForwardCacheRestore_SessionWindowByInputs_Gap1000ms_Max5000msNameE = external constant [0 x i8], align 1
@_ZN3ukm8builders17HistoryNavigation85kMaxCumulativeShiftScoreAfterBackForwardCacheRestore_SlidingWindow_Duration1000msNameE = external constant [0 x i8], align 1
@_ZN3ukm8builders17HistoryNavigation84kMaxCumulativeShiftScoreAfterBackForwardCacheRestore_SlidingWindow_Duration300msNameE = external constant [0 x i8], align 1
@_ZN3ukm8builders17HistoryNavigation45kNavigatedToTheMostRecentEntryForDocumentNameE = external constant [0 x i8], align 1
@_ZN3ukm8builders17HistoryNavigation55kNavigationToFirstPaintAfterBackForwardCacheRestoreNameE = external constant [0 x i8], align 1
@_ZN3ukm8builders17HistoryNavigation32kSameOriginSubframesFeaturesNameE = external constant [0 x i8], align 1
@_ZN3ukm8builders17HistoryNavigation60kSecondRequestAnimationFrameAfterBackForwardCacheRestoreNameE = external constant [0 x i8], align 1
@_ZN3ukm8builders17HistoryNavigation59kThirdRequestAnimationFrameAfterBackForwardCacheRestoreNameE = external constant [0 x i8], align 1
@_ZN3ukm8builders17HistoryNavigation39kTimeSinceNavigatedAwayFromDocumentNameE = external constant [0 x i8], align 1
@.ref.tmp.81 = private constant [25 x %"struct.std::__1::pair.14"] [%"struct.std::__1::pair.14" { i64 -2953353777888851865, i8* getelementptr inbounds ([0 x i8], [0 x i8]* @_ZN3ukm8builders17HistoryNavigation84kAverageCumulativeShiftScoreAfterBackForwardCacheRestore_SessionWindow_Gap5000msNameE, i32 0, i32 0) }, %"struct.std::__1::pair.14" { i64 114784820077506701, i8* getelementptr inbounds ([0 x i8], [0 x i8]* @_ZN3ukm8builders17HistoryNavigation41kBackForwardCache_BlocklistedFeaturesNameE, i32 0, i32 0) }, %"struct.std::__1::pair.14" { i64 15224206336538316, i8* getelementptr inbounds ([0 x i8], [0 x i8]* @_ZN3ukm8builders17HistoryNavigation54kBackForwardCache_BrowsingInstanceNotSwappedReasonNameE, i32 0, i32 0) }, %"struct.std::__1::pair.14" { i64 -3195481317854157115, i8* getelementptr inbounds ([0 x i8], [0 x i8]* @_ZN3ukm8builders17HistoryNavigation59kBackForwardCache_DisabledForRenderFrameHostReasonCountNameE, i32 0, i32 0) }, %"struct.std::__1::pair.14" { i64 4085141071540433903, i8* getelementptr inbounds ([0 x i8], [0 x i8]* @_ZN3ukm8builders17HistoryNavigation31kBackForwardCache_IsAmpPageNameE, i32 0, i32 0) }, %"struct.std::__1::pair.14" { i64 4696927693770382140, i8* getelementptr inbounds ([0 x i8], [0 x i8]* @_ZN3ukm8builders17HistoryNavigation50kBackForwardCache_IsServedFromBackForwardCacheNameE, i32 0, i32 0) }, %"struct.std::__1::pair.14" { i64 1788460300115305264, i8* getelementptr inbounds ([0 x i8], [0 x i8]* @_ZN3ukm8builders17HistoryNavigation40kBackForwardCache_NotRestoredReasonsNameE, i32 0, i32 0) }, %"struct.std::__1::pair.14" { i64 -2609527674850797468, i8* getelementptr inbounds ([0 x i8], [0 x i8]* @_ZN3ukm8builders17HistoryNavigation33kCrossOriginSubframesFeaturesNameE, i32 0, i32 0) }, %"struct.std::__1::pair.14" { i64 4082107668430352853, i8* getelementptr inbounds ([0 x i8], [0 x i8]* @_ZN3ukm8builders17HistoryNavigation53kCumulativeShiftScoreAfterBackForwardCacheRestoreNameE, i32 0, i32 0) }, %"struct.std::__1::pair.14" { i64 6232396995651525280, i8* getelementptr inbounds ([0 x i8], [0 x i8]* @_ZN3ukm8builders17HistoryNavigation48kFirstInputDelayAfterBackForwardCacheRestoreNameE, i32 0, i32 0) }, %"struct.std::__1::pair.14" { i64 3321594754409068745, i8* getelementptr inbounds ([0 x i8], [0 x i8]* @_ZN3ukm8builders17HistoryNavigation59kFirstRequestAnimationFrameAfterBackForwardCacheRestoreNameE, i32 0, i32 0) }, %"struct.std::__1::pair.14" { i64 -7496442293781257206, i8* getelementptr inbounds ([0 x i8], [0 x i8]* @_ZN3ukm8builders17HistoryNavigation67kLastCommittedCrossDocumentNavigationSourceIdForTheSameDocumentNameE, i32 0, i32 0) }, %"struct.std::__1::pair.14" { i64 1687479106038719889, i8* getelementptr inbounds ([0 x i8], [0 x i8]* @_ZN3ukm8builders17HistoryNavigation44kLastCommittedSourceIdForTheSameDocumentNameE, i32 0, i32 0) }, %"struct.std::__1::pair.14" { i64 277837253456542220, i8* getelementptr inbounds ([0 x i8], [0 x i8]* @_ZN3ukm8builders17HistoryNavigation22kMainFrameFeaturesNameE, i32 0, i32 0) }, %"struct.std::__1::pair.14" { i64 -8112379848468011368, i8* getelementptr inbounds ([0 x i8], [0 x i8]* @_ZN3ukm8builders17HistoryNavigation80kMaxCumulativeShiftScoreAfterBackForwardCacheRestore_SessionWindow_Gap1000msNameE, i32 0, i32 0) }, %"struct.std::__1::pair.14" { i64 -2362154082038118369, i8* getelementptr inbounds ([0 x i8], [0 x i8]* @_ZN3ukm8builders17HistoryNavigation90kMaxCumulativeShiftScoreAfterBackForwardCacheRestore_SessionWindow_Gap1000ms_Max5000msNameE, i32 0, i32 0) }, %"struct.std::__1::pair.14" { i64 5255191360372776599, i8* getelementptr inbounds ([0 x i8], [0 x i8]* @_ZN3ukm8builders17HistoryNavigation98kMaxCumulativeShiftScoreAfterBackForwardCacheRestore_SessionWindowByInputs_Gap1000ms_Max5000msNameE, i32 0, i32 0) }, %"struct.std::__1::pair.14" { i64 3814244528271931262, i8* getelementptr inbounds ([0 x i8], [0 x i8]* @_ZN3ukm8builders17HistoryNavigation85kMaxCumulativeShiftScoreAfterBackForwardCacheRestore_SlidingWindow_Duration1000msNameE, i32 0, i32 0) }, %"struct.std::__1::pair.14" { i64 -2889292232177839629, i8* getelementptr inbounds ([0 x i8], [0 x i8]* @_ZN3ukm8builders17HistoryNavigation84kMaxCumulativeShiftScoreAfterBackForwardCacheRestore_SlidingWindow_Duration300msNameE, i32 0, i32 0) }, %"struct.std::__1::pair.14" { i64 -1460760721778262271, i8* getelementptr inbounds ([0 x i8], [0 x i8]* @_ZN3ukm8builders17HistoryNavigation45kNavigatedToTheMostRecentEntryForDocumentNameE, i32 0, i32 0) }, %"struct.std::__1::pair.14" { i64 8986422447916353406, i8* getelementptr inbounds ([0 x i8], [0 x i8]* @_ZN3ukm8builders17HistoryNavigation55kNavigationToFirstPaintAfterBackForwardCacheRestoreNameE, i32 0, i32 0) }, %"struct.std::__1::pair.14" { i64 3171771254759560933, i8* getelementptr inbounds ([0 x i8], [0 x i8]* @_ZN3ukm8builders17HistoryNavigation32kSameOriginSubframesFeaturesNameE, i32 0, i32 0) }, %"struct.std::__1::pair.14" { i64 78690090811193125, i8* getelementptr inbounds ([0 x i8], [0 x i8]* @_ZN3ukm8builders17HistoryNavigation60kSecondRequestAnimationFrameAfterBackForwardCacheRestoreNameE, i32 0, i32 0) }, %"struct.std::__1::pair.14" { i64 2281099162348055178, i8* getelementptr inbounds ([0 x i8], [0 x i8]* @_ZN3ukm8builders17HistoryNavigation59kThirdRequestAnimationFrameAfterBackForwardCacheRestoreNameE, i32 0, i32 0) }, %"struct.std::__1::pair.14" { i64 -1052375548038460466, i8* getelementptr inbounds ([0 x i8], [0 x i8]* @_ZN3ukm8builders17HistoryNavigation39kTimeSinceNavigatedAwayFromDocumentNameE, i32 0, i32 0) }], align 8
@_ZN3ukm8builders15Identifiability10kEntryNameE = external constant [0 x i8], align 1
@_ZN3ukm8builders15Identifiability25kGeneratorVersion_926NameE = external constant [0 x i8], align 1
@_ZN3ukm8builders15Identifiability24kStudyGeneration_626NameE = external constant [0 x i8], align 1
@.ref.tmp.82 = private constant [2 x %"struct.std::__1::pair.14"] [%"struct.std::__1::pair.14" { i64 896956215682477568, i8* getelementptr inbounds ([0 x i8], [0 x i8]* @_ZN3ukm8builders15Identifiability25kGeneratorVersion_926NameE, i32 0, i32 0) }, %"struct.std::__1::pair.14" { i64 -7265558706860759040, i8* getelementptr inbounds ([0 x i8], [0 x i8]* @_ZN3ukm8builders15Identifiability24kStudyGeneration_626NameE, i32 0, i32 0) }], align 8
@_ZN3ukm8builders10InputEvent10kEntryNameE = external constant [0 x i8], align 1
@_ZN3ukm8builders10InputEvent14kEventTypeNameE = external constant [0 x i8], align 1
@_ZN3ukm8builders10InputEvent33kInteractiveTiming_InputDelayNameE = external constant [0 x i8], align 1
@_ZN3ukm8builders10InputEvent52kInteractiveTiming_ProcessingFinishedToNextPaintNameE = external constant [0 x i8], align 1
@_ZN3ukm8builders10InputEvent37kInteractiveTiming_ProcessingTimeNameE = external constant [0 x i8], align 1
@.ref.tmp.83 = private constant [4 x %"struct.std::__1::pair.14"] [%"struct.std::__1::pair.14" { i64 5446425777535537951, i8* getelementptr inbounds ([0 x i8], [0 x i8]* @_ZN3ukm8builders10InputEvent14kEventTypeNameE, i32 0, i32 0) }, %"struct.std::__1::pair.14" { i64 4816242175536355714, i8* getelementptr inbounds ([0 x i8], [0 x i8]* @_ZN3ukm8builders10InputEvent33kInteractiveTiming_InputDelayNameE, i32 0, i32 0) }, %"struct.std::__1::pair.14" { i64 -9200502536449615870, i8* getelementptr inbounds ([0 x i8], [0 x i8]* @_ZN3ukm8builders10InputEvent52kInteractiveTiming_ProcessingFinishedToNextPaintNameE, i32 0, i32 0) }, %"struct.std::__1::pair.14" { i64 7806768776702689257, i8* getelementptr inbounds ([0 x i8], [0 x i8]* @_ZN3ukm8builders10InputEvent37kInteractiveTiming_ProcessingTimeNameE, i32 0, i32 0) }], align 8
@_ZN3ukm8builders27InputMethod_NonCompliantApi10kEntryNameE = external constant [0 x i8], align 1
@_ZN3ukm8builders27InputMethod_NonCompliantApi26kNonCompliantOperationNameE = external constant [0 x i8], align 1
@.ref.tmp.84 = private constant [1 x %"struct.std::__1::pair.14"] [%"struct.std::__1::pair.14" { i64 4174906312331753936, i8* getelementptr inbounds ([0 x i8], [0 x i8]* @_ZN3ukm8builders27InputMethod_NonCompliantApi26kNonCompliantOperationNameE, i32 0, i32 0) }], align 8
@_ZN3ukm8builders20InstalledRelatedApps10kEntryNameE = external constant [0 x i8], align 1
@_ZN3ukm8builders20InstalledRelatedApps11kCalledNameE = external constant [0 x i8], align 1
@.ref.tmp.85 = private constant [1 x %"struct.std::__1::pair.14"] [%"struct.std::__1::pair.14" { i64 3312022293166359599, i8* getelementptr inbounds ([0 x i8], [0 x i8]* @_ZN3ukm8builders20InstalledRelatedApps11kCalledNameE, i32 0, i32 0) }], align 8
@_ZN3ukm8builders38Intervention_DocumentWrite_ScriptBlock10kEntryNameE = external constant [0 x i8], align 1
@_ZN3ukm8builders38Intervention_DocumentWrite_ScriptBlock20kDisabled_ReloadNameE = external constant [0 x i8], align 1
@_ZN3ukm8builders38Intervention_DocumentWrite_ScriptBlock63kParseTiming_ParseBlockedOnScriptExecutionFromDocumentWriteNameE = external constant [0 x i8], align 1
@_ZN3ukm8builders38Intervention_DocumentWrite_ScriptBlock58kParseTiming_ParseBlockedOnScriptLoadFromDocumentWriteNameE = external constant [0 x i8], align 1
@.ref.tmp.86 = private constant [3 x %"struct.std::__1::pair.14"] [%"struct.std::__1::pair.14" { i64 3949106941696904177, i8* getelementptr inbounds ([0 x i8], [0 x i8]* @_ZN3ukm8builders38Intervention_DocumentWrite_ScriptBlock20kDisabled_ReloadNameE, i32 0, i32 0) }, %"struct.std::__1::pair.14" { i64 -2439344440470859485, i8* getelementptr inbounds ([0 x i8], [0 x i8]* @_ZN3ukm8builders38Intervention_DocumentWrite_ScriptBlock63kParseTiming_ParseBlockedOnScriptExecutionFromDocumentWriteNameE, i32 0, i32 0) }, %"struct.std::__1::pair.14" { i64 310867285454477562, i8* getelementptr inbounds ([0 x i8], [0 x i8]* @_ZN3ukm8builders38Intervention_DocumentWrite_ScriptBlock58kParseTiming_ParseBlockedOnScriptLoadFromDocumentWriteNameE, i32 0, i32 0) }], align 8
@_ZN3ukm8builders27IOS_FindInPageSearchMatches10kEntryNameE = external constant [0 x i8], align 1
@_ZN3ukm8builders27IOS_FindInPageSearchMatches15kHasMatchesNameE = external constant [0 x i8], align 1
@.ref.tmp.87 = private constant [1 x %"struct.std::__1::pair.14"] [%"struct.std::__1::pair.14" { i64 7077976188191291377, i8* getelementptr inbounds ([0 x i8], [0 x i8]* @_ZN3ukm8builders27IOS_FindInPageSearchMatches15kHasMatchesNameE, i32 0, i32 0) }], align 8
@_ZN3ukm8builders20IOS_IsDefaultBrowser10kEntryNameE = external constant [0 x i8], align 1
@_ZN3ukm8builders20IOS_IsDefaultBrowser21kIsDefaultBrowserNameE = external constant [0 x i8], align 1
@.ref.tmp.88 = private constant [1 x %"struct.std::__1::pair.14"] [%"struct.std::__1::pair.14" { i64 7467500293102567370, i8* getelementptr inbounds ([0 x i8], [0 x i8]* @_ZN3ukm8builders20IOS_IsDefaultBrowser21kIsDefaultBrowserNameE, i32 0, i32 0) }], align 8
@_ZN3ukm8builders26IOS_PageAddedToReadingList10kEntryNameE = external constant [0 x i8], align 1
@_ZN3ukm8builders26IOS_PageAddedToReadingList22kAddedFromMessagesNameE = external constant [0 x i8], align 1
@.ref.tmp.89 = private constant [1 x %"struct.std::__1::pair.14"] [%"struct.std::__1::pair.14" { i64 1961682952303606781, i8* getelementptr inbounds ([0 x i8], [0 x i8]* @_ZN3ukm8builders26IOS_PageAddedToReadingList22kAddedFromMessagesNameE, i32 0, i32 0) }], align 8
@_ZN3ukm8builders19IOS_PageZoomChanged10kEntryNameE = external constant [0 x i8], align 1
@_ZN3ukm8builders19IOS_PageZoomChanged24kContentSizeCategoryNameE = external constant [0 x i8], align 1
@_ZN3ukm8builders19IOS_PageZoomChanged21kOverallZoomLevelNameE = external constant [0 x i8], align 1
@_ZN3ukm8builders19IOS_PageZoomChanged18kUserZoomLevelNameE = external constant [0 x i8], align 1
@.ref.tmp.90 = private constant [3 x %"struct.std::__1::pair.14"] [%"struct.std::__1::pair.14" { i64 -1221819292678835268, i8* getelementptr inbounds ([0 x i8], [0 x i8]* @_ZN3ukm8builders19IOS_PageZoomChanged24kContentSizeCategoryNameE, i32 0, i32 0) }, %"struct.std::__1::pair.14" { i64 2817337295596296593, i8* getelementptr inbounds ([0 x i8], [0 x i8]* @_ZN3ukm8builders19IOS_PageZoomChanged21kOverallZoomLevelNameE, i32 0, i32 0) }, %"struct.std::__1::pair.14" { i64 -4646137384120486660, i8* getelementptr inbounds ([0 x i8], [0 x i8]* @_ZN3ukm8builders19IOS_PageZoomChanged18kUserZoomLevelNameE, i32 0, i32 0) }], align 8
@_ZN3ukm8builders16IOS_RendererGone10kEntryNameE = external constant [0 x i8], align 1
@_ZN3ukm8builders16IOS_RendererGone31kAliveRecentlyRendererCountNameE = external constant [0 x i8], align 1
@_ZN3ukm8builders16IOS_RendererGone23kAliveRendererCountNameE = external constant [0 x i8], align 1
@_ZN3ukm8builders16IOS_RendererGone17kInForegroundNameE = external constant [0 x i8], align 1
@_ZN3ukm8builders16IOS_RendererGone21kSawMemoryWarningNameE = external constant [0 x i8], align 1
@.ref.tmp.91 = private constant [4 x %"struct.std::__1::pair.14"] [%"struct.std::__1::pair.14" { i64 -3513297367713644004, i8* getelementptr inbounds ([0 x i8], [0 x i8]* @_ZN3ukm8builders16IOS_RendererGone31kAliveRecentlyRendererCountNameE, i32 0, i32 0) }, %"struct.std::__1::pair.14" { i64 4517554268483005232, i8* getelementptr inbounds ([0 x i8], [0 x i8]* @_ZN3ukm8builders16IOS_RendererGone23kAliveRendererCountNameE, i32 0, i32 0) }, %"struct.std::__1::pair.14" { i64 -2359422670769985558, i8* getelementptr inbounds ([0 x i8], [0 x i8]* @_ZN3ukm8builders16IOS_RendererGone17kInForegroundNameE, i32 0, i32 0) }, %"struct.std::__1::pair.14" { i64 449336318584050538, i8* getelementptr inbounds ([0 x i8], [0 x i8]* @_ZN3ukm8builders16IOS_RendererGone21kSawMemoryWarningNameE, i32 0, i32 0) }], align 8
@_ZN3ukm8builders47IOS_URLMismatchInLegacyAndSlimNavigationManager10kEntryNameE = external constant [0 x i8], align 1
@_ZN3ukm8builders47IOS_URLMismatchInLegacyAndSlimNavigationManager16kHasMismatchNameE = external constant [0 x i8], align 1
@.ref.tmp.92 = private constant [1 x %"struct.std::__1::pair.14"] [%"struct.std::__1::pair.14" { i64 -4076799325396717595, i8* getelementptr inbounds ([0 x i8], [0 x i8]* @_ZN3ukm8builders47IOS_URLMismatchInLegacyAndSlimNavigationManager16kHasMismatchNameE, i32 0, i32 0) }], align 8
@_ZN3ukm8builders27JavascriptFrameworkPageLoad10kEntryNameE = external constant [0 x i8], align 1
@_ZN3ukm8builders27JavascriptFrameworkPageLoad19kNextJSPageLoadNameE = external constant [0 x i8], align 1
@.ref.tmp.93 = private constant [1 x %"struct.std::__1::pair.14"] [%"struct.std::__1::pair.14" { i64 5823716105324724425, i8* getelementptr inbounds ([0 x i8], [0 x i8]* @_ZN3ukm8builders27JavascriptFrameworkPageLoad19kNextJSPageLoadNameE, i32 0, i32 0) }], align 8
@_ZN3ukm8builders33Layout_DisplayCutout_StateChanged10kEntryNameE = external constant [0 x i8], align 1
@_ZN3ukm8builders33Layout_DisplayCutout_StateChanged16kIsMainFrameNameE = external constant [0 x i8], align 1
@_ZN3ukm8builders33Layout_DisplayCutout_StateChanged21kSafeAreasPresentNameE = external constant [0 x i8], align 1
@_ZN3ukm8builders33Layout_DisplayCutout_StateChanged24kViewportFit_AppliedNameE = external constant [0 x i8], align 1
@_ZN3ukm8builders33Layout_DisplayCutout_StateChanged30kViewportFit_IgnoredReasonNameE = external constant [0 x i8], align 1
@_ZN3ukm8builders33Layout_DisplayCutout_StateChanged25kViewportFit_SuppliedNameE = external constant [0 x i8], align 1
@.ref.tmp.94 = private constant [5 x %"struct.std::__1::pair.14"] [%"struct.std::__1::pair.14" { i64 7266626398784684486, i8* getelementptr inbounds ([0 x i8], [0 x i8]* @_ZN3ukm8builders33Layout_DisplayCutout_StateChanged16kIsMainFrameNameE, i32 0, i32 0) }, %"struct.std::__1::pair.14" { i64 -3664158593403221753, i8* getelementptr inbounds ([0 x i8], [0 x i8]* @_ZN3ukm8builders33Layout_DisplayCutout_StateChanged21kSafeAreasPresentNameE, i32 0, i32 0) }, %"struct.std::__1::pair.14" { i64 3174683684013141815, i8* getelementptr inbounds ([0 x i8], [0 x i8]* @_ZN3ukm8builders33Layout_DisplayCutout_StateChanged24kViewportFit_AppliedNameE, i32 0, i32 0) }, %"struct.std::__1::pair.14" { i64 -7808213337105535679, i8* getelementptr inbounds ([0 x i8], [0 x i8]* @_ZN3ukm8builders33Layout_DisplayCutout_StateChanged30kViewportFit_IgnoredReasonNameE, i32 0, i32 0) }, %"struct.std::__1::pair.14" { i64 3782339936139345310, i8* getelementptr inbounds ([0 x i8], [0 x i8]* @_ZN3ukm8builders33Layout_DisplayCutout_StateChanged25kViewportFit_SuppliedNameE, i32 0, i32 0) }], align 8
@_ZN3ukm8builders9LiteVideo10kEntryNameE = external constant [0 x i8], align 1
@_ZN3ukm8builders9LiteVideo20kBlocklistReasonNameE = external constant [0 x i8], align 1
@_ZN3ukm8builders9LiteVideo21kThrottlingResultNameE = external constant [0 x i8], align 1
@_ZN3ukm8builders9LiteVideo28kThrottlingStartDecisionNameE = external constant [0 x i8], align 1
@.ref.tmp.95 = private constant [3 x %"struct.std::__1::pair.14"] [%"struct.std::__1::pair.14" { i64 -450236461298637694, i8* getelementptr inbounds ([0 x i8], [0 x i8]* @_ZN3ukm8builders9LiteVideo20kBlocklistReasonNameE, i32 0, i32 0) }, %"struct.std::__1::pair.14" { i64 -3958203392011785889, i8* getelementptr inbounds ([0 x i8], [0 x i8]* @_ZN3ukm8builders9LiteVideo21kThrottlingResultNameE, i32 0, i32 0) }, %"struct.std::__1::pair.14" { i64 1058583389352749283, i8* getelementptr inbounds ([0 x i8], [0 x i8]* @_ZN3ukm8builders9LiteVideo28kThrottlingStartDecisionNameE, i32 0, i32 0) }], align 8
@_ZN3ukm8builders29LoadCountsPerTopLevelDocument10kEntryNameE = external constant [0 x i8], align 1
@_ZN3ukm8builders29LoadCountsPerTopLevelDocument41kNumMainFrameSameDocumentLoads_HiddenNameE = external constant [0 x i8], align 1
@_ZN3ukm8builders29LoadCountsPerTopLevelDocument42kNumMainFrameSameDocumentLoads_VisibleNameE = external constant [0 x i8], align 1
@_ZN3ukm8builders29LoadCountsPerTopLevelDocument45kNumSubFrameDifferentDocumentLoads_HiddenNameE = external constant [0 x i8], align 1
@_ZN3ukm8builders29LoadCountsPerTopLevelDocument46kNumSubFrameDifferentDocumentLoads_VisibleNameE = external constant [0 x i8], align 1
@_ZN3ukm8builders29LoadCountsPerTopLevelDocument40kNumSubFrameSameDocumentLoads_HiddenNameE = external constant [0 x i8], align 1
@_ZN3ukm8builders29LoadCountsPerTopLevelDocument41kNumSubFrameSameDocumentLoads_VisibleNameE = external constant [0 x i8], align 1
@.ref.tmp.96 = private constant [6 x %"struct.std::__1::pair.14"] [%"struct.std::__1::pair.14" { i64 -2138363647889781700, i8* getelementptr inbounds ([0 x i8], [0 x i8]* @_ZN3ukm8builders29LoadCountsPerTopLevelDocument41kNumMainFrameSameDocumentLoads_HiddenNameE, i32 0, i32 0) }, %"struct.std::__1::pair.14" { i64 -135008512755525648, i8* getelementptr inbounds ([0 x i8], [0 x i8]* @_ZN3ukm8builders29LoadCountsPerTopLevelDocument42kNumMainFrameSameDocumentLoads_VisibleNameE, i32 0, i32 0) }, %"struct.std::__1::pair.14" { i64 -3714907352167372174, i8* getelementptr inbounds ([0 x i8], [0 x i8]* @_ZN3ukm8builders29LoadCountsPerTopLevelDocument45kNumSubFrameDifferentDocumentLoads_HiddenNameE, i32 0, i32 0) }, %"struct.std::__1::pair.14" { i64 3665858183442379349, i8* getelementptr inbounds ([0 x i8], [0 x i8]* @_ZN3ukm8builders29LoadCountsPerTopLevelDocument46kNumSubFrameDifferentDocumentLoads_VisibleNameE, i32 0, i32 0) }, %"struct.std::__1::pair.14" { i64 1725595575573050, i8* getelementptr inbounds ([0 x i8], [0 x i8]* @_ZN3ukm8builders29LoadCountsPerTopLevelDocument40kNumSubFrameSameDocumentLoads_HiddenNameE, i32 0, i32 0) }, %"struct.std::__1::pair.14" { i64 6499928911562111241, i8* getelementptr inbounds ([0 x i8], [0 x i8]* @_ZN3ukm8builders29LoadCountsPerTopLevelDocument41kNumSubFrameSameDocumentLoads_VisibleNameE, i32 0, i32 0) }], align 8
@_ZN3ukm8builders16LoadingPredictor10kEntryNameE = external constant [0 x i8], align 1
@_ZN3ukm8builders16LoadingPredictor49kCorrectSubresourceOriginPreconnectsInitiatedNameE = external constant [0 x i8], align 1
@_ZN3ukm8builders16LoadingPredictor42kCorrectSubresourcePrefetchesInitiatedNameE = external constant [0 x i8], align 1
@_ZN3ukm8builders16LoadingPredictor45kLocalPredictionCorrectlyPredictedOriginsNameE = external constant [0 x i8], align 1
@_ZN3ukm8builders16LoadingPredictor27kLocalPredictionOriginsNameE = external constant [0 x i8], align 1
@_ZN3ukm8builders16LoadingPredictor55kNavigationStartToFirstSubresourcePrefetchInitiatedNameE = external constant [0 x i8], align 1
@_ZN3ukm8builders16LoadingPredictor38kNavigationStartToNavigationCommitNameE = external constant [0 x i8], align 1
@_ZN3ukm8builders16LoadingPredictor56kNavigationStartToOptimizationGuidePredictionArrivedNameE = external constant [0 x i8], align 1
@_ZN3ukm8builders16LoadingPredictor57kOptimizationGuidePredictionCorrectlyPredictedOriginsNameE = external constant [0 x i8], align 1
@_ZN3ukm8builders16LoadingPredictor62kOptimizationGuidePredictionCorrectlyPredictedSubresourcesNameE = external constant [0 x i8], align 1
@_ZN3ukm8builders16LoadingPredictor40kOptimizationGuidePredictionDecisionNameE = external constant [0 x i8], align 1
@_ZN3ukm8builders16LoadingPredictor39kOptimizationGuidePredictionOriginsNameE = external constant [0 x i8], align 1
@_ZN3ukm8builders16LoadingPredictor44kOptimizationGuidePredictionSubresourcesNameE = external constant [0 x i8], align 1
@_ZN3ukm8builders16LoadingPredictor42kSubresourceOriginPreconnectsInitiatedNameE = external constant [0 x i8], align 1
@_ZN3ukm8builders16LoadingPredictor35kSubresourcePrefetchesInitiatedNameE = external constant [0 x i8], align 1
@.ref.tmp.97 = private constant [14 x %"struct.std::__1::pair.14"] [%"struct.std::__1::pair.14" { i64 -7427897888146135507, i8* getelementptr inbounds ([0 x i8], [0 x i8]* @_ZN3ukm8builders16LoadingPredictor49kCorrectSubresourceOriginPreconnectsInitiatedNameE, i32 0, i32 0) }, %"struct.std::__1::pair.14" { i64 7523816529585587032, i8* getelementptr inbounds ([0 x i8], [0 x i8]* @_ZN3ukm8builders16LoadingPredictor42kCorrectSubresourcePrefetchesInitiatedNameE, i32 0, i32 0) }, %"struct.std::__1::pair.14" { i64 -6556351423108848682, i8* getelementptr inbounds ([0 x i8], [0 x i8]* @_ZN3ukm8builders16LoadingPredictor45kLocalPredictionCorrectlyPredictedOriginsNameE, i32 0, i32 0) }, %"struct.std::__1::pair.14" { i64 4632708717020315528, i8* getelementptr inbounds ([0 x i8], [0 x i8]* @_ZN3ukm8builders16LoadingPredictor27kLocalPredictionOriginsNameE, i32 0, i32 0) }, %"struct.std::__1::pair.14" { i64 -4545990411969251710, i8* getelementptr inbounds ([0 x i8], [0 x i8]* @_ZN3ukm8builders16LoadingPredictor55kNavigationStartToFirstSubresourcePrefetchInitiatedNameE, i32 0, i32 0) }, %"struct.std::__1::pair.14" { i64 3398767228309508687, i8* getelementptr inbounds ([0 x i8], [0 x i8]* @_ZN3ukm8builders16LoadingPredictor38kNavigationStartToNavigationCommitNameE, i32 0, i32 0) }, %"struct.std::__1::pair.14" { i64 -7370846435851585134, i8* getelementptr inbounds ([0 x i8], [0 x i8]* @_ZN3ukm8builders16LoadingPredictor56kNavigationStartToOptimizationGuidePredictionArrivedNameE, i32 0, i32 0) }, %"struct.std::__1::pair.14" { i64 -4762444435477504445, i8* getelementptr inbounds ([0 x i8], [0 x i8]* @_ZN3ukm8builders16LoadingPredictor57kOptimizationGuidePredictionCorrectlyPredictedOriginsNameE, i32 0, i32 0) }, %"struct.std::__1::pair.14" { i64 -8068239199329424469, i8* getelementptr inbounds ([0 x i8], [0 x i8]* @_ZN3ukm8builders16LoadingPredictor62kOptimizationGuidePredictionCorrectlyPredictedSubresourcesNameE, i32 0, i32 0) }, %"struct.std::__1::pair.14" { i64 -3109530226196708770, i8* getelementptr inbounds ([0 x i8], [0 x i8]* @_ZN3ukm8builders16LoadingPredictor40kOptimizationGuidePredictionDecisionNameE, i32 0, i32 0) }, %"struct.std::__1::pair.14" { i64 -2622279300901699593, i8* getelementptr inbounds ([0 x i8], [0 x i8]* @_ZN3ukm8builders16LoadingPredictor39kOptimizationGuidePredictionOriginsNameE, i32 0, i32 0) }, %"struct.std::__1::pair.14" { i64 -2077319125898193724, i8* getelementptr inbounds ([0 x i8], [0 x i8]* @_ZN3ukm8builders16LoadingPredictor44kOptimizationGuidePredictionSubresourcesNameE, i32 0, i32 0) }, %"struct.std::__1::pair.14" { i64 207068642963595880, i8* getelementptr inbounds ([0 x i8], [0 x i8]* @_ZN3ukm8builders16LoadingPredictor42kSubresourceOriginPreconnectsInitiatedNameE, i32 0, i32 0) }, %"struct.std::__1::pair.14" { i64 -9216673082076669597, i8* getelementptr inbounds ([0 x i8], [0 x i8]* @_ZN3ukm8builders16LoadingPredictor35kSubresourcePrefetchesInitiatedNameE, i32 0, i32 0) }], align 8
@_ZN3ukm8builders20LocalNetworkRequests10kEntryNameE = external constant [0 x i8], align 1
@_ZN3ukm8builders20LocalNetworkRequests17kCount_FailedNameE = external constant [0 x i8], align 1
@_ZN3ukm8builders20LocalNetworkRequests21kCount_SuccessfulNameE = external constant [0 x i8], align 1
@_ZN3ukm8builders20LocalNetworkRequests13kPortTypeNameE = external constant [0 x i8], align 1
@_ZN3ukm8builders20LocalNetworkRequests17kResourceTypeNameE = external constant [0 x i8], align 1
@.ref.tmp.98 = private constant [4 x %"struct.std::__1::pair.14"] [%"struct.std::__1::pair.14" { i64 4332170555344799116, i8* getelementptr inbounds ([0 x i8], [0 x i8]* @_ZN3ukm8builders20LocalNetworkRequests17kCount_FailedNameE, i32 0, i32 0) }, %"struct.std::__1::pair.14" { i64 7366317784072625071, i8* getelementptr inbounds ([0 x i8], [0 x i8]* @_ZN3ukm8builders20LocalNetworkRequests21kCount_SuccessfulNameE, i32 0, i32 0) }, %"struct.std::__1::pair.14" { i64 8660532902729963646, i8* getelementptr inbounds ([0 x i8], [0 x i8]* @_ZN3ukm8builders20LocalNetworkRequests13kPortTypeNameE, i32 0, i32 0) }, %"struct.std::__1::pair.14" { i64 -4997139087611094522, i8* getelementptr inbounds ([0 x i8], [0 x i8]* @_ZN3ukm8builders20LocalNetworkRequests17kResourceTypeNameE, i32 0, i32 0) }], align 8
@_ZN3ukm8builders14LoginDetection10kEntryNameE = external constant [0 x i8], align 1
@_ZN3ukm8builders14LoginDetection19kPage_LoginTypeNameE = external constant [0 x i8], align 1
@.ref.tmp.99 = private constant [1 x %"struct.std::__1::pair.14"] [%"struct.std::__1::pair.14" { i64 -7597028838640939580, i8* getelementptr inbounds ([0 x i8], [0 x i8]* @_ZN3ukm8builders14LoginDetection19kPage_LoginTypeNameE, i32 0, i32 0) }], align 8
@_ZN3ukm8builders33LookalikeUrl_NavigationSuggestion10kEntryNameE = external constant [0 x i8], align 1
@_ZN3ukm8builders33LookalikeUrl_NavigationSuggestion14kMatchTypeNameE = external constant [0 x i8], align 1
@_ZN3ukm8builders33LookalikeUrl_NavigationSuggestion26kTriggeredByInitialUrlNameE = external constant [0 x i8], align 1
@_ZN3ukm8builders33LookalikeUrl_NavigationSuggestion15kUserActionNameE = external constant [0 x i8], align 1
@.ref.tmp.100 = private constant [3 x %"struct.std::__1::pair.14"] [%"struct.std::__1::pair.14" { i64 -7265048508063063705, i8* getelementptr inbounds ([0 x i8], [0 x i8]* @_ZN3ukm8builders33LookalikeUrl_NavigationSuggestion14kMatchTypeNameE, i32 0, i32 0) }, %"struct.std::__1::pair.14" { i64 -7007770822355133978, i8* getelementptr inbounds ([0 x i8], [0 x i8]* @_ZN3ukm8builders33LookalikeUrl_NavigationSuggestion26kTriggeredByInitialUrlNameE, i32 0, i32 0) }, %"struct.std::__1::pair.14" { i64 -7015036799894001729, i8* getelementptr inbounds ([0 x i8], [0 x i8]* @_ZN3ukm8builders33LookalikeUrl_NavigationSuggestion15kUserActionNameE, i32 0, i32 0) }], align 8
@_ZN3ukm8builders19MainFrameNavigation10kEntryNameE = external constant [0 x i8], align 1
@_ZN3ukm8builders19MainFrameNavigation14kDidCommitNameE = external constant [0 x i8], align 1
@.ref.tmp.101 = private constant [1 x %"struct.std::__1::pair.14"] [%"struct.std::__1::pair.14" { i64 -3356440681081020386, i8* getelementptr inbounds ([0 x i8], [0 x i8]* @_ZN3ukm8builders19MainFrameNavigation14kDidCommitNameE, i32 0, i32 0) }], align 8
@_ZN3ukm8builders22Media_Autoplay_Attempt10kEntryNameE = external constant [0 x i8], align 1
@_ZN3ukm8builders22Media_Autoplay_Attempt15kAudioTrackNameE = external constant [0 x i8], align 1
@_ZN3ukm8builders22Media_Autoplay_Attempt24kHighMediaEngagementNameE = external constant [0 x i8], align 1
@_ZN3ukm8builders22Media_Autoplay_Attempt10kMutedNameE = external constant [0 x i8], align 1
@_ZN3ukm8builders22Media_Autoplay_Attempt11kSourceNameE = external constant [0 x i8], align 1
@_ZN3ukm8builders22Media_Autoplay_Attempt24kUserGestureRequiredNameE = external constant [0 x i8], align 1
@_ZN3ukm8builders22Media_Autoplay_Attempt22kUserGestureStatusNameE = external constant [0 x i8], align 1
@_ZN3ukm8builders22Media_Autoplay_Attempt15kVideoTrackNameE = external constant [0 x i8], align 1
@.ref.tmp.102 = private constant [7 x %"struct.std::__1::pair.14"] [%"struct.std::__1::pair.14" { i64 -6705349843200939990, i8* getelementptr inbounds ([0 x i8], [0 x i8]* @_ZN3ukm8builders22Media_Autoplay_Attempt15kAudioTrackNameE, i32 0, i32 0) }, %"struct.std::__1::pair.14" { i64 7387526769811817505, i8* getelementptr inbounds ([0 x i8], [0 x i8]* @_ZN3ukm8builders22Media_Autoplay_Attempt24kHighMediaEngagementNameE, i32 0, i32 0) }, %"struct.std::__1::pair.14" { i64 8116925261070264013, i8* getelementptr inbounds ([0 x i8], [0 x i8]* @_ZN3ukm8builders22Media_Autoplay_Attempt10kMutedNameE, i32 0, i32 0) }, %"struct.std::__1::pair.14" { i64 -928940189757711412, i8* getelementptr inbounds ([0 x i8], [0 x i8]* @_ZN3ukm8builders22Media_Autoplay_Attempt11kSourceNameE, i32 0, i32 0) }, %"struct.std::__1::pair.14" { i64 -23554150635596784, i8* getelementptr inbounds ([0 x i8], [0 x i8]* @_ZN3ukm8builders22Media_Autoplay_Attempt24kUserGestureRequiredNameE, i32 0, i32 0) }, %"struct.std::__1::pair.14" { i64 -1328024993513557222, i8* getelementptr inbounds ([0 x i8], [0 x i8]* @_ZN3ukm8builders22Media_Autoplay_Attempt22kUserGestureStatusNameE, i32 0, i32 0) }, %"struct.std::__1::pair.14" { i64 4366426770158320744, i8* getelementptr inbounds ([0 x i8], [0 x i8]* @_ZN3ukm8builders22Media_Autoplay_Attempt15kVideoTrackNameE, i32 0, i32 0) }], align 8
@_ZN3ukm8builders27Media_Autoplay_AudioContext10kEntryNameE = external constant [0 x i8], align 1
@_ZN3ukm8builders27Media_Autoplay_AudioContext22kSourceNodeStartedNameE = external constant [0 x i8], align 1
@_ZN3ukm8builders27Media_Autoplay_AudioContext11kStatusNameE = external constant [0 x i8], align 1
@_ZN3ukm8builders27Media_Autoplay_AudioContext15kUnlockTypeNameE = external constant [0 x i8], align 1
@.ref.tmp.103 = private constant [3 x %"struct.std::__1::pair.14"] [%"struct.std::__1::pair.14" { i64 -7943562630226843404, i8* getelementptr inbounds ([0 x i8], [0 x i8]* @_ZN3ukm8builders27Media_Autoplay_AudioContext22kSourceNodeStartedNameE, i32 0, i32 0) }, %"struct.std::__1::pair.14" { i64 -1417603893889880363, i8* getelementptr inbounds ([0 x i8], [0 x i8]* @_ZN3ukm8builders27Media_Autoplay_AudioContext11kStatusNameE, i32 0, i32 0) }, %"struct.std::__1::pair.14" { i64 -6928997731922843387, i8* getelementptr inbounds ([0 x i8], [0 x i8]* @_ZN3ukm8builders27Media_Autoplay_AudioContext15kUnlockTypeNameE, i32 0, i32 0) }], align 8
@_ZN3ukm8builders33Media_Autoplay_Muted_UnmuteAction10kEntryNameE = external constant [0 x i8], align 1
@_ZN3ukm8builders33Media_Autoplay_Muted_UnmuteAction11kResultNameE = external constant [0 x i8], align 1
@_ZN3ukm8builders33Media_Autoplay_Muted_UnmuteAction11kSourceNameE = external constant [0 x i8], align 1
@.ref.tmp.104 = private constant [2 x %"struct.std::__1::pair.14"] [%"struct.std::__1::pair.14" { i64 -8148592787988159167, i8* getelementptr inbounds ([0 x i8], [0 x i8]* @_ZN3ukm8builders33Media_Autoplay_Muted_UnmuteAction11kResultNameE, i32 0, i32 0) }, %"struct.std::__1::pair.14" { i64 -928940189757711412, i8* getelementptr inbounds ([0 x i8], [0 x i8]* @_ZN3ukm8builders33Media_Autoplay_Muted_UnmuteAction11kSourceNameE, i32 0, i32 0) }], align 8
@_ZN3ukm8builders19Media_BasicPlayback10kEntryNameE = external constant [0 x i8], align 1
@_ZN3ukm8builders19Media_BasicPlayback15kAudioCodecNameE = external constant [0 x i8], align 1
@_ZN3ukm8builders19Media_BasicPlayback22kAudioCodecProfileNameE = external constant [0 x i8], align 1
@_ZN3ukm8builders19Media_BasicPlayback21kAudioDecoderNameNameE = external constant [0 x i8], align 1
@_ZN3ukm8builders19Media_BasicPlayback26kAudioEncryptionSchemeNameE = external constant [0 x i8], align 1
@_ZN3ukm8builders19Media_BasicPlayback22kAutoplayInitiatedNameE = external constant [0 x i8], align 1
@_ZN3ukm8builders19Media_BasicPlayback28kCompletedRebuffersCountNameE = external constant [0 x i8], align 1
@_ZN3ukm8builders19Media_BasicPlayback31kCompletedRebuffersDurationNameE = external constant [0 x i8], align 1
@_ZN3ukm8builders19Media_BasicPlayback13kDurationNameE = external constant [0 x i8], align 1
@_ZN3ukm8builders19Media_BasicPlayback13kHasAudioNameE = external constant [0 x i8], align 1
@_ZN3ukm8builders19Media_BasicPlayback13kHasVideoNameE = external constant [0 x i8], align 1
@_ZN3ukm8builders19Media_BasicPlayback17kIsBackgroundNameE = external constant [0 x i8], align 1
@_ZN3ukm8builders19Media_BasicPlayback10kIsEMENameE = external constant [0 x i8], align 1
@_ZN3ukm8builders19Media_BasicPlayback10kIsMSENameE = external constant [0 x i8], align 1
@_ZN3ukm8builders19Media_BasicPlayback12kIsMutedNameE = external constant [0 x i8], align 1
@_ZN3ukm8builders19Media_BasicPlayback15kIsTopFrameNameE = external constant [0 x i8], align 1
@_ZN3ukm8builders19Media_BasicPlayback23kLastPipelineStatusNameE = external constant [0 x i8], align 1
@_ZN3ukm8builders19Media_BasicPlayback29kMeanTimeBetweenRebuffersNameE = external constant [0 x i8], align 1
@_ZN3ukm8builders19Media_BasicPlayback20kMediaStreamTypeNameE = external constant [0 x i8], align 1
@_ZN3ukm8builders19Media_BasicPlayback13kPlayerIDNameE = external constant [0 x i8], align 1
@_ZN3ukm8builders19Media_BasicPlayback19kRebuffersCountNameE = external constant [0 x i8], align 1
@_ZN3ukm8builders19Media_BasicPlayback15kVideoCodecNameE = external constant [0 x i8], align 1
@_ZN3ukm8builders19Media_BasicPlayback22kVideoCodecProfileNameE = external constant [0 x i8], align 1
@_ZN3ukm8builders19Media_BasicPlayback21kVideoDecoderNameNameE = external constant [0 x i8], align 1
@_ZN3ukm8builders19Media_BasicPlayback26kVideoEncryptionSchemeNameE = external constant [0 x i8], align 1
@_ZN3ukm8builders19Media_BasicPlayback23kVideoFramesDecodedNameE = external constant [0 x i8], align 1
@_ZN3ukm8builders19Media_BasicPlayback23kVideoFramesDroppedNameE = external constant [0 x i8], align 1
@_ZN3ukm8builders19Media_BasicPlayback23kVideoNaturalHeightNameE = external constant [0 x i8], align 1
@_ZN3ukm8builders19Media_BasicPlayback22kVideoNaturalWidthNameE = external constant [0 x i8], align 1
@_ZN3ukm8builders19Media_BasicPlayback14kWatchTimeNameE = external constant [0 x i8], align 1
@_ZN3ukm8builders19Media_BasicPlayback17kWatchTime_ACNameE = external constant [0 x i8], align 1
@_ZN3ukm8builders19Media_BasicPlayback22kWatchTime_BatteryNameE = external constant [0 x i8], align 1
@_ZN3ukm8builders19Media_BasicPlayback32kWatchTime_DisplayFullscreenNameE = external constant [0 x i8], align 1
@_ZN3ukm8builders19Media_BasicPlayback28kWatchTime_DisplayInlineNameE = external constant [0 x i8], align 1
@_ZN3ukm8builders19Media_BasicPlayback38kWatchTime_DisplayPictureInPictureNameE = external constant [0 x i8], align 1
@_ZN3ukm8builders19Media_BasicPlayback32kWatchTime_NativeControlsOffNameE = external constant [0 x i8], align 1
@_ZN3ukm8builders19Media_BasicPlayback31kWatchTime_NativeControlsOnNameE = external constant [0 x i8], align 1
@.ref.tmp.105 = private constant [36 x %"struct.std::__1::pair.14"] [%"struct.std::__1::pair.14" { i64 1465592132233517979, i8* getelementptr inbounds ([0 x i8], [0 x i8]* @_ZN3ukm8builders19Media_BasicPlayback15kAudioCodecNameE, i32 0, i32 0) }, %"struct.std::__1::pair.14" { i64 -2929631274817699308, i8* getelementptr inbounds ([0 x i8], [0 x i8]* @_ZN3ukm8builders19Media_BasicPlayback22kAudioCodecProfileNameE, i32 0, i32 0) }, %"struct.std::__1::pair.14" { i64 7400968670179001125, i8* getelementptr inbounds ([0 x i8], [0 x i8]* @_ZN3ukm8builders19Media_BasicPlayback21kAudioDecoderNameNameE, i32 0, i32 0) }, %"struct.std::__1::pair.14" { i64 -9167351353953922401, i8* getelementptr inbounds ([0 x i8], [0 x i8]* @_ZN3ukm8builders19Media_BasicPlayback26kAudioEncryptionSchemeNameE, i32 0, i32 0) }, %"struct.std::__1::pair.14" { i64 5475295434443958193, i8* getelementptr inbounds ([0 x i8], [0 x i8]* @_ZN3ukm8builders19Media_BasicPlayback22kAutoplayInitiatedNameE, i32 0, i32 0) }, %"struct.std::__1::pair.14" { i64 -7044875935678694765, i8* getelementptr inbounds ([0 x i8], [0 x i8]* @_ZN3ukm8builders19Media_BasicPlayback28kCompletedRebuffersCountNameE, i32 0, i32 0) }, %"struct.std::__1::pair.14" { i64 7260457768772866332, i8* getelementptr inbounds ([0 x i8], [0 x i8]* @_ZN3ukm8builders19Media_BasicPlayback31kCompletedRebuffersDurationNameE, i32 0, i32 0) }, %"struct.std::__1::pair.14" { i64 -2293129492661939053, i8* getelementptr inbounds ([0 x i8], [0 x i8]* @_ZN3ukm8builders19Media_BasicPlayback13kDurationNameE, i32 0, i32 0) }, %"struct.std::__1::pair.14" { i64 -7338747157668480936, i8* getelementptr inbounds ([0 x i8], [0 x i8]* @_ZN3ukm8builders19Media_BasicPlayback13kHasAudioNameE, i32 0, i32 0) }, %"struct.std::__1::pair.14" { i64 -4278339220731645575, i8* getelementptr inbounds ([0 x i8], [0 x i8]* @_ZN3ukm8builders19Media_BasicPlayback13kHasVideoNameE, i32 0, i32 0) }, %"struct.std::__1::pair.14" { i64 5213574143647769765, i8* getelementptr inbounds ([0 x i8], [0 x i8]* @_ZN3ukm8builders19Media_BasicPlayback17kIsBackgroundNameE, i32 0, i32 0) }, %"struct.std::__1::pair.14" { i64 -8843195487093934755, i8* getelementptr inbounds ([0 x i8], [0 x i8]* @_ZN3ukm8builders19Media_BasicPlayback10kIsEMENameE, i32 0, i32 0) }, %"struct.std::__1::pair.14" { i64 1649159027333078910, i8* getelementptr inbounds ([0 x i8], [0 x i8]* @_ZN3ukm8builders19Media_BasicPlayback10kIsMSENameE, i32 0, i32 0) }, %"struct.std::__1::pair.14" { i64 -2136648277644203997, i8* getelementptr inbounds ([0 x i8], [0 x i8]* @_ZN3ukm8builders19Media_BasicPlayback12kIsMutedNameE, i32 0, i32 0) }, %"struct.std::__1::pair.14" { i64 -6369837800898122785, i8* getelementptr inbounds ([0 x i8], [0 x i8]* @_ZN3ukm8builders19Media_BasicPlayback15kIsTopFrameNameE, i32 0, i32 0) }, %"struct.std::__1::pair.14" { i64 7379597174511267180, i8* getelementptr inbounds ([0 x i8], [0 x i8]* @_ZN3ukm8builders19Media_BasicPlayback23kLastPipelineStatusNameE, i32 0, i32 0) }, %"struct.std::__1::pair.14" { i64 4184550771348788496, i8* getelementptr inbounds ([0 x i8], [0 x i8]* @_ZN3ukm8builders19Media_BasicPlayback29kMeanTimeBetweenRebuffersNameE, i32 0, i32 0) }, %"struct.std::__1::pair.14" { i64 -3091729381921401524, i8* getelementptr inbounds ([0 x i8], [0 x i8]* @_ZN3ukm8builders19Media_BasicPlayback20kMediaStreamTypeNameE, i32 0, i32 0) }, %"struct.std::__1::pair.14" { i64 -3720519674257034696, i8* getelementptr inbounds ([0 x i8], [0 x i8]* @_ZN3ukm8builders19Media_BasicPlayback13kPlayerIDNameE, i32 0, i32 0) }, %"struct.std::__1::pair.14" { i64 -4639672959801653903, i8* getelementptr inbounds ([0 x i8], [0 x i8]* @_ZN3ukm8builders19Media_BasicPlayback19kRebuffersCountNameE, i32 0, i32 0) }, %"struct.std::__1::pair.14" { i64 4277283989099800257, i8* getelementptr inbounds ([0 x i8], [0 x i8]* @_ZN3ukm8builders19Media_BasicPlayback15kVideoCodecNameE, i32 0, i32 0) }, %"struct.std::__1::pair.14" { i64 -4896820163345984077, i8* getelementptr inbounds ([0 x i8], [0 x i8]* @_ZN3ukm8builders19Media_BasicPlayback22kVideoCodecProfileNameE, i32 0, i32 0) }, %"struct.std::__1::pair.14" { i64 2955371204855076682, i8* getelementptr inbounds ([0 x i8], [0 x i8]* @_ZN3ukm8builders19Media_BasicPlayback21kVideoDecoderNameNameE, i32 0, i32 0) }, %"struct.std::__1::pair.14" { i64 8020364149971333246, i8* getelementptr inbounds ([0 x i8], [0 x i8]* @_ZN3ukm8builders19Media_BasicPlayback26kVideoEncryptionSchemeNameE, i32 0, i32 0) }, %"struct.std::__1::pair.14" { i64 5249207403669740374, i8* getelementptr inbounds ([0 x i8], [0 x i8]* @_ZN3ukm8builders19Media_BasicPlayback23kVideoFramesDecodedNameE, i32 0, i32 0) }, %"struct.std::__1::pair.14" { i64 -1614171539137602913, i8* getelementptr inbounds ([0 x i8], [0 x i8]* @_ZN3ukm8builders19Media_BasicPlayback23kVideoFramesDroppedNameE, i32 0, i32 0) }, %"struct.std::__1::pair.14" { i64 1900038218584603521, i8* getelementptr inbounds ([0 x i8], [0 x i8]* @_ZN3ukm8builders19Media_BasicPlayback23kVideoNaturalHeightNameE, i32 0, i32 0) }, %"struct.std::__1::pair.14" { i64 7910695112651016017, i8* getelementptr inbounds ([0 x i8], [0 x i8]* @_ZN3ukm8builders19Media_BasicPlayback22kVideoNaturalWidthNameE, i32 0, i32 0) }, %"struct.std::__1::pair.14" { i64 4238353176698564424, i8* getelementptr inbounds ([0 x i8], [0 x i8]* @_ZN3ukm8builders19Media_BasicPlayback14kWatchTimeNameE, i32 0, i32 0) }, %"struct.std::__1::pair.14" { i64 -6200995123923494965, i8* getelementptr inbounds ([0 x i8], [0 x i8]* @_ZN3ukm8builders19Media_BasicPlayback17kWatchTime_ACNameE, i32 0, i32 0) }, %"struct.std::__1::pair.14" { i64 4816984999048658540, i8* getelementptr inbounds ([0 x i8], [0 x i8]* @_ZN3ukm8builders19Media_BasicPlayback22kWatchTime_BatteryNameE, i32 0, i32 0) }, %"struct.std::__1::pair.14" { i64 -819505212320410011, i8* getelementptr inbounds ([0 x i8], [0 x i8]* @_ZN3ukm8builders19Media_BasicPlayback32kWatchTime_DisplayFullscreenNameE, i32 0, i32 0) }, %"struct.std::__1::pair.14" { i64 6904900890184958698, i8* getelementptr inbounds ([0 x i8], [0 x i8]* @_ZN3ukm8builders19Media_BasicPlayback28kWatchTime_DisplayInlineNameE, i32 0, i32 0) }, %"struct.std::__1::pair.14" { i64 -2400523959552382900, i8* getelementptr inbounds ([0 x i8], [0 x i8]* @_ZN3ukm8builders19Media_BasicPlayback38kWatchTime_DisplayPictureInPictureNameE, i32 0, i32 0) }, %"struct.std::__1::pair.14" { i64 -7945744358753330604, i8* getelementptr inbounds ([0 x i8], [0 x i8]* @_ZN3ukm8builders19Media_BasicPlayback32kWatchTime_NativeControlsOffNameE, i32 0, i32 0) }, %"struct.std::__1::pair.14" { i64 7643229976440928650, i8* getelementptr inbounds ([0 x i8], [0 x i8]* @_ZN3ukm8builders19Media_BasicPlayback31kWatchTime_NativeControlsOnNameE, i32 0, i32 0) }], align 8
@_ZN3ukm8builders29Media_EME_ApiPromiseRejection10kEntryNameE = external constant [0 x i8], align 1
@_ZN3ukm8builders29Media_EME_ApiPromiseRejection8kApiNameE = external constant [0 x i8], align 1
@_ZN3ukm8builders29Media_EME_ApiPromiseRejection15kSystemCodeNameE = external constant [0 x i8], align 1
@.ref.tmp.106 = private constant [2 x %"struct.std::__1::pair.14"] [%"struct.std::__1::pair.14" { i64 8243361657487571724, i8* getelementptr inbounds ([0 x i8], [0 x i8]* @_ZN3ukm8builders29Media_EME_ApiPromiseRejection8kApiNameE, i32 0, i32 0) }, %"struct.std::__1::pair.14" { i64 2228946995368470143, i8* getelementptr inbounds ([0 x i8], [0 x i8]* @_ZN3ukm8builders29Media_EME_ApiPromiseRejection15kSystemCodeNameE, i32 0, i32 0) }], align 8
@_ZN3ukm8builders25Media_EME_CreateMediaKeys10kEntryNameE = external constant [0 x i8], align 1
@_ZN3ukm8builders25Media_EME_CreateMediaKeys14kIsAdFrameNameE = external constant [0 x i8], align 1
@_ZN3ukm8builders25Media_EME_CreateMediaKeys18kIsCrossOriginNameE = external constant [0 x i8], align 1
@_ZN3ukm8builders25Media_EME_CreateMediaKeys15kIsTopFrameNameE = external constant [0 x i8], align 1
@_ZN3ukm8builders25Media_EME_CreateMediaKeys14kKeySystemNameE = external constant [0 x i8], align 1
@.ref.tmp.107 = private constant [4 x %"struct.std::__1::pair.14"] [%"struct.std::__1::pair.14" { i64 4919021348770235533, i8* getelementptr inbounds ([0 x i8], [0 x i8]* @_ZN3ukm8builders25Media_EME_CreateMediaKeys14kIsAdFrameNameE, i32 0, i32 0) }, %"struct.std::__1::pair.14" { i64 -8569771455822133850, i8* getelementptr inbounds ([0 x i8], [0 x i8]* @_ZN3ukm8builders25Media_EME_CreateMediaKeys18kIsCrossOriginNameE, i32 0, i32 0) }, %"struct.std::__1::pair.14" { i64 -6369837800898122785, i8* getelementptr inbounds ([0 x i8], [0 x i8]* @_ZN3ukm8builders25Media_EME_CreateMediaKeys15kIsTopFrameNameE, i32 0, i32 0) }, %"struct.std::__1::pair.14" { i64 3295482835808862800, i8* getelementptr inbounds ([0 x i8], [0 x i8]* @_ZN3ukm8builders25Media_EME_CreateMediaKeys14kKeySystemNameE, i32 0, i32 0) }], align 8
@_ZN3ukm8builders37Media_EME_RequestMediaKeySystemAccess10kEntryNameE = external constant [0 x i8], align 1
@_ZN3ukm8builders37Media_EME_RequestMediaKeySystemAccess14kIsAdFrameNameE = external constant [0 x i8], align 1
@_ZN3ukm8builders37Media_EME_RequestMediaKeySystemAccess18kIsCrossOriginNameE = external constant [0 x i8], align 1
@_ZN3ukm8builders37Media_EME_RequestMediaKeySystemAccess15kIsTopFrameNameE = external constant [0 x i8], align 1
@_ZN3ukm8builders37Media_EME_RequestMediaKeySystemAccess14kKeySystemNameE = external constant [0 x i8], align 1
@_ZN3ukm8builders37Media_EME_RequestMediaKeySystemAccess22kVideoCapabilitiesNameE = external constant [0 x i8], align 1
@_ZN3ukm8builders37Media_EME_RequestMediaKeySystemAccess41kVideoCapabilities_HasEmptyRobustnessNameE = external constant [0 x i8], align 1
@_ZN3ukm8builders37Media_EME_RequestMediaKeySystemAccess47kVideoCapabilities_HasHwSecureAllRobustnessNameE = external constant [0 x i8], align 1
@.ref.tmp.108 = private constant [7 x %"struct.std::__1::pair.14"] [%"struct.std::__1::pair.14" { i64 4919021348770235533, i8* getelementptr inbounds ([0 x i8], [0 x i8]* @_ZN3ukm8builders37Media_EME_RequestMediaKeySystemAccess14kIsAdFrameNameE, i32 0, i32 0) }, %"struct.std::__1::pair.14" { i64 -8569771455822133850, i8* getelementptr inbounds ([0 x i8], [0 x i8]* @_ZN3ukm8builders37Media_EME_RequestMediaKeySystemAccess18kIsCrossOriginNameE, i32 0, i32 0) }, %"struct.std::__1::pair.14" { i64 -6369837800898122785, i8* getelementptr inbounds ([0 x i8], [0 x i8]* @_ZN3ukm8builders37Media_EME_RequestMediaKeySystemAccess15kIsTopFrameNameE, i32 0, i32 0) }, %"struct.std::__1::pair.14" { i64 3295482835808862800, i8* getelementptr inbounds ([0 x i8], [0 x i8]* @_ZN3ukm8builders37Media_EME_RequestMediaKeySystemAccess14kKeySystemNameE, i32 0, i32 0) }, %"struct.std::__1::pair.14" { i64 -2219266521794856878, i8* getelementptr inbounds ([0 x i8], [0 x i8]* @_ZN3ukm8builders37Media_EME_RequestMediaKeySystemAccess22kVideoCapabilitiesNameE, i32 0, i32 0) }, %"struct.std::__1::pair.14" { i64 6254942854308824331, i8* getelementptr inbounds ([0 x i8], [0 x i8]* @_ZN3ukm8builders37Media_EME_RequestMediaKeySystemAccess41kVideoCapabilities_HasEmptyRobustnessNameE, i32 0, i32 0) }, %"struct.std::__1::pair.14" { i64 -7525610917844643282, i8* getelementptr inbounds ([0 x i8], [0 x i8]* @_ZN3ukm8builders37Media_EME_RequestMediaKeySystemAccess47kVideoCapabilities_HasHwSecureAllRobustnessNameE, i32 0, i32 0) }], align 8
@_ZN3ukm8builders32Media_Engagement_SessionFinished10kEntryNameE = external constant [0 x i8], align 1
@_ZN3ukm8builders32Media_Engagement_SessionFinished22kEngagement_IsHighNameE = external constant [0 x i8], align 1
@_ZN3ukm8builders32Media_Engagement_SessionFinished21kEngagement_ScoreNameE = external constant [0 x i8], align 1
@_ZN3ukm8builders32Media_Engagement_SessionFinished20kPlaybacks_TotalNameE = external constant [0 x i8], align 1
@_ZN3ukm8builders32Media_Engagement_SessionFinished25kPlayer_Audible_DeltaNameE = external constant [0 x i8], align 1
@_ZN3ukm8builders32Media_Engagement_SessionFinished29kPlayer_Significant_DeltaNameE = external constant [0 x i8], align 1
@_ZN3ukm8builders32Media_Engagement_SessionFinished17kVisits_TotalNameE = external constant [0 x i8], align 1
@.ref.tmp.109 = private constant [6 x %"struct.std::__1::pair.14"] [%"struct.std::__1::pair.14" { i64 3559175725154865187, i8* getelementptr inbounds ([0 x i8], [0 x i8]* @_ZN3ukm8builders32Media_Engagement_SessionFinished22kEngagement_IsHighNameE, i32 0, i32 0) }, %"struct.std::__1::pair.14" { i64 6115011579945185747, i8* getelementptr inbounds ([0 x i8], [0 x i8]* @_ZN3ukm8builders32Media_Engagement_SessionFinished21kEngagement_ScoreNameE, i32 0, i32 0) }, %"struct.std::__1::pair.14" { i64 -1027718425883091187, i8* getelementptr inbounds ([0 x i8], [0 x i8]* @_ZN3ukm8builders32Media_Engagement_SessionFinished20kPlaybacks_TotalNameE, i32 0, i32 0) }, %"struct.std::__1::pair.14" { i64 -866093084283917707, i8* getelementptr inbounds ([0 x i8], [0 x i8]* @_ZN3ukm8builders32Media_Engagement_SessionFinished25kPlayer_Audible_DeltaNameE, i32 0, i32 0) }, %"struct.std::__1::pair.14" { i64 1233203601745147659, i8* getelementptr inbounds ([0 x i8], [0 x i8]* @_ZN3ukm8builders32Media_Engagement_SessionFinished29kPlayer_Significant_DeltaNameE, i32 0, i32 0) }, %"struct.std::__1::pair.14" { i64 8621457172620586317, i8* getelementptr inbounds ([0 x i8], [0 x i8]* @_ZN3ukm8builders32Media_Engagement_SessionFinished17kVisits_TotalNameE, i32 0, i32 0) }], align 8
@_ZN3ukm8builders37Media_Engagement_ShortPlaybackIgnored10kEntryNameE = external constant [0 x i8], align 1
@_ZN3ukm8builders37Media_Engagement_ShortPlaybackIgnored11kLengthNameE = external constant [0 x i8], align 1
@.ref.tmp.110 = private constant [1 x %"struct.std::__1::pair.14"] [%"struct.std::__1::pair.14" { i64 -5032037643606040513, i8* getelementptr inbounds ([0 x i8], [0 x i8]* @_ZN3ukm8builders37Media_Engagement_ShortPlaybackIgnored11kLengthNameE, i32 0, i32 0) }], align 8
@_ZN3ukm8builders19Media_Feed_Discover10kEntryNameE = external constant [0 x i8], align 1
@_ZN3ukm8builders19Media_Feed_Discover17kHasMediaFeedNameE = external constant [0 x i8], align 1
@.ref.tmp.111 = private constant [1 x %"struct.std::__1::pair.14"] [%"struct.std::__1::pair.14" { i64 8108709776245181348, i8* getelementptr inbounds ([0 x i8], [0 x i8]* @_ZN3ukm8builders19Media_Feed_Discover17kHasMediaFeedNameE, i32 0, i32 0) }], align 8
@_ZN3ukm8builders45Media_GlobalMediaControls_ActionButtonPressed10kEntryNameE = external constant [0 x i8], align 1
@_ZN3ukm8builders45Media_GlobalMediaControls_ActionButtonPressed23kMediaSessionActionNameE = external constant [0 x i8], align 1
@.ref.tmp.112 = private constant [1 x %"struct.std::__1::pair.14"] [%"struct.std::__1::pair.14" { i64 -6079657527825719421, i8* getelementptr inbounds ([0 x i8], [0 x i8]* @_ZN3ukm8builders45Media_GlobalMediaControls_ActionButtonPressed23kMediaSessionActionNameE, i32 0, i32 0) }], align 8
@_ZN3ukm8builders29Media_Kaleidoscope_Navigation10kEntryNameE = external constant [0 x i8], align 1
@_ZN3ukm8builders29Media_Kaleidoscope_Navigation24kWasFromKaleidoscopeNameE = external constant [0 x i8], align 1
@.ref.tmp.113 = private constant [1 x %"struct.std::__1::pair.14"] [%"struct.std::__1::pair.14" { i64 -3393065423746534778, i8* getelementptr inbounds ([0 x i8], [0 x i8]* @_ZN3ukm8builders29Media_Kaleidoscope_Navigation24kWasFromKaleidoscopeNameE, i32 0, i32 0) }], align 8
@_ZN3ukm8builders31Media_Learning_PredictionRecord10kEntryNameE = external constant [0 x i8], align 1
@_ZN3ukm8builders31Media_Learning_PredictionRecord17kLearningTaskNameE = external constant [0 x i8], align 1
@_ZN3ukm8builders31Media_Learning_PredictionRecord18kObservedValueNameE = external constant [0 x i8], align 1
@_ZN3ukm8builders31Media_Learning_PredictionRecord19kPredictedValueNameE = external constant [0 x i8], align 1
@_ZN3ukm8builders31Media_Learning_PredictionRecord21kTrainingDataSizeNameE = external constant [0 x i8], align 1
@_ZN3ukm8builders31Media_Learning_PredictionRecord28kTrainingDataTotalWeightNameE = external constant [0 x i8], align 1
@.ref.tmp.114 = private constant [5 x %"struct.std::__1::pair.14"] [%"struct.std::__1::pair.14" { i64 3255462620316368086, i8* getelementptr inbounds ([0 x i8], [0 x i8]* @_ZN3ukm8builders31Media_Learning_PredictionRecord17kLearningTaskNameE, i32 0, i32 0) }, %"struct.std::__1::pair.14" { i64 -9111635765747536967, i8* getelementptr inbounds ([0 x i8], [0 x i8]* @_ZN3ukm8builders31Media_Learning_PredictionRecord18kObservedValueNameE, i32 0, i32 0) }, %"struct.std::__1::pair.14" { i64 -3924543740164233022, i8* getelementptr inbounds ([0 x i8], [0 x i8]* @_ZN3ukm8builders31Media_Learning_PredictionRecord19kPredictedValueNameE, i32 0, i32 0) }, %"struct.std::__1::pair.14" { i64 -1382398963587809868, i8* getelementptr inbounds ([0 x i8], [0 x i8]* @_ZN3ukm8builders31Media_Learning_PredictionRecord21kTrainingDataSizeNameE, i32 0, i32 0) }, %"struct.std::__1::pair.14" { i64 7855079783080918129, i8* getelementptr inbounds ([0 x i8], [0 x i8]* @_ZN3ukm8builders31Media_Learning_PredictionRecord28kTrainingDataTotalWeightNameE, i32 0, i32 0) }], align 8
@_ZN3ukm8builders15Media_SiteMuted10kEntryNameE = external constant [0 x i8], align 1
@_ZN3ukm8builders15Media_SiteMuted15kMuteReasonNameE = external constant [0 x i8], align 1
@.ref.tmp.115 = private constant [1 x %"struct.std::__1::pair.14"] [%"struct.std::__1::pair.14" { i64 -6735694380413923324, i8* getelementptr inbounds ([0 x i8], [0 x i8]* @_ZN3ukm8builders15Media_SiteMuted15kMuteReasonNameE, i32 0, i32 0) }], align 8
@_ZN3ukm8builders27Media_VideoDecodePerfRecord10kEntryNameE = external constant [0 x i8], align 1
@_ZN3ukm8builders27Media_VideoDecodePerfRecord39kPerf_ApiWouldClaimIsPowerEfficientNameE = external constant [0 x i8], align 1
@_ZN3ukm8builders27Media_VideoDecodePerfRecord31kPerf_ApiWouldClaimIsSmoothNameE = external constant [0 x i8], align 1
@_ZN3ukm8builders27Media_VideoDecodePerfRecord32kPerf_PastVideoFramesDecodedNameE = external constant [0 x i8], align 1
@_ZN3ukm8builders27Media_VideoDecodePerfRecord32kPerf_PastVideoFramesDroppedNameE = external constant [0 x i8], align 1
@_ZN3ukm8builders27Media_VideoDecodePerfRecord39kPerf_PastVideoFramesPowerEfficientNameE = external constant [0 x i8], align 1
@_ZN3ukm8builders27Media_VideoDecodePerfRecord32kPerf_RecordIsPowerEfficientNameE = external constant [0 x i8], align 1
@_ZN3ukm8builders27Media_VideoDecodePerfRecord24kPerf_RecordIsSmoothNameE = external constant [0 x i8], align 1
@_ZN3ukm8builders27Media_VideoDecodePerfRecord28kPerf_VideoFramesDecodedNameE = external constant [0 x i8], align 1
@_ZN3ukm8builders27Media_VideoDecodePerfRecord28kPerf_VideoFramesDroppedNameE = external constant [0 x i8], align 1
@_ZN3ukm8builders27Media_VideoDecodePerfRecord35kPerf_VideoFramesPowerEfficientNameE = external constant [0 x i8], align 1
@_ZN3ukm8builders27Media_VideoDecodePerfRecord23kVideo_CodecProfileNameE = external constant [0 x i8], align 1
@_ZN3ukm8builders27Media_VideoDecodePerfRecord24kVideo_EME_KeySystemNameE = external constant [0 x i8], align 1
@_ZN3ukm8builders27Media_VideoDecodePerfRecord32kVideo_EME_UseHwSecureCodecsNameE = external constant [0 x i8], align 1
@_ZN3ukm8builders27Media_VideoDecodePerfRecord26kVideo_FramesPerSecondNameE = external constant [0 x i8], align 1
@_ZN3ukm8builders27Media_VideoDecodePerfRecord21kVideo_InTopFrameNameE = external constant [0 x i8], align 1
@_ZN3ukm8builders27Media_VideoDecodePerfRecord24kVideo_NaturalHeightNameE = external constant [0 x i8], align 1
@_ZN3ukm8builders27Media_VideoDecodePerfRecord23kVideo_NaturalWidthNameE = external constant [0 x i8], align 1
@_ZN3ukm8builders27Media_VideoDecodePerfRecord19kVideo_PlayerIDNameE = external constant [0 x i8], align 1
@.ref.tmp.116 = private constant [18 x %"struct.std::__1::pair.14"] [%"struct.std::__1::pair.14" { i64 5735887776585123091, i8* getelementptr inbounds ([0 x i8], [0 x i8]* @_ZN3ukm8builders27Media_VideoDecodePerfRecord39kPerf_ApiWouldClaimIsPowerEfficientNameE, i32 0, i32 0) }, %"struct.std::__1::pair.14" { i64 -5775375581738020907, i8* getelementptr inbounds ([0 x i8], [0 x i8]* @_ZN3ukm8builders27Media_VideoDecodePerfRecord31kPerf_ApiWouldClaimIsSmoothNameE, i32 0, i32 0) }, %"struct.std::__1::pair.14" { i64 8441960325832700449, i8* getelementptr inbounds ([0 x i8], [0 x i8]* @_ZN3ukm8builders27Media_VideoDecodePerfRecord32kPerf_PastVideoFramesDecodedNameE, i32 0, i32 0) }, %"struct.std::__1::pair.14" { i64 -27771137189203766, i8* getelementptr inbounds ([0 x i8], [0 x i8]* @_ZN3ukm8builders27Media_VideoDecodePerfRecord32kPerf_PastVideoFramesDroppedNameE, i32 0, i32 0) }, %"struct.std::__1::pair.14" { i64 7446723482648341353, i8* getelementptr inbounds ([0 x i8], [0 x i8]* @_ZN3ukm8builders27Media_VideoDecodePerfRecord39kPerf_PastVideoFramesPowerEfficientNameE, i32 0, i32 0) }, %"struct.std::__1::pair.14" { i64 8067819045200543647, i8* getelementptr inbounds ([0 x i8], [0 x i8]* @_ZN3ukm8builders27Media_VideoDecodePerfRecord32kPerf_RecordIsPowerEfficientNameE, i32 0, i32 0) }, %"struct.std::__1::pair.14" { i64 -5778799726679953346, i8* getelementptr inbounds ([0 x i8], [0 x i8]* @_ZN3ukm8builders27Media_VideoDecodePerfRecord24kPerf_RecordIsSmoothNameE, i32 0, i32 0) }, %"struct.std::__1::pair.14" { i64 -5298288247633238280, i8* getelementptr inbounds ([0 x i8], [0 x i8]* @_ZN3ukm8builders27Media_VideoDecodePerfRecord28kPerf_VideoFramesDecodedNameE, i32 0, i32 0) }, %"struct.std::__1::pair.14" { i64 -8752648568620153551, i8* getelementptr inbounds ([0 x i8], [0 x i8]* @_ZN3ukm8builders27Media_VideoDecodePerfRecord28kPerf_VideoFramesDroppedNameE, i32 0, i32 0) }, %"struct.std::__1::pair.14" { i64 977668949207851975, i8* getelementptr inbounds ([0 x i8], [0 x i8]* @_ZN3ukm8builders27Media_VideoDecodePerfRecord35kPerf_VideoFramesPowerEfficientNameE, i32 0, i32 0) }, %"struct.std::__1::pair.14" { i64 -5749002480777662360, i8* getelementptr inbounds ([0 x i8], [0 x i8]* @_ZN3ukm8builders27Media_VideoDecodePerfRecord23kVideo_CodecProfileNameE, i32 0, i32 0) }, %"struct.std::__1::pair.14" { i64 -2650415948426932161, i8* getelementptr inbounds ([0 x i8], [0 x i8]* @_ZN3ukm8builders27Media_VideoDecodePerfRecord24kVideo_EME_KeySystemNameE, i32 0, i32 0) }, %"struct.std::__1::pair.14" { i64 6542307800731144643, i8* getelementptr inbounds ([0 x i8], [0 x i8]* @_ZN3ukm8builders27Media_VideoDecodePerfRecord32kVideo_EME_UseHwSecureCodecsNameE, i32 0, i32 0) }, %"struct.std::__1::pair.14" { i64 -9162728888573139867, i8* getelementptr inbounds ([0 x i8], [0 x i8]* @_ZN3ukm8builders27Media_VideoDecodePerfRecord26kVideo_FramesPerSecondNameE, i32 0, i32 0) }, %"struct.std::__1::pair.14" { i64 2486969173492159481, i8* getelementptr inbounds ([0 x i8], [0 x i8]* @_ZN3ukm8builders27Media_VideoDecodePerfRecord21kVideo_InTopFrameNameE, i32 0, i32 0) }, %"struct.std::__1::pair.14" { i64 6424389758392557464, i8* getelementptr inbounds ([0 x i8], [0 x i8]* @_ZN3ukm8builders27Media_VideoDecodePerfRecord24kVideo_NaturalHeightNameE, i32 0, i32 0) }, %"struct.std::__1::pair.14" { i64 -5761930992209500777, i8* getelementptr inbounds ([0 x i8], [0 x i8]* @_ZN3ukm8builders27Media_VideoDecodePerfRecord23kVideo_NaturalWidthNameE, i32 0, i32 0) }, %"struct.std::__1::pair.14" { i64 -7143592694276952246, i8* getelementptr inbounds ([0 x i8], [0 x i8]* @_ZN3ukm8builders27Media_VideoDecodePerfRecord19kVideo_PlayerIDNameE, i32 0, i32 0) }], align 8
@_ZN3ukm8builders39Media_WebAudio_AudioContext_AudibleTime10kEntryNameE = external constant [0 x i8], align 1
@_ZN3ukm8builders39Media_WebAudio_AudioContext_AudibleTime16kAudibleTimeNameE = external constant [0 x i8], align 1
@_ZN3ukm8builders39Media_WebAudio_AudioContext_AudibleTime16kIsMainFrameNameE = external constant [0 x i8], align 1
@.ref.tmp.117 = private constant [2 x %"struct.std::__1::pair.14"] [%"struct.std::__1::pair.14" { i64 -5572998711966100976, i8* getelementptr inbounds ([0 x i8], [0 x i8]* @_ZN3ukm8builders39Media_WebAudio_AudioContext_AudibleTime16kAudibleTimeNameE, i32 0, i32 0) }, %"struct.std::__1::pair.14" { i64 7266626398784684486, i8* getelementptr inbounds ([0 x i8], [0 x i8]* @_ZN3ukm8builders39Media_WebAudio_AudioContext_AudibleTime16kIsMainFrameNameE, i32 0, i32 0) }], align 8
@_ZN3ukm8builders25Media_WebMediaPlayerState10kEntryNameE = external constant [0 x i8], align 1
@_ZN3ukm8builders25Media_WebMediaPlayerState18kContainerNameNameE = external constant [0 x i8], align 1
@_ZN3ukm8builders25Media_WebMediaPlayerState24kFinalPipelineStatusNameE = external constant [0 x i8], align 1
@_ZN3ukm8builders25Media_WebMediaPlayerState10kIsEMENameE = external constant [0 x i8], align 1
@_ZN3ukm8builders25Media_WebMediaPlayerState10kIsMSENameE = external constant [0 x i8], align 1
@_ZN3ukm8builders25Media_WebMediaPlayerState15kIsTopFrameNameE = external constant [0 x i8], align 1
@_ZN3ukm8builders25Media_WebMediaPlayerState13kPlayerIDNameE = external constant [0 x i8], align 1
@_ZN3ukm8builders25Media_WebMediaPlayerState17kRendererTypeNameE = external constant [0 x i8], align 1
@_ZN3ukm8builders25Media_WebMediaPlayerState21kTimeToFirstFrameNameE = external constant [0 x i8], align 1
@_ZN3ukm8builders25Media_WebMediaPlayerState19kTimeToMetadataNameE = external constant [0 x i8], align 1
@_ZN3ukm8builders25Media_WebMediaPlayerState20kTimeToPlayReadyNameE = external constant [0 x i8], align 1
@_ZN3ukm8builders25Media_WebMediaPlayerState14kURLSchemeNameE = external constant [0 x i8], align 1
@.ref.tmp.118 = private constant [11 x %"struct.std::__1::pair.14"] [%"struct.std::__1::pair.14" { i64 4418601378549410313, i8* getelementptr inbounds ([0 x i8], [0 x i8]* @_ZN3ukm8builders25Media_WebMediaPlayerState18kContainerNameNameE, i32 0, i32 0) }, %"struct.std::__1::pair.14" { i64 -7907089267010238362, i8* getelementptr inbounds ([0 x i8], [0 x i8]* @_ZN3ukm8builders25Media_WebMediaPlayerState24kFinalPipelineStatusNameE, i32 0, i32 0) }, %"struct.std::__1::pair.14" { i64 -8843195487093934755, i8* getelementptr inbounds ([0 x i8], [0 x i8]* @_ZN3ukm8builders25Media_WebMediaPlayerState10kIsEMENameE, i32 0, i32 0) }, %"struct.std::__1::pair.14" { i64 1649159027333078910, i8* getelementptr inbounds ([0 x i8], [0 x i8]* @_ZN3ukm8builders25Media_WebMediaPlayerState10kIsMSENameE, i32 0, i32 0) }, %"struct.std::__1::pair.14" { i64 -6369837800898122785, i8* getelementptr inbounds ([0 x i8], [0 x i8]* @_ZN3ukm8builders25Media_WebMediaPlayerState15kIsTopFrameNameE, i32 0, i32 0) }, %"struct.std::__1::pair.14" { i64 -3720519674257034696, i8* getelementptr inbounds ([0 x i8], [0 x i8]* @_ZN3ukm8builders25Media_WebMediaPlayerState13kPlayerIDNameE, i32 0, i32 0) }, %"struct.std::__1::pair.14" { i64 -7032820373538913343, i8* getelementptr inbounds ([0 x i8], [0 x i8]* @_ZN3ukm8builders25Media_WebMediaPlayerState17kRendererTypeNameE, i32 0, i32 0) }, %"struct.std::__1::pair.14" { i64 4692112185366530109, i8* getelementptr inbounds ([0 x i8], [0 x i8]* @_ZN3ukm8builders25Media_WebMediaPlayerState21kTimeToFirstFrameNameE, i32 0, i32 0) }, %"struct.std::__1::pair.14" { i64 4362545705166911725, i8* getelementptr inbounds ([0 x i8], [0 x i8]* @_ZN3ukm8builders25Media_WebMediaPlayerState19kTimeToMetadataNameE, i32 0, i32 0) }, %"struct.std::__1::pair.14" { i64 3934160282665258072, i8* getelementptr inbounds ([0 x i8], [0 x i8]* @_ZN3ukm8builders25Media_WebMediaPlayerState20kTimeToPlayReadyNameE, i32 0, i32 0) }, %"struct.std::__1::pair.14" { i64 2127881778750603395, i8* getelementptr inbounds ([0 x i8], [0 x i8]* @_ZN3ukm8builders25Media_WebMediaPlayerState14kURLSchemeNameE, i32 0, i32 0) }], align 8
@_ZN3ukm8builders41MediaRouter_CastWebSenderExtensionLoadUrl10kEntryNameE = external constant [0 x i8], align 1
@_ZN3ukm8builders41MediaRouter_CastWebSenderExtensionLoadUrl16kHasOccurredNameE = external constant [0 x i8], align 1
@.ref.tmp.119 = private constant [1 x %"struct.std::__1::pair.14"] [%"struct.std::__1::pair.14" { i64 1401967873843414280, i8* getelementptr inbounds ([0 x i8], [0 x i8]* @_ZN3ukm8builders41MediaRouter_CastWebSenderExtensionLoadUrl16kHasOccurredNameE, i32 0, i32 0) }], align 8
@_ZN3ukm8builders41MediaRouter_SiteInitiatedMirroringStarted10kEntryNameE = external constant [0 x i8], align 1
@_ZN3ukm8builders41MediaRouter_SiteInitiatedMirroringStarted22kAllowAudioCaptureNameE = external constant [0 x i8], align 1
@.ref.tmp.120 = private constant [1 x %"struct.std::__1::pair.14"] [%"struct.std::__1::pair.14" { i64 -4084709842134025903, i8* getelementptr inbounds ([0 x i8], [0 x i8]* @_ZN3ukm8builders41MediaRouter_SiteInitiatedMirroringStarted22kAllowAudioCaptureNameE, i32 0, i32 0) }], align 8
@_ZN3ukm8builders31MediaRouter_TabMirroringStarted10kEntryNameE = external constant [0 x i8], align 1
@_ZN3ukm8builders31MediaRouter_TabMirroringStarted15kAudioStateNameE = external constant [0 x i8], align 1
@.ref.tmp.121 = private constant [1 x %"struct.std::__1::pair.14"] [%"struct.std::__1::pair.14" { i64 -1161210388563153887, i8* getelementptr inbounds ([0 x i8], [0 x i8]* @_ZN3ukm8builders31MediaRouter_TabMirroringStarted15kAudioStateNameE, i32 0, i32 0) }], align 8
@_ZN3ukm8builders19Memory_Experimental10kEntryNameE = external constant [0 x i8], align 1
@_ZN3ukm8builders19Memory_Experimental16kArrayBufferNameE = external constant [0 x i8], align 1
@_ZN3ukm8builders19Memory_Experimental12kBlinkGCNameE = external constant [0 x i8], align 1
@_ZN3ukm8builders19Memory_Experimental29kBlinkGC_AllocatedObjectsNameE = external constant [0 x i8], align 1
@_ZN3ukm8builders19Memory_Experimental37kCanvasResourceProvider_SkSurfaceNameE = external constant [0 x i8], align 1
@_ZN3ukm8builders19Memory_Experimental18kCommandBufferNameE = external constant [0 x i8], align 1
@_ZN3ukm8builders19Memory_Experimental16kDiscardableNameE = external constant [0 x i8], align 1
@_ZN3ukm8builders19Memory_Experimental20kDownloadServiceNameE = external constant [0 x i8], align 1
@_ZN3ukm8builders19Memory_Experimental26kExtensions_ValueStoreNameE = external constant [0 x i8], align 1
@_ZN3ukm8builders19Memory_Experimental15kFontCachesNameE = external constant [0 x i8], align 1
@_ZN3ukm8builders19Memory_Experimental14kGpuMemoryNameE = external constant [0 x i8], align 1
@_ZN3ukm8builders19Memory_Experimental12kHistoryNameE = external constant [0 x i8], align 1
@_ZN3ukm8builders19Memory_Experimental14kIsVisibleNameE = external constant [0 x i8], align 1
@_ZN3ukm8builders19Memory_Experimental13kJavaHeapNameE = external constant [0 x i8], align 1
@_ZN3ukm8builders19Memory_Experimental18kLevelDatabaseNameE = external constant [0 x i8], align 1
@_ZN3ukm8builders19Memory_Experimental11kMallocNameE = external constant [0 x i8], align 1
@_ZN3ukm8builders19Memory_Experimental28kMalloc_AllocatedObjectsNameE = external constant [0 x i8], align 1
@_ZN3ukm8builders19Memory_Experimental8kNetNameE = external constant [0 x i8], align 1
@_ZN3ukm8builders19Memory_Experimental26kNet_UrlRequestContextNameE = external constant [0 x i8], align 1
@_ZN3ukm8builders19Memory_Experimental24kNumberOfAdSubframesNameE = external constant [0 x i8], align 1
@_ZN3ukm8builders19Memory_Experimental32kNumberOfArrayBufferContentsNameE = external constant [0 x i8], align 1
@_ZN3ukm8builders19Memory_Experimental33kNumberOfDetachedScriptStatesNameE = external constant [0 x i8], align 1
@_ZN3ukm8builders19Memory_Experimental22kNumberOfDocumentsNameE = external constant [0 x i8], align 1
@_ZN3ukm8builders19Memory_Experimental23kNumberOfExtensionsNameE = external constant [0 x i8], align 1
@_ZN3ukm8builders19Memory_Experimental19kNumberOfFramesNameE = external constant [0 x i8], align 1
@_ZN3ukm8builders19Memory_Experimental26kNumberOfLayoutObjectsNameE = external constant [0 x i8], align 1
@_ZN3ukm8builders19Memory_Experimental24kNumberOfMojoHandlesNameE = external constant [0 x i8], align 1
@_ZN3ukm8builders19Memory_Experimental18kNumberOfNodesNameE = external constant [0 x i8], align 1
@_ZN3ukm8builders19Memory_Experimental28kNumberOfWebMediaPlayersNameE = external constant [0 x i8], align 1
@_ZN3ukm8builders19Memory_Experimental23kOmniboxSuggestionsNameE = external constant [0 x i8], align 1
@_ZN3ukm8builders19Memory_Experimental19kPartitionAllocNameE = external constant [0 x i8], align 1
@_ZN3ukm8builders19Memory_Experimental36kPartitionAlloc_AllocatedObjectsNameE = external constant [0 x i8], align 1
@_ZN3ukm8builders19Memory_Experimental42kPartitionAlloc_Partitions_ArrayBufferNameE = external constant [0 x i8], align 1
@_ZN3ukm8builders19Memory_Experimental37kPartitionAlloc_Partitions_BufferNameE = external constant [0 x i8], align 1
@_ZN3ukm8builders19Memory_Experimental41kPartitionAlloc_Partitions_FastMallocNameE = external constant [0 x i8], align 1
@_ZN3ukm8builders19Memory_Experimental37kPartitionAlloc_Partitions_LayoutNameE = external constant [0 x i8], align 1
@_ZN3ukm8builders19Memory_Experimental27kPrivateMemoryFootprintNameE = external constant [0 x i8], align 1
@_ZN3ukm8builders19Memory_Experimental25kPrivateSwapFootprintNameE = external constant [0 x i8], align 1
@_ZN3ukm8builders19Memory_Experimental16kProcessTypeNameE = external constant [0 x i8], align 1
@_ZN3ukm8builders19Memory_Experimental13kResidentNameE = external constant [0 x i8], align 1
@_ZN3ukm8builders19Memory_Experimental26kSharedMemoryFootprintNameE = external constant [0 x i8], align 1
@_ZN3ukm8builders19Memory_Experimental16kSiteStorageNameE = external constant [0 x i8], align 1
@_ZN3ukm8builders19Memory_Experimental28kSiteStorage_BlobStorageNameE = external constant [0 x i8], align 1
@_ZN3ukm8builders19Memory_Experimental24kSiteStorage_IndexDBNameE = external constant [0 x i8], align 1
@_ZN3ukm8builders19Memory_Experimental29kSiteStorage_LocalStorageNameE = external constant [0 x i8], align 1
@_ZN3ukm8builders19Memory_Experimental31kSiteStorage_SessionStorageNameE = external constant [0 x i8], align 1
@_ZN3ukm8builders19Memory_Experimental9kSkiaNameE = external constant [0 x i8], align 1
@_ZN3ukm8builders19Memory_Experimental22kSkia_SkGlyphCacheNameE = external constant [0 x i8], align 1
@_ZN3ukm8builders19Memory_Experimental25kSkia_SkResourceCacheNameE = external constant [0 x i8], align 1
@_ZN3ukm8builders19Memory_Experimental11kSqliteNameE = external constant [0 x i8], align 1
@_ZN3ukm8builders19Memory_Experimental9kSyncNameE = external constant [0 x i8], align 1
@_ZN3ukm8builders19Memory_Experimental15kTabRestoreNameE = external constant [0 x i8], align 1
@_ZN3ukm8builders19Memory_Experimental28kTimeSinceLastNavigationNameE = external constant [0 x i8], align 1
@_ZN3ukm8builders19Memory_Experimental34kTimeSinceLastVisibilityChangeNameE = external constant [0 x i8], align 1
@_ZN3ukm8builders19Memory_Experimental34kTotal2_PrivateMemoryFootprintNameE = external constant [0 x i8], align 1
@_ZN3ukm8builders19Memory_Experimental33kTotal2_SharedMemoryFootprintNameE = external constant [0 x i8], align 1
@_ZN3ukm8builders19Memory_Experimental7kUINameE = external constant [0 x i8], align 1
@_ZN3ukm8builders19Memory_Experimental11kUptimeNameE = external constant [0 x i8], align 1
@_ZN3ukm8builders19Memory_Experimental7kV8NameE = external constant [0 x i8], align 1
@_ZN3ukm8builders19Memory_Experimental24kV8_AllocatedObjectsNameE = external constant [0 x i8], align 1
@_ZN3ukm8builders19Memory_Experimental12kV8_MainNameE = external constant [0 x i8], align 1
@_ZN3ukm8builders19Memory_Experimental29kV8_Main_AllocatedObjectsNameE = external constant [0 x i8], align 1
@_ZN3ukm8builders19Memory_Experimental26kV8_Main_GlobalHandlesNameE = external constant [0 x i8], align 1
@_ZN3ukm8builders19Memory_Experimental43kV8_Main_GlobalHandles_AllocatedObjectsNameE = external constant [0 x i8], align 1
@_ZN3ukm8builders19Memory_Experimental17kV8_Main_HeapNameE = external constant [0 x i8], align 1
@_ZN3ukm8builders19Memory_Experimental34kV8_Main_Heap_AllocatedObjectsNameE = external constant [0 x i8], align 1
@_ZN3ukm8builders19Memory_Experimental38kV8_Main_Heap_CodeLargeObjectSpaceNameE = external constant [0 x i8], align 1
@_ZN3ukm8builders19Memory_Experimental55kV8_Main_Heap_CodeLargeObjectSpace_AllocatedObjectsNameE = external constant [0 x i8], align 1
@_ZN3ukm8builders19Memory_Experimental27kV8_Main_Heap_CodeSpaceNameE = external constant [0 x i8], align 1
@_ZN3ukm8builders19Memory_Experimental44kV8_Main_Heap_CodeSpace_AllocatedObjectsNameE = external constant [0 x i8], align 1
@_ZN3ukm8builders19Memory_Experimental34kV8_Main_Heap_LargeObjectSpaceNameE = external constant [0 x i8], align 1
@_ZN3ukm8builders19Memory_Experimental51kV8_Main_Heap_LargeObjectSpace_AllocatedObjectsNameE = external constant [0 x i8], align 1
@_ZN3ukm8builders19Memory_Experimental26kV8_Main_Heap_MapSpaceNameE = external constant [0 x i8], align 1
@_ZN3ukm8builders19Memory_Experimental43kV8_Main_Heap_MapSpace_AllocatedObjectsNameE = external constant [0 x i8], align 1
@_ZN3ukm8builders19Memory_Experimental37kV8_Main_Heap_NewLargeObjectSpaceNameE = external constant [0 x i8], align 1
@_ZN3ukm8builders19Memory_Experimental54kV8_Main_Heap_NewLargeObjectSpace_AllocatedObjectsNameE = external constant [0 x i8], align 1
@_ZN3ukm8builders19Memory_Experimental26kV8_Main_Heap_NewSpaceNameE = external constant [0 x i8], align 1
@_ZN3ukm8builders19Memory_Experimental43kV8_Main_Heap_NewSpace_AllocatedObjectsNameE = external constant [0 x i8], align 1
@_ZN3ukm8builders19Memory_Experimental26kV8_Main_Heap_OldSpaceNameE = external constant [0 x i8], align 1
@_ZN3ukm8builders19Memory_Experimental43kV8_Main_Heap_OldSpace_AllocatedObjectsNameE = external constant [0 x i8], align 1
@_ZN3ukm8builders19Memory_Experimental31kV8_Main_Heap_ReadOnlySpaceNameE = external constant [0 x i8], align 1
@_ZN3ukm8builders19Memory_Experimental48kV8_Main_Heap_ReadOnlySpace_AllocatedObjectsNameE = external constant [0 x i8], align 1
@_ZN3ukm8builders19Memory_Experimental19kV8_Main_MallocNameE = external constant [0 x i8], align 1
@_ZN3ukm8builders19Memory_Experimental15kV8_WorkersNameE = external constant [0 x i8], align 1
@_ZN3ukm8builders19Memory_Experimental32kV8_Workers_AllocatedObjectsNameE = external constant [0 x i8], align 1
@_ZN3ukm8builders19Memory_Experimental13kWebCacheNameE = external constant [0 x i8], align 1
@_ZN3ukm8builders19Memory_Experimental36kWebCache_CSSStylesheetResourcesNameE = external constant [0 x i8], align 1
@_ZN3ukm8builders19Memory_Experimental45kWebCache_EncodedSizeDuplicatedInDataUrlsNameE = external constant [0 x i8], align 1
@_ZN3ukm8builders19Memory_Experimental27kWebCache_FontResourcesNameE = external constant [0 x i8], align 1
@_ZN3ukm8builders19Memory_Experimental28kWebCache_ImageResourcesNameE = external constant [0 x i8], align 1
@_ZN3ukm8builders19Memory_Experimental28kWebCache_OtherResourcesNameE = external constant [0 x i8], align 1
@_ZN3ukm8builders19Memory_Experimental29kWebCache_ScriptResourcesNameE = external constant [0 x i8], align 1
@_ZN3ukm8builders19Memory_Experimental25kWebCache_V8CodeCacheNameE = external constant [0 x i8], align 1
@_ZN3ukm8builders19Memory_Experimental36kWebCache_XSLStylesheetResourcesNameE = external constant [0 x i8], align 1
@_ZN3ukm8builders19Memory_Experimental25kWebMediaPlayer_AudioNameE = external constant [0 x i8], align 1
@_ZN3ukm8builders19Memory_Experimental30kWebMediaPlayer_DataSourceNameE = external constant [0 x i8], align 1
@_ZN3ukm8builders19Memory_Experimental27kWebMediaPlayer_DemuxerNameE = external constant [0 x i8], align 1
@_ZN3ukm8builders19Memory_Experimental25kWebMediaPlayer_VideoNameE = external constant [0 x i8], align 1
@.ref.tmp.122 = private constant [97 x %"struct.std::__1::pair.14"] [%"struct.std::__1::pair.14" { i64 -6721005311697626147, i8* getelementptr inbounds ([0 x i8], [0 x i8]* @_ZN3ukm8builders19Memory_Experimental16kArrayBufferNameE, i32 0, i32 0) }, %"struct.std::__1::pair.14" { i64 7968550169431094519, i8* getelementptr inbounds ([0 x i8], [0 x i8]* @_ZN3ukm8builders19Memory_Experimental12kBlinkGCNameE, i32 0, i32 0) }, %"struct.std::__1::pair.14" { i64 2308711769835636489, i8* getelementptr inbounds ([0 x i8], [0 x i8]* @_ZN3ukm8builders19Memory_Experimental29kBlinkGC_AllocatedObjectsNameE, i32 0, i32 0) }, %"struct.std::__1::pair.14" { i64 6464412163022849223, i8* getelementptr inbounds ([0 x i8], [0 x i8]* @_ZN3ukm8builders19Memory_Experimental37kCanvasResourceProvider_SkSurfaceNameE, i32 0, i32 0) }, %"struct.std::__1::pair.14" { i64 -6695743014526136067, i8* getelementptr inbounds ([0 x i8], [0 x i8]* @_ZN3ukm8builders19Memory_Experimental18kCommandBufferNameE, i32 0, i32 0) }, %"struct.std::__1::pair.14" { i64 200561209145538443, i8* getelementptr inbounds ([0 x i8], [0 x i8]* @_ZN3ukm8builders19Memory_Experimental16kDiscardableNameE, i32 0, i32 0) }, %"struct.std::__1::pair.14" { i64 7359304541321789172, i8* getelementptr inbounds ([0 x i8], [0 x i8]* @_ZN3ukm8builders19Memory_Experimental20kDownloadServiceNameE, i32 0, i32 0) }, %"struct.std::__1::pair.14" { i64 29559029929544692, i8* getelementptr inbounds ([0 x i8], [0 x i8]* @_ZN3ukm8builders19Memory_Experimental26kExtensions_ValueStoreNameE, i32 0, i32 0) }, %"struct.std::__1::pair.14" { i64 -1917683068775609316, i8* getelementptr inbounds ([0 x i8], [0 x i8]* @_ZN3ukm8builders19Memory_Experimental15kFontCachesNameE, i32 0, i32 0) }, %"struct.std::__1::pair.14" { i64 490077485390910541, i8* getelementptr inbounds ([0 x i8], [0 x i8]* @_ZN3ukm8builders19Memory_Experimental14kGpuMemoryNameE, i32 0, i32 0) }, %"struct.std::__1::pair.14" { i64 1644574205037202324, i8* getelementptr inbounds ([0 x i8], [0 x i8]* @_ZN3ukm8builders19Memory_Experimental12kHistoryNameE, i32 0, i32 0) }, %"struct.std::__1::pair.14" { i64 1485165748725517792, i8* getelementptr inbounds ([0 x i8], [0 x i8]* @_ZN3ukm8builders19Memory_Experimental14kIsVisibleNameE, i32 0, i32 0) }, %"struct.std::__1::pair.14" { i64 8862862044285854091, i8* getelementptr inbounds ([0 x i8], [0 x i8]* @_ZN3ukm8builders19Memory_Experimental13kJavaHeapNameE, i32 0, i32 0) }, %"struct.std::__1::pair.14" { i64 -7097893855410938641, i8* getelementptr inbounds ([0 x i8], [0 x i8]* @_ZN3ukm8builders19Memory_Experimental18kLevelDatabaseNameE, i32 0, i32 0) }, %"struct.std::__1::pair.14" { i64 1238957276816977011, i8* getelementptr inbounds ([0 x i8], [0 x i8]* @_ZN3ukm8builders19Memory_Experimental11kMallocNameE, i32 0, i32 0) }, %"struct.std::__1::pair.14" { i64 1925721785185208243, i8* getelementptr inbounds ([0 x i8], [0 x i8]* @_ZN3ukm8builders19Memory_Experimental28kMalloc_AllocatedObjectsNameE, i32 0, i32 0) }, %"struct.std::__1::pair.14" { i64 5769866783646202089, i8* getelementptr inbounds ([0 x i8], [0 x i8]* @_ZN3ukm8builders19Memory_Experimental8kNetNameE, i32 0, i32 0) }, %"struct.std::__1::pair.14" { i64 4591518805853525343, i8* getelementptr inbounds ([0 x i8], [0 x i8]* @_ZN3ukm8builders19Memory_Experimental26kNet_UrlRequestContextNameE, i32 0, i32 0) }, %"struct.std::__1::pair.14" { i64 -7703561730161031618, i8* getelementptr inbounds ([0 x i8], [0 x i8]* @_ZN3ukm8builders19Memory_Experimental24kNumberOfAdSubframesNameE, i32 0, i32 0) }, %"struct.std::__1::pair.14" { i64 -5182246287772591467, i8* getelementptr inbounds ([0 x i8], [0 x i8]* @_ZN3ukm8builders19Memory_Experimental32kNumberOfArrayBufferContentsNameE, i32 0, i32 0) }, %"struct.std::__1::pair.14" { i64 -181645674606662346, i8* getelementptr inbounds ([0 x i8], [0 x i8]* @_ZN3ukm8builders19Memory_Experimental33kNumberOfDetachedScriptStatesNameE, i32 0, i32 0) }, %"struct.std::__1::pair.14" { i64 5733109213322944724, i8* getelementptr inbounds ([0 x i8], [0 x i8]* @_ZN3ukm8builders19Memory_Experimental22kNumberOfDocumentsNameE, i32 0, i32 0) }, %"struct.std::__1::pair.14" { i64 3403202119543761618, i8* getelementptr inbounds ([0 x i8], [0 x i8]* @_ZN3ukm8builders19Memory_Experimental23kNumberOfExtensionsNameE, i32 0, i32 0) }, %"struct.std::__1::pair.14" { i64 6940065104966512226, i8* getelementptr inbounds ([0 x i8], [0 x i8]* @_ZN3ukm8builders19Memory_Experimental19kNumberOfFramesNameE, i32 0, i32 0) }, %"struct.std::__1::pair.14" { i64 3649880882460262866, i8* getelementptr inbounds ([0 x i8], [0 x i8]* @_ZN3ukm8builders19Memory_Experimental26kNumberOfLayoutObjectsNameE, i32 0, i32 0) }, %"struct.std::__1::pair.14" { i64 -1632571112600823880, i8* getelementptr inbounds ([0 x i8], [0 x i8]* @_ZN3ukm8builders19Memory_Experimental24kNumberOfMojoHandlesNameE, i32 0, i32 0) }, %"struct.std::__1::pair.14" { i64 -2802756327298284052, i8* getelementptr inbounds ([0 x i8], [0 x i8]* @_ZN3ukm8builders19Memory_Experimental18kNumberOfNodesNameE, i32 0, i32 0) }, %"struct.std::__1::pair.14" { i64 -5641833751247221084, i8* getelementptr inbounds ([0 x i8], [0 x i8]* @_ZN3ukm8builders19Memory_Experimental28kNumberOfWebMediaPlayersNameE, i32 0, i32 0) }, %"struct.std::__1::pair.14" { i64 -1090853022858541891, i8* getelementptr inbounds ([0 x i8], [0 x i8]* @_ZN3ukm8builders19Memory_Experimental23kOmniboxSuggestionsNameE, i32 0, i32 0) }, %"struct.std::__1::pair.14" { i64 -8836261400117106592, i8* getelementptr inbounds ([0 x i8], [0 x i8]* @_ZN3ukm8builders19Memory_Experimental19kPartitionAllocNameE, i32 0, i32 0) }, %"struct.std::__1::pair.14" { i64 -3222560616504458801, i8* getelementptr inbounds ([0 x i8], [0 x i8]* @_ZN3ukm8builders19Memory_Experimental36kPartitionAlloc_AllocatedObjectsNameE, i32 0, i32 0) }, %"struct.std::__1::pair.14" { i64 806433197023658949, i8* getelementptr inbounds ([0 x i8], [0 x i8]* @_ZN3ukm8builders19Memory_Experimental42kPartitionAlloc_Partitions_ArrayBufferNameE, i32 0, i32 0) }, %"struct.std::__1::pair.14" { i64 -6104861477675988366, i8* getelementptr inbounds ([0 x i8], [0 x i8]* @_ZN3ukm8builders19Memory_Experimental37kPartitionAlloc_Partitions_BufferNameE, i32 0, i32 0) }, %"struct.std::__1::pair.14" { i64 -4568691494964953326, i8* getelementptr inbounds ([0 x i8], [0 x i8]* @_ZN3ukm8builders19Memory_Experimental41kPartitionAlloc_Partitions_FastMallocNameE, i32 0, i32 0) }, %"struct.std::__1::pair.14" { i64 6655809818244318026, i8* getelementptr inbounds ([0 x i8], [0 x i8]* @_ZN3ukm8builders19Memory_Experimental37kPartitionAlloc_Partitions_LayoutNameE, i32 0, i32 0) }, %"struct.std::__1::pair.14" { i64 -8394230536289730427, i8* getelementptr inbounds ([0 x i8], [0 x i8]* @_ZN3ukm8builders19Memory_Experimental27kPrivateMemoryFootprintNameE, i32 0, i32 0) }, %"struct.std::__1::pair.14" { i64 -4875337875188666167, i8* getelementptr inbounds ([0 x i8], [0 x i8]* @_ZN3ukm8builders19Memory_Experimental25kPrivateSwapFootprintNameE, i32 0, i32 0) }, %"struct.std::__1::pair.14" { i64 7486237172651555104, i8* getelementptr inbounds ([0 x i8], [0 x i8]* @_ZN3ukm8builders19Memory_Experimental16kProcessTypeNameE, i32 0, i32 0) }, %"struct.std::__1::pair.14" { i64 -4985332478328870178, i8* getelementptr inbounds ([0 x i8], [0 x i8]* @_ZN3ukm8builders19Memory_Experimental13kResidentNameE, i32 0, i32 0) }, %"struct.std::__1::pair.14" { i64 -946102926031800541, i8* getelementptr inbounds ([0 x i8], [0 x i8]* @_ZN3ukm8builders19Memory_Experimental26kSharedMemoryFootprintNameE, i32 0, i32 0) }, %"struct.std::__1::pair.14" { i64 9072081726198684739, i8* getelementptr inbounds ([0 x i8], [0 x i8]* @_ZN3ukm8builders19Memory_Experimental16kSiteStorageNameE, i32 0, i32 0) }, %"struct.std::__1::pair.14" { i64 7198093127485286680, i8* getelementptr inbounds ([0 x i8], [0 x i8]* @_ZN3ukm8builders19Memory_Experimental28kSiteStorage_BlobStorageNameE, i32 0, i32 0) }, %"struct.std::__1::pair.14" { i64 6402762799502043507, i8* getelementptr inbounds ([0 x i8], [0 x i8]* @_ZN3ukm8builders19Memory_Experimental24kSiteStorage_IndexDBNameE, i32 0, i32 0) }, %"struct.std::__1::pair.14" { i64 -3513615616579467541, i8* getelementptr inbounds ([0 x i8], [0 x i8]* @_ZN3ukm8builders19Memory_Experimental29kSiteStorage_LocalStorageNameE, i32 0, i32 0) }, %"struct.std::__1::pair.14" { i64 -4237302498590069401, i8* getelementptr inbounds ([0 x i8], [0 x i8]* @_ZN3ukm8builders19Memory_Experimental31kSiteStorage_SessionStorageNameE, i32 0, i32 0) }, %"struct.std::__1::pair.14" { i64 -8454822830692602500, i8* getelementptr inbounds ([0 x i8], [0 x i8]* @_ZN3ukm8builders19Memory_Experimental9kSkiaNameE, i32 0, i32 0) }, %"struct.std::__1::pair.14" { i64 8035476658629055040, i8* getelementptr inbounds ([0 x i8], [0 x i8]* @_ZN3ukm8builders19Memory_Experimental22kSkia_SkGlyphCacheNameE, i32 0, i32 0) }, %"struct.std::__1::pair.14" { i64 6214163245680517898, i8* getelementptr inbounds ([0 x i8], [0 x i8]* @_ZN3ukm8builders19Memory_Experimental25kSkia_SkResourceCacheNameE, i32 0, i32 0) }, %"struct.std::__1::pair.14" { i64 2900118879024321274, i8* getelementptr inbounds ([0 x i8], [0 x i8]* @_ZN3ukm8builders19Memory_Experimental11kSqliteNameE, i32 0, i32 0) }, %"struct.std::__1::pair.14" { i64 -2816865188163905934, i8* getelementptr inbounds ([0 x i8], [0 x i8]* @_ZN3ukm8builders19Memory_Experimental9kSyncNameE, i32 0, i32 0) }, %"struct.std::__1::pair.14" { i64 4112632899105915167, i8* getelementptr inbounds ([0 x i8], [0 x i8]* @_ZN3ukm8builders19Memory_Experimental15kTabRestoreNameE, i32 0, i32 0) }, %"struct.std::__1::pair.14" { i64 -4508358121668147458, i8* getelementptr inbounds ([0 x i8], [0 x i8]* @_ZN3ukm8builders19Memory_Experimental28kTimeSinceLastNavigationNameE, i32 0, i32 0) }, %"struct.std::__1::pair.14" { i64 6720756525548063269, i8* getelementptr inbounds ([0 x i8], [0 x i8]* @_ZN3ukm8builders19Memory_Experimental34kTimeSinceLastVisibilityChangeNameE, i32 0, i32 0) }, %"struct.std::__1::pair.14" { i64 3202306657284943476, i8* getelementptr inbounds ([0 x i8], [0 x i8]* @_ZN3ukm8builders19Memory_Experimental34kTotal2_PrivateMemoryFootprintNameE, i32 0, i32 0) }, %"struct.std::__1::pair.14" { i64 -6095083842042538904, i8* getelementptr inbounds ([0 x i8], [0 x i8]* @_ZN3ukm8builders19Memory_Experimental33kTotal2_SharedMemoryFootprintNameE, i32 0, i32 0) }, %"struct.std::__1::pair.14" { i64 8214408844178480006, i8* getelementptr inbounds ([0 x i8], [0 x i8]* @_ZN3ukm8builders19Memory_Experimental7kUINameE, i32 0, i32 0) }, %"struct.std::__1::pair.14" { i64 -3392122701970367248, i8* getelementptr inbounds ([0 x i8], [0 x i8]* @_ZN3ukm8builders19Memory_Experimental11kUptimeNameE, i32 0, i32 0) }, %"struct.std::__1::pair.14" { i64 -1550333854404671841, i8* getelementptr inbounds ([0 x i8], [0 x i8]* @_ZN3ukm8builders19Memory_Experimental7kV8NameE, i32 0, i32 0) }, %"struct.std::__1::pair.14" { i64 -5678680447497835661, i8* getelementptr inbounds ([0 x i8], [0 x i8]* @_ZN3ukm8builders19Memory_Experimental24kV8_AllocatedObjectsNameE, i32 0, i32 0) }, %"struct.std::__1::pair.14" { i64 -2623974627661920297, i8* getelementptr inbounds ([0 x i8], [0 x i8]* @_ZN3ukm8builders19Memory_Experimental12kV8_MainNameE, i32 0, i32 0) }, %"struct.std::__1::pair.14" { i64 6415930962248516020, i8* getelementptr inbounds ([0 x i8], [0 x i8]* @_ZN3ukm8builders19Memory_Experimental29kV8_Main_AllocatedObjectsNameE, i32 0, i32 0) }, %"struct.std::__1::pair.14" { i64 -2864920963737298725, i8* getelementptr inbounds ([0 x i8], [0 x i8]* @_ZN3ukm8builders19Memory_Experimental26kV8_Main_GlobalHandlesNameE, i32 0, i32 0) }, %"struct.std::__1::pair.14" { i64 -5056219546958695123, i8* getelementptr inbounds ([0 x i8], [0 x i8]* @_ZN3ukm8builders19Memory_Experimental43kV8_Main_GlobalHandles_AllocatedObjectsNameE, i32 0, i32 0) }, %"struct.std::__1::pair.14" { i64 1921939464854386930, i8* getelementptr inbounds ([0 x i8], [0 x i8]* @_ZN3ukm8builders19Memory_Experimental17kV8_Main_HeapNameE, i32 0, i32 0) }, %"struct.std::__1::pair.14" { i64 -47080388708615307, i8* getelementptr inbounds ([0 x i8], [0 x i8]* @_ZN3ukm8builders19Memory_Experimental34kV8_Main_Heap_AllocatedObjectsNameE, i32 0, i32 0) }, %"struct.std::__1::pair.14" { i64 -1952620171279163547, i8* getelementptr inbounds ([0 x i8], [0 x i8]* @_ZN3ukm8builders19Memory_Experimental38kV8_Main_Heap_CodeLargeObjectSpaceNameE, i32 0, i32 0) }, %"struct.std::__1::pair.14" { i64 2364189807997549859, i8* getelementptr inbounds ([0 x i8], [0 x i8]* @_ZN3ukm8builders19Memory_Experimental55kV8_Main_Heap_CodeLargeObjectSpace_AllocatedObjectsNameE, i32 0, i32 0) }, %"struct.std::__1::pair.14" { i64 -515348576174668467, i8* getelementptr inbounds ([0 x i8], [0 x i8]* @_ZN3ukm8builders19Memory_Experimental27kV8_Main_Heap_CodeSpaceNameE, i32 0, i32 0) }, %"struct.std::__1::pair.14" { i64 8854776756506961912, i8* getelementptr inbounds ([0 x i8], [0 x i8]* @_ZN3ukm8builders19Memory_Experimental44kV8_Main_Heap_CodeSpace_AllocatedObjectsNameE, i32 0, i32 0) }, %"struct.std::__1::pair.14" { i64 -6695777950274425557, i8* getelementptr inbounds ([0 x i8], [0 x i8]* @_ZN3ukm8builders19Memory_Experimental34kV8_Main_Heap_LargeObjectSpaceNameE, i32 0, i32 0) }, %"struct.std::__1::pair.14" { i64 -6882359730533262431, i8* getelementptr inbounds ([0 x i8], [0 x i8]* @_ZN3ukm8builders19Memory_Experimental51kV8_Main_Heap_LargeObjectSpace_AllocatedObjectsNameE, i32 0, i32 0) }, %"struct.std::__1::pair.14" { i64 -6468132438283253297, i8* getelementptr inbounds ([0 x i8], [0 x i8]* @_ZN3ukm8builders19Memory_Experimental26kV8_Main_Heap_MapSpaceNameE, i32 0, i32 0) }, %"struct.std::__1::pair.14" { i64 -1772336196740243812, i8* getelementptr inbounds ([0 x i8], [0 x i8]* @_ZN3ukm8builders19Memory_Experimental43kV8_Main_Heap_MapSpace_AllocatedObjectsNameE, i32 0, i32 0) }, %"struct.std::__1::pair.14" { i64 834392200182619412, i8* getelementptr inbounds ([0 x i8], [0 x i8]* @_ZN3ukm8builders19Memory_Experimental37kV8_Main_Heap_NewLargeObjectSpaceNameE, i32 0, i32 0) }, %"struct.std::__1::pair.14" { i64 -668449731992668382, i8* getelementptr inbounds ([0 x i8], [0 x i8]* @_ZN3ukm8builders19Memory_Experimental54kV8_Main_Heap_NewLargeObjectSpace_AllocatedObjectsNameE, i32 0, i32 0) }, %"struct.std::__1::pair.14" { i64 -8125497592280137161, i8* getelementptr inbounds ([0 x i8], [0 x i8]* @_ZN3ukm8builders19Memory_Experimental26kV8_Main_Heap_NewSpaceNameE, i32 0, i32 0) }, %"struct.std::__1::pair.14" { i64 -3629000416053144332, i8* getelementptr inbounds ([0 x i8], [0 x i8]* @_ZN3ukm8builders19Memory_Experimental43kV8_Main_Heap_NewSpace_AllocatedObjectsNameE, i32 0, i32 0) }, %"struct.std::__1::pair.14" { i64 -7273309805691657309, i8* getelementptr inbounds ([0 x i8], [0 x i8]* @_ZN3ukm8builders19Memory_Experimental26kV8_Main_Heap_OldSpaceNameE, i32 0, i32 0) }, %"struct.std::__1::pair.14" { i64 -2611683125214354109, i8* getelementptr inbounds ([0 x i8], [0 x i8]* @_ZN3ukm8builders19Memory_Experimental43kV8_Main_Heap_OldSpace_AllocatedObjectsNameE, i32 0, i32 0) }, %"struct.std::__1::pair.14" { i64 4433186457491512075, i8* getelementptr inbounds ([0 x i8], [0 x i8]* @_ZN3ukm8builders19Memory_Experimental31kV8_Main_Heap_ReadOnlySpaceNameE, i32 0, i32 0) }, %"struct.std::__1::pair.14" { i64 -8781027583917703384, i8* getelementptr inbounds ([0 x i8], [0 x i8]* @_ZN3ukm8builders19Memory_Experimental48kV8_Main_Heap_ReadOnlySpace_AllocatedObjectsNameE, i32 0, i32 0) }, %"struct.std::__1::pair.14" { i64 5158976984073464014, i8* getelementptr inbounds ([0 x i8], [0 x i8]* @_ZN3ukm8builders19Memory_Experimental19kV8_Main_MallocNameE, i32 0, i32 0) }, %"struct.std::__1::pair.14" { i64 8553202260117802914, i8* getelementptr inbounds ([0 x i8], [0 x i8]* @_ZN3ukm8builders19Memory_Experimental15kV8_WorkersNameE, i32 0, i32 0) }, %"struct.std::__1::pair.14" { i64 -6269389475809107013, i8* getelementptr inbounds ([0 x i8], [0 x i8]* @_ZN3ukm8builders19Memory_Experimental32kV8_Workers_AllocatedObjectsNameE, i32 0, i32 0) }, %"struct.std::__1::pair.14" { i64 -4958725842518945195, i8* getelementptr inbounds ([0 x i8], [0 x i8]* @_ZN3ukm8builders19Memory_Experimental13kWebCacheNameE, i32 0, i32 0) }, %"struct.std::__1::pair.14" { i64 9097814082721146272, i8* getelementptr inbounds ([0 x i8], [0 x i8]* @_ZN3ukm8builders19Memory_Experimental36kWebCache_CSSStylesheetResourcesNameE, i32 0, i32 0) }, %"struct.std::__1::pair.14" { i64 -4303092425848980717, i8* getelementptr inbounds ([0 x i8], [0 x i8]* @_ZN3ukm8builders19Memory_Experimental45kWebCache_EncodedSizeDuplicatedInDataUrlsNameE, i32 0, i32 0) }, %"struct.std::__1::pair.14" { i64 -8818597281363937299, i8* getelementptr inbounds ([0 x i8], [0 x i8]* @_ZN3ukm8builders19Memory_Experimental27kWebCache_FontResourcesNameE, i32 0, i32 0) }, %"struct.std::__1::pair.14" { i64 -8931733606856740933, i8* getelementptr inbounds ([0 x i8], [0 x i8]* @_ZN3ukm8builders19Memory_Experimental28kWebCache_ImageResourcesNameE, i32 0, i32 0) }, %"struct.std::__1::pair.14" { i64 -714607482547025036, i8* getelementptr inbounds ([0 x i8], [0 x i8]* @_ZN3ukm8builders19Memory_Experimental28kWebCache_OtherResourcesNameE, i32 0, i32 0) }, %"struct.std::__1::pair.14" { i64 3925250771305782664, i8* getelementptr inbounds ([0 x i8], [0 x i8]* @_ZN3ukm8builders19Memory_Experimental29kWebCache_ScriptResourcesNameE, i32 0, i32 0) }, %"struct.std::__1::pair.14" { i64 -5664007963999624581, i8* getelementptr inbounds ([0 x i8], [0 x i8]* @_ZN3ukm8builders19Memory_Experimental25kWebCache_V8CodeCacheNameE, i32 0, i32 0) }, %"struct.std::__1::pair.14" { i64 -5725052360511697050, i8* getelementptr inbounds ([0 x i8], [0 x i8]* @_ZN3ukm8builders19Memory_Experimental36kWebCache_XSLStylesheetResourcesNameE, i32 0, i32 0) }, %"struct.std::__1::pair.14" { i64 -8635665883570687624, i8* getelementptr inbounds ([0 x i8], [0 x i8]* @_ZN3ukm8builders19Memory_Experimental25kWebMediaPlayer_AudioNameE, i32 0, i32 0) }, %"struct.std::__1::pair.14" { i64 7384723713952795180, i8* getelementptr inbounds ([0 x i8], [0 x i8]* @_ZN3ukm8builders19Memory_Experimental30kWebMediaPlayer_DataSourceNameE, i32 0, i32 0) }, %"struct.std::__1::pair.14" { i64 -2538105375160400123, i8* getelementptr inbounds ([0 x i8], [0 x i8]* @_ZN3ukm8builders19Memory_Experimental27kWebMediaPlayer_DemuxerNameE, i32 0, i32 0) }, %"struct.std::__1::pair.14" { i64 -2317059209704987554, i8* getelementptr inbounds ([0 x i8], [0 x i8]* @_ZN3ukm8builders19Memory_Experimental25kWebMediaPlayer_VideoNameE, i32 0, i32 0) }], align 8
@_ZN3ukm8builders19Memory_TabFootprint10kEntryNameE = external constant [0 x i8], align 1
@_ZN3ukm8builders19Memory_TabFootprint24kMainFrameProcessPMFNameE = external constant [0 x i8], align 1
@_ZN3ukm8builders19Memory_TabFootprint32kSubFrameProcessPMF_ExcludedNameE = external constant [0 x i8], align 1
@_ZN3ukm8builders19Memory_TabFootprint32kSubFrameProcessPMF_IncludedNameE = external constant [0 x i8], align 1
@_ZN3ukm8builders19Memory_TabFootprint29kSubFrameProcessPMF_TotalNameE = external constant [0 x i8], align 1
@_ZN3ukm8builders19Memory_TabFootprint11kTabPMFNameE = external constant [0 x i8], align 1
@.ref.tmp.123 = private constant [5 x %"struct.std::__1::pair.14"] [%"struct.std::__1::pair.14" { i64 -5664799725122858419, i8* getelementptr inbounds ([0 x i8], [0 x i8]* @_ZN3ukm8builders19Memory_TabFootprint24kMainFrameProcessPMFNameE, i32 0, i32 0) }, %"struct.std::__1::pair.14" { i64 4544803109589615267, i8* getelementptr inbounds ([0 x i8], [0 x i8]* @_ZN3ukm8builders19Memory_TabFootprint32kSubFrameProcessPMF_ExcludedNameE, i32 0, i32 0) }, %"struct.std::__1::pair.14" { i64 -7948739532689395823, i8* getelementptr inbounds ([0 x i8], [0 x i8]* @_ZN3ukm8builders19Memory_TabFootprint32kSubFrameProcessPMF_IncludedNameE, i32 0, i32 0) }, %"struct.std::__1::pair.14" { i64 -7188125178626190015, i8* getelementptr inbounds ([0 x i8], [0 x i8]* @_ZN3ukm8builders19Memory_TabFootprint29kSubFrameProcessPMF_TotalNameE, i32 0, i32 0) }, %"struct.std::__1::pair.14" { i64 5878461021664314052, i8* getelementptr inbounds ([0 x i8], [0 x i8]* @_ZN3ukm8builders19Memory_TabFootprint11kTabPMFNameE, i32 0, i32 0) }], align 8
@_ZN3ukm8builders39MixedContentAutoupgrade_ResourceRequest10kEntryNameE = external constant [0 x i8], align 1
@_ZN3ukm8builders39MixedContentAutoupgrade_ResourceRequest9kCodeNameE = external constant [0 x i8], align 1
@_ZN3ukm8builders39MixedContentAutoupgrade_ResourceRequest11kStatusNameE = external constant [0 x i8], align 1
@.ref.tmp.124 = private constant [2 x %"struct.std::__1::pair.14"] [%"struct.std::__1::pair.14" { i64 -3887245461466690769, i8* getelementptr inbounds ([0 x i8], [0 x i8]* @_ZN3ukm8builders39MixedContentAutoupgrade_ResourceRequest9kCodeNameE, i32 0, i32 0) }, %"struct.std::__1::pair.14" { i64 -1417603893889880363, i8* getelementptr inbounds ([0 x i8], [0 x i8]* @_ZN3ukm8builders39MixedContentAutoupgrade_ResourceRequest11kStatusNameE, i32 0, i32 0) }], align 8
@_ZN3ukm8builders18MobileFriendliness10kEntryNameE = external constant [0 x i8], align 1
@_ZN3ukm8builders18MobileFriendliness18kAllowUserZoomNameE = external constant [0 x i8], align 1
@_ZN3ukm8builders18MobileFriendliness23kBadTapTargetsRatioNameE = external constant [0 x i8], align 1
@_ZN3ukm8builders18MobileFriendliness19kSmallTextRatioNameE = external constant [0 x i8], align 1
@_ZN3ukm8builders18MobileFriendliness41kTextContentOutsideViewportPercentageNameE = external constant [0 x i8], align 1
@_ZN3ukm8builders18MobileFriendliness24kViewportDeviceWidthNameE = external constant [0 x i8], align 1
@_ZN3ukm8builders18MobileFriendliness27kViewportHardcodedWidthNameE = external constant [0 x i8], align 1
@_ZN3ukm8builders18MobileFriendliness28kViewportInitialScaleX10NameE = external constant [0 x i8], align 1
@.ref.tmp.125 = private constant [7 x %"struct.std::__1::pair.14"] [%"struct.std::__1::pair.14" { i64 -4303996428002400597, i8* getelementptr inbounds ([0 x i8], [0 x i8]* @_ZN3ukm8builders18MobileFriendliness18kAllowUserZoomNameE, i32 0, i32 0) }, %"struct.std::__1::pair.14" { i64 -7437197049629027538, i8* getelementptr inbounds ([0 x i8], [0 x i8]* @_ZN3ukm8builders18MobileFriendliness23kBadTapTargetsRatioNameE, i32 0, i32 0) }, %"struct.std::__1::pair.14" { i64 5694740463845988499, i8* getelementptr inbounds ([0 x i8], [0 x i8]* @_ZN3ukm8builders18MobileFriendliness19kSmallTextRatioNameE, i32 0, i32 0) }, %"struct.std::__1::pair.14" { i64 -5074853110999558035, i8* getelementptr inbounds ([0 x i8], [0 x i8]* @_ZN3ukm8builders18MobileFriendliness41kTextContentOutsideViewportPercentageNameE, i32 0, i32 0) }, %"struct.std::__1::pair.14" { i64 -1009975167300625713, i8* getelementptr inbounds ([0 x i8], [0 x i8]* @_ZN3ukm8builders18MobileFriendliness24kViewportDeviceWidthNameE, i32 0, i32 0) }, %"struct.std::__1::pair.14" { i64 8491227714119818609, i8* getelementptr inbounds ([0 x i8], [0 x i8]* @_ZN3ukm8builders18MobileFriendliness27kViewportHardcodedWidthNameE, i32 0, i32 0) }, %"struct.std::__1::pair.14" { i64 -8102570874513853483, i8* getelementptr inbounds ([0 x i8], [0 x i8]* @_ZN3ukm8builders18MobileFriendliness28kViewportInitialScaleX10NameE, i32 0, i32 0) }], align 8
@_ZN3ukm8builders22MobileMenu_DirectShare10kEntryNameE = external constant [0 x i8], align 1
@_ZN3ukm8builders22MobileMenu_DirectShare16kHasOccurredNameE = external constant [0 x i8], align 1
@.ref.tmp.126 = private constant [1 x %"struct.std::__1::pair.14"] [%"struct.std::__1::pair.14" { i64 1401967873843414280, i8* getelementptr inbounds ([0 x i8], [0 x i8]* @_ZN3ukm8builders22MobileMenu_DirectShare16kHasOccurredNameE, i32 0, i32 0) }], align 8
@_ZN3ukm8builders21MobileMenu_FindInPage10kEntryNameE = external constant [0 x i8], align 1
@_ZN3ukm8builders21MobileMenu_FindInPage16kHasOccurredNameE = external constant [0 x i8], align 1
@.ref.tmp.127 = private constant [1 x %"struct.std::__1::pair.14"] [%"struct.std::__1::pair.14" { i64 1401967873843414280, i8* getelementptr inbounds ([0 x i8], [0 x i8]* @_ZN3ukm8builders21MobileMenu_FindInPage16kHasOccurredNameE, i32 0, i32 0) }], align 8
@_ZN3ukm8builders16MobileMenu_Share10kEntryNameE = external constant [0 x i8], align 1
@_ZN3ukm8builders16MobileMenu_Share16kHasOccurredNameE = external constant [0 x i8], align 1
@.ref.tmp.128 = private constant [1 x %"struct.std::__1::pair.14"] [%"struct.std::__1::pair.14" { i64 1401967873843414280, i8* getelementptr inbounds ([0 x i8], [0 x i8]* @_ZN3ukm8builders16MobileMenu_Share16kHasOccurredNameE, i32 0, i32 0) }], align 8
@_ZN3ukm8builders39NavigationPredictorAnchorElementMetrics10kEntryNameE = external constant [0 x i8], align 1
@_ZN3ukm8builders39NavigationPredictorAnchorElementMetrics16kAnchorIndexNameE = external constant [0 x i8], align 1
@_ZN3ukm8builders39NavigationPredictorAnchorElementMetrics21kBucketedPathHashNameE = external constant [0 x i8], align 1
@_ZN3ukm8builders39NavigationPredictorAnchorElementMetrics18kContainsImageNameE = external constant [0 x i8], align 1
@_ZN3ukm8builders39NavigationPredictorAnchorElementMetrics13kFontSizeNameE = external constant [0 x i8], align 1
@_ZN3ukm8builders39NavigationPredictorAnchorElementMetrics19kHasTextSiblingNameE = external constant [0 x i8], align 1
@_ZN3ukm8builders39NavigationPredictorAnchorElementMetrics11kIsBoldNameE = external constant [0 x i8], align 1
@_ZN3ukm8builders39NavigationPredictorAnchorElementMetrics15kIsInIframeNameE = external constant [0 x i8], align 1
@_ZN3ukm8builders39NavigationPredictorAnchorElementMetrics26kIsURLIncrementedByOneNameE = external constant [0 x i8], align 1
@_ZN3ukm8builders39NavigationPredictorAnchorElementMetrics34kNavigationStartToLinkLoggedMsNameE = external constant [0 x i8], align 1
@_ZN3ukm8builders39NavigationPredictorAnchorElementMetrics14kPathDepthNameE = external constant [0 x i8], align 1
@_ZN3ukm8builders39NavigationPredictorAnchorElementMetrics15kPathLengthNameE = external constant [0 x i8], align 1
@_ZN3ukm8builders39NavigationPredictorAnchorElementMetrics25kPercentClickableAreaNameE = external constant [0 x i8], align 1
@_ZN3ukm8builders39NavigationPredictorAnchorElementMetrics28kPercentVerticalDistanceNameE = external constant [0 x i8], align 1
@_ZN3ukm8builders39NavigationPredictorAnchorElementMetrics15kSameOriginNameE = external constant [0 x i8], align 1
@.ref.tmp.129 = private constant [14 x %"struct.std::__1::pair.14"] [%"struct.std::__1::pair.14" { i64 -9048860036671245767, i8* getelementptr inbounds ([0 x i8], [0 x i8]* @_ZN3ukm8builders39NavigationPredictorAnchorElementMetrics16kAnchorIndexNameE, i32 0, i32 0) }, %"struct.std::__1::pair.14" { i64 8736781991002893450, i8* getelementptr inbounds ([0 x i8], [0 x i8]* @_ZN3ukm8builders39NavigationPredictorAnchorElementMetrics21kBucketedPathHashNameE, i32 0, i32 0) }, %"struct.std::__1::pair.14" { i64 -2005105107856296256, i8* getelementptr inbounds ([0 x i8], [0 x i8]* @_ZN3ukm8builders39NavigationPredictorAnchorElementMetrics18kContainsImageNameE, i32 0, i32 0) }, %"struct.std::__1::pair.14" { i64 2643658496925572245, i8* getelementptr inbounds ([0 x i8], [0 x i8]* @_ZN3ukm8builders39NavigationPredictorAnchorElementMetrics13kFontSizeNameE, i32 0, i32 0) }, %"struct.std::__1::pair.14" { i64 5766907595008553355, i8* getelementptr inbounds ([0 x i8], [0 x i8]* @_ZN3ukm8builders39NavigationPredictorAnchorElementMetrics19kHasTextSiblingNameE, i32 0, i32 0) }, %"struct.std::__1::pair.14" { i64 4144648385448633082, i8* getelementptr inbounds ([0 x i8], [0 x i8]* @_ZN3ukm8builders39NavigationPredictorAnchorElementMetrics11kIsBoldNameE, i32 0, i32 0) }, %"struct.std::__1::pair.14" { i64 2879927029285282397, i8* getelementptr inbounds ([0 x i8], [0 x i8]* @_ZN3ukm8builders39NavigationPredictorAnchorElementMetrics15kIsInIframeNameE, i32 0, i32 0) }, %"struct.std::__1::pair.14" { i64 3472078046519927012, i8* getelementptr inbounds ([0 x i8], [0 x i8]* @_ZN3ukm8builders39NavigationPredictorAnchorElementMetrics26kIsURLIncrementedByOneNameE, i32 0, i32 0) }, %"struct.std::__1::pair.14" { i64 2339728805912802951, i8* getelementptr inbounds ([0 x i8], [0 x i8]* @_ZN3ukm8builders39NavigationPredictorAnchorElementMetrics34kNavigationStartToLinkLoggedMsNameE, i32 0, i32 0) }, %"struct.std::__1::pair.14" { i64 5175545670794720336, i8* getelementptr inbounds ([0 x i8], [0 x i8]* @_ZN3ukm8builders39NavigationPredictorAnchorElementMetrics14kPathDepthNameE, i32 0, i32 0) }, %"struct.std::__1::pair.14" { i64 1889323937569217530, i8* getelementptr inbounds ([0 x i8], [0 x i8]* @_ZN3ukm8builders39NavigationPredictorAnchorElementMetrics15kPathLengthNameE, i32 0, i32 0) }, %"struct.std::__1::pair.14" { i64 -6284243148640024057, i8* getelementptr inbounds ([0 x i8], [0 x i8]* @_ZN3ukm8builders39NavigationPredictorAnchorElementMetrics25kPercentClickableAreaNameE, i32 0, i32 0) }, %"struct.std::__1::pair.14" { i64 -3467086660514388160, i8* getelementptr inbounds ([0 x i8], [0 x i8]* @_ZN3ukm8builders39NavigationPredictorAnchorElementMetrics28kPercentVerticalDistanceNameE, i32 0, i32 0) }, %"struct.std::__1::pair.14" { i64 3198866256218607801, i8* getelementptr inbounds ([0 x i8], [0 x i8]* @_ZN3ukm8builders39NavigationPredictorAnchorElementMetrics15kSameOriginNameE, i32 0, i32 0) }], align 8
@_ZN3ukm8builders32NavigationPredictorPageLinkClick10kEntryNameE = external constant [0 x i8], align 1
@_ZN3ukm8builders32NavigationPredictorPageLinkClick23kAnchorElementIndexNameE = external constant [0 x i8], align 1
@_ZN3ukm8builders32NavigationPredictorPageLinkClick18kHrefUnchangedNameE = external constant [0 x i8], align 1
@.ref.tmp.130 = private constant [2 x %"struct.std::__1::pair.14"] [%"struct.std::__1::pair.14" { i64 -7968136504846480340, i8* getelementptr inbounds ([0 x i8], [0 x i8]* @_ZN3ukm8builders32NavigationPredictorPageLinkClick23kAnchorElementIndexNameE, i32 0, i32 0) }, %"struct.std::__1::pair.14" { i64 3501437891647978003, i8* getelementptr inbounds ([0 x i8], [0 x i8]* @_ZN3ukm8builders32NavigationPredictorPageLinkClick18kHrefUnchangedNameE, i32 0, i32 0) }], align 8
@_ZN3ukm8builders34NavigationPredictorPageLinkMetrics10kEntryNameE = external constant [0 x i8], align 1
@_ZN3ukm8builders34NavigationPredictorPageLinkMetrics23kMedianLinkLocationNameE = external constant [0 x i8], align 1
@_ZN3ukm8builders34NavigationPredictorPageLinkMetrics34kNumberOfAnchors_ContainsImageNameE = external constant [0 x i8], align 1
@_ZN3ukm8builders34NavigationPredictorPageLinkMetrics29kNumberOfAnchors_InIframeNameE = external constant [0 x i8], align 1
@_ZN3ukm8builders34NavigationPredictorPageLinkMetrics29kNumberOfAnchors_SameHostNameE = external constant [0 x i8], align 1
@_ZN3ukm8builders34NavigationPredictorPageLinkMetrics26kNumberOfAnchors_TotalNameE = external constant [0 x i8], align 1
@_ZN3ukm8builders34NavigationPredictorPageLinkMetrics35kNumberOfAnchors_URLIncrementedNameE = external constant [0 x i8], align 1
@_ZN3ukm8builders34NavigationPredictorPageLinkMetrics24kTotalClickableSpaceNameE = external constant [0 x i8], align 1
@_ZN3ukm8builders34NavigationPredictorPageLinkMetrics20kViewport_HeightNameE = external constant [0 x i8], align 1
@_ZN3ukm8builders34NavigationPredictorPageLinkMetrics19kViewport_WidthNameE = external constant [0 x i8], align 1
@.ref.tmp.131 = private constant [9 x %"struct.std::__1::pair.14"] [%"struct.std::__1::pair.14" { i64 -7954627416995133850, i8* getelementptr inbounds ([0 x i8], [0 x i8]* @_ZN3ukm8builders34NavigationPredictorPageLinkMetrics23kMedianLinkLocationNameE, i32 0, i32 0) }, %"struct.std::__1::pair.14" { i64 924687343626407188, i8* getelementptr inbounds ([0 x i8], [0 x i8]* @_ZN3ukm8builders34NavigationPredictorPageLinkMetrics34kNumberOfAnchors_ContainsImageNameE, i32 0, i32 0) }, %"struct.std::__1::pair.14" { i64 6586263068289067744, i8* getelementptr inbounds ([0 x i8], [0 x i8]* @_ZN3ukm8builders34NavigationPredictorPageLinkMetrics29kNumberOfAnchors_InIframeNameE, i32 0, i32 0) }, %"struct.std::__1::pair.14" { i64 6024206236807188452, i8* getelementptr inbounds ([0 x i8], [0 x i8]* @_ZN3ukm8builders34NavigationPredictorPageLinkMetrics29kNumberOfAnchors_SameHostNameE, i32 0, i32 0) }, %"struct.std::__1::pair.14" { i64 2837656844888606476, i8* getelementptr inbounds ([0 x i8], [0 x i8]* @_ZN3ukm8builders34NavigationPredictorPageLinkMetrics26kNumberOfAnchors_TotalNameE, i32 0, i32 0) }, %"struct.std::__1::pair.14" { i64 4900312954566928460, i8* getelementptr inbounds ([0 x i8], [0 x i8]* @_ZN3ukm8builders34NavigationPredictorPageLinkMetrics35kNumberOfAnchors_URLIncrementedNameE, i32 0, i32 0) }, %"struct.std::__1::pair.14" { i64 1923089912871098586, i8* getelementptr inbounds ([0 x i8], [0 x i8]* @_ZN3ukm8builders34NavigationPredictorPageLinkMetrics24kTotalClickableSpaceNameE, i32 0, i32 0) }, %"struct.std::__1::pair.14" { i64 6402799756853104710, i8* getelementptr inbounds ([0 x i8], [0 x i8]* @_ZN3ukm8builders34NavigationPredictorPageLinkMetrics20kViewport_HeightNameE, i32 0, i32 0) }, %"struct.std::__1::pair.14" { i64 2201646688798995121, i8* getelementptr inbounds ([0 x i8], [0 x i8]* @_ZN3ukm8builders34NavigationPredictorPageLinkMetrics19kViewport_WidthNameE, i32 0, i32 0) }], align 8
@_ZN3ukm8builders16NavigationTiming10kEntryNameE = external constant [0 x i8], align 1
@_ZN3ukm8builders16NavigationTiming30kEarlyHintsForFinalRequestNameE = external constant [0 x i8], align 1
@_ZN3ukm8builders16NavigationTiming30kEarlyHintsForFirstRequestNameE = external constant [0 x i8], align 1
@_ZN3ukm8builders16NavigationTiming24kFinalLoaderCallbackNameE = external constant [0 x i8], align 1
@_ZN3ukm8builders16NavigationTiming22kFinalRequestStartNameE = external constant [0 x i8], align 1
@_ZN3ukm8builders16NavigationTiming23kFinalResponseStartNameE = external constant [0 x i8], align 1
@_ZN3ukm8builders16NavigationTiming24kFirstLoaderCallbackNameE = external constant [0 x i8], align 1
@_ZN3ukm8builders16NavigationTiming22kFirstRequestStartNameE = external constant [0 x i8], align 1
@_ZN3ukm8builders16NavigationTiming23kFirstResponseStartNameE = external constant [0 x i8], align 1
@_ZN3ukm8builders16NavigationTiming25kNavigationCommitSentNameE = external constant [0 x i8], align 1
@.ref.tmp.132 = private constant [9 x %"struct.std::__1::pair.14"] [%"struct.std::__1::pair.14" { i64 5092628848011672940, i8* getelementptr inbounds ([0 x i8], [0 x i8]* @_ZN3ukm8builders16NavigationTiming30kEarlyHintsForFinalRequestNameE, i32 0, i32 0) }, %"struct.std::__1::pair.14" { i64 311721564212070322, i8* getelementptr inbounds ([0 x i8], [0 x i8]* @_ZN3ukm8builders16NavigationTiming30kEarlyHintsForFirstRequestNameE, i32 0, i32 0) }, %"struct.std::__1::pair.14" { i64 6374469588262495910, i8* getelementptr inbounds ([0 x i8], [0 x i8]* @_ZN3ukm8builders16NavigationTiming24kFinalLoaderCallbackNameE, i32 0, i32 0) }, %"struct.std::__1::pair.14" { i64 -6631344128355457470, i8* getelementptr inbounds ([0 x i8], [0 x i8]* @_ZN3ukm8builders16NavigationTiming22kFinalRequestStartNameE, i32 0, i32 0) }, %"struct.std::__1::pair.14" { i64 -4531396662273464270, i8* getelementptr inbounds ([0 x i8], [0 x i8]* @_ZN3ukm8builders16NavigationTiming23kFinalResponseStartNameE, i32 0, i32 0) }, %"struct.std::__1::pair.14" { i64 -2826932748565614044, i8* getelementptr inbounds ([0 x i8], [0 x i8]* @_ZN3ukm8builders16NavigationTiming24kFirstLoaderCallbackNameE, i32 0, i32 0) }, %"struct.std::__1::pair.14" { i64 8607578836164150031, i8* getelementptr inbounds ([0 x i8], [0 x i8]* @_ZN3ukm8builders16NavigationTiming22kFirstRequestStartNameE, i32 0, i32 0) }, %"struct.std::__1::pair.14" { i64 -5525135585814608432, i8* getelementptr inbounds ([0 x i8], [0 x i8]* @_ZN3ukm8builders16NavigationTiming23kFirstResponseStartNameE, i32 0, i32 0) }, %"struct.std::__1::pair.14" { i64 -7690750861686413247, i8* getelementptr inbounds ([0 x i8], [0 x i8]* @_ZN3ukm8builders16NavigationTiming25kNavigationCommitSentNameE, i32 0, i32 0) }], align 8
@_ZN3ukm8builders20Net_LegacyTLSVersion10kEntryNameE = external constant [0 x i8], align 1
@_ZN3ukm8builders20Net_LegacyTLSVersion17kIsAdResourceNameE = external constant [0 x i8], align 1
@_ZN3ukm8builders20Net_LegacyTLSVersion16kIsMainFrameNameE = external constant [0 x i8], align 1
@_ZN3ukm8builders20Net_LegacyTLSVersion18kIsSubresourceNameE = external constant [0 x i8], align 1
@.ref.tmp.133 = private constant [3 x %"struct.std::__1::pair.14"] [%"struct.std::__1::pair.14" { i64 -8997167219842358161, i8* getelementptr inbounds ([0 x i8], [0 x i8]* @_ZN3ukm8builders20Net_LegacyTLSVersion17kIsAdResourceNameE, i32 0, i32 0) }, %"struct.std::__1::pair.14" { i64 7266626398784684486, i8* getelementptr inbounds ([0 x i8], [0 x i8]* @_ZN3ukm8builders20Net_LegacyTLSVersion16kIsMainFrameNameE, i32 0, i32 0) }, %"struct.std::__1::pair.14" { i64 -8762430444497217645, i8* getelementptr inbounds ([0 x i8], [0 x i8]* @_ZN3ukm8builders20Net_LegacyTLSVersion18kIsSubresourceNameE, i32 0, i32 0) }], align 8
@_ZN3ukm8builders15NoStatePrefetch10kEntryNameE = external constant [0 x i8], align 1
@_ZN3ukm8builders15NoStatePrefetch35kPrefetchedRecently_FinalStatusNameE = external constant [0 x i8], align 1
@_ZN3ukm8builders15NoStatePrefetch30kPrefetchedRecently_OriginNameE = external constant [0 x i8], align 1
@_ZN3ukm8builders15NoStatePrefetch35kPrefetchedRecently_PrefetchAgeNameE = external constant [0 x i8], align 1
@.ref.tmp.134 = private constant [3 x %"struct.std::__1::pair.14"] [%"struct.std::__1::pair.14" { i64 -8650272226060282866, i8* getelementptr inbounds ([0 x i8], [0 x i8]* @_ZN3ukm8builders15NoStatePrefetch35kPrefetchedRecently_FinalStatusNameE, i32 0, i32 0) }, %"struct.std::__1::pair.14" { i64 2530841639179133763, i8* getelementptr inbounds ([0 x i8], [0 x i8]* @_ZN3ukm8builders15NoStatePrefetch30kPrefetchedRecently_OriginNameE, i32 0, i32 0) }, %"struct.std::__1::pair.14" { i64 -8023772648311652209, i8* getelementptr inbounds ([0 x i8], [0 x i8]* @_ZN3ukm8builders15NoStatePrefetch35kPrefetchedRecently_PrefetchAgeNameE, i32 0, i32 0) }], align 8
@_ZN3ukm8builders12Notification10kEntryNameE = external constant [0 x i8], align 1
@_ZN3ukm8builders12Notification17kClosedReasonNameE = external constant [0 x i8], align 1
@_ZN3ukm8builders12Notification34kDidReplaceAnotherNotificationNameE = external constant [0 x i8], align 1
@_ZN3ukm8builders12Notification24kDidUserOpenSettingsNameE = external constant [0 x i8], align 1
@_ZN3ukm8builders12Notification13kHasBadgeNameE = external constant [0 x i8], align 1
@_ZN3ukm8builders12Notification12kHasIconNameE = external constant [0 x i8], align 1
@_ZN3ukm8builders12Notification13kHasImageNameE = external constant [0 x i8], align 1
@_ZN3ukm8builders12Notification16kHasRenotifyNameE = external constant [0 x i8], align 1
@_ZN3ukm8builders12Notification11kHasTagNameE = external constant [0 x i8], align 1
@_ZN3ukm8builders12Notification13kIsSilentNameE = external constant [0 x i8], align 1
@_ZN3ukm8builders12Notification26kNumActionButtonClicksNameE = external constant [0 x i8], align 1
@_ZN3ukm8builders12Notification15kNumActionsNameE = external constant [0 x i8], align 1
@_ZN3ukm8builders12Notification14kNumClicksNameE = external constant [0 x i8], align 1
@_ZN3ukm8builders12Notification23kRequireInteractionNameE = external constant [0 x i8], align 1
@_ZN3ukm8builders12Notification19kTimeUntilCloseNameE = external constant [0 x i8], align 1
@_ZN3ukm8builders12Notification24kTimeUntilFirstClickNameE = external constant [0 x i8], align 1
@_ZN3ukm8builders12Notification23kTimeUntilLastClickNameE = external constant [0 x i8], align 1
@.ref.tmp.135 = private constant [16 x %"struct.std::__1::pair.14"] [%"struct.std::__1::pair.14" { i64 -1426012782668150232, i8* getelementptr inbounds ([0 x i8], [0 x i8]* @_ZN3ukm8builders12Notification17kClosedReasonNameE, i32 0, i32 0) }, %"struct.std::__1::pair.14" { i64 -3749432013274728212, i8* getelementptr inbounds ([0 x i8], [0 x i8]* @_ZN3ukm8builders12Notification34kDidReplaceAnotherNotificationNameE, i32 0, i32 0) }, %"struct.std::__1::pair.14" { i64 -5989049115097321880, i8* getelementptr inbounds ([0 x i8], [0 x i8]* @_ZN3ukm8builders12Notification24kDidUserOpenSettingsNameE, i32 0, i32 0) }, %"struct.std::__1::pair.14" { i64 1404314928722833713, i8* getelementptr inbounds ([0 x i8], [0 x i8]* @_ZN3ukm8builders12Notification13kHasBadgeNameE, i32 0, i32 0) }, %"struct.std::__1::pair.14" { i64 4132654540182426756, i8* getelementptr inbounds ([0 x i8], [0 x i8]* @_ZN3ukm8builders12Notification12kHasIconNameE, i32 0, i32 0) }, %"struct.std::__1::pair.14" { i64 -2780170561508532880, i8* getelementptr inbounds ([0 x i8], [0 x i8]* @_ZN3ukm8builders12Notification13kHasImageNameE, i32 0, i32 0) }, %"struct.std::__1::pair.14" { i64 1255778828920234902, i8* getelementptr inbounds ([0 x i8], [0 x i8]* @_ZN3ukm8builders12Notification16kHasRenotifyNameE, i32 0, i32 0) }, %"struct.std::__1::pair.14" { i64 -8043322728912452030, i8* getelementptr inbounds ([0 x i8], [0 x i8]* @_ZN3ukm8builders12Notification11kHasTagNameE, i32 0, i32 0) }, %"struct.std::__1::pair.14" { i64 -5835450024282430951, i8* getelementptr inbounds ([0 x i8], [0 x i8]* @_ZN3ukm8builders12Notification13kIsSilentNameE, i32 0, i32 0) }, %"struct.std::__1::pair.14" { i64 -3046625320756029994, i8* getelementptr inbounds ([0 x i8], [0 x i8]* @_ZN3ukm8builders12Notification26kNumActionButtonClicksNameE, i32 0, i32 0) }, %"struct.std::__1::pair.14" { i64 1524089126526666739, i8* getelementptr inbounds ([0 x i8], [0 x i8]* @_ZN3ukm8builders12Notification15kNumActionsNameE, i32 0, i32 0) }, %"struct.std::__1::pair.14" { i64 7685741146111146271, i8* getelementptr inbounds ([0 x i8], [0 x i8]* @_ZN3ukm8builders12Notification14kNumClicksNameE, i32 0, i32 0) }, %"struct.std::__1::pair.14" { i64 1417488390737291945, i8* getelementptr inbounds ([0 x i8], [0 x i8]* @_ZN3ukm8builders12Notification23kRequireInteractionNameE, i32 0, i32 0) }, %"struct.std::__1::pair.14" { i64 -6446836646813293289, i8* getelementptr inbounds ([0 x i8], [0 x i8]* @_ZN3ukm8builders12Notification19kTimeUntilCloseNameE, i32 0, i32 0) }, %"struct.std::__1::pair.14" { i64 5643047780569843127, i8* getelementptr inbounds ([0 x i8], [0 x i8]* @_ZN3ukm8builders12Notification24kTimeUntilFirstClickNameE, i32 0, i32 0) }, %"struct.std::__1::pair.14" { i64 -7270942756295070752, i8* getelementptr inbounds ([0 x i8], [0 x i8]* @_ZN3ukm8builders12Notification23kTimeUntilLastClickNameE, i32 0, i32 0) }], align 8
@_ZN3ukm8builders17OptimizationGuide10kEntryNameE = external constant [0 x i8], align 1
@_ZN3ukm8builders17OptimizationGuide38kNavigationHintsFetchAttemptStatusNameE = external constant [0 x i8], align 1
@_ZN3ukm8builders17OptimizationGuide39kNavigationHintsFetchRequestLatencyNameE = external constant [0 x i8], align 1
@_ZN3ukm8builders17OptimizationGuide34kRegisteredOptimizationTargetsNameE = external constant [0 x i8], align 1
@_ZN3ukm8builders17OptimizationGuide32kRegisteredOptimizationTypesNameE = external constant [0 x i8], align 1
@.ref.tmp.136 = private constant [4 x %"struct.std::__1::pair.14"] [%"struct.std::__1::pair.14" { i64 1464000691203191735, i8* getelementptr inbounds ([0 x i8], [0 x i8]* @_ZN3ukm8builders17OptimizationGuide38kNavigationHintsFetchAttemptStatusNameE, i32 0, i32 0) }, %"struct.std::__1::pair.14" { i64 6533440160746002973, i8* getelementptr inbounds ([0 x i8], [0 x i8]* @_ZN3ukm8builders17OptimizationGuide39kNavigationHintsFetchRequestLatencyNameE, i32 0, i32 0) }, %"struct.std::__1::pair.14" { i64 -1863225592294019911, i8* getelementptr inbounds ([0 x i8], [0 x i8]* @_ZN3ukm8builders17OptimizationGuide34kRegisteredOptimizationTargetsNameE, i32 0, i32 0) }, %"struct.std::__1::pair.14" { i64 -2191151034253065511, i8* getelementptr inbounds ([0 x i8], [0 x i8]* @_ZN3ukm8builders17OptimizationGuide32kRegisteredOptimizationTypesNameE, i32 0, i32 0) }], align 8
@_ZN3ukm8builders27OptimizationGuideAutotuning10kEntryNameE = external constant [0 x i8], align 1
@_ZN3ukm8builders27OptimizationGuideAutotuning21kOptimizationTypeNameE = external constant [0 x i8], align 1
@_ZN3ukm8builders27OptimizationGuideAutotuning18kTuningVersionNameE = external constant [0 x i8], align 1
@.ref.tmp.137 = private constant [2 x %"struct.std::__1::pair.14"] [%"struct.std::__1::pair.14" { i64 1272077668834660209, i8* getelementptr inbounds ([0 x i8], [0 x i8]* @_ZN3ukm8builders27OptimizationGuideAutotuning21kOptimizationTypeNameE, i32 0, i32 0) }, %"struct.std::__1::pair.14" { i64 5592181253919848306, i8* getelementptr inbounds ([0 x i8], [0 x i8]* @_ZN3ukm8builders27OptimizationGuideAutotuning18kTuningVersionNameE, i32 0, i32 0) }], align 8
@_ZN3ukm8builders14PageDomainInfo10kEntryNameE = external constant [0 x i8], align 1
@_ZN3ukm8builders14PageDomainInfo15kDomainTypeNameE = external constant [0 x i8], align 1
@.ref.tmp.138 = private constant [1 x %"struct.std::__1::pair.14"] [%"struct.std::__1::pair.14" { i64 7797620970950375408, i8* getelementptr inbounds ([0 x i8], [0 x i8]* @_ZN3ukm8builders14PageDomainInfo15kDomainTypeNameE, i32 0, i32 0) }], align 8
@_ZN3ukm8builders21PageForegroundSession10kEntryNameE = external constant [0 x i8], align 1
@_ZN3ukm8builders21PageForegroundSession23kForegroundDurationNameE = external constant [0 x i8], align 1
@_ZN3ukm8builders21PageForegroundSession29kForegroundNumInputEventsNameE = external constant [0 x i8], align 1
@_ZN3ukm8builders21PageForegroundSession38kForegroundTotalAdjustedInputDelayNameE = external constant [0 x i8], align 1
@_ZN3ukm8builders21PageForegroundSession30kForegroundTotalInputDelayNameE = external constant [0 x i8], align 1
@.ref.tmp.139 = private constant [4 x %"struct.std::__1::pair.14"] [%"struct.std::__1::pair.14" { i64 -4406250453856452704, i8* getelementptr inbounds ([0 x i8], [0 x i8]* @_ZN3ukm8builders21PageForegroundSession23kForegroundDurationNameE, i32 0, i32 0) }, %"struct.std::__1::pair.14" { i64 8312183371249827438, i8* getelementptr inbounds ([0 x i8], [0 x i8]* @_ZN3ukm8builders21PageForegroundSession29kForegroundNumInputEventsNameE, i32 0, i32 0) }, %"struct.std::__1::pair.14" { i64 4081792426231663378, i8* getelementptr inbounds ([0 x i8], [0 x i8]* @_ZN3ukm8builders21PageForegroundSession38kForegroundTotalAdjustedInputDelayNameE, i32 0, i32 0) }, %"struct.std::__1::pair.14" { i64 8008711279838603073, i8* getelementptr inbounds ([0 x i8], [0 x i8]* @_ZN3ukm8builders21PageForegroundSession30kForegroundTotalInputDelayNameE, i32 0, i32 0) }], align 8
@_ZN3ukm8builders14PageInfoBubble10kEntryNameE = external constant [0 x i8], align 1
@_ZN3ukm8builders14PageInfoBubble16kActionTakenNameE = external constant [0 x i8], align 1
@.ref.tmp.140 = private constant [1 x %"struct.std::__1::pair.14"] [%"struct.std::__1::pair.14" { i64 -8945940828803116101, i8* getelementptr inbounds ([0 x i8], [0 x i8]* @_ZN3ukm8builders14PageInfoBubble16kActionTakenNameE, i32 0, i32 0) }], align 8
@_ZN3ukm8builders8PageLoad10kEntryNameE = external constant [0 x i8], align 1
@_ZN3ukm8builders8PageLoad12kCpuTimeNameE = external constant [0 x i8], align 1
@_ZN3ukm8builders8PageLoad58kDocumentTiming_NavigationToDOMContentLoadedEventFiredNameE = external constant [0 x i8], align 1
@_ZN3ukm8builders8PageLoad46kDocumentTiming_NavigationToLoadEventFiredNameE = external constant [0 x i8], align 1
@_ZN3ukm8builders8PageLoad34kDurationSinceLastVisitSecondsNameE = external constant [0 x i8], align 1
@_ZN3ukm8builders8PageLoad40kExperimental_InputToNavigationStartNameE = external constant [0 x i8], align 1
@_ZN3ukm8builders8PageLoad42kExperimental_Navigation_UserInitiatedNameE = external constant [0 x i8], align 1
@_ZN3ukm8builders8PageLoad30kExperimental_PageLoadTypeNameE = external constant [0 x i8], align 1
@_ZN3ukm8builders8PageLoad62kExperimental_PaintTiming_NavigationToFirstMeaningfulPaintNameE = external constant [0 x i8], align 1
@_ZN3ukm8builders8PageLoad41kExperimental_TotalForegroundDurationNameE = external constant [0 x i8], align 1
@_ZN3ukm8builders8PageLoad39kInteractiveTiming_FirstInputDelay4NameE = external constant [0 x i8], align 1
@_ZN3ukm8builders8PageLoad48kInteractiveTiming_FirstInputProcessingTimesNameE = external constant [0 x i8], align 1
@_ZN3ukm8builders8PageLoad43kInteractiveTiming_FirstInputTimestamp4NameE = external constant [0 x i8], align 1
@_ZN3ukm8builders8PageLoad39kInteractiveTiming_FirstScrollDelayNameE = external constant [0 x i8], align 1
@_ZN3ukm8builders8PageLoad41kInteractiveTiming_LongestInputDelay4NameE = external constant [0 x i8], align 1
@_ZN3ukm8builders8PageLoad45kInteractiveTiming_LongestInputTimestamp4NameE = external constant [0 x i8], align 1
@_ZN3ukm8builders8PageLoad37kInteractiveTiming_NumInputEventsNameE = external constant [0 x i8], align 1
@_ZN3ukm8builders8PageLoad46kInteractiveTiming_TotalAdjustedInputDelayNameE = external constant [0 x i8], align 1
@_ZN3ukm8builders8PageLoad38kInteractiveTiming_TotalInputDelayNameE = external constant [0 x i8], align 1
@_ZN3ukm8builders8PageLoad29kIsCrossProcessNavigationNameE = external constant [0 x i8], align 1
@_ZN3ukm8builders8PageLoad23kIsExistingBookmarkNameE = external constant [0 x i8], align 1
@_ZN3ukm8builders8PageLoad29kIsExistingPartOfTabGroupNameE = external constant [0 x i8], align 1
@_ZN3ukm8builders8PageLoad18kIsNewBookmarkNameE = external constant [0 x i8], align 1
@_ZN3ukm8builders8PageLoad20kIsNTPCustomLinkNameE = external constant [0 x i8], align 1
@_ZN3ukm8builders8PageLoad23kIsPlacedInTabGroupNameE = external constant [0 x i8], align 1
@_ZN3ukm8builders8PageLoad74kLayoutInstability_AverageCumulativeShiftScore_SessionWindow_Gap5000msNameE = external constant [0 x i8], align 1
@_ZN3ukm8builders8PageLoad43kLayoutInstability_CumulativeShiftScoreNameE = external constant [0 x i8], align 1
@_ZN3ukm8builders8PageLoad63kLayoutInstability_CumulativeShiftScore_BeforeInputOrScrollNameE = external constant [0 x i8], align 1
@_ZN3ukm8builders8PageLoad53kLayoutInstability_CumulativeShiftScore_MainFrameNameE = external constant [0 x i8], align 1
@_ZN3ukm8builders8PageLoad73kLayoutInstability_CumulativeShiftScore_MainFrame_BeforeInputOrScrollNameE = external constant [0 x i8], align 1
@_ZN3ukm8builders8PageLoad70kLayoutInstability_MaxCumulativeShiftScore_SessionWindow_Gap1000msNameE = external constant [0 x i8], align 1
@_ZN3ukm8builders8PageLoad80kLayoutInstability_MaxCumulativeShiftScore_SessionWindow_Gap1000ms_Max5000msNameE = external constant [0 x i8], align 1
@_ZN3ukm8builders8PageLoad88kLayoutInstability_MaxCumulativeShiftScore_SessionWindowByInputs_Gap1000ms_Max5000msNameE = external constant [0 x i8], align 1
@_ZN3ukm8builders8PageLoad75kLayoutInstability_MaxCumulativeShiftScore_SlidingWindow_Duration1000msNameE = external constant [0 x i8], align 1
@_ZN3ukm8builders8PageLoad74kLayoutInstability_MaxCumulativeShiftScore_SlidingWindow_Duration300msNameE = external constant [0 x i8], align 1
@_ZN3ukm8builders8PageLoad31kMainDocumentSequenceNumberNameE = external constant [0 x i8], align 1
@_ZN3ukm8builders8PageLoad35kMainFrameResource_ConnectDelayNameE = external constant [0 x i8], align 1
@_ZN3ukm8builders8PageLoad31kMainFrameResource_DNSDelayNameE = external constant [0 x i8], align 1
@_ZN3ukm8builders8PageLoad41kMainFrameResource_HttpProtocolSchemeNameE = external constant [0 x i8], align 1
@_ZN3ukm8builders8PageLoad59kMainFrameResource_NavigationStartToReceiveHeadersStartNameE = external constant [0 x i8], align 1
@_ZN3ukm8builders8PageLoad52kMainFrameResource_NavigationStartToRequestStartNameE = external constant [0 x i8], align 1
@_ZN3ukm8builders8PageLoad36kMainFrameResource_RedirectCountNameE = external constant [0 x i8], align 1
@_ZN3ukm8builders8PageLoad40kMainFrameResource_RequestHadCookiesNameE = external constant [0 x i8], align 1
@_ZN3ukm8builders8PageLoad54kMainFrameResource_RequestStartToReceiveHeadersEndNameE = external constant [0 x i8], align 1
@_ZN3ukm8builders8PageLoad46kMainFrameResource_RequestStartToSendStartNameE = external constant [0 x i8], align 1
@_ZN3ukm8builders8PageLoad51kMainFrameResource_SendStartToReceiveHeadersEndNameE = external constant [0 x i8], align 1
@_ZN3ukm8builders8PageLoad35kMainFrameResource_SocketReusedNameE = external constant [0 x i8], align 1
@_ZN3ukm8builders8PageLoad30kNavigation_PageEndReason3NameE = external constant [0 x i8], align 1
@_ZN3ukm8builders8PageLoad30kNavigation_PageTransitionNameE = external constant [0 x i8], align 1
@_ZN3ukm8builders8PageLoad26kNavigationEntryOffsetNameE = external constant [0 x i8], align 1
@_ZN3ukm8builders8PageLoad20kNet_CacheBytes2NameE = external constant [0 x i8], align 1
@_ZN3ukm8builders8PageLoad49kNet_DownstreamKbpsEstimate_OnNavigationStartNameE = external constant [0 x i8], align 1
@_ZN3ukm8builders8PageLoad51kNet_EffectiveConnectionType2_OnNavigationStartNameE = external constant [0 x i8], align 1
@_ZN3ukm8builders8PageLoad42kNet_ErrorCode_OnFailedProvisionalLoadNameE = external constant [0 x i8], align 1
@_ZN3ukm8builders8PageLoad25kNet_HttpResponseCodeNameE = external constant [0 x i8], align 1
@_ZN3ukm8builders8PageLoad42kNet_HttpRttEstimate_OnNavigationStartNameE = external constant [0 x i8], align 1
@_ZN3ukm8builders8PageLoad19kNet_ImageBytesNameE = external constant [0 x i8], align 1
@_ZN3ukm8builders8PageLoad27kNet_ImageSubframeBytesNameE = external constant [0 x i8], align 1
@_ZN3ukm8builders8PageLoad24kNet_JavaScriptBytesNameE = external constant [0 x i8], align 1
@_ZN3ukm8builders8PageLoad27kNet_JavaScriptMaxBytesNameE = external constant [0 x i8], align 1
@_ZN3ukm8builders8PageLoad19kNet_MediaBytesNameE = external constant [0 x i8], align 1
@_ZN3ukm8builders8PageLoad22kNet_NetworkBytes2NameE = external constant [0 x i8], align 1
@_ZN3ukm8builders8PageLoad47kNet_TransportRttEstimate_OnNavigationStartNameE = external constant [0 x i8], align 1
@_ZN3ukm8builders8PageLoad21kOmniboxUrlCopiedNameE = external constant [0 x i8], align 1
@_ZN3ukm8builders8PageLoad34kPageTiming_ForegroundDurationNameE = external constant [0 x i8], align 1
@_ZN3ukm8builders8PageLoad49kPageTiming_NavigationToFailedProvisionalLoadNameE = external constant [0 x i8], align 1
@_ZN3ukm8builders8PageLoad41kPageTiming_UserTimingMarkFullyLoadedNameE = external constant [0 x i8], align 1
@_ZN3ukm8builders8PageLoad42kPageTiming_UserTimingMarkFullyVisibleNameE = external constant [0 x i8], align 1
@_ZN3ukm8builders8PageLoad41kPageTiming_UserTimingMarkInteractiveNameE = external constant [0 x i8], align 1
@_ZN3ukm8builders8PageLoad49kPaintTiming_NavigationToFirstContentfulPaintNameE = external constant [0 x i8], align 1
@_ZN3ukm8builders8PageLoad39kPaintTiming_NavigationToFirstPaintNameE = external constant [0 x i8], align 1
@_ZN3ukm8builders8PageLoad51kPaintTiming_NavigationToLargestContentfulPaintNameE = external constant [0 x i8], align 1
@_ZN3ukm8builders8PageLoad61kPaintTiming_NavigationToLargestContentfulPaint_MainFrameNameE = external constant [0 x i8], align 1
@_ZN3ukm8builders8PageLoad52kPaintTiming_NavigationToLargestContentfulPaint2NameE = external constant [0 x i8], align 1
@_ZN3ukm8builders8PageLoad62kPaintTiming_NavigationToLargestContentfulPaint2_MainFrameNameE = external constant [0 x i8], align 1
@_ZN3ukm8builders8PageLoad39kParseTiming_NavigationToParseStartNameE = external constant [0 x i8], align 1
@_ZN3ukm8builders8PageLoad24kSiteEngagementScoreNameE = external constant [0 x i8], align 1
@_ZN3ukm8builders8PageLoad40kSiteInstanceRenderProcessAssignmentNameE = external constant [0 x i8], align 1
@_ZN3ukm8builders8PageLoad43kThirdPartyCookieBlockingEnabledForSiteNameE = external constant [0 x i8], align 1
@_ZN3ukm8builders8PageLoad14kWasCachedNameE = external constant [0 x i8], align 1
@.ref.tmp.141 = private constant [79 x %"struct.std::__1::pair.14"] [%"struct.std::__1::pair.14" { i64 6353397511912813717, i8* getelementptr inbounds ([0 x i8], [0 x i8]* @_ZN3ukm8builders8PageLoad12kCpuTimeNameE, i32 0, i32 0) }, %"struct.std::__1::pair.14" { i64 6867802542830008226, i8* getelementptr inbounds ([0 x i8], [0 x i8]* @_ZN3ukm8builders8PageLoad58kDocumentTiming_NavigationToDOMContentLoadedEventFiredNameE, i32 0, i32 0) }, %"struct.std::__1::pair.14" { i64 -8954483705823427798, i8* getelementptr inbounds ([0 x i8], [0 x i8]* @_ZN3ukm8builders8PageLoad46kDocumentTiming_NavigationToLoadEventFiredNameE, i32 0, i32 0) }, %"struct.std::__1::pair.14" { i64 -4381876652893781611, i8* getelementptr inbounds ([0 x i8], [0 x i8]* @_ZN3ukm8builders8PageLoad34kDurationSinceLastVisitSecondsNameE, i32 0, i32 0) }, %"struct.std::__1::pair.14" { i64 -1983448865767341870, i8* getelementptr inbounds ([0 x i8], [0 x i8]* @_ZN3ukm8builders8PageLoad40kExperimental_InputToNavigationStartNameE, i32 0, i32 0) }, %"struct.std::__1::pair.14" { i64 -1796535358494941342, i8* getelementptr inbounds ([0 x i8], [0 x i8]* @_ZN3ukm8builders8PageLoad42kExperimental_Navigation_UserInitiatedNameE, i32 0, i32 0) }, %"struct.std::__1::pair.14" { i64 3954864695611377582, i8* getelementptr inbounds ([0 x i8], [0 x i8]* @_ZN3ukm8builders8PageLoad30kExperimental_PageLoadTypeNameE, i32 0, i32 0) }, %"struct.std::__1::pair.14" { i64 7669206824977834951, i8* getelementptr inbounds ([0 x i8], [0 x i8]* @_ZN3ukm8builders8PageLoad62kExperimental_PaintTiming_NavigationToFirstMeaningfulPaintNameE, i32 0, i32 0) }, %"struct.std::__1::pair.14" { i64 3470931647240642399, i8* getelementptr inbounds ([0 x i8], [0 x i8]* @_ZN3ukm8builders8PageLoad41kExperimental_TotalForegroundDurationNameE, i32 0, i32 0) }, %"struct.std::__1::pair.14" { i64 6127468907094730300, i8* getelementptr inbounds ([0 x i8], [0 x i8]* @_ZN3ukm8builders8PageLoad39kInteractiveTiming_FirstInputDelay4NameE, i32 0, i32 0) }, %"struct.std::__1::pair.14" { i64 1593757276256967582, i8* getelementptr inbounds ([0 x i8], [0 x i8]* @_ZN3ukm8builders8PageLoad48kInteractiveTiming_FirstInputProcessingTimesNameE, i32 0, i32 0) }, %"struct.std::__1::pair.14" { i64 -2177981636398751777, i8* getelementptr inbounds ([0 x i8], [0 x i8]* @_ZN3ukm8builders8PageLoad43kInteractiveTiming_FirstInputTimestamp4NameE, i32 0, i32 0) }, %"struct.std::__1::pair.14" { i64 -5679398612639546298, i8* getelementptr inbounds ([0 x i8], [0 x i8]* @_ZN3ukm8builders8PageLoad39kInteractiveTiming_FirstScrollDelayNameE, i32 0, i32 0) }, %"struct.std::__1::pair.14" { i64 9023942308232641926, i8* getelementptr inbounds ([0 x i8], [0 x i8]* @_ZN3ukm8builders8PageLoad41kInteractiveTiming_LongestInputDelay4NameE, i32 0, i32 0) }, %"struct.std::__1::pair.14" { i64 4114176268949136412, i8* getelementptr inbounds ([0 x i8], [0 x i8]* @_ZN3ukm8builders8PageLoad45kInteractiveTiming_LongestInputTimestamp4NameE, i32 0, i32 0) }, %"struct.std::__1::pair.14" { i64 396062217706944461, i8* getelementptr inbounds ([0 x i8], [0 x i8]* @_ZN3ukm8builders8PageLoad37kInteractiveTiming_NumInputEventsNameE, i32 0, i32 0) }, %"struct.std::__1::pair.14" { i64 6954135380531273761, i8* getelementptr inbounds ([0 x i8], [0 x i8]* @_ZN3ukm8builders8PageLoad46kInteractiveTiming_TotalAdjustedInputDelayNameE, i32 0, i32 0) }, %"struct.std::__1::pair.14" { i64 -7304935970648977081, i8* getelementptr inbounds ([0 x i8], [0 x i8]* @_ZN3ukm8builders8PageLoad38kInteractiveTiming_TotalInputDelayNameE, i32 0, i32 0) }, %"struct.std::__1::pair.14" { i64 -3680743615460981415, i8* getelementptr inbounds ([0 x i8], [0 x i8]* @_ZN3ukm8builders8PageLoad29kIsCrossProcessNavigationNameE, i32 0, i32 0) }, %"struct.std::__1::pair.14" { i64 3849262661369815215, i8* getelementptr inbounds ([0 x i8], [0 x i8]* @_ZN3ukm8builders8PageLoad23kIsExistingBookmarkNameE, i32 0, i32 0) }, %"struct.std::__1::pair.14" { i64 6457812980021662913, i8* getelementptr inbounds ([0 x i8], [0 x i8]* @_ZN3ukm8builders8PageLoad29kIsExistingPartOfTabGroupNameE, i32 0, i32 0) }, %"struct.std::__1::pair.14" { i64 1135618230855533423, i8* getelementptr inbounds ([0 x i8], [0 x i8]* @_ZN3ukm8builders8PageLoad18kIsNewBookmarkNameE, i32 0, i32 0) }, %"struct.std::__1::pair.14" { i64 8353494371537711160, i8* getelementptr inbounds ([0 x i8], [0 x i8]* @_ZN3ukm8builders8PageLoad20kIsNTPCustomLinkNameE, i32 0, i32 0) }, %"struct.std::__1::pair.14" { i64 6426447933177595047, i8* getelementptr inbounds ([0 x i8], [0 x i8]* @_ZN3ukm8builders8PageLoad23kIsPlacedInTabGroupNameE, i32 0, i32 0) }, %"struct.std::__1::pair.14" { i64 7366111029977376286, i8* getelementptr inbounds ([0 x i8], [0 x i8]* @_ZN3ukm8builders8PageLoad74kLayoutInstability_AverageCumulativeShiftScore_SessionWindow_Gap5000msNameE, i32 0, i32 0) }, %"struct.std::__1::pair.14" { i64 6355895514150060407, i8* getelementptr inbounds ([0 x i8], [0 x i8]* @_ZN3ukm8builders8PageLoad43kLayoutInstability_CumulativeShiftScoreNameE, i32 0, i32 0) }, %"struct.std::__1::pair.14" { i64 4412907526533667174, i8* getelementptr inbounds ([0 x i8], [0 x i8]* @_ZN3ukm8builders8PageLoad63kLayoutInstability_CumulativeShiftScore_BeforeInputOrScrollNameE, i32 0, i32 0) }, %"struct.std::__1::pair.14" { i64 -6740299949858043107, i8* getelementptr inbounds ([0 x i8], [0 x i8]* @_ZN3ukm8builders8PageLoad53kLayoutInstability_CumulativeShiftScore_MainFrameNameE, i32 0, i32 0) }, %"struct.std::__1::pair.14" { i64 -2712957806961960170, i8* getelementptr inbounds ([0 x i8], [0 x i8]* @_ZN3ukm8builders8PageLoad73kLayoutInstability_CumulativeShiftScore_MainFrame_BeforeInputOrScrollNameE, i32 0, i32 0) }, %"struct.std::__1::pair.14" { i64 4064389985317360859, i8* getelementptr inbounds ([0 x i8], [0 x i8]* @_ZN3ukm8builders8PageLoad70kLayoutInstability_MaxCumulativeShiftScore_SessionWindow_Gap1000msNameE, i32 0, i32 0) }, %"struct.std::__1::pair.14" { i64 -7616274183452537483, i8* getelementptr inbounds ([0 x i8], [0 x i8]* @_ZN3ukm8builders8PageLoad80kLayoutInstability_MaxCumulativeShiftScore_SessionWindow_Gap1000ms_Max5000msNameE, i32 0, i32 0) }, %"struct.std::__1::pair.14" { i64 4203757051240337720, i8* getelementptr inbounds ([0 x i8], [0 x i8]* @_ZN3ukm8builders8PageLoad88kLayoutInstability_MaxCumulativeShiftScore_SessionWindowByInputs_Gap1000ms_Max5000msNameE, i32 0, i32 0) }, %"struct.std::__1::pair.14" { i64 -8326351039032753840, i8* getelementptr inbounds ([0 x i8], [0 x i8]* @_ZN3ukm8builders8PageLoad75kLayoutInstability_MaxCumulativeShiftScore_SlidingWindow_Duration1000msNameE, i32 0, i32 0) }, %"struct.std::__1::pair.14" { i64 6871856905128777052, i8* getelementptr inbounds ([0 x i8], [0 x i8]* @_ZN3ukm8builders8PageLoad74kLayoutInstability_MaxCumulativeShiftScore_SlidingWindow_Duration300msNameE, i32 0, i32 0) }, %"struct.std::__1::pair.14" { i64 5968137368190340881, i8* getelementptr inbounds ([0 x i8], [0 x i8]* @_ZN3ukm8builders8PageLoad31kMainDocumentSequenceNumberNameE, i32 0, i32 0) }, %"struct.std::__1::pair.14" { i64 4568735770730238095, i8* getelementptr inbounds ([0 x i8], [0 x i8]* @_ZN3ukm8builders8PageLoad35kMainFrameResource_ConnectDelayNameE, i32 0, i32 0) }, %"struct.std::__1::pair.14" { i64 7307227729996236826, i8* getelementptr inbounds ([0 x i8], [0 x i8]* @_ZN3ukm8builders8PageLoad31kMainFrameResource_DNSDelayNameE, i32 0, i32 0) }, %"struct.std::__1::pair.14" { i64 3007836930622015766, i8* getelementptr inbounds ([0 x i8], [0 x i8]* @_ZN3ukm8builders8PageLoad41kMainFrameResource_HttpProtocolSchemeNameE, i32 0, i32 0) }, %"struct.std::__1::pair.14" { i64 1663480531586966499, i8* getelementptr inbounds ([0 x i8], [0 x i8]* @_ZN3ukm8builders8PageLoad59kMainFrameResource_NavigationStartToReceiveHeadersStartNameE, i32 0, i32 0) }, %"struct.std::__1::pair.14" { i64 2378326484600041608, i8* getelementptr inbounds ([0 x i8], [0 x i8]* @_ZN3ukm8builders8PageLoad52kMainFrameResource_NavigationStartToRequestStartNameE, i32 0, i32 0) }, %"struct.std::__1::pair.14" { i64 -5500976164111031780, i8* getelementptr inbounds ([0 x i8], [0 x i8]* @_ZN3ukm8builders8PageLoad36kMainFrameResource_RedirectCountNameE, i32 0, i32 0) }, %"struct.std::__1::pair.14" { i64 8178313979867835427, i8* getelementptr inbounds ([0 x i8], [0 x i8]* @_ZN3ukm8builders8PageLoad40kMainFrameResource_RequestHadCookiesNameE, i32 0, i32 0) }, %"struct.std::__1::pair.14" { i64 -2710874034679262243, i8* getelementptr inbounds ([0 x i8], [0 x i8]* @_ZN3ukm8builders8PageLoad54kMainFrameResource_RequestStartToReceiveHeadersEndNameE, i32 0, i32 0) }, %"struct.std::__1::pair.14" { i64 -4470513216490462874, i8* getelementptr inbounds ([0 x i8], [0 x i8]* @_ZN3ukm8builders8PageLoad46kMainFrameResource_RequestStartToSendStartNameE, i32 0, i32 0) }, %"struct.std::__1::pair.14" { i64 -3517401667133716179, i8* getelementptr inbounds ([0 x i8], [0 x i8]* @_ZN3ukm8builders8PageLoad51kMainFrameResource_SendStartToReceiveHeadersEndNameE, i32 0, i32 0) }, %"struct.std::__1::pair.14" { i64 6515553691927856961, i8* getelementptr inbounds ([0 x i8], [0 x i8]* @_ZN3ukm8builders8PageLoad35kMainFrameResource_SocketReusedNameE, i32 0, i32 0) }, %"struct.std::__1::pair.14" { i64 7884760301518296515, i8* getelementptr inbounds ([0 x i8], [0 x i8]* @_ZN3ukm8builders8PageLoad30kNavigation_PageEndReason3NameE, i32 0, i32 0) }, %"struct.std::__1::pair.14" { i64 6618380684727568744, i8* getelementptr inbounds ([0 x i8], [0 x i8]* @_ZN3ukm8builders8PageLoad30kNavigation_PageTransitionNameE, i32 0, i32 0) }, %"struct.std::__1::pair.14" { i64 -1105879149350484618, i8* getelementptr inbounds ([0 x i8], [0 x i8]* @_ZN3ukm8builders8PageLoad26kNavigationEntryOffsetNameE, i32 0, i32 0) }, %"struct.std::__1::pair.14" { i64 6646370524195624485, i8* getelementptr inbounds ([0 x i8], [0 x i8]* @_ZN3ukm8builders8PageLoad20kNet_CacheBytes2NameE, i32 0, i32 0) }, %"struct.std::__1::pair.14" { i64 -9018270189838868157, i8* getelementptr inbounds ([0 x i8], [0 x i8]* @_ZN3ukm8builders8PageLoad49kNet_DownstreamKbpsEstimate_OnNavigationStartNameE, i32 0, i32 0) }, %"struct.std::__1::pair.14" { i64 -5941314592954252084, i8* getelementptr inbounds ([0 x i8], [0 x i8]* @_ZN3ukm8builders8PageLoad51kNet_EffectiveConnectionType2_OnNavigationStartNameE, i32 0, i32 0) }, %"struct.std::__1::pair.14" { i64 -8052330697101991139, i8* getelementptr inbounds ([0 x i8], [0 x i8]* @_ZN3ukm8builders8PageLoad42kNet_ErrorCode_OnFailedProvisionalLoadNameE, i32 0, i32 0) }, %"struct.std::__1::pair.14" { i64 578349876587866241, i8* getelementptr inbounds ([0 x i8], [0 x i8]* @_ZN3ukm8builders8PageLoad25kNet_HttpResponseCodeNameE, i32 0, i32 0) }, %"struct.std::__1::pair.14" { i64 5774646068519167414, i8* getelementptr inbounds ([0 x i8], [0 x i8]* @_ZN3ukm8builders8PageLoad42kNet_HttpRttEstimate_OnNavigationStartNameE, i32 0, i32 0) }, %"struct.std::__1::pair.14" { i64 5183779451881510109, i8* getelementptr inbounds ([0 x i8], [0 x i8]* @_ZN3ukm8builders8PageLoad19kNet_ImageBytesNameE, i32 0, i32 0) }, %"struct.std::__1::pair.14" { i64 -3511960956087326817, i8* getelementptr inbounds ([0 x i8], [0 x i8]* @_ZN3ukm8builders8PageLoad27kNet_ImageSubframeBytesNameE, i32 0, i32 0) }, %"struct.std::__1::pair.14" { i64 -1940338939865886304, i8* getelementptr inbounds ([0 x i8], [0 x i8]* @_ZN3ukm8builders8PageLoad24kNet_JavaScriptBytesNameE, i32 0, i32 0) }, %"struct.std::__1::pair.14" { i64 5476124973335865020, i8* getelementptr inbounds ([0 x i8], [0 x i8]* @_ZN3ukm8builders8PageLoad27kNet_JavaScriptMaxBytesNameE, i32 0, i32 0) }, %"struct.std::__1::pair.14" { i64 -6569868710320993336, i8* getelementptr inbounds ([0 x i8], [0 x i8]* @_ZN3ukm8builders8PageLoad19kNet_MediaBytesNameE, i32 0, i32 0) }, %"struct.std::__1::pair.14" { i64 -448953961954244910, i8* getelementptr inbounds ([0 x i8], [0 x i8]* @_ZN3ukm8builders8PageLoad22kNet_NetworkBytes2NameE, i32 0, i32 0) }, %"struct.std::__1::pair.14" { i64 1015883933811308473, i8* getelementptr inbounds ([0 x i8], [0 x i8]* @_ZN3ukm8builders8PageLoad47kNet_TransportRttEstimate_OnNavigationStartNameE, i32 0, i32 0) }, %"struct.std::__1::pair.14" { i64 -8196687802328532527, i8* getelementptr inbounds ([0 x i8], [0 x i8]* @_ZN3ukm8builders8PageLoad21kOmniboxUrlCopiedNameE, i32 0, i32 0) }, %"struct.std::__1::pair.14" { i64 2843257204381097865, i8* getelementptr inbounds ([0 x i8], [0 x i8]* @_ZN3ukm8builders8PageLoad34kPageTiming_ForegroundDurationNameE, i32 0, i32 0) }, %"struct.std::__1::pair.14" { i64 -6460431437019698362, i8* getelementptr inbounds ([0 x i8], [0 x i8]* @_ZN3ukm8builders8PageLoad49kPageTiming_NavigationToFailedProvisionalLoadNameE, i32 0, i32 0) }, %"struct.std::__1::pair.14" { i64 -4619754878653140472, i8* getelementptr inbounds ([0 x i8], [0 x i8]* @_ZN3ukm8builders8PageLoad41kPageTiming_UserTimingMarkFullyLoadedNameE, i32 0, i32 0) }, %"struct.std::__1::pair.14" { i64 242363805495563163, i8* getelementptr inbounds ([0 x i8], [0 x i8]* @_ZN3ukm8builders8PageLoad42kPageTiming_UserTimingMarkFullyVisibleNameE, i32 0, i32 0) }, %"struct.std::__1::pair.14" { i64 4567670599554371322, i8* getelementptr inbounds ([0 x i8], [0 x i8]* @_ZN3ukm8builders8PageLoad41kPageTiming_UserTimingMarkInteractiveNameE, i32 0, i32 0) }, %"struct.std::__1::pair.14" { i64 8518716400092239089, i8* getelementptr inbounds ([0 x i8], [0 x i8]* @_ZN3ukm8builders8PageLoad49kPaintTiming_NavigationToFirstContentfulPaintNameE, i32 0, i32 0) }, %"struct.std::__1::pair.14" { i64 7259095400115977984, i8* getelementptr inbounds ([0 x i8], [0 x i8]* @_ZN3ukm8builders8PageLoad39kPaintTiming_NavigationToFirstPaintNameE, i32 0, i32 0) }, %"struct.std::__1::pair.14" { i64 2541572237502750312, i8* getelementptr inbounds ([0 x i8], [0 x i8]* @_ZN3ukm8builders8PageLoad51kPaintTiming_NavigationToLargestContentfulPaintNameE, i32 0, i32 0) }, %"struct.std::__1::pair.14" { i64 110015268269975783, i8* getelementptr inbounds ([0 x i8], [0 x i8]* @_ZN3ukm8builders8PageLoad61kPaintTiming_NavigationToLargestContentfulPaint_MainFrameNameE, i32 0, i32 0) }, %"struct.std::__1::pair.14" { i64 -6938280713105688601, i8* getelementptr inbounds ([0 x i8], [0 x i8]* @_ZN3ukm8builders8PageLoad52kPaintTiming_NavigationToLargestContentfulPaint2NameE, i32 0, i32 0) }, %"struct.std::__1::pair.14" { i64 6221533677409529418, i8* getelementptr inbounds ([0 x i8], [0 x i8]* @_ZN3ukm8builders8PageLoad62kPaintTiming_NavigationToLargestContentfulPaint2_MainFrameNameE, i32 0, i32 0) }, %"struct.std::__1::pair.14" { i64 -4599668138921906732, i8* getelementptr inbounds ([0 x i8], [0 x i8]* @_ZN3ukm8builders8PageLoad39kParseTiming_NavigationToParseStartNameE, i32 0, i32 0) }, %"struct.std::__1::pair.14" { i64 325008584515519231, i8* getelementptr inbounds ([0 x i8], [0 x i8]* @_ZN3ukm8builders8PageLoad24kSiteEngagementScoreNameE, i32 0, i32 0) }, %"struct.std::__1::pair.14" { i64 -5447887846659137381, i8* getelementptr inbounds ([0 x i8], [0 x i8]* @_ZN3ukm8builders8PageLoad40kSiteInstanceRenderProcessAssignmentNameE, i32 0, i32 0) }, %"struct.std::__1::pair.14" { i64 440600315450942530, i8* getelementptr inbounds ([0 x i8], [0 x i8]* @_ZN3ukm8builders8PageLoad43kThirdPartyCookieBlockingEnabledForSiteNameE, i32 0, i32 0) }, %"struct.std::__1::pair.14" { i64 8288453355921177151, i8* getelementptr inbounds ([0 x i8], [0 x i8]* @_ZN3ukm8builders8PageLoad14kWasCachedNameE, i32 0, i32 0) }], align 8
@_ZN3ukm8builders25PageLoad_FromGoogleSearch10kEntryNameE = external constant [0 x i8], align 1
@_ZN3ukm8builders17PageLoad_Internal10kEntryNameE = external constant [0 x i8], align 1
@_ZN3ukm8builders17PageLoad_Internal63kPaintTiming_ExperimentalLargestContentfulPaint_ContentTypeNameE = external constant [0 x i8], align 1
@_ZN3ukm8builders17PageLoad_Internal68kPaintTiming_ExperimentalLargestContentfulPaint_TerminationStateNameE = external constant [0 x i8], align 1
@_ZN3ukm8builders17PageLoad_Internal51kPaintTiming_LargestContentfulPaint_ContentTypeNameE = external constant [0 x i8], align 1
@_ZN3ukm8builders17PageLoad_Internal56kPaintTiming_LargestContentfulPaint_TerminationStateNameE = external constant [0 x i8], align 1
@.ref.tmp.142 = private constant [4 x %"struct.std::__1::pair.14"] [%"struct.std::__1::pair.14" { i64 2569577768105358307, i8* getelementptr inbounds ([0 x i8], [0 x i8]* @_ZN3ukm8builders17PageLoad_Internal63kPaintTiming_ExperimentalLargestContentfulPaint_ContentTypeNameE, i32 0, i32 0) }, %"struct.std::__1::pair.14" { i64 -5887911897307451112, i8* getelementptr inbounds ([0 x i8], [0 x i8]* @_ZN3ukm8builders17PageLoad_Internal68kPaintTiming_ExperimentalLargestContentfulPaint_TerminationStateNameE, i32 0, i32 0) }, %"struct.std::__1::pair.14" { i64 -1722367993401566707, i8* getelementptr inbounds ([0 x i8], [0 x i8]* @_ZN3ukm8builders17PageLoad_Internal51kPaintTiming_LargestContentfulPaint_ContentTypeNameE, i32 0, i32 0) }, %"struct.std::__1::pair.14" { i64 5926365039165737690, i8* getelementptr inbounds ([0 x i8], [0 x i8]* @_ZN3ukm8builders17PageLoad_Internal56kPaintTiming_LargestContentfulPaint_TerminationStateNameE, i32 0, i32 0) }], align 8
@_ZN3ukm8builders32PageLoad_ServiceWorkerControlled10kEntryNameE = external constant [0 x i8], align 1
@_ZN3ukm8builders23PageLoad_SignedExchange10kEntryNameE = external constant [0 x i8], align 1
@_ZN3ukm8builders23PageLoad_SignedExchange26kServedFromGoogleCacheNameE = external constant [0 x i8], align 1
@.ref.tmp.143 = private constant [1 x %"struct.std::__1::pair.14"] [%"struct.std::__1::pair.14" { i64 -714058524417308933, i8* getelementptr inbounds ([0 x i8], [0 x i8]* @_ZN3ukm8builders23PageLoad_SignedExchange26kServedFromGoogleCacheNameE, i32 0, i32 0) }], align 8
@_ZN3ukm8builders16PageWithPassword10kEntryNameE = external constant [0 x i8], align 1
@_ZN3ukm8builders16PageWithPassword25kFormManagerAvailableNameE = external constant [0 x i8], align 1
@_ZN3ukm8builders16PageWithPassword24kPageLevelUserActionNameE = external constant [0 x i8], align 1
@_ZN3ukm8builders16PageWithPassword27kProvisionalSaveFailureNameE = external constant [0 x i8], align 1
@_ZN3ukm8builders16PageWithPassword30kUserModifiedPasswordFieldNameE = external constant [0 x i8], align 1
@.ref.tmp.144 = private constant [4 x %"struct.std::__1::pair.14"] [%"struct.std::__1::pair.14" { i64 -2378084265906385266, i8* getelementptr inbounds ([0 x i8], [0 x i8]* @_ZN3ukm8builders16PageWithPassword25kFormManagerAvailableNameE, i32 0, i32 0) }, %"struct.std::__1::pair.14" { i64 -7469494177550160581, i8* getelementptr inbounds ([0 x i8], [0 x i8]* @_ZN3ukm8builders16PageWithPassword24kPageLevelUserActionNameE, i32 0, i32 0) }, %"struct.std::__1::pair.14" { i64 7470710753863609401, i8* getelementptr inbounds ([0 x i8], [0 x i8]* @_ZN3ukm8builders16PageWithPassword27kProvisionalSaveFailureNameE, i32 0, i32 0) }, %"struct.std::__1::pair.14" { i64 2714307025842210332, i8* getelementptr inbounds ([0 x i8], [0 x i8]* @_ZN3ukm8builders16PageWithPassword30kUserModifiedPasswordFieldNameE, i32 0, i32 0) }], align 8
@_ZN3ukm8builders19PaintPreviewCapture10kEntryNameE = external constant [0 x i8], align 1
@_ZN3ukm8builders19PaintPreviewCapture21kBlinkCaptureTimeNameE = external constant [0 x i8], align 1
@_ZN3ukm8builders19PaintPreviewCapture25kCompressedOnDiskSizeNameE = external constant [0 x i8], align 1
@.ref.tmp.145 = private constant [2 x %"struct.std::__1::pair.14"] [%"struct.std::__1::pair.14" { i64 6510140679687069140, i8* getelementptr inbounds ([0 x i8], [0 x i8]* @_ZN3ukm8builders19PaintPreviewCapture21kBlinkCaptureTimeNameE, i32 0, i32 0) }, %"struct.std::__1::pair.14" { i64 -5475244267524410569, i8* getelementptr inbounds ([0 x i8], [0 x i8]* @_ZN3ukm8builders19PaintPreviewCapture25kCompressedOnDiskSizeNameE, i32 0, i32 0) }], align 8
@_ZN3ukm8builders12PasswordForm10kEntryNameE = external constant [0 x i8], align 1
@_ZN3ukm8builders12PasswordForm26kContext_FormSignatureNameE = external constant [0 x i8], align 1
@_ZN3ukm8builders12PasswordForm23kDynamicFormChangesNameE = external constant [0 x i8], align 1
@_ZN3ukm8builders12PasswordForm38kFill_FirstFillingResultInRendererNameE = external constant [0 x i8], align 1
@_ZN3ukm8builders12PasswordForm36kFill_FirstWaitForUsernameReasonNameE = external constant [0 x i8], align 1
@_ZN3ukm8builders12PasswordForm15kFillOnLoadNameE = external constant [0 x i8], align 1
@_ZN3ukm8builders12PasswordForm33kGeneration_GeneratedPasswordNameE = external constant [0 x i8], align 1
@_ZN3ukm8builders12PasswordForm41kGeneration_GeneratedPasswordModifiedNameE = external constant [0 x i8], align 1
@_ZN3ukm8builders12PasswordForm26kGeneration_PopupShownNameE = external constant [0 x i8], align 1
@_ZN3ukm8builders12PasswordForm23kManagerFill_ActionNameE = external constant [0 x i8], align 1
@_ZN3ukm8builders12PasswordForm27kManagerFill_AssistanceNameE = external constant [0 x i8], align 1
@_ZN3ukm8builders12PasswordForm24kReadonlyWhenFillingNameE = external constant [0 x i8], align 1
@_ZN3ukm8builders12PasswordForm23kReadonlyWhenSavingNameE = external constant [0 x i8], align 1
@_ZN3ukm8builders12PasswordForm30kSaving_Prompt_InteractionNameE = external constant [0 x i8], align 1
@_ZN3ukm8builders12PasswordForm24kSaving_Prompt_ShownNameE = external constant [0 x i8], align 1
@_ZN3ukm8builders12PasswordForm26kSaving_Prompt_TriggerNameE = external constant [0 x i8], align 1
@_ZN3ukm8builders12PasswordForm41kSaving_ShowedManualFallbackForSavingNameE = external constant [0 x i8], align 1
@_ZN3ukm8builders12PasswordForm25kSubmission_IndicatorNameE = external constant [0 x i8], align 1
@_ZN3ukm8builders12PasswordForm24kSubmission_ObservedNameE = external constant [0 x i8], align 1
@_ZN3ukm8builders12PasswordForm32kSubmission_SubmissionResultNameE = external constant [0 x i8], align 1
@_ZN3ukm8builders12PasswordForm33kSubmission_SubmittedFormTypeNameE = external constant [0 x i8], align 1
@_ZN3ukm8builders12PasswordForm32kUpdating_Prompt_InteractionNameE = external constant [0 x i8], align 1
@_ZN3ukm8builders12PasswordForm26kUpdating_Prompt_ShownNameE = external constant [0 x i8], align 1
@_ZN3ukm8builders12PasswordForm28kUpdating_Prompt_TriggerNameE = external constant [0 x i8], align 1
@_ZN3ukm8builders12PasswordForm40kUser_Action_CorrectedUsernameInFormNameE = external constant [0 x i8], align 1
@_ZN3ukm8builders12PasswordForm39kUser_Action_EditedUsernameInBubbleNameE = external constant [0 x i8], align 1
@_ZN3ukm8builders12PasswordForm50kUser_Action_SelectedDifferentPasswordInBubbleNameE = external constant [0 x i8], align 1
@_ZN3ukm8builders12PasswordForm49kUser_Action_TriggeredManualFallbackForSavingNameE = external constant [0 x i8], align 1
@.ref.tmp.146 = private constant [27 x %"struct.std::__1::pair.14"] [%"struct.std::__1::pair.14" { i64 7963393494324030143, i8* getelementptr inbounds ([0 x i8], [0 x i8]* @_ZN3ukm8builders12PasswordForm26kContext_FormSignatureNameE, i32 0, i32 0) }, %"struct.std::__1::pair.14" { i64 2597861915893901769, i8* getelementptr inbounds ([0 x i8], [0 x i8]* @_ZN3ukm8builders12PasswordForm23kDynamicFormChangesNameE, i32 0, i32 0) }, %"struct.std::__1::pair.14" { i64 2520810486634620725, i8* getelementptr inbounds ([0 x i8], [0 x i8]* @_ZN3ukm8builders12PasswordForm38kFill_FirstFillingResultInRendererNameE, i32 0, i32 0) }, %"struct.std::__1::pair.14" { i64 7438807842425949182, i8* getelementptr inbounds ([0 x i8], [0 x i8]* @_ZN3ukm8builders12PasswordForm36kFill_FirstWaitForUsernameReasonNameE, i32 0, i32 0) }, %"struct.std::__1::pair.14" { i64 -6536058990492600743, i8* getelementptr inbounds ([0 x i8], [0 x i8]* @_ZN3ukm8builders12PasswordForm15kFillOnLoadNameE, i32 0, i32 0) }, %"struct.std::__1::pair.14" { i64 63581670180275077, i8* getelementptr inbounds ([0 x i8], [0 x i8]* @_ZN3ukm8builders12PasswordForm33kGeneration_GeneratedPasswordNameE, i32 0, i32 0) }, %"struct.std::__1::pair.14" { i64 2019134969922041879, i8* getelementptr inbounds ([0 x i8], [0 x i8]* @_ZN3ukm8builders12PasswordForm41kGeneration_GeneratedPasswordModifiedNameE, i32 0, i32 0) }, %"struct.std::__1::pair.14" { i64 3779268428021661864, i8* getelementptr inbounds ([0 x i8], [0 x i8]* @_ZN3ukm8builders12PasswordForm26kGeneration_PopupShownNameE, i32 0, i32 0) }, %"struct.std::__1::pair.14" { i64 -7967291269269493482, i8* getelementptr inbounds ([0 x i8], [0 x i8]* @_ZN3ukm8builders12PasswordForm23kManagerFill_ActionNameE, i32 0, i32 0) }, %"struct.std::__1::pair.14" { i64 8134193492903112186, i8* getelementptr inbounds ([0 x i8], [0 x i8]* @_ZN3ukm8builders12PasswordForm27kManagerFill_AssistanceNameE, i32 0, i32 0) }, %"struct.std::__1::pair.14" { i64 4514761882709205318, i8* getelementptr inbounds ([0 x i8], [0 x i8]* @_ZN3ukm8builders12PasswordForm24kReadonlyWhenFillingNameE, i32 0, i32 0) }, %"struct.std::__1::pair.14" { i64 3695413570360800308, i8* getelementptr inbounds ([0 x i8], [0 x i8]* @_ZN3ukm8builders12PasswordForm23kReadonlyWhenSavingNameE, i32 0, i32 0) }, %"struct.std::__1::pair.14" { i64 -7186716261692244654, i8* getelementptr inbounds ([0 x i8], [0 x i8]* @_ZN3ukm8builders12PasswordForm30kSaving_Prompt_InteractionNameE, i32 0, i32 0) }, %"struct.std::__1::pair.14" { i64 -1295940427830030058, i8* getelementptr inbounds ([0 x i8], [0 x i8]* @_ZN3ukm8builders12PasswordForm24kSaving_Prompt_ShownNameE, i32 0, i32 0) }, %"struct.std::__1::pair.14" { i64 -4076699438011478962, i8* getelementptr inbounds ([0 x i8], [0 x i8]* @_ZN3ukm8builders12PasswordForm26kSaving_Prompt_TriggerNameE, i32 0, i32 0) }, %"struct.std::__1::pair.14" { i64 1380853887219072743, i8* getelementptr inbounds ([0 x i8], [0 x i8]* @_ZN3ukm8builders12PasswordForm41kSaving_ShowedManualFallbackForSavingNameE, i32 0, i32 0) }, %"struct.std::__1::pair.14" { i64 2585760809099691441, i8* getelementptr inbounds ([0 x i8], [0 x i8]* @_ZN3ukm8builders12PasswordForm25kSubmission_IndicatorNameE, i32 0, i32 0) }, %"struct.std::__1::pair.14" { i64 4515933539223991436, i8* getelementptr inbounds ([0 x i8], [0 x i8]* @_ZN3ukm8builders12PasswordForm24kSubmission_ObservedNameE, i32 0, i32 0) }, %"struct.std::__1::pair.14" { i64 -3199072526784333975, i8* getelementptr inbounds ([0 x i8], [0 x i8]* @_ZN3ukm8builders12PasswordForm32kSubmission_SubmissionResultNameE, i32 0, i32 0) }, %"struct.std::__1::pair.14" { i64 9111877994358158676, i8* getelementptr inbounds ([0 x i8], [0 x i8]* @_ZN3ukm8builders12PasswordForm33kSubmission_SubmittedFormTypeNameE, i32 0, i32 0) }, %"struct.std::__1::pair.14" { i64 -4126032693647928674, i8* getelementptr inbounds ([0 x i8], [0 x i8]* @_ZN3ukm8builders12PasswordForm32kUpdating_Prompt_InteractionNameE, i32 0, i32 0) }, %"struct.std::__1::pair.14" { i64 -665109358344341816, i8* getelementptr inbounds ([0 x i8], [0 x i8]* @_ZN3ukm8builders12PasswordForm26kUpdating_Prompt_ShownNameE, i32 0, i32 0) }, %"struct.std::__1::pair.14" { i64 -3237560894993921789, i8* getelementptr inbounds ([0 x i8], [0 x i8]* @_ZN3ukm8builders12PasswordForm28kUpdating_Prompt_TriggerNameE, i32 0, i32 0) }, %"struct.std::__1::pair.14" { i64 7751416161539292552, i8* getelementptr inbounds ([0 x i8], [0 x i8]* @_ZN3ukm8builders12PasswordForm40kUser_Action_CorrectedUsernameInFormNameE, i32 0, i32 0) }, %"struct.std::__1::pair.14" { i64 -7480084369066192139, i8* getelementptr inbounds ([0 x i8], [0 x i8]* @_ZN3ukm8builders12PasswordForm39kUser_Action_EditedUsernameInBubbleNameE, i32 0, i32 0) }, %"struct.std::__1::pair.14" { i64 6311303221302518030, i8* getelementptr inbounds ([0 x i8], [0 x i8]* @_ZN3ukm8builders12PasswordForm50kUser_Action_SelectedDifferentPasswordInBubbleNameE, i32 0, i32 0) }, %"struct.std::__1::pair.14" { i64 2587019996419876036, i8* getelementptr inbounds ([0 x i8], [0 x i8]* @_ZN3ukm8builders12PasswordForm49kUser_Action_TriggeredManualFallbackForSavingNameE, i32 0, i32 0) }], align 8
@_ZN3ukm8builders45PasswordManager_WellKnownChangePasswordResult10kEntryNameE = external constant [0 x i8], align 1
@_ZN3ukm8builders45PasswordManager_WellKnownChangePasswordResult34kWellKnownChangePasswordResultNameE = external constant [0 x i8], align 1
@.ref.tmp.147 = private constant [1 x %"struct.std::__1::pair.14"] [%"struct.std::__1::pair.14" { i64 -4268060290464884155, i8* getelementptr inbounds ([0 x i8], [0 x i8]* @_ZN3ukm8builders45PasswordManager_WellKnownChangePasswordResult34kWellKnownChangePasswordResultNameE, i32 0, i32 0) }], align 8
@_ZN3ukm8builders25PaymentApp_CheckoutEvents10kEntryNameE = external constant [0 x i8], align 1
@_ZN3ukm8builders25PaymentApp_CheckoutEvents21kCompletionStatusNameE = external constant [0 x i8], align 1
@_ZN3ukm8builders25PaymentApp_CheckoutEvents11kEventsNameE = external constant [0 x i8], align 1
@_ZN3ukm8builders25PaymentApp_CheckoutEvents12kEvents2NameE = external constant [0 x i8], align 1
@.ref.tmp.148 = private constant [3 x %"struct.std::__1::pair.14"] [%"struct.std::__1::pair.14" { i64 5881049836470043232, i8* getelementptr inbounds ([0 x i8], [0 x i8]* @_ZN3ukm8builders25PaymentApp_CheckoutEvents21kCompletionStatusNameE, i32 0, i32 0) }, %"struct.std::__1::pair.14" { i64 -8648609799668013165, i8* getelementptr inbounds ([0 x i8], [0 x i8]* @_ZN3ukm8builders25PaymentApp_CheckoutEvents11kEventsNameE, i32 0, i32 0) }, %"struct.std::__1::pair.14" { i64 -3941233622178395919, i8* getelementptr inbounds ([0 x i8], [0 x i8]* @_ZN3ukm8builders25PaymentApp_CheckoutEvents12kEvents2NameE, i32 0, i32 0) }], align 8
@_ZN3ukm8builders29PaymentRequest_CheckoutEvents10kEntryNameE = external constant [0 x i8], align 1
@_ZN3ukm8builders29PaymentRequest_CheckoutEvents21kCompletionStatusNameE = external constant [0 x i8], align 1
@_ZN3ukm8builders29PaymentRequest_CheckoutEvents11kEventsNameE = external constant [0 x i8], align 1
@_ZN3ukm8builders29PaymentRequest_CheckoutEvents12kEvents2NameE = external constant [0 x i8], align 1
@.ref.tmp.149 = private constant [3 x %"struct.std::__1::pair.14"] [%"struct.std::__1::pair.14" { i64 5881049836470043232, i8* getelementptr inbounds ([0 x i8], [0 x i8]* @_ZN3ukm8builders29PaymentRequest_CheckoutEvents21kCompletionStatusNameE, i32 0, i32 0) }, %"struct.std::__1::pair.14" { i64 -8648609799668013165, i8* getelementptr inbounds ([0 x i8], [0 x i8]* @_ZN3ukm8builders29PaymentRequest_CheckoutEvents11kEventsNameE, i32 0, i32 0) }, %"struct.std::__1::pair.14" { i64 -3941233622178395919, i8* getelementptr inbounds ([0 x i8], [0 x i8]* @_ZN3ukm8builders29PaymentRequest_CheckoutEvents12kEvents2NameE, i32 0, i32 0) }], align 8
@_ZN3ukm8builders32PaymentRequest_TransactionAmount10kEntryNameE = external constant [0 x i8], align 1
@_ZN3ukm8builders32PaymentRequest_TransactionAmount13kCategoryNameE = external constant [0 x i8], align 1
@_ZN3ukm8builders32PaymentRequest_TransactionAmount21kCompletionStatusNameE = external constant [0 x i8], align 1
@.ref.tmp.150 = private constant [2 x %"struct.std::__1::pair.14"] [%"struct.std::__1::pair.14" { i64 4241224519481557898, i8* getelementptr inbounds ([0 x i8], [0 x i8]* @_ZN3ukm8builders32PaymentRequest_TransactionAmount13kCategoryNameE, i32 0, i32 0) }, %"struct.std::__1::pair.14" { i64 5881049836470043232, i8* getelementptr inbounds ([0 x i8], [0 x i8]* @_ZN3ukm8builders32PaymentRequest_TransactionAmount21kCompletionStatusNameE, i32 0, i32 0) }], align 8
@_ZN3ukm8builders13Pepper_Broker10kEntryNameE = external constant [0 x i8], align 1
@_ZN3ukm8builders17PerfectHeuristics10kEntryNameE = external constant [0 x i8], align 1
@_ZN3ukm8builders17PerfectHeuristics57kdelay_async_script_execution_before_finished_parsingNameE = external constant [0 x i8], align 1
@_ZN3ukm8builders17PerfectHeuristics38kDelayCompetingLowPriorityRequestsNameE = external constant [0 x i8], align 1
@.ref.tmp.151 = private constant [2 x %"struct.std::__1::pair.14"] [%"struct.std::__1::pair.14" { i64 -4745409017641122364, i8* getelementptr inbounds ([0 x i8], [0 x i8]* @_ZN3ukm8builders17PerfectHeuristics57kdelay_async_script_execution_before_finished_parsingNameE, i32 0, i32 0) }, %"struct.std::__1::pair.14" { i64 -6156127029386719017, i8* getelementptr inbounds ([0 x i8], [0 x i8]* @_ZN3ukm8builders17PerfectHeuristics38kDelayCompetingLowPriorityRequestsNameE, i32 0, i32 0) }], align 8
@_ZN3ukm8builders23PerformanceAPI_LongTask10kEntryNameE = external constant [0 x i8], align 1
@_ZN3ukm8builders23PerformanceAPI_LongTask13kDurationNameE = external constant [0 x i8], align 1
@_ZN3ukm8builders23PerformanceAPI_LongTask19kDuration_V8_GCNameE = external constant [0 x i8], align 1
@_ZN3ukm8builders23PerformanceAPI_LongTask31kDuration_V8_GC_Full_AtomicNameE = external constant [0 x i8], align 1
@_ZN3ukm8builders23PerformanceAPI_LongTask36kDuration_V8_GC_Full_IncrementalNameE = external constant [0 x i8], align 1
@_ZN3ukm8builders23PerformanceAPI_LongTask25kDuration_V8_GC_YoungNameE = external constant [0 x i8], align 1
@_ZN3ukm8builders23PerformanceAPI_LongTask14kStartTimeNameE = external constant [0 x i8], align 1
@.ref.tmp.152 = private constant [6 x %"struct.std::__1::pair.14"] [%"struct.std::__1::pair.14" { i64 -2293129492661939053, i8* getelementptr inbounds ([0 x i8], [0 x i8]* @_ZN3ukm8builders23PerformanceAPI_LongTask13kDurationNameE, i32 0, i32 0) }, %"struct.std::__1::pair.14" { i64 -7098013842965112096, i8* getelementptr inbounds ([0 x i8], [0 x i8]* @_ZN3ukm8builders23PerformanceAPI_LongTask19kDuration_V8_GCNameE, i32 0, i32 0) }, %"struct.std::__1::pair.14" { i64 -7773505583155008059, i8* getelementptr inbounds ([0 x i8], [0 x i8]* @_ZN3ukm8builders23PerformanceAPI_LongTask31kDuration_V8_GC_Full_AtomicNameE, i32 0, i32 0) }, %"struct.std::__1::pair.14" { i64 -1251414221650602973, i8* getelementptr inbounds ([0 x i8], [0 x i8]* @_ZN3ukm8builders23PerformanceAPI_LongTask36kDuration_V8_GC_Full_IncrementalNameE, i32 0, i32 0) }, %"struct.std::__1::pair.14" { i64 6481026756167768720, i8* getelementptr inbounds ([0 x i8], [0 x i8]* @_ZN3ukm8builders23PerformanceAPI_LongTask25kDuration_V8_GC_YoungNameE, i32 0, i32 0) }, %"struct.std::__1::pair.14" { i64 -7770451445182764689, i8* getelementptr inbounds ([0 x i8], [0 x i8]* @_ZN3ukm8builders23PerformanceAPI_LongTask14kStartTimeNameE, i32 0, i32 0) }], align 8
@_ZN3ukm8builders21PerformanceAPI_Memory10kEntryNameE = external constant [0 x i8], align 1
@_ZN3ukm8builders21PerformanceAPI_Memory8kDomNameE = external constant [0 x i8], align 1
@_ZN3ukm8builders21PerformanceAPI_Memory15kJavaScriptNameE = external constant [0 x i8], align 1
@_ZN3ukm8builders21PerformanceAPI_Memory31kJavaScript_DedicatedWorkerNameE = external constant [0 x i8], align 1
@_ZN3ukm8builders21PerformanceAPI_Memory11kSharedNameE = external constant [0 x i8], align 1
@.ref.tmp.153 = private constant [4 x %"struct.std::__1::pair.14"] [%"struct.std::__1::pair.14" { i64 -8867763589565531992, i8* getelementptr inbounds ([0 x i8], [0 x i8]* @_ZN3ukm8builders21PerformanceAPI_Memory8kDomNameE, i32 0, i32 0) }, %"struct.std::__1::pair.14" { i64 7521387064766892559, i8* getelementptr inbounds ([0 x i8], [0 x i8]* @_ZN3ukm8builders21PerformanceAPI_Memory15kJavaScriptNameE, i32 0, i32 0) }, %"struct.std::__1::pair.14" { i64 -1916044715962543612, i8* getelementptr inbounds ([0 x i8], [0 x i8]* @_ZN3ukm8builders21PerformanceAPI_Memory31kJavaScript_DedicatedWorkerNameE, i32 0, i32 0) }, %"struct.std::__1::pair.14" { i64 -6479150813176402140, i8* getelementptr inbounds ([0 x i8], [0 x i8]* @_ZN3ukm8builders21PerformanceAPI_Memory11kSharedNameE, i32 0, i32 0) }], align 8
@_ZN3ukm8builders28PerformanceAPI_Memory_Legacy10kEntryNameE = external constant [0 x i8], align 1
@_ZN3ukm8builders28PerformanceAPI_Memory_Legacy15kJavaScriptNameE = external constant [0 x i8], align 1
@.ref.tmp.154 = private constant [1 x %"struct.std::__1::pair.14"] [%"struct.std::__1::pair.14" { i64 7521387064766892559, i8* getelementptr inbounds ([0 x i8], [0 x i8]* @_ZN3ukm8builders28PerformanceAPI_Memory_Legacy15kJavaScriptNameE, i32 0, i32 0) }], align 8
@_ZN3ukm8builders36PeriodicBackgroundSyncEventCompleted10kEntryNameE = external constant [0 x i8], align 1
@_ZN3ukm8builders36PeriodicBackgroundSyncEventCompleted16kMaxAttemptsNameE = external constant [0 x i8], align 1
@_ZN3ukm8builders36PeriodicBackgroundSyncEventCompleted16kNumAttemptsNameE = external constant [0 x i8], align 1
@_ZN3ukm8builders36PeriodicBackgroundSyncEventCompleted11kStatusNameE = external constant [0 x i8], align 1
@.ref.tmp.155 = private constant [3 x %"struct.std::__1::pair.14"] [%"struct.std::__1::pair.14" { i64 -4635527887683331270, i8* getelementptr inbounds ([0 x i8], [0 x i8]* @_ZN3ukm8builders36PeriodicBackgroundSyncEventCompleted16kMaxAttemptsNameE, i32 0, i32 0) }, %"struct.std::__1::pair.14" { i64 537979731801272247, i8* getelementptr inbounds ([0 x i8], [0 x i8]* @_ZN3ukm8builders36PeriodicBackgroundSyncEventCompleted16kNumAttemptsNameE, i32 0, i32 0) }, %"struct.std::__1::pair.14" { i64 -1417603893889880363, i8* getelementptr inbounds ([0 x i8], [0 x i8]* @_ZN3ukm8builders36PeriodicBackgroundSyncEventCompleted11kStatusNameE, i32 0, i32 0) }], align 8
@_ZN3ukm8builders32PeriodicBackgroundSyncRegistered10kEntryNameE = external constant [0 x i8], align 1
@_ZN3ukm8builders32PeriodicBackgroundSyncRegistered19kIsReregisteredNameE = external constant [0 x i8], align 1
@_ZN3ukm8builders32PeriodicBackgroundSyncRegistered18kMinIntervalMsNameE = external constant [0 x i8], align 1
@.ref.tmp.156 = private constant [2 x %"struct.std::__1::pair.14"] [%"struct.std::__1::pair.14" { i64 -8364002383767731155, i8* getelementptr inbounds ([0 x i8], [0 x i8]* @_ZN3ukm8builders32PeriodicBackgroundSyncRegistered19kIsReregisteredNameE, i32 0, i32 0) }, %"struct.std::__1::pair.14" { i64 -7116126681044516983, i8* getelementptr inbounds ([0 x i8], [0 x i8]* @_ZN3ukm8builders32PeriodicBackgroundSyncRegistered18kMinIntervalMsNameE, i32 0, i32 0) }], align 8
@_ZN3ukm8builders10Permission10kEntryNameE = external constant [0 x i8], align 1
@_ZN3ukm8builders10Permission11kActionNameE = external constant [0 x i8], align 1
@_ZN3ukm8builders10Permission12kGestureNameE = external constant [0 x i8], align 1
@_ZN3ukm8builders10Permission36kPermissionAutoRevocationHistoryNameE = external constant [0 x i8], align 1
@_ZN3ukm8builders10Permission19kPermissionTypeNameE = external constant [0 x i8], align 1
@_ZN3ukm8builders10Permission43kPredictionsApiResponse_GrantLikelihoodNameE = external constant [0 x i8], align 1
@_ZN3ukm8builders10Permission20kPriorDismissalsNameE = external constant [0 x i8], align 1
@_ZN3ukm8builders10Permission17kPriorIgnoresNameE = external constant [0 x i8], align 1
@_ZN3ukm8builders10Permission22kPromptDispositionNameE = external constant [0 x i8], align 1
@_ZN3ukm8builders10Permission28kPromptDispositionReasonNameE = external constant [0 x i8], align 1
@_ZN3ukm8builders10Permission30kSatisfiedAdaptiveTriggersNameE = external constant [0 x i8], align 1
@_ZN3ukm8builders10Permission11kSourceNameE = external constant [0 x i8], align 1
@_ZN3ukm8builders10Permission19kTimeToDecisionNameE = external constant [0 x i8], align 1
@.ref.tmp.157 = private constant [12 x %"struct.std::__1::pair.14"] [%"struct.std::__1::pair.14" { i64 21381969153622804, i8* getelementptr inbounds ([0 x i8], [0 x i8]* @_ZN3ukm8builders10Permission11kActionNameE, i32 0, i32 0) }, %"struct.std::__1::pair.14" { i64 1976985484619472355, i8* getelementptr inbounds ([0 x i8], [0 x i8]* @_ZN3ukm8builders10Permission12kGestureNameE, i32 0, i32 0) }, %"struct.std::__1::pair.14" { i64 4395845358858109531, i8* getelementptr inbounds ([0 x i8], [0 x i8]* @_ZN3ukm8builders10Permission36kPermissionAutoRevocationHistoryNameE, i32 0, i32 0) }, %"struct.std::__1::pair.14" { i64 -5608657988819969776, i8* getelementptr inbounds ([0 x i8], [0 x i8]* @_ZN3ukm8builders10Permission19kPermissionTypeNameE, i32 0, i32 0) }, %"struct.std::__1::pair.14" { i64 -8006185928961100586, i8* getelementptr inbounds ([0 x i8], [0 x i8]* @_ZN3ukm8builders10Permission43kPredictionsApiResponse_GrantLikelihoodNameE, i32 0, i32 0) }, %"struct.std::__1::pair.14" { i64 -8813833631470799137, i8* getelementptr inbounds ([0 x i8], [0 x i8]* @_ZN3ukm8builders10Permission20kPriorDismissalsNameE, i32 0, i32 0) }, %"struct.std::__1::pair.14" { i64 1762046784113667081, i8* getelementptr inbounds ([0 x i8], [0 x i8]* @_ZN3ukm8builders10Permission17kPriorIgnoresNameE, i32 0, i32 0) }, %"struct.std::__1::pair.14" { i64 1320746900446203052, i8* getelementptr inbounds ([0 x i8], [0 x i8]* @_ZN3ukm8builders10Permission22kPromptDispositionNameE, i32 0, i32 0) }, %"struct.std::__1::pair.14" { i64 4135685975003167800, i8* getelementptr inbounds ([0 x i8], [0 x i8]* @_ZN3ukm8builders10Permission28kPromptDispositionReasonNameE, i32 0, i32 0) }, %"struct.std::__1::pair.14" { i64 -6347545535798416087, i8* getelementptr inbounds ([0 x i8], [0 x i8]* @_ZN3ukm8builders10Permission30kSatisfiedAdaptiveTriggersNameE, i32 0, i32 0) }, %"struct.std::__1::pair.14" { i64 -928940189757711412, i8* getelementptr inbounds ([0 x i8], [0 x i8]* @_ZN3ukm8builders10Permission11kSourceNameE, i32 0, i32 0) }, %"struct.std::__1::pair.14" { i64 9106479769666366905, i8* getelementptr inbounds ([0 x i8], [0 x i8]* @_ZN3ukm8builders10Permission19kTimeToDecisionNameE, i32 0, i32 0) }], align 8
@_ZN3ukm8builders15PermissionUsage10kEntryNameE = external constant [0 x i8], align 1
@_ZN3ukm8builders15PermissionUsage19kPermissionTypeNameE = external constant [0 x i8], align 1
@.ref.tmp.158 = private constant [1 x %"struct.std::__1::pair.14"] [%"struct.std::__1::pair.14" { i64 -5608657988819969776, i8* getelementptr inbounds ([0 x i8], [0 x i8]* @_ZN3ukm8builders15PermissionUsage19kPermissionTypeNameE, i32 0, i32 0) }], align 8
@_ZN3ukm8builders21Plugins_FlashInstance10kEntryNameE = external constant [0 x i8], align 1
@_ZN3ukm8builders12Popup_Closed10kEntryNameE = external constant [0 x i8], align 1
@_ZN3ukm8builders12Popup_Closed19kEngagementTimeNameE = external constant [0 x i8], align 1
@_ZN3ukm8builders12Popup_Closed30kNumActivationInteractionsNameE = external constant [0 x i8], align 1
@_ZN3ukm8builders12Popup_Closed38kNumGestureScrollBeginInteractionsNameE = external constant [0 x i8], align 1
@_ZN3ukm8builders12Popup_Closed20kNumInteractionsNameE = external constant [0 x i8], align 1
@_ZN3ukm8builders12Popup_Closed18kRedirectCountNameE = external constant [0 x i8], align 1
@_ZN3ukm8builders12Popup_Closed23kSafeBrowsingStatusNameE = external constant [0 x i8], align 1
@_ZN3ukm8builders12Popup_Closed12kTrustedNameE = external constant [0 x i8], align 1
@_ZN3ukm8builders12Popup_Closed23kUserInitiatedCloseNameE = external constant [0 x i8], align 1
@_ZN3ukm8builders12Popup_Closed26kWindowOpenDispositionNameE = external constant [0 x i8], align 1
@.ref.tmp.159 = private constant [9 x %"struct.std::__1::pair.14"] [%"struct.std::__1::pair.14" { i64 5757927903187539607, i8* getelementptr inbounds ([0 x i8], [0 x i8]* @_ZN3ukm8builders12Popup_Closed19kEngagementTimeNameE, i32 0, i32 0) }, %"struct.std::__1::pair.14" { i64 1968290450355139412, i8* getelementptr inbounds ([0 x i8], [0 x i8]* @_ZN3ukm8builders12Popup_Closed30kNumActivationInteractionsNameE, i32 0, i32 0) }, %"struct.std::__1::pair.14" { i64 -1991332464796823345, i8* getelementptr inbounds ([0 x i8], [0 x i8]* @_ZN3ukm8builders12Popup_Closed38kNumGestureScrollBeginInteractionsNameE, i32 0, i32 0) }, %"struct.std::__1::pair.14" { i64 5654420946245687695, i8* getelementptr inbounds ([0 x i8], [0 x i8]* @_ZN3ukm8builders12Popup_Closed20kNumInteractionsNameE, i32 0, i32 0) }, %"struct.std::__1::pair.14" { i64 -6375482790498041738, i8* getelementptr inbounds ([0 x i8], [0 x i8]* @_ZN3ukm8builders12Popup_Closed18kRedirectCountNameE, i32 0, i32 0) }, %"struct.std::__1::pair.14" { i64 -8799691971172107635, i8* getelementptr inbounds ([0 x i8], [0 x i8]* @_ZN3ukm8builders12Popup_Closed23kSafeBrowsingStatusNameE, i32 0, i32 0) }, %"struct.std::__1::pair.14" { i64 -4593568875943135588, i8* getelementptr inbounds ([0 x i8], [0 x i8]* @_ZN3ukm8builders12Popup_Closed12kTrustedNameE, i32 0, i32 0) }, %"struct.std::__1::pair.14" { i64 -1994253560944011371, i8* getelementptr inbounds ([0 x i8], [0 x i8]* @_ZN3ukm8builders12Popup_Closed23kUserInitiatedCloseNameE, i32 0, i32 0) }, %"struct.std::__1::pair.14" { i64 -642348934239786583, i8* getelementptr inbounds ([0 x i8], [0 x i8]* @_ZN3ukm8builders12Popup_Closed26kWindowOpenDispositionNameE, i32 0, i32 0) }], align 8
@_ZN3ukm8builders10Popup_Page10kEntryNameE = external constant [0 x i8], align 1
@_ZN3ukm8builders10Popup_Page12kAllowedNameE = external constant [0 x i8], align 1
@.ref.tmp.160 = private constant [1 x %"struct.std::__1::pair.14"] [%"struct.std::__1::pair.14" { i64 -4944981194572007538, i8* getelementptr inbounds ([0 x i8], [0 x i8]* @_ZN3ukm8builders10Popup_Page12kAllowedNameE, i32 0, i32 0) }], align 8
@_ZN3ukm8builders15Portal_Activate10kEntryNameE = external constant [0 x i8], align 1
@_ZN3ukm8builders15Portal_Activate45kPaintTiming_PortalActivationToFirstPaintNameE = external constant [0 x i8], align 1
@_ZN3ukm8builders15Portal_Activate21kPortalActivationNameE = external constant [0 x i8], align 1
@_ZN3ukm8builders15Portal_Activate30kPortalActivationBeforeLCPNameE = external constant [0 x i8], align 1
@.ref.tmp.161 = private constant [3 x %"struct.std::__1::pair.14"] [%"struct.std::__1::pair.14" { i64 -8095745655372554471, i8* getelementptr inbounds ([0 x i8], [0 x i8]* @_ZN3ukm8builders15Portal_Activate45kPaintTiming_PortalActivationToFirstPaintNameE, i32 0, i32 0) }, %"struct.std::__1::pair.14" { i64 4430962806322008522, i8* getelementptr inbounds ([0 x i8], [0 x i8]* @_ZN3ukm8builders15Portal_Activate21kPortalActivationNameE, i32 0, i32 0) }, %"struct.std::__1::pair.14" { i64 -2271364079607840838, i8* getelementptr inbounds ([0 x i8], [0 x i8]* @_ZN3ukm8builders15Portal_Activate30kPortalActivationBeforeLCPNameE, i32 0, i32 0) }], align 8
@_ZN3ukm8builders26PostMessage_Incoming_Frame10kEntryNameE = external constant [0 x i8], align 1
@_ZN3ukm8builders26PostMessage_Incoming_Frame24kSourceFrameSourceIdNameE = external constant [0 x i8], align 1
@.ref.tmp.162 = private constant [1 x %"struct.std::__1::pair.14"] [%"struct.std::__1::pair.14" { i64 -5770680465550407745, i8* getelementptr inbounds ([0 x i8], [0 x i8]* @_ZN3ukm8builders26PostMessage_Incoming_Frame24kSourceFrameSourceIdNameE, i32 0, i32 0) }], align 8
@_ZN3ukm8builders25PostMessage_Incoming_Page10kEntryNameE = external constant [0 x i8], align 1
@_ZN3ukm8builders25PostMessage_Incoming_Page23kSourcePageSourceIdNameE = external constant [0 x i8], align 1
@.ref.tmp.163 = private constant [1 x %"struct.std::__1::pair.14"] [%"struct.std::__1::pair.14" { i64 4061575427618401686, i8* getelementptr inbounds ([0 x i8], [0 x i8]* @_ZN3ukm8builders25PostMessage_Incoming_Page23kSourcePageSourceIdNameE, i32 0, i32 0) }], align 8
@_ZN3ukm8builders31PowerUsageScenariosIntervalData10kEntryNameE = external constant [0 x i8], align 1
@_ZN3ukm8builders31PowerUsageScenariosIntervalData25kBatteryDischargeModeNameE = external constant [0 x i8], align 1
@_ZN3ukm8builders31PowerUsageScenariosIntervalData25kBatteryDischargeRateNameE = external constant [0 x i8], align 1
@_ZN3ukm8builders31PowerUsageScenariosIntervalData24kBrowserShuttingDownNameE = external constant [0 x i8], align 1
@_ZN3ukm8builders31PowerUsageScenariosIntervalData14kCPUTimeMsNameE = external constant [0 x i8], align 1
@_ZN3ukm8builders31PowerUsageScenariosIntervalData22kEnergyImpactScoreNameE = external constant [0 x i8], align 1
@_ZN3ukm8builders31PowerUsageScenariosIntervalData40kFullscreenVideoSingleMonitorSecondsNameE = external constant [0 x i8], align 1
@_ZN3ukm8builders31PowerUsageScenariosIntervalData16kIdleWakeUpsNameE = external constant [0 x i8], align 1
@_ZN3ukm8builders31PowerUsageScenariosIntervalData28kIntervalDurationSecondsNameE = external constant [0 x i8], align 1
@_ZN3ukm8builders31PowerUsageScenariosIntervalData16kMaxTabCountNameE = external constant [0 x i8], align 1
@_ZN3ukm8builders31PowerUsageScenariosIntervalData26kMaxVisibleWindowCountNameE = external constant [0 x i8], align 1
@_ZN3ukm8builders31PowerUsageScenariosIntervalData32kOriginVisibilityTimeSecondsNameE = external constant [0 x i8], align 1
@_ZN3ukm8builders31PowerUsageScenariosIntervalData17kPackageExitsNameE = external constant [0 x i8], align 1
@_ZN3ukm8builders31PowerUsageScenariosIntervalData24kPlayingAudioSecondsNameE = external constant [0 x i8], align 1
@_ZN3ukm8builders31PowerUsageScenariosIntervalData14kTabClosedNameE = external constant [0 x i8], align 1
@_ZN3ukm8builders31PowerUsageScenariosIntervalData33kTimePlayingVideoInVisibleTabNameE = external constant [0 x i8], align 1
@_ZN3ukm8builders31PowerUsageScenariosIntervalData43kTimeSinceInteractionWithBrowserSecondsNameE = external constant [0 x i8], align 1
@_ZN3ukm8builders31PowerUsageScenariosIntervalData42kTimeSinceInteractionWithSystemSecondsNameE = external constant [0 x i8], align 1
@_ZN3ukm8builders31PowerUsageScenariosIntervalData40kTimeWithOpenWebRTCConnectionSecondsNameE = external constant [0 x i8], align 1
@_ZN3ukm8builders31PowerUsageScenariosIntervalData29kTopLevelNavigationEventsNameE = external constant [0 x i8], align 1
@_ZN3ukm8builders31PowerUsageScenariosIntervalData18kUptimeSecondsNameE = external constant [0 x i8], align 1
@_ZN3ukm8builders31PowerUsageScenariosIntervalData29kURLVisibilityTimeSecondsNameE = external constant [0 x i8], align 1
@_ZN3ukm8builders31PowerUsageScenariosIntervalData25kUserInteractionCountNameE = external constant [0 x i8], align 1
@_ZN3ukm8builders31PowerUsageScenariosIntervalData24kVideoCaptureSecondsNameE = external constant [0 x i8], align 1
@.ref.tmp.164 = private constant [23 x %"struct.std::__1::pair.14"] [%"struct.std::__1::pair.14" { i64 8012802177325134825, i8* getelementptr inbounds ([0 x i8], [0 x i8]* @_ZN3ukm8builders31PowerUsageScenariosIntervalData25kBatteryDischargeModeNameE, i32 0, i32 0) }, %"struct.std::__1::pair.14" { i64 -7706464942581498896, i8* getelementptr inbounds ([0 x i8], [0 x i8]* @_ZN3ukm8builders31PowerUsageScenariosIntervalData25kBatteryDischargeRateNameE, i32 0, i32 0) }, %"struct.std::__1::pair.14" { i64 4764183469636912406, i8* getelementptr inbounds ([0 x i8], [0 x i8]* @_ZN3ukm8builders31PowerUsageScenariosIntervalData24kBrowserShuttingDownNameE, i32 0, i32 0) }, %"struct.std::__1::pair.14" { i64 6926632203034980955, i8* getelementptr inbounds ([0 x i8], [0 x i8]* @_ZN3ukm8builders31PowerUsageScenariosIntervalData14kCPUTimeMsNameE, i32 0, i32 0) }, %"struct.std::__1::pair.14" { i64 -576048815037792395, i8* getelementptr inbounds ([0 x i8], [0 x i8]* @_ZN3ukm8builders31PowerUsageScenariosIntervalData22kEnergyImpactScoreNameE, i32 0, i32 0) }, %"struct.std::__1::pair.14" { i64 5005689392526458623, i8* getelementptr inbounds ([0 x i8], [0 x i8]* @_ZN3ukm8builders31PowerUsageScenariosIntervalData40kFullscreenVideoSingleMonitorSecondsNameE, i32 0, i32 0) }, %"struct.std::__1::pair.14" { i64 -5317263324808615088, i8* getelementptr inbounds ([0 x i8], [0 x i8]* @_ZN3ukm8builders31PowerUsageScenariosIntervalData16kIdleWakeUpsNameE, i32 0, i32 0) }, %"struct.std::__1::pair.14" { i64 -8386228751376575570, i8* getelementptr inbounds ([0 x i8], [0 x i8]* @_ZN3ukm8builders31PowerUsageScenariosIntervalData28kIntervalDurationSecondsNameE, i32 0, i32 0) }, %"struct.std::__1::pair.14" { i64 -8484697691318084768, i8* getelementptr inbounds ([0 x i8], [0 x i8]* @_ZN3ukm8builders31PowerUsageScenariosIntervalData16kMaxTabCountNameE, i32 0, i32 0) }, %"struct.std::__1::pair.14" { i64 -2910665199471301455, i8* getelementptr inbounds ([0 x i8], [0 x i8]* @_ZN3ukm8builders31PowerUsageScenariosIntervalData26kMaxVisibleWindowCountNameE, i32 0, i32 0) }, %"struct.std::__1::pair.14" { i64 4655053852122721981, i8* getelementptr inbounds ([0 x i8], [0 x i8]* @_ZN3ukm8builders31PowerUsageScenariosIntervalData32kOriginVisibilityTimeSecondsNameE, i32 0, i32 0) }, %"struct.std::__1::pair.14" { i64 -3946283136744912924, i8* getelementptr inbounds ([0 x i8], [0 x i8]* @_ZN3ukm8builders31PowerUsageScenariosIntervalData17kPackageExitsNameE, i32 0, i32 0) }, %"struct.std::__1::pair.14" { i64 3986924567980634530, i8* getelementptr inbounds ([0 x i8], [0 x i8]* @_ZN3ukm8builders31PowerUsageScenariosIntervalData24kPlayingAudioSecondsNameE, i32 0, i32 0) }, %"struct.std::__1::pair.14" { i64 -919518438041719458, i8* getelementptr inbounds ([0 x i8], [0 x i8]* @_ZN3ukm8builders31PowerUsageScenariosIntervalData14kTabClosedNameE, i32 0, i32 0) }, %"struct.std::__1::pair.14" { i64 -2951548886268442368, i8* getelementptr inbounds ([0 x i8], [0 x i8]* @_ZN3ukm8builders31PowerUsageScenariosIntervalData33kTimePlayingVideoInVisibleTabNameE, i32 0, i32 0) }, %"struct.std::__1::pair.14" { i64 6261712889956192806, i8* getelementptr inbounds ([0 x i8], [0 x i8]* @_ZN3ukm8builders31PowerUsageScenariosIntervalData43kTimeSinceInteractionWithBrowserSecondsNameE, i32 0, i32 0) }, %"struct.std::__1::pair.14" { i64 -2070358897586998929, i8* getelementptr inbounds ([0 x i8], [0 x i8]* @_ZN3ukm8builders31PowerUsageScenariosIntervalData42kTimeSinceInteractionWithSystemSecondsNameE, i32 0, i32 0) }, %"struct.std::__1::pair.14" { i64 2972750681128012711, i8* getelementptr inbounds ([0 x i8], [0 x i8]* @_ZN3ukm8builders31PowerUsageScenariosIntervalData40kTimeWithOpenWebRTCConnectionSecondsNameE, i32 0, i32 0) }, %"struct.std::__1::pair.14" { i64 9007247521834190514, i8* getelementptr inbounds ([0 x i8], [0 x i8]* @_ZN3ukm8builders31PowerUsageScenariosIntervalData29kTopLevelNavigationEventsNameE, i32 0, i32 0) }, %"struct.std::__1::pair.14" { i64 2001952298541068222, i8* getelementptr inbounds ([0 x i8], [0 x i8]* @_ZN3ukm8builders31PowerUsageScenariosIntervalData18kUptimeSecondsNameE, i32 0, i32 0) }, %"struct.std::__1::pair.14" { i64 -61688913284798606, i8* getelementptr inbounds ([0 x i8], [0 x i8]* @_ZN3ukm8builders31PowerUsageScenariosIntervalData29kURLVisibilityTimeSecondsNameE, i32 0, i32 0) }, %"struct.std::__1::pair.14" { i64 -7473249371643076103, i8* getelementptr inbounds ([0 x i8], [0 x i8]* @_ZN3ukm8builders31PowerUsageScenariosIntervalData25kUserInteractionCountNameE, i32 0, i32 0) }, %"struct.std::__1::pair.14" { i64 5770286108963634075, i8* getelementptr inbounds ([0 x i8], [0 x i8]* @_ZN3ukm8builders31PowerUsageScenariosIntervalData24kVideoCaptureSecondsNameE, i32 0, i32 0) }], align 8
@_ZN3ukm8builders13PrefetchProxy10kEntryNameE = external constant [0 x i8], align 1
@_ZN3ukm8builders13PrefetchProxy41kcount_css_js_loaded_cache_before_fcpNameE = external constant [0 x i8], align 1
@_ZN3ukm8builders13PrefetchProxy43kcount_css_js_loaded_network_before_fcpNameE = external constant [0 x i8], align 1
@_ZN3ukm8builders13PrefetchProxy36kdays_since_last_visit_to_originNameE = external constant [0 x i8], align 1
@_ZN3ukm8builders13PrefetchProxy35kordered_eligible_pages_bitmaskNameE = external constant [0 x i8], align 1
@_ZN3ukm8builders13PrefetchProxy29kprefetch_attempted_countNameE = external constant [0 x i8], align 1
@_ZN3ukm8builders13PrefetchProxy28kprefetch_eligible_countNameE = external constant [0 x i8], align 1
@_ZN3ukm8builders13PrefetchProxy30kprefetch_successful_countNameE = external constant [0 x i8], align 1
@.ref.tmp.165 = private constant [7 x %"struct.std::__1::pair.14"] [%"struct.std::__1::pair.14" { i64 -9171541545253488474, i8* getelementptr inbounds ([0 x i8], [0 x i8]* @_ZN3ukm8builders13PrefetchProxy41kcount_css_js_loaded_cache_before_fcpNameE, i32 0, i32 0) }, %"struct.std::__1::pair.14" { i64 -2652530386975060971, i8* getelementptr inbounds ([0 x i8], [0 x i8]* @_ZN3ukm8builders13PrefetchProxy43kcount_css_js_loaded_network_before_fcpNameE, i32 0, i32 0) }, %"struct.std::__1::pair.14" { i64 210860424475155511, i8* getelementptr inbounds ([0 x i8], [0 x i8]* @_ZN3ukm8builders13PrefetchProxy36kdays_since_last_visit_to_originNameE, i32 0, i32 0) }, %"struct.std::__1::pair.14" { i64 -3574543246863000577, i8* getelementptr inbounds ([0 x i8], [0 x i8]* @_ZN3ukm8builders13PrefetchProxy35kordered_eligible_pages_bitmaskNameE, i32 0, i32 0) }, %"struct.std::__1::pair.14" { i64 -4437689338069200597, i8* getelementptr inbounds ([0 x i8], [0 x i8]* @_ZN3ukm8builders13PrefetchProxy29kprefetch_attempted_countNameE, i32 0, i32 0) }, %"struct.std::__1::pair.14" { i64 2248218164746653975, i8* getelementptr inbounds ([0 x i8], [0 x i8]* @_ZN3ukm8builders13PrefetchProxy28kprefetch_eligible_countNameE, i32 0, i32 0) }, %"struct.std::__1::pair.14" { i64 -5068035385561176594, i8* getelementptr inbounds ([0 x i8], [0 x i8]* @_ZN3ukm8builders13PrefetchProxy30kprefetch_successful_countNameE, i32 0, i32 0) }], align 8
@_ZN3ukm8builders27PrefetchProxy_AfterSRPClick10kEntryNameE = external constant [0 x i8], align 1
@_ZN3ukm8builders27PrefetchProxy_AfterSRPClick27kClickedLinkSRPPositionNameE = external constant [0 x i8], align 1
@_ZN3ukm8builders27PrefetchProxy_AfterSRPClick19kProbeLatencyMsNameE = external constant [0 x i8], align 1
@_ZN3ukm8builders27PrefetchProxy_AfterSRPClick27kSRPClickPrefetchStatusNameE = external constant [0 x i8], align 1
@_ZN3ukm8builders27PrefetchProxy_AfterSRPClick29kSRPPrefetchEligibleCountNameE = external constant [0 x i8], align 1
@.ref.tmp.166 = private constant [4 x %"struct.std::__1::pair.14"] [%"struct.std::__1::pair.14" { i64 6517804828846600668, i8* getelementptr inbounds ([0 x i8], [0 x i8]* @_ZN3ukm8builders27PrefetchProxy_AfterSRPClick27kClickedLinkSRPPositionNameE, i32 0, i32 0) }, %"struct.std::__1::pair.14" { i64 8004524944946139403, i8* getelementptr inbounds ([0 x i8], [0 x i8]* @_ZN3ukm8builders27PrefetchProxy_AfterSRPClick19kProbeLatencyMsNameE, i32 0, i32 0) }, %"struct.std::__1::pair.14" { i64 7878335820719982043, i8* getelementptr inbounds ([0 x i8], [0 x i8]* @_ZN3ukm8builders27PrefetchProxy_AfterSRPClick27kSRPClickPrefetchStatusNameE, i32 0, i32 0) }, %"struct.std::__1::pair.14" { i64 -5841462488788619555, i8* getelementptr inbounds ([0 x i8], [0 x i8]* @_ZN3ukm8builders27PrefetchProxy_AfterSRPClick29kSRPPrefetchEligibleCountNameE, i32 0, i32 0) }], align 8
@_ZN3ukm8builders32PrefetchProxy_PrefetchedResource10kEntryNameE = external constant [0 x i8], align 1
@_ZN3ukm8builders32PrefetchProxy_PrefetchedResource15kDataLengthNameE = external constant [0 x i8], align 1
@_ZN3ukm8builders32PrefetchProxy_PrefetchedResource20kFetchDurationMSNameE = external constant [0 x i8], align 1
@_ZN3ukm8builders32PrefetchProxy_PrefetchedResource23kISPFilteringStatusNameE = external constant [0 x i8], align 1
@_ZN3ukm8builders32PrefetchProxy_PrefetchedResource16kLinkClickedNameE = external constant [0 x i8], align 1
@_ZN3ukm8builders32PrefetchProxy_PrefetchedResource17kLinkPositionNameE = external constant [0 x i8], align 1
@_ZN3ukm8builders32PrefetchProxy_PrefetchedResource34kNavigationStartToFetchStartMSNameE = external constant [0 x i8], align 1
@_ZN3ukm8builders32PrefetchProxy_PrefetchedResource17kResourceTypeNameE = external constant [0 x i8], align 1
@_ZN3ukm8builders32PrefetchProxy_PrefetchedResource11kStatusNameE = external constant [0 x i8], align 1
@.ref.tmp.167 = private constant [8 x %"struct.std::__1::pair.14"] [%"struct.std::__1::pair.14" { i64 -1356884563705385759, i8* getelementptr inbounds ([0 x i8], [0 x i8]* @_ZN3ukm8builders32PrefetchProxy_PrefetchedResource15kDataLengthNameE, i32 0, i32 0) }, %"struct.std::__1::pair.14" { i64 4613084086861472268, i8* getelementptr inbounds ([0 x i8], [0 x i8]* @_ZN3ukm8builders32PrefetchProxy_PrefetchedResource20kFetchDurationMSNameE, i32 0, i32 0) }, %"struct.std::__1::pair.14" { i64 6757338012734431050, i8* getelementptr inbounds ([0 x i8], [0 x i8]* @_ZN3ukm8builders32PrefetchProxy_PrefetchedResource23kISPFilteringStatusNameE, i32 0, i32 0) }, %"struct.std::__1::pair.14" { i64 4362171511329748408, i8* getelementptr inbounds ([0 x i8], [0 x i8]* @_ZN3ukm8builders32PrefetchProxy_PrefetchedResource16kLinkClickedNameE, i32 0, i32 0) }, %"struct.std::__1::pair.14" { i64 3631041696461386974, i8* getelementptr inbounds ([0 x i8], [0 x i8]* @_ZN3ukm8builders32PrefetchProxy_PrefetchedResource17kLinkPositionNameE, i32 0, i32 0) }, %"struct.std::__1::pair.14" { i64 4817477453931099929, i8* getelementptr inbounds ([0 x i8], [0 x i8]* @_ZN3ukm8builders32PrefetchProxy_PrefetchedResource34kNavigationStartToFetchStartMSNameE, i32 0, i32 0) }, %"struct.std::__1::pair.14" { i64 -4997139087611094522, i8* getelementptr inbounds ([0 x i8], [0 x i8]* @_ZN3ukm8builders32PrefetchProxy_PrefetchedResource17kResourceTypeNameE, i32 0, i32 0) }, %"struct.std::__1::pair.14" { i64 -1417603893889880363, i8* getelementptr inbounds ([0 x i8], [0 x i8]* @_ZN3ukm8builders32PrefetchProxy_PrefetchedResource11kStatusNameE, i32 0, i32 0) }], align 8
@_ZN3ukm8builders8Previews10kEntryNameE = external constant [0 x i8], align 1
@_ZN3ukm8builders8Previews14klite_pageNameE = external constant [0 x i8], align 1
@_ZN3ukm8builders8Previews22ksave_data_enabledNameE = external constant [0 x i8], align 1
@.ref.tmp.168 = private constant [2 x %"struct.std::__1::pair.14"] [%"struct.std::__1::pair.14" { i64 3925409904844646530, i8* getelementptr inbounds ([0 x i8], [0 x i8]* @_ZN3ukm8builders8Previews14klite_pageNameE, i32 0, i32 0) }, %"struct.std::__1::pair.14" { i64 1653640859566235189, i8* getelementptr inbounds ([0 x i8], [0 x i8]* @_ZN3ukm8builders8Previews22ksave_data_enabledNameE, i32 0, i32 0) }], align 8
@_ZN3ukm8builders29PublicImageCompressionDataUse10kEntryNameE = external constant [0 x i8], align 1
@_ZN3ukm8builders29PublicImageCompressionDataUse27kCompressibleImageBytesNameE = external constant [0 x i8], align 1
@_ZN3ukm8builders29PublicImageCompressionDataUse58kIneligibleImageHintsUnavailableAndMissingInHintsBytesNameE = external constant [0 x i8], align 1
@_ZN3ukm8builders29PublicImageCompressionDataUse56kIneligibleImageHintsUnavailableButCompressibleBytesNameE = external constant [0 x i8], align 1
@_ZN3ukm8builders29PublicImageCompressionDataUse41kIneligibleImageHintsUnavailableBytesNameE = external constant [0 x i8], align 1
@_ZN3ukm8builders29PublicImageCompressionDataUse39kIneligibleMissingInImageHintsBytesNameE = external constant [0 x i8], align 1
@_ZN3ukm8builders29PublicImageCompressionDataUse30kIneligibleOtherImageBytesNameE = external constant [0 x i8], align 1
@.ref.tmp.169 = private constant [6 x %"struct.std::__1::pair.14"] [%"struct.std::__1::pair.14" { i64 8749575241013944733, i8* getelementptr inbounds ([0 x i8], [0 x i8]* @_ZN3ukm8builders29PublicImageCompressionDataUse27kCompressibleImageBytesNameE, i32 0, i32 0) }, %"struct.std::__1::pair.14" { i64 -9148248149896917598, i8* getelementptr inbounds ([0 x i8], [0 x i8]* @_ZN3ukm8builders29PublicImageCompressionDataUse58kIneligibleImageHintsUnavailableAndMissingInHintsBytesNameE, i32 0, i32 0) }, %"struct.std::__1::pair.14" { i64 8173649068346122036, i8* getelementptr inbounds ([0 x i8], [0 x i8]* @_ZN3ukm8builders29PublicImageCompressionDataUse56kIneligibleImageHintsUnavailableButCompressibleBytesNameE, i32 0, i32 0) }, %"struct.std::__1::pair.14" { i64 -4700209829402237687, i8* getelementptr inbounds ([0 x i8], [0 x i8]* @_ZN3ukm8builders29PublicImageCompressionDataUse41kIneligibleImageHintsUnavailableBytesNameE, i32 0, i32 0) }, %"struct.std::__1::pair.14" { i64 -224549088761877805, i8* getelementptr inbounds ([0 x i8], [0 x i8]* @_ZN3ukm8builders29PublicImageCompressionDataUse39kIneligibleMissingInImageHintsBytesNameE, i32 0, i32 0) }, %"struct.std::__1::pair.14" { i64 -3145075461098997193, i8* getelementptr inbounds ([0 x i8], [0 x i8]* @_ZN3ukm8builders29PublicImageCompressionDataUse30kIneligibleOtherImageBytesNameE, i32 0, i32 0) }], align 8
@_ZN3ukm8builders31PublicImageCompressionImageLoad10kEntryNameE = external constant [0 x i8], align 1
@_ZN3ukm8builders31PublicImageCompressionImageLoad26kCompressionPercentageNameE = external constant [0 x i8], align 1
@_ZN3ukm8builders31PublicImageCompressionImageLoad28kNavigationToRequestSentNameE = external constant [0 x i8], align 1
@_ZN3ukm8builders31PublicImageCompressionImageLoad29kNavigationToRequestStartNameE = external constant [0 x i8], align 1
@_ZN3ukm8builders31PublicImageCompressionImageLoad33kNavigationToResponseReceivedNameE = external constant [0 x i8], align 1
@_ZN3ukm8builders31PublicImageCompressionImageLoad18kOriginalBytesNameE = external constant [0 x i8], align 1
@_ZN3ukm8builders31PublicImageCompressionImageLoad19kRedirectResultNameE = external constant [0 x i8], align 1
@_ZN3ukm8builders31PublicImageCompressionImageLoad28kRobotsRulesFetchLatencyNameE = external constant [0 x i8], align 1
@.ref.tmp.170 = private constant [7 x %"struct.std::__1::pair.14"] [%"struct.std::__1::pair.14" { i64 6874733196176228263, i8* getelementptr inbounds ([0 x i8], [0 x i8]* @_ZN3ukm8builders31PublicImageCompressionImageLoad26kCompressionPercentageNameE, i32 0, i32 0) }, %"struct.std::__1::pair.14" { i64 1810083485808758275, i8* getelementptr inbounds ([0 x i8], [0 x i8]* @_ZN3ukm8builders31PublicImageCompressionImageLoad28kNavigationToRequestSentNameE, i32 0, i32 0) }, %"struct.std::__1::pair.14" { i64 -8157743712659440787, i8* getelementptr inbounds ([0 x i8], [0 x i8]* @_ZN3ukm8builders31PublicImageCompressionImageLoad29kNavigationToRequestStartNameE, i32 0, i32 0) }, %"struct.std::__1::pair.14" { i64 3744822797338561685, i8* getelementptr inbounds ([0 x i8], [0 x i8]* @_ZN3ukm8builders31PublicImageCompressionImageLoad33kNavigationToResponseReceivedNameE, i32 0, i32 0) }, %"struct.std::__1::pair.14" { i64 7584776194520610226, i8* getelementptr inbounds ([0 x i8], [0 x i8]* @_ZN3ukm8builders31PublicImageCompressionImageLoad18kOriginalBytesNameE, i32 0, i32 0) }, %"struct.std::__1::pair.14" { i64 -309708023863493296, i8* getelementptr inbounds ([0 x i8], [0 x i8]* @_ZN3ukm8builders31PublicImageCompressionImageLoad19kRedirectResultNameE, i32 0, i32 0) }, %"struct.std::__1::pair.14" { i64 4732045845745102887, i8* getelementptr inbounds ([0 x i8], [0 x i8]* @_ZN3ukm8builders31PublicImageCompressionImageLoad28kRobotsRulesFetchLatencyNameE, i32 0, i32 0) }], align 8
@_ZN3ukm8builders9PWA_Visit10kEntryNameE = external constant [0 x i8], align 1
@_ZN3ukm8builders9PWA_Visit17kLaunchSourceNameE = external constant [0 x i8], align 1
@_ZN3ukm8builders9PWA_Visit24kWebAPKableSiteVisitNameE = external constant [0 x i8], align 1
@.ref.tmp.171 = private constant [2 x %"struct.std::__1::pair.14"] [%"struct.std::__1::pair.14" { i64 5360095524695749322, i8* getelementptr inbounds ([0 x i8], [0 x i8]* @_ZN3ukm8builders9PWA_Visit17kLaunchSourceNameE, i32 0, i32 0) }, %"struct.std::__1::pair.14" { i64 4362561697839438819, i8* getelementptr inbounds ([0 x i8], [0 x i8]* @_ZN3ukm8builders9PWA_Visit24kWebAPKableSiteVisitNameE, i32 0, i32 0) }], align 8
@_ZN3ukm8builders19ReaderModeActivated10kEntryNameE = external constant [0 x i8], align 1
@_ZN3ukm8builders19ReaderModeActivated24kActivatedViaOmniboxNameE = external constant [0 x i8], align 1
@.ref.tmp.172 = private constant [1 x %"struct.std::__1::pair.14"] [%"struct.std::__1::pair.14" { i64 2176968808273118322, i8* getelementptr inbounds ([0 x i8], [0 x i8]* @_ZN3ukm8builders19ReaderModeActivated24kActivatedViaOmniboxNameE, i32 0, i32 0) }], align 8
@_ZN3ukm8builders32ReaderModeReceivedDistillability10kEntryNameE = external constant [0 x i8], align 1
@_ZN3ukm8builders32ReaderModeReceivedDistillability22kIsPageDistillableNameE = external constant [0 x i8], align 1
@.ref.tmp.173 = private constant [1 x %"struct.std::__1::pair.14"] [%"struct.std::__1::pair.14" { i64 6232477014927662300, i8* getelementptr inbounds ([0 x i8], [0 x i8]* @_ZN3ukm8builders32ReaderModeReceivedDistillability22kIsPageDistillableNameE, i32 0, i32 0) }], align 8
@_ZN3ukm8builders21RendererSchedulerTask10kEntryNameE = external constant [0 x i8], align 1
@_ZN3ukm8builders21RendererSchedulerTask16kFrameStatusNameE = external constant [0 x i8], align 1
@_ZN3ukm8builders21RendererSchedulerTask12kIsOOPIFNameE = external constant [0 x i8], align 1
@_ZN3ukm8builders21RendererSchedulerTask19kPageSchedulersNameE = external constant [0 x i8], align 1
@_ZN3ukm8builders21RendererSchedulerTask14kQueueTypeNameE = external constant [0 x i8], align 1
@_ZN3ukm8builders21RendererSchedulerTask20kRendererAudibleNameE = external constant [0 x i8], align 1
@_ZN3ukm8builders21RendererSchedulerTask25kRendererBackgroundedNameE = external constant [0 x i8], align 1
@_ZN3ukm8builders21RendererSchedulerTask19kRendererHiddenNameE = external constant [0 x i8], align 1
@_ZN3ukm8builders21RendererSchedulerTask29kSecondsSinceBackgroundedNameE = external constant [0 x i8], align 1
@_ZN3ukm8builders21RendererSchedulerTask20kTaskCPUDurationNameE = external constant [0 x i8], align 1
@_ZN3ukm8builders21RendererSchedulerTask17kTaskDurationNameE = external constant [0 x i8], align 1
@_ZN3ukm8builders21RendererSchedulerTask13kTaskTypeNameE = external constant [0 x i8], align 1
@_ZN3ukm8builders21RendererSchedulerTask15kThreadTypeNameE = external constant [0 x i8], align 1
@_ZN3ukm8builders21RendererSchedulerTask12kUseCaseNameE = external constant [0 x i8], align 1
@_ZN3ukm8builders21RendererSchedulerTask12kVersionNameE = external constant [0 x i8], align 1
@.ref.tmp.174 = private constant [14 x %"struct.std::__1::pair.14"] [%"struct.std::__1::pair.14" { i64 8127006928817986898, i8* getelementptr inbounds ([0 x i8], [0 x i8]* @_ZN3ukm8builders21RendererSchedulerTask16kFrameStatusNameE, i32 0, i32 0) }, %"struct.std::__1::pair.14" { i64 4026879053974581447, i8* getelementptr inbounds ([0 x i8], [0 x i8]* @_ZN3ukm8builders21RendererSchedulerTask12kIsOOPIFNameE, i32 0, i32 0) }, %"struct.std::__1::pair.14" { i64 -6676617186014643673, i8* getelementptr inbounds ([0 x i8], [0 x i8]* @_ZN3ukm8builders21RendererSchedulerTask19kPageSchedulersNameE, i32 0, i32 0) }, %"struct.std::__1::pair.14" { i64 -7237866913804399380, i8* getelementptr inbounds ([0 x i8], [0 x i8]* @_ZN3ukm8builders21RendererSchedulerTask14kQueueTypeNameE, i32 0, i32 0) }, %"struct.std::__1::pair.14" { i64 4748648681023634603, i8* getelementptr inbounds ([0 x i8], [0 x i8]* @_ZN3ukm8builders21RendererSchedulerTask20kRendererAudibleNameE, i32 0, i32 0) }, %"struct.std::__1::pair.14" { i64 7540850391372337744, i8* getelementptr inbounds ([0 x i8], [0 x i8]* @_ZN3ukm8builders21RendererSchedulerTask25kRendererBackgroundedNameE, i32 0, i32 0) }, %"struct.std::__1::pair.14" { i64 4143722852895683235, i8* getelementptr inbounds ([0 x i8], [0 x i8]* @_ZN3ukm8builders21RendererSchedulerTask19kRendererHiddenNameE, i32 0, i32 0) }, %"struct.std::__1::pair.14" { i64 -6624414681951336001, i8* getelementptr inbounds ([0 x i8], [0 x i8]* @_ZN3ukm8builders21RendererSchedulerTask29kSecondsSinceBackgroundedNameE, i32 0, i32 0) }, %"struct.std::__1::pair.14" { i64 -1991065983536250037, i8* getelementptr inbounds ([0 x i8], [0 x i8]* @_ZN3ukm8builders21RendererSchedulerTask20kTaskCPUDurationNameE, i32 0, i32 0) }, %"struct.std::__1::pair.14" { i64 3339793303415972546, i8* getelementptr inbounds ([0 x i8], [0 x i8]* @_ZN3ukm8builders21RendererSchedulerTask17kTaskDurationNameE, i32 0, i32 0) }, %"struct.std::__1::pair.14" { i64 -5807601742275867107, i8* getelementptr inbounds ([0 x i8], [0 x i8]* @_ZN3ukm8builders21RendererSchedulerTask13kTaskTypeNameE, i32 0, i32 0) }, %"struct.std::__1::pair.14" { i64 -2110574370357361474, i8* getelementptr inbounds ([0 x i8], [0 x i8]* @_ZN3ukm8builders21RendererSchedulerTask15kThreadTypeNameE, i32 0, i32 0) }, %"struct.std::__1::pair.14" { i64 -8058692505169740708, i8* getelementptr inbounds ([0 x i8], [0 x i8]* @_ZN3ukm8builders21RendererSchedulerTask12kUseCaseNameE, i32 0, i32 0) }, %"struct.std::__1::pair.14" { i64 3798449238516105146, i8* getelementptr inbounds ([0 x i8], [0 x i8]* @_ZN3ukm8builders21RendererSchedulerTask12kVersionNameE, i32 0, i32 0) }], align 8
@_ZN3ukm8builders25ResponsivenessMeasurement10kEntryNameE = external constant [0 x i8], align 1
@_ZN3ukm8builders30SameSiteDifferentSchemeRequest10kEntryNameE = external constant [0 x i8], align 1
@_ZN3ukm8builders31SameSiteDifferentSchemeResponse10kEntryNameE = external constant [0 x i8], align 1
@_ZN3ukm8builders33SchemefulSameSiteContextDowngrade10kEntryNameE = external constant [0 x i8], align 1
@_ZN3ukm8builders33SchemefulSameSiteContextDowngrade21kRequestPerCookieNameE = external constant [0 x i8], align 1
@_ZN3ukm8builders33SchemefulSameSiteContextDowngrade22kResponsePerCookieNameE = external constant [0 x i8], align 1
@.ref.tmp.175 = private constant [2 x %"struct.std::__1::pair.14"] [%"struct.std::__1::pair.14" { i64 2434445133551336228, i8* getelementptr inbounds ([0 x i8], [0 x i8]* @_ZN3ukm8builders33SchemefulSameSiteContextDowngrade21kRequestPerCookieNameE, i32 0, i32 0) }, %"struct.std::__1::pair.14" { i64 5214101366751624340, i8* getelementptr inbounds ([0 x i8], [0 x i8]* @_ZN3ukm8builders33SchemefulSameSiteContextDowngrade22kResponsePerCookieNameE, i32 0, i32 0) }], align 8
@_ZN3ukm8builders16ScreenBrightness10kEntryNameE = external constant [0 x i8], align 1
@_ZN3ukm8builders16ScreenBrightness19kBatteryPercentNameE = external constant [0 x i8], align 1
@_ZN3ukm8builders16ScreenBrightness15kBrightnessNameE = external constant [0 x i8], align 1
@_ZN3ukm8builders16ScreenBrightness14kDayOfWeekNameE = external constant [0 x i8], align 1
@_ZN3ukm8builders16ScreenBrightness15kDeviceModeNameE = external constant [0 x i8], align 1
@_ZN3ukm8builders16ScreenBrightness14kHourOfDayNameE = external constant [0 x i8], align 1
@_ZN3ukm8builders16ScreenBrightness23kIsAutoclickEnabledNameE = external constant [0 x i8], align 1
@_ZN3ukm8builders16ScreenBrightness30kIsBrailleDisplayConnectedNameE = external constant [0 x i8], align 1
@_ZN3ukm8builders16ScreenBrightness28kIsCaretHighlightEnabledNameE = external constant [0 x i8], align 1
@_ZN3ukm8builders16ScreenBrightness29kIsCursorHighlightEnabledNameE = external constant [0 x i8], align 1
@_ZN3ukm8builders16ScreenBrightness28kIsFocusHighlightEnabledNameE = external constant [0 x i8], align 1
@_ZN3ukm8builders16ScreenBrightness26kIsHighContrastEnabledNameE = external constant [0 x i8], align 1
@_ZN3ukm8builders16ScreenBrightness25kIsLargeCursorEnabledNameE = external constant [0 x i8], align 1
@_ZN3ukm8builders16ScreenBrightness23kIsMagnifierEnabledNameE = external constant [0 x i8], align 1
@_ZN3ukm8builders16ScreenBrightness23kIsMonoAudioEnabledNameE = external constant [0 x i8], align 1
@_ZN3ukm8builders16ScreenBrightness27kIsSelectToSpeakEnabledNameE = external constant [0 x i8], align 1
@_ZN3ukm8builders16ScreenBrightness28kIsSpokenFeedbackEnabledNameE = external constant [0 x i8], align 1
@_ZN3ukm8builders16ScreenBrightness26kIsSwitchAccessEnabledNameE = external constant [0 x i8], align 1
@_ZN3ukm8builders16ScreenBrightness19kIsVideoPlayingNameE = external constant [0 x i8], align 1
@_ZN3ukm8builders16ScreenBrightness29kIsVirtualKeyboardEnabledNameE = external constant [0 x i8], align 1
@_ZN3ukm8builders16ScreenBrightness24kLastActivityTimeSecNameE = external constant [0 x i8], align 1
@_ZN3ukm8builders16ScreenBrightness33kNightLightTemperaturePercentNameE = external constant [0 x i8], align 1
@_ZN3ukm8builders16ScreenBrightness23kNumRecentKeyEventsNameE = external constant [0 x i8], align 1
@_ZN3ukm8builders16ScreenBrightness25kNumRecentMouseEventsNameE = external constant [0 x i8], align 1
@_ZN3ukm8builders16ScreenBrightness26kNumRecentStylusEventsNameE = external constant [0 x i8], align 1
@_ZN3ukm8builders16ScreenBrightness25kNumRecentTouchEventsNameE = external constant [0 x i8], align 1
@_ZN3ukm8builders16ScreenBrightness14kOnBatteryNameE = external constant [0 x i8], align 1
@_ZN3ukm8builders16ScreenBrightness23kPreviousBrightnessNameE = external constant [0 x i8], align 1
@_ZN3ukm8builders16ScreenBrightness11kReasonNameE = external constant [0 x i8], align 1
@_ZN3ukm8builders16ScreenBrightness24kRecentTimeActiveSecNameE = external constant [0 x i8], align 1
@_ZN3ukm8builders16ScreenBrightness15kSequenceIdNameE = external constant [0 x i8], align 1
@_ZN3ukm8builders16ScreenBrightness26kTimeSinceLastEventSecNameE = external constant [0 x i8], align 1
@.ref.tmp.176 = private constant [31 x %"struct.std::__1::pair.14"] [%"struct.std::__1::pair.14" { i64 3434325767059222004, i8* getelementptr inbounds ([0 x i8], [0 x i8]* @_ZN3ukm8builders16ScreenBrightness19kBatteryPercentNameE, i32 0, i32 0) }, %"struct.std::__1::pair.14" { i64 -5597090356995240348, i8* getelementptr inbounds ([0 x i8], [0 x i8]* @_ZN3ukm8builders16ScreenBrightness15kBrightnessNameE, i32 0, i32 0) }, %"struct.std::__1::pair.14" { i64 -2834735534568602335, i8* getelementptr inbounds ([0 x i8], [0 x i8]* @_ZN3ukm8builders16ScreenBrightness14kDayOfWeekNameE, i32 0, i32 0) }, %"struct.std::__1::pair.14" { i64 -894709574419518343, i8* getelementptr inbounds ([0 x i8], [0 x i8]* @_ZN3ukm8builders16ScreenBrightness15kDeviceModeNameE, i32 0, i32 0) }, %"struct.std::__1::pair.14" { i64 7458652416968136217, i8* getelementptr inbounds ([0 x i8], [0 x i8]* @_ZN3ukm8builders16ScreenBrightness14kHourOfDayNameE, i32 0, i32 0) }, %"struct.std::__1::pair.14" { i64 -6361266411946146658, i8* getelementptr inbounds ([0 x i8], [0 x i8]* @_ZN3ukm8builders16ScreenBrightness23kIsAutoclickEnabledNameE, i32 0, i32 0) }, %"struct.std::__1::pair.14" { i64 -1041451813679102767, i8* getelementptr inbounds ([0 x i8], [0 x i8]* @_ZN3ukm8builders16ScreenBrightness30kIsBrailleDisplayConnectedNameE, i32 0, i32 0) }, %"struct.std::__1::pair.14" { i64 -7964447226741494962, i8* getelementptr inbounds ([0 x i8], [0 x i8]* @_ZN3ukm8builders16ScreenBrightness28kIsCaretHighlightEnabledNameE, i32 0, i32 0) }, %"struct.std::__1::pair.14" { i64 2111688606646287289, i8* getelementptr inbounds ([0 x i8], [0 x i8]* @_ZN3ukm8builders16ScreenBrightness29kIsCursorHighlightEnabledNameE, i32 0, i32 0) }, %"struct.std::__1::pair.14" { i64 4772586800047270064, i8* getelementptr inbounds ([0 x i8], [0 x i8]* @_ZN3ukm8builders16ScreenBrightness28kIsFocusHighlightEnabledNameE, i32 0, i32 0) }, %"struct.std::__1::pair.14" { i64 374822690988321958, i8* getelementptr inbounds ([0 x i8], [0 x i8]* @_ZN3ukm8builders16ScreenBrightness26kIsHighContrastEnabledNameE, i32 0, i32 0) }, %"struct.std::__1::pair.14" { i64 1440663063306295171, i8* getelementptr inbounds ([0 x i8], [0 x i8]* @_ZN3ukm8builders16ScreenBrightness25kIsLargeCursorEnabledNameE, i32 0, i32 0) }, %"struct.std::__1::pair.14" { i64 6711936056248658535, i8* getelementptr inbounds ([0 x i8], [0 x i8]* @_ZN3ukm8builders16ScreenBrightness23kIsMagnifierEnabledNameE, i32 0, i32 0) }, %"struct.std::__1::pair.14" { i64 -6851333054418961016, i8* getelementptr inbounds ([0 x i8], [0 x i8]* @_ZN3ukm8builders16ScreenBrightness23kIsMonoAudioEnabledNameE, i32 0, i32 0) }, %"struct.std::__1::pair.14" { i64 4363348572679012907, i8* getelementptr inbounds ([0 x i8], [0 x i8]* @_ZN3ukm8builders16ScreenBrightness27kIsSelectToSpeakEnabledNameE, i32 0, i32 0) }, %"struct.std::__1::pair.14" { i64 6400938228896171943, i8* getelementptr inbounds ([0 x i8], [0 x i8]* @_ZN3ukm8builders16ScreenBrightness28kIsSpokenFeedbackEnabledNameE, i32 0, i32 0) }, %"struct.std::__1::pair.14" { i64 1769366891414824383, i8* getelementptr inbounds ([0 x i8], [0 x i8]* @_ZN3ukm8builders16ScreenBrightness26kIsSwitchAccessEnabledNameE, i32 0, i32 0) }, %"struct.std::__1::pair.14" { i64 1871421023467865761, i8* getelementptr inbounds ([0 x i8], [0 x i8]* @_ZN3ukm8builders16ScreenBrightness19kIsVideoPlayingNameE, i32 0, i32 0) }, %"struct.std::__1::pair.14" { i64 -2317385933014992625, i8* getelementptr inbounds ([0 x i8], [0 x i8]* @_ZN3ukm8builders16ScreenBrightness29kIsVirtualKeyboardEnabledNameE, i32 0, i32 0) }, %"struct.std::__1::pair.14" { i64 2653130242002900914, i8* getelementptr inbounds ([0 x i8], [0 x i8]* @_ZN3ukm8builders16ScreenBrightness24kLastActivityTimeSecNameE, i32 0, i32 0) }, %"struct.std::__1::pair.14" { i64 -7744352135150376475, i8* getelementptr inbounds ([0 x i8], [0 x i8]* @_ZN3ukm8builders16ScreenBrightness33kNightLightTemperaturePercentNameE, i32 0, i32 0) }, %"struct.std::__1::pair.14" { i64 -929449100387296240, i8* getelementptr inbounds ([0 x i8], [0 x i8]* @_ZN3ukm8builders16ScreenBrightness23kNumRecentKeyEventsNameE, i32 0, i32 0) }, %"struct.std::__1::pair.14" { i64 6164169136009494499, i8* getelementptr inbounds ([0 x i8], [0 x i8]* @_ZN3ukm8builders16ScreenBrightness25kNumRecentMouseEventsNameE, i32 0, i32 0) }, %"struct.std::__1::pair.14" { i64 -5261737152161439582, i8* getelementptr inbounds ([0 x i8], [0 x i8]* @_ZN3ukm8builders16ScreenBrightness26kNumRecentStylusEventsNameE, i32 0, i32 0) }, %"struct.std::__1::pair.14" { i64 -4378782746140920840, i8* getelementptr inbounds ([0 x i8], [0 x i8]* @_ZN3ukm8builders16ScreenBrightness25kNumRecentTouchEventsNameE, i32 0, i32 0) }, %"struct.std::__1::pair.14" { i64 -8948800231793397181, i8* getelementptr inbounds ([0 x i8], [0 x i8]* @_ZN3ukm8builders16ScreenBrightness14kOnBatteryNameE, i32 0, i32 0) }, %"struct.std::__1::pair.14" { i64 28161076988593854, i8* getelementptr inbounds ([0 x i8], [0 x i8]* @_ZN3ukm8builders16ScreenBrightness23kPreviousBrightnessNameE, i32 0, i32 0) }, %"struct.std::__1::pair.14" { i64 -927086387882318, i8* getelementptr inbounds ([0 x i8], [0 x i8]* @_ZN3ukm8builders16ScreenBrightness11kReasonNameE, i32 0, i32 0) }, %"struct.std::__1::pair.14" { i64 8488182886786891867, i8* getelementptr inbounds ([0 x i8], [0 x i8]* @_ZN3ukm8builders16ScreenBrightness24kRecentTimeActiveSecNameE, i32 0, i32 0) }, %"struct.std::__1::pair.14" { i64 8860601784949375835, i8* getelementptr inbounds ([0 x i8], [0 x i8]* @_ZN3ukm8builders16ScreenBrightness15kSequenceIdNameE, i32 0, i32 0) }, %"struct.std::__1::pair.14" { i64 8786008257637497412, i8* getelementptr inbounds ([0 x i8], [0 x i8]* @_ZN3ukm8builders16ScreenBrightness26kTimeSinceLastEventSecNameE, i32 0, i32 0) }], align 8
@_ZN3ukm8builders18Security_SafetyTip10kEntryNameE = external constant [0 x i8], align 1
@_ZN3ukm8builders18Security_SafetyTip25kSafetyTipInteractionNameE = external constant [0 x i8], align 1
@_ZN3ukm8builders18Security_SafetyTip20kSafetyTipStatusNameE = external constant [0 x i8], align 1
@_ZN3ukm8builders18Security_SafetyTip32kTriggeredKeywordsHeuristicsNameE = external constant [0 x i8], align 1
@_ZN3ukm8builders18Security_SafetyTip33kTriggeredLookalikeHeuristicsNameE = external constant [0 x i8], align 1
@_ZN3ukm8builders18Security_SafetyTip33kTriggeredServerSideBlocklistNameE = external constant [0 x i8], align 1
@_ZN3ukm8builders18Security_SafetyTip26kUserPreviouslyIgnoredNameE = external constant [0 x i8], align 1
@.ref.tmp.177 = private constant [6 x %"struct.std::__1::pair.14"] [%"struct.std::__1::pair.14" { i64 568933257952179197, i8* getelementptr inbounds ([0 x i8], [0 x i8]* @_ZN3ukm8builders18Security_SafetyTip25kSafetyTipInteractionNameE, i32 0, i32 0) }, %"struct.std::__1::pair.14" { i64 4178545148842217888, i8* getelementptr inbounds ([0 x i8], [0 x i8]* @_ZN3ukm8builders18Security_SafetyTip20kSafetyTipStatusNameE, i32 0, i32 0) }, %"struct.std::__1::pair.14" { i64 -228118935718777286, i8* getelementptr inbounds ([0 x i8], [0 x i8]* @_ZN3ukm8builders18Security_SafetyTip32kTriggeredKeywordsHeuristicsNameE, i32 0, i32 0) }, %"struct.std::__1::pair.14" { i64 -848999146072026723, i8* getelementptr inbounds ([0 x i8], [0 x i8]* @_ZN3ukm8builders18Security_SafetyTip33kTriggeredLookalikeHeuristicsNameE, i32 0, i32 0) }, %"struct.std::__1::pair.14" { i64 -492836794367160375, i8* getelementptr inbounds ([0 x i8], [0 x i8]* @_ZN3ukm8builders18Security_SafetyTip33kTriggeredServerSideBlocklistNameE, i32 0, i32 0) }, %"struct.std::__1::pair.14" { i64 7110437703924452447, i8* getelementptr inbounds ([0 x i8], [0 x i8]* @_ZN3ukm8builders18Security_SafetyTip26kUserPreviouslyIgnoredNameE, i32 0, i32 0) }], align 8
@_ZN3ukm8builders23Security_SiteEngagement10kEntryNameE = external constant [0 x i8], align 1
@_ZN3ukm8builders23Security_SiteEngagement23kFinalSecurityLevelNameE = external constant [0 x i8], align 1
@_ZN3ukm8builders23Security_SiteEngagement25kInitialSecurityLevelNameE = external constant [0 x i8], align 1
@_ZN3ukm8builders23Security_SiteEngagement20kSafetyTipStatusNameE = external constant [0 x i8], align 1
@_ZN3ukm8builders23Security_SiteEngagement15kScoreDeltaNameE = external constant [0 x i8], align 1
@_ZN3ukm8builders23Security_SiteEngagement15kScoreFinalNameE = external constant [0 x i8], align 1
@.ref.tmp.178 = private constant [5 x %"struct.std::__1::pair.14"] [%"struct.std::__1::pair.14" { i64 8095555624405238595, i8* getelementptr inbounds ([0 x i8], [0 x i8]* @_ZN3ukm8builders23Security_SiteEngagement23kFinalSecurityLevelNameE, i32 0, i32 0) }, %"struct.std::__1::pair.14" { i64 7293396472423676335, i8* getelementptr inbounds ([0 x i8], [0 x i8]* @_ZN3ukm8builders23Security_SiteEngagement25kInitialSecurityLevelNameE, i32 0, i32 0) }, %"struct.std::__1::pair.14" { i64 4178545148842217888, i8* getelementptr inbounds ([0 x i8], [0 x i8]* @_ZN3ukm8builders23Security_SiteEngagement20kSafetyTipStatusNameE, i32 0, i32 0) }, %"struct.std::__1::pair.14" { i64 -8888712124870244136, i8* getelementptr inbounds ([0 x i8], [0 x i8]* @_ZN3ukm8builders23Security_SiteEngagement15kScoreDeltaNameE, i32 0, i32 0) }, %"struct.std::__1::pair.14" { i64 -1471051757427124363, i8* getelementptr inbounds ([0 x i8], [0 x i8]* @_ZN3ukm8builders23Security_SiteEngagement15kScoreFinalNameE, i32 0, i32 0) }], align 8
@_ZN3ukm8builders30SharedHighlights_LinkGenerated10kEntryNameE = external constant [0 x i8], align 1
@_ZN3ukm8builders30SharedHighlights_LinkGenerated10kErrorNameE = external constant [0 x i8], align 1
@_ZN3ukm8builders30SharedHighlights_LinkGenerated12kSuccessNameE = external constant [0 x i8], align 1
@.ref.tmp.179 = private constant [2 x %"struct.std::__1::pair.14"] [%"struct.std::__1::pair.14" { i64 -8058332445266741512, i8* getelementptr inbounds ([0 x i8], [0 x i8]* @_ZN3ukm8builders30SharedHighlights_LinkGenerated10kErrorNameE, i32 0, i32 0) }, %"struct.std::__1::pair.14" { i64 5790085346892983794, i8* getelementptr inbounds ([0 x i8], [0 x i8]* @_ZN3ukm8builders30SharedHighlights_LinkGenerated12kSuccessNameE, i32 0, i32 0) }], align 8
@_ZN3ukm8builders27SharedHighlights_LinkOpened10kEntryNameE = external constant [0 x i8], align 1
@_ZN3ukm8builders27SharedHighlights_LinkOpened11kSourceNameE = external constant [0 x i8], align 1
@_ZN3ukm8builders27SharedHighlights_LinkOpened12kSuccessNameE = external constant [0 x i8], align 1
@.ref.tmp.180 = private constant [2 x %"struct.std::__1::pair.14"] [%"struct.std::__1::pair.14" { i64 -928940189757711412, i8* getelementptr inbounds ([0 x i8], [0 x i8]* @_ZN3ukm8builders27SharedHighlights_LinkOpened11kSourceNameE, i32 0, i32 0) }, %"struct.std::__1::pair.14" { i64 5790085346892983794, i8* getelementptr inbounds ([0 x i8], [0 x i8]* @_ZN3ukm8builders27SharedHighlights_LinkOpened12kSuccessNameE, i32 0, i32 0) }], align 8
@_ZN3ukm8builders19Sharing_ClickToCall10kEntryNameE = external constant [0 x i8], align 1
@_ZN3ukm8builders19Sharing_ClickToCall15kEntryPointNameE = external constant [0 x i8], align 1
@_ZN3ukm8builders19Sharing_ClickToCall12kHasAppsNameE = external constant [0 x i8], align 1
@_ZN3ukm8builders19Sharing_ClickToCall15kHasDevicesNameE = external constant [0 x i8], align 1
@_ZN3ukm8builders19Sharing_ClickToCall14kSelectionNameE = external constant [0 x i8], align 1
@.ref.tmp.181 = private constant [4 x %"struct.std::__1::pair.14"] [%"struct.std::__1::pair.14" { i64 -4079676008740292790, i8* getelementptr inbounds ([0 x i8], [0 x i8]* @_ZN3ukm8builders19Sharing_ClickToCall15kEntryPointNameE, i32 0, i32 0) }, %"struct.std::__1::pair.14" { i64 8572169351575878732, i8* getelementptr inbounds ([0 x i8], [0 x i8]* @_ZN3ukm8builders19Sharing_ClickToCall12kHasAppsNameE, i32 0, i32 0) }, %"struct.std::__1::pair.14" { i64 2199982532385446345, i8* getelementptr inbounds ([0 x i8], [0 x i8]* @_ZN3ukm8builders19Sharing_ClickToCall15kHasDevicesNameE, i32 0, i32 0) }, %"struct.std::__1::pair.14" { i64 8068723256203825537, i8* getelementptr inbounds ([0 x i8], [0 x i8]* @_ZN3ukm8builders19Sharing_ClickToCall14kSelectionNameE, i32 0, i32 0) }], align 8
@_ZN3ukm8builders13SmartCharging10kEntryNameE = external constant [0 x i8], align 1
@_ZN3ukm8builders13SmartCharging22kBatteryPercentageNameE = external constant [0 x i8], align 1
@_ZN3ukm8builders13SmartCharging38kBatteryPercentageBeforeLastChargeNameE = external constant [0 x i8], align 1
@_ZN3ukm8builders13SmartCharging34kBatteryPercentageOfLastChargeNameE = external constant [0 x i8], align 1
@_ZN3ukm8builders13SmartCharging15kDayOfMonthNameE = external constant [0 x i8], align 1
@_ZN3ukm8builders13SmartCharging14kDayOfWeekNameE = external constant [0 x i8], align 1
@_ZN3ukm8builders13SmartCharging15kDeviceModeNameE = external constant [0 x i8], align 1
@_ZN3ukm8builders13SmartCharging15kDeviceTypeNameE = external constant [0 x i8], align 1
@_ZN3ukm8builders13SmartCharging25kDurationOfLastChargeNameE = external constant [0 x i8], align 1
@_ZN3ukm8builders13SmartCharging31kDurationRecentAudioPlayingNameE = external constant [0 x i8], align 1
@_ZN3ukm8builders13SmartCharging31kDurationRecentVideoPlayingNameE = external constant [0 x i8], align 1
@_ZN3ukm8builders13SmartCharging12kEventIdNameE = external constant [0 x i8], align 1
@_ZN3ukm8builders13SmartCharging23kHaltFromLastChargeNameE = external constant [0 x i8], align 1
@_ZN3ukm8builders13SmartCharging15kIsChargingNameE = external constant [0 x i8], align 1
@_ZN3ukm8builders13SmartCharging10kMonthNameE = external constant [0 x i8], align 1
@_ZN3ukm8builders13SmartCharging23kNumRecentKeyEventsNameE = external constant [0 x i8], align 1
@_ZN3ukm8builders13SmartCharging25kNumRecentMouseEventsNameE = external constant [0 x i8], align 1
@_ZN3ukm8builders13SmartCharging26kNumRecentStylusEventsNameE = external constant [0 x i8], align 1
@_ZN3ukm8builders13SmartCharging25kNumRecentTouchEventsNameE = external constant [0 x i8], align 1
@_ZN3ukm8builders13SmartCharging11kReasonNameE = external constant [0 x i8], align 1
@_ZN3ukm8builders13SmartCharging28kScreenBrightnessPercentNameE = external constant [0 x i8], align 1
@_ZN3ukm8builders13SmartCharging17kTimeOfTheDayNameE = external constant [0 x i8], align 1
@_ZN3ukm8builders13SmartCharging24kTimeSinceLastChargeNameE = external constant [0 x i8], align 1
@_ZN3ukm8builders13SmartCharging37kTimezoneDifferenceFromLastChargeNameE = external constant [0 x i8], align 1
@_ZN3ukm8builders13SmartCharging12kVoltageNameE = external constant [0 x i8], align 1
@.ref.tmp.182 = private constant [24 x %"struct.std::__1::pair.14"] [%"struct.std::__1::pair.14" { i64 -3927620845405473518, i8* getelementptr inbounds ([0 x i8], [0 x i8]* @_ZN3ukm8builders13SmartCharging22kBatteryPercentageNameE, i32 0, i32 0) }, %"struct.std::__1::pair.14" { i64 -439884636582868159, i8* getelementptr inbounds ([0 x i8], [0 x i8]* @_ZN3ukm8builders13SmartCharging38kBatteryPercentageBeforeLastChargeNameE, i32 0, i32 0) }, %"struct.std::__1::pair.14" { i64 -7294144646892353464, i8* getelementptr inbounds ([0 x i8], [0 x i8]* @_ZN3ukm8builders13SmartCharging34kBatteryPercentageOfLastChargeNameE, i32 0, i32 0) }, %"struct.std::__1::pair.14" { i64 6240377267495591558, i8* getelementptr inbounds ([0 x i8], [0 x i8]* @_ZN3ukm8builders13SmartCharging15kDayOfMonthNameE, i32 0, i32 0) }, %"struct.std::__1::pair.14" { i64 -2834735534568602335, i8* getelementptr inbounds ([0 x i8], [0 x i8]* @_ZN3ukm8builders13SmartCharging14kDayOfWeekNameE, i32 0, i32 0) }, %"struct.std::__1::pair.14" { i64 -894709574419518343, i8* getelementptr inbounds ([0 x i8], [0 x i8]* @_ZN3ukm8builders13SmartCharging15kDeviceModeNameE, i32 0, i32 0) }, %"struct.std::__1::pair.14" { i64 7795620498098931292, i8* getelementptr inbounds ([0 x i8], [0 x i8]* @_ZN3ukm8builders13SmartCharging15kDeviceTypeNameE, i32 0, i32 0) }, %"struct.std::__1::pair.14" { i64 2917539631700490805, i8* getelementptr inbounds ([0 x i8], [0 x i8]* @_ZN3ukm8builders13SmartCharging25kDurationOfLastChargeNameE, i32 0, i32 0) }, %"struct.std::__1::pair.14" { i64 -5217728175443673085, i8* getelementptr inbounds ([0 x i8], [0 x i8]* @_ZN3ukm8builders13SmartCharging31kDurationRecentAudioPlayingNameE, i32 0, i32 0) }, %"struct.std::__1::pair.14" { i64 7949042912449780813, i8* getelementptr inbounds ([0 x i8], [0 x i8]* @_ZN3ukm8builders13SmartCharging31kDurationRecentVideoPlayingNameE, i32 0, i32 0) }, %"struct.std::__1::pair.14" { i64 8388046208606800177, i8* getelementptr inbounds ([0 x i8], [0 x i8]* @_ZN3ukm8builders13SmartCharging12kEventIdNameE, i32 0, i32 0) }, %"struct.std::__1::pair.14" { i64 4462991214889947556, i8* getelementptr inbounds ([0 x i8], [0 x i8]* @_ZN3ukm8builders13SmartCharging23kHaltFromLastChargeNameE, i32 0, i32 0) }, %"struct.std::__1::pair.14" { i64 7785451285210820804, i8* getelementptr inbounds ([0 x i8], [0 x i8]* @_ZN3ukm8builders13SmartCharging15kIsChargingNameE, i32 0, i32 0) }, %"struct.std::__1::pair.14" { i64 8987927404178983737, i8* getelementptr inbounds ([0 x i8], [0 x i8]* @_ZN3ukm8builders13SmartCharging10kMonthNameE, i32 0, i32 0) }, %"struct.std::__1::pair.14" { i64 -929449100387296240, i8* getelementptr inbounds ([0 x i8], [0 x i8]* @_ZN3ukm8builders13SmartCharging23kNumRecentKeyEventsNameE, i32 0, i32 0) }, %"struct.std::__1::pair.14" { i64 6164169136009494499, i8* getelementptr inbounds ([0 x i8], [0 x i8]* @_ZN3ukm8builders13SmartCharging25kNumRecentMouseEventsNameE, i32 0, i32 0) }, %"struct.std::__1::pair.14" { i64 -5261737152161439582, i8* getelementptr inbounds ([0 x i8], [0 x i8]* @_ZN3ukm8builders13SmartCharging26kNumRecentStylusEventsNameE, i32 0, i32 0) }, %"struct.std::__1::pair.14" { i64 -4378782746140920840, i8* getelementptr inbounds ([0 x i8], [0 x i8]* @_ZN3ukm8builders13SmartCharging25kNumRecentTouchEventsNameE, i32 0, i32 0) }, %"struct.std::__1::pair.14" { i64 -927086387882318, i8* getelementptr inbounds ([0 x i8], [0 x i8]* @_ZN3ukm8builders13SmartCharging11kReasonNameE, i32 0, i32 0) }, %"struct.std::__1::pair.14" { i64 -813304788548414714, i8* getelementptr inbounds ([0 x i8], [0 x i8]* @_ZN3ukm8builders13SmartCharging28kScreenBrightnessPercentNameE, i32 0, i32 0) }, %"struct.std::__1::pair.14" { i64 -6236110568095861413, i8* getelementptr inbounds ([0 x i8], [0 x i8]* @_ZN3ukm8builders13SmartCharging17kTimeOfTheDayNameE, i32 0, i32 0) }, %"struct.std::__1::pair.14" { i64 7810039360408170089, i8* getelementptr inbounds ([0 x i8], [0 x i8]* @_ZN3ukm8builders13SmartCharging24kTimeSinceLastChargeNameE, i32 0, i32 0) }, %"struct.std::__1::pair.14" { i64 -8673710080744747379, i8* getelementptr inbounds ([0 x i8], [0 x i8]* @_ZN3ukm8builders13SmartCharging37kTimezoneDifferenceFromLastChargeNameE, i32 0, i32 0) }, %"struct.std::__1::pair.14" { i64 5373634262604211033, i8* getelementptr inbounds ([0 x i8], [0 x i8]* @_ZN3ukm8builders13SmartCharging12kVoltageNameE, i32 0, i32 0) }], align 8
@_ZN3ukm8builders11SMSReceiver10kEntryNameE = external constant [0 x i8], align 1
@_ZN3ukm8builders11SMSReceiver23kIsCrossOriginFrameNameE = external constant [0 x i8], align 1
@_ZN3ukm8builders11SMSReceiver12kOutcomeNameE = external constant [0 x i8], align 1
@_ZN3ukm8builders11SMSReceiver21kSmsParsingStatusNameE = external constant [0 x i8], align 1
@_ZN3ukm8builders11SMSReceiver21kTimeSmsReceiveMsNameE = external constant [0 x i8], align 1
@_ZN3ukm8builders11SMSReceiver18kTimeSuccessMsNameE = external constant [0 x i8], align 1
@_ZN3ukm8builders11SMSReceiver21kTimeUserCancelMsNameE = external constant [0 x i8], align 1
@.ref.tmp.183 = private constant [6 x %"struct.std::__1::pair.14"] [%"struct.std::__1::pair.14" { i64 -3392231387275611929, i8* getelementptr inbounds ([0 x i8], [0 x i8]* @_ZN3ukm8builders11SMSReceiver23kIsCrossOriginFrameNameE, i32 0, i32 0) }, %"struct.std::__1::pair.14" { i64 -3498244298818792109, i8* getelementptr inbounds ([0 x i8], [0 x i8]* @_ZN3ukm8builders11SMSReceiver12kOutcomeNameE, i32 0, i32 0) }, %"struct.std::__1::pair.14" { i64 4125092907764169982, i8* getelementptr inbounds ([0 x i8], [0 x i8]* @_ZN3ukm8builders11SMSReceiver21kSmsParsingStatusNameE, i32 0, i32 0) }, %"struct.std::__1::pair.14" { i64 -2055137127178501235, i8* getelementptr inbounds ([0 x i8], [0 x i8]* @_ZN3ukm8builders11SMSReceiver21kTimeSmsReceiveMsNameE, i32 0, i32 0) }, %"struct.std::__1::pair.14" { i64 -9189081403066418580, i8* getelementptr inbounds ([0 x i8], [0 x i8]* @_ZN3ukm8builders11SMSReceiver18kTimeSuccessMsNameE, i32 0, i32 0) }, %"struct.std::__1::pair.14" { i64 -3692860030022075242, i8* getelementptr inbounds ([0 x i8], [0 x i8]* @_ZN3ukm8builders11SMSReceiver21kTimeUserCancelMsNameE, i32 0, i32 0) }], align 8
@_ZN3ukm8builders22SSL_MixedContentShown210kEntryNameE = external constant [0 x i8], align 1
@_ZN3ukm8builders22SSL_MixedContentShown29kTypeNameE = external constant [0 x i8], align 1
@.ref.tmp.184 = private constant [1 x %"struct.std::__1::pair.14"] [%"struct.std::__1::pair.14" { i64 -6775059294917053296, i8* getelementptr inbounds ([0 x i8], [0 x i8]* @_ZN3ukm8builders22SSL_MixedContentShown29kTypeNameE, i32 0, i32 0) }], align 8
@_ZN3ukm8builders17SubresourceFilter10kEntryNameE = external constant [0 x i8], align 1
@_ZN3ukm8builders17SubresourceFilter23kActivationDecisionNameE = external constant [0 x i8], align 1
@_ZN3ukm8builders17SubresourceFilter11kDryRunNameE = external constant [0 x i8], align 1
@_ZN3ukm8builders17SubresourceFilter32kEnforcementRedirectPositionNameE = external constant [0 x i8], align 1
@.ref.tmp.185 = private constant [3 x %"struct.std::__1::pair.14"] [%"struct.std::__1::pair.14" { i64 8340568698825149996, i8* getelementptr inbounds ([0 x i8], [0 x i8]* @_ZN3ukm8builders17SubresourceFilter23kActivationDecisionNameE, i32 0, i32 0) }, %"struct.std::__1::pair.14" { i64 -3140812428199421421, i8* getelementptr inbounds ([0 x i8], [0 x i8]* @_ZN3ukm8builders17SubresourceFilter11kDryRunNameE, i32 0, i32 0) }, %"struct.std::__1::pair.14" { i64 -977014810872965703, i8* getelementptr inbounds ([0 x i8], [0 x i8]* @_ZN3ukm8builders17SubresourceFilter32kEnforcementRedirectPositionNameE, i32 0, i32 0) }], align 8
@_ZN3ukm8builders45SubresourceRedirect_PublicSrcVideoCompression10kEntryNameE = external constant [0 x i8], align 1
@_ZN3ukm8builders45SubresourceRedirect_PublicSrcVideoCompression22kFullContentLengthNameE = external constant [0 x i8], align 1
@_ZN3ukm8builders45SubresourceRedirect_PublicSrcVideoCompression30kSubresourceRedirectResultNameE = external constant [0 x i8], align 1
@.ref.tmp.186 = private constant [2 x %"struct.std::__1::pair.14"] [%"struct.std::__1::pair.14" { i64 -3617830097808087752, i8* getelementptr inbounds ([0 x i8], [0 x i8]* @_ZN3ukm8builders45SubresourceRedirect_PublicSrcVideoCompression22kFullContentLengthNameE, i32 0, i32 0) }, %"struct.std::__1::pair.14" { i64 -4813458896620683026, i8* getelementptr inbounds ([0 x i8], [0 x i8]* @_ZN3ukm8builders45SubresourceRedirect_PublicSrcVideoCompression30kSubresourceRedirectResultNameE, i32 0, i32 0) }], align 8
@_ZN3ukm8builders15Tab_RendererOOM10kEntryNameE = external constant [0 x i8], align 1
@_ZN3ukm8builders15Tab_RendererOOM28kTimeSinceLastNavigationNameE = external constant [0 x i8], align 1
@.ref.tmp.187 = private constant [1 x %"struct.std::__1::pair.14"] [%"struct.std::__1::pair.14" { i64 -4508358121668147458, i8* getelementptr inbounds ([0 x i8], [0 x i8]* @_ZN3ukm8builders15Tab_RendererOOM28kTimeSinceLastNavigationNameE, i32 0, i32 0) }], align 8
@_ZN3ukm8builders14Tab_Screenshot10kEntryNameE = external constant [0 x i8], align 1
@_ZN3ukm8builders14Tab_Screenshot16kHasOccurredNameE = external constant [0 x i8], align 1
@.ref.tmp.188 = private constant [1 x %"struct.std::__1::pair.14"] [%"struct.std::__1::pair.14" { i64 1401967873843414280, i8* getelementptr inbounds ([0 x i8], [0 x i8]* @_ZN3ukm8builders14Tab_Screenshot16kHasOccurredNameE, i32 0, i32 0) }], align 8
@_ZN3ukm8builders37TabManager_Background_FirstAlertFired10kEntryNameE = external constant [0 x i8], align 1
@_ZN3ukm8builders37TabManager_Background_FirstAlertFired16kIsMainFrameNameE = external constant [0 x i8], align 1
@_ZN3ukm8builders37TabManager_Background_FirstAlertFired25kTimeFromBackgroundedNameE = external constant [0 x i8], align 1
@.ref.tmp.189 = private constant [2 x %"struct.std::__1::pair.14"] [%"struct.std::__1::pair.14" { i64 7266626398784684486, i8* getelementptr inbounds ([0 x i8], [0 x i8]* @_ZN3ukm8builders37TabManager_Background_FirstAlertFired16kIsMainFrameNameE, i32 0, i32 0) }, %"struct.std::__1::pair.14" { i64 -6787122895322501544, i8* getelementptr inbounds ([0 x i8], [0 x i8]* @_ZN3ukm8builders37TabManager_Background_FirstAlertFired25kTimeFromBackgroundedNameE, i32 0, i32 0) }], align 8
@_ZN3ukm8builders38TabManager_Background_FirstAudioStarts10kEntryNameE = external constant [0 x i8], align 1
@_ZN3ukm8builders38TabManager_Background_FirstAudioStarts16kIsMainFrameNameE = external constant [0 x i8], align 1
@_ZN3ukm8builders38TabManager_Background_FirstAudioStarts25kTimeFromBackgroundedNameE = external constant [0 x i8], align 1
@.ref.tmp.190 = private constant [2 x %"struct.std::__1::pair.14"] [%"struct.std::__1::pair.14" { i64 7266626398784684486, i8* getelementptr inbounds ([0 x i8], [0 x i8]* @_ZN3ukm8builders38TabManager_Background_FirstAudioStarts16kIsMainFrameNameE, i32 0, i32 0) }, %"struct.std::__1::pair.14" { i64 -6787122895322501544, i8* getelementptr inbounds ([0 x i8], [0 x i8]* @_ZN3ukm8builders38TabManager_Background_FirstAudioStarts25kTimeFromBackgroundedNameE, i32 0, i32 0) }], align 8
@_ZN3ukm8builders41TabManager_Background_FirstFaviconUpdated10kEntryNameE = external constant [0 x i8], align 1
@_ZN3ukm8builders41TabManager_Background_FirstFaviconUpdated25kTimeFromBackgroundedNameE = external constant [0 x i8], align 1
@.ref.tmp.191 = private constant [1 x %"struct.std::__1::pair.14"] [%"struct.std::__1::pair.14" { i64 -6787122895322501544, i8* getelementptr inbounds ([0 x i8], [0 x i8]* @_ZN3ukm8builders41TabManager_Background_FirstFaviconUpdated25kTimeFromBackgroundedNameE, i32 0, i32 0) }], align 8
@_ZN3ukm8builders59TabManager_Background_FirstNonPersistentNotificationCreated10kEntryNameE = external constant [0 x i8], align 1
@_ZN3ukm8builders59TabManager_Background_FirstNonPersistentNotificationCreated16kIsMainFrameNameE = external constant [0 x i8], align 1
@_ZN3ukm8builders59TabManager_Background_FirstNonPersistentNotificationCreated25kTimeFromBackgroundedNameE = external constant [0 x i8], align 1
@.ref.tmp.192 = private constant [2 x %"struct.std::__1::pair.14"] [%"struct.std::__1::pair.14" { i64 7266626398784684486, i8* getelementptr inbounds ([0 x i8], [0 x i8]* @_ZN3ukm8builders59TabManager_Background_FirstNonPersistentNotificationCreated16kIsMainFrameNameE, i32 0, i32 0) }, %"struct.std::__1::pair.14" { i64 -6787122895322501544, i8* getelementptr inbounds ([0 x i8], [0 x i8]* @_ZN3ukm8builders59TabManager_Background_FirstNonPersistentNotificationCreated25kTimeFromBackgroundedNameE, i32 0, i32 0) }], align 8
@_ZN3ukm8builders39TabManager_Background_FirstTitleUpdated10kEntryNameE = external constant [0 x i8], align 1
@_ZN3ukm8builders39TabManager_Background_FirstTitleUpdated25kTimeFromBackgroundedNameE = external constant [0 x i8], align 1
@.ref.tmp.193 = private constant [1 x %"struct.std::__1::pair.14"] [%"struct.std::__1::pair.14" { i64 -6787122895322501544, i8* getelementptr inbounds ([0 x i8], [0 x i8]* @_ZN3ukm8builders39TabManager_Background_FirstTitleUpdated25kTimeFromBackgroundedNameE, i32 0, i32 0) }], align 8
@_ZN3ukm8builders42TabManager_Background_ForegroundedOrClosed10kEntryNameE = external constant [0 x i8], align 1
@_ZN3ukm8builders42TabManager_Background_ForegroundedOrClosed16kIsDiscardedNameE = external constant [0 x i8], align 1
@_ZN3ukm8builders42TabManager_Background_ForegroundedOrClosed19kIsForegroundedNameE = external constant [0 x i8], align 1
@_ZN3ukm8builders42TabManager_Background_ForegroundedOrClosed12kLabelIdNameE = external constant [0 x i8], align 1
@_ZN3ukm8builders42TabManager_Background_ForegroundedOrClosed25kTimeFromBackgroundedNameE = external constant [0 x i8], align 1
@.ref.tmp.194 = private constant [4 x %"struct.std::__1::pair.14"] [%"struct.std::__1::pair.14" { i64 4545578590056105756, i8* getelementptr inbounds ([0 x i8], [0 x i8]* @_ZN3ukm8builders42TabManager_Background_ForegroundedOrClosed16kIsDiscardedNameE, i32 0, i32 0) }, %"struct.std::__1::pair.14" { i64 -125219461395869573, i8* getelementptr inbounds ([0 x i8], [0 x i8]* @_ZN3ukm8builders42TabManager_Background_ForegroundedOrClosed19kIsForegroundedNameE, i32 0, i32 0) }, %"struct.std::__1::pair.14" { i64 -3868720763312504496, i8* getelementptr inbounds ([0 x i8], [0 x i8]* @_ZN3ukm8builders42TabManager_Background_ForegroundedOrClosed12kLabelIdNameE, i32 0, i32 0) }, %"struct.std::__1::pair.14" { i64 -6787122895322501544, i8* getelementptr inbounds ([0 x i8], [0 x i8]* @_ZN3ukm8builders42TabManager_Background_ForegroundedOrClosed25kTimeFromBackgroundedNameE, i32 0, i32 0) }], align 8
@_ZN3ukm8builders65TabManager_Experimental_BackgroundTabOpening_TabSwitchLoadStopped10kEntryNameE = external constant [0 x i8], align 1
@_ZN3ukm8builders65TabManager_Experimental_BackgroundTabOpening_TabSwitchLoadStopped30kBackgroundTabLoadingCountNameE = external constant [0 x i8], align 1
@_ZN3ukm8builders65TabManager_Experimental_BackgroundTabOpening_TabSwitchLoadStopped34kBackgroundTabOpeningSessionIdNameE = external constant [0 x i8], align 1
@_ZN3ukm8builders65TabManager_Experimental_BackgroundTabOpening_TabSwitchLoadStopped30kBackgroundTabPendingCountNameE = external constant [0 x i8], align 1
@_ZN3ukm8builders65TabManager_Experimental_BackgroundTabOpening_TabSwitchLoadStopped15kSequenceIdNameE = external constant [0 x i8], align 1
@_ZN3ukm8builders65TabManager_Experimental_BackgroundTabOpening_TabSwitchLoadStopped19kSystemTabCountNameE = external constant [0 x i8], align 1
@_ZN3ukm8builders65TabManager_Experimental_BackgroundTabOpening_TabSwitchLoadStopped22kTabSwitchLoadTimeNameE = external constant [0 x i8], align 1
@.ref.tmp.195 = private constant [6 x %"struct.std::__1::pair.14"] [%"struct.std::__1::pair.14" { i64 8108652028127565967, i8* getelementptr inbounds ([0 x i8], [0 x i8]* @_ZN3ukm8builders65TabManager_Experimental_BackgroundTabOpening_TabSwitchLoadStopped30kBackgroundTabLoadingCountNameE, i32 0, i32 0) }, %"struct.std::__1::pair.14" { i64 -188419394807404897, i8* getelementptr inbounds ([0 x i8], [0 x i8]* @_ZN3ukm8builders65TabManager_Experimental_BackgroundTabOpening_TabSwitchLoadStopped34kBackgroundTabOpeningSessionIdNameE, i32 0, i32 0) }, %"struct.std::__1::pair.14" { i64 -2063724228472312672, i8* getelementptr inbounds ([0 x i8], [0 x i8]* @_ZN3ukm8builders65TabManager_Experimental_BackgroundTabOpening_TabSwitchLoadStopped30kBackgroundTabPendingCountNameE, i32 0, i32 0) }, %"struct.std::__1::pair.14" { i64 8860601784949375835, i8* getelementptr inbounds ([0 x i8], [0 x i8]* @_ZN3ukm8builders65TabManager_Experimental_BackgroundTabOpening_TabSwitchLoadStopped15kSequenceIdNameE, i32 0, i32 0) }, %"struct.std::__1::pair.14" { i64 -4241583469482821843, i8* getelementptr inbounds ([0 x i8], [0 x i8]* @_ZN3ukm8builders65TabManager_Experimental_BackgroundTabOpening_TabSwitchLoadStopped19kSystemTabCountNameE, i32 0, i32 0) }, %"struct.std::__1::pair.14" { i64 -7946652684718699003, i8* getelementptr inbounds ([0 x i8], [0 x i8]* @_ZN3ukm8builders65TabManager_Experimental_BackgroundTabOpening_TabSwitchLoadStopped22kTabSwitchLoadTimeNameE, i32 0, i32 0) }], align 8
@_ZN3ukm8builders61TabManager_Experimental_SessionRestore_ForegroundTab_PageLoad10kEntryNameE = external constant [0 x i8], align 1
@_ZN3ukm8builders61TabManager_Experimental_SessionRestore_ForegroundTab_PageLoad27kSessionRestoreTabCountNameE = external constant [0 x i8], align 1
@_ZN3ukm8builders61TabManager_Experimental_SessionRestore_ForegroundTab_PageLoad19kSystemTabCountNameE = external constant [0 x i8], align 1
@.ref.tmp.196 = private constant [2 x %"struct.std::__1::pair.14"] [%"struct.std::__1::pair.14" { i64 -495877389873963038, i8* getelementptr inbounds ([0 x i8], [0 x i8]* @_ZN3ukm8builders61TabManager_Experimental_SessionRestore_ForegroundTab_PageLoad27kSessionRestoreTabCountNameE, i32 0, i32 0) }, %"struct.std::__1::pair.14" { i64 -4241583469482821843, i8* getelementptr inbounds ([0 x i8], [0 x i8]* @_ZN3ukm8builders61TabManager_Experimental_SessionRestore_ForegroundTab_PageLoad19kSystemTabCountNameE, i32 0, i32 0) }], align 8
@_ZN3ukm8builders59TabManager_Experimental_SessionRestore_TabSwitchLoadStopped10kEntryNameE = external constant [0 x i8], align 1
@_ZN3ukm8builders59TabManager_Experimental_SessionRestore_TabSwitchLoadStopped15kSequenceIdNameE = external constant [0 x i8], align 1
@_ZN3ukm8builders59TabManager_Experimental_SessionRestore_TabSwitchLoadStopped28kSessionRestoreSessionIdNameE = external constant [0 x i8], align 1
@_ZN3ukm8builders59TabManager_Experimental_SessionRestore_TabSwitchLoadStopped27kSessionRestoreTabCountNameE = external constant [0 x i8], align 1
@_ZN3ukm8builders59TabManager_Experimental_SessionRestore_TabSwitchLoadStopped19kSystemTabCountNameE = external constant [0 x i8], align 1
@_ZN3ukm8builders59TabManager_Experimental_SessionRestore_TabSwitchLoadStopped22kTabSwitchLoadTimeNameE = external constant [0 x i8], align 1
@.ref.tmp.197 = private constant [5 x %"struct.std::__1::pair.14"] [%"struct.std::__1::pair.14" { i64 8860601784949375835, i8* getelementptr inbounds ([0 x i8], [0 x i8]* @_ZN3ukm8builders59TabManager_Experimental_SessionRestore_TabSwitchLoadStopped15kSequenceIdNameE, i32 0, i32 0) }, %"struct.std::__1::pair.14" { i64 -3321539533477587530, i8* getelementptr inbounds ([0 x i8], [0 x i8]* @_ZN3ukm8builders59TabManager_Experimental_SessionRestore_TabSwitchLoadStopped28kSessionRestoreSessionIdNameE, i32 0, i32 0) }, %"struct.std::__1::pair.14" { i64 -495877389873963038, i8* getelementptr inbounds ([0 x i8], [0 x i8]* @_ZN3ukm8builders59TabManager_Experimental_SessionRestore_TabSwitchLoadStopped27kSessionRestoreTabCountNameE, i32 0, i32 0) }, %"struct.std::__1::pair.14" { i64 -4241583469482821843, i8* getelementptr inbounds ([0 x i8], [0 x i8]* @_ZN3ukm8builders59TabManager_Experimental_SessionRestore_TabSwitchLoadStopped19kSystemTabCountNameE, i32 0, i32 0) }, %"struct.std::__1::pair.14" { i64 -7946652684718699003, i8* getelementptr inbounds ([0 x i8], [0 x i8]* @_ZN3ukm8builders59TabManager_Experimental_SessionRestore_TabSwitchLoadStopped22kTabSwitchLoadTimeNameE, i32 0, i32 0) }], align 8
@_ZN3ukm8builders31TabManager_LifecycleStateChange10kEntryNameE = external constant [0 x i8], align 1
@_ZN3ukm8builders31TabManager_LifecycleStateChange30kFailureGlobalDisallowlistNameE = external constant [0 x i8], align 1
@_ZN3ukm8builders31TabManager_LifecycleStateChange26kFailureHeuristicAudioNameE = external constant [0 x i8], align 1
@_ZN3ukm8builders31TabManager_LifecycleStateChange28kFailureHeuristicFaviconNameE = external constant [0 x i8], align 1
@_ZN3ukm8builders31TabManager_LifecycleStateChange44kFailureHeuristicInsufficientObservationNameE = external constant [0 x i8], align 1
@_ZN3ukm8builders31TabManager_LifecycleStateChange34kFailureHeuristicNotificationsNameE = external constant [0 x i8], align 1
@_ZN3ukm8builders31TabManager_LifecycleStateChange26kFailureHeuristicTitleNameE = external constant [0 x i8], align 1
@_ZN3ukm8builders31TabManager_LifecycleStateChange44kFailureLifecyclesEnterprisePolicyOptOutNameE = external constant [0 x i8], align 1
@_ZN3ukm8builders31TabManager_LifecycleStateChange30kFailureLiveStateCapturingNameE = external constant [0 x i8], align 1
@_ZN3ukm8builders31TabManager_LifecycleStateChange35kFailureLiveStateDesktopCaptureNameE = external constant [0 x i8], align 1
@_ZN3ukm8builders31TabManager_LifecycleStateChange33kFailureLiveStateDevToolsOpenNameE = external constant [0 x i8], align 1
@_ZN3ukm8builders31TabManager_LifecycleStateChange40kFailureLiveStateExtensionDisallowedNameE = external constant [0 x i8], align 1
@_ZN3ukm8builders31TabManager_LifecycleStateChange30kFailureLiveStateFormEntryNameE = external constant [0 x i8], align 1
@_ZN3ukm8builders31TabManager_LifecycleStateChange47kFailureLiveStateHasNotificationsPermissionNameE = external constant [0 x i8], align 1
@_ZN3ukm8builders31TabManager_LifecycleStateChange26kFailureLiveStateIsPDFNameE = external constant [0 x i8], align 1
@_ZN3ukm8builders31TabManager_LifecycleStateChange30kFailureLiveStateMirroringNameE = external constant [0 x i8], align 1
@_ZN3ukm8builders31TabManager_LifecycleStateChange33kFailureLiveStatePlayingAudioNameE = external constant [0 x i8], align 1
@_ZN3ukm8builders31TabManager_LifecycleStateChange44kFailureLiveStateSharingBrowsingInstanceNameE = external constant [0 x i8], align 1
@_ZN3ukm8builders31TabManager_LifecycleStateChange35kFailureLiveStateUsingBluetoothNameE = external constant [0 x i8], align 1
@_ZN3ukm8builders31TabManager_LifecycleStateChange39kFailureLiveStateUsingIndexedDBLockNameE = external constant [0 x i8], align 1
@_ZN3ukm8builders31TabManager_LifecycleStateChange33kFailureLiveStateUsingWebLockNameE = external constant [0 x i8], align 1
@_ZN3ukm8builders31TabManager_LifecycleStateChange36kFailureLiveStateUsingWebSocketsNameE = external constant [0 x i8], align 1
@_ZN3ukm8builders31TabManager_LifecycleStateChange32kFailureLiveStateUsingWebUSBNameE = external constant [0 x i8], align 1
@_ZN3ukm8builders31TabManager_LifecycleStateChange28kFailureLiveStateVisibleNameE = external constant [0 x i8], align 1
@_ZN3ukm8builders31TabManager_LifecycleStateChange22kFailureLiveWebAppNameE = external constant [0 x i8], align 1
@_ZN3ukm8builders31TabManager_LifecycleStateChange29kFailureOriginTrialOptOutNameE = external constant [0 x i8], align 1
@_ZN3ukm8builders31TabManager_LifecycleStateChange30kFailureOriginTrialUnknownNameE = external constant [0 x i8], align 1
@_ZN3ukm8builders31TabManager_LifecycleStateChange31kLifecycleStateChangeReasonNameE = external constant [0 x i8], align 1
@_ZN3ukm8builders31TabManager_LifecycleStateChange22kNewLifecycleStateNameE = external constant [0 x i8], align 1
@_ZN3ukm8builders31TabManager_LifecycleStateChange22kOldLifecycleStateNameE = external constant [0 x i8], align 1
@_ZN3ukm8builders31TabManager_LifecycleStateChange12kOutcomeNameE = external constant [0 x i8], align 1
@_ZN3ukm8builders31TabManager_LifecycleStateChange27kSuccessGlobalAllowlistNameE = external constant [0 x i8], align 1
@_ZN3ukm8builders31TabManager_LifecycleStateChange21kSuccessHeuristicNameE = external constant [0 x i8], align 1
@_ZN3ukm8builders31TabManager_LifecycleStateChange28kSuccessOriginTrialOptInNameE = external constant [0 x i8], align 1
@_ZN3ukm8builders31TabManager_LifecycleStateChange26kTimeSinceNavigationMsNameE = external constant [0 x i8], align 1
@_ZN3ukm8builders31TabManager_LifecycleStateChange37kTimeSinceVisibilityStateChangeMsNameE = external constant [0 x i8], align 1
@_ZN3ukm8builders31TabManager_LifecycleStateChange21kTransitionForcedNameE = external constant [0 x i8], align 1
@_ZN3ukm8builders31TabManager_LifecycleStateChange20kVisibilityStateNameE = external constant [0 x i8], align 1
@.ref.tmp.198 = private constant [37 x %"struct.std::__1::pair.14"] [%"struct.std::__1::pair.14" { i64 5136762638734763087, i8* getelementptr inbounds ([0 x i8], [0 x i8]* @_ZN3ukm8builders31TabManager_LifecycleStateChange30kFailureGlobalDisallowlistNameE, i32 0, i32 0) }, %"struct.std::__1::pair.14" { i64 -5456284868203036998, i8* getelementptr inbounds ([0 x i8], [0 x i8]* @_ZN3ukm8builders31TabManager_LifecycleStateChange26kFailureHeuristicAudioNameE, i32 0, i32 0) }, %"struct.std::__1::pair.14" { i64 6690922114157445648, i8* getelementptr inbounds ([0 x i8], [0 x i8]* @_ZN3ukm8builders31TabManager_LifecycleStateChange28kFailureHeuristicFaviconNameE, i32 0, i32 0) }, %"struct.std::__1::pair.14" { i64 9049974075249313421, i8* getelementptr inbounds ([0 x i8], [0 x i8]* @_ZN3ukm8builders31TabManager_LifecycleStateChange44kFailureHeuristicInsufficientObservationNameE, i32 0, i32 0) }, %"struct.std::__1::pair.14" { i64 -1059009741239009964, i8* getelementptr inbounds ([0 x i8], [0 x i8]* @_ZN3ukm8builders31TabManager_LifecycleStateChange34kFailureHeuristicNotificationsNameE, i32 0, i32 0) }, %"struct.std::__1::pair.14" { i64 233030549471232823, i8* getelementptr inbounds ([0 x i8], [0 x i8]* @_ZN3ukm8builders31TabManager_LifecycleStateChange26kFailureHeuristicTitleNameE, i32 0, i32 0) }, %"struct.std::__1::pair.14" { i64 1568209932272358843, i8* getelementptr inbounds ([0 x i8], [0 x i8]* @_ZN3ukm8builders31TabManager_LifecycleStateChange44kFailureLifecyclesEnterprisePolicyOptOutNameE, i32 0, i32 0) }, %"struct.std::__1::pair.14" { i64 1746761367355389825, i8* getelementptr inbounds ([0 x i8], [0 x i8]* @_ZN3ukm8builders31TabManager_LifecycleStateChange30kFailureLiveStateCapturingNameE, i32 0, i32 0) }, %"struct.std::__1::pair.14" { i64 -6609804600069859625, i8* getelementptr inbounds ([0 x i8], [0 x i8]* @_ZN3ukm8builders31TabManager_LifecycleStateChange35kFailureLiveStateDesktopCaptureNameE, i32 0, i32 0) }, %"struct.std::__1::pair.14" { i64 -5625027097118745094, i8* getelementptr inbounds ([0 x i8], [0 x i8]* @_ZN3ukm8builders31TabManager_LifecycleStateChange33kFailureLiveStateDevToolsOpenNameE, i32 0, i32 0) }, %"struct.std::__1::pair.14" { i64 -3533140751006703057, i8* getelementptr inbounds ([0 x i8], [0 x i8]* @_ZN3ukm8builders31TabManager_LifecycleStateChange40kFailureLiveStateExtensionDisallowedNameE, i32 0, i32 0) }, %"struct.std::__1::pair.14" { i64 2603883520869794602, i8* getelementptr inbounds ([0 x i8], [0 x i8]* @_ZN3ukm8builders31TabManager_LifecycleStateChange30kFailureLiveStateFormEntryNameE, i32 0, i32 0) }, %"struct.std::__1::pair.14" { i64 702525710594214990, i8* getelementptr inbounds ([0 x i8], [0 x i8]* @_ZN3ukm8builders31TabManager_LifecycleStateChange47kFailureLiveStateHasNotificationsPermissionNameE, i32 0, i32 0) }, %"struct.std::__1::pair.14" { i64 -5389712115947392400, i8* getelementptr inbounds ([0 x i8], [0 x i8]* @_ZN3ukm8builders31TabManager_LifecycleStateChange26kFailureLiveStateIsPDFNameE, i32 0, i32 0) }, %"struct.std::__1::pair.14" { i64 -6354680859005332023, i8* getelementptr inbounds ([0 x i8], [0 x i8]* @_ZN3ukm8builders31TabManager_LifecycleStateChange30kFailureLiveStateMirroringNameE, i32 0, i32 0) }, %"struct.std::__1::pair.14" { i64 -8013470557305169998, i8* getelementptr inbounds ([0 x i8], [0 x i8]* @_ZN3ukm8builders31TabManager_LifecycleStateChange33kFailureLiveStatePlayingAudioNameE, i32 0, i32 0) }, %"struct.std::__1::pair.14" { i64 -4729968109502935616, i8* getelementptr inbounds ([0 x i8], [0 x i8]* @_ZN3ukm8builders31TabManager_LifecycleStateChange44kFailureLiveStateSharingBrowsingInstanceNameE, i32 0, i32 0) }, %"struct.std::__1::pair.14" { i64 -1710996541542111953, i8* getelementptr inbounds ([0 x i8], [0 x i8]* @_ZN3ukm8builders31TabManager_LifecycleStateChange35kFailureLiveStateUsingBluetoothNameE, i32 0, i32 0) }, %"struct.std::__1::pair.14" { i64 4740449931443625670, i8* getelementptr inbounds ([0 x i8], [0 x i8]* @_ZN3ukm8builders31TabManager_LifecycleStateChange39kFailureLiveStateUsingIndexedDBLockNameE, i32 0, i32 0) }, %"struct.std::__1::pair.14" { i64 -6863490090708511621, i8* getelementptr inbounds ([0 x i8], [0 x i8]* @_ZN3ukm8builders31TabManager_LifecycleStateChange33kFailureLiveStateUsingWebLockNameE, i32 0, i32 0) }, %"struct.std::__1::pair.14" { i64 -8667130633195643046, i8* getelementptr inbounds ([0 x i8], [0 x i8]* @_ZN3ukm8builders31TabManager_LifecycleStateChange36kFailureLiveStateUsingWebSocketsNameE, i32 0, i32 0) }, %"struct.std::__1::pair.14" { i64 1264204074714928849, i8* getelementptr inbounds ([0 x i8], [0 x i8]* @_ZN3ukm8builders31TabManager_LifecycleStateChange32kFailureLiveStateUsingWebUSBNameE, i32 0, i32 0) }, %"struct.std::__1::pair.14" { i64 -650123038381920709, i8* getelementptr inbounds ([0 x i8], [0 x i8]* @_ZN3ukm8builders31TabManager_LifecycleStateChange28kFailureLiveStateVisibleNameE, i32 0, i32 0) }, %"struct.std::__1::pair.14" { i64 -474601240101960466, i8* getelementptr inbounds ([0 x i8], [0 x i8]* @_ZN3ukm8builders31TabManager_LifecycleStateChange22kFailureLiveWebAppNameE, i32 0, i32 0) }, %"struct.std::__1::pair.14" { i64 3117221559354080435, i8* getelementptr inbounds ([0 x i8], [0 x i8]* @_ZN3ukm8builders31TabManager_LifecycleStateChange29kFailureOriginTrialOptOutNameE, i32 0, i32 0) }, %"struct.std::__1::pair.14" { i64 7785929326711993984, i8* getelementptr inbounds ([0 x i8], [0 x i8]* @_ZN3ukm8builders31TabManager_LifecycleStateChange30kFailureOriginTrialUnknownNameE, i32 0, i32 0) }, %"struct.std::__1::pair.14" { i64 6890089423438918274, i8* getelementptr inbounds ([0 x i8], [0 x i8]* @_ZN3ukm8builders31TabManager_LifecycleStateChange31kLifecycleStateChangeReasonNameE, i32 0, i32 0) }, %"struct.std::__1::pair.14" { i64 -5962316227172267786, i8* getelementptr inbounds ([0 x i8], [0 x i8]* @_ZN3ukm8builders31TabManager_LifecycleStateChange22kNewLifecycleStateNameE, i32 0, i32 0) }, %"struct.std::__1::pair.14" { i64 981152026490365644, i8* getelementptr inbounds ([0 x i8], [0 x i8]* @_ZN3ukm8builders31TabManager_LifecycleStateChange22kOldLifecycleStateNameE, i32 0, i32 0) }, %"struct.std::__1::pair.14" { i64 -3498244298818792109, i8* getelementptr inbounds ([0 x i8], [0 x i8]* @_ZN3ukm8builders31TabManager_LifecycleStateChange12kOutcomeNameE, i32 0, i32 0) }, %"struct.std::__1::pair.14" { i64 -7964841588679674571, i8* getelementptr inbounds ([0 x i8], [0 x i8]* @_ZN3ukm8builders31TabManager_LifecycleStateChange27kSuccessGlobalAllowlistNameE, i32 0, i32 0) }, %"struct.std::__1::pair.14" { i64 7282383856026303779, i8* getelementptr inbounds ([0 x i8], [0 x i8]* @_ZN3ukm8builders31TabManager_LifecycleStateChange21kSuccessHeuristicNameE, i32 0, i32 0) }, %"struct.std::__1::pair.14" { i64 -1951403953770906582, i8* getelementptr inbounds ([0 x i8], [0 x i8]* @_ZN3ukm8builders31TabManager_LifecycleStateChange28kSuccessOriginTrialOptInNameE, i32 0, i32 0) }, %"struct.std::__1::pair.14" { i64 3766804751933420871, i8* getelementptr inbounds ([0 x i8], [0 x i8]* @_ZN3ukm8builders31TabManager_LifecycleStateChange26kTimeSinceNavigationMsNameE, i32 0, i32 0) }, %"struct.std::__1::pair.14" { i64 -334850394943544096, i8* getelementptr inbounds ([0 x i8], [0 x i8]* @_ZN3ukm8builders31TabManager_LifecycleStateChange37kTimeSinceVisibilityStateChangeMsNameE, i32 0, i32 0) }, %"struct.std::__1::pair.14" { i64 -321101791642622904, i8* getelementptr inbounds ([0 x i8], [0 x i8]* @_ZN3ukm8builders31TabManager_LifecycleStateChange21kTransitionForcedNameE, i32 0, i32 0) }, %"struct.std::__1::pair.14" { i64 -3955759615295386307, i8* getelementptr inbounds ([0 x i8], [0 x i8]* @_ZN3ukm8builders31TabManager_LifecycleStateChange20kVisibilityStateNameE, i32 0, i32 0) }], align 8
@_ZN3ukm8builders72TabManager_SessionRestore_ForegroundTab_ExpectedTaskQueueingDurationInfo10kEntryNameE = external constant [0 x i8], align 1
@_ZN3ukm8builders72TabManager_SessionRestore_ForegroundTab_ExpectedTaskQueueingDurationInfo33kExpectedTaskQueueingDurationNameE = external constant [0 x i8], align 1
@_ZN3ukm8builders72TabManager_SessionRestore_ForegroundTab_ExpectedTaskQueueingDurationInfo15kSequenceIdNameE = external constant [0 x i8], align 1
@_ZN3ukm8builders72TabManager_SessionRestore_ForegroundTab_ExpectedTaskQueueingDurationInfo28kSessionRestoreSessionIdNameE = external constant [0 x i8], align 1
@_ZN3ukm8builders72TabManager_SessionRestore_ForegroundTab_ExpectedTaskQueueingDurationInfo27kSessionRestoreTabCountNameE = external constant [0 x i8], align 1
@_ZN3ukm8builders72TabManager_SessionRestore_ForegroundTab_ExpectedTaskQueueingDurationInfo19kSystemTabCountNameE = external constant [0 x i8], align 1
@.ref.tmp.199 = private constant [5 x %"struct.std::__1::pair.14"] [%"struct.std::__1::pair.14" { i64 -941470924055541264, i8* getelementptr inbounds ([0 x i8], [0 x i8]* @_ZN3ukm8builders72TabManager_SessionRestore_ForegroundTab_ExpectedTaskQueueingDurationInfo33kExpectedTaskQueueingDurationNameE, i32 0, i32 0) }, %"struct.std::__1::pair.14" { i64 8860601784949375835, i8* getelementptr inbounds ([0 x i8], [0 x i8]* @_ZN3ukm8builders72TabManager_SessionRestore_ForegroundTab_ExpectedTaskQueueingDurationInfo15kSequenceIdNameE, i32 0, i32 0) }, %"struct.std::__1::pair.14" { i64 -3321539533477587530, i8* getelementptr inbounds ([0 x i8], [0 x i8]* @_ZN3ukm8builders72TabManager_SessionRestore_ForegroundTab_ExpectedTaskQueueingDurationInfo28kSessionRestoreSessionIdNameE, i32 0, i32 0) }, %"struct.std::__1::pair.14" { i64 -495877389873963038, i8* getelementptr inbounds ([0 x i8], [0 x i8]* @_ZN3ukm8builders72TabManager_SessionRestore_ForegroundTab_ExpectedTaskQueueingDurationInfo27kSessionRestoreTabCountNameE, i32 0, i32 0) }, %"struct.std::__1::pair.14" { i64 -4241583469482821843, i8* getelementptr inbounds ([0 x i8], [0 x i8]* @_ZN3ukm8builders72TabManager_SessionRestore_ForegroundTab_ExpectedTaskQueueingDurationInfo19kSystemTabCountNameE, i32 0, i32 0) }], align 8
@_ZN3ukm8builders22TabManager_TabLifetime10kEntryNameE = external constant [0 x i8], align 1
@_ZN3ukm8builders22TabManager_TabLifetime24kTimeSinceNavigationNameE = external constant [0 x i8], align 1
@.ref.tmp.200 = private constant [1 x %"struct.std::__1::pair.14"] [%"struct.std::__1::pair.14" { i64 -247316574470928697, i8* getelementptr inbounds ([0 x i8], [0 x i8]* @_ZN3ukm8builders22TabManager_TabLifetime24kTimeSinceNavigationNameE, i32 0, i32 0) }], align 8
@_ZN3ukm8builders21TabManager_TabMetrics10kEntryNameE = external constant [0 x i8], align 1
@_ZN3ukm8builders21TabManager_TabMetrics16kContentTypeNameE = external constant [0 x i8], align 1
@_ZN3ukm8builders21TabManager_TabMetrics27kDefaultProtocolHandlerNameE = external constant [0 x i8], align 1
@_ZN3ukm8builders21TabManager_TabMetrics27kHasBeforeUnloadHandlerNameE = external constant [0 x i8], align 1
@_ZN3ukm8builders21TabManager_TabMetrics17kHasFormEntryNameE = external constant [0 x i8], align 1
@_ZN3ukm8builders21TabManager_TabMetrics25kIsExtensionProtectedNameE = external constant [0 x i8], align 1
@_ZN3ukm8builders21TabManager_TabMetrics13kIsPinnedNameE = external constant [0 x i8], align 1
@_ZN3ukm8builders21TabManager_TabMetrics18kKeyEventCountNameE = external constant [0 x i8], align 1
@_ZN3ukm8builders21TabManager_TabMetrics12kLabelIdNameE = external constant [0 x i8], align 1
@_ZN3ukm8builders21TabManager_TabMetrics20kMouseEventCountNameE = external constant [0 x i8], align 1
@_ZN3ukm8builders21TabManager_TabMetrics13kMRUIndexNameE = external constant [0 x i8], align 1
@_ZN3ukm8builders21TabManager_TabMetrics25kNavigationEntryCountNameE = external constant [0 x i8], align 1
@_ZN3ukm8builders21TabManager_TabMetrics26kNumReactivationBeforeNameE = external constant [0 x i8], align 1
@_ZN3ukm8builders21TabManager_TabMetrics27kPageTransitionCoreTypeNameE = external constant [0 x i8], align 1
@_ZN3ukm8builders21TabManager_TabMetrics33kPageTransitionFromAddressBarNameE = external constant [0 x i8], align 1
@_ZN3ukm8builders21TabManager_TabMetrics29kPageTransitionIsRedirectNameE = external constant [0 x i8], align 1
@_ZN3ukm8builders21TabManager_TabMetrics12kQueryIdNameE = external constant [0 x i8], align 1
@_ZN3ukm8builders21TabManager_TabMetrics24kSiteEngagementScoreNameE = external constant [0 x i8], align 1
@_ZN3ukm8builders21TabManager_TabMetrics25kTimeFromBackgroundedNameE = external constant [0 x i8], align 1
@_ZN3ukm8builders21TabManager_TabMetrics18kTotalTabCountNameE = external constant [0 x i8], align 1
@_ZN3ukm8builders21TabManager_TabMetrics20kTouchEventCountNameE = external constant [0 x i8], align 1
@_ZN3ukm8builders21TabManager_TabMetrics23kWasRecentlyAudibleNameE = external constant [0 x i8], align 1
@_ZN3ukm8builders21TabManager_TabMetrics19kWindowIsActiveNameE = external constant [0 x i8], align 1
@_ZN3ukm8builders21TabManager_TabMetrics20kWindowShowStateNameE = external constant [0 x i8], align 1
@_ZN3ukm8builders21TabManager_TabMetrics19kWindowTabCountNameE = external constant [0 x i8], align 1
@_ZN3ukm8builders21TabManager_TabMetrics15kWindowTypeNameE = external constant [0 x i8], align 1
@.ref.tmp.201 = private constant [25 x %"struct.std::__1::pair.14"] [%"struct.std::__1::pair.14" { i64 -5181516889534401231, i8* getelementptr inbounds ([0 x i8], [0 x i8]* @_ZN3ukm8builders21TabManager_TabMetrics16kContentTypeNameE, i32 0, i32 0) }, %"struct.std::__1::pair.14" { i64 -8825326942224272425, i8* getelementptr inbounds ([0 x i8], [0 x i8]* @_ZN3ukm8builders21TabManager_TabMetrics27kDefaultProtocolHandlerNameE, i32 0, i32 0) }, %"struct.std::__1::pair.14" { i64 8451320907412850621, i8* getelementptr inbounds ([0 x i8], [0 x i8]* @_ZN3ukm8builders21TabManager_TabMetrics27kHasBeforeUnloadHandlerNameE, i32 0, i32 0) }, %"struct.std::__1::pair.14" { i64 5531671421920391819, i8* getelementptr inbounds ([0 x i8], [0 x i8]* @_ZN3ukm8builders21TabManager_TabMetrics17kHasFormEntryNameE, i32 0, i32 0) }, %"struct.std::__1::pair.14" { i64 672646190625971503, i8* getelementptr inbounds ([0 x i8], [0 x i8]* @_ZN3ukm8builders21TabManager_TabMetrics25kIsExtensionProtectedNameE, i32 0, i32 0) }, %"struct.std::__1::pair.14" { i64 -110849218543658971, i8* getelementptr inbounds ([0 x i8], [0 x i8]* @_ZN3ukm8builders21TabManager_TabMetrics13kIsPinnedNameE, i32 0, i32 0) }, %"struct.std::__1::pair.14" { i64 4163051610151272998, i8* getelementptr inbounds ([0 x i8], [0 x i8]* @_ZN3ukm8builders21TabManager_TabMetrics18kKeyEventCountNameE, i32 0, i32 0) }, %"struct.std::__1::pair.14" { i64 -3868720763312504496, i8* getelementptr inbounds ([0 x i8], [0 x i8]* @_ZN3ukm8builders21TabManager_TabMetrics12kLabelIdNameE, i32 0, i32 0) }, %"struct.std::__1::pair.14" { i64 309543994040533082, i8* getelementptr inbounds ([0 x i8], [0 x i8]* @_ZN3ukm8builders21TabManager_TabMetrics20kMouseEventCountNameE, i32 0, i32 0) }, %"struct.std::__1::pair.14" { i64 383823483369014150, i8* getelementptr inbounds ([0 x i8], [0 x i8]* @_ZN3ukm8builders21TabManager_TabMetrics13kMRUIndexNameE, i32 0, i32 0) }, %"struct.std::__1::pair.14" { i64 551192753498951443, i8* getelementptr inbounds ([0 x i8], [0 x i8]* @_ZN3ukm8builders21TabManager_TabMetrics25kNavigationEntryCountNameE, i32 0, i32 0) }, %"struct.std::__1::pair.14" { i64 -5940715293896222383, i8* getelementptr inbounds ([0 x i8], [0 x i8]* @_ZN3ukm8builders21TabManager_TabMetrics26kNumReactivationBeforeNameE, i32 0, i32 0) }, %"struct.std::__1::pair.14" { i64 8252723677936572940, i8* getelementptr inbounds ([0 x i8], [0 x i8]* @_ZN3ukm8builders21TabManager_TabMetrics27kPageTransitionCoreTypeNameE, i32 0, i32 0) }, %"struct.std::__1::pair.14" { i64 622306465519288550, i8* getelementptr inbounds ([0 x i8], [0 x i8]* @_ZN3ukm8builders21TabManager_TabMetrics33kPageTransitionFromAddressBarNameE, i32 0, i32 0) }, %"struct.std::__1::pair.14" { i64 385608697209044372, i8* getelementptr inbounds ([0 x i8], [0 x i8]* @_ZN3ukm8builders21TabManager_TabMetrics29kPageTransitionIsRedirectNameE, i32 0, i32 0) }, %"struct.std::__1::pair.14" { i64 3424853290585620796, i8* getelementptr inbounds ([0 x i8], [0 x i8]* @_ZN3ukm8builders21TabManager_TabMetrics12kQueryIdNameE, i32 0, i32 0) }, %"struct.std::__1::pair.14" { i64 325008584515519231, i8* getelementptr inbounds ([0 x i8], [0 x i8]* @_ZN3ukm8builders21TabManager_TabMetrics24kSiteEngagementScoreNameE, i32 0, i32 0) }, %"struct.std::__1::pair.14" { i64 -6787122895322501544, i8* getelementptr inbounds ([0 x i8], [0 x i8]* @_ZN3ukm8builders21TabManager_TabMetrics25kTimeFromBackgroundedNameE, i32 0, i32 0) }, %"struct.std::__1::pair.14" { i64 -5145562040653195161, i8* getelementptr inbounds ([0 x i8], [0 x i8]* @_ZN3ukm8builders21TabManager_TabMetrics18kTotalTabCountNameE, i32 0, i32 0) }, %"struct.std::__1::pair.14" { i64 -2503553896043721370, i8* getelementptr inbounds ([0 x i8], [0 x i8]* @_ZN3ukm8builders21TabManager_TabMetrics20kTouchEventCountNameE, i32 0, i32 0) }, %"struct.std::__1::pair.14" { i64 8155633754967058330, i8* getelementptr inbounds ([0 x i8], [0 x i8]* @_ZN3ukm8builders21TabManager_TabMetrics23kWasRecentlyAudibleNameE, i32 0, i32 0) }, %"struct.std::__1::pair.14" { i64 2416652406969853074, i8* getelementptr inbounds ([0 x i8], [0 x i8]* @_ZN3ukm8builders21TabManager_TabMetrics19kWindowIsActiveNameE, i32 0, i32 0) }, %"struct.std::__1::pair.14" { i64 -4914783523001335628, i8* getelementptr inbounds ([0 x i8], [0 x i8]* @_ZN3ukm8builders21TabManager_TabMetrics20kWindowShowStateNameE, i32 0, i32 0) }, %"struct.std::__1::pair.14" { i64 -409198533803533581, i8* getelementptr inbounds ([0 x i8], [0 x i8]* @_ZN3ukm8builders21TabManager_TabMetrics19kWindowTabCountNameE, i32 0, i32 0) }, %"struct.std::__1::pair.14" { i64 78651398005697984, i8* getelementptr inbounds ([0 x i8], [0 x i8]* @_ZN3ukm8builders21TabManager_TabMetrics15kWindowTypeNameE, i32 0, i32 0) }], align 8
@_ZN3ukm8builders24TabManager_WindowMetrics10kEntryNameE = external constant [0 x i8], align 1
@_ZN3ukm8builders24TabManager_WindowMetrics13kIsActiveNameE = external constant [0 x i8], align 1
@_ZN3ukm8builders24TabManager_WindowMetrics14kShowStateNameE = external constant [0 x i8], align 1
@_ZN3ukm8builders24TabManager_WindowMetrics13kTabCountNameE = external constant [0 x i8], align 1
@_ZN3ukm8builders24TabManager_WindowMetrics9kTypeNameE = external constant [0 x i8], align 1
@_ZN3ukm8builders24TabManager_WindowMetrics13kWindowIdNameE = external constant [0 x i8], align 1
@.ref.tmp.202 = private constant [5 x %"struct.std::__1::pair.14"] [%"struct.std::__1::pair.14" { i64 145730663672890399, i8* getelementptr inbounds ([0 x i8], [0 x i8]* @_ZN3ukm8builders24TabManager_WindowMetrics13kIsActiveNameE, i32 0, i32 0) }, %"struct.std::__1::pair.14" { i64 6352664330247173052, i8* getelementptr inbounds ([0 x i8], [0 x i8]* @_ZN3ukm8builders24TabManager_WindowMetrics14kShowStateNameE, i32 0, i32 0) }, %"struct.std::__1::pair.14" { i64 1513537862956601777, i8* getelementptr inbounds ([0 x i8], [0 x i8]* @_ZN3ukm8builders24TabManager_WindowMetrics13kTabCountNameE, i32 0, i32 0) }, %"struct.std::__1::pair.14" { i64 -6775059294917053296, i8* getelementptr inbounds ([0 x i8], [0 x i8]* @_ZN3ukm8builders24TabManager_WindowMetrics9kTypeNameE, i32 0, i32 0) }, %"struct.std::__1::pair.14" { i64 2294382318193398891, i8* getelementptr inbounds ([0 x i8], [0 x i8]* @_ZN3ukm8builders24TabManager_WindowMetrics13kWindowIdNameE, i32 0, i32 0) }], align 8
@_ZN3ukm8builders17TouchToFill_Shown10kEntryNameE = external constant [0 x i8], align 1
@_ZN3ukm8builders17TouchToFill_Shown15kUserActionNameE = external constant [0 x i8], align 1
@.ref.tmp.203 = private constant [1 x %"struct.std::__1::pair.14"] [%"struct.std::__1::pair.14" { i64 -7015036799894001729, i8* getelementptr inbounds ([0 x i8], [0 x i8]* @_ZN3ukm8builders17TouchToFill_Shown15kUserActionNameE, i32 0, i32 0) }], align 8
@_ZN3ukm8builders9Translate10kEntryNameE = external constant [0 x i8], align 1
@_ZN3ukm8builders9Translate16kAcceptCountNameE = external constant [0 x i8], align 1
@_ZN3ukm8builders9Translate12kCountryNameE = external constant [0 x i8], align 1
@_ZN3ukm8builders9Translate17kDeclineCountNameE = external constant [0 x i8], align 1
@_ZN3ukm8builders9Translate14kEventTypeNameE = external constant [0 x i8], align 1
@_ZN3ukm8builders9Translate16kIgnoreCountNameE = external constant [0 x i8], align 1
@_ZN3ukm8builders9Translate19kRankerResponseNameE = external constant [0 x i8], align 1
@_ZN3ukm8builders9Translate18kRankerVersionNameE = external constant [0 x i8], align 1
@_ZN3ukm8builders9Translate19kSourceLanguageNameE = external constant [0 x i8], align 1
@_ZN3ukm8builders9Translate19kTargetLanguageNameE = external constant [0 x i8], align 1
@.ref.tmp.204 = private constant [9 x %"struct.std::__1::pair.14"] [%"struct.std::__1::pair.14" { i64 8502235306677298033, i8* getelementptr inbounds ([0 x i8], [0 x i8]* @_ZN3ukm8builders9Translate16kAcceptCountNameE, i32 0, i32 0) }, %"struct.std::__1::pair.14" { i64 6445051938772793705, i8* getelementptr inbounds ([0 x i8], [0 x i8]* @_ZN3ukm8builders9Translate12kCountryNameE, i32 0, i32 0) }, %"struct.std::__1::pair.14" { i64 3180238090454488835, i8* getelementptr inbounds ([0 x i8], [0 x i8]* @_ZN3ukm8builders9Translate17kDeclineCountNameE, i32 0, i32 0) }, %"struct.std::__1::pair.14" { i64 5446425777535537951, i8* getelementptr inbounds ([0 x i8], [0 x i8]* @_ZN3ukm8builders9Translate14kEventTypeNameE, i32 0, i32 0) }, %"struct.std::__1::pair.14" { i64 -3550365489272450857, i8* getelementptr inbounds ([0 x i8], [0 x i8]* @_ZN3ukm8builders9Translate16kIgnoreCountNameE, i32 0, i32 0) }, %"struct.std::__1::pair.14" { i64 6404631249487430957, i8* getelementptr inbounds ([0 x i8], [0 x i8]* @_ZN3ukm8builders9Translate19kRankerResponseNameE, i32 0, i32 0) }, %"struct.std::__1::pair.14" { i64 -8232643124666878461, i8* getelementptr inbounds ([0 x i8], [0 x i8]* @_ZN3ukm8builders9Translate18kRankerVersionNameE, i32 0, i32 0) }, %"struct.std::__1::pair.14" { i64 -2888580808303957821, i8* getelementptr inbounds ([0 x i8], [0 x i8]* @_ZN3ukm8builders9Translate19kSourceLanguageNameE, i32 0, i32 0) }, %"struct.std::__1::pair.14" { i64 8387451134401416124, i8* getelementptr inbounds ([0 x i8], [0 x i8]* @_ZN3ukm8builders9Translate19kTargetLanguageNameE, i32 0, i32 0) }], align 8
@_ZN3ukm8builders17TranslatePageLoad10kEntryNameE = external constant [0 x i8], align 1
@_ZN3ukm8builders17TranslatePageLoad24kFinalSourceLanguageNameE = external constant [0 x i8], align 1
@_ZN3ukm8builders17TranslatePageLoad15kFinalStateNameE = external constant [0 x i8], align 1
@_ZN3ukm8builders17TranslatePageLoad24kFinalTargetLanguageNameE = external constant [0 x i8], align 1
@_ZN3ukm8builders17TranslatePageLoad24kFirstTranslateErrorNameE = external constant [0 x i8], align 1
@_ZN3ukm8builders17TranslatePageLoad23kFirstUIInteractionNameE = external constant [0 x i8], align 1
@_ZN3ukm8builders17TranslatePageLoad24kHTMLContentLanguageNameE = external constant [0 x i8], align 1
@_ZN3ukm8builders17TranslatePageLoad25kHTMLDocumentLanguageNameE = external constant [0 x i8], align 1
@_ZN3ukm8builders17TranslatePageLoad26kInitialSourceLanguageNameE = external constant [0 x i8], align 1
@_ZN3ukm8builders17TranslatePageLoad44kInitialSourceLanguageInContentLanguagesNameE = external constant [0 x i8], align 1
@_ZN3ukm8builders17TranslatePageLoad17kInitialStateNameE = external constant [0 x i8], align 1
@_ZN3ukm8builders17TranslatePageLoad26kInitialTargetLanguageNameE = external constant [0 x i8], align 1
@_ZN3ukm8builders17TranslatePageLoad23kMaxTimeToTranslateNameE = external constant [0 x i8], align 1
@_ZN3ukm8builders17TranslatePageLoad26kModelDetectedLanguageNameE = external constant [0 x i8], align 1
@_ZN3ukm8builders17TranslatePageLoad35kModelDetectionReliabilityScoreNameE = external constant [0 x i8], align 1
@_ZN3ukm8builders17TranslatePageLoad18kNumReversionsNameE = external constant [0 x i8], align 1
@_ZN3ukm8builders17TranslatePageLoad29kNumTargetLanguageChangesNameE = external constant [0 x i8], align 1
@_ZN3ukm8builders17TranslatePageLoad23kNumTranslateErrorsNameE = external constant [0 x i8], align 1
@_ZN3ukm8builders17TranslatePageLoad20kNumTranslationsNameE = external constant [0 x i8], align 1
@_ZN3ukm8builders17TranslatePageLoad22kNumUIInteractionsNameE = external constant [0 x i8], align 1
@_ZN3ukm8builders17TranslatePageLoad19kRankerDecisionNameE = external constant [0 x i8], align 1
@_ZN3ukm8builders17TranslatePageLoad18kRankerVersionNameE = external constant [0 x i8], align 1
@_ZN3ukm8builders17TranslatePageLoad19kSequenceNumberNameE = external constant [0 x i8], align 1
@_ZN3ukm8builders17TranslatePageLoad27kTotalTimeNotTranslatedNameE = external constant [0 x i8], align 1
@_ZN3ukm8builders17TranslatePageLoad24kTotalTimeTranslatedNameE = external constant [0 x i8], align 1
@_ZN3ukm8builders17TranslatePageLoad20kTriggerDecisionNameE = external constant [0 x i8], align 1
@_ZN3ukm8builders17TranslatePageLoad20kWasContentEmptyNameE = external constant [0 x i8], align 1
@.ref.tmp.205 = private constant [26 x %"struct.std::__1::pair.14"] [%"struct.std::__1::pair.14" { i64 4529763736522651943, i8* getelementptr inbounds ([0 x i8], [0 x i8]* @_ZN3ukm8builders17TranslatePageLoad24kFinalSourceLanguageNameE, i32 0, i32 0) }, %"struct.std::__1::pair.14" { i64 7135263041449206789, i8* getelementptr inbounds ([0 x i8], [0 x i8]* @_ZN3ukm8builders17TranslatePageLoad15kFinalStateNameE, i32 0, i32 0) }, %"struct.std::__1::pair.14" { i64 -6810825943951705785, i8* getelementptr inbounds ([0 x i8], [0 x i8]* @_ZN3ukm8builders17TranslatePageLoad24kFinalTargetLanguageNameE, i32 0, i32 0) }, %"struct.std::__1::pair.14" { i64 9217305282984928754, i8* getelementptr inbounds ([0 x i8], [0 x i8]* @_ZN3ukm8builders17TranslatePageLoad24kFirstTranslateErrorNameE, i32 0, i32 0) }, %"struct.std::__1::pair.14" { i64 5333453377518935190, i8* getelementptr inbounds ([0 x i8], [0 x i8]* @_ZN3ukm8builders17TranslatePageLoad23kFirstUIInteractionNameE, i32 0, i32 0) }, %"struct.std::__1::pair.14" { i64 8650073884862724155, i8* getelementptr inbounds ([0 x i8], [0 x i8]* @_ZN3ukm8builders17TranslatePageLoad24kHTMLContentLanguageNameE, i32 0, i32 0) }, %"struct.std::__1::pair.14" { i64 1123472852488583155, i8* getelementptr inbounds ([0 x i8], [0 x i8]* @_ZN3ukm8builders17TranslatePageLoad25kHTMLDocumentLanguageNameE, i32 0, i32 0) }, %"struct.std::__1::pair.14" { i64 1748637677338247218, i8* getelementptr inbounds ([0 x i8], [0 x i8]* @_ZN3ukm8builders17TranslatePageLoad26kInitialSourceLanguageNameE, i32 0, i32 0) }, %"struct.std::__1::pair.14" { i64 -2967748538597295896, i8* getelementptr inbounds ([0 x i8], [0 x i8]* @_ZN3ukm8builders17TranslatePageLoad44kInitialSourceLanguageInContentLanguagesNameE, i32 0, i32 0) }, %"struct.std::__1::pair.14" { i64 5039075195775411013, i8* getelementptr inbounds ([0 x i8], [0 x i8]* @_ZN3ukm8builders17TranslatePageLoad17kInitialStateNameE, i32 0, i32 0) }, %"struct.std::__1::pair.14" { i64 -8496464165330248780, i8* getelementptr inbounds ([0 x i8], [0 x i8]* @_ZN3ukm8builders17TranslatePageLoad26kInitialTargetLanguageNameE, i32 0, i32 0) }, %"struct.std::__1::pair.14" { i64 5466715943086141121, i8* getelementptr inbounds ([0 x i8], [0 x i8]* @_ZN3ukm8builders17TranslatePageLoad23kMaxTimeToTranslateNameE, i32 0, i32 0) }, %"struct.std::__1::pair.14" { i64 -7572926877876066494, i8* getelementptr inbounds ([0 x i8], [0 x i8]* @_ZN3ukm8builders17TranslatePageLoad26kModelDetectedLanguageNameE, i32 0, i32 0) }, %"struct.std::__1::pair.14" { i64 3850870539894823708, i8* getelementptr inbounds ([0 x i8], [0 x i8]* @_ZN3ukm8builders17TranslatePageLoad35kModelDetectionReliabilityScoreNameE, i32 0, i32 0) }, %"struct.std::__1::pair.14" { i64 8879971234798289294, i8* getelementptr inbounds ([0 x i8], [0 x i8]* @_ZN3ukm8builders17TranslatePageLoad18kNumReversionsNameE, i32 0, i32 0) }, %"struct.std::__1::pair.14" { i64 101486262262552452, i8* getelementptr inbounds ([0 x i8], [0 x i8]* @_ZN3ukm8builders17TranslatePageLoad29kNumTargetLanguageChangesNameE, i32 0, i32 0) }, %"struct.std::__1::pair.14" { i64 -3994040492730161334, i8* getelementptr inbounds ([0 x i8], [0 x i8]* @_ZN3ukm8builders17TranslatePageLoad23kNumTranslateErrorsNameE, i32 0, i32 0) }, %"struct.std::__1::pair.14" { i64 4361453967272288793, i8* getelementptr inbounds ([0 x i8], [0 x i8]* @_ZN3ukm8builders17TranslatePageLoad20kNumTranslationsNameE, i32 0, i32 0) }, %"struct.std::__1::pair.14" { i64 -2846499746815001378, i8* getelementptr inbounds ([0 x i8], [0 x i8]* @_ZN3ukm8builders17TranslatePageLoad22kNumUIInteractionsNameE, i32 0, i32 0) }, %"struct.std::__1::pair.14" { i64 1785216550039030435, i8* getelementptr inbounds ([0 x i8], [0 x i8]* @_ZN3ukm8builders17TranslatePageLoad19kRankerDecisionNameE, i32 0, i32 0) }, %"struct.std::__1::pair.14" { i64 -8232643124666878461, i8* getelementptr inbounds ([0 x i8], [0 x i8]* @_ZN3ukm8builders17TranslatePageLoad18kRankerVersionNameE, i32 0, i32 0) }, %"struct.std::__1::pair.14" { i64 3161886034278201905, i8* getelementptr inbounds ([0 x i8], [0 x i8]* @_ZN3ukm8builders17TranslatePageLoad19kSequenceNumberNameE, i32 0, i32 0) }, %"struct.std::__1::pair.14" { i64 -6344036638394328834, i8* getelementptr inbounds ([0 x i8], [0 x i8]* @_ZN3ukm8builders17TranslatePageLoad27kTotalTimeNotTranslatedNameE, i32 0, i32 0) }, %"struct.std::__1::pair.14" { i64 -5755321813442120405, i8* getelementptr inbounds ([0 x i8], [0 x i8]* @_ZN3ukm8builders17TranslatePageLoad24kTotalTimeTranslatedNameE, i32 0, i32 0) }, %"struct.std::__1::pair.14" { i64 -1734144451336590350, i8* getelementptr inbounds ([0 x i8], [0 x i8]* @_ZN3ukm8builders17TranslatePageLoad20kTriggerDecisionNameE, i32 0, i32 0) }, %"struct.std::__1::pair.14" { i64 -8461269781233409189, i8* getelementptr inbounds ([0 x i8], [0 x i8]* @_ZN3ukm8builders17TranslatePageLoad20kWasContentEmptyNameE, i32 0, i32 0) }], align 8
@_ZN3ukm8builders23TrustedWebActivity_Open10kEntryNameE = external constant [0 x i8], align 1
@_ZN3ukm8builders23TrustedWebActivity_Open16kHasOccurredNameE = external constant [0 x i8], align 1
@.ref.tmp.206 = private constant [1 x %"struct.std::__1::pair.14"] [%"struct.std::__1::pair.14" { i64 1401967873843414280, i8* getelementptr inbounds ([0 x i8], [0 x i8]* @_ZN3ukm8builders23TrustedWebActivity_Open16kHasOccurredNameE, i32 0, i32 0) }], align 8
@_ZN3ukm8builders46TrustedWebActivity_QualityEnforcementViolation10kEntryNameE = external constant [0 x i8], align 1
@_ZN3ukm8builders46TrustedWebActivity_QualityEnforcementViolation18kViolationTypeNameE = external constant [0 x i8], align 1
@.ref.tmp.207 = private constant [1 x %"struct.std::__1::pair.14"] [%"struct.std::__1::pair.14" { i64 -5143497678805448077, i8* getelementptr inbounds ([0 x i8], [0 x i8]* @_ZN3ukm8builders46TrustedWebActivity_QualityEnforcementViolation18kViolationTypeNameE, i32 0, i32 0) }], align 8
@_ZN3ukm8builders6Unload10kEntryNameE = external constant [0 x i8], align 1
@_ZN3ukm8builders6Unload25kBeforeUnloadDurationNameE = external constant [0 x i8], align 1
@_ZN3ukm8builders6Unload33kBeforeUnloadQueueingDurationNameE = external constant [0 x i8], align 1
@_ZN3ukm8builders6Unload38kBeforeUnloadToCommit_CrossProcessNameE = external constant [0 x i8], align 1
@_ZN3ukm8builders6Unload37kBeforeUnloadToCommit_SameProcessNameE = external constant [0 x i8], align 1
@_ZN3ukm8builders6Unload19kUnloadDurationNameE = external constant [0 x i8], align 1
@_ZN3ukm8builders6Unload27kUnloadQueueingDurationNameE = external constant [0 x i8], align 1
@.ref.tmp.208 = private constant [6 x %"struct.std::__1::pair.14"] [%"struct.std::__1::pair.14" { i64 -932665435268514916, i8* getelementptr inbounds ([0 x i8], [0 x i8]* @_ZN3ukm8builders6Unload25kBeforeUnloadDurationNameE, i32 0, i32 0) }, %"struct.std::__1::pair.14" { i64 190303907733053448, i8* getelementptr inbounds ([0 x i8], [0 x i8]* @_ZN3ukm8builders6Unload33kBeforeUnloadQueueingDurationNameE, i32 0, i32 0) }, %"struct.std::__1::pair.14" { i64 -8212083932289765625, i8* getelementptr inbounds ([0 x i8], [0 x i8]* @_ZN3ukm8builders6Unload38kBeforeUnloadToCommit_CrossProcessNameE, i32 0, i32 0) }, %"struct.std::__1::pair.14" { i64 -2754985728267658841, i8* getelementptr inbounds ([0 x i8], [0 x i8]* @_ZN3ukm8builders6Unload37kBeforeUnloadToCommit_SameProcessNameE, i32 0, i32 0) }, %"struct.std::__1::pair.14" { i64 -314804727657146941, i8* getelementptr inbounds ([0 x i8], [0 x i8]* @_ZN3ukm8builders6Unload19kUnloadDurationNameE, i32 0, i32 0) }, %"struct.std::__1::pair.14" { i64 -6989108859629255537, i8* getelementptr inbounds ([0 x i8], [0 x i8]* @_ZN3ukm8builders6Unload27kUnloadQueueingDurationNameE, i32 0, i32 0) }], align 8
@_ZN3ukm8builders12UserActivity10kEntryNameE = external constant [0 x i8], align 1
@_ZN3ukm8builders12UserActivity19kBatteryPercentNameE = external constant [0 x i8], align 1
@_ZN3ukm8builders12UserActivity21kDeviceManagementNameE = external constant [0 x i8], align 1
@_ZN3ukm8builders12UserActivity15kDeviceModeNameE = external constant [0 x i8], align 1
@_ZN3ukm8builders12UserActivity15kDeviceTypeNameE = external constant [0 x i8], align 1
@_ZN3ukm8builders12UserActivity21kEventLogDurationNameE = external constant [0 x i8], align 1
@_ZN3ukm8builders12UserActivity16kEventReasonNameE = external constant [0 x i8], align 1
@_ZN3ukm8builders12UserActivity14kEventTypeNameE = external constant [0 x i8], align 1
@_ZN3ukm8builders12UserActivity24kKeyEventsInLastHourNameE = external constant [0 x i8], align 1
@_ZN3ukm8builders12UserActivity20kLastActivityDayNameE = external constant [0 x i8], align 1
@_ZN3ukm8builders12UserActivity21kLastActivityTimeNameE = external constant [0 x i8], align 1
@_ZN3ukm8builders12UserActivity25kLastUserActivityTimeNameE = external constant [0 x i8], align 1
@_ZN3ukm8builders12UserActivity17kModelAppliedNameE = external constant [0 x i8], align 1
@_ZN3ukm8builders12UserActivity27kModelDecisionThresholdNameE = external constant [0 x i8], align 1
@_ZN3ukm8builders12UserActivity25kModelInactivityScoreNameE = external constant [0 x i8], align 1
@_ZN3ukm8builders12UserActivity18kModelResponseNameE = external constant [0 x i8], align 1
@_ZN3ukm8builders12UserActivity26kMouseEventsInLastHourNameE = external constant [0 x i8], align 1
@_ZN3ukm8builders12UserActivity14kOnBatteryNameE = external constant [0 x i8], align 1
@_ZN3ukm8builders12UserActivity33kPreviousNegativeActionsCountNameE = external constant [0 x i8], align 1
@_ZN3ukm8builders12UserActivity33kPreviousPositiveActionsCountNameE = external constant [0 x i8], align 1
@_ZN3ukm8builders12UserActivity21kRecentTimeActiveNameE = external constant [0 x i8], align 1
@_ZN3ukm8builders12UserActivity27kRecentVideoPlayingTimeNameE = external constant [0 x i8], align 1
@_ZN3ukm8builders12UserActivity19kScreenDimDelayNameE = external constant [0 x i8], align 1
@_ZN3ukm8builders12UserActivity26kScreenDimmedInitiallyNameE = external constant [0 x i8], align 1
@_ZN3ukm8builders12UserActivity22kScreenDimOccurredNameE = external constant [0 x i8], align 1
@_ZN3ukm8builders12UserActivity24kScreenDimToOffDelayNameE = external constant [0 x i8], align 1
@_ZN3ukm8builders12UserActivity26kScreenLockedInitiallyNameE = external constant [0 x i8], align 1
@_ZN3ukm8builders12UserActivity23kScreenLockOccurredNameE = external constant [0 x i8], align 1
@_ZN3ukm8builders12UserActivity23kScreenOffInitiallyNameE = external constant [0 x i8], align 1
@_ZN3ukm8builders12UserActivity22kScreenOffOccurredNameE = external constant [0 x i8], align 1
@_ZN3ukm8builders12UserActivity15kSequenceIdNameE = external constant [0 x i8], align 1
@_ZN3ukm8builders12UserActivity21kTimeSinceLastKeyNameE = external constant [0 x i8], align 1
@_ZN3ukm8builders12UserActivity23kTimeSinceLastMouseNameE = external constant [0 x i8], align 1
@_ZN3ukm8builders12UserActivity23kTimeSinceLastTouchNameE = external constant [0 x i8], align 1
@_ZN3ukm8builders12UserActivity28kTimeSinceLastVideoEndedNameE = external constant [0 x i8], align 1
@_ZN3ukm8builders12UserActivity26kTouchEventsInLastHourNameE = external constant [0 x i8], align 1
@.ref.tmp.209 = private constant [35 x %"struct.std::__1::pair.14"] [%"struct.std::__1::pair.14" { i64 3434325767059222004, i8* getelementptr inbounds ([0 x i8], [0 x i8]* @_ZN3ukm8builders12UserActivity19kBatteryPercentNameE, i32 0, i32 0) }, %"struct.std::__1::pair.14" { i64 3879735998068387644, i8* getelementptr inbounds ([0 x i8], [0 x i8]* @_ZN3ukm8builders12UserActivity21kDeviceManagementNameE, i32 0, i32 0) }, %"struct.std::__1::pair.14" { i64 -894709574419518343, i8* getelementptr inbounds ([0 x i8], [0 x i8]* @_ZN3ukm8builders12UserActivity15kDeviceModeNameE, i32 0, i32 0) }, %"struct.std::__1::pair.14" { i64 7795620498098931292, i8* getelementptr inbounds ([0 x i8], [0 x i8]* @_ZN3ukm8builders12UserActivity15kDeviceTypeNameE, i32 0, i32 0) }, %"struct.std::__1::pair.14" { i64 -9152631372893460657, i8* getelementptr inbounds ([0 x i8], [0 x i8]* @_ZN3ukm8builders12UserActivity21kEventLogDurationNameE, i32 0, i32 0) }, %"struct.std::__1::pair.14" { i64 -1610949662781088584, i8* getelementptr inbounds ([0 x i8], [0 x i8]* @_ZN3ukm8builders12UserActivity16kEventReasonNameE, i32 0, i32 0) }, %"struct.std::__1::pair.14" { i64 5446425777535537951, i8* getelementptr inbounds ([0 x i8], [0 x i8]* @_ZN3ukm8builders12UserActivity14kEventTypeNameE, i32 0, i32 0) }, %"struct.std::__1::pair.14" { i64 -7146899927490261020, i8* getelementptr inbounds ([0 x i8], [0 x i8]* @_ZN3ukm8builders12UserActivity24kKeyEventsInLastHourNameE, i32 0, i32 0) }, %"struct.std::__1::pair.14" { i64 -4107513129520650251, i8* getelementptr inbounds ([0 x i8], [0 x i8]* @_ZN3ukm8builders12UserActivity20kLastActivityDayNameE, i32 0, i32 0) }, %"struct.std::__1::pair.14" { i64 -3615633550396770854, i8* getelementptr inbounds ([0 x i8], [0 x i8]* @_ZN3ukm8builders12UserActivity21kLastActivityTimeNameE, i32 0, i32 0) }, %"struct.std::__1::pair.14" { i64 8788245832941149939, i8* getelementptr inbounds ([0 x i8], [0 x i8]* @_ZN3ukm8builders12UserActivity25kLastUserActivityTimeNameE, i32 0, i32 0) }, %"struct.std::__1::pair.14" { i64 6801141381231795082, i8* getelementptr inbounds ([0 x i8], [0 x i8]* @_ZN3ukm8builders12UserActivity17kModelAppliedNameE, i32 0, i32 0) }, %"struct.std::__1::pair.14" { i64 -1831190864109130789, i8* getelementptr inbounds ([0 x i8], [0 x i8]* @_ZN3ukm8builders12UserActivity27kModelDecisionThresholdNameE, i32 0, i32 0) }, %"struct.std::__1::pair.14" { i64 1730033542070367675, i8* getelementptr inbounds ([0 x i8], [0 x i8]* @_ZN3ukm8builders12UserActivity25kModelInactivityScoreNameE, i32 0, i32 0) }, %"struct.std::__1::pair.14" { i64 972970836639660541, i8* getelementptr inbounds ([0 x i8], [0 x i8]* @_ZN3ukm8builders12UserActivity18kModelResponseNameE, i32 0, i32 0) }, %"struct.std::__1::pair.14" { i64 -6611701407129689777, i8* getelementptr inbounds ([0 x i8], [0 x i8]* @_ZN3ukm8builders12UserActivity26kMouseEventsInLastHourNameE, i32 0, i32 0) }, %"struct.std::__1::pair.14" { i64 -8948800231793397181, i8* getelementptr inbounds ([0 x i8], [0 x i8]* @_ZN3ukm8builders12UserActivity14kOnBatteryNameE, i32 0, i32 0) }, %"struct.std::__1::pair.14" { i64 -611879941661620435, i8* getelementptr inbounds ([0 x i8], [0 x i8]* @_ZN3ukm8builders12UserActivity33kPreviousNegativeActionsCountNameE, i32 0, i32 0) }, %"struct.std::__1::pair.14" { i64 6191193929978136769, i8* getelementptr inbounds ([0 x i8], [0 x i8]* @_ZN3ukm8builders12UserActivity33kPreviousPositiveActionsCountNameE, i32 0, i32 0) }, %"struct.std::__1::pair.14" { i64 -4299119076276809095, i8* getelementptr inbounds ([0 x i8], [0 x i8]* @_ZN3ukm8builders12UserActivity21kRecentTimeActiveNameE, i32 0, i32 0) }, %"struct.std::__1::pair.14" { i64 -5066177310276787187, i8* getelementptr inbounds ([0 x i8], [0 x i8]* @_ZN3ukm8builders12UserActivity27kRecentVideoPlayingTimeNameE, i32 0, i32 0) }, %"struct.std::__1::pair.14" { i64 -1613416351351443157, i8* getelementptr inbounds ([0 x i8], [0 x i8]* @_ZN3ukm8builders12UserActivity19kScreenDimDelayNameE, i32 0, i32 0) }, %"struct.std::__1::pair.14" { i64 -8267652167235679488, i8* getelementptr inbounds ([0 x i8], [0 x i8]* @_ZN3ukm8builders12UserActivity26kScreenDimmedInitiallyNameE, i32 0, i32 0) }, %"struct.std::__1::pair.14" { i64 -8664790864589686176, i8* getelementptr inbounds ([0 x i8], [0 x i8]* @_ZN3ukm8builders12UserActivity22kScreenDimOccurredNameE, i32 0, i32 0) }, %"struct.std::__1::pair.14" { i64 6534684685018748413, i8* getelementptr inbounds ([0 x i8], [0 x i8]* @_ZN3ukm8builders12UserActivity24kScreenDimToOffDelayNameE, i32 0, i32 0) }, %"struct.std::__1::pair.14" { i64 -1344785767323969884, i8* getelementptr inbounds ([0 x i8], [0 x i8]* @_ZN3ukm8builders12UserActivity26kScreenLockedInitiallyNameE, i32 0, i32 0) }, %"struct.std::__1::pair.14" { i64 -2819073346018525562, i8* getelementptr inbounds ([0 x i8], [0 x i8]* @_ZN3ukm8builders12UserActivity23kScreenLockOccurredNameE, i32 0, i32 0) }, %"struct.std::__1::pair.14" { i64 7660996110440871532, i8* getelementptr inbounds ([0 x i8], [0 x i8]* @_ZN3ukm8builders12UserActivity23kScreenOffInitiallyNameE, i32 0, i32 0) }, %"struct.std::__1::pair.14" { i64 2742307602633466727, i8* getelementptr inbounds ([0 x i8], [0 x i8]* @_ZN3ukm8builders12UserActivity22kScreenOffOccurredNameE, i32 0, i32 0) }, %"struct.std::__1::pair.14" { i64 8860601784949375835, i8* getelementptr inbounds ([0 x i8], [0 x i8]* @_ZN3ukm8builders12UserActivity15kSequenceIdNameE, i32 0, i32 0) }, %"struct.std::__1::pair.14" { i64 -5122498187331452194, i8* getelementptr inbounds ([0 x i8], [0 x i8]* @_ZN3ukm8builders12UserActivity21kTimeSinceLastKeyNameE, i32 0, i32 0) }, %"struct.std::__1::pair.14" { i64 -1113999516607376612, i8* getelementptr inbounds ([0 x i8], [0 x i8]* @_ZN3ukm8builders12UserActivity23kTimeSinceLastMouseNameE, i32 0, i32 0) }, %"struct.std::__1::pair.14" { i64 -4363902025920203050, i8* getelementptr inbounds ([0 x i8], [0 x i8]* @_ZN3ukm8builders12UserActivity23kTimeSinceLastTouchNameE, i32 0, i32 0) }, %"struct.std::__1::pair.14" { i64 -7689061172616763265, i8* getelementptr inbounds ([0 x i8], [0 x i8]* @_ZN3ukm8builders12UserActivity28kTimeSinceLastVideoEndedNameE, i32 0, i32 0) }, %"struct.std::__1::pair.14" { i64 -8396872088753568691, i8* getelementptr inbounds ([0 x i8], [0 x i8]* @_ZN3ukm8builders12UserActivity26kTouchEventsInLastHourNameE, i32 0, i32 0) }], align 8
@_ZN3ukm8builders14UserActivityId10kEntryNameE = external constant [0 x i8], align 1
@_ZN3ukm8builders14UserActivityId15kActivityIdNameE = external constant [0 x i8], align 1
@_ZN3ukm8builders14UserActivityId16kContentTypeNameE = external constant [0 x i8], align 1
@_ZN3ukm8builders14UserActivityId17kHasFormEntryNameE = external constant [0 x i8], align 1
@_ZN3ukm8builders14UserActivityId13kIsActiveNameE = external constant [0 x i8], align 1
@_ZN3ukm8builders14UserActivityId21kIsBrowserFocusedNameE = external constant [0 x i8], align 1
@_ZN3ukm8builders14UserActivityId21kIsBrowserVisibleNameE = external constant [0 x i8], align 1
@_ZN3ukm8builders14UserActivityId21kIsTopmostBrowserNameE = external constant [0 x i8], align 1
@_ZN3ukm8builders14UserActivityId24kSiteEngagementScoreNameE = external constant [0 x i8], align 1
@.ref.tmp.210 = private constant [8 x %"struct.std::__1::pair.14"] [%"struct.std::__1::pair.14" { i64 -6706143178074836671, i8* getelementptr inbounds ([0 x i8], [0 x i8]* @_ZN3ukm8builders14UserActivityId15kActivityIdNameE, i32 0, i32 0) }, %"struct.std::__1::pair.14" { i64 -5181516889534401231, i8* getelementptr inbounds ([0 x i8], [0 x i8]* @_ZN3ukm8builders14UserActivityId16kContentTypeNameE, i32 0, i32 0) }, %"struct.std::__1::pair.14" { i64 5531671421920391819, i8* getelementptr inbounds ([0 x i8], [0 x i8]* @_ZN3ukm8builders14UserActivityId17kHasFormEntryNameE, i32 0, i32 0) }, %"struct.std::__1::pair.14" { i64 145730663672890399, i8* getelementptr inbounds ([0 x i8], [0 x i8]* @_ZN3ukm8builders14UserActivityId13kIsActiveNameE, i32 0, i32 0) }, %"struct.std::__1::pair.14" { i64 -8005891444912997740, i8* getelementptr inbounds ([0 x i8], [0 x i8]* @_ZN3ukm8builders14UserActivityId21kIsBrowserFocusedNameE, i32 0, i32 0) }, %"struct.std::__1::pair.14" { i64 3688875443071437947, i8* getelementptr inbounds ([0 x i8], [0 x i8]* @_ZN3ukm8builders14UserActivityId21kIsBrowserVisibleNameE, i32 0, i32 0) }, %"struct.std::__1::pair.14" { i64 1520583382931955160, i8* getelementptr inbounds ([0 x i8], [0 x i8]* @_ZN3ukm8builders14UserActivityId21kIsTopmostBrowserNameE, i32 0, i32 0) }, %"struct.std::__1::pair.14" { i64 325008584515519231, i8* getelementptr inbounds ([0 x i8], [0 x i8]* @_ZN3ukm8builders14UserActivityId24kSiteEngagementScoreNameE, i32 0, i32 0) }], align 8
@_ZN3ukm8builders17UserSettingsEvent10kEntryNameE = external constant [0 x i8], align 1
@_ZN3ukm8builders17UserSettingsEvent20kAccessibilityIdNameE = external constant [0 x i8], align 1
@_ZN3ukm8builders17UserSettingsEvent22kBatteryPercentageNameE = external constant [0 x i8], align 1
@_ZN3ukm8builders17UserSettingsEvent12kCountryNameE = external constant [0 x i8], align 1
@_ZN3ukm8builders17UserSettingsEvent17kCurrentValueNameE = external constant [0 x i8], align 1
@_ZN3ukm8builders17UserSettingsEvent14kDayOfWeekNameE = external constant [0 x i8], align 1
@_ZN3ukm8builders17UserSettingsEvent15kDeviceModeNameE = external constant [0 x i8], align 1
@_ZN3ukm8builders17UserSettingsEvent22kDeviceOrientationNameE = external constant [0 x i8], align 1
@_ZN3ukm8builders17UserSettingsEvent12kEventIdNameE = external constant [0 x i8], align 1
@_ZN3ukm8builders17UserSettingsEvent26kHasNightLightScheduleNameE = external constant [0 x i8], align 1
@_ZN3ukm8builders17UserSettingsEvent20kHasWifiSecurityNameE = external constant [0 x i8], align 1
@_ZN3ukm8builders17UserSettingsEvent14kHourOfDayNameE = external constant [0 x i8], align 1
@_ZN3ukm8builders17UserSettingsEvent18kIsAfterSunsetNameE = external constant [0 x i8], align 1
@_ZN3ukm8builders17UserSettingsEvent15kIsChargingNameE = external constant [0 x i8], align 1
@_ZN3ukm8builders17UserSettingsEvent17kIsFromSearchNameE = external constant [0 x i8], align 1
@_ZN3ukm8builders17UserSettingsEvent28kIsPairedBluetoothDeviceNameE = external constant [0 x i8], align 1
@_ZN3ukm8builders17UserSettingsEvent19kIsPlayingAudioNameE = external constant [0 x i8], align 1
@_ZN3ukm8builders17UserSettingsEvent19kIsPlayingVideoNameE = external constant [0 x i8], align 1
@_ZN3ukm8builders17UserSettingsEvent25kIsRecentlyFullscreenNameE = external constant [0 x i8], align 1
@_ZN3ukm8builders17UserSettingsEvent25kIsRecentlyPresentingNameE = external constant [0 x i8], align 1
@_ZN3ukm8builders17UserSettingsEvent18kNetworkStatusNameE = external constant [0 x i8], align 1
@_ZN3ukm8builders17UserSettingsEvent18kPreviousValueNameE = external constant [0 x i8], align 1
@_ZN3ukm8builders17UserSettingsEvent14kSettingIdNameE = external constant [0 x i8], align 1
@_ZN3ukm8builders17UserSettingsEvent16kSettingTypeNameE = external constant [0 x i8], align 1
@_ZN3ukm8builders17UserSettingsEvent19kSignalStrengthNameE = external constant [0 x i8], align 1
@_ZN3ukm8builders17UserSettingsEvent32kTimeSinceLastSettingsChangeNameE = external constant [0 x i8], align 1
@_ZN3ukm8builders17UserSettingsEvent26kUsedCellularInSessionNameE = external constant [0 x i8], align 1
@.ref.tmp.211 = private constant [26 x %"struct.std::__1::pair.14"] [%"struct.std::__1::pair.14" { i64 6951746995541001113, i8* getelementptr inbounds ([0 x i8], [0 x i8]* @_ZN3ukm8builders17UserSettingsEvent20kAccessibilityIdNameE, i32 0, i32 0) }, %"struct.std::__1::pair.14" { i64 -3927620845405473518, i8* getelementptr inbounds ([0 x i8], [0 x i8]* @_ZN3ukm8builders17UserSettingsEvent22kBatteryPercentageNameE, i32 0, i32 0) }, %"struct.std::__1::pair.14" { i64 6445051938772793705, i8* getelementptr inbounds ([0 x i8], [0 x i8]* @_ZN3ukm8builders17UserSettingsEvent12kCountryNameE, i32 0, i32 0) }, %"struct.std::__1::pair.14" { i64 4480604349707933716, i8* getelementptr inbounds ([0 x i8], [0 x i8]* @_ZN3ukm8builders17UserSettingsEvent17kCurrentValueNameE, i32 0, i32 0) }, %"struct.std::__1::pair.14" { i64 -2834735534568602335, i8* getelementptr inbounds ([0 x i8], [0 x i8]* @_ZN3ukm8builders17UserSettingsEvent14kDayOfWeekNameE, i32 0, i32 0) }, %"struct.std::__1::pair.14" { i64 -894709574419518343, i8* getelementptr inbounds ([0 x i8], [0 x i8]* @_ZN3ukm8builders17UserSettingsEvent15kDeviceModeNameE, i32 0, i32 0) }, %"struct.std::__1::pair.14" { i64 8736270914758222171, i8* getelementptr inbounds ([0 x i8], [0 x i8]* @_ZN3ukm8builders17UserSettingsEvent22kDeviceOrientationNameE, i32 0, i32 0) }, %"struct.std::__1::pair.14" { i64 8388046208606800177, i8* getelementptr inbounds ([0 x i8], [0 x i8]* @_ZN3ukm8builders17UserSettingsEvent12kEventIdNameE, i32 0, i32 0) }, %"struct.std::__1::pair.14" { i64 -3861428387638553158, i8* getelementptr inbounds ([0 x i8], [0 x i8]* @_ZN3ukm8builders17UserSettingsEvent26kHasNightLightScheduleNameE, i32 0, i32 0) }, %"struct.std::__1::pair.14" { i64 5721107002478202463, i8* getelementptr inbounds ([0 x i8], [0 x i8]* @_ZN3ukm8builders17UserSettingsEvent20kHasWifiSecurityNameE, i32 0, i32 0) }, %"struct.std::__1::pair.14" { i64 7458652416968136217, i8* getelementptr inbounds ([0 x i8], [0 x i8]* @_ZN3ukm8builders17UserSettingsEvent14kHourOfDayNameE, i32 0, i32 0) }, %"struct.std::__1::pair.14" { i64 -6838195241137655728, i8* getelementptr inbounds ([0 x i8], [0 x i8]* @_ZN3ukm8builders17UserSettingsEvent18kIsAfterSunsetNameE, i32 0, i32 0) }, %"struct.std::__1::pair.14" { i64 7785451285210820804, i8* getelementptr inbounds ([0 x i8], [0 x i8]* @_ZN3ukm8builders17UserSettingsEvent15kIsChargingNameE, i32 0, i32 0) }, %"struct.std::__1::pair.14" { i64 -3242638572046407596, i8* getelementptr inbounds ([0 x i8], [0 x i8]* @_ZN3ukm8builders17UserSettingsEvent17kIsFromSearchNameE, i32 0, i32 0) }, %"struct.std::__1::pair.14" { i64 5002254055864357224, i8* getelementptr inbounds ([0 x i8], [0 x i8]* @_ZN3ukm8builders17UserSettingsEvent28kIsPairedBluetoothDeviceNameE, i32 0, i32 0) }, %"struct.std::__1::pair.14" { i64 -3729213595751454307, i8* getelementptr inbounds ([0 x i8], [0 x i8]* @_ZN3ukm8builders17UserSettingsEvent19kIsPlayingAudioNameE, i32 0, i32 0) }, %"struct.std::__1::pair.14" { i64 -7346788311530480641, i8* getelementptr inbounds ([0 x i8], [0 x i8]* @_ZN3ukm8builders17UserSettingsEvent19kIsPlayingVideoNameE, i32 0, i32 0) }, %"struct.std::__1::pair.14" { i64 1799217089626394865, i8* getelementptr inbounds ([0 x i8], [0 x i8]* @_ZN3ukm8builders17UserSettingsEvent25kIsRecentlyFullscreenNameE, i32 0, i32 0) }, %"struct.std::__1::pair.14" { i64 -3908200003082494797, i8* getelementptr inbounds ([0 x i8], [0 x i8]* @_ZN3ukm8builders17UserSettingsEvent25kIsRecentlyPresentingNameE, i32 0, i32 0) }, %"struct.std::__1::pair.14" { i64 1438764637082620773, i8* getelementptr inbounds ([0 x i8], [0 x i8]* @_ZN3ukm8builders17UserSettingsEvent18kNetworkStatusNameE, i32 0, i32 0) }, %"struct.std::__1::pair.14" { i64 -5760861385774977436, i8* getelementptr inbounds ([0 x i8], [0 x i8]* @_ZN3ukm8builders17UserSettingsEvent18kPreviousValueNameE, i32 0, i32 0) }, %"struct.std::__1::pair.14" { i64 8375811908993639483, i8* getelementptr inbounds ([0 x i8], [0 x i8]* @_ZN3ukm8builders17UserSettingsEvent14kSettingIdNameE, i32 0, i32 0) }, %"struct.std::__1::pair.14" { i64 211450250705861929, i8* getelementptr inbounds ([0 x i8], [0 x i8]* @_ZN3ukm8builders17UserSettingsEvent16kSettingTypeNameE, i32 0, i32 0) }, %"struct.std::__1::pair.14" { i64 -3066949432142947268, i8* getelementptr inbounds ([0 x i8], [0 x i8]* @_ZN3ukm8builders17UserSettingsEvent19kSignalStrengthNameE, i32 0, i32 0) }, %"struct.std::__1::pair.14" { i64 3738478733604276330, i8* getelementptr inbounds ([0 x i8], [0 x i8]* @_ZN3ukm8builders17UserSettingsEvent32kTimeSinceLastSettingsChangeNameE, i32 0, i32 0) }, %"struct.std::__1::pair.14" { i64 -118288600102866250, i8* getelementptr inbounds ([0 x i8], [0 x i8]* @_ZN3ukm8builders17UserSettingsEvent26kUsedCellularInSessionNameE, i32 0, i32 0) }], align 8
@_ZN3ukm8builders22V8_Wasm_ModuleCompiled10kEntryNameE = external constant [0 x i8], align 1
@_ZN3ukm8builders22V8_Wasm_ModuleCompiled10kAsyncNameE = external constant [0 x i8], align 1
@_ZN3ukm8builders22V8_Wasm_ModuleCompiled11kCachedNameE = external constant [0 x i8], align 1
@_ZN3ukm8builders22V8_Wasm_ModuleCompiled13kCodeSizeNameE = external constant [0 x i8], align 1
@_ZN3ukm8builders22V8_Wasm_ModuleCompiled17kDeserializedNameE = external constant [0 x i8], align 1
@_ZN3ukm8builders22V8_Wasm_ModuleCompiled9kLazyNameE = external constant [0 x i8], align 1
@_ZN3ukm8builders22V8_Wasm_ModuleCompiled24kLiftoffBailoutCountNameE = external constant [0 x i8], align 1
@_ZN3ukm8builders22V8_Wasm_ModuleCompiled13kStreamedNameE = external constant [0 x i8], align 1
@_ZN3ukm8builders22V8_Wasm_ModuleCompiled12kSuccessNameE = external constant [0 x i8], align 1
@_ZN3ukm8builders22V8_Wasm_ModuleCompiled22kWallClockDurationNameE = external constant [0 x i8], align 1
@.ref.tmp.212 = private constant [9 x %"struct.std::__1::pair.14"] [%"struct.std::__1::pair.14" { i64 2641995702112535574, i8* getelementptr inbounds ([0 x i8], [0 x i8]* @_ZN3ukm8builders22V8_Wasm_ModuleCompiled10kAsyncNameE, i32 0, i32 0) }, %"struct.std::__1::pair.14" { i64 453717775238895883, i8* getelementptr inbounds ([0 x i8], [0 x i8]* @_ZN3ukm8builders22V8_Wasm_ModuleCompiled11kCachedNameE, i32 0, i32 0) }, %"struct.std::__1::pair.14" { i64 4489507447692387463, i8* getelementptr inbounds ([0 x i8], [0 x i8]* @_ZN3ukm8builders22V8_Wasm_ModuleCompiled13kCodeSizeNameE, i32 0, i32 0) }, %"struct.std::__1::pair.14" { i64 7672164651631470075, i8* getelementptr inbounds ([0 x i8], [0 x i8]* @_ZN3ukm8builders22V8_Wasm_ModuleCompiled17kDeserializedNameE, i32 0, i32 0) }, %"struct.std::__1::pair.14" { i64 5091860181698051066, i8* getelementptr inbounds ([0 x i8], [0 x i8]* @_ZN3ukm8builders22V8_Wasm_ModuleCompiled9kLazyNameE, i32 0, i32 0) }, %"struct.std::__1::pair.14" { i64 5722648529541372646, i8* getelementptr inbounds ([0 x i8], [0 x i8]* @_ZN3ukm8builders22V8_Wasm_ModuleCompiled24kLiftoffBailoutCountNameE, i32 0, i32 0) }, %"struct.std::__1::pair.14" { i64 -4826824380048136696, i8* getelementptr inbounds ([0 x i8], [0 x i8]* @_ZN3ukm8builders22V8_Wasm_ModuleCompiled13kStreamedNameE, i32 0, i32 0) }, %"struct.std::__1::pair.14" { i64 5790085346892983794, i8* getelementptr inbounds ([0 x i8], [0 x i8]* @_ZN3ukm8builders22V8_Wasm_ModuleCompiled12kSuccessNameE, i32 0, i32 0) }, %"struct.std::__1::pair.14" { i64 5109936066037177312, i8* getelementptr inbounds ([0 x i8], [0 x i8]* @_ZN3ukm8builders22V8_Wasm_ModuleCompiled22kWallClockDurationNameE, i32 0, i32 0) }], align 8
@_ZN3ukm8builders21V8_Wasm_ModuleDecoded10kEntryNameE = external constant [0 x i8], align 1
@_ZN3ukm8builders21V8_Wasm_ModuleDecoded18kFunctionCountNameE = external constant [0 x i8], align 1
@_ZN3ukm8builders21V8_Wasm_ModuleDecoded15kModuleSizeNameE = external constant [0 x i8], align 1
@_ZN3ukm8builders21V8_Wasm_ModuleDecoded13kStreamedNameE = external constant [0 x i8], align 1
@_ZN3ukm8builders21V8_Wasm_ModuleDecoded12kSuccessNameE = external constant [0 x i8], align 1
@_ZN3ukm8builders21V8_Wasm_ModuleDecoded22kWallClockDurationNameE = external constant [0 x i8], align 1
@.ref.tmp.213 = private constant [5 x %"struct.std::__1::pair.14"] [%"struct.std::__1::pair.14" { i64 6741819159474344408, i8* getelementptr inbounds ([0 x i8], [0 x i8]* @_ZN3ukm8builders21V8_Wasm_ModuleDecoded18kFunctionCountNameE, i32 0, i32 0) }, %"struct.std::__1::pair.14" { i64 6750517084540206915, i8* getelementptr inbounds ([0 x i8], [0 x i8]* @_ZN3ukm8builders21V8_Wasm_ModuleDecoded15kModuleSizeNameE, i32 0, i32 0) }, %"struct.std::__1::pair.14" { i64 -4826824380048136696, i8* getelementptr inbounds ([0 x i8], [0 x i8]* @_ZN3ukm8builders21V8_Wasm_ModuleDecoded13kStreamedNameE, i32 0, i32 0) }, %"struct.std::__1::pair.14" { i64 5790085346892983794, i8* getelementptr inbounds ([0 x i8], [0 x i8]* @_ZN3ukm8builders21V8_Wasm_ModuleDecoded12kSuccessNameE, i32 0, i32 0) }, %"struct.std::__1::pair.14" { i64 5109936066037177312, i8* getelementptr inbounds ([0 x i8], [0 x i8]* @_ZN3ukm8builders21V8_Wasm_ModuleDecoded22kWallClockDurationNameE, i32 0, i32 0) }], align 8
@_ZN3ukm8builders26V8_Wasm_ModuleInstantiated10kEntryNameE = external constant [0 x i8], align 1
@_ZN3ukm8builders26V8_Wasm_ModuleInstantiated26kImportedFunctionCountNameE = external constant [0 x i8], align 1
@_ZN3ukm8builders26V8_Wasm_ModuleInstantiated12kSuccessNameE = external constant [0 x i8], align 1
@_ZN3ukm8builders26V8_Wasm_ModuleInstantiated22kWallClockDurationNameE = external constant [0 x i8], align 1
@.ref.tmp.214 = private constant [3 x %"struct.std::__1::pair.14"] [%"struct.std::__1::pair.14" { i64 5003274284110280271, i8* getelementptr inbounds ([0 x i8], [0 x i8]* @_ZN3ukm8builders26V8_Wasm_ModuleInstantiated26kImportedFunctionCountNameE, i32 0, i32 0) }, %"struct.std::__1::pair.14" { i64 5790085346892983794, i8* getelementptr inbounds ([0 x i8], [0 x i8]* @_ZN3ukm8builders26V8_Wasm_ModuleInstantiated12kSuccessNameE, i32 0, i32 0) }, %"struct.std::__1::pair.14" { i64 5109936066037177312, i8* getelementptr inbounds ([0 x i8], [0 x i8]* @_ZN3ukm8builders26V8_Wasm_ModuleInstantiated22kWallClockDurationNameE, i32 0, i32 0) }], align 8
@_ZN3ukm8builders22V8_Wasm_ModuleTieredUp10kEntryNameE = external constant [0 x i8], align 1
@_ZN3ukm8builders22V8_Wasm_ModuleTieredUp13kCodeSizeNameE = external constant [0 x i8], align 1
@_ZN3ukm8builders22V8_Wasm_ModuleTieredUp9kLazyNameE = external constant [0 x i8], align 1
@_ZN3ukm8builders22V8_Wasm_ModuleTieredUp22kWallClockDurationNameE = external constant [0 x i8], align 1
@.ref.tmp.215 = private constant [3 x %"struct.std::__1::pair.14"] [%"struct.std::__1::pair.14" { i64 4489507447692387463, i8* getelementptr inbounds ([0 x i8], [0 x i8]* @_ZN3ukm8builders22V8_Wasm_ModuleTieredUp13kCodeSizeNameE, i32 0, i32 0) }, %"struct.std::__1::pair.14" { i64 5091860181698051066, i8* getelementptr inbounds ([0 x i8], [0 x i8]* @_ZN3ukm8builders22V8_Wasm_ModuleTieredUp9kLazyNameE, i32 0, i32 0) }, %"struct.std::__1::pair.14" { i64 5109936066037177312, i8* getelementptr inbounds ([0 x i8], [0 x i8]* @_ZN3ukm8builders22V8_Wasm_ModuleTieredUp22kWallClockDurationNameE, i32 0, i32 0) }], align 8
@_ZN3ukm8builders20VirtualKeyboard_Open10kEntryNameE = external constant [0 x i8], align 1
@_ZN3ukm8builders20VirtualKeyboard_Open18kTextInputTypeNameE = external constant [0 x i8], align 1
@.ref.tmp.216 = private constant [1 x %"struct.std::__1::pair.14"] [%"struct.std::__1::pair.14" { i64 6049523454185107552, i8* getelementptr inbounds ([0 x i8], [0 x i8]* @_ZN3ukm8builders20VirtualKeyboard_Open18kTextInputTypeNameE, i32 0, i32 0) }], align 8
@_ZN3ukm8builders14WebAPK_Install10kEntryNameE = external constant [0 x i8], align 1
@_ZN3ukm8builders14WebAPK_Install15kAppVersionNameE = external constant [0 x i8], align 1
@_ZN3ukm8builders14WebAPK_Install16kDistributorNameE = external constant [0 x i8], align 1
@_ZN3ukm8builders14WebAPK_Install12kInstallNameE = external constant [0 x i8], align 1
@.ref.tmp.217 = private constant [3 x %"struct.std::__1::pair.14"] [%"struct.std::__1::pair.14" { i64 333571752519763750, i8* getelementptr inbounds ([0 x i8], [0 x i8]* @_ZN3ukm8builders14WebAPK_Install15kAppVersionNameE, i32 0, i32 0) }, %"struct.std::__1::pair.14" { i64 8247396947590737646, i8* getelementptr inbounds ([0 x i8], [0 x i8]* @_ZN3ukm8builders14WebAPK_Install16kDistributorNameE, i32 0, i32 0) }, %"struct.std::__1::pair.14" { i64 3789841737615482174, i8* getelementptr inbounds ([0 x i8], [0 x i8]* @_ZN3ukm8builders14WebAPK_Install12kInstallNameE, i32 0, i32 0) }], align 8
@_ZN3ukm8builders17WebAPK_SessionEnd10kEntryNameE = external constant [0 x i8], align 1
@_ZN3ukm8builders17WebAPK_SessionEnd15kAppVersionNameE = external constant [0 x i8], align 1
@_ZN3ukm8builders17WebAPK_SessionEnd16kDistributorNameE = external constant [0 x i8], align 1
@_ZN3ukm8builders17WebAPK_SessionEnd20kSessionDurationNameE = external constant [0 x i8], align 1
@.ref.tmp.218 = private constant [3 x %"struct.std::__1::pair.14"] [%"struct.std::__1::pair.14" { i64 333571752519763750, i8* getelementptr inbounds ([0 x i8], [0 x i8]* @_ZN3ukm8builders17WebAPK_SessionEnd15kAppVersionNameE, i32 0, i32 0) }, %"struct.std::__1::pair.14" { i64 8247396947590737646, i8* getelementptr inbounds ([0 x i8], [0 x i8]* @_ZN3ukm8builders17WebAPK_SessionEnd16kDistributorNameE, i32 0, i32 0) }, %"struct.std::__1::pair.14" { i64 2701974374748336509, i8* getelementptr inbounds ([0 x i8], [0 x i8]* @_ZN3ukm8builders17WebAPK_SessionEnd20kSessionDurationNameE, i32 0, i32 0) }], align 8
@_ZN3ukm8builders16WebAPK_Uninstall10kEntryNameE = external constant [0 x i8], align 1
@_ZN3ukm8builders16WebAPK_Uninstall15kAppVersionNameE = external constant [0 x i8], align 1
@_ZN3ukm8builders16WebAPK_Uninstall16kDistributorNameE = external constant [0 x i8], align 1
@_ZN3ukm8builders16WebAPK_Uninstall22kInstalledDurationNameE = external constant [0 x i8], align 1
@_ZN3ukm8builders16WebAPK_Uninstall21kLifetimeLaunchesNameE = external constant [0 x i8], align 1
@_ZN3ukm8builders16WebAPK_Uninstall14kUninstallNameE = external constant [0 x i8], align 1
@.ref.tmp.219 = private constant [5 x %"struct.std::__1::pair.14"] [%"struct.std::__1::pair.14" { i64 333571752519763750, i8* getelementptr inbounds ([0 x i8], [0 x i8]* @_ZN3ukm8builders16WebAPK_Uninstall15kAppVersionNameE, i32 0, i32 0) }, %"struct.std::__1::pair.14" { i64 8247396947590737646, i8* getelementptr inbounds ([0 x i8], [0 x i8]* @_ZN3ukm8builders16WebAPK_Uninstall16kDistributorNameE, i32 0, i32 0) }, %"struct.std::__1::pair.14" { i64 8139225208300052851, i8* getelementptr inbounds ([0 x i8], [0 x i8]* @_ZN3ukm8builders16WebAPK_Uninstall22kInstalledDurationNameE, i32 0, i32 0) }, %"struct.std::__1::pair.14" { i64 -4146511062520343057, i8* getelementptr inbounds ([0 x i8], [0 x i8]* @_ZN3ukm8builders16WebAPK_Uninstall21kLifetimeLaunchesNameE, i32 0, i32 0) }, %"struct.std::__1::pair.14" { i64 -6737949680025886561, i8* getelementptr inbounds ([0 x i8], [0 x i8]* @_ZN3ukm8builders16WebAPK_Uninstall14kUninstallNameE, i32 0, i32 0) }], align 8
@_ZN3ukm8builders12WebAPK_Visit10kEntryNameE = external constant [0 x i8], align 1
@_ZN3ukm8builders12WebAPK_Visit15kAppVersionNameE = external constant [0 x i8], align 1
@_ZN3ukm8builders12WebAPK_Visit16kDistributorNameE = external constant [0 x i8], align 1
@_ZN3ukm8builders12WebAPK_Visit11kLaunchNameE = external constant [0 x i8], align 1
@_ZN3ukm8builders12WebAPK_Visit17kLaunchSourceNameE = external constant [0 x i8], align 1
@.ref.tmp.220 = private constant [4 x %"struct.std::__1::pair.14"] [%"struct.std::__1::pair.14" { i64 333571752519763750, i8* getelementptr inbounds ([0 x i8], [0 x i8]* @_ZN3ukm8builders12WebAPK_Visit15kAppVersionNameE, i32 0, i32 0) }, %"struct.std::__1::pair.14" { i64 8247396947590737646, i8* getelementptr inbounds ([0 x i8], [0 x i8]* @_ZN3ukm8builders12WebAPK_Visit16kDistributorNameE, i32 0, i32 0) }, %"struct.std::__1::pair.14" { i64 -7708208742520644857, i8* getelementptr inbounds ([0 x i8], [0 x i8]* @_ZN3ukm8builders12WebAPK_Visit11kLaunchNameE, i32 0, i32 0) }, %"struct.std::__1::pair.14" { i64 5360095524695749322, i8* getelementptr inbounds ([0 x i8], [0 x i8]* @_ZN3ukm8builders12WebAPK_Visit17kLaunchSourceNameE, i32 0, i32 0) }], align 8
@_ZN3ukm8builders23WebApp_DailyInteraction10kEntryNameE = external constant [0 x i8], align 1
@_ZN3ukm8builders23WebApp_DailyInteraction23kBackgroundDurationNameE = external constant [0 x i8], align 1
@_ZN3ukm8builders23WebApp_DailyInteraction16kDisplayModeNameE = external constant [0 x i8], align 1
@_ZN3ukm8builders23WebApp_DailyInteraction23kForegroundDurationNameE = external constant [0 x i8], align 1
@_ZN3ukm8builders23WebApp_DailyInteraction14kInstalledNameE = external constant [0 x i8], align 1
@_ZN3ukm8builders23WebApp_DailyInteraction18kInstallSourceNameE = external constant [0 x i8], align 1
@_ZN3ukm8builders23WebApp_DailyInteraction16kNumSessionsNameE = external constant [0 x i8], align 1
@_ZN3ukm8builders23WebApp_DailyInteraction15kPromotableNameE = external constant [0 x i8], align 1
@_ZN3ukm8builders23WebApp_DailyInteraction9kUsedNameE = external constant [0 x i8], align 1
@.ref.tmp.221 = private constant [8 x %"struct.std::__1::pair.14"] [%"struct.std::__1::pair.14" { i64 -6453105112588297328, i8* getelementptr inbounds ([0 x i8], [0 x i8]* @_ZN3ukm8builders23WebApp_DailyInteraction23kBackgroundDurationNameE, i32 0, i32 0) }, %"struct.std::__1::pair.14" { i64 -5865468307369902891, i8* getelementptr inbounds ([0 x i8], [0 x i8]* @_ZN3ukm8builders23WebApp_DailyInteraction16kDisplayModeNameE, i32 0, i32 0) }, %"struct.std::__1::pair.14" { i64 -4406250453856452704, i8* getelementptr inbounds ([0 x i8], [0 x i8]* @_ZN3ukm8builders23WebApp_DailyInteraction23kForegroundDurationNameE, i32 0, i32 0) }, %"struct.std::__1::pair.14" { i64 -7431709182115073765, i8* getelementptr inbounds ([0 x i8], [0 x i8]* @_ZN3ukm8builders23WebApp_DailyInteraction14kInstalledNameE, i32 0, i32 0) }, %"struct.std::__1::pair.14" { i64 7897354207534621578, i8* getelementptr inbounds ([0 x i8], [0 x i8]* @_ZN3ukm8builders23WebApp_DailyInteraction18kInstallSourceNameE, i32 0, i32 0) }, %"struct.std::__1::pair.14" { i64 6349061493514857092, i8* getelementptr inbounds ([0 x i8], [0 x i8]* @_ZN3ukm8builders23WebApp_DailyInteraction16kNumSessionsNameE, i32 0, i32 0) }, %"struct.std::__1::pair.14" { i64 -1603315343683510817, i8* getelementptr inbounds ([0 x i8], [0 x i8]* @_ZN3ukm8builders23WebApp_DailyInteraction15kPromotableNameE, i32 0, i32 0) }, %"struct.std::__1::pair.14" { i64 116280672541001035, i8* getelementptr inbounds ([0 x i8], [0 x i8]* @_ZN3ukm8builders23WebApp_DailyInteraction9kUsedNameE, i32 0, i32 0) }], align 8
@_ZN3ukm8builders12WebOTPImpact10kEntryNameE = external constant [0 x i8], align 1
@_ZN3ukm8builders12WebOTPImpact20kPhoneCollectionNameE = external constant [0 x i8], align 1
@.ref.tmp.222 = private constant [1 x %"struct.std::__1::pair.14"] [%"struct.std::__1::pair.14" { i64 -6511431887795254137, i8* getelementptr inbounds ([0 x i8], [0 x i8]* @_ZN3ukm8builders12WebOTPImpact20kPhoneCollectionNameE, i32 0, i32 0) }], align 8
@_ZN3ukm8builders24WebRTC_AddressHarvesting10kEntryNameE = external constant [0 x i8], align 1
