; ModuleID = '../../third_party/webrtc/modules/rtp_rtcp/source/ulpfec_generator.cc'
source_filename = "../../third_party/webrtc/modules/rtp_rtcp/source/ulpfec_generator.cc"
target datalayout = "e-m:e-i64:64-f80:128-n8:16:32:64-S128"
target triple = "x86_64-unknown-linux-gnu"

module asm ".symver exp, exp@GLIBC_2.2.5"
module asm ".symver exp2, exp2@GLIBC_2.2.5"
module asm ".symver exp2f, exp2f@GLIBC_2.2.5"
module asm ".symver expf, expf@GLIBC_2.2.5"
module asm ".symver lgamma, lgamma@GLIBC_2.2.5"
module asm ".symver lgammaf, lgammaf@GLIBC_2.2.5"
module asm ".symver lgammal, lgammal@GLIBC_2.2.5"
module asm ".symver log, log@GLIBC_2.2.5"
module asm ".symver log2, log2@GLIBC_2.2.5"
module asm ".symver log2f, log2f@GLIBC_2.2.5"
module asm ".symver logf, logf@GLIBC_2.2.5"
module asm ".symver pow, pow@GLIBC_2.2.5"
module asm ".symver powf, powf@GLIBC_2.2.5"

%"struct.webrtc::UlpfecGenerator::Params" = type { %"struct.webrtc::FecProtectionParams", %"struct.webrtc::FecProtectionParams" }
%"struct.webrtc::FecProtectionParams" = type { i32, i32, i32 }
%"class.webrtc::UlpfecGenerator" = type { %"class.webrtc::VideoFecGenerator", i32, i32, %"class.webrtc::Clock"*, %"class.rtc::RaceChecker", %"class.std::__1::unique_ptr", %"class.std::__1::list.28", %"class.absl::optional", %"class.std::__1::list.53", i32, i32, %"struct.webrtc::UlpfecGenerator::Params", i8, %"class.webrtc::Mutex", %"class.absl::optional.60", %"class.webrtc::RateStatistics" }
%"class.webrtc::VideoFecGenerator" = type { i32 (...)** }
%"class.rtc::RaceChecker" = type { i32, i64 }
%"class.std::__1::unique_ptr" = type { %"class.std::__1::__compressed_pair" }
%"class.std::__1::__compressed_pair" = type { %"struct.std::__1::__compressed_pair_elem" }
%"struct.std::__1::__compressed_pair_elem" = type { %"class.webrtc::ForwardErrorCorrection"* }
%"class.webrtc::ForwardErrorCorrection" = type { i32, i32, %"class.std::__1::unique_ptr.0", %"class.std::__1::unique_ptr.4", %"class.std::__1::vector", %"class.std::__1::list", [288 x i8], [288 x i8], i64 }
%"class.std::__1::unique_ptr.0" = type { %"class.std::__1::__compressed_pair.1" }
%"class.std::__1::__compressed_pair.1" = type { %"struct.std::__1::__compressed_pair_elem.2" }
%"struct.std::__1::__compressed_pair_elem.2" = type { %"class.webrtc::FecHeaderReader"* }
%"class.webrtc::FecHeaderReader" = type { i32 (...)**, i64, i64 }
%"class.std::__1::unique_ptr.4" = type { %"class.std::__1::__compressed_pair.5" }
%"class.std::__1::__compressed_pair.5" = type { %"struct.std::__1::__compressed_pair_elem.6" }
%"struct.std::__1::__compressed_pair_elem.6" = type { %"class.webrtc::FecHeaderWriter"* }
%"class.webrtc::FecHeaderWriter" = type { i32 (...)**, i64, i64, i64 }
%"class.std::__1::vector" = type { %"class.std::__1::__vector_base" }
%"class.std::__1::__vector_base" = type { %"class.webrtc::ForwardErrorCorrection::Packet"*, %"class.webrtc::ForwardErrorCorrection::Packet"*, %"class.std::__1::__compressed_pair.17" }
%"class.webrtc::ForwardErrorCorrection::Packet" = type <{ i32 (...)**, %"class.rtc::CopyOnWriteBuffer", i32, [4 x i8] }>
%"class.rtc::CopyOnWriteBuffer" = type { %"class.rtc::scoped_refptr", i64, i64 }
%"class.rtc::scoped_refptr" = type { %"class.rtc::FinalRefCountedObject"* }
%"class.rtc::FinalRefCountedObject" = type <{ %"class.rtc::BufferT", %"class.webrtc::webrtc_impl::RefCounter", [4 x i8] }>
%"class.rtc::BufferT" = type { i64, i64, %"class.std::__1::unique_ptr.10" }
%"class.std::__1::unique_ptr.10" = type { %"class.std::__1::__compressed_pair.11" }
%"class.std::__1::__compressed_pair.11" = type { %"struct.std::__1::__compressed_pair_elem.12" }
%"struct.std::__1::__compressed_pair_elem.12" = type { i8* }
%"class.webrtc::webrtc_impl::RefCounter" = type { %"struct.std::__1::atomic" }
%"struct.std::__1::atomic" = type { %"struct.std::__1::__atomic_base" }
%"struct.std::__1::__atomic_base" = type { %"struct.std::__1::__atomic_base.16" }
%"struct.std::__1::__atomic_base.16" = type { %"struct.std::__1::__cxx_atomic_impl" }
%"struct.std::__1::__cxx_atomic_impl" = type { %"struct.std::__1::__cxx_atomic_base_impl" }
%"struct.std::__1::__cxx_atomic_base_impl" = type { i32 }
%"class.std::__1::__compressed_pair.17" = type { %"struct.std::__1::__compressed_pair_elem.18" }
%"struct.std::__1::__compressed_pair_elem.18" = type { %"class.webrtc::ForwardErrorCorrection::Packet"* }
%"class.std::__1::list" = type { %"class.std::__1::__list_imp" }
%"class.std::__1::__list_imp" = type { %"struct.std::__1::__list_node_base", %"class.std::__1::__compressed_pair.20" }
%"struct.std::__1::__list_node_base" = type { %"struct.std::__1::__list_node_base"*, %"struct.std::__1::__list_node_base"* }
%"class.std::__1::__compressed_pair.20" = type { %"struct.std::__1::__compressed_pair_elem.21" }
%"struct.std::__1::__compressed_pair_elem.21" = type { i64 }
%"class.std::__1::list.28" = type { %"class.std::__1::__list_imp.29" }
%"class.std::__1::__list_imp.29" = type { %"struct.std::__1::__list_node_base.30", %"class.std::__1::__compressed_pair.31" }
%"struct.std::__1::__list_node_base.30" = type { %"struct.std::__1::__list_node_base.30"*, %"struct.std::__1::__list_node_base.30"* }
%"class.std::__1::__compressed_pair.31" = type { %"struct.std::__1::__compressed_pair_elem.21" }
%"class.absl::optional" = type { %"class.absl::optional_internal::optional_data" }
%"class.absl::optional_internal::optional_data" = type { %"class.absl::optional_internal::optional_data_base" }
%"class.absl::optional_internal::optional_data_base" = type { %"class.absl::optional_internal::optional_data_dtor_base" }
%"class.absl::optional_internal::optional_data_dtor_base" = type { i8, [7 x i8], %union.anon }
%union.anon = type { %"class.webrtc::RtpPacketToSend" }
%"class.webrtc::RtpPacketToSend" = type <{ %"class.webrtc::RtpPacket", i64, %"class.absl::optional.42", i8, i8, %"class.absl::optional.47", [2 x i8], %"class.rtc::scoped_refptr.52", i8, i8, i8, i8, [4 x i8] }>
%"class.webrtc::RtpPacket" = type { i8, i8, i8, i16, i32, i32, i64, i64, %"class.webrtc::RtpHeaderExtensionMap", %"class.std::__1::vector.35", i64, %"class.rtc::CopyOnWriteBuffer" }
%"class.webrtc::RtpHeaderExtensionMap" = type { [21 x i8], i8 }
%"class.std::__1::vector.35" = type { %"class.std::__1::__vector_base.36" }
%"class.std::__1::__vector_base.36" = type { %"struct.webrtc::RtpPacket::ExtensionInfo"*, %"struct.webrtc::RtpPacket::ExtensionInfo"*, %"class.std::__1::__compressed_pair.37" }
%"struct.webrtc::RtpPacket::ExtensionInfo" = type { i8, i8, i16 }
%"class.std::__1::__compressed_pair.37" = type { %"struct.std::__1::__compressed_pair_elem.38" }
%"struct.std::__1::__compressed_pair_elem.38" = type { %"struct.webrtc::RtpPacket::ExtensionInfo"* }
%"class.absl::optional.42" = type { %"class.absl::optional_internal::optional_data.43" }
%"class.absl::optional_internal::optional_data.43" = type { %"class.absl::optional_internal::optional_data_base.44" }
%"class.absl::optional_internal::optional_data_base.44" = type { %"class.absl::optional_internal::optional_data_dtor_base.45" }
%"class.absl::optional_internal::optional_data_dtor_base.45" = type { i8, %union.anon.46 }
%union.anon.46 = type { i64 }
%"class.absl::optional.47" = type { %"class.absl::optional_internal::optional_data.48" }
%"class.absl::optional_internal::optional_data.48" = type { %"class.absl::optional_internal::optional_data_base.49" }
%"class.absl::optional_internal::optional_data_base.49" = type { %"class.absl::optional_internal::optional_data_dtor_base.50" }
%"class.absl::optional_internal::optional_data_dtor_base.50" = type { i8, %union.anon.51 }
%union.anon.51 = type { i16 }
%"class.rtc::scoped_refptr.52" = type { %"class.rtc::RefCountedBase"* }
%"class.rtc::RefCountedBase" = type <{ i32 (...)**, %"class.webrtc::webrtc_impl::RefCounter", [4 x i8] }>
%"class.std::__1::list.53" = type { %"class.std::__1::__list_imp.54" }
%"class.std::__1::__list_imp.54" = type { %"struct.std::__1::__list_node_base.55", %"class.std::__1::__compressed_pair.56" }
%"struct.std::__1::__list_node_base.55" = type { %"struct.std::__1::__list_node_base.55"*, %"struct.std::__1::__list_node_base.55"* }
%"class.std::__1::__compressed_pair.56" = type { %"struct.std::__1::__compressed_pair_elem.21" }
%"class.webrtc::Mutex" = type { %"class.webrtc::MutexImpl" }
%"class.webrtc::MutexImpl" = type { %union.pthread_mutex_t }
%union.pthread_mutex_t = type { %struct.__pthread_mutex_s }
%struct.__pthread_mutex_s = type { i32, i32, i32, i32, i32, i16, i16, %struct.__pthread_internal_list }
%struct.__pthread_internal_list = type { %struct.__pthread_internal_list*, %struct.__pthread_internal_list* }
%"class.absl::optional.60" = type { %"class.absl::optional_internal::optional_data.61" }
%"class.absl::optional_internal::optional_data.61" = type { %"class.absl::optional_internal::optional_data_base.62" }
%"class.absl::optional_internal::optional_data_base.62" = type { %"class.absl::optional_internal::optional_data_dtor_base.63" }
%"class.absl::optional_internal::optional_data_dtor_base.63" = type { i8, %union.anon.64 }
%union.anon.64 = type { %"struct.webrtc::UlpfecGenerator::Params" }
%"class.webrtc::RateStatistics" = type { %"class.std::__1::deque", i64, i64, i8, i32, float, i64, i64 }
%"class.std::__1::deque" = type { %"class.std::__1::__deque_base" }
%"class.std::__1::__deque_base" = type { %"struct.std::__1::__split_buffer", i64, %"class.std::__1::__compressed_pair.70" }
%"struct.std::__1::__split_buffer" = type { %"struct.webrtc::RateStatistics::Bucket"**, %"struct.webrtc::RateStatistics::Bucket"**, %"struct.webrtc::RateStatistics::Bucket"**, %"class.std::__1::__compressed_pair.65" }
%"struct.webrtc::RateStatistics::Bucket" = type { i64, i32, i64 }
%"class.std::__1::__compressed_pair.65" = type { %"struct.std::__1::__compressed_pair_elem.66" }
%"struct.std::__1::__compressed_pair_elem.66" = type { %"struct.webrtc::RateStatistics::Bucket"** }
%"class.std::__1::__compressed_pair.70" = type { %"struct.std::__1::__compressed_pair_elem.21" }
%"class.webrtc::Clock" = type { i32 (...)** }
%union.pthread_mutexattr_t = type { i32 }
%"class.std::__1::vector.79" = type { %"class.std::__1::__vector_base.80" }
%"class.std::__1::__vector_base.80" = type { %"class.std::__1::unique_ptr.81"*, %"class.std::__1::unique_ptr.81"*, %"class.std::__1::__compressed_pair.87" }
%"class.std::__1::unique_ptr.81" = type { %"class.std::__1::__compressed_pair.82" }
%"class.std::__1::__compressed_pair.82" = type { %"struct.std::__1::__compressed_pair_elem.83" }
%"struct.std::__1::__compressed_pair_elem.83" = type { %"class.webrtc::RtpPacketToSend"* }
%"class.std::__1::__compressed_pair.87" = type { %"struct.std::__1::__compressed_pair_elem.88" }
%"struct.std::__1::__compressed_pair_elem.88" = type { %"class.std::__1::unique_ptr.81"* }
%"struct.std::__1::__list_node" = type { %"struct.std::__1::__list_node_base.55", %"class.webrtc::ForwardErrorCorrection::Packet"* }
%"class.absl::optional.102" = type { %"class.absl::optional_internal::optional_data.103" }
%"class.absl::optional_internal::optional_data.103" = type { %"class.absl::optional_internal::optional_data_base.104" }
%"class.absl::optional_internal::optional_data_base.104" = type { %"class.absl::optional_internal::optional_data_dtor_base.105" }
%"class.absl::optional_internal::optional_data_dtor_base.105" = type { i8, [7 x i8], %union.anon.106 }
%union.anon.106 = type { %"struct.webrtc::RtpState" }
%"struct.webrtc::RtpState" = type <{ i16, [2 x i8], i32, i32, [4 x i8], i64, i64, i8, [7 x i8] }>
%"class.std::__1::__vector_base_common" = type { i8 }

$_ZNSt3__16vectorINS_10unique_ptrIN6webrtc15RtpPacketToSendENS_14default_deleteIS3_EEEENS_9allocatorIS6_EEE7reserveEm = comdat any

$_ZNK6webrtc15UlpfecGenerator10GetFecTypeEv = comdat any

$_ZN6webrtc15UlpfecGenerator7FecSsrcEv = comdat any

$_ZN6webrtc15UlpfecGenerator11GetRtpStateEv = comdat any

$_ZNSt3__16vectorINS_10unique_ptrIN6webrtc15RtpPacketToSendENS_14default_deleteIS3_EEEENS_9allocatorIS6_EEE21__push_back_slow_pathIS6_EEvOT_ = comdat any

$_ZZN3rtc18webrtc_checks_impl11LogStreamerIJEE4CallIJEEEvPKciS5_DpRKT_E1t = comdat any

@_ZTVN6webrtc15UlpfecGeneratorE = hidden unnamed_addr constant { [12 x i8*] } { [12 x i8*] [i8* null, i8* null, i8* bitcast (void (%"class.webrtc::UlpfecGenerator"*)* @_ZN6webrtc15UlpfecGeneratorD2Ev to i8*), i8* bitcast (void (%"class.webrtc::UlpfecGenerator"*)* @_ZN6webrtc15UlpfecGeneratorD0Ev to i8*), i8* bitcast (i32 (%"class.webrtc::UlpfecGenerator"*)* @_ZNK6webrtc15UlpfecGenerator10GetFecTypeEv to i8*), i8* bitcast (i64 (%"class.webrtc::UlpfecGenerator"*)* @_ZN6webrtc15UlpfecGenerator7FecSsrcEv to i8*), i8* bitcast (i64 (%"class.webrtc::UlpfecGenerator"*)* @_ZNK6webrtc15UlpfecGenerator17MaxPacketOverheadEv to i8*), i8* bitcast (i64 (%"class.webrtc::UlpfecGenerator"*)* @_ZNK6webrtc15UlpfecGenerator14CurrentFecRateEv to i8*), i8* bitcast (void (%"class.webrtc::UlpfecGenerator"*, %"struct.webrtc::FecProtectionParams"*, %"struct.webrtc::FecProtectionParams"*)* @_ZN6webrtc15UlpfecGenerator23SetProtectionParametersERKNS_19FecProtectionParamsES3_ to i8*), i8* bitcast (void (%"class.webrtc::UlpfecGenerator"*, %"class.webrtc::RtpPacketToSend"*)* @_ZN6webrtc15UlpfecGenerator23AddPacketAndGenerateFecERKNS_15RtpPacketToSendE to i8*), i8* bitcast (void (%"class.std::__1::vector.79"*, %"class.webrtc::UlpfecGenerator"*)* @_ZN6webrtc15UlpfecGenerator13GetFecPacketsEv to i8*), i8* bitcast (void (%"class.absl::optional.102"*, %"class.webrtc::UlpfecGenerator"*)* @_ZN6webrtc15UlpfecGenerator11GetRtpStateEv to i8*)] }, align 8
@.str = private unnamed_addr constant [69 x i8] c"../../third_party/webrtc/modules/rtp_rtcp/source/ulpfec_generator.cc\00", align 1
@.str.1 = private unnamed_addr constant [31 x i8] c"last_media_packet_.has_value()\00", align 1
@_ZZN3rtc18webrtc_checks_impl11LogStreamerIJEE4CallIJEEEvPKciS5_DpRKT_E1t = linkonce_odr hidden constant [1 x i8] zeroinitializer, comdat, align 1

@_ZN6webrtc15UlpfecGenerator6ParamsC1Ev = hidden unnamed_addr alias void (%"struct.webrtc::UlpfecGenerator::Params"*), void (%"struct.webrtc::UlpfecGenerator::Params"*)* @_ZN6webrtc15UlpfecGenerator6ParamsC2Ev
@_ZN6webrtc15UlpfecGenerator6ParamsC1ENS_19FecProtectionParamsES2_ = hidden unnamed_addr alias void (%"struct.webrtc::UlpfecGenerator::Params"*, i64, i32, i64, i32), void (%"struct.webrtc::UlpfecGenerator::Params"*, i64, i32, i64, i32)* @_ZN6webrtc15UlpfecGenerator6ParamsC2ENS_19FecProtectionParamsES2_
@_ZN6webrtc15UlpfecGeneratorC1EiiPNS_5ClockE = hidden unnamed_addr alias void (%"class.webrtc::UlpfecGenerator"*, i32, i32, %"class.webrtc::Clock"*), void (%"class.webrtc::UlpfecGenerator"*, i32, i32, %"class.webrtc::Clock"*)* @_ZN6webrtc15UlpfecGeneratorC2EiiPNS_5ClockE
@_ZN6webrtc15UlpfecGeneratorC1ENSt3__110unique_ptrINS_22ForwardErrorCorrectionENS1_14default_deleteIS3_EEEEPNS_5ClockE = hidden unnamed_addr alias void (%"class.webrtc::UlpfecGenerator"*, %"class.webrtc::ForwardErrorCorrection"*, %"class.webrtc::Clock"*), void (%"class.webrtc::UlpfecGenerator"*, %"class.webrtc::ForwardErrorCorrection"*, %"class.webrtc::Clock"*)* @_ZN6webrtc15UlpfecGeneratorC2ENSt3__110unique_ptrINS_22ForwardErrorCorrectionENS1_14default_deleteIS3_EEEEPNS_5ClockE
@_ZN6webrtc15UlpfecGeneratorD1Ev = hidden unnamed_addr alias void (%"class.webrtc::UlpfecGenerator"*), void (%"class.webrtc::UlpfecGenerator"*)* @_ZN6webrtc15UlpfecGeneratorD2Ev

; Function Attrs: nofree norecurse nounwind ssp uwtable writeonly
define hidden void @_ZN6webrtc15UlpfecGenerator6ParamsC2Ev(%"struct.webrtc::UlpfecGenerator::Params"* nocapture) unnamed_addr #0 align 2 {
  %2 = bitcast %"struct.webrtc::UlpfecGenerator::Params"* %0 to i8*
  call void @llvm.memset.p0i8.i64(i8* align 4 %2, i8 0, i64 24, i1 false)
  ret void
}

; Function Attrs: nofree norecurse nounwind ssp uwtable writeonly
define hidden void @_ZN6webrtc15UlpfecGenerator6ParamsC2ENS_19FecProtectionParamsES2_(%"struct.webrtc::UlpfecGenerator::Params"* nocapture, i64, i32, i64, i32) unnamed_addr #0 align 2 {
  %6 = bitcast %"struct.webrtc::UlpfecGenerator::Params"* %0 to i64*
  store i64 %1, i64* %6, align 4
  %7 = getelementptr inbounds %"struct.webrtc::UlpfecGenerator::Params", %"struct.webrtc::UlpfecGenerator::Params"* %0, i64 0, i32 0, i32 2
  store i32 %2, i32* %7, align 4
  %8 = getelementptr inbounds %"struct.webrtc::UlpfecGenerator::Params", %"struct.webrtc::UlpfecGenerator::Params"* %0, i64 0, i32 1
  %9 = bitcast %"struct.webrtc::FecProtectionParams"* %8 to i64*
  store i64 %3, i64* %9, align 4
  %10 = getelementptr inbounds %"struct.webrtc::UlpfecGenerator::Params", %"struct.webrtc::UlpfecGenerator::Params"* %0, i64 0, i32 1, i32 2
  store i32 %4, i32* %10, align 4
  ret void
}

; Function Attrs: argmemonly nounwind
declare void @llvm.memcpy.p0i8.p0i8.i64(i8* nocapture writeonly, i8* nocapture readonly, i64, i1 immarg) #1

; Function Attrs: nounwind ssp uwtable
define hidden void @_ZN6webrtc15UlpfecGeneratorC2EiiPNS_5ClockE(%"class.webrtc::UlpfecGenerator"*, i32, i32, %"class.webrtc::Clock"*) unnamed_addr #2 align 2 {
  %5 = alloca %union.pthread_mutexattr_t, align 4
  %6 = getelementptr inbounds %"class.webrtc::UlpfecGenerator", %"class.webrtc::UlpfecGenerator"* %0, i64 0, i32 0, i32 0
  store i32 (...)** bitcast (i8** getelementptr inbounds ({ [12 x i8*] }, { [12 x i8*] }* @_ZTVN6webrtc15UlpfecGeneratorE, i64 0, inrange i32 0, i64 2) to i32 (...)**), i32 (...)*** %6, align 8
  %7 = getelementptr inbounds %"class.webrtc::UlpfecGenerator", %"class.webrtc::UlpfecGenerator"* %0, i64 0, i32 1
  store i32 %1, i32* %7, align 8
  %8 = getelementptr inbounds %"class.webrtc::UlpfecGenerator", %"class.webrtc::UlpfecGenerator"* %0, i64 0, i32 2
  store i32 %2, i32* %8, align 4
  %9 = getelementptr inbounds %"class.webrtc::UlpfecGenerator", %"class.webrtc::UlpfecGenerator"* %0, i64 0, i32 3
  store %"class.webrtc::Clock"* %3, %"class.webrtc::Clock"** %9, align 8
  %10 = getelementptr inbounds %"class.webrtc::UlpfecGenerator", %"class.webrtc::UlpfecGenerator"* %0, i64 0, i32 4
  tail call void @_ZN3rtc11RaceCheckerC1Ev(%"class.rtc::RaceChecker"* %10) #12
  %11 = tail call %"class.webrtc::ForwardErrorCorrection"* @_ZN6webrtc22ForwardErrorCorrection12CreateUlpfecEj(i32 0) #12
  %12 = getelementptr inbounds %"class.webrtc::UlpfecGenerator", %"class.webrtc::UlpfecGenerator"* %0, i64 0, i32 5, i32 0, i32 0, i32 0
  store %"class.webrtc::ForwardErrorCorrection"* %11, %"class.webrtc::ForwardErrorCorrection"** %12, align 8
  %13 = getelementptr inbounds %"class.webrtc::UlpfecGenerator", %"class.webrtc::UlpfecGenerator"* %0, i64 0, i32 6
  %14 = getelementptr inbounds %"class.std::__1::list.28", %"class.std::__1::list.28"* %13, i64 0, i32 0, i32 0
  %15 = getelementptr inbounds %"class.std::__1::list.28", %"class.std::__1::list.28"* %13, i64 0, i32 0, i32 0, i32 0
  store %"struct.std::__1::__list_node_base.30"* %14, %"struct.std::__1::__list_node_base.30"** %15, align 8
  %16 = getelementptr inbounds %"class.webrtc::UlpfecGenerator", %"class.webrtc::UlpfecGenerator"* %0, i64 0, i32 6, i32 0, i32 0, i32 1
  store %"struct.std::__1::__list_node_base.30"* %14, %"struct.std::__1::__list_node_base.30"** %16, align 8
  %17 = getelementptr inbounds %"class.webrtc::UlpfecGenerator", %"class.webrtc::UlpfecGenerator"* %0, i64 0, i32 6, i32 0, i32 1, i32 0, i32 0
  store i64 0, i64* %17, align 8
  %18 = getelementptr inbounds %"class.webrtc::UlpfecGenerator", %"class.webrtc::UlpfecGenerator"* %0, i64 0, i32 7, i32 0, i32 0, i32 0, i32 0
  store i8 0, i8* %18, align 8
  %19 = getelementptr inbounds %"class.webrtc::UlpfecGenerator", %"class.webrtc::UlpfecGenerator"* %0, i64 0, i32 7, i32 0, i32 0, i32 0, i32 2, i32 0, i32 0, i32 0
  tail call void @llvm.memset.p0i8.i64(i8* align 8 %19, i8 0, i64 160, i1 false) #12
  %20 = getelementptr inbounds %"class.webrtc::UlpfecGenerator", %"class.webrtc::UlpfecGenerator"* %0, i64 0, i32 8
  %21 = getelementptr inbounds %"class.std::__1::list.53", %"class.std::__1::list.53"* %20, i64 0, i32 0, i32 0
  %22 = getelementptr inbounds %"class.std::__1::list.53", %"class.std::__1::list.53"* %20, i64 0, i32 0, i32 0, i32 0
  store %"struct.std::__1::__list_node_base.55"* %21, %"struct.std::__1::__list_node_base.55"** %22, align 8
  %23 = getelementptr inbounds %"class.webrtc::UlpfecGenerator", %"class.webrtc::UlpfecGenerator"* %0, i64 0, i32 8, i32 0, i32 0, i32 1
  store %"struct.std::__1::__list_node_base.55"* %21, %"struct.std::__1::__list_node_base.55"** %23, align 8
  %24 = getelementptr inbounds %"class.webrtc::UlpfecGenerator", %"class.webrtc::UlpfecGenerator"* %0, i64 0, i32 8, i32 0, i32 1, i32 0, i32 0
  store i64 0, i64* %24, align 8
  %25 = getelementptr inbounds %"class.webrtc::UlpfecGenerator", %"class.webrtc::UlpfecGenerator"* %0, i64 0, i32 9
  store i32 0, i32* %25, align 8
  %26 = getelementptr inbounds %"class.webrtc::UlpfecGenerator", %"class.webrtc::UlpfecGenerator"* %0, i64 0, i32 10
  store i32 1, i32* %26, align 4
  %27 = getelementptr inbounds %"class.webrtc::UlpfecGenerator", %"class.webrtc::UlpfecGenerator"* %0, i64 0, i32 11
  %28 = bitcast %union.pthread_mutexattr_t* %5 to i8*
  %29 = bitcast %"struct.webrtc::UlpfecGenerator::Params"* %27 to i8*
  call void @llvm.memset.p0i8.i64(i8* align 4 %29, i8 0, i64 25, i1 false)
  call void @llvm.lifetime.start.p0i8(i64 4, i8* nonnull %28) #12
  %30 = getelementptr inbounds %union.pthread_mutexattr_t, %union.pthread_mutexattr_t* %5, i64 0, i32 0
  store i32 -1431655766, i32* %30, align 4
  %31 = call i32 @pthread_mutexattr_init(%union.pthread_mutexattr_t* nonnull %5) #12
  %32 = getelementptr inbounds %"class.webrtc::UlpfecGenerator", %"class.webrtc::UlpfecGenerator"* %0, i64 0, i32 13, i32 0, i32 0
  %33 = call i32 @pthread_mutex_init(%union.pthread_mutex_t* %32, %union.pthread_mutexattr_t* nonnull %5) #12
  %34 = call i32 @pthread_mutexattr_destroy(%union.pthread_mutexattr_t* nonnull %5) #12
  call void @llvm.lifetime.end.p0i8(i64 4, i8* nonnull %28) #12
  %35 = getelementptr inbounds %"class.webrtc::UlpfecGenerator", %"class.webrtc::UlpfecGenerator"* %0, i64 0, i32 14, i32 0, i32 0, i32 0, i32 0
  store i8 0, i8* %35, align 4
  %36 = getelementptr inbounds %"class.webrtc::UlpfecGenerator", %"class.webrtc::UlpfecGenerator"* %0, i64 0, i32 14, i32 0, i32 0, i32 0, i32 1
  %37 = bitcast %union.anon.64* %36 to i8*
  call void @llvm.memset.p0i8.i64(i8* align 4 %37, i8 0, i64 24, i1 false) #12
  %38 = getelementptr inbounds %"class.webrtc::UlpfecGenerator", %"class.webrtc::UlpfecGenerator"* %0, i64 0, i32 15
  call void @_ZN6webrtc14RateStatisticsC1Elf(%"class.webrtc::RateStatistics"* %38, i64 1000, float 8.000000e+03) #12
  ret void
}

declare void @_ZN3rtc11RaceCheckerC1Ev(%"class.rtc::RaceChecker"*) unnamed_addr #3

declare %"class.webrtc::ForwardErrorCorrection"* @_ZN6webrtc22ForwardErrorCorrection12CreateUlpfecEj(i32) local_unnamed_addr #3

declare void @_ZN6webrtc14RateStatisticsC1Elf(%"class.webrtc::RateStatistics"*, i64, float) unnamed_addr #3

; Function Attrs: nounwind ssp uwtable
define hidden void @_ZN6webrtc15UlpfecGeneratorC2ENSt3__110unique_ptrINS_22ForwardErrorCorrectionENS1_14default_deleteIS3_EEEEPNS_5ClockE(%"class.webrtc::UlpfecGenerator"*, %"class.webrtc::ForwardErrorCorrection"*, %"class.webrtc::Clock"*) unnamed_addr #2 align 2 {
  %4 = alloca %union.pthread_mutexattr_t, align 4
  %5 = ptrtoint %"class.webrtc::ForwardErrorCorrection"* %1 to i64
  %6 = getelementptr inbounds %"class.webrtc::UlpfecGenerator", %"class.webrtc::UlpfecGenerator"* %0, i64 0, i32 0, i32 0
  store i32 (...)** bitcast (i8** getelementptr inbounds ({ [12 x i8*] }, { [12 x i8*] }* @_ZTVN6webrtc15UlpfecGeneratorE, i64 0, inrange i32 0, i64 2) to i32 (...)**), i32 (...)*** %6, align 8
  %7 = getelementptr inbounds %"class.webrtc::UlpfecGenerator", %"class.webrtc::UlpfecGenerator"* %0, i64 0, i32 1
  store i32 0, i32* %7, align 8
  %8 = getelementptr inbounds %"class.webrtc::UlpfecGenerator", %"class.webrtc::UlpfecGenerator"* %0, i64 0, i32 2
  store i32 0, i32* %8, align 4
  %9 = getelementptr inbounds %"class.webrtc::UlpfecGenerator", %"class.webrtc::UlpfecGenerator"* %0, i64 0, i32 3
  store %"class.webrtc::Clock"* %2, %"class.webrtc::Clock"** %9, align 8
  %10 = getelementptr inbounds %"class.webrtc::UlpfecGenerator", %"class.webrtc::UlpfecGenerator"* %0, i64 0, i32 4
  tail call void @_ZN3rtc11RaceCheckerC1Ev(%"class.rtc::RaceChecker"* %10) #12
  %11 = getelementptr inbounds %"class.webrtc::UlpfecGenerator", %"class.webrtc::UlpfecGenerator"* %0, i64 0, i32 5
  %12 = bitcast %"class.std::__1::unique_ptr"* %11 to i64*
  store i64 %5, i64* %12, align 8
  %13 = getelementptr inbounds %"class.webrtc::UlpfecGenerator", %"class.webrtc::UlpfecGenerator"* %0, i64 0, i32 6
  %14 = getelementptr inbounds %"class.std::__1::list.28", %"class.std::__1::list.28"* %13, i64 0, i32 0, i32 0
  %15 = getelementptr inbounds %"class.std::__1::list.28", %"class.std::__1::list.28"* %13, i64 0, i32 0, i32 0, i32 0
  store %"struct.std::__1::__list_node_base.30"* %14, %"struct.std::__1::__list_node_base.30"** %15, align 8
  %16 = getelementptr inbounds %"class.webrtc::UlpfecGenerator", %"class.webrtc::UlpfecGenerator"* %0, i64 0, i32 6, i32 0, i32 0, i32 1
  store %"struct.std::__1::__list_node_base.30"* %14, %"struct.std::__1::__list_node_base.30"** %16, align 8
  %17 = getelementptr inbounds %"class.webrtc::UlpfecGenerator", %"class.webrtc::UlpfecGenerator"* %0, i64 0, i32 6, i32 0, i32 1, i32 0, i32 0
  store i64 0, i64* %17, align 8
  %18 = getelementptr inbounds %"class.webrtc::UlpfecGenerator", %"class.webrtc::UlpfecGenerator"* %0, i64 0, i32 7, i32 0, i32 0, i32 0, i32 0
  store i8 0, i8* %18, align 8
  %19 = getelementptr inbounds %"class.webrtc::UlpfecGenerator", %"class.webrtc::UlpfecGenerator"* %0, i64 0, i32 7, i32 0, i32 0, i32 0, i32 2, i32 0, i32 0, i32 0
  tail call void @llvm.memset.p0i8.i64(i8* align 8 %19, i8 0, i64 160, i1 false) #12
  %20 = getelementptr inbounds %"class.webrtc::UlpfecGenerator", %"class.webrtc::UlpfecGenerator"* %0, i64 0, i32 8
  %21 = getelementptr inbounds %"class.std::__1::list.53", %"class.std::__1::list.53"* %20, i64 0, i32 0, i32 0
  %22 = getelementptr inbounds %"class.std::__1::list.53", %"class.std::__1::list.53"* %20, i64 0, i32 0, i32 0, i32 0
  store %"struct.std::__1::__list_node_base.55"* %21, %"struct.std::__1::__list_node_base.55"** %22, align 8
  %23 = getelementptr inbounds %"class.webrtc::UlpfecGenerator", %"class.webrtc::UlpfecGenerator"* %0, i64 0, i32 8, i32 0, i32 0, i32 1
  store %"struct.std::__1::__list_node_base.55"* %21, %"struct.std::__1::__list_node_base.55"** %23, align 8
  %24 = getelementptr inbounds %"class.webrtc::UlpfecGenerator", %"class.webrtc::UlpfecGenerator"* %0, i64 0, i32 8, i32 0, i32 1, i32 0, i32 0
  store i64 0, i64* %24, align 8
  %25 = getelementptr inbounds %"class.webrtc::UlpfecGenerator", %"class.webrtc::UlpfecGenerator"* %0, i64 0, i32 9
  store i32 0, i32* %25, align 8
  %26 = getelementptr inbounds %"class.webrtc::UlpfecGenerator", %"class.webrtc::UlpfecGenerator"* %0, i64 0, i32 10
  store i32 1, i32* %26, align 4
  %27 = getelementptr inbounds %"class.webrtc::UlpfecGenerator", %"class.webrtc::UlpfecGenerator"* %0, i64 0, i32 11
  %28 = bitcast %union.pthread_mutexattr_t* %4 to i8*
  %29 = bitcast %"struct.webrtc::UlpfecGenerator::Params"* %27 to i8*
  call void @llvm.memset.p0i8.i64(i8* align 4 %29, i8 0, i64 25, i1 false)
  call void @llvm.lifetime.start.p0i8(i64 4, i8* nonnull %28) #12
  %30 = getelementptr inbounds %union.pthread_mutexattr_t, %union.pthread_mutexattr_t* %4, i64 0, i32 0
  store i32 -1431655766, i32* %30, align 4
  %31 = call i32 @pthread_mutexattr_init(%union.pthread_mutexattr_t* nonnull %4) #12
  %32 = getelementptr inbounds %"class.webrtc::UlpfecGenerator", %"class.webrtc::UlpfecGenerator"* %0, i64 0, i32 13, i32 0, i32 0
  %33 = call i32 @pthread_mutex_init(%union.pthread_mutex_t* %32, %union.pthread_mutexattr_t* nonnull %4) #12
  %34 = call i32 @pthread_mutexattr_destroy(%union.pthread_mutexattr_t* nonnull %4) #12
  call void @llvm.lifetime.end.p0i8(i64 4, i8* nonnull %28) #12
  %35 = getelementptr inbounds %"class.webrtc::UlpfecGenerator", %"class.webrtc::UlpfecGenerator"* %0, i64 0, i32 14, i32 0, i32 0, i32 0, i32 0
  store i8 0, i8* %35, align 4
  %36 = getelementptr inbounds %"class.webrtc::UlpfecGenerator", %"class.webrtc::UlpfecGenerator"* %0, i64 0, i32 14, i32 0, i32 0, i32 0, i32 1
  %37 = bitcast %union.anon.64* %36 to i8*
  call void @llvm.memset.p0i8.i64(i8* align 4 %37, i8 0, i64 24, i1 false) #12
  %38 = getelementptr inbounds %"class.webrtc::UlpfecGenerator", %"class.webrtc::UlpfecGenerator"* %0, i64 0, i32 15
  call void @_ZN6webrtc14RateStatisticsC1Elf(%"class.webrtc::RateStatistics"* %38, i64 1000, float 8.000000e+03) #12
  ret void
}

; Function Attrs: nounwind ssp uwtable
define hidden void @_ZN6webrtc15UlpfecGeneratorD2Ev(%"class.webrtc::UlpfecGenerator"*) unnamed_addr #2 align 2 {
  %2 = getelementptr inbounds %"class.webrtc::UlpfecGenerator", %"class.webrtc::UlpfecGenerator"* %0, i64 0, i32 0, i32 0
  store i32 (...)** bitcast (i8** getelementptr inbounds ({ [12 x i8*] }, { [12 x i8*] }* @_ZTVN6webrtc15UlpfecGeneratorE, i64 0, inrange i32 0, i64 2) to i32 (...)**), i32 (...)*** %2, align 8
  %3 = getelementptr inbounds %"class.webrtc::UlpfecGenerator", %"class.webrtc::UlpfecGenerator"* %0, i64 0, i32 15
  tail call void @_ZN6webrtc14RateStatisticsD1Ev(%"class.webrtc::RateStatistics"* %3) #12
  %4 = getelementptr inbounds %"class.webrtc::UlpfecGenerator", %"class.webrtc::UlpfecGenerator"* %0, i64 0, i32 13, i32 0, i32 0
  %5 = tail call i32 @pthread_mutex_destroy(%union.pthread_mutex_t* %4) #12
  %6 = getelementptr inbounds %"class.webrtc::UlpfecGenerator", %"class.webrtc::UlpfecGenerator"* %0, i64 0, i32 8, i32 0
  %7 = getelementptr inbounds %"class.webrtc::UlpfecGenerator", %"class.webrtc::UlpfecGenerator"* %0, i64 0, i32 8, i32 0, i32 1, i32 0, i32 0
  %8 = load i64, i64* %7, align 8
  %9 = icmp eq i64 %8, 0
  br i1 %9, label %34, label %10

10:                                               ; preds = %1
  %11 = getelementptr inbounds %"class.webrtc::UlpfecGenerator", %"class.webrtc::UlpfecGenerator"* %0, i64 0, i32 8, i32 0, i32 0, i32 1
  %12 = load %"struct.std::__1::__list_node_base.55"*, %"struct.std::__1::__list_node_base.55"** %11, align 8
  %13 = getelementptr inbounds %"class.std::__1::__list_imp.54", %"class.std::__1::__list_imp.54"* %6, i64 0, i32 0
  %14 = getelementptr inbounds %"class.std::__1::__list_imp.54", %"class.std::__1::__list_imp.54"* %6, i64 0, i32 0, i32 0
  %15 = load %"struct.std::__1::__list_node_base.55"*, %"struct.std::__1::__list_node_base.55"** %14, align 8
  %16 = getelementptr inbounds %"struct.std::__1::__list_node_base.55", %"struct.std::__1::__list_node_base.55"* %15, i64 0, i32 1
  %17 = bitcast %"struct.std::__1::__list_node_base.55"** %16 to i64*
  %18 = load i64, i64* %17, align 8
  %19 = getelementptr inbounds %"struct.std::__1::__list_node_base.55", %"struct.std::__1::__list_node_base.55"* %12, i64 0, i32 0
  %20 = load %"struct.std::__1::__list_node_base.55"*, %"struct.std::__1::__list_node_base.55"** %19, align 8
  %21 = getelementptr inbounds %"struct.std::__1::__list_node_base.55", %"struct.std::__1::__list_node_base.55"* %20, i64 0, i32 1
  %22 = bitcast %"struct.std::__1::__list_node_base.55"** %21 to i64*
  store i64 %18, i64* %22, align 8
  %23 = bitcast %"struct.std::__1::__list_node_base.55"* %12 to i64*
  %24 = load i64, i64* %23, align 8
  %25 = bitcast %"struct.std::__1::__list_node_base.55"** %16 to i64**
  %26 = load i64*, i64** %25, align 8
  store i64 %24, i64* %26, align 8
  store i64 0, i64* %7, align 8
  %27 = icmp eq %"struct.std::__1::__list_node_base.55"* %12, %13
  br i1 %27, label %34, label %28

28:                                               ; preds = %10, %28
  %29 = phi %"struct.std::__1::__list_node_base.55"* [ %31, %28 ], [ %12, %10 ]
  %30 = getelementptr inbounds %"struct.std::__1::__list_node_base.55", %"struct.std::__1::__list_node_base.55"* %29, i64 0, i32 1
  %31 = load %"struct.std::__1::__list_node_base.55"*, %"struct.std::__1::__list_node_base.55"** %30, align 8
  %32 = bitcast %"struct.std::__1::__list_node_base.55"* %29 to i8*
  tail call void @_ZdlPv(i8* %32) #13
  %33 = icmp eq %"struct.std::__1::__list_node_base.55"* %31, %13
  br i1 %33, label %34, label %28

34:                                               ; preds = %28, %1, %10
  %35 = getelementptr inbounds %"class.webrtc::UlpfecGenerator", %"class.webrtc::UlpfecGenerator"* %0, i64 0, i32 7, i32 0, i32 0, i32 0, i32 0
  %36 = load i8, i8* %35, align 8, !range !2
  %37 = icmp eq i8 %36, 0
  br i1 %37, label %40, label %38

38:                                               ; preds = %34
  %39 = getelementptr inbounds %"class.webrtc::UlpfecGenerator", %"class.webrtc::UlpfecGenerator"* %0, i64 0, i32 7, i32 0, i32 0, i32 0, i32 2, i32 0
  tail call void @_ZN6webrtc15RtpPacketToSendD1Ev(%"class.webrtc::RtpPacketToSend"* %39) #12
  store i8 0, i8* %35, align 8
  br label %40

40:                                               ; preds = %34, %38
  %41 = getelementptr inbounds %"class.webrtc::UlpfecGenerator", %"class.webrtc::UlpfecGenerator"* %0, i64 0, i32 6, i32 0
  %42 = getelementptr inbounds %"class.webrtc::UlpfecGenerator", %"class.webrtc::UlpfecGenerator"* %0, i64 0, i32 6, i32 0, i32 1, i32 0, i32 0
  %43 = load i64, i64* %42, align 8
  %44 = icmp eq i64 %43, 0
  br i1 %44, label %79, label %45

45:                                               ; preds = %40
  %46 = getelementptr inbounds %"class.webrtc::UlpfecGenerator", %"class.webrtc::UlpfecGenerator"* %0, i64 0, i32 6, i32 0, i32 0, i32 1
  %47 = load %"struct.std::__1::__list_node_base.30"*, %"struct.std::__1::__list_node_base.30"** %46, align 8
  %48 = getelementptr inbounds %"class.std::__1::__list_imp.29", %"class.std::__1::__list_imp.29"* %41, i64 0, i32 0
  %49 = getelementptr inbounds %"class.std::__1::__list_imp.29", %"class.std::__1::__list_imp.29"* %41, i64 0, i32 0, i32 0
  %50 = load %"struct.std::__1::__list_node_base.30"*, %"struct.std::__1::__list_node_base.30"** %49, align 8
  %51 = getelementptr inbounds %"struct.std::__1::__list_node_base.30", %"struct.std::__1::__list_node_base.30"* %50, i64 0, i32 1
  %52 = bitcast %"struct.std::__1::__list_node_base.30"** %51 to i64*
  %53 = load i64, i64* %52, align 8
  %54 = getelementptr inbounds %"struct.std::__1::__list_node_base.30", %"struct.std::__1::__list_node_base.30"* %47, i64 0, i32 0
  %55 = load %"struct.std::__1::__list_node_base.30"*, %"struct.std::__1::__list_node_base.30"** %54, align 8
  %56 = getelementptr inbounds %"struct.std::__1::__list_node_base.30", %"struct.std::__1::__list_node_base.30"* %55, i64 0, i32 1
  %57 = bitcast %"struct.std::__1::__list_node_base.30"** %56 to i64*
  store i64 %53, i64* %57, align 8
  %58 = bitcast %"struct.std::__1::__list_node_base.30"* %47 to i64*
  %59 = load i64, i64* %58, align 8
  %60 = bitcast %"struct.std::__1::__list_node_base.30"** %51 to i64**
  %61 = load i64*, i64** %60, align 8
  store i64 %59, i64* %61, align 8
  store i64 0, i64* %42, align 8
  %62 = icmp eq %"struct.std::__1::__list_node_base.30"* %47, %48
  br i1 %62, label %79, label %63

63:                                               ; preds = %45, %76
  %64 = phi %"struct.std::__1::__list_node_base.30"* [ %66, %76 ], [ %47, %45 ]
  %65 = getelementptr inbounds %"struct.std::__1::__list_node_base.30", %"struct.std::__1::__list_node_base.30"* %64, i64 0, i32 1
  %66 = load %"struct.std::__1::__list_node_base.30"*, %"struct.std::__1::__list_node_base.30"** %65, align 8
  %67 = getelementptr inbounds %"struct.std::__1::__list_node_base.30", %"struct.std::__1::__list_node_base.30"* %64, i64 1
  %68 = bitcast %"struct.std::__1::__list_node_base.30"* %67 to %"class.webrtc::ForwardErrorCorrection::Packet"**
  %69 = load %"class.webrtc::ForwardErrorCorrection::Packet"*, %"class.webrtc::ForwardErrorCorrection::Packet"** %68, align 8
  store %"class.webrtc::ForwardErrorCorrection::Packet"* null, %"class.webrtc::ForwardErrorCorrection::Packet"** %68, align 8
  %70 = icmp eq %"class.webrtc::ForwardErrorCorrection::Packet"* %69, null
  br i1 %70, label %76, label %71

71:                                               ; preds = %63
  %72 = bitcast %"class.webrtc::ForwardErrorCorrection::Packet"* %69 to void (%"class.webrtc::ForwardErrorCorrection::Packet"*)***
  %73 = load void (%"class.webrtc::ForwardErrorCorrection::Packet"*)**, void (%"class.webrtc::ForwardErrorCorrection::Packet"*)*** %72, align 8
  %74 = getelementptr inbounds void (%"class.webrtc::ForwardErrorCorrection::Packet"*)*, void (%"class.webrtc::ForwardErrorCorrection::Packet"*)** %73, i64 1
  %75 = load void (%"class.webrtc::ForwardErrorCorrection::Packet"*)*, void (%"class.webrtc::ForwardErrorCorrection::Packet"*)** %74, align 8
  tail call void %75(%"class.webrtc::ForwardErrorCorrection::Packet"* nonnull %69) #12
  br label %76

76:                                               ; preds = %71, %63
  %77 = bitcast %"struct.std::__1::__list_node_base.30"* %64 to i8*
  tail call void @_ZdlPv(i8* %77) #13
  %78 = icmp eq %"struct.std::__1::__list_node_base.30"* %66, %48
  br i1 %78, label %79, label %63

79:                                               ; preds = %76, %40, %45
  %80 = getelementptr inbounds %"class.webrtc::UlpfecGenerator", %"class.webrtc::UlpfecGenerator"* %0, i64 0, i32 5, i32 0, i32 0, i32 0
  %81 = load %"class.webrtc::ForwardErrorCorrection"*, %"class.webrtc::ForwardErrorCorrection"** %80, align 8
  store %"class.webrtc::ForwardErrorCorrection"* null, %"class.webrtc::ForwardErrorCorrection"** %80, align 8
  %82 = icmp eq %"class.webrtc::ForwardErrorCorrection"* %81, null
  br i1 %82, label %85, label %83

83:                                               ; preds = %79
  tail call void @_ZN6webrtc22ForwardErrorCorrectionD1Ev(%"class.webrtc::ForwardErrorCorrection"* nonnull %81) #12
  %84 = bitcast %"class.webrtc::ForwardErrorCorrection"* %81 to i8*
  tail call void @_ZdlPv(i8* %84) #13
  br label %85

85:                                               ; preds = %79, %83
  ret void
}

; Function Attrs: nounwind
declare void @_ZN6webrtc14RateStatisticsD1Ev(%"class.webrtc::RateStatistics"*) unnamed_addr #4

; Function Attrs: nounwind ssp uwtable
define hidden void @_ZN6webrtc15UlpfecGeneratorD0Ev(%"class.webrtc::UlpfecGenerator"*) unnamed_addr #2 align 2 {
  tail call void @_ZN6webrtc15UlpfecGeneratorD2Ev(%"class.webrtc::UlpfecGenerator"* %0) #12
  %2 = bitcast %"class.webrtc::UlpfecGenerator"* %0 to i8*
  tail call void @_ZdlPv(i8* %2) #13
  ret void
}

; Function Attrs: nobuiltin nounwind
declare void @_ZdlPv(i8*) local_unnamed_addr #5

; Function Attrs: nounwind ssp uwtable
define hidden void @_ZN6webrtc15UlpfecGenerator23SetProtectionParametersERKNS_19FecProtectionParamsES3_(%"class.webrtc::UlpfecGenerator"*, %"struct.webrtc::FecProtectionParams"* nocapture readonly dereferenceable(12), %"struct.webrtc::FecProtectionParams"* nocapture readonly dereferenceable(12)) unnamed_addr #2 align 2 {
  %4 = getelementptr inbounds %"class.webrtc::UlpfecGenerator", %"class.webrtc::UlpfecGenerator"* %0, i64 0, i32 13, i32 0, i32 0
  %5 = tail call i32 @pthread_mutex_lock(%union.pthread_mutex_t* %4) #12
  %6 = getelementptr inbounds %"class.webrtc::UlpfecGenerator", %"class.webrtc::UlpfecGenerator"* %0, i64 0, i32 14, i32 0, i32 0, i32 0, i32 0
  store i8 0, i8* %6, align 4
  %7 = getelementptr inbounds %"class.webrtc::UlpfecGenerator", %"class.webrtc::UlpfecGenerator"* %0, i64 0, i32 14, i32 0, i32 0, i32 0, i32 1, i32 0
  %8 = bitcast %"struct.webrtc::FecProtectionParams"* %1 to i64*
  %9 = load i64, i64* %8, align 4
  %10 = getelementptr inbounds %"struct.webrtc::FecProtectionParams", %"struct.webrtc::FecProtectionParams"* %1, i64 0, i32 2
  %11 = load i32, i32* %10, align 4
  %12 = bitcast %"struct.webrtc::FecProtectionParams"* %2 to i64*
  %13 = load i64, i64* %12, align 4
  %14 = getelementptr inbounds %"struct.webrtc::FecProtectionParams", %"struct.webrtc::FecProtectionParams"* %2, i64 0, i32 2
  %15 = load i32, i32* %14, align 4
  %16 = bitcast %"struct.webrtc::UlpfecGenerator::Params"* %7 to i64*
  store i64 %9, i64* %16, align 4
  %17 = getelementptr inbounds %"class.webrtc::UlpfecGenerator", %"class.webrtc::UlpfecGenerator"* %0, i64 0, i32 14, i32 0, i32 0, i32 0, i32 1, i32 0, i32 0, i32 2
  store i32 %11, i32* %17, align 4
  %18 = getelementptr inbounds %"class.webrtc::UlpfecGenerator", %"class.webrtc::UlpfecGenerator"* %0, i64 0, i32 14, i32 0, i32 0, i32 0, i32 1, i32 0, i32 1
  %19 = bitcast %"struct.webrtc::FecProtectionParams"* %18 to i64*
  store i64 %13, i64* %19, align 4
  %20 = getelementptr inbounds %"class.webrtc::UlpfecGenerator", %"class.webrtc::UlpfecGenerator"* %0, i64 0, i32 14, i32 0, i32 0, i32 0, i32 1, i32 0, i32 1, i32 2
  store i32 %15, i32* %20, align 4
  store i8 1, i8* %6, align 4
  %21 = tail call i32 @pthread_mutex_unlock(%union.pthread_mutex_t* %4) #12
  ret void
}

; Function Attrs: argmemonly nounwind
declare void @llvm.lifetime.start.p0i8(i64 immarg, i8* nocapture) #1

; Function Attrs: argmemonly nounwind
declare void @llvm.lifetime.end.p0i8(i64 immarg, i8* nocapture) #1

; Function Attrs: nounwind ssp uwtable
define hidden void @_ZN6webrtc15UlpfecGenerator23AddPacketAndGenerateFecERKNS_15RtpPacketToSendE(%"class.webrtc::UlpfecGenerator"*, %"class.webrtc::RtpPacketToSend"* dereferenceable(160)) unnamed_addr #2 align 2 {
  %3 = alloca %"class.rtc::CopyOnWriteBuffer", align 8
  %4 = getelementptr inbounds %"class.webrtc::UlpfecGenerator", %"class.webrtc::UlpfecGenerator"* %0, i64 0, i32 13, i32 0, i32 0
  %5 = tail call i32 @pthread_mutex_lock(%union.pthread_mutex_t* %4) #12
  %6 = getelementptr inbounds %"class.webrtc::UlpfecGenerator", %"class.webrtc::UlpfecGenerator"* %0, i64 0, i32 14, i32 0, i32 0, i32 0, i32 0
  %7 = load i8, i8* %6, align 4, !range !2
  %8 = icmp eq i8 %7, 0
  br i1 %8, label %25, label %9

9:                                                ; preds = %2
  %10 = getelementptr inbounds %"class.webrtc::UlpfecGenerator", %"class.webrtc::UlpfecGenerator"* %0, i64 0, i32 14, i32 0, i32 0, i32 0, i32 1, i32 0
  %11 = getelementptr inbounds %"class.webrtc::UlpfecGenerator", %"class.webrtc::UlpfecGenerator"* %0, i64 0, i32 11
  %12 = bitcast %"struct.webrtc::UlpfecGenerator::Params"* %11 to i8*
  %13 = bitcast %"struct.webrtc::UlpfecGenerator::Params"* %10 to i8*
  tail call void @llvm.memcpy.p0i8.p0i8.i64(i8* align 8 %12, i8* align 4 %13, i64 24, i1 false)
  store i8 0, i8* %6, align 4
  %14 = getelementptr inbounds %"class.webrtc::UlpfecGenerator", %"class.webrtc::UlpfecGenerator"* %0, i64 0, i32 12
  %15 = load i8, i8* %14, align 8, !range !2
  %16 = icmp eq i8 %15, 0
  %17 = getelementptr inbounds %"class.webrtc::UlpfecGenerator", %"class.webrtc::UlpfecGenerator"* %0, i64 0, i32 11, i32 1
  %18 = getelementptr inbounds %"class.webrtc::UlpfecGenerator", %"class.webrtc::UlpfecGenerator"* %0, i64 0, i32 11, i32 0
  %19 = select i1 %16, %"struct.webrtc::FecProtectionParams"* %18, %"struct.webrtc::FecProtectionParams"* %17
  %20 = getelementptr inbounds %"struct.webrtc::FecProtectionParams", %"struct.webrtc::FecProtectionParams"* %19, i64 0, i32 0
  %21 = load i32, i32* %20, align 4
  %22 = icmp sgt i32 %21, 80
  %23 = getelementptr inbounds %"class.webrtc::UlpfecGenerator", %"class.webrtc::UlpfecGenerator"* %0, i64 0, i32 10
  %24 = select i1 %22, i32 4, i32 1
  store i32 %24, i32* %23, align 4
  br label %25

25:                                               ; preds = %9, %2
  %26 = tail call i32 @pthread_mutex_unlock(%union.pthread_mutex_t* %4) #12
  %27 = getelementptr inbounds %"class.webrtc::RtpPacketToSend", %"class.webrtc::RtpPacketToSend"* %1, i64 0, i32 9
  %28 = load i8, i8* %27, align 1, !range !2
  %29 = icmp eq i8 %28, 0
  br i1 %29, label %32, label %30

30:                                               ; preds = %25
  %31 = getelementptr inbounds %"class.webrtc::UlpfecGenerator", %"class.webrtc::UlpfecGenerator"* %0, i64 0, i32 12
  store i8 1, i8* %31, align 8
  br label %32

32:                                               ; preds = %25, %30
  %33 = getelementptr inbounds %"class.webrtc::RtpPacketToSend", %"class.webrtc::RtpPacketToSend"* %1, i64 0, i32 0, i32 0
  %34 = load i8, i8* %33, align 8, !range !2
  %35 = icmp ne i8 %34, 0
  %36 = getelementptr inbounds %"class.webrtc::UlpfecGenerator", %"class.webrtc::UlpfecGenerator"* %0, i64 0, i32 6
  %37 = getelementptr inbounds %"class.webrtc::UlpfecGenerator", %"class.webrtc::UlpfecGenerator"* %0, i64 0, i32 6, i32 0, i32 1, i32 0, i32 0
  %38 = load i64, i64* %37, align 8
  %39 = icmp ult i64 %38, 48
  br i1 %39, label %40, label %95

40:                                               ; preds = %32
  %41 = tail call i8* @_Znwm(i64 40) #13
  %42 = bitcast i8* %41 to %"class.webrtc::ForwardErrorCorrection::Packet"*
  tail call void @_ZN6webrtc22ForwardErrorCorrection6PacketC1Ev(%"class.webrtc::ForwardErrorCorrection::Packet"* nonnull %42) #12
  %43 = ptrtoint i8* %41 to i64
  %44 = bitcast %"class.rtc::CopyOnWriteBuffer"* %3 to i8*
  call void @llvm.lifetime.start.p0i8(i64 24, i8* nonnull %44) #12
  %45 = getelementptr inbounds %"class.webrtc::RtpPacketToSend", %"class.webrtc::RtpPacketToSend"* %1, i64 0, i32 0, i32 11
  call void @_ZN3rtc17CopyOnWriteBufferC1ERKS0_(%"class.rtc::CopyOnWriteBuffer"* nonnull %3, %"class.rtc::CopyOnWriteBuffer"* dereferenceable(24) %45) #12
  %46 = getelementptr inbounds i8, i8* %41, i64 8
  %47 = getelementptr inbounds %"class.rtc::CopyOnWriteBuffer", %"class.rtc::CopyOnWriteBuffer"* %3, i64 0, i32 0, i32 0
  %48 = bitcast %"class.rtc::CopyOnWriteBuffer"* %3 to i64*
  %49 = load i64, i64* %48, align 8
  store %"class.rtc::FinalRefCountedObject"* null, %"class.rtc::FinalRefCountedObject"** %47, align 8
  %50 = bitcast i8* %46 to i64*
  %51 = bitcast i8* %46 to %"class.rtc::FinalRefCountedObject"**
  %52 = load %"class.rtc::FinalRefCountedObject"*, %"class.rtc::FinalRefCountedObject"** %51, align 8
  store i64 %49, i64* %50, align 8
  %53 = icmp eq %"class.rtc::FinalRefCountedObject"* %52, null
  br i1 %53, label %65, label %54

54:                                               ; preds = %40
  %55 = getelementptr inbounds %"class.rtc::FinalRefCountedObject", %"class.rtc::FinalRefCountedObject"* %52, i64 0, i32 1, i32 0, i32 0, i32 0, i32 0, i32 0, i32 0
  %56 = atomicrmw sub i32* %55, i32 1 acq_rel
  %57 = icmp eq i32 %56, 1
  br i1 %57, label %58, label %65

58:                                               ; preds = %54
  %59 = getelementptr inbounds %"class.rtc::FinalRefCountedObject", %"class.rtc::FinalRefCountedObject"* %52, i64 0, i32 0, i32 2, i32 0, i32 0, i32 0
  %60 = load i8*, i8** %59, align 8
  store i8* null, i8** %59, align 8
  %61 = icmp eq i8* %60, null
  br i1 %61, label %63, label %62

62:                                               ; preds = %58
  call void @_ZdaPv(i8* nonnull %60) #13
  br label %63

63:                                               ; preds = %62, %58
  %64 = bitcast %"class.rtc::FinalRefCountedObject"* %52 to i8*
  call void @_ZdlPv(i8* %64) #13
  br label %65

65:                                               ; preds = %40, %54, %63
  %66 = getelementptr inbounds %"class.rtc::CopyOnWriteBuffer", %"class.rtc::CopyOnWriteBuffer"* %3, i64 0, i32 1
  %67 = getelementptr inbounds i8, i8* %41, i64 16
  %68 = bitcast i64* %66 to <2 x i64>*
  %69 = load <2 x i64>, <2 x i64>* %68, align 8
  %70 = bitcast i8* %67 to <2 x i64>*
  store <2 x i64> %69, <2 x i64>* %70, align 8
  %71 = bitcast i64* %66 to i8*
  call void @llvm.memset.p0i8.i64(i8* align 8 %71, i8 0, i64 16, i1 false) #12
  call void @_ZN3rtc17CopyOnWriteBufferD1Ev(%"class.rtc::CopyOnWriteBuffer"* nonnull %3) #12
  call void @llvm.lifetime.end.p0i8(i64 24, i8* nonnull %44) #12
  %72 = call i8* @_Znwm(i64 24) #13, !noalias !3
  %73 = bitcast i8* %72 to %"struct.std::__1::__list_node_base.30"**
  %74 = getelementptr inbounds i8, i8* %72, i64 16
  %75 = bitcast i8* %74 to i64*
  store i64 %43, i64* %75, align 8
  %76 = getelementptr inbounds %"class.std::__1::list.28", %"class.std::__1::list.28"* %36, i64 0, i32 0, i32 0
  %77 = getelementptr inbounds i8, i8* %72, i64 8
  %78 = bitcast i8* %77 to %"struct.std::__1::__list_node_base.30"**
  store %"struct.std::__1::__list_node_base.30"* %76, %"struct.std::__1::__list_node_base.30"** %78, align 8
  %79 = getelementptr inbounds %"class.std::__1::list.28", %"class.std::__1::list.28"* %36, i64 0, i32 0, i32 0, i32 0
  %80 = load %"struct.std::__1::__list_node_base.30"*, %"struct.std::__1::__list_node_base.30"** %79, align 8
  store %"struct.std::__1::__list_node_base.30"* %80, %"struct.std::__1::__list_node_base.30"** %73, align 8
  %81 = getelementptr inbounds %"struct.std::__1::__list_node_base.30", %"struct.std::__1::__list_node_base.30"* %80, i64 0, i32 1
  %82 = bitcast %"struct.std::__1::__list_node_base.30"** %81 to i8**
  store i8* %72, i8** %82, align 8
  %83 = bitcast %"class.std::__1::list.28"* %36 to i8**
  store i8* %72, i8** %83, align 8
  %84 = load i64, i64* %37, align 8
  %85 = add i64 %84, 1
  store i64 %85, i64* %37, align 8
  %86 = getelementptr inbounds %"class.webrtc::UlpfecGenerator", %"class.webrtc::UlpfecGenerator"* %0, i64 0, i32 7, i32 0, i32 0, i32 0, i32 0
  %87 = load i8, i8* %86, align 8, !range !2
  %88 = icmp eq i8 %87, 0
  br i1 %88, label %92, label %89

89:                                               ; preds = %65
  %90 = getelementptr inbounds %"class.webrtc::UlpfecGenerator", %"class.webrtc::UlpfecGenerator"* %0, i64 0, i32 7, i32 0, i32 0, i32 0, i32 2, i32 0
  %91 = call dereferenceable(160) %"class.webrtc::RtpPacketToSend"* @_ZN6webrtc15RtpPacketToSendaSERKS0_(%"class.webrtc::RtpPacketToSend"* %90, %"class.webrtc::RtpPacketToSend"* dereferenceable(160) %1) #12
  br label %95

92:                                               ; preds = %65
  %93 = getelementptr inbounds %"class.webrtc::UlpfecGenerator", %"class.webrtc::UlpfecGenerator"* %0, i64 0, i32 7, i32 0, i32 0, i32 0, i32 2, i32 0, i32 0, i32 0
  %94 = bitcast i8* %93 to %"class.webrtc::RtpPacketToSend"*
  call void @_ZN6webrtc15RtpPacketToSendC1ERKS0_(%"class.webrtc::RtpPacketToSend"* %94, %"class.webrtc::RtpPacketToSend"* dereferenceable(160) %1) #12
  store i8 1, i8* %86, align 8
  br label %95

95:                                               ; preds = %89, %92, %32
  br i1 %35, label %96, label %100

96:                                               ; preds = %95
  %97 = getelementptr inbounds %"class.webrtc::UlpfecGenerator", %"class.webrtc::UlpfecGenerator"* %0, i64 0, i32 9
  %98 = load i32, i32* %97, align 8
  %99 = add nsw i32 %98, 1
  store i32 %99, i32* %97, align 8
  br label %100

100:                                              ; preds = %96, %95
  %101 = getelementptr inbounds %"class.webrtc::UlpfecGenerator", %"class.webrtc::UlpfecGenerator"* %0, i64 0, i32 12
  %102 = load i8, i8* %101, align 8, !range !2
  %103 = icmp eq i8 %102, 0
  %104 = getelementptr inbounds %"class.webrtc::UlpfecGenerator", %"class.webrtc::UlpfecGenerator"* %0, i64 0, i32 11, i32 1
  %105 = getelementptr inbounds %"class.webrtc::UlpfecGenerator", %"class.webrtc::UlpfecGenerator"* %0, i64 0, i32 11, i32 0
  %106 = select i1 %103, %"struct.webrtc::FecProtectionParams"* %105, %"struct.webrtc::FecProtectionParams"* %104
  %107 = getelementptr inbounds %"struct.webrtc::FecProtectionParams", %"struct.webrtc::FecProtectionParams"* %106, i64 0, i32 0
  %108 = load i32, i32* %107, align 4
  %109 = getelementptr inbounds %"struct.webrtc::FecProtectionParams", %"struct.webrtc::FecProtectionParams"* %106, i64 0, i32 2
  %110 = load i32, i32* %109, align 4
  br i1 %35, label %111, label %155

111:                                              ; preds = %100
  %112 = getelementptr inbounds %"struct.webrtc::FecProtectionParams", %"struct.webrtc::FecProtectionParams"* %106, i64 0, i32 1
  %113 = load i32, i32* %112, align 4
  %114 = getelementptr inbounds %"class.webrtc::UlpfecGenerator", %"class.webrtc::UlpfecGenerator"* %0, i64 0, i32 9
  %115 = load i32, i32* %114, align 8
  %116 = icmp slt i32 %115, %113
  br i1 %116, label %117, label %145

117:                                              ; preds = %111
  %118 = load i64, i64* %37, align 8
  %119 = trunc i64 %118 to i32
  %120 = call i32 @_ZN6webrtc22ForwardErrorCorrection13NumFecPacketsEii(i32 %119, i32 %108) #12
  %121 = shl i32 %120, 8
  %122 = sext i32 %121 to i64
  %123 = load i64, i64* %37, align 8
  %124 = udiv i64 %122, %123
  %125 = trunc i64 %124 to i32
  %126 = load i8, i8* %101, align 8, !range !2
  %127 = icmp eq i8 %126, 0
  %128 = select i1 %127, %"struct.webrtc::FecProtectionParams"* %105, %"struct.webrtc::FecProtectionParams"* %104
  %129 = getelementptr inbounds %"struct.webrtc::FecProtectionParams", %"struct.webrtc::FecProtectionParams"* %128, i64 0, i32 0
  %130 = load i32, i32* %129, align 4
  %131 = sub nsw i32 %125, %130
  %132 = icmp slt i32 %131, 50
  br i1 %132, label %133, label %155

133:                                              ; preds = %117
  %134 = uitofp i64 %123 to float
  %135 = load i32, i32* %114, align 8
  %136 = sitofp i32 %135 to float
  %137 = fdiv float %134, %136
  %138 = trunc i64 %123 to i32
  %139 = fcmp olt float %137, 2.000000e+00
  %140 = getelementptr inbounds %"class.webrtc::UlpfecGenerator", %"class.webrtc::UlpfecGenerator"* %0, i64 0, i32 10
  %141 = load i32, i32* %140, align 4
  %142 = icmp sle i32 %141, %138
  %143 = icmp slt i32 %141, %138
  %144 = select i1 %139, i1 %142, i1 %143
  br i1 %144, label %145, label %155

145:                                              ; preds = %111, %133
  %146 = getelementptr inbounds %"class.webrtc::UlpfecGenerator", %"class.webrtc::UlpfecGenerator"* %0, i64 0, i32 5, i32 0, i32 0, i32 0
  %147 = load %"class.webrtc::ForwardErrorCorrection"*, %"class.webrtc::ForwardErrorCorrection"** %146, align 8
  %148 = trunc i32 %108 to i8
  %149 = getelementptr inbounds %"class.webrtc::UlpfecGenerator", %"class.webrtc::UlpfecGenerator"* %0, i64 0, i32 8
  %150 = call i32 @_ZN6webrtc22ForwardErrorCorrection9EncodeFecERKNSt3__14listINS1_10unique_ptrINS0_6PacketENS1_14default_deleteIS4_EEEENS1_9allocatorIS7_EEEEhibNS_11FecMaskTypeEPNS2_IPS4_NS8_ISE_EEEE(%"class.webrtc::ForwardErrorCorrection"* %147, %"class.std::__1::list.28"* dereferenceable(24) %36, i8 zeroext %148, i32 0, i1 zeroext false, i32 %110, %"class.std::__1::list.53"* %149) #12
  %151 = getelementptr inbounds %"class.webrtc::UlpfecGenerator", %"class.webrtc::UlpfecGenerator"* %0, i64 0, i32 8, i32 0, i32 1, i32 0, i32 0
  %152 = load i64, i64* %151, align 8
  %153 = icmp eq i64 %152, 0
  br i1 %153, label %154, label %155

154:                                              ; preds = %145
  call void @_ZN6webrtc15UlpfecGenerator10ResetStateEv(%"class.webrtc::UlpfecGenerator"* %0)
  br label %155

155:                                              ; preds = %145, %154, %133, %117, %100
  ret void
}

; Function Attrs: nounwind readonly ssp uwtable
define hidden dereferenceable(12) %"struct.webrtc::FecProtectionParams"* @_ZNK6webrtc15UlpfecGenerator13CurrentParamsEv(%"class.webrtc::UlpfecGenerator"* readonly) local_unnamed_addr #6 align 2 {
  %2 = getelementptr inbounds %"class.webrtc::UlpfecGenerator", %"class.webrtc::UlpfecGenerator"* %0, i64 0, i32 12
  %3 = load i8, i8* %2, align 8, !range !2
  %4 = icmp eq i8 %3, 0
  %5 = getelementptr inbounds %"class.webrtc::UlpfecGenerator", %"class.webrtc::UlpfecGenerator"* %0, i64 0, i32 11, i32 1
  %6 = getelementptr inbounds %"class.webrtc::UlpfecGenerator", %"class.webrtc::UlpfecGenerator"* %0, i64 0, i32 11, i32 0
  %7 = select i1 %4, %"struct.webrtc::FecProtectionParams"* %6, %"struct.webrtc::FecProtectionParams"* %5
  ret %"struct.webrtc::FecProtectionParams"* %7
}

; Function Attrs: nounwind
declare void @_ZN3rtc17CopyOnWriteBufferD1Ev(%"class.rtc::CopyOnWriteBuffer"*) unnamed_addr #4

; Function Attrs: nounwind ssp uwtable
define hidden zeroext i1 @_ZNK6webrtc15UlpfecGenerator22ExcessOverheadBelowMaxEv(%"class.webrtc::UlpfecGenerator"* nocapture readonly) local_unnamed_addr #2 align 2 {
  %2 = getelementptr inbounds %"class.webrtc::UlpfecGenerator", %"class.webrtc::UlpfecGenerator"* %0, i64 0, i32 6, i32 0, i32 1, i32 0, i32 0
  %3 = load i64, i64* %2, align 8
  %4 = trunc i64 %3 to i32
  %5 = getelementptr inbounds %"class.webrtc::UlpfecGenerator", %"class.webrtc::UlpfecGenerator"* %0, i64 0, i32 12
  %6 = load i8, i8* %5, align 8, !range !2
  %7 = icmp eq i8 %6, 0
  %8 = getelementptr inbounds %"class.webrtc::UlpfecGenerator", %"class.webrtc::UlpfecGenerator"* %0, i64 0, i32 11, i32 1
  %9 = getelementptr inbounds %"class.webrtc::UlpfecGenerator", %"class.webrtc::UlpfecGenerator"* %0, i64 0, i32 11, i32 0
  %10 = select i1 %7, %"struct.webrtc::FecProtectionParams"* %9, %"struct.webrtc::FecProtectionParams"* %8
  %11 = getelementptr inbounds %"struct.webrtc::FecProtectionParams", %"struct.webrtc::FecProtectionParams"* %10, i64 0, i32 0
  %12 = load i32, i32* %11, align 4
  %13 = tail call i32 @_ZN6webrtc22ForwardErrorCorrection13NumFecPacketsEii(i32 %4, i32 %12) #12
  %14 = shl i32 %13, 8
  %15 = sext i32 %14 to i64
  %16 = load i64, i64* %2, align 8
  %17 = udiv i64 %15, %16
  %18 = trunc i64 %17 to i32
  %19 = load i8, i8* %5, align 8, !range !2
  %20 = icmp eq i8 %19, 0
  %21 = select i1 %20, %"struct.webrtc::FecProtectionParams"* %9, %"struct.webrtc::FecProtectionParams"* %8
  %22 = getelementptr inbounds %"struct.webrtc::FecProtectionParams", %"struct.webrtc::FecProtectionParams"* %21, i64 0, i32 0
  %23 = load i32, i32* %22, align 4
  %24 = sub nsw i32 %18, %23
  %25 = icmp slt i32 %24, 50
  ret i1 %25
}

; Function Attrs: nounwind readonly ssp uwtable
define hidden zeroext i1 @_ZNK6webrtc15UlpfecGenerator26MinimumMediaPacketsReachedEv(%"class.webrtc::UlpfecGenerator"* nocapture readonly) local_unnamed_addr #6 align 2 {
  %2 = getelementptr inbounds %"class.webrtc::UlpfecGenerator", %"class.webrtc::UlpfecGenerator"* %0, i64 0, i32 6, i32 0, i32 1, i32 0, i32 0
  %3 = load i64, i64* %2, align 8
  %4 = uitofp i64 %3 to float
  %5 = getelementptr inbounds %"class.webrtc::UlpfecGenerator", %"class.webrtc::UlpfecGenerator"* %0, i64 0, i32 9
  %6 = load i32, i32* %5, align 8
  %7 = sitofp i32 %6 to float
  %8 = fdiv float %4, %7
  %9 = trunc i64 %3 to i32
  %10 = fcmp olt float %8, 2.000000e+00
  %11 = getelementptr inbounds %"class.webrtc::UlpfecGenerator", %"class.webrtc::UlpfecGenerator"* %0, i64 0, i32 10
  %12 = load i32, i32* %11, align 4
  %13 = icmp sle i32 %12, %9
  %14 = icmp slt i32 %12, %9
  %15 = select i1 %10, i1 %13, i1 %14
  ret i1 %15
}

declare i32 @_ZN6webrtc22ForwardErrorCorrection9EncodeFecERKNSt3__14listINS1_10unique_ptrINS0_6PacketENS1_14default_deleteIS4_EEEENS1_9allocatorIS7_EEEEhibNS_11FecMaskTypeEPNS2_IPS4_NS8_ISE_EEEE(%"class.webrtc::ForwardErrorCorrection"*, %"class.std::__1::list.28"* dereferenceable(24), i8 zeroext, i32, i1 zeroext, i32, %"class.std::__1::list.53"*) local_unnamed_addr #3

; Function Attrs: nounwind ssp uwtable
define hidden void @_ZN6webrtc15UlpfecGenerator10ResetStateEv(%"class.webrtc::UlpfecGenerator"*) local_unnamed_addr #2 align 2 {
  %2 = getelementptr inbounds %"class.webrtc::UlpfecGenerator", %"class.webrtc::UlpfecGenerator"* %0, i64 0, i32 6
  %3 = getelementptr inbounds %"class.webrtc::UlpfecGenerator", %"class.webrtc::UlpfecGenerator"* %0, i64 0, i32 6, i32 0, i32 1, i32 0, i32 0
  %4 = load i64, i64* %3, align 8
  %5 = icmp eq i64 %4, 0
  br i1 %5, label %40, label %6

6:                                                ; preds = %1
  %7 = getelementptr inbounds %"class.webrtc::UlpfecGenerator", %"class.webrtc::UlpfecGenerator"* %0, i64 0, i32 6, i32 0, i32 0, i32 1
  %8 = load %"struct.std::__1::__list_node_base.30"*, %"struct.std::__1::__list_node_base.30"** %7, align 8
  %9 = getelementptr inbounds %"class.std::__1::list.28", %"class.std::__1::list.28"* %2, i64 0, i32 0, i32 0
  %10 = getelementptr inbounds %"class.std::__1::list.28", %"class.std::__1::list.28"* %2, i64 0, i32 0, i32 0, i32 0
  %11 = load %"struct.std::__1::__list_node_base.30"*, %"struct.std::__1::__list_node_base.30"** %10, align 8
  %12 = getelementptr inbounds %"struct.std::__1::__list_node_base.30", %"struct.std::__1::__list_node_base.30"* %11, i64 0, i32 1
  %13 = bitcast %"struct.std::__1::__list_node_base.30"** %12 to i64*
  %14 = load i64, i64* %13, align 8
  %15 = getelementptr inbounds %"struct.std::__1::__list_node_base.30", %"struct.std::__1::__list_node_base.30"* %8, i64 0, i32 0
  %16 = load %"struct.std::__1::__list_node_base.30"*, %"struct.std::__1::__list_node_base.30"** %15, align 8
  %17 = getelementptr inbounds %"struct.std::__1::__list_node_base.30", %"struct.std::__1::__list_node_base.30"* %16, i64 0, i32 1
  %18 = bitcast %"struct.std::__1::__list_node_base.30"** %17 to i64*
  store i64 %14, i64* %18, align 8
  %19 = bitcast %"struct.std::__1::__list_node_base.30"* %8 to i64*
  %20 = load i64, i64* %19, align 8
  %21 = bitcast %"struct.std::__1::__list_node_base.30"** %12 to i64**
  %22 = load i64*, i64** %21, align 8
  store i64 %20, i64* %22, align 8
  store i64 0, i64* %3, align 8
  %23 = icmp eq %"struct.std::__1::__list_node_base.30"* %8, %9
  br i1 %23, label %40, label %24

24:                                               ; preds = %6, %37
  %25 = phi %"struct.std::__1::__list_node_base.30"* [ %27, %37 ], [ %8, %6 ]
  %26 = getelementptr inbounds %"struct.std::__1::__list_node_base.30", %"struct.std::__1::__list_node_base.30"* %25, i64 0, i32 1
  %27 = load %"struct.std::__1::__list_node_base.30"*, %"struct.std::__1::__list_node_base.30"** %26, align 8
  %28 = getelementptr inbounds %"struct.std::__1::__list_node_base.30", %"struct.std::__1::__list_node_base.30"* %25, i64 1
  %29 = bitcast %"struct.std::__1::__list_node_base.30"* %28 to %"class.webrtc::ForwardErrorCorrection::Packet"**
  %30 = load %"class.webrtc::ForwardErrorCorrection::Packet"*, %"class.webrtc::ForwardErrorCorrection::Packet"** %29, align 8
  store %"class.webrtc::ForwardErrorCorrection::Packet"* null, %"class.webrtc::ForwardErrorCorrection::Packet"** %29, align 8
  %31 = icmp eq %"class.webrtc::ForwardErrorCorrection::Packet"* %30, null
  br i1 %31, label %37, label %32

32:                                               ; preds = %24
  %33 = bitcast %"class.webrtc::ForwardErrorCorrection::Packet"* %30 to void (%"class.webrtc::ForwardErrorCorrection::Packet"*)***
  %34 = load void (%"class.webrtc::ForwardErrorCorrection::Packet"*)**, void (%"class.webrtc::ForwardErrorCorrection::Packet"*)*** %33, align 8
  %35 = getelementptr inbounds void (%"class.webrtc::ForwardErrorCorrection::Packet"*)*, void (%"class.webrtc::ForwardErrorCorrection::Packet"*)** %34, i64 1
  %36 = load void (%"class.webrtc::ForwardErrorCorrection::Packet"*)*, void (%"class.webrtc::ForwardErrorCorrection::Packet"*)** %35, align 8
  tail call void %36(%"class.webrtc::ForwardErrorCorrection::Packet"* nonnull %30) #12
  br label %37

37:                                               ; preds = %32, %24
  %38 = bitcast %"struct.std::__1::__list_node_base.30"* %25 to i8*
  tail call void @_ZdlPv(i8* %38) #13
  %39 = icmp eq %"struct.std::__1::__list_node_base.30"* %27, %9
  br i1 %39, label %40, label %24

40:                                               ; preds = %37, %1, %6
  %41 = getelementptr inbounds %"class.webrtc::UlpfecGenerator", %"class.webrtc::UlpfecGenerator"* %0, i64 0, i32 7, i32 0, i32 0, i32 0, i32 0
  %42 = load i8, i8* %41, align 8, !range !2
  %43 = icmp eq i8 %42, 0
  br i1 %43, label %46, label %44

44:                                               ; preds = %40
  %45 = getelementptr inbounds %"class.webrtc::UlpfecGenerator", %"class.webrtc::UlpfecGenerator"* %0, i64 0, i32 7, i32 0, i32 0, i32 0, i32 2, i32 0
  tail call void @_ZN6webrtc15RtpPacketToSendD1Ev(%"class.webrtc::RtpPacketToSend"* %45) #12
  store i8 0, i8* %41, align 8
  br label %46

46:                                               ; preds = %40, %44
  %47 = getelementptr inbounds %"class.webrtc::UlpfecGenerator", %"class.webrtc::UlpfecGenerator"* %0, i64 0, i32 8
  %48 = getelementptr inbounds %"class.webrtc::UlpfecGenerator", %"class.webrtc::UlpfecGenerator"* %0, i64 0, i32 8, i32 0, i32 1, i32 0, i32 0
  %49 = load i64, i64* %48, align 8
  %50 = icmp eq i64 %49, 0
  br i1 %50, label %75, label %51

51:                                               ; preds = %46
  %52 = getelementptr inbounds %"class.webrtc::UlpfecGenerator", %"class.webrtc::UlpfecGenerator"* %0, i64 0, i32 8, i32 0, i32 0, i32 1
  %53 = load %"struct.std::__1::__list_node_base.55"*, %"struct.std::__1::__list_node_base.55"** %52, align 8
  %54 = getelementptr inbounds %"class.std::__1::list.53", %"class.std::__1::list.53"* %47, i64 0, i32 0, i32 0
  %55 = getelementptr inbounds %"class.std::__1::list.53", %"class.std::__1::list.53"* %47, i64 0, i32 0, i32 0, i32 0
  %56 = load %"struct.std::__1::__list_node_base.55"*, %"struct.std::__1::__list_node_base.55"** %55, align 8
  %57 = getelementptr inbounds %"struct.std::__1::__list_node_base.55", %"struct.std::__1::__list_node_base.55"* %56, i64 0, i32 1
  %58 = bitcast %"struct.std::__1::__list_node_base.55"** %57 to i64*
  %59 = load i64, i64* %58, align 8
  %60 = getelementptr inbounds %"struct.std::__1::__list_node_base.55", %"struct.std::__1::__list_node_base.55"* %53, i64 0, i32 0
  %61 = load %"struct.std::__1::__list_node_base.55"*, %"struct.std::__1::__list_node_base.55"** %60, align 8
  %62 = getelementptr inbounds %"struct.std::__1::__list_node_base.55", %"struct.std::__1::__list_node_base.55"* %61, i64 0, i32 1
  %63 = bitcast %"struct.std::__1::__list_node_base.55"** %62 to i64*
  store i64 %59, i64* %63, align 8
  %64 = bitcast %"struct.std::__1::__list_node_base.55"* %53 to i64*
  %65 = load i64, i64* %64, align 8
  %66 = bitcast %"struct.std::__1::__list_node_base.55"** %57 to i64**
  %67 = load i64*, i64** %66, align 8
  store i64 %65, i64* %67, align 8
  store i64 0, i64* %48, align 8
  %68 = icmp eq %"struct.std::__1::__list_node_base.55"* %53, %54
  br i1 %68, label %75, label %69

69:                                               ; preds = %51, %69
  %70 = phi %"struct.std::__1::__list_node_base.55"* [ %72, %69 ], [ %53, %51 ]
  %71 = getelementptr inbounds %"struct.std::__1::__list_node_base.55", %"struct.std::__1::__list_node_base.55"* %70, i64 0, i32 1
  %72 = load %"struct.std::__1::__list_node_base.55"*, %"struct.std::__1::__list_node_base.55"** %71, align 8
  %73 = bitcast %"struct.std::__1::__list_node_base.55"* %70 to i8*
  tail call void @_ZdlPv(i8* %73) #13
  %74 = icmp eq %"struct.std::__1::__list_node_base.55"* %72, %54
  br i1 %74, label %75, label %69

75:                                               ; preds = %69, %46, %51
  %76 = getelementptr inbounds %"class.webrtc::UlpfecGenerator", %"class.webrtc::UlpfecGenerator"* %0, i64 0, i32 9
  store i32 0, i32* %76, align 8
  %77 = getelementptr inbounds %"class.webrtc::UlpfecGenerator", %"class.webrtc::UlpfecGenerator"* %0, i64 0, i32 12
  store i8 0, i8* %77, align 8
  ret void
}

; Function Attrs: nounwind ssp uwtable
define hidden i32 @_ZNK6webrtc15UlpfecGenerator8OverheadEv(%"class.webrtc::UlpfecGenerator"* nocapture readonly) local_unnamed_addr #2 align 2 {
  %2 = getelementptr inbounds %"class.webrtc::UlpfecGenerator", %"class.webrtc::UlpfecGenerator"* %0, i64 0, i32 6, i32 0, i32 1, i32 0, i32 0
  %3 = load i64, i64* %2, align 8
  %4 = trunc i64 %3 to i32
  %5 = getelementptr inbounds %"class.webrtc::UlpfecGenerator", %"class.webrtc::UlpfecGenerator"* %0, i64 0, i32 12
  %6 = load i8, i8* %5, align 8, !range !2
  %7 = icmp eq i8 %6, 0
  %8 = getelementptr inbounds %"class.webrtc::UlpfecGenerator", %"class.webrtc::UlpfecGenerator"* %0, i64 0, i32 11, i32 1
  %9 = getelementptr inbounds %"class.webrtc::UlpfecGenerator", %"class.webrtc::UlpfecGenerator"* %0, i64 0, i32 11, i32 0
  %10 = select i1 %7, %"struct.webrtc::FecProtectionParams"* %9, %"struct.webrtc::FecProtectionParams"* %8
  %11 = getelementptr inbounds %"struct.webrtc::FecProtectionParams", %"struct.webrtc::FecProtectionParams"* %10, i64 0, i32 0
  %12 = load i32, i32* %11, align 4
  %13 = tail call i32 @_ZN6webrtc22ForwardErrorCorrection13NumFecPacketsEii(i32 %4, i32 %12) #12
  %14 = shl i32 %13, 8
  %15 = sext i32 %14 to i64
  %16 = load i64, i64* %2, align 8
  %17 = udiv i64 %15, %16
  %18 = trunc i64 %17 to i32
  ret i32 %18
}

; Function Attrs: nounwind ssp uwtable
define hidden i64 @_ZNK6webrtc15UlpfecGenerator17MaxPacketOverheadEv(%"class.webrtc::UlpfecGenerator"* nocapture readonly) unnamed_addr #2 align 2 {
  %2 = getelementptr inbounds %"class.webrtc::UlpfecGenerator", %"class.webrtc::UlpfecGenerator"* %0, i64 0, i32 5, i32 0, i32 0, i32 0
  %3 = load %"class.webrtc::ForwardErrorCorrection"*, %"class.webrtc::ForwardErrorCorrection"** %2, align 8
  %4 = tail call i64 @_ZNK6webrtc22ForwardErrorCorrection17MaxPacketOverheadEv(%"class.webrtc::ForwardErrorCorrection"* %3) #12
  ret i64 %4
}

declare i64 @_ZNK6webrtc22ForwardErrorCorrection17MaxPacketOverheadEv(%"class.webrtc::ForwardErrorCorrection"*) local_unnamed_addr #3

; Function Attrs: nounwind ssp uwtable
define hidden void @_ZN6webrtc15UlpfecGenerator13GetFecPacketsEv(%"class.std::__1::vector.79"* noalias nocapture sret, %"class.webrtc::UlpfecGenerator"*) unnamed_addr #2 align 2 {
  %3 = alloca %"class.std::__1::vector.79", align 8
  %4 = alloca %"class.std::__1::unique_ptr.81", align 8
  %5 = getelementptr inbounds %"class.webrtc::UlpfecGenerator", %"class.webrtc::UlpfecGenerator"* %1, i64 0, i32 8, i32 0, i32 1, i32 0, i32 0
  %6 = load i64, i64* %5, align 8
  %7 = icmp eq i64 %6, 0
  br i1 %7, label %8, label %10

8:                                                ; preds = %2
  %9 = bitcast %"class.std::__1::vector.79"* %0 to i8*
  tail call void @llvm.memset.p0i8.i64(i8* align 8 %9, i8 0, i64 24, i1 false) #12
  br label %162

10:                                               ; preds = %2
  %11 = getelementptr inbounds %"class.webrtc::UlpfecGenerator", %"class.webrtc::UlpfecGenerator"* %1, i64 0, i32 7, i32 0, i32 0, i32 0, i32 0
  %12 = load i8, i8* %11, align 8, !range !2
  %13 = icmp eq i8 %12, 0
  br i1 %13, label %14, label %15

14:                                               ; preds = %10
  tail call void (i8*, i32, i8*, i8*, ...) @_ZN3rtc18webrtc_checks_impl8FatalLogEPKciS2_PKNS0_12CheckArgTypeEz(i8* getelementptr inbounds ([69 x i8], [69 x i8]* @.str, i64 0, i64 0), i32 209, i8* getelementptr inbounds ([31 x i8], [31 x i8]* @.str.1, i64 0, i64 0), i8* getelementptr inbounds ([1 x i8], [1 x i8]* @_ZZN3rtc18webrtc_checks_impl11LogStreamerIJEE4CallIJEEEvPKciS5_DpRKT_E1t, i64 0, i64 0)) #14
  unreachable

15:                                               ; preds = %10
  %16 = getelementptr inbounds %"class.webrtc::UlpfecGenerator", %"class.webrtc::UlpfecGenerator"* %1, i64 0, i32 7, i32 0, i32 0, i32 0, i32 2, i32 0
  %17 = getelementptr inbounds %"class.webrtc::RtpPacketToSend", %"class.webrtc::RtpPacketToSend"* %16, i64 0, i32 0
  %18 = tail call i8* @_ZN6webrtc9RtpPacket14SetPayloadSizeEm(%"class.webrtc::RtpPacket"* %17, i64 0) #12
  %19 = bitcast %"class.std::__1::vector.79"* %3 to i8*
  call void @llvm.lifetime.start.p0i8(i64 24, i8* nonnull %19) #12
  %20 = getelementptr inbounds %"class.std::__1::vector.79", %"class.std::__1::vector.79"* %3, i64 0, i32 0, i32 0
  %21 = getelementptr inbounds %"class.std::__1::vector.79", %"class.std::__1::vector.79"* %3, i64 0, i32 0, i32 1
  %22 = getelementptr inbounds %"class.std::__1::vector.79", %"class.std::__1::vector.79"* %3, i64 0, i32 0, i32 2, i32 0, i32 0
  call void @llvm.memset.p0i8.i64(i8* nonnull align 8 %19, i8 0, i64 24, i1 false) #12
  %23 = load i64, i64* %5, align 8
  call void @_ZNSt3__16vectorINS_10unique_ptrIN6webrtc15RtpPacketToSendENS_14default_deleteIS3_EEEENS_9allocatorIS6_EEE7reserveEm(%"class.std::__1::vector.79"* nonnull %3, i64 %23)
  %24 = getelementptr inbounds %"class.webrtc::UlpfecGenerator", %"class.webrtc::UlpfecGenerator"* %1, i64 0, i32 8, i32 0, i32 0, i32 1
  %25 = getelementptr inbounds %"class.webrtc::UlpfecGenerator", %"class.webrtc::UlpfecGenerator"* %1, i64 0, i32 8, i32 0, i32 0
  %26 = bitcast %"struct.std::__1::__list_node_base.55"** %24 to i64*
  %27 = load i64, i64* %26, align 8
  %28 = inttoptr i64 %27 to %"struct.std::__1::__list_node_base.55"*
  %29 = icmp eq %"struct.std::__1::__list_node_base.55"* %25, %28
  br i1 %29, label %30, label %32

30:                                               ; preds = %15
  %31 = bitcast %"class.std::__1::unique_ptr.81"** %21 to i64*
  br label %39

32:                                               ; preds = %15
  %33 = bitcast %"class.std::__1::unique_ptr.81"* %4 to i8*
  %34 = getelementptr inbounds %"class.std::__1::unique_ptr.81", %"class.std::__1::unique_ptr.81"* %4, i64 0, i32 0, i32 0, i32 0
  %35 = bitcast %"class.std::__1::unique_ptr.81"* %4 to i8**
  %36 = getelementptr inbounds %"class.webrtc::UlpfecGenerator", %"class.webrtc::UlpfecGenerator"* %1, i64 0, i32 1
  %37 = getelementptr inbounds %"class.webrtc::UlpfecGenerator", %"class.webrtc::UlpfecGenerator"* %1, i64 0, i32 2
  %38 = bitcast %"class.std::__1::unique_ptr.81"** %21 to i64*
  br label %87

39:                                               ; preds = %156, %30
  %40 = phi i64* [ %31, %30 ], [ %38, %156 ]
  %41 = phi i64 [ 0, %30 ], [ %136, %156 ]
  call void @_ZN6webrtc15UlpfecGenerator10ResetStateEv(%"class.webrtc::UlpfecGenerator"* %1)
  %42 = getelementptr inbounds %"class.webrtc::UlpfecGenerator", %"class.webrtc::UlpfecGenerator"* %1, i64 0, i32 13, i32 0, i32 0
  %43 = call i32 @pthread_mutex_lock(%union.pthread_mutex_t* %42) #12
  %44 = getelementptr inbounds %"class.webrtc::UlpfecGenerator", %"class.webrtc::UlpfecGenerator"* %1, i64 0, i32 15
  %45 = getelementptr inbounds %"class.webrtc::UlpfecGenerator", %"class.webrtc::UlpfecGenerator"* %1, i64 0, i32 3
  %46 = load %"class.webrtc::Clock"*, %"class.webrtc::Clock"** %45, align 8
  %47 = bitcast %"class.webrtc::Clock"* %46 to i64 (%"class.webrtc::Clock"*)***
  %48 = load i64 (%"class.webrtc::Clock"*)**, i64 (%"class.webrtc::Clock"*)*** %47, align 8
  %49 = getelementptr inbounds i64 (%"class.webrtc::Clock"*)*, i64 (%"class.webrtc::Clock"*)** %48, i64 2
  %50 = load i64 (%"class.webrtc::Clock"*)*, i64 (%"class.webrtc::Clock"*)** %49, align 8
  %51 = call i64 %50(%"class.webrtc::Clock"* %46) #12
  %52 = add nsw i64 %51, 500
  %53 = sdiv i64 %52, 1000
  call void @_ZN6webrtc14RateStatistics6UpdateEll(%"class.webrtc::RateStatistics"* %44, i64 %41, i64 %53) #12
  %54 = bitcast %"class.std::__1::vector.79"* %3 to i64*
  %55 = load i64, i64* %54, align 8
  %56 = bitcast %"class.std::__1::vector.79"* %0 to i64*
  store i64 %55, i64* %56, align 8
  %57 = load i64, i64* %40, align 8
  %58 = getelementptr inbounds %"class.std::__1::vector.79", %"class.std::__1::vector.79"* %0, i64 0, i32 0, i32 1
  %59 = bitcast %"class.std::__1::unique_ptr.81"** %58 to i64*
  store i64 %57, i64* %59, align 8
  %60 = bitcast %"class.std::__1::unique_ptr.81"** %22 to i64*
  %61 = load i64, i64* %60, align 8
  %62 = getelementptr inbounds %"class.std::__1::vector.79", %"class.std::__1::vector.79"* %0, i64 0, i32 0, i32 2, i32 0, i32 0
  %63 = bitcast %"class.std::__1::unique_ptr.81"** %62 to i64*
  store i64 %61, i64* %63, align 8
  call void @llvm.memset.p0i8.i64(i8* nonnull align 8 %19, i8 0, i64 24, i1 false) #12
  %64 = call i32 @pthread_mutex_unlock(%union.pthread_mutex_t* %42) #12
  %65 = load %"class.std::__1::unique_ptr.81"*, %"class.std::__1::unique_ptr.81"** %20, align 8
  %66 = icmp eq %"class.std::__1::unique_ptr.81"* %65, null
  br i1 %66, label %86, label %67

67:                                               ; preds = %39
  %68 = bitcast %"class.std::__1::unique_ptr.81"* %65 to i8*
  %69 = load %"class.std::__1::unique_ptr.81"*, %"class.std::__1::unique_ptr.81"** %21, align 8
  %70 = icmp eq %"class.std::__1::unique_ptr.81"* %69, %65
  br i1 %70, label %84, label %71

71:                                               ; preds = %67, %79
  %72 = phi %"class.std::__1::unique_ptr.81"* [ %73, %79 ], [ %69, %67 ]
  %73 = getelementptr inbounds %"class.std::__1::unique_ptr.81", %"class.std::__1::unique_ptr.81"* %72, i64 -1
  %74 = getelementptr inbounds %"class.std::__1::unique_ptr.81", %"class.std::__1::unique_ptr.81"* %73, i64 0, i32 0, i32 0, i32 0
  %75 = load %"class.webrtc::RtpPacketToSend"*, %"class.webrtc::RtpPacketToSend"** %74, align 8
  store %"class.webrtc::RtpPacketToSend"* null, %"class.webrtc::RtpPacketToSend"** %74, align 8
  %76 = icmp eq %"class.webrtc::RtpPacketToSend"* %75, null
  br i1 %76, label %79, label %77

77:                                               ; preds = %71
  call void @_ZN6webrtc15RtpPacketToSendD1Ev(%"class.webrtc::RtpPacketToSend"* nonnull %75) #12
  %78 = getelementptr inbounds %"class.webrtc::RtpPacketToSend", %"class.webrtc::RtpPacketToSend"* %75, i64 0, i32 0, i32 0
  call void @_ZdlPv(i8* %78) #13
  br label %79

79:                                               ; preds = %77, %71
  %80 = icmp eq %"class.std::__1::unique_ptr.81"* %73, %65
  br i1 %80, label %81, label %71

81:                                               ; preds = %79
  %82 = bitcast %"class.std::__1::vector.79"* %3 to i8**
  %83 = load i8*, i8** %82, align 8
  br label %84

84:                                               ; preds = %81, %67
  %85 = phi i8* [ %83, %81 ], [ %68, %67 ]
  store %"class.std::__1::unique_ptr.81"* %65, %"class.std::__1::unique_ptr.81"** %21, align 8
  call void @_ZdlPv(i8* %85) #13
  br label %86

86:                                               ; preds = %39, %84
  call void @llvm.lifetime.end.p0i8(i64 24, i8* nonnull %19) #12
  br label %162

87:                                               ; preds = %32, %156
  %88 = phi %"struct.std::__1::__list_node_base.55"* [ %28, %32 ], [ %160, %156 ]
  %89 = phi i64 [ %27, %32 ], [ %159, %156 ]
  %90 = phi i64 [ 0, %32 ], [ %136, %156 ]
  %91 = inttoptr i64 %89 to %"struct.std::__1::__list_node"*
  %92 = getelementptr inbounds %"struct.std::__1::__list_node", %"struct.std::__1::__list_node"* %91, i64 0, i32 1
  %93 = load %"class.webrtc::ForwardErrorCorrection::Packet"*, %"class.webrtc::ForwardErrorCorrection::Packet"** %92, align 8
  call void @llvm.lifetime.start.p0i8(i64 8, i8* nonnull %33) #12
  store %"class.webrtc::RtpPacketToSend"* inttoptr (i64 -6148914691236517206 to %"class.webrtc::RtpPacketToSend"*), %"class.webrtc::RtpPacketToSend"** %34, align 8
  %94 = load i8, i8* %11, align 8, !range !2
  %95 = icmp eq i8 %94, 0
  br i1 %95, label %96, label %97, !prof !6

96:                                               ; preds = %87
  call void @llvm.trap() #12
  unreachable

97:                                               ; preds = %87
  %98 = call i8* @_Znwm(i64 160) #13
  %99 = bitcast i8* %98 to %"class.webrtc::RtpPacketToSend"*
  call void @_ZN6webrtc15RtpPacketToSendC1ERKS0_(%"class.webrtc::RtpPacketToSend"* nonnull %99, %"class.webrtc::RtpPacketToSend"* dereferenceable(160) %16) #12
  store i8* %98, i8** %35, align 8
  %100 = bitcast i8* %98 to %"class.webrtc::RtpPacket"*
  %101 = load i32, i32* %36, align 8
  %102 = trunc i32 %101 to i8
  call void @_ZN6webrtc9RtpPacket14SetPayloadTypeEh(%"class.webrtc::RtpPacket"* nonnull %100, i8 zeroext %102) #12
  %103 = load %"class.webrtc::RtpPacketToSend"*, %"class.webrtc::RtpPacketToSend"** %34, align 8
  %104 = getelementptr inbounds %"class.webrtc::RtpPacketToSend", %"class.webrtc::RtpPacketToSend"* %103, i64 0, i32 0
  call void @_ZN6webrtc9RtpPacket9SetMarkerEb(%"class.webrtc::RtpPacket"* %104, i1 zeroext false) #12
  %105 = load %"class.webrtc::RtpPacketToSend"*, %"class.webrtc::RtpPacketToSend"** %34, align 8
  %106 = getelementptr inbounds %"class.webrtc::RtpPacketToSend", %"class.webrtc::RtpPacketToSend"* %105, i64 0, i32 0
  %107 = getelementptr inbounds %"class.webrtc::ForwardErrorCorrection::Packet", %"class.webrtc::ForwardErrorCorrection::Packet"* %93, i64 0, i32 1, i32 2
  %108 = load i64, i64* %107, align 8
  %109 = add i64 %108, 1
  %110 = call i8* @_ZN6webrtc9RtpPacket14SetPayloadSizeEm(%"class.webrtc::RtpPacket"* %106, i64 %109) #12
  %111 = load i32, i32* %37, align 4
  %112 = trunc i32 %111 to i8
  store i8 %112, i8* %110, align 1
  %113 = getelementptr inbounds i8, i8* %110, i64 1
  %114 = getelementptr inbounds %"class.webrtc::ForwardErrorCorrection::Packet", %"class.webrtc::ForwardErrorCorrection::Packet"* %93, i64 0, i32 1, i32 0, i32 0
  %115 = load %"class.rtc::FinalRefCountedObject"*, %"class.rtc::FinalRefCountedObject"** %114, align 8
  %116 = icmp eq %"class.rtc::FinalRefCountedObject"* %115, null
  br i1 %116, label %123, label %117

117:                                              ; preds = %97
  %118 = getelementptr inbounds %"class.rtc::FinalRefCountedObject", %"class.rtc::FinalRefCountedObject"* %115, i64 0, i32 0, i32 2, i32 0, i32 0, i32 0
  %119 = load i8*, i8** %118, align 8
  %120 = getelementptr inbounds %"class.webrtc::ForwardErrorCorrection::Packet", %"class.webrtc::ForwardErrorCorrection::Packet"* %93, i64 0, i32 1, i32 1
  %121 = load i64, i64* %120, align 8
  %122 = getelementptr inbounds i8, i8* %119, i64 %121
  br label %123

123:                                              ; preds = %97, %117
  %124 = phi i8* [ %122, %117 ], [ null, %97 ]
  %125 = load i64, i64* %107, align 8
  call void @llvm.memcpy.p0i8.p0i8.i64(i8* align 1 %113, i8* align 1 %124, i64 %125, i1 false)
  %126 = load %"class.webrtc::RtpPacketToSend"*, %"class.webrtc::RtpPacketToSend"** %34, align 8
  %127 = getelementptr inbounds %"class.webrtc::RtpPacketToSend", %"class.webrtc::RtpPacketToSend"* %126, i64 0, i32 0, i32 6
  %128 = load i64, i64* %127, align 8
  %129 = getelementptr inbounds %"class.webrtc::RtpPacketToSend", %"class.webrtc::RtpPacketToSend"* %126, i64 0, i32 0, i32 7
  %130 = load i64, i64* %129, align 8
  %131 = getelementptr inbounds %"class.webrtc::RtpPacketToSend", %"class.webrtc::RtpPacketToSend"* %126, i64 0, i32 0, i32 2
  %132 = load i8, i8* %131, align 2
  %133 = zext i8 %132 to i64
  %134 = add i64 %128, %90
  %135 = add i64 %134, %130
  %136 = add i64 %135, %133
  %137 = getelementptr inbounds %"class.webrtc::RtpPacketToSend", %"class.webrtc::RtpPacketToSend"* %126, i64 0, i32 2, i32 0, i32 0, i32 0, i32 0
  store i8 1, i8* %137, align 8
  %138 = getelementptr inbounds %"class.webrtc::RtpPacketToSend", %"class.webrtc::RtpPacketToSend"* %126, i64 0, i32 2, i32 0, i32 0, i32 0, i32 1, i32 0
  store i64 3, i64* %138, align 8
  %139 = getelementptr inbounds %"class.webrtc::RtpPacketToSend", %"class.webrtc::RtpPacketToSend"* %126, i64 0, i32 3
  store i8 0, i8* %139, align 8
  %140 = getelementptr inbounds %"class.webrtc::RtpPacketToSend", %"class.webrtc::RtpPacketToSend"* %126, i64 0, i32 11
  store i8 1, i8* %140, align 1
  %141 = getelementptr inbounds %"class.webrtc::RtpPacketToSend", %"class.webrtc::RtpPacketToSend"* %126, i64 0, i32 10
  store i8 0, i8* %141, align 2
  %142 = load %"class.std::__1::unique_ptr.81"*, %"class.std::__1::unique_ptr.81"** %21, align 8
  %143 = load %"class.std::__1::unique_ptr.81"*, %"class.std::__1::unique_ptr.81"** %22, align 8
  %144 = icmp ult %"class.std::__1::unique_ptr.81"* %142, %143
  br i1 %144, label %145, label %150

145:                                              ; preds = %123
  %146 = ptrtoint %"class.webrtc::RtpPacketToSend"* %126 to i64
  store %"class.webrtc::RtpPacketToSend"* null, %"class.webrtc::RtpPacketToSend"** %34, align 8
  %147 = bitcast %"class.std::__1::unique_ptr.81"* %142 to i64*
  store i64 %146, i64* %147, align 8
  %148 = getelementptr inbounds %"class.std::__1::unique_ptr.81", %"class.std::__1::unique_ptr.81"* %142, i64 1
  %149 = ptrtoint %"class.std::__1::unique_ptr.81"* %148 to i64
  store i64 %149, i64* %38, align 8
  br label %151

150:                                              ; preds = %123
  call void @_ZNSt3__16vectorINS_10unique_ptrIN6webrtc15RtpPacketToSendENS_14default_deleteIS3_EEEENS_9allocatorIS6_EEE21__push_back_slow_pathIS6_EEvOT_(%"class.std::__1::vector.79"* nonnull %3, %"class.std::__1::unique_ptr.81"* nonnull dereferenceable(8) %4) #12
  br label %151

151:                                              ; preds = %145, %150
  %152 = load %"class.webrtc::RtpPacketToSend"*, %"class.webrtc::RtpPacketToSend"** %34, align 8
  store %"class.webrtc::RtpPacketToSend"* null, %"class.webrtc::RtpPacketToSend"** %34, align 8
  %153 = icmp eq %"class.webrtc::RtpPacketToSend"* %152, null
  br i1 %153, label %156, label %154

154:                                              ; preds = %151
  call void @_ZN6webrtc15RtpPacketToSendD1Ev(%"class.webrtc::RtpPacketToSend"* nonnull %152) #12
  %155 = getelementptr inbounds %"class.webrtc::RtpPacketToSend", %"class.webrtc::RtpPacketToSend"* %152, i64 0, i32 0, i32 0
  call void @_ZdlPv(i8* %155) #13
  br label %156

156:                                              ; preds = %151, %154
  call void @llvm.lifetime.end.p0i8(i64 8, i8* nonnull %33) #12
  %157 = getelementptr inbounds %"struct.std::__1::__list_node_base.55", %"struct.std::__1::__list_node_base.55"* %88, i64 0, i32 1
  %158 = bitcast %"struct.std::__1::__list_node_base.55"** %157 to i64*
  %159 = load i64, i64* %158, align 8
  %160 = inttoptr i64 %159 to %"struct.std::__1::__list_node_base.55"*
  %161 = icmp eq %"struct.std::__1::__list_node_base.55"* %25, %160
  br i1 %161, label %39, label %87

162:                                              ; preds = %86, %8
  ret void
}

declare i8* @_ZN6webrtc9RtpPacket14SetPayloadSizeEm(%"class.webrtc::RtpPacket"*, i64) local_unnamed_addr #3

; Function Attrs: nounwind ssp uwtable
define linkonce_odr hidden void @_ZNSt3__16vectorINS_10unique_ptrIN6webrtc15RtpPacketToSendENS_14default_deleteIS3_EEEENS_9allocatorIS6_EEE7reserveEm(%"class.std::__1::vector.79"*, i64) local_unnamed_addr #2 comdat align 2 {
  %3 = getelementptr inbounds %"class.std::__1::vector.79", %"class.std::__1::vector.79"* %0, i64 0, i32 0, i32 2, i32 0, i32 0
  %4 = bitcast %"class.std::__1::unique_ptr.81"** %3 to i64*
  %5 = load i64, i64* %4, align 8
  %6 = bitcast %"class.std::__1::vector.79"* %0 to i64*
  %7 = load i64, i64* %6, align 8
  %8 = sub i64 %5, %7
  %9 = ashr exact i64 %8, 3
  %10 = icmp ult i64 %9, %1
  %11 = inttoptr i64 %7 to %"class.std::__1::unique_ptr.81"*
  br i1 %10, label %12, label %132

12:                                               ; preds = %2
  %13 = getelementptr inbounds %"class.std::__1::vector.79", %"class.std::__1::vector.79"* %0, i64 0, i32 0, i32 1
  %14 = bitcast %"class.std::__1::unique_ptr.81"** %13 to i64*
  %15 = icmp ugt i64 %1, 2305843009213693951
  br i1 %15, label %16, label %17

16:                                               ; preds = %12
  tail call void @abort() #14
  unreachable

17:                                               ; preds = %12
  %18 = load i64, i64* %14, align 8
  %19 = sub i64 %18, %7
  %20 = ashr exact i64 %19, 3
  %21 = shl i64 %1, 3
  %22 = tail call i8* @_Znwm(i64 %21) #13
  %23 = bitcast i8* %22 to %"class.std::__1::unique_ptr.81"*
  %24 = getelementptr inbounds %"class.std::__1::unique_ptr.81", %"class.std::__1::unique_ptr.81"* %23, i64 %20
  %25 = ptrtoint %"class.std::__1::unique_ptr.81"* %24 to i64
  %26 = getelementptr inbounds %"class.std::__1::unique_ptr.81", %"class.std::__1::unique_ptr.81"* %23, i64 %1
  %27 = ptrtoint %"class.std::__1::unique_ptr.81"* %26 to i64
  %28 = inttoptr i64 %18 to %"class.std::__1::unique_ptr.81"*
  %29 = icmp eq %"class.std::__1::unique_ptr.81"* %28, %11
  br i1 %29, label %57, label %30

30:                                               ; preds = %17
  %31 = getelementptr %"class.std::__1::unique_ptr.81", %"class.std::__1::unique_ptr.81"* %28, i64 -1, i32 0, i32 0, i32 0
  %32 = bitcast %"class.webrtc::RtpPacketToSend"** %31 to i8*
  %33 = sub i64 0, %7
  %34 = getelementptr i8, i8* %32, i64 %33
  %35 = ptrtoint i8* %34 to i64
  %36 = lshr i64 %35, 3
  %37 = add nuw nsw i64 %36, 1
  %38 = and i64 %37, 7
  %39 = icmp eq i64 %38, 0
  br i1 %39, label %52, label %40

40:                                               ; preds = %30, %40
  %41 = phi %"class.std::__1::unique_ptr.81"* [ %44, %40 ], [ %24, %30 ]
  %42 = phi %"class.std::__1::unique_ptr.81"* [ %45, %40 ], [ %28, %30 ]
  %43 = phi i64 [ %50, %40 ], [ %38, %30 ]
  %44 = getelementptr inbounds %"class.std::__1::unique_ptr.81", %"class.std::__1::unique_ptr.81"* %41, i64 -1
  %45 = getelementptr inbounds %"class.std::__1::unique_ptr.81", %"class.std::__1::unique_ptr.81"* %42, i64 -1
  %46 = getelementptr inbounds %"class.std::__1::unique_ptr.81", %"class.std::__1::unique_ptr.81"* %45, i64 0, i32 0, i32 0, i32 0
  %47 = bitcast %"class.std::__1::unique_ptr.81"* %45 to i64*
  %48 = load i64, i64* %47, align 8
  store %"class.webrtc::RtpPacketToSend"* null, %"class.webrtc::RtpPacketToSend"** %46, align 8
  %49 = bitcast %"class.std::__1::unique_ptr.81"* %44 to i64*
  store i64 %48, i64* %49, align 8
  %50 = add i64 %43, -1
  %51 = icmp eq i64 %50, 0
  br i1 %51, label %52, label %40, !llvm.loop !7

52:                                               ; preds = %40, %30
  %53 = phi %"class.std::__1::unique_ptr.81"* [ undef, %30 ], [ %44, %40 ]
  %54 = phi %"class.std::__1::unique_ptr.81"* [ %24, %30 ], [ %44, %40 ]
  %55 = phi %"class.std::__1::unique_ptr.81"* [ %28, %30 ], [ %45, %40 ]
  %56 = icmp ult i8* %34, inttoptr (i64 56 to i8*)
  br i1 %56, label %110, label %58

57:                                               ; preds = %17
  store i64 %25, i64* %6, align 8
  store i64 %25, i64* %14, align 8
  store i64 %27, i64* %4, align 8
  br label %127

58:                                               ; preds = %52, %58
  %59 = phi %"class.std::__1::unique_ptr.81"* [ %103, %58 ], [ %54, %52 ]
  %60 = phi %"class.std::__1::unique_ptr.81"* [ %104, %58 ], [ %55, %52 ]
  %61 = getelementptr inbounds %"class.std::__1::unique_ptr.81", %"class.std::__1::unique_ptr.81"* %59, i64 -1
  %62 = getelementptr inbounds %"class.std::__1::unique_ptr.81", %"class.std::__1::unique_ptr.81"* %60, i64 -1
  %63 = getelementptr inbounds %"class.std::__1::unique_ptr.81", %"class.std::__1::unique_ptr.81"* %62, i64 0, i32 0, i32 0, i32 0
  %64 = bitcast %"class.std::__1::unique_ptr.81"* %62 to i64*
  %65 = load i64, i64* %64, align 8
  store %"class.webrtc::RtpPacketToSend"* null, %"class.webrtc::RtpPacketToSend"** %63, align 8
  %66 = bitcast %"class.std::__1::unique_ptr.81"* %61 to i64*
  store i64 %65, i64* %66, align 8
  %67 = getelementptr inbounds %"class.std::__1::unique_ptr.81", %"class.std::__1::unique_ptr.81"* %59, i64 -2
  %68 = getelementptr inbounds %"class.std::__1::unique_ptr.81", %"class.std::__1::unique_ptr.81"* %60, i64 -2
  %69 = getelementptr inbounds %"class.std::__1::unique_ptr.81", %"class.std::__1::unique_ptr.81"* %68, i64 0, i32 0, i32 0, i32 0
  %70 = bitcast %"class.std::__1::unique_ptr.81"* %68 to i64*
  %71 = load i64, i64* %70, align 8
  store %"class.webrtc::RtpPacketToSend"* null, %"class.webrtc::RtpPacketToSend"** %69, align 8
  %72 = bitcast %"class.std::__1::unique_ptr.81"* %67 to i64*
  store i64 %71, i64* %72, align 8
  %73 = getelementptr inbounds %"class.std::__1::unique_ptr.81", %"class.std::__1::unique_ptr.81"* %59, i64 -3
  %74 = getelementptr inbounds %"class.std::__1::unique_ptr.81", %"class.std::__1::unique_ptr.81"* %60, i64 -3
  %75 = getelementptr inbounds %"class.std::__1::unique_ptr.81", %"class.std::__1::unique_ptr.81"* %74, i64 0, i32 0, i32 0, i32 0
  %76 = bitcast %"class.std::__1::unique_ptr.81"* %74 to i64*
  %77 = load i64, i64* %76, align 8
  store %"class.webrtc::RtpPacketToSend"* null, %"class.webrtc::RtpPacketToSend"** %75, align 8
  %78 = bitcast %"class.std::__1::unique_ptr.81"* %73 to i64*
  store i64 %77, i64* %78, align 8
  %79 = getelementptr inbounds %"class.std::__1::unique_ptr.81", %"class.std::__1::unique_ptr.81"* %59, i64 -4
  %80 = getelementptr inbounds %"class.std::__1::unique_ptr.81", %"class.std::__1::unique_ptr.81"* %60, i64 -4
  %81 = getelementptr inbounds %"class.std::__1::unique_ptr.81", %"class.std::__1::unique_ptr.81"* %80, i64 0, i32 0, i32 0, i32 0
  %82 = bitcast %"class.std::__1::unique_ptr.81"* %80 to i64*
  %83 = load i64, i64* %82, align 8
  store %"class.webrtc::RtpPacketToSend"* null, %"class.webrtc::RtpPacketToSend"** %81, align 8
  %84 = bitcast %"class.std::__1::unique_ptr.81"* %79 to i64*
  store i64 %83, i64* %84, align 8
  %85 = getelementptr inbounds %"class.std::__1::unique_ptr.81", %"class.std::__1::unique_ptr.81"* %59, i64 -5
  %86 = getelementptr inbounds %"class.std::__1::unique_ptr.81", %"class.std::__1::unique_ptr.81"* %60, i64 -5
  %87 = getelementptr inbounds %"class.std::__1::unique_ptr.81", %"class.std::__1::unique_ptr.81"* %86, i64 0, i32 0, i32 0, i32 0
  %88 = bitcast %"class.std::__1::unique_ptr.81"* %86 to i64*
  %89 = load i64, i64* %88, align 8
  store %"class.webrtc::RtpPacketToSend"* null, %"class.webrtc::RtpPacketToSend"** %87, align 8
  %90 = bitcast %"class.std::__1::unique_ptr.81"* %85 to i64*
  store i64 %89, i64* %90, align 8
  %91 = getelementptr inbounds %"class.std::__1::unique_ptr.81", %"class.std::__1::unique_ptr.81"* %59, i64 -6
  %92 = getelementptr inbounds %"class.std::__1::unique_ptr.81", %"class.std::__1::unique_ptr.81"* %60, i64 -6
  %93 = getelementptr inbounds %"class.std::__1::unique_ptr.81", %"class.std::__1::unique_ptr.81"* %92, i64 0, i32 0, i32 0, i32 0
  %94 = bitcast %"class.std::__1::unique_ptr.81"* %92 to i64*
  %95 = load i64, i64* %94, align 8
  store %"class.webrtc::RtpPacketToSend"* null, %"class.webrtc::RtpPacketToSend"** %93, align 8
  %96 = bitcast %"class.std::__1::unique_ptr.81"* %91 to i64*
  store i64 %95, i64* %96, align 8
  %97 = getelementptr inbounds %"class.std::__1::unique_ptr.81", %"class.std::__1::unique_ptr.81"* %59, i64 -7
  %98 = getelementptr inbounds %"class.std::__1::unique_ptr.81", %"class.std::__1::unique_ptr.81"* %60, i64 -7
  %99 = getelementptr inbounds %"class.std::__1::unique_ptr.81", %"class.std::__1::unique_ptr.81"* %98, i64 0, i32 0, i32 0, i32 0
  %100 = bitcast %"class.std::__1::unique_ptr.81"* %98 to i64*
  %101 = load i64, i64* %100, align 8
  store %"class.webrtc::RtpPacketToSend"* null, %"class.webrtc::RtpPacketToSend"** %99, align 8
  %102 = bitcast %"class.std::__1::unique_ptr.81"* %97 to i64*
  store i64 %101, i64* %102, align 8
  %103 = getelementptr inbounds %"class.std::__1::unique_ptr.81", %"class.std::__1::unique_ptr.81"* %59, i64 -8
  %104 = getelementptr inbounds %"class.std::__1::unique_ptr.81", %"class.std::__1::unique_ptr.81"* %60, i64 -8
  %105 = getelementptr inbounds %"class.std::__1::unique_ptr.81", %"class.std::__1::unique_ptr.81"* %104, i64 0, i32 0, i32 0, i32 0
  %106 = bitcast %"class.std::__1::unique_ptr.81"* %104 to i64*
  %107 = load i64, i64* %106, align 8
  store %"class.webrtc::RtpPacketToSend"* null, %"class.webrtc::RtpPacketToSend"** %105, align 8
  %108 = bitcast %"class.std::__1::unique_ptr.81"* %103 to i64*
  store i64 %107, i64* %108, align 8
  %109 = icmp eq %"class.std::__1::unique_ptr.81"* %104, %11
  br i1 %109, label %110, label %58

110:                                              ; preds = %58, %52
  %111 = phi %"class.std::__1::unique_ptr.81"* [ %53, %52 ], [ %103, %58 ]
  %112 = ptrtoint %"class.std::__1::unique_ptr.81"* %111 to i64
  %113 = load i64, i64* %6, align 8
  %114 = load %"class.std::__1::unique_ptr.81"*, %"class.std::__1::unique_ptr.81"** %13, align 8
  %115 = inttoptr i64 %113 to %"class.std::__1::unique_ptr.81"*
  store i64 %112, i64* %6, align 8
  store i64 %25, i64* %14, align 8
  store i64 %27, i64* %4, align 8
  %116 = icmp eq %"class.std::__1::unique_ptr.81"* %114, %115
  br i1 %116, label %127, label %117

117:                                              ; preds = %110, %125
  %118 = phi %"class.std::__1::unique_ptr.81"* [ %119, %125 ], [ %114, %110 ]
  %119 = getelementptr inbounds %"class.std::__1::unique_ptr.81", %"class.std::__1::unique_ptr.81"* %118, i64 -1
  %120 = getelementptr inbounds %"class.std::__1::unique_ptr.81", %"class.std::__1::unique_ptr.81"* %119, i64 0, i32 0, i32 0, i32 0
  %121 = load %"class.webrtc::RtpPacketToSend"*, %"class.webrtc::RtpPacketToSend"** %120, align 8
  store %"class.webrtc::RtpPacketToSend"* null, %"class.webrtc::RtpPacketToSend"** %120, align 8
  %122 = icmp eq %"class.webrtc::RtpPacketToSend"* %121, null
  br i1 %122, label %125, label %123

123:                                              ; preds = %117
  tail call void @_ZN6webrtc15RtpPacketToSendD1Ev(%"class.webrtc::RtpPacketToSend"* nonnull %121) #12
  %124 = getelementptr inbounds %"class.webrtc::RtpPacketToSend", %"class.webrtc::RtpPacketToSend"* %121, i64 0, i32 0, i32 0
  tail call void @_ZdlPv(i8* %124) #13
  br label %125

125:                                              ; preds = %123, %117
  %126 = icmp eq %"class.std::__1::unique_ptr.81"* %119, %115
  br i1 %126, label %127, label %117

127:                                              ; preds = %125, %57, %110
  %128 = phi i64 [ %7, %57 ], [ %113, %110 ], [ %113, %125 ]
  %129 = icmp eq i64 %128, 0
  br i1 %129, label %132, label %130

130:                                              ; preds = %127
  %131 = inttoptr i64 %128 to i8*
  tail call void @_ZdlPv(i8* %131) #13
  br label %132

132:                                              ; preds = %130, %127, %2
  ret void
}

declare void @_ZN6webrtc9RtpPacket14SetPayloadTypeEh(%"class.webrtc::RtpPacket"*, i8 zeroext) local_unnamed_addr #3

declare void @_ZN6webrtc9RtpPacket9SetMarkerEb(%"class.webrtc::RtpPacket"*, i1 zeroext) local_unnamed_addr #3

declare void @_ZN6webrtc14RateStatistics6UpdateEll(%"class.webrtc::RateStatistics"*, i64, i64) local_unnamed_addr #3

; Function Attrs: nounwind ssp uwtable
define hidden i64 @_ZNK6webrtc15UlpfecGenerator14CurrentFecRateEv(%"class.webrtc::UlpfecGenerator"*) unnamed_addr #2 align 2 {
  %2 = getelementptr inbounds %"class.webrtc::UlpfecGenerator", %"class.webrtc::UlpfecGenerator"* %0, i64 0, i32 13, i32 0, i32 0
  %3 = tail call i32 @pthread_mutex_lock(%union.pthread_mutex_t* %2) #12
  %4 = getelementptr inbounds %"class.webrtc::UlpfecGenerator", %"class.webrtc::UlpfecGenerator"* %0, i64 0, i32 15
  %5 = getelementptr inbounds %"class.webrtc::UlpfecGenerator", %"class.webrtc::UlpfecGenerator"* %0, i64 0, i32 3
  %6 = load %"class.webrtc::Clock"*, %"class.webrtc::Clock"** %5, align 8
  %7 = bitcast %"class.webrtc::Clock"* %6 to i64 (%"class.webrtc::Clock"*)***
  %8 = load i64 (%"class.webrtc::Clock"*)**, i64 (%"class.webrtc::Clock"*)*** %7, align 8
  %9 = getelementptr inbounds i64 (%"class.webrtc::Clock"*)*, i64 (%"class.webrtc::Clock"*)** %8, i64 2
  %10 = load i64 (%"class.webrtc::Clock"*)*, i64 (%"class.webrtc::Clock"*)** %9, align 8
  %11 = tail call i64 %10(%"class.webrtc::Clock"* %6) #12
  %12 = add nsw i64 %11, 500
  %13 = sdiv i64 %12, 1000
  %14 = tail call { i8, i64 } @_ZNK6webrtc14RateStatistics4RateEl(%"class.webrtc::RateStatistics"* %4, i64 %13) #12
  %15 = extractvalue { i8, i64 } %14, 0
  %16 = extractvalue { i8, i64 } %14, 1
  %17 = icmp eq i8 %15, 0
  %18 = select i1 %17, i64 0, i64 %16
  %19 = tail call i32 @pthread_mutex_unlock(%union.pthread_mutex_t* %2) #12
  ret i64 %18
}

declare { i8, i64 } @_ZNK6webrtc14RateStatistics4RateEl(%"class.webrtc::RateStatistics"*, i64) local_unnamed_addr #3

declare i32 @_ZN6webrtc22ForwardErrorCorrection13NumFecPacketsEii(i32, i32) local_unnamed_addr #3

; Function Attrs: nounwind ssp uwtable
define linkonce_odr hidden i32 @_ZNK6webrtc15UlpfecGenerator10GetFecTypeEv(%"class.webrtc::UlpfecGenerator"*) unnamed_addr #2 comdat align 2 {
  ret i32 1
}

; Function Attrs: nounwind ssp uwtable
define linkonce_odr hidden i64 @_ZN6webrtc15UlpfecGenerator7FecSsrcEv(%"class.webrtc::UlpfecGenerator"*) unnamed_addr #2 comdat align 2 {
  ret i64 0
}

; Function Attrs: nounwind ssp uwtable
define linkonce_odr hidden void @_ZN6webrtc15UlpfecGenerator11GetRtpStateEv(%"class.absl::optional.102"* noalias sret, %"class.webrtc::UlpfecGenerator"*) unnamed_addr #2 comdat align 2 {
  %3 = getelementptr inbounds %"class.absl::optional.102", %"class.absl::optional.102"* %0, i64 0, i32 0, i32 0, i32 0, i32 0
  store i8 0, i8* %3, align 8
  %4 = getelementptr inbounds %"class.absl::optional.102", %"class.absl::optional.102"* %0, i64 0, i32 0, i32 0, i32 0, i32 2
  %5 = bitcast %union.anon.106* %4 to i8*
  tail call void @llvm.memset.p0i8.i64(i8* align 8 %5, i8 0, i64 40, i1 false) #12
  ret void
}

; Function Attrs: cold noreturn nounwind
declare void @llvm.trap() #7

; Function Attrs: argmemonly nounwind
declare void @llvm.memset.p0i8.i64(i8* nocapture writeonly, i8, i64, i1 immarg) #1

; Function Attrs: nounwind
declare i32 @pthread_mutexattr_init(%union.pthread_mutexattr_t*) local_unnamed_addr #4

; Function Attrs: nounwind
declare i32 @pthread_mutex_init(%union.pthread_mutex_t*, %union.pthread_mutexattr_t*) local_unnamed_addr #4

; Function Attrs: nounwind
declare i32 @pthread_mutexattr_destroy(%union.pthread_mutexattr_t*) local_unnamed_addr #4

; Function Attrs: nounwind
declare i32 @pthread_mutex_destroy(%union.pthread_mutex_t*) local_unnamed_addr #4

; Function Attrs: nounwind
declare void @_ZN6webrtc15RtpPacketToSendD1Ev(%"class.webrtc::RtpPacketToSend"*) unnamed_addr #4

; Function Attrs: nounwind
declare i32 @pthread_mutex_lock(%union.pthread_mutex_t*) local_unnamed_addr #4

; Function Attrs: nounwind
declare i32 @pthread_mutex_unlock(%union.pthread_mutex_t*) local_unnamed_addr #4

declare void @_ZN3rtc17CopyOnWriteBufferC1ERKS0_(%"class.rtc::CopyOnWriteBuffer"*, %"class.rtc::CopyOnWriteBuffer"* dereferenceable(24)) unnamed_addr #3

; Function Attrs: nobuiltin nounwind
declare void @_ZdaPv(i8*) local_unnamed_addr #5

; Function Attrs: noreturn
declare void @_ZN3rtc18webrtc_checks_impl8FatalLogEPKciS2_PKNS0_12CheckArgTypeEz(i8*, i32, i8*, i8*, ...) local_unnamed_addr #8

; Function Attrs: nounwind
declare void @_ZN6webrtc22ForwardErrorCorrectionD1Ev(%"class.webrtc::ForwardErrorCorrection"*) unnamed_addr #4

; Function Attrs: nobuiltin nofree
declare noalias nonnull i8* @_Znwm(i64) local_unnamed_addr #9

declare void @_ZN6webrtc22ForwardErrorCorrection6PacketC1Ev(%"class.webrtc::ForwardErrorCorrection::Packet"*) unnamed_addr #3

; Function Attrs: noreturn nounwind
declare void @abort() local_unnamed_addr #10

declare dereferenceable(160) %"class.webrtc::RtpPacketToSend"* @_ZN6webrtc15RtpPacketToSendaSERKS0_(%"class.webrtc::RtpPacketToSend"*, %"class.webrtc::RtpPacketToSend"* dereferenceable(160)) local_unnamed_addr #3

declare void @_ZN6webrtc15RtpPacketToSendC1ERKS0_(%"class.webrtc::RtpPacketToSend"*, %"class.webrtc::RtpPacketToSend"* dereferenceable(160)) unnamed_addr #3

; Function Attrs: inlinehint nounwind ssp uwtable
define linkonce_odr hidden void @_ZNSt3__16vectorINS_10unique_ptrIN6webrtc15RtpPacketToSendENS_14default_deleteIS3_EEEENS_9allocatorIS6_EEE21__push_back_slow_pathIS6_EEvOT_(%"class.std::__1::vector.79"*, %"class.std::__1::unique_ptr.81"* dereferenceable(8)) local_unnamed_addr #11 comdat align 2 {
  %3 = getelementptr inbounds %"class.std::__1::vector.79", %"class.std::__1::vector.79"* %0, i64 0, i32 0, i32 1
  %4 = bitcast %"class.std::__1::unique_ptr.81"** %3 to i64*
  %5 = load i64, i64* %4, align 8
  %6 = bitcast %"class.std::__1::vector.79"* %0 to i64*
  %7 = load i64, i64* %6, align 8
  %8 = sub i64 %5, %7
  %9 = ashr exact i64 %8, 3
  %10 = add nsw i64 %9, 1
  %11 = icmp ugt i64 %10, 2305843009213693951
  br i1 %11, label %12, label %14

12:                                               ; preds = %2
  %13 = bitcast %"class.std::__1::vector.79"* %0 to %"class.std::__1::__vector_base_common"*
  tail call void @_ZNKSt3__120__vector_base_commonILb1EE20__throw_length_errorEv(%"class.std::__1::__vector_base_common"* %13) #14
  unreachable

14:                                               ; preds = %2
  %15 = getelementptr inbounds %"class.std::__1::vector.79", %"class.std::__1::vector.79"* %0, i64 0, i32 0, i32 2, i32 0, i32 0
  %16 = bitcast %"class.std::__1::unique_ptr.81"** %15 to i64*
  %17 = load i64, i64* %16, align 8
  %18 = sub i64 %17, %7
  %19 = ashr exact i64 %18, 3
  %20 = icmp ult i64 %19, 1152921504606846975
  br i1 %20, label %21, label %29

21:                                               ; preds = %14
  %22 = ashr exact i64 %18, 2
  %23 = icmp ult i64 %22, %10
  %24 = select i1 %23, i64 %10, i64 %22
  %25 = icmp eq i64 %24, 0
  br i1 %25, label %34, label %26

26:                                               ; preds = %21
  %27 = icmp ugt i64 %24, 2305843009213693951
  br i1 %27, label %28, label %29

28:                                               ; preds = %26
  tail call void @abort() #14
  unreachable

29:                                               ; preds = %14, %26
  %30 = phi i64 [ %24, %26 ], [ 2305843009213693951, %14 ]
  %31 = shl i64 %30, 3
  %32 = tail call i8* @_Znwm(i64 %31) #13
  %33 = bitcast i8* %32 to %"class.std::__1::unique_ptr.81"*
  br label %34

34:                                               ; preds = %21, %29
  %35 = phi i64 [ %30, %29 ], [ 0, %21 ]
  %36 = phi %"class.std::__1::unique_ptr.81"* [ %33, %29 ], [ null, %21 ]
  %37 = getelementptr inbounds %"class.std::__1::unique_ptr.81", %"class.std::__1::unique_ptr.81"* %36, i64 %9
  %38 = getelementptr inbounds %"class.std::__1::unique_ptr.81", %"class.std::__1::unique_ptr.81"* %36, i64 %35
  %39 = ptrtoint %"class.std::__1::unique_ptr.81"* %38 to i64
  %40 = getelementptr inbounds %"class.std::__1::unique_ptr.81", %"class.std::__1::unique_ptr.81"* %1, i64 0, i32 0, i32 0, i32 0
  %41 = bitcast %"class.std::__1::unique_ptr.81"* %1 to i64*
  %42 = load i64, i64* %41, align 8
  store %"class.webrtc::RtpPacketToSend"* null, %"class.webrtc::RtpPacketToSend"** %40, align 8
  %43 = bitcast %"class.std::__1::unique_ptr.81"* %37 to i64*
  store i64 %42, i64* %43, align 8
  %44 = getelementptr inbounds %"class.std::__1::unique_ptr.81", %"class.std::__1::unique_ptr.81"* %37, i64 1
  %45 = ptrtoint %"class.std::__1::unique_ptr.81"* %44 to i64
  %46 = getelementptr inbounds %"class.std::__1::vector.79", %"class.std::__1::vector.79"* %0, i64 0, i32 0, i32 0
  %47 = load %"class.std::__1::unique_ptr.81"*, %"class.std::__1::unique_ptr.81"** %46, align 8
  %48 = ptrtoint %"class.std::__1::unique_ptr.81"* %47 to i64
  %49 = load %"class.std::__1::unique_ptr.81"*, %"class.std::__1::unique_ptr.81"** %3, align 8
  %50 = icmp eq %"class.std::__1::unique_ptr.81"* %49, %47
  br i1 %50, label %132, label %51

51:                                               ; preds = %34
  %52 = getelementptr %"class.std::__1::unique_ptr.81", %"class.std::__1::unique_ptr.81"* %49, i64 -1, i32 0, i32 0, i32 0
  %53 = ptrtoint %"class.webrtc::RtpPacketToSend"** %52 to i64
  %54 = sub i64 %53, %48
  %55 = lshr i64 %54, 3
  %56 = add nuw nsw i64 %55, 1
  %57 = and i64 %56, 7
  %58 = icmp eq i64 %57, 0
  br i1 %58, label %71, label %59

59:                                               ; preds = %51, %59
  %60 = phi %"class.std::__1::unique_ptr.81"* [ %63, %59 ], [ %37, %51 ]
  %61 = phi %"class.std::__1::unique_ptr.81"* [ %64, %59 ], [ %49, %51 ]
  %62 = phi i64 [ %69, %59 ], [ %57, %51 ]
  %63 = getelementptr inbounds %"class.std::__1::unique_ptr.81", %"class.std::__1::unique_ptr.81"* %60, i64 -1
  %64 = getelementptr inbounds %"class.std::__1::unique_ptr.81", %"class.std::__1::unique_ptr.81"* %61, i64 -1
  %65 = getelementptr inbounds %"class.std::__1::unique_ptr.81", %"class.std::__1::unique_ptr.81"* %64, i64 0, i32 0, i32 0, i32 0
  %66 = bitcast %"class.std::__1::unique_ptr.81"* %64 to i64*
  %67 = load i64, i64* %66, align 8
  store %"class.webrtc::RtpPacketToSend"* null, %"class.webrtc::RtpPacketToSend"** %65, align 8
  %68 = bitcast %"class.std::__1::unique_ptr.81"* %63 to i64*
  store i64 %67, i64* %68, align 8
  %69 = add i64 %62, -1
  %70 = icmp eq i64 %69, 0
  br i1 %70, label %71, label %59, !llvm.loop !9

71:                                               ; preds = %59, %51
  %72 = phi %"class.std::__1::unique_ptr.81"* [ undef, %51 ], [ %63, %59 ]
  %73 = phi %"class.std::__1::unique_ptr.81"* [ %37, %51 ], [ %63, %59 ]
  %74 = phi %"class.std::__1::unique_ptr.81"* [ %49, %51 ], [ %64, %59 ]
  %75 = icmp ult i64 %54, 56
  br i1 %75, label %128, label %76

76:                                               ; preds = %71, %76
  %77 = phi %"class.std::__1::unique_ptr.81"* [ %121, %76 ], [ %73, %71 ]
  %78 = phi %"class.std::__1::unique_ptr.81"* [ %122, %76 ], [ %74, %71 ]
  %79 = getelementptr inbounds %"class.std::__1::unique_ptr.81", %"class.std::__1::unique_ptr.81"* %77, i64 -1
  %80 = getelementptr inbounds %"class.std::__1::unique_ptr.81", %"class.std::__1::unique_ptr.81"* %78, i64 -1
  %81 = getelementptr inbounds %"class.std::__1::unique_ptr.81", %"class.std::__1::unique_ptr.81"* %80, i64 0, i32 0, i32 0, i32 0
  %82 = bitcast %"class.std::__1::unique_ptr.81"* %80 to i64*
  %83 = load i64, i64* %82, align 8
  store %"class.webrtc::RtpPacketToSend"* null, %"class.webrtc::RtpPacketToSend"** %81, align 8
  %84 = bitcast %"class.std::__1::unique_ptr.81"* %79 to i64*
  store i64 %83, i64* %84, align 8
  %85 = getelementptr inbounds %"class.std::__1::unique_ptr.81", %"class.std::__1::unique_ptr.81"* %77, i64 -2
  %86 = getelementptr inbounds %"class.std::__1::unique_ptr.81", %"class.std::__1::unique_ptr.81"* %78, i64 -2
  %87 = getelementptr inbounds %"class.std::__1::unique_ptr.81", %"class.std::__1::unique_ptr.81"* %86, i64 0, i32 0, i32 0, i32 0
  %88 = bitcast %"class.std::__1::unique_ptr.81"* %86 to i64*
  %89 = load i64, i64* %88, align 8
  store %"class.webrtc::RtpPacketToSend"* null, %"class.webrtc::RtpPacketToSend"** %87, align 8
  %90 = bitcast %"class.std::__1::unique_ptr.81"* %85 to i64*
  store i64 %89, i64* %90, align 8
  %91 = getelementptr inbounds %"class.std::__1::unique_ptr.81", %"class.std::__1::unique_ptr.81"* %77, i64 -3
  %92 = getelementptr inbounds %"class.std::__1::unique_ptr.81", %"class.std::__1::unique_ptr.81"* %78, i64 -3
  %93 = getelementptr inbounds %"class.std::__1::unique_ptr.81", %"class.std::__1::unique_ptr.81"* %92, i64 0, i32 0, i32 0, i32 0
  %94 = bitcast %"class.std::__1::unique_ptr.81"* %92 to i64*
  %95 = load i64, i64* %94, align 8
  store %"class.webrtc::RtpPacketToSend"* null, %"class.webrtc::RtpPacketToSend"** %93, align 8
  %96 = bitcast %"class.std::__1::unique_ptr.81"* %91 to i64*
  store i64 %95, i64* %96, align 8
  %97 = getelementptr inbounds %"class.std::__1::unique_ptr.81", %"class.std::__1::unique_ptr.81"* %77, i64 -4
  %98 = getelementptr inbounds %"class.std::__1::unique_ptr.81", %"class.std::__1::unique_ptr.81"* %78, i64 -4
  %99 = getelementptr inbounds %"class.std::__1::unique_ptr.81", %"class.std::__1::unique_ptr.81"* %98, i64 0, i32 0, i32 0, i32 0
  %100 = bitcast %"class.std::__1::unique_ptr.81"* %98 to i64*
  %101 = load i64, i64* %100, align 8
  store %"class.webrtc::RtpPacketToSend"* null, %"class.webrtc::RtpPacketToSend"** %99, align 8
  %102 = bitcast %"class.std::__1::unique_ptr.81"* %97 to i64*
  store i64 %101, i64* %102, align 8
  %103 = getelementptr inbounds %"class.std::__1::unique_ptr.81", %"class.std::__1::unique_ptr.81"* %77, i64 -5
  %104 = getelementptr inbounds %"class.std::__1::unique_ptr.81", %"class.std::__1::unique_ptr.81"* %78, i64 -5
  %105 = getelementptr inbounds %"class.std::__1::unique_ptr.81", %"class.std::__1::unique_ptr.81"* %104, i64 0, i32 0, i32 0, i32 0
  %106 = bitcast %"class.std::__1::unique_ptr.81"* %104 to i64*
  %107 = load i64, i64* %106, align 8
  store %"class.webrtc::RtpPacketToSend"* null, %"class.webrtc::RtpPacketToSend"** %105, align 8
  %108 = bitcast %"class.std::__1::unique_ptr.81"* %103 to i64*
  store i64 %107, i64* %108, align 8
  %109 = getelementptr inbounds %"class.std::__1::unique_ptr.81", %"class.std::__1::unique_ptr.81"* %77, i64 -6
  %110 = getelementptr inbounds %"class.std::__1::unique_ptr.81", %"class.std::__1::unique_ptr.81"* %78, i64 -6
  %111 = getelementptr inbounds %"class.std::__1::unique_ptr.81", %"class.std::__1::unique_ptr.81"* %110, i64 0, i32 0, i32 0, i32 0
  %112 = bitcast %"class.std::__1::unique_ptr.81"* %110 to i64*
  %113 = load i64, i64* %112, align 8
  store %"class.webrtc::RtpPacketToSend"* null, %"class.webrtc::RtpPacketToSend"** %111, align 8
  %114 = bitcast %"class.std::__1::unique_ptr.81"* %109 to i64*
  store i64 %113, i64* %114, align 8
  %115 = getelementptr inbounds %"class.std::__1::unique_ptr.81", %"class.std::__1::unique_ptr.81"* %77, i64 -7
  %116 = getelementptr inbounds %"class.std::__1::unique_ptr.81", %"class.std::__1::unique_ptr.81"* %78, i64 -7
  %117 = getelementptr inbounds %"class.std::__1::unique_ptr.81", %"class.std::__1::unique_ptr.81"* %116, i64 0, i32 0, i32 0, i32 0
  %118 = bitcast %"class.std::__1::unique_ptr.81"* %116 to i64*
  %119 = load i64, i64* %118, align 8
  store %"class.webrtc::RtpPacketToSend"* null, %"class.webrtc::RtpPacketToSend"** %117, align 8
  %120 = bitcast %"class.std::__1::unique_ptr.81"* %115 to i64*
  store i64 %119, i64* %120, align 8
  %121 = getelementptr inbounds %"class.std::__1::unique_ptr.81", %"class.std::__1::unique_ptr.81"* %77, i64 -8
  %122 = getelementptr inbounds %"class.std::__1::unique_ptr.81", %"class.std::__1::unique_ptr.81"* %78, i64 -8
  %123 = getelementptr inbounds %"class.std::__1::unique_ptr.81", %"class.std::__1::unique_ptr.81"* %122, i64 0, i32 0, i32 0, i32 0
  %124 = bitcast %"class.std::__1::unique_ptr.81"* %122 to i64*
  %125 = load i64, i64* %124, align 8
  store %"class.webrtc::RtpPacketToSend"* null, %"class.webrtc::RtpPacketToSend"** %123, align 8
  %126 = bitcast %"class.std::__1::unique_ptr.81"* %121 to i64*
  store i64 %125, i64* %126, align 8
  %127 = icmp eq %"class.std::__1::unique_ptr.81"* %122, %47
  br i1 %127, label %128, label %76

128:                                              ; preds = %76, %71
  %129 = phi %"class.std::__1::unique_ptr.81"* [ %72, %71 ], [ %121, %76 ]
  %130 = load i64, i64* %6, align 8
  %131 = load %"class.std::__1::unique_ptr.81"*, %"class.std::__1::unique_ptr.81"** %3, align 8
  br label %132

132:                                              ; preds = %34, %128
  %133 = phi %"class.std::__1::unique_ptr.81"* [ %131, %128 ], [ %47, %34 ]
  %134 = phi %"class.std::__1::unique_ptr.81"* [ %129, %128 ], [ %37, %34 ]
  %135 = phi i64 [ %130, %128 ], [ %48, %34 ]
  %136 = ptrtoint %"class.std::__1::unique_ptr.81"* %134 to i64
  store i64 %136, i64* %6, align 8
  store i64 %45, i64* %4, align 8
  store i64 %39, i64* %16, align 8
  %137 = inttoptr i64 %135 to %"class.std::__1::unique_ptr.81"*
  %138 = icmp eq %"class.std::__1::unique_ptr.81"* %133, %137
  br i1 %138, label %149, label %139

139:                                              ; preds = %132, %147
  %140 = phi %"class.std::__1::unique_ptr.81"* [ %141, %147 ], [ %133, %132 ]
  %141 = getelementptr inbounds %"class.std::__1::unique_ptr.81", %"class.std::__1::unique_ptr.81"* %140, i64 -1
  %142 = getelementptr inbounds %"class.std::__1::unique_ptr.81", %"class.std::__1::unique_ptr.81"* %141, i64 0, i32 0, i32 0, i32 0
  %143 = load %"class.webrtc::RtpPacketToSend"*, %"class.webrtc::RtpPacketToSend"** %142, align 8
  store %"class.webrtc::RtpPacketToSend"* null, %"class.webrtc::RtpPacketToSend"** %142, align 8
  %144 = icmp eq %"class.webrtc::RtpPacketToSend"* %143, null
  br i1 %144, label %147, label %145

145:                                              ; preds = %139
  tail call void @_ZN6webrtc15RtpPacketToSendD1Ev(%"class.webrtc::RtpPacketToSend"* nonnull %143) #12
  %146 = getelementptr inbounds %"class.webrtc::RtpPacketToSend", %"class.webrtc::RtpPacketToSend"* %143, i64 0, i32 0, i32 0
  tail call void @_ZdlPv(i8* %146) #13
  br label %147

147:                                              ; preds = %145, %139
  %148 = icmp eq %"class.std::__1::unique_ptr.81"* %141, %137
  br i1 %148, label %149, label %139

149:                                              ; preds = %147, %132
  %150 = icmp eq i64 %135, 0
  br i1 %150, label %153, label %151

151:                                              ; preds = %149
  %152 = inttoptr i64 %135 to i8*
  tail call void @_ZdlPv(i8* %152) #13
  br label %153

153:                                              ; preds = %149, %151
  ret void
}

; Function Attrs: noreturn
declare void @_ZNKSt3__120__vector_base_commonILb1EE20__throw_length_errorEv(%"class.std::__1::__vector_base_common"*) local_unnamed_addr #8

attributes #0 = { nofree norecurse nounwind ssp uwtable writeonly "correctly-rounded-divide-sqrt-fp-math"="false" "disable-tail-calls"="false" "less-precise-fpmad"="false" "min-legal-vector-width"="0" "no-frame-pointer-elim"="false" "no-frame-pointer-elim-non-leaf" "no-infs-fp-math"="false" "no-jump-tables"="false" "no-nans-fp-math"="false" "no-signed-zeros-fp-math"="false" "no-trapping-math"="false" "null-pointer-is-valid"="true" "stack-protector-buffer-size"="4" "target-cpu"="x86-64" "target-features"="+cx8,+fxsr,+mmx,+sse,+sse2,+sse3,+x87" "unsafe-fp-math"="false" "use-soft-float"="false" }
attributes #1 = { argmemonly nounwind }
attributes #2 = { nounwind ssp uwtable "correctly-rounded-divide-sqrt-fp-math"="false" "disable-tail-calls"="false" "less-precise-fpmad"="false" "min-legal-vector-width"="0" "no-frame-pointer-elim"="false" "no-frame-pointer-elim-non-leaf" "no-infs-fp-math"="false" "no-jump-tables"="false" "no-nans-fp-math"="false" "no-signed-zeros-fp-math"="false" "no-trapping-math"="false" "null-pointer-is-valid"="true" "stack-protector-buffer-size"="4" "target-cpu"="x86-64" "target-features"="+cx8,+fxsr,+mmx,+sse,+sse2,+sse3,+x87" "unsafe-fp-math"="false" "use-soft-float"="false" }
attributes #3 = { "correctly-rounded-divide-sqrt-fp-math"="false" "disable-tail-calls"="false" "less-precise-fpmad"="false" "no-frame-pointer-elim"="false" "no-frame-pointer-elim-non-leaf" "no-infs-fp-math"="false" "no-nans-fp-math"="false" "no-signed-zeros-fp-math"="false" "no-trapping-math"="false" "null-pointer-is-valid"="true" "stack-protector-buffer-size"="4" "target-cpu"="x86-64" "target-features"="+cx8,+fxsr,+mmx,+sse,+sse2,+sse3,+x87" "unsafe-fp-math"="false" "use-soft-float"="false" }
attributes #4 = { nounwind "correctly-rounded-divide-sqrt-fp-math"="false" "disable-tail-calls"="false" "less-precise-fpmad"="false" "no-frame-pointer-elim"="false" "no-frame-pointer-elim-non-leaf" "no-infs-fp-math"="false" "no-nans-fp-math"="false" "no-signed-zeros-fp-math"="false" "no-trapping-math"="false" "null-pointer-is-valid"="true" "stack-protector-buffer-size"="4" "target-cpu"="x86-64" "target-features"="+cx8,+fxsr,+mmx,+sse,+sse2,+sse3,+x87" "unsafe-fp-math"="false" "use-soft-float"="false" }
attributes #5 = { nobuiltin nounwind "correctly-rounded-divide-sqrt-fp-math"="false" "disable-tail-calls"="false" "less-precise-fpmad"="false" "no-frame-pointer-elim"="false" "no-frame-pointer-elim-non-leaf" "no-infs-fp-math"="false" "no-nans-fp-math"="false" "no-signed-zeros-fp-math"="false" "no-trapping-math"="false" "null-pointer-is-valid"="true" "stack-protector-buffer-size"="4" "target-cpu"="x86-64" "target-features"="+cx8,+fxsr,+mmx,+sse,+sse2,+sse3,+x87" "unsafe-fp-math"="false" "use-soft-float"="false" }
attributes #6 = { nounwind readonly ssp uwtable "correctly-rounded-divide-sqrt-fp-math"="false" "disable-tail-calls"="false" "less-precise-fpmad"="false" "min-legal-vector-width"="0" "no-frame-pointer-elim"="false" "no-frame-pointer-elim-non-leaf" "no-infs-fp-math"="false" "no-jump-tables"="false" "no-nans-fp-math"="false" "no-signed-zeros-fp-math"="false" "no-trapping-math"="false" "null-pointer-is-valid"="true" "stack-protector-buffer-size"="4" "target-cpu"="x86-64" "target-features"="+cx8,+fxsr,+mmx,+sse,+sse2,+sse3,+x87" "unsafe-fp-math"="false" "use-soft-float"="false" }
attributes #7 = { cold noreturn nounwind }
attributes #8 = { noreturn "correctly-rounded-divide-sqrt-fp-math"="false" "disable-tail-calls"="false" "less-precise-fpmad"="false" "no-frame-pointer-elim"="false" "no-frame-pointer-elim-non-leaf" "no-infs-fp-math"="false" "no-nans-fp-math"="false" "no-signed-zeros-fp-math"="false" "no-trapping-math"="false" "null-pointer-is-valid"="true" "stack-protector-buffer-size"="4" "target-cpu"="x86-64" "target-features"="+cx8,+fxsr,+mmx,+sse,+sse2,+sse3,+x87" "unsafe-fp-math"="false" "use-soft-float"="false" }
attributes #9 = { nobuiltin nofree "correctly-rounded-divide-sqrt-fp-math"="false" "disable-tail-calls"="false" "less-precise-fpmad"="false" "no-frame-pointer-elim"="false" "no-frame-pointer-elim-non-leaf" "no-infs-fp-math"="false" "no-nans-fp-math"="false" "no-signed-zeros-fp-math"="false" "no-trapping-math"="false" "null-pointer-is-valid"="true" "stack-protector-buffer-size"="4" "target-cpu"="x86-64" "target-features"="+cx8,+fxsr,+mmx,+sse,+sse2,+sse3,+x87" "unsafe-fp-math"="false" "use-soft-float"="false" }
attributes #10 = { noreturn nounwind "correctly-rounded-divide-sqrt-fp-math"="false" "disable-tail-calls"="false" "less-precise-fpmad"="false" "no-frame-pointer-elim"="false" "no-frame-pointer-elim-non-leaf" "no-infs-fp-math"="false" "no-nans-fp-math"="false" "no-signed-zeros-fp-math"="false" "no-trapping-math"="false" "null-pointer-is-valid"="true" "stack-protector-buffer-size"="4" "target-cpu"="x86-64" "target-features"="+cx8,+fxsr,+mmx,+sse,+sse2,+sse3,+x87" "unsafe-fp-math"="false" "use-soft-float"="false" }
attributes #11 = { inlinehint nounwind ssp uwtable "correctly-rounded-divide-sqrt-fp-math"="false" "disable-tail-calls"="false" "less-precise-fpmad"="false" "min-legal-vector-width"="0" "no-frame-pointer-elim"="false" "no-frame-pointer-elim-non-leaf" "no-infs-fp-math"="false" "no-jump-tables"="false" "no-nans-fp-math"="false" "no-signed-zeros-fp-math"="false" "no-trapping-math"="false" "null-pointer-is-valid"="true" "stack-protector-buffer-size"="4" "target-cpu"="x86-64" "target-features"="+cx8,+fxsr,+mmx,+sse,+sse2,+sse3,+x87" "unsafe-fp-math"="false" "use-soft-float"="false" }
attributes #12 = { nounwind }
attributes #13 = { builtin nounwind }
attributes #14 = { noreturn nounwind }

!llvm.module.flags = !{!0, !1}

!0 = !{i32 1, !"wchar_size", i32 4}
!1 = !{i32 7, !"PIC Level", i32 2}
!2 = !{i8 0, i8 2}
!3 = !{!4}
!4 = distinct !{!4, !5, !"_ZNSt3__14listINS_10unique_ptrIN6webrtc22ForwardErrorCorrection6PacketENS_14default_deleteIS4_EEEENS_9allocatorIS7_EEE15__allocate_nodeERNS8_INS_11__list_nodeIS7_PvEEEE: argument 0"}
!5 = distinct !{!5, !"_ZNSt3__14listINS_10unique_ptrIN6webrtc22ForwardErrorCorrection6PacketENS_14default_deleteIS4_EEEENS_9allocatorIS7_EEE15__allocate_nodeERNS8_INS_11__list_nodeIS7_PvEEEE"}
!6 = !{!"branch_weights", i32 1, i32 2000}
!7 = distinct !{!7, !8}
!8 = !{!"llvm.loop.unroll.disable"}
!9 = distinct !{!9, !8}
