; ModuleID = '../../third_party/icu/source/i18n/units_data.cpp'
source_filename = "../../third_party/icu/source/i18n/units_data.cpp"
target datalayout = "e-m:e-i64:64-f80:128-n8:16:32:64-S128"
target triple = "x86_64-unknown-linux-gnu"

%"class.icu_69::IFixedDecimal" = type { i32 (...)** }
%"class.icu_69::MaybeStackArray" = type <{ i8*, i32, i8, [40 x i8], [3 x i8] }>
%"class.icu_69::units::UnitPreferenceMetadata" = type { [8 x i8], %"class.icu_69::CharString", %"class.icu_69::CharString", %"class.icu_69::CharString", i32, i32 }
%"class.icu_69::CharString" = type { %"class.icu_69::MaybeStackArray", i32, [4 x i8] }
%"class.icu_69::StringPiece" = type <{ i8*, i32, [4 x i8] }>
%"class.icu_69::units::UnitPreferences" = type { %"class.icu_69::MaybeStackVector.1", %"class.icu_69::MaybeStackVector.4" }
%"class.icu_69::MaybeStackVector.1" = type { %"class.icu_69::MemoryPool.2" }
%"class.icu_69::MemoryPool.2" = type { i32, %"class.icu_69::MaybeStackArray.3" }
%"class.icu_69::MaybeStackArray.3" = type { %"class.icu_69::units::UnitPreferenceMetadata"**, i32, i8, [8 x %"class.icu_69::units::UnitPreferenceMetadata"*] }
%"class.icu_69::MaybeStackVector.4" = type { %"class.icu_69::MemoryPool.5" }
%"class.icu_69::MemoryPool.5" = type { i32, %"class.icu_69::MaybeStackArray.6" }
%"class.icu_69::MaybeStackArray.6" = type { %"struct.icu_69::units::UnitPreference"**, i32, i8, [8 x %"struct.icu_69::units::UnitPreference"*] }
%"struct.icu_69::units::UnitPreference" = type { [8 x i8], %"class.icu_69::CharString", double, %"class.icu_69::UnicodeString" }
%"class.icu_69::UnicodeString" = type { %"class.icu_69::Replaceable", %"union.icu_69::UnicodeString::StackBufferOrFields" }
%"class.icu_69::Replaceable" = type { %"class.icu_69::UObject" }
%"class.icu_69::UObject" = type { i32 (...)** }
%"union.icu_69::UnicodeString::StackBufferOrFields" = type { %struct.anon.7, [32 x i8] }
%struct.anon.7 = type { i16, i32, i32, i16* }
%"class.icu_69::MaybeStackVector" = type { %"class.icu_69::MemoryPool" }
%"class.icu_69::MemoryPool" = type { i32, %"class.icu_69::MaybeStackArray.0" }
%"class.icu_69::MaybeStackArray.0" = type { %"class.icu_69::units::ConversionRateInfo"**, i32, i8, [8 x %"class.icu_69::units::ConversionRateInfo"*] }
%"class.icu_69::units::ConversionRateInfo" = type { [8 x i8], %"class.icu_69::CharString", %"class.icu_69::CharString", %"class.icu_69::CharString", %"class.icu_69::CharString" }
%"class.icu_69::units::(anonymous namespace)::ConversionRateDataSink" = type { %"class.icu_69::ResourceSink", %"class.icu_69::MaybeStackVector"* }
%"class.icu_69::ResourceSink" = type { %"class.icu_69::UObject" }
%struct.UResourceBundle = type { i8*, %struct.UResourceDataEntry*, i8*, %struct.UResourceDataEntry*, i8*, %struct.ResourceData, [64 x i8], i32, i32, i8, i8, i32, i32, i32, i32 }
%struct.UResourceDataEntry = type { i8*, i8*, %struct.UResourceDataEntry*, %struct.UResourceDataEntry*, %struct.UResourceDataEntry*, %struct.ResourceData, [3 x i8], i32, i32 }
%struct.ResourceData = type { %struct.UDataMemory*, i32*, i16*, i8*, i32, i32, i16*, i32, i32, i8, i8, i8, i8 }
%struct.UDataMemory = type opaque
%"class.icu_69::units::ConversionRates" = type { %"class.icu_69::MaybeStackVector" }
%"class.icu_69::units::(anonymous namespace)::UnitPreferencesSink" = type { %"class.icu_69::ResourceSink", %"class.icu_69::MaybeStackVector.4"*, %"class.icu_69::MaybeStackVector.1"* }
%"class.icu_69::ResourceValue" = type { %"class.icu_69::UObject" }
%"class.icu_69::ConstChar16Ptr" = type { i16* }
%"class.icu_69::ResourceTable" = type { i16*, i32*, i16*, i32*, i32, [4 x i8], %"class.icu_69::ResourceTracer" }
%"class.icu_69::ResourceTracer" = type <{ %struct.UResourceBundle*, %"class.icu_69::ResourceTracer"*, i8*, i32, [4 x i8] }>
%"class.icu_69::ResourceArray" = type { i16*, i32*, i32, [4 x i8], %"class.icu_69::ResourceTracer" }
%"class.icu_69::number::impl::DecimalQuantity" = type <{ %"class.icu_69::IFixedDecimal", i8, [3 x i8], i32, i32, i8, i8, [2 x i8], double, i32, i32, i32, i32, %union.anon, i8, i8, [6 x i8] }>
%union.anon = type { %struct.anon.8 }
%struct.anon.8 = type { i8*, i32 }

$_ZN6icu_6915MaybeStackArrayIcLi40EEC5Ev = comdat any

$_ZN6icu_6915MaybeStackArrayIcLi40EEC5Ei10UErrorCode = comdat any

$_ZN6icu_6915MaybeStackArrayIcLi40EE6resizeEii = comdat any

$_ZN6icu_6915MaybeStackArrayIcLi40EED5Ev = comdat any

$_ZN6icu_6915MaybeStackArrayIcLi40EE12releaseArrayEv = comdat any

$_ZN6icu_6915MaybeStackArrayIcLi40EEC5EOS1_ = comdat any

$_ZN6icu_6915MaybeStackArrayIcLi40EE17resetToStackArrayEv = comdat any

$_ZN6icu_6915MaybeStackArrayIcLi40EEaSEOS1_ = comdat any

$_ZNK6icu_6915MaybeStackArrayIcLi40EE11getCapacityEv = comdat any

$_ZNK6icu_6915MaybeStackArrayIcLi40EE8getAliasEv = comdat any

$_ZNK6icu_6915MaybeStackArrayIcLi40EE13getArrayLimitEv = comdat any

$_ZNK6icu_6915MaybeStackArrayIcLi40EEixEl = comdat any

$_ZN6icu_6915MaybeStackArrayIcLi40EEixEl = comdat any

$_ZN6icu_6915MaybeStackArrayIcLi40EE12aliasInsteadEPci = comdat any

$_ZN6icu_6915MaybeStackArrayIcLi40EE13orphanOrCloneEiRi = comdat any

$_ZN6icu_6915MaybeStackArrayIcLi40EE8copyFromERKS1_R10UErrorCode = comdat any

$_ZN6icu_6910MemoryPoolINS_5units18ConversionRateInfoELi8EE6createIJEEEPS2_DpOT_ = comdat any

$_ZN6icu_6910MemoryPoolINS_5units22UnitPreferenceMetadataELi8EE6createIJRPKcS7_S7_RiS8_R10UErrorCodeEEEPS2_DpOT_ = comdat any

$_ZN6icu_6910MemoryPoolINS_5units14UnitPreferenceELi8EE6createIJEEEPS2_DpOT_ = comdat any

@.str = private unnamed_addr constant [6 x i8] c"units\00", align 1
@.str.1 = private unnamed_addr constant [13 x i8] c"convertUnits\00", align 1
@.str.2 = private unnamed_addr constant [19 x i8] c"unitPreferenceData\00", align 1
@_ZTVN6icu_695units12_GLOBAL__N_122ConversionRateDataSinkE = internal unnamed_addr constant { [6 x i8*] } { [6 x i8*] [i8* null, i8* bitcast ({ i8*, i8*, i8* }* @_ZTIN6icu_695units12_GLOBAL__N_122ConversionRateDataSinkE to i8*), i8* bitcast (void (%"class.icu_69::ResourceSink"*)* @_ZN6icu_6912ResourceSinkD2Ev to i8*), i8* bitcast (void (%"class.icu_69::units::(anonymous namespace)::ConversionRateDataSink"*)* @_ZN6icu_695units12_GLOBAL__N_122ConversionRateDataSinkD0Ev to i8*), i8* bitcast (i8* (%"class.icu_69::UObject"*)* @_ZNK6icu_697UObject17getDynamicClassIDEv to i8*), i8* bitcast (void (%"class.icu_69::units::(anonymous namespace)::ConversionRateDataSink"*, i8*, %"class.icu_69::ResourceValue"*, i8, i32*)* @_ZN6icu_695units12_GLOBAL__N_122ConversionRateDataSink3putEPKcRNS_13ResourceValueEaR10UErrorCode to i8*)] }, align 8
@_ZTVN10__cxxabiv120__si_class_type_infoE = external global i8*
@_ZTSN6icu_695units12_GLOBAL__N_122ConversionRateDataSinkE = internal constant [54 x i8] c"N6icu_695units12_GLOBAL__N_122ConversionRateDataSinkE\00", align 1
@_ZTIN6icu_6912ResourceSinkE = external constant i8*
@_ZTIN6icu_695units12_GLOBAL__N_122ConversionRateDataSinkE = internal constant { i8*, i8*, i8* } { i8* bitcast (i8** getelementptr inbounds (i8*, i8** @_ZTVN10__cxxabiv120__si_class_type_infoE, i64 2) to i8*), i8* getelementptr inbounds ([54 x i8], [54 x i8]* @_ZTSN6icu_695units12_GLOBAL__N_122ConversionRateDataSinkE, i32 0, i32 0), i8* bitcast (i8** @_ZTIN6icu_6912ResourceSinkE to i8*) }, align 8
@.str.3 = private unnamed_addr constant [7 x i8] c"target\00", align 1
@.str.4 = private unnamed_addr constant [7 x i8] c"factor\00", align 1
@.str.5 = private unnamed_addr constant [7 x i8] c"offset\00", align 1
@_ZTVN6icu_6913UnicodeStringE = external unnamed_addr constant { [13 x i8*] }, align 8
@_ZTVN6icu_695units12_GLOBAL__N_119UnitPreferencesSinkE = internal unnamed_addr constant { [6 x i8*] } { [6 x i8*] [i8* null, i8* bitcast ({ i8*, i8*, i8* }* @_ZTIN6icu_695units12_GLOBAL__N_119UnitPreferencesSinkE to i8*), i8* bitcast (void (%"class.icu_69::ResourceSink"*)* @_ZN6icu_6912ResourceSinkD2Ev to i8*), i8* bitcast (void (%"class.icu_69::units::(anonymous namespace)::UnitPreferencesSink"*)* @_ZN6icu_695units12_GLOBAL__N_119UnitPreferencesSinkD0Ev to i8*), i8* bitcast (i8* (%"class.icu_69::UObject"*)* @_ZNK6icu_697UObject17getDynamicClassIDEv to i8*), i8* bitcast (void (%"class.icu_69::units::(anonymous namespace)::UnitPreferencesSink"*, i8*, %"class.icu_69::ResourceValue"*, i8, i32*)* @_ZN6icu_695units12_GLOBAL__N_119UnitPreferencesSink3putEPKcRNS_13ResourceValueEaR10UErrorCode to i8*)] }, align 8
@_ZTSN6icu_695units12_GLOBAL__N_119UnitPreferencesSinkE = internal constant [51 x i8] c"N6icu_695units12_GLOBAL__N_119UnitPreferencesSinkE\00", align 1
@_ZTIN6icu_695units12_GLOBAL__N_119UnitPreferencesSinkE = internal constant { i8*, i8*, i8* } { i8* bitcast (i8** getelementptr inbounds (i8*, i8** @_ZTVN10__cxxabiv120__si_class_type_infoE, i64 2) to i8*), i8* getelementptr inbounds ([51 x i8], [51 x i8]* @_ZTSN6icu_695units12_GLOBAL__N_119UnitPreferencesSinkE, i32 0, i32 0), i8* bitcast (i8** @_ZTIN6icu_6912ResourceSinkE to i8*) }, align 8
@.str.6 = private unnamed_addr constant [5 x i8] c"unit\00", align 1
@.str.7 = private unnamed_addr constant [4 x i8] c"geq\00", align 1
@__const._ZN6icu_695units12_GLOBAL__N_119UnitPreferencesSink3putEPKcRNS_13ResourceValueEaR10UErrorCode.dq = private unnamed_addr constant <{ %"class.icu_69::IFixedDecimal", i8, [3 x i8], i32, i32, i8, i8, [2 x i8], double, i32, i32, i32, i32, { { i8*, i32, [4 x i8] } }, i8, i8, [6 x i8] }> <{ %"class.icu_69::IFixedDecimal" { i32 (...)** inttoptr (i64 -6148914691236517206 to i32 (...)**) }, i8 -86, [3 x i8] c"\AA\AA\AA", i32 -1431655766, i32 -1431655766, i8 -86, i8 -86, [2 x i8] c"\AA\AA", double 0xFFFFFFFFFFFFFFFF, i32 -1431655766, i32 -1431655766, i32 -1431655766, i32 -1431655766, { { i8*, i32, [4 x i8] } } { { i8*, i32, [4 x i8] } { i8* inttoptr (i64 -6148914691236517206 to i8*), i32 -1431655766, [4 x i8] c"\AA\AA\AA\AA" } }, i8 -86, i8 -86, [6 x i8] c"\AA\AA\AA\AA\AA\AA" }>, align 8
@.str.8 = private unnamed_addr constant [9 x i8] c"skeleton\00", align 1
@.str.9 = private unnamed_addr constant [8 x i8] c"default\00", align 1
@.str.10 = private unnamed_addr constant [4 x i8] c"001\00", align 1

@_ZN6icu_6915MaybeStackArrayIcLi40EEC1Ev = weak_odr hidden unnamed_addr alias void (%"class.icu_69::MaybeStackArray"*), void (%"class.icu_69::MaybeStackArray"*)* @_ZN6icu_6915MaybeStackArrayIcLi40EEC2Ev
@_ZN6icu_6915MaybeStackArrayIcLi40EEC1Ei10UErrorCode = weak_odr hidden unnamed_addr alias void (%"class.icu_69::MaybeStackArray"*, i32, i32), void (%"class.icu_69::MaybeStackArray"*, i32, i32)* @_ZN6icu_6915MaybeStackArrayIcLi40EEC2Ei10UErrorCode
@_ZN6icu_6915MaybeStackArrayIcLi40EED1Ev = weak_odr hidden unnamed_addr alias void (%"class.icu_69::MaybeStackArray"*), void (%"class.icu_69::MaybeStackArray"*)* @_ZN6icu_6915MaybeStackArrayIcLi40EED2Ev
@_ZN6icu_6915MaybeStackArrayIcLi40EEC1EOS1_ = weak_odr hidden unnamed_addr alias void (%"class.icu_69::MaybeStackArray"*, %"class.icu_69::MaybeStackArray"*), void (%"class.icu_69::MaybeStackArray"*, %"class.icu_69::MaybeStackArray"*)* @_ZN6icu_6915MaybeStackArrayIcLi40EEC2EOS1_
@_ZN6icu_695units22UnitPreferenceMetadataC1ENS_11StringPieceES2_S2_iiR10UErrorCode = hidden unnamed_addr alias void (%"class.icu_69::units::UnitPreferenceMetadata"*, i8*, i32, i8*, i32, %"class.icu_69::StringPiece"*, i32, i32, i32*), void (%"class.icu_69::units::UnitPreferenceMetadata"*, i8*, i32, i8*, i32, %"class.icu_69::StringPiece"*, i32, i32, i32*)* @_ZN6icu_695units22UnitPreferenceMetadataC2ENS_11StringPieceES2_S2_iiR10UErrorCode
@_ZN6icu_695units15UnitPreferencesC1ER10UErrorCode = hidden unnamed_addr alias void (%"class.icu_69::units::UnitPreferences"*, i32*), void (%"class.icu_69::units::UnitPreferences"*, i32*)* @_ZN6icu_695units15UnitPreferencesC2ER10UErrorCode

; Function Attrs: nounwind ssp uwtable
define weak_odr hidden void @_ZN6icu_6915MaybeStackArrayIcLi40EEC2Ev(%"class.icu_69::MaybeStackArray"*) unnamed_addr #0 comdat($_ZN6icu_6915MaybeStackArrayIcLi40EEC5Ev) align 2 {
  %2 = getelementptr inbounds %"class.icu_69::MaybeStackArray", %"class.icu_69::MaybeStackArray"* %0, i64 0, i32 0
  %3 = getelementptr inbounds %"class.icu_69::MaybeStackArray", %"class.icu_69::MaybeStackArray"* %0, i64 0, i32 3, i64 0
  store i8* %3, i8** %2, align 8
  %4 = getelementptr inbounds %"class.icu_69::MaybeStackArray", %"class.icu_69::MaybeStackArray"* %0, i64 0, i32 1
  store i32 40, i32* %4, align 8
  %5 = getelementptr inbounds %"class.icu_69::MaybeStackArray", %"class.icu_69::MaybeStackArray"* %0, i64 0, i32 2
  store i8 0, i8* %5, align 4
  ret void
}

; Function Attrs: nounwind ssp uwtable
define weak_odr hidden void @_ZN6icu_6915MaybeStackArrayIcLi40EEC2Ei10UErrorCode(%"class.icu_69::MaybeStackArray"*, i32, i32) unnamed_addr #0 comdat($_ZN6icu_6915MaybeStackArrayIcLi40EEC5Ei10UErrorCode) align 2 {
  %4 = getelementptr inbounds %"class.icu_69::MaybeStackArray", %"class.icu_69::MaybeStackArray"* %0, i64 0, i32 0
  %5 = getelementptr inbounds %"class.icu_69::MaybeStackArray", %"class.icu_69::MaybeStackArray"* %0, i64 0, i32 3, i64 0
  store i8* %5, i8** %4, align 8
  %6 = getelementptr inbounds %"class.icu_69::MaybeStackArray", %"class.icu_69::MaybeStackArray"* %0, i64 0, i32 1
  store i32 40, i32* %6, align 8
  %7 = getelementptr inbounds %"class.icu_69::MaybeStackArray", %"class.icu_69::MaybeStackArray"* %0, i64 0, i32 2
  store i8 0, i8* %7, align 4
  %8 = icmp slt i32 %2, 1
  %9 = icmp sgt i32 %1, 40
  %10 = and i1 %9, %8
  br i1 %10, label %11, label %21

11:                                               ; preds = %3
  %12 = sext i32 %1 to i64
  %13 = tail call noalias i8* @uprv_malloc_69(i64 %12) #9
  %14 = icmp eq i8* %13, null
  br i1 %14, label %21, label %15

15:                                               ; preds = %11
  %16 = load i8, i8* %7, align 4
  %17 = icmp eq i8 %16, 0
  br i1 %17, label %20, label %18

18:                                               ; preds = %15
  %19 = load i8*, i8** %4, align 8
  tail call void @uprv_free_69(i8* %19) #10
  br label %20

20:                                               ; preds = %18, %15
  store i8* %13, i8** %4, align 8
  store i32 %1, i32* %6, align 8
  store i8 1, i8* %7, align 4
  br label %21

21:                                               ; preds = %3, %11, %20
  ret void
}

; Function Attrs: inlinehint nounwind ssp uwtable
define weak_odr hidden i8* @_ZN6icu_6915MaybeStackArrayIcLi40EE6resizeEii(%"class.icu_69::MaybeStackArray"*, i32, i32) local_unnamed_addr #1 comdat align 2 {
  %4 = icmp sgt i32 %1, 0
  br i1 %4, label %5, label %31

5:                                                ; preds = %3
  %6 = sext i32 %1 to i64
  %7 = tail call noalias i8* @uprv_malloc_69(i64 %6) #9
  %8 = icmp eq i8* %7, null
  br i1 %8, label %31, label %9

9:                                                ; preds = %5
  %10 = icmp sgt i32 %2, 0
  br i1 %10, label %11, label %21

11:                                               ; preds = %9
  %12 = getelementptr inbounds %"class.icu_69::MaybeStackArray", %"class.icu_69::MaybeStackArray"* %0, i64 0, i32 1
  %13 = load i32, i32* %12, align 8
  %14 = icmp slt i32 %13, %2
  %15 = select i1 %14, i32 %13, i32 %2
  %16 = icmp sgt i32 %15, %1
  %17 = select i1 %16, i32 %1, i32 %15
  %18 = getelementptr inbounds %"class.icu_69::MaybeStackArray", %"class.icu_69::MaybeStackArray"* %0, i64 0, i32 0
  %19 = load i8*, i8** %18, align 8
  %20 = sext i32 %17 to i64
  tail call void @llvm.memcpy.p0i8.p0i8.i64(i8* nonnull align 1 %7, i8* align 1 %19, i64 %20, i1 false)
  br label %21

21:                                               ; preds = %11, %9
  %22 = getelementptr inbounds %"class.icu_69::MaybeStackArray", %"class.icu_69::MaybeStackArray"* %0, i64 0, i32 2
  %23 = load i8, i8* %22, align 4
  %24 = icmp eq i8 %23, 0
  br i1 %24, label %28, label %25

25:                                               ; preds = %21
  %26 = getelementptr inbounds %"class.icu_69::MaybeStackArray", %"class.icu_69::MaybeStackArray"* %0, i64 0, i32 0
  %27 = load i8*, i8** %26, align 8
  tail call void @uprv_free_69(i8* %27) #10
  br label %28

28:                                               ; preds = %21, %25
  %29 = getelementptr inbounds %"class.icu_69::MaybeStackArray", %"class.icu_69::MaybeStackArray"* %0, i64 0, i32 0
  store i8* %7, i8** %29, align 8
  %30 = getelementptr inbounds %"class.icu_69::MaybeStackArray", %"class.icu_69::MaybeStackArray"* %0, i64 0, i32 1
  store i32 %1, i32* %30, align 8
  store i8 1, i8* %22, align 4
  br label %31

31:                                               ; preds = %3, %28, %5
  %32 = phi i8* [ null, %5 ], [ %7, %28 ], [ null, %3 ]
  ret i8* %32
}

; Function Attrs: nounwind ssp uwtable
define weak_odr hidden void @_ZN6icu_6915MaybeStackArrayIcLi40EED2Ev(%"class.icu_69::MaybeStackArray"*) unnamed_addr #0 comdat($_ZN6icu_6915MaybeStackArrayIcLi40EED5Ev) align 2 {
  %2 = getelementptr inbounds %"class.icu_69::MaybeStackArray", %"class.icu_69::MaybeStackArray"* %0, i64 0, i32 2
  %3 = load i8, i8* %2, align 4
  %4 = icmp eq i8 %3, 0
  br i1 %4, label %8, label %5

5:                                                ; preds = %1
  %6 = getelementptr inbounds %"class.icu_69::MaybeStackArray", %"class.icu_69::MaybeStackArray"* %0, i64 0, i32 0
  %7 = load i8*, i8** %6, align 8
  tail call void @uprv_free_69(i8* %7) #10
  br label %8

8:                                                ; preds = %1, %5
  ret void
}

; Function Attrs: nounwind ssp uwtable
define weak_odr hidden void @_ZN6icu_6915MaybeStackArrayIcLi40EE12releaseArrayEv(%"class.icu_69::MaybeStackArray"*) local_unnamed_addr #0 comdat align 2 {
  %2 = getelementptr inbounds %"class.icu_69::MaybeStackArray", %"class.icu_69::MaybeStackArray"* %0, i64 0, i32 2
  %3 = load i8, i8* %2, align 4
  %4 = icmp eq i8 %3, 0
  br i1 %4, label %8, label %5

5:                                                ; preds = %1
  %6 = getelementptr inbounds %"class.icu_69::MaybeStackArray", %"class.icu_69::MaybeStackArray"* %0, i64 0, i32 0
  %7 = load i8*, i8** %6, align 8
  tail call void @uprv_free_69(i8* %7) #10
  br label %8

8:                                                ; preds = %1, %5
  ret void
}

; Function Attrs: nounwind ssp uwtable
define weak_odr hidden void @_ZN6icu_6915MaybeStackArrayIcLi40EEC2EOS1_(%"class.icu_69::MaybeStackArray"*, %"class.icu_69::MaybeStackArray"* dereferenceable(56)) unnamed_addr #0 comdat($_ZN6icu_6915MaybeStackArrayIcLi40EEC5EOS1_) align 2 {
  %3 = getelementptr inbounds %"class.icu_69::MaybeStackArray", %"class.icu_69::MaybeStackArray"* %1, i64 0, i32 0
  %4 = bitcast %"class.icu_69::MaybeStackArray"* %1 to i64*
  %5 = load i64, i64* %4, align 8
  %6 = bitcast %"class.icu_69::MaybeStackArray"* %0 to i64*
  store i64 %5, i64* %6, align 8
  %7 = getelementptr inbounds %"class.icu_69::MaybeStackArray", %"class.icu_69::MaybeStackArray"* %0, i64 0, i32 1
  %8 = getelementptr inbounds %"class.icu_69::MaybeStackArray", %"class.icu_69::MaybeStackArray"* %1, i64 0, i32 1
  %9 = load i32, i32* %8, align 8
  store i32 %9, i32* %7, align 8
  %10 = getelementptr inbounds %"class.icu_69::MaybeStackArray", %"class.icu_69::MaybeStackArray"* %0, i64 0, i32 2
  %11 = getelementptr inbounds %"class.icu_69::MaybeStackArray", %"class.icu_69::MaybeStackArray"* %1, i64 0, i32 2
  %12 = load i8, i8* %11, align 4
  store i8 %12, i8* %10, align 4
  %13 = load i8*, i8** %3, align 8
  %14 = getelementptr inbounds %"class.icu_69::MaybeStackArray", %"class.icu_69::MaybeStackArray"* %1, i64 0, i32 3, i64 0
  %15 = icmp eq i8* %13, %14
  br i1 %15, label %16, label %21

16:                                               ; preds = %2
  %17 = getelementptr inbounds %"class.icu_69::MaybeStackArray", %"class.icu_69::MaybeStackArray"* %0, i64 0, i32 0
  %18 = getelementptr inbounds %"class.icu_69::MaybeStackArray", %"class.icu_69::MaybeStackArray"* %0, i64 0, i32 3, i64 0
  store i8* %18, i8** %17, align 8
  %19 = load i32, i32* %8, align 8
  %20 = sext i32 %19 to i64
  tail call void @llvm.memcpy.p0i8.p0i8.i64(i8* align 1 %18, i8* align 1 %13, i64 %20, i1 false)
  br label %22

21:                                               ; preds = %2
  store i8* %14, i8** %3, align 8
  store i32 40, i32* %8, align 8
  store i8 0, i8* %11, align 4
  br label %22

22:                                               ; preds = %21, %16
  ret void
}

; Function Attrs: argmemonly nounwind
declare void @llvm.memcpy.p0i8.p0i8.i64(i8* nocapture writeonly, i8* nocapture readonly, i64, i1 immarg) #2

; Function Attrs: nounwind ssp uwtable
define weak_odr hidden void @_ZN6icu_6915MaybeStackArrayIcLi40EE17resetToStackArrayEv(%"class.icu_69::MaybeStackArray"*) local_unnamed_addr #0 comdat align 2 {
  %2 = getelementptr inbounds %"class.icu_69::MaybeStackArray", %"class.icu_69::MaybeStackArray"* %0, i64 0, i32 3, i64 0
  %3 = getelementptr inbounds %"class.icu_69::MaybeStackArray", %"class.icu_69::MaybeStackArray"* %0, i64 0, i32 0
  store i8* %2, i8** %3, align 8
  %4 = getelementptr inbounds %"class.icu_69::MaybeStackArray", %"class.icu_69::MaybeStackArray"* %0, i64 0, i32 1
  store i32 40, i32* %4, align 8
  %5 = getelementptr inbounds %"class.icu_69::MaybeStackArray", %"class.icu_69::MaybeStackArray"* %0, i64 0, i32 2
  store i8 0, i8* %5, align 4
  ret void
}

; Function Attrs: inlinehint nounwind ssp uwtable
define weak_odr hidden dereferenceable(56) %"class.icu_69::MaybeStackArray"* @_ZN6icu_6915MaybeStackArrayIcLi40EEaSEOS1_(%"class.icu_69::MaybeStackArray"*, %"class.icu_69::MaybeStackArray"* dereferenceable(56)) local_unnamed_addr #1 comdat align 2 {
  %3 = getelementptr inbounds %"class.icu_69::MaybeStackArray", %"class.icu_69::MaybeStackArray"* %0, i64 0, i32 2
  %4 = load i8, i8* %3, align 4
  %5 = icmp eq i8 %4, 0
  br i1 %5, label %9, label %6

6:                                                ; preds = %2
  %7 = getelementptr inbounds %"class.icu_69::MaybeStackArray", %"class.icu_69::MaybeStackArray"* %0, i64 0, i32 0
  %8 = load i8*, i8** %7, align 8
  tail call void @uprv_free_69(i8* %8) #10
  br label %9

9:                                                ; preds = %2, %6
  %10 = getelementptr inbounds %"class.icu_69::MaybeStackArray", %"class.icu_69::MaybeStackArray"* %1, i64 0, i32 1
  %11 = load i32, i32* %10, align 8
  %12 = getelementptr inbounds %"class.icu_69::MaybeStackArray", %"class.icu_69::MaybeStackArray"* %0, i64 0, i32 1
  store i32 %11, i32* %12, align 8
  %13 = getelementptr inbounds %"class.icu_69::MaybeStackArray", %"class.icu_69::MaybeStackArray"* %1, i64 0, i32 2
  %14 = load i8, i8* %13, align 4
  store i8 %14, i8* %3, align 4
  %15 = getelementptr inbounds %"class.icu_69::MaybeStackArray", %"class.icu_69::MaybeStackArray"* %1, i64 0, i32 0
  %16 = load i8*, i8** %15, align 8
  %17 = getelementptr inbounds %"class.icu_69::MaybeStackArray", %"class.icu_69::MaybeStackArray"* %1, i64 0, i32 3, i64 0
  %18 = icmp eq i8* %16, %17
  br i1 %18, label %19, label %24

19:                                               ; preds = %9
  %20 = getelementptr inbounds %"class.icu_69::MaybeStackArray", %"class.icu_69::MaybeStackArray"* %0, i64 0, i32 3, i64 0
  %21 = getelementptr inbounds %"class.icu_69::MaybeStackArray", %"class.icu_69::MaybeStackArray"* %0, i64 0, i32 0
  store i8* %20, i8** %21, align 8
  %22 = load i32, i32* %10, align 8
  %23 = sext i32 %22 to i64
  tail call void @llvm.memcpy.p0i8.p0i8.i64(i8* align 1 %20, i8* align 1 %16, i64 %23, i1 false)
  br label %26

24:                                               ; preds = %9
  %25 = getelementptr inbounds %"class.icu_69::MaybeStackArray", %"class.icu_69::MaybeStackArray"* %0, i64 0, i32 0
  store i8* %16, i8** %25, align 8
  store i8* %17, i8** %15, align 8
  store i32 40, i32* %10, align 8
  store i8 0, i8* %13, align 4
  br label %26

26:                                               ; preds = %24, %19
  ret %"class.icu_69::MaybeStackArray"* %0
}

; Function Attrs: nounwind ssp uwtable
define weak_odr hidden i32 @_ZNK6icu_6915MaybeStackArrayIcLi40EE11getCapacityEv(%"class.icu_69::MaybeStackArray"*) local_unnamed_addr #0 comdat align 2 {
  %2 = getelementptr inbounds %"class.icu_69::MaybeStackArray", %"class.icu_69::MaybeStackArray"* %0, i64 0, i32 1
  %3 = load i32, i32* %2, align 8
  ret i32 %3
}

; Function Attrs: nounwind ssp uwtable
define weak_odr hidden i8* @_ZNK6icu_6915MaybeStackArrayIcLi40EE8getAliasEv(%"class.icu_69::MaybeStackArray"*) local_unnamed_addr #0 comdat align 2 {
  %2 = getelementptr inbounds %"class.icu_69::MaybeStackArray", %"class.icu_69::MaybeStackArray"* %0, i64 0, i32 0
  %3 = load i8*, i8** %2, align 8
  ret i8* %3
}

; Function Attrs: nounwind ssp uwtable
define weak_odr hidden i8* @_ZNK6icu_6915MaybeStackArrayIcLi40EE13getArrayLimitEv(%"class.icu_69::MaybeStackArray"*) local_unnamed_addr #0 comdat align 2 {
  %2 = getelementptr inbounds %"class.icu_69::MaybeStackArray", %"class.icu_69::MaybeStackArray"* %0, i64 0, i32 0
  %3 = load i8*, i8** %2, align 8
  %4 = getelementptr inbounds %"class.icu_69::MaybeStackArray", %"class.icu_69::MaybeStackArray"* %0, i64 0, i32 1
  %5 = load i32, i32* %4, align 8
  %6 = sext i32 %5 to i64
  %7 = getelementptr inbounds i8, i8* %3, i64 %6
  ret i8* %7
}

; Function Attrs: nounwind ssp uwtable
define weak_odr hidden dereferenceable(1) i8* @_ZNK6icu_6915MaybeStackArrayIcLi40EEixEl(%"class.icu_69::MaybeStackArray"*, i64) local_unnamed_addr #0 comdat align 2 {
  %3 = getelementptr inbounds %"class.icu_69::MaybeStackArray", %"class.icu_69::MaybeStackArray"* %0, i64 0, i32 0
  %4 = load i8*, i8** %3, align 8
  %5 = getelementptr inbounds i8, i8* %4, i64 %1
  ret i8* %5
}

; Function Attrs: nounwind ssp uwtable
define weak_odr hidden dereferenceable(1) i8* @_ZN6icu_6915MaybeStackArrayIcLi40EEixEl(%"class.icu_69::MaybeStackArray"*, i64) local_unnamed_addr #0 comdat align 2 {
  %3 = getelementptr inbounds %"class.icu_69::MaybeStackArray", %"class.icu_69::MaybeStackArray"* %0, i64 0, i32 0
  %4 = load i8*, i8** %3, align 8
  %5 = getelementptr inbounds i8, i8* %4, i64 %1
  ret i8* %5
}

; Function Attrs: nounwind ssp uwtable
define weak_odr hidden void @_ZN6icu_6915MaybeStackArrayIcLi40EE12aliasInsteadEPci(%"class.icu_69::MaybeStackArray"*, i8*, i32) local_unnamed_addr #0 comdat align 2 {
  %4 = icmp ne i8* %1, null
  %5 = icmp sgt i32 %2, 0
  %6 = and i1 %4, %5
  br i1 %6, label %7, label %17

7:                                                ; preds = %3
  %8 = getelementptr inbounds %"class.icu_69::MaybeStackArray", %"class.icu_69::MaybeStackArray"* %0, i64 0, i32 2
  %9 = load i8, i8* %8, align 4
  %10 = icmp eq i8 %9, 0
  br i1 %10, label %14, label %11

11:                                               ; preds = %7
  %12 = getelementptr inbounds %"class.icu_69::MaybeStackArray", %"class.icu_69::MaybeStackArray"* %0, i64 0, i32 0
  %13 = load i8*, i8** %12, align 8
  tail call void @uprv_free_69(i8* %13) #10
  br label %14

14:                                               ; preds = %7, %11
  %15 = getelementptr inbounds %"class.icu_69::MaybeStackArray", %"class.icu_69::MaybeStackArray"* %0, i64 0, i32 0
  store i8* %1, i8** %15, align 8
  %16 = getelementptr inbounds %"class.icu_69::MaybeStackArray", %"class.icu_69::MaybeStackArray"* %0, i64 0, i32 1
  store i32 %2, i32* %16, align 8
  store i8 0, i8* %8, align 4
  br label %17

17:                                               ; preds = %14, %3
  ret void
}

; Function Attrs: argmemonly nounwind
declare void @llvm.lifetime.start.p0i8(i64 immarg, i8* nocapture) #2

; Function Attrs: allocsize(0)
declare noalias i8* @uprv_malloc_69(i64) local_unnamed_addr #3

; Function Attrs: argmemonly nounwind
declare void @llvm.lifetime.end.p0i8(i64 immarg, i8* nocapture) #2

; Function Attrs: inlinehint nounwind ssp uwtable
define weak_odr hidden i8* @_ZN6icu_6915MaybeStackArrayIcLi40EE13orphanOrCloneEiRi(%"class.icu_69::MaybeStackArray"*, i32, i32* dereferenceable(4)) local_unnamed_addr #1 comdat align 2 {
  %4 = getelementptr inbounds %"class.icu_69::MaybeStackArray", %"class.icu_69::MaybeStackArray"* %0, i64 0, i32 2
  %5 = load i8, i8* %4, align 4
  %6 = icmp eq i8 %5, 0
  br i1 %6, label %10, label %7

7:                                                ; preds = %3
  %8 = getelementptr inbounds %"class.icu_69::MaybeStackArray", %"class.icu_69::MaybeStackArray"* %0, i64 0, i32 0
  %9 = load i8*, i8** %8, align 8
  br label %23

10:                                               ; preds = %3
  %11 = icmp slt i32 %1, 1
  br i1 %11, label %29, label %12

12:                                               ; preds = %10
  %13 = getelementptr inbounds %"class.icu_69::MaybeStackArray", %"class.icu_69::MaybeStackArray"* %0, i64 0, i32 1
  %14 = load i32, i32* %13, align 8
  %15 = icmp slt i32 %14, %1
  %16 = select i1 %15, i32 %14, i32 %1
  %17 = sext i32 %16 to i64
  %18 = tail call noalias i8* @uprv_malloc_69(i64 %17) #9
  %19 = icmp eq i8* %18, null
  br i1 %19, label %29, label %20

20:                                               ; preds = %12
  %21 = getelementptr inbounds %"class.icu_69::MaybeStackArray", %"class.icu_69::MaybeStackArray"* %0, i64 0, i32 0
  %22 = load i8*, i8** %21, align 8
  tail call void @llvm.memcpy.p0i8.p0i8.i64(i8* nonnull align 1 %18, i8* align 1 %22, i64 %17, i1 false)
  br label %23

23:                                               ; preds = %20, %7
  %24 = phi i32 [ %1, %7 ], [ %16, %20 ]
  %25 = phi i8* [ %9, %7 ], [ %18, %20 ]
  store i32 %24, i32* %2, align 4
  %26 = getelementptr inbounds %"class.icu_69::MaybeStackArray", %"class.icu_69::MaybeStackArray"* %0, i64 0, i32 3, i64 0
  %27 = getelementptr inbounds %"class.icu_69::MaybeStackArray", %"class.icu_69::MaybeStackArray"* %0, i64 0, i32 0
  store i8* %26, i8** %27, align 8
  %28 = getelementptr inbounds %"class.icu_69::MaybeStackArray", %"class.icu_69::MaybeStackArray"* %0, i64 0, i32 1
  store i32 40, i32* %28, align 8
  store i8 0, i8* %4, align 4
  br label %29

29:                                               ; preds = %12, %10, %23
  %30 = phi i8* [ %25, %23 ], [ null, %10 ], [ null, %12 ]
  ret i8* %30
}

; Function Attrs: nounwind ssp uwtable
define weak_odr hidden void @_ZN6icu_6915MaybeStackArrayIcLi40EE8copyFromERKS1_R10UErrorCode(%"class.icu_69::MaybeStackArray"*, %"class.icu_69::MaybeStackArray"* dereferenceable(56), i32* dereferenceable(4)) local_unnamed_addr #0 comdat align 2 {
  %4 = load i32, i32* %2, align 4
  %5 = icmp slt i32 %4, 1
  br i1 %5, label %6, label %27

6:                                                ; preds = %3
  %7 = getelementptr inbounds %"class.icu_69::MaybeStackArray", %"class.icu_69::MaybeStackArray"* %1, i64 0, i32 1
  %8 = load i32, i32* %7, align 8
  %9 = icmp sgt i32 %8, 0
  br i1 %9, label %10, label %21

10:                                               ; preds = %6
  %11 = sext i32 %8 to i64
  %12 = tail call noalias i8* @uprv_malloc_69(i64 %11) #9
  %13 = icmp eq i8* %12, null
  br i1 %13, label %21, label %14

14:                                               ; preds = %10
  %15 = getelementptr inbounds %"class.icu_69::MaybeStackArray", %"class.icu_69::MaybeStackArray"* %0, i64 0, i32 2
  %16 = load i8, i8* %15, align 4
  %17 = icmp eq i8 %16, 0
  br i1 %17, label %22, label %18

18:                                               ; preds = %14
  %19 = getelementptr inbounds %"class.icu_69::MaybeStackArray", %"class.icu_69::MaybeStackArray"* %0, i64 0, i32 0
  %20 = load i8*, i8** %19, align 8
  tail call void @uprv_free_69(i8* %20) #10
  br label %22

21:                                               ; preds = %10, %6
  store i32 7, i32* %2, align 4
  br label %27

22:                                               ; preds = %18, %14
  %23 = getelementptr inbounds %"class.icu_69::MaybeStackArray", %"class.icu_69::MaybeStackArray"* %0, i64 0, i32 0
  store i8* %12, i8** %23, align 8
  %24 = getelementptr inbounds %"class.icu_69::MaybeStackArray", %"class.icu_69::MaybeStackArray"* %0, i64 0, i32 1
  store i32 %8, i32* %24, align 8
  store i8 1, i8* %15, align 4
  %25 = getelementptr inbounds %"class.icu_69::MaybeStackArray", %"class.icu_69::MaybeStackArray"* %1, i64 0, i32 0
  %26 = load i8*, i8** %25, align 8
  tail call void @llvm.memcpy.p0i8.p0i8.i64(i8* nonnull align 1 %12, i8* align 1 %26, i64 %11, i1 false)
  br label %27

27:                                               ; preds = %3, %21, %22
  ret void
}

declare void @uprv_free_69(i8*) local_unnamed_addr #4

; Function Attrs: nounwind ssp uwtable
define hidden void @_ZN6icu_695units22UnitPreferenceMetadataC2ENS_11StringPieceES2_S2_iiR10UErrorCode(%"class.icu_69::units::UnitPreferenceMetadata"*, i8*, i32, i8*, i32, %"class.icu_69::StringPiece"* nocapture readonly byval(%"class.icu_69::StringPiece") align 8, i32, i32, i32* dereferenceable(4)) unnamed_addr #0 align 2 {
  %10 = getelementptr inbounds %"class.icu_69::units::UnitPreferenceMetadata", %"class.icu_69::units::UnitPreferenceMetadata"* %0, i64 0, i32 1
  %11 = getelementptr inbounds %"class.icu_69::CharString", %"class.icu_69::CharString"* %10, i64 0, i32 0, i32 0
  %12 = getelementptr inbounds %"class.icu_69::units::UnitPreferenceMetadata", %"class.icu_69::units::UnitPreferenceMetadata"* %0, i64 0, i32 1, i32 0, i32 3, i64 0
  store i8* %12, i8** %11, align 8
  %13 = getelementptr inbounds %"class.icu_69::units::UnitPreferenceMetadata", %"class.icu_69::units::UnitPreferenceMetadata"* %0, i64 0, i32 1, i32 0, i32 1
  store i32 40, i32* %13, align 8
  %14 = getelementptr inbounds %"class.icu_69::units::UnitPreferenceMetadata", %"class.icu_69::units::UnitPreferenceMetadata"* %0, i64 0, i32 1, i32 0, i32 2
  store i8 0, i8* %14, align 4
  %15 = getelementptr inbounds %"class.icu_69::units::UnitPreferenceMetadata", %"class.icu_69::units::UnitPreferenceMetadata"* %0, i64 0, i32 1, i32 1
  store i32 0, i32* %15, align 8
  store i8 0, i8* %12, align 1
  %16 = getelementptr inbounds %"class.icu_69::units::UnitPreferenceMetadata", %"class.icu_69::units::UnitPreferenceMetadata"* %0, i64 0, i32 2
  %17 = getelementptr inbounds %"class.icu_69::CharString", %"class.icu_69::CharString"* %16, i64 0, i32 0, i32 0
  %18 = getelementptr inbounds %"class.icu_69::units::UnitPreferenceMetadata", %"class.icu_69::units::UnitPreferenceMetadata"* %0, i64 0, i32 2, i32 0, i32 3, i64 0
  store i8* %18, i8** %17, align 8
  %19 = getelementptr inbounds %"class.icu_69::units::UnitPreferenceMetadata", %"class.icu_69::units::UnitPreferenceMetadata"* %0, i64 0, i32 2, i32 0, i32 1
  store i32 40, i32* %19, align 8
  %20 = getelementptr inbounds %"class.icu_69::units::UnitPreferenceMetadata", %"class.icu_69::units::UnitPreferenceMetadata"* %0, i64 0, i32 2, i32 0, i32 2
  store i8 0, i8* %20, align 4
  %21 = getelementptr inbounds %"class.icu_69::units::UnitPreferenceMetadata", %"class.icu_69::units::UnitPreferenceMetadata"* %0, i64 0, i32 2, i32 1
  store i32 0, i32* %21, align 8
  store i8 0, i8* %18, align 1
  %22 = getelementptr inbounds %"class.icu_69::units::UnitPreferenceMetadata", %"class.icu_69::units::UnitPreferenceMetadata"* %0, i64 0, i32 3
  %23 = getelementptr inbounds %"class.icu_69::CharString", %"class.icu_69::CharString"* %22, i64 0, i32 0, i32 0
  %24 = getelementptr inbounds %"class.icu_69::units::UnitPreferenceMetadata", %"class.icu_69::units::UnitPreferenceMetadata"* %0, i64 0, i32 3, i32 0, i32 3, i64 0
  store i8* %24, i8** %23, align 8
  %25 = getelementptr inbounds %"class.icu_69::units::UnitPreferenceMetadata", %"class.icu_69::units::UnitPreferenceMetadata"* %0, i64 0, i32 3, i32 0, i32 1
  store i32 40, i32* %25, align 8
  %26 = getelementptr inbounds %"class.icu_69::units::UnitPreferenceMetadata", %"class.icu_69::units::UnitPreferenceMetadata"* %0, i64 0, i32 3, i32 0, i32 2
  store i8 0, i8* %26, align 4
  %27 = getelementptr inbounds %"class.icu_69::units::UnitPreferenceMetadata", %"class.icu_69::units::UnitPreferenceMetadata"* %0, i64 0, i32 3, i32 1
  store i32 0, i32* %27, align 8
  store i8 0, i8* %24, align 1
  %28 = tail call dereferenceable(64) %"class.icu_69::CharString"* @_ZN6icu_6910CharString6appendEPKciR10UErrorCode(%"class.icu_69::CharString"* %10, i8* %1, i32 %2, i32* dereferenceable(4) %8) #10
  %29 = tail call dereferenceable(64) %"class.icu_69::CharString"* @_ZN6icu_6910CharString6appendEPKciR10UErrorCode(%"class.icu_69::CharString"* %16, i8* %3, i32 %4, i32* dereferenceable(4) %8) #10
  %30 = getelementptr inbounds %"class.icu_69::StringPiece", %"class.icu_69::StringPiece"* %5, i64 0, i32 0
  %31 = load i8*, i8** %30, align 8
  %32 = getelementptr inbounds %"class.icu_69::StringPiece", %"class.icu_69::StringPiece"* %5, i64 0, i32 1
  %33 = load i32, i32* %32, align 8
  %34 = tail call dereferenceable(64) %"class.icu_69::CharString"* @_ZN6icu_6910CharString6appendEPKciR10UErrorCode(%"class.icu_69::CharString"* %22, i8* %31, i32 %33, i32* dereferenceable(4) %8) #10
  %35 = getelementptr inbounds %"class.icu_69::units::UnitPreferenceMetadata", %"class.icu_69::units::UnitPreferenceMetadata"* %0, i64 0, i32 4
  store i32 %6, i32* %35, align 8
  %36 = getelementptr inbounds %"class.icu_69::units::UnitPreferenceMetadata", %"class.icu_69::units::UnitPreferenceMetadata"* %0, i64 0, i32 5
  store i32 %7, i32* %36, align 4
  ret void
}

; Function Attrs: nounwind readonly ssp uwtable
define hidden i32 @_ZNK6icu_695units22UnitPreferenceMetadata9compareToERKS1_(%"class.icu_69::units::UnitPreferenceMetadata"* nocapture readonly, %"class.icu_69::units::UnitPreferenceMetadata"* nocapture readonly dereferenceable(208)) local_unnamed_addr #5 align 2 {
  %3 = getelementptr inbounds %"class.icu_69::units::UnitPreferenceMetadata", %"class.icu_69::units::UnitPreferenceMetadata"* %0, i64 0, i32 1, i32 0, i32 0
  %4 = load i8*, i8** %3, align 8
  %5 = getelementptr inbounds %"class.icu_69::units::UnitPreferenceMetadata", %"class.icu_69::units::UnitPreferenceMetadata"* %1, i64 0, i32 1, i32 0, i32 0
  %6 = load i8*, i8** %5, align 8
  %7 = tail call i32 @strcmp(i8* %4, i8* %6) #11
  %8 = icmp eq i32 %7, 0
  br i1 %8, label %9, label %22

9:                                                ; preds = %2
  %10 = getelementptr inbounds %"class.icu_69::units::UnitPreferenceMetadata", %"class.icu_69::units::UnitPreferenceMetadata"* %0, i64 0, i32 2, i32 0, i32 0
  %11 = load i8*, i8** %10, align 8
  %12 = getelementptr inbounds %"class.icu_69::units::UnitPreferenceMetadata", %"class.icu_69::units::UnitPreferenceMetadata"* %1, i64 0, i32 2, i32 0, i32 0
  %13 = load i8*, i8** %12, align 8
  %14 = tail call i32 @strcmp(i8* %11, i8* %13) #11
  %15 = icmp eq i32 %14, 0
  br i1 %15, label %16, label %22

16:                                               ; preds = %9
  %17 = getelementptr inbounds %"class.icu_69::units::UnitPreferenceMetadata", %"class.icu_69::units::UnitPreferenceMetadata"* %0, i64 0, i32 3, i32 0, i32 0
  %18 = load i8*, i8** %17, align 8
  %19 = getelementptr inbounds %"class.icu_69::units::UnitPreferenceMetadata", %"class.icu_69::units::UnitPreferenceMetadata"* %1, i64 0, i32 3, i32 0, i32 0
  %20 = load i8*, i8** %19, align 8
  %21 = tail call i32 @strcmp(i8* %18, i8* %20) #11
  br label %22

22:                                               ; preds = %2, %16, %9
  %23 = phi i32 [ %21, %16 ], [ %14, %9 ], [ %7, %2 ]
  ret i32 %23
}

; Function Attrs: nofree nounwind readonly
declare i32 @strcmp(i8* nocapture, i8* nocapture) local_unnamed_addr #6

; Function Attrs: nofree nounwind ssp uwtable
define hidden i32 @_ZNK6icu_695units22UnitPreferenceMetadata9compareToERKS1_PbS4_S4_(%"class.icu_69::units::UnitPreferenceMetadata"* nocapture readonly, %"class.icu_69::units::UnitPreferenceMetadata"* nocapture readonly dereferenceable(208), i8* nocapture, i8* nocapture, i8* nocapture) local_unnamed_addr #7 align 2 {
  %6 = getelementptr inbounds %"class.icu_69::units::UnitPreferenceMetadata", %"class.icu_69::units::UnitPreferenceMetadata"* %0, i64 0, i32 1, i32 0, i32 0
  %7 = load i8*, i8** %6, align 8
  %8 = getelementptr inbounds %"class.icu_69::units::UnitPreferenceMetadata", %"class.icu_69::units::UnitPreferenceMetadata"* %1, i64 0, i32 1, i32 0, i32 0
  %9 = load i8*, i8** %8, align 8
  %10 = tail call i32 @strcmp(i8* %7, i8* %9) #11
  %11 = icmp eq i32 %10, 0
  br i1 %11, label %12, label %27

12:                                               ; preds = %5
  store i8 1, i8* %2, align 1
  %13 = getelementptr inbounds %"class.icu_69::units::UnitPreferenceMetadata", %"class.icu_69::units::UnitPreferenceMetadata"* %0, i64 0, i32 2, i32 0, i32 0
  %14 = load i8*, i8** %13, align 8
  %15 = getelementptr inbounds %"class.icu_69::units::UnitPreferenceMetadata", %"class.icu_69::units::UnitPreferenceMetadata"* %1, i64 0, i32 2, i32 0, i32 0
  %16 = load i8*, i8** %15, align 8
  %17 = tail call i32 @strcmp(i8* %14, i8* %16) #11
  %18 = icmp eq i32 %17, 0
  br i1 %18, label %19, label %27

19:                                               ; preds = %12
  store i8 1, i8* %3, align 1
  %20 = getelementptr inbounds %"class.icu_69::units::UnitPreferenceMetadata", %"class.icu_69::units::UnitPreferenceMetadata"* %0, i64 0, i32 3, i32 0, i32 0
  %21 = load i8*, i8** %20, align 8
  %22 = getelementptr inbounds %"class.icu_69::units::UnitPreferenceMetadata", %"class.icu_69::units::UnitPreferenceMetadata"* %1, i64 0, i32 3, i32 0, i32 0
  %23 = load i8*, i8** %22, align 8
  %24 = tail call i32 @strcmp(i8* %21, i8* %23) #11
  %25 = icmp eq i32 %24, 0
  br i1 %25, label %26, label %27

26:                                               ; preds = %19
  store i8 1, i8* %4, align 1
  br label %27

27:                                               ; preds = %5, %12, %26, %19
  %28 = phi i32 [ 0, %26 ], [ %24, %19 ], [ %17, %12 ], [ %10, %5 ]
  ret i32 %28
}

; Function Attrs: nounwind ssp uwtable
define hidden void @_ZN6icu_695units21getAllConversionRatesERNS_16MaybeStackVectorINS0_18ConversionRateInfoELi8EEER10UErrorCode(%"class.icu_69::MaybeStackVector"* dereferenceable(88), i32* dereferenceable(4)) local_unnamed_addr #0 {
  %3 = alloca %"class.icu_69::units::(anonymous namespace)::ConversionRateDataSink", align 8
  %4 = tail call %struct.UResourceBundle* @ures_openDirect_69(i8* null, i8* getelementptr inbounds ([6 x i8], [6 x i8]* @.str, i64 0, i64 0), i32* %1) #10
  %5 = bitcast %"class.icu_69::units::(anonymous namespace)::ConversionRateDataSink"* %3 to i8*
  call void @llvm.lifetime.start.p0i8(i64 16, i8* nonnull %5) #10
  %6 = getelementptr inbounds %"class.icu_69::units::(anonymous namespace)::ConversionRateDataSink", %"class.icu_69::units::(anonymous namespace)::ConversionRateDataSink"* %3, i64 0, i32 0, i32 0, i32 0
  %7 = getelementptr inbounds %"class.icu_69::units::(anonymous namespace)::ConversionRateDataSink", %"class.icu_69::units::(anonymous namespace)::ConversionRateDataSink"* %3, i64 0, i32 1
  store i32 (...)** bitcast (i8** getelementptr inbounds ({ [6 x i8*] }, { [6 x i8*] }* @_ZTVN6icu_695units12_GLOBAL__N_122ConversionRateDataSinkE, i64 0, inrange i32 0, i64 2) to i32 (...)**), i32 (...)*** %6, align 8
  store %"class.icu_69::MaybeStackVector"* %0, %"class.icu_69::MaybeStackVector"** %7, align 8
  %8 = getelementptr inbounds %"class.icu_69::units::(anonymous namespace)::ConversionRateDataSink", %"class.icu_69::units::(anonymous namespace)::ConversionRateDataSink"* %3, i64 0, i32 0
  call void @ures_getAllItemsWithFallback_69(%struct.UResourceBundle* %4, i8* getelementptr inbounds ([13 x i8], [13 x i8]* @.str.1, i64 0, i64 0), %"class.icu_69::ResourceSink"* nonnull dereferenceable(8) %8, i32* dereferenceable(4) %1) #10
  call void @_ZN6icu_6912ResourceSinkD2Ev(%"class.icu_69::ResourceSink"* nonnull %8) #10
  call void @llvm.lifetime.end.p0i8(i64 16, i8* nonnull %5) #10
  %9 = icmp eq %struct.UResourceBundle* %4, null
  br i1 %9, label %11, label %10

10:                                               ; preds = %2
  call void @ures_close_69(%struct.UResourceBundle* nonnull %4) #10
  br label %11

11:                                               ; preds = %2, %10
  ret void
}

declare %struct.UResourceBundle* @ures_openDirect_69(i8*, i8*, i32*) local_unnamed_addr #4

declare void @ures_getAllItemsWithFallback_69(%struct.UResourceBundle*, i8*, %"class.icu_69::ResourceSink"* dereferenceable(8), i32* dereferenceable(4)) local_unnamed_addr #4

; Function Attrs: nounwind
declare void @_ZN6icu_6912ResourceSinkD2Ev(%"class.icu_69::ResourceSink"*) unnamed_addr #8

; Function Attrs: nounwind ssp uwtable
define hidden %"class.icu_69::units::ConversionRateInfo"* @_ZNK6icu_695units15ConversionRates21extractConversionInfoENS_11StringPieceER10UErrorCode(%"class.icu_69::units::ConversionRates"* nocapture readonly, i8*, i32, i32* nocapture dereferenceable(4)) local_unnamed_addr #0 align 2 {
  %5 = alloca { i8*, i32 }, align 8
  %6 = bitcast { i8*, i32 }* %5 to %"class.icu_69::StringPiece"*
  %7 = alloca { i8*, i32 }, align 8
  %8 = bitcast { i8*, i32 }* %7 to %"class.icu_69::StringPiece"*
  %9 = getelementptr inbounds { i8*, i32 }, { i8*, i32 }* %5, i64 0, i32 0
  store i8* %1, i8** %9, align 8
  %10 = getelementptr inbounds { i8*, i32 }, { i8*, i32 }* %5, i64 0, i32 1
  store i32 %2, i32* %10, align 8
  %11 = getelementptr inbounds %"class.icu_69::units::ConversionRates", %"class.icu_69::units::ConversionRates"* %0, i64 0, i32 0, i32 0, i32 0
  %12 = load i32, i32* %11, align 8
  %13 = sext i32 %12 to i64
  %14 = icmp eq i32 %12, 0
  br i1 %14, label %39, label %15

15:                                               ; preds = %4
  %16 = bitcast { i8*, i32 }* %7 to i8*
  %17 = getelementptr inbounds %"class.icu_69::units::ConversionRates", %"class.icu_69::units::ConversionRates"* %0, i64 0, i32 0, i32 0, i32 1, i32 0
  %18 = bitcast { i8*, i32 }* %7 to i64*
  %19 = getelementptr inbounds { i8*, i32 }, { i8*, i32 }* %7, i64 0, i32 1
  br label %20

20:                                               ; preds = %15, %32
  %21 = phi i64 [ 0, %15 ], [ %33, %32 ]
  call void @llvm.lifetime.start.p0i8(i64 16, i8* nonnull %16) #10
  %22 = load %"class.icu_69::units::ConversionRateInfo"**, %"class.icu_69::units::ConversionRateInfo"*** %17, align 8
  %23 = getelementptr inbounds %"class.icu_69::units::ConversionRateInfo"*, %"class.icu_69::units::ConversionRateInfo"** %22, i64 %21
  %24 = load %"class.icu_69::units::ConversionRateInfo"*, %"class.icu_69::units::ConversionRateInfo"** %23, align 8
  %25 = getelementptr inbounds %"class.icu_69::units::ConversionRateInfo", %"class.icu_69::units::ConversionRateInfo"* %24, i64 0, i32 1, i32 0, i32 0
  %26 = bitcast i8** %25 to i64*
  %27 = load i64, i64* %26, align 8
  %28 = getelementptr inbounds %"class.icu_69::units::ConversionRateInfo", %"class.icu_69::units::ConversionRateInfo"* %24, i64 0, i32 1, i32 1
  %29 = load i32, i32* %28, align 8
  store i64 %27, i64* %18, align 8
  store i32 %29, i32* %19, align 8
  %30 = call signext i8 @_ZN6icu_69eqERKNS_11StringPieceES2_(%"class.icu_69::StringPiece"* nonnull dereferenceable(16) %8, %"class.icu_69::StringPiece"* nonnull dereferenceable(16) %6) #10
  %31 = icmp eq i8 %30, 0
  call void @llvm.lifetime.end.p0i8(i64 16, i8* nonnull %16) #10
  br i1 %31, label %32, label %35

32:                                               ; preds = %20
  %33 = add nuw i64 %21, 1
  %34 = icmp ult i64 %33, %13
  br i1 %34, label %20, label %39

35:                                               ; preds = %20
  %36 = load %"class.icu_69::units::ConversionRateInfo"**, %"class.icu_69::units::ConversionRateInfo"*** %17, align 8
  %37 = getelementptr inbounds %"class.icu_69::units::ConversionRateInfo"*, %"class.icu_69::units::ConversionRateInfo"** %36, i64 %21
  %38 = load %"class.icu_69::units::ConversionRateInfo"*, %"class.icu_69::units::ConversionRateInfo"** %37, align 8
  br label %40

39:                                               ; preds = %32, %4
  store i32 5, i32* %3, align 4
  br label %40

40:                                               ; preds = %35, %39
  %41 = phi %"class.icu_69::units::ConversionRateInfo"* [ null, %39 ], [ %38, %35 ]
  ret %"class.icu_69::units::ConversionRateInfo"* %41
}

declare signext i8 @_ZN6icu_69eqERKNS_11StringPieceES2_(%"class.icu_69::StringPiece"* dereferenceable(16), %"class.icu_69::StringPiece"* dereferenceable(16)) local_unnamed_addr #4

; Function Attrs: nounwind ssp uwtable
define hidden void @_ZN6icu_695units15UnitPreferencesC2ER10UErrorCode(%"class.icu_69::units::UnitPreferences"*, i32* dereferenceable(4)) unnamed_addr #0 align 2 {
  %3 = alloca %"class.icu_69::units::(anonymous namespace)::UnitPreferencesSink", align 8
  %4 = getelementptr inbounds %"class.icu_69::units::UnitPreferences", %"class.icu_69::units::UnitPreferences"* %0, i64 0, i32 0
  %5 = getelementptr inbounds %"class.icu_69::units::UnitPreferences", %"class.icu_69::units::UnitPreferences"* %0, i64 0, i32 0, i32 0, i32 0
  store i32 0, i32* %5, align 8
  %6 = getelementptr inbounds %"class.icu_69::units::UnitPreferences", %"class.icu_69::units::UnitPreferences"* %0, i64 0, i32 0, i32 0, i32 1, i32 0
  %7 = getelementptr inbounds %"class.icu_69::units::UnitPreferences", %"class.icu_69::units::UnitPreferences"* %0, i64 0, i32 0, i32 0, i32 1, i32 3, i64 0
  store %"class.icu_69::units::UnitPreferenceMetadata"** %7, %"class.icu_69::units::UnitPreferenceMetadata"*** %6, align 8
  %8 = getelementptr inbounds %"class.icu_69::units::UnitPreferences", %"class.icu_69::units::UnitPreferences"* %0, i64 0, i32 0, i32 0, i32 1, i32 1
  store i32 8, i32* %8, align 8
  %9 = getelementptr inbounds %"class.icu_69::units::UnitPreferences", %"class.icu_69::units::UnitPreferences"* %0, i64 0, i32 0, i32 0, i32 1, i32 2
  store i8 0, i8* %9, align 4
  %10 = getelementptr inbounds %"class.icu_69::units::UnitPreferences", %"class.icu_69::units::UnitPreferences"* %0, i64 0, i32 1
  %11 = getelementptr inbounds %"class.icu_69::MaybeStackVector.4", %"class.icu_69::MaybeStackVector.4"* %10, i64 0, i32 0, i32 0
  store i32 0, i32* %11, align 8
  %12 = getelementptr inbounds %"class.icu_69::units::UnitPreferences", %"class.icu_69::units::UnitPreferences"* %0, i64 0, i32 1, i32 0, i32 1, i32 0
  %13 = getelementptr inbounds %"class.icu_69::units::UnitPreferences", %"class.icu_69::units::UnitPreferences"* %0, i64 0, i32 1, i32 0, i32 1, i32 3, i64 0
  store %"struct.icu_69::units::UnitPreference"** %13, %"struct.icu_69::units::UnitPreference"*** %12, align 8
  %14 = getelementptr inbounds %"class.icu_69::units::UnitPreferences", %"class.icu_69::units::UnitPreferences"* %0, i64 0, i32 1, i32 0, i32 1, i32 1
  store i32 8, i32* %14, align 8
  %15 = getelementptr inbounds %"class.icu_69::units::UnitPreferences", %"class.icu_69::units::UnitPreferences"* %0, i64 0, i32 1, i32 0, i32 1, i32 2
  store i8 0, i8* %15, align 4
  %16 = tail call %struct.UResourceBundle* @ures_openDirect_69(i8* null, i8* getelementptr inbounds ([6 x i8], [6 x i8]* @.str, i64 0, i64 0), i32* %1) #10
  %17 = bitcast %"class.icu_69::units::(anonymous namespace)::UnitPreferencesSink"* %3 to i8*
  call void @llvm.lifetime.start.p0i8(i64 24, i8* nonnull %17) #10
  %18 = getelementptr inbounds %"class.icu_69::units::(anonymous namespace)::UnitPreferencesSink", %"class.icu_69::units::(anonymous namespace)::UnitPreferencesSink"* %3, i64 0, i32 0, i32 0, i32 0
  %19 = getelementptr inbounds %"class.icu_69::units::(anonymous namespace)::UnitPreferencesSink", %"class.icu_69::units::(anonymous namespace)::UnitPreferencesSink"* %3, i64 0, i32 1
  %20 = getelementptr inbounds %"class.icu_69::units::(anonymous namespace)::UnitPreferencesSink", %"class.icu_69::units::(anonymous namespace)::UnitPreferencesSink"* %3, i64 0, i32 2
  store i32 (...)** bitcast (i8** getelementptr inbounds ({ [6 x i8*] }, { [6 x i8*] }* @_ZTVN6icu_695units12_GLOBAL__N_119UnitPreferencesSinkE, i64 0, inrange i32 0, i64 2) to i32 (...)**), i32 (...)*** %18, align 8
  store %"class.icu_69::MaybeStackVector.4"* %10, %"class.icu_69::MaybeStackVector.4"** %19, align 8
  store %"class.icu_69::MaybeStackVector.1"* %4, %"class.icu_69::MaybeStackVector.1"** %20, align 8
  %21 = getelementptr inbounds %"class.icu_69::units::(anonymous namespace)::UnitPreferencesSink", %"class.icu_69::units::(anonymous namespace)::UnitPreferencesSink"* %3, i64 0, i32 0
  call void @ures_getAllItemsWithFallback_69(%struct.UResourceBundle* %16, i8* getelementptr inbounds ([19 x i8], [19 x i8]* @.str.2, i64 0, i64 0), %"class.icu_69::ResourceSink"* nonnull dereferenceable(8) %21, i32* dereferenceable(4) %1) #10
  call void @_ZN6icu_6912ResourceSinkD2Ev(%"class.icu_69::ResourceSink"* nonnull %21) #10
  call void @llvm.lifetime.end.p0i8(i64 24, i8* nonnull %17) #10
  %22 = icmp eq %struct.UResourceBundle* %16, null
  br i1 %22, label %24, label %23

23:                                               ; preds = %2
  call void @ures_close_69(%struct.UResourceBundle* nonnull %16) #10
  br label %24

24:                                               ; preds = %2, %23
  ret void
}

; Function Attrs: nounwind ssp uwtable
define hidden void @_ZNK6icu_695units15UnitPreferences17getPreferencesForENS_11StringPieceES2_S2_RPKPKNS0_14UnitPreferenceERiR10UErrorCode(%"class.icu_69::units::UnitPreferences"* nocapture readonly, i8*, i32, i8*, i32, %"class.icu_69::StringPiece"* nocapture readonly byval(%"class.icu_69::StringPiece") align 8, %"struct.icu_69::units::UnitPreference"*** nocapture dereferenceable(8), i32* nocapture dereferenceable(4), i32* dereferenceable(4)) local_unnamed_addr #0 align 2 {
  %10 = alloca %"class.icu_69::units::UnitPreferenceMetadata", align 8
  %11 = alloca { i8*, i32 }, align 8
  %12 = alloca { i8*, i32 }, align 8
  %13 = getelementptr inbounds %"class.icu_69::StringPiece", %"class.icu_69::StringPiece"* %5, i64 0, i32 0
  %14 = load i8*, i8** %13, align 8
  %15 = getelementptr inbounds %"class.icu_69::StringPiece", %"class.icu_69::StringPiece"* %5, i64 0, i32 1
  %16 = load i32, i32* %15, align 8
  %17 = bitcast { i8*, i32 }* %11 to i8*
  call void @llvm.lifetime.start.p0i8(i64 16, i8* nonnull %17)
  %18 = bitcast { i8*, i32 }* %12 to i8*
  call void @llvm.lifetime.start.p0i8(i64 16, i8* nonnull %18)
  %19 = bitcast { i8*, i32 }* %11 to %"class.icu_69::StringPiece"*
  %20 = bitcast { i8*, i32 }* %12 to %"class.icu_69::StringPiece"*
  %21 = load i32, i32* %8, align 4
  %22 = icmp slt i32 %21, 1
  br i1 %22, label %24, label %23

23:                                               ; preds = %9
  call void @llvm.lifetime.end.p0i8(i64 16, i8* nonnull %17)
  call void @llvm.lifetime.end.p0i8(i64 16, i8* nonnull %18)
  br label %240

24:                                               ; preds = %9
  %25 = getelementptr inbounds %"class.icu_69::units::UnitPreferenceMetadata", %"class.icu_69::units::UnitPreferenceMetadata"* %10, i64 0, i32 0, i64 0
  call void @llvm.lifetime.start.p0i8(i64 208, i8* nonnull %25) #10
  call void @llvm.memset.p0i8.i64(i8* nonnull align 8 %25, i8 -86, i64 208, i1 false) #10
  %26 = getelementptr inbounds %"class.icu_69::units::UnitPreferenceMetadata", %"class.icu_69::units::UnitPreferenceMetadata"* %10, i64 0, i32 1
  %27 = getelementptr inbounds %"class.icu_69::CharString", %"class.icu_69::CharString"* %26, i64 0, i32 0, i32 0
  %28 = getelementptr inbounds %"class.icu_69::units::UnitPreferenceMetadata", %"class.icu_69::units::UnitPreferenceMetadata"* %10, i64 0, i32 1, i32 0, i32 3, i64 0
  store i8* %28, i8** %27, align 8
  %29 = getelementptr inbounds %"class.icu_69::units::UnitPreferenceMetadata", %"class.icu_69::units::UnitPreferenceMetadata"* %10, i64 0, i32 1, i32 0, i32 1
  store i32 40, i32* %29, align 8
  %30 = getelementptr inbounds %"class.icu_69::units::UnitPreferenceMetadata", %"class.icu_69::units::UnitPreferenceMetadata"* %10, i64 0, i32 1, i32 0, i32 2
  store i8 0, i8* %30, align 4
  %31 = getelementptr inbounds %"class.icu_69::units::UnitPreferenceMetadata", %"class.icu_69::units::UnitPreferenceMetadata"* %10, i64 0, i32 1, i32 1
  store i32 0, i32* %31, align 8
  store i8 0, i8* %28, align 1
  %32 = getelementptr inbounds %"class.icu_69::units::UnitPreferenceMetadata", %"class.icu_69::units::UnitPreferenceMetadata"* %10, i64 0, i32 2
  %33 = getelementptr inbounds %"class.icu_69::CharString", %"class.icu_69::CharString"* %32, i64 0, i32 0, i32 0
  %34 = getelementptr inbounds %"class.icu_69::units::UnitPreferenceMetadata", %"class.icu_69::units::UnitPreferenceMetadata"* %10, i64 0, i32 2, i32 0, i32 3, i64 0
  store i8* %34, i8** %33, align 8
  %35 = getelementptr inbounds %"class.icu_69::units::UnitPreferenceMetadata", %"class.icu_69::units::UnitPreferenceMetadata"* %10, i64 0, i32 2, i32 0, i32 1
  store i32 40, i32* %35, align 8
  %36 = getelementptr inbounds %"class.icu_69::units::UnitPreferenceMetadata", %"class.icu_69::units::UnitPreferenceMetadata"* %10, i64 0, i32 2, i32 0, i32 2
  store i8 0, i8* %36, align 4
  %37 = getelementptr inbounds %"class.icu_69::units::UnitPreferenceMetadata", %"class.icu_69::units::UnitPreferenceMetadata"* %10, i64 0, i32 2, i32 1
  store i32 0, i32* %37, align 8
  store i8 0, i8* %34, align 1
  %38 = getelementptr inbounds %"class.icu_69::units::UnitPreferenceMetadata", %"class.icu_69::units::UnitPreferenceMetadata"* %10, i64 0, i32 3
  %39 = getelementptr inbounds %"class.icu_69::CharString", %"class.icu_69::CharString"* %38, i64 0, i32 0, i32 0
  %40 = getelementptr inbounds %"class.icu_69::units::UnitPreferenceMetadata", %"class.icu_69::units::UnitPreferenceMetadata"* %10, i64 0, i32 3, i32 0, i32 3, i64 0
  store i8* %40, i8** %39, align 8
  %41 = getelementptr inbounds %"class.icu_69::units::UnitPreferenceMetadata", %"class.icu_69::units::UnitPreferenceMetadata"* %10, i64 0, i32 3, i32 0, i32 1
  store i32 40, i32* %41, align 8
  %42 = getelementptr inbounds %"class.icu_69::units::UnitPreferenceMetadata", %"class.icu_69::units::UnitPreferenceMetadata"* %10, i64 0, i32 3, i32 0, i32 2
  store i8 0, i8* %42, align 4
  %43 = getelementptr inbounds %"class.icu_69::units::UnitPreferenceMetadata", %"class.icu_69::units::UnitPreferenceMetadata"* %10, i64 0, i32 3, i32 1
  store i32 0, i32* %43, align 8
  store i8 0, i8* %40, align 1
  %44 = call dereferenceable(64) %"class.icu_69::CharString"* @_ZN6icu_6910CharString6appendEPKciR10UErrorCode(%"class.icu_69::CharString"* %26, i8* %1, i32 %2, i32* dereferenceable(4) %8) #10
  %45 = call dereferenceable(64) %"class.icu_69::CharString"* @_ZN6icu_6910CharString6appendEPKciR10UErrorCode(%"class.icu_69::CharString"* %32, i8* %3, i32 %4, i32* dereferenceable(4) %8) #10
  %46 = call dereferenceable(64) %"class.icu_69::CharString"* @_ZN6icu_6910CharString6appendEPKciR10UErrorCode(%"class.icu_69::CharString"* %38, i8* %14, i32 %16, i32* dereferenceable(4) %8) #10
  %47 = getelementptr inbounds %"class.icu_69::units::UnitPreferenceMetadata", %"class.icu_69::units::UnitPreferenceMetadata"* %10, i64 0, i32 4
  store i32 -1, i32* %47, align 8
  %48 = getelementptr inbounds %"class.icu_69::units::UnitPreferenceMetadata", %"class.icu_69::units::UnitPreferenceMetadata"* %10, i64 0, i32 5
  store i32 -1, i32* %48, align 4
  %49 = load i32, i32* %8, align 4
  %50 = icmp slt i32 %49, 1
  br i1 %50, label %51, label %218

51:                                               ; preds = %24
  %52 = getelementptr inbounds %"class.icu_69::units::UnitPreferences", %"class.icu_69::units::UnitPreferences"* %0, i64 0, i32 0, i32 0, i32 0
  %53 = load i32, i32* %52, align 8
  %54 = icmp sgt i32 %53, 0
  br i1 %54, label %55, label %104

55:                                               ; preds = %51
  %56 = getelementptr inbounds %"class.icu_69::units::UnitPreferences", %"class.icu_69::units::UnitPreferences"* %0, i64 0, i32 0, i32 0, i32 1, i32 0
  %57 = load %"class.icu_69::units::UnitPreferenceMetadata"**, %"class.icu_69::units::UnitPreferenceMetadata"*** %56, align 8
  %58 = getelementptr inbounds %"class.icu_69::units::UnitPreferenceMetadata", %"class.icu_69::units::UnitPreferenceMetadata"* %10, i64 0, i32 1, i32 0, i32 0
  %59 = load i8*, i8** %58, align 8
  %60 = getelementptr inbounds %"class.icu_69::units::UnitPreferenceMetadata", %"class.icu_69::units::UnitPreferenceMetadata"* %10, i64 0, i32 2, i32 0, i32 0
  %61 = load i8*, i8** %60, align 8
  %62 = getelementptr inbounds %"class.icu_69::units::UnitPreferenceMetadata", %"class.icu_69::units::UnitPreferenceMetadata"* %10, i64 0, i32 3, i32 0, i32 0
  %63 = load i8*, i8** %62, align 8
  br label %64

64:                                               ; preds = %88, %55
  %65 = phi i8 [ 0, %55 ], [ %89, %88 ]
  %66 = phi i8 [ 0, %55 ], [ %90, %88 ]
  %67 = phi i32 [ %53, %55 ], [ %95, %88 ]
  %68 = phi i32 [ 0, %55 ], [ %94, %88 ]
  %69 = add nsw i32 %68, %67
  %70 = sdiv i32 %69, 2
  %71 = sext i32 %70 to i64
  %72 = getelementptr inbounds %"class.icu_69::units::UnitPreferenceMetadata"*, %"class.icu_69::units::UnitPreferenceMetadata"** %57, i64 %71
  %73 = load %"class.icu_69::units::UnitPreferenceMetadata"*, %"class.icu_69::units::UnitPreferenceMetadata"** %72, align 8
  %74 = getelementptr inbounds %"class.icu_69::units::UnitPreferenceMetadata", %"class.icu_69::units::UnitPreferenceMetadata"* %73, i64 0, i32 1, i32 0, i32 0
  %75 = load i8*, i8** %74, align 8
  %76 = call i32 @strcmp(i8* %75, i8* %59) #11
  %77 = icmp eq i32 %76, 0
  br i1 %77, label %78, label %88

78:                                               ; preds = %64
  %79 = getelementptr inbounds %"class.icu_69::units::UnitPreferenceMetadata", %"class.icu_69::units::UnitPreferenceMetadata"* %73, i64 0, i32 2, i32 0, i32 0
  %80 = load i8*, i8** %79, align 8
  %81 = call i32 @strcmp(i8* %80, i8* %61) #11
  %82 = icmp eq i32 %81, 0
  br i1 %82, label %83, label %88

83:                                               ; preds = %78
  %84 = getelementptr inbounds %"class.icu_69::units::UnitPreferenceMetadata", %"class.icu_69::units::UnitPreferenceMetadata"* %73, i64 0, i32 3, i32 0, i32 0
  %85 = load i8*, i8** %84, align 8
  %86 = call i32 @strcmp(i8* %85, i8* %63) #11
  %87 = icmp eq i32 %86, 0
  br i1 %87, label %218, label %88

88:                                               ; preds = %83, %78, %64
  %89 = phi i8 [ 1, %83 ], [ 1, %78 ], [ %65, %64 ]
  %90 = phi i8 [ 1, %83 ], [ %66, %78 ], [ %66, %64 ]
  %91 = phi i32 [ %86, %83 ], [ %81, %78 ], [ %76, %64 ]
  %92 = icmp slt i32 %91, 0
  %93 = add nsw i32 %70, 1
  %94 = select i1 %92, i32 %93, i32 %68
  %95 = select i1 %92, i32 %67, i32 %70
  %96 = icmp slt i32 %94, %95
  br i1 %96, label %64, label %97

97:                                               ; preds = %88
  %98 = icmp eq i8 %89, 0
  br i1 %98, label %104, label %99

99:                                               ; preds = %97
  %100 = icmp eq i8 %90, 0
  br i1 %100, label %101, label %167

101:                                              ; preds = %99
  %102 = getelementptr inbounds { i8*, i32 }, { i8*, i32 }* %11, i64 0, i32 0
  %103 = getelementptr inbounds { i8*, i32 }, { i8*, i32 }* %11, i64 0, i32 1
  br label %108

104:                                              ; preds = %97, %51
  store i32 1, i32* %8, align 4
  br label %218

105:                                              ; preds = %157, %126
  %106 = phi i8 [ 0, %126 ], [ %158, %157 ]
  %107 = icmp eq i8 %106, 0
  br i1 %107, label %108, label %165

108:                                              ; preds = %105, %101
  %109 = call i32 @_ZNK6icu_6910CharString11lastIndexOfEc(%"class.icu_69::CharString"* %32, i8 signext 45) #10
  %110 = icmp sgt i32 %109, 0
  br i1 %110, label %111, label %113

111:                                              ; preds = %108
  %112 = call dereferenceable(64) %"class.icu_69::CharString"* @_ZN6icu_6910CharString8truncateEi(%"class.icu_69::CharString"* %32, i32 %109) #10
  br label %123

113:                                              ; preds = %108
  %114 = load i8*, i8** %33, align 8
  %115 = call i32 @strcmp(i8* %114, i8* getelementptr inbounds ([8 x i8], [8 x i8]* @.str.9, i64 0, i64 0)) #11
  %116 = icmp eq i32 %115, 0
  br i1 %116, label %122, label %117

117:                                              ; preds = %113
  %118 = call dereferenceable(64) %"class.icu_69::CharString"* @_ZN6icu_6910CharString8truncateEi(%"class.icu_69::CharString"* %32, i32 0) #10
  call void @_ZN6icu_6911StringPieceC1EPKc(%"class.icu_69::StringPiece"* nonnull %19, i8* getelementptr inbounds ([8 x i8], [8 x i8]* @.str.9, i64 0, i64 0)) #10
  %119 = load i8*, i8** %102, align 8
  %120 = load i32, i32* %103, align 8
  %121 = call dereferenceable(64) %"class.icu_69::CharString"* @_ZN6icu_6910CharString6appendEPKciR10UErrorCode(%"class.icu_69::CharString"* %118, i8* %119, i32 %120, i32* dereferenceable(4) %8) #10
  br label %123

122:                                              ; preds = %113
  store i32 2, i32* %8, align 4
  br label %218

123:                                              ; preds = %117, %111
  %124 = load i32, i32* %8, align 4
  %125 = icmp slt i32 %124, 1
  br i1 %125, label %126, label %218

126:                                              ; preds = %123
  %127 = load i32, i32* %52, align 8
  %128 = icmp sgt i32 %127, 0
  br i1 %128, label %129, label %105

129:                                              ; preds = %126
  %130 = load %"class.icu_69::units::UnitPreferenceMetadata"**, %"class.icu_69::units::UnitPreferenceMetadata"*** %56, align 8
  %131 = load i8*, i8** %58, align 8
  %132 = load i8*, i8** %60, align 8
  %133 = load i8*, i8** %62, align 8
  br label %134

134:                                              ; preds = %157, %129
  %135 = phi i8 [ 0, %129 ], [ %158, %157 ]
  %136 = phi i32 [ %127, %129 ], [ %163, %157 ]
  %137 = phi i32 [ 0, %129 ], [ %162, %157 ]
  %138 = add nsw i32 %137, %136
  %139 = sdiv i32 %138, 2
  %140 = sext i32 %139 to i64
  %141 = getelementptr inbounds %"class.icu_69::units::UnitPreferenceMetadata"*, %"class.icu_69::units::UnitPreferenceMetadata"** %130, i64 %140
  %142 = load %"class.icu_69::units::UnitPreferenceMetadata"*, %"class.icu_69::units::UnitPreferenceMetadata"** %141, align 8
  %143 = getelementptr inbounds %"class.icu_69::units::UnitPreferenceMetadata", %"class.icu_69::units::UnitPreferenceMetadata"* %142, i64 0, i32 1, i32 0, i32 0
  %144 = load i8*, i8** %143, align 8
  %145 = call i32 @strcmp(i8* %144, i8* %131) #11
  %146 = icmp eq i32 %145, 0
  br i1 %146, label %147, label %157

147:                                              ; preds = %134
  %148 = getelementptr inbounds %"class.icu_69::units::UnitPreferenceMetadata", %"class.icu_69::units::UnitPreferenceMetadata"* %142, i64 0, i32 2, i32 0, i32 0
  %149 = load i8*, i8** %148, align 8
  %150 = call i32 @strcmp(i8* %149, i8* %132) #11
  %151 = icmp eq i32 %150, 0
  br i1 %151, label %152, label %157

152:                                              ; preds = %147
  %153 = getelementptr inbounds %"class.icu_69::units::UnitPreferenceMetadata", %"class.icu_69::units::UnitPreferenceMetadata"* %142, i64 0, i32 3, i32 0, i32 0
  %154 = load i8*, i8** %153, align 8
  %155 = call i32 @strcmp(i8* %154, i8* %133) #11
  %156 = icmp eq i32 %155, 0
  br i1 %156, label %218, label %157

157:                                              ; preds = %152, %147, %134
  %158 = phi i8 [ 1, %152 ], [ %135, %147 ], [ %135, %134 ]
  %159 = phi i32 [ %155, %152 ], [ %150, %147 ], [ %145, %134 ]
  %160 = icmp slt i32 %159, 0
  %161 = add nsw i32 %139, 1
  %162 = select i1 %160, i32 %161, i32 %137
  %163 = select i1 %160, i32 %136, i32 %139
  %164 = icmp slt i32 %162, %163
  br i1 %164, label %134, label %105

165:                                              ; preds = %105
  %166 = load i8*, i8** %39, align 8
  br label %167

167:                                              ; preds = %165, %99
  %168 = phi i8* [ %166, %165 ], [ %63, %99 ]
  %169 = call i32 @strcmp(i8* %168, i8* getelementptr inbounds ([4 x i8], [4 x i8]* @.str.10, i64 0, i64 0)) #11
  %170 = icmp eq i32 %169, 0
  br i1 %170, label %217, label %171

171:                                              ; preds = %167
  %172 = call dereferenceable(64) %"class.icu_69::CharString"* @_ZN6icu_6910CharString8truncateEi(%"class.icu_69::CharString"* %38, i32 0) #10
  call void @_ZN6icu_6911StringPieceC1EPKc(%"class.icu_69::StringPiece"* nonnull %20, i8* getelementptr inbounds ([4 x i8], [4 x i8]* @.str.10, i64 0, i64 0)) #10
  %173 = getelementptr inbounds { i8*, i32 }, { i8*, i32 }* %12, i64 0, i32 0
  %174 = load i8*, i8** %173, align 8
  %175 = getelementptr inbounds { i8*, i32 }, { i8*, i32 }* %12, i64 0, i32 1
  %176 = load i32, i32* %175, align 8
  %177 = call dereferenceable(64) %"class.icu_69::CharString"* @_ZN6icu_6910CharString6appendEPKciR10UErrorCode(%"class.icu_69::CharString"* %172, i8* %174, i32 %176, i32* dereferenceable(4) %8) #10
  %178 = load i32, i32* %8, align 4
  %179 = icmp slt i32 %178, 1
  br i1 %179, label %180, label %217

180:                                              ; preds = %171
  %181 = load i32, i32* %52, align 8
  %182 = icmp sgt i32 %181, 0
  br i1 %182, label %183, label %217

183:                                              ; preds = %180
  %184 = load %"class.icu_69::units::UnitPreferenceMetadata"**, %"class.icu_69::units::UnitPreferenceMetadata"*** %56, align 8
  %185 = load i8*, i8** %58, align 8
  %186 = load i8*, i8** %60, align 8
  %187 = load i8*, i8** %62, align 8
  br label %188

188:                                              ; preds = %210, %183
  %189 = phi i32 [ %181, %183 ], [ %215, %210 ]
  %190 = phi i32 [ 0, %183 ], [ %214, %210 ]
  %191 = add nsw i32 %190, %189
  %192 = sdiv i32 %191, 2
  %193 = sext i32 %192 to i64
  %194 = getelementptr inbounds %"class.icu_69::units::UnitPreferenceMetadata"*, %"class.icu_69::units::UnitPreferenceMetadata"** %184, i64 %193
  %195 = load %"class.icu_69::units::UnitPreferenceMetadata"*, %"class.icu_69::units::UnitPreferenceMetadata"** %194, align 8
  %196 = getelementptr inbounds %"class.icu_69::units::UnitPreferenceMetadata", %"class.icu_69::units::UnitPreferenceMetadata"* %195, i64 0, i32 1, i32 0, i32 0
  %197 = load i8*, i8** %196, align 8
  %198 = call i32 @strcmp(i8* %197, i8* %185) #11
  %199 = icmp eq i32 %198, 0
  br i1 %199, label %200, label %210

200:                                              ; preds = %188
  %201 = getelementptr inbounds %"class.icu_69::units::UnitPreferenceMetadata", %"class.icu_69::units::UnitPreferenceMetadata"* %195, i64 0, i32 2, i32 0, i32 0
  %202 = load i8*, i8** %201, align 8
  %203 = call i32 @strcmp(i8* %202, i8* %186) #11
  %204 = icmp eq i32 %203, 0
  br i1 %204, label %205, label %210

205:                                              ; preds = %200
  %206 = getelementptr inbounds %"class.icu_69::units::UnitPreferenceMetadata", %"class.icu_69::units::UnitPreferenceMetadata"* %195, i64 0, i32 3, i32 0, i32 0
  %207 = load i8*, i8** %206, align 8
  %208 = call i32 @strcmp(i8* %207, i8* %187) #11
  %209 = icmp eq i32 %208, 0
  br i1 %209, label %218, label %210

210:                                              ; preds = %205, %200, %188
  %211 = phi i32 [ %208, %205 ], [ %203, %200 ], [ %198, %188 ]
  %212 = icmp slt i32 %211, 0
  %213 = add nsw i32 %192, 1
  %214 = select i1 %212, i32 %213, i32 %190
  %215 = select i1 %212, i32 %189, i32 %192
  %216 = icmp slt i32 %214, %215
  br i1 %216, label %188, label %217

217:                                              ; preds = %210, %180, %171, %167
  store i32 2, i32* %8, align 4
  br label %218

218:                                              ; preds = %83, %123, %152, %205, %217, %122, %104, %24
  %219 = phi i32 [ -1, %217 ], [ -1, %104 ], [ -1, %122 ], [ -1, %24 ], [ %192, %205 ], [ %139, %152 ], [ -1, %123 ], [ %70, %83 ]
  %220 = load i8, i8* %42, align 4
  %221 = icmp eq i8 %220, 0
  br i1 %221, label %225, label %222

222:                                              ; preds = %218
  %223 = getelementptr inbounds %"class.icu_69::units::UnitPreferenceMetadata", %"class.icu_69::units::UnitPreferenceMetadata"* %10, i64 0, i32 3, i32 0, i32 0
  %224 = load i8*, i8** %223, align 8
  call void @uprv_free_69(i8* %224) #10
  br label %225

225:                                              ; preds = %222, %218
  %226 = load i8, i8* %36, align 4
  %227 = icmp eq i8 %226, 0
  br i1 %227, label %231, label %228

228:                                              ; preds = %225
  %229 = getelementptr inbounds %"class.icu_69::units::UnitPreferenceMetadata", %"class.icu_69::units::UnitPreferenceMetadata"* %10, i64 0, i32 2, i32 0, i32 0
  %230 = load i8*, i8** %229, align 8
  call void @uprv_free_69(i8* %230) #10
  br label %231

231:                                              ; preds = %228, %225
  %232 = load i8, i8* %30, align 4
  %233 = icmp eq i8 %232, 0
  br i1 %233, label %237, label %234

234:                                              ; preds = %231
  %235 = getelementptr inbounds %"class.icu_69::units::UnitPreferenceMetadata", %"class.icu_69::units::UnitPreferenceMetadata"* %10, i64 0, i32 1, i32 0, i32 0
  %236 = load i8*, i8** %235, align 8
  call void @uprv_free_69(i8* %236) #10
  br label %237

237:                                              ; preds = %231, %234
  call void @llvm.lifetime.end.p0i8(i64 208, i8* nonnull %25) #10
  %238 = load i32, i32* %8, align 4
  call void @llvm.lifetime.end.p0i8(i64 16, i8* nonnull %17)
  call void @llvm.lifetime.end.p0i8(i64 16, i8* nonnull %18)
  %239 = icmp slt i32 %238, 1
  br i1 %239, label %241, label %240

240:                                              ; preds = %23, %237
  store %"struct.icu_69::units::UnitPreference"** null, %"struct.icu_69::units::UnitPreference"*** %6, align 8
  br label %255

241:                                              ; preds = %237
  %242 = sext i32 %219 to i64
  %243 = getelementptr inbounds %"class.icu_69::units::UnitPreferences", %"class.icu_69::units::UnitPreferences"* %0, i64 0, i32 0, i32 0, i32 1, i32 0
  %244 = load %"class.icu_69::units::UnitPreferenceMetadata"**, %"class.icu_69::units::UnitPreferenceMetadata"*** %243, align 8
  %245 = getelementptr inbounds %"class.icu_69::units::UnitPreferenceMetadata"*, %"class.icu_69::units::UnitPreferenceMetadata"** %244, i64 %242
  %246 = load %"class.icu_69::units::UnitPreferenceMetadata"*, %"class.icu_69::units::UnitPreferenceMetadata"** %245, align 8
  %247 = getelementptr inbounds %"class.icu_69::units::UnitPreferences", %"class.icu_69::units::UnitPreferences"* %0, i64 0, i32 1, i32 0, i32 1, i32 0
  %248 = load %"struct.icu_69::units::UnitPreference"**, %"struct.icu_69::units::UnitPreference"*** %247, align 8
  %249 = getelementptr inbounds %"class.icu_69::units::UnitPreferenceMetadata", %"class.icu_69::units::UnitPreferenceMetadata"* %246, i64 0, i32 4
  %250 = load i32, i32* %249, align 8
  %251 = sext i32 %250 to i64
  %252 = getelementptr inbounds %"struct.icu_69::units::UnitPreference"*, %"struct.icu_69::units::UnitPreference"** %248, i64 %251
  store %"struct.icu_69::units::UnitPreference"** %252, %"struct.icu_69::units::UnitPreference"*** %6, align 8
  %253 = getelementptr inbounds %"class.icu_69::units::UnitPreferenceMetadata", %"class.icu_69::units::UnitPreferenceMetadata"* %246, i64 0, i32 5
  %254 = load i32, i32* %253, align 4
  br label %255

255:                                              ; preds = %241, %240
  %256 = phi i32 [ %254, %241 ], [ 0, %240 ]
  store i32 %256, i32* %7, align 4
  ret void
}

declare dereferenceable(64) %"class.icu_69::CharString"* @_ZN6icu_6910CharString6appendEPKciR10UErrorCode(%"class.icu_69::CharString"*, i8*, i32, i32* dereferenceable(4)) local_unnamed_addr #4

; Function Attrs: inlinehint nounwind ssp uwtable
define internal void @_ZN6icu_695units12_GLOBAL__N_122ConversionRateDataSinkD0Ev(%"class.icu_69::units::(anonymous namespace)::ConversionRateDataSink"*) unnamed_addr #1 align 2 {
  %2 = getelementptr inbounds %"class.icu_69::units::(anonymous namespace)::ConversionRateDataSink", %"class.icu_69::units::(anonymous namespace)::ConversionRateDataSink"* %0, i64 0, i32 0
  tail call void @_ZN6icu_6912ResourceSinkD2Ev(%"class.icu_69::ResourceSink"* %2) #10
  %3 = bitcast %"class.icu_69::units::(anonymous namespace)::ConversionRateDataSink"* %0 to i8*
  tail call void @_ZN6icu_697UMemorydlEPv(i8* %3) #10
  ret void
}

declare i8* @_ZNK6icu_697UObject17getDynamicClassIDEv(%"class.icu_69::UObject"*) unnamed_addr #4

; Function Attrs: nounwind ssp uwtable
define internal void @_ZN6icu_695units12_GLOBAL__N_122ConversionRateDataSink3putEPKcRNS_13ResourceValueEaR10UErrorCode(%"class.icu_69::units::(anonymous namespace)::ConversionRateDataSink"* nocapture readonly, i8* nocapture readonly, %"class.icu_69::ResourceValue"* dereferenceable(8), i8 signext, i32* dereferenceable(4)) unnamed_addr #0 align 2 {
  %6 = alloca %"class.icu_69::CharString", align 8
  %7 = alloca i32, align 4
  %8 = alloca %"class.icu_69::ConstChar16Ptr", align 8
  %9 = alloca i32, align 4
  %10 = alloca %"class.icu_69::ConstChar16Ptr", align 8
  %11 = alloca i32, align 4
  %12 = alloca %"class.icu_69::ConstChar16Ptr", align 8
  %13 = alloca %"class.icu_69::ResourceTable", align 8
  %14 = alloca i8*, align 8
  %15 = alloca %"class.icu_69::ResourceTable", align 8
  %16 = alloca i8*, align 8
  %17 = alloca %"class.icu_69::UnicodeString", align 8
  %18 = alloca %"class.icu_69::UnicodeString", align 8
  %19 = alloca %"class.icu_69::UnicodeString", align 8
  %20 = alloca %"class.icu_69::UnicodeString", align 8
  %21 = alloca %"class.icu_69::UnicodeString", align 8
  %22 = alloca %"class.icu_69::UnicodeString", align 8
  %23 = alloca { i8*, i32 }, align 8
  %24 = bitcast { i8*, i32 }* %23 to %"class.icu_69::StringPiece"*
  %25 = load i32, i32* %4, align 4
  %26 = icmp slt i32 %25, 1
  br i1 %26, label %27, label %196

27:                                               ; preds = %5
  %28 = tail call i32 @strcmp(i8* %1, i8* getelementptr inbounds ([13 x i8], [13 x i8]* @.str.1, i64 0, i64 0)) #11
  %29 = icmp eq i32 %28, 0
  br i1 %29, label %31, label %30

30:                                               ; preds = %27
  store i32 1, i32* %4, align 4
  br label %196

31:                                               ; preds = %27
  %32 = bitcast %"class.icu_69::ResourceTable"* %13 to i8*
  call void @llvm.lifetime.start.p0i8(i64 72, i8* nonnull %32) #10
  call void @llvm.memset.p0i8.i64(i8* nonnull align 8 %32, i8 -86, i64 72, i1 false)
  %33 = bitcast %"class.icu_69::ResourceValue"* %2 to void (%"class.icu_69::ResourceTable"*, %"class.icu_69::ResourceValue"*, i32*)***
  %34 = load void (%"class.icu_69::ResourceTable"*, %"class.icu_69::ResourceValue"*, i32*)**, void (%"class.icu_69::ResourceTable"*, %"class.icu_69::ResourceValue"*, i32*)*** %33, align 8
  %35 = getelementptr inbounds void (%"class.icu_69::ResourceTable"*, %"class.icu_69::ResourceValue"*, i32*)*, void (%"class.icu_69::ResourceTable"*, %"class.icu_69::ResourceValue"*, i32*)** %34, i64 11
  %36 = load void (%"class.icu_69::ResourceTable"*, %"class.icu_69::ResourceValue"*, i32*)*, void (%"class.icu_69::ResourceTable"*, %"class.icu_69::ResourceValue"*, i32*)** %35, align 8
  call void %36(%"class.icu_69::ResourceTable"* nonnull sret %13, %"class.icu_69::ResourceValue"* %2, i32* dereferenceable(4) %4) #10
  %37 = bitcast i8** %14 to i8*
  call void @llvm.lifetime.start.p0i8(i64 8, i8* nonnull %37) #10
  store i8* inttoptr (i64 -6148914691236517206 to i8*), i8** %14, align 8
  %38 = call signext i8 @_ZNK6icu_6913ResourceTable14getKeyAndValueEiRPKcRNS_13ResourceValueE(%"class.icu_69::ResourceTable"* nonnull %13, i32 0, i8** nonnull dereferenceable(8) %14, %"class.icu_69::ResourceValue"* dereferenceable(8) %2) #10
  %39 = icmp eq i8 %38, 0
  br i1 %39, label %194, label %40

40:                                               ; preds = %31
  %41 = bitcast %"class.icu_69::ResourceTable"* %15 to i8*
  %42 = bitcast i8** %16 to i8*
  %43 = bitcast %"class.icu_69::UnicodeString"* %17 to i8*
  %44 = getelementptr inbounds %"class.icu_69::UnicodeString", %"class.icu_69::UnicodeString"* %17, i64 0, i32 0, i32 0, i32 0
  %45 = getelementptr inbounds %"class.icu_69::UnicodeString", %"class.icu_69::UnicodeString"* %17, i64 0, i32 1, i32 0, i32 0
  %46 = bitcast %"class.icu_69::UnicodeString"* %18 to i8*
  %47 = getelementptr inbounds %"class.icu_69::UnicodeString", %"class.icu_69::UnicodeString"* %18, i64 0, i32 0, i32 0, i32 0
  %48 = getelementptr inbounds %"class.icu_69::UnicodeString", %"class.icu_69::UnicodeString"* %18, i64 0, i32 1, i32 0, i32 0
  %49 = bitcast %"class.icu_69::UnicodeString"* %19 to i8*
  %50 = getelementptr inbounds %"class.icu_69::UnicodeString", %"class.icu_69::UnicodeString"* %19, i64 0, i32 0, i32 0, i32 0
  %51 = getelementptr inbounds %"class.icu_69::UnicodeString", %"class.icu_69::UnicodeString"* %19, i64 0, i32 1, i32 0, i32 0
  %52 = bitcast %"class.icu_69::UnicodeString"* %22 to i8*
  %53 = bitcast %"class.icu_69::ConstChar16Ptr"* %8 to i8*
  %54 = bitcast i32* %7 to i8*
  %55 = bitcast %"class.icu_69::ResourceValue"* %2 to i16* (%"class.icu_69::ResourceValue"*, i32*, i32*)***
  %56 = getelementptr inbounds %"class.icu_69::ConstChar16Ptr", %"class.icu_69::ConstChar16Ptr"* %8, i64 0, i32 0
  %57 = bitcast %"class.icu_69::UnicodeString"* %21 to i8*
  %58 = bitcast %"class.icu_69::ConstChar16Ptr"* %10 to i8*
  %59 = bitcast i32* %9 to i8*
  %60 = getelementptr inbounds %"class.icu_69::ConstChar16Ptr", %"class.icu_69::ConstChar16Ptr"* %10, i64 0, i32 0
  %61 = bitcast %"class.icu_69::UnicodeString"* %20 to i8*
  %62 = bitcast %"class.icu_69::ConstChar16Ptr"* %12 to i8*
  %63 = bitcast i32* %11 to i8*
  %64 = getelementptr inbounds %"class.icu_69::ConstChar16Ptr", %"class.icu_69::ConstChar16Ptr"* %12, i64 0, i32 0
  %65 = getelementptr inbounds %"class.icu_69::units::(anonymous namespace)::ConversionRateDataSink", %"class.icu_69::units::(anonymous namespace)::ConversionRateDataSink"* %0, i64 0, i32 1
  %66 = getelementptr inbounds { i8*, i32 }, { i8*, i32 }* %23, i64 0, i32 0
  %67 = getelementptr inbounds { i8*, i32 }, { i8*, i32 }* %23, i64 0, i32 1
  %68 = bitcast %"class.icu_69::CharString"* %6 to i8*
  %69 = getelementptr inbounds %"class.icu_69::CharString", %"class.icu_69::CharString"* %6, i64 0, i32 0, i32 0
  %70 = getelementptr inbounds %"class.icu_69::CharString", %"class.icu_69::CharString"* %6, i64 0, i32 0, i32 3, i64 0
  %71 = getelementptr inbounds %"class.icu_69::CharString", %"class.icu_69::CharString"* %6, i64 0, i32 0, i32 1
  %72 = getelementptr inbounds %"class.icu_69::CharString", %"class.icu_69::CharString"* %6, i64 0, i32 0, i32 2
  %73 = getelementptr inbounds %"class.icu_69::CharString", %"class.icu_69::CharString"* %6, i64 0, i32 1
  %74 = getelementptr inbounds %"class.icu_69::ResourceTable", %"class.icu_69::ResourceTable"* %15, i64 0, i32 6
  %75 = bitcast %"class.icu_69::UnicodeString"* %17 to i8*
  %76 = bitcast %"class.icu_69::UnicodeString"* %18 to i8*
  %77 = bitcast %"class.icu_69::UnicodeString"* %19 to i8*
  br label %81

78:                                               ; preds = %191
  %79 = call signext i8 @_ZNK6icu_6913ResourceTable14getKeyAndValueEiRPKcRNS_13ResourceValueE(%"class.icu_69::ResourceTable"* nonnull %13, i32 %193, i8** nonnull dereferenceable(8) %14, %"class.icu_69::ResourceValue"* dereferenceable(8) %2) #10
  %80 = icmp eq i8 %79, 0
  br i1 %80, label %194, label %81

81:                                               ; preds = %40, %78
  %82 = phi i32 [ 0, %40 ], [ %193, %78 ]
  call void @llvm.lifetime.start.p0i8(i64 72, i8* nonnull %41) #10
  call void @llvm.memset.p0i8.i64(i8* nonnull align 8 %41, i8 -86, i64 72, i1 false)
  %83 = load void (%"class.icu_69::ResourceTable"*, %"class.icu_69::ResourceValue"*, i32*)**, void (%"class.icu_69::ResourceTable"*, %"class.icu_69::ResourceValue"*, i32*)*** %33, align 8
  %84 = getelementptr inbounds void (%"class.icu_69::ResourceTable"*, %"class.icu_69::ResourceValue"*, i32*)*, void (%"class.icu_69::ResourceTable"*, %"class.icu_69::ResourceValue"*, i32*)** %83, i64 11
  %85 = load void (%"class.icu_69::ResourceTable"*, %"class.icu_69::ResourceValue"*, i32*)*, void (%"class.icu_69::ResourceTable"*, %"class.icu_69::ResourceValue"*, i32*)** %84, align 8
  call void %85(%"class.icu_69::ResourceTable"* nonnull sret %15, %"class.icu_69::ResourceValue"* %2, i32* dereferenceable(4) %4) #10
  call void @llvm.lifetime.start.p0i8(i64 8, i8* nonnull %42) #10
  store i8* inttoptr (i64 -6148914691236517206 to i8*), i8** %16, align 8
  call void @llvm.lifetime.start.p0i8(i64 64, i8* nonnull %43) #10
  call void @llvm.memset.p0i8.i64(i8* nonnull align 8 %75, i8 -86, i64 64, i1 false)
  store i32 (...)** bitcast (i8** getelementptr inbounds ({ [13 x i8*] }, { [13 x i8*] }* @_ZTVN6icu_6913UnicodeStringE, i64 0, inrange i32 0, i64 2) to i32 (...)**), i32 (...)*** %44, align 8, !alias.scope !2
  store i16 2, i16* %45, align 8, !alias.scope !2
  call void @_ZN6icu_6913UnicodeString10setToBogusEv(%"class.icu_69::UnicodeString"* nonnull %17) #10
  call void @llvm.lifetime.start.p0i8(i64 64, i8* nonnull %46) #10
  call void @llvm.memset.p0i8.i64(i8* nonnull align 8 %76, i8 -86, i64 64, i1 false)
  store i32 (...)** bitcast (i8** getelementptr inbounds ({ [13 x i8*] }, { [13 x i8*] }* @_ZTVN6icu_6913UnicodeStringE, i64 0, inrange i32 0, i64 2) to i32 (...)**), i32 (...)*** %47, align 8, !alias.scope !5
  store i16 2, i16* %48, align 8, !alias.scope !5
  call void @_ZN6icu_6913UnicodeString10setToBogusEv(%"class.icu_69::UnicodeString"* nonnull %18) #10
  call void @llvm.lifetime.start.p0i8(i64 64, i8* nonnull %49) #10
  call void @llvm.memset.p0i8.i64(i8* nonnull align 8 %77, i8 -86, i64 64, i1 false)
  store i32 (...)** bitcast (i8** getelementptr inbounds ({ [13 x i8*] }, { [13 x i8*] }* @_ZTVN6icu_6913UnicodeStringE, i64 0, inrange i32 0, i64 2) to i32 (...)**), i32 (...)*** %50, align 8, !alias.scope !8
  store i16 2, i16* %51, align 8, !alias.scope !8
  call void @_ZN6icu_6913UnicodeString10setToBogusEv(%"class.icu_69::UnicodeString"* nonnull %19) #10
  %86 = call signext i8 @_ZNK6icu_6913ResourceTable14getKeyAndValueEiRPKcRNS_13ResourceValueE(%"class.icu_69::ResourceTable"* nonnull %15, i32 0, i8** nonnull dereferenceable(8) %16, %"class.icu_69::ResourceValue"* dereferenceable(8) %2) #10
  %87 = icmp eq i8 %86, 0
  br i1 %87, label %88, label %91

88:                                               ; preds = %129, %81
  %89 = load i32, i32* %4, align 4
  %90 = icmp slt i32 %89, 1
  br i1 %90, label %133, label %191

91:                                               ; preds = %81, %129
  %92 = phi i32 [ %130, %129 ], [ 0, %81 ]
  %93 = load i8*, i8** %16, align 8
  %94 = call i32 @strcmp(i8* %93, i8* getelementptr inbounds ([7 x i8], [7 x i8]* @.str.3, i64 0, i64 0)) #11
  %95 = icmp eq i32 %94, 0
  br i1 %95, label %96, label %104

96:                                               ; preds = %91
  call void @llvm.lifetime.start.p0i8(i64 64, i8* nonnull %61) #10
  call void @llvm.lifetime.start.p0i8(i64 8, i8* nonnull %62)
  call void @llvm.lifetime.start.p0i8(i64 4, i8* nonnull %63) #10, !noalias !11
  store i32 0, i32* %11, align 4, !noalias !11
  %97 = load i16* (%"class.icu_69::ResourceValue"*, i32*, i32*)**, i16* (%"class.icu_69::ResourceValue"*, i32*, i32*)*** %55, align 8, !noalias !11
  %98 = getelementptr inbounds i16* (%"class.icu_69::ResourceValue"*, i32*, i32*)*, i16* (%"class.icu_69::ResourceValue"*, i32*, i32*)** %97, i64 4
  %99 = load i16* (%"class.icu_69::ResourceValue"*, i32*, i32*)*, i16* (%"class.icu_69::ResourceValue"*, i32*, i32*)** %98, align 8, !noalias !11
  %100 = call i16* %99(%"class.icu_69::ResourceValue"* %2, i32* nonnull dereferenceable(4) %11, i32* dereferenceable(4) %4) #10, !noalias !11
  store i16* %100, i16** %64, align 8, !noalias !11
  %101 = load i32, i32* %11, align 4, !noalias !11
  call void @_ZN6icu_6913UnicodeStringC1EaNS_14ConstChar16PtrEi(%"class.icu_69::UnicodeString"* nonnull %20, i8 signext 1, %"class.icu_69::ConstChar16Ptr"* nonnull %12, i32 %101) #10
  %102 = load i16*, i16** %64, align 8, !noalias !11
  call void asm sideeffect "", "rm,~{memory},~{dirflag},~{fpsr},~{flags}"(i16* %102) #10, !srcloc !14
  call void @llvm.lifetime.end.p0i8(i64 4, i8* nonnull %63) #10, !noalias !11
  call void @llvm.lifetime.end.p0i8(i64 8, i8* nonnull %62)
  %103 = call dereferenceable(64) %"class.icu_69::UnicodeString"* @_ZN6icu_6913UnicodeStringaSEOS0_(%"class.icu_69::UnicodeString"* nonnull %17, %"class.icu_69::UnicodeString"* nonnull dereferenceable(64) %20) #10
  br label %126

104:                                              ; preds = %91
  %105 = call i32 @strcmp(i8* %93, i8* getelementptr inbounds ([7 x i8], [7 x i8]* @.str.4, i64 0, i64 0)) #11
  %106 = icmp eq i32 %105, 0
  br i1 %106, label %107, label %115

107:                                              ; preds = %104
  call void @llvm.lifetime.start.p0i8(i64 64, i8* nonnull %57) #10
  call void @llvm.lifetime.start.p0i8(i64 8, i8* nonnull %58)
  call void @llvm.lifetime.start.p0i8(i64 4, i8* nonnull %59) #10, !noalias !15
  store i32 0, i32* %9, align 4, !noalias !15
  %108 = load i16* (%"class.icu_69::ResourceValue"*, i32*, i32*)**, i16* (%"class.icu_69::ResourceValue"*, i32*, i32*)*** %55, align 8, !noalias !15
  %109 = getelementptr inbounds i16* (%"class.icu_69::ResourceValue"*, i32*, i32*)*, i16* (%"class.icu_69::ResourceValue"*, i32*, i32*)** %108, i64 4
  %110 = load i16* (%"class.icu_69::ResourceValue"*, i32*, i32*)*, i16* (%"class.icu_69::ResourceValue"*, i32*, i32*)** %109, align 8, !noalias !15
  %111 = call i16* %110(%"class.icu_69::ResourceValue"* %2, i32* nonnull dereferenceable(4) %9, i32* dereferenceable(4) %4) #10, !noalias !15
  store i16* %111, i16** %60, align 8, !noalias !15
  %112 = load i32, i32* %9, align 4, !noalias !15
  call void @_ZN6icu_6913UnicodeStringC1EaNS_14ConstChar16PtrEi(%"class.icu_69::UnicodeString"* nonnull %21, i8 signext 1, %"class.icu_69::ConstChar16Ptr"* nonnull %10, i32 %112) #10
  %113 = load i16*, i16** %60, align 8, !noalias !15
  call void asm sideeffect "", "rm,~{memory},~{dirflag},~{fpsr},~{flags}"(i16* %113) #10, !srcloc !14
  call void @llvm.lifetime.end.p0i8(i64 4, i8* nonnull %59) #10, !noalias !15
  call void @llvm.lifetime.end.p0i8(i64 8, i8* nonnull %58)
  %114 = call dereferenceable(64) %"class.icu_69::UnicodeString"* @_ZN6icu_6913UnicodeStringaSEOS0_(%"class.icu_69::UnicodeString"* nonnull %18, %"class.icu_69::UnicodeString"* nonnull dereferenceable(64) %21) #10
  br label %126

115:                                              ; preds = %104
  %116 = call i32 @strcmp(i8* %93, i8* getelementptr inbounds ([7 x i8], [7 x i8]* @.str.5, i64 0, i64 0)) #11
  %117 = icmp eq i32 %116, 0
  br i1 %117, label %118, label %129

118:                                              ; preds = %115
  call void @llvm.lifetime.start.p0i8(i64 64, i8* nonnull %52) #10
  call void @llvm.lifetime.start.p0i8(i64 8, i8* nonnull %53)
  call void @llvm.lifetime.start.p0i8(i64 4, i8* nonnull %54) #10, !noalias !18
  store i32 0, i32* %7, align 4, !noalias !18
  %119 = load i16* (%"class.icu_69::ResourceValue"*, i32*, i32*)**, i16* (%"class.icu_69::ResourceValue"*, i32*, i32*)*** %55, align 8, !noalias !18
  %120 = getelementptr inbounds i16* (%"class.icu_69::ResourceValue"*, i32*, i32*)*, i16* (%"class.icu_69::ResourceValue"*, i32*, i32*)** %119, i64 4
  %121 = load i16* (%"class.icu_69::ResourceValue"*, i32*, i32*)*, i16* (%"class.icu_69::ResourceValue"*, i32*, i32*)** %120, align 8, !noalias !18
  %122 = call i16* %121(%"class.icu_69::ResourceValue"* %2, i32* nonnull dereferenceable(4) %7, i32* dereferenceable(4) %4) #10, !noalias !18
  store i16* %122, i16** %56, align 8, !noalias !18
  %123 = load i32, i32* %7, align 4, !noalias !18
  call void @_ZN6icu_6913UnicodeStringC1EaNS_14ConstChar16PtrEi(%"class.icu_69::UnicodeString"* nonnull %22, i8 signext 1, %"class.icu_69::ConstChar16Ptr"* nonnull %8, i32 %123) #10
  %124 = load i16*, i16** %56, align 8, !noalias !18
  call void asm sideeffect "", "rm,~{memory},~{dirflag},~{fpsr},~{flags}"(i16* %124) #10, !srcloc !14
  call void @llvm.lifetime.end.p0i8(i64 4, i8* nonnull %54) #10, !noalias !18
  call void @llvm.lifetime.end.p0i8(i64 8, i8* nonnull %53)
  %125 = call dereferenceable(64) %"class.icu_69::UnicodeString"* @_ZN6icu_6913UnicodeStringaSEOS0_(%"class.icu_69::UnicodeString"* nonnull %19, %"class.icu_69::UnicodeString"* nonnull dereferenceable(64) %22) #10
  br label %126

126:                                              ; preds = %107, %118, %96
  %127 = phi %"class.icu_69::UnicodeString"* [ %20, %96 ], [ %22, %118 ], [ %21, %107 ]
  %128 = phi i8* [ %61, %96 ], [ %52, %118 ], [ %57, %107 ]
  call void @_ZN6icu_6913UnicodeStringD1Ev(%"class.icu_69::UnicodeString"* nonnull %127) #10
  call void @llvm.lifetime.end.p0i8(i64 64, i8* nonnull %128) #10
  br label %129

129:                                              ; preds = %126, %115
  %130 = add nuw nsw i32 %92, 1
  %131 = call signext i8 @_ZNK6icu_6913ResourceTable14getKeyAndValueEiRPKcRNS_13ResourceValueE(%"class.icu_69::ResourceTable"* nonnull %15, i32 %130, i8** nonnull dereferenceable(8) %16, %"class.icu_69::ResourceValue"* dereferenceable(8) %2) #10
  %132 = icmp eq i8 %131, 0
  br i1 %132, label %88, label %91

133:                                              ; preds = %88
  %134 = load i16, i16* %45, align 8
  %135 = and i16 %134, 1
  %136 = icmp eq i16 %135, 0
  br i1 %136, label %137, label %141

137:                                              ; preds = %133
  %138 = load i16, i16* %48, align 8
  %139 = and i16 %138, 1
  %140 = icmp eq i16 %139, 0
  br i1 %140, label %142, label %141

141:                                              ; preds = %137, %133
  store i32 2, i32* %4, align 4
  br label %191

142:                                              ; preds = %137
  %143 = load %"class.icu_69::MaybeStackVector"*, %"class.icu_69::MaybeStackVector"** %65, align 8
  %144 = getelementptr inbounds %"class.icu_69::MaybeStackVector", %"class.icu_69::MaybeStackVector"* %143, i64 0, i32 0
  %145 = call %"class.icu_69::units::ConversionRateInfo"* @_ZN6icu_6910MemoryPoolINS_5units18ConversionRateInfoELi8EE6createIJEEEPS2_DpOT_(%"class.icu_69::MemoryPool"* %144) #10
  %146 = icmp eq %"class.icu_69::units::ConversionRateInfo"* %145, null
  br i1 %146, label %147, label %148

147:                                              ; preds = %142
  store i32 7, i32* %4, align 4
  br label %191

148:                                              ; preds = %142
  %149 = getelementptr inbounds %"class.icu_69::units::ConversionRateInfo", %"class.icu_69::units::ConversionRateInfo"* %145, i64 0, i32 1
  %150 = load i8*, i8** %14, align 8
  call void @_ZN6icu_6911StringPieceC1EPKc(%"class.icu_69::StringPiece"* nonnull %24, i8* %150) #10
  %151 = load i8*, i8** %66, align 8
  %152 = load i32, i32* %67, align 8
  %153 = call dereferenceable(64) %"class.icu_69::CharString"* @_ZN6icu_6910CharString6appendEPKciR10UErrorCode(%"class.icu_69::CharString"* %149, i8* %151, i32 %152, i32* dereferenceable(4) %4) #10
  %154 = getelementptr inbounds %"class.icu_69::units::ConversionRateInfo", %"class.icu_69::units::ConversionRateInfo"* %145, i64 0, i32 2
  %155 = call dereferenceable(64) %"class.icu_69::CharString"* @_ZN6icu_6910CharString20appendInvariantCharsERKNS_13UnicodeStringER10UErrorCode(%"class.icu_69::CharString"* %154, %"class.icu_69::UnicodeString"* nonnull dereferenceable(64) %17, i32* dereferenceable(4) %4) #10
  %156 = getelementptr inbounds %"class.icu_69::units::ConversionRateInfo", %"class.icu_69::units::ConversionRateInfo"* %145, i64 0, i32 3
  %157 = call dereferenceable(64) %"class.icu_69::CharString"* @_ZN6icu_6910CharString20appendInvariantCharsERKNS_13UnicodeStringER10UErrorCode(%"class.icu_69::CharString"* %156, %"class.icu_69::UnicodeString"* nonnull dereferenceable(64) %18, i32* dereferenceable(4) %4) #10
  call void @llvm.lifetime.start.p0i8(i64 64, i8* nonnull %68) #10
  call void @llvm.memset.p0i8.i64(i8* nonnull align 8 %68, i8 -86, i64 64, i1 false) #10
  store i8* %70, i8** %69, align 8
  store i32 40, i32* %71, align 8
  store i8 0, i8* %72, align 4
  store i32 0, i32* %73, align 8
  store i8 0, i8* %70, align 1
  %158 = getelementptr inbounds %"class.icu_69::units::ConversionRateInfo", %"class.icu_69::units::ConversionRateInfo"* %145, i64 0, i32 3, i32 1
  %159 = load i32, i32* %158, align 8
  %160 = icmp sgt i32 %159, 0
  br i1 %160, label %161, label %163

161:                                              ; preds = %148
  %162 = getelementptr inbounds %"class.icu_69::CharString", %"class.icu_69::CharString"* %156, i64 0, i32 0, i32 0
  br label %169

163:                                              ; preds = %179, %148
  %164 = call dereferenceable(64) %"class.icu_69::CharString"* @_ZN6icu_6910CharStringaSEOS0_(%"class.icu_69::CharString"* %156, %"class.icu_69::CharString"* nonnull dereferenceable(64) %6) #10
  %165 = load i8, i8* %72, align 4
  %166 = icmp eq i8 %165, 0
  br i1 %166, label %184, label %167

167:                                              ; preds = %163
  %168 = load i8*, i8** %69, align 8
  call void @uprv_free_69(i8* %168) #10
  br label %184

169:                                              ; preds = %179, %161
  %170 = phi i32 [ %159, %161 ], [ %180, %179 ]
  %171 = phi i64 [ 0, %161 ], [ %181, %179 ]
  %172 = load i8*, i8** %162, align 8
  %173 = getelementptr inbounds i8, i8* %172, i64 %171
  %174 = load i8, i8* %173, align 1
  %175 = icmp eq i8 %174, 32
  br i1 %175, label %179, label %176

176:                                              ; preds = %169
  %177 = call dereferenceable(64) %"class.icu_69::CharString"* @_ZN6icu_6910CharString6appendEcR10UErrorCode(%"class.icu_69::CharString"* nonnull %6, i8 signext %174, i32* dereferenceable(4) %4) #10
  %178 = load i32, i32* %158, align 8
  br label %179

179:                                              ; preds = %176, %169
  %180 = phi i32 [ %170, %169 ], [ %178, %176 ]
  %181 = add nuw nsw i64 %171, 1
  %182 = sext i32 %180 to i64
  %183 = icmp slt i64 %181, %182
  br i1 %183, label %169, label %163

184:                                              ; preds = %163, %167
  call void @llvm.lifetime.end.p0i8(i64 64, i8* nonnull %68) #10
  %185 = load i16, i16* %51, align 8
  %186 = and i16 %185, 1
  %187 = icmp eq i16 %186, 0
  br i1 %187, label %188, label %191

188:                                              ; preds = %184
  %189 = getelementptr inbounds %"class.icu_69::units::ConversionRateInfo", %"class.icu_69::units::ConversionRateInfo"* %145, i64 0, i32 4
  %190 = call dereferenceable(64) %"class.icu_69::CharString"* @_ZN6icu_6910CharString20appendInvariantCharsERKNS_13UnicodeStringER10UErrorCode(%"class.icu_69::CharString"* %189, %"class.icu_69::UnicodeString"* nonnull dereferenceable(64) %19, i32* dereferenceable(4) %4) #10
  br label %191

191:                                              ; preds = %147, %184, %188, %88, %141
  %192 = phi i1 [ false, %141 ], [ false, %88 ], [ false, %147 ], [ true, %184 ], [ true, %188 ]
  call void @_ZN6icu_6913UnicodeStringD1Ev(%"class.icu_69::UnicodeString"* nonnull %19) #10
  call void @llvm.lifetime.end.p0i8(i64 64, i8* nonnull %49) #10
  call void @_ZN6icu_6913UnicodeStringD1Ev(%"class.icu_69::UnicodeString"* nonnull %18) #10
  call void @llvm.lifetime.end.p0i8(i64 64, i8* nonnull %46) #10
  call void @_ZN6icu_6913UnicodeStringD1Ev(%"class.icu_69::UnicodeString"* nonnull %17) #10
  call void @llvm.lifetime.end.p0i8(i64 64, i8* nonnull %43) #10
  call void @llvm.lifetime.end.p0i8(i64 8, i8* nonnull %42) #10
  call void @_ZN6icu_6914ResourceTracerD1Ev(%"class.icu_69::ResourceTracer"* %74) #10
  call void @llvm.lifetime.end.p0i8(i64 72, i8* nonnull %41) #10
  %193 = add nuw nsw i32 %82, 1
  br i1 %192, label %78, label %194

194:                                              ; preds = %191, %78, %31
  call void @llvm.lifetime.end.p0i8(i64 8, i8* nonnull %37) #10
  %195 = getelementptr inbounds %"class.icu_69::ResourceTable", %"class.icu_69::ResourceTable"* %13, i64 0, i32 6
  call void @_ZN6icu_6914ResourceTracerD1Ev(%"class.icu_69::ResourceTracer"* %195) #10
  call void @llvm.lifetime.end.p0i8(i64 72, i8* nonnull %32) #10
  br label %196

196:                                              ; preds = %5, %194, %30
  ret void
}

; Function Attrs: nounwind
declare void @_ZN6icu_697UMemorydlEPv(i8*) local_unnamed_addr #8

; Function Attrs: argmemonly nounwind
declare void @llvm.memset.p0i8.i64(i8* nocapture writeonly, i8, i64, i1 immarg) #2

declare signext i8 @_ZNK6icu_6913ResourceTable14getKeyAndValueEiRPKcRNS_13ResourceValueE(%"class.icu_69::ResourceTable"*, i32, i8** dereferenceable(8), %"class.icu_69::ResourceValue"* dereferenceable(8)) local_unnamed_addr #4

; Function Attrs: nounwind
declare dereferenceable(64) %"class.icu_69::UnicodeString"* @_ZN6icu_6913UnicodeStringaSEOS0_(%"class.icu_69::UnicodeString"*, %"class.icu_69::UnicodeString"* dereferenceable(64)) local_unnamed_addr #8

; Function Attrs: nounwind
declare void @_ZN6icu_6913UnicodeStringD1Ev(%"class.icu_69::UnicodeString"*) unnamed_addr #8

declare void @_ZN6icu_6911StringPieceC1EPKc(%"class.icu_69::StringPiece"*, i8*) unnamed_addr #4

declare dereferenceable(64) %"class.icu_69::CharString"* @_ZN6icu_6910CharString20appendInvariantCharsERKNS_13UnicodeStringER10UErrorCode(%"class.icu_69::CharString"*, %"class.icu_69::UnicodeString"* dereferenceable(64), i32* dereferenceable(4)) local_unnamed_addr #4

declare void @_ZN6icu_6913UnicodeString10setToBogusEv(%"class.icu_69::UnicodeString"*) local_unnamed_addr #4

declare void @_ZN6icu_6913UnicodeStringC1EaNS_14ConstChar16PtrEi(%"class.icu_69::UnicodeString"*, i8 signext, %"class.icu_69::ConstChar16Ptr"*, i32) unnamed_addr #4

; Function Attrs: nounwind ssp uwtable
define linkonce_odr hidden %"class.icu_69::units::ConversionRateInfo"* @_ZN6icu_6910MemoryPoolINS_5units18ConversionRateInfoELi8EE6createIJEEEPS2_DpOT_(%"class.icu_69::MemoryPool"*) local_unnamed_addr #0 comdat align 2 {
  %2 = getelementptr inbounds %"class.icu_69::MemoryPool", %"class.icu_69::MemoryPool"* %0, i64 0, i32 1
  %3 = getelementptr inbounds %"class.icu_69::MemoryPool", %"class.icu_69::MemoryPool"* %0, i64 0, i32 1, i32 1
  %4 = load i32, i32* %3, align 8
  %5 = getelementptr inbounds %"class.icu_69::MemoryPool", %"class.icu_69::MemoryPool"* %0, i64 0, i32 0
  %6 = load i32, i32* %5, align 8
  %7 = icmp eq i32 %6, %4
  br i1 %7, label %8, label %40

8:                                                ; preds = %1
  %9 = icmp eq i32 %4, 8
  %10 = select i1 %9, i32 2, i32 1
  %11 = shl nsw i32 %4, %10
  %12 = icmp sgt i32 %11, 0
  br i1 %12, label %13, label %85

13:                                               ; preds = %8
  %14 = sext i32 %11 to i64
  %15 = shl nsw i64 %14, 3
  %16 = tail call noalias i8* @uprv_malloc_69(i64 %15) #9
  %17 = icmp eq i8* %16, null
  br i1 %17, label %85, label %18

18:                                               ; preds = %13
  %19 = icmp sgt i32 %4, 0
  br i1 %19, label %22, label %20

20:                                               ; preds = %18
  %21 = bitcast %"class.icu_69::MaybeStackArray.0"* %2 to i8**
  br label %32

22:                                               ; preds = %18
  %23 = load i32, i32* %3, align 8
  %24 = icmp slt i32 %23, %4
  %25 = select i1 %24, i32 %23, i32 %4
  %26 = icmp sgt i32 %25, %11
  %27 = select i1 %26, i32 %11, i32 %25
  %28 = bitcast %"class.icu_69::MaybeStackArray.0"* %2 to i8**
  %29 = load i8*, i8** %28, align 8
  %30 = sext i32 %27 to i64
  %31 = shl nsw i64 %30, 3
  tail call void @llvm.memcpy.p0i8.p0i8.i64(i8* nonnull align 8 %16, i8* align 8 %29, i64 %31, i1 false) #10
  br label %32

32:                                               ; preds = %20, %22
  %33 = phi i8** [ %21, %20 ], [ %28, %22 ]
  %34 = getelementptr inbounds %"class.icu_69::MemoryPool", %"class.icu_69::MemoryPool"* %0, i64 0, i32 1, i32 2
  %35 = load i8, i8* %34, align 4
  %36 = icmp eq i8 %35, 0
  br i1 %36, label %39, label %37

37:                                               ; preds = %32
  %38 = load i8*, i8** %33, align 8
  tail call void @uprv_free_69(i8* %38) #10
  br label %39

39:                                               ; preds = %37, %32
  store i8* %16, i8** %33, align 8
  store i32 %11, i32* %3, align 8
  store i8 1, i8* %34, align 4
  br label %40

40:                                               ; preds = %39, %1
  %41 = tail call i8* @_ZN6icu_697UMemorynwEm(i64 264) #10
  %42 = icmp eq i8* %41, null
  br i1 %42, label %77, label %43

43:                                               ; preds = %40
  %44 = bitcast i8* %41 to %"class.icu_69::units::ConversionRateInfo"*
  %45 = getelementptr inbounds i8, i8* %41, i64 8
  %46 = bitcast i8* %45 to i8**
  %47 = getelementptr inbounds i8, i8* %41, i64 21
  store i8* %47, i8** %46, align 8
  %48 = getelementptr inbounds i8, i8* %41, i64 16
  %49 = bitcast i8* %48 to i32*
  store i32 40, i32* %49, align 8
  %50 = getelementptr inbounds i8, i8* %41, i64 20
  store i8 0, i8* %50, align 4
  %51 = getelementptr inbounds i8, i8* %41, i64 64
  %52 = bitcast i8* %51 to i32*
  store i32 0, i32* %52, align 8
  store i8 0, i8* %47, align 1
  %53 = getelementptr inbounds i8, i8* %41, i64 72
  %54 = bitcast i8* %53 to i8**
  %55 = getelementptr inbounds i8, i8* %41, i64 85
  store i8* %55, i8** %54, align 8
  %56 = getelementptr inbounds i8, i8* %41, i64 80
  %57 = bitcast i8* %56 to i32*
  store i32 40, i32* %57, align 8
  %58 = getelementptr inbounds i8, i8* %41, i64 84
  store i8 0, i8* %58, align 4
  %59 = getelementptr inbounds i8, i8* %41, i64 128
  %60 = bitcast i8* %59 to i32*
  store i32 0, i32* %60, align 8
  store i8 0, i8* %55, align 1
  %61 = getelementptr inbounds i8, i8* %41, i64 136
  %62 = bitcast i8* %61 to i8**
  %63 = getelementptr inbounds i8, i8* %41, i64 149
  store i8* %63, i8** %62, align 8
  %64 = getelementptr inbounds i8, i8* %41, i64 144
  %65 = bitcast i8* %64 to i32*
  store i32 40, i32* %65, align 8
  %66 = getelementptr inbounds i8, i8* %41, i64 148
  store i8 0, i8* %66, align 4
  %67 = getelementptr inbounds i8, i8* %41, i64 192
  %68 = bitcast i8* %67 to i32*
  store i32 0, i32* %68, align 8
  store i8 0, i8* %63, align 1
  %69 = getelementptr inbounds i8, i8* %41, i64 200
  %70 = bitcast i8* %69 to i8**
  %71 = getelementptr inbounds i8, i8* %41, i64 213
  store i8* %71, i8** %70, align 8
  %72 = getelementptr inbounds i8, i8* %41, i64 208
  %73 = bitcast i8* %72 to i32*
  store i32 40, i32* %73, align 8
  %74 = getelementptr inbounds i8, i8* %41, i64 212
  store i8 0, i8* %74, align 4
  %75 = getelementptr inbounds i8, i8* %41, i64 256
  %76 = bitcast i8* %75 to i32*
  store i32 0, i32* %76, align 8
  store i8 0, i8* %71, align 1
  br label %77

77:                                               ; preds = %43, %40
  %78 = phi %"class.icu_69::units::ConversionRateInfo"* [ %44, %43 ], [ null, %40 ]
  %79 = load i32, i32* %5, align 8
  %80 = add nsw i32 %79, 1
  store i32 %80, i32* %5, align 8
  %81 = sext i32 %79 to i64
  %82 = getelementptr inbounds %"class.icu_69::MaybeStackArray.0", %"class.icu_69::MaybeStackArray.0"* %2, i64 0, i32 0
  %83 = load %"class.icu_69::units::ConversionRateInfo"**, %"class.icu_69::units::ConversionRateInfo"*** %82, align 8
  %84 = getelementptr inbounds %"class.icu_69::units::ConversionRateInfo"*, %"class.icu_69::units::ConversionRateInfo"** %83, i64 %81
  store %"class.icu_69::units::ConversionRateInfo"* %78, %"class.icu_69::units::ConversionRateInfo"** %84, align 8
  br label %85

85:                                               ; preds = %13, %8, %77
  %86 = phi %"class.icu_69::units::ConversionRateInfo"* [ %78, %77 ], [ null, %8 ], [ null, %13 ]
  ret %"class.icu_69::units::ConversionRateInfo"* %86
}

; Function Attrs: nounwind
declare i8* @_ZN6icu_697UMemorynwEm(i64) local_unnamed_addr #8

declare dereferenceable(64) %"class.icu_69::CharString"* @_ZN6icu_6910CharString6appendEcR10UErrorCode(%"class.icu_69::CharString"*, i8 signext, i32* dereferenceable(4)) local_unnamed_addr #4

; Function Attrs: nounwind
declare dereferenceable(64) %"class.icu_69::CharString"* @_ZN6icu_6910CharStringaSEOS0_(%"class.icu_69::CharString"*, %"class.icu_69::CharString"* dereferenceable(64)) local_unnamed_addr #8

; Function Attrs: nounwind
declare void @_ZN6icu_6914ResourceTracerD1Ev(%"class.icu_69::ResourceTracer"*) unnamed_addr #8

declare void @ures_close_69(%struct.UResourceBundle*) local_unnamed_addr #4

; Function Attrs: inlinehint nounwind ssp uwtable
define internal void @_ZN6icu_695units12_GLOBAL__N_119UnitPreferencesSinkD0Ev(%"class.icu_69::units::(anonymous namespace)::UnitPreferencesSink"*) unnamed_addr #1 align 2 {
  %2 = getelementptr inbounds %"class.icu_69::units::(anonymous namespace)::UnitPreferencesSink", %"class.icu_69::units::(anonymous namespace)::UnitPreferencesSink"* %0, i64 0, i32 0
  tail call void @_ZN6icu_6912ResourceSinkD2Ev(%"class.icu_69::ResourceSink"* %2) #10
  %3 = bitcast %"class.icu_69::units::(anonymous namespace)::UnitPreferencesSink"* %0 to i8*
  tail call void @_ZN6icu_697UMemorydlEPv(i8* %3) #10
  ret void
}

; Function Attrs: nounwind ssp uwtable
define internal void @_ZN6icu_695units12_GLOBAL__N_119UnitPreferencesSink3putEPKcRNS_13ResourceValueEaR10UErrorCode(%"class.icu_69::units::(anonymous namespace)::UnitPreferencesSink"* nocapture readonly, i8*, %"class.icu_69::ResourceValue"* dereferenceable(8), i8 signext, i32* dereferenceable(4)) unnamed_addr #0 align 2 {
  %6 = alloca i32, align 4
  %7 = alloca %"class.icu_69::ConstChar16Ptr", align 8
  %8 = alloca i8*, align 8
  %9 = alloca %"class.icu_69::ResourceTable", align 8
  %10 = alloca i8*, align 8
  %11 = alloca %"class.icu_69::ResourceTable", align 8
  %12 = alloca i8*, align 8
  %13 = alloca %"class.icu_69::ResourceTable", align 8
  %14 = alloca i8*, align 8
  %15 = alloca %"class.icu_69::ResourceArray", align 8
  %16 = alloca i32, align 4
  %17 = alloca i32, align 4
  %18 = alloca %"class.icu_69::ResourceTable", align 8
  %19 = alloca i32, align 4
  %20 = alloca i32, align 4
  %21 = alloca %"class.icu_69::CharString", align 8
  %22 = alloca %"class.icu_69::number::impl::DecimalQuantity", align 8
  %23 = alloca { i8*, i32 }, align 8
  %24 = bitcast { i8*, i32 }* %23 to %"class.icu_69::StringPiece"*
  %25 = alloca %"class.icu_69::UnicodeString", align 8
  store i8* %1, i8** %8, align 8
  %26 = load i32, i32* %4, align 4
  %27 = icmp slt i32 %26, 1
  br i1 %27, label %28, label %242

28:                                               ; preds = %5
  %29 = tail call i32 @strcmp(i8* %1, i8* getelementptr inbounds ([19 x i8], [19 x i8]* @.str.2, i64 0, i64 0)) #11
  %30 = icmp eq i32 %29, 0
  br i1 %30, label %32, label %31

31:                                               ; preds = %28
  store i32 1, i32* %4, align 4
  br label %242

32:                                               ; preds = %28
  %33 = bitcast %"class.icu_69::ResourceTable"* %9 to i8*
  call void @llvm.lifetime.start.p0i8(i64 72, i8* nonnull %33) #10
  call void @llvm.memset.p0i8.i64(i8* nonnull align 8 %33, i8 -86, i64 72, i1 false)
  %34 = bitcast %"class.icu_69::ResourceValue"* %2 to void (%"class.icu_69::ResourceTable"*, %"class.icu_69::ResourceValue"*, i32*)***
  %35 = load void (%"class.icu_69::ResourceTable"*, %"class.icu_69::ResourceValue"*, i32*)**, void (%"class.icu_69::ResourceTable"*, %"class.icu_69::ResourceValue"*, i32*)*** %34, align 8
  %36 = getelementptr inbounds void (%"class.icu_69::ResourceTable"*, %"class.icu_69::ResourceValue"*, i32*)*, void (%"class.icu_69::ResourceTable"*, %"class.icu_69::ResourceValue"*, i32*)** %35, i64 11
  %37 = load void (%"class.icu_69::ResourceTable"*, %"class.icu_69::ResourceValue"*, i32*)*, void (%"class.icu_69::ResourceTable"*, %"class.icu_69::ResourceValue"*, i32*)** %36, align 8
  call void %37(%"class.icu_69::ResourceTable"* nonnull sret %9, %"class.icu_69::ResourceValue"* %2, i32* dereferenceable(4) %4) #10
  %38 = bitcast i8** %10 to i8*
  call void @llvm.lifetime.start.p0i8(i64 8, i8* nonnull %38) #10
  store i8* inttoptr (i64 -6148914691236517206 to i8*), i8** %10, align 8
  %39 = call signext i8 @_ZNK6icu_6913ResourceTable14getKeyAndValueEiRPKcRNS_13ResourceValueE(%"class.icu_69::ResourceTable"* nonnull %9, i32 0, i8** nonnull dereferenceable(8) %10, %"class.icu_69::ResourceValue"* dereferenceable(8) %2) #10
  %40 = icmp eq i8 %39, 0
  br i1 %40, label %240, label %41

41:                                               ; preds = %32
  %42 = bitcast %"class.icu_69::ResourceTable"* %11 to i8*
  %43 = bitcast i8** %12 to i8*
  %44 = bitcast %"class.icu_69::ResourceTable"* %13 to i8*
  %45 = bitcast i8** %14 to i8*
  %46 = bitcast %"class.icu_69::ResourceArray"* %15 to i8*
  %47 = bitcast %"class.icu_69::ResourceValue"* %2 to void (%"class.icu_69::ResourceArray"*, %"class.icu_69::ResourceValue"*, i32*)***
  %48 = bitcast i32* %16 to i8*
  %49 = getelementptr inbounds %"class.icu_69::ResourceArray", %"class.icu_69::ResourceArray"* %15, i64 0, i32 2
  %50 = getelementptr inbounds %"class.icu_69::units::(anonymous namespace)::UnitPreferencesSink", %"class.icu_69::units::(anonymous namespace)::UnitPreferencesSink"* %0, i64 0, i32 2
  %51 = bitcast i32* %17 to i8*
  %52 = getelementptr inbounds %"class.icu_69::units::(anonymous namespace)::UnitPreferencesSink", %"class.icu_69::units::(anonymous namespace)::UnitPreferencesSink"* %0, i64 0, i32 1
  %53 = bitcast %"class.icu_69::ResourceTable"* %18 to i8*
  %54 = bitcast %"class.icu_69::UnicodeString"* %25 to i8*
  %55 = bitcast %"class.icu_69::ConstChar16Ptr"* %7 to i8*
  %56 = bitcast i32* %6 to i8*
  %57 = bitcast %"class.icu_69::ResourceValue"* %2 to i16* (%"class.icu_69::ResourceValue"*, i32*, i32*)***
  %58 = getelementptr inbounds %"class.icu_69::ConstChar16Ptr", %"class.icu_69::ConstChar16Ptr"* %7, i64 0, i32 0
  %59 = bitcast i32* %20 to i8*
  %60 = bitcast %"class.icu_69::CharString"* %21 to i8*
  %61 = getelementptr inbounds %"class.icu_69::CharString", %"class.icu_69::CharString"* %21, i64 0, i32 0, i32 0
  %62 = getelementptr inbounds %"class.icu_69::CharString", %"class.icu_69::CharString"* %21, i64 0, i32 0, i32 3, i64 0
  %63 = getelementptr inbounds %"class.icu_69::CharString", %"class.icu_69::CharString"* %21, i64 0, i32 0, i32 1
  %64 = getelementptr inbounds %"class.icu_69::CharString", %"class.icu_69::CharString"* %21, i64 0, i32 0, i32 2
  %65 = getelementptr inbounds %"class.icu_69::CharString", %"class.icu_69::CharString"* %21, i64 0, i32 1
  %66 = bitcast %"class.icu_69::number::impl::DecimalQuantity"* %22 to i8*
  %67 = getelementptr inbounds { i8*, i32 }, { i8*, i32 }* %23, i64 0, i32 0
  %68 = getelementptr inbounds { i8*, i32 }, { i8*, i32 }* %23, i64 0, i32 1
  %69 = bitcast i32* %19 to i8*
  %70 = getelementptr inbounds %"class.icu_69::ResourceTable", %"class.icu_69::ResourceTable"* %18, i64 0, i32 6
  %71 = getelementptr inbounds %"class.icu_69::ResourceArray", %"class.icu_69::ResourceArray"* %15, i64 0, i32 4
  %72 = getelementptr inbounds %"class.icu_69::ResourceTable", %"class.icu_69::ResourceTable"* %13, i64 0, i32 6
  %73 = getelementptr inbounds %"class.icu_69::ResourceTable", %"class.icu_69::ResourceTable"* %11, i64 0, i32 6
  br label %74

74:                                               ; preds = %41, %236
  %75 = phi i32 [ 0, %41 ], [ %237, %236 ]
  call void @llvm.lifetime.start.p0i8(i64 72, i8* nonnull %42) #10
  call void @llvm.memset.p0i8.i64(i8* nonnull align 8 %42, i8 -86, i64 72, i1 false)
  %76 = load void (%"class.icu_69::ResourceTable"*, %"class.icu_69::ResourceValue"*, i32*)**, void (%"class.icu_69::ResourceTable"*, %"class.icu_69::ResourceValue"*, i32*)*** %34, align 8
  %77 = getelementptr inbounds void (%"class.icu_69::ResourceTable"*, %"class.icu_69::ResourceValue"*, i32*)*, void (%"class.icu_69::ResourceTable"*, %"class.icu_69::ResourceValue"*, i32*)** %76, i64 11
  %78 = load void (%"class.icu_69::ResourceTable"*, %"class.icu_69::ResourceValue"*, i32*)*, void (%"class.icu_69::ResourceTable"*, %"class.icu_69::ResourceValue"*, i32*)** %77, align 8
  call void %78(%"class.icu_69::ResourceTable"* nonnull sret %11, %"class.icu_69::ResourceValue"* %2, i32* dereferenceable(4) %4) #10
  call void @llvm.lifetime.start.p0i8(i64 8, i8* nonnull %43) #10
  store i8* inttoptr (i64 -6148914691236517206 to i8*), i8** %12, align 8
  %79 = call signext i8 @_ZNK6icu_6913ResourceTable14getKeyAndValueEiRPKcRNS_13ResourceValueE(%"class.icu_69::ResourceTable"* nonnull %11, i32 0, i8** nonnull dereferenceable(8) %12, %"class.icu_69::ResourceValue"* dereferenceable(8) %2) #10
  %80 = icmp eq i8 %79, 0
  br i1 %80, label %236, label %81

81:                                               ; preds = %74, %231
  %82 = phi i32 [ %232, %231 ], [ 0, %74 ]
  call void @llvm.lifetime.start.p0i8(i64 72, i8* nonnull %44) #10
  call void @llvm.memset.p0i8.i64(i8* nonnull align 8 %44, i8 -86, i64 72, i1 false)
  %83 = load void (%"class.icu_69::ResourceTable"*, %"class.icu_69::ResourceValue"*, i32*)**, void (%"class.icu_69::ResourceTable"*, %"class.icu_69::ResourceValue"*, i32*)*** %34, align 8
  %84 = getelementptr inbounds void (%"class.icu_69::ResourceTable"*, %"class.icu_69::ResourceValue"*, i32*)*, void (%"class.icu_69::ResourceTable"*, %"class.icu_69::ResourceValue"*, i32*)** %83, i64 11
  %85 = load void (%"class.icu_69::ResourceTable"*, %"class.icu_69::ResourceValue"*, i32*)*, void (%"class.icu_69::ResourceTable"*, %"class.icu_69::ResourceValue"*, i32*)** %84, align 8
  call void %85(%"class.icu_69::ResourceTable"* nonnull sret %13, %"class.icu_69::ResourceValue"* %2, i32* dereferenceable(4) %4) #10
  call void @llvm.lifetime.start.p0i8(i64 8, i8* nonnull %45) #10
  store i8* inttoptr (i64 -6148914691236517206 to i8*), i8** %14, align 8
  %86 = call signext i8 @_ZNK6icu_6913ResourceTable14getKeyAndValueEiRPKcRNS_13ResourceValueE(%"class.icu_69::ResourceTable"* nonnull %13, i32 0, i8** nonnull dereferenceable(8) %14, %"class.icu_69::ResourceValue"* dereferenceable(8) %2) #10
  %87 = icmp eq i8 %86, 0
  br i1 %87, label %231, label %91

88:                                               ; preds = %227
  %89 = call signext i8 @_ZNK6icu_6913ResourceTable14getKeyAndValueEiRPKcRNS_13ResourceValueE(%"class.icu_69::ResourceTable"* nonnull %13, i32 %230, i8** nonnull dereferenceable(8) %14, %"class.icu_69::ResourceValue"* dereferenceable(8) %2) #10
  %90 = icmp eq i8 %89, 0
  br i1 %90, label %231, label %91

91:                                               ; preds = %81, %88
  %92 = phi i32 [ %230, %88 ], [ 0, %81 ]
  call void @llvm.lifetime.start.p0i8(i64 56, i8* nonnull %46) #10
  call void @llvm.memset.p0i8.i64(i8* nonnull align 8 %46, i8 -86, i64 56, i1 false)
  %93 = load void (%"class.icu_69::ResourceArray"*, %"class.icu_69::ResourceValue"*, i32*)**, void (%"class.icu_69::ResourceArray"*, %"class.icu_69::ResourceValue"*, i32*)*** %47, align 8
  %94 = getelementptr inbounds void (%"class.icu_69::ResourceArray"*, %"class.icu_69::ResourceValue"*, i32*)*, void (%"class.icu_69::ResourceArray"*, %"class.icu_69::ResourceValue"*, i32*)** %93, i64 10
  %95 = load void (%"class.icu_69::ResourceArray"*, %"class.icu_69::ResourceValue"*, i32*)*, void (%"class.icu_69::ResourceArray"*, %"class.icu_69::ResourceValue"*, i32*)** %94, align 8
  call void %95(%"class.icu_69::ResourceArray"* nonnull sret %15, %"class.icu_69::ResourceValue"* %2, i32* dereferenceable(4) %4) #10
  %96 = load i32, i32* %4, align 4
  %97 = icmp slt i32 %96, 1
  br i1 %97, label %98, label %227

98:                                               ; preds = %91
  call void @llvm.lifetime.start.p0i8(i64 4, i8* nonnull %48) #10
  %99 = load i32, i32* %49, align 8
  store i32 %99, i32* %16, align 4
  %100 = load %"class.icu_69::MaybeStackVector.1"*, %"class.icu_69::MaybeStackVector.1"** %50, align 8
  call void @llvm.lifetime.start.p0i8(i64 4, i8* nonnull %51) #10
  %101 = load %"class.icu_69::MaybeStackVector.4"*, %"class.icu_69::MaybeStackVector.4"** %52, align 8
  %102 = getelementptr inbounds %"class.icu_69::MaybeStackVector.4", %"class.icu_69::MaybeStackVector.4"* %101, i64 0, i32 0, i32 0
  %103 = load i32, i32* %102, align 8
  store i32 %103, i32* %17, align 4
  %104 = getelementptr inbounds %"class.icu_69::MaybeStackVector.1", %"class.icu_69::MaybeStackVector.1"* %100, i64 0, i32 0
  %105 = call %"class.icu_69::units::UnitPreferenceMetadata"* @_ZN6icu_6910MemoryPoolINS_5units22UnitPreferenceMetadataELi8EE6createIJRPKcS7_S7_RiS8_R10UErrorCodeEEEPS2_DpOT_(%"class.icu_69::MemoryPool.2"* %104, i8** nonnull dereferenceable(8) %10, i8** nonnull dereferenceable(8) %12, i8** nonnull dereferenceable(8) %14, i32* nonnull dereferenceable(4) %17, i32* nonnull dereferenceable(4) %16, i32* dereferenceable(4) %4) #10
  call void @llvm.lifetime.end.p0i8(i64 4, i8* nonnull %51) #10
  %106 = icmp eq %"class.icu_69::units::UnitPreferenceMetadata"* %105, null
  br i1 %106, label %107, label %108

107:                                              ; preds = %98
  store i32 7, i32* %4, align 4
  br label %225

108:                                              ; preds = %98
  %109 = load i32, i32* %4, align 4
  %110 = icmp slt i32 %109, 1
  br i1 %110, label %111, label %225

111:                                              ; preds = %108
  %112 = load %"class.icu_69::MaybeStackVector.1"*, %"class.icu_69::MaybeStackVector.1"** %50, align 8
  %113 = getelementptr inbounds %"class.icu_69::MaybeStackVector.1", %"class.icu_69::MaybeStackVector.1"* %112, i64 0, i32 0, i32 0
  %114 = load i32, i32* %113, align 8
  %115 = icmp sgt i32 %114, 1
  br i1 %115, label %116, label %150

116:                                              ; preds = %111
  %117 = add nsw i32 %114, -2
  %118 = sext i32 %117 to i64
  %119 = getelementptr inbounds %"class.icu_69::MaybeStackVector.1", %"class.icu_69::MaybeStackVector.1"* %112, i64 0, i32 0, i32 1, i32 0
  %120 = load %"class.icu_69::units::UnitPreferenceMetadata"**, %"class.icu_69::units::UnitPreferenceMetadata"*** %119, align 8
  %121 = getelementptr inbounds %"class.icu_69::units::UnitPreferenceMetadata"*, %"class.icu_69::units::UnitPreferenceMetadata"** %120, i64 %118
  %122 = load %"class.icu_69::units::UnitPreferenceMetadata"*, %"class.icu_69::units::UnitPreferenceMetadata"** %121, align 8
  %123 = add nsw i32 %114, -1
  %124 = sext i32 %123 to i64
  %125 = getelementptr inbounds %"class.icu_69::units::UnitPreferenceMetadata"*, %"class.icu_69::units::UnitPreferenceMetadata"** %120, i64 %124
  %126 = load %"class.icu_69::units::UnitPreferenceMetadata"*, %"class.icu_69::units::UnitPreferenceMetadata"** %125, align 8
  %127 = getelementptr inbounds %"class.icu_69::units::UnitPreferenceMetadata", %"class.icu_69::units::UnitPreferenceMetadata"* %122, i64 0, i32 1, i32 0, i32 0
  %128 = load i8*, i8** %127, align 8
  %129 = getelementptr inbounds %"class.icu_69::units::UnitPreferenceMetadata", %"class.icu_69::units::UnitPreferenceMetadata"* %126, i64 0, i32 1, i32 0, i32 0
  %130 = load i8*, i8** %129, align 8
  %131 = call i32 @strcmp(i8* %128, i8* %130) #11
  %132 = icmp eq i32 %131, 0
  br i1 %132, label %133, label %146

133:                                              ; preds = %116
  %134 = getelementptr inbounds %"class.icu_69::units::UnitPreferenceMetadata", %"class.icu_69::units::UnitPreferenceMetadata"* %122, i64 0, i32 2, i32 0, i32 0
  %135 = load i8*, i8** %134, align 8
  %136 = getelementptr inbounds %"class.icu_69::units::UnitPreferenceMetadata", %"class.icu_69::units::UnitPreferenceMetadata"* %126, i64 0, i32 2, i32 0, i32 0
  %137 = load i8*, i8** %136, align 8
  %138 = call i32 @strcmp(i8* %135, i8* %137) #11
  %139 = icmp eq i32 %138, 0
  br i1 %139, label %140, label %146

140:                                              ; preds = %133
  %141 = getelementptr inbounds %"class.icu_69::units::UnitPreferenceMetadata", %"class.icu_69::units::UnitPreferenceMetadata"* %122, i64 0, i32 3, i32 0, i32 0
  %142 = load i8*, i8** %141, align 8
  %143 = getelementptr inbounds %"class.icu_69::units::UnitPreferenceMetadata", %"class.icu_69::units::UnitPreferenceMetadata"* %126, i64 0, i32 3, i32 0, i32 0
  %144 = load i8*, i8** %143, align 8
  %145 = call i32 @strcmp(i8* %142, i8* %144) #11
  br label %146

146:                                              ; preds = %116, %133, %140
  %147 = phi i32 [ %145, %140 ], [ %138, %133 ], [ %131, %116 ]
  %148 = icmp slt i32 %147, 0
  br i1 %148, label %150, label %149

149:                                              ; preds = %146
  store i32 3, i32* %4, align 4
  br label %225

150:                                              ; preds = %146, %111
  %151 = call signext i8 @_ZNK6icu_6913ResourceArray8getValueEiRNS_13ResourceValueE(%"class.icu_69::ResourceArray"* nonnull %15, i32 0, %"class.icu_69::ResourceValue"* dereferenceable(8) %2) #10
  %152 = icmp eq i8 %151, 0
  br i1 %152, label %225, label %153

153:                                              ; preds = %150, %220
  %154 = phi i32 [ %221, %220 ], [ 0, %150 ]
  %155 = load %"class.icu_69::MaybeStackVector.4"*, %"class.icu_69::MaybeStackVector.4"** %52, align 8
  %156 = getelementptr inbounds %"class.icu_69::MaybeStackVector.4", %"class.icu_69::MaybeStackVector.4"* %155, i64 0, i32 0
  %157 = call %"struct.icu_69::units::UnitPreference"* @_ZN6icu_6910MemoryPoolINS_5units14UnitPreferenceELi8EE6createIJEEEPS2_DpOT_(%"class.icu_69::MemoryPool.5"* %156) #10
  %158 = icmp eq %"struct.icu_69::units::UnitPreference"* %157, null
  br i1 %158, label %159, label %160

159:                                              ; preds = %153
  store i32 7, i32* %4, align 4
  br label %225

160:                                              ; preds = %153
  call void @llvm.lifetime.start.p0i8(i64 72, i8* nonnull %53) #10
  call void @llvm.memset.p0i8.i64(i8* nonnull align 8 %53, i8 -86, i64 72, i1 false)
  %161 = load void (%"class.icu_69::ResourceTable"*, %"class.icu_69::ResourceValue"*, i32*)**, void (%"class.icu_69::ResourceTable"*, %"class.icu_69::ResourceValue"*, i32*)*** %34, align 8
  %162 = getelementptr inbounds void (%"class.icu_69::ResourceTable"*, %"class.icu_69::ResourceValue"*, i32*)*, void (%"class.icu_69::ResourceTable"*, %"class.icu_69::ResourceValue"*, i32*)** %161, i64 11
  %163 = load void (%"class.icu_69::ResourceTable"*, %"class.icu_69::ResourceValue"*, i32*)*, void (%"class.icu_69::ResourceTable"*, %"class.icu_69::ResourceValue"*, i32*)** %162, align 8
  call void %163(%"class.icu_69::ResourceTable"* nonnull sret %18, %"class.icu_69::ResourceValue"* %2, i32* dereferenceable(4) %4) #10
  %164 = load i32, i32* %4, align 4
  %165 = icmp slt i32 %164, 1
  br i1 %165, label %166, label %224

166:                                              ; preds = %160
  %167 = call signext i8 @_ZNK6icu_6913ResourceTable14getKeyAndValueEiRPKcRNS_13ResourceValueE(%"class.icu_69::ResourceTable"* nonnull %18, i32 0, i8** nonnull dereferenceable(8) %8, %"class.icu_69::ResourceValue"* dereferenceable(8) %2) #10
  %168 = icmp eq i8 %167, 0
  br i1 %168, label %220, label %169

169:                                              ; preds = %166
  %170 = getelementptr inbounds %"struct.icu_69::units::UnitPreference", %"struct.icu_69::units::UnitPreference"* %157, i64 0, i32 3
  %171 = getelementptr inbounds %"struct.icu_69::units::UnitPreference", %"struct.icu_69::units::UnitPreference"* %157, i64 0, i32 2
  %172 = getelementptr inbounds %"struct.icu_69::units::UnitPreference", %"struct.icu_69::units::UnitPreference"* %157, i64 0, i32 1
  br label %173

173:                                              ; preds = %169, %216
  %174 = phi i32 [ 0, %169 ], [ %217, %216 ]
  %175 = load i8*, i8** %8, align 8
  %176 = call i32 @strcmp(i8* %175, i8* getelementptr inbounds ([5 x i8], [5 x i8]* @.str.6, i64 0, i64 0)) #11
  %177 = icmp eq i32 %176, 0
  br i1 %177, label %178, label %185

178:                                              ; preds = %173
  call void @llvm.lifetime.start.p0i8(i64 4, i8* nonnull %69) #10
  store i32 -1431655766, i32* %19, align 4
  %179 = load i16* (%"class.icu_69::ResourceValue"*, i32*, i32*)**, i16* (%"class.icu_69::ResourceValue"*, i32*, i32*)*** %57, align 8
  %180 = getelementptr inbounds i16* (%"class.icu_69::ResourceValue"*, i32*, i32*)*, i16* (%"class.icu_69::ResourceValue"*, i32*, i32*)** %179, i64 4
  %181 = load i16* (%"class.icu_69::ResourceValue"*, i32*, i32*)*, i16* (%"class.icu_69::ResourceValue"*, i32*, i32*)** %180, align 8
  %182 = call i16* %181(%"class.icu_69::ResourceValue"* %2, i32* nonnull dereferenceable(4) %19, i32* dereferenceable(4) %4) #10
  %183 = load i32, i32* %19, align 4
  %184 = call dereferenceable(64) %"class.icu_69::CharString"* @_ZN6icu_6910CharString20appendInvariantCharsEPKDsiR10UErrorCode(%"class.icu_69::CharString"* %172, i16* %182, i32 %183, i32* dereferenceable(4) %4) #10
  call void @llvm.lifetime.end.p0i8(i64 4, i8* nonnull %69) #10
  br label %216

185:                                              ; preds = %173
  %186 = call i32 @strcmp(i8* %175, i8* getelementptr inbounds ([4 x i8], [4 x i8]* @.str.7, i64 0, i64 0)) #11
  %187 = icmp eq i32 %186, 0
  br i1 %187, label %188, label %205

188:                                              ; preds = %185
  call void @llvm.lifetime.start.p0i8(i64 4, i8* nonnull %59) #10
  store i32 -1431655766, i32* %20, align 4
  %189 = load i16* (%"class.icu_69::ResourceValue"*, i32*, i32*)**, i16* (%"class.icu_69::ResourceValue"*, i32*, i32*)*** %57, align 8
  %190 = getelementptr inbounds i16* (%"class.icu_69::ResourceValue"*, i32*, i32*)*, i16* (%"class.icu_69::ResourceValue"*, i32*, i32*)** %189, i64 4
  %191 = load i16* (%"class.icu_69::ResourceValue"*, i32*, i32*)*, i16* (%"class.icu_69::ResourceValue"*, i32*, i32*)** %190, align 8
  %192 = call i16* %191(%"class.icu_69::ResourceValue"* %2, i32* nonnull dereferenceable(4) %20, i32* dereferenceable(4) %4) #10
  call void @llvm.lifetime.start.p0i8(i64 64, i8* nonnull %60) #10
  call void @llvm.memset.p0i8.i64(i8* nonnull align 8 %60, i8 -86, i64 64, i1 false)
  store i8* %62, i8** %61, align 8
  store i32 40, i32* %63, align 8
  store i8 0, i8* %64, align 4
  store i32 0, i32* %65, align 8
  store i8 0, i8* %62, align 1
  %193 = load i32, i32* %20, align 4
  %194 = call dereferenceable(64) %"class.icu_69::CharString"* @_ZN6icu_6910CharString20appendInvariantCharsEPKDsiR10UErrorCode(%"class.icu_69::CharString"* nonnull %21, i16* %192, i32 %193, i32* dereferenceable(4) %4) #10
  call void @llvm.lifetime.start.p0i8(i64 72, i8* nonnull %66) #10
  call void @llvm.memcpy.p0i8.p0i8.i64(i8* nonnull align 8 %66, i8* align 8 bitcast (<{ %"class.icu_69::IFixedDecimal", i8, [3 x i8], i32, i32, i8, i8, [2 x i8], double, i32, i32, i32, i32, { { i8*, i32, [4 x i8] } }, i8, i8, [6 x i8] }>* @__const._ZN6icu_695units12_GLOBAL__N_119UnitPreferencesSink3putEPKcRNS_13ResourceValueEaR10UErrorCode.dq to i8*), i64 72, i1 false)
  call void @_ZN6icu_696number4impl15DecimalQuantityC1Ev(%"class.icu_69::number::impl::DecimalQuantity"* nonnull %22) #10
  %195 = load i8*, i8** %61, align 8
  call void @_ZN6icu_6911StringPieceC1EPKc(%"class.icu_69::StringPiece"* nonnull %24, i8* %195) #10
  %196 = load i8*, i8** %67, align 8
  %197 = load i32, i32* %68, align 8
  %198 = call dereferenceable(72) %"class.icu_69::number::impl::DecimalQuantity"* @_ZN6icu_696number4impl15DecimalQuantity14setToDecNumberENS_11StringPieceER10UErrorCode(%"class.icu_69::number::impl::DecimalQuantity"* nonnull %22, i8* %196, i32 %197, i32* dereferenceable(4) %4) #10
  %199 = call double @_ZNK6icu_696number4impl15DecimalQuantity8toDoubleEv(%"class.icu_69::number::impl::DecimalQuantity"* nonnull %22) #10
  store double %199, double* %171, align 8
  call void @_ZN6icu_696number4impl15DecimalQuantityD1Ev(%"class.icu_69::number::impl::DecimalQuantity"* nonnull %22) #10
  call void @llvm.lifetime.end.p0i8(i64 72, i8* nonnull %66) #10
  %200 = load i8, i8* %64, align 4
  %201 = icmp eq i8 %200, 0
  br i1 %201, label %204, label %202

202:                                              ; preds = %188
  %203 = load i8*, i8** %61, align 8
  call void @uprv_free_69(i8* %203) #10
  br label %204

204:                                              ; preds = %188, %202
  call void @llvm.lifetime.end.p0i8(i64 64, i8* nonnull %60) #10
  call void @llvm.lifetime.end.p0i8(i64 4, i8* nonnull %59) #10
  br label %216

205:                                              ; preds = %185
  %206 = call i32 @strcmp(i8* %175, i8* getelementptr inbounds ([9 x i8], [9 x i8]* @.str.8, i64 0, i64 0)) #11
  %207 = icmp eq i32 %206, 0
  br i1 %207, label %208, label %216

208:                                              ; preds = %205
  call void @llvm.lifetime.start.p0i8(i64 64, i8* nonnull %54) #10
  call void @llvm.lifetime.start.p0i8(i64 8, i8* nonnull %55)
  call void @llvm.lifetime.start.p0i8(i64 4, i8* nonnull %56) #10, !noalias !21
  store i32 0, i32* %6, align 4, !noalias !21
  %209 = load i16* (%"class.icu_69::ResourceValue"*, i32*, i32*)**, i16* (%"class.icu_69::ResourceValue"*, i32*, i32*)*** %57, align 8, !noalias !21
  %210 = getelementptr inbounds i16* (%"class.icu_69::ResourceValue"*, i32*, i32*)*, i16* (%"class.icu_69::ResourceValue"*, i32*, i32*)** %209, i64 4
  %211 = load i16* (%"class.icu_69::ResourceValue"*, i32*, i32*)*, i16* (%"class.icu_69::ResourceValue"*, i32*, i32*)** %210, align 8, !noalias !21
  %212 = call i16* %211(%"class.icu_69::ResourceValue"* %2, i32* nonnull dereferenceable(4) %6, i32* dereferenceable(4) %4) #10, !noalias !21
  store i16* %212, i16** %58, align 8, !noalias !21
  %213 = load i32, i32* %6, align 4, !noalias !21
  call void @_ZN6icu_6913UnicodeStringC1EaNS_14ConstChar16PtrEi(%"class.icu_69::UnicodeString"* nonnull %25, i8 signext 1, %"class.icu_69::ConstChar16Ptr"* nonnull %7, i32 %213) #10
  %214 = load i16*, i16** %58, align 8, !noalias !21
  call void asm sideeffect "", "rm,~{memory},~{dirflag},~{fpsr},~{flags}"(i16* %214) #10, !srcloc !14
  call void @llvm.lifetime.end.p0i8(i64 4, i8* nonnull %56) #10, !noalias !21
  call void @llvm.lifetime.end.p0i8(i64 8, i8* nonnull %55)
  %215 = call dereferenceable(64) %"class.icu_69::UnicodeString"* @_ZN6icu_6913UnicodeStringaSEOS0_(%"class.icu_69::UnicodeString"* %170, %"class.icu_69::UnicodeString"* nonnull dereferenceable(64) %25) #10
  call void @_ZN6icu_6913UnicodeStringD1Ev(%"class.icu_69::UnicodeString"* nonnull %25) #10
  call void @llvm.lifetime.end.p0i8(i64 64, i8* nonnull %54) #10
  br label %216

216:                                              ; preds = %178, %205, %208, %204
  %217 = add nuw nsw i32 %174, 1
  %218 = call signext i8 @_ZNK6icu_6913ResourceTable14getKeyAndValueEiRPKcRNS_13ResourceValueE(%"class.icu_69::ResourceTable"* nonnull %18, i32 %217, i8** nonnull dereferenceable(8) %8, %"class.icu_69::ResourceValue"* dereferenceable(8) %2) #10
  %219 = icmp eq i8 %218, 0
  br i1 %219, label %220, label %173

220:                                              ; preds = %216, %166
  call void @_ZN6icu_6914ResourceTracerD1Ev(%"class.icu_69::ResourceTracer"* %70) #10
  call void @llvm.lifetime.end.p0i8(i64 72, i8* nonnull %53) #10
  %221 = add nuw nsw i32 %154, 1
  %222 = call signext i8 @_ZNK6icu_6913ResourceArray8getValueEiRNS_13ResourceValueE(%"class.icu_69::ResourceArray"* nonnull %15, i32 %221, %"class.icu_69::ResourceValue"* dereferenceable(8) %2) #10
  %223 = icmp eq i8 %222, 0
  br i1 %223, label %225, label %153

224:                                              ; preds = %160
  call void @_ZN6icu_6914ResourceTracerD1Ev(%"class.icu_69::ResourceTracer"* %70) #10
  call void @llvm.lifetime.end.p0i8(i64 72, i8* nonnull %53) #10
  br label %225

225:                                              ; preds = %220, %150, %224, %159, %108, %149, %107
  %226 = phi i32 [ 1, %149 ], [ 1, %107 ], [ 1, %108 ], [ 1, %159 ], [ 1, %224 ], [ 0, %150 ], [ 0, %220 ]
  call void @llvm.lifetime.end.p0i8(i64 4, i8* nonnull %48) #10
  br label %227

227:                                              ; preds = %91, %225
  %228 = phi i32 [ %226, %225 ], [ 1, %91 ]
  call void @_ZN6icu_6914ResourceTracerD1Ev(%"class.icu_69::ResourceTracer"* %71) #10
  call void @llvm.lifetime.end.p0i8(i64 56, i8* nonnull %46) #10
  %229 = icmp eq i32 %228, 0
  %230 = add nuw nsw i32 %92, 1
  br i1 %229, label %88, label %235

231:                                              ; preds = %88, %81
  call void @llvm.lifetime.end.p0i8(i64 8, i8* nonnull %45) #10
  call void @_ZN6icu_6914ResourceTracerD1Ev(%"class.icu_69::ResourceTracer"* %72) #10
  call void @llvm.lifetime.end.p0i8(i64 72, i8* nonnull %44) #10
  %232 = add nuw nsw i32 %82, 1
  %233 = call signext i8 @_ZNK6icu_6913ResourceTable14getKeyAndValueEiRPKcRNS_13ResourceValueE(%"class.icu_69::ResourceTable"* nonnull %11, i32 %232, i8** nonnull dereferenceable(8) %12, %"class.icu_69::ResourceValue"* dereferenceable(8) %2) #10
  %234 = icmp eq i8 %233, 0
  br i1 %234, label %236, label %81

235:                                              ; preds = %227
  call void @llvm.lifetime.end.p0i8(i64 8, i8* nonnull %45) #10
  call void @_ZN6icu_6914ResourceTracerD1Ev(%"class.icu_69::ResourceTracer"* %72) #10
  call void @llvm.lifetime.end.p0i8(i64 72, i8* nonnull %44) #10
  call void @llvm.lifetime.end.p0i8(i64 8, i8* nonnull %43) #10
  call void @_ZN6icu_6914ResourceTracerD1Ev(%"class.icu_69::ResourceTracer"* %73) #10
  call void @llvm.lifetime.end.p0i8(i64 72, i8* nonnull %42) #10
  br label %240

236:                                              ; preds = %231, %74
  call void @llvm.lifetime.end.p0i8(i64 8, i8* nonnull %43) #10
  call void @_ZN6icu_6914ResourceTracerD1Ev(%"class.icu_69::ResourceTracer"* %73) #10
  call void @llvm.lifetime.end.p0i8(i64 72, i8* nonnull %42) #10
  %237 = add nuw nsw i32 %75, 1
  %238 = call signext i8 @_ZNK6icu_6913ResourceTable14getKeyAndValueEiRPKcRNS_13ResourceValueE(%"class.icu_69::ResourceTable"* nonnull %9, i32 %237, i8** nonnull dereferenceable(8) %10, %"class.icu_69::ResourceValue"* dereferenceable(8) %2) #10
  %239 = icmp eq i8 %238, 0
  br i1 %239, label %240, label %74

240:                                              ; preds = %236, %32, %235
  call void @llvm.lifetime.end.p0i8(i64 8, i8* nonnull %38) #10
  %241 = getelementptr inbounds %"class.icu_69::ResourceTable", %"class.icu_69::ResourceTable"* %9, i64 0, i32 6
  call void @_ZN6icu_6914ResourceTracerD1Ev(%"class.icu_69::ResourceTracer"* %241) #10
  call void @llvm.lifetime.end.p0i8(i64 72, i8* nonnull %33) #10
  br label %242

242:                                              ; preds = %5, %240, %31
  ret void
}

declare signext i8 @_ZNK6icu_6913ResourceArray8getValueEiRNS_13ResourceValueE(%"class.icu_69::ResourceArray"*, i32, %"class.icu_69::ResourceValue"* dereferenceable(8)) local_unnamed_addr #4

declare dereferenceable(64) %"class.icu_69::CharString"* @_ZN6icu_6910CharString20appendInvariantCharsEPKDsiR10UErrorCode(%"class.icu_69::CharString"*, i16*, i32, i32* dereferenceable(4)) local_unnamed_addr #4

declare void @_ZN6icu_696number4impl15DecimalQuantityC1Ev(%"class.icu_69::number::impl::DecimalQuantity"*) unnamed_addr #4

declare dereferenceable(72) %"class.icu_69::number::impl::DecimalQuantity"* @_ZN6icu_696number4impl15DecimalQuantity14setToDecNumberENS_11StringPieceER10UErrorCode(%"class.icu_69::number::impl::DecimalQuantity"*, i8*, i32, i32* dereferenceable(4)) local_unnamed_addr #4

declare double @_ZNK6icu_696number4impl15DecimalQuantity8toDoubleEv(%"class.icu_69::number::impl::DecimalQuantity"*) local_unnamed_addr #4

; Function Attrs: nounwind
declare void @_ZN6icu_696number4impl15DecimalQuantityD1Ev(%"class.icu_69::number::impl::DecimalQuantity"*) unnamed_addr #8

; Function Attrs: nounwind ssp uwtable
define linkonce_odr hidden %"class.icu_69::units::UnitPreferenceMetadata"* @_ZN6icu_6910MemoryPoolINS_5units22UnitPreferenceMetadataELi8EE6createIJRPKcS7_S7_RiS8_R10UErrorCodeEEEPS2_DpOT_(%"class.icu_69::MemoryPool.2"*, i8** dereferenceable(8), i8** dereferenceable(8), i8** dereferenceable(8), i32* dereferenceable(4), i32* dereferenceable(4), i32* dereferenceable(4)) local_unnamed_addr #0 comdat align 2 {
  %8 = alloca { i8*, i32 }, align 8
  %9 = bitcast { i8*, i32 }* %8 to %"class.icu_69::StringPiece"*
  %10 = alloca { i8*, i32 }, align 8
  %11 = bitcast { i8*, i32 }* %10 to %"class.icu_69::StringPiece"*
  %12 = alloca %"class.icu_69::StringPiece", align 8
  %13 = getelementptr inbounds %"class.icu_69::MemoryPool.2", %"class.icu_69::MemoryPool.2"* %0, i64 0, i32 1
  %14 = getelementptr inbounds %"class.icu_69::MemoryPool.2", %"class.icu_69::MemoryPool.2"* %0, i64 0, i32 1, i32 1
  %15 = load i32, i32* %14, align 8
  %16 = getelementptr inbounds %"class.icu_69::MemoryPool.2", %"class.icu_69::MemoryPool.2"* %0, i64 0, i32 0
  %17 = load i32, i32* %16, align 8
  %18 = icmp eq i32 %17, %15
  br i1 %18, label %19, label %51

19:                                               ; preds = %7
  %20 = icmp eq i32 %15, 8
  %21 = select i1 %20, i32 2, i32 1
  %22 = shl nsw i32 %15, %21
  %23 = icmp sgt i32 %22, 0
  br i1 %23, label %24, label %115

24:                                               ; preds = %19
  %25 = sext i32 %22 to i64
  %26 = shl nsw i64 %25, 3
  %27 = tail call noalias i8* @uprv_malloc_69(i64 %26) #9
  %28 = icmp eq i8* %27, null
  br i1 %28, label %115, label %29

29:                                               ; preds = %24
  %30 = icmp sgt i32 %15, 0
  br i1 %30, label %33, label %31

31:                                               ; preds = %29
  %32 = bitcast %"class.icu_69::MaybeStackArray.3"* %13 to i8**
  br label %43

33:                                               ; preds = %29
  %34 = load i32, i32* %14, align 8
  %35 = icmp slt i32 %34, %15
  %36 = select i1 %35, i32 %34, i32 %15
  %37 = icmp sgt i32 %36, %22
  %38 = select i1 %37, i32 %22, i32 %36
  %39 = bitcast %"class.icu_69::MaybeStackArray.3"* %13 to i8**
  %40 = load i8*, i8** %39, align 8
  %41 = sext i32 %38 to i64
  %42 = shl nsw i64 %41, 3
  tail call void @llvm.memcpy.p0i8.p0i8.i64(i8* nonnull align 8 %27, i8* align 8 %40, i64 %42, i1 false) #10
  br label %43

43:                                               ; preds = %31, %33
  %44 = phi i8** [ %32, %31 ], [ %39, %33 ]
  %45 = getelementptr inbounds %"class.icu_69::MemoryPool.2", %"class.icu_69::MemoryPool.2"* %0, i64 0, i32 1, i32 2
  %46 = load i8, i8* %45, align 4
  %47 = icmp eq i8 %46, 0
  br i1 %47, label %50, label %48

48:                                               ; preds = %43
  %49 = load i8*, i8** %44, align 8
  tail call void @uprv_free_69(i8* %49) #10
  br label %50

50:                                               ; preds = %48, %43
  store i8* %27, i8** %44, align 8
  store i32 %22, i32* %14, align 8
  store i8 1, i8* %45, align 4
  br label %51

51:                                               ; preds = %50, %7
  %52 = tail call i8* @_ZN6icu_697UMemorynwEm(i64 208) #10
  %53 = icmp eq i8* %52, null
  br i1 %53, label %107, label %54

54:                                               ; preds = %51
  %55 = bitcast i8* %52 to %"class.icu_69::units::UnitPreferenceMetadata"*
  %56 = load i8*, i8** %1, align 8
  call void @_ZN6icu_6911StringPieceC1EPKc(%"class.icu_69::StringPiece"* nonnull %9, i8* %56) #10
  %57 = load i8*, i8** %2, align 8
  call void @_ZN6icu_6911StringPieceC1EPKc(%"class.icu_69::StringPiece"* nonnull %11, i8* %57) #10
  %58 = load i8*, i8** %3, align 8
  call void @_ZN6icu_6911StringPieceC1EPKc(%"class.icu_69::StringPiece"* nonnull %12, i8* %58) #10
  %59 = load i32, i32* %4, align 4
  %60 = load i32, i32* %5, align 4
  %61 = getelementptr inbounds { i8*, i32 }, { i8*, i32 }* %8, i64 0, i32 0
  %62 = load i8*, i8** %61, align 8
  %63 = getelementptr inbounds { i8*, i32 }, { i8*, i32 }* %8, i64 0, i32 1
  %64 = load i32, i32* %63, align 8
  %65 = getelementptr inbounds { i8*, i32 }, { i8*, i32 }* %10, i64 0, i32 0
  %66 = load i8*, i8** %65, align 8
  %67 = getelementptr inbounds { i8*, i32 }, { i8*, i32 }* %10, i64 0, i32 1
  %68 = load i32, i32* %67, align 8
  %69 = getelementptr inbounds %"class.icu_69::StringPiece", %"class.icu_69::StringPiece"* %12, i64 0, i32 0
  %70 = load i8*, i8** %69, align 8
  %71 = getelementptr inbounds %"class.icu_69::StringPiece", %"class.icu_69::StringPiece"* %12, i64 0, i32 1
  %72 = load i32, i32* %71, align 8
  %73 = getelementptr inbounds i8, i8* %52, i64 8
  %74 = bitcast i8* %73 to %"class.icu_69::CharString"*
  %75 = bitcast i8* %73 to i8**
  %76 = getelementptr inbounds i8, i8* %52, i64 21
  store i8* %76, i8** %75, align 8
  %77 = getelementptr inbounds i8, i8* %52, i64 16
  %78 = bitcast i8* %77 to i32*
  store i32 40, i32* %78, align 8
  %79 = getelementptr inbounds i8, i8* %52, i64 20
  store i8 0, i8* %79, align 4
  %80 = getelementptr inbounds i8, i8* %52, i64 64
  %81 = bitcast i8* %80 to i32*
  store i32 0, i32* %81, align 8
  store i8 0, i8* %76, align 1
  %82 = getelementptr inbounds i8, i8* %52, i64 72
  %83 = bitcast i8* %82 to %"class.icu_69::CharString"*
  %84 = bitcast i8* %82 to i8**
  %85 = getelementptr inbounds i8, i8* %52, i64 85
  store i8* %85, i8** %84, align 8
  %86 = getelementptr inbounds i8, i8* %52, i64 80
  %87 = bitcast i8* %86 to i32*
  store i32 40, i32* %87, align 8
  %88 = getelementptr inbounds i8, i8* %52, i64 84
  store i8 0, i8* %88, align 4
  %89 = getelementptr inbounds i8, i8* %52, i64 128
  %90 = bitcast i8* %89 to i32*
  store i32 0, i32* %90, align 8
  store i8 0, i8* %85, align 1
  %91 = getelementptr inbounds i8, i8* %52, i64 136
  %92 = bitcast i8* %91 to %"class.icu_69::CharString"*
  %93 = bitcast i8* %91 to i8**
  %94 = getelementptr inbounds i8, i8* %52, i64 149
  store i8* %94, i8** %93, align 8
  %95 = getelementptr inbounds i8, i8* %52, i64 144
  %96 = bitcast i8* %95 to i32*
  store i32 40, i32* %96, align 8
  %97 = getelementptr inbounds i8, i8* %52, i64 148
  store i8 0, i8* %97, align 4
  %98 = getelementptr inbounds i8, i8* %52, i64 192
  %99 = bitcast i8* %98 to i32*
  store i32 0, i32* %99, align 8
  store i8 0, i8* %94, align 1
  %100 = call dereferenceable(64) %"class.icu_69::CharString"* @_ZN6icu_6910CharString6appendEPKciR10UErrorCode(%"class.icu_69::CharString"* %74, i8* %62, i32 %64, i32* dereferenceable(4) %6) #10
  %101 = call dereferenceable(64) %"class.icu_69::CharString"* @_ZN6icu_6910CharString6appendEPKciR10UErrorCode(%"class.icu_69::CharString"* %83, i8* %66, i32 %68, i32* dereferenceable(4) %6) #10
  %102 = call dereferenceable(64) %"class.icu_69::CharString"* @_ZN6icu_6910CharString6appendEPKciR10UErrorCode(%"class.icu_69::CharString"* %92, i8* %70, i32 %72, i32* dereferenceable(4) %6) #10
  %103 = getelementptr inbounds i8, i8* %52, i64 200
  %104 = bitcast i8* %103 to i32*
  store i32 %59, i32* %104, align 8
  %105 = getelementptr inbounds i8, i8* %52, i64 204
  %106 = bitcast i8* %105 to i32*
  store i32 %60, i32* %106, align 4
  br label %107

107:                                              ; preds = %54, %51
  %108 = phi %"class.icu_69::units::UnitPreferenceMetadata"* [ %55, %54 ], [ null, %51 ]
  %109 = load i32, i32* %16, align 8
  %110 = add nsw i32 %109, 1
  store i32 %110, i32* %16, align 8
  %111 = sext i32 %109 to i64
  %112 = getelementptr inbounds %"class.icu_69::MaybeStackArray.3", %"class.icu_69::MaybeStackArray.3"* %13, i64 0, i32 0
  %113 = load %"class.icu_69::units::UnitPreferenceMetadata"**, %"class.icu_69::units::UnitPreferenceMetadata"*** %112, align 8
  %114 = getelementptr inbounds %"class.icu_69::units::UnitPreferenceMetadata"*, %"class.icu_69::units::UnitPreferenceMetadata"** %113, i64 %111
  store %"class.icu_69::units::UnitPreferenceMetadata"* %108, %"class.icu_69::units::UnitPreferenceMetadata"** %114, align 8
  br label %115

115:                                              ; preds = %24, %19, %107
  %116 = phi %"class.icu_69::units::UnitPreferenceMetadata"* [ %108, %107 ], [ null, %19 ], [ null, %24 ]
  ret %"class.icu_69::units::UnitPreferenceMetadata"* %116
}

; Function Attrs: nounwind ssp uwtable
define linkonce_odr hidden %"struct.icu_69::units::UnitPreference"* @_ZN6icu_6910MemoryPoolINS_5units14UnitPreferenceELi8EE6createIJEEEPS2_DpOT_(%"class.icu_69::MemoryPool.5"*) local_unnamed_addr #0 comdat align 2 {
  %2 = getelementptr inbounds %"class.icu_69::MemoryPool.5", %"class.icu_69::MemoryPool.5"* %0, i64 0, i32 1
  %3 = getelementptr inbounds %"class.icu_69::MemoryPool.5", %"class.icu_69::MemoryPool.5"* %0, i64 0, i32 1, i32 1
  %4 = load i32, i32* %3, align 8
  %5 = getelementptr inbounds %"class.icu_69::MemoryPool.5", %"class.icu_69::MemoryPool.5"* %0, i64 0, i32 0
  %6 = load i32, i32* %5, align 8
  %7 = icmp eq i32 %6, %4
  br i1 %7, label %8, label %40

8:                                                ; preds = %1
  %9 = icmp eq i32 %4, 8
  %10 = select i1 %9, i32 2, i32 1
  %11 = shl nsw i32 %4, %10
  %12 = icmp sgt i32 %11, 0
  br i1 %12, label %13, label %67

13:                                               ; preds = %8
  %14 = sext i32 %11 to i64
  %15 = shl nsw i64 %14, 3
  %16 = tail call noalias i8* @uprv_malloc_69(i64 %15) #9
  %17 = icmp eq i8* %16, null
  br i1 %17, label %67, label %18

18:                                               ; preds = %13
  %19 = icmp sgt i32 %4, 0
  br i1 %19, label %22, label %20

20:                                               ; preds = %18
  %21 = bitcast %"class.icu_69::MaybeStackArray.6"* %2 to i8**
  br label %32

22:                                               ; preds = %18
  %23 = load i32, i32* %3, align 8
  %24 = icmp slt i32 %23, %4
  %25 = select i1 %24, i32 %23, i32 %4
  %26 = icmp sgt i32 %25, %11
  %27 = select i1 %26, i32 %11, i32 %25
  %28 = bitcast %"class.icu_69::MaybeStackArray.6"* %2 to i8**
  %29 = load i8*, i8** %28, align 8
  %30 = sext i32 %27 to i64
  %31 = shl nsw i64 %30, 3
  tail call void @llvm.memcpy.p0i8.p0i8.i64(i8* nonnull align 8 %16, i8* align 8 %29, i64 %31, i1 false) #10
  br label %32

32:                                               ; preds = %20, %22
  %33 = phi i8** [ %21, %20 ], [ %28, %22 ]
  %34 = getelementptr inbounds %"class.icu_69::MemoryPool.5", %"class.icu_69::MemoryPool.5"* %0, i64 0, i32 1, i32 2
  %35 = load i8, i8* %34, align 4
  %36 = icmp eq i8 %35, 0
  br i1 %36, label %39, label %37

37:                                               ; preds = %32
  %38 = load i8*, i8** %33, align 8
  tail call void @uprv_free_69(i8* %38) #10
  br label %39

39:                                               ; preds = %37, %32
  store i8* %16, i8** %33, align 8
  store i32 %11, i32* %3, align 8
  store i8 1, i8* %34, align 4
  br label %40

40:                                               ; preds = %39, %1
  %41 = tail call i8* @_ZN6icu_697UMemorynwEm(i64 144) #10
  %42 = icmp eq i8* %41, null
  br i1 %42, label %59, label %43

43:                                               ; preds = %40
  %44 = bitcast i8* %41 to %"struct.icu_69::units::UnitPreference"*
  %45 = getelementptr inbounds i8, i8* %41, i64 8
  %46 = bitcast i8* %45 to i8**
  %47 = getelementptr inbounds i8, i8* %41, i64 21
  store i8* %47, i8** %46, align 8
  %48 = getelementptr inbounds i8, i8* %41, i64 16
  %49 = bitcast i8* %48 to i32*
  store i32 40, i32* %49, align 8
  %50 = getelementptr inbounds i8, i8* %41, i64 20
  store i8 0, i8* %50, align 4
  %51 = getelementptr inbounds i8, i8* %41, i64 64
  %52 = bitcast i8* %51 to i32*
  store i32 0, i32* %52, align 8
  store i8 0, i8* %47, align 1
  %53 = getelementptr inbounds i8, i8* %41, i64 72
  %54 = bitcast i8* %53 to double*
  store double 1.000000e+00, double* %54, align 8
  %55 = getelementptr inbounds i8, i8* %41, i64 80
  %56 = bitcast i8* %55 to i32 (...)***
  store i32 (...)** bitcast (i8** getelementptr inbounds ({ [13 x i8*] }, { [13 x i8*] }* @_ZTVN6icu_6913UnicodeStringE, i64 0, inrange i32 0, i64 2) to i32 (...)**), i32 (...)*** %56, align 8
  %57 = getelementptr inbounds i8, i8* %41, i64 88
  %58 = bitcast i8* %57 to i16*
  store i16 2, i16* %58, align 8
  br label %59

59:                                               ; preds = %43, %40
  %60 = phi %"struct.icu_69::units::UnitPreference"* [ %44, %43 ], [ null, %40 ]
  %61 = load i32, i32* %5, align 8
  %62 = add nsw i32 %61, 1
  store i32 %62, i32* %5, align 8
  %63 = sext i32 %61 to i64
  %64 = getelementptr inbounds %"class.icu_69::MaybeStackArray.6", %"class.icu_69::MaybeStackArray.6"* %2, i64 0, i32 0
  %65 = load %"struct.icu_69::units::UnitPreference"**, %"struct.icu_69::units::UnitPreference"*** %64, align 8
  %66 = getelementptr inbounds %"struct.icu_69::units::UnitPreference"*, %"struct.icu_69::units::UnitPreference"** %65, i64 %63
  store %"struct.icu_69::units::UnitPreference"* %60, %"struct.icu_69::units::UnitPreference"** %66, align 8
  br label %67

67:                                               ; preds = %13, %8, %59
  %68 = phi %"struct.icu_69::units::UnitPreference"* [ %60, %59 ], [ null, %8 ], [ null, %13 ]
  ret %"struct.icu_69::units::UnitPreference"* %68
}

declare i32 @_ZNK6icu_6910CharString11lastIndexOfEc(%"class.icu_69::CharString"*, i8 signext) local_unnamed_addr #4

declare dereferenceable(64) %"class.icu_69::CharString"* @_ZN6icu_6910CharString8truncateEi(%"class.icu_69::CharString"*, i32) local_unnamed_addr #4

attributes #0 = { nounwind ssp uwtable "correctly-rounded-divide-sqrt-fp-math"="false" "disable-tail-calls"="false" "less-precise-fpmad"="false" "min-legal-vector-width"="0" "no-frame-pointer-elim"="false" "no-frame-pointer-elim-non-leaf" "no-infs-fp-math"="false" "no-jump-tables"="false" "no-nans-fp-math"="false" "no-signed-zeros-fp-math"="false" "no-trapping-math"="false" "null-pointer-is-valid"="true" "stack-protector-buffer-size"="4" "target-cpu"="x86-64" "target-features"="+cx8,+fxsr,+mmx,+sse,+sse2,+sse3,+x87" "unsafe-fp-math"="false" "use-soft-float"="false" }
attributes #1 = { inlinehint nounwind ssp uwtable "correctly-rounded-divide-sqrt-fp-math"="false" "disable-tail-calls"="false" "less-precise-fpmad"="false" "min-legal-vector-width"="0" "no-frame-pointer-elim"="false" "no-frame-pointer-elim-non-leaf" "no-infs-fp-math"="false" "no-jump-tables"="false" "no-nans-fp-math"="false" "no-signed-zeros-fp-math"="false" "no-trapping-math"="false" "null-pointer-is-valid"="true" "stack-protector-buffer-size"="4" "target-cpu"="x86-64" "target-features"="+cx8,+fxsr,+mmx,+sse,+sse2,+sse3,+x87" "unsafe-fp-math"="false" "use-soft-float"="false" }
attributes #2 = { argmemonly nounwind }
attributes #3 = { allocsize(0) "correctly-rounded-divide-sqrt-fp-math"="false" "disable-tail-calls"="false" "less-precise-fpmad"="false" "no-frame-pointer-elim"="false" "no-frame-pointer-elim-non-leaf" "no-infs-fp-math"="false" "no-nans-fp-math"="false" "no-signed-zeros-fp-math"="false" "no-trapping-math"="false" "null-pointer-is-valid"="true" "stack-protector-buffer-size"="4" "target-cpu"="x86-64" "target-features"="+cx8,+fxsr,+mmx,+sse,+sse2,+sse3,+x87" "unsafe-fp-math"="false" "use-soft-float"="false" }
attributes #4 = { "correctly-rounded-divide-sqrt-fp-math"="false" "disable-tail-calls"="false" "less-precise-fpmad"="false" "no-frame-pointer-elim"="false" "no-frame-pointer-elim-non-leaf" "no-infs-fp-math"="false" "no-nans-fp-math"="false" "no-signed-zeros-fp-math"="false" "no-trapping-math"="false" "null-pointer-is-valid"="true" "stack-protector-buffer-size"="4" "target-cpu"="x86-64" "target-features"="+cx8,+fxsr,+mmx,+sse,+sse2,+sse3,+x87" "unsafe-fp-math"="false" "use-soft-float"="false" }
attributes #5 = { nounwind readonly ssp uwtable "correctly-rounded-divide-sqrt-fp-math"="false" "disable-tail-calls"="false" "less-precise-fpmad"="false" "min-legal-vector-width"="0" "no-frame-pointer-elim"="false" "no-frame-pointer-elim-non-leaf" "no-infs-fp-math"="false" "no-jump-tables"="false" "no-nans-fp-math"="false" "no-signed-zeros-fp-math"="false" "no-trapping-math"="false" "null-pointer-is-valid"="true" "stack-protector-buffer-size"="4" "target-cpu"="x86-64" "target-features"="+cx8,+fxsr,+mmx,+sse,+sse2,+sse3,+x87" "unsafe-fp-math"="false" "use-soft-float"="false" }
attributes #6 = { nofree nounwind readonly "correctly-rounded-divide-sqrt-fp-math"="false" "disable-tail-calls"="false" "less-precise-fpmad"="false" "no-frame-pointer-elim"="false" "no-frame-pointer-elim-non-leaf" "no-infs-fp-math"="false" "no-nans-fp-math"="false" "no-signed-zeros-fp-math"="false" "no-trapping-math"="false" "null-pointer-is-valid"="true" "stack-protector-buffer-size"="4" "target-cpu"="x86-64" "target-features"="+cx8,+fxsr,+mmx,+sse,+sse2,+sse3,+x87" "unsafe-fp-math"="false" "use-soft-float"="false" }
attributes #7 = { nofree nounwind ssp uwtable "correctly-rounded-divide-sqrt-fp-math"="false" "disable-tail-calls"="false" "less-precise-fpmad"="false" "min-legal-vector-width"="0" "no-frame-pointer-elim"="false" "no-frame-pointer-elim-non-leaf" "no-infs-fp-math"="false" "no-jump-tables"="false" "no-nans-fp-math"="false" "no-signed-zeros-fp-math"="false" "no-trapping-math"="false" "null-pointer-is-valid"="true" "stack-protector-buffer-size"="4" "target-cpu"="x86-64" "target-features"="+cx8,+fxsr,+mmx,+sse,+sse2,+sse3,+x87" "unsafe-fp-math"="false" "use-soft-float"="false" }
attributes #8 = { nounwind "correctly-rounded-divide-sqrt-fp-math"="false" "disable-tail-calls"="false" "less-precise-fpmad"="false" "no-frame-pointer-elim"="false" "no-frame-pointer-elim-non-leaf" "no-infs-fp-math"="false" "no-nans-fp-math"="false" "no-signed-zeros-fp-math"="false" "no-trapping-math"="false" "null-pointer-is-valid"="true" "stack-protector-buffer-size"="4" "target-cpu"="x86-64" "target-features"="+cx8,+fxsr,+mmx,+sse,+sse2,+sse3,+x87" "unsafe-fp-math"="false" "use-soft-float"="false" }
attributes #9 = { nounwind allocsize(0) }
attributes #10 = { nounwind }
attributes #11 = { nounwind readonly }

!llvm.module.flags = !{!0, !1}

!0 = !{i32 1, !"wchar_size", i32 4}
!1 = !{i32 7, !"PIC Level", i32 2}
!2 = !{!3}
!3 = distinct !{!3, !4, !"_ZN6icu_6911ICU_Utility15makeBogusStringEv: argument 0"}
!4 = distinct !{!4, !"_ZN6icu_6911ICU_Utility15makeBogusStringEv"}
!5 = !{!6}
!6 = distinct !{!6, !7, !"_ZN6icu_6911ICU_Utility15makeBogusStringEv: argument 0"}
!7 = distinct !{!7, !"_ZN6icu_6911ICU_Utility15makeBogusStringEv"}
!8 = !{!9}
!9 = distinct !{!9, !10, !"_ZN6icu_6911ICU_Utility15makeBogusStringEv: argument 0"}
!10 = distinct !{!10, !"_ZN6icu_6911ICU_Utility15makeBogusStringEv"}
!11 = !{!12}
!12 = distinct !{!12, !13, !"_ZNK6icu_6913ResourceValue16getUnicodeStringER10UErrorCode: argument 0"}
!13 = distinct !{!13, !"_ZNK6icu_6913ResourceValue16getUnicodeStringER10UErrorCode"}
!14 = !{i32 -2145077207}
!15 = !{!16}
!16 = distinct !{!16, !17, !"_ZNK6icu_6913ResourceValue16getUnicodeStringER10UErrorCode: argument 0"}
!17 = distinct !{!17, !"_ZNK6icu_6913ResourceValue16getUnicodeStringER10UErrorCode"}
!18 = !{!19}
!19 = distinct !{!19, !20, !"_ZNK6icu_6913ResourceValue16getUnicodeStringER10UErrorCode: argument 0"}
!20 = distinct !{!20, !"_ZNK6icu_6913ResourceValue16getUnicodeStringER10UErrorCode"}
!21 = !{!22}
!22 = distinct !{!22, !23, !"_ZNK6icu_6913ResourceValue16getUnicodeStringER10UErrorCode: argument 0"}
!23 = distinct !{!23, !"_ZNK6icu_6913ResourceValue16getUnicodeStringER10UErrorCode"}
