; ModuleID = '../../components/safe_browsing/core/realtime/url_lookup_service_base.cc'
source_filename = "../../components/safe_browsing/core/realtime/url_lookup_service_base.cc"
target datalayout = "e-m:e-i64:64-f80:128-n8:16:32:64-S128"
target triple = "x86_64-unknown-linux-gnu"

module asm ".symver exp, exp@GLIBC_2.2.5"
module asm ".symver exp2, exp2@GLIBC_2.2.5"
module asm ".symver exp2f, exp2f@GLIBC_2.2.5"
module asm ".symver expf, expf@GLIBC_2.2.5"
module asm ".symver lgamma, lgamma@GLIBC_2.2.5"
module asm ".symver lgammaf, lgammaf@GLIBC_2.2.5"
module asm ".symver lgammal, lgammal@GLIBC_2.2.5"
module asm ".symver log, log@GLIBC_2.2.5"
module asm ".symver log2, log2@GLIBC_2.2.5"
module asm ".symver log2f, log2f@GLIBC_2.2.5"
module asm ".symver logf, logf@GLIBC_2.2.5"
module asm ".symver pow, pow@GLIBC_2.2.5"
module asm ".symver powf, powf@GLIBC_2.2.5"

%"class.google::protobuf::internal::ExplicitlyConstructed" = type { %"union.google::protobuf::internal::ExplicitlyConstructed<std::__1::basic_string<char, std::__1::char_traits<char>, std::__1::allocator<char> > >::AlignedUnion" }
%"union.google::protobuf::internal::ExplicitlyConstructed<std::__1::basic_string<char, std::__1::char_traits<char>, std::__1::allocator<char> > >::AlignedUnion" = type { i64, [16 x i8] }
%"class.safe_browsing::ChromeUserPopulationDefaultTypeInternal" = type opaque
%"class.safe_browsing::RealTimeUrlLookupServiceBase" = type { %class.KeyedService, i64, i8, i64, %"class.base::OneShotTimer", %class.scoped_refptr.10, %"class.safe_browsing::VerdictCacheManager"*, %"class.base::flat_map", %"class.base::RepeatingCallback.128", %"class.safe_browsing::ReferrerChainProvider"*, %"class.base::WeakPtrFactory.129" }
%class.KeyedService = type { i32 (...)** }
%"class.base::OneShotTimer" = type { %"class.base::internal::TimerBase", %"class.base::OnceCallback" }
%"class.base::internal::TimerBase" = type { i32 (...)**, %class.scoped_refptr, %"class.base::SequenceCheckerDoNothing", %"class.base::internal::TaskDestructionDetector"*, %"class.base::Location", %"class.base::TimeDelta", %"class.base::TimeTicks", %"class.base::TimeTicks", %"class.base::TickClock"*, i8, %"class.base::WeakPtrFactory" }
%class.scoped_refptr = type { %"class.base::SequencedTaskRunner"* }
%"class.base::SequencedTaskRunner" = type { %"class.base::TaskRunner.base", [4 x i8] }
%"class.base::TaskRunner.base" = type <{ i32 (...)**, %"class.base::RefCountedThreadSafe" }>
%"class.base::RefCountedThreadSafe" = type { %"class.base::subtle::RefCountedThreadSafeBase" }
%"class.base::subtle::RefCountedThreadSafeBase" = type { %"class.base::AtomicRefCount" }
%"class.base::AtomicRefCount" = type { %"struct.std::__1::atomic" }
%"struct.std::__1::atomic" = type { %"struct.std::__1::__atomic_base" }
%"struct.std::__1::__atomic_base" = type { %"struct.std::__1::__atomic_base.0" }
%"struct.std::__1::__atomic_base.0" = type { %"struct.std::__1::__cxx_atomic_impl" }
%"struct.std::__1::__cxx_atomic_impl" = type { %"struct.std::__1::__cxx_atomic_base_impl" }
%"struct.std::__1::__cxx_atomic_base_impl" = type { i32 }
%"class.base::SequenceCheckerDoNothing" = type { i8 }
%"class.base::internal::TaskDestructionDetector" = type opaque
%"class.base::Location" = type { i8*, i8*, i32, i8* }
%"class.base::TimeDelta" = type { i64 }
%"class.base::TimeTicks" = type { %"class.base::time_internal::TimeBase" }
%"class.base::time_internal::TimeBase" = type { i64 }
%"class.base::TickClock" = type opaque
%"class.base::WeakPtrFactory" = type { %"class.base::internal::WeakPtrFactoryBase" }
%"class.base::internal::WeakPtrFactoryBase" = type { %"class.base::internal::WeakReferenceOwner", i64 }
%"class.base::internal::WeakReferenceOwner" = type { %class.scoped_refptr.1 }
%class.scoped_refptr.1 = type { %"class.base::internal::WeakReference::Flag"* }
%"class.base::internal::WeakReference::Flag" = type <{ %"class.base::RefCountedThreadSafe.2", %"class.base::AtomicFlag", [3 x i8] }>
%"class.base::RefCountedThreadSafe.2" = type { %"class.base::subtle::RefCountedThreadSafeBase" }
%"class.base::AtomicFlag" = type { %"struct.std::__1::atomic.3" }
%"struct.std::__1::atomic.3" = type { %"struct.std::__1::__atomic_base.4" }
%"struct.std::__1::__atomic_base.4" = type { %"struct.std::__1::__atomic_base.5" }
%"struct.std::__1::__atomic_base.5" = type { %"struct.std::__1::__cxx_atomic_impl.6" }
%"struct.std::__1::__cxx_atomic_impl.6" = type { %"struct.std::__1::__cxx_atomic_base_impl.7" }
%"struct.std::__1::__cxx_atomic_base_impl.7" = type { i8 }
%"class.base::OnceCallback" = type { %"class.base::internal::CallbackBase" }
%"class.base::internal::CallbackBase" = type { %class.scoped_refptr.8 }
%class.scoped_refptr.8 = type { %"class.base::internal::BindStateBase"* }
%"class.base::internal::BindStateBase" = type { %"class.base::RefCountedThreadSafe.9", void ()*, void (%"class.base::internal::BindStateBase"*)*, i1 (%"class.base::internal::BindStateBase"*, i32)* }
%"class.base::RefCountedThreadSafe.9" = type { %"class.base::subtle::RefCountedThreadSafeBase" }
%class.scoped_refptr.10 = type { %"class.network::SharedURLLoaderFactory"* }
%"class.network::SharedURLLoaderFactory" = type <{ %"class.network::mojom::URLLoaderFactory", %"class.base::RefCounted", [4 x i8] }>
%"class.network::mojom::URLLoaderFactory" = type { i32 (...)** }
%"class.base::RefCounted" = type { %"class.base::subtle::RefCountedBase" }
%"class.base::subtle::RefCountedBase" = type { i32 }
%"class.safe_browsing::VerdictCacheManager" = type { %"class.history::HistoryServiceObserver", %class.KeyedService, %"class.absl::optional", %"class.absl::optional", %"class.absl::optional", %"class.base::ScopedObservation", %class.scoped_refptr.41, %"class.base::OneShotTimer", %"class.base::WeakPtrFactory.119" }
%"class.history::HistoryServiceObserver" = type { i32 (...)** }
%"class.absl::optional" = type { %"class.absl::optional_internal::optional_data" }
%"class.absl::optional_internal::optional_data" = type { %"class.absl::optional_internal::optional_data_base" }
%"class.absl::optional_internal::optional_data_base" = type { %"class.absl::optional_internal::optional_data_dtor_base" }
%"class.absl::optional_internal::optional_data_dtor_base" = type { i8, %union.anon }
%union.anon = type { i64 }
%"class.base::ScopedObservation" = type { %"class.history::HistoryServiceObserver"*, %"class.history::HistoryService"* }
%"class.history::HistoryService" = type { %class.KeyedService, %class.scoped_refptr, %class.scoped_refptr.11, %"class.std::__1::unique_ptr", %"class.std::__1::unique_ptr.13", %"class.std::__1::unique_ptr.19", i8, [7 x i8], %"class.base::ObserverList", %"class.base::RepeatingCallbackList", %"class.std::__1::unique_ptr.34", %"class.base::OnceCallback", %"class.base::WeakPtrFactory.40" }
%class.scoped_refptr.11 = type { %"class.history::HistoryBackend"* }
%"class.history::HistoryBackend" = type opaque
%"class.std::__1::unique_ptr" = type { %"class.std::__1::__compressed_pair" }
%"class.std::__1::__compressed_pair" = type { %"struct.std::__1::__compressed_pair_elem" }
%"struct.std::__1::__compressed_pair_elem" = type { %"class.history::InMemoryHistoryBackend"* }
%"class.history::InMemoryHistoryBackend" = type opaque
%"class.std::__1::unique_ptr.13" = type { %"class.std::__1::__compressed_pair.14" }
%"class.std::__1::__compressed_pair.14" = type { %"struct.std::__1::__compressed_pair_elem.15" }
%"struct.std::__1::__compressed_pair_elem.15" = type { %"class.history::HistoryClient"* }
%"class.history::HistoryClient" = type opaque
%"class.std::__1::unique_ptr.19" = type { %"class.std::__1::__compressed_pair.20" }
%"class.std::__1::__compressed_pair.20" = type { %"struct.std::__1::__compressed_pair_elem.21" }
%"struct.std::__1::__compressed_pair_elem.21" = type { %"class.history::VisitDelegate"* }
%"class.history::VisitDelegate" = type opaque
%"class.base::ObserverList" = type <{ %"class.std::__1::vector", %"class.base::LinkedList", i64, i32, [4 x i8] }>
%"class.std::__1::vector" = type { %"class.std::__1::__vector_base" }
%"class.std::__1::__vector_base" = type { %"class.base::internal::UncheckedObserverAdapter"*, %"class.base::internal::UncheckedObserverAdapter"*, %"class.std::__1::__compressed_pair.25" }
%"class.base::internal::UncheckedObserverAdapter" = type { i8* }
%"class.std::__1::__compressed_pair.25" = type { %"struct.std::__1::__compressed_pair_elem.26" }
%"struct.std::__1::__compressed_pair_elem.26" = type { %"class.base::internal::UncheckedObserverAdapter"* }
%"class.base::LinkedList" = type { %"class.base::LinkNode" }
%"class.base::LinkNode" = type { %"class.base::internal::LinkNodeBase" }
%"class.base::internal::LinkNodeBase" = type { %"class.base::internal::LinkNodeBase"*, %"class.base::internal::LinkNodeBase"* }
%"class.base::RepeatingCallbackList" = type { %"class.base::internal::CallbackListBase" }
%"class.base::internal::CallbackListBase" = type { %"class.std::__1::list", i8, %"class.base::RepeatingCallback", %"class.base::WeakPtrFactory.33" }
%"class.std::__1::list" = type { %"class.std::__1::__list_imp" }
%"class.std::__1::__list_imp" = type { %"struct.std::__1::__list_node_base", %"class.std::__1::__compressed_pair.28" }
%"struct.std::__1::__list_node_base" = type { %"struct.std::__1::__list_node_base"*, %"struct.std::__1::__list_node_base"* }
%"class.std::__1::__compressed_pair.28" = type { %"struct.std::__1::__compressed_pair_elem.29" }
%"struct.std::__1::__compressed_pair_elem.29" = type { i64 }
%"class.base::RepeatingCallback" = type { %"class.base::internal::CallbackBaseCopyable" }
%"class.base::internal::CallbackBaseCopyable" = type { %"class.base::internal::CallbackBase" }
%"class.base::WeakPtrFactory.33" = type { %"class.base::internal::WeakPtrFactoryBase" }
%"class.std::__1::unique_ptr.34" = type { %"class.std::__1::__compressed_pair.35" }
%"class.std::__1::__compressed_pair.35" = type { %"struct.std::__1::__compressed_pair_elem.36" }
%"struct.std::__1::__compressed_pair_elem.36" = type { %"class.history::DeleteDirectiveHandler"* }
%"class.history::DeleteDirectiveHandler" = type opaque
%"class.base::WeakPtrFactory.40" = type { %"class.base::internal::WeakPtrFactoryBase" }
%class.scoped_refptr.41 = type { %class.HostContentSettingsMap* }
%class.HostContentSettingsMap = type { %"class.content_settings::Observer", %class.RefcountedKeyedService, %class.PrefService*, i8, i8, %"class.std::__1::map.92", %"class.std::__1::vector.103", %"class.content_settings::PrefProvider"*, %"class.base::ThreadChecker", [7 x i8], %"class.base::ObserverList.114", i8, %"class.base::WeakPtrFactory.118" }
%"class.content_settings::Observer" = type { i32 (...)** }
%class.RefcountedKeyedService = type { i32 (...)**, %"class.base::RefCountedThreadSafe.42", %class.scoped_refptr }
%"class.base::RefCountedThreadSafe.42" = type { %"class.base::subtle::RefCountedThreadSafeBase" }
%class.PrefService = type { i32 (...)**, %"class.std::__1::unique_ptr.43", %"class.std::__1::unique_ptr.49", %class.scoped_refptr.71, %"class.base::RepeatingCallback.72", %class.scoped_refptr.73, %"class.std::__1::unordered_map" }
%"class.std::__1::unique_ptr.43" = type { %"class.std::__1::__compressed_pair.44" }
%"class.std::__1::__compressed_pair.44" = type { %"struct.std::__1::__compressed_pair_elem.45" }
%"struct.std::__1::__compressed_pair_elem.45" = type { %class.PrefNotifierImpl* }
%class.PrefNotifierImpl = type opaque
%"class.std::__1::unique_ptr.49" = type { %"class.std::__1::__compressed_pair.50" }
%"class.std::__1::__compressed_pair.50" = type { %"struct.std::__1::__compressed_pair_elem.51" }
%"struct.std::__1::__compressed_pair_elem.51" = type { %class.PrefValueStore* }
%class.PrefValueStore = type { i32 (...)**, [7 x %"class.PrefValueStore::PrefStoreKeeper"], %"class.base::RepeatingCallback.54", %class.PrefNotifier*, %"class.std::__1::map", i8, %"class.std::__1::unique_ptr.62" }
%"class.PrefValueStore::PrefStoreKeeper" = type <{ %"class.PrefStore::Observer", %class.PrefValueStore*, %class.scoped_refptr.52, i32, [4 x i8] }>
%"class.PrefStore::Observer" = type { i32 (...)** }
%class.scoped_refptr.52 = type { %class.PrefStore* }
%class.PrefStore = type <{ i32 (...)**, %"class.base::RefCounted.53", [4 x i8] }>
%"class.base::RefCounted.53" = type { %"class.base::subtle::RefCountedBase" }
%"class.base::RepeatingCallback.54" = type { %"class.base::internal::CallbackBaseCopyable" }
%class.PrefNotifier = type opaque
%"class.std::__1::map" = type { %"class.std::__1::__tree" }
%"class.std::__1::__tree" = type { %"class.std::__1::__tree_end_node"*, %"class.std::__1::__compressed_pair.55", %"class.std::__1::__compressed_pair.60" }
%"class.std::__1::__tree_end_node" = type { %"class.std::__1::__tree_node_base"* }
%"class.std::__1::__tree_node_base" = type <{ %"class.std::__1::__tree_end_node", %"class.std::__1::__tree_node_base"*, %"class.std::__1::__tree_end_node"*, i8, [7 x i8] }>
%"class.std::__1::__compressed_pair.55" = type { %"struct.std::__1::__compressed_pair_elem.56" }
%"struct.std::__1::__compressed_pair_elem.56" = type { %"class.std::__1::__tree_end_node" }
%"class.std::__1::__compressed_pair.60" = type { %"struct.std::__1::__compressed_pair_elem.29" }
%"class.std::__1::unique_ptr.62" = type { %"class.std::__1::__compressed_pair.63" }
%"class.std::__1::__compressed_pair.63" = type { %"struct.std::__1::__compressed_pair_elem.64" }
%"struct.std::__1::__compressed_pair_elem.64" = type { %"class.PrefValueStore::Delegate"* }
%"class.PrefValueStore::Delegate" = type { i32 (...)** }
%class.scoped_refptr.71 = type { %class.PersistentPrefStore* }
%class.PersistentPrefStore = type { %class.WriteablePrefStore.base, [4 x i8] }
%class.WriteablePrefStore.base = type { %class.PrefStore.base }
%class.PrefStore.base = type <{ i32 (...)**, %"class.base::RefCounted.53" }>
%"class.base::RepeatingCallback.72" = type { %"class.base::internal::CallbackBaseCopyable" }
%class.scoped_refptr.73 = type { %class.PrefRegistry* }
%class.PrefRegistry = type opaque
%"class.std::__1::unordered_map" = type { %"class.std::__1::__hash_table" }
%"class.std::__1::__hash_table" = type <{ %"class.std::__1::unique_ptr.74", %"class.std::__1::__compressed_pair.82", %"class.std::__1::__compressed_pair.87", %"class.std::__1::__compressed_pair.89", [4 x i8] }>
%"class.std::__1::unique_ptr.74" = type { %"class.std::__1::__compressed_pair.75" }
%"class.std::__1::__compressed_pair.75" = type { %"struct.std::__1::__compressed_pair_elem.76", %"struct.std::__1::__compressed_pair_elem.77" }
%"struct.std::__1::__compressed_pair_elem.76" = type { %"struct.std::__1::__hash_node_base"** }
%"struct.std::__1::__hash_node_base" = type { %"struct.std::__1::__hash_node_base"* }
%"struct.std::__1::__compressed_pair_elem.77" = type { %"class.std::__1::__bucket_list_deallocator" }
%"class.std::__1::__bucket_list_deallocator" = type { %"class.std::__1::__compressed_pair.78" }
%"class.std::__1::__compressed_pair.78" = type { %"struct.std::__1::__compressed_pair_elem.29" }
%"class.std::__1::__compressed_pair.82" = type { %"struct.std::__1::__compressed_pair_elem.83" }
%"struct.std::__1::__compressed_pair_elem.83" = type { %"struct.std::__1::__hash_node_base" }
%"class.std::__1::__compressed_pair.87" = type { %"struct.std::__1::__compressed_pair_elem.29" }
%"class.std::__1::__compressed_pair.89" = type { %"struct.std::__1::__compressed_pair_elem.90" }
%"struct.std::__1::__compressed_pair_elem.90" = type { float }
%"class.std::__1::map.92" = type { %"class.std::__1::__tree.93" }
%"class.std::__1::__tree.93" = type { %"class.std::__1::__tree_end_node"*, %"class.std::__1::__compressed_pair.94", %"class.std::__1::__compressed_pair.98" }
%"class.std::__1::__compressed_pair.94" = type { %"struct.std::__1::__compressed_pair_elem.56" }
%"class.std::__1::__compressed_pair.98" = type { %"struct.std::__1::__compressed_pair_elem.29" }
%"class.std::__1::vector.103" = type { %"class.std::__1::__vector_base.104" }
%"class.std::__1::__vector_base.104" = type { %"class.content_settings::UserModifiableProvider"**, %"class.content_settings::UserModifiableProvider"**, %"class.std::__1::__compressed_pair.109" }
%"class.content_settings::UserModifiableProvider" = type { %"class.content_settings::ObservableProvider" }
%"class.content_settings::ObservableProvider" = type { %"class.content_settings::ProviderInterface", %"class.base::ThreadChecker", [7 x i8], %"class.base::ObserverList.105" }
%"class.content_settings::ProviderInterface" = type { i32 (...)** }
%"class.base::ObserverList.105" = type <{ %"class.std::__1::vector", %"class.base::LinkedList.106", i64, i32, [4 x i8] }>
%"class.base::LinkedList.106" = type { %"class.base::LinkNode.107" }
%"class.base::LinkNode.107" = type { %"class.base::internal::LinkNodeBase" }
%"class.std::__1::__compressed_pair.109" = type { %"struct.std::__1::__compressed_pair_elem.110" }
%"struct.std::__1::__compressed_pair_elem.110" = type { %"class.content_settings::UserModifiableProvider"** }
%"class.content_settings::PrefProvider" = type opaque
%"class.base::ThreadChecker" = type { i8 }
%"class.base::ObserverList.114" = type <{ %"class.std::__1::vector", %"class.base::LinkedList.115", i64, i32, [4 x i8] }>
%"class.base::LinkedList.115" = type { %"class.base::LinkNode.116" }
%"class.base::LinkNode.116" = type { %"class.base::internal::LinkNodeBase" }
%"class.base::WeakPtrFactory.118" = type { %"class.base::internal::WeakPtrFactoryBase" }
%"class.base::WeakPtrFactory.119" = type { %"class.base::internal::WeakPtrFactoryBase" }
%"class.base::flat_map" = type { %"class.base::internal::flat_tree" }
%"class.base::internal::flat_tree" = type { %"class.std::__1::vector.120" }
%"class.std::__1::vector.120" = type { %"class.std::__1::__vector_base.121" }
%"class.std::__1::__vector_base.121" = type { %"struct.std::__1::pair"*, %"struct.std::__1::pair"*, %"class.std::__1::__compressed_pair.123" }
%"struct.std::__1::pair" = type { %"class.network::SimpleURLLoader"*, %"class.base::OnceCallback.122" }
%"class.network::SimpleURLLoader" = type { i32 (...)** }
%"class.base::OnceCallback.122" = type { %"class.base::internal::CallbackBase" }
%"class.std::__1::__compressed_pair.123" = type { %"struct.std::__1::__compressed_pair_elem.124" }
%"struct.std::__1::__compressed_pair_elem.124" = type { %"struct.std::__1::pair"* }
%"class.base::RepeatingCallback.128" = type { %"class.base::internal::CallbackBaseCopyable" }
%"class.safe_browsing::ReferrerChainProvider" = type { i32 (...)** }
%"class.base::WeakPtrFactory.129" = type { %"class.base::internal::WeakPtrFactoryBase" }
%class.GURL = type { %"class.std::__1::basic_string", i8, %"struct.url::Parsed", %"class.std::__1::unique_ptr.136" }
%"class.std::__1::basic_string" = type { %"class.std::__1::__compressed_pair.130" }
%"class.std::__1::__compressed_pair.130" = type { %"struct.std::__1::__compressed_pair_elem.131" }
%"struct.std::__1::__compressed_pair_elem.131" = type { %"struct.std::__1::basic_string<char, std::__1::char_traits<char>, std::__1::allocator<char> >::__rep" }
%"struct.std::__1::basic_string<char, std::__1::char_traits<char>, std::__1::allocator<char> >::__rep" = type { %union.anon.132 }
%union.anon.132 = type { %"struct.std::__1::basic_string<char, std::__1::char_traits<char>, std::__1::allocator<char> >::__long" }
%"struct.std::__1::basic_string<char, std::__1::char_traits<char>, std::__1::allocator<char> >::__long" = type { i8*, i64, i64 }
%"struct.url::Parsed" = type { %"struct.url::Component", %"struct.url::Component", %"struct.url::Component", %"struct.url::Component", %"struct.url::Component", %"struct.url::Component", %"struct.url::Component", %"struct.url::Component", i8, %"struct.url::Parsed"* }
%"struct.url::Component" = type { i32, i32 }
%"class.std::__1::unique_ptr.136" = type { %"class.std::__1::__compressed_pair.137" }
%"class.std::__1::__compressed_pair.137" = type { %"struct.std::__1::__compressed_pair_elem.138" }
%"struct.std::__1::__compressed_pair_elem.138" = type { %class.GURL* }
%"class.url::StringPieceReplacements" = type { %"class.url::Replacements" }
%"class.url::Replacements" = type { %"struct.url::URLComponentSource", %"struct.url::Parsed" }
%"struct.url::URLComponentSource" = type { i8*, i8*, i8*, i8*, i8*, i8*, i8*, i8* }
%"class.google::protobuf::RepeatedPtrField" = type { %"class.google::protobuf::internal::RepeatedPtrFieldBase" }
%"class.google::protobuf::internal::RepeatedPtrFieldBase" = type { %"class.google::protobuf::Arena"*, i32, i32, %"struct.google::protobuf::internal::RepeatedPtrFieldBase::Rep"* }
%"class.google::protobuf::Arena" = type { %"class.google::protobuf::internal::ArenaImpl", void (%"class.std::type_info"*, i64, i8*)*, void (%"class.google::protobuf::Arena"*, i8*, i64)*, void (%"class.google::protobuf::Arena"*, i8*, i64)*, i8* }
%"class.google::protobuf::internal::ArenaImpl" = type { %"struct.std::__1::atomic.142", %"struct.std::__1::atomic.142", %"struct.std::__1::atomic.146", %"class.google::protobuf::internal::ArenaImpl::Block"*, i64, %"struct.google::protobuf::internal::ArenaImpl::Options" }
%"struct.std::__1::atomic.142" = type { %"struct.std::__1::__atomic_base.143" }
%"struct.std::__1::__atomic_base.143" = type { %"struct.std::__1::__cxx_atomic_impl.144" }
%"struct.std::__1::__cxx_atomic_impl.144" = type { %"struct.std::__1::__cxx_atomic_base_impl.145" }
%"struct.std::__1::__cxx_atomic_base_impl.145" = type { %"class.google::protobuf::internal::ArenaImpl::SerialArena"* }
%"class.google::protobuf::internal::ArenaImpl::SerialArena" = type { %"class.google::protobuf::internal::ArenaImpl"*, i8*, %"class.google::protobuf::internal::ArenaImpl::Block"*, %"struct.google::protobuf::internal::ArenaImpl::CleanupChunk"*, %"class.google::protobuf::internal::ArenaImpl::SerialArena"*, i8*, i8*, %"struct.google::protobuf::internal::ArenaImpl::CleanupNode"*, %"struct.google::protobuf::internal::ArenaImpl::CleanupNode"* }
%"struct.google::protobuf::internal::ArenaImpl::CleanupChunk" = type { i64, %"struct.google::protobuf::internal::ArenaImpl::CleanupChunk"*, [1 x %"struct.google::protobuf::internal::ArenaImpl::CleanupNode"] }
%"struct.google::protobuf::internal::ArenaImpl::CleanupNode" = type { i8*, void (i8*)* }
%"struct.std::__1::atomic.146" = type { %"struct.std::__1::__atomic_base.147" }
%"struct.std::__1::__atomic_base.147" = type { %"struct.std::__1::__atomic_base.148" }
%"struct.std::__1::__atomic_base.148" = type { %"struct.std::__1::__cxx_atomic_impl.149" }
%"struct.std::__1::__cxx_atomic_impl.149" = type { %"struct.std::__1::__cxx_atomic_base_impl.150" }
%"struct.std::__1::__cxx_atomic_base_impl.150" = type { i64 }
%"class.google::protobuf::internal::ArenaImpl::Block" = type { %"class.google::protobuf::internal::ArenaImpl::Block"*, i64, i64 }
%"struct.google::protobuf::internal::ArenaImpl::Options" = type { i64, i64, i8*, i64, i8* (i64)*, void (i8*, i64)* }
%"class.std::type_info" = type { i32 (...)**, i8* }
%"struct.google::protobuf::internal::RepeatedPtrFieldBase::Rep" = type { i32, [268435454 x i8*] }
%"class.safe_browsing::ReferrerChainEntry" = type <{ %"class.google::protobuf::MessageLite", %"class.google::protobuf::internal::HasBits", %"class.google::protobuf::internal::CachedSize", %"class.google::protobuf::RepeatedPtrField.151", %"class.google::protobuf::RepeatedPtrField.152", %"struct.google::protobuf::internal::ArenaStringPtr", %"struct.google::protobuf::internal::ArenaStringPtr", %"struct.google::protobuf::internal::ArenaStringPtr", %"struct.google::protobuf::internal::ArenaStringPtr", double, i32, i8, i8, i8, i8, i32, [4 x i8] }>
%"class.google::protobuf::MessageLite" = type { i32 (...)**, %"class.google::protobuf::internal::InternalMetadata" }
%"class.google::protobuf::internal::InternalMetadata" = type { i8* }
%"class.google::protobuf::internal::HasBits" = type { [1 x i32] }
%"class.google::protobuf::internal::CachedSize" = type { %"struct.std::__1::atomic" }
%"class.google::protobuf::RepeatedPtrField.151" = type { %"class.google::protobuf::internal::RepeatedPtrFieldBase" }
%"class.google::protobuf::RepeatedPtrField.152" = type { %"class.google::protobuf::internal::RepeatedPtrFieldBase" }
%"struct.google::protobuf::internal::ArenaStringPtr" = type { %"class.std::__1::basic_string"* }
%"struct.google::protobuf::internal::InternalMetadata::ContainerBase" = type { %"class.google::protobuf::Arena"* }
%"struct.std::__1::basic_string<char, std::__1::char_traits<char>, std::__1::allocator<char> >::__short" = type { [23 x i8], %struct.anon }
%struct.anon = type { i8 }
%"class.base::WeakPtr" = type { %"class.base::internal::WeakPtrBase" }
%"class.base::internal::WeakPtrBase" = type { %"class.base::internal::WeakReference", i64 }
%"class.base::internal::WeakReference" = type { %class.scoped_refptr.153 }
%class.scoped_refptr.153 = type { %"class.base::internal::WeakReference::Flag"* }
%"class.std::__1::__basic_string_common" = type { i8 }
%"class.safe_browsing::RTLookupResponse" = type <{ %"class.google::protobuf::MessageLite", %"class.google::protobuf::RepeatedPtrField.157", %"class.google::protobuf::internal::CachedSize", [4 x i8] }>
%"class.google::protobuf::RepeatedPtrField.157" = type { %"class.google::protobuf::internal::RepeatedPtrFieldBase" }
%"class.safe_browsing::RTLookupResponse_ThreatInfo" = type <{ %"class.google::protobuf::MessageLite", %"class.google::protobuf::internal::HasBits", %"class.google::protobuf::internal::CachedSize", %"struct.google::protobuf::internal::ArenaStringPtr", %"struct.google::protobuf::internal::ArenaStringPtr", i64, i32, i32, i32, [4 x i8] }>
%"class.base::SingleThreadTaskRunner" = type { %"class.base::SequencedTaskRunner.base", [4 x i8] }
%"class.base::SequencedTaskRunner.base" = type { %"class.base::TaskRunner.base" }
%"class.base::TaskRunner" = type <{ i32 (...)**, %"class.base::RefCountedThreadSafe", [4 x i8] }>
%"class.base::Time" = type { %"class.base::time_internal::TimeBase.168" }
%"class.base::time_internal::TimeBase.168" = type { i64 }
%"class.base::OnceCallback.169" = type { %"class.base::internal::CallbackBase" }
%"class.logging::CheckError" = type { %"class.logging::LogMessage"* }
%"class.logging::LogMessage" = type { i32 (...)**, i32, %"class.std::__1::basic_ostringstream", i64, i8*, i32, %"class.base::ScopedClearLastErrorBase" }
%"class.std::__1::basic_ostringstream" = type { %"class.std::__1::basic_ostream.base", %"class.std::__1::basic_stringbuf", %"class.std::__1::basic_ios.base" }
%"class.std::__1::basic_ostream.base" = type { i32 (...)** }
%"class.std::__1::basic_stringbuf" = type <{ %"class.std::__1::basic_streambuf", %"class.std::__1::basic_string", i8*, i32, [4 x i8] }>
%"class.std::__1::basic_streambuf" = type { i32 (...)**, %"class.std::__1::locale", i8*, i8*, i8*, i8*, i8*, i8* }
%"class.std::__1::locale" = type { %"class.std::__1::locale::__imp"* }
%"class.std::__1::locale::__imp" = type opaque
%"class.std::__1::basic_ios.base" = type <{ %"class.std::__1::ios_base", %"class.std::__1::basic_ostream"*, i32 }>
%"class.std::__1::ios_base" = type { i32 (...)**, i32, i64, i64, i32, i32, i8*, i8*, void (i32, %"class.std::__1::ios_base"*, i32)**, i32*, i64, i64, i64*, i64, i64, i8**, i64, i64 }
%"class.std::__1::basic_ostream" = type { i32 (...)**, %"class.std::__1::basic_ios.base" }
%"class.base::ScopedClearLastErrorBase" = type { i32 }
%"class.absl::optional.170" = type { %"class.absl::optional_internal::optional_data.171" }
%"class.absl::optional_internal::optional_data.171" = type { %"class.absl::optional_internal::optional_data_base.172" }
%"class.absl::optional_internal::optional_data_base.172" = type { %"class.absl::optional_internal::optional_data_dtor_base.173" }
%"class.absl::optional_internal::optional_data_dtor_base.173" = type { i8, %union.anon.174 }
%union.anon.174 = type { %"class.std::__1::basic_string" }
%"class.base::BasicStringPiece" = type { i8*, i64 }
%"class.safe_browsing::RTLookupRequest" = type <{ %"class.google::protobuf::MessageLite", %"class.google::protobuf::internal::HasBits", %"class.google::protobuf::internal::CachedSize", %"class.google::protobuf::RepeatedPtrField", %"struct.google::protobuf::internal::ArenaStringPtr", %"struct.google::protobuf::internal::ArenaStringPtr", %"struct.google::protobuf::internal::ArenaStringPtr", %"class.safe_browsing::ChromeUserPopulation"*, i32, i32, i32, [4 x i8] }>
%"class.safe_browsing::ChromeUserPopulation" = type { %"class.google::protobuf::MessageLite", %"class.google::protobuf::internal::HasBits", %"class.google::protobuf::internal::CachedSize", %"class.google::protobuf::RepeatedPtrField.151", %"struct.google::protobuf::internal::ArenaStringPtr", i32, i32, i8, i8, i8, i8, i32, i32, i32 }
%"struct.network::ResourceRequest" = type { %"class.std::__1::basic_string", %class.GURL, %"class.net::SiteForCookies", i8, %"class.absl::optional.189", %"class.absl::optional.189", %class.GURL, i32, %"class.net::HttpRequestHeaders", %"class.net::HttpRequestHeaders", i32, i32, i32, i8, i8, i32, i8, i8, i8, i32, i32, i32, %"class.std::__1::basic_string", i32, %class.scoped_refptr.201, i8, i8, i8, i8, i8, i8, i32, i8, i32, i8, i8, %"class.absl::optional.223", %"class.net::HttpRequestHeaders", %"class.net::HttpRequestHeaders", %"class.absl::optional.223", %"class.absl::optional.170", %"class.absl::optional.170", i8, i8, i8, i8, %"class.absl::optional.223", %"class.absl::optional.228", %"class.network::OptionalTrustTokenParams", %"class.absl::optional.283", %"class.absl::optional.289" }
%"class.net::SiteForCookies" = type <{ %"class.net::SchemefulSite", i8, [7 x i8] }>
%"class.net::SchemefulSite" = type { %"class.url::Origin" }
%"class.url::Origin" = type { %"class.url::SchemeHostPort", %"class.absl::optional.184" }
%"class.url::SchemeHostPort" = type <{ %"class.std::__1::basic_string", %"class.std::__1::basic_string", i16, [6 x i8] }>
%"class.absl::optional.184" = type { %"class.absl::optional_internal::optional_data.185" }
%"class.absl::optional_internal::optional_data.185" = type { %"class.absl::optional_internal::optional_data_base.186" }
%"class.absl::optional_internal::optional_data_base.186" = type { %"class.absl::optional_internal::optional_data_dtor_base.187" }
%"class.absl::optional_internal::optional_data_dtor_base.187" = type { i8, %union.anon.188 }
%union.anon.188 = type { %"class.url::Origin::Nonce" }
%"class.url::Origin::Nonce" = type { %"class.base::UnguessableToken" }
%"class.base::UnguessableToken" = type { %"class.base::Token" }
%"class.base::Token" = type { i64, i64 }
%"class.absl::optional.189" = type { %"class.absl::optional_internal::optional_data.190" }
%"class.absl::optional_internal::optional_data.190" = type { %"class.absl::optional_internal::optional_data_base.191" }
%"class.absl::optional_internal::optional_data_base.191" = type { %"class.absl::optional_internal::optional_data_dtor_base.192" }
%"class.absl::optional_internal::optional_data_dtor_base.192" = type { i8, %union.anon.193 }
%union.anon.193 = type { %"class.url::Origin" }
%class.scoped_refptr.201 = type { %"class.network::ResourceRequestBody"* }
%"class.network::ResourceRequestBody" = type <{ %"class.base::RefCountedThreadSafe.202", [4 x i8], %"class.std::__1::vector.203", i64, i8, i8, [6 x i8] }>
%"class.base::RefCountedThreadSafe.202" = type { %"class.base::subtle::RefCountedThreadSafeBase" }
%"class.std::__1::vector.203" = type { %"class.std::__1::__vector_base.204" }
%"class.std::__1::__vector_base.204" = type { %"class.network::DataElement"*, %"class.network::DataElement"*, %"class.std::__1::__compressed_pair.218" }
%"class.network::DataElement" = type { %"class.absl::variant" }
%"class.absl::variant" = type { %"class.absl::variant_internal::VariantMoveAssignBaseNontrivial" }
%"class.absl::variant_internal::VariantMoveAssignBaseNontrivial" = type { %"class.absl::variant_internal::VariantMoveBaseNontrivial" }
%"class.absl::variant_internal::VariantMoveBaseNontrivial" = type { %"class.absl::variant_internal::VariantStateBaseDestructorNontrivial" }
%"class.absl::variant_internal::VariantStateBaseDestructorNontrivial" = type { %"class.absl::variant_internal::VariantStateBase" }
%"class.absl::variant_internal::VariantStateBase" = type { %"union.absl::variant_internal::DestructibleUnionImpl", i64 }
%"union.absl::variant_internal::DestructibleUnionImpl" = type { %"union.absl::variant_internal::DestructibleUnionImpl.205" }
%"union.absl::variant_internal::DestructibleUnionImpl.205" = type { %"union.absl::variant_internal::DestructibleUnionImpl.213" }
%"union.absl::variant_internal::DestructibleUnionImpl.213" = type { %"union.absl::variant_internal::DestructibleUnionImpl.214" }
%"union.absl::variant_internal::DestructibleUnionImpl.214" = type { %"union.absl::variant_internal::DestructibleUnionImpl.216" }
%"union.absl::variant_internal::DestructibleUnionImpl.216" = type { %"class.network::DataElementFile" }
%"class.network::DataElementFile" = type { %"class.base::FilePath", i64, i64, %"class.base::Time" }
%"class.base::FilePath" = type { %"class.std::__1::basic_string" }
%"class.std::__1::__compressed_pair.218" = type { %"struct.std::__1::__compressed_pair_elem.219" }
%"struct.std::__1::__compressed_pair_elem.219" = type { %"class.network::DataElement"* }
%"class.net::HttpRequestHeaders" = type { %"class.std::__1::vector.194" }
%"class.std::__1::vector.194" = type { %"class.std::__1::__vector_base.195" }
%"class.std::__1::__vector_base.195" = type { %"struct.net::HttpRequestHeaders::HeaderKeyValuePair"*, %"struct.net::HttpRequestHeaders::HeaderKeyValuePair"*, %"class.std::__1::__compressed_pair.196" }
%"struct.net::HttpRequestHeaders::HeaderKeyValuePair" = type { %"class.std::__1::basic_string", %"class.std::__1::basic_string" }
%"class.std::__1::__compressed_pair.196" = type { %"struct.std::__1::__compressed_pair_elem.197" }
%"struct.std::__1::__compressed_pair_elem.197" = type { %"struct.net::HttpRequestHeaders::HeaderKeyValuePair"* }
%"class.absl::optional.223" = type { %"class.absl::optional_internal::optional_data.224" }
%"class.absl::optional_internal::optional_data.224" = type { %"class.absl::optional_internal::optional_data_base.225" }
%"class.absl::optional_internal::optional_data_base.225" = type { %"class.absl::optional_internal::optional_data_dtor_base.226" }
%"class.absl::optional_internal::optional_data_dtor_base.226" = type { i8, %union.anon.227 }
%union.anon.227 = type { %"class.base::UnguessableToken" }
%"class.absl::optional.228" = type { %"class.absl::optional_internal::optional_data.229" }
%"class.absl::optional_internal::optional_data.229" = type { %"class.absl::optional_internal::optional_data_base.230" }
%"class.absl::optional_internal::optional_data_base.230" = type { %"class.absl::optional_internal::optional_data_dtor_base.231" }
%"class.absl::optional_internal::optional_data_dtor_base.231" = type { i8, %union.anon.232 }
%union.anon.232 = type { %"struct.network::ResourceRequest::TrustedParams" }
%"struct.network::ResourceRequest::TrustedParams" = type { %"class.net::IsolationInfo", i8, i8, %"class.mojo::PendingRemote.252", %"class.mojo::PendingRemote.253", %"class.mojo::PendingRemote.254", %"class.mojo::StructPtr", %"class.mojo::PendingRemote.261" }
%"class.net::IsolationInfo" = type { i32, %"class.absl::optional.189", %"class.absl::optional.189", %"class.net::NetworkIsolationKey", %"class.net::SiteForCookies", i8, %"class.absl::optional.238" }
%"class.net::NetworkIsolationKey" = type { i8, %"class.absl::optional.233", %"class.absl::optional.233" }
%"class.absl::optional.233" = type { %"class.absl::optional_internal::optional_data.234" }
%"class.absl::optional_internal::optional_data.234" = type { %"class.absl::optional_internal::optional_data_base.235" }
%"class.absl::optional_internal::optional_data_base.235" = type { %"class.absl::optional_internal::optional_data_dtor_base.236" }
%"class.absl::optional_internal::optional_data_dtor_base.236" = type { i8, %union.anon.237 }
%union.anon.237 = type { %"class.net::SchemefulSite" }
%"class.absl::optional.238" = type { %"class.absl::optional_internal::optional_data.239" }
%"class.absl::optional_internal::optional_data.239" = type { %"class.absl::optional_internal::optional_data_base.240" }
%"class.absl::optional_internal::optional_data_base.240" = type { %"class.absl::optional_internal::optional_data_dtor_base.241" }
%"class.absl::optional_internal::optional_data_dtor_base.241" = type { i8, %union.anon.242 }
%union.anon.242 = type { %"class.std::__1::set" }
%"class.std::__1::set" = type { %"class.std::__1::__tree.243" }
%"class.std::__1::__tree.243" = type { %"class.std::__1::__tree_end_node"*, %"class.std::__1::__compressed_pair.244", %"class.std::__1::__compressed_pair.248" }
%"class.std::__1::__compressed_pair.244" = type { %"struct.std::__1::__compressed_pair_elem.56" }
%"class.std::__1::__compressed_pair.248" = type { %"struct.std::__1::__compressed_pair_elem.29" }
%"class.mojo::PendingRemote.252" = type { %"struct.mojo::internal::PendingRemoteState" }
%"struct.mojo::internal::PendingRemoteState" = type { %"class.mojo::ScopedHandleBase", i32 }
%"class.mojo::ScopedHandleBase" = type { %"class.mojo::MessagePipeHandle" }
%"class.mojo::MessagePipeHandle" = type { %"class.mojo::Handle" }
%"class.mojo::Handle" = type { i32 }
%"class.mojo::PendingRemote.253" = type { %"struct.mojo::internal::PendingRemoteState" }
%"class.mojo::PendingRemote.254" = type { %"struct.mojo::internal::PendingRemoteState" }
%"class.mojo::StructPtr" = type { %"class.std::__1::unique_ptr.255" }
%"class.std::__1::unique_ptr.255" = type { %"class.std::__1::__compressed_pair.256" }
%"class.std::__1::__compressed_pair.256" = type { %"struct.std::__1::__compressed_pair_elem.257" }
%"struct.std::__1::__compressed_pair_elem.257" = type { %"class.network::mojom::ClientSecurityState"* }
%"class.network::mojom::ClientSecurityState" = type <{ %"struct.network::CrossOriginEmbedderPolicy", i8, [3 x i8], i32, i32, [4 x i8] }>
%"struct.network::CrossOriginEmbedderPolicy" = type { i32, %"class.absl::optional.170", i32, %"class.absl::optional.170" }
%"class.mojo::PendingRemote.261" = type { %"struct.mojo::internal::PendingRemoteState" }
%"class.network::OptionalTrustTokenParams" = type { %"class.mojo::StructPtr.262" }
%"class.mojo::StructPtr.262" = type { %"class.std::__1::unique_ptr.263" }
%"class.std::__1::unique_ptr.263" = type { %"class.std::__1::__compressed_pair.264" }
%"class.std::__1::__compressed_pair.264" = type { %"struct.std::__1::__compressed_pair_elem.265" }
%"struct.std::__1::__compressed_pair_elem.265" = type { %"class.network::mojom::TrustTokenParams"* }
%"class.network::mojom::TrustTokenParams" = type { i32, i32, i32, i8, %"class.std::__1::vector.266", %"class.std::__1::vector.273", %"class.absl::optional.170" }
%"class.std::__1::vector.266" = type { %"class.std::__1::__vector_base.267" }
%"class.std::__1::__vector_base.267" = type { %"class.url::Origin"*, %"class.url::Origin"*, %"class.std::__1::__compressed_pair.268" }
%"class.std::__1::__compressed_pair.268" = type { %"struct.std::__1::__compressed_pair_elem.269" }
%"struct.std::__1::__compressed_pair_elem.269" = type { %"class.url::Origin"* }
%"class.std::__1::vector.273" = type { %"class.std::__1::__vector_base.274" }
%"class.std::__1::__vector_base.274" = type { %"class.std::__1::basic_string"*, %"class.std::__1::basic_string"*, %"class.std::__1::__compressed_pair.275" }
%"class.std::__1::__compressed_pair.275" = type { %"struct.std::__1::__compressed_pair_elem.276" }
%"struct.std::__1::__compressed_pair_elem.276" = type { %"class.std::__1::basic_string"* }
%"class.absl::optional.283" = type { %"class.absl::optional_internal::optional_data.284" }
%"class.absl::optional_internal::optional_data.284" = type { %"class.absl::optional_internal::optional_data_base.285" }
%"class.absl::optional_internal::optional_data_base.285" = type { %"class.absl::optional_internal::optional_data_dtor_base.286" }
%"class.absl::optional_internal::optional_data_dtor_base.286" = type { i8, [7 x i8], %union.anon.287 }
%union.anon.287 = type { %"struct.network::ResourceRequest::WebBundleTokenParams" }
%"struct.network::ResourceRequest::WebBundleTokenParams" = type <{ %class.GURL, %"class.base::UnguessableToken", %"class.mojo::PendingRemote.288", i32, [4 x i8] }>
%"class.mojo::PendingRemote.288" = type { %"struct.mojo::internal::PendingRemoteState" }
%"class.absl::optional.289" = type { %"class.absl::optional_internal::optional_data.290" }
%"class.absl::optional_internal::optional_data.290" = type { %"class.absl::optional_internal::optional_data_base.291" }
%"class.absl::optional_internal::optional_data_base.291" = type { %"class.absl::optional_internal::optional_data_dtor_base.292" }
%"class.absl::optional_internal::optional_data_dtor_base.292" = type { i8, %union.anon.293 }
%union.anon.293 = type { %"class.std::__1::vector.294" }
%"class.std::__1::vector.294" = type { %"class.std::__1::__vector_base.295" }
%"class.std::__1::__vector_base.295" = type { i32*, i32*, %"class.std::__1::__compressed_pair.296" }
%"class.std::__1::__compressed_pair.296" = type { %"struct.std::__1::__compressed_pair_elem.297" }
%"struct.std::__1::__compressed_pair_elem.297" = type { i32* }
%"struct.net::NetworkTrafficAnnotationTag" = type { i32 }
%"class.base::OnceCallback.310" = type { %"class.base::internal::CallbackBase" }
%"struct.base::internal::BindState.526" = type { %"class.base::internal::BindStateBase", { i64, i64 }, %"class.std::__1::tuple.527" }
%"class.std::__1::tuple.527" = type { %"struct.std::__1::__tuple_impl.528" }
%"struct.std::__1::__tuple_impl.528" = type { %"class.std::__1::__tuple_leaf.529", %"class.std::__1::__tuple_leaf.502", %"class.std::__1::__tuple_leaf.530", %"class.std::__1::__tuple_leaf.531", %"class.std::__1::__tuple_leaf.532" }
%"class.std::__1::__tuple_leaf.529" = type { %"class.base::WeakPtr" }
%"class.std::__1::__tuple_leaf.502" = type { %class.GURL }
%"class.std::__1::__tuple_leaf.530" = type { %"class.absl::optional.170" }
%"class.std::__1::__tuple_leaf.531" = type { %"class.network::SimpleURLLoader"* }
%"class.std::__1::__tuple_leaf.532" = type { %"class.base::TimeTicks" }
%"class.network::mojom::URLResponseHead" = type <{ %"class.base::Time", %"class.base::Time", %class.scoped_refptr.316, %"class.std::__1::basic_string", %"class.std::__1::basic_string", i32, [4 x i8], i64, i64, i64, i8, [7 x i8], i64, %class.GURL, %"struct.net::LoadTimingInfo", %"class.mojo::StructPtr.325", i8, i8, i8, i8, i32, %"class.std::__1::basic_string", %"class.net::IPEndPoint", i8, i8, [2 x i8], %"class.net::ProxyServer", i8, [3 x i8], i32, %"class.std::__1::vector.339", i32, [4 x i8], i64, %"class.std::__1::basic_string", i32, [4 x i8], %"class.absl::optional.345", %"class.std::__1::vector.273", i8, i8, i8, i8, i8, i8, i8, i8, i8, i8, i8, [5 x i8], %"class.absl::optional.380", %"class.base::TimeTicks", %"class.base::TimeTicks", %"class.mojo::StructPtr.385", %"class.absl::optional.482", %"class.absl::optional.223", %"class.std::__1::vector.273", %class.GURL, i8, [7 x i8] }>
%class.scoped_refptr.316 = type { %"class.net::HttpResponseHeaders"* }
%"class.net::HttpResponseHeaders" = type { %"class.base::RefCountedThreadSafe.317", %"class.std::__1::vector.318", %"class.std::__1::basic_string", i32, %"class.net::HttpVersion" }
%"class.base::RefCountedThreadSafe.317" = type { %"class.base::subtle::RefCountedThreadSafeBase" }
%"class.std::__1::vector.318" = type { %"class.std::__1::__vector_base.319" }
%"class.std::__1::__vector_base.319" = type { %"struct.net::HttpResponseHeaders::ParsedHeader"*, %"struct.net::HttpResponseHeaders::ParsedHeader"*, %"class.std::__1::__compressed_pair.320" }
%"struct.net::HttpResponseHeaders::ParsedHeader" = type opaque
%"class.std::__1::__compressed_pair.320" = type { %"struct.std::__1::__compressed_pair_elem.321" }
%"struct.std::__1::__compressed_pair_elem.321" = type { %"struct.net::HttpResponseHeaders::ParsedHeader"* }
%"class.net::HttpVersion" = type { i32 }
%"struct.net::LoadTimingInfo" = type { i8, i32, %"class.base::Time", %"class.base::TimeTicks", %"class.base::TimeTicks", %"class.base::TimeTicks", %"class.base::TimeTicks", %"class.base::TimeTicks", %"class.base::TimeTicks", %"class.base::TimeTicks", %"struct.net::LoadTimingInfo::ConnectTiming", %"class.base::TimeTicks", %"class.base::TimeTicks", %"class.base::TimeTicks", %"class.base::TimeTicks", %"class.base::TimeTicks", %"class.base::TimeTicks", %"class.base::TimeTicks", %"class.base::TimeTicks" }
%"struct.net::LoadTimingInfo::ConnectTiming" = type { %"class.base::TimeTicks", %"class.base::TimeTicks", %"class.base::TimeTicks", %"class.base::TimeTicks", %"class.base::TimeTicks", %"class.base::TimeTicks" }
%"class.mojo::StructPtr.325" = type { %"class.std::__1::unique_ptr.326" }
%"class.std::__1::unique_ptr.326" = type { %"class.std::__1::__compressed_pair.327" }
%"class.std::__1::__compressed_pair.327" = type { %"struct.std::__1::__compressed_pair_elem.328" }
%"struct.std::__1::__compressed_pair_elem.328" = type { %"class.network::mojom::HttpRawRequestResponseInfo"* }
%"class.network::mojom::HttpRawRequestResponseInfo" = type { i32, %"class.std::__1::basic_string", %"class.std::__1::vector.329", %"class.std::__1::vector.329", %"class.std::__1::basic_string", %"class.std::__1::basic_string" }
%"class.std::__1::vector.329" = type { %"class.std::__1::__vector_base.330" }
%"class.std::__1::__vector_base.330" = type { %"class.mojo::InlinedStructPtr"*, %"class.mojo::InlinedStructPtr"*, %"class.std::__1::__compressed_pair.331" }
%"class.mojo::InlinedStructPtr" = type <{ %"class.network::mojom::HttpRawHeaderPair", i32, [4 x i8] }>
%"class.network::mojom::HttpRawHeaderPair" = type { %"class.std::__1::basic_string", %"class.std::__1::basic_string" }
%"class.std::__1::__compressed_pair.331" = type { %"struct.std::__1::__compressed_pair_elem.332" }
%"struct.std::__1::__compressed_pair_elem.332" = type { %"class.mojo::InlinedStructPtr"* }
%"class.net::IPEndPoint" = type { %"class.net::IPAddress", i16 }
%"class.net::IPAddress" = type { %"class.net::IPAddressBytes" }
%"class.net::IPAddressBytes" = type { %"struct.std::__1::array", i8 }
%"struct.std::__1::array" = type { [16 x i8] }
%"class.net::ProxyServer" = type { i32, [4 x i8], %"class.net::HostPortPair" }
%"class.net::HostPortPair" = type <{ %"class.std::__1::basic_string", i16, [6 x i8] }>
%"class.std::__1::vector.339" = type { %"class.std::__1::__vector_base.340" }
%"class.std::__1::__vector_base.340" = type { %class.GURL*, %class.GURL*, %"class.std::__1::__compressed_pair.341" }
%"class.std::__1::__compressed_pair.341" = type { %"struct.std::__1::__compressed_pair_elem.138" }
%"class.absl::optional.345" = type { %"class.absl::optional_internal::optional_data.346" }
%"class.absl::optional_internal::optional_data.346" = type { %"class.absl::optional_internal::optional_data_base.347" }
%"class.absl::optional_internal::optional_data_base.347" = type { %"class.absl::optional_internal::optional_data_dtor_base.348" }
%"class.absl::optional_internal::optional_data_dtor_base.348" = type { i8, [7 x i8], %union.anon.349 }
%union.anon.349 = type { %"class.net::SSLInfo" }
%"class.net::SSLInfo" = type <{ %class.scoped_refptr.350, %class.scoped_refptr.350, i32, i16, i16, i32, i8, i8, i8, i8, i32, [4 x i8], %"class.std::__1::vector.363", %"class.std::__1::basic_string", %"class.std::__1::vector.371", i32, %"struct.net::OCSPVerifyResult", i8, [3 x i8] }>
%class.scoped_refptr.350 = type { %"class.net::X509Certificate"* }
%"class.net::X509Certificate" = type { %"class.base::RefCountedThreadSafe.351", %"struct.net::CertPrincipal", %"struct.net::CertPrincipal", %"class.base::Time", %"class.base::Time", %"class.std::__1::basic_string", %"class.std::__1::unique_ptr.352", %"class.std::__1::vector.356" }
%"class.base::RefCountedThreadSafe.351" = type { %"class.base::subtle::RefCountedThreadSafeBase" }
%"struct.net::CertPrincipal" = type { %"class.std::__1::basic_string", %"class.std::__1::basic_string", %"class.std::__1::basic_string", %"class.std::__1::basic_string", %"class.std::__1::vector.273", %"class.std::__1::vector.273", %"class.std::__1::vector.273", %"class.std::__1::vector.273" }
%"class.std::__1::unique_ptr.352" = type { %"class.std::__1::__compressed_pair.353" }
%"class.std::__1::__compressed_pair.353" = type { %"struct.std::__1::__compressed_pair_elem.354" }
%"struct.std::__1::__compressed_pair_elem.354" = type { %struct.crypto_buffer_st* }
%struct.crypto_buffer_st = type opaque
%"class.std::__1::vector.356" = type { %"class.std::__1::__vector_base.357" }
%"class.std::__1::__vector_base.357" = type { %"class.std::__1::unique_ptr.352"*, %"class.std::__1::unique_ptr.352"*, %"class.std::__1::__compressed_pair.358" }
%"class.std::__1::__compressed_pair.358" = type { %"struct.std::__1::__compressed_pair_elem.359" }
%"struct.std::__1::__compressed_pair_elem.359" = type { %"class.std::__1::unique_ptr.352"* }
%"class.std::__1::vector.363" = type { %"class.std::__1::__vector_base.364" }
%"class.std::__1::__vector_base.364" = type { %"class.net::HashValue"*, %"class.net::HashValue"*, %"class.std::__1::__compressed_pair.366" }
%"class.net::HashValue" = type { i32, %union.anon.365 }
%union.anon.365 = type { %"struct.net::SHA256HashValue" }
%"struct.net::SHA256HashValue" = type { [32 x i8] }
%"class.std::__1::__compressed_pair.366" = type { %"struct.std::__1::__compressed_pair_elem.367" }
%"struct.std::__1::__compressed_pair_elem.367" = type { %"class.net::HashValue"* }
%"class.std::__1::vector.371" = type { %"class.std::__1::__vector_base.372" }
%"class.std::__1::__vector_base.372" = type { %"struct.net::SignedCertificateTimestampAndStatus"*, %"struct.net::SignedCertificateTimestampAndStatus"*, %"class.std::__1::__compressed_pair.375" }
%"struct.net::SignedCertificateTimestampAndStatus" = type <{ %class.scoped_refptr.373, i32, [4 x i8] }>
%class.scoped_refptr.373 = type { %"struct.net::ct::SignedCertificateTimestamp"* }
%"struct.net::ct::SignedCertificateTimestamp" = type { %"class.base::RefCountedThreadSafe.374", i32, %"class.std::__1::basic_string", %"class.base::Time", %"class.std::__1::basic_string", %"struct.net::ct::DigitallySigned", i32, %"class.std::__1::basic_string" }
%"class.base::RefCountedThreadSafe.374" = type { %"class.base::subtle::RefCountedThreadSafeBase" }
%"struct.net::ct::DigitallySigned" = type { i32, i32, %"class.std::__1::basic_string" }
%"class.std::__1::__compressed_pair.375" = type { %"struct.std::__1::__compressed_pair_elem.376" }
%"struct.std::__1::__compressed_pair_elem.376" = type { %"struct.net::SignedCertificateTimestampAndStatus"* }
%"struct.net::OCSPVerifyResult" = type { i32, i32 }
%"class.absl::optional.380" = type { %"class.absl::optional_internal::optional_data.381" }
%"class.absl::optional_internal::optional_data.381" = type { %"class.absl::optional_internal::optional_data_base.382" }
%"class.absl::optional_internal::optional_data_base.382" = type { %"class.absl::optional_internal::optional_data_dtor_base.383" }
%"class.absl::optional_internal::optional_data_dtor_base.383" = type { i8, %union.anon.384 }
%union.anon.384 = type { %"class.net::AuthChallengeInfo" }
%"class.net::AuthChallengeInfo" = type { i8, %"class.url::Origin", %"class.std::__1::basic_string", %"class.std::__1::basic_string", %"class.std::__1::basic_string", %"class.std::__1::basic_string" }
%"class.mojo::StructPtr.385" = type { %"class.std::__1::unique_ptr.386" }
%"class.std::__1::unique_ptr.386" = type { %"class.std::__1::__compressed_pair.387" }
%"class.std::__1::__compressed_pair.387" = type { %"struct.std::__1::__compressed_pair_elem.388" }
%"struct.std::__1::__compressed_pair_elem.388" = type { %"class.network::mojom::ParsedHeaders"* }
%"class.network::mojom::ParsedHeaders" = type <{ %"class.std::__1::vector.389", %"class.mojo::StructPtr.439", %"struct.network::CrossOriginEmbedderPolicy", %"struct.network::CrossOriginOpenerPolicy", i8, [7 x i8], %"class.absl::optional.446", %"class.base::TimeDelta", %"class.absl::optional.446", i32, [4 x i8], %"class.std::__1::vector.458", %"class.mojo::StructPtr.472", i8, [7 x i8] }>
%"class.std::__1::vector.389" = type { %"class.std::__1::__vector_base.390" }
%"class.std::__1::__vector_base.390" = type { %"class.mojo::StructPtr.391"*, %"class.mojo::StructPtr.391"*, %"class.std::__1::__compressed_pair.434" }
%"class.mojo::StructPtr.391" = type { %"class.std::__1::unique_ptr.392" }
%"class.std::__1::unique_ptr.392" = type { %"class.std::__1::__compressed_pair.393" }
%"class.std::__1::__compressed_pair.393" = type { %"struct.std::__1::__compressed_pair_elem.394" }
%"struct.std::__1::__compressed_pair_elem.394" = type { %"class.network::mojom::ContentSecurityPolicy"* }
%"class.network::mojom::ContentSecurityPolicy" = type { %"class.mojo::StructPtr.395", %"class.base::flat_map.402", %"class.base::flat_map.412", i8, i8, i8, i32, %"class.mojo::InlinedStructPtr.422", i8, %"class.std::__1::vector.273", i32, %"class.mojo::StructPtr.424", %"class.std::__1::vector.273" }
%"class.mojo::StructPtr.395" = type { %"class.std::__1::unique_ptr.396" }
%"class.std::__1::unique_ptr.396" = type { %"class.std::__1::__compressed_pair.397" }
%"class.std::__1::__compressed_pair.397" = type { %"struct.std::__1::__compressed_pair_elem.398" }
%"struct.std::__1::__compressed_pair_elem.398" = type { %"class.network::mojom::CSPSource"* }
%"class.network::mojom::CSPSource" = type <{ %"class.std::__1::basic_string", %"class.std::__1::basic_string", i32, [4 x i8], %"class.std::__1::basic_string", i8, i8, [6 x i8] }>
%"class.base::flat_map.402" = type { %"class.base::internal::flat_tree.403" }
%"class.base::internal::flat_tree.403" = type { %"class.std::__1::vector.404" }
%"class.std::__1::vector.404" = type { %"class.std::__1::__vector_base.405" }
%"class.std::__1::__vector_base.405" = type { %"struct.std::__1::pair.406"*, %"struct.std::__1::pair.406"*, %"class.std::__1::__compressed_pair.407" }
%"struct.std::__1::pair.406" = type opaque
%"class.std::__1::__compressed_pair.407" = type { %"struct.std::__1::__compressed_pair_elem.408" }
%"struct.std::__1::__compressed_pair_elem.408" = type { %"struct.std::__1::pair.406"* }
%"class.base::flat_map.412" = type { %"class.base::internal::flat_tree.413" }
%"class.base::internal::flat_tree.413" = type { %"class.std::__1::vector.414" }
%"class.std::__1::vector.414" = type { %"class.std::__1::__vector_base.415" }
%"class.std::__1::__vector_base.415" = type { %"struct.std::__1::pair.416"*, %"struct.std::__1::pair.416"*, %"class.std::__1::__compressed_pair.417" }
%"struct.std::__1::pair.416" = type opaque
%"class.std::__1::__compressed_pair.417" = type { %"struct.std::__1::__compressed_pair_elem.418" }
%"struct.std::__1::__compressed_pair_elem.418" = type { %"struct.std::__1::pair.416"* }
%"class.mojo::InlinedStructPtr.422" = type <{ %"class.network::mojom::ContentSecurityPolicyHeader", i32, [4 x i8] }>
%"class.network::mojom::ContentSecurityPolicyHeader" = type { %"class.std::__1::basic_string", i32, i32 }
%"class.mojo::StructPtr.424" = type { %"class.std::__1::unique_ptr.425" }
%"class.std::__1::unique_ptr.425" = type { %"class.std::__1::__compressed_pair.426" }
%"class.std::__1::__compressed_pair.426" = type { %"struct.std::__1::__compressed_pair_elem.427" }
%"struct.std::__1::__compressed_pair_elem.427" = type { %"class.network::mojom::CSPTrustedTypes"* }
%"class.network::mojom::CSPTrustedTypes" = type <{ %"class.std::__1::vector.273", i8, i8, [6 x i8] }>
%"class.std::__1::__compressed_pair.434" = type { %"struct.std::__1::__compressed_pair_elem.435" }
%"struct.std::__1::__compressed_pair_elem.435" = type { %"class.mojo::StructPtr.391"* }
%"class.mojo::StructPtr.439" = type { %"class.std::__1::unique_ptr.440" }
%"class.std::__1::unique_ptr.440" = type { %"class.std::__1::__compressed_pair.441" }
%"class.std::__1::__compressed_pair.441" = type { %"struct.std::__1::__compressed_pair_elem.442" }
%"struct.std::__1::__compressed_pair_elem.442" = type { %"class.network::mojom::AllowCSPFromHeaderValue"* }
%"class.network::mojom::AllowCSPFromHeaderValue" = type { i32, %"union.network::mojom::AllowCSPFromHeaderValue::Union_" }
%"union.network::mojom::AllowCSPFromHeaderValue::Union_" = type { %"class.url::Origin"* }
%"struct.network::CrossOriginOpenerPolicy" = type { i32, %"class.absl::optional.170", i32, %"class.absl::optional.170" }
%"class.absl::optional.446" = type { %"class.absl::optional_internal::optional_data.447" }
%"class.absl::optional_internal::optional_data.447" = type { %"class.absl::optional_internal::optional_data_base.448" }
%"class.absl::optional_internal::optional_data_base.448" = type { %"class.absl::optional_internal::optional_data_dtor_base.449" }
%"class.absl::optional_internal::optional_data_dtor_base.449" = type { i8, %union.anon.450 }
%union.anon.450 = type { %"class.std::__1::vector.451" }
%"class.std::__1::vector.451" = type { %"class.std::__1::__vector_base.452" }
%"class.std::__1::__vector_base.452" = type { i32*, i32*, %"class.std::__1::__compressed_pair.453" }
%"class.std::__1::__compressed_pair.453" = type { %"struct.std::__1::__compressed_pair_elem.454" }
%"struct.std::__1::__compressed_pair_elem.454" = type { i32* }
%"class.std::__1::vector.458" = type { %"class.std::__1::__vector_base.459" }
%"class.std::__1::__vector_base.459" = type { %"class.mojo::StructPtr.460"*, %"class.mojo::StructPtr.460"*, %"class.std::__1::__compressed_pair.467" }
%"class.mojo::StructPtr.460" = type { %"class.std::__1::unique_ptr.461" }
%"class.std::__1::unique_ptr.461" = type { %"class.std::__1::__compressed_pair.462" }
%"class.std::__1::__compressed_pair.462" = type { %"struct.std::__1::__compressed_pair_elem.463" }
%"struct.std::__1::__compressed_pair_elem.463" = type { %"class.network::mojom::LinkHeader"* }
%"class.network::mojom::LinkHeader" = type { %class.GURL, i32, i32, i32, %"class.absl::optional.170" }
%"class.std::__1::__compressed_pair.467" = type { %"struct.std::__1::__compressed_pair_elem.468" }
%"struct.std::__1::__compressed_pair_elem.468" = type { %"class.mojo::StructPtr.460"* }
%"class.mojo::StructPtr.472" = type { %"class.std::__1::unique_ptr.473" }
%"class.std::__1::unique_ptr.473" = type { %"class.std::__1::__compressed_pair.474" }
%"class.std::__1::__compressed_pair.474" = type { %"struct.std::__1::__compressed_pair_elem.475" }
%"struct.std::__1::__compressed_pair_elem.475" = type { %"class.network::mojom::TimingAllowOrigin"* }
%"class.network::mojom::TimingAllowOrigin" = type { i32, %"union.network::mojom::TimingAllowOrigin::Union_" }
%"union.network::mojom::TimingAllowOrigin::Union_" = type { %"class.std::__1::vector.273"* }
%"class.absl::optional.482" = type { %"class.absl::optional_internal::optional_data.483" }
%"class.absl::optional_internal::optional_data.483" = type { %"class.absl::optional_internal::optional_data_base.484" }
%"class.absl::optional_internal::optional_data_base.484" = type { %"class.absl::optional_internal::optional_data_dtor_base.485" }
%"class.absl::optional_internal::optional_data_dtor_base.485" = type { i8, %union.anon.486 }
%union.anon.486 = type { %"struct.network::OriginPolicy" }
%"struct.network::OriginPolicy" = type { i32, %class.GURL, %"class.std::__1::unique_ptr.487" }
%"class.std::__1::unique_ptr.487" = type { %"class.std::__1::__compressed_pair.488" }
%"class.std::__1::__compressed_pair.488" = type { %"struct.std::__1::__compressed_pair_elem.489" }
%"struct.std::__1::__compressed_pair_elem.489" = type { %"struct.network::OriginPolicyContents"* }
%"struct.network::OriginPolicyContents" = type { %"class.std::__1::vector.273", %"class.absl::optional.170", %"class.std::__1::vector.273", %"class.std::__1::vector.273" }
%"class.std::__1::unique_ptr.154" = type { %"class.std::__1::__compressed_pair.155" }
%"class.std::__1::__compressed_pair.155" = type { %"struct.std::__1::__compressed_pair_elem.156" }
%"struct.std::__1::__compressed_pair_elem.156" = type { %"class.safe_browsing::RTLookupResponse"* }
%"class.std::__1::unique_ptr.175" = type { %"class.std::__1::__compressed_pair.176" }
%"class.std::__1::__compressed_pair.176" = type { %"struct.std::__1::__compressed_pair_elem.177" }
%"struct.std::__1::__compressed_pair_elem.177" = type { %"class.safe_browsing::RTLookupRequest"* }
%"class.std::__1::unique_ptr.311" = type { %"class.std::__1::__compressed_pair.312" }
%"class.std::__1::__compressed_pair.312" = type { %"struct.std::__1::__compressed_pair_elem.276" }
%"struct.std::__1::__temp_value" = type { %"struct.std::__1::aligned_storage<16, 8>::type", %"class.std::__1::allocator.126"* }
%"struct.std::__1::aligned_storage<16, 8>::type" = type { [16 x i8] }
%"class.std::__1::allocator.126" = type { i8 }
%"struct.std::__1::__split_buffer" = type { %"struct.std::__1::pair"*, %"struct.std::__1::pair"*, %"struct.std::__1::pair"*, %"class.std::__1::__compressed_pair.539" }
%"class.std::__1::__compressed_pair.539" = type { %"struct.std::__1::__compressed_pair_elem.124", %"struct.std::__1::__compressed_pair_elem.540" }
%"struct.std::__1::__compressed_pair_elem.540" = type { %"class.std::__1::allocator.126"* }
%"class.std::__1::__vector_base_common" = type { i8 }

$_ZN4base8internal9flat_treeIPN7network15SimpleURLLoaderENS0_8GetFirstENSt3__14lessIvEENS6_6vectorINS6_4pairIS4_NS_12OnceCallbackIFvbbNS6_10unique_ptrIN13safe_browsing16RTLookupResponseENS6_14default_deleteISE_EEEEEEEEENS6_9allocatorISK_EEEEE5eraseENS6_11__wrap_iterIPSK_EE = comdat any

$_ZN6google8protobuf8internal14ArenaStringPtr14CreateInstanceEPNS0_5ArenaEPKNSt3__112basic_stringIcNS5_11char_traitsIcEENS5_9allocatorIcEEEE = comdat any

$_ZN6google8protobuf8internal21arena_destruct_objectINSt3__112basic_stringIcNS3_11char_traitsIcEENS3_9allocatorIcEEEEEEvPv = comdat any

$_ZN4base8internal7InvokerINS0_9BindStateIMN13safe_browsing28RealTimeUrlLookupServiceBaseEFvvEJNS0_17UnretainedWrapperIS4_EEEEEFvvEE7RunOnceEPNS0_13BindStateBaseE = comdat any

$_ZN4base8internal9BindStateIMN13safe_browsing28RealTimeUrlLookupServiceBaseEFvvEJNS0_17UnretainedWrapperIS3_EEEE7DestroyEPKNS0_13BindStateBaseE = comdat any

$_ZN4base8internal7InvokerINS0_9BindStateIMN13safe_browsing19VerdictCacheManagerEFvRK4GURLRKNS3_16RTLookupResponseERKNS_4TimeEbEJNS0_17UnretainedWrapperIS4_EES5_S8_SB_bEEEFvvEE7RunOnceEPNS0_13BindStateBaseE = comdat any

$_ZN4base8internal9BindStateIMN13safe_browsing19VerdictCacheManagerEFvRK4GURLRKNS2_16RTLookupResponseERKNS_4TimeEbEJNS0_17UnretainedWrapperIS3_EES4_S7_SA_bEE7DestroyEPKNS0_13BindStateBaseE = comdat any

$_ZN4base8internal7InvokerINS0_9BindStateINS_12OnceCallbackIFvbbNSt3__110unique_ptrIN13safe_browsing16RTLookupResponseENS4_14default_deleteIS7_EEEEEEEJbbSA_EEEFvvEE7RunOnceEPNS0_13BindStateBaseE = comdat any

$_ZN4base8internal9BindStateINS_12OnceCallbackIFvbbNSt3__110unique_ptrIN13safe_browsing16RTLookupResponseENS3_14default_deleteIS6_EEEEEEEJbbS9_EE7DestroyEPKNS0_13BindStateBaseE = comdat any

$_ZN4base8internal23QueryCancellationTraitsINS0_9BindStateINS_12OnceCallbackIFvbbNSt3__110unique_ptrIN13safe_browsing16RTLookupResponseENS4_14default_deleteIS7_EEEEEEEJbbSA_EEEEEbPKNS0_13BindStateBaseENSE_21CancellationQueryModeE = comdat any

$_ZN4base8internal7InvokerINS0_9BindStateINS_12OnceCallbackIFvNSt3__110unique_ptrIN13safe_browsing15RTLookupRequestENS4_14default_deleteIS7_EEEENS4_12basic_stringIcNS4_11char_traitsIcEENS4_9allocatorIcEEEEEEEJSA_SG_EEEFvvEE7RunOnceEPNS0_13BindStateBaseE = comdat any

$_ZN4base8internal9BindStateINS_12OnceCallbackIFvNSt3__110unique_ptrIN13safe_browsing15RTLookupRequestENS3_14default_deleteIS6_EEEENS3_12basic_stringIcNS3_11char_traitsIcEENS3_9allocatorIcEEEEEEEJS9_SF_EE7DestroyEPKNS0_13BindStateBaseE = comdat any

$_ZN4base8internal23QueryCancellationTraitsINS0_9BindStateINS_12OnceCallbackIFvNSt3__110unique_ptrIN13safe_browsing15RTLookupRequestENS4_14default_deleteIS7_EEEENS4_12basic_stringIcNS4_11char_traitsIcEENS4_9allocatorIcEEEEEEEJSA_SG_EEEEEbPKNS0_13BindStateBaseENSK_21CancellationQueryModeE = comdat any

$_ZN4base8internal9BindStateIMN13safe_browsing28RealTimeUrlLookupServiceBaseEFvRK4GURLN4absl8optionalINSt3__112basic_stringIcNS9_11char_traitsIcEENS9_9allocatorIcEEEEEEPN7network15SimpleURLLoaderENS_9TimeTicksENS9_10unique_ptrISF_NS9_14default_deleteISF_EEEEEJNS_7WeakPtrIS3_EES4_SG_SJ_SK_EE6CreateISQ_JSS_S6_RSG_RSJ_SK_EEEPST_PFvvEOT_DpOT0_ = comdat any

$_ZN4base8internal7InvokerINS0_9BindStateIMN13safe_browsing28RealTimeUrlLookupServiceBaseEFvRK4GURLN4absl8optionalINSt3__112basic_stringIcNSA_11char_traitsIcEENSA_9allocatorIcEEEEEEPN7network15SimpleURLLoaderENS_9TimeTicksENSA_10unique_ptrISG_NSA_14default_deleteISG_EEEEEJNS_7WeakPtrIS4_EES5_SH_SK_SL_EEEFvSP_EE7RunOnceEPNS0_13BindStateBaseEOSP_ = comdat any

$_ZN4base8internal13FunctorTraitsIMN13safe_browsing28RealTimeUrlLookupServiceBaseEFvRK4GURLN4absl8optionalINSt3__112basic_stringIcNS9_11char_traitsIcEENS9_9allocatorIcEEEEEEPN7network15SimpleURLLoaderENS_9TimeTicksENS9_10unique_ptrISF_NS9_14default_deleteISF_EEEEEvE6InvokeISQ_NS_7WeakPtrIS3_EEJS4_SG_SJ_SK_SO_EEEvT_OT0_DpOT1_ = comdat any

$_ZN4base8internal9BindStateIMN13safe_browsing28RealTimeUrlLookupServiceBaseEFvRK4GURLN4absl8optionalINSt3__112basic_stringIcNS9_11char_traitsIcEENS9_9allocatorIcEEEEEEPN7network15SimpleURLLoaderENS_9TimeTicksENS9_10unique_ptrISF_NS9_14default_deleteISF_EEEEEJNS_7WeakPtrIS3_EES4_SG_SJ_SK_EE7DestroyEPKNS0_13BindStateBaseE = comdat any

$_ZN4base8internal23QueryCancellationTraitsINS0_9BindStateIMN13safe_browsing28RealTimeUrlLookupServiceBaseEFvRK4GURLN4absl8optionalINSt3__112basic_stringIcNSA_11char_traitsIcEENSA_9allocatorIcEEEEEEPN7network15SimpleURLLoaderENS_9TimeTicksENSA_10unique_ptrISG_NSA_14default_deleteISG_EEEEEJNS_7WeakPtrIS4_EES5_SH_SK_SL_EEEEEbPKNS0_13BindStateBaseENSV_21CancellationQueryModeE = comdat any

$_ZNSt3__16vectorINS_4pairIPN7network15SimpleURLLoaderEN4base12OnceCallbackIFvbbNS_10unique_ptrIN13safe_browsing16RTLookupResponseENS_14default_deleteIS9_EEEEEEEEENS_9allocatorISF_EEE7emplaceIJS4_SE_EEENS_11__wrap_iterIPSF_EENSK_IPKSF_EEDpOT_ = comdat any

$_ZNSt3__114__split_bufferINS_4pairIPN7network15SimpleURLLoaderEN4base12OnceCallbackIFvbbNS_10unique_ptrIN13safe_browsing16RTLookupResponseENS_14default_deleteIS9_EEEEEEEEERNS_9allocatorISF_EEE12emplace_backIJS4_SE_EEEvDpOT_ = comdat any

$_ZZN3url12ReplacementsIcE11PlaceholderEvE10empty_cstr = comdat any

@_ZTVN13safe_browsing28RealTimeUrlLookupServiceBaseE = hidden unnamed_addr constant { [19 x i8*] } { [19 x i8*] [i8* null, i8* null, i8* bitcast (void (%"class.safe_browsing::RealTimeUrlLookupServiceBase"*)* @_ZN13safe_browsing28RealTimeUrlLookupServiceBaseD2Ev to i8*), i8* bitcast (void (%"class.safe_browsing::RealTimeUrlLookupServiceBase"*)* @_ZN13safe_browsing28RealTimeUrlLookupServiceBaseD0Ev to i8*), i8* bitcast (void (%"class.safe_browsing::RealTimeUrlLookupServiceBase"*)* @_ZN13safe_browsing28RealTimeUrlLookupServiceBase8ShutdownEv to i8*), i8* bitcast (void (%"class.safe_browsing::RealTimeUrlLookupServiceBase"*, %class.GURL*, %"class.base::OnceCallback.169"*, %"class.base::OnceCallback.122"*)* @_ZN13safe_browsing28RealTimeUrlLookupServiceBase11StartLookupERK4GURLN4base12OnceCallbackIFvNSt3__110unique_ptrINS_15RTLookupRequestENS6_14default_deleteIS8_EEEENS6_12basic_stringIcNS6_11char_traitsIcEENS6_9allocatorIcEEEEEEENS5_IFvbbNS7_INS_16RTLookupResponseENS9_ISK_EEEEEEE to i8*), i8* bitcast (void ()* @__cxa_pure_virtual to i8*), i8* bitcast (void ()* @__cxa_pure_virtual to i8*), i8* bitcast (void ()* @__cxa_pure_virtual to i8*), i8* bitcast (void ()* @__cxa_pure_virtual to i8*), i8* bitcast (void ()* @__cxa_pure_virtual to i8*), i8* bitcast (void ()* @__cxa_pure_virtual to i8*), i8* bitcast (void ()* @__cxa_pure_virtual to i8*), i8* bitcast (void ()* @__cxa_pure_virtual to i8*), i8* bitcast (void ()* @__cxa_pure_virtual to i8*), i8* bitcast (void (%"class.safe_browsing::RealTimeUrlLookupServiceBase"*, %"class.std::__1::basic_string"*)* @_ZN13safe_browsing28RealTimeUrlLookupServiceBase22OnResponseUnauthorizedERKNSt3__112basic_stringIcNS1_11char_traitsIcEENS1_9allocatorIcEEEE to i8*), i8* bitcast (void ()* @__cxa_pure_virtual to i8*), i8* bitcast (void ()* @__cxa_pure_virtual to i8*), i8* bitcast (void ()* @__cxa_pure_virtual to i8*)] }, align 8
@.str = private unnamed_addr constant [18 x i8] c"HandleLookupError\00", align 1
@.str.1 = private unnamed_addr constant [72 x i8] c"../../components/safe_browsing/core/realtime/url_lookup_service_base.cc\00", align 1
@.str.2 = private unnamed_addr constant [30 x i8] c"SafeBrowsing.RT.Backoff.State\00", align 1
@.str.3 = private unnamed_addr constant [37 x i8] c"SafeBrowsing.RT.HasValidCacheManager\00", align 1
@.str.4 = private unnamed_addr constant [31 x i8] c"SafeBrowsing.RT.GetCacheResult\00", align 1
@.str.5 = private unnamed_addr constant [30 x i8] c"SafeBrowsing.RT.GetCache.Time\00", align 1
@.str.6 = private unnamed_addr constant [29 x i8] c"MayBeCacheRealTimeUrlVerdict\00", align 1
@.str.7 = private unnamed_addr constant [12 x i8] c"StartLookup\00", align 1
@.str.8 = private unnamed_addr constant [39 x i8] c"SafeBrowsing.RT.Request.UserPopulation\00", align 1
@.str.9 = private unnamed_addr constant [44 x i8] c"SafeBrowsing.RT.Request.ReferrerChainLength\00", align 1
@_ZN3net18HttpRequestHeaders14kAuthorizationE = external constant [0 x i8], align 1
@_ZN13safe_browsing17kAuthHeaderBearerE = external constant [0 x i8], align 1
@.str.10 = private unnamed_addr constant [34 x i8] c"SafeBrowsing.RT.HasTokenInRequest\00", align 1
@.str.11 = private unnamed_addr constant [12 x i8] c"SendRequest\00", align 1
@.str.13 = private unnamed_addr constant [29 x i8] c"SafeBrowsing.RT.Request.Size\00", align 1
@.str.14 = private unnamed_addr constant [25 x i8] c"application/octet-stream\00", align 1
@.str.15 = private unnamed_addr constant [29 x i8] c"SafeBrowsing.RT.Network.Time\00", align 1
@.str.16 = private unnamed_addr constant [31 x i8] c"SafeBrowsing.RT.Network.Result\00", align 1
@.str.17 = private unnamed_addr constant [35 x i8] c"SafeBrowsing.RT.IsLookupSuccessful\00", align 1
@.str.18 = private unnamed_addr constant [31 x i8] c"SafeBrowsing.RT.ThreatInfoSize\00", align 1
@.str.19 = private unnamed_addr constant [20 x i8] c"OnURLLoaderComplete\00", align 1
@_ZN6google8protobuf8internal26fixed_address_empty_stringE = external global %"class.google::protobuf::internal::ExplicitlyConstructed", align 8
@_ZN13safe_browsing39_ChromeUserPopulation_default_instance_E = external local_unnamed_addr global %"class.safe_browsing::ChromeUserPopulationDefaultTypeInternal", align 1
@_ZZN3url12ReplacementsIcE11PlaceholderEvE10empty_cstr = linkonce_odr hidden constant i8 0, comdat, align 1
@.str.26 = private unnamed_addr constant [27 x i8] c"../../base/bind_internal.h\00", align 1
@.str.27 = private unnamed_addr constant [18 x i8] c"!IsNull(functor_)\00", align 1
@.str.28 = private unnamed_addr constant [29 x i8] c"../../base/memory/weak_ptr.h\00", align 1
@.str.29 = private unnamed_addr constant [15 x i8] c"ref_.IsValid()\00", align 1
@.str.30 = private unnamed_addr constant [34 x i8] c"../../base/containers/flat_tree.h\00", align 1
@.str.31 = private unnamed_addr constant [24 x i8] c"position != body_.end()\00", align 1
@switch.table._ZN13safe_browsing28RealTimeUrlLookupServiceBase30GetSBThreatTypeForRTThreatTypeENS_38RTLookupResponse_ThreatInfo_ThreatTypeE = private unnamed_addr constant [6 x i32] [i32 1, i32 3, i32 3, i32 2, i32 4, i32 22], align 4

@_ZN13safe_browsing28RealTimeUrlLookupServiceBaseD1Ev = hidden unnamed_addr alias void (%"class.safe_browsing::RealTimeUrlLookupServiceBase"*), void (%"class.safe_browsing::RealTimeUrlLookupServiceBase"*)* @_ZN13safe_browsing28RealTimeUrlLookupServiceBaseD2Ev

; Function Attrs: nounwind ssp uwtable
define hidden void @_ZN13safe_browsing28RealTimeUrlLookupServiceBaseC2E13scoped_refptrIN7network22SharedURLLoaderFactoryEEPNS_19VerdictCacheManagerEN4base17RepeatingCallbackIFNS_20ChromeUserPopulationEvEEEPNS_21ReferrerChainProviderE(%"class.safe_browsing::RealTimeUrlLookupServiceBase"*, %"class.network::SharedURLLoaderFactory"*, %"class.safe_browsing::VerdictCacheManager"*, %"class.base::RepeatingCallback.128"*, %"class.safe_browsing::ReferrerChainProvider"*) unnamed_addr #0 align 2 {
  %6 = getelementptr inbounds %"class.safe_browsing::RealTimeUrlLookupServiceBase", %"class.safe_browsing::RealTimeUrlLookupServiceBase"* %0, i64 0, i32 0
  tail call void @_ZN12KeyedServiceC2Ev(%class.KeyedService* %6) #15
  %7 = getelementptr inbounds %"class.safe_browsing::RealTimeUrlLookupServiceBase", %"class.safe_browsing::RealTimeUrlLookupServiceBase"* %0, i64 0, i32 0, i32 0
  store i32 (...)** bitcast (i8** getelementptr inbounds ({ [19 x i8*] }, { [19 x i8*] }* @_ZTVN13safe_browsing28RealTimeUrlLookupServiceBaseE, i64 0, inrange i32 0, i64 2) to i32 (...)**), i32 (...)*** %7, align 8
  %8 = getelementptr inbounds %"class.safe_browsing::RealTimeUrlLookupServiceBase", %"class.safe_browsing::RealTimeUrlLookupServiceBase"* %0, i64 0, i32 1
  store i64 0, i64* %8, align 8
  %9 = getelementptr inbounds %"class.safe_browsing::RealTimeUrlLookupServiceBase", %"class.safe_browsing::RealTimeUrlLookupServiceBase"* %0, i64 0, i32 2
  store i8 1, i8* %9, align 8
  %10 = getelementptr inbounds %"class.safe_browsing::RealTimeUrlLookupServiceBase", %"class.safe_browsing::RealTimeUrlLookupServiceBase"* %0, i64 0, i32 3
  store i64 0, i64* %10, align 8
  %11 = getelementptr inbounds %"class.safe_browsing::RealTimeUrlLookupServiceBase", %"class.safe_browsing::RealTimeUrlLookupServiceBase"* %0, i64 0, i32 4
  tail call void @_ZN4base12OneShotTimerC1Ev(%"class.base::OneShotTimer"* %11) #15
  %12 = getelementptr inbounds %"class.safe_browsing::RealTimeUrlLookupServiceBase", %"class.safe_browsing::RealTimeUrlLookupServiceBase"* %0, i64 0, i32 5, i32 0
  store %"class.network::SharedURLLoaderFactory"* %1, %"class.network::SharedURLLoaderFactory"** %12, align 8
  %13 = icmp eq %"class.network::SharedURLLoaderFactory"* %1, null
  br i1 %13, label %16, label %14

14:                                               ; preds = %5
  %15 = getelementptr inbounds %"class.network::SharedURLLoaderFactory", %"class.network::SharedURLLoaderFactory"* %1, i64 0, i32 1, i32 0
  tail call void @_ZNK4base6subtle14RefCountedBase10AddRefImplEv(%"class.base::subtle::RefCountedBase"* %15) #15
  br label %16

16:                                               ; preds = %5, %14
  %17 = getelementptr inbounds %"class.safe_browsing::RealTimeUrlLookupServiceBase", %"class.safe_browsing::RealTimeUrlLookupServiceBase"* %0, i64 0, i32 6
  store %"class.safe_browsing::VerdictCacheManager"* %2, %"class.safe_browsing::VerdictCacheManager"** %17, align 8
  %18 = getelementptr inbounds %"class.safe_browsing::RealTimeUrlLookupServiceBase", %"class.safe_browsing::RealTimeUrlLookupServiceBase"* %0, i64 0, i32 7
  %19 = bitcast %"class.base::flat_map"* %18 to i8*
  tail call void @llvm.memset.p0i8.i64(i8* align 8 %19, i8 0, i64 24, i1 false) #15
  %20 = getelementptr inbounds %"class.safe_browsing::RealTimeUrlLookupServiceBase", %"class.safe_browsing::RealTimeUrlLookupServiceBase"* %0, i64 0, i32 8, i32 0
  %21 = getelementptr inbounds %"class.base::RepeatingCallback.128", %"class.base::RepeatingCallback.128"* %3, i64 0, i32 0
  tail call void @_ZN4base8internal20CallbackBaseCopyableC2ERKS1_(%"class.base::internal::CallbackBaseCopyable"* %20, %"class.base::internal::CallbackBaseCopyable"* dereferenceable(8) %21) #15
  %22 = getelementptr inbounds %"class.safe_browsing::RealTimeUrlLookupServiceBase", %"class.safe_browsing::RealTimeUrlLookupServiceBase"* %0, i64 0, i32 9
  store %"class.safe_browsing::ReferrerChainProvider"* %4, %"class.safe_browsing::ReferrerChainProvider"** %22, align 8
  %23 = getelementptr inbounds %"class.safe_browsing::RealTimeUrlLookupServiceBase", %"class.safe_browsing::RealTimeUrlLookupServiceBase"* %0, i64 0, i32 10, i32 0
  %24 = ptrtoint %"class.safe_browsing::RealTimeUrlLookupServiceBase"* %0 to i64
  tail call void @_ZN4base8internal18WeakPtrFactoryBaseC2Em(%"class.base::internal::WeakPtrFactoryBase"* %23, i64 %24) #15
  br i1 %13, label %38, label %25

25:                                               ; preds = %16
  %26 = getelementptr inbounds %"class.network::SharedURLLoaderFactory", %"class.network::SharedURLLoaderFactory"* %1, i64 0, i32 1
  %27 = getelementptr inbounds %"class.base::RefCounted", %"class.base::RefCounted"* %26, i64 0, i32 0
  tail call void @_ZNK4base6subtle14RefCountedBase11ReleaseImplEv(%"class.base::subtle::RefCountedBase"* %27) #15
  %28 = getelementptr inbounds %"class.base::RefCounted", %"class.base::RefCounted"* %26, i64 0, i32 0, i32 0
  %29 = load i32, i32* %28, align 4
  %30 = icmp eq i32 %29, 0
  br i1 %30, label %31, label %38

31:                                               ; preds = %25
  %32 = getelementptr inbounds %"class.base::RefCounted", %"class.base::RefCounted"* %26, i64 -2
  %33 = bitcast %"class.base::RefCounted"* %32 to %"class.network::SharedURLLoaderFactory"*
  %34 = bitcast %"class.base::RefCounted"* %32 to void (%"class.network::SharedURLLoaderFactory"*)***
  %35 = load void (%"class.network::SharedURLLoaderFactory"*)**, void (%"class.network::SharedURLLoaderFactory"*)*** %34, align 8
  %36 = getelementptr inbounds void (%"class.network::SharedURLLoaderFactory"*)*, void (%"class.network::SharedURLLoaderFactory"*)** %35, i64 1
  %37 = load void (%"class.network::SharedURLLoaderFactory"*)*, void (%"class.network::SharedURLLoaderFactory"*)** %36, align 8
  tail call void %37(%"class.network::SharedURLLoaderFactory"* nonnull %33) #15
  br label %38

38:                                               ; preds = %16, %25, %31
  ret void
}

declare void @_ZN12KeyedServiceC2Ev(%class.KeyedService*) unnamed_addr #1

declare void @_ZN4base12OneShotTimerC1Ev(%"class.base::OneShotTimer"*) unnamed_addr #1

; Function Attrs: nounwind ssp uwtable
define hidden void @_ZN13safe_browsing28RealTimeUrlLookupServiceBaseD2Ev(%"class.safe_browsing::RealTimeUrlLookupServiceBase"*) unnamed_addr #0 align 2 {
  %2 = getelementptr inbounds %"class.safe_browsing::RealTimeUrlLookupServiceBase", %"class.safe_browsing::RealTimeUrlLookupServiceBase"* %0, i64 0, i32 0, i32 0
  store i32 (...)** bitcast (i8** getelementptr inbounds ({ [19 x i8*] }, { [19 x i8*] }* @_ZTVN13safe_browsing28RealTimeUrlLookupServiceBaseE, i64 0, inrange i32 0, i64 2) to i32 (...)**), i32 (...)*** %2, align 8
  %3 = getelementptr inbounds %"class.safe_browsing::RealTimeUrlLookupServiceBase", %"class.safe_browsing::RealTimeUrlLookupServiceBase"* %0, i64 0, i32 10, i32 0
  tail call void @_ZN4base8internal18WeakPtrFactoryBaseD2Ev(%"class.base::internal::WeakPtrFactoryBase"* %3) #15
  %4 = getelementptr inbounds %"class.safe_browsing::RealTimeUrlLookupServiceBase", %"class.safe_browsing::RealTimeUrlLookupServiceBase"* %0, i64 0, i32 8, i32 0, i32 0
  tail call void @_ZN4base8internal12CallbackBaseD2Ev(%"class.base::internal::CallbackBase"* %4) #15
  %5 = getelementptr inbounds %"class.safe_browsing::RealTimeUrlLookupServiceBase", %"class.safe_browsing::RealTimeUrlLookupServiceBase"* %0, i64 0, i32 7, i32 0
  %6 = getelementptr inbounds %"class.base::internal::flat_tree", %"class.base::internal::flat_tree"* %5, i64 0, i32 0, i32 0, i32 0
  %7 = load %"struct.std::__1::pair"*, %"struct.std::__1::pair"** %6, align 8
  %8 = icmp eq %"struct.std::__1::pair"* %7, null
  br i1 %8, label %24, label %9

9:                                                ; preds = %1
  %10 = bitcast %"struct.std::__1::pair"* %7 to i8*
  %11 = getelementptr inbounds %"class.safe_browsing::RealTimeUrlLookupServiceBase", %"class.safe_browsing::RealTimeUrlLookupServiceBase"* %0, i64 0, i32 7, i32 0, i32 0, i32 0, i32 1
  %12 = load %"struct.std::__1::pair"*, %"struct.std::__1::pair"** %11, align 8
  %13 = icmp eq %"struct.std::__1::pair"* %12, %7
  br i1 %13, label %22, label %14

14:                                               ; preds = %9, %14
  %15 = phi %"struct.std::__1::pair"* [ %16, %14 ], [ %12, %9 ]
  %16 = getelementptr inbounds %"struct.std::__1::pair", %"struct.std::__1::pair"* %15, i64 -1
  %17 = getelementptr inbounds %"struct.std::__1::pair", %"struct.std::__1::pair"* %15, i64 -1, i32 1, i32 0
  tail call void @_ZN4base8internal12CallbackBaseD2Ev(%"class.base::internal::CallbackBase"* %17) #15
  %18 = icmp eq %"struct.std::__1::pair"* %16, %7
  br i1 %18, label %19, label %14

19:                                               ; preds = %14
  %20 = bitcast %"class.base::internal::flat_tree"* %5 to i8**
  %21 = load i8*, i8** %20, align 8
  br label %22

22:                                               ; preds = %19, %9
  %23 = phi i8* [ %21, %19 ], [ %10, %9 ]
  store %"struct.std::__1::pair"* %7, %"struct.std::__1::pair"** %11, align 8
  tail call void @_ZdlPv(i8* %23) #16
  br label %24

24:                                               ; preds = %1, %22
  %25 = getelementptr inbounds %"class.safe_browsing::RealTimeUrlLookupServiceBase", %"class.safe_browsing::RealTimeUrlLookupServiceBase"* %0, i64 0, i32 5, i32 0
  %26 = load %"class.network::SharedURLLoaderFactory"*, %"class.network::SharedURLLoaderFactory"** %25, align 8
  %27 = icmp eq %"class.network::SharedURLLoaderFactory"* %26, null
  br i1 %27, label %41, label %28

28:                                               ; preds = %24
  %29 = getelementptr inbounds %"class.network::SharedURLLoaderFactory", %"class.network::SharedURLLoaderFactory"* %26, i64 0, i32 1
  %30 = getelementptr inbounds %"class.base::RefCounted", %"class.base::RefCounted"* %29, i64 0, i32 0
  tail call void @_ZNK4base6subtle14RefCountedBase11ReleaseImplEv(%"class.base::subtle::RefCountedBase"* %30) #15
  %31 = getelementptr inbounds %"class.base::RefCounted", %"class.base::RefCounted"* %29, i64 0, i32 0, i32 0
  %32 = load i32, i32* %31, align 4
  %33 = icmp eq i32 %32, 0
  br i1 %33, label %34, label %41

34:                                               ; preds = %28
  %35 = getelementptr inbounds %"class.base::RefCounted", %"class.base::RefCounted"* %29, i64 -2
  %36 = bitcast %"class.base::RefCounted"* %35 to %"class.network::SharedURLLoaderFactory"*
  %37 = bitcast %"class.base::RefCounted"* %35 to void (%"class.network::SharedURLLoaderFactory"*)***
  %38 = load void (%"class.network::SharedURLLoaderFactory"*)**, void (%"class.network::SharedURLLoaderFactory"*)*** %37, align 8
  %39 = getelementptr inbounds void (%"class.network::SharedURLLoaderFactory"*)*, void (%"class.network::SharedURLLoaderFactory"*)** %38, i64 1
  %40 = load void (%"class.network::SharedURLLoaderFactory"*)*, void (%"class.network::SharedURLLoaderFactory"*)** %39, align 8
  tail call void %40(%"class.network::SharedURLLoaderFactory"* nonnull %36) #15
  br label %41

41:                                               ; preds = %24, %28, %34
  %42 = getelementptr inbounds %"class.safe_browsing::RealTimeUrlLookupServiceBase", %"class.safe_browsing::RealTimeUrlLookupServiceBase"* %0, i64 0, i32 4
  tail call void @_ZN4base12OneShotTimerD1Ev(%"class.base::OneShotTimer"* %42) #15
  %43 = getelementptr inbounds %"class.safe_browsing::RealTimeUrlLookupServiceBase", %"class.safe_browsing::RealTimeUrlLookupServiceBase"* %0, i64 0, i32 0
  tail call void @_ZN12KeyedServiceD2Ev(%class.KeyedService* %43) #15
  ret void
}

; Function Attrs: nounwind
declare void @_ZN4base8internal18WeakPtrFactoryBaseD2Ev(%"class.base::internal::WeakPtrFactoryBase"*) unnamed_addr #2

; Function Attrs: nounwind
declare void @_ZN4base8internal12CallbackBaseD2Ev(%"class.base::internal::CallbackBase"*) unnamed_addr #2

; Function Attrs: nounwind
declare void @_ZN4base12OneShotTimerD1Ev(%"class.base::OneShotTimer"*) unnamed_addr #2

; Function Attrs: nounwind
declare void @_ZN12KeyedServiceD2Ev(%class.KeyedService*) unnamed_addr #2

; Function Attrs: noreturn nounwind ssp uwtable
define hidden void @_ZN13safe_browsing28RealTimeUrlLookupServiceBaseD0Ev(%"class.safe_browsing::RealTimeUrlLookupServiceBase"* nocapture readnone) unnamed_addr #3 align 2 {
  tail call void @llvm.trap() #17
  unreachable
}

; Function Attrs: cold noreturn nounwind
declare void @llvm.trap() #4

; Function Attrs: nounwind ssp uwtable
define hidden zeroext i1 @_ZN13safe_browsing28RealTimeUrlLookupServiceBase11CanCheckUrlERK4GURL(%class.GURL* dereferenceable(120)) local_unnamed_addr #0 align 2 {
  %2 = tail call zeroext i1 @_ZN13safe_browsing19VerdictCacheManager25has_artificial_unsafe_urlEv() #15
  br i1 %2, label %5, label %3

3:                                                ; preds = %1
  %4 = tail call zeroext i1 @_ZN13safe_browsing21CanGetReputationOfUrlERK4GURL(%class.GURL* dereferenceable(120) %0) #15
  br label %5

5:                                                ; preds = %1, %3
  %6 = phi i1 [ %4, %3 ], [ true, %1 ]
  ret i1 %6
}

declare zeroext i1 @_ZN13safe_browsing19VerdictCacheManager25has_artificial_unsafe_urlEv() local_unnamed_addr #1

declare zeroext i1 @_ZN13safe_browsing21CanGetReputationOfUrlERK4GURL(%class.GURL* dereferenceable(120)) local_unnamed_addr #1

; Function Attrs: norecurse nounwind readnone ssp uwtable
define hidden i32 @_ZN13safe_browsing28RealTimeUrlLookupServiceBase30GetSBThreatTypeForRTThreatTypeENS_38RTLookupResponse_ThreatInfo_ThreatTypeE(i32) local_unnamed_addr #5 align 2 {
  %2 = trunc i32 %0 to i8
  %3 = lshr i8 59, %2
  %4 = and i8 %3, 1
  %5 = icmp ne i8 %4, 0
  call void @llvm.assume(i1 %5)
  %6 = sext i32 %0 to i64
  %7 = getelementptr inbounds [6 x i32], [6 x i32]* @switch.table._ZN13safe_browsing28RealTimeUrlLookupServiceBase30GetSBThreatTypeForRTThreatTypeENS_38RTLookupResponse_ThreatInfo_ThreatTypeE, i64 0, i64 %6
  %8 = load i32, i32* %7, align 4
  ret i32 %8
}

; Function Attrs: nounwind ssp uwtable
define hidden void @_ZN13safe_browsing28RealTimeUrlLookupServiceBase11SanitizeURLERK4GURL(%class.GURL* noalias sret, %class.GURL* dereferenceable(120)) local_unnamed_addr #0 align 2 {
  %3 = alloca %"class.url::StringPieceReplacements", align 8
  %4 = bitcast %"class.url::StringPieceReplacements"* %3 to i8*
  call void @llvm.lifetime.start.p0i8(i64 144, i8* nonnull %4) #15
  %5 = getelementptr inbounds %"class.url::StringPieceReplacements", %"class.url::StringPieceReplacements"* %3, i64 0, i32 0, i32 1
  %6 = bitcast %"struct.url::Parsed"* %5 to i8*
  call void @llvm.memset.p0i8.i64(i8* nonnull align 8 %6, i8 -86, i64 80, i1 false)
  call void @llvm.memset.p0i8.i64(i8* nonnull align 8 %4, i8 0, i64 64, i1 false) #15
  %7 = getelementptr inbounds %"class.url::StringPieceReplacements", %"class.url::StringPieceReplacements"* %3, i64 0, i32 0, i32 1
  call void @_ZN3url6ParsedC1Ev(%"struct.url::Parsed"* %7) #15
  %8 = getelementptr inbounds %"class.url::StringPieceReplacements", %"class.url::StringPieceReplacements"* %3, i64 0, i32 0
  %9 = getelementptr inbounds %"class.url::StringPieceReplacements", %"class.url::StringPieceReplacements"* %3, i64 0, i32 0, i32 0, i32 1
  %10 = getelementptr inbounds %"class.url::StringPieceReplacements", %"class.url::StringPieceReplacements"* %3, i64 0, i32 0, i32 1, i32 1
  %11 = bitcast i8** %9 to <2 x i8*>*
  store <2 x i8*> <i8* @_ZZN3url12ReplacementsIcE11PlaceholderEvE10empty_cstr, i8* @_ZZN3url12ReplacementsIcE11PlaceholderEvE10empty_cstr>, <2 x i8*>* %11, align 8
  %12 = bitcast %"struct.url::Component"* %10 to <2 x i64>*
  store <2 x i64> <i64 -4294967296, i64 -4294967296>, <2 x i64>* %12, align 8
  call void @_ZNK4GURL17ReplaceComponentsERKN3url12ReplacementsIcEE(%class.GURL* sret %0, %class.GURL* %1, %"class.url::Replacements"* nonnull dereferenceable(144) %8) #15
  call void @_ZN3url6ParsedD1Ev(%"struct.url::Parsed"* %7) #15
  call void @llvm.lifetime.end.p0i8(i64 144, i8* nonnull %4) #15
  ret void
}

; Function Attrs: argmemonly nounwind
declare void @llvm.lifetime.start.p0i8(i64 immarg, i8* nocapture) #6

; Function Attrs: argmemonly nounwind
declare void @llvm.memset.p0i8.i64(i8* nocapture writeonly, i8, i64, i1 immarg) #6

declare void @_ZNK4GURL17ReplaceComponentsERKN3url12ReplacementsIcEE(%class.GURL* sret, %class.GURL*, %"class.url::Replacements"* dereferenceable(144)) local_unnamed_addr #1

; Function Attrs: argmemonly nounwind
declare void @llvm.lifetime.end.p0i8(i64 immarg, i8* nocapture) #6

; Function Attrs: nounwind ssp uwtable
define hidden void @_ZN13safe_browsing28RealTimeUrlLookupServiceBase28SanitizeReferrerChainEntriesEPN6google8protobuf16RepeatedPtrFieldINS_18ReferrerChainEntryEEE(%"class.google::protobuf::RepeatedPtrField"* nocapture readonly) local_unnamed_addr #0 align 2 {
  %2 = getelementptr inbounds %"class.google::protobuf::RepeatedPtrField", %"class.google::protobuf::RepeatedPtrField"* %0, i64 0, i32 0, i32 3
  %3 = load %"struct.google::protobuf::internal::RepeatedPtrFieldBase::Rep"*, %"struct.google::protobuf::internal::RepeatedPtrFieldBase::Rep"** %2, align 8
  %4 = icmp eq %"struct.google::protobuf::internal::RepeatedPtrFieldBase::Rep"* %3, null
  %5 = getelementptr inbounds %"struct.google::protobuf::internal::RepeatedPtrFieldBase::Rep", %"struct.google::protobuf::internal::RepeatedPtrFieldBase::Rep"* %3, i64 0, i32 1, i64 0
  %6 = select i1 %4, i8** null, i8** %5
  %7 = getelementptr inbounds %"class.google::protobuf::RepeatedPtrField", %"class.google::protobuf::RepeatedPtrField"* %0, i64 0, i32 0, i32 1
  %8 = load i32, i32* %7, align 8
  %9 = sext i32 %8 to i64
  %10 = getelementptr inbounds i8*, i8** %6, i64 %9
  %11 = icmp eq i32 %8, 0
  br i1 %11, label %12, label %13

12:                                               ; preds = %171, %1
  ret void

13:                                               ; preds = %1, %171
  %14 = phi i8** [ %172, %171 ], [ %6, %1 ]
  %15 = bitcast i8** %14 to %"class.safe_browsing::ReferrerChainEntry"**
  %16 = load %"class.safe_browsing::ReferrerChainEntry"*, %"class.safe_browsing::ReferrerChainEntry"** %15, align 8
  %17 = getelementptr inbounds %"class.safe_browsing::ReferrerChainEntry", %"class.safe_browsing::ReferrerChainEntry"* %16, i64 0, i32 1, i32 0, i64 0
  %18 = load i32, i32* %17, align 4
  %19 = and i32 %18, 8
  %20 = icmp eq i32 %19, 0
  br i1 %20, label %94, label %21

21:                                               ; preds = %13
  %22 = getelementptr inbounds %"class.safe_browsing::ReferrerChainEntry", %"class.safe_browsing::ReferrerChainEntry"* %16, i64 0, i32 8, i32 0
  %23 = load %"class.std::__1::basic_string"*, %"class.std::__1::basic_string"** %22, align 8
  %24 = or i32 %18, 1
  store i32 %24, i32* %17, align 4
  %25 = getelementptr inbounds %"class.safe_browsing::ReferrerChainEntry", %"class.safe_browsing::ReferrerChainEntry"* %16, i64 0, i32 5
  %26 = getelementptr inbounds %"class.safe_browsing::ReferrerChainEntry", %"class.safe_browsing::ReferrerChainEntry"* %16, i64 0, i32 0, i32 1
  %27 = bitcast %"class.google::protobuf::internal::InternalMetadata"* %26 to i64*
  %28 = load i64, i64* %27, align 8
  %29 = and i64 %28, 1
  %30 = icmp eq i64 %29, 0
  %31 = and i64 %28, -2
  br i1 %30, label %36, label %32, !prof !2

32:                                               ; preds = %21
  %33 = inttoptr i64 %31 to %"struct.google::protobuf::internal::InternalMetadata::ContainerBase"*
  %34 = getelementptr inbounds %"struct.google::protobuf::internal::InternalMetadata::ContainerBase", %"struct.google::protobuf::internal::InternalMetadata::ContainerBase"* %33, i64 0, i32 0
  %35 = load %"class.google::protobuf::Arena"*, %"class.google::protobuf::Arena"** %34, align 8
  br label %38

36:                                               ; preds = %21
  %37 = inttoptr i64 %31 to %"class.google::protobuf::Arena"*
  br label %38

38:                                               ; preds = %36, %32
  %39 = phi %"class.google::protobuf::Arena"* [ %35, %32 ], [ %37, %36 ]
  %40 = getelementptr inbounds %"struct.google::protobuf::internal::ArenaStringPtr", %"struct.google::protobuf::internal::ArenaStringPtr"* %25, i64 0, i32 0
  %41 = load %"class.std::__1::basic_string"*, %"class.std::__1::basic_string"** %40, align 8
  %42 = icmp eq %"class.std::__1::basic_string"* %41, bitcast (%"class.google::protobuf::internal::ExplicitlyConstructed"* @_ZN6google8protobuf8internal26fixed_address_empty_stringE to %"class.std::__1::basic_string"*)
  br i1 %42, label %43, label %44

43:                                               ; preds = %38
  tail call void @_ZN6google8protobuf8internal14ArenaStringPtr14CreateInstanceEPNS0_5ArenaEPKNSt3__112basic_stringIcNS5_11char_traitsIcEENS5_9allocatorIcEEEE(%"struct.google::protobuf::internal::ArenaStringPtr"* %25, %"class.google::protobuf::Arena"* %39, %"class.std::__1::basic_string"* %23) #15
  br label %75

44:                                               ; preds = %38
  %45 = icmp eq %"class.std::__1::basic_string"* %41, %23
  br i1 %45, label %75, label %46

46:                                               ; preds = %44
  %47 = bitcast %"class.std::__1::basic_string"* %41 to %"struct.std::__1::basic_string<char, std::__1::char_traits<char>, std::__1::allocator<char> >::__short"*
  %48 = getelementptr inbounds %"struct.std::__1::basic_string<char, std::__1::char_traits<char>, std::__1::allocator<char> >::__short", %"struct.std::__1::basic_string<char, std::__1::char_traits<char>, std::__1::allocator<char> >::__short"* %47, i64 0, i32 1, i32 0
  %49 = load i8, i8* %48, align 1
  %50 = icmp slt i8 %49, 0
  %51 = bitcast %"class.std::__1::basic_string"* %23 to %"struct.std::__1::basic_string<char, std::__1::char_traits<char>, std::__1::allocator<char> >::__short"*
  %52 = getelementptr inbounds %"struct.std::__1::basic_string<char, std::__1::char_traits<char>, std::__1::allocator<char> >::__short", %"struct.std::__1::basic_string<char, std::__1::char_traits<char>, std::__1::allocator<char> >::__short"* %51, i64 0, i32 1, i32 0
  %53 = load i8, i8* %52, align 1
  %54 = icmp slt i8 %53, 0
  br i1 %50, label %65, label %55

55:                                               ; preds = %46
  br i1 %54, label %59, label %56

56:                                               ; preds = %55
  %57 = bitcast %"class.std::__1::basic_string"* %41 to i8*
  %58 = bitcast %"class.std::__1::basic_string"* %23 to i8*
  tail call void @llvm.memcpy.p0i8.p0i8.i64(i8* align 8 %57, i8* align 8 %58, i64 24, i1 false) #15
  br label %75

59:                                               ; preds = %55
  %60 = getelementptr inbounds %"class.std::__1::basic_string", %"class.std::__1::basic_string"* %23, i64 0, i32 0, i32 0, i32 0, i32 0, i32 0, i32 0
  %61 = load i8*, i8** %60, align 8
  %62 = getelementptr inbounds %"class.std::__1::basic_string", %"class.std::__1::basic_string"* %23, i64 0, i32 0, i32 0, i32 0, i32 0, i32 0, i32 1
  %63 = load i64, i64* %62, align 8
  %64 = tail call dereferenceable(24) %"class.std::__1::basic_string"* @_ZNSt3__112basic_stringIcNS_11char_traitsIcEENS_9allocatorIcEEE17__assign_no_aliasILb1EEERS5_PKcm(%"class.std::__1::basic_string"* %41, i8* %61, i64 %63) #15
  br label %75

65:                                               ; preds = %46
  %66 = getelementptr inbounds %"class.std::__1::basic_string", %"class.std::__1::basic_string"* %23, i64 0, i32 0, i32 0, i32 0, i32 0, i32 0, i32 0
  %67 = load i8*, i8** %66, align 8
  %68 = getelementptr inbounds %"class.std::__1::basic_string", %"class.std::__1::basic_string"* %23, i64 0, i32 0, i32 0, i32 0, i32 0, i32 0, i32 1
  %69 = load i64, i64* %68, align 8
  %70 = bitcast %"class.std::__1::basic_string"* %23 to i8*
  %71 = zext i8 %53 to i64
  %72 = select i1 %54, i8* %67, i8* %70
  %73 = select i1 %54, i64 %69, i64 %71
  %74 = tail call dereferenceable(24) %"class.std::__1::basic_string"* @_ZNSt3__112basic_stringIcNS_11char_traitsIcEENS_9allocatorIcEEE17__assign_no_aliasILb0EEERS5_PKcm(%"class.std::__1::basic_string"* %41, i8* %72, i64 %73) #15
  br label %75

75:                                               ; preds = %43, %44, %56, %59, %65
  %76 = load %"class.std::__1::basic_string"*, %"class.std::__1::basic_string"** %22, align 8
  %77 = icmp eq %"class.std::__1::basic_string"* %76, bitcast (%"class.google::protobuf::internal::ExplicitlyConstructed"* @_ZN6google8protobuf8internal26fixed_address_empty_stringE to %"class.std::__1::basic_string"*)
  br i1 %77, label %89, label %78

78:                                               ; preds = %75
  %79 = bitcast %"class.std::__1::basic_string"* %76 to %"struct.std::__1::basic_string<char, std::__1::char_traits<char>, std::__1::allocator<char> >::__short"*
  %80 = getelementptr inbounds %"struct.std::__1::basic_string<char, std::__1::char_traits<char>, std::__1::allocator<char> >::__short", %"struct.std::__1::basic_string<char, std::__1::char_traits<char>, std::__1::allocator<char> >::__short"* %79, i64 0, i32 1, i32 0
  %81 = load i8, i8* %80, align 1
  %82 = icmp slt i8 %81, 0
  br i1 %82, label %83, label %87

83:                                               ; preds = %78
  %84 = getelementptr inbounds %"class.std::__1::basic_string", %"class.std::__1::basic_string"* %76, i64 0, i32 0, i32 0, i32 0, i32 0, i32 0, i32 0
  %85 = load i8*, i8** %84, align 8
  store i8 0, i8* %85, align 1
  %86 = getelementptr inbounds %"class.std::__1::basic_string", %"class.std::__1::basic_string"* %76, i64 0, i32 0, i32 0, i32 0, i32 0, i32 0, i32 1
  store i64 0, i64* %86, align 8
  br label %89

87:                                               ; preds = %78
  %88 = bitcast %"class.std::__1::basic_string"* %76 to i8*
  store i8 0, i8* %88, align 1
  store i8 0, i8* %80, align 1
  br label %89

89:                                               ; preds = %75, %83, %87
  %90 = load i32, i32* %17, align 4
  %91 = and i32 %90, -265
  %92 = or i32 %91, 256
  store i32 %92, i32* %17, align 4
  %93 = getelementptr inbounds %"class.safe_browsing::ReferrerChainEntry", %"class.safe_browsing::ReferrerChainEntry"* %16, i64 0, i32 13
  store i8 1, i8* %93, align 2
  br label %94

94:                                               ; preds = %13, %89
  %95 = phi i32 [ %18, %13 ], [ %92, %89 ]
  %96 = and i32 %95, 4
  %97 = icmp eq i32 %96, 0
  br i1 %97, label %171, label %98

98:                                               ; preds = %94
  %99 = getelementptr inbounds %"class.safe_browsing::ReferrerChainEntry", %"class.safe_browsing::ReferrerChainEntry"* %16, i64 0, i32 7, i32 0
  %100 = load %"class.std::__1::basic_string"*, %"class.std::__1::basic_string"** %99, align 8
  %101 = or i32 %95, 2
  store i32 %101, i32* %17, align 4
  %102 = getelementptr inbounds %"class.safe_browsing::ReferrerChainEntry", %"class.safe_browsing::ReferrerChainEntry"* %16, i64 0, i32 6
  %103 = getelementptr inbounds %"class.safe_browsing::ReferrerChainEntry", %"class.safe_browsing::ReferrerChainEntry"* %16, i64 0, i32 0, i32 1
  %104 = bitcast %"class.google::protobuf::internal::InternalMetadata"* %103 to i64*
  %105 = load i64, i64* %104, align 8
  %106 = and i64 %105, 1
  %107 = icmp eq i64 %106, 0
  %108 = and i64 %105, -2
  br i1 %107, label %113, label %109, !prof !2

109:                                              ; preds = %98
  %110 = inttoptr i64 %108 to %"struct.google::protobuf::internal::InternalMetadata::ContainerBase"*
  %111 = getelementptr inbounds %"struct.google::protobuf::internal::InternalMetadata::ContainerBase", %"struct.google::protobuf::internal::InternalMetadata::ContainerBase"* %110, i64 0, i32 0
  %112 = load %"class.google::protobuf::Arena"*, %"class.google::protobuf::Arena"** %111, align 8
  br label %115

113:                                              ; preds = %98
  %114 = inttoptr i64 %108 to %"class.google::protobuf::Arena"*
  br label %115

115:                                              ; preds = %113, %109
  %116 = phi %"class.google::protobuf::Arena"* [ %112, %109 ], [ %114, %113 ]
  %117 = getelementptr inbounds %"struct.google::protobuf::internal::ArenaStringPtr", %"struct.google::protobuf::internal::ArenaStringPtr"* %102, i64 0, i32 0
  %118 = load %"class.std::__1::basic_string"*, %"class.std::__1::basic_string"** %117, align 8
  %119 = icmp eq %"class.std::__1::basic_string"* %118, bitcast (%"class.google::protobuf::internal::ExplicitlyConstructed"* @_ZN6google8protobuf8internal26fixed_address_empty_stringE to %"class.std::__1::basic_string"*)
  br i1 %119, label %120, label %121

120:                                              ; preds = %115
  tail call void @_ZN6google8protobuf8internal14ArenaStringPtr14CreateInstanceEPNS0_5ArenaEPKNSt3__112basic_stringIcNS5_11char_traitsIcEENS5_9allocatorIcEEEE(%"struct.google::protobuf::internal::ArenaStringPtr"* %102, %"class.google::protobuf::Arena"* %116, %"class.std::__1::basic_string"* %100) #15
  br label %152

121:                                              ; preds = %115
  %122 = icmp eq %"class.std::__1::basic_string"* %118, %100
  br i1 %122, label %152, label %123

123:                                              ; preds = %121
  %124 = bitcast %"class.std::__1::basic_string"* %118 to %"struct.std::__1::basic_string<char, std::__1::char_traits<char>, std::__1::allocator<char> >::__short"*
  %125 = getelementptr inbounds %"struct.std::__1::basic_string<char, std::__1::char_traits<char>, std::__1::allocator<char> >::__short", %"struct.std::__1::basic_string<char, std::__1::char_traits<char>, std::__1::allocator<char> >::__short"* %124, i64 0, i32 1, i32 0
  %126 = load i8, i8* %125, align 1
  %127 = icmp slt i8 %126, 0
  %128 = bitcast %"class.std::__1::basic_string"* %100 to %"struct.std::__1::basic_string<char, std::__1::char_traits<char>, std::__1::allocator<char> >::__short"*
  %129 = getelementptr inbounds %"struct.std::__1::basic_string<char, std::__1::char_traits<char>, std::__1::allocator<char> >::__short", %"struct.std::__1::basic_string<char, std::__1::char_traits<char>, std::__1::allocator<char> >::__short"* %128, i64 0, i32 1, i32 0
  %130 = load i8, i8* %129, align 1
  %131 = icmp slt i8 %130, 0
  br i1 %127, label %142, label %132

132:                                              ; preds = %123
  br i1 %131, label %136, label %133

133:                                              ; preds = %132
  %134 = bitcast %"class.std::__1::basic_string"* %118 to i8*
  %135 = bitcast %"class.std::__1::basic_string"* %100 to i8*
  tail call void @llvm.memcpy.p0i8.p0i8.i64(i8* align 8 %134, i8* align 8 %135, i64 24, i1 false) #15
  br label %152

136:                                              ; preds = %132
  %137 = getelementptr inbounds %"class.std::__1::basic_string", %"class.std::__1::basic_string"* %100, i64 0, i32 0, i32 0, i32 0, i32 0, i32 0, i32 0
  %138 = load i8*, i8** %137, align 8
  %139 = getelementptr inbounds %"class.std::__1::basic_string", %"class.std::__1::basic_string"* %100, i64 0, i32 0, i32 0, i32 0, i32 0, i32 0, i32 1
  %140 = load i64, i64* %139, align 8
  %141 = tail call dereferenceable(24) %"class.std::__1::basic_string"* @_ZNSt3__112basic_stringIcNS_11char_traitsIcEENS_9allocatorIcEEE17__assign_no_aliasILb1EEERS5_PKcm(%"class.std::__1::basic_string"* %118, i8* %138, i64 %140) #15
  br label %152

142:                                              ; preds = %123
  %143 = getelementptr inbounds %"class.std::__1::basic_string", %"class.std::__1::basic_string"* %100, i64 0, i32 0, i32 0, i32 0, i32 0, i32 0, i32 0
  %144 = load i8*, i8** %143, align 8
  %145 = getelementptr inbounds %"class.std::__1::basic_string", %"class.std::__1::basic_string"* %100, i64 0, i32 0, i32 0, i32 0, i32 0, i32 0, i32 1
  %146 = load i64, i64* %145, align 8
  %147 = bitcast %"class.std::__1::basic_string"* %100 to i8*
  %148 = zext i8 %130 to i64
  %149 = select i1 %131, i8* %144, i8* %147
  %150 = select i1 %131, i64 %146, i64 %148
  %151 = tail call dereferenceable(24) %"class.std::__1::basic_string"* @_ZNSt3__112basic_stringIcNS_11char_traitsIcEENS_9allocatorIcEEE17__assign_no_aliasILb0EEERS5_PKcm(%"class.std::__1::basic_string"* %118, i8* %149, i64 %150) #15
  br label %152

152:                                              ; preds = %120, %121, %133, %136, %142
  %153 = load %"class.std::__1::basic_string"*, %"class.std::__1::basic_string"** %99, align 8
  %154 = icmp eq %"class.std::__1::basic_string"* %153, bitcast (%"class.google::protobuf::internal::ExplicitlyConstructed"* @_ZN6google8protobuf8internal26fixed_address_empty_stringE to %"class.std::__1::basic_string"*)
  br i1 %154, label %166, label %155

155:                                              ; preds = %152
  %156 = bitcast %"class.std::__1::basic_string"* %153 to %"struct.std::__1::basic_string<char, std::__1::char_traits<char>, std::__1::allocator<char> >::__short"*
  %157 = getelementptr inbounds %"struct.std::__1::basic_string<char, std::__1::char_traits<char>, std::__1::allocator<char> >::__short", %"struct.std::__1::basic_string<char, std::__1::char_traits<char>, std::__1::allocator<char> >::__short"* %156, i64 0, i32 1, i32 0
  %158 = load i8, i8* %157, align 1
  %159 = icmp slt i8 %158, 0
  br i1 %159, label %160, label %164

160:                                              ; preds = %155
  %161 = getelementptr inbounds %"class.std::__1::basic_string", %"class.std::__1::basic_string"* %153, i64 0, i32 0, i32 0, i32 0, i32 0, i32 0, i32 0
  %162 = load i8*, i8** %161, align 8
  store i8 0, i8* %162, align 1
  %163 = getelementptr inbounds %"class.std::__1::basic_string", %"class.std::__1::basic_string"* %153, i64 0, i32 0, i32 0, i32 0, i32 0, i32 0, i32 1
  store i64 0, i64* %163, align 8
  br label %166

164:                                              ; preds = %155
  %165 = bitcast %"class.std::__1::basic_string"* %153 to i8*
  store i8 0, i8* %165, align 1
  store i8 0, i8* %157, align 1
  br label %166

166:                                              ; preds = %152, %160, %164
  %167 = load i32, i32* %17, align 4
  %168 = and i32 %167, -517
  %169 = or i32 %168, 512
  store i32 %169, i32* %17, align 4
  %170 = getelementptr inbounds %"class.safe_browsing::ReferrerChainEntry", %"class.safe_browsing::ReferrerChainEntry"* %16, i64 0, i32 14
  store i8 1, i8* %170, align 1
  br label %171

171:                                              ; preds = %94, %166
  %172 = getelementptr inbounds i8*, i8** %14, i64 1
  %173 = icmp eq i8** %172, %10
  br i1 %173, label %12, label %13
}

; Function Attrs: nounwind ssp uwtable
define hidden void @_ZN13safe_browsing28RealTimeUrlLookupServiceBase10GetWeakPtrEv(%"class.base::WeakPtr"* noalias sret, %"class.safe_browsing::RealTimeUrlLookupServiceBase"*) local_unnamed_addr #0 align 2 {
  %3 = alloca %"class.base::internal::WeakReference", align 8
  %4 = bitcast %"class.base::internal::WeakReference"* %3 to i8*
  call void @llvm.lifetime.start.p0i8(i64 8, i8* nonnull %4) #15, !noalias !3
  %5 = getelementptr inbounds %"class.safe_browsing::RealTimeUrlLookupServiceBase", %"class.safe_browsing::RealTimeUrlLookupServiceBase"* %1, i64 0, i32 10, i32 0, i32 0
  call void @_ZNK4base8internal18WeakReferenceOwner6GetRefEv(%"class.base::internal::WeakReference"* nonnull sret %3, %"class.base::internal::WeakReferenceOwner"* %5) #15, !noalias !3
  %6 = getelementptr inbounds %"class.safe_browsing::RealTimeUrlLookupServiceBase", %"class.safe_browsing::RealTimeUrlLookupServiceBase"* %1, i64 0, i32 10, i32 0, i32 1
  %7 = load i64, i64* %6, align 8, !noalias !3
  %8 = getelementptr inbounds %"class.base::WeakPtr", %"class.base::WeakPtr"* %0, i64 0, i32 0
  call void @_ZN4base8internal11WeakPtrBaseC2ERKNS0_13WeakReferenceEm(%"class.base::internal::WeakPtrBase"* %8, %"class.base::internal::WeakReference"* nonnull dereferenceable(8) %3, i64 %7) #15
  call void @_ZN4base8internal13WeakReferenceD1Ev(%"class.base::internal::WeakReference"* nonnull %3) #15
  call void @llvm.lifetime.end.p0i8(i64 8, i8* nonnull %4) #15, !noalias !3
  ret void
}

; Function Attrs: nounwind readonly ssp uwtable
define hidden i64 @_ZNK13safe_browsing28RealTimeUrlLookupServiceBase27GetBackoffDurationInSecondsEv(%"class.safe_browsing::RealTimeUrlLookupServiceBase"* nocapture readonly) local_unnamed_addr #7 align 2 {
  %2 = getelementptr inbounds %"class.safe_browsing::RealTimeUrlLookupServiceBase", %"class.safe_browsing::RealTimeUrlLookupServiceBase"* %0, i64 0, i32 2
  %3 = load i8, i8* %2, align 8, !range !6
  %4 = icmp eq i8 %3, 0
  br i1 %4, label %5, label %11

5:                                                ; preds = %1
  %6 = getelementptr inbounds %"class.safe_browsing::RealTimeUrlLookupServiceBase", %"class.safe_browsing::RealTimeUrlLookupServiceBase"* %0, i64 0, i32 3
  %7 = load i64, i64* %6, align 8
  %8 = shl i64 %7, 1
  %9 = icmp ult i64 %8, 1800
  %10 = select i1 %9, i64 %8, i64 1800
  br label %11

11:                                               ; preds = %1, %5
  %12 = phi i64 [ %10, %5 ], [ 300, %1 ]
  ret i64 %12
}

; Function Attrs: nounwind ssp uwtable
define hidden void @_ZN13safe_browsing28RealTimeUrlLookupServiceBase17HandleLookupErrorEv(%"class.safe_browsing::RealTimeUrlLookupServiceBase"*) local_unnamed_addr #0 align 2 {
  %2 = alloca %"class.base::OnceCallback", align 8
  %3 = alloca %"class.base::Location", align 8
  %4 = getelementptr inbounds %"class.safe_browsing::RealTimeUrlLookupServiceBase", %"class.safe_browsing::RealTimeUrlLookupServiceBase"* %0, i64 0, i32 1
  %5 = load i64, i64* %4, align 8
  %6 = add i64 %5, 1
  store i64 %6, i64* %4, align 8
  %7 = icmp ult i64 %6, 3
  br i1 %7, label %46, label %8

8:                                                ; preds = %1
  %9 = tail call zeroext i1 @_ZNK13safe_browsing28RealTimeUrlLookupServiceBase15IsInBackoffModeEv(%"class.safe_browsing::RealTimeUrlLookupServiceBase"* %0)
  br i1 %9, label %46, label %10

10:                                               ; preds = %8
  %11 = getelementptr inbounds %"class.safe_browsing::RealTimeUrlLookupServiceBase", %"class.safe_browsing::RealTimeUrlLookupServiceBase"* %0, i64 0, i32 2
  %12 = load i8, i8* %11, align 8, !range !6
  %13 = icmp eq i8 %12, 0
  br i1 %13, label %14, label %20

14:                                               ; preds = %10
  %15 = getelementptr inbounds %"class.safe_browsing::RealTimeUrlLookupServiceBase", %"class.safe_browsing::RealTimeUrlLookupServiceBase"* %0, i64 0, i32 3
  %16 = load i64, i64* %15, align 8
  %17 = shl i64 %16, 1
  %18 = icmp ult i64 %17, 1800
  %19 = select i1 %18, i64 %17, i64 1800
  br label %20

20:                                               ; preds = %10, %14
  %21 = phi i64 [ %19, %14 ], [ 300, %10 ]
  %22 = getelementptr inbounds %"class.safe_browsing::RealTimeUrlLookupServiceBase", %"class.safe_browsing::RealTimeUrlLookupServiceBase"* %0, i64 0, i32 3
  store i64 %21, i64* %22, align 8
  %23 = getelementptr inbounds %"class.safe_browsing::RealTimeUrlLookupServiceBase", %"class.safe_browsing::RealTimeUrlLookupServiceBase"* %0, i64 0, i32 4
  %24 = bitcast %"class.base::Location"* %3 to i8*
  call void @llvm.lifetime.start.p0i8(i64 32, i8* nonnull %24) #15
  call void @_ZN4base8Location7CurrentEPKcS2_i(%"class.base::Location"* nonnull sret %3, i8* getelementptr inbounds ([18 x i8], [18 x i8]* @.str, i64 0, i64 0), i8* getelementptr inbounds ([72 x i8], [72 x i8]* @.str.1, i64 0, i64 0), i32 234) #15
  %25 = load i64, i64* %22, align 8
  %26 = icmp slt i64 %25, 0
  %27 = select i1 %26, i64 -9223372036854775808, i64 9223372036854775807
  %28 = call { i64, i1 } @llvm.smul.with.overflow.i64(i64 %25, i64 1000000) #15
  %29 = extractvalue { i64, i1 } %28, 1
  %30 = extractvalue { i64, i1 } %28, 0
  %31 = select i1 %29, i64 %27, i64 %30, !prof !7
  %32 = bitcast %"class.base::OnceCallback"* %2 to i8*
  call void @llvm.lifetime.start.p0i8(i64 8, i8* nonnull %32)
  %33 = ptrtoint %"class.safe_browsing::RealTimeUrlLookupServiceBase"* %0 to i64
  %34 = call i8* @_Znwm(i64 56) #16, !noalias !8
  %35 = bitcast i8* %34 to %"class.base::internal::BindStateBase"*
  call void @_ZN4base8internal13BindStateBaseC2EPFvvEPFvPKS1_E(%"class.base::internal::BindStateBase"* nonnull %35, void ()* bitcast (void (%"class.base::internal::BindStateBase"*)* @_ZN4base8internal7InvokerINS0_9BindStateIMN13safe_browsing28RealTimeUrlLookupServiceBaseEFvvEJNS0_17UnretainedWrapperIS4_EEEEEFvvEE7RunOnceEPNS0_13BindStateBaseE to void ()*), void (%"class.base::internal::BindStateBase"*)* nonnull @_ZN4base8internal9BindStateIMN13safe_browsing28RealTimeUrlLookupServiceBaseEFvvEJNS0_17UnretainedWrapperIS3_EEEE7DestroyEPKNS0_13BindStateBaseE) #15, !noalias !8
  %36 = getelementptr inbounds i8, i8* %34, i64 32
  %37 = bitcast i8* %36 to <2 x i64>*
  store <2 x i64> <i64 ptrtoint (void (%"class.safe_browsing::RealTimeUrlLookupServiceBase"*)* @_ZN13safe_browsing28RealTimeUrlLookupServiceBase13ResetFailuresEv to i64), i64 0>, <2 x i64>* %37, align 8, !noalias !8
  %38 = getelementptr inbounds i8, i8* %34, i64 48
  %39 = bitcast i8* %38 to i64*
  store i64 %33, i64* %39, align 8, !noalias !8
  %40 = bitcast %"class.base::OnceCallback"* %2 to i8**
  store i8* %34, i8** %40, align 8, !alias.scope !8
  %41 = bitcast %"class.base::OneShotTimer"* %23 to void (%"class.base::OneShotTimer"*, %"class.base::Location"*, i64, %"class.base::OnceCallback"*)***
  %42 = load void (%"class.base::OneShotTimer"*, %"class.base::Location"*, i64, %"class.base::OnceCallback"*)**, void (%"class.base::OneShotTimer"*, %"class.base::Location"*, i64, %"class.base::OnceCallback"*)*** %41, align 8
  %43 = getelementptr inbounds void (%"class.base::OneShotTimer"*, %"class.base::Location"*, i64, %"class.base::OnceCallback"*)*, void (%"class.base::OneShotTimer"*, %"class.base::Location"*, i64, %"class.base::OnceCallback"*)** %42, i64 7
  %44 = load void (%"class.base::OneShotTimer"*, %"class.base::Location"*, i64, %"class.base::OnceCallback"*)*, void (%"class.base::OneShotTimer"*, %"class.base::Location"*, i64, %"class.base::OnceCallback"*)** %43, align 8
  call void %44(%"class.base::OneShotTimer"* %23, %"class.base::Location"* nonnull dereferenceable(32) %3, i64 %31, %"class.base::OnceCallback"* nonnull %2) #15
  %45 = getelementptr inbounds %"class.base::OnceCallback", %"class.base::OnceCallback"* %2, i64 0, i32 0
  call void @_ZN4base8internal12CallbackBaseD2Ev(%"class.base::internal::CallbackBase"* nonnull %45) #15
  call void @llvm.lifetime.end.p0i8(i64 8, i8* nonnull %32)
  call void @llvm.lifetime.end.p0i8(i64 32, i8* nonnull %24) #15
  store i8 0, i8* %11, align 8
  br label %46

46:                                               ; preds = %8, %1, %20
  ret void
}

; Function Attrs: nounwind ssp uwtable
define hidden zeroext i1 @_ZNK13safe_browsing28RealTimeUrlLookupServiceBase15IsInBackoffModeEv(%"class.safe_browsing::RealTimeUrlLookupServiceBase"*) local_unnamed_addr #0 align 2 {
  %2 = alloca %"class.std::__1::basic_string", align 8
  %3 = alloca %"class.std::__1::basic_string", align 8
  %4 = getelementptr inbounds %"class.safe_browsing::RealTimeUrlLookupServiceBase", %"class.safe_browsing::RealTimeUrlLookupServiceBase"* %0, i64 0, i32 4, i32 0
  %5 = tail call zeroext i1 @_ZNK4base8internal9TimerBase9IsRunningEv(%"class.base::internal::TimerBase"* %4) #15
  %6 = bitcast %"class.std::__1::basic_string"* %2 to i8*
  call void @llvm.lifetime.start.p0i8(i64 24, i8* nonnull %6) #15
  %7 = tail call i8* @_Znwm(i64 32) #16
  %8 = getelementptr inbounds %"class.std::__1::basic_string", %"class.std::__1::basic_string"* %2, i64 0, i32 0, i32 0, i32 0, i32 0, i32 0, i32 0
  store i8* %7, i8** %8, align 8
  %9 = getelementptr inbounds %"class.std::__1::basic_string", %"class.std::__1::basic_string"* %2, i64 0, i32 0, i32 0, i32 0, i32 0, i32 0, i32 1
  %10 = bitcast i64* %9 to <2 x i64>*
  store <2 x i64> <i64 29, i64 -9223372036854775776>, <2 x i64>* %10, align 8
  call void @llvm.memcpy.p0i8.p0i8.i64(i8* nonnull align 1 %7, i8* align 1 getelementptr inbounds ([30 x i8], [30 x i8]* @.str.2, i64 0, i64 0), i64 29, i1 false) #15
  %11 = getelementptr inbounds i8, i8* %7, i64 29
  store i8 0, i8* %11, align 1
  %12 = bitcast %"class.std::__1::basic_string"* %3 to i8*
  call void @llvm.lifetime.start.p0i8(i64 24, i8* nonnull %12) #15
  %13 = bitcast %"class.safe_browsing::RealTimeUrlLookupServiceBase"* %0 to void (%"class.std::__1::basic_string"*, %"class.safe_browsing::RealTimeUrlLookupServiceBase"*)***
  %14 = load void (%"class.std::__1::basic_string"*, %"class.safe_browsing::RealTimeUrlLookupServiceBase"*)**, void (%"class.std::__1::basic_string"*, %"class.safe_browsing::RealTimeUrlLookupServiceBase"*)*** %13, align 8
  %15 = getelementptr inbounds void (%"class.std::__1::basic_string"*, %"class.safe_browsing::RealTimeUrlLookupServiceBase"*)*, void (%"class.std::__1::basic_string"*, %"class.safe_browsing::RealTimeUrlLookupServiceBase"*)** %14, i64 15
  %16 = load void (%"class.std::__1::basic_string"*, %"class.safe_browsing::RealTimeUrlLookupServiceBase"*)*, void (%"class.std::__1::basic_string"*, %"class.safe_browsing::RealTimeUrlLookupServiceBase"*)** %15, align 8
  call void %16(%"class.std::__1::basic_string"* nonnull sret %3, %"class.safe_browsing::RealTimeUrlLookupServiceBase"* %0) #15
  call fastcc void @_ZN13safe_browsing12_GLOBAL__N_133RecordBooleanWithAndWithoutSuffixERKNSt3__112basic_stringIcNS1_11char_traitsIcEENS1_9allocatorIcEEEES9_b(%"class.std::__1::basic_string"* nonnull dereferenceable(24) %2, %"class.std::__1::basic_string"* nonnull dereferenceable(24) %3, i1 zeroext %5)
  %17 = bitcast %"class.std::__1::basic_string"* %3 to %"struct.std::__1::basic_string<char, std::__1::char_traits<char>, std::__1::allocator<char> >::__short"*
  %18 = getelementptr inbounds %"struct.std::__1::basic_string<char, std::__1::char_traits<char>, std::__1::allocator<char> >::__short", %"struct.std::__1::basic_string<char, std::__1::char_traits<char>, std::__1::allocator<char> >::__short"* %17, i64 0, i32 1, i32 0
  %19 = load i8, i8* %18, align 1
  %20 = icmp slt i8 %19, 0
  br i1 %20, label %21, label %24

21:                                               ; preds = %1
  %22 = getelementptr inbounds %"class.std::__1::basic_string", %"class.std::__1::basic_string"* %3, i64 0, i32 0, i32 0, i32 0, i32 0, i32 0, i32 0
  %23 = load i8*, i8** %22, align 8
  call void @_ZdlPv(i8* %23) #16
  br label %24

24:                                               ; preds = %1, %21
  call void @llvm.lifetime.end.p0i8(i64 24, i8* nonnull %12) #15
  %25 = bitcast %"class.std::__1::basic_string"* %2 to %"struct.std::__1::basic_string<char, std::__1::char_traits<char>, std::__1::allocator<char> >::__short"*
  %26 = getelementptr inbounds %"struct.std::__1::basic_string<char, std::__1::char_traits<char>, std::__1::allocator<char> >::__short", %"struct.std::__1::basic_string<char, std::__1::char_traits<char>, std::__1::allocator<char> >::__short"* %25, i64 0, i32 1, i32 0
  %27 = load i8, i8* %26, align 1
  %28 = icmp slt i8 %27, 0
  br i1 %28, label %29, label %31

29:                                               ; preds = %24
  %30 = load i8*, i8** %8, align 8
  call void @_ZdlPv(i8* %30) #16
  br label %31

31:                                               ; preds = %24, %29
  call void @llvm.lifetime.end.p0i8(i64 24, i8* nonnull %6) #15
  ret i1 %5
}

declare void @_ZN4base8Location7CurrentEPKcS2_i(%"class.base::Location"* sret, i8*, i8*, i32) local_unnamed_addr #1

; Function Attrs: nounwind ssp uwtable
define hidden void @_ZN13safe_browsing28RealTimeUrlLookupServiceBase13ResetFailuresEv(%"class.safe_browsing::RealTimeUrlLookupServiceBase"*) #0 align 2 {
  %2 = getelementptr inbounds %"class.safe_browsing::RealTimeUrlLookupServiceBase", %"class.safe_browsing::RealTimeUrlLookupServiceBase"* %0, i64 0, i32 1
  store i64 0, i64* %2, align 8
  %3 = getelementptr inbounds %"class.safe_browsing::RealTimeUrlLookupServiceBase", %"class.safe_browsing::RealTimeUrlLookupServiceBase"* %0, i64 0, i32 4, i32 0
  tail call void @_ZN4base8internal9TimerBase4StopEv(%"class.base::internal::TimerBase"* %3) #15
  ret void
}

; Function Attrs: nounwind ssp uwtable
define hidden void @_ZN13safe_browsing28RealTimeUrlLookupServiceBase19HandleLookupSuccessEv(%"class.safe_browsing::RealTimeUrlLookupServiceBase"*) local_unnamed_addr #0 align 2 {
  %2 = getelementptr inbounds %"class.safe_browsing::RealTimeUrlLookupServiceBase", %"class.safe_browsing::RealTimeUrlLookupServiceBase"* %0, i64 0, i32 1
  store i64 0, i64* %2, align 8
  %3 = getelementptr inbounds %"class.safe_browsing::RealTimeUrlLookupServiceBase", %"class.safe_browsing::RealTimeUrlLookupServiceBase"* %0, i64 0, i32 4, i32 0
  tail call void @_ZN4base8internal9TimerBase4StopEv(%"class.base::internal::TimerBase"* %3) #15
  %4 = getelementptr inbounds %"class.safe_browsing::RealTimeUrlLookupServiceBase", %"class.safe_browsing::RealTimeUrlLookupServiceBase"* %0, i64 0, i32 2
  store i8 1, i8* %4, align 8
  ret void
}

declare zeroext i1 @_ZNK4base8internal9TimerBase9IsRunningEv(%"class.base::internal::TimerBase"*) local_unnamed_addr #1

; Function Attrs: nounwind ssp uwtable
define internal fastcc void @_ZN13safe_browsing12_GLOBAL__N_133RecordBooleanWithAndWithoutSuffixERKNSt3__112basic_stringIcNS1_11char_traitsIcEENS1_9allocatorIcEEEES9_b(%"class.std::__1::basic_string"* dereferenceable(24), %"class.std::__1::basic_string"* dereferenceable(24), i1 zeroext) unnamed_addr #0 {
  %4 = alloca %"class.std::__1::basic_string", align 8
  tail call void @_ZN4base19UmaHistogramBooleanERKNSt3__112basic_stringIcNS0_11char_traitsIcEENS0_9allocatorIcEEEEb(%"class.std::__1::basic_string"* dereferenceable(24) %0, i1 zeroext %2) #15
  %5 = bitcast %"class.std::__1::basic_string"* %4 to i8*
  call void @llvm.lifetime.start.p0i8(i64 24, i8* nonnull %5) #15
  %6 = getelementptr inbounds %"class.std::__1::basic_string", %"class.std::__1::basic_string"* %4, i64 0, i32 0, i32 0, i32 0, i32 0, i32 0, i32 0
  %7 = getelementptr inbounds %"class.std::__1::basic_string", %"class.std::__1::basic_string"* %4, i64 0, i32 0, i32 0, i32 0, i32 0, i32 0, i32 1
  %8 = getelementptr inbounds %"class.std::__1::basic_string", %"class.std::__1::basic_string"* %4, i64 0, i32 0, i32 0, i32 0, i32 0, i32 0, i32 2
  call void @llvm.memset.p0i8.i64(i8* nonnull align 8 %5, i8 0, i64 24, i1 false) #15, !alias.scope !13
  %9 = bitcast %"class.std::__1::basic_string"* %0 to %"struct.std::__1::basic_string<char, std::__1::char_traits<char>, std::__1::allocator<char> >::__short"*
  %10 = getelementptr inbounds %"struct.std::__1::basic_string<char, std::__1::char_traits<char>, std::__1::allocator<char> >::__short", %"struct.std::__1::basic_string<char, std::__1::char_traits<char>, std::__1::allocator<char> >::__short"* %9, i64 0, i32 1, i32 0
  %11 = load i8, i8* %10, align 1, !noalias !13
  %12 = icmp slt i8 %11, 0
  %13 = getelementptr inbounds %"class.std::__1::basic_string", %"class.std::__1::basic_string"* %0, i64 0, i32 0, i32 0, i32 0, i32 0, i32 0, i32 1
  %14 = load i64, i64* %13, align 8, !noalias !13
  %15 = zext i8 %11 to i64
  %16 = select i1 %12, i64 %14, i64 %15
  %17 = bitcast %"class.std::__1::basic_string"* %1 to %"struct.std::__1::basic_string<char, std::__1::char_traits<char>, std::__1::allocator<char> >::__short"*
  %18 = getelementptr inbounds %"struct.std::__1::basic_string<char, std::__1::char_traits<char>, std::__1::allocator<char> >::__short", %"struct.std::__1::basic_string<char, std::__1::char_traits<char>, std::__1::allocator<char> >::__short"* %17, i64 0, i32 1, i32 0
  %19 = load i8, i8* %18, align 1, !noalias !13
  %20 = icmp slt i8 %19, 0
  %21 = getelementptr inbounds %"class.std::__1::basic_string", %"class.std::__1::basic_string"* %1, i64 0, i32 0, i32 0, i32 0, i32 0, i32 0, i32 1
  %22 = load i64, i64* %21, align 8, !noalias !13
  %23 = zext i8 %19 to i64
  %24 = select i1 %20, i64 %22, i64 %23
  %25 = getelementptr inbounds %"class.std::__1::basic_string", %"class.std::__1::basic_string"* %0, i64 0, i32 0, i32 0, i32 0, i32 0, i32 0, i32 0
  %26 = load i8*, i8** %25, align 8, !noalias !13
  %27 = bitcast %"class.std::__1::basic_string"* %0 to i8*
  %28 = select i1 %12, i8* %26, i8* %27
  %29 = add i64 %24, %16
  %30 = icmp ugt i64 %29, -17
  br i1 %30, label %31, label %33

31:                                               ; preds = %3
  %32 = bitcast %"class.std::__1::basic_string"* %4 to %"class.std::__1::__basic_string_common"*
  call void @_ZNKSt3__121__basic_string_commonILb1EE20__throw_length_errorEv(%"class.std::__1::__basic_string_common"* nonnull %32) #17
  unreachable

33:                                               ; preds = %3
  %34 = icmp ult i64 %29, 23
  br i1 %34, label %35, label %39

35:                                               ; preds = %33
  %36 = trunc i64 %16 to i8
  %37 = bitcast %"class.std::__1::basic_string"* %4 to %"struct.std::__1::basic_string<char, std::__1::char_traits<char>, std::__1::allocator<char> >::__short"*
  %38 = getelementptr inbounds %"struct.std::__1::basic_string<char, std::__1::char_traits<char>, std::__1::allocator<char> >::__short", %"struct.std::__1::basic_string<char, std::__1::char_traits<char>, std::__1::allocator<char> >::__short"* %37, i64 0, i32 1, i32 0
  store i8 %36, i8* %38, align 1, !alias.scope !13
  br label %44

39:                                               ; preds = %33
  %40 = add nuw i64 %29, 16
  %41 = and i64 %40, -16
  %42 = tail call i8* @_Znwm(i64 %41) #16
  store i8* %42, i8** %6, align 8, !alias.scope !13
  %43 = or i64 %41, -9223372036854775808
  store i64 %43, i64* %8, align 8, !alias.scope !13
  store i64 %16, i64* %7, align 8, !alias.scope !13
  br label %44

44:                                               ; preds = %39, %35
  %45 = phi i8* [ %5, %35 ], [ %42, %39 ]
  %46 = icmp eq i64 %16, 0
  br i1 %46, label %48, label %47

47:                                               ; preds = %44
  call void @llvm.memcpy.p0i8.p0i8.i64(i8* nonnull align 1 %45, i8* align 1 %28, i64 %16, i1 false) #15
  br label %48

48:                                               ; preds = %44, %47
  %49 = getelementptr inbounds i8, i8* %45, i64 %16
  store i8 0, i8* %49, align 1
  %50 = getelementptr inbounds %"class.std::__1::basic_string", %"class.std::__1::basic_string"* %1, i64 0, i32 0, i32 0, i32 0, i32 0, i32 0, i32 0
  %51 = load i8*, i8** %50, align 8, !noalias !13
  %52 = bitcast %"class.std::__1::basic_string"* %1 to i8*
  %53 = select i1 %20, i8* %51, i8* %52
  %54 = call dereferenceable(24) %"class.std::__1::basic_string"* @_ZNSt3__112basic_stringIcNS_11char_traitsIcEENS_9allocatorIcEEE6appendEPKcm(%"class.std::__1::basic_string"* nonnull %4, i8* %53, i64 %24) #15
  call void @_ZN4base19UmaHistogramBooleanERKNSt3__112basic_stringIcNS0_11char_traitsIcEENS0_9allocatorIcEEEEb(%"class.std::__1::basic_string"* nonnull dereferenceable(24) %4, i1 zeroext %2) #15
  %55 = bitcast %"class.std::__1::basic_string"* %4 to %"struct.std::__1::basic_string<char, std::__1::char_traits<char>, std::__1::allocator<char> >::__short"*
  %56 = getelementptr inbounds %"struct.std::__1::basic_string<char, std::__1::char_traits<char>, std::__1::allocator<char> >::__short", %"struct.std::__1::basic_string<char, std::__1::char_traits<char>, std::__1::allocator<char> >::__short"* %55, i64 0, i32 1, i32 0
  %57 = load i8, i8* %56, align 1
  %58 = icmp slt i8 %57, 0
  br i1 %58, label %59, label %61

59:                                               ; preds = %48
  %60 = load i8*, i8** %6, align 8
  call void @_ZdlPv(i8* %60) #16
  br label %61

61:                                               ; preds = %48, %59
  call void @llvm.lifetime.end.p0i8(i64 24, i8* nonnull %5) #15
  ret void
}

declare void @_ZN4base8internal9TimerBase4StopEv(%"class.base::internal::TimerBase"*) unnamed_addr #1

; Function Attrs: nounwind ssp uwtable
define hidden %"class.safe_browsing::RTLookupResponse"* @_ZN13safe_browsing28RealTimeUrlLookupServiceBase27GetCachedRealTimeUrlVerdictERK4GURL(%"class.safe_browsing::RealTimeUrlLookupServiceBase"*, %class.GURL* dereferenceable(120)) local_unnamed_addr #0 align 2 {
  %3 = alloca %"class.std::__1::basic_string", align 8
  %4 = alloca %"class.std::__1::basic_string", align 8
  %5 = alloca %"class.std::__1::basic_string", align 8
  %6 = alloca %"class.std::__1::basic_string", align 8
  %7 = alloca %"class.std::__1::basic_string", align 8
  %8 = alloca %"class.std::__1::basic_string", align 8
  %9 = alloca %"class.std::__1::basic_string", align 8
  %10 = tail call i8* @_Znwm(i64 64) #16
  %11 = bitcast i8* %10 to %"class.safe_browsing::RTLookupResponse_ThreatInfo"*
  tail call void @_ZN13safe_browsing27RTLookupResponse_ThreatInfoC2EPN6google8protobuf5ArenaE(%"class.safe_browsing::RTLookupResponse_ThreatInfo"* nonnull %11, %"class.google::protobuf::Arena"* null) #15
  %12 = bitcast %"class.std::__1::basic_string"* %4 to i8*
  call void @llvm.lifetime.start.p0i8(i64 24, i8* nonnull %12) #15
  %13 = tail call i8* @_Znwm(i64 48) #16
  %14 = getelementptr inbounds %"class.std::__1::basic_string", %"class.std::__1::basic_string"* %4, i64 0, i32 0, i32 0, i32 0, i32 0, i32 0, i32 0
  store i8* %13, i8** %14, align 8
  %15 = getelementptr inbounds %"class.std::__1::basic_string", %"class.std::__1::basic_string"* %4, i64 0, i32 0, i32 0, i32 0, i32 0, i32 0, i32 1
  %16 = bitcast i64* %15 to <2 x i64>*
  store <2 x i64> <i64 36, i64 -9223372036854775760>, <2 x i64>* %16, align 8
  call void @llvm.memcpy.p0i8.p0i8.i64(i8* nonnull align 1 %13, i8* align 1 getelementptr inbounds ([37 x i8], [37 x i8]* @.str.3, i64 0, i64 0), i64 36, i1 false) #15
  %17 = getelementptr inbounds i8, i8* %13, i64 36
  store i8 0, i8* %17, align 1
  %18 = bitcast %"class.std::__1::basic_string"* %5 to i8*
  call void @llvm.lifetime.start.p0i8(i64 24, i8* nonnull %18) #15
  %19 = bitcast %"class.safe_browsing::RealTimeUrlLookupServiceBase"* %0 to void (%"class.std::__1::basic_string"*, %"class.safe_browsing::RealTimeUrlLookupServiceBase"*)***
  %20 = load void (%"class.std::__1::basic_string"*, %"class.safe_browsing::RealTimeUrlLookupServiceBase"*)**, void (%"class.std::__1::basic_string"*, %"class.safe_browsing::RealTimeUrlLookupServiceBase"*)*** %19, align 8
  %21 = getelementptr inbounds void (%"class.std::__1::basic_string"*, %"class.safe_browsing::RealTimeUrlLookupServiceBase"*)*, void (%"class.std::__1::basic_string"*, %"class.safe_browsing::RealTimeUrlLookupServiceBase"*)** %20, i64 15
  %22 = load void (%"class.std::__1::basic_string"*, %"class.safe_browsing::RealTimeUrlLookupServiceBase"*)*, void (%"class.std::__1::basic_string"*, %"class.safe_browsing::RealTimeUrlLookupServiceBase"*)** %21, align 8
  call void %22(%"class.std::__1::basic_string"* nonnull sret %5, %"class.safe_browsing::RealTimeUrlLookupServiceBase"* %0) #15
  %23 = getelementptr inbounds %"class.safe_browsing::RealTimeUrlLookupServiceBase", %"class.safe_browsing::RealTimeUrlLookupServiceBase"* %0, i64 0, i32 6
  %24 = load %"class.safe_browsing::VerdictCacheManager"*, %"class.safe_browsing::VerdictCacheManager"** %23, align 8
  %25 = icmp ne %"class.safe_browsing::VerdictCacheManager"* %24, null
  call fastcc void @_ZN13safe_browsing12_GLOBAL__N_133RecordBooleanWithAndWithoutSuffixERKNSt3__112basic_stringIcNS1_11char_traitsIcEENS1_9allocatorIcEEEES9_b(%"class.std::__1::basic_string"* nonnull dereferenceable(24) %4, %"class.std::__1::basic_string"* nonnull dereferenceable(24) %5, i1 zeroext %25)
  %26 = bitcast %"class.std::__1::basic_string"* %5 to %"struct.std::__1::basic_string<char, std::__1::char_traits<char>, std::__1::allocator<char> >::__short"*
  %27 = getelementptr inbounds %"struct.std::__1::basic_string<char, std::__1::char_traits<char>, std::__1::allocator<char> >::__short", %"struct.std::__1::basic_string<char, std::__1::char_traits<char>, std::__1::allocator<char> >::__short"* %26, i64 0, i32 1, i32 0
  %28 = load i8, i8* %27, align 1
  %29 = icmp slt i8 %28, 0
  br i1 %29, label %30, label %33

30:                                               ; preds = %2
  %31 = getelementptr inbounds %"class.std::__1::basic_string", %"class.std::__1::basic_string"* %5, i64 0, i32 0, i32 0, i32 0, i32 0, i32 0, i32 0
  %32 = load i8*, i8** %31, align 8
  call void @_ZdlPv(i8* %32) #16
  br label %33

33:                                               ; preds = %2, %30
  call void @llvm.lifetime.end.p0i8(i64 24, i8* nonnull %18) #15
  %34 = bitcast %"class.std::__1::basic_string"* %4 to %"struct.std::__1::basic_string<char, std::__1::char_traits<char>, std::__1::allocator<char> >::__short"*
  %35 = getelementptr inbounds %"struct.std::__1::basic_string<char, std::__1::char_traits<char>, std::__1::allocator<char> >::__short", %"struct.std::__1::basic_string<char, std::__1::char_traits<char>, std::__1::allocator<char> >::__short"* %34, i64 0, i32 1, i32 0
  %36 = load i8, i8* %35, align 1
  %37 = icmp slt i8 %36, 0
  br i1 %37, label %38, label %40

38:                                               ; preds = %33
  %39 = load i8*, i8** %14, align 8
  call void @_ZdlPv(i8* %39) #16
  br label %40

40:                                               ; preds = %33, %38
  call void @llvm.lifetime.end.p0i8(i64 24, i8* nonnull %12) #15
  %41 = call i64 @_ZN4base9TimeTicks3NowEv() #15
  %42 = load %"class.safe_browsing::VerdictCacheManager"*, %"class.safe_browsing::VerdictCacheManager"** %23, align 8
  %43 = icmp eq %"class.safe_browsing::VerdictCacheManager"* %42, null
  br i1 %43, label %46, label %44

44:                                               ; preds = %40
  %45 = call i32 @_ZN13safe_browsing19VerdictCacheManager27GetCachedRealTimeUrlVerdictERK4GURLPNS_27RTLookupResponse_ThreatInfoE(%"class.safe_browsing::VerdictCacheManager"* nonnull %42, %class.GURL* dereferenceable(120) %1, %"class.safe_browsing::RTLookupResponse_ThreatInfo"* nonnull %11) #15
  br label %46

46:                                               ; preds = %40, %44
  %47 = phi i32 [ %45, %44 ], [ 0, %40 ]
  %48 = bitcast %"class.std::__1::basic_string"* %6 to i8*
  call void @llvm.lifetime.start.p0i8(i64 24, i8* nonnull %48) #15
  %49 = call i8* @_Znwm(i64 32) #16
  %50 = getelementptr inbounds %"class.std::__1::basic_string", %"class.std::__1::basic_string"* %6, i64 0, i32 0, i32 0, i32 0, i32 0, i32 0, i32 0
  store i8* %49, i8** %50, align 8
  %51 = getelementptr inbounds %"class.std::__1::basic_string", %"class.std::__1::basic_string"* %6, i64 0, i32 0, i32 0, i32 0, i32 0, i32 0, i32 1
  %52 = bitcast i64* %51 to <2 x i64>*
  store <2 x i64> <i64 30, i64 -9223372036854775776>, <2 x i64>* %52, align 8
  call void @llvm.memcpy.p0i8.p0i8.i64(i8* nonnull align 1 %49, i8* align 1 getelementptr inbounds ([31 x i8], [31 x i8]* @.str.4, i64 0, i64 0), i64 30, i1 false) #15
  %53 = getelementptr inbounds i8, i8* %49, i64 30
  store i8 0, i8* %53, align 1
  %54 = bitcast %"class.std::__1::basic_string"* %7 to i8*
  call void @llvm.lifetime.start.p0i8(i64 24, i8* nonnull %54) #15
  %55 = load void (%"class.std::__1::basic_string"*, %"class.safe_browsing::RealTimeUrlLookupServiceBase"*)**, void (%"class.std::__1::basic_string"*, %"class.safe_browsing::RealTimeUrlLookupServiceBase"*)*** %19, align 8
  %56 = getelementptr inbounds void (%"class.std::__1::basic_string"*, %"class.safe_browsing::RealTimeUrlLookupServiceBase"*)*, void (%"class.std::__1::basic_string"*, %"class.safe_browsing::RealTimeUrlLookupServiceBase"*)** %55, i64 15
  %57 = load void (%"class.std::__1::basic_string"*, %"class.safe_browsing::RealTimeUrlLookupServiceBase"*)*, void (%"class.std::__1::basic_string"*, %"class.safe_browsing::RealTimeUrlLookupServiceBase"*)** %56, align 8
  call void %57(%"class.std::__1::basic_string"* nonnull sret %7, %"class.safe_browsing::RealTimeUrlLookupServiceBase"* %0) #15
  call void @_ZN4base18UmaHistogramSparseERKNSt3__112basic_stringIcNS0_11char_traitsIcEENS0_9allocatorIcEEEEi(%"class.std::__1::basic_string"* nonnull dereferenceable(24) %6, i32 %47) #15
  %58 = bitcast %"class.std::__1::basic_string"* %3 to i8*
  call void @llvm.lifetime.start.p0i8(i64 24, i8* nonnull %58) #15
  %59 = getelementptr inbounds %"class.std::__1::basic_string", %"class.std::__1::basic_string"* %3, i64 0, i32 0, i32 0, i32 0, i32 0, i32 0, i32 0
  %60 = getelementptr inbounds %"class.std::__1::basic_string", %"class.std::__1::basic_string"* %3, i64 0, i32 0, i32 0, i32 0, i32 0, i32 0, i32 1
  %61 = getelementptr inbounds %"class.std::__1::basic_string", %"class.std::__1::basic_string"* %3, i64 0, i32 0, i32 0, i32 0, i32 0, i32 0, i32 2
  call void @llvm.memset.p0i8.i64(i8* nonnull align 8 %58, i8 0, i64 24, i1 false) #15, !alias.scope !16
  %62 = bitcast %"class.std::__1::basic_string"* %6 to %"struct.std::__1::basic_string<char, std::__1::char_traits<char>, std::__1::allocator<char> >::__short"*
  %63 = getelementptr inbounds %"struct.std::__1::basic_string<char, std::__1::char_traits<char>, std::__1::allocator<char> >::__short", %"struct.std::__1::basic_string<char, std::__1::char_traits<char>, std::__1::allocator<char> >::__short"* %62, i64 0, i32 1, i32 0
  %64 = load i8, i8* %63, align 1, !noalias !16
  %65 = icmp slt i8 %64, 0
  %66 = load i64, i64* %51, align 8, !noalias !16
  %67 = zext i8 %64 to i64
  %68 = select i1 %65, i64 %66, i64 %67
  %69 = bitcast %"class.std::__1::basic_string"* %7 to %"struct.std::__1::basic_string<char, std::__1::char_traits<char>, std::__1::allocator<char> >::__short"*
  %70 = getelementptr inbounds %"struct.std::__1::basic_string<char, std::__1::char_traits<char>, std::__1::allocator<char> >::__short", %"struct.std::__1::basic_string<char, std::__1::char_traits<char>, std::__1::allocator<char> >::__short"* %69, i64 0, i32 1, i32 0
  %71 = load i8, i8* %70, align 1, !noalias !16
  %72 = icmp slt i8 %71, 0
  %73 = getelementptr inbounds %"class.std::__1::basic_string", %"class.std::__1::basic_string"* %7, i64 0, i32 0, i32 0, i32 0, i32 0, i32 0, i32 1
  %74 = load i64, i64* %73, align 8, !noalias !16
  %75 = zext i8 %71 to i64
  %76 = select i1 %72, i64 %74, i64 %75
  %77 = load i8*, i8** %50, align 8, !noalias !16
  %78 = select i1 %65, i8* %77, i8* %48
  %79 = add i64 %76, %68
  %80 = icmp ugt i64 %79, -17
  br i1 %80, label %81, label %83

81:                                               ; preds = %46
  %82 = bitcast %"class.std::__1::basic_string"* %3 to %"class.std::__1::__basic_string_common"*
  call void @_ZNKSt3__121__basic_string_commonILb1EE20__throw_length_errorEv(%"class.std::__1::__basic_string_common"* nonnull %82) #17
  unreachable

83:                                               ; preds = %46
  %84 = icmp ult i64 %79, 23
  br i1 %84, label %85, label %89

85:                                               ; preds = %83
  %86 = trunc i64 %68 to i8
  %87 = bitcast %"class.std::__1::basic_string"* %3 to %"struct.std::__1::basic_string<char, std::__1::char_traits<char>, std::__1::allocator<char> >::__short"*
  %88 = getelementptr inbounds %"struct.std::__1::basic_string<char, std::__1::char_traits<char>, std::__1::allocator<char> >::__short", %"struct.std::__1::basic_string<char, std::__1::char_traits<char>, std::__1::allocator<char> >::__short"* %87, i64 0, i32 1, i32 0
  store i8 %86, i8* %88, align 1, !alias.scope !16
  br label %94

89:                                               ; preds = %83
  %90 = add nuw i64 %79, 16
  %91 = and i64 %90, -16
  %92 = call i8* @_Znwm(i64 %91) #16
  store i8* %92, i8** %59, align 8, !alias.scope !16
  %93 = or i64 %91, -9223372036854775808
  store i64 %93, i64* %61, align 8, !alias.scope !16
  store i64 %68, i64* %60, align 8, !alias.scope !16
  br label %94

94:                                               ; preds = %89, %85
  %95 = phi i8* [ %58, %85 ], [ %92, %89 ]
  %96 = icmp eq i64 %68, 0
  br i1 %96, label %98, label %97

97:                                               ; preds = %94
  call void @llvm.memcpy.p0i8.p0i8.i64(i8* nonnull align 1 %95, i8* align 1 %78, i64 %68, i1 false) #15
  br label %98

98:                                               ; preds = %97, %94
  %99 = getelementptr inbounds i8, i8* %95, i64 %68
  store i8 0, i8* %99, align 1
  %100 = getelementptr inbounds %"class.std::__1::basic_string", %"class.std::__1::basic_string"* %7, i64 0, i32 0, i32 0, i32 0, i32 0, i32 0, i32 0
  %101 = load i8*, i8** %100, align 8, !noalias !16
  %102 = select i1 %72, i8* %101, i8* %54
  %103 = call dereferenceable(24) %"class.std::__1::basic_string"* @_ZNSt3__112basic_stringIcNS_11char_traitsIcEENS_9allocatorIcEEE6appendEPKcm(%"class.std::__1::basic_string"* nonnull %3, i8* %102, i64 %76) #15
  call void @_ZN4base18UmaHistogramSparseERKNSt3__112basic_stringIcNS0_11char_traitsIcEENS0_9allocatorIcEEEEi(%"class.std::__1::basic_string"* nonnull dereferenceable(24) %3, i32 %47) #15
  %104 = bitcast %"class.std::__1::basic_string"* %3 to %"struct.std::__1::basic_string<char, std::__1::char_traits<char>, std::__1::allocator<char> >::__short"*
  %105 = getelementptr inbounds %"struct.std::__1::basic_string<char, std::__1::char_traits<char>, std::__1::allocator<char> >::__short", %"struct.std::__1::basic_string<char, std::__1::char_traits<char>, std::__1::allocator<char> >::__short"* %104, i64 0, i32 1, i32 0
  %106 = load i8, i8* %105, align 1
  %107 = icmp slt i8 %106, 0
  br i1 %107, label %108, label %110

108:                                              ; preds = %98
  %109 = load i8*, i8** %59, align 8
  call void @_ZdlPv(i8* %109) #16
  br label %110

110:                                              ; preds = %98, %108
  call void @llvm.lifetime.end.p0i8(i64 24, i8* nonnull %58) #15
  %111 = load i8, i8* %70, align 1
  %112 = icmp slt i8 %111, 0
  br i1 %112, label %113, label %115

113:                                              ; preds = %110
  %114 = load i8*, i8** %100, align 8
  call void @_ZdlPv(i8* %114) #16
  br label %115

115:                                              ; preds = %110, %113
  call void @llvm.lifetime.end.p0i8(i64 24, i8* nonnull %54) #15
  %116 = load i8, i8* %63, align 1
  %117 = icmp slt i8 %116, 0
  br i1 %117, label %118, label %120

118:                                              ; preds = %115
  %119 = load i8*, i8** %50, align 8
  call void @_ZdlPv(i8* %119) #16
  br label %120

120:                                              ; preds = %115, %118
  call void @llvm.lifetime.end.p0i8(i64 24, i8* nonnull %48) #15
  %121 = bitcast %"class.std::__1::basic_string"* %8 to i8*
  call void @llvm.lifetime.start.p0i8(i64 24, i8* nonnull %121) #15
  %122 = call i8* @_Znwm(i64 32) #16
  %123 = getelementptr inbounds %"class.std::__1::basic_string", %"class.std::__1::basic_string"* %8, i64 0, i32 0, i32 0, i32 0, i32 0, i32 0, i32 0
  store i8* %122, i8** %123, align 8
  %124 = getelementptr inbounds %"class.std::__1::basic_string", %"class.std::__1::basic_string"* %8, i64 0, i32 0, i32 0, i32 0, i32 0, i32 0, i32 1
  %125 = bitcast i64* %124 to <2 x i64>*
  store <2 x i64> <i64 29, i64 -9223372036854775776>, <2 x i64>* %125, align 8
  call void @llvm.memcpy.p0i8.p0i8.i64(i8* nonnull align 1 %122, i8* align 1 getelementptr inbounds ([30 x i8], [30 x i8]* @.str.5, i64 0, i64 0), i64 29, i1 false) #15
  %126 = getelementptr inbounds i8, i8* %122, i64 29
  store i8 0, i8* %126, align 1
  %127 = bitcast %"class.std::__1::basic_string"* %9 to i8*
  call void @llvm.lifetime.start.p0i8(i64 24, i8* nonnull %127) #15
  %128 = load void (%"class.std::__1::basic_string"*, %"class.safe_browsing::RealTimeUrlLookupServiceBase"*)**, void (%"class.std::__1::basic_string"*, %"class.safe_browsing::RealTimeUrlLookupServiceBase"*)*** %19, align 8
  %129 = getelementptr inbounds void (%"class.std::__1::basic_string"*, %"class.safe_browsing::RealTimeUrlLookupServiceBase"*)*, void (%"class.std::__1::basic_string"*, %"class.safe_browsing::RealTimeUrlLookupServiceBase"*)** %128, i64 15
  %130 = load void (%"class.std::__1::basic_string"*, %"class.safe_browsing::RealTimeUrlLookupServiceBase"*)*, void (%"class.std::__1::basic_string"*, %"class.safe_browsing::RealTimeUrlLookupServiceBase"*)** %129, align 8
  call void %130(%"class.std::__1::basic_string"* nonnull sret %9, %"class.safe_browsing::RealTimeUrlLookupServiceBase"* %0) #15
  %131 = call i64 @_ZN4base9TimeTicks3NowEv() #15
  %132 = sub nsw i64 %131, %41
  call fastcc void @_ZN13safe_browsing12_GLOBAL__N_131RecordTimesWithAndWithoutSuffixERKNSt3__112basic_stringIcNS1_11char_traitsIcEENS1_9allocatorIcEEEES9_N4base9TimeDeltaE(%"class.std::__1::basic_string"* nonnull dereferenceable(24) %8, %"class.std::__1::basic_string"* nonnull dereferenceable(24) %9, i64 %132)
  %133 = bitcast %"class.std::__1::basic_string"* %9 to %"struct.std::__1::basic_string<char, std::__1::char_traits<char>, std::__1::allocator<char> >::__short"*
  %134 = getelementptr inbounds %"struct.std::__1::basic_string<char, std::__1::char_traits<char>, std::__1::allocator<char> >::__short", %"struct.std::__1::basic_string<char, std::__1::char_traits<char>, std::__1::allocator<char> >::__short"* %133, i64 0, i32 1, i32 0
  %135 = load i8, i8* %134, align 1
  %136 = icmp slt i8 %135, 0
  br i1 %136, label %137, label %140

137:                                              ; preds = %120
  %138 = getelementptr inbounds %"class.std::__1::basic_string", %"class.std::__1::basic_string"* %9, i64 0, i32 0, i32 0, i32 0, i32 0, i32 0, i32 0
  %139 = load i8*, i8** %138, align 8
  call void @_ZdlPv(i8* %139) #16
  br label %140

140:                                              ; preds = %120, %137
  call void @llvm.lifetime.end.p0i8(i64 24, i8* nonnull %127) #15
  %141 = bitcast %"class.std::__1::basic_string"* %8 to %"struct.std::__1::basic_string<char, std::__1::char_traits<char>, std::__1::allocator<char> >::__short"*
  %142 = getelementptr inbounds %"struct.std::__1::basic_string<char, std::__1::char_traits<char>, std::__1::allocator<char> >::__short", %"struct.std::__1::basic_string<char, std::__1::char_traits<char>, std::__1::allocator<char> >::__short"* %141, i64 0, i32 1, i32 0
  %143 = load i8, i8* %142, align 1
  %144 = icmp slt i8 %143, 0
  br i1 %144, label %145, label %147

145:                                              ; preds = %140
  %146 = load i8*, i8** %123, align 8
  call void @_ZdlPv(i8* %146) #16
  br label %147

147:                                              ; preds = %140, %145
  call void @llvm.lifetime.end.p0i8(i64 24, i8* nonnull %121) #15
  switch i32 %47, label %203 [
    i32 100, label %148
    i32 1, label %148
  ]

148:                                              ; preds = %147, %147
  %149 = call i8* @_Znwm(i64 48) #16
  %150 = bitcast i8* %149 to %"class.safe_browsing::RTLookupResponse"*
  call void @_ZN13safe_browsing16RTLookupResponseC2EPN6google8protobuf5ArenaE(%"class.safe_browsing::RTLookupResponse"* nonnull %150, %"class.google::protobuf::Arena"* null) #15
  %151 = getelementptr inbounds i8, i8* %149, i64 16
  %152 = bitcast i8* %151 to %"class.google::protobuf::internal::RepeatedPtrFieldBase"*
  %153 = getelementptr inbounds i8, i8* %149, i64 32
  %154 = bitcast i8* %153 to %"struct.google::protobuf::internal::RepeatedPtrFieldBase::Rep"**
  %155 = load %"struct.google::protobuf::internal::RepeatedPtrFieldBase::Rep"*, %"struct.google::protobuf::internal::RepeatedPtrFieldBase::Rep"** %154, align 8
  %156 = icmp eq %"struct.google::protobuf::internal::RepeatedPtrFieldBase::Rep"* %155, null
  br i1 %156, label %157, label %161

157:                                              ; preds = %148
  %158 = getelementptr inbounds i8, i8* %149, i64 28
  %159 = bitcast i8* %158 to i32*
  %160 = load i32, i32* %159, align 4
  br label %179

161:                                              ; preds = %148
  %162 = getelementptr inbounds i8, i8* %149, i64 24
  %163 = bitcast i8* %162 to i32*
  %164 = load i32, i32* %163, align 8
  %165 = getelementptr inbounds %"struct.google::protobuf::internal::RepeatedPtrFieldBase::Rep", %"struct.google::protobuf::internal::RepeatedPtrFieldBase::Rep"* %155, i64 0, i32 0
  %166 = load i32, i32* %165, align 8
  %167 = icmp slt i32 %164, %166
  br i1 %167, label %168, label %174

168:                                              ; preds = %161
  %169 = add nsw i32 %164, 1
  store i32 %169, i32* %163, align 8
  %170 = sext i32 %164 to i64
  %171 = getelementptr inbounds %"struct.google::protobuf::internal::RepeatedPtrFieldBase::Rep", %"struct.google::protobuf::internal::RepeatedPtrFieldBase::Rep"* %155, i64 0, i32 1, i64 %170
  %172 = bitcast i8** %171 to %"class.safe_browsing::RTLookupResponse_ThreatInfo"**
  %173 = load %"class.safe_browsing::RTLookupResponse_ThreatInfo"*, %"class.safe_browsing::RTLookupResponse_ThreatInfo"** %172, align 8
  br label %201

174:                                              ; preds = %161
  %175 = getelementptr inbounds i8, i8* %149, i64 28
  %176 = bitcast i8* %175 to i32*
  %177 = load i32, i32* %176, align 4
  %178 = icmp eq i32 %166, %177
  br i1 %178, label %179, label %185

179:                                              ; preds = %174, %157
  %180 = phi i32 [ %160, %157 ], [ %166, %174 ]
  %181 = add nsw i32 %180, 1
  call void @_ZN6google8protobuf8internal20RepeatedPtrFieldBase7ReserveEi(%"class.google::protobuf::internal::RepeatedPtrFieldBase"* %152, i32 %181) #15
  %182 = load %"struct.google::protobuf::internal::RepeatedPtrFieldBase::Rep"*, %"struct.google::protobuf::internal::RepeatedPtrFieldBase::Rep"** %154, align 8
  %183 = getelementptr inbounds %"struct.google::protobuf::internal::RepeatedPtrFieldBase::Rep", %"struct.google::protobuf::internal::RepeatedPtrFieldBase::Rep"* %182, i64 0, i32 0
  %184 = load i32, i32* %183, align 8
  br label %185

185:                                              ; preds = %179, %174
  %186 = phi i32 [ %184, %179 ], [ %166, %174 ]
  %187 = phi %"struct.google::protobuf::internal::RepeatedPtrFieldBase::Rep"* [ %182, %179 ], [ %155, %174 ]
  %188 = getelementptr inbounds %"struct.google::protobuf::internal::RepeatedPtrFieldBase::Rep", %"struct.google::protobuf::internal::RepeatedPtrFieldBase::Rep"* %187, i64 0, i32 0
  %189 = add nsw i32 %186, 1
  store i32 %189, i32* %188, align 8
  %190 = bitcast i8* %151 to %"class.google::protobuf::Arena"**
  %191 = load %"class.google::protobuf::Arena"*, %"class.google::protobuf::Arena"** %190, align 8
  %192 = call %"class.safe_browsing::RTLookupResponse_ThreatInfo"* @_ZN6google8protobuf5Arena18CreateMaybeMessageIN13safe_browsing27RTLookupResponse_ThreatInfoEJEEEPT_PS1_DpOT0_(%"class.google::protobuf::Arena"* %191) #15
  %193 = load %"struct.google::protobuf::internal::RepeatedPtrFieldBase::Rep"*, %"struct.google::protobuf::internal::RepeatedPtrFieldBase::Rep"** %154, align 8
  %194 = getelementptr inbounds i8, i8* %149, i64 24
  %195 = bitcast i8* %194 to i32*
  %196 = load i32, i32* %195, align 8
  %197 = add nsw i32 %196, 1
  store i32 %197, i32* %195, align 8
  %198 = sext i32 %196 to i64
  %199 = getelementptr inbounds %"struct.google::protobuf::internal::RepeatedPtrFieldBase::Rep", %"struct.google::protobuf::internal::RepeatedPtrFieldBase::Rep"* %193, i64 0, i32 1, i64 %198
  %200 = bitcast i8** %199 to %"class.safe_browsing::RTLookupResponse_ThreatInfo"**
  store %"class.safe_browsing::RTLookupResponse_ThreatInfo"* %192, %"class.safe_browsing::RTLookupResponse_ThreatInfo"** %200, align 8
  br label %201

201:                                              ; preds = %168, %185
  %202 = phi %"class.safe_browsing::RTLookupResponse_ThreatInfo"* [ %173, %168 ], [ %192, %185 ]
  call void @_ZN13safe_browsing27RTLookupResponse_ThreatInfo8CopyFromERKS0_(%"class.safe_browsing::RTLookupResponse_ThreatInfo"* %202, %"class.safe_browsing::RTLookupResponse_ThreatInfo"* nonnull dereferenceable(64) %11) #15
  br label %203

203:                                              ; preds = %147, %201
  %204 = phi %"class.safe_browsing::RTLookupResponse"* [ %150, %201 ], [ null, %147 ]
  %205 = bitcast i8* %10 to void (%"class.safe_browsing::RTLookupResponse_ThreatInfo"*)***
  %206 = load void (%"class.safe_browsing::RTLookupResponse_ThreatInfo"*)**, void (%"class.safe_browsing::RTLookupResponse_ThreatInfo"*)*** %205, align 8
  %207 = getelementptr inbounds void (%"class.safe_browsing::RTLookupResponse_ThreatInfo"*)*, void (%"class.safe_browsing::RTLookupResponse_ThreatInfo"*)** %206, i64 1
  %208 = load void (%"class.safe_browsing::RTLookupResponse_ThreatInfo"*)*, void (%"class.safe_browsing::RTLookupResponse_ThreatInfo"*)** %207, align 8
  call void %208(%"class.safe_browsing::RTLookupResponse_ThreatInfo"* nonnull %11) #15
  ret %"class.safe_browsing::RTLookupResponse"* %204
}

declare i64 @_ZN4base9TimeTicks3NowEv() local_unnamed_addr #1

declare i32 @_ZN13safe_browsing19VerdictCacheManager27GetCachedRealTimeUrlVerdictERK4GURLPNS_27RTLookupResponse_ThreatInfoE(%"class.safe_browsing::VerdictCacheManager"*, %class.GURL* dereferenceable(120), %"class.safe_browsing::RTLookupResponse_ThreatInfo"*) local_unnamed_addr #1

; Function Attrs: nounwind ssp uwtable
define internal fastcc void @_ZN13safe_browsing12_GLOBAL__N_131RecordTimesWithAndWithoutSuffixERKNSt3__112basic_stringIcNS1_11char_traitsIcEENS1_9allocatorIcEEEES9_N4base9TimeDeltaE(%"class.std::__1::basic_string"* dereferenceable(24), %"class.std::__1::basic_string"* dereferenceable(24), i64) unnamed_addr #0 {
  %4 = alloca %"class.std::__1::basic_string", align 8
  tail call void @_ZN4base17UmaHistogramTimesERKNSt3__112basic_stringIcNS0_11char_traitsIcEENS0_9allocatorIcEEEENS_9TimeDeltaE(%"class.std::__1::basic_string"* dereferenceable(24) %0, i64 %2) #15
  %5 = bitcast %"class.std::__1::basic_string"* %4 to i8*
  call void @llvm.lifetime.start.p0i8(i64 24, i8* nonnull %5) #15
  %6 = getelementptr inbounds %"class.std::__1::basic_string", %"class.std::__1::basic_string"* %4, i64 0, i32 0, i32 0, i32 0, i32 0, i32 0, i32 0
  %7 = getelementptr inbounds %"class.std::__1::basic_string", %"class.std::__1::basic_string"* %4, i64 0, i32 0, i32 0, i32 0, i32 0, i32 0, i32 1
  %8 = getelementptr inbounds %"class.std::__1::basic_string", %"class.std::__1::basic_string"* %4, i64 0, i32 0, i32 0, i32 0, i32 0, i32 0, i32 2
  call void @llvm.memset.p0i8.i64(i8* nonnull align 8 %5, i8 0, i64 24, i1 false) #15, !alias.scope !19
  %9 = bitcast %"class.std::__1::basic_string"* %0 to %"struct.std::__1::basic_string<char, std::__1::char_traits<char>, std::__1::allocator<char> >::__short"*
  %10 = getelementptr inbounds %"struct.std::__1::basic_string<char, std::__1::char_traits<char>, std::__1::allocator<char> >::__short", %"struct.std::__1::basic_string<char, std::__1::char_traits<char>, std::__1::allocator<char> >::__short"* %9, i64 0, i32 1, i32 0
  %11 = load i8, i8* %10, align 1, !noalias !19
  %12 = icmp slt i8 %11, 0
  %13 = getelementptr inbounds %"class.std::__1::basic_string", %"class.std::__1::basic_string"* %0, i64 0, i32 0, i32 0, i32 0, i32 0, i32 0, i32 1
  %14 = load i64, i64* %13, align 8, !noalias !19
  %15 = zext i8 %11 to i64
  %16 = select i1 %12, i64 %14, i64 %15
  %17 = bitcast %"class.std::__1::basic_string"* %1 to %"struct.std::__1::basic_string<char, std::__1::char_traits<char>, std::__1::allocator<char> >::__short"*
  %18 = getelementptr inbounds %"struct.std::__1::basic_string<char, std::__1::char_traits<char>, std::__1::allocator<char> >::__short", %"struct.std::__1::basic_string<char, std::__1::char_traits<char>, std::__1::allocator<char> >::__short"* %17, i64 0, i32 1, i32 0
  %19 = load i8, i8* %18, align 1, !noalias !19
  %20 = icmp slt i8 %19, 0
  %21 = getelementptr inbounds %"class.std::__1::basic_string", %"class.std::__1::basic_string"* %1, i64 0, i32 0, i32 0, i32 0, i32 0, i32 0, i32 1
  %22 = load i64, i64* %21, align 8, !noalias !19
  %23 = zext i8 %19 to i64
  %24 = select i1 %20, i64 %22, i64 %23
  %25 = getelementptr inbounds %"class.std::__1::basic_string", %"class.std::__1::basic_string"* %0, i64 0, i32 0, i32 0, i32 0, i32 0, i32 0, i32 0
  %26 = load i8*, i8** %25, align 8, !noalias !19
  %27 = bitcast %"class.std::__1::basic_string"* %0 to i8*
  %28 = select i1 %12, i8* %26, i8* %27
  %29 = add i64 %24, %16
  %30 = icmp ugt i64 %29, -17
  br i1 %30, label %31, label %33

31:                                               ; preds = %3
  %32 = bitcast %"class.std::__1::basic_string"* %4 to %"class.std::__1::__basic_string_common"*
  call void @_ZNKSt3__121__basic_string_commonILb1EE20__throw_length_errorEv(%"class.std::__1::__basic_string_common"* nonnull %32) #17
  unreachable

33:                                               ; preds = %3
  %34 = icmp ult i64 %29, 23
  br i1 %34, label %35, label %39

35:                                               ; preds = %33
  %36 = trunc i64 %16 to i8
  %37 = bitcast %"class.std::__1::basic_string"* %4 to %"struct.std::__1::basic_string<char, std::__1::char_traits<char>, std::__1::allocator<char> >::__short"*
  %38 = getelementptr inbounds %"struct.std::__1::basic_string<char, std::__1::char_traits<char>, std::__1::allocator<char> >::__short", %"struct.std::__1::basic_string<char, std::__1::char_traits<char>, std::__1::allocator<char> >::__short"* %37, i64 0, i32 1, i32 0
  store i8 %36, i8* %38, align 1, !alias.scope !19
  br label %44

39:                                               ; preds = %33
  %40 = add nuw i64 %29, 16
  %41 = and i64 %40, -16
  %42 = tail call i8* @_Znwm(i64 %41) #16
  store i8* %42, i8** %6, align 8, !alias.scope !19
  %43 = or i64 %41, -9223372036854775808
  store i64 %43, i64* %8, align 8, !alias.scope !19
  store i64 %16, i64* %7, align 8, !alias.scope !19
  br label %44

44:                                               ; preds = %39, %35
  %45 = phi i8* [ %5, %35 ], [ %42, %39 ]
  %46 = icmp eq i64 %16, 0
  br i1 %46, label %48, label %47

47:                                               ; preds = %44
  call void @llvm.memcpy.p0i8.p0i8.i64(i8* nonnull align 1 %45, i8* align 1 %28, i64 %16, i1 false) #15
  br label %48

48:                                               ; preds = %44, %47
  %49 = getelementptr inbounds i8, i8* %45, i64 %16
  store i8 0, i8* %49, align 1
  %50 = getelementptr inbounds %"class.std::__1::basic_string", %"class.std::__1::basic_string"* %1, i64 0, i32 0, i32 0, i32 0, i32 0, i32 0, i32 0
  %51 = load i8*, i8** %50, align 8, !noalias !19
  %52 = bitcast %"class.std::__1::basic_string"* %1 to i8*
  %53 = select i1 %20, i8* %51, i8* %52
  %54 = call dereferenceable(24) %"class.std::__1::basic_string"* @_ZNSt3__112basic_stringIcNS_11char_traitsIcEENS_9allocatorIcEEE6appendEPKcm(%"class.std::__1::basic_string"* nonnull %4, i8* %53, i64 %24) #15
  call void @_ZN4base17UmaHistogramTimesERKNSt3__112basic_stringIcNS0_11char_traitsIcEENS0_9allocatorIcEEEENS_9TimeDeltaE(%"class.std::__1::basic_string"* nonnull dereferenceable(24) %4, i64 %2) #15
  %55 = bitcast %"class.std::__1::basic_string"* %4 to %"struct.std::__1::basic_string<char, std::__1::char_traits<char>, std::__1::allocator<char> >::__short"*
  %56 = getelementptr inbounds %"struct.std::__1::basic_string<char, std::__1::char_traits<char>, std::__1::allocator<char> >::__short", %"struct.std::__1::basic_string<char, std::__1::char_traits<char>, std::__1::allocator<char> >::__short"* %55, i64 0, i32 1, i32 0
  %57 = load i8, i8* %56, align 1
  %58 = icmp slt i8 %57, 0
  br i1 %58, label %59, label %61

59:                                               ; preds = %48
  %60 = load i8*, i8** %6, align 8
  call void @_ZdlPv(i8* %60) #16
  br label %61

61:                                               ; preds = %48, %59
  call void @llvm.lifetime.end.p0i8(i64 24, i8* nonnull %5) #15
  ret void
}

; Function Attrs: argmemonly nounwind
declare void @llvm.memcpy.p0i8.p0i8.i64(i8* nocapture writeonly, i8* nocapture readonly, i64, i1 immarg) #6

; Function Attrs: nounwind ssp uwtable
define hidden void @_ZN13safe_browsing28RealTimeUrlLookupServiceBase28MayBeCacheRealTimeUrlVerdictERK4GURLNS_16RTLookupResponseE(%"class.safe_browsing::RealTimeUrlLookupServiceBase"* nocapture readonly, %class.GURL* dereferenceable(120), %"class.safe_browsing::RTLookupResponse"*) local_unnamed_addr #0 align 2 {
  %4 = alloca %"class.base::Location", align 8
  %5 = alloca %"class.base::OnceCallback", align 8
  %6 = getelementptr inbounds %"class.safe_browsing::RTLookupResponse", %"class.safe_browsing::RTLookupResponse"* %2, i64 0, i32 1, i32 0, i32 1
  %7 = load i32, i32* %6, align 8
  %8 = icmp sgt i32 %7, 0
  br i1 %8, label %9, label %42

9:                                                ; preds = %3
  %10 = tail call %"class.base::SingleThreadTaskRunner"* @_ZN13safe_browsing13GetTaskRunnerENS_8ThreadIDE(i32 0) #15
  %11 = bitcast %"class.base::SingleThreadTaskRunner"* %10 to %"class.base::TaskRunner"*
  %12 = bitcast %"class.base::Location"* %4 to i8*
  call void @llvm.lifetime.start.p0i8(i64 32, i8* nonnull %12) #15
  call void @_ZN4base8Location7CurrentEPKcS2_i(%"class.base::Location"* nonnull sret %4, i8* getelementptr inbounds ([29 x i8], [29 x i8]* @.str.6, i64 0, i64 0), i8* getelementptr inbounds ([72 x i8], [72 x i8]* @.str.1, i64 0, i64 0), i32 300) #15
  %13 = getelementptr inbounds %"class.safe_browsing::RealTimeUrlLookupServiceBase", %"class.safe_browsing::RealTimeUrlLookupServiceBase"* %0, i64 0, i32 6
  %14 = bitcast %"class.safe_browsing::VerdictCacheManager"** %13 to i64*
  %15 = load i64, i64* %14, align 8
  %16 = call i64 @_ZN4base4Time3NowEv() #15
  %17 = call i8* @_Znwm(i64 240) #16, !noalias !22
  %18 = bitcast i8* %17 to %"class.base::internal::BindStateBase"*
  call void @_ZN4base8internal13BindStateBaseC2EPFvvEPFvPKS1_E(%"class.base::internal::BindStateBase"* nonnull %18, void ()* bitcast (void (%"class.base::internal::BindStateBase"*)* @_ZN4base8internal7InvokerINS0_9BindStateIMN13safe_browsing19VerdictCacheManagerEFvRK4GURLRKNS3_16RTLookupResponseERKNS_4TimeEbEJNS0_17UnretainedWrapperIS4_EES5_S8_SB_bEEEFvvEE7RunOnceEPNS0_13BindStateBaseE to void ()*), void (%"class.base::internal::BindStateBase"*)* nonnull @_ZN4base8internal9BindStateIMN13safe_browsing19VerdictCacheManagerEFvRK4GURLRKNS2_16RTLookupResponseERKNS_4TimeEbEJNS0_17UnretainedWrapperIS3_EES4_S7_SA_bEE7DestroyEPKNS0_13BindStateBaseE) #15, !noalias !22
  %19 = getelementptr inbounds i8, i8* %17, i64 32
  %20 = bitcast i8* %19 to <2 x i64>*
  store <2 x i64> <i64 ptrtoint (void (%"class.safe_browsing::VerdictCacheManager"*, %class.GURL*, %"class.safe_browsing::RTLookupResponse"*, %"class.base::Time"*, i1)* @_ZN13safe_browsing19VerdictCacheManager23CacheRealTimeUrlVerdictERK4GURLRKNS_16RTLookupResponseERKN4base4TimeEb to i64), i64 0>, <2 x i64>* %20, align 8, !noalias !22
  %21 = getelementptr inbounds i8, i8* %17, i64 48
  %22 = bitcast i8* %21 to i64*
  store i64 %15, i64* %22, align 8, !noalias !22
  %23 = getelementptr inbounds i8, i8* %17, i64 56
  %24 = bitcast i8* %23 to %class.GURL*
  call void @_ZN4GURLC1ERKS_(%class.GURL* %24, %class.GURL* dereferenceable(120) %1) #15, !noalias !22
  %25 = getelementptr inbounds i8, i8* %17, i64 176
  %26 = bitcast i8* %25 to %"class.safe_browsing::RTLookupResponse"*
  call void @_ZN13safe_browsing16RTLookupResponseC1ERKS0_(%"class.safe_browsing::RTLookupResponse"* %26, %"class.safe_browsing::RTLookupResponse"* dereferenceable(48) %2) #15, !noalias !22
  %27 = getelementptr inbounds i8, i8* %17, i64 224
  %28 = bitcast i8* %27 to i64*
  store i64 %16, i64* %28, align 8, !noalias !22
  %29 = getelementptr inbounds i8, i8* %17, i64 232
  store i8 0, i8* %29, align 1, !noalias !22
  %30 = bitcast %"class.base::OnceCallback"* %5 to i8**
  store i8* %17, i8** %30, align 8, !alias.scope !22
  %31 = call zeroext i1 @_ZN4base10TaskRunner8PostTaskERKNS_8LocationENS_12OnceCallbackIFvvEEE(%"class.base::TaskRunner"* %11, %"class.base::Location"* nonnull dereferenceable(32) %4, %"class.base::OnceCallback"* nonnull %5) #15
  %32 = getelementptr inbounds %"class.base::OnceCallback", %"class.base::OnceCallback"* %5, i64 0, i32 0
  call void @_ZN4base8internal12CallbackBaseD2Ev(%"class.base::internal::CallbackBase"* nonnull %32) #15
  call void @llvm.lifetime.end.p0i8(i64 32, i8* nonnull %12) #15
  %33 = icmp eq %"class.base::SingleThreadTaskRunner"* %10, null
  br i1 %33, label %42, label %34

34:                                               ; preds = %9
  %35 = getelementptr inbounds %"class.base::SingleThreadTaskRunner", %"class.base::SingleThreadTaskRunner"* %10, i64 0, i32 0, i32 0, i32 1
  %36 = getelementptr inbounds %"class.base::RefCountedThreadSafe", %"class.base::RefCountedThreadSafe"* %35, i64 0, i32 0, i32 0, i32 0, i32 0, i32 0, i32 0, i32 0, i32 0
  %37 = atomicrmw sub i32* %36, i32 1 acq_rel
  %38 = icmp eq i32 %37, 1
  br i1 %38, label %39, label %42

39:                                               ; preds = %34
  %40 = getelementptr inbounds %"class.base::RefCountedThreadSafe", %"class.base::RefCountedThreadSafe"* %35, i64 -2
  %41 = bitcast %"class.base::RefCountedThreadSafe"* %40 to %"class.base::TaskRunner"*
  call void @_ZN4base16TaskRunnerTraits8DestructEPKNS_10TaskRunnerE(%"class.base::TaskRunner"* %41) #15
  br label %42

42:                                               ; preds = %39, %34, %9, %3
  ret void
}

declare %"class.base::SingleThreadTaskRunner"* @_ZN13safe_browsing13GetTaskRunnerENS_8ThreadIDE(i32) local_unnamed_addr #1

declare zeroext i1 @_ZN4base10TaskRunner8PostTaskERKNS_8LocationENS_12OnceCallbackIFvvEEE(%"class.base::TaskRunner"*, %"class.base::Location"* dereferenceable(32), %"class.base::OnceCallback"*) local_unnamed_addr #1

declare void @_ZN13safe_browsing19VerdictCacheManager23CacheRealTimeUrlVerdictERK4GURLRKNS_16RTLookupResponseERKN4base4TimeEb(%"class.safe_browsing::VerdictCacheManager"*, %class.GURL* dereferenceable(120), %"class.safe_browsing::RTLookupResponse"* dereferenceable(48), %"class.base::Time"* dereferenceable(8), i1 zeroext) #1

declare i64 @_ZN4base4Time3NowEv() local_unnamed_addr #1

; Function Attrs: nounwind ssp uwtable
define hidden void @_ZN13safe_browsing28RealTimeUrlLookupServiceBase11StartLookupERK4GURLN4base12OnceCallbackIFvNSt3__110unique_ptrINS_15RTLookupRequestENS6_14default_deleteIS8_EEEENS6_12basic_stringIcNS6_11char_traitsIcEENS6_9allocatorIcEEEEEEENS5_IFvbbNS7_INS_16RTLookupResponseENS9_ISK_EEEEEEE(%"class.safe_browsing::RealTimeUrlLookupServiceBase"*, %class.GURL* dereferenceable(120), %"class.base::OnceCallback.169"* nocapture, %"class.base::OnceCallback.122"* nocapture) unnamed_addr #0 align 2 {
  %5 = alloca %"class.logging::CheckError", align 8
  %6 = alloca %"class.base::Location", align 8
  %7 = alloca %"class.base::OnceCallback", align 8
  %8 = alloca %"class.base::OnceCallback.169", align 8
  %9 = alloca %"class.base::OnceCallback.122", align 8
  %10 = alloca %"class.absl::optional.170", align 8
  %11 = alloca %"class.base::OnceCallback.169", align 8
  %12 = alloca %"class.base::OnceCallback.122", align 8
  %13 = tail call %"class.safe_browsing::RTLookupResponse"* @_ZN13safe_browsing28RealTimeUrlLookupServiceBase27GetCachedRealTimeUrlVerdictERK4GURL(%"class.safe_browsing::RealTimeUrlLookupServiceBase"* %0, %class.GURL* dereferenceable(120) %1)
  %14 = icmp eq %"class.safe_browsing::RTLookupResponse"* %13, null
  br i1 %14, label %48, label %15

15:                                               ; preds = %4
  %16 = ptrtoint %"class.safe_browsing::RTLookupResponse"* %13 to i64
  %17 = tail call %"class.base::SingleThreadTaskRunner"* @_ZN13safe_browsing13GetTaskRunnerENS_8ThreadIDE(i32 1) #15
  %18 = bitcast %"class.base::SingleThreadTaskRunner"* %17 to %"class.base::TaskRunner"*
  %19 = bitcast %"class.base::Location"* %6 to i8*
  call void @llvm.lifetime.start.p0i8(i64 32, i8* nonnull %19) #15
  call void @_ZN4base8Location7CurrentEPKcS2_i(%"class.base::Location"* nonnull sret %6, i8* getelementptr inbounds ([12 x i8], [12 x i8]* @.str.7, i64 0, i64 0), i8* getelementptr inbounds ([72 x i8], [72 x i8]* @.str.1, i64 0, i64 0), i32 320) #15
  %20 = call i8* @_Znwm(i64 56) #16, !noalias !27
  %21 = bitcast i8* %20 to %"class.base::internal::BindStateBase"*
  call void @_ZN4base8internal13BindStateBaseC2EPFvvEPFvPKS1_EPFbS5_NS1_21CancellationQueryModeEE(%"class.base::internal::BindStateBase"* nonnull %21, void ()* bitcast (void (%"class.base::internal::BindStateBase"*)* @_ZN4base8internal7InvokerINS0_9BindStateINS_12OnceCallbackIFvbbNSt3__110unique_ptrIN13safe_browsing16RTLookupResponseENS4_14default_deleteIS7_EEEEEEEJbbSA_EEEFvvEE7RunOnceEPNS0_13BindStateBaseE to void ()*), void (%"class.base::internal::BindStateBase"*)* nonnull @_ZN4base8internal9BindStateINS_12OnceCallbackIFvbbNSt3__110unique_ptrIN13safe_browsing16RTLookupResponseENS3_14default_deleteIS6_EEEEEEEJbbS9_EE7DestroyEPKNS0_13BindStateBaseE, i1 (%"class.base::internal::BindStateBase"*, i32)* nonnull @_ZN4base8internal23QueryCancellationTraitsINS0_9BindStateINS_12OnceCallbackIFvbbNSt3__110unique_ptrIN13safe_browsing16RTLookupResponseENS4_14default_deleteIS7_EEEEEEEJbbSA_EEEEEbPKNS0_13BindStateBaseENSE_21CancellationQueryModeE) #15, !noalias !27
  %22 = getelementptr inbounds i8, i8* %20, i64 32
  %23 = getelementptr inbounds %"class.base::OnceCallback.122", %"class.base::OnceCallback.122"* %3, i64 0, i32 0, i32 0, i32 0
  %24 = bitcast %"class.base::OnceCallback.122"* %3 to i64*
  %25 = load i64, i64* %24, align 8, !noalias !27
  %26 = bitcast i8* %22 to i64*
  store i64 %25, i64* %26, align 8, !noalias !27
  store %"class.base::internal::BindStateBase"* null, %"class.base::internal::BindStateBase"** %23, align 8, !noalias !27
  %27 = getelementptr inbounds i8, i8* %20, i64 40
  store i8 1, i8* %27, align 1, !noalias !27
  %28 = getelementptr inbounds i8, i8* %20, i64 41
  store i8 1, i8* %28, align 1, !noalias !27
  %29 = getelementptr inbounds i8, i8* %20, i64 48
  %30 = bitcast i8* %29 to i64*
  store i64 %16, i64* %30, align 8, !noalias !27
  %31 = icmp eq i64 %25, 0
  br i1 %31, label %32, label %35

32:                                               ; preds = %15
  %33 = bitcast %"class.logging::CheckError"* %5 to i8*
  call void @llvm.lifetime.start.p0i8(i64 8, i8* nonnull %33) #15, !noalias !27
  call void @_ZN7logging10CheckError5CheckEPKciS2_(%"class.logging::CheckError"* nonnull sret %5, i8* getelementptr inbounds ([27 x i8], [27 x i8]* @.str.26, i64 0, i64 0), i32 896, i8* getelementptr inbounds ([18 x i8], [18 x i8]* @.str.27, i64 0, i64 0)) #15, !noalias !27
  %34 = call dereferenceable(160) %"class.std::__1::basic_ostream"* @_ZN7logging10CheckError6streamEv(%"class.logging::CheckError"* nonnull %5) #15, !noalias !27
  call void @_ZN7logging10CheckErrorD1Ev(%"class.logging::CheckError"* nonnull %5) #15, !noalias !27
  call void @llvm.lifetime.end.p0i8(i64 8, i8* nonnull %33) #15, !noalias !27
  br label %35

35:                                               ; preds = %15, %32
  %36 = bitcast %"class.base::OnceCallback"* %7 to i8**
  store i8* %20, i8** %36, align 8, !alias.scope !27
  %37 = call zeroext i1 @_ZN4base10TaskRunner8PostTaskERKNS_8LocationENS_12OnceCallbackIFvvEEE(%"class.base::TaskRunner"* %18, %"class.base::Location"* nonnull dereferenceable(32) %6, %"class.base::OnceCallback"* nonnull %7) #15
  %38 = getelementptr inbounds %"class.base::OnceCallback", %"class.base::OnceCallback"* %7, i64 0, i32 0
  call void @_ZN4base8internal12CallbackBaseD2Ev(%"class.base::internal::CallbackBase"* nonnull %38) #15
  call void @llvm.lifetime.end.p0i8(i64 32, i8* nonnull %19) #15
  %39 = icmp eq %"class.base::SingleThreadTaskRunner"* %17, null
  br i1 %39, label %95, label %40

40:                                               ; preds = %35
  %41 = getelementptr inbounds %"class.base::SingleThreadTaskRunner", %"class.base::SingleThreadTaskRunner"* %17, i64 0, i32 0, i32 0, i32 1
  %42 = getelementptr inbounds %"class.base::RefCountedThreadSafe", %"class.base::RefCountedThreadSafe"* %41, i64 0, i32 0, i32 0, i32 0, i32 0, i32 0, i32 0, i32 0, i32 0
  %43 = atomicrmw sub i32* %42, i32 1 acq_rel
  %44 = icmp eq i32 %43, 1
  br i1 %44, label %45, label %95

45:                                               ; preds = %40
  %46 = getelementptr inbounds %"class.base::RefCountedThreadSafe", %"class.base::RefCountedThreadSafe"* %41, i64 -2
  %47 = bitcast %"class.base::RefCountedThreadSafe"* %46 to %"class.base::TaskRunner"*
  call void @_ZN4base16TaskRunnerTraits8DestructEPKNS_10TaskRunnerE(%"class.base::TaskRunner"* %47) #15
  br label %95

48:                                               ; preds = %4
  %49 = bitcast %"class.safe_browsing::RealTimeUrlLookupServiceBase"* %0 to i1 (%"class.safe_browsing::RealTimeUrlLookupServiceBase"*)***
  %50 = load i1 (%"class.safe_browsing::RealTimeUrlLookupServiceBase"*)**, i1 (%"class.safe_browsing::RealTimeUrlLookupServiceBase"*)*** %49, align 8
  %51 = getelementptr inbounds i1 (%"class.safe_browsing::RealTimeUrlLookupServiceBase"*)*, i1 (%"class.safe_browsing::RealTimeUrlLookupServiceBase"*)** %50, i64 9
  %52 = load i1 (%"class.safe_browsing::RealTimeUrlLookupServiceBase"*)*, i1 (%"class.safe_browsing::RealTimeUrlLookupServiceBase"*)** %51, align 8
  %53 = tail call zeroext i1 %52(%"class.safe_browsing::RealTimeUrlLookupServiceBase"* %0) #15
  br i1 %53, label %54, label %69

54:                                               ; preds = %48
  %55 = getelementptr inbounds %"class.base::OnceCallback.169", %"class.base::OnceCallback.169"* %2, i64 0, i32 0, i32 0, i32 0
  %56 = bitcast %"class.base::OnceCallback.169"* %2 to i64*
  %57 = load i64, i64* %56, align 8
  %58 = bitcast %"class.base::OnceCallback.169"* %8 to i64*
  store i64 %57, i64* %58, align 8
  store %"class.base::internal::BindStateBase"* null, %"class.base::internal::BindStateBase"** %55, align 8
  %59 = getelementptr inbounds %"class.base::OnceCallback.122", %"class.base::OnceCallback.122"* %3, i64 0, i32 0, i32 0, i32 0
  %60 = bitcast %"class.base::OnceCallback.122"* %3 to i64*
  %61 = load i64, i64* %60, align 8
  %62 = bitcast %"class.base::OnceCallback.122"* %9 to i64*
  store i64 %61, i64* %62, align 8
  store %"class.base::internal::BindStateBase"* null, %"class.base::internal::BindStateBase"** %59, align 8
  %63 = bitcast %"class.safe_browsing::RealTimeUrlLookupServiceBase"* %0 to void (%"class.safe_browsing::RealTimeUrlLookupServiceBase"*, %class.GURL*, %"class.base::OnceCallback.169"*, %"class.base::OnceCallback.122"*)***
  %64 = load void (%"class.safe_browsing::RealTimeUrlLookupServiceBase"*, %class.GURL*, %"class.base::OnceCallback.169"*, %"class.base::OnceCallback.122"*)**, void (%"class.safe_browsing::RealTimeUrlLookupServiceBase"*, %class.GURL*, %"class.base::OnceCallback.169"*, %"class.base::OnceCallback.122"*)*** %63, align 8
  %65 = getelementptr inbounds void (%"class.safe_browsing::RealTimeUrlLookupServiceBase"*, %class.GURL*, %"class.base::OnceCallback.169"*, %"class.base::OnceCallback.122"*)*, void (%"class.safe_browsing::RealTimeUrlLookupServiceBase"*, %class.GURL*, %"class.base::OnceCallback.169"*, %"class.base::OnceCallback.122"*)** %64, i64 12
  %66 = load void (%"class.safe_browsing::RealTimeUrlLookupServiceBase"*, %class.GURL*, %"class.base::OnceCallback.169"*, %"class.base::OnceCallback.122"*)*, void (%"class.safe_browsing::RealTimeUrlLookupServiceBase"*, %class.GURL*, %"class.base::OnceCallback.169"*, %"class.base::OnceCallback.122"*)** %65, align 8
  call void %66(%"class.safe_browsing::RealTimeUrlLookupServiceBase"* %0, %class.GURL* dereferenceable(120) %1, %"class.base::OnceCallback.169"* nonnull %8, %"class.base::OnceCallback.122"* nonnull %9) #15
  %67 = getelementptr inbounds %"class.base::OnceCallback.122", %"class.base::OnceCallback.122"* %9, i64 0, i32 0
  call void @_ZN4base8internal12CallbackBaseD2Ev(%"class.base::internal::CallbackBase"* nonnull %67) #15
  %68 = getelementptr inbounds %"class.base::OnceCallback.169", %"class.base::OnceCallback.169"* %8, i64 0, i32 0
  call void @_ZN4base8internal12CallbackBaseD2Ev(%"class.base::internal::CallbackBase"* nonnull %68) #15
  br label %95

69:                                               ; preds = %48
  %70 = getelementptr inbounds %"class.absl::optional.170", %"class.absl::optional.170"* %10, i64 0, i32 0, i32 0, i32 0, i32 0
  store i8 0, i8* %70, align 8
  %71 = getelementptr inbounds %"class.absl::optional.170", %"class.absl::optional.170"* %10, i64 0, i32 0, i32 0, i32 0, i32 1
  %72 = bitcast %union.anon.174* %71 to i8*
  call void @llvm.memset.p0i8.i64(i8* align 8 %72, i8 0, i64 24, i1 false) #15
  %73 = getelementptr inbounds %"class.base::OnceCallback.169", %"class.base::OnceCallback.169"* %2, i64 0, i32 0, i32 0, i32 0
  %74 = bitcast %"class.base::OnceCallback.169"* %2 to i64*
  %75 = load i64, i64* %74, align 8
  %76 = bitcast %"class.base::OnceCallback.169"* %11 to i64*
  store i64 %75, i64* %76, align 8
  store %"class.base::internal::BindStateBase"* null, %"class.base::internal::BindStateBase"** %73, align 8
  %77 = getelementptr inbounds %"class.base::OnceCallback.122", %"class.base::OnceCallback.122"* %3, i64 0, i32 0, i32 0, i32 0
  %78 = bitcast %"class.base::OnceCallback.122"* %3 to i64*
  %79 = load i64, i64* %78, align 8
  %80 = bitcast %"class.base::OnceCallback.122"* %12 to i64*
  store i64 %79, i64* %80, align 8
  store %"class.base::internal::BindStateBase"* null, %"class.base::internal::BindStateBase"** %77, align 8
  call void @_ZN13safe_browsing28RealTimeUrlLookupServiceBase11SendRequestERK4GURLN4absl8optionalINSt3__112basic_stringIcNS6_11char_traitsIcEENS6_9allocatorIcEEEEEEN4base12OnceCallbackIFvNS6_10unique_ptrINS_15RTLookupRequestENS6_14default_deleteISH_EEEESC_EEENSF_IFvbbNSG_INS_16RTLookupResponseENSI_ISN_EEEEEEE(%"class.safe_browsing::RealTimeUrlLookupServiceBase"* %0, %class.GURL* dereferenceable(120) %1, %"class.absl::optional.170"* nonnull %10, %"class.base::OnceCallback.169"* nonnull %11, %"class.base::OnceCallback.122"* nonnull %12)
  %81 = getelementptr inbounds %"class.base::OnceCallback.122", %"class.base::OnceCallback.122"* %12, i64 0, i32 0
  call void @_ZN4base8internal12CallbackBaseD2Ev(%"class.base::internal::CallbackBase"* nonnull %81) #15
  %82 = getelementptr inbounds %"class.base::OnceCallback.169", %"class.base::OnceCallback.169"* %11, i64 0, i32 0
  call void @_ZN4base8internal12CallbackBaseD2Ev(%"class.base::internal::CallbackBase"* nonnull %82) #15
  %83 = load i8, i8* %70, align 8, !range !6
  %84 = icmp eq i8 %83, 0
  br i1 %84, label %95, label %85

85:                                               ; preds = %69
  %86 = getelementptr inbounds %"class.absl::optional.170", %"class.absl::optional.170"* %10, i64 0, i32 0, i32 0, i32 0, i32 1, i32 0
  %87 = bitcast %"class.std::__1::basic_string"* %86 to %"struct.std::__1::basic_string<char, std::__1::char_traits<char>, std::__1::allocator<char> >::__short"*
  %88 = getelementptr inbounds %"struct.std::__1::basic_string<char, std::__1::char_traits<char>, std::__1::allocator<char> >::__short", %"struct.std::__1::basic_string<char, std::__1::char_traits<char>, std::__1::allocator<char> >::__short"* %87, i64 0, i32 1, i32 0
  %89 = load i8, i8* %88, align 1
  %90 = icmp slt i8 %89, 0
  br i1 %90, label %91, label %94

91:                                               ; preds = %85
  %92 = getelementptr inbounds %"class.std::__1::basic_string", %"class.std::__1::basic_string"* %86, i64 0, i32 0, i32 0, i32 0, i32 0, i32 0, i32 0
  %93 = load i8*, i8** %92, align 8
  call void @_ZdlPv(i8* %93) #16
  br label %94

94:                                               ; preds = %91, %85
  store i8 0, i8* %70, align 8
  br label %95

95:                                               ; preds = %54, %69, %94, %45, %40, %35
  ret void
}

; Function Attrs: nounwind ssp uwtable
define hidden void @_ZN13safe_browsing28RealTimeUrlLookupServiceBase11SendRequestERK4GURLN4absl8optionalINSt3__112basic_stringIcNS6_11char_traitsIcEENS6_9allocatorIcEEEEEEN4base12OnceCallbackIFvNS6_10unique_ptrINS_15RTLookupRequestENS6_14default_deleteISH_EEEESC_EEENSF_IFvbbNSG_INS_16RTLookupResponseENSI_ISN_EEEEEEE(%"class.safe_browsing::RealTimeUrlLookupServiceBase"*, %class.GURL* dereferenceable(120), %"class.absl::optional.170"*, %"class.base::OnceCallback.169"* nocapture, %"class.base::OnceCallback.122"* nocapture) local_unnamed_addr #0 align 2 {
  %6 = alloca %"class.logging::CheckError", align 8
  %7 = alloca %class.GURL, align 8
  %8 = alloca %"class.std::__1::basic_string", align 8
  %9 = alloca %"class.std::__1::basic_string", align 8
  %10 = alloca %"class.std::__1::basic_string", align 8
  %11 = alloca %"class.std::__1::basic_string", align 8
  %12 = alloca %"class.std::__1::basic_string", align 8
  %13 = alloca %"class.std::__1::basic_string", align 8
  %14 = alloca %"class.base::BasicStringPiece", align 8
  %15 = alloca %"class.base::BasicStringPiece", align 8
  %16 = alloca %"class.std::__1::basic_string", align 8
  %17 = alloca [2 x %"class.base::BasicStringPiece"], align 8
  %18 = alloca %"class.std::__1::basic_string", align 8
  %19 = alloca %"class.std::__1::basic_string", align 8
  %20 = alloca %"class.absl::optional.170", align 8
  %21 = alloca %"class.base::OnceCallback.122", align 8
  %22 = alloca %"class.base::Location", align 8
  %23 = alloca %"class.base::OnceCallback", align 8
  %24 = alloca %"class.std::__1::basic_string", align 8
  %25 = tail call %"class.safe_browsing::RTLookupRequest"* @_ZN13safe_browsing28RealTimeUrlLookupServiceBase16FillRequestProtoERK4GURL(%"class.safe_browsing::RealTimeUrlLookupServiceBase"* %0, %class.GURL* dereferenceable(120) %1)
  %26 = ptrtoint %"class.safe_browsing::RTLookupRequest"* %25 to i64
  %27 = bitcast %"class.std::__1::basic_string"* %9 to i8*
  call void @llvm.lifetime.start.p0i8(i64 24, i8* nonnull %27) #15
  %28 = tail call i8* @_Znwm(i64 48) #16
  %29 = getelementptr inbounds %"class.std::__1::basic_string", %"class.std::__1::basic_string"* %9, i64 0, i32 0, i32 0, i32 0, i32 0, i32 0, i32 0
  store i8* %28, i8** %29, align 8
  %30 = getelementptr inbounds %"class.std::__1::basic_string", %"class.std::__1::basic_string"* %9, i64 0, i32 0, i32 0, i32 0, i32 0, i32 0, i32 1
  %31 = bitcast i64* %30 to <2 x i64>*
  store <2 x i64> <i64 38, i64 -9223372036854775760>, <2 x i64>* %31, align 8
  call void @llvm.memcpy.p0i8.p0i8.i64(i8* nonnull align 1 %28, i8* align 1 getelementptr inbounds ([39 x i8], [39 x i8]* @.str.8, i64 0, i64 0), i64 38, i1 false) #15
  %32 = getelementptr inbounds i8, i8* %28, i64 38
  store i8 0, i8* %32, align 1
  %33 = bitcast %"class.std::__1::basic_string"* %10 to i8*
  call void @llvm.lifetime.start.p0i8(i64 24, i8* nonnull %33) #15
  %34 = bitcast %"class.safe_browsing::RealTimeUrlLookupServiceBase"* %0 to void (%"class.std::__1::basic_string"*, %"class.safe_browsing::RealTimeUrlLookupServiceBase"*)***
  %35 = load void (%"class.std::__1::basic_string"*, %"class.safe_browsing::RealTimeUrlLookupServiceBase"*)**, void (%"class.std::__1::basic_string"*, %"class.safe_browsing::RealTimeUrlLookupServiceBase"*)*** %34, align 8
  %36 = getelementptr inbounds void (%"class.std::__1::basic_string"*, %"class.safe_browsing::RealTimeUrlLookupServiceBase"*)*, void (%"class.std::__1::basic_string"*, %"class.safe_browsing::RealTimeUrlLookupServiceBase"*)** %35, i64 15
  %37 = load void (%"class.std::__1::basic_string"*, %"class.safe_browsing::RealTimeUrlLookupServiceBase"*)*, void (%"class.std::__1::basic_string"*, %"class.safe_browsing::RealTimeUrlLookupServiceBase"*)** %36, align 8
  call void %37(%"class.std::__1::basic_string"* nonnull sret %10, %"class.safe_browsing::RealTimeUrlLookupServiceBase"* %0) #15
  %38 = getelementptr inbounds %"class.safe_browsing::RTLookupRequest", %"class.safe_browsing::RTLookupRequest"* %25, i64 0, i32 7
  %39 = load %"class.safe_browsing::ChromeUserPopulation"*, %"class.safe_browsing::ChromeUserPopulation"** %38, align 8
  %40 = icmp eq %"class.safe_browsing::ChromeUserPopulation"* %39, null
  %41 = select i1 %40, %"class.safe_browsing::ChromeUserPopulation"* bitcast (%"class.safe_browsing::ChromeUserPopulationDefaultTypeInternal"* @_ZN13safe_browsing39_ChromeUserPopulation_default_instance_E to %"class.safe_browsing::ChromeUserPopulation"*), %"class.safe_browsing::ChromeUserPopulation"* %39
  %42 = getelementptr inbounds %"class.safe_browsing::ChromeUserPopulation", %"class.safe_browsing::ChromeUserPopulation"* %41, i64 0, i32 5
  %43 = load i32, i32* %42, align 8
  call void @_ZN4base23UmaHistogramExactLinearERKNSt3__112basic_stringIcNS0_11char_traitsIcEENS0_9allocatorIcEEEEii(%"class.std::__1::basic_string"* nonnull dereferenceable(24) %9, i32 %43, i32 4) #15
  %44 = bitcast %"class.std::__1::basic_string"* %8 to i8*
  call void @llvm.lifetime.start.p0i8(i64 24, i8* nonnull %44) #15
  %45 = getelementptr inbounds %"class.std::__1::basic_string", %"class.std::__1::basic_string"* %8, i64 0, i32 0, i32 0, i32 0, i32 0, i32 0, i32 0
  %46 = getelementptr inbounds %"class.std::__1::basic_string", %"class.std::__1::basic_string"* %8, i64 0, i32 0, i32 0, i32 0, i32 0, i32 0, i32 1
  %47 = getelementptr inbounds %"class.std::__1::basic_string", %"class.std::__1::basic_string"* %8, i64 0, i32 0, i32 0, i32 0, i32 0, i32 0, i32 2
  call void @llvm.memset.p0i8.i64(i8* nonnull align 8 %44, i8 0, i64 24, i1 false) #15, !alias.scope !32
  %48 = bitcast %"class.std::__1::basic_string"* %9 to %"struct.std::__1::basic_string<char, std::__1::char_traits<char>, std::__1::allocator<char> >::__short"*
  %49 = getelementptr inbounds %"struct.std::__1::basic_string<char, std::__1::char_traits<char>, std::__1::allocator<char> >::__short", %"struct.std::__1::basic_string<char, std::__1::char_traits<char>, std::__1::allocator<char> >::__short"* %48, i64 0, i32 1, i32 0
  %50 = load i8, i8* %49, align 1, !noalias !32
  %51 = icmp slt i8 %50, 0
  %52 = load i64, i64* %30, align 8, !noalias !32
  %53 = zext i8 %50 to i64
  %54 = select i1 %51, i64 %52, i64 %53
  %55 = bitcast %"class.std::__1::basic_string"* %10 to %"struct.std::__1::basic_string<char, std::__1::char_traits<char>, std::__1::allocator<char> >::__short"*
  %56 = getelementptr inbounds %"struct.std::__1::basic_string<char, std::__1::char_traits<char>, std::__1::allocator<char> >::__short", %"struct.std::__1::basic_string<char, std::__1::char_traits<char>, std::__1::allocator<char> >::__short"* %55, i64 0, i32 1, i32 0
  %57 = load i8, i8* %56, align 1, !noalias !32
  %58 = icmp slt i8 %57, 0
  %59 = getelementptr inbounds %"class.std::__1::basic_string", %"class.std::__1::basic_string"* %10, i64 0, i32 0, i32 0, i32 0, i32 0, i32 0, i32 1
  %60 = load i64, i64* %59, align 8, !noalias !32
  %61 = zext i8 %57 to i64
  %62 = select i1 %58, i64 %60, i64 %61
  %63 = load i8*, i8** %29, align 8, !noalias !32
  %64 = select i1 %51, i8* %63, i8* %27
  %65 = add i64 %62, %54
  %66 = icmp ugt i64 %65, -17
  br i1 %66, label %67, label %69

67:                                               ; preds = %5
  %68 = bitcast %"class.std::__1::basic_string"* %8 to %"class.std::__1::__basic_string_common"*
  call void @_ZNKSt3__121__basic_string_commonILb1EE20__throw_length_errorEv(%"class.std::__1::__basic_string_common"* nonnull %68) #17
  unreachable

69:                                               ; preds = %5
  %70 = icmp ult i64 %65, 23
  br i1 %70, label %71, label %75

71:                                               ; preds = %69
  %72 = trunc i64 %54 to i8
  %73 = bitcast %"class.std::__1::basic_string"* %8 to %"struct.std::__1::basic_string<char, std::__1::char_traits<char>, std::__1::allocator<char> >::__short"*
  %74 = getelementptr inbounds %"struct.std::__1::basic_string<char, std::__1::char_traits<char>, std::__1::allocator<char> >::__short", %"struct.std::__1::basic_string<char, std::__1::char_traits<char>, std::__1::allocator<char> >::__short"* %73, i64 0, i32 1, i32 0
  store i8 %72, i8* %74, align 1, !alias.scope !32
  br label %80

75:                                               ; preds = %69
  %76 = add nuw i64 %65, 16
  %77 = and i64 %76, -16
  %78 = call i8* @_Znwm(i64 %77) #16
  store i8* %78, i8** %45, align 8, !alias.scope !32
  %79 = or i64 %77, -9223372036854775808
  store i64 %79, i64* %47, align 8, !alias.scope !32
  store i64 %54, i64* %46, align 8, !alias.scope !32
  br label %80

80:                                               ; preds = %75, %71
  %81 = phi i8* [ %44, %71 ], [ %78, %75 ]
  %82 = icmp eq i64 %54, 0
  br i1 %82, label %84, label %83

83:                                               ; preds = %80
  call void @llvm.memcpy.p0i8.p0i8.i64(i8* nonnull align 1 %81, i8* align 1 %64, i64 %54, i1 false) #15
  br label %84

84:                                               ; preds = %83, %80
  %85 = getelementptr inbounds i8, i8* %81, i64 %54
  store i8 0, i8* %85, align 1
  %86 = getelementptr inbounds %"class.std::__1::basic_string", %"class.std::__1::basic_string"* %10, i64 0, i32 0, i32 0, i32 0, i32 0, i32 0, i32 0
  %87 = load i8*, i8** %86, align 8, !noalias !32
  %88 = select i1 %58, i8* %87, i8* %33
  %89 = call dereferenceable(24) %"class.std::__1::basic_string"* @_ZNSt3__112basic_stringIcNS_11char_traitsIcEENS_9allocatorIcEEE6appendEPKcm(%"class.std::__1::basic_string"* nonnull %8, i8* %88, i64 %62) #15
  call void @_ZN4base23UmaHistogramExactLinearERKNSt3__112basic_stringIcNS0_11char_traitsIcEENS0_9allocatorIcEEEEii(%"class.std::__1::basic_string"* nonnull dereferenceable(24) %8, i32 %43, i32 4) #15
  %90 = bitcast %"class.std::__1::basic_string"* %8 to %"struct.std::__1::basic_string<char, std::__1::char_traits<char>, std::__1::allocator<char> >::__short"*
  %91 = getelementptr inbounds %"struct.std::__1::basic_string<char, std::__1::char_traits<char>, std::__1::allocator<char> >::__short", %"struct.std::__1::basic_string<char, std::__1::char_traits<char>, std::__1::allocator<char> >::__short"* %90, i64 0, i32 1, i32 0
  %92 = load i8, i8* %91, align 1
  %93 = icmp slt i8 %92, 0
  br i1 %93, label %94, label %96

94:                                               ; preds = %84
  %95 = load i8*, i8** %45, align 8
  call void @_ZdlPv(i8* %95) #16
  br label %96

96:                                               ; preds = %84, %94
  call void @llvm.lifetime.end.p0i8(i64 24, i8* nonnull %44) #15
  %97 = load i8, i8* %56, align 1
  %98 = icmp slt i8 %97, 0
  br i1 %98, label %99, label %101

99:                                               ; preds = %96
  %100 = load i8*, i8** %86, align 8
  call void @_ZdlPv(i8* %100) #16
  br label %101

101:                                              ; preds = %96, %99
  call void @llvm.lifetime.end.p0i8(i64 24, i8* nonnull %33) #15
  %102 = load i8, i8* %49, align 1
  %103 = icmp slt i8 %102, 0
  br i1 %103, label %104, label %106

104:                                              ; preds = %101
  %105 = load i8*, i8** %29, align 8
  call void @_ZdlPv(i8* %105) #16
  br label %106

106:                                              ; preds = %101, %104
  call void @llvm.lifetime.end.p0i8(i64 24, i8* nonnull %27) #15
  %107 = bitcast %"class.std::__1::basic_string"* %11 to i8*
  call void @llvm.lifetime.start.p0i8(i64 24, i8* nonnull %107) #15
  %108 = call i8* @_Znwm(i64 48) #16
  %109 = getelementptr inbounds %"class.std::__1::basic_string", %"class.std::__1::basic_string"* %11, i64 0, i32 0, i32 0, i32 0, i32 0, i32 0, i32 0
  store i8* %108, i8** %109, align 8
  %110 = getelementptr inbounds %"class.std::__1::basic_string", %"class.std::__1::basic_string"* %11, i64 0, i32 0, i32 0, i32 0, i32 0, i32 0, i32 1
  %111 = bitcast i64* %110 to <2 x i64>*
  store <2 x i64> <i64 43, i64 -9223372036854775760>, <2 x i64>* %111, align 8
  call void @llvm.memcpy.p0i8.p0i8.i64(i8* nonnull align 1 %108, i8* align 1 getelementptr inbounds ([44 x i8], [44 x i8]* @.str.9, i64 0, i64 0), i64 43, i1 false) #15
  %112 = getelementptr inbounds i8, i8* %108, i64 43
  store i8 0, i8* %112, align 1
  %113 = bitcast %"class.std::__1::basic_string"* %12 to i8*
  call void @llvm.lifetime.start.p0i8(i64 24, i8* nonnull %113) #15
  %114 = load void (%"class.std::__1::basic_string"*, %"class.safe_browsing::RealTimeUrlLookupServiceBase"*)**, void (%"class.std::__1::basic_string"*, %"class.safe_browsing::RealTimeUrlLookupServiceBase"*)*** %34, align 8
  %115 = getelementptr inbounds void (%"class.std::__1::basic_string"*, %"class.safe_browsing::RealTimeUrlLookupServiceBase"*)*, void (%"class.std::__1::basic_string"*, %"class.safe_browsing::RealTimeUrlLookupServiceBase"*)** %114, i64 15
  %116 = load void (%"class.std::__1::basic_string"*, %"class.safe_browsing::RealTimeUrlLookupServiceBase"*)*, void (%"class.std::__1::basic_string"*, %"class.safe_browsing::RealTimeUrlLookupServiceBase"*)** %115, align 8
  call void %116(%"class.std::__1::basic_string"* nonnull sret %12, %"class.safe_browsing::RealTimeUrlLookupServiceBase"* %0) #15
  %117 = getelementptr inbounds %"class.safe_browsing::RTLookupRequest", %"class.safe_browsing::RTLookupRequest"* %25, i64 0, i32 3, i32 0, i32 1
  %118 = load i32, i32* %117, align 8
  call fastcc void @_ZN13safe_browsing12_GLOBAL__N_134RecordCount100WithAndWithoutSuffixERKNSt3__112basic_stringIcNS1_11char_traitsIcEENS1_9allocatorIcEEEES9_i(%"class.std::__1::basic_string"* nonnull dereferenceable(24) %11, %"class.std::__1::basic_string"* nonnull dereferenceable(24) %12, i32 %118)
  %119 = bitcast %"class.std::__1::basic_string"* %12 to %"struct.std::__1::basic_string<char, std::__1::char_traits<char>, std::__1::allocator<char> >::__short"*
  %120 = getelementptr inbounds %"struct.std::__1::basic_string<char, std::__1::char_traits<char>, std::__1::allocator<char> >::__short", %"struct.std::__1::basic_string<char, std::__1::char_traits<char>, std::__1::allocator<char> >::__short"* %119, i64 0, i32 1, i32 0
  %121 = load i8, i8* %120, align 1
  %122 = icmp slt i8 %121, 0
  br i1 %122, label %123, label %126

123:                                              ; preds = %106
  %124 = getelementptr inbounds %"class.std::__1::basic_string", %"class.std::__1::basic_string"* %12, i64 0, i32 0, i32 0, i32 0, i32 0, i32 0, i32 0
  %125 = load i8*, i8** %124, align 8
  call void @_ZdlPv(i8* %125) #16
  br label %126

126:                                              ; preds = %106, %123
  call void @llvm.lifetime.end.p0i8(i64 24, i8* nonnull %113) #15
  %127 = bitcast %"class.std::__1::basic_string"* %11 to %"struct.std::__1::basic_string<char, std::__1::char_traits<char>, std::__1::allocator<char> >::__short"*
  %128 = getelementptr inbounds %"struct.std::__1::basic_string<char, std::__1::char_traits<char>, std::__1::allocator<char> >::__short", %"struct.std::__1::basic_string<char, std::__1::char_traits<char>, std::__1::allocator<char> >::__short"* %127, i64 0, i32 1, i32 0
  %129 = load i8, i8* %128, align 1
  %130 = icmp slt i8 %129, 0
  br i1 %130, label %131, label %133

131:                                              ; preds = %126
  %132 = load i8*, i8** %109, align 8
  call void @_ZdlPv(i8* %132) #16
  br label %133

133:                                              ; preds = %126, %131
  call void @llvm.lifetime.end.p0i8(i64 24, i8* nonnull %107) #15
  %134 = bitcast %"class.std::__1::basic_string"* %13 to i8*
  call void @llvm.lifetime.start.p0i8(i64 24, i8* nonnull %134) #15
  %135 = getelementptr inbounds %"class.std::__1::basic_string", %"class.std::__1::basic_string"* %13, i64 0, i32 0, i32 0, i32 0, i32 0, i32 0, i32 0
  call void @llvm.memset.p0i8.i64(i8* nonnull align 8 %134, i8 0, i64 24, i1 false) #15
  %136 = getelementptr inbounds %"class.safe_browsing::RTLookupRequest", %"class.safe_browsing::RTLookupRequest"* %25, i64 0, i32 0
  %137 = call zeroext i1 @_ZNK6google8protobuf11MessageLite17SerializeToStringEPNSt3__112basic_stringIcNS2_11char_traitsIcEENS2_9allocatorIcEEEE(%"class.google::protobuf::MessageLite"* %136, %"class.std::__1::basic_string"* nonnull %13) #15
  %138 = call i8* @_Znwm(i64 1640) #16
  %139 = bitcast i8* %138 to %"struct.network::ResourceRequest"*
  call void @_ZN7network15ResourceRequestC1Ev(%"struct.network::ResourceRequest"* nonnull %139) #15
  %140 = bitcast %class.GURL* %7 to i8*
  call void @llvm.lifetime.start.p0i8(i64 120, i8* nonnull %140) #15
  %141 = bitcast %"class.safe_browsing::RealTimeUrlLookupServiceBase"* %0 to void (%class.GURL*, %"class.safe_browsing::RealTimeUrlLookupServiceBase"*)***
  %142 = load void (%class.GURL*, %"class.safe_browsing::RealTimeUrlLookupServiceBase"*)**, void (%class.GURL*, %"class.safe_browsing::RealTimeUrlLookupServiceBase"*)*** %141, align 8
  %143 = getelementptr inbounds void (%class.GURL*, %"class.safe_browsing::RealTimeUrlLookupServiceBase"*)*, void (%class.GURL*, %"class.safe_browsing::RealTimeUrlLookupServiceBase"*)** %142, i64 7
  %144 = load void (%class.GURL*, %"class.safe_browsing::RealTimeUrlLookupServiceBase"*)*, void (%class.GURL*, %"class.safe_browsing::RealTimeUrlLookupServiceBase"*)** %143, align 8
  call void %144(%class.GURL* nonnull sret %7, %"class.safe_browsing::RealTimeUrlLookupServiceBase"* %0) #15
  %145 = getelementptr inbounds i8, i8* %138, i64 24
  %146 = bitcast i8* %145 to %class.GURL*
  %147 = call dereferenceable(120) %class.GURL* @_ZN4GURLaSEOS_(%class.GURL* %146, %class.GURL* nonnull dereferenceable(120) %7) #15
  call void @_ZN4GURLD1Ev(%class.GURL* nonnull %7) #15
  call void @llvm.lifetime.end.p0i8(i64 120, i8* nonnull %140) #15
  %148 = getelementptr inbounds i8, i8* %138, i64 592
  %149 = bitcast i8* %148 to i32*
  store i32 16, i32* %149, align 8
  %150 = getelementptr inbounds i8, i8* %138, i64 23
  %151 = load i8, i8* %150, align 1
  %152 = icmp slt i8 %151, 0
  br i1 %152, label %153, label %158

153:                                              ; preds = %133
  %154 = getelementptr inbounds i8, i8* %138, i64 8
  %155 = bitcast i8* %154 to i64*
  store i64 4, i64* %155, align 8
  %156 = bitcast i8* %138 to i8**
  %157 = load i8*, i8** %156, align 8
  br label %159

158:                                              ; preds = %133
  store i8 4, i8* %150, align 1
  br label %159

159:                                              ; preds = %158, %153
  %160 = phi i8* [ %157, %153 ], [ %138, %158 ]
  %161 = bitcast i8* %160 to i32*
  store i32 1414745936, i32* %161, align 1
  %162 = getelementptr inbounds i8, i8* %160, i64 4
  store i8 0, i8* %162, align 1
  %163 = bitcast %"class.safe_browsing::RealTimeUrlLookupServiceBase"* %0 to i1 (%"class.safe_browsing::RealTimeUrlLookupServiceBase"*)***
  %164 = load i1 (%"class.safe_browsing::RealTimeUrlLookupServiceBase"*)**, i1 (%"class.safe_browsing::RealTimeUrlLookupServiceBase"*)*** %163, align 8
  %165 = getelementptr inbounds i1 (%"class.safe_browsing::RealTimeUrlLookupServiceBase"*)*, i1 (%"class.safe_browsing::RealTimeUrlLookupServiceBase"*)** %164, i64 16
  %166 = load i1 (%"class.safe_browsing::RealTimeUrlLookupServiceBase"*)*, i1 (%"class.safe_browsing::RealTimeUrlLookupServiceBase"*)** %165, align 8
  %167 = call zeroext i1 %166(%"class.safe_browsing::RealTimeUrlLookupServiceBase"* %0) #15
  br i1 %167, label %171, label %168

168:                                              ; preds = %159
  %169 = getelementptr inbounds i8, i8* %138, i64 620
  %170 = bitcast i8* %169 to i32*
  store i32 0, i32* %170, align 4
  br label %171

171:                                              ; preds = %159, %168
  %172 = getelementptr inbounds %"class.absl::optional.170", %"class.absl::optional.170"* %2, i64 0, i32 0, i32 0, i32 0, i32 0
  %173 = load i8, i8* %172, align 8, !range !6
  %174 = icmp eq i8 %173, 0
  br i1 %174, label %222, label %175

175:                                              ; preds = %171
  %176 = getelementptr inbounds i8, i8* %138, i64 544
  %177 = bitcast i8* %176 to %"class.net::HttpRequestHeaders"*
  %178 = bitcast %"class.base::BasicStringPiece"* %14 to i8*
  call void @llvm.lifetime.start.p0i8(i64 16, i8* nonnull %178) #15
  %179 = getelementptr inbounds %"class.base::BasicStringPiece", %"class.base::BasicStringPiece"* %14, i64 0, i32 0
  store i8* getelementptr inbounds ([0 x i8], [0 x i8]* @_ZN3net18HttpRequestHeaders14kAuthorizationE, i64 0, i64 0), i8** %179, align 8
  %180 = getelementptr inbounds %"class.base::BasicStringPiece", %"class.base::BasicStringPiece"* %14, i64 0, i32 1
  %181 = call i64 @strlen(i8* nonnull getelementptr inbounds ([0 x i8], [0 x i8]* @_ZN3net18HttpRequestHeaders14kAuthorizationE, i64 0, i64 0)) #15
  store i64 %181, i64* %180, align 8
  %182 = bitcast %"class.base::BasicStringPiece"* %15 to i8*
  call void @llvm.lifetime.start.p0i8(i64 16, i8* nonnull %182) #15
  %183 = bitcast %"class.std::__1::basic_string"* %16 to i8*
  call void @llvm.lifetime.start.p0i8(i64 24, i8* nonnull %183) #15
  %184 = bitcast [2 x %"class.base::BasicStringPiece"]* %17 to i8*
  call void @llvm.lifetime.start.p0i8(i64 32, i8* nonnull %184) #15
  %185 = getelementptr inbounds [2 x %"class.base::BasicStringPiece"], [2 x %"class.base::BasicStringPiece"]* %17, i64 0, i64 0
  %186 = getelementptr inbounds [2 x %"class.base::BasicStringPiece"], [2 x %"class.base::BasicStringPiece"]* %17, i64 0, i64 0, i32 0
  store i8* getelementptr inbounds ([0 x i8], [0 x i8]* @_ZN13safe_browsing17kAuthHeaderBearerE, i64 0, i64 0), i8** %186, align 8
  %187 = getelementptr inbounds [2 x %"class.base::BasicStringPiece"], [2 x %"class.base::BasicStringPiece"]* %17, i64 0, i64 0, i32 1
  %188 = call i64 @strlen(i8* nonnull getelementptr inbounds ([0 x i8], [0 x i8]* @_ZN13safe_browsing17kAuthHeaderBearerE, i64 0, i64 0)) #15
  store i64 %188, i64* %187, align 8
  %189 = getelementptr inbounds %"class.absl::optional.170", %"class.absl::optional.170"* %2, i64 0, i32 0, i32 0, i32 0, i32 1, i32 0
  %190 = getelementptr inbounds [2 x %"class.base::BasicStringPiece"], [2 x %"class.base::BasicStringPiece"]* %17, i64 0, i64 1, i32 0
  %191 = bitcast %"class.std::__1::basic_string"* %189 to %"struct.std::__1::basic_string<char, std::__1::char_traits<char>, std::__1::allocator<char> >::__short"*
  %192 = getelementptr inbounds %"struct.std::__1::basic_string<char, std::__1::char_traits<char>, std::__1::allocator<char> >::__short", %"struct.std::__1::basic_string<char, std::__1::char_traits<char>, std::__1::allocator<char> >::__short"* %191, i64 0, i32 1, i32 0
  %193 = load i8, i8* %192, align 1
  %194 = icmp slt i8 %193, 0
  %195 = getelementptr inbounds %"class.std::__1::basic_string", %"class.std::__1::basic_string"* %189, i64 0, i32 0, i32 0, i32 0, i32 0, i32 0, i32 0
  %196 = load i8*, i8** %195, align 8
  %197 = bitcast %"class.std::__1::basic_string"* %189 to i8*
  %198 = select i1 %194, i8* %196, i8* %197
  store i8* %198, i8** %190, align 8
  %199 = getelementptr inbounds [2 x %"class.base::BasicStringPiece"], [2 x %"class.base::BasicStringPiece"]* %17, i64 0, i64 1, i32 1
  %200 = getelementptr inbounds %"class.absl::optional.170", %"class.absl::optional.170"* %2, i64 0, i32 0, i32 0, i32 0, i32 1, i32 0, i32 0, i32 0, i32 0, i32 0, i32 0, i32 1
  %201 = load i64, i64* %200, align 8
  %202 = zext i8 %193 to i64
  %203 = select i1 %194, i64 %201, i64 %202
  store i64 %203, i64* %199, align 8
  call void @_ZN4base6StrCatENS_4spanIKNS_16BasicStringPieceIcNSt3__111char_traitsIcEEEELm18446744073709551615EEE(%"class.std::__1::basic_string"* nonnull sret %16, i64 2, %"class.base::BasicStringPiece"* nonnull %185) #15
  %204 = getelementptr inbounds %"class.base::BasicStringPiece", %"class.base::BasicStringPiece"* %15, i64 0, i32 0
  %205 = bitcast %"class.std::__1::basic_string"* %16 to %"struct.std::__1::basic_string<char, std::__1::char_traits<char>, std::__1::allocator<char> >::__short"*
  %206 = getelementptr inbounds %"struct.std::__1::basic_string<char, std::__1::char_traits<char>, std::__1::allocator<char> >::__short", %"struct.std::__1::basic_string<char, std::__1::char_traits<char>, std::__1::allocator<char> >::__short"* %205, i64 0, i32 1, i32 0
  %207 = load i8, i8* %206, align 1
  %208 = icmp slt i8 %207, 0
  %209 = getelementptr inbounds %"class.std::__1::basic_string", %"class.std::__1::basic_string"* %16, i64 0, i32 0, i32 0, i32 0, i32 0, i32 0, i32 0
  %210 = load i8*, i8** %209, align 8
  %211 = select i1 %208, i8* %210, i8* %183
  store i8* %211, i8** %204, align 8
  %212 = getelementptr inbounds %"class.base::BasicStringPiece", %"class.base::BasicStringPiece"* %15, i64 0, i32 1
  %213 = getelementptr inbounds %"class.std::__1::basic_string", %"class.std::__1::basic_string"* %16, i64 0, i32 0, i32 0, i32 0, i32 0, i32 0, i32 1
  %214 = load i64, i64* %213, align 8
  %215 = zext i8 %207 to i64
  %216 = select i1 %208, i64 %214, i64 %215
  store i64 %216, i64* %212, align 8
  call void @_ZN3net18HttpRequestHeaders9SetHeaderERKN4base16BasicStringPieceIcNSt3__111char_traitsIcEEEES8_(%"class.net::HttpRequestHeaders"* %177, %"class.base::BasicStringPiece"* nonnull dereferenceable(16) %14, %"class.base::BasicStringPiece"* nonnull dereferenceable(16) %15) #15
  %217 = load i8, i8* %206, align 1
  %218 = icmp slt i8 %217, 0
  br i1 %218, label %219, label %221

219:                                              ; preds = %175
  %220 = load i8*, i8** %209, align 8
  call void @_ZdlPv(i8* %220) #16
  br label %221

221:                                              ; preds = %175, %219
  call void @llvm.lifetime.end.p0i8(i64 32, i8* nonnull %184) #15
  call void @llvm.lifetime.end.p0i8(i64 24, i8* nonnull %183) #15
  call void @llvm.lifetime.end.p0i8(i64 16, i8* nonnull %182) #15
  call void @llvm.lifetime.end.p0i8(i64 16, i8* nonnull %178) #15
  br label %222

222:                                              ; preds = %171, %221
  %223 = bitcast %"class.std::__1::basic_string"* %18 to i8*
  call void @llvm.lifetime.start.p0i8(i64 24, i8* nonnull %223) #15
  %224 = call i8* @_Znwm(i64 48) #16
  %225 = getelementptr inbounds %"class.std::__1::basic_string", %"class.std::__1::basic_string"* %18, i64 0, i32 0, i32 0, i32 0, i32 0, i32 0, i32 0
  store i8* %224, i8** %225, align 8
  %226 = getelementptr inbounds %"class.std::__1::basic_string", %"class.std::__1::basic_string"* %18, i64 0, i32 0, i32 0, i32 0, i32 0, i32 0, i32 1
  %227 = bitcast i64* %226 to <2 x i64>*
  store <2 x i64> <i64 33, i64 -9223372036854775760>, <2 x i64>* %227, align 8
  call void @llvm.memcpy.p0i8.p0i8.i64(i8* nonnull align 1 %224, i8* align 1 getelementptr inbounds ([34 x i8], [34 x i8]* @.str.10, i64 0, i64 0), i64 33, i1 false) #15
  %228 = getelementptr inbounds i8, i8* %224, i64 33
  store i8 0, i8* %228, align 1
  %229 = bitcast %"class.std::__1::basic_string"* %19 to i8*
  call void @llvm.lifetime.start.p0i8(i64 24, i8* nonnull %229) #15
  %230 = load void (%"class.std::__1::basic_string"*, %"class.safe_browsing::RealTimeUrlLookupServiceBase"*)**, void (%"class.std::__1::basic_string"*, %"class.safe_browsing::RealTimeUrlLookupServiceBase"*)*** %34, align 8
  %231 = getelementptr inbounds void (%"class.std::__1::basic_string"*, %"class.safe_browsing::RealTimeUrlLookupServiceBase"*)*, void (%"class.std::__1::basic_string"*, %"class.safe_browsing::RealTimeUrlLookupServiceBase"*)** %230, i64 15
  %232 = load void (%"class.std::__1::basic_string"*, %"class.safe_browsing::RealTimeUrlLookupServiceBase"*)*, void (%"class.std::__1::basic_string"*, %"class.safe_browsing::RealTimeUrlLookupServiceBase"*)** %231, align 8
  call void %232(%"class.std::__1::basic_string"* nonnull sret %19, %"class.safe_browsing::RealTimeUrlLookupServiceBase"* %0) #15
  %233 = load i8, i8* %172, align 8, !range !6
  %234 = icmp ne i8 %233, 0
  call fastcc void @_ZN13safe_browsing12_GLOBAL__N_133RecordBooleanWithAndWithoutSuffixERKNSt3__112basic_stringIcNS1_11char_traitsIcEENS1_9allocatorIcEEEES9_b(%"class.std::__1::basic_string"* nonnull dereferenceable(24) %18, %"class.std::__1::basic_string"* nonnull dereferenceable(24) %19, i1 zeroext %234)
  %235 = bitcast %"class.std::__1::basic_string"* %19 to %"struct.std::__1::basic_string<char, std::__1::char_traits<char>, std::__1::allocator<char> >::__short"*
  %236 = getelementptr inbounds %"struct.std::__1::basic_string<char, std::__1::char_traits<char>, std::__1::allocator<char> >::__short", %"struct.std::__1::basic_string<char, std::__1::char_traits<char>, std::__1::allocator<char> >::__short"* %235, i64 0, i32 1, i32 0
  %237 = load i8, i8* %236, align 1
  %238 = icmp slt i8 %237, 0
  br i1 %238, label %239, label %242

239:                                              ; preds = %222
  %240 = getelementptr inbounds %"class.std::__1::basic_string", %"class.std::__1::basic_string"* %19, i64 0, i32 0, i32 0, i32 0, i32 0, i32 0, i32 0
  %241 = load i8*, i8** %240, align 8
  call void @_ZdlPv(i8* %241) #16
  br label %242

242:                                              ; preds = %222, %239
  call void @llvm.lifetime.end.p0i8(i64 24, i8* nonnull %229) #15
  %243 = bitcast %"class.std::__1::basic_string"* %18 to %"struct.std::__1::basic_string<char, std::__1::char_traits<char>, std::__1::allocator<char> >::__short"*
  %244 = getelementptr inbounds %"struct.std::__1::basic_string<char, std::__1::char_traits<char>, std::__1::allocator<char> >::__short", %"struct.std::__1::basic_string<char, std::__1::char_traits<char>, std::__1::allocator<char> >::__short"* %243, i64 0, i32 1, i32 0
  %245 = load i8, i8* %244, align 1
  %246 = icmp slt i8 %245, 0
  br i1 %246, label %247, label %249

247:                                              ; preds = %242
  %248 = load i8*, i8** %225, align 8
  call void @_ZdlPv(i8* %248) #16
  br label %249

249:                                              ; preds = %242, %247
  call void @llvm.lifetime.end.p0i8(i64 24, i8* nonnull %223) #15
  %250 = getelementptr inbounds %"class.absl::optional.170", %"class.absl::optional.170"* %20, i64 0, i32 0, i32 0, i32 0, i32 0
  call void @llvm.memset.p0i8.i64(i8* nonnull align 8 %250, i8 0, i64 32, i1 false) #15
  %251 = load i8, i8* %172, align 8, !range !6
  %252 = icmp eq i8 %251, 0
  br i1 %252, label %269, label %253

253:                                              ; preds = %249
  %254 = getelementptr inbounds %"class.absl::optional.170", %"class.absl::optional.170"* %2, i64 0, i32 0, i32 0, i32 0, i32 1, i32 0
  %255 = getelementptr inbounds %"class.absl::optional.170", %"class.absl::optional.170"* %20, i64 0, i32 0, i32 0, i32 0, i32 1, i32 0
  %256 = bitcast %"class.std::__1::basic_string"* %254 to %"struct.std::__1::basic_string<char, std::__1::char_traits<char>, std::__1::allocator<char> >::__short"*
  %257 = getelementptr inbounds %"struct.std::__1::basic_string<char, std::__1::char_traits<char>, std::__1::allocator<char> >::__short", %"struct.std::__1::basic_string<char, std::__1::char_traits<char>, std::__1::allocator<char> >::__short"* %256, i64 0, i32 1, i32 0
  %258 = load i8, i8* %257, align 1
  %259 = icmp slt i8 %258, 0
  br i1 %259, label %263, label %260

260:                                              ; preds = %253
  %261 = bitcast %"class.std::__1::basic_string"* %255 to i8*
  %262 = bitcast %"class.std::__1::basic_string"* %254 to i8*
  call void @llvm.memcpy.p0i8.p0i8.i64(i8* align 8 %261, i8* align 8 %262, i64 24, i1 false) #15
  br label %268

263:                                              ; preds = %253
  %264 = getelementptr inbounds %"class.std::__1::basic_string", %"class.std::__1::basic_string"* %254, i64 0, i32 0, i32 0, i32 0, i32 0, i32 0, i32 0
  %265 = load i8*, i8** %264, align 8
  %266 = getelementptr inbounds %"class.absl::optional.170", %"class.absl::optional.170"* %2, i64 0, i32 0, i32 0, i32 0, i32 1, i32 0, i32 0, i32 0, i32 0, i32 0, i32 0, i32 1
  %267 = load i64, i64* %266, align 8
  call void @_ZNSt3__112basic_stringIcNS_11char_traitsIcEENS_9allocatorIcEEE25__init_copy_ctor_externalEPKcm(%"class.std::__1::basic_string"* %255, i8* %265, i64 %267) #15
  br label %268

268:                                              ; preds = %263, %260
  store i8 1, i8* %250, align 8
  br label %269

269:                                              ; preds = %249, %268
  %270 = getelementptr inbounds %"class.base::OnceCallback.122", %"class.base::OnceCallback.122"* %4, i64 0, i32 0, i32 0, i32 0
  %271 = bitcast %"class.base::OnceCallback.122"* %4 to i64*
  %272 = load i64, i64* %271, align 8
  %273 = bitcast %"class.base::OnceCallback.122"* %21 to i64*
  store i64 %272, i64* %273, align 8
  store %"class.base::internal::BindStateBase"* null, %"class.base::internal::BindStateBase"** %270, align 8
  call void @_ZN13safe_browsing28RealTimeUrlLookupServiceBase19SendRequestInternalENSt3__110unique_ptrIN7network15ResourceRequestENS1_14default_deleteIS4_EEEERKNS1_12basic_stringIcNS1_11char_traitsIcEENS1_9allocatorIcEEEERK4GURLN4absl8optionalISD_EEN4base12OnceCallbackIFvbbNS2_INS_16RTLookupResponseENS5_ISO_EEEEEEE(%"class.safe_browsing::RealTimeUrlLookupServiceBase"* %0, %"struct.network::ResourceRequest"* nonnull %139, %"class.std::__1::basic_string"* nonnull dereferenceable(24) %13, %class.GURL* dereferenceable(120) %1, %"class.absl::optional.170"* nonnull %20, %"class.base::OnceCallback.122"* nonnull %21)
  %274 = getelementptr inbounds %"class.base::OnceCallback.122", %"class.base::OnceCallback.122"* %21, i64 0, i32 0
  call void @_ZN4base8internal12CallbackBaseD2Ev(%"class.base::internal::CallbackBase"* nonnull %274) #15
  %275 = load i8, i8* %250, align 8, !range !6
  %276 = icmp eq i8 %275, 0
  br i1 %276, label %287, label %277

277:                                              ; preds = %269
  %278 = getelementptr inbounds %"class.absl::optional.170", %"class.absl::optional.170"* %20, i64 0, i32 0, i32 0, i32 0, i32 1, i32 0
  %279 = bitcast %"class.std::__1::basic_string"* %278 to %"struct.std::__1::basic_string<char, std::__1::char_traits<char>, std::__1::allocator<char> >::__short"*
  %280 = getelementptr inbounds %"struct.std::__1::basic_string<char, std::__1::char_traits<char>, std::__1::allocator<char> >::__short", %"struct.std::__1::basic_string<char, std::__1::char_traits<char>, std::__1::allocator<char> >::__short"* %279, i64 0, i32 1, i32 0
  %281 = load i8, i8* %280, align 1
  %282 = icmp slt i8 %281, 0
  br i1 %282, label %283, label %286

283:                                              ; preds = %277
  %284 = getelementptr inbounds %"class.std::__1::basic_string", %"class.std::__1::basic_string"* %278, i64 0, i32 0, i32 0, i32 0, i32 0, i32 0, i32 0
  %285 = load i8*, i8** %284, align 8
  call void @_ZdlPv(i8* %285) #16
  br label %286

286:                                              ; preds = %283, %277
  store i8 0, i8* %250, align 8
  br label %287

287:                                              ; preds = %269, %286
  %288 = call %"class.base::SingleThreadTaskRunner"* @_ZN13safe_browsing13GetTaskRunnerENS_8ThreadIDE(i32 1) #15
  %289 = bitcast %"class.base::SingleThreadTaskRunner"* %288 to %"class.base::TaskRunner"*
  %290 = bitcast %"class.base::Location"* %22 to i8*
  call void @llvm.lifetime.start.p0i8(i64 32, i8* nonnull %290) #15
  call void @_ZN4base8Location7CurrentEPKcS2_i(%"class.base::Location"* nonnull sret %22, i8* getelementptr inbounds ([12 x i8], [12 x i8]* @.str.11, i64 0, i64 0), i8* getelementptr inbounds ([72 x i8], [72 x i8]* @.str.1, i64 0, i64 0), i32 366) #15
  %291 = bitcast %"class.std::__1::basic_string"* %24 to i8*
  call void @llvm.lifetime.start.p0i8(i64 24, i8* nonnull %291) #15
  %292 = load i8, i8* %172, align 8, !range !6
  %293 = icmp eq i8 %292, 0
  br i1 %293, label %307, label %294

294:                                              ; preds = %287
  %295 = getelementptr inbounds %"class.absl::optional.170", %"class.absl::optional.170"* %2, i64 0, i32 0, i32 0, i32 0, i32 1, i32 0
  %296 = bitcast %"class.std::__1::basic_string"* %295 to %"struct.std::__1::basic_string<char, std::__1::char_traits<char>, std::__1::allocator<char> >::__short"*
  %297 = getelementptr inbounds %"struct.std::__1::basic_string<char, std::__1::char_traits<char>, std::__1::allocator<char> >::__short", %"struct.std::__1::basic_string<char, std::__1::char_traits<char>, std::__1::allocator<char> >::__short"* %296, i64 0, i32 1, i32 0
  %298 = load i8, i8* %297, align 1
  %299 = icmp slt i8 %298, 0
  br i1 %299, label %302, label %300

300:                                              ; preds = %294
  %301 = bitcast %"class.std::__1::basic_string"* %295 to i8*
  call void @llvm.memcpy.p0i8.p0i8.i64(i8* nonnull align 8 %291, i8* align 8 %301, i64 24, i1 false) #15
  br label %310

302:                                              ; preds = %294
  %303 = getelementptr inbounds %"class.std::__1::basic_string", %"class.std::__1::basic_string"* %295, i64 0, i32 0, i32 0, i32 0, i32 0, i32 0, i32 0
  %304 = load i8*, i8** %303, align 8
  %305 = getelementptr inbounds %"class.absl::optional.170", %"class.absl::optional.170"* %2, i64 0, i32 0, i32 0, i32 0, i32 1, i32 0, i32 0, i32 0, i32 0, i32 0, i32 0, i32 1
  %306 = load i64, i64* %305, align 8
  call void @_ZNSt3__112basic_stringIcNS_11char_traitsIcEENS_9allocatorIcEEE25__init_copy_ctor_externalEPKcm(%"class.std::__1::basic_string"* nonnull %24, i8* %304, i64 %306) #15
  br label %310

307:                                              ; preds = %287
  %308 = bitcast %"class.std::__1::basic_string"* %24 to %"struct.std::__1::basic_string<char, std::__1::char_traits<char>, std::__1::allocator<char> >::__short"*
  %309 = getelementptr inbounds %"struct.std::__1::basic_string<char, std::__1::char_traits<char>, std::__1::allocator<char> >::__short", %"struct.std::__1::basic_string<char, std::__1::char_traits<char>, std::__1::allocator<char> >::__short"* %308, i64 0, i32 1, i32 0
  store i8 0, i8* %309, align 1
  store i8 0, i8* %291, align 8
  br label %310

310:                                              ; preds = %302, %300, %307
  %311 = call i8* @_Znwm(i64 72) #16, !noalias !35
  %312 = bitcast i8* %311 to %"class.base::internal::BindStateBase"*
  call void @_ZN4base8internal13BindStateBaseC2EPFvvEPFvPKS1_EPFbS5_NS1_21CancellationQueryModeEE(%"class.base::internal::BindStateBase"* nonnull %312, void ()* bitcast (void (%"class.base::internal::BindStateBase"*)* @_ZN4base8internal7InvokerINS0_9BindStateINS_12OnceCallbackIFvNSt3__110unique_ptrIN13safe_browsing15RTLookupRequestENS4_14default_deleteIS7_EEEENS4_12basic_stringIcNS4_11char_traitsIcEENS4_9allocatorIcEEEEEEEJSA_SG_EEEFvvEE7RunOnceEPNS0_13BindStateBaseE to void ()*), void (%"class.base::internal::BindStateBase"*)* nonnull @_ZN4base8internal9BindStateINS_12OnceCallbackIFvNSt3__110unique_ptrIN13safe_browsing15RTLookupRequestENS3_14default_deleteIS6_EEEENS3_12basic_stringIcNS3_11char_traitsIcEENS3_9allocatorIcEEEEEEEJS9_SF_EE7DestroyEPKNS0_13BindStateBaseE, i1 (%"class.base::internal::BindStateBase"*, i32)* nonnull @_ZN4base8internal23QueryCancellationTraitsINS0_9BindStateINS_12OnceCallbackIFvNSt3__110unique_ptrIN13safe_browsing15RTLookupRequestENS4_14default_deleteIS7_EEEENS4_12basic_stringIcNS4_11char_traitsIcEENS4_9allocatorIcEEEEEEEJSA_SG_EEEEEbPKNS0_13BindStateBaseENSK_21CancellationQueryModeE) #15, !noalias !35
  %313 = getelementptr inbounds i8, i8* %311, i64 32
  %314 = getelementptr inbounds %"class.base::OnceCallback.169", %"class.base::OnceCallback.169"* %3, i64 0, i32 0, i32 0, i32 0
  %315 = bitcast %"class.base::OnceCallback.169"* %3 to i64*
  %316 = load i64, i64* %315, align 8, !noalias !35
  %317 = bitcast i8* %313 to i64*
  store i64 %316, i64* %317, align 8, !noalias !35
  store %"class.base::internal::BindStateBase"* null, %"class.base::internal::BindStateBase"** %314, align 8, !noalias !35
  %318 = getelementptr inbounds i8, i8* %311, i64 40
  %319 = bitcast i8* %318 to i64*
  store i64 %26, i64* %319, align 8, !noalias !35
  %320 = getelementptr inbounds i8, i8* %311, i64 48
  call void @llvm.memcpy.p0i8.p0i8.i64(i8* align 8 %320, i8* nonnull align 8 %291, i64 24, i1 false) #15, !noalias !35
  call void @llvm.memset.p0i8.i64(i8* nonnull align 8 %291, i8 0, i64 24, i1 false) #15, !noalias !35
  %321 = icmp eq i64 %316, 0
  br i1 %321, label %322, label %325

322:                                              ; preds = %310
  %323 = bitcast %"class.logging::CheckError"* %6 to i8*
  call void @llvm.lifetime.start.p0i8(i64 8, i8* nonnull %323) #15, !noalias !35
  call void @_ZN7logging10CheckError5CheckEPKciS2_(%"class.logging::CheckError"* nonnull sret %6, i8* getelementptr inbounds ([27 x i8], [27 x i8]* @.str.26, i64 0, i64 0), i32 896, i8* getelementptr inbounds ([18 x i8], [18 x i8]* @.str.27, i64 0, i64 0)) #15, !noalias !35
  %324 = call dereferenceable(160) %"class.std::__1::basic_ostream"* @_ZN7logging10CheckError6streamEv(%"class.logging::CheckError"* nonnull %6) #15, !noalias !35
  call void @_ZN7logging10CheckErrorD1Ev(%"class.logging::CheckError"* nonnull %6) #15, !noalias !35
  call void @llvm.lifetime.end.p0i8(i64 8, i8* nonnull %323) #15, !noalias !35
  br label %325

325:                                              ; preds = %310, %322
  %326 = bitcast %"class.base::OnceCallback"* %23 to i8**
  store i8* %311, i8** %326, align 8, !alias.scope !35
  %327 = call zeroext i1 @_ZN4base10TaskRunner8PostTaskERKNS_8LocationENS_12OnceCallbackIFvvEEE(%"class.base::TaskRunner"* %289, %"class.base::Location"* nonnull dereferenceable(32) %22, %"class.base::OnceCallback"* nonnull %23) #15
  %328 = getelementptr inbounds %"class.base::OnceCallback", %"class.base::OnceCallback"* %23, i64 0, i32 0
  call void @_ZN4base8internal12CallbackBaseD2Ev(%"class.base::internal::CallbackBase"* nonnull %328) #15
  %329 = bitcast %"class.std::__1::basic_string"* %24 to %"struct.std::__1::basic_string<char, std::__1::char_traits<char>, std::__1::allocator<char> >::__short"*
  %330 = getelementptr inbounds %"struct.std::__1::basic_string<char, std::__1::char_traits<char>, std::__1::allocator<char> >::__short", %"struct.std::__1::basic_string<char, std::__1::char_traits<char>, std::__1::allocator<char> >::__short"* %329, i64 0, i32 1, i32 0
  %331 = load i8, i8* %330, align 1
  %332 = icmp slt i8 %331, 0
  br i1 %332, label %333, label %336

333:                                              ; preds = %325
  %334 = getelementptr inbounds %"class.std::__1::basic_string", %"class.std::__1::basic_string"* %24, i64 0, i32 0, i32 0, i32 0, i32 0, i32 0, i32 0
  %335 = load i8*, i8** %334, align 8
  call void @_ZdlPv(i8* %335) #16
  br label %336

336:                                              ; preds = %325, %333
  call void @llvm.lifetime.end.p0i8(i64 24, i8* nonnull %291) #15
  call void @llvm.lifetime.end.p0i8(i64 32, i8* nonnull %290) #15
  %337 = icmp eq %"class.base::SingleThreadTaskRunner"* %288, null
  br i1 %337, label %346, label %338

338:                                              ; preds = %336
  %339 = getelementptr inbounds %"class.base::SingleThreadTaskRunner", %"class.base::SingleThreadTaskRunner"* %288, i64 0, i32 0, i32 0, i32 1
  %340 = getelementptr inbounds %"class.base::RefCountedThreadSafe", %"class.base::RefCountedThreadSafe"* %339, i64 0, i32 0, i32 0, i32 0, i32 0, i32 0, i32 0, i32 0, i32 0
  %341 = atomicrmw sub i32* %340, i32 1 acq_rel
  %342 = icmp eq i32 %341, 1
  br i1 %342, label %343, label %346

343:                                              ; preds = %338
  %344 = getelementptr inbounds %"class.base::RefCountedThreadSafe", %"class.base::RefCountedThreadSafe"* %339, i64 -2
  %345 = bitcast %"class.base::RefCountedThreadSafe"* %344 to %"class.base::TaskRunner"*
  call void @_ZN4base16TaskRunnerTraits8DestructEPKNS_10TaskRunnerE(%"class.base::TaskRunner"* %345) #15
  br label %346

346:                                              ; preds = %343, %338, %336
  %347 = bitcast %"class.std::__1::basic_string"* %13 to %"struct.std::__1::basic_string<char, std::__1::char_traits<char>, std::__1::allocator<char> >::__short"*
  %348 = getelementptr inbounds %"struct.std::__1::basic_string<char, std::__1::char_traits<char>, std::__1::allocator<char> >::__short", %"struct.std::__1::basic_string<char, std::__1::char_traits<char>, std::__1::allocator<char> >::__short"* %347, i64 0, i32 1, i32 0
  %349 = load i8, i8* %348, align 1
  %350 = icmp slt i8 %349, 0
  br i1 %350, label %351, label %353

351:                                              ; preds = %346
  %352 = load i8*, i8** %135, align 8
  call void @_ZdlPv(i8* %352) #16
  br label %353

353:                                              ; preds = %351, %346
  call void @llvm.lifetime.end.p0i8(i64 24, i8* nonnull %134) #15
  ret void
}

; Function Attrs: nounwind ssp uwtable
define hidden %"class.safe_browsing::RTLookupRequest"* @_ZN13safe_browsing28RealTimeUrlLookupServiceBase16FillRequestProtoERK4GURL(%"class.safe_browsing::RealTimeUrlLookupServiceBase"*, %class.GURL* dereferenceable(120)) local_unnamed_addr #0 align 2 {
  %3 = alloca %"class.url::StringPieceReplacements", align 8
  %4 = alloca %"class.url::StringPieceReplacements", align 8
  %5 = alloca %class.GURL, align 8
  %6 = alloca %"class.absl::optional.170", align 8
  %7 = alloca %"class.safe_browsing::ChromeUserPopulation", align 8
  %8 = alloca %class.GURL, align 8
  %9 = tail call i8* @_Znwm(i64 96) #16
  %10 = bitcast i8* %9 to %"class.safe_browsing::RTLookupRequest"*
  tail call void @_ZN13safe_browsing15RTLookupRequestC2EPN6google8protobuf5ArenaE(%"class.safe_browsing::RTLookupRequest"* nonnull %10, %"class.google::protobuf::Arena"* null) #15
  %11 = bitcast %class.GURL* %5 to i8*
  call void @llvm.lifetime.start.p0i8(i64 120, i8* nonnull %11) #15
  %12 = bitcast %"class.url::StringPieceReplacements"* %4 to i8*
  call void @llvm.lifetime.start.p0i8(i64 144, i8* nonnull %12) #15, !noalias !40
  %13 = getelementptr inbounds %"class.url::StringPieceReplacements", %"class.url::StringPieceReplacements"* %4, i64 0, i32 0, i32 1
  %14 = bitcast %"struct.url::Parsed"* %13 to i8*
  call void @llvm.memset.p0i8.i64(i8* nonnull align 8 %14, i8 -86, i64 80, i1 false) #15, !noalias !40
  call void @llvm.memset.p0i8.i64(i8* nonnull align 8 %12, i8 0, i64 64, i1 false) #15, !noalias !40
  call void @_ZN3url6ParsedC1Ev(%"struct.url::Parsed"* %13) #15, !noalias !40
  %15 = getelementptr inbounds %"class.url::StringPieceReplacements", %"class.url::StringPieceReplacements"* %4, i64 0, i32 0
  %16 = getelementptr inbounds %"class.url::StringPieceReplacements", %"class.url::StringPieceReplacements"* %4, i64 0, i32 0, i32 0, i32 1
  %17 = getelementptr inbounds %"class.url::StringPieceReplacements", %"class.url::StringPieceReplacements"* %4, i64 0, i32 0, i32 1, i32 1
  %18 = bitcast i8** %16 to <2 x i8*>*
  store <2 x i8*> <i8* @_ZZN3url12ReplacementsIcE11PlaceholderEvE10empty_cstr, i8* @_ZZN3url12ReplacementsIcE11PlaceholderEvE10empty_cstr>, <2 x i8*>* %18, align 8, !noalias !40
  %19 = bitcast %"struct.url::Component"* %17 to <2 x i64>*
  store <2 x i64> <i64 -4294967296, i64 -4294967296>, <2 x i64>* %19, align 8, !noalias !40
  call void @_ZNK4GURL17ReplaceComponentsERKN3url12ReplacementsIcEE(%class.GURL* nonnull sret %5, %class.GURL* %1, %"class.url::Replacements"* nonnull dereferenceable(144) %15) #15
  call void @_ZN3url6ParsedD1Ev(%"struct.url::Parsed"* %13) #15
  call void @llvm.lifetime.end.p0i8(i64 144, i8* nonnull %12) #15, !noalias !40
  %20 = call dereferenceable(24) %"class.std::__1::basic_string"* @_ZNK4GURL4specEv(%class.GURL* nonnull %5) #15
  %21 = getelementptr inbounds i8, i8* %9, i64 16
  %22 = bitcast i8* %21 to i32*
  %23 = load i32, i32* %22, align 4
  %24 = or i32 %23, 1
  store i32 %24, i32* %22, align 4
  %25 = getelementptr inbounds i8, i8* %9, i64 48
  %26 = bitcast i8* %25 to %"struct.google::protobuf::internal::ArenaStringPtr"*
  %27 = getelementptr inbounds i8, i8* %9, i64 8
  %28 = bitcast i8* %27 to i64*
  %29 = load i64, i64* %28, align 8
  %30 = and i64 %29, 1
  %31 = icmp eq i64 %30, 0
  %32 = and i64 %29, -2
  br i1 %31, label %37, label %33, !prof !2

33:                                               ; preds = %2
  %34 = inttoptr i64 %32 to %"struct.google::protobuf::internal::InternalMetadata::ContainerBase"*
  %35 = getelementptr inbounds %"struct.google::protobuf::internal::InternalMetadata::ContainerBase", %"struct.google::protobuf::internal::InternalMetadata::ContainerBase"* %34, i64 0, i32 0
  %36 = load %"class.google::protobuf::Arena"*, %"class.google::protobuf::Arena"** %35, align 8
  br label %39

37:                                               ; preds = %2
  %38 = inttoptr i64 %32 to %"class.google::protobuf::Arena"*
  br label %39

39:                                               ; preds = %37, %33
  %40 = phi %"class.google::protobuf::Arena"* [ %36, %33 ], [ %38, %37 ]
  %41 = bitcast i8* %25 to %"class.std::__1::basic_string"**
  %42 = load %"class.std::__1::basic_string"*, %"class.std::__1::basic_string"** %41, align 8
  %43 = icmp eq %"class.std::__1::basic_string"* %42, bitcast (%"class.google::protobuf::internal::ExplicitlyConstructed"* @_ZN6google8protobuf8internal26fixed_address_empty_stringE to %"class.std::__1::basic_string"*)
  br i1 %43, label %44, label %45

44:                                               ; preds = %39
  call void @_ZN6google8protobuf8internal14ArenaStringPtr14CreateInstanceEPNS0_5ArenaEPKNSt3__112basic_stringIcNS5_11char_traitsIcEENS5_9allocatorIcEEEE(%"struct.google::protobuf::internal::ArenaStringPtr"* %26, %"class.google::protobuf::Arena"* %40, %"class.std::__1::basic_string"* %20) #15
  br label %76

45:                                               ; preds = %39
  %46 = icmp eq %"class.std::__1::basic_string"* %42, %20
  br i1 %46, label %76, label %47

47:                                               ; preds = %45
  %48 = bitcast %"class.std::__1::basic_string"* %42 to %"struct.std::__1::basic_string<char, std::__1::char_traits<char>, std::__1::allocator<char> >::__short"*
  %49 = getelementptr inbounds %"struct.std::__1::basic_string<char, std::__1::char_traits<char>, std::__1::allocator<char> >::__short", %"struct.std::__1::basic_string<char, std::__1::char_traits<char>, std::__1::allocator<char> >::__short"* %48, i64 0, i32 1, i32 0
  %50 = load i8, i8* %49, align 1
  %51 = icmp slt i8 %50, 0
  %52 = bitcast %"class.std::__1::basic_string"* %20 to %"struct.std::__1::basic_string<char, std::__1::char_traits<char>, std::__1::allocator<char> >::__short"*
  %53 = getelementptr inbounds %"struct.std::__1::basic_string<char, std::__1::char_traits<char>, std::__1::allocator<char> >::__short", %"struct.std::__1::basic_string<char, std::__1::char_traits<char>, std::__1::allocator<char> >::__short"* %52, i64 0, i32 1, i32 0
  %54 = load i8, i8* %53, align 1
  %55 = icmp slt i8 %54, 0
  br i1 %51, label %66, label %56

56:                                               ; preds = %47
  br i1 %55, label %60, label %57

57:                                               ; preds = %56
  %58 = bitcast %"class.std::__1::basic_string"* %42 to i8*
  %59 = bitcast %"class.std::__1::basic_string"* %20 to i8*
  call void @llvm.memcpy.p0i8.p0i8.i64(i8* align 8 %58, i8* align 8 %59, i64 24, i1 false) #15
  br label %76

60:                                               ; preds = %56
  %61 = getelementptr inbounds %"class.std::__1::basic_string", %"class.std::__1::basic_string"* %20, i64 0, i32 0, i32 0, i32 0, i32 0, i32 0, i32 0
  %62 = load i8*, i8** %61, align 8
  %63 = getelementptr inbounds %"class.std::__1::basic_string", %"class.std::__1::basic_string"* %20, i64 0, i32 0, i32 0, i32 0, i32 0, i32 0, i32 1
  %64 = load i64, i64* %63, align 8
  %65 = call dereferenceable(24) %"class.std::__1::basic_string"* @_ZNSt3__112basic_stringIcNS_11char_traitsIcEENS_9allocatorIcEEE17__assign_no_aliasILb1EEERS5_PKcm(%"class.std::__1::basic_string"* %42, i8* %62, i64 %64) #15
  br label %76

66:                                               ; preds = %47
  %67 = getelementptr inbounds %"class.std::__1::basic_string", %"class.std::__1::basic_string"* %20, i64 0, i32 0, i32 0, i32 0, i32 0, i32 0, i32 0
  %68 = load i8*, i8** %67, align 8
  %69 = getelementptr inbounds %"class.std::__1::basic_string", %"class.std::__1::basic_string"* %20, i64 0, i32 0, i32 0, i32 0, i32 0, i32 0, i32 1
  %70 = load i64, i64* %69, align 8
  %71 = bitcast %"class.std::__1::basic_string"* %20 to i8*
  %72 = zext i8 %54 to i64
  %73 = select i1 %55, i8* %68, i8* %71
  %74 = select i1 %55, i64 %70, i64 %72
  %75 = call dereferenceable(24) %"class.std::__1::basic_string"* @_ZNSt3__112basic_stringIcNS_11char_traitsIcEENS_9allocatorIcEEE17__assign_no_aliasILb0EEERS5_PKcm(%"class.std::__1::basic_string"* %42, i8* %73, i64 %74) #15
  br label %76

76:                                               ; preds = %44, %45, %57, %60, %66
  call void @_ZN4GURLD1Ev(%class.GURL* nonnull %5) #15
  call void @llvm.lifetime.end.p0i8(i64 120, i8* nonnull %11) #15
  %77 = load i32, i32* %22, align 4
  %78 = getelementptr inbounds i8, i8* %9, i64 80
  %79 = bitcast i8* %78 to i32*
  store i32 1, i32* %79, align 8
  %80 = getelementptr inbounds i8, i8* %9, i64 84
  %81 = bitcast i8* %80 to i32*
  store i32 2, i32* %81, align 4
  %82 = or i32 %77, 112
  store i32 %82, i32* %22, align 4
  %83 = getelementptr inbounds i8, i8* %9, i64 88
  %84 = bitcast i8* %83 to i32*
  store i32 5, i32* %84, align 8
  %85 = getelementptr inbounds %"class.absl::optional.170", %"class.absl::optional.170"* %6, i64 0, i32 0, i32 0, i32 0, i32 0
  call void @llvm.lifetime.start.p0i8(i64 32, i8* nonnull %85) #15
  call void @llvm.memset.p0i8.i64(i8* nonnull align 8 %85, i8 -86, i64 32, i1 false)
  %86 = bitcast %"class.safe_browsing::RealTimeUrlLookupServiceBase"* %0 to void (%"class.absl::optional.170"*, %"class.safe_browsing::RealTimeUrlLookupServiceBase"*)***
  %87 = load void (%"class.absl::optional.170"*, %"class.safe_browsing::RealTimeUrlLookupServiceBase"*)**, void (%"class.absl::optional.170"*, %"class.safe_browsing::RealTimeUrlLookupServiceBase"*)*** %86, align 8
  %88 = getelementptr inbounds void (%"class.absl::optional.170"*, %"class.safe_browsing::RealTimeUrlLookupServiceBase"*)*, void (%"class.absl::optional.170"*, %"class.safe_browsing::RealTimeUrlLookupServiceBase"*)** %87, i64 14
  %89 = load void (%"class.absl::optional.170"*, %"class.safe_browsing::RealTimeUrlLookupServiceBase"*)*, void (%"class.absl::optional.170"*, %"class.safe_browsing::RealTimeUrlLookupServiceBase"*)** %88, align 8
  call void %89(%"class.absl::optional.170"* nonnull sret %6, %"class.safe_browsing::RealTimeUrlLookupServiceBase"* %0) #15
  %90 = load i8, i8* %85, align 8, !range !6
  %91 = icmp eq i8 %90, 0
  br i1 %91, label %145, label %92

92:                                               ; preds = %76
  %93 = getelementptr inbounds %"class.absl::optional.170", %"class.absl::optional.170"* %6, i64 0, i32 0, i32 0, i32 0, i32 1, i32 0
  %94 = load i32, i32* %22, align 4
  %95 = or i32 %94, 4
  store i32 %95, i32* %22, align 4
  %96 = getelementptr inbounds i8, i8* %9, i64 64
  %97 = bitcast i8* %96 to %"struct.google::protobuf::internal::ArenaStringPtr"*
  %98 = load i64, i64* %28, align 8
  %99 = and i64 %98, 1
  %100 = icmp eq i64 %99, 0
  %101 = and i64 %98, -2
  br i1 %100, label %106, label %102, !prof !2

102:                                              ; preds = %92
  %103 = inttoptr i64 %101 to %"struct.google::protobuf::internal::InternalMetadata::ContainerBase"*
  %104 = getelementptr inbounds %"struct.google::protobuf::internal::InternalMetadata::ContainerBase", %"struct.google::protobuf::internal::InternalMetadata::ContainerBase"* %103, i64 0, i32 0
  %105 = load %"class.google::protobuf::Arena"*, %"class.google::protobuf::Arena"** %104, align 8
  br label %108

106:                                              ; preds = %92
  %107 = inttoptr i64 %101 to %"class.google::protobuf::Arena"*
  br label %108

108:                                              ; preds = %106, %102
  %109 = phi %"class.google::protobuf::Arena"* [ %105, %102 ], [ %107, %106 ]
  %110 = bitcast i8* %96 to %"class.std::__1::basic_string"**
  %111 = load %"class.std::__1::basic_string"*, %"class.std::__1::basic_string"** %110, align 8
  %112 = icmp eq %"class.std::__1::basic_string"* %111, bitcast (%"class.google::protobuf::internal::ExplicitlyConstructed"* @_ZN6google8protobuf8internal26fixed_address_empty_stringE to %"class.std::__1::basic_string"*)
  br i1 %112, label %113, label %114

113:                                              ; preds = %108
  call void @_ZN6google8protobuf8internal14ArenaStringPtr14CreateInstanceEPNS0_5ArenaEPKNSt3__112basic_stringIcNS5_11char_traitsIcEENS5_9allocatorIcEEEE(%"struct.google::protobuf::internal::ArenaStringPtr"* %97, %"class.google::protobuf::Arena"* %109, %"class.std::__1::basic_string"* %93) #15
  br label %145

114:                                              ; preds = %108
  %115 = icmp eq %"class.std::__1::basic_string"* %111, %93
  br i1 %115, label %145, label %116

116:                                              ; preds = %114
  %117 = bitcast %"class.std::__1::basic_string"* %111 to %"struct.std::__1::basic_string<char, std::__1::char_traits<char>, std::__1::allocator<char> >::__short"*
  %118 = getelementptr inbounds %"struct.std::__1::basic_string<char, std::__1::char_traits<char>, std::__1::allocator<char> >::__short", %"struct.std::__1::basic_string<char, std::__1::char_traits<char>, std::__1::allocator<char> >::__short"* %117, i64 0, i32 1, i32 0
  %119 = load i8, i8* %118, align 1
  %120 = icmp slt i8 %119, 0
  %121 = bitcast %"class.std::__1::basic_string"* %93 to %"struct.std::__1::basic_string<char, std::__1::char_traits<char>, std::__1::allocator<char> >::__short"*
  %122 = getelementptr inbounds %"struct.std::__1::basic_string<char, std::__1::char_traits<char>, std::__1::allocator<char> >::__short", %"struct.std::__1::basic_string<char, std::__1::char_traits<char>, std::__1::allocator<char> >::__short"* %121, i64 0, i32 1, i32 0
  %123 = load i8, i8* %122, align 1
  %124 = icmp slt i8 %123, 0
  br i1 %120, label %135, label %125

125:                                              ; preds = %116
  br i1 %124, label %129, label %126

126:                                              ; preds = %125
  %127 = bitcast %"class.std::__1::basic_string"* %111 to i8*
  %128 = bitcast %"class.std::__1::basic_string"* %93 to i8*
  call void @llvm.memcpy.p0i8.p0i8.i64(i8* align 8 %127, i8* align 8 %128, i64 24, i1 false) #15
  br label %145

129:                                              ; preds = %125
  %130 = getelementptr inbounds %"class.std::__1::basic_string", %"class.std::__1::basic_string"* %93, i64 0, i32 0, i32 0, i32 0, i32 0, i32 0, i32 0
  %131 = load i8*, i8** %130, align 8
  %132 = getelementptr inbounds %"class.absl::optional.170", %"class.absl::optional.170"* %6, i64 0, i32 0, i32 0, i32 0, i32 1, i32 0, i32 0, i32 0, i32 0, i32 0, i32 0, i32 1
  %133 = load i64, i64* %132, align 8
  %134 = call dereferenceable(24) %"class.std::__1::basic_string"* @_ZNSt3__112basic_stringIcNS_11char_traitsIcEENS_9allocatorIcEEE17__assign_no_aliasILb1EEERS5_PKcm(%"class.std::__1::basic_string"* %111, i8* %131, i64 %133) #15
  br label %145

135:                                              ; preds = %116
  %136 = getelementptr inbounds %"class.std::__1::basic_string", %"class.std::__1::basic_string"* %93, i64 0, i32 0, i32 0, i32 0, i32 0, i32 0, i32 0
  %137 = load i8*, i8** %136, align 8
  %138 = getelementptr inbounds %"class.absl::optional.170", %"class.absl::optional.170"* %6, i64 0, i32 0, i32 0, i32 0, i32 1, i32 0, i32 0, i32 0, i32 0, i32 0, i32 0, i32 1
  %139 = load i64, i64* %138, align 8
  %140 = bitcast %"class.std::__1::basic_string"* %93 to i8*
  %141 = zext i8 %123 to i64
  %142 = select i1 %124, i8* %137, i8* %140
  %143 = select i1 %124, i64 %139, i64 %141
  %144 = call dereferenceable(24) %"class.std::__1::basic_string"* @_ZNSt3__112basic_stringIcNS_11char_traitsIcEENS_9allocatorIcEEE17__assign_no_aliasILb0EEERS5_PKcm(%"class.std::__1::basic_string"* %111, i8* %142, i64 %143) #15
  br label %145

145:                                              ; preds = %76, %135, %129, %126, %114, %113
  %146 = bitcast %"class.safe_browsing::ChromeUserPopulation"* %7 to i8*
  call void @llvm.lifetime.start.p0i8(i64 80, i8* nonnull %146) #15
  %147 = getelementptr inbounds %"class.safe_browsing::RealTimeUrlLookupServiceBase", %"class.safe_browsing::RealTimeUrlLookupServiceBase"* %0, i64 0, i32 8, i32 0, i32 0, i32 0, i32 0
  %148 = load %"class.base::internal::BindStateBase"*, %"class.base::internal::BindStateBase"** %147, align 8, !noalias !43
  %149 = getelementptr inbounds %"class.base::internal::BindStateBase", %"class.base::internal::BindStateBase"* %148, i64 0, i32 1
  %150 = bitcast void ()** %149 to void (%"class.safe_browsing::ChromeUserPopulation"*, %"class.base::internal::BindStateBase"*)**
  %151 = load void (%"class.safe_browsing::ChromeUserPopulation"*, %"class.base::internal::BindStateBase"*)*, void (%"class.safe_browsing::ChromeUserPopulation"*, %"class.base::internal::BindStateBase"*)** %150, align 8, !noalias !43
  call void %151(%"class.safe_browsing::ChromeUserPopulation"* nonnull sret %7, %"class.base::internal::BindStateBase"* %148) #15
  %152 = load i32, i32* %22, align 4
  %153 = or i32 %152, 8
  store i32 %153, i32* %22, align 4
  %154 = getelementptr inbounds i8, i8* %9, i64 72
  %155 = bitcast i8* %154 to %"class.safe_browsing::ChromeUserPopulation"**
  %156 = load %"class.safe_browsing::ChromeUserPopulation"*, %"class.safe_browsing::ChromeUserPopulation"** %155, align 8
  %157 = icmp eq %"class.safe_browsing::ChromeUserPopulation"* %156, null
  br i1 %157, label %158, label %172

158:                                              ; preds = %145
  %159 = load i64, i64* %28, align 8
  %160 = and i64 %159, 1
  %161 = icmp eq i64 %160, 0
  %162 = and i64 %159, -2
  br i1 %161, label %167, label %163, !prof !2

163:                                              ; preds = %158
  %164 = inttoptr i64 %162 to %"struct.google::protobuf::internal::InternalMetadata::ContainerBase"*
  %165 = getelementptr inbounds %"struct.google::protobuf::internal::InternalMetadata::ContainerBase", %"struct.google::protobuf::internal::InternalMetadata::ContainerBase"* %164, i64 0, i32 0
  %166 = load %"class.google::protobuf::Arena"*, %"class.google::protobuf::Arena"** %165, align 8
  br label %169

167:                                              ; preds = %158
  %168 = inttoptr i64 %162 to %"class.google::protobuf::Arena"*
  br label %169

169:                                              ; preds = %167, %163
  %170 = phi %"class.google::protobuf::Arena"* [ %166, %163 ], [ %168, %167 ]
  %171 = call %"class.safe_browsing::ChromeUserPopulation"* @_ZN6google8protobuf5Arena18CreateMaybeMessageIN13safe_browsing20ChromeUserPopulationEJEEEPT_PS1_DpOT0_(%"class.google::protobuf::Arena"* %170) #15
  store %"class.safe_browsing::ChromeUserPopulation"* %171, %"class.safe_browsing::ChromeUserPopulation"** %155, align 8
  br label %172

172:                                              ; preds = %145, %169
  %173 = phi %"class.safe_browsing::ChromeUserPopulation"* [ %171, %169 ], [ %156, %145 ]
  %174 = getelementptr inbounds %"class.safe_browsing::ChromeUserPopulation", %"class.safe_browsing::ChromeUserPopulation"* %173, i64 0, i32 0, i32 1
  %175 = bitcast %"class.google::protobuf::internal::InternalMetadata"* %174 to i64*
  %176 = load i64, i64* %175, align 8
  %177 = and i64 %176, 1
  %178 = icmp eq i64 %177, 0
  %179 = and i64 %176, -2
  br i1 %178, label %184, label %180, !prof !2

180:                                              ; preds = %172
  %181 = inttoptr i64 %179 to %"struct.google::protobuf::internal::InternalMetadata::ContainerBase"*
  %182 = getelementptr inbounds %"struct.google::protobuf::internal::InternalMetadata::ContainerBase", %"struct.google::protobuf::internal::InternalMetadata::ContainerBase"* %181, i64 0, i32 0
  %183 = load %"class.google::protobuf::Arena"*, %"class.google::protobuf::Arena"** %182, align 8
  br label %186

184:                                              ; preds = %172
  %185 = inttoptr i64 %179 to %"class.google::protobuf::Arena"*
  br label %186

186:                                              ; preds = %184, %180
  %187 = phi %"class.google::protobuf::Arena"* [ %183, %180 ], [ %185, %184 ]
  %188 = getelementptr inbounds %"class.safe_browsing::ChromeUserPopulation", %"class.safe_browsing::ChromeUserPopulation"* %7, i64 0, i32 0, i32 1
  %189 = bitcast %"class.google::protobuf::internal::InternalMetadata"* %188 to i64*
  %190 = load i64, i64* %189, align 8
  %191 = and i64 %190, 1
  %192 = icmp eq i64 %191, 0
  %193 = and i64 %190, -2
  br i1 %192, label %198, label %194, !prof !2

194:                                              ; preds = %186
  %195 = inttoptr i64 %193 to %"struct.google::protobuf::internal::InternalMetadata::ContainerBase"*
  %196 = getelementptr inbounds %"struct.google::protobuf::internal::InternalMetadata::ContainerBase", %"struct.google::protobuf::internal::InternalMetadata::ContainerBase"* %195, i64 0, i32 0
  %197 = load %"class.google::protobuf::Arena"*, %"class.google::protobuf::Arena"** %196, align 8
  br label %200

198:                                              ; preds = %186
  %199 = inttoptr i64 %193 to %"class.google::protobuf::Arena"*
  br label %200

200:                                              ; preds = %198, %194
  %201 = phi %"class.google::protobuf::Arena"* [ %197, %194 ], [ %199, %198 ]
  %202 = icmp eq %"class.google::protobuf::Arena"* %187, %201
  br i1 %202, label %203, label %206

203:                                              ; preds = %200
  %204 = icmp eq %"class.safe_browsing::ChromeUserPopulation"* %173, %7
  br i1 %204, label %207, label %205

205:                                              ; preds = %203
  call void @_ZN13safe_browsing20ChromeUserPopulation12InternalSwapEPS0_(%"class.safe_browsing::ChromeUserPopulation"* %173, %"class.safe_browsing::ChromeUserPopulation"* nonnull %7) #15
  br label %207

206:                                              ; preds = %200
  call void @_ZN13safe_browsing20ChromeUserPopulation8CopyFromERKS0_(%"class.safe_browsing::ChromeUserPopulation"* %173, %"class.safe_browsing::ChromeUserPopulation"* nonnull dereferenceable(80) %7) #15
  br label %207

207:                                              ; preds = %203, %205, %206
  call void @_ZN13safe_browsing20ChromeUserPopulationD1Ev(%"class.safe_browsing::ChromeUserPopulation"* nonnull %7) #15
  call void @llvm.lifetime.end.p0i8(i64 80, i8* nonnull %146) #15
  %208 = bitcast %"class.safe_browsing::RealTimeUrlLookupServiceBase"* %0 to i1 (%"class.safe_browsing::RealTimeUrlLookupServiceBase"*)***
  %209 = load i1 (%"class.safe_browsing::RealTimeUrlLookupServiceBase"*)**, i1 (%"class.safe_browsing::RealTimeUrlLookupServiceBase"*)*** %208, align 8
  %210 = getelementptr inbounds i1 (%"class.safe_browsing::RealTimeUrlLookupServiceBase"*)*, i1 (%"class.safe_browsing::RealTimeUrlLookupServiceBase"*)** %209, i64 10
  %211 = load i1 (%"class.safe_browsing::RealTimeUrlLookupServiceBase"*)*, i1 (%"class.safe_browsing::RealTimeUrlLookupServiceBase"*)** %210, align 8
  %212 = call zeroext i1 %211(%"class.safe_browsing::RealTimeUrlLookupServiceBase"* %0) #15
  br i1 %212, label %213, label %244

213:                                              ; preds = %207
  %214 = getelementptr inbounds %"class.safe_browsing::RealTimeUrlLookupServiceBase", %"class.safe_browsing::RealTimeUrlLookupServiceBase"* %0, i64 0, i32 9
  %215 = load %"class.safe_browsing::ReferrerChainProvider"*, %"class.safe_browsing::ReferrerChainProvider"** %214, align 8
  %216 = icmp eq %"class.safe_browsing::ReferrerChainProvider"* %215, null
  br i1 %216, label %244, label %217

217:                                              ; preds = %213
  %218 = bitcast %class.GURL* %8 to i8*
  call void @llvm.lifetime.start.p0i8(i64 120, i8* nonnull %218) #15
  %219 = bitcast %"class.url::StringPieceReplacements"* %3 to i8*
  call void @llvm.lifetime.start.p0i8(i64 144, i8* nonnull %219) #15, !noalias !46
  %220 = getelementptr inbounds %"class.url::StringPieceReplacements", %"class.url::StringPieceReplacements"* %3, i64 0, i32 0, i32 1
  %221 = bitcast %"struct.url::Parsed"* %220 to i8*
  call void @llvm.memset.p0i8.i64(i8* nonnull align 8 %221, i8 -86, i64 80, i1 false) #15, !noalias !46
  call void @llvm.memset.p0i8.i64(i8* nonnull align 8 %219, i8 0, i64 64, i1 false) #15, !noalias !46
  call void @_ZN3url6ParsedC1Ev(%"struct.url::Parsed"* %220) #15, !noalias !46
  %222 = getelementptr inbounds %"class.url::StringPieceReplacements", %"class.url::StringPieceReplacements"* %3, i64 0, i32 0
  %223 = getelementptr inbounds %"class.url::StringPieceReplacements", %"class.url::StringPieceReplacements"* %3, i64 0, i32 0, i32 0, i32 1
  %224 = getelementptr inbounds %"class.url::StringPieceReplacements", %"class.url::StringPieceReplacements"* %3, i64 0, i32 0, i32 1, i32 1
  %225 = bitcast i8** %223 to <2 x i8*>*
  store <2 x i8*> <i8* @_ZZN3url12ReplacementsIcE11PlaceholderEvE10empty_cstr, i8* @_ZZN3url12ReplacementsIcE11PlaceholderEvE10empty_cstr>, <2 x i8*>* %225, align 8, !noalias !46
  %226 = bitcast %"struct.url::Component"* %224 to <2 x i64>*
  store <2 x i64> <i64 -4294967296, i64 -4294967296>, <2 x i64>* %226, align 8, !noalias !46
  call void @_ZNK4GURL17ReplaceComponentsERKN3url12ReplacementsIcEE(%class.GURL* nonnull sret %8, %class.GURL* %1, %"class.url::Replacements"* nonnull dereferenceable(144) %222) #15
  call void @_ZN3url6ParsedD1Ev(%"struct.url::Parsed"* %220) #15
  call void @llvm.lifetime.end.p0i8(i64 144, i8* nonnull %219) #15, !noalias !46
  %227 = bitcast %"class.safe_browsing::RealTimeUrlLookupServiceBase"* %0 to i32 (%"class.safe_browsing::RealTimeUrlLookupServiceBase"*)***
  %228 = load i32 (%"class.safe_browsing::RealTimeUrlLookupServiceBase"*)**, i32 (%"class.safe_browsing::RealTimeUrlLookupServiceBase"*)*** %227, align 8
  %229 = getelementptr inbounds i32 (%"class.safe_browsing::RealTimeUrlLookupServiceBase"*)*, i32 (%"class.safe_browsing::RealTimeUrlLookupServiceBase"*)** %228, i64 11
  %230 = load i32 (%"class.safe_browsing::RealTimeUrlLookupServiceBase"*)*, i32 (%"class.safe_browsing::RealTimeUrlLookupServiceBase"*)** %229, align 8
  %231 = call i32 %230(%"class.safe_browsing::RealTimeUrlLookupServiceBase"* %0) #15
  %232 = getelementptr inbounds i8, i8* %9, i64 24
  %233 = bitcast i8* %232 to %"class.google::protobuf::RepeatedPtrField"*
  %234 = bitcast %"class.safe_browsing::ReferrerChainProvider"* %215 to i32 (%"class.safe_browsing::ReferrerChainProvider"*, %class.GURL*, i32, %"class.google::protobuf::RepeatedPtrField"*)***
  %235 = load i32 (%"class.safe_browsing::ReferrerChainProvider"*, %class.GURL*, i32, %"class.google::protobuf::RepeatedPtrField"*)**, i32 (%"class.safe_browsing::ReferrerChainProvider"*, %class.GURL*, i32, %"class.google::protobuf::RepeatedPtrField"*)*** %234, align 8
