; ModuleID = '../../components/url_matcher/url_matcher_constants.cc'
source_filename = "../../components/url_matcher/url_matcher_constants.cc"
target datalayout = "e-m:e-i64:64-f80:128-n8:16:32:64-S128"
target triple = "x86_64-unknown-linux-gnu"

@_ZN11url_matcher21url_matcher_constants9kPortsKeyE = hidden local_unnamed_addr constant [6 x i8] c"ports\00", align 1
@_ZN11url_matcher21url_matcher_constants11kSchemesKeyE = hidden local_unnamed_addr constant [8 x i8] c"schemes\00", align 1
@_ZN11url_matcher21url_matcher_constants16kHostContainsKeyE = hidden local_unnamed_addr constant [13 x i8] c"hostContains\00", align 1
@_ZN11url_matcher21url_matcher_constants14kHostEqualsKeyE = hidden local_unnamed_addr constant [11 x i8] c"hostEquals\00", align 1
@_ZN11url_matcher21url_matcher_constants14kHostPrefixKeyE = hidden local_unnamed_addr constant [11 x i8] c"hostPrefix\00", align 1
@_ZN11url_matcher21url_matcher_constants14kHostSuffixKeyE = hidden local_unnamed_addr constant [11 x i8] c"hostSuffix\00", align 1
@_ZN11url_matcher21url_matcher_constants24kHostSuffixPathPrefixKeyE = hidden local_unnamed_addr constant [21 x i8] c"hostSuffixPathPrefix\00", align 16
@_ZN11url_matcher21url_matcher_constants24kOriginAndPathMatchesKeyE = hidden local_unnamed_addr constant [21 x i8] c"originAndPathMatches\00", align 16
@_ZN11url_matcher21url_matcher_constants16kPathContainsKeyE = hidden local_unnamed_addr constant [13 x i8] c"pathContains\00", align 1
@_ZN11url_matcher21url_matcher_constants14kPathEqualsKeyE = hidden local_unnamed_addr constant [11 x i8] c"pathEquals\00", align 1
@_ZN11url_matcher21url_matcher_constants14kPathPrefixKeyE = hidden local_unnamed_addr constant [11 x i8] c"pathPrefix\00", align 1
@_ZN11url_matcher21url_matcher_constants14kPathSuffixKeyE = hidden local_unnamed_addr constant [11 x i8] c"pathSuffix\00", align 1
@_ZN11url_matcher21url_matcher_constants17kQueryContainsKeyE = hidden local_unnamed_addr constant [14 x i8] c"queryContains\00", align 1
@_ZN11url_matcher21url_matcher_constants15kQueryEqualsKeyE = hidden local_unnamed_addr constant [12 x i8] c"queryEquals\00", align 1
@_ZN11url_matcher21url_matcher_constants15kQueryPrefixKeyE = hidden local_unnamed_addr constant [12 x i8] c"queryPrefix\00", align 1
@_ZN11url_matcher21url_matcher_constants15kQuerySuffixKeyE = hidden local_unnamed_addr constant [12 x i8] c"querySuffix\00", align 1
@_ZN11url_matcher21url_matcher_constants15kURLContainsKeyE = hidden local_unnamed_addr constant [12 x i8] c"urlContains\00", align 1
@_ZN11url_matcher21url_matcher_constants13kURLEqualsKeyE = hidden local_unnamed_addr constant [10 x i8] c"urlEquals\00", align 1
@_ZN11url_matcher21url_matcher_constants14kURLMatchesKeyE = hidden local_unnamed_addr constant [11 x i8] c"urlMatches\00", align 1
@_ZN11url_matcher21url_matcher_constants13kURLPrefixKeyE = hidden local_unnamed_addr constant [10 x i8] c"urlPrefix\00", align 1
@_ZN11url_matcher21url_matcher_constants13kURLSuffixKeyE = hidden local_unnamed_addr constant [10 x i8] c"urlSuffix\00", align 1

!llvm.module.flags = !{!0, !1}

!0 = !{i32 1, !"wchar_size", i32 4}
!1 = !{i32 7, !"PIC Level", i32 2}
