; ModuleID = '../../url/url_canon_query.cc'
source_filename = "../../url/url_canon_query.cc"
target datalayout = "e-m:e-i64:64-f80:128-n8:16:32:64-S128"
target triple = "x86_64-unknown-linux-gnu"

%"class.url::CharsetConverter" = type { i32 (...)** }
%"class.url::CanonOutputT" = type { i32 (...)**, i8*, i32, i32 }
%"struct.url::Component" = type { i32, i32 }
%"class.url::RawCanonOutputW" = type { %"class.url::RawCanonOutputT.0" }
%"class.url::RawCanonOutputT.0" = type { %"class.url::CanonOutputT.1", [1024 x i16] }
%"class.url::CanonOutputT.1" = type { i32 (...)**, i16*, i32, i32 }
%"class.url::RawCanonOutput" = type { %"class.url::RawCanonOutputT" }
%"class.url::RawCanonOutputT" = type { %"class.url::CanonOutputT", [1024 x i8] }

$_ZN3url15RawCanonOutputTIcLi1024EED2Ev = comdat any

$_ZN3url17AppendEscapedCharIhcEEvT_PNS_12CanonOutputTIT0_EE = comdat any

$_ZN3url14RawCanonOutputILi1024EED0Ev = comdat any

$_ZN3url15RawCanonOutputTIcLi1024EE6ResizeEi = comdat any

$_ZN3url15RawCanonOutputTIcLi1024EED0Ev = comdat any

$_ZN3url15RawCanonOutputWILi1024EED0Ev = comdat any

$_ZN3url15RawCanonOutputTIDsLi1024EE6ResizeEi = comdat any

$_ZN3url15RawCanonOutputTIDsLi1024EED2Ev = comdat any

$_ZN3url15RawCanonOutputTIDsLi1024EED0Ev = comdat any

$_ZTVN3url14RawCanonOutputILi1024EEE = comdat any

$_ZTVN3url15RawCanonOutputTIcLi1024EEE = comdat any

$_ZTVN3url15RawCanonOutputWILi1024EEE = comdat any

$_ZTVN3url15RawCanonOutputTIDsLi1024EEE = comdat any

@_ZN3url20kSharedCharTypeTableE = external local_unnamed_addr constant [256 x i8], align 16
@_ZN3url14kHexCharLookupE = external local_unnamed_addr constant [16 x i8], align 16
@_ZTVN3url14RawCanonOutputILi1024EEE = linkonce_odr hidden unnamed_addr constant { [5 x i8*] } { [5 x i8*] [i8* null, i8* null, i8* bitcast (void (%"class.url::RawCanonOutputT"*)* @_ZN3url15RawCanonOutputTIcLi1024EED2Ev to i8*), i8* bitcast (void (%"class.url::RawCanonOutput"*)* @_ZN3url14RawCanonOutputILi1024EED0Ev to i8*), i8* bitcast (void (%"class.url::RawCanonOutputT"*, i32)* @_ZN3url15RawCanonOutputTIcLi1024EE6ResizeEi to i8*)] }, comdat, align 8
@_ZTVN3url15RawCanonOutputTIcLi1024EEE = linkonce_odr hidden unnamed_addr constant { [5 x i8*] } { [5 x i8*] [i8* null, i8* null, i8* bitcast (void (%"class.url::RawCanonOutputT"*)* @_ZN3url15RawCanonOutputTIcLi1024EED2Ev to i8*), i8* bitcast (void (%"class.url::RawCanonOutputT"*)* @_ZN3url15RawCanonOutputTIcLi1024EED0Ev to i8*), i8* bitcast (void (%"class.url::RawCanonOutputT"*, i32)* @_ZN3url15RawCanonOutputTIcLi1024EE6ResizeEi to i8*)] }, comdat, align 8
@_ZTVN3url15RawCanonOutputWILi1024EEE = linkonce_odr hidden unnamed_addr constant { [5 x i8*] } { [5 x i8*] [i8* null, i8* null, i8* bitcast (void (%"class.url::RawCanonOutputT.0"*)* @_ZN3url15RawCanonOutputTIDsLi1024EED2Ev to i8*), i8* bitcast (void (%"class.url::RawCanonOutputW"*)* @_ZN3url15RawCanonOutputWILi1024EED0Ev to i8*), i8* bitcast (void (%"class.url::RawCanonOutputT.0"*, i32)* @_ZN3url15RawCanonOutputTIDsLi1024EE6ResizeEi to i8*)] }, comdat, align 8
@_ZTVN3url15RawCanonOutputTIDsLi1024EEE = linkonce_odr hidden unnamed_addr constant { [5 x i8*] } { [5 x i8*] [i8* null, i8* null, i8* bitcast (void (%"class.url::RawCanonOutputT.0"*)* @_ZN3url15RawCanonOutputTIDsLi1024EED2Ev to i8*), i8* bitcast (void (%"class.url::RawCanonOutputT.0"*)* @_ZN3url15RawCanonOutputTIDsLi1024EED0Ev to i8*), i8* bitcast (void (%"class.url::RawCanonOutputT.0"*, i32)* @_ZN3url15RawCanonOutputTIDsLi1024EE6ResizeEi to i8*)] }, comdat, align 8

; Function Attrs: nounwind ssp uwtable
define hidden void @_ZN3url17CanonicalizeQueryEPKcRKNS_9ComponentEPNS_16CharsetConverterEPNS_12CanonOutputTIcEEPS2_(i8*, %"struct.url::Component"* nocapture readonly dereferenceable(8), %"class.url::CharsetConverter"*, %"class.url::CanonOutputT"*, %"struct.url::Component"* nocapture) local_unnamed_addr #0 {
  %6 = alloca %"class.url::RawCanonOutputW", align 8
  %7 = alloca %"class.url::RawCanonOutput", align 8
  %8 = getelementptr inbounds %"struct.url::Component", %"struct.url::Component"* %1, i64 0, i32 1
  %9 = load i32, i32* %8, align 4
  %10 = icmp slt i32 %9, 0
  br i1 %10, label %11, label %13

11:                                               ; preds = %5
  %12 = bitcast %"struct.url::Component"* %4 to i64*
  store i64 -4294967296, i64* %12, align 4
  br label %209

13:                                               ; preds = %5
  %14 = getelementptr inbounds %"class.url::CanonOutputT", %"class.url::CanonOutputT"* %3, i64 0, i32 3
  %15 = load i32, i32* %14, align 4
  %16 = getelementptr inbounds %"class.url::CanonOutputT", %"class.url::CanonOutputT"* %3, i64 0, i32 2
  %17 = load i32, i32* %16, align 8
  %18 = icmp slt i32 %15, %17
  br i1 %18, label %34, label %19

19:                                               ; preds = %13
  %20 = icmp eq i32 %17, 0
  %21 = select i1 %20, i32 16, i32 %17
  br label %22

22:                                               ; preds = %19, %25
  %23 = phi i32 [ %26, %25 ], [ %21, %19 ]
  %24 = icmp sgt i32 %23, 1073741823
  br i1 %24, label %42, label %25

25:                                               ; preds = %22
  %26 = shl nsw i32 %23, 1
  %27 = icmp sgt i32 %26, %17
  br i1 %27, label %28, label %22

28:                                               ; preds = %25
  %29 = bitcast %"class.url::CanonOutputT"* %3 to void (%"class.url::CanonOutputT"*, i32)***
  %30 = load void (%"class.url::CanonOutputT"*, i32)**, void (%"class.url::CanonOutputT"*, i32)*** %29, align 8
  %31 = getelementptr inbounds void (%"class.url::CanonOutputT"*, i32)*, void (%"class.url::CanonOutputT"*, i32)** %30, i64 2
  %32 = load void (%"class.url::CanonOutputT"*, i32)*, void (%"class.url::CanonOutputT"*, i32)** %31, align 8
  tail call void %32(%"class.url::CanonOutputT"* %3, i32 %26) #7
  %33 = load i32, i32* %14, align 4
  br label %34

34:                                               ; preds = %13, %28
  %35 = phi i32 [ %33, %28 ], [ %15, %13 ]
  %36 = getelementptr inbounds %"class.url::CanonOutputT", %"class.url::CanonOutputT"* %3, i64 0, i32 1
  %37 = load i8*, i8** %36, align 8
  %38 = sext i32 %35 to i64
  %39 = getelementptr inbounds i8, i8* %37, i64 %38
  store i8 63, i8* %39, align 1
  %40 = load i32, i32* %14, align 4
  %41 = add nsw i32 %40, 1
  store i32 %41, i32* %14, align 4
  br label %42

42:                                               ; preds = %22, %34
  %43 = phi i32 [ %41, %34 ], [ %15, %22 ]
  %44 = getelementptr inbounds %"struct.url::Component", %"struct.url::Component"* %4, i64 0, i32 0
  store i32 %43, i32* %44, align 4
  %45 = getelementptr inbounds %"struct.url::Component", %"struct.url::Component"* %1, i64 0, i32 0
  %46 = load i32, i32* %45, align 4
  %47 = load i32, i32* %8, align 4
  %48 = icmp sgt i32 %47, 0
  br i1 %48, label %49, label %204

49:                                               ; preds = %42
  %50 = add nsw i32 %47, %46
  %51 = sext i32 %46 to i64
  %52 = sext i32 %50 to i64
  br label %55

53:                                               ; preds = %55
  %54 = icmp slt i64 %60, %52
  br i1 %54, label %55, label %61

55:                                               ; preds = %53, %49
  %56 = phi i64 [ %51, %49 ], [ %60, %53 ]
  %57 = getelementptr inbounds i8, i8* %0, i64 %56
  %58 = load i8, i8* %57, align 1
  %59 = icmp slt i8 %58, 0
  %60 = add nsw i64 %56, 1
  br i1 %59, label %108, label %53

61:                                               ; preds = %53
  %62 = getelementptr inbounds i8, i8* %0, i64 %51
  %63 = bitcast %"class.url::CanonOutputT"* %3 to void (%"class.url::CanonOutputT"*, i32)***
  %64 = getelementptr inbounds %"class.url::CanonOutputT", %"class.url::CanonOutputT"* %3, i64 0, i32 1
  %65 = zext i32 %47 to i64
  br label %66

66:                                               ; preds = %105, %61
  %67 = phi i64 [ 0, %61 ], [ %106, %105 ]
  %68 = getelementptr inbounds i8, i8* %62, i64 %67
  %69 = load i8, i8* %68, align 1
  %70 = zext i8 %69 to i64
  %71 = getelementptr inbounds [256 x i8], [256 x i8]* @_ZN3url20kSharedCharTypeTableE, i64 0, i64 %70
  %72 = load i8, i8* %71, align 1
  %73 = and i8 %72, 1
  %74 = icmp eq i8 %73, 0
  br i1 %74, label %75, label %76

75:                                               ; preds = %66
  tail call void @_ZN3url17AppendEscapedCharIhcEEvT_PNS_12CanonOutputTIT0_EE(i8 zeroext %69, %"class.url::CanonOutputT"* %3) #7
  br label %105

76:                                               ; preds = %66
  %77 = load i32, i32* %14, align 4
  %78 = load i32, i32* %16, align 8
  %79 = icmp slt i32 %77, %78
  br i1 %79, label %80, label %86

80:                                               ; preds = %76
  %81 = load i8*, i8** %64, align 8
  %82 = sext i32 %77 to i64
  %83 = getelementptr inbounds i8, i8* %81, i64 %82
  store i8 %69, i8* %83, align 1
  %84 = load i32, i32* %14, align 4
  %85 = add nsw i32 %84, 1
  store i32 %85, i32* %14, align 4
  br label %105

86:                                               ; preds = %76
  %87 = icmp eq i32 %78, 0
  %88 = select i1 %87, i32 16, i32 %78
  br label %89

89:                                               ; preds = %86, %92
  %90 = phi i32 [ %93, %92 ], [ %88, %86 ]
  %91 = icmp sgt i32 %90, 1073741823
  br i1 %91, label %105, label %92

92:                                               ; preds = %89
  %93 = shl nsw i32 %90, 1
  %94 = icmp sgt i32 %93, %78
  br i1 %94, label %95, label %89

95:                                               ; preds = %92
  %96 = load void (%"class.url::CanonOutputT"*, i32)**, void (%"class.url::CanonOutputT"*, i32)*** %63, align 8
  %97 = getelementptr inbounds void (%"class.url::CanonOutputT"*, i32)*, void (%"class.url::CanonOutputT"*, i32)** %96, i64 2
  %98 = load void (%"class.url::CanonOutputT"*, i32)*, void (%"class.url::CanonOutputT"*, i32)** %97, align 8
  tail call void %98(%"class.url::CanonOutputT"* %3, i32 %93) #7
  %99 = load i8*, i8** %64, align 8
  %100 = load i32, i32* %14, align 4
  %101 = sext i32 %100 to i64
  %102 = getelementptr inbounds i8, i8* %99, i64 %101
  store i8 %69, i8* %102, align 1
  %103 = load i32, i32* %14, align 4
  %104 = add nsw i32 %103, 1
  store i32 %104, i32* %14, align 4
  br label %105

105:                                              ; preds = %89, %95, %80, %75
  %106 = add nuw nsw i64 %67, 1
  %107 = icmp eq i64 %106, %65
  br i1 %107, label %204, label %66

108:                                              ; preds = %55
  %109 = icmp eq %"class.url::CharsetConverter"* %2, null
  br i1 %109, label %202, label %110

110:                                              ; preds = %108
  %111 = bitcast %"class.url::RawCanonOutput"* %7 to i8*
  call void @llvm.lifetime.start.p0i8(i64 1048, i8* nonnull %111) #7
  %112 = getelementptr inbounds %"class.url::RawCanonOutput", %"class.url::RawCanonOutput"* %7, i64 0, i32 0, i32 1, i64 0
  call void @llvm.memset.p0i8.i64(i8* nonnull align 8 %112, i8 -86, i64 1024, i1 false) #7
  %113 = getelementptr inbounds %"class.url::RawCanonOutput", %"class.url::RawCanonOutput"* %7, i64 0, i32 0, i32 0, i32 0
  %114 = getelementptr inbounds %"class.url::RawCanonOutput", %"class.url::RawCanonOutput"* %7, i64 0, i32 0, i32 0, i32 1
  %115 = bitcast i8** %114 to i8*
  call void @llvm.memset.p0i8.i64(i8* align 8 %115, i8 0, i64 16, i1 false) #7
  store i8* %112, i8** %114, align 8
  %116 = getelementptr inbounds %"class.url::RawCanonOutput", %"class.url::RawCanonOutput"* %7, i64 0, i32 0, i32 0, i32 2
  store i32 1024, i32* %116, align 8
  store i32 (...)** bitcast (i8** getelementptr inbounds ({ [5 x i8*] }, { [5 x i8*] }* @_ZTVN3url14RawCanonOutputILi1024EEE, i64 0, inrange i32 0, i64 2) to i32 (...)**), i32 (...)*** %113, align 8
  %117 = getelementptr inbounds %"class.url::RawCanonOutput", %"class.url::RawCanonOutput"* %7, i64 0, i32 0, i32 0
  %118 = bitcast %"class.url::RawCanonOutputW"* %6 to i8*
  call void @llvm.lifetime.start.p0i8(i64 2072, i8* nonnull %118) #7
  %119 = getelementptr inbounds %"class.url::RawCanonOutputW", %"class.url::RawCanonOutputW"* %6, i64 0, i32 0, i32 1
  %120 = bitcast [1024 x i16]* %119 to i8*
  call void @llvm.memset.p0i8.i64(i8* nonnull align 8 %120, i8 -86, i64 2048, i1 false) #7
  %121 = getelementptr inbounds %"class.url::RawCanonOutputW", %"class.url::RawCanonOutputW"* %6, i64 0, i32 0, i32 0, i32 0
  %122 = getelementptr inbounds %"class.url::RawCanonOutputW", %"class.url::RawCanonOutputW"* %6, i64 0, i32 0, i32 0, i32 1
  %123 = bitcast i16** %122 to i8*
  call void @llvm.memset.p0i8.i64(i8* align 8 %123, i8 0, i64 16, i1 false) #7
  %124 = getelementptr inbounds %"class.url::RawCanonOutputW", %"class.url::RawCanonOutputW"* %6, i64 0, i32 0, i32 1, i64 0
  store i16* %124, i16** %122, align 8
  %125 = getelementptr inbounds %"class.url::RawCanonOutputW", %"class.url::RawCanonOutputW"* %6, i64 0, i32 0, i32 0, i32 2
  store i32 1024, i32* %125, align 8
  store i32 (...)** bitcast (i8** getelementptr inbounds ({ [5 x i8*] }, { [5 x i8*] }* @_ZTVN3url15RawCanonOutputWILi1024EEE, i64 0, inrange i32 0, i64 2) to i32 (...)**), i32 (...)*** %121, align 8
  %126 = getelementptr inbounds i8, i8* %0, i64 %51
  %127 = getelementptr inbounds %"class.url::RawCanonOutputW", %"class.url::RawCanonOutputW"* %6, i64 0, i32 0, i32 0
  %128 = call zeroext i1 @_ZN3url18ConvertUTF8ToUTF16EPKciPNS_12CanonOutputTIDsEE(i8* %126, i32 %47, %"class.url::CanonOutputT.1"* nonnull %127) #7
  %129 = load i16*, i16** %122, align 8
  %130 = getelementptr inbounds %"class.url::RawCanonOutputW", %"class.url::RawCanonOutputW"* %6, i64 0, i32 0, i32 0, i32 3
  %131 = load i32, i32* %130, align 4
  %132 = bitcast %"class.url::CharsetConverter"* %2 to void (%"class.url::CharsetConverter"*, i16*, i32, %"class.url::CanonOutputT"*)***
  %133 = load void (%"class.url::CharsetConverter"*, i16*, i32, %"class.url::CanonOutputT"*)**, void (%"class.url::CharsetConverter"*, i16*, i32, %"class.url::CanonOutputT"*)*** %132, align 8
  %134 = getelementptr inbounds void (%"class.url::CharsetConverter"*, i16*, i32, %"class.url::CanonOutputT"*)*, void (%"class.url::CharsetConverter"*, i16*, i32, %"class.url::CanonOutputT"*)** %133, i64 2
  %135 = load void (%"class.url::CharsetConverter"*, i16*, i32, %"class.url::CanonOutputT"*)*, void (%"class.url::CharsetConverter"*, i16*, i32, %"class.url::CanonOutputT"*)** %134, align 8
  call void %135(%"class.url::CharsetConverter"* nonnull %2, i16* %129, i32 %131, %"class.url::CanonOutputT"* nonnull %117) #7
  store i32 (...)** bitcast (i8** getelementptr inbounds ({ [5 x i8*] }, { [5 x i8*] }* @_ZTVN3url15RawCanonOutputTIDsLi1024EEE, i64 0, inrange i32 0, i64 2) to i32 (...)**), i32 (...)*** %121, align 8
  %136 = load i16*, i16** %122, align 8
  %137 = icmp eq i16* %136, %124
  %138 = icmp eq i16* %136, null
  %139 = or i1 %137, %138
  br i1 %139, label %142, label %140

140:                                              ; preds = %110
  %141 = bitcast i16* %136 to i8*
  call void @_ZdaPv(i8* %141) #8
  br label %142

142:                                              ; preds = %140, %110
  call void @llvm.lifetime.end.p0i8(i64 2072, i8* nonnull %118) #7
  %143 = load i8*, i8** %114, align 8
  %144 = getelementptr inbounds %"class.url::RawCanonOutput", %"class.url::RawCanonOutput"* %7, i64 0, i32 0, i32 0, i32 3
  %145 = load i32, i32* %144, align 4
  %146 = icmp sgt i32 %145, 0
  br i1 %146, label %147, label %195

147:                                              ; preds = %142
  %148 = bitcast %"class.url::CanonOutputT"* %3 to void (%"class.url::CanonOutputT"*, i32)***
  %149 = getelementptr inbounds %"class.url::CanonOutputT", %"class.url::CanonOutputT"* %3, i64 0, i32 1
  %150 = zext i32 %145 to i64
  br label %151

151:                                              ; preds = %190, %147
  %152 = phi i64 [ 0, %147 ], [ %191, %190 ]
  %153 = getelementptr inbounds i8, i8* %143, i64 %152
  %154 = load i8, i8* %153, align 1
  %155 = zext i8 %154 to i64
  %156 = getelementptr inbounds [256 x i8], [256 x i8]* @_ZN3url20kSharedCharTypeTableE, i64 0, i64 %155
  %157 = load i8, i8* %156, align 1
  %158 = and i8 %157, 1
  %159 = icmp eq i8 %158, 0
  br i1 %159, label %160, label %161

160:                                              ; preds = %151
  call void @_ZN3url17AppendEscapedCharIhcEEvT_PNS_12CanonOutputTIT0_EE(i8 zeroext %154, %"class.url::CanonOutputT"* %3) #7
  br label %190

161:                                              ; preds = %151
  %162 = load i32, i32* %14, align 4
  %163 = load i32, i32* %16, align 8
  %164 = icmp slt i32 %162, %163
  br i1 %164, label %165, label %171

165:                                              ; preds = %161
  %166 = load i8*, i8** %149, align 8
  %167 = sext i32 %162 to i64
  %168 = getelementptr inbounds i8, i8* %166, i64 %167
  store i8 %154, i8* %168, align 1
  %169 = load i32, i32* %14, align 4
  %170 = add nsw i32 %169, 1
  store i32 %170, i32* %14, align 4
  br label %190

171:                                              ; preds = %161
  %172 = icmp eq i32 %163, 0
  %173 = select i1 %172, i32 16, i32 %163
  br label %174

174:                                              ; preds = %171, %177
  %175 = phi i32 [ %178, %177 ], [ %173, %171 ]
  %176 = icmp sgt i32 %175, 1073741823
  br i1 %176, label %190, label %177

177:                                              ; preds = %174
  %178 = shl nsw i32 %175, 1
  %179 = icmp sgt i32 %178, %163
  br i1 %179, label %180, label %174

180:                                              ; preds = %177
  %181 = load void (%"class.url::CanonOutputT"*, i32)**, void (%"class.url::CanonOutputT"*, i32)*** %148, align 8
  %182 = getelementptr inbounds void (%"class.url::CanonOutputT"*, i32)*, void (%"class.url::CanonOutputT"*, i32)** %181, i64 2
  %183 = load void (%"class.url::CanonOutputT"*, i32)*, void (%"class.url::CanonOutputT"*, i32)** %182, align 8
  call void %183(%"class.url::CanonOutputT"* %3, i32 %178) #7
  %184 = load i8*, i8** %149, align 8
  %185 = load i32, i32* %14, align 4
  %186 = sext i32 %185 to i64
  %187 = getelementptr inbounds i8, i8* %184, i64 %186
  store i8 %154, i8* %187, align 1
  %188 = load i32, i32* %14, align 4
  %189 = add nsw i32 %188, 1
  store i32 %189, i32* %14, align 4
  br label %190

190:                                              ; preds = %174, %180, %165, %160
  %191 = add nuw nsw i64 %152, 1
  %192 = icmp eq i64 %191, %150
  br i1 %192, label %193, label %151

193:                                              ; preds = %190
  %194 = load i8*, i8** %114, align 8
  br label %195

195:                                              ; preds = %193, %142
  %196 = phi i8* [ %194, %193 ], [ %143, %142 ]
  store i32 (...)** bitcast (i8** getelementptr inbounds ({ [5 x i8*] }, { [5 x i8*] }* @_ZTVN3url15RawCanonOutputTIcLi1024EEE, i64 0, inrange i32 0, i64 2) to i32 (...)**), i32 (...)*** %113, align 8
  %197 = icmp eq i8* %196, %112
  %198 = icmp eq i8* %196, null
  %199 = or i1 %197, %198
  br i1 %199, label %201, label %200

200:                                              ; preds = %195
  call void @_ZdaPv(i8* nonnull %196) #8
  br label %201

201:                                              ; preds = %200, %195
  call void @llvm.lifetime.end.p0i8(i64 1048, i8* nonnull %111) #7
  br label %204

202:                                              ; preds = %108
  %203 = getelementptr inbounds i8, i8* %0, i64 %51
  tail call void @_ZN3url18AppendStringOfTypeEPKciNS_15SharedCharTypesEPNS_12CanonOutputTIcEE(i8* %203, i32 %47, i32 1, %"class.url::CanonOutputT"* %3) #7
  br label %204

204:                                              ; preds = %105, %202, %201, %42
  %205 = load i32, i32* %14, align 4
  %206 = load i32, i32* %44, align 4
  %207 = sub nsw i32 %205, %206
  %208 = getelementptr inbounds %"struct.url::Component", %"struct.url::Component"* %4, i64 0, i32 1
  store i32 %207, i32* %208, align 4
  br label %209

209:                                              ; preds = %11, %204
  ret void
}

; Function Attrs: nounwind ssp uwtable
define hidden void @_ZN3url17CanonicalizeQueryEPKDsRKNS_9ComponentEPNS_16CharsetConverterEPNS_12CanonOutputTIcEEPS2_(i16*, %"struct.url::Component"* nocapture readonly dereferenceable(8), %"class.url::CharsetConverter"*, %"class.url::CanonOutputT"*, %"struct.url::Component"* nocapture) local_unnamed_addr #0 {
  %6 = getelementptr inbounds %"struct.url::Component", %"struct.url::Component"* %1, i64 0, i32 1
  %7 = load i32, i32* %6, align 4
  %8 = icmp slt i32 %7, 0
  br i1 %8, label %9, label %11

9:                                                ; preds = %5
  %10 = bitcast %"struct.url::Component"* %4 to i64*
  store i64 -4294967296, i64* %10, align 4
  br label %47

11:                                               ; preds = %5
  %12 = getelementptr inbounds %"class.url::CanonOutputT", %"class.url::CanonOutputT"* %3, i64 0, i32 3
  %13 = load i32, i32* %12, align 4
  %14 = getelementptr inbounds %"class.url::CanonOutputT", %"class.url::CanonOutputT"* %3, i64 0, i32 2
  %15 = load i32, i32* %14, align 8
  %16 = icmp slt i32 %13, %15
  br i1 %16, label %32, label %17

17:                                               ; preds = %11
  %18 = icmp eq i32 %15, 0
  %19 = select i1 %18, i32 16, i32 %15
  br label %20

20:                                               ; preds = %17, %23
  %21 = phi i32 [ %24, %23 ], [ %19, %17 ]
  %22 = icmp sgt i32 %21, 1073741823
  br i1 %22, label %40, label %23

23:                                               ; preds = %20
  %24 = shl nsw i32 %21, 1
  %25 = icmp sgt i32 %24, %15
  br i1 %25, label %26, label %20

26:                                               ; preds = %23
  %27 = bitcast %"class.url::CanonOutputT"* %3 to void (%"class.url::CanonOutputT"*, i32)***
  %28 = load void (%"class.url::CanonOutputT"*, i32)**, void (%"class.url::CanonOutputT"*, i32)*** %27, align 8
  %29 = getelementptr inbounds void (%"class.url::CanonOutputT"*, i32)*, void (%"class.url::CanonOutputT"*, i32)** %28, i64 2
  %30 = load void (%"class.url::CanonOutputT"*, i32)*, void (%"class.url::CanonOutputT"*, i32)** %29, align 8
  tail call void %30(%"class.url::CanonOutputT"* %3, i32 %24) #7
  %31 = load i32, i32* %12, align 4
  br label %32

32:                                               ; preds = %11, %26
  %33 = phi i32 [ %31, %26 ], [ %13, %11 ]
  %34 = getelementptr inbounds %"class.url::CanonOutputT", %"class.url::CanonOutputT"* %3, i64 0, i32 1
  %35 = load i8*, i8** %34, align 8
  %36 = sext i32 %33 to i64
  %37 = getelementptr inbounds i8, i8* %35, i64 %36
  store i8 63, i8* %37, align 1
  %38 = load i32, i32* %12, align 4
  %39 = add nsw i32 %38, 1
  store i32 %39, i32* %12, align 4
  br label %40

40:                                               ; preds = %20, %32
  %41 = phi i32 [ %39, %32 ], [ %13, %20 ]
  %42 = getelementptr inbounds %"struct.url::Component", %"struct.url::Component"* %4, i64 0, i32 0
  store i32 %41, i32* %42, align 4
  tail call fastcc void @_ZN3url12_GLOBAL__N_124DoConvertToQueryEncodingIDsDsEEvPKT_RKNS_9ComponentEPNS_16CharsetConverterEPNS_12CanonOutputTIcEE(i16* %0, %"struct.url::Component"* dereferenceable(8) %1, %"class.url::CharsetConverter"* %2, %"class.url::CanonOutputT"* %3) #7
  %43 = load i32, i32* %12, align 4
  %44 = load i32, i32* %42, align 4
  %45 = sub nsw i32 %43, %44
  %46 = getelementptr inbounds %"struct.url::Component", %"struct.url::Component"* %4, i64 0, i32 1
  store i32 %45, i32* %46, align 4
  br label %47

47:                                               ; preds = %9, %40
  ret void
}

; Function Attrs: nounwind ssp uwtable
define hidden void @_ZN3url27ConvertUTF16ToQueryEncodingEPKDsRKNS_9ComponentEPNS_16CharsetConverterEPNS_12CanonOutputTIcEE(i16*, %"struct.url::Component"* nocapture readonly dereferenceable(8), %"class.url::CharsetConverter"*, %"class.url::CanonOutputT"*) local_unnamed_addr #0 {
  tail call fastcc void @_ZN3url12_GLOBAL__N_124DoConvertToQueryEncodingIDsDsEEvPKT_RKNS_9ComponentEPNS_16CharsetConverterEPNS_12CanonOutputTIcEE(i16* %0, %"struct.url::Component"* dereferenceable(8) %1, %"class.url::CharsetConverter"* %2, %"class.url::CanonOutputT"* %3)
  ret void
}

; Function Attrs: nounwind ssp uwtable
define internal fastcc void @_ZN3url12_GLOBAL__N_124DoConvertToQueryEncodingIDsDsEEvPKT_RKNS_9ComponentEPNS_16CharsetConverterEPNS_12CanonOutputTIcEE(i16*, %"struct.url::Component"* nocapture readonly dereferenceable(8), %"class.url::CharsetConverter"*, %"class.url::CanonOutputT"*) unnamed_addr #0 {
  %5 = alloca %"class.url::RawCanonOutput", align 8
  %6 = getelementptr inbounds %"struct.url::Component", %"struct.url::Component"* %1, i64 0, i32 0
  %7 = load i32, i32* %6, align 4
  %8 = getelementptr inbounds %"struct.url::Component", %"struct.url::Component"* %1, i64 0, i32 1
  %9 = load i32, i32* %8, align 4
  %10 = icmp sgt i32 %9, 0
  br i1 %10, label %11, label %153

11:                                               ; preds = %4
  %12 = add nsw i32 %9, %7
  %13 = sext i32 %7 to i64
  %14 = sext i32 %12 to i64
  br label %17

15:                                               ; preds = %17
  %16 = icmp slt i64 %22, %14
  br i1 %16, label %17, label %23

17:                                               ; preds = %15, %11
  %18 = phi i64 [ %13, %11 ], [ %22, %15 ]
  %19 = getelementptr inbounds i16, i16* %0, i64 %18
  %20 = load i16, i16* %19, align 2
  %21 = icmp ugt i16 %20, 127
  %22 = add nsw i64 %18, 1
  br i1 %21, label %74, label %15

23:                                               ; preds = %15
  %24 = getelementptr inbounds i16, i16* %0, i64 %13
  %25 = getelementptr inbounds %"class.url::CanonOutputT", %"class.url::CanonOutputT"* %3, i64 0, i32 3
  %26 = getelementptr inbounds %"class.url::CanonOutputT", %"class.url::CanonOutputT"* %3, i64 0, i32 2
  %27 = bitcast %"class.url::CanonOutputT"* %3 to void (%"class.url::CanonOutputT"*, i32)***
  %28 = getelementptr inbounds %"class.url::CanonOutputT", %"class.url::CanonOutputT"* %3, i64 0, i32 1
  %29 = zext i32 %9 to i64
  br label %30

30:                                               ; preds = %71, %23
  %31 = phi i64 [ 0, %23 ], [ %72, %71 ]
  %32 = getelementptr inbounds i16, i16* %24, i64 %31
  %33 = load i16, i16* %32, align 2
  %34 = trunc i16 %33 to i8
  %35 = and i16 %33, 255
  %36 = zext i16 %35 to i64
  %37 = getelementptr inbounds [256 x i8], [256 x i8]* @_ZN3url20kSharedCharTypeTableE, i64 0, i64 %36
  %38 = load i8, i8* %37, align 1
  %39 = and i8 %38, 1
  %40 = icmp eq i8 %39, 0
  br i1 %40, label %41, label %42

41:                                               ; preds = %30
  tail call void @_ZN3url17AppendEscapedCharIhcEEvT_PNS_12CanonOutputTIT0_EE(i8 zeroext %34, %"class.url::CanonOutputT"* %3) #7
  br label %71

42:                                               ; preds = %30
  %43 = load i32, i32* %25, align 4
  %44 = load i32, i32* %26, align 8
  %45 = icmp slt i32 %43, %44
  br i1 %45, label %46, label %52

46:                                               ; preds = %42
  %47 = load i8*, i8** %28, align 8
  %48 = sext i32 %43 to i64
  %49 = getelementptr inbounds i8, i8* %47, i64 %48
  store i8 %34, i8* %49, align 1
  %50 = load i32, i32* %25, align 4
  %51 = add nsw i32 %50, 1
  store i32 %51, i32* %25, align 4
  br label %71

52:                                               ; preds = %42
  %53 = icmp eq i32 %44, 0
  %54 = select i1 %53, i32 16, i32 %44
  br label %55

55:                                               ; preds = %52, %58
  %56 = phi i32 [ %59, %58 ], [ %54, %52 ]
  %57 = icmp sgt i32 %56, 1073741823
  br i1 %57, label %71, label %58

58:                                               ; preds = %55
  %59 = shl nsw i32 %56, 1
  %60 = icmp sgt i32 %59, %44
  br i1 %60, label %61, label %55

61:                                               ; preds = %58
  %62 = load void (%"class.url::CanonOutputT"*, i32)**, void (%"class.url::CanonOutputT"*, i32)*** %27, align 8
  %63 = getelementptr inbounds void (%"class.url::CanonOutputT"*, i32)*, void (%"class.url::CanonOutputT"*, i32)** %62, i64 2
  %64 = load void (%"class.url::CanonOutputT"*, i32)*, void (%"class.url::CanonOutputT"*, i32)** %63, align 8
  tail call void %64(%"class.url::CanonOutputT"* %3, i32 %59) #7
  %65 = load i8*, i8** %28, align 8
  %66 = load i32, i32* %25, align 4
  %67 = sext i32 %66 to i64
  %68 = getelementptr inbounds i8, i8* %65, i64 %67
  store i8 %34, i8* %68, align 1
  %69 = load i32, i32* %25, align 4
  %70 = add nsw i32 %69, 1
  store i32 %70, i32* %25, align 4
  br label %71

71:                                               ; preds = %55, %61, %46, %41
  %72 = add nuw nsw i64 %31, 1
  %73 = icmp eq i64 %72, %29
  br i1 %73, label %153, label %30

74:                                               ; preds = %17
  %75 = icmp eq %"class.url::CharsetConverter"* %2, null
  br i1 %75, label %151, label %76

76:                                               ; preds = %74
  %77 = bitcast %"class.url::RawCanonOutput"* %5 to i8*
  call void @llvm.lifetime.start.p0i8(i64 1048, i8* nonnull %77) #7
  %78 = getelementptr inbounds %"class.url::RawCanonOutput", %"class.url::RawCanonOutput"* %5, i64 0, i32 0, i32 1, i64 0
  call void @llvm.memset.p0i8.i64(i8* nonnull align 8 %78, i8 -86, i64 1024, i1 false)
  %79 = getelementptr inbounds %"class.url::RawCanonOutput", %"class.url::RawCanonOutput"* %5, i64 0, i32 0, i32 0, i32 0
  %80 = getelementptr inbounds %"class.url::RawCanonOutput", %"class.url::RawCanonOutput"* %5, i64 0, i32 0, i32 0, i32 1
  %81 = bitcast i8** %80 to i8*
  call void @llvm.memset.p0i8.i64(i8* align 8 %81, i8 0, i64 16, i1 false) #7
  %82 = getelementptr inbounds %"class.url::RawCanonOutput", %"class.url::RawCanonOutput"* %5, i64 0, i32 0, i32 1, i64 0
  store i8* %82, i8** %80, align 8
  %83 = getelementptr inbounds %"class.url::RawCanonOutput", %"class.url::RawCanonOutput"* %5, i64 0, i32 0, i32 0, i32 2
  store i32 1024, i32* %83, align 8
  store i32 (...)** bitcast (i8** getelementptr inbounds ({ [5 x i8*] }, { [5 x i8*] }* @_ZTVN3url14RawCanonOutputILi1024EEE, i64 0, inrange i32 0, i64 2) to i32 (...)**), i32 (...)*** %79, align 8
  %84 = getelementptr inbounds %"class.url::RawCanonOutput", %"class.url::RawCanonOutput"* %5, i64 0, i32 0, i32 0
  %85 = getelementptr inbounds i16, i16* %0, i64 %13
  %86 = bitcast %"class.url::CharsetConverter"* %2 to void (%"class.url::CharsetConverter"*, i16*, i32, %"class.url::CanonOutputT"*)***
  %87 = load void (%"class.url::CharsetConverter"*, i16*, i32, %"class.url::CanonOutputT"*)**, void (%"class.url::CharsetConverter"*, i16*, i32, %"class.url::CanonOutputT"*)*** %86, align 8
  %88 = getelementptr inbounds void (%"class.url::CharsetConverter"*, i16*, i32, %"class.url::CanonOutputT"*)*, void (%"class.url::CharsetConverter"*, i16*, i32, %"class.url::CanonOutputT"*)** %87, i64 2
  %89 = load void (%"class.url::CharsetConverter"*, i16*, i32, %"class.url::CanonOutputT"*)*, void (%"class.url::CharsetConverter"*, i16*, i32, %"class.url::CanonOutputT"*)** %88, align 8
  call void %89(%"class.url::CharsetConverter"* nonnull %2, i16* %85, i32 %9, %"class.url::CanonOutputT"* nonnull %84) #7
  %90 = load i8*, i8** %80, align 8
  %91 = getelementptr inbounds %"class.url::RawCanonOutput", %"class.url::RawCanonOutput"* %5, i64 0, i32 0, i32 0, i32 3
  %92 = load i32, i32* %91, align 4
  %93 = icmp sgt i32 %92, 0
  br i1 %93, label %94, label %144

94:                                               ; preds = %76
  %95 = getelementptr inbounds %"class.url::CanonOutputT", %"class.url::CanonOutputT"* %3, i64 0, i32 3
  %96 = getelementptr inbounds %"class.url::CanonOutputT", %"class.url::CanonOutputT"* %3, i64 0, i32 2
  %97 = bitcast %"class.url::CanonOutputT"* %3 to void (%"class.url::CanonOutputT"*, i32)***
  %98 = getelementptr inbounds %"class.url::CanonOutputT", %"class.url::CanonOutputT"* %3, i64 0, i32 1
  %99 = zext i32 %92 to i64
  br label %100

100:                                              ; preds = %139, %94
  %101 = phi i64 [ 0, %94 ], [ %140, %139 ]
  %102 = getelementptr inbounds i8, i8* %90, i64 %101
  %103 = load i8, i8* %102, align 1
  %104 = zext i8 %103 to i64
  %105 = getelementptr inbounds [256 x i8], [256 x i8]* @_ZN3url20kSharedCharTypeTableE, i64 0, i64 %104
  %106 = load i8, i8* %105, align 1
  %107 = and i8 %106, 1
  %108 = icmp eq i8 %107, 0
  br i1 %108, label %109, label %110

109:                                              ; preds = %100
  call void @_ZN3url17AppendEscapedCharIhcEEvT_PNS_12CanonOutputTIT0_EE(i8 zeroext %103, %"class.url::CanonOutputT"* %3) #7
  br label %139

110:                                              ; preds = %100
  %111 = load i32, i32* %95, align 4
  %112 = load i32, i32* %96, align 8
  %113 = icmp slt i32 %111, %112
  br i1 %113, label %114, label %120

114:                                              ; preds = %110
  %115 = load i8*, i8** %98, align 8
  %116 = sext i32 %111 to i64
  %117 = getelementptr inbounds i8, i8* %115, i64 %116
  store i8 %103, i8* %117, align 1
  %118 = load i32, i32* %95, align 4
  %119 = add nsw i32 %118, 1
  store i32 %119, i32* %95, align 4
  br label %139

120:                                              ; preds = %110
  %121 = icmp eq i32 %112, 0
  %122 = select i1 %121, i32 16, i32 %112
  br label %123

123:                                              ; preds = %120, %126
  %124 = phi i32 [ %127, %126 ], [ %122, %120 ]
  %125 = icmp sgt i32 %124, 1073741823
  br i1 %125, label %139, label %126

126:                                              ; preds = %123
  %127 = shl nsw i32 %124, 1
  %128 = icmp sgt i32 %127, %112
  br i1 %128, label %129, label %123

129:                                              ; preds = %126
  %130 = load void (%"class.url::CanonOutputT"*, i32)**, void (%"class.url::CanonOutputT"*, i32)*** %97, align 8
  %131 = getelementptr inbounds void (%"class.url::CanonOutputT"*, i32)*, void (%"class.url::CanonOutputT"*, i32)** %130, i64 2
  %132 = load void (%"class.url::CanonOutputT"*, i32)*, void (%"class.url::CanonOutputT"*, i32)** %131, align 8
  call void %132(%"class.url::CanonOutputT"* %3, i32 %127) #7
  %133 = load i8*, i8** %98, align 8
  %134 = load i32, i32* %95, align 4
  %135 = sext i32 %134 to i64
  %136 = getelementptr inbounds i8, i8* %133, i64 %135
  store i8 %103, i8* %136, align 1
  %137 = load i32, i32* %95, align 4
  %138 = add nsw i32 %137, 1
  store i32 %138, i32* %95, align 4
  br label %139

139:                                              ; preds = %123, %129, %114, %109
  %140 = add nuw nsw i64 %101, 1
  %141 = icmp eq i64 %140, %99
  br i1 %141, label %142, label %100

142:                                              ; preds = %139
  %143 = load i8*, i8** %80, align 8
  br label %144

144:                                              ; preds = %142, %76
  %145 = phi i8* [ %143, %142 ], [ %90, %76 ]
  store i32 (...)** bitcast (i8** getelementptr inbounds ({ [5 x i8*] }, { [5 x i8*] }* @_ZTVN3url15RawCanonOutputTIcLi1024EEE, i64 0, inrange i32 0, i64 2) to i32 (...)**), i32 (...)*** %79, align 8
  %146 = icmp eq i8* %145, %82
  %147 = icmp eq i8* %145, null
  %148 = or i1 %146, %147
  br i1 %148, label %150, label %149

149:                                              ; preds = %144
  call void @_ZdaPv(i8* nonnull %145) #8
  br label %150

150:                                              ; preds = %144, %149
  call void @llvm.lifetime.end.p0i8(i64 1048, i8* nonnull %77) #7
  br label %153

151:                                              ; preds = %74
  %152 = getelementptr inbounds i16, i16* %0, i64 %13
  tail call void @_ZN3url18AppendStringOfTypeEPKDsiNS_15SharedCharTypesEPNS_12CanonOutputTIcEE(i16* %152, i32 %9, i32 1, %"class.url::CanonOutputT"* %3) #7
  br label %153

153:                                              ; preds = %71, %4, %150, %151
  ret void
}

; Function Attrs: argmemonly nounwind
declare void @llvm.lifetime.start.p0i8(i64 immarg, i8* nocapture) #1

; Function Attrs: argmemonly nounwind
declare void @llvm.memcpy.p0i8.p0i8.i64(i8* nocapture writeonly, i8* nocapture readonly, i64, i1 immarg) #1

; Function Attrs: argmemonly nounwind
declare void @llvm.lifetime.end.p0i8(i64 immarg, i8* nocapture) #1

; Function Attrs: argmemonly nounwind
declare void @llvm.memset.p0i8.i64(i8* nocapture writeonly, i8, i64, i1 immarg) #1

; Function Attrs: nounwind ssp uwtable
define linkonce_odr hidden void @_ZN3url15RawCanonOutputTIcLi1024EED2Ev(%"class.url::RawCanonOutputT"*) unnamed_addr #0 comdat align 2 {
  %2 = getelementptr inbounds %"class.url::RawCanonOutputT", %"class.url::RawCanonOutputT"* %0, i64 0, i32 0, i32 0
  store i32 (...)** bitcast (i8** getelementptr inbounds ({ [5 x i8*] }, { [5 x i8*] }* @_ZTVN3url15RawCanonOutputTIcLi1024EEE, i64 0, inrange i32 0, i64 2) to i32 (...)**), i32 (...)*** %2, align 8
  %3 = getelementptr inbounds %"class.url::RawCanonOutputT", %"class.url::RawCanonOutputT"* %0, i64 0, i32 0, i32 1
  %4 = load i8*, i8** %3, align 8
  %5 = getelementptr inbounds %"class.url::RawCanonOutputT", %"class.url::RawCanonOutputT"* %0, i64 0, i32 1, i64 0
  %6 = icmp eq i8* %4, %5
  %7 = icmp eq i8* %4, null
  %8 = or i1 %6, %7
  br i1 %8, label %10, label %9

9:                                                ; preds = %1
  tail call void @_ZdaPv(i8* nonnull %4) #8
  br label %10

10:                                               ; preds = %1, %9
  ret void
}

declare void @_ZN3url18AppendStringOfTypeEPKciNS_15SharedCharTypesEPNS_12CanonOutputTIcEE(i8*, i32, i32, %"class.url::CanonOutputT"*) local_unnamed_addr #2

; Function Attrs: inlinehint nounwind ssp uwtable
define linkonce_odr hidden void @_ZN3url17AppendEscapedCharIhcEEvT_PNS_12CanonOutputTIT0_EE(i8 zeroext, %"class.url::CanonOutputT"*) local_unnamed_addr #3 comdat {
  %3 = getelementptr inbounds %"class.url::CanonOutputT", %"class.url::CanonOutputT"* %1, i64 0, i32 3
  %4 = load i32, i32* %3, align 4
  %5 = getelementptr inbounds %"class.url::CanonOutputT", %"class.url::CanonOutputT"* %1, i64 0, i32 2
  %6 = load i32, i32* %5, align 8
  %7 = icmp slt i32 %4, %6
  br i1 %7, label %8, label %15

8:                                                ; preds = %2
  %9 = getelementptr inbounds %"class.url::CanonOutputT", %"class.url::CanonOutputT"* %1, i64 0, i32 1
  %10 = load i8*, i8** %9, align 8
  %11 = sext i32 %4 to i64
  %12 = getelementptr inbounds i8, i8* %10, i64 %11
  store i8 37, i8* %12, align 1
  %13 = load i32, i32* %3, align 4
  %14 = add nsw i32 %13, 1
  br label %36

15:                                               ; preds = %2
  %16 = icmp eq i32 %6, 0
  %17 = select i1 %16, i32 16, i32 %6
  br label %18

18:                                               ; preds = %15, %21
  %19 = phi i32 [ %22, %21 ], [ %17, %15 ]
  %20 = icmp sgt i32 %19, 1073741823
  br i1 %20, label %38, label %21

21:                                               ; preds = %18
  %22 = shl nsw i32 %19, 1
  %23 = icmp sgt i32 %22, %6
  br i1 %23, label %24, label %18

24:                                               ; preds = %21
  %25 = bitcast %"class.url::CanonOutputT"* %1 to void (%"class.url::CanonOutputT"*, i32)***
  %26 = load void (%"class.url::CanonOutputT"*, i32)**, void (%"class.url::CanonOutputT"*, i32)*** %25, align 8
  %27 = getelementptr inbounds void (%"class.url::CanonOutputT"*, i32)*, void (%"class.url::CanonOutputT"*, i32)** %26, i64 2
  %28 = load void (%"class.url::CanonOutputT"*, i32)*, void (%"class.url::CanonOutputT"*, i32)** %27, align 8
  tail call void %28(%"class.url::CanonOutputT"* %1, i32 %22) #7
  %29 = getelementptr inbounds %"class.url::CanonOutputT", %"class.url::CanonOutputT"* %1, i64 0, i32 1
  %30 = load i8*, i8** %29, align 8
  %31 = load i32, i32* %3, align 4
  %32 = sext i32 %31 to i64
  %33 = getelementptr inbounds i8, i8* %30, i64 %32
  store i8 37, i8* %33, align 1
  %34 = load i32, i32* %3, align 4
  %35 = add nsw i32 %34, 1
  br label %36

36:                                               ; preds = %24, %8
  %37 = phi i32 [ %14, %8 ], [ %35, %24 ]
  store i32 %37, i32* %3, align 4
  br label %38

38:                                               ; preds = %18, %36
  %39 = phi i32 [ %37, %36 ], [ %4, %18 ]
  %40 = zext i8 %0 to i32
  %41 = lshr i32 %40, 4
  %42 = zext i32 %41 to i64
  %43 = getelementptr inbounds [16 x i8], [16 x i8]* @_ZN3url14kHexCharLookupE, i64 0, i64 %42
  %44 = load i8, i8* %43, align 1
  %45 = load i32, i32* %5, align 8
  %46 = icmp slt i32 %39, %45
  br i1 %46, label %47, label %54

47:                                               ; preds = %38
  %48 = getelementptr inbounds %"class.url::CanonOutputT", %"class.url::CanonOutputT"* %1, i64 0, i32 1
  %49 = load i8*, i8** %48, align 8
  %50 = sext i32 %39 to i64
  %51 = getelementptr inbounds i8, i8* %49, i64 %50
  store i8 %44, i8* %51, align 1
  %52 = load i32, i32* %3, align 4
  %53 = add nsw i32 %52, 1
  br label %75

54:                                               ; preds = %38
  %55 = icmp eq i32 %45, 0
  %56 = select i1 %55, i32 16, i32 %45
  br label %57

57:                                               ; preds = %54, %60
  %58 = phi i32 [ %61, %60 ], [ %56, %54 ]
  %59 = icmp sgt i32 %58, 1073741823
  br i1 %59, label %77, label %60

60:                                               ; preds = %57
  %61 = shl nsw i32 %58, 1
  %62 = icmp sgt i32 %61, %45
  br i1 %62, label %63, label %57

63:                                               ; preds = %60
  %64 = bitcast %"class.url::CanonOutputT"* %1 to void (%"class.url::CanonOutputT"*, i32)***
  %65 = load void (%"class.url::CanonOutputT"*, i32)**, void (%"class.url::CanonOutputT"*, i32)*** %64, align 8
  %66 = getelementptr inbounds void (%"class.url::CanonOutputT"*, i32)*, void (%"class.url::CanonOutputT"*, i32)** %65, i64 2
  %67 = load void (%"class.url::CanonOutputT"*, i32)*, void (%"class.url::CanonOutputT"*, i32)** %66, align 8
  tail call void %67(%"class.url::CanonOutputT"* %1, i32 %61) #7
  %68 = getelementptr inbounds %"class.url::CanonOutputT", %"class.url::CanonOutputT"* %1, i64 0, i32 1
  %69 = load i8*, i8** %68, align 8
  %70 = load i32, i32* %3, align 4
  %71 = sext i32 %70 to i64
  %72 = getelementptr inbounds i8, i8* %69, i64 %71
  store i8 %44, i8* %72, align 1
  %73 = load i32, i32* %3, align 4
  %74 = add nsw i32 %73, 1
  br label %75

75:                                               ; preds = %63, %47
  %76 = phi i32 [ %53, %47 ], [ %74, %63 ]
  store i32 %76, i32* %3, align 4
  br label %77

77:                                               ; preds = %57, %75
  %78 = phi i32 [ %76, %75 ], [ %39, %57 ]
  %79 = and i32 %40, 15
  %80 = zext i32 %79 to i64
  %81 = getelementptr inbounds [16 x i8], [16 x i8]* @_ZN3url14kHexCharLookupE, i64 0, i64 %80
  %82 = load i8, i8* %81, align 1
  %83 = load i32, i32* %5, align 8
  %84 = icmp slt i32 %78, %83
  br i1 %84, label %100, label %85

85:                                               ; preds = %77
  %86 = icmp eq i32 %83, 0
  %87 = select i1 %86, i32 16, i32 %83
  br label %88

88:                                               ; preds = %85, %91
  %89 = phi i32 [ %92, %91 ], [ %87, %85 ]
  %90 = icmp sgt i32 %89, 1073741823
  br i1 %90, label %108, label %91

91:                                               ; preds = %88
  %92 = shl nsw i32 %89, 1
  %93 = icmp sgt i32 %92, %83
  br i1 %93, label %94, label %88

94:                                               ; preds = %91
  %95 = bitcast %"class.url::CanonOutputT"* %1 to void (%"class.url::CanonOutputT"*, i32)***
  %96 = load void (%"class.url::CanonOutputT"*, i32)**, void (%"class.url::CanonOutputT"*, i32)*** %95, align 8
  %97 = getelementptr inbounds void (%"class.url::CanonOutputT"*, i32)*, void (%"class.url::CanonOutputT"*, i32)** %96, i64 2
  %98 = load void (%"class.url::CanonOutputT"*, i32)*, void (%"class.url::CanonOutputT"*, i32)** %97, align 8
  tail call void %98(%"class.url::CanonOutputT"* %1, i32 %92) #7
  %99 = load i32, i32* %3, align 4
  br label %100

100:                                              ; preds = %77, %94
  %101 = phi i32 [ %99, %94 ], [ %78, %77 ]
  %102 = getelementptr inbounds %"class.url::CanonOutputT", %"class.url::CanonOutputT"* %1, i64 0, i32 1
  %103 = load i8*, i8** %102, align 8
  %104 = sext i32 %101 to i64
  %105 = getelementptr inbounds i8, i8* %103, i64 %104
  store i8 %82, i8* %105, align 1
  %106 = load i32, i32* %3, align 4
  %107 = add nsw i32 %106, 1
  store i32 %107, i32* %3, align 4
  br label %108

108:                                              ; preds = %88, %100
  ret void
}

; Function Attrs: inlinehint nounwind ssp uwtable
define linkonce_odr hidden void @_ZN3url14RawCanonOutputILi1024EED0Ev(%"class.url::RawCanonOutput"*) unnamed_addr #3 comdat align 2 {
  %2 = getelementptr inbounds %"class.url::RawCanonOutput", %"class.url::RawCanonOutput"* %0, i64 0, i32 0, i32 0, i32 0
  store i32 (...)** bitcast (i8** getelementptr inbounds ({ [5 x i8*] }, { [5 x i8*] }* @_ZTVN3url15RawCanonOutputTIcLi1024EEE, i64 0, inrange i32 0, i64 2) to i32 (...)**), i32 (...)*** %2, align 8
  %3 = getelementptr inbounds %"class.url::RawCanonOutput", %"class.url::RawCanonOutput"* %0, i64 0, i32 0, i32 0, i32 1
  %4 = load i8*, i8** %3, align 8
  %5 = getelementptr inbounds %"class.url::RawCanonOutput", %"class.url::RawCanonOutput"* %0, i64 0, i32 0, i32 1, i64 0
  %6 = icmp eq i8* %4, %5
  %7 = icmp eq i8* %4, null
  %8 = or i1 %6, %7
  br i1 %8, label %10, label %9

9:                                                ; preds = %1
  tail call void @_ZdaPv(i8* nonnull %4) #8
  br label %10

10:                                               ; preds = %1, %9
  %11 = bitcast %"class.url::RawCanonOutput"* %0 to i8*
  tail call void @_ZdlPv(i8* %11) #8
  ret void
}

; Function Attrs: nounwind ssp uwtable
define linkonce_odr hidden void @_ZN3url15RawCanonOutputTIcLi1024EE6ResizeEi(%"class.url::RawCanonOutputT"*, i32) unnamed_addr #0 comdat align 2 {
  %3 = sext i32 %1 to i64
  %4 = tail call i8* @_Znam(i64 %3) #8
  %5 = getelementptr inbounds %"class.url::RawCanonOutputT", %"class.url::RawCanonOutputT"* %0, i64 0, i32 0, i32 1
  %6 = load i8*, i8** %5, align 8
  %7 = getelementptr inbounds %"class.url::RawCanonOutputT", %"class.url::RawCanonOutputT"* %0, i64 0, i32 0, i32 3
  %8 = load i32, i32* %7, align 4
  %9 = icmp slt i32 %8, %1
  %10 = select i1 %9, i32 %8, i32 %1
  %11 = sext i32 %10 to i64
  tail call void @llvm.memcpy.p0i8.p0i8.i64(i8* nonnull align 1 %4, i8* align 1 %6, i64 %11, i1 false)
  %12 = getelementptr inbounds %"class.url::RawCanonOutputT", %"class.url::RawCanonOutputT"* %0, i64 0, i32 1, i64 0
  %13 = icmp eq i8* %6, %12
  %14 = icmp eq i8* %6, null
  %15 = or i1 %13, %14
  br i1 %15, label %17, label %16

16:                                               ; preds = %2
  tail call void @_ZdaPv(i8* nonnull %6) #8
  br label %17

17:                                               ; preds = %2, %16
  store i8* %4, i8** %5, align 8
  %18 = getelementptr inbounds %"class.url::RawCanonOutputT", %"class.url::RawCanonOutputT"* %0, i64 0, i32 0, i32 2
  store i32 %1, i32* %18, align 8
  ret void
}

; Function Attrs: nounwind ssp uwtable
define linkonce_odr hidden void @_ZN3url15RawCanonOutputTIcLi1024EED0Ev(%"class.url::RawCanonOutputT"*) unnamed_addr #0 comdat align 2 {
  %2 = getelementptr inbounds %"class.url::RawCanonOutputT", %"class.url::RawCanonOutputT"* %0, i64 0, i32 0, i32 0
  store i32 (...)** bitcast (i8** getelementptr inbounds ({ [5 x i8*] }, { [5 x i8*] }* @_ZTVN3url15RawCanonOutputTIcLi1024EEE, i64 0, inrange i32 0, i64 2) to i32 (...)**), i32 (...)*** %2, align 8
  %3 = getelementptr inbounds %"class.url::RawCanonOutputT", %"class.url::RawCanonOutputT"* %0, i64 0, i32 0, i32 1
  %4 = load i8*, i8** %3, align 8
  %5 = getelementptr inbounds %"class.url::RawCanonOutputT", %"class.url::RawCanonOutputT"* %0, i64 0, i32 1, i64 0
  %6 = icmp eq i8* %4, %5
  %7 = icmp eq i8* %4, null
  %8 = or i1 %6, %7
  br i1 %8, label %10, label %9

9:                                                ; preds = %1
  tail call void @_ZdaPv(i8* nonnull %4) #8
  br label %10

10:                                               ; preds = %1, %9
  %11 = bitcast %"class.url::RawCanonOutputT"* %0 to i8*
  tail call void @_ZdlPv(i8* %11) #8
  ret void
}

; Function Attrs: nobuiltin nounwind
declare void @_ZdaPv(i8*) local_unnamed_addr #4

; Function Attrs: nobuiltin nounwind
declare void @_ZdlPv(i8*) local_unnamed_addr #4

; Function Attrs: nobuiltin nofree
declare noalias nonnull i8* @_Znam(i64) local_unnamed_addr #5

declare zeroext i1 @_ZN3url18ConvertUTF8ToUTF16EPKciPNS_12CanonOutputTIDsEE(i8*, i32, %"class.url::CanonOutputT.1"*) local_unnamed_addr #2

; Function Attrs: inlinehint nounwind ssp uwtable
define linkonce_odr hidden void @_ZN3url15RawCanonOutputWILi1024EED0Ev(%"class.url::RawCanonOutputW"*) unnamed_addr #3 comdat align 2 {
  %2 = getelementptr inbounds %"class.url::RawCanonOutputW", %"class.url::RawCanonOutputW"* %0, i64 0, i32 0, i32 0, i32 0
  store i32 (...)** bitcast (i8** getelementptr inbounds ({ [5 x i8*] }, { [5 x i8*] }* @_ZTVN3url15RawCanonOutputTIDsLi1024EEE, i64 0, inrange i32 0, i64 2) to i32 (...)**), i32 (...)*** %2, align 8
  %3 = getelementptr inbounds %"class.url::RawCanonOutputW", %"class.url::RawCanonOutputW"* %0, i64 0, i32 0, i32 0, i32 1
  %4 = load i16*, i16** %3, align 8
  %5 = getelementptr inbounds %"class.url::RawCanonOutputW", %"class.url::RawCanonOutputW"* %0, i64 0, i32 0, i32 1, i64 0
  %6 = icmp eq i16* %4, %5
  %7 = icmp eq i16* %4, null
  %8 = or i1 %6, %7
  br i1 %8, label %11, label %9

9:                                                ; preds = %1
  %10 = bitcast i16* %4 to i8*
  tail call void @_ZdaPv(i8* %10) #8
  br label %11

11:                                               ; preds = %1, %9
  %12 = bitcast %"class.url::RawCanonOutputW"* %0 to i8*
  tail call void @_ZdlPv(i8* %12) #8
  ret void
}

; Function Attrs: nounwind ssp uwtable
define linkonce_odr hidden void @_ZN3url15RawCanonOutputTIDsLi1024EE6ResizeEi(%"class.url::RawCanonOutputT.0"*, i32) unnamed_addr #0 comdat align 2 {
  %3 = sext i32 %1 to i64
  %4 = tail call { i64, i1 } @llvm.umul.with.overflow.i64(i64 %3, i64 2)
  %5 = extractvalue { i64, i1 } %4, 1
  %6 = extractvalue { i64, i1 } %4, 0
  %7 = select i1 %5, i64 -1, i64 %6
  %8 = tail call i8* @_Znam(i64 %7) #8
  %9 = getelementptr inbounds %"class.url::RawCanonOutputT.0", %"class.url::RawCanonOutputT.0"* %0, i64 0, i32 0, i32 1
  %10 = bitcast i16** %9 to i8**
  %11 = load i8*, i8** %10, align 8
  %12 = getelementptr inbounds %"class.url::RawCanonOutputT.0", %"class.url::RawCanonOutputT.0"* %0, i64 0, i32 0, i32 3
  %13 = load i32, i32* %12, align 4
  %14 = icmp slt i32 %13, %1
  %15 = select i1 %14, i32 %13, i32 %1
  %16 = sext i32 %15 to i64
  %17 = shl nsw i64 %16, 1
  tail call void @llvm.memcpy.p0i8.p0i8.i64(i8* nonnull align 2 %8, i8* align 2 %11, i64 %17, i1 false)
  %18 = bitcast i8* %11 to i16*
  %19 = getelementptr inbounds %"class.url::RawCanonOutputT.0", %"class.url::RawCanonOutputT.0"* %0, i64 0, i32 1, i64 0
  %20 = icmp eq i16* %19, %18
  %21 = icmp eq i8* %11, null
  %22 = or i1 %20, %21
  br i1 %22, label %24, label %23

23:                                               ; preds = %2
  tail call void @_ZdaPv(i8* nonnull %11) #8
  br label %24

24:                                               ; preds = %2, %23
  store i8* %8, i8** %10, align 8
  %25 = getelementptr inbounds %"class.url::RawCanonOutputT.0", %"class.url::RawCanonOutputT.0"* %0, i64 0, i32 0, i32 2
  store i32 %1, i32* %25, align 8
  ret void
}

; Function Attrs: nounwind ssp uwtable
define linkonce_odr hidden void @_ZN3url15RawCanonOutputTIDsLi1024EED2Ev(%"class.url::RawCanonOutputT.0"*) unnamed_addr #0 comdat align 2 {
  %2 = getelementptr inbounds %"class.url::RawCanonOutputT.0", %"class.url::RawCanonOutputT.0"* %0, i64 0, i32 0, i32 0
  store i32 (...)** bitcast (i8** getelementptr inbounds ({ [5 x i8*] }, { [5 x i8*] }* @_ZTVN3url15RawCanonOutputTIDsLi1024EEE, i64 0, inrange i32 0, i64 2) to i32 (...)**), i32 (...)*** %2, align 8
  %3 = getelementptr inbounds %"class.url::RawCanonOutputT.0", %"class.url::RawCanonOutputT.0"* %0, i64 0, i32 0, i32 1
  %4 = load i16*, i16** %3, align 8
  %5 = getelementptr inbounds %"class.url::RawCanonOutputT.0", %"class.url::RawCanonOutputT.0"* %0, i64 0, i32 1, i64 0
  %6 = icmp eq i16* %4, %5
  %7 = icmp eq i16* %4, null
  %8 = or i1 %6, %7
  br i1 %8, label %11, label %9

9:                                                ; preds = %1
  %10 = bitcast i16* %4 to i8*
  tail call void @_ZdaPv(i8* %10) #8
  br label %11

11:                                               ; preds = %1, %9
  ret void
}

; Function Attrs: nounwind ssp uwtable
define linkonce_odr hidden void @_ZN3url15RawCanonOutputTIDsLi1024EED0Ev(%"class.url::RawCanonOutputT.0"*) unnamed_addr #0 comdat align 2 {
  %2 = getelementptr inbounds %"class.url::RawCanonOutputT.0", %"class.url::RawCanonOutputT.0"* %0, i64 0, i32 0, i32 0
  store i32 (...)** bitcast (i8** getelementptr inbounds ({ [5 x i8*] }, { [5 x i8*] }* @_ZTVN3url15RawCanonOutputTIDsLi1024EEE, i64 0, inrange i32 0, i64 2) to i32 (...)**), i32 (...)*** %2, align 8
  %3 = getelementptr inbounds %"class.url::RawCanonOutputT.0", %"class.url::RawCanonOutputT.0"* %0, i64 0, i32 0, i32 1
  %4 = load i16*, i16** %3, align 8
  %5 = getelementptr inbounds %"class.url::RawCanonOutputT.0", %"class.url::RawCanonOutputT.0"* %0, i64 0, i32 1, i64 0
  %6 = icmp eq i16* %4, %5
  %7 = icmp eq i16* %4, null
  %8 = or i1 %6, %7
  br i1 %8, label %11, label %9

9:                                                ; preds = %1
  %10 = bitcast i16* %4 to i8*
  tail call void @_ZdaPv(i8* %10) #8
  br label %11

11:                                               ; preds = %1, %9
  %12 = bitcast %"class.url::RawCanonOutputT.0"* %0 to i8*
  tail call void @_ZdlPv(i8* %12) #8
  ret void
}

; Function Attrs: nounwind readnone speculatable
declare { i64, i1 } @llvm.umul.with.overflow.i64(i64, i64) #6

declare void @_ZN3url18AppendStringOfTypeEPKDsiNS_15SharedCharTypesEPNS_12CanonOutputTIcEE(i16*, i32, i32, %"class.url::CanonOutputT"*) local_unnamed_addr #2

attributes #0 = { nounwind ssp uwtable "correctly-rounded-divide-sqrt-fp-math"="false" "disable-tail-calls"="false" "less-precise-fpmad"="false" "min-legal-vector-width"="0" "no-frame-pointer-elim"="false" "no-frame-pointer-elim-non-leaf" "no-infs-fp-math"="false" "no-jump-tables"="false" "no-nans-fp-math"="false" "no-signed-zeros-fp-math"="false" "no-trapping-math"="false" "null-pointer-is-valid"="true" "stack-protector-buffer-size"="4" "target-cpu"="x86-64" "target-features"="+cx8,+fxsr,+mmx,+sse,+sse2,+sse3,+x87" "unsafe-fp-math"="false" "use-soft-float"="false" }
attributes #1 = { argmemonly nounwind }
attributes #2 = { "correctly-rounded-divide-sqrt-fp-math"="false" "disable-tail-calls"="false" "less-precise-fpmad"="false" "no-frame-pointer-elim"="false" "no-frame-pointer-elim-non-leaf" "no-infs-fp-math"="false" "no-nans-fp-math"="false" "no-signed-zeros-fp-math"="false" "no-trapping-math"="false" "null-pointer-is-valid"="true" "stack-protector-buffer-size"="4" "target-cpu"="x86-64" "target-features"="+cx8,+fxsr,+mmx,+sse,+sse2,+sse3,+x87" "unsafe-fp-math"="false" "use-soft-float"="false" }
attributes #3 = { inlinehint nounwind ssp uwtable "correctly-rounded-divide-sqrt-fp-math"="false" "disable-tail-calls"="false" "less-precise-fpmad"="false" "min-legal-vector-width"="0" "no-frame-pointer-elim"="false" "no-frame-pointer-elim-non-leaf" "no-infs-fp-math"="false" "no-jump-tables"="false" "no-nans-fp-math"="false" "no-signed-zeros-fp-math"="false" "no-trapping-math"="false" "null-pointer-is-valid"="true" "stack-protector-buffer-size"="4" "target-cpu"="x86-64" "target-features"="+cx8,+fxsr,+mmx,+sse,+sse2,+sse3,+x87" "unsafe-fp-math"="false" "use-soft-float"="false" }
attributes #4 = { nobuiltin nounwind "correctly-rounded-divide-sqrt-fp-math"="false" "disable-tail-calls"="false" "less-precise-fpmad"="false" "no-frame-pointer-elim"="false" "no-frame-pointer-elim-non-leaf" "no-infs-fp-math"="false" "no-nans-fp-math"="false" "no-signed-zeros-fp-math"="false" "no-trapping-math"="false" "null-pointer-is-valid"="true" "stack-protector-buffer-size"="4" "target-cpu"="x86-64" "target-features"="+cx8,+fxsr,+mmx,+sse,+sse2,+sse3,+x87" "unsafe-fp-math"="false" "use-soft-float"="false" }
attributes #5 = { nobuiltin nofree "correctly-rounded-divide-sqrt-fp-math"="false" "disable-tail-calls"="false" "less-precise-fpmad"="false" "no-frame-pointer-elim"="false" "no-frame-pointer-elim-non-leaf" "no-infs-fp-math"="false" "no-nans-fp-math"="false" "no-signed-zeros-fp-math"="false" "no-trapping-math"="false" "null-pointer-is-valid"="true" "stack-protector-buffer-size"="4" "target-cpu"="x86-64" "target-features"="+cx8,+fxsr,+mmx,+sse,+sse2,+sse3,+x87" "unsafe-fp-math"="false" "use-soft-float"="false" }
attributes #6 = { nounwind readnone speculatable }
attributes #7 = { nounwind }
attributes #8 = { builtin nounwind }

!llvm.module.flags = !{!0, !1}

!0 = !{i32 1, !"wchar_size", i32 4}
!1 = !{i32 7, !"PIC Level", i32 2}
