; ModuleID = 'gen/third_party/blink/public/mojom/user_agent/user_agent_metadata.mojom.cc'
source_filename = "gen/third_party/blink/public/mojom/user_agent/user_agent_metadata.mojom.cc"
target datalayout = "e-m:e-i64:64-f80:128-n8:16:32:64-S128"
target triple = "x86_64-unknown-linux-gnu"

module asm ".symver exp, exp@GLIBC_2.2.5"
module asm ".symver exp2, exp2@GLIBC_2.2.5"
module asm ".symver exp2f, exp2f@GLIBC_2.2.5"
module asm ".symver expf, expf@GLIBC_2.2.5"
module asm ".symver lgamma, lgamma@GLIBC_2.2.5"
module asm ".symver lgammaf, lgammaf@GLIBC_2.2.5"
module asm ".symver lgammal, lgammal@GLIBC_2.2.5"
module asm ".symver log, log@GLIBC_2.2.5"
module asm ".symver log2, log2@GLIBC_2.2.5"
module asm ".symver log2f, log2f@GLIBC_2.2.5"
module asm ".symver logf, logf@GLIBC_2.2.5"
module asm ".symver pow, pow@GLIBC_2.2.5"
module asm ".symver powf, powf@GLIBC_2.2.5"

%"class.blink::mojom::UserAgentBrandVersion" = type { %"class.std::__1::basic_string", %"class.std::__1::basic_string" }
%"class.std::__1::basic_string" = type { %"class.std::__1::__compressed_pair" }
%"class.std::__1::__compressed_pair" = type { %"struct.std::__1::__compressed_pair_elem" }
%"struct.std::__1::__compressed_pair_elem" = type { %"struct.std::__1::basic_string<char, std::__1::char_traits<char>, std::__1::allocator<char> >::__rep" }
%"struct.std::__1::basic_string<char, std::__1::char_traits<char>, std::__1::allocator<char> >::__rep" = type { %union.anon }
%union.anon = type { %"struct.std::__1::basic_string<char, std::__1::char_traits<char>, std::__1::allocator<char> >::__long" }
%"struct.std::__1::basic_string<char, std::__1::char_traits<char>, std::__1::allocator<char> >::__long" = type { i8*, i64, i64 }
%"class.blink::mojom::UserAgentMetadata" = type <{ %"class.std::__1::vector.30", %"class.std::__1::basic_string", %"class.std::__1::basic_string", %"class.std::__1::basic_string", %"class.std::__1::basic_string", %"class.std::__1::basic_string", i8, [7 x i8] }>
%"class.std::__1::vector.30" = type { %"class.std::__1::__vector_base.31" }
%"class.std::__1::__vector_base.31" = type { %"struct.blink::UserAgentBrandVersion"*, %"struct.blink::UserAgentBrandVersion"*, %"class.std::__1::__compressed_pair.32" }
%"struct.blink::UserAgentBrandVersion" = type { %"class.std::__1::basic_string", %"class.std::__1::basic_string" }
%"class.std::__1::__compressed_pair.32" = type { %"struct.std::__1::__compressed_pair_elem.33" }
%"struct.std::__1::__compressed_pair_elem.33" = type { %"struct.blink::UserAgentBrandVersion"* }
%"class.blink::mojom::UserAgentOverride" = type { %"class.std::__1::basic_string", %"class.absl::optional" }
%"class.absl::optional" = type { %"class.absl::optional_internal::optional_data" }
%"class.absl::optional_internal::optional_data" = type { %"class.absl::optional_internal::optional_data_base" }
%"class.absl::optional_internal::optional_data_base" = type { %"class.absl::optional_internal::optional_data_dtor_base" }
%"class.absl::optional_internal::optional_data_dtor_base" = type { i8, [7 x i8], %union.anon.37 }
%union.anon.37 = type { %"struct.blink::UserAgentMetadata" }
%"struct.blink::UserAgentMetadata" = type <{ %"class.std::__1::vector.30", %"class.std::__1::basic_string", %"class.std::__1::basic_string", %"class.std::__1::basic_string", %"class.std::__1::basic_string", %"class.std::__1::basic_string", i8, [7 x i8] }>
%"struct.std::__1::basic_string<char, std::__1::char_traits<char>, std::__1::allocator<char> >::__short" = type { [23 x i8], %struct.anon }
%struct.anon = type { i8 }
%"class.perfetto::TracedValue" = type <{ %"class.perfetto::protos::pbzero::DebugAnnotation"*, %"class.perfetto::internal::CheckedScope", [7 x i8] }>
%"class.perfetto::protos::pbzero::DebugAnnotation" = type { %"class.protozero::Message.base", [7 x i8] }
%"class.protozero::Message.base" = type <{ %"class.protozero::ScatteredStreamWriter"*, %"class.protozero::MessageArena"*, %"class.protozero::Message"*, i8*, i32, i32, i8 }>
%"class.protozero::ScatteredStreamWriter" = type { %"class.protozero::ScatteredStreamWriter::Delegate"*, %"struct.protozero::ContiguousMemoryRange", i8*, i64 }
%"class.protozero::ScatteredStreamWriter::Delegate" = type { i32 (...)** }
%"struct.protozero::ContiguousMemoryRange" = type { i8*, i8* }
%"class.protozero::MessageArena" = type { %"class.std::__1::list" }
%"class.std::__1::list" = type { %"class.std::__1::__list_imp" }
%"class.std::__1::__list_imp" = type { %"struct.std::__1::__list_node_base", %"class.std::__1::__compressed_pair.1" }
%"struct.std::__1::__list_node_base" = type { %"struct.std::__1::__list_node_base"*, %"struct.std::__1::__list_node_base"* }
%"class.std::__1::__compressed_pair.1" = type { %"struct.std::__1::__compressed_pair_elem.2" }
%"struct.std::__1::__compressed_pair_elem.2" = type { i64 }
%"class.protozero::Message" = type <{ %"class.protozero::ScatteredStreamWriter"*, %"class.protozero::MessageArena"*, %"class.protozero::Message"*, i8*, i32, i32, i8, [7 x i8] }>
%"class.perfetto::internal::CheckedScope" = type { i8 }
%"class.perfetto::TracedDictionary" = type <{ %"class.protozero::Message"*, i32, %"class.perfetto::internal::CheckedScope", [3 x i8] }>
%"class.mojo::internal::ValidationContext" = type <{ %"class.mojo::Message"*, i8*, i32, [4 x i8], i64, i64, i32, i32, i32, i32, i32, [4 x i8] }>
%"class.mojo::Message" = type { %"class.mojo::ScopedHandleBase", %"class.mojo::internal::Buffer", %"class.std::__1::vector", %"class.std::__1::vector.12", %"class.mojo::ConnectionGroup::Ref"*, i8, i8, i8* }
%"class.mojo::ScopedHandleBase" = type { %"class.mojo::MessageHandle" }
%"class.mojo::MessageHandle" = type { i64 }
%"class.mojo::internal::Buffer" = type { %"class.mojo::MessageHandle", i64, i8*, i64, i64 }
%"class.std::__1::vector" = type { %"class.std::__1::__vector_base" }
%"class.std::__1::__vector_base" = type { %"class.mojo::ScopedHandleBase.6"*, %"class.mojo::ScopedHandleBase.6"*, %"class.std::__1::__compressed_pair.7" }
%"class.mojo::ScopedHandleBase.6" = type { %"class.mojo::Handle" }
%"class.mojo::Handle" = type { i32 }
%"class.std::__1::__compressed_pair.7" = type { %"struct.std::__1::__compressed_pair_elem.8" }
%"struct.std::__1::__compressed_pair_elem.8" = type { %"class.mojo::ScopedHandleBase.6"* }
%"class.std::__1::vector.12" = type { %"class.std::__1::__vector_base.13" }
%"class.std::__1::__vector_base.13" = type { %"class.mojo::ScopedInterfaceEndpointHandle"*, %"class.mojo::ScopedInterfaceEndpointHandle"*, %"class.std::__1::__compressed_pair.14" }
%"class.mojo::ScopedInterfaceEndpointHandle" = type { %class.scoped_refptr }
%class.scoped_refptr = type { %"class.mojo::ScopedInterfaceEndpointHandle::State"* }
%"class.mojo::ScopedInterfaceEndpointHandle::State" = type opaque
%"class.std::__1::__compressed_pair.14" = type { %"struct.std::__1::__compressed_pair_elem.15" }
%"struct.std::__1::__compressed_pair_elem.15" = type { %"class.mojo::ScopedInterfaceEndpointHandle"* }
%"class.mojo::ConnectionGroup::Ref" = type { i32, %class.scoped_refptr.19 }
%class.scoped_refptr.19 = type { %"class.mojo::ConnectionGroup"* }
%"class.mojo::ConnectionGroup" = type <{ i32 (...)**, %"class.base::RefCountedThreadSafe", [4 x i8], %"class.base::RepeatingCallback", %class.scoped_refptr.23, %"class.mojo::ConnectionGroup::Ref", %"struct.std::__1::atomic.25", [4 x i8] }>
%"class.base::RefCountedThreadSafe" = type { %"class.base::subtle::RefCountedThreadSafeBase" }
%"class.base::subtle::RefCountedThreadSafeBase" = type { %"class.base::AtomicRefCount" }
%"class.base::AtomicRefCount" = type { %"struct.std::__1::atomic" }
%"struct.std::__1::atomic" = type { %"struct.std::__1::__atomic_base" }
%"struct.std::__1::__atomic_base" = type { %"struct.std::__1::__atomic_base.20" }
%"struct.std::__1::__atomic_base.20" = type { %"struct.std::__1::__cxx_atomic_impl" }
%"struct.std::__1::__cxx_atomic_impl" = type { %"struct.std::__1::__cxx_atomic_base_impl" }
%"struct.std::__1::__cxx_atomic_base_impl" = type { i32 }
%"class.base::RepeatingCallback" = type { %"class.base::internal::CallbackBaseCopyable" }
%"class.base::internal::CallbackBaseCopyable" = type { %"class.base::internal::CallbackBase" }
%"class.base::internal::CallbackBase" = type { %class.scoped_refptr.21 }
%class.scoped_refptr.21 = type { %"class.base::internal::BindStateBase"* }
%"class.base::internal::BindStateBase" = type { %"class.base::RefCountedThreadSafe.22", void ()*, void (%"class.base::internal::BindStateBase"*)*, i1 (%"class.base::internal::BindStateBase"*, i32)* }
%"class.base::RefCountedThreadSafe.22" = type { %"class.base::subtle::RefCountedThreadSafeBase" }
%class.scoped_refptr.23 = type { %"class.base::SequencedTaskRunner"* }
%"class.base::SequencedTaskRunner" = type { %"class.base::TaskRunner.base", [4 x i8] }
%"class.base::TaskRunner.base" = type <{ i32 (...)**, %"class.base::RefCountedThreadSafe.24" }>
%"class.base::RefCountedThreadSafe.24" = type { %"class.base::subtle::RefCountedThreadSafeBase" }
%"struct.std::__1::atomic.25" = type { %"struct.std::__1::__atomic_base.26" }
%"struct.std::__1::__atomic_base.26" = type { %"struct.std::__1::__atomic_base.27" }
%"struct.std::__1::__atomic_base.27" = type { %"struct.std::__1::__cxx_atomic_impl.28" }
%"struct.std::__1::__cxx_atomic_impl.28" = type { %"struct.std::__1::__cxx_atomic_base_impl.29" }
%"struct.std::__1::__cxx_atomic_base_impl.29" = type { i32 }
%"class.blink::mojom::internal::UserAgentBrandVersion_Data" = type { %"struct.mojo::internal::StructHeader", %"struct.mojo::internal::Pointer", %"struct.mojo::internal::Pointer" }
%"struct.mojo::internal::StructHeader" = type { i32, i32 }
%"struct.mojo::internal::Pointer" = type { i64 }
%"class.mojo::InlinedStructPtr" = type <{ %"class.blink::mojom::UserAgentBrandVersion", i32, [4 x i8] }>
%"class.blink::mojom::internal::UserAgentMetadata_Data" = type { %"struct.mojo::internal::StructHeader", %"struct.mojo::internal::Pointer.38", %"struct.mojo::internal::Pointer", %"struct.mojo::internal::Pointer", %"struct.mojo::internal::Pointer", %"struct.mojo::internal::Pointer", %"struct.mojo::internal::Pointer", i8, [7 x i8] }
%"struct.mojo::internal::Pointer.38" = type { i64 }
%"class.mojo::StructPtr" = type { %"class.std::__1::unique_ptr" }
%"class.std::__1::unique_ptr" = type { %"class.std::__1::__compressed_pair.39" }
%"class.std::__1::__compressed_pair.39" = type { %"struct.std::__1::__compressed_pair_elem.40" }
%"struct.std::__1::__compressed_pair_elem.40" = type { %"class.blink::mojom::UserAgentMetadata"* }
%"class.mojo::internal::Array_Data.54" = type { %"struct.mojo::internal::ArrayHeader" }
%"struct.mojo::internal::ArrayHeader" = type { i32, i32 }
%"class.blink::mojom::internal::UserAgentOverride_Data" = type { %"struct.mojo::internal::StructHeader", %"struct.mojo::internal::Pointer", %"struct.mojo::internal::Pointer.42" }
%"struct.mojo::internal::Pointer.42" = type { i64 }
%"class.mojo::StructPtr.43" = type { %"class.std::__1::unique_ptr.44" }
%"class.std::__1::unique_ptr.44" = type { %"class.std::__1::__compressed_pair.45" }
%"class.std::__1::__compressed_pair.45" = type { %"struct.std::__1::__compressed_pair_elem.46" }
%"struct.std::__1::__compressed_pair_elem.46" = type { %"class.blink::mojom::UserAgentOverride"* }
%"class.std::__1::__vector_base_common" = type { i8 }

$_ZN5blink17UserAgentMetadataC2ERKS0_ = comdat any

$_ZNSt3__16vectorIN5blink21UserAgentBrandVersionENS_9allocatorIS2_EEEC2ERKS5_ = comdat any

$_ZN5blink17UserAgentMetadataD2Ev = comdat any

$_ZNSt3__14swapIN5blink5mojom21UserAgentBrandVersionEEENS_9enable_ifIXaasr21is_move_constructibleIT_EE5valuesr18is_move_assignableIS5_EE5valueEvE4typeERS5_S8_ = comdat any

$_ZN4mojo8internal10SerializerINS_13ArrayDataViewIN5blink5mojom29UserAgentBrandVersionDataViewEEENSt3__16vectorINS3_21UserAgentBrandVersionENS7_9allocatorIS9_EEEEE11DeserializeEPNS0_10Array_DataINS0_7PointerINS4_8internal26UserAgentBrandVersion_DataEEEEEPSC_PNS_7MessageE = comdat any

$_ZN4mojo11ArrayTraitsINSt3__16vectorIN5blink21UserAgentBrandVersionENS1_9allocatorIS4_EEEEE6ResizeERS7_m = comdat any

@.str = private unnamed_addr constant [6 x i8] c"brand\00", align 1
@.str.1 = private unnamed_addr constant [8 x i8] c"<value>\00", align 1
@.str.2 = private unnamed_addr constant [14 x i8] c"major_version\00", align 1
@.str.3 = private unnamed_addr constant [19 x i8] c"brand_version_list\00", align 1
@.str.4 = private unnamed_addr constant [13 x i8] c"full_version\00", align 1
@.str.5 = private unnamed_addr constant [9 x i8] c"platform\00", align 1
@.str.6 = private unnamed_addr constant [17 x i8] c"platform_version\00", align 1
@.str.7 = private unnamed_addr constant [13 x i8] c"architecture\00", align 1
@.str.8 = private unnamed_addr constant [6 x i8] c"model\00", align 1
@.str.9 = private unnamed_addr constant [7 x i8] c"mobile\00", align 1
@.str.10 = private unnamed_addr constant [19 x i8] c"ua_string_override\00", align 1
@.str.11 = private unnamed_addr constant [21 x i8] c"ua_metadata_override\00", align 1

@_ZN5blink5mojom21UserAgentBrandVersionC1Ev = hidden unnamed_addr alias void (%"class.blink::mojom::UserAgentBrandVersion"*), void (%"class.blink::mojom::UserAgentBrandVersion"*)* @_ZN5blink5mojom21UserAgentBrandVersionC2Ev
@_ZN5blink5mojom21UserAgentBrandVersionC1ERKNSt3__112basic_stringIcNS2_11char_traitsIcEENS2_9allocatorIcEEEESA_ = hidden unnamed_addr alias void (%"class.blink::mojom::UserAgentBrandVersion"*, %"class.std::__1::basic_string"*, %"class.std::__1::basic_string"*), void (%"class.blink::mojom::UserAgentBrandVersion"*, %"class.std::__1::basic_string"*, %"class.std::__1::basic_string"*)* @_ZN5blink5mojom21UserAgentBrandVersionC2ERKNSt3__112basic_stringIcNS2_11char_traitsIcEENS2_9allocatorIcEEEESA_
@_ZN5blink5mojom21UserAgentBrandVersionD1Ev = hidden unnamed_addr alias void (%"class.blink::mojom::UserAgentBrandVersion"*), void (%"class.blink::mojom::UserAgentBrandVersion"*)* @_ZN5blink5mojom21UserAgentBrandVersionD2Ev
@_ZN5blink5mojom17UserAgentMetadataC1Ev = hidden unnamed_addr alias void (%"class.blink::mojom::UserAgentMetadata"*), void (%"class.blink::mojom::UserAgentMetadata"*)* @_ZN5blink5mojom17UserAgentMetadataC2Ev
@_ZN5blink5mojom17UserAgentMetadataC1ENSt3__16vectorINS_21UserAgentBrandVersionENS2_9allocatorIS4_EEEERKNS2_12basic_stringIcNS2_11char_traitsIcEENS5_IcEEEESE_SE_SE_SE_b = hidden unnamed_addr alias void (%"class.blink::mojom::UserAgentMetadata"*, %"class.std::__1::vector.30"*, %"class.std::__1::basic_string"*, %"class.std::__1::basic_string"*, %"class.std::__1::basic_string"*, %"class.std::__1::basic_string"*, %"class.std::__1::basic_string"*, i1), void (%"class.blink::mojom::UserAgentMetadata"*, %"class.std::__1::vector.30"*, %"class.std::__1::basic_string"*, %"class.std::__1::basic_string"*, %"class.std::__1::basic_string"*, %"class.std::__1::basic_string"*, %"class.std::__1::basic_string"*, i1)* @_ZN5blink5mojom17UserAgentMetadataC2ENSt3__16vectorINS_21UserAgentBrandVersionENS2_9allocatorIS4_EEEERKNS2_12basic_stringIcNS2_11char_traitsIcEENS5_IcEEEESE_SE_SE_SE_b
@_ZN5blink5mojom17UserAgentMetadataD1Ev = hidden unnamed_addr alias void (%"class.blink::mojom::UserAgentMetadata"*), void (%"class.blink::mojom::UserAgentMetadata"*)* @_ZN5blink5mojom17UserAgentMetadataD2Ev
@_ZN5blink5mojom17UserAgentOverrideC1Ev = hidden unnamed_addr alias void (%"class.blink::mojom::UserAgentOverride"*), void (%"class.blink::mojom::UserAgentOverride"*)* @_ZN5blink5mojom17UserAgentOverrideC2Ev
@_ZN5blink5mojom17UserAgentOverrideC1ERKNSt3__112basic_stringIcNS2_11char_traitsIcEENS2_9allocatorIcEEEERKN4absl8optionalINS_17UserAgentMetadataEEE = hidden unnamed_addr alias void (%"class.blink::mojom::UserAgentOverride"*, %"class.std::__1::basic_string"*, %"class.absl::optional"*), void (%"class.blink::mojom::UserAgentOverride"*, %"class.std::__1::basic_string"*, %"class.absl::optional"*)* @_ZN5blink5mojom17UserAgentOverrideC2ERKNSt3__112basic_stringIcNS2_11char_traitsIcEENS2_9allocatorIcEEEERKN4absl8optionalINS_17UserAgentMetadataEEE
@_ZN5blink5mojom17UserAgentOverrideD1Ev = hidden unnamed_addr alias void (%"class.blink::mojom::UserAgentOverride"*), void (%"class.blink::mojom::UserAgentOverride"*)* @_ZN5blink5mojom17UserAgentOverrideD2Ev

; Function Attrs: nounwind ssp uwtable
define hidden void @_ZN5blink5mojom21UserAgentBrandVersionC2Ev(%"class.blink::mojom::UserAgentBrandVersion"* nocapture) unnamed_addr #0 align 2 {
  %2 = bitcast %"class.blink::mojom::UserAgentBrandVersion"* %0 to i8*
  call void @llvm.memset.p0i8.i64(i8* align 8 %2, i8 0, i64 48, i1 false)
  ret void
}

; Function Attrs: nounwind ssp uwtable
define hidden void @_ZN5blink5mojom21UserAgentBrandVersionC2ERKNSt3__112basic_stringIcNS2_11char_traitsIcEENS2_9allocatorIcEEEESA_(%"class.blink::mojom::UserAgentBrandVersion"*, %"class.std::__1::basic_string"* nocapture readonly dereferenceable(24), %"class.std::__1::basic_string"* nocapture readonly dereferenceable(24)) unnamed_addr #0 align 2 {
  %4 = bitcast %"class.std::__1::basic_string"* %1 to %"struct.std::__1::basic_string<char, std::__1::char_traits<char>, std::__1::allocator<char> >::__short"*
  %5 = getelementptr inbounds %"struct.std::__1::basic_string<char, std::__1::char_traits<char>, std::__1::allocator<char> >::__short", %"struct.std::__1::basic_string<char, std::__1::char_traits<char>, std::__1::allocator<char> >::__short"* %4, i64 0, i32 1, i32 0
  %6 = load i8, i8* %5, align 1
  %7 = icmp slt i8 %6, 0
  br i1 %7, label %11, label %8

8:                                                ; preds = %3
  %9 = bitcast %"class.blink::mojom::UserAgentBrandVersion"* %0 to i8*
  %10 = bitcast %"class.std::__1::basic_string"* %1 to i8*
  tail call void @llvm.memcpy.p0i8.p0i8.i64(i8* align 8 %9, i8* align 8 %10, i64 24, i1 false) #8
  br label %17

11:                                               ; preds = %3
  %12 = getelementptr inbounds %"class.blink::mojom::UserAgentBrandVersion", %"class.blink::mojom::UserAgentBrandVersion"* %0, i64 0, i32 0
  %13 = getelementptr inbounds %"class.std::__1::basic_string", %"class.std::__1::basic_string"* %1, i64 0, i32 0, i32 0, i32 0, i32 0, i32 0, i32 0
  %14 = load i8*, i8** %13, align 8
  %15 = getelementptr inbounds %"class.std::__1::basic_string", %"class.std::__1::basic_string"* %1, i64 0, i32 0, i32 0, i32 0, i32 0, i32 0, i32 1
  %16 = load i64, i64* %15, align 8
  tail call void @_ZNSt3__112basic_stringIcNS_11char_traitsIcEENS_9allocatorIcEEE25__init_copy_ctor_externalEPKcm(%"class.std::__1::basic_string"* %12, i8* %14, i64 %16) #8
  br label %17

17:                                               ; preds = %8, %11
  %18 = getelementptr inbounds %"class.blink::mojom::UserAgentBrandVersion", %"class.blink::mojom::UserAgentBrandVersion"* %0, i64 0, i32 1
  %19 = bitcast %"class.std::__1::basic_string"* %2 to %"struct.std::__1::basic_string<char, std::__1::char_traits<char>, std::__1::allocator<char> >::__short"*
  %20 = getelementptr inbounds %"struct.std::__1::basic_string<char, std::__1::char_traits<char>, std::__1::allocator<char> >::__short", %"struct.std::__1::basic_string<char, std::__1::char_traits<char>, std::__1::allocator<char> >::__short"* %19, i64 0, i32 1, i32 0
  %21 = load i8, i8* %20, align 1
  %22 = icmp slt i8 %21, 0
  br i1 %22, label %26, label %23

23:                                               ; preds = %17
  %24 = bitcast %"class.std::__1::basic_string"* %18 to i8*
  %25 = bitcast %"class.std::__1::basic_string"* %2 to i8*
  tail call void @llvm.memcpy.p0i8.p0i8.i64(i8* align 8 %24, i8* align 8 %25, i64 24, i1 false) #8
  br label %31

26:                                               ; preds = %17
  %27 = getelementptr inbounds %"class.std::__1::basic_string", %"class.std::__1::basic_string"* %2, i64 0, i32 0, i32 0, i32 0, i32 0, i32 0, i32 0
  %28 = load i8*, i8** %27, align 8
  %29 = getelementptr inbounds %"class.std::__1::basic_string", %"class.std::__1::basic_string"* %2, i64 0, i32 0, i32 0, i32 0, i32 0, i32 0, i32 1
  %30 = load i64, i64* %29, align 8
  tail call void @_ZNSt3__112basic_stringIcNS_11char_traitsIcEENS_9allocatorIcEEE25__init_copy_ctor_externalEPKcm(%"class.std::__1::basic_string"* %18, i8* %28, i64 %30) #8
  br label %31

31:                                               ; preds = %23, %26
  ret void
}

; Function Attrs: nounwind ssp uwtable
define hidden void @_ZN5blink5mojom21UserAgentBrandVersionD2Ev(%"class.blink::mojom::UserAgentBrandVersion"* nocapture readonly) unnamed_addr #0 align 2 {
  %2 = getelementptr inbounds %"class.blink::mojom::UserAgentBrandVersion", %"class.blink::mojom::UserAgentBrandVersion"* %0, i64 0, i32 1
  %3 = bitcast %"class.std::__1::basic_string"* %2 to %"struct.std::__1::basic_string<char, std::__1::char_traits<char>, std::__1::allocator<char> >::__short"*
  %4 = getelementptr inbounds %"struct.std::__1::basic_string<char, std::__1::char_traits<char>, std::__1::allocator<char> >::__short", %"struct.std::__1::basic_string<char, std::__1::char_traits<char>, std::__1::allocator<char> >::__short"* %3, i64 0, i32 1, i32 0
  %5 = load i8, i8* %4, align 1
  %6 = icmp slt i8 %5, 0
  br i1 %6, label %7, label %10

7:                                                ; preds = %1
  %8 = getelementptr inbounds %"class.std::__1::basic_string", %"class.std::__1::basic_string"* %2, i64 0, i32 0, i32 0, i32 0, i32 0, i32 0, i32 0
  %9 = load i8*, i8** %8, align 8
  tail call void @_ZdlPv(i8* %9) #9
  br label %10

10:                                               ; preds = %1, %7
  %11 = bitcast %"class.blink::mojom::UserAgentBrandVersion"* %0 to %"struct.std::__1::basic_string<char, std::__1::char_traits<char>, std::__1::allocator<char> >::__short"*
  %12 = getelementptr inbounds %"struct.std::__1::basic_string<char, std::__1::char_traits<char>, std::__1::allocator<char> >::__short", %"struct.std::__1::basic_string<char, std::__1::char_traits<char>, std::__1::allocator<char> >::__short"* %11, i64 0, i32 1, i32 0
  %13 = load i8, i8* %12, align 1
  %14 = icmp slt i8 %13, 0
  br i1 %14, label %15, label %18

15:                                               ; preds = %10
  %16 = getelementptr inbounds %"class.blink::mojom::UserAgentBrandVersion", %"class.blink::mojom::UserAgentBrandVersion"* %0, i64 0, i32 0, i32 0, i32 0, i32 0, i32 0, i32 0, i32 0
  %17 = load i8*, i8** %16, align 8
  tail call void @_ZdlPv(i8* %17) #9
  br label %18

18:                                               ; preds = %10, %15
  ret void
}

; Function Attrs: nounwind ssp uwtable
define hidden void @_ZNK5blink5mojom21UserAgentBrandVersion14WriteIntoTraceEN8perfetto11TracedValueE(%"class.blink::mojom::UserAgentBrandVersion"*, %"class.perfetto::TracedValue"*) local_unnamed_addr #0 align 2 {
  %3 = alloca %"class.perfetto::TracedValue", align 8
  %4 = alloca %"class.perfetto::TracedValue", align 8
  %5 = alloca %"class.perfetto::TracedDictionary", align 8
  %6 = alloca %"class.perfetto::TracedValue", align 8
  %7 = alloca %"class.perfetto::TracedValue", align 8
  %8 = bitcast %"class.perfetto::TracedDictionary"* %5 to i8*
  call void @llvm.lifetime.start.p0i8(i64 16, i8* nonnull %8) #8
  %9 = bitcast %"class.perfetto::TracedDictionary"* %5 to i8*
  call void @llvm.memset.p0i8.i64(i8* nonnull align 8 %9, i8 -86, i64 16, i1 false)
  call void @_ZNO8perfetto11TracedValue15WriteDictionaryEv(%"class.perfetto::TracedDictionary"* nonnull sret %5, %"class.perfetto::TracedValue"* %1) #8
  call void @_ZN8perfetto16TracedDictionary7AddItemENS_12StaticStringE(%"class.perfetto::TracedValue"* nonnull sret %6, %"class.perfetto::TracedDictionary"* nonnull %5, i8* getelementptr inbounds ([6 x i8], [6 x i8]* @.str, i64 0, i64 0)) #8
  %10 = getelementptr inbounds %"class.blink::mojom::UserAgentBrandVersion", %"class.blink::mojom::UserAgentBrandVersion"* %0, i64 0, i32 0
  %11 = bitcast %"class.perfetto::TracedValue"* %6 to i8*
  %12 = bitcast %"class.perfetto::TracedValue"* %3 to i8*
  call void @llvm.lifetime.start.p0i8(i64 16, i8* nonnull %12) #8
  call void @llvm.memcpy.p0i8.p0i8.i64(i8* nonnull align 8 %12, i8* nonnull align 8 %11, i64 16, i1 false) #8
  call void @_ZNO8perfetto11TracedValue11WriteStringERKNSt3__112basic_stringIcNS1_11char_traitsIcEENS1_9allocatorIcEEEE(%"class.perfetto::TracedValue"* nonnull %3, %"class.std::__1::basic_string"* dereferenceable(24) %10) #8
  call void @llvm.lifetime.end.p0i8(i64 16, i8* nonnull %12) #8
  call void @_ZN8perfetto16TracedDictionary7AddItemENS_12StaticStringE(%"class.perfetto::TracedValue"* nonnull sret %7, %"class.perfetto::TracedDictionary"* nonnull %5, i8* getelementptr inbounds ([14 x i8], [14 x i8]* @.str.2, i64 0, i64 0)) #8
  %13 = getelementptr inbounds %"class.blink::mojom::UserAgentBrandVersion", %"class.blink::mojom::UserAgentBrandVersion"* %0, i64 0, i32 1
  %14 = bitcast %"class.perfetto::TracedValue"* %7 to i8*
  %15 = bitcast %"class.perfetto::TracedValue"* %4 to i8*
  call void @llvm.lifetime.start.p0i8(i64 16, i8* nonnull %15) #8
  call void @llvm.memcpy.p0i8.p0i8.i64(i8* nonnull align 8 %15, i8* nonnull align 8 %14, i64 16, i1 false) #8
  call void @_ZNO8perfetto11TracedValue11WriteStringERKNSt3__112basic_stringIcNS1_11char_traitsIcEENS1_9allocatorIcEEEE(%"class.perfetto::TracedValue"* nonnull %4, %"class.std::__1::basic_string"* dereferenceable(24) %13) #8
  call void @llvm.lifetime.end.p0i8(i64 16, i8* nonnull %15) #8
  call void @llvm.lifetime.end.p0i8(i64 16, i8* nonnull %8) #8
  ret void
}

; Function Attrs: argmemonly nounwind
declare void @llvm.lifetime.start.p0i8(i64 immarg, i8* nocapture) #1

declare void @_ZNO8perfetto11TracedValue15WriteDictionaryEv(%"class.perfetto::TracedDictionary"* sret, %"class.perfetto::TracedValue"*) local_unnamed_addr #2

declare void @_ZN8perfetto16TracedDictionary7AddItemENS_12StaticStringE(%"class.perfetto::TracedValue"* sret, %"class.perfetto::TracedDictionary"*, i8*) local_unnamed_addr #2

; Function Attrs: argmemonly nounwind
declare void @llvm.lifetime.end.p0i8(i64 immarg, i8* nocapture) #1

; Function Attrs: nounwind ssp uwtable
define hidden zeroext i1 @_ZN5blink5mojom21UserAgentBrandVersion8ValidateEPKvPN4mojo8internal17ValidationContextE(i8*, %"class.mojo::internal::ValidationContext"*) local_unnamed_addr #0 align 2 {
  %3 = tail call zeroext i1 @_ZN5blink5mojom8internal26UserAgentBrandVersion_Data8ValidateEPKvPN4mojo8internal17ValidationContextE(i8* %0, %"class.mojo::internal::ValidationContext"* %1) #8
  ret i1 %3
}

declare zeroext i1 @_ZN5blink5mojom8internal26UserAgentBrandVersion_Data8ValidateEPKvPN4mojo8internal17ValidationContextE(i8*, %"class.mojo::internal::ValidationContext"*) local_unnamed_addr #2

; Function Attrs: nounwind ssp uwtable
define hidden void @_ZN5blink5mojom17UserAgentMetadataC2Ev(%"class.blink::mojom::UserAgentMetadata"* nocapture) unnamed_addr #0 align 2 {
  %2 = bitcast %"class.blink::mojom::UserAgentMetadata"* %0 to i8*
  call void @llvm.memset.p0i8.i64(i8* align 8 %2, i8 0, i64 145, i1 false)
  ret void
}

; Function Attrs: nounwind ssp uwtable
define hidden void @_ZN5blink5mojom17UserAgentMetadataC2ENSt3__16vectorINS_21UserAgentBrandVersionENS2_9allocatorIS4_EEEERKNS2_12basic_stringIcNS2_11char_traitsIcEENS5_IcEEEESE_SE_SE_SE_b(%"class.blink::mojom::UserAgentMetadata"*, %"class.std::__1::vector.30"* nocapture, %"class.std::__1::basic_string"* nocapture readonly dereferenceable(24), %"class.std::__1::basic_string"* nocapture readonly dereferenceable(24), %"class.std::__1::basic_string"* nocapture readonly dereferenceable(24), %"class.std::__1::basic_string"* nocapture readonly dereferenceable(24), %"class.std::__1::basic_string"* nocapture readonly dereferenceable(24), i1 zeroext) unnamed_addr #0 align 2 {
  %9 = zext i1 %7 to i8
  %10 = bitcast %"class.blink::mojom::UserAgentMetadata"* %0 to i8*
  tail call void @llvm.memset.p0i8.i64(i8* align 8 %10, i8 0, i64 24, i1 false) #8
  %11 = bitcast %"class.std::__1::vector.30"* %1 to i64*
  %12 = load i64, i64* %11, align 8
  %13 = bitcast %"class.blink::mojom::UserAgentMetadata"* %0 to i64*
  store i64 %12, i64* %13, align 8
  %14 = getelementptr inbounds %"class.std::__1::vector.30", %"class.std::__1::vector.30"* %1, i64 0, i32 0, i32 1
  %15 = bitcast %"struct.blink::UserAgentBrandVersion"** %14 to i64*
  %16 = load i64, i64* %15, align 8
  %17 = getelementptr inbounds %"class.blink::mojom::UserAgentMetadata", %"class.blink::mojom::UserAgentMetadata"* %0, i64 0, i32 0, i32 0, i32 1
  %18 = bitcast %"struct.blink::UserAgentBrandVersion"** %17 to i64*
  store i64 %16, i64* %18, align 8
  %19 = getelementptr inbounds %"class.std::__1::vector.30", %"class.std::__1::vector.30"* %1, i64 0, i32 0, i32 2, i32 0, i32 0
  %20 = bitcast %"struct.blink::UserAgentBrandVersion"** %19 to i64*
  %21 = load i64, i64* %20, align 8
  %22 = getelementptr inbounds %"class.blink::mojom::UserAgentMetadata", %"class.blink::mojom::UserAgentMetadata"* %0, i64 0, i32 0, i32 0, i32 2, i32 0, i32 0
  %23 = bitcast %"struct.blink::UserAgentBrandVersion"** %22 to i64*
  store i64 %21, i64* %23, align 8
  %24 = bitcast %"class.std::__1::vector.30"* %1 to i8*
  tail call void @llvm.memset.p0i8.i64(i8* align 8 %24, i8 0, i64 24, i1 false) #8
  %25 = getelementptr inbounds %"class.blink::mojom::UserAgentMetadata", %"class.blink::mojom::UserAgentMetadata"* %0, i64 0, i32 1
  %26 = bitcast %"class.std::__1::basic_string"* %2 to %"struct.std::__1::basic_string<char, std::__1::char_traits<char>, std::__1::allocator<char> >::__short"*
  %27 = getelementptr inbounds %"struct.std::__1::basic_string<char, std::__1::char_traits<char>, std::__1::allocator<char> >::__short", %"struct.std::__1::basic_string<char, std::__1::char_traits<char>, std::__1::allocator<char> >::__short"* %26, i64 0, i32 1, i32 0
  %28 = load i8, i8* %27, align 1
  %29 = icmp slt i8 %28, 0
  br i1 %29, label %33, label %30

30:                                               ; preds = %8
  %31 = bitcast %"class.std::__1::basic_string"* %25 to i8*
  %32 = bitcast %"class.std::__1::basic_string"* %2 to i8*
  tail call void @llvm.memcpy.p0i8.p0i8.i64(i8* align 8 %31, i8* align 8 %32, i64 24, i1 false) #8
  br label %38

33:                                               ; preds = %8
  %34 = getelementptr inbounds %"class.std::__1::basic_string", %"class.std::__1::basic_string"* %2, i64 0, i32 0, i32 0, i32 0, i32 0, i32 0, i32 0
  %35 = load i8*, i8** %34, align 8
  %36 = getelementptr inbounds %"class.std::__1::basic_string", %"class.std::__1::basic_string"* %2, i64 0, i32 0, i32 0, i32 0, i32 0, i32 0, i32 1
  %37 = load i64, i64* %36, align 8
  tail call void @_ZNSt3__112basic_stringIcNS_11char_traitsIcEENS_9allocatorIcEEE25__init_copy_ctor_externalEPKcm(%"class.std::__1::basic_string"* %25, i8* %35, i64 %37) #8
  br label %38

38:                                               ; preds = %30, %33
  %39 = getelementptr inbounds %"class.blink::mojom::UserAgentMetadata", %"class.blink::mojom::UserAgentMetadata"* %0, i64 0, i32 2
  %40 = bitcast %"class.std::__1::basic_string"* %3 to %"struct.std::__1::basic_string<char, std::__1::char_traits<char>, std::__1::allocator<char> >::__short"*
  %41 = getelementptr inbounds %"struct.std::__1::basic_string<char, std::__1::char_traits<char>, std::__1::allocator<char> >::__short", %"struct.std::__1::basic_string<char, std::__1::char_traits<char>, std::__1::allocator<char> >::__short"* %40, i64 0, i32 1, i32 0
  %42 = load i8, i8* %41, align 1
  %43 = icmp slt i8 %42, 0
  br i1 %43, label %47, label %44

44:                                               ; preds = %38
  %45 = bitcast %"class.std::__1::basic_string"* %39 to i8*
  %46 = bitcast %"class.std::__1::basic_string"* %3 to i8*
  tail call void @llvm.memcpy.p0i8.p0i8.i64(i8* align 8 %45, i8* align 8 %46, i64 24, i1 false) #8
  br label %52

47:                                               ; preds = %38
  %48 = getelementptr inbounds %"class.std::__1::basic_string", %"class.std::__1::basic_string"* %3, i64 0, i32 0, i32 0, i32 0, i32 0, i32 0, i32 0
  %49 = load i8*, i8** %48, align 8
  %50 = getelementptr inbounds %"class.std::__1::basic_string", %"class.std::__1::basic_string"* %3, i64 0, i32 0, i32 0, i32 0, i32 0, i32 0, i32 1
  %51 = load i64, i64* %50, align 8
  tail call void @_ZNSt3__112basic_stringIcNS_11char_traitsIcEENS_9allocatorIcEEE25__init_copy_ctor_externalEPKcm(%"class.std::__1::basic_string"* %39, i8* %49, i64 %51) #8
  br label %52

52:                                               ; preds = %44, %47
  %53 = getelementptr inbounds %"class.blink::mojom::UserAgentMetadata", %"class.blink::mojom::UserAgentMetadata"* %0, i64 0, i32 3
  %54 = bitcast %"class.std::__1::basic_string"* %4 to %"struct.std::__1::basic_string<char, std::__1::char_traits<char>, std::__1::allocator<char> >::__short"*
  %55 = getelementptr inbounds %"struct.std::__1::basic_string<char, std::__1::char_traits<char>, std::__1::allocator<char> >::__short", %"struct.std::__1::basic_string<char, std::__1::char_traits<char>, std::__1::allocator<char> >::__short"* %54, i64 0, i32 1, i32 0
  %56 = load i8, i8* %55, align 1
  %57 = icmp slt i8 %56, 0
  br i1 %57, label %61, label %58

58:                                               ; preds = %52
  %59 = bitcast %"class.std::__1::basic_string"* %53 to i8*
  %60 = bitcast %"class.std::__1::basic_string"* %4 to i8*
  tail call void @llvm.memcpy.p0i8.p0i8.i64(i8* align 8 %59, i8* align 8 %60, i64 24, i1 false) #8
  br label %66

61:                                               ; preds = %52
  %62 = getelementptr inbounds %"class.std::__1::basic_string", %"class.std::__1::basic_string"* %4, i64 0, i32 0, i32 0, i32 0, i32 0, i32 0, i32 0
  %63 = load i8*, i8** %62, align 8
  %64 = getelementptr inbounds %"class.std::__1::basic_string", %"class.std::__1::basic_string"* %4, i64 0, i32 0, i32 0, i32 0, i32 0, i32 0, i32 1
  %65 = load i64, i64* %64, align 8
  tail call void @_ZNSt3__112basic_stringIcNS_11char_traitsIcEENS_9allocatorIcEEE25__init_copy_ctor_externalEPKcm(%"class.std::__1::basic_string"* %53, i8* %63, i64 %65) #8
  br label %66

66:                                               ; preds = %58, %61
  %67 = getelementptr inbounds %"class.blink::mojom::UserAgentMetadata", %"class.blink::mojom::UserAgentMetadata"* %0, i64 0, i32 4
  %68 = bitcast %"class.std::__1::basic_string"* %5 to %"struct.std::__1::basic_string<char, std::__1::char_traits<char>, std::__1::allocator<char> >::__short"*
  %69 = getelementptr inbounds %"struct.std::__1::basic_string<char, std::__1::char_traits<char>, std::__1::allocator<char> >::__short", %"struct.std::__1::basic_string<char, std::__1::char_traits<char>, std::__1::allocator<char> >::__short"* %68, i64 0, i32 1, i32 0
  %70 = load i8, i8* %69, align 1
  %71 = icmp slt i8 %70, 0
  br i1 %71, label %75, label %72

72:                                               ; preds = %66
  %73 = bitcast %"class.std::__1::basic_string"* %67 to i8*
  %74 = bitcast %"class.std::__1::basic_string"* %5 to i8*
  tail call void @llvm.memcpy.p0i8.p0i8.i64(i8* align 8 %73, i8* align 8 %74, i64 24, i1 false) #8
  br label %80

75:                                               ; preds = %66
  %76 = getelementptr inbounds %"class.std::__1::basic_string", %"class.std::__1::basic_string"* %5, i64 0, i32 0, i32 0, i32 0, i32 0, i32 0, i32 0
  %77 = load i8*, i8** %76, align 8
  %78 = getelementptr inbounds %"class.std::__1::basic_string", %"class.std::__1::basic_string"* %5, i64 0, i32 0, i32 0, i32 0, i32 0, i32 0, i32 1
  %79 = load i64, i64* %78, align 8
  tail call void @_ZNSt3__112basic_stringIcNS_11char_traitsIcEENS_9allocatorIcEEE25__init_copy_ctor_externalEPKcm(%"class.std::__1::basic_string"* %67, i8* %77, i64 %79) #8
  br label %80

80:                                               ; preds = %72, %75
  %81 = getelementptr inbounds %"class.blink::mojom::UserAgentMetadata", %"class.blink::mojom::UserAgentMetadata"* %0, i64 0, i32 5
  %82 = bitcast %"class.std::__1::basic_string"* %6 to %"struct.std::__1::basic_string<char, std::__1::char_traits<char>, std::__1::allocator<char> >::__short"*
  %83 = getelementptr inbounds %"struct.std::__1::basic_string<char, std::__1::char_traits<char>, std::__1::allocator<char> >::__short", %"struct.std::__1::basic_string<char, std::__1::char_traits<char>, std::__1::allocator<char> >::__short"* %82, i64 0, i32 1, i32 0
  %84 = load i8, i8* %83, align 1
  %85 = icmp slt i8 %84, 0
  br i1 %85, label %89, label %86

86:                                               ; preds = %80
  %87 = bitcast %"class.std::__1::basic_string"* %81 to i8*
  %88 = bitcast %"class.std::__1::basic_string"* %6 to i8*
  tail call void @llvm.memcpy.p0i8.p0i8.i64(i8* align 8 %87, i8* align 8 %88, i64 24, i1 false) #8
  br label %94

89:                                               ; preds = %80
  %90 = getelementptr inbounds %"class.std::__1::basic_string", %"class.std::__1::basic_string"* %6, i64 0, i32 0, i32 0, i32 0, i32 0, i32 0, i32 0
  %91 = load i8*, i8** %90, align 8
  %92 = getelementptr inbounds %"class.std::__1::basic_string", %"class.std::__1::basic_string"* %6, i64 0, i32 0, i32 0, i32 0, i32 0, i32 0, i32 1
  %93 = load i64, i64* %92, align 8
  tail call void @_ZNSt3__112basic_stringIcNS_11char_traitsIcEENS_9allocatorIcEEE25__init_copy_ctor_externalEPKcm(%"class.std::__1::basic_string"* %81, i8* %91, i64 %93) #8
  br label %94

94:                                               ; preds = %86, %89
  %95 = getelementptr inbounds %"class.blink::mojom::UserAgentMetadata", %"class.blink::mojom::UserAgentMetadata"* %0, i64 0, i32 6
  store i8 %9, i8* %95, align 8
  ret void
}

; Function Attrs: nounwind ssp uwtable
define hidden void @_ZN5blink5mojom17UserAgentMetadataD2Ev(%"class.blink::mojom::UserAgentMetadata"* nocapture) unnamed_addr #0 align 2 {
  %2 = getelementptr inbounds %"class.blink::mojom::UserAgentMetadata", %"class.blink::mojom::UserAgentMetadata"* %0, i64 0, i32 5
  %3 = bitcast %"class.std::__1::basic_string"* %2 to %"struct.std::__1::basic_string<char, std::__1::char_traits<char>, std::__1::allocator<char> >::__short"*
  %4 = getelementptr inbounds %"struct.std::__1::basic_string<char, std::__1::char_traits<char>, std::__1::allocator<char> >::__short", %"struct.std::__1::basic_string<char, std::__1::char_traits<char>, std::__1::allocator<char> >::__short"* %3, i64 0, i32 1, i32 0
  %5 = load i8, i8* %4, align 1
  %6 = icmp slt i8 %5, 0
  br i1 %6, label %7, label %10

7:                                                ; preds = %1
  %8 = getelementptr inbounds %"class.std::__1::basic_string", %"class.std::__1::basic_string"* %2, i64 0, i32 0, i32 0, i32 0, i32 0, i32 0, i32 0
  %9 = load i8*, i8** %8, align 8
  tail call void @_ZdlPv(i8* %9) #9
  br label %10

10:                                               ; preds = %1, %7
  %11 = getelementptr inbounds %"class.blink::mojom::UserAgentMetadata", %"class.blink::mojom::UserAgentMetadata"* %0, i64 0, i32 4
  %12 = bitcast %"class.std::__1::basic_string"* %11 to %"struct.std::__1::basic_string<char, std::__1::char_traits<char>, std::__1::allocator<char> >::__short"*
  %13 = getelementptr inbounds %"struct.std::__1::basic_string<char, std::__1::char_traits<char>, std::__1::allocator<char> >::__short", %"struct.std::__1::basic_string<char, std::__1::char_traits<char>, std::__1::allocator<char> >::__short"* %12, i64 0, i32 1, i32 0
  %14 = load i8, i8* %13, align 1
  %15 = icmp slt i8 %14, 0
  br i1 %15, label %16, label %19

16:                                               ; preds = %10
  %17 = getelementptr inbounds %"class.std::__1::basic_string", %"class.std::__1::basic_string"* %11, i64 0, i32 0, i32 0, i32 0, i32 0, i32 0, i32 0
  %18 = load i8*, i8** %17, align 8
  tail call void @_ZdlPv(i8* %18) #9
  br label %19

19:                                               ; preds = %10, %16
  %20 = getelementptr inbounds %"class.blink::mojom::UserAgentMetadata", %"class.blink::mojom::UserAgentMetadata"* %0, i64 0, i32 3
  %21 = bitcast %"class.std::__1::basic_string"* %20 to %"struct.std::__1::basic_string<char, std::__1::char_traits<char>, std::__1::allocator<char> >::__short"*
  %22 = getelementptr inbounds %"struct.std::__1::basic_string<char, std::__1::char_traits<char>, std::__1::allocator<char> >::__short", %"struct.std::__1::basic_string<char, std::__1::char_traits<char>, std::__1::allocator<char> >::__short"* %21, i64 0, i32 1, i32 0
  %23 = load i8, i8* %22, align 1
  %24 = icmp slt i8 %23, 0
  br i1 %24, label %25, label %28

25:                                               ; preds = %19
  %26 = getelementptr inbounds %"class.std::__1::basic_string", %"class.std::__1::basic_string"* %20, i64 0, i32 0, i32 0, i32 0, i32 0, i32 0, i32 0
  %27 = load i8*, i8** %26, align 8
  tail call void @_ZdlPv(i8* %27) #9
  br label %28

28:                                               ; preds = %19, %25
  %29 = getelementptr inbounds %"class.blink::mojom::UserAgentMetadata", %"class.blink::mojom::UserAgentMetadata"* %0, i64 0, i32 2
  %30 = bitcast %"class.std::__1::basic_string"* %29 to %"struct.std::__1::basic_string<char, std::__1::char_traits<char>, std::__1::allocator<char> >::__short"*
  %31 = getelementptr inbounds %"struct.std::__1::basic_string<char, std::__1::char_traits<char>, std::__1::allocator<char> >::__short", %"struct.std::__1::basic_string<char, std::__1::char_traits<char>, std::__1::allocator<char> >::__short"* %30, i64 0, i32 1, i32 0
  %32 = load i8, i8* %31, align 1
  %33 = icmp slt i8 %32, 0
  br i1 %33, label %34, label %37

34:                                               ; preds = %28
  %35 = getelementptr inbounds %"class.std::__1::basic_string", %"class.std::__1::basic_string"* %29, i64 0, i32 0, i32 0, i32 0, i32 0, i32 0, i32 0
  %36 = load i8*, i8** %35, align 8
  tail call void @_ZdlPv(i8* %36) #9
  br label %37

37:                                               ; preds = %28, %34
  %38 = getelementptr inbounds %"class.blink::mojom::UserAgentMetadata", %"class.blink::mojom::UserAgentMetadata"* %0, i64 0, i32 1
  %39 = bitcast %"class.std::__1::basic_string"* %38 to %"struct.std::__1::basic_string<char, std::__1::char_traits<char>, std::__1::allocator<char> >::__short"*
  %40 = getelementptr inbounds %"struct.std::__1::basic_string<char, std::__1::char_traits<char>, std::__1::allocator<char> >::__short", %"struct.std::__1::basic_string<char, std::__1::char_traits<char>, std::__1::allocator<char> >::__short"* %39, i64 0, i32 1, i32 0
  %41 = load i8, i8* %40, align 1
  %42 = icmp slt i8 %41, 0
  br i1 %42, label %43, label %46

43:                                               ; preds = %37
  %44 = getelementptr inbounds %"class.std::__1::basic_string", %"class.std::__1::basic_string"* %38, i64 0, i32 0, i32 0, i32 0, i32 0, i32 0, i32 0
  %45 = load i8*, i8** %44, align 8
  tail call void @_ZdlPv(i8* %45) #9
  br label %46

46:                                               ; preds = %37, %43
  %47 = getelementptr inbounds %"class.blink::mojom::UserAgentMetadata", %"class.blink::mojom::UserAgentMetadata"* %0, i64 0, i32 0, i32 0, i32 0
  %48 = load %"struct.blink::UserAgentBrandVersion"*, %"struct.blink::UserAgentBrandVersion"** %47, align 8
  %49 = icmp eq %"struct.blink::UserAgentBrandVersion"* %48, null
  br i1 %49, label %81, label %50

50:                                               ; preds = %46
  %51 = bitcast %"struct.blink::UserAgentBrandVersion"* %48 to i8*
  %52 = getelementptr inbounds %"class.blink::mojom::UserAgentMetadata", %"class.blink::mojom::UserAgentMetadata"* %0, i64 0, i32 0, i32 0, i32 1
  %53 = load %"struct.blink::UserAgentBrandVersion"*, %"struct.blink::UserAgentBrandVersion"** %52, align 8
  %54 = icmp eq %"struct.blink::UserAgentBrandVersion"* %53, %48
  br i1 %54, label %79, label %55

55:                                               ; preds = %50, %74
  %56 = phi %"struct.blink::UserAgentBrandVersion"* [ %57, %74 ], [ %53, %50 ]
  %57 = getelementptr inbounds %"struct.blink::UserAgentBrandVersion", %"struct.blink::UserAgentBrandVersion"* %56, i64 -1
  %58 = getelementptr inbounds %"struct.blink::UserAgentBrandVersion", %"struct.blink::UserAgentBrandVersion"* %56, i64 -1, i32 1
  %59 = bitcast %"class.std::__1::basic_string"* %58 to %"struct.std::__1::basic_string<char, std::__1::char_traits<char>, std::__1::allocator<char> >::__short"*
  %60 = getelementptr inbounds %"struct.std::__1::basic_string<char, std::__1::char_traits<char>, std::__1::allocator<char> >::__short", %"struct.std::__1::basic_string<char, std::__1::char_traits<char>, std::__1::allocator<char> >::__short"* %59, i64 0, i32 1, i32 0
  %61 = load i8, i8* %60, align 1
  %62 = icmp slt i8 %61, 0
  br i1 %62, label %63, label %66

63:                                               ; preds = %55
  %64 = getelementptr inbounds %"class.std::__1::basic_string", %"class.std::__1::basic_string"* %58, i64 0, i32 0, i32 0, i32 0, i32 0, i32 0, i32 0
  %65 = load i8*, i8** %64, align 8
  tail call void @_ZdlPv(i8* %65) #9
  br label %66

66:                                               ; preds = %63, %55
  %67 = bitcast %"struct.blink::UserAgentBrandVersion"* %57 to %"struct.std::__1::basic_string<char, std::__1::char_traits<char>, std::__1::allocator<char> >::__short"*
  %68 = getelementptr inbounds %"struct.std::__1::basic_string<char, std::__1::char_traits<char>, std::__1::allocator<char> >::__short", %"struct.std::__1::basic_string<char, std::__1::char_traits<char>, std::__1::allocator<char> >::__short"* %67, i64 0, i32 1, i32 0
  %69 = load i8, i8* %68, align 1
  %70 = icmp slt i8 %69, 0
  br i1 %70, label %71, label %74

71:                                               ; preds = %66
  %72 = getelementptr inbounds %"struct.blink::UserAgentBrandVersion", %"struct.blink::UserAgentBrandVersion"* %57, i64 0, i32 0, i32 0, i32 0, i32 0, i32 0, i32 0, i32 0
  %73 = load i8*, i8** %72, align 8
  tail call void @_ZdlPv(i8* %73) #9
  br label %74

74:                                               ; preds = %71, %66
  %75 = icmp eq %"struct.blink::UserAgentBrandVersion"* %57, %48
  br i1 %75, label %76, label %55

76:                                               ; preds = %74
  %77 = bitcast %"class.blink::mojom::UserAgentMetadata"* %0 to i8**
  %78 = load i8*, i8** %77, align 8
  br label %79

79:                                               ; preds = %76, %50
  %80 = phi i8* [ %78, %76 ], [ %51, %50 ]
  store %"struct.blink::UserAgentBrandVersion"* %48, %"struct.blink::UserAgentBrandVersion"** %52, align 8
  tail call void @_ZdlPv(i8* %80) #9
  br label %81

81:                                               ; preds = %46, %79
  ret void
}

; Function Attrs: nounwind ssp uwtable
define hidden void @_ZNK5blink5mojom17UserAgentMetadata14WriteIntoTraceEN8perfetto11TracedValueE(%"class.blink::mojom::UserAgentMetadata"*, %"class.perfetto::TracedValue"*) local_unnamed_addr #0 align 2 {
  %3 = alloca %"class.perfetto::TracedValue", align 8
  %4 = alloca %"class.perfetto::TracedValue", align 8
  %5 = alloca %"class.perfetto::TracedValue", align 8
  %6 = alloca %"class.perfetto::TracedValue", align 8
  %7 = alloca %"class.perfetto::TracedValue", align 8
  %8 = alloca %"class.perfetto::TracedValue", align 8
  %9 = alloca %"class.perfetto::TracedDictionary", align 8
  %10 = alloca %"class.perfetto::TracedValue", align 8
  %11 = alloca %"class.std::__1::basic_string", align 8
  %12 = alloca %"class.perfetto::TracedValue", align 8
  %13 = alloca %"class.perfetto::TracedValue", align 8
  %14 = alloca %"class.perfetto::TracedValue", align 8
  %15 = alloca %"class.perfetto::TracedValue", align 8
  %16 = alloca %"class.perfetto::TracedValue", align 8
  %17 = alloca %"class.perfetto::TracedValue", align 8
  %18 = bitcast %"class.perfetto::TracedDictionary"* %9 to i8*
  call void @llvm.lifetime.start.p0i8(i64 16, i8* nonnull %18) #8
  %19 = bitcast %"class.perfetto::TracedDictionary"* %9 to i8*
  call void @llvm.memset.p0i8.i64(i8* nonnull align 8 %19, i8 -86, i64 16, i1 false)
  call void @_ZNO8perfetto11TracedValue15WriteDictionaryEv(%"class.perfetto::TracedDictionary"* nonnull sret %9, %"class.perfetto::TracedValue"* %1) #8
  call void @_ZN8perfetto16TracedDictionary7AddItemENS_12StaticStringE(%"class.perfetto::TracedValue"* nonnull sret %10, %"class.perfetto::TracedDictionary"* nonnull %9, i8* getelementptr inbounds ([19 x i8], [19 x i8]* @.str.3, i64 0, i64 0)) #8
  %20 = bitcast %"class.std::__1::basic_string"* %11 to i8*
  call void @llvm.lifetime.start.p0i8(i64 24, i8* nonnull %20) #8
  %21 = bitcast %"class.std::__1::basic_string"* %11 to %"struct.std::__1::basic_string<char, std::__1::char_traits<char>, std::__1::allocator<char> >::__short"*
  %22 = getelementptr inbounds %"struct.std::__1::basic_string<char, std::__1::char_traits<char>, std::__1::allocator<char> >::__short", %"struct.std::__1::basic_string<char, std::__1::char_traits<char>, std::__1::allocator<char> >::__short"* %21, i64 0, i32 1, i32 0
  store i8 7, i8* %22, align 1
  call void @llvm.memcpy.p0i8.p0i8.i64(i8* nonnull align 8 %20, i8* align 1 getelementptr inbounds ([8 x i8], [8 x i8]* @.str.1, i64 0, i64 0), i64 7, i1 false) #8
  %23 = getelementptr inbounds i8, i8* %20, i64 7
  store i8 0, i8* %23, align 1
  call void @_ZNO8perfetto11TracedValue11WriteStringERKNSt3__112basic_stringIcNS1_11char_traitsIcEENS1_9allocatorIcEEEE(%"class.perfetto::TracedValue"* nonnull %10, %"class.std::__1::basic_string"* nonnull dereferenceable(24) %11) #8
  %24 = load i8, i8* %22, align 1
  %25 = icmp slt i8 %24, 0
  br i1 %25, label %26, label %29

26:                                               ; preds = %2
  %27 = getelementptr inbounds %"class.std::__1::basic_string", %"class.std::__1::basic_string"* %11, i64 0, i32 0, i32 0, i32 0, i32 0, i32 0, i32 0
  %28 = load i8*, i8** %27, align 8
  call void @_ZdlPv(i8* %28) #9
  br label %29

29:                                               ; preds = %2, %26
  call void @llvm.lifetime.end.p0i8(i64 24, i8* nonnull %20) #8
  call void @_ZN8perfetto16TracedDictionary7AddItemENS_12StaticStringE(%"class.perfetto::TracedValue"* nonnull sret %12, %"class.perfetto::TracedDictionary"* nonnull %9, i8* getelementptr inbounds ([13 x i8], [13 x i8]* @.str.4, i64 0, i64 0)) #8
  %30 = getelementptr inbounds %"class.blink::mojom::UserAgentMetadata", %"class.blink::mojom::UserAgentMetadata"* %0, i64 0, i32 1
  %31 = bitcast %"class.perfetto::TracedValue"* %12 to i8*
  %32 = bitcast %"class.perfetto::TracedValue"* %7 to i8*
  call void @llvm.lifetime.start.p0i8(i64 16, i8* nonnull %32) #8
  call void @llvm.memcpy.p0i8.p0i8.i64(i8* nonnull align 8 %32, i8* nonnull align 8 %31, i64 16, i1 false) #8
  call void @_ZNO8perfetto11TracedValue11WriteStringERKNSt3__112basic_stringIcNS1_11char_traitsIcEENS1_9allocatorIcEEEE(%"class.perfetto::TracedValue"* nonnull %7, %"class.std::__1::basic_string"* dereferenceable(24) %30) #8
  call void @llvm.lifetime.end.p0i8(i64 16, i8* nonnull %32) #8
  call void @_ZN8perfetto16TracedDictionary7AddItemENS_12StaticStringE(%"class.perfetto::TracedValue"* nonnull sret %13, %"class.perfetto::TracedDictionary"* nonnull %9, i8* getelementptr inbounds ([9 x i8], [9 x i8]* @.str.5, i64 0, i64 0)) #8
  %33 = getelementptr inbounds %"class.blink::mojom::UserAgentMetadata", %"class.blink::mojom::UserAgentMetadata"* %0, i64 0, i32 2
  %34 = bitcast %"class.perfetto::TracedValue"* %13 to i8*
  %35 = bitcast %"class.perfetto::TracedValue"* %6 to i8*
  call void @llvm.lifetime.start.p0i8(i64 16, i8* nonnull %35) #8
  call void @llvm.memcpy.p0i8.p0i8.i64(i8* nonnull align 8 %35, i8* nonnull align 8 %34, i64 16, i1 false) #8
  call void @_ZNO8perfetto11TracedValue11WriteStringERKNSt3__112basic_stringIcNS1_11char_traitsIcEENS1_9allocatorIcEEEE(%"class.perfetto::TracedValue"* nonnull %6, %"class.std::__1::basic_string"* dereferenceable(24) %33) #8
  call void @llvm.lifetime.end.p0i8(i64 16, i8* nonnull %35) #8
  call void @_ZN8perfetto16TracedDictionary7AddItemENS_12StaticStringE(%"class.perfetto::TracedValue"* nonnull sret %14, %"class.perfetto::TracedDictionary"* nonnull %9, i8* getelementptr inbounds ([17 x i8], [17 x i8]* @.str.6, i64 0, i64 0)) #8
  %36 = getelementptr inbounds %"class.blink::mojom::UserAgentMetadata", %"class.blink::mojom::UserAgentMetadata"* %0, i64 0, i32 3
  %37 = bitcast %"class.perfetto::TracedValue"* %14 to i8*
  %38 = bitcast %"class.perfetto::TracedValue"* %5 to i8*
  call void @llvm.lifetime.start.p0i8(i64 16, i8* nonnull %38) #8
  call void @llvm.memcpy.p0i8.p0i8.i64(i8* nonnull align 8 %38, i8* nonnull align 8 %37, i64 16, i1 false) #8
  call void @_ZNO8perfetto11TracedValue11WriteStringERKNSt3__112basic_stringIcNS1_11char_traitsIcEENS1_9allocatorIcEEEE(%"class.perfetto::TracedValue"* nonnull %5, %"class.std::__1::basic_string"* dereferenceable(24) %36) #8
  call void @llvm.lifetime.end.p0i8(i64 16, i8* nonnull %38) #8
  call void @_ZN8perfetto16TracedDictionary7AddItemENS_12StaticStringE(%"class.perfetto::TracedValue"* nonnull sret %15, %"class.perfetto::TracedDictionary"* nonnull %9, i8* getelementptr inbounds ([13 x i8], [13 x i8]* @.str.7, i64 0, i64 0)) #8
  %39 = getelementptr inbounds %"class.blink::mojom::UserAgentMetadata", %"class.blink::mojom::UserAgentMetadata"* %0, i64 0, i32 4
  %40 = bitcast %"class.perfetto::TracedValue"* %15 to i8*
  %41 = bitcast %"class.perfetto::TracedValue"* %4 to i8*
  call void @llvm.lifetime.start.p0i8(i64 16, i8* nonnull %41) #8
  call void @llvm.memcpy.p0i8.p0i8.i64(i8* nonnull align 8 %41, i8* nonnull align 8 %40, i64 16, i1 false) #8
  call void @_ZNO8perfetto11TracedValue11WriteStringERKNSt3__112basic_stringIcNS1_11char_traitsIcEENS1_9allocatorIcEEEE(%"class.perfetto::TracedValue"* nonnull %4, %"class.std::__1::basic_string"* dereferenceable(24) %39) #8
  call void @llvm.lifetime.end.p0i8(i64 16, i8* nonnull %41) #8
  call void @_ZN8perfetto16TracedDictionary7AddItemENS_12StaticStringE(%"class.perfetto::TracedValue"* nonnull sret %16, %"class.perfetto::TracedDictionary"* nonnull %9, i8* getelementptr inbounds ([6 x i8], [6 x i8]* @.str.8, i64 0, i64 0)) #8
  %42 = getelementptr inbounds %"class.blink::mojom::UserAgentMetadata", %"class.blink::mojom::UserAgentMetadata"* %0, i64 0, i32 5
  %43 = bitcast %"class.perfetto::TracedValue"* %16 to i8*
  %44 = bitcast %"class.perfetto::TracedValue"* %3 to i8*
  call void @llvm.lifetime.start.p0i8(i64 16, i8* nonnull %44) #8
  call void @llvm.memcpy.p0i8.p0i8.i64(i8* nonnull align 8 %44, i8* nonnull align 8 %43, i64 16, i1 false) #8
  call void @_ZNO8perfetto11TracedValue11WriteStringERKNSt3__112basic_stringIcNS1_11char_traitsIcEENS1_9allocatorIcEEEE(%"class.perfetto::TracedValue"* nonnull %3, %"class.std::__1::basic_string"* dereferenceable(24) %42) #8
  call void @llvm.lifetime.end.p0i8(i64 16, i8* nonnull %44) #8
  call void @_ZN8perfetto16TracedDictionary7AddItemENS_12StaticStringE(%"class.perfetto::TracedValue"* nonnull sret %17, %"class.perfetto::TracedDictionary"* nonnull %9, i8* getelementptr inbounds ([7 x i8], [7 x i8]* @.str.9, i64 0, i64 0)) #8
  %45 = getelementptr inbounds %"class.blink::mojom::UserAgentMetadata", %"class.blink::mojom::UserAgentMetadata"* %0, i64 0, i32 6
  %46 = bitcast %"class.perfetto::TracedValue"* %17 to i8*
  %47 = bitcast %"class.perfetto::TracedValue"* %8 to i8*
  call void @llvm.lifetime.start.p0i8(i64 16, i8* nonnull %47) #8
  call void @llvm.memcpy.p0i8.p0i8.i64(i8* nonnull align 8 %47, i8* nonnull align 8 %46, i64 16, i1 false) #8
  %48 = load i8, i8* %45, align 1, !range !2
  %49 = icmp ne i8 %48, 0
  call void @_ZNO8perfetto11TracedValue12WriteBooleanEb(%"class.perfetto::TracedValue"* nonnull %8, i1 zeroext %49) #8
  call void @llvm.lifetime.end.p0i8(i64 16, i8* nonnull %47) #8
  call void @llvm.lifetime.end.p0i8(i64 16, i8* nonnull %18) #8
  ret void
}

; Function Attrs: nounwind ssp uwtable
define hidden zeroext i1 @_ZN5blink5mojom17UserAgentMetadata8ValidateEPKvPN4mojo8internal17ValidationContextE(i8*, %"class.mojo::internal::ValidationContext"*) local_unnamed_addr #0 align 2 {
  %3 = tail call zeroext i1 @_ZN5blink5mojom8internal22UserAgentMetadata_Data8ValidateEPKvPN4mojo8internal17ValidationContextE(i8* %0, %"class.mojo::internal::ValidationContext"* %1) #8
  ret i1 %3
}

declare zeroext i1 @_ZN5blink5mojom8internal22UserAgentMetadata_Data8ValidateEPKvPN4mojo8internal17ValidationContextE(i8*, %"class.mojo::internal::ValidationContext"*) local_unnamed_addr #2

; Function Attrs: nounwind ssp uwtable
define hidden void @_ZN5blink5mojom17UserAgentOverrideC2Ev(%"class.blink::mojom::UserAgentOverride"* nocapture) unnamed_addr #0 align 2 {
  %2 = getelementptr inbounds %"class.blink::mojom::UserAgentOverride", %"class.blink::mojom::UserAgentOverride"* %0, i64 0, i32 1, i32 0, i32 0, i32 0, i32 2
  %3 = bitcast %union.anon.37* %2 to i8*
  tail call void @llvm.memset.p0i8.i64(i8* align 8 %3, i8 0, i64 152, i1 false) #8
  %4 = bitcast %"class.blink::mojom::UserAgentOverride"* %0 to i8*
  call void @llvm.memset.p0i8.i64(i8* align 8 %4, i8 0, i64 25, i1 false)
  ret void
}

; Function Attrs: nounwind ssp uwtable
define hidden void @_ZN5blink5mojom17UserAgentOverrideC2ERKNSt3__112basic_stringIcNS2_11char_traitsIcEENS2_9allocatorIcEEEERKN4absl8optionalINS_17UserAgentMetadataEEE(%"class.blink::mojom::UserAgentOverride"*, %"class.std::__1::basic_string"* nocapture readonly dereferenceable(24), %"class.absl::optional"* dereferenceable(160)) unnamed_addr #0 align 2 {
  %4 = bitcast %"class.std::__1::basic_string"* %1 to %"struct.std::__1::basic_string<char, std::__1::char_traits<char>, std::__1::allocator<char> >::__short"*
  %5 = getelementptr inbounds %"struct.std::__1::basic_string<char, std::__1::char_traits<char>, std::__1::allocator<char> >::__short", %"struct.std::__1::basic_string<char, std::__1::char_traits<char>, std::__1::allocator<char> >::__short"* %4, i64 0, i32 1, i32 0
  %6 = load i8, i8* %5, align 1
  %7 = icmp slt i8 %6, 0
  br i1 %7, label %11, label %8

8:                                                ; preds = %3
  %9 = bitcast %"class.blink::mojom::UserAgentOverride"* %0 to i8*
  %10 = bitcast %"class.std::__1::basic_string"* %1 to i8*
  tail call void @llvm.memcpy.p0i8.p0i8.i64(i8* align 8 %9, i8* align 8 %10, i64 24, i1 false) #8
  br label %17

11:                                               ; preds = %3
  %12 = getelementptr inbounds %"class.blink::mojom::UserAgentOverride", %"class.blink::mojom::UserAgentOverride"* %0, i64 0, i32 0
  %13 = getelementptr inbounds %"class.std::__1::basic_string", %"class.std::__1::basic_string"* %1, i64 0, i32 0, i32 0, i32 0, i32 0, i32 0, i32 0
  %14 = load i8*, i8** %13, align 8
  %15 = getelementptr inbounds %"class.std::__1::basic_string", %"class.std::__1::basic_string"* %1, i64 0, i32 0, i32 0, i32 0, i32 0, i32 0, i32 1
  %16 = load i64, i64* %15, align 8
  tail call void @_ZNSt3__112basic_stringIcNS_11char_traitsIcEENS_9allocatorIcEEE25__init_copy_ctor_externalEPKcm(%"class.std::__1::basic_string"* %12, i8* %14, i64 %16) #8
  br label %17

17:                                               ; preds = %8, %11
  %18 = getelementptr inbounds %"class.blink::mojom::UserAgentOverride", %"class.blink::mojom::UserAgentOverride"* %0, i64 0, i32 1, i32 0, i32 0, i32 0, i32 0
  %19 = getelementptr inbounds %"class.absl::optional", %"class.absl::optional"* %2, i64 0, i32 0, i32 0, i32 0, i32 0
  tail call void @llvm.memset.p0i8.i64(i8* align 8 %18, i8 0, i64 160, i1 false) #8
  %20 = load i8, i8* %19, align 8, !range !2
  %21 = icmp eq i8 %20, 0
  br i1 %21, label %25, label %22

22:                                               ; preds = %17
  %23 = getelementptr inbounds %"class.absl::optional", %"class.absl::optional"* %2, i64 0, i32 0, i32 0, i32 0, i32 2, i32 0
  %24 = getelementptr inbounds %"class.blink::mojom::UserAgentOverride", %"class.blink::mojom::UserAgentOverride"* %0, i64 0, i32 1, i32 0, i32 0, i32 0, i32 2, i32 0
  tail call void @_ZN5blink17UserAgentMetadataC2ERKS0_(%"struct.blink::UserAgentMetadata"* %24, %"struct.blink::UserAgentMetadata"* dereferenceable(152) %23) #8
  store i8 1, i8* %18, align 8
  br label %25

25:                                               ; preds = %17, %22
  ret void
}

; Function Attrs: nounwind ssp uwtable
define hidden void @_ZN5blink5mojom17UserAgentOverrideD2Ev(%"class.blink::mojom::UserAgentOverride"*) unnamed_addr #0 align 2 {
  %2 = getelementptr inbounds %"class.blink::mojom::UserAgentOverride", %"class.blink::mojom::UserAgentOverride"* %0, i64 0, i32 1, i32 0, i32 0, i32 0, i32 0
  %3 = load i8, i8* %2, align 8, !range !2
  %4 = icmp eq i8 %3, 0
  br i1 %4, label %7, label %5

5:                                                ; preds = %1
  %6 = getelementptr inbounds %"class.blink::mojom::UserAgentOverride", %"class.blink::mojom::UserAgentOverride"* %0, i64 0, i32 1, i32 0, i32 0, i32 0, i32 2, i32 0
  tail call void @_ZN5blink17UserAgentMetadataD2Ev(%"struct.blink::UserAgentMetadata"* %6) #8
  store i8 0, i8* %2, align 8
  br label %7

7:                                                ; preds = %1, %5
  %8 = bitcast %"class.blink::mojom::UserAgentOverride"* %0 to %"struct.std::__1::basic_string<char, std::__1::char_traits<char>, std::__1::allocator<char> >::__short"*
  %9 = getelementptr inbounds %"struct.std::__1::basic_string<char, std::__1::char_traits<char>, std::__1::allocator<char> >::__short", %"struct.std::__1::basic_string<char, std::__1::char_traits<char>, std::__1::allocator<char> >::__short"* %8, i64 0, i32 1, i32 0
  %10 = load i8, i8* %9, align 1
  %11 = icmp slt i8 %10, 0
  br i1 %11, label %12, label %15

12:                                               ; preds = %7
  %13 = getelementptr inbounds %"class.blink::mojom::UserAgentOverride", %"class.blink::mojom::UserAgentOverride"* %0, i64 0, i32 0, i32 0, i32 0, i32 0, i32 0, i32 0, i32 0
  %14 = load i8*, i8** %13, align 8
  tail call void @_ZdlPv(i8* %14) #9
  br label %15

15:                                               ; preds = %7, %12
  ret void
}

; Function Attrs: nounwind ssp uwtable
define hidden void @_ZNK5blink5mojom17UserAgentOverride14WriteIntoTraceEN8perfetto11TracedValueE(%"class.blink::mojom::UserAgentOverride"*, %"class.perfetto::TracedValue"*) local_unnamed_addr #0 align 2 {
  %3 = alloca %"class.perfetto::TracedValue", align 8
  %4 = alloca %"class.perfetto::TracedDictionary", align 8
  %5 = alloca %"class.perfetto::TracedValue", align 8
  %6 = alloca %"class.perfetto::TracedValue", align 8
  %7 = alloca %"class.std::__1::basic_string", align 8
  %8 = bitcast %"class.perfetto::TracedDictionary"* %4 to i8*
  call void @llvm.lifetime.start.p0i8(i64 16, i8* nonnull %8) #8
  %9 = bitcast %"class.perfetto::TracedDictionary"* %4 to i8*
  call void @llvm.memset.p0i8.i64(i8* nonnull align 8 %9, i8 -86, i64 16, i1 false)
  call void @_ZNO8perfetto11TracedValue15WriteDictionaryEv(%"class.perfetto::TracedDictionary"* nonnull sret %4, %"class.perfetto::TracedValue"* %1) #8
  call void @_ZN8perfetto16TracedDictionary7AddItemENS_12StaticStringE(%"class.perfetto::TracedValue"* nonnull sret %5, %"class.perfetto::TracedDictionary"* nonnull %4, i8* getelementptr inbounds ([19 x i8], [19 x i8]* @.str.10, i64 0, i64 0)) #8
  %10 = getelementptr inbounds %"class.blink::mojom::UserAgentOverride", %"class.blink::mojom::UserAgentOverride"* %0, i64 0, i32 0
  %11 = bitcast %"class.perfetto::TracedValue"* %5 to i8*
  %12 = bitcast %"class.perfetto::TracedValue"* %3 to i8*
  call void @llvm.lifetime.start.p0i8(i64 16, i8* nonnull %12) #8
  call void @llvm.memcpy.p0i8.p0i8.i64(i8* nonnull align 8 %12, i8* nonnull align 8 %11, i64 16, i1 false) #8
  call void @_ZNO8perfetto11TracedValue11WriteStringERKNSt3__112basic_stringIcNS1_11char_traitsIcEENS1_9allocatorIcEEEE(%"class.perfetto::TracedValue"* nonnull %3, %"class.std::__1::basic_string"* dereferenceable(24) %10) #8
  call void @llvm.lifetime.end.p0i8(i64 16, i8* nonnull %12) #8
  call void @_ZN8perfetto16TracedDictionary7AddItemENS_12StaticStringE(%"class.perfetto::TracedValue"* nonnull sret %6, %"class.perfetto::TracedDictionary"* nonnull %4, i8* getelementptr inbounds ([21 x i8], [21 x i8]* @.str.11, i64 0, i64 0)) #8
  %13 = bitcast %"class.std::__1::basic_string"* %7 to i8*
  call void @llvm.lifetime.start.p0i8(i64 24, i8* nonnull %13) #8
  %14 = bitcast %"class.std::__1::basic_string"* %7 to %"struct.std::__1::basic_string<char, std::__1::char_traits<char>, std::__1::allocator<char> >::__short"*
  %15 = getelementptr inbounds %"struct.std::__1::basic_string<char, std::__1::char_traits<char>, std::__1::allocator<char> >::__short", %"struct.std::__1::basic_string<char, std::__1::char_traits<char>, std::__1::allocator<char> >::__short"* %14, i64 0, i32 1, i32 0
  store i8 7, i8* %15, align 1
  call void @llvm.memcpy.p0i8.p0i8.i64(i8* nonnull align 8 %13, i8* align 1 getelementptr inbounds ([8 x i8], [8 x i8]* @.str.1, i64 0, i64 0), i64 7, i1 false) #8
  %16 = getelementptr inbounds i8, i8* %13, i64 7
  store i8 0, i8* %16, align 1
  call void @_ZNO8perfetto11TracedValue11WriteStringERKNSt3__112basic_stringIcNS1_11char_traitsIcEENS1_9allocatorIcEEEE(%"class.perfetto::TracedValue"* nonnull %6, %"class.std::__1::basic_string"* nonnull dereferenceable(24) %7) #8
  %17 = load i8, i8* %15, align 1
  %18 = icmp slt i8 %17, 0
  br i1 %18, label %19, label %22

19:                                               ; preds = %2
  %20 = getelementptr inbounds %"class.std::__1::basic_string", %"class.std::__1::basic_string"* %7, i64 0, i32 0, i32 0, i32 0, i32 0, i32 0, i32 0
  %21 = load i8*, i8** %20, align 8
  call void @_ZdlPv(i8* %21) #9
  br label %22

22:                                               ; preds = %2, %19
  call void @llvm.lifetime.end.p0i8(i64 24, i8* nonnull %13) #8
  call void @llvm.lifetime.end.p0i8(i64 16, i8* nonnull %8) #8
  ret void
}

; Function Attrs: nounwind ssp uwtable
define hidden zeroext i1 @_ZN5blink5mojom17UserAgentOverride8ValidateEPKvPN4mojo8internal17ValidationContextE(i8*, %"class.mojo::internal::ValidationContext"*) local_unnamed_addr #0 align 2 {
  %3 = tail call zeroext i1 @_ZN5blink5mojom8internal22UserAgentOverride_Data8ValidateEPKvPN4mojo8internal17ValidationContextE(i8* %0, %"class.mojo::internal::ValidationContext"* %1) #8
  ret i1 %3
}

declare zeroext i1 @_ZN5blink5mojom8internal22UserAgentOverride_Data8ValidateEPKvPN4mojo8internal17ValidationContextE(i8*, %"class.mojo::internal::ValidationContext"*) local_unnamed_addr #2

; Function Attrs: nounwind ssp uwtable
define hidden zeroext i1 @_ZN4mojo12StructTraitsIN5blink5mojom29UserAgentBrandVersionDataViewENS_16InlinedStructPtrINS2_21UserAgentBrandVersionEEEE4ReadES3_PS6_(%"class.blink::mojom::internal::UserAgentBrandVersion_Data"*, %"class.mojo::Message"*, %"class.mojo::InlinedStructPtr"*) local_unnamed_addr #0 align 2 {
  %4 = alloca %"class.mojo::InlinedStructPtr", align 8
  %5 = bitcast %"class.mojo::InlinedStructPtr"* %4 to i8*
  call void @llvm.lifetime.start.p0i8(i64 56, i8* nonnull %5) #8
  call void @llvm.memset.p0i8.i64(i8* nonnull align 8 %5, i8 -86, i64 56, i1 false)
  call void @llvm.memset.p0i8.i64(i8* nonnull align 8 %5, i8 0, i64 48, i1 false) #8, !alias.scope !3
  %6 = getelementptr inbounds %"class.mojo::InlinedStructPtr", %"class.mojo::InlinedStructPtr"* %4, i64 0, i32 1
  store i32 1, i32* %6, align 8, !alias.scope !3
  %7 = getelementptr inbounds %"class.mojo::InlinedStructPtr", %"class.mojo::InlinedStructPtr"* %4, i64 0, i32 0
  %8 = getelementptr inbounds %"class.mojo::InlinedStructPtr", %"class.mojo::InlinedStructPtr"* %4, i64 0, i32 0, i32 0
  %9 = getelementptr inbounds %"class.blink::mojom::internal::UserAgentBrandVersion_Data", %"class.blink::mojom::internal::UserAgentBrandVersion_Data"* %0, i64 0, i32 1
  %10 = getelementptr inbounds %"struct.mojo::internal::Pointer", %"struct.mojo::internal::Pointer"* %9, i64 0, i32 0
  %11 = load i64, i64* %10, align 8
  %12 = icmp eq i64 %11, 0
  %13 = bitcast %"struct.mojo::internal::Pointer"* %9 to i8*
  %14 = getelementptr inbounds i8, i8* %13, i64 %11
  br i1 %12, label %49, label %15

15:                                               ; preds = %3
  %16 = getelementptr inbounds i8, i8* %14, i64 8
  %17 = getelementptr inbounds i8, i8* %14, i64 4
  %18 = bitcast i8* %17 to i32*
  %19 = load i32, i32* %18, align 1
  %20 = zext i32 %19 to i64
  %21 = tail call i1 @llvm.is.constant.i64(i64 %20) #8
  %22 = icmp ult i32 %19, 23
  %23 = and i1 %22, %21
  br i1 %23, label %24, label %32

24:                                               ; preds = %15
  %25 = bitcast %"class.mojo::InlinedStructPtr"* %4 to %"struct.std::__1::basic_string<char, std::__1::char_traits<char>, std::__1::allocator<char> >::__short"*
  %26 = getelementptr inbounds %"struct.std::__1::basic_string<char, std::__1::char_traits<char>, std::__1::allocator<char> >::__short", %"struct.std::__1::basic_string<char, std::__1::char_traits<char>, std::__1::allocator<char> >::__short"* %25, i64 0, i32 1, i32 0
  %27 = trunc i32 %19 to i8
  store i8 %27, i8* %26, align 1
  %28 = icmp eq i32 %19, 0
  br i1 %28, label %30, label %29

29:                                               ; preds = %24
  call void @llvm.memcpy.p0i8.p0i8.i64(i8* nonnull align 8 %5, i8* align 1 %16, i64 %20, i1 false) #8
  br label %30

30:                                               ; preds = %29, %24
  %31 = getelementptr inbounds i8, i8* %5, i64 %20
  store i8 0, i8* %31, align 1
  br label %35

32:                                               ; preds = %15
  %33 = call dereferenceable(24) %"class.std::__1::basic_string"* @_ZNSt3__112basic_stringIcNS_11char_traitsIcEENS_9allocatorIcEEE17__assign_externalEPKcm(%"class.std::__1::basic_string"* nonnull %8, i8* %16, i64 %20) #8
  %34 = bitcast %"class.mojo::InlinedStructPtr"* %4 to %"struct.std::__1::basic_string<char, std::__1::char_traits<char>, std::__1::allocator<char> >::__short"*
  br label %35

35:                                               ; preds = %32, %30
  %36 = phi %"struct.std::__1::basic_string<char, std::__1::char_traits<char>, std::__1::allocator<char> >::__short"* [ %34, %32 ], [ %25, %30 ]
  %37 = getelementptr inbounds %"struct.std::__1::basic_string<char, std::__1::char_traits<char>, std::__1::allocator<char> >::__short", %"struct.std::__1::basic_string<char, std::__1::char_traits<char>, std::__1::allocator<char> >::__short"* %36, i64 0, i32 1, i32 0
  %38 = load i8, i8* %37, align 1
  %39 = icmp slt i8 %38, 0
  %40 = getelementptr inbounds %"class.mojo::InlinedStructPtr", %"class.mojo::InlinedStructPtr"* %4, i64 0, i32 0, i32 0, i32 0, i32 0, i32 0, i32 0, i32 0, i32 0
  %41 = load i8*, i8** %40, align 8
  %42 = select i1 %39, i8* %41, i8* %5
  %43 = getelementptr inbounds %"class.mojo::InlinedStructPtr", %"class.mojo::InlinedStructPtr"* %4, i64 0, i32 0, i32 0, i32 0, i32 0, i32 0, i32 0, i32 0, i32 1
  %44 = load i64, i64* %43, align 8
  %45 = zext i8 %38 to i64
  %46 = select i1 %39, i64 %44, i64 %45
  %47 = call zeroext i1 @_ZN4base12IsStringUTF8ENS_16BasicStringPieceIcNSt3__111char_traitsIcEEEE(i8* %42, i64 %46) #8
  br i1 %47, label %49, label %48

48:                                               ; preds = %35
  call void @_ZN4mojo8internal34RecordInvalidStringDeserializationEv() #8
  br label %49

49:                                               ; preds = %48, %35, %3
  %50 = getelementptr inbounds %"class.mojo::InlinedStructPtr", %"class.mojo::InlinedStructPtr"* %4, i64 0, i32 0, i32 1
  %51 = getelementptr inbounds %"class.blink::mojom::internal::UserAgentBrandVersion_Data", %"class.blink::mojom::internal::UserAgentBrandVersion_Data"* %0, i64 0, i32 2
  %52 = getelementptr inbounds %"struct.mojo::internal::Pointer", %"struct.mojo::internal::Pointer"* %51, i64 0, i32 0
  %53 = load i64, i64* %52, align 8
  %54 = icmp eq i64 %53, 0
  %55 = bitcast %"struct.mojo::internal::Pointer"* %51 to i8*
  %56 = getelementptr inbounds i8, i8* %55, i64 %53
  br i1 %54, label %102, label %57

57:                                               ; preds = %49
  %58 = getelementptr inbounds i8, i8* %56, i64 8
  %59 = getelementptr inbounds i8, i8* %56, i64 4
  %60 = bitcast i8* %59 to i32*
  %61 = load i32, i32* %60, align 1
  %62 = zext i32 %61 to i64
  %63 = call i1 @llvm.is.constant.i64(i64 %62) #8
  %64 = icmp ult i32 %61, 23
  %65 = and i1 %64, %63
  br i1 %65, label %66, label %84

66:                                               ; preds = %57
  %67 = bitcast %"class.std::__1::basic_string"* %50 to %"struct.std::__1::basic_string<char, std::__1::char_traits<char>, std::__1::allocator<char> >::__short"*
  %68 = getelementptr inbounds %"struct.std::__1::basic_string<char, std::__1::char_traits<char>, std::__1::allocator<char> >::__short", %"struct.std::__1::basic_string<char, std::__1::char_traits<char>, std::__1::allocator<char> >::__short"* %67, i64 0, i32 1, i32 0
  %69 = load i8, i8* %68, align 1
  %70 = icmp slt i8 %69, 0
  br i1 %70, label %71, label %75

71:                                               ; preds = %66
  %72 = getelementptr inbounds %"class.mojo::InlinedStructPtr", %"class.mojo::InlinedStructPtr"* %4, i64 0, i32 0, i32 1, i32 0, i32 0, i32 0, i32 0, i32 0, i32 1
  store i64 %62, i64* %72, align 8
  %73 = getelementptr inbounds %"class.std::__1::basic_string", %"class.std::__1::basic_string"* %50, i64 0, i32 0, i32 0, i32 0, i32 0, i32 0, i32 0
  %74 = load i8*, i8** %73, align 8
  br label %78

75:                                               ; preds = %66
  %76 = trunc i32 %61 to i8
  store i8 %76, i8* %68, align 1
  %77 = bitcast %"class.std::__1::basic_string"* %50 to i8*
  br label %78

78:                                               ; preds = %75, %71
  %79 = phi i8* [ %74, %71 ], [ %77, %75 ]
  %80 = icmp eq i32 %61, 0
  br i1 %80, label %82, label %81

81:                                               ; preds = %78
  call void @llvm.memmove.p0i8.p0i8.i64(i8* align 1 %79, i8* align 1 %58, i64 %62, i1 false) #8
  br label %82

82:                                               ; preds = %81, %78
  %83 = getelementptr inbounds i8, i8* %79, i64 %62
  store i8 0, i8* %83, align 1
  br label %87

84:                                               ; preds = %57
  %85 = call dereferenceable(24) %"class.std::__1::basic_string"* @_ZNSt3__112basic_stringIcNS_11char_traitsIcEENS_9allocatorIcEEE17__assign_externalEPKcm(%"class.std::__1::basic_string"* %50, i8* %58, i64 %62) #8
  %86 = bitcast %"class.std::__1::basic_string"* %50 to %"struct.std::__1::basic_string<char, std::__1::char_traits<char>, std::__1::allocator<char> >::__short"*
  br label %87

87:                                               ; preds = %84, %82
  %88 = phi %"struct.std::__1::basic_string<char, std::__1::char_traits<char>, std::__1::allocator<char> >::__short"* [ %86, %84 ], [ %67, %82 ]
  %89 = getelementptr inbounds %"struct.std::__1::basic_string<char, std::__1::char_traits<char>, std::__1::allocator<char> >::__short", %"struct.std::__1::basic_string<char, std::__1::char_traits<char>, std::__1::allocator<char> >::__short"* %88, i64 0, i32 1, i32 0
  %90 = load i8, i8* %89, align 1
  %91 = icmp slt i8 %90, 0
  %92 = getelementptr inbounds %"class.std::__1::basic_string", %"class.std::__1::basic_string"* %50, i64 0, i32 0, i32 0, i32 0, i32 0, i32 0, i32 0
  %93 = load i8*, i8** %92, align 8
  %94 = bitcast %"class.std::__1::basic_string"* %50 to i8*
  %95 = select i1 %91, i8* %93, i8* %94
  %96 = getelementptr inbounds %"class.mojo::InlinedStructPtr", %"class.mojo::InlinedStructPtr"* %4, i64 0, i32 0, i32 1, i32 0, i32 0, i32 0, i32 0, i32 0, i32 1
  %97 = load i64, i64* %96, align 8
  %98 = zext i8 %90 to i64
  %99 = select i1 %91, i64 %97, i64 %98
  %100 = call zeroext i1 @_ZN4base12IsStringUTF8ENS_16BasicStringPieceIcNSt3__111char_traitsIcEEEE(i8* %95, i64 %99) #8
  br i1 %100, label %102, label %101

101:                                              ; preds = %87
  call void @_ZN4mojo8internal34RecordInvalidStringDeserializationEv() #8
  br label %102

102:                                              ; preds = %101, %87, %49
  %103 = getelementptr inbounds %"class.mojo::InlinedStructPtr", %"class.mojo::InlinedStructPtr"* %2, i64 0, i32 1
  store i32 0, i32* %103, align 8
  %104 = getelementptr inbounds %"class.mojo::InlinedStructPtr", %"class.mojo::InlinedStructPtr"* %2, i64 0, i32 0, i32 1
  %105 = bitcast %"class.std::__1::basic_string"* %104 to %"struct.std::__1::basic_string<char, std::__1::char_traits<char>, std::__1::allocator<char> >::__short"*
  %106 = getelementptr inbounds %"struct.std::__1::basic_string<char, std::__1::char_traits<char>, std::__1::allocator<char> >::__short", %"struct.std::__1::basic_string<char, std::__1::char_traits<char>, std::__1::allocator<char> >::__short"* %105, i64 0, i32 1, i32 0
  %107 = load i8, i8* %106, align 1
  %108 = icmp slt i8 %107, 0
  br i1 %108, label %109, label %112

109:                                              ; preds = %102
  %110 = getelementptr inbounds %"class.std::__1::basic_string", %"class.std::__1::basic_string"* %104, i64 0, i32 0, i32 0, i32 0, i32 0, i32 0, i32 0
  %111 = load i8*, i8** %110, align 8
  call void @_ZdlPv(i8* %111) #9
  br label %112

112:                                              ; preds = %109, %102
  %113 = bitcast %"class.mojo::InlinedStructPtr"* %2 to %"struct.std::__1::basic_string<char, std::__1::char_traits<char>, std::__1::allocator<char> >::__short"*
  %114 = getelementptr inbounds %"struct.std::__1::basic_string<char, std::__1::char_traits<char>, std::__1::allocator<char> >::__short", %"struct.std::__1::basic_string<char, std::__1::char_traits<char>, std::__1::allocator<char> >::__short"* %113, i64 0, i32 1, i32 0
  %115 = load i8, i8* %114, align 1
  %116 = icmp slt i8 %115, 0
  br i1 %116, label %117, label %120

117:                                              ; preds = %112
  %118 = getelementptr inbounds %"class.mojo::InlinedStructPtr", %"class.mojo::InlinedStructPtr"* %2, i64 0, i32 0, i32 0, i32 0, i32 0, i32 0, i32 0, i32 0, i32 0
  %119 = load i8*, i8** %118, align 8
  call void @_ZdlPv(i8* %119) #9
  br label %120

120:                                              ; preds = %112, %117
  %121 = bitcast %"class.mojo::InlinedStructPtr"* %2 to i8*
  call void @llvm.memset.p0i8.i64(i8* align 8 %121, i8 0, i64 48, i1 false) #8
  %122 = getelementptr inbounds %"class.mojo::InlinedStructPtr", %"class.mojo::InlinedStructPtr"* %2, i64 0, i32 0
  call void @_ZNSt3__14swapIN5blink5mojom21UserAgentBrandVersionEEENS_9enable_ifIXaasr21is_move_constructibleIT_EE5valuesr18is_move_assignableIS5_EE5valueEvE4typeERS5_S8_(%"class.blink::mojom::UserAgentBrandVersion"* dereferenceable(48) %122, %"class.blink::mojom::UserAgentBrandVersion"* nonnull dereferenceable(48) %7) #8
  %123 = load i32, i32* %103, align 4
  %124 = load i32, i32* %6, align 8
  store i32 %124, i32* %103, align 4
  store i32 %123, i32* %6, align 8
  %125 = bitcast %"class.std::__1::basic_string"* %50 to %"struct.std::__1::basic_string<char, std::__1::char_traits<char>, std::__1::allocator<char> >::__short"*
  %126 = getelementptr inbounds %"struct.std::__1::basic_string<char, std::__1::char_traits<char>, std::__1::allocator<char> >::__short", %"struct.std::__1::basic_string<char, std::__1::char_traits<char>, std::__1::allocator<char> >::__short"* %125, i64 0, i32 1, i32 0
  %127 = load i8, i8* %126, align 1
  %128 = icmp slt i8 %127, 0
  br i1 %128, label %129, label %132

129:                                              ; preds = %120
  %130 = getelementptr inbounds %"class.std::__1::basic_string", %"class.std::__1::basic_string"* %50, i64 0, i32 0, i32 0, i32 0, i32 0, i32 0, i32 0
  %131 = load i8*, i8** %130, align 8
  call void @_ZdlPv(i8* %131) #9
  br label %132

132:                                              ; preds = %129, %120
  %133 = bitcast %"class.mojo::InlinedStructPtr"* %4 to %"struct.std::__1::basic_string<char, std::__1::char_traits<char>, std::__1::allocator<char> >::__short"*
  %134 = getelementptr inbounds %"struct.std::__1::basic_string<char, std::__1::char_traits<char>, std::__1::allocator<char> >::__short", %"struct.std::__1::basic_string<char, std::__1::char_traits<char>, std::__1::allocator<char> >::__short"* %133, i64 0, i32 1, i32 0
  %135 = load i8, i8* %134, align 1
  %136 = icmp slt i8 %135, 0
  br i1 %136, label %137, label %140

137:                                              ; preds = %132
  %138 = getelementptr inbounds %"class.mojo::InlinedStructPtr", %"class.mojo::InlinedStructPtr"* %4, i64 0, i32 0, i32 0, i32 0, i32 0, i32 0, i32 0, i32 0, i32 0
  %139 = load i8*, i8** %138, align 8
  call void @_ZdlPv(i8* %139) #9
  br label %140

140:                                              ; preds = %132, %137
  call void @llvm.lifetime.end.p0i8(i64 56, i8* nonnull %5) #8
  ret i1 true
}

; Function Attrs: argmemonly nounwind
declare void @llvm.memset.p0i8.i64(i8* nocapture writeonly, i8, i64, i1 immarg) #1

; Function Attrs: nounwind ssp uwtable
define hidden zeroext i1 @_ZN4mojo12StructTraitsIN5blink5mojom25UserAgentMetadataDataViewENS_9StructPtrINS2_17UserAgentMetadataEEEE4ReadES3_PS6_(%"class.blink::mojom::internal::UserAgentMetadata_Data"*, %"class.mojo::Message"*, %"class.mojo::StructPtr"* nocapture) local_unnamed_addr #0 align 2 {
  %4 = tail call i8* @_Znwm(i64 152) #9, !noalias !6
  tail call void @llvm.memset.p0i8.i64(i8* nonnull align 8 %4, i8 0, i64 145, i1 false) #8, !noalias !6
  %5 = ptrtoint i8* %4 to i64
  %6 = bitcast i8* %4 to %"class.std::__1::vector.30"*
  %7 = getelementptr inbounds %"class.blink::mojom::internal::UserAgentMetadata_Data", %"class.blink::mojom::internal::UserAgentMetadata_Data"* %0, i64 0, i32 1
  %8 = getelementptr inbounds %"struct.mojo::internal::Pointer.38", %"struct.mojo::internal::Pointer.38"* %7, i64 0, i32 0
  %9 = load i64, i64* %8, align 8
  %10 = icmp eq i64 %9, 0
  %11 = bitcast %"struct.mojo::internal::Pointer.38"* %7 to i8*
  %12 = getelementptr inbounds i8, i8* %11, i64 %9
  %13 = bitcast i8* %12 to %"class.mojo::internal::Array_Data.54"*
  %14 = select i1 %10, %"class.mojo::internal::Array_Data.54"* null, %"class.mojo::internal::Array_Data.54"* %13
  %15 = tail call zeroext i1 @_ZN4mojo8internal10SerializerINS_13ArrayDataViewIN5blink5mojom29UserAgentBrandVersionDataViewEEENSt3__16vectorINS3_21UserAgentBrandVersionENS7_9allocatorIS9_EEEEE11DeserializeEPNS0_10Array_DataINS0_7PointerINS4_8internal26UserAgentBrandVersion_DataEEEEEPSC_PNS_7MessageE(%"class.mojo::internal::Array_Data.54"* %14, %"class.std::__1::vector.30"* nonnull %6, %"class.mojo::Message"* %1) #8
  br i1 %15, label %16, label %276

16:                                               ; preds = %3
  %17 = getelementptr inbounds i8, i8* %4, i64 24
  %18 = bitcast i8* %17 to %"class.std::__1::basic_string"*
  %19 = getelementptr inbounds %"class.blink::mojom::internal::UserAgentMetadata_Data", %"class.blink::mojom::internal::UserAgentMetadata_Data"* %0, i64 0, i32 2
  %20 = getelementptr inbounds %"struct.mojo::internal::Pointer", %"struct.mojo::internal::Pointer"* %19, i64 0, i32 0
  %21 = load i64, i64* %20, align 8
  %22 = icmp eq i64 %21, 0
  %23 = bitcast %"struct.mojo::internal::Pointer"* %19 to i8*
  %24 = getelementptr inbounds i8, i8* %23, i64 %21
  br i1 %22, label %67, label %25

25:                                               ; preds = %16
  %26 = getelementptr inbounds i8, i8* %24, i64 8
  %27 = getelementptr inbounds i8, i8* %24, i64 4
  %28 = bitcast i8* %27 to i32*
  %29 = load i32, i32* %28, align 1
  %30 = zext i32 %29 to i64
  %31 = tail call i1 @llvm.is.constant.i64(i64 %30) #8
  %32 = icmp ult i32 %29, 23
  %33 = and i1 %32, %31
  br i1 %33, label %34, label %51

34:                                               ; preds = %25
  %35 = getelementptr inbounds i8, i8* %4, i64 47
  %36 = load i8, i8* %35, align 1
  %37 = icmp slt i8 %36, 0
  br i1 %37, label %38, label %43

38:                                               ; preds = %34
  %39 = getelementptr inbounds i8, i8* %4, i64 32
  %40 = bitcast i8* %39 to i64*
  store i64 %30, i64* %40, align 8
  %41 = bitcast i8* %17 to i8**
  %42 = load i8*, i8** %41, align 8
  br label %45

43:                                               ; preds = %34
  %44 = trunc i32 %29 to i8
  store i8 %44, i8* %35, align 1
  br label %45

45:                                               ; preds = %43, %38
  %46 = phi i8* [ %42, %38 ], [ %17, %43 ]
  %47 = icmp eq i32 %29, 0
  br i1 %47, label %49, label %48

48:                                               ; preds = %45
  tail call void @llvm.memmove.p0i8.p0i8.i64(i8* align 1 %46, i8* align 1 %26, i64 %30, i1 false) #8
  br label %49

49:                                               ; preds = %48, %45
  %50 = getelementptr inbounds i8, i8* %46, i64 %30
  store i8 0, i8* %50, align 1
  br label %53

51:                                               ; preds = %25
  %52 = tail call dereferenceable(24) %"class.std::__1::basic_string"* @_ZNSt3__112basic_stringIcNS_11char_traitsIcEENS_9allocatorIcEEE17__assign_externalEPKcm(%"class.std::__1::basic_string"* %18, i8* %26, i64 %30) #8
  br label %53

53:                                               ; preds = %51, %49
  %54 = getelementptr inbounds i8, i8* %4, i64 47
  %55 = load i8, i8* %54, align 1
  %56 = icmp slt i8 %55, 0
  %57 = bitcast i8* %17 to i8**
  %58 = load i8*, i8** %57, align 8
  %59 = select i1 %56, i8* %58, i8* %17
  %60 = getelementptr inbounds i8, i8* %4, i64 32
  %61 = bitcast i8* %60 to i64*
  %62 = load i64, i64* %61, align 8
  %63 = zext i8 %55 to i64
  %64 = select i1 %56, i64 %62, i64 %63
  %65 = tail call zeroext i1 @_ZN4base12IsStringUTF8ENS_16BasicStringPieceIcNSt3__111char_traitsIcEEEE(i8* %59, i64 %64) #8
  br i1 %65, label %67, label %66

66:                                               ; preds = %53
  tail call void @_ZN4mojo8internal34RecordInvalidStringDeserializationEv() #8
  br label %67

67:                                               ; preds = %16, %53, %66
  %68 = getelementptr inbounds i8, i8* %4, i64 48
  %69 = bitcast i8* %68 to %"class.std::__1::basic_string"*
  %70 = getelementptr inbounds %"class.blink::mojom::internal::UserAgentMetadata_Data", %"class.blink::mojom::internal::UserAgentMetadata_Data"* %0, i64 0, i32 3
  %71 = getelementptr inbounds %"struct.mojo::internal::Pointer", %"struct.mojo::internal::Pointer"* %70, i64 0, i32 0
  %72 = load i64, i64* %71, align 8
  %73 = icmp eq i64 %72, 0
  %74 = bitcast %"struct.mojo::internal::Pointer"* %70 to i8*
  %75 = getelementptr inbounds i8, i8* %74, i64 %72
  br i1 %73, label %118, label %76

76:                                               ; preds = %67
  %77 = getelementptr inbounds i8, i8* %75, i64 8
  %78 = getelementptr inbounds i8, i8* %75, i64 4
  %79 = bitcast i8* %78 to i32*
  %80 = load i32, i32* %79, align 1
  %81 = zext i32 %80 to i64
  %82 = tail call i1 @llvm.is.constant.i64(i64 %81) #8
  %83 = icmp ult i32 %80, 23
  %84 = and i1 %83, %82
  br i1 %84, label %85, label %102

85:                                               ; preds = %76
  %86 = getelementptr inbounds i8, i8* %4, i64 71
  %87 = load i8, i8* %86, align 1
  %88 = icmp slt i8 %87, 0
  br i1 %88, label %89, label %94

89:                                               ; preds = %85
  %90 = getelementptr inbounds i8, i8* %4, i64 56
  %91 = bitcast i8* %90 to i64*
  store i64 %81, i64* %91, align 8
  %92 = bitcast i8* %68 to i8**
  %93 = load i8*, i8** %92, align 8
  br label %96

94:                                               ; preds = %85
  %95 = trunc i32 %80 to i8
  store i8 %95, i8* %86, align 1
  br label %96

96:                                               ; preds = %94, %89
  %97 = phi i8* [ %93, %89 ], [ %68, %94 ]
  %98 = icmp eq i32 %80, 0
  br i1 %98, label %100, label %99

99:                                               ; preds = %96
  tail call void @llvm.memmove.p0i8.p0i8.i64(i8* align 1 %97, i8* align 1 %77, i64 %81, i1 false) #8
  br label %100

100:                                              ; preds = %99, %96
  %101 = getelementptr inbounds i8, i8* %97, i64 %81
  store i8 0, i8* %101, align 1
  br label %104

102:                                              ; preds = %76
  %103 = tail call dereferenceable(24) %"class.std::__1::basic_string"* @_ZNSt3__112basic_stringIcNS_11char_traitsIcEENS_9allocatorIcEEE17__assign_externalEPKcm(%"class.std::__1::basic_string"* %69, i8* %77, i64 %81) #8
  br label %104

104:                                              ; preds = %102, %100
  %105 = getelementptr inbounds i8, i8* %4, i64 71
  %106 = load i8, i8* %105, align 1
  %107 = icmp slt i8 %106, 0
  %108 = bitcast i8* %68 to i8**
  %109 = load i8*, i8** %108, align 8
  %110 = select i1 %107, i8* %109, i8* %68
  %111 = getelementptr inbounds i8, i8* %4, i64 56
  %112 = bitcast i8* %111 to i64*
  %113 = load i64, i64* %112, align 8
  %114 = zext i8 %106 to i64
  %115 = select i1 %107, i64 %113, i64 %114
  %116 = tail call zeroext i1 @_ZN4base12IsStringUTF8ENS_16BasicStringPieceIcNSt3__111char_traitsIcEEEE(i8* %110, i64 %115) #8
  br i1 %116, label %118, label %117

117:                                              ; preds = %104
  tail call void @_ZN4mojo8internal34RecordInvalidStringDeserializationEv() #8
  br label %118

118:                                              ; preds = %67, %104, %117
  %119 = getelementptr inbounds i8, i8* %4, i64 72
  %120 = bitcast i8* %119 to %"class.std::__1::basic_string"*
  %121 = getelementptr inbounds %"class.blink::mojom::internal::UserAgentMetadata_Data", %"class.blink::mojom::internal::UserAgentMetadata_Data"* %0, i64 0, i32 4
  %122 = getelementptr inbounds %"struct.mojo::internal::Pointer", %"struct.mojo::internal::Pointer"* %121, i64 0, i32 0
  %123 = load i64, i64* %122, align 8
  %124 = icmp eq i64 %123, 0
  %125 = bitcast %"struct.mojo::internal::Pointer"* %121 to i8*
  %126 = getelementptr inbounds i8, i8* %125, i64 %123
  br i1 %124, label %169, label %127

127:                                              ; preds = %118
  %128 = getelementptr inbounds i8, i8* %126, i64 8
  %129 = getelementptr inbounds i8, i8* %126, i64 4
  %130 = bitcast i8* %129 to i32*
  %131 = load i32, i32* %130, align 1
  %132 = zext i32 %131 to i64
  %133 = tail call i1 @llvm.is.constant.i64(i64 %132) #8
  %134 = icmp ult i32 %131, 23
  %135 = and i1 %134, %133
  br i1 %135, label %136, label %153

136:                                              ; preds = %127
  %137 = getelementptr inbounds i8, i8* %4, i64 95
  %138 = load i8, i8* %137, align 1
  %139 = icmp slt i8 %138, 0
  br i1 %139, label %140, label %145

140:                                              ; preds = %136
  %141 = getelementptr inbounds i8, i8* %4, i64 80
  %142 = bitcast i8* %141 to i64*
  store i64 %132, i64* %142, align 8
  %143 = bitcast i8* %119 to i8**
  %144 = load i8*, i8** %143, align 8
  br label %147

145:                                              ; preds = %136
  %146 = trunc i32 %131 to i8
  store i8 %146, i8* %137, align 1
  br label %147

147:                                              ; preds = %145, %140
  %148 = phi i8* [ %144, %140 ], [ %119, %145 ]
  %149 = icmp eq i32 %131, 0
  br i1 %149, label %151, label %150

150:                                              ; preds = %147
  tail call void @llvm.memmove.p0i8.p0i8.i64(i8* align 1 %148, i8* align 1 %128, i64 %132, i1 false) #8
  br label %151

151:                                              ; preds = %150, %147
  %152 = getelementptr inbounds i8, i8* %148, i64 %132
  store i8 0, i8* %152, align 1
  br label %155

153:                                              ; preds = %127
  %154 = tail call dereferenceable(24) %"class.std::__1::basic_string"* @_ZNSt3__112basic_stringIcNS_11char_traitsIcEENS_9allocatorIcEEE17__assign_externalEPKcm(%"class.std::__1::basic_string"* %120, i8* %128, i64 %132) #8
  br label %155

155:                                              ; preds = %153, %151
  %156 = getelementptr inbounds i8, i8* %4, i64 95
  %157 = load i8, i8* %156, align 1
  %158 = icmp slt i8 %157, 0
  %159 = bitcast i8* %119 to i8**
  %160 = load i8*, i8** %159, align 8
  %161 = select i1 %158, i8* %160, i8* %119
  %162 = getelementptr inbounds i8, i8* %4, i64 80
  %163 = bitcast i8* %162 to i64*
  %164 = load i64, i64* %163, align 8
  %165 = zext i8 %157 to i64
  %166 = select i1 %158, i64 %164, i64 %165
  %167 = tail call zeroext i1 @_ZN4base12IsStringUTF8ENS_16BasicStringPieceIcNSt3__111char_traitsIcEEEE(i8* %161, i64 %166) #8
  br i1 %167, label %169, label %168

168:                                              ; preds = %155
  tail call void @_ZN4mojo8internal34RecordInvalidStringDeserializationEv() #8
  br label %169

169:                                              ; preds = %118, %155, %168
  %170 = getelementptr inbounds i8, i8* %4, i64 96
  %171 = bitcast i8* %170 to %"class.std::__1::basic_string"*
  %172 = getelementptr inbounds %"class.blink::mojom::internal::UserAgentMetadata_Data", %"class.blink::mojom::internal::UserAgentMetadata_Data"* %0, i64 0, i32 5
  %173 = getelementptr inbounds %"struct.mojo::internal::Pointer", %"struct.mojo::internal::Pointer"* %172, i64 0, i32 0
  %174 = load i64, i64* %173, align 8
  %175 = icmp eq i64 %174, 0
  %176 = bitcast %"struct.mojo::internal::Pointer"* %172 to i8*
  %177 = getelementptr inbounds i8, i8* %176, i64 %174
  br i1 %175, label %220, label %178

178:                                              ; preds = %169
  %179 = getelementptr inbounds i8, i8* %177, i64 8
  %180 = getelementptr inbounds i8, i8* %177, i64 4
  %181 = bitcast i8* %180 to i32*
  %182 = load i32, i32* %181, align 1
  %183 = zext i32 %182 to i64
  %184 = tail call i1 @llvm.is.constant.i64(i64 %183) #8
  %185 = icmp ult i32 %182, 23
  %186 = and i1 %185, %184
  br i1 %186, label %187, label %204

187:                                              ; preds = %178
  %188 = getelementptr inbounds i8, i8* %4, i64 119
  %189 = load i8, i8* %188, align 1
  %190 = icmp slt i8 %189, 0
  br i1 %190, label %191, label %196

191:                                              ; preds = %187
  %192 = getelementptr inbounds i8, i8* %4, i64 104
  %193 = bitcast i8* %192 to i64*
  store i64 %183, i64* %193, align 8
  %194 = bitcast i8* %170 to i8**
  %195 = load i8*, i8** %194, align 8
  br label %198

196:                                              ; preds = %187
  %197 = trunc i32 %182 to i8
  store i8 %197, i8* %188, align 1
  br label %198

198:                                              ; preds = %196, %191
  %199 = phi i8* [ %195, %191 ], [ %170, %196 ]
  %200 = icmp eq i32 %182, 0
  br i1 %200, label %202, label %201

201:                                              ; preds = %198
  tail call void @llvm.memmove.p0i8.p0i8.i64(i8* align 1 %199, i8* align 1 %179, i64 %183, i1 false) #8
  br label %202

202:                                              ; preds = %201, %198
  %203 = getelementptr inbounds i8, i8* %199, i64 %183
  store i8 0, i8* %203, align 1
  br label %206

204:                                              ; preds = %178
  %205 = tail call dereferenceable(24) %"class.std::__1::basic_string"* @_ZNSt3__112basic_stringIcNS_11char_traitsIcEENS_9allocatorIcEEE17__assign_externalEPKcm(%"class.std::__1::basic_string"* %171, i8* %179, i64 %183) #8
  br label %206

206:                                              ; preds = %204, %202
  %207 = getelementptr inbounds i8, i8* %4, i64 119
  %208 = load i8, i8* %207, align 1
  %209 = icmp slt i8 %208, 0
  %210 = bitcast i8* %170 to i8**
  %211 = load i8*, i8** %210, align 8
  %212 = select i1 %209, i8* %211, i8* %170
  %213 = getelementptr inbounds i8, i8* %4, i64 104
  %214 = bitcast i8* %213 to i64*
  %215 = load i64, i64* %214, align 8
  %216 = zext i8 %208 to i64
  %217 = select i1 %209, i64 %215, i64 %216
  %218 = tail call zeroext i1 @_ZN4base12IsStringUTF8ENS_16BasicStringPieceIcNSt3__111char_traitsIcEEEE(i8* %212, i64 %217) #8
  br i1 %218, label %220, label %219

219:                                              ; preds = %206
  tail call void @_ZN4mojo8internal34RecordInvalidStringDeserializationEv() #8
  br label %220

220:                                              ; preds = %169, %206, %219
  %221 = getelementptr inbounds i8, i8* %4, i64 120
  %222 = bitcast i8* %221 to %"class.std::__1::basic_string"*
  %223 = getelementptr inbounds %"class.blink::mojom::internal::UserAgentMetadata_Data", %"class.blink::mojom::internal::UserAgentMetadata_Data"* %0, i64 0, i32 6
  %224 = getelementptr inbounds %"struct.mojo::internal::Pointer", %"struct.mojo::internal::Pointer"* %223, i64 0, i32 0
  %225 = load i64, i64* %224, align 8
  %226 = icmp eq i64 %225, 0
  %227 = bitcast %"struct.mojo::internal::Pointer"* %223 to i8*
  %228 = getelementptr inbounds i8, i8* %227, i64 %225
  br i1 %226, label %271, label %229

229:                                              ; preds = %220
  %230 = getelementptr inbounds i8, i8* %228, i64 8
  %231 = getelementptr inbounds i8, i8* %228, i64 4
  %232 = bitcast i8* %231 to i32*
  %233 = load i32, i32* %232, align 1
  %234 = zext i32 %233 to i64
  %235 = tail call i1 @llvm.is.constant.i64(i64 %234) #8
  %236 = icmp ult i32 %233, 23
  %237 = and i1 %236, %235
  br i1 %237, label %238, label %255

238:                                              ; preds = %229
  %239 = getelementptr inbounds i8, i8* %4, i64 143
  %240 = load i8, i8* %239, align 1
  %241 = icmp slt i8 %240, 0
  br i1 %241, label %242, label %247

242:                                              ; preds = %238
  %243 = getelementptr inbounds i8, i8* %4, i64 128
  %244 = bitcast i8* %243 to i64*
  store i64 %234, i64* %244, align 8
  %245 = bitcast i8* %221 to i8**
  %246 = load i8*, i8** %245, align 8
  br label %249

247:                                              ; preds = %238
  %248 = trunc i32 %233 to i8
  store i8 %248, i8* %239, align 1
  br label %249

249:                                              ; preds = %247, %242
  %250 = phi i8* [ %246, %242 ], [ %221, %247 ]
  %251 = icmp eq i32 %233, 0
  br i1 %251, label %253, label %252

252:                                              ; preds = %249
  tail call void @llvm.memmove.p0i8.p0i8.i64(i8* align 1 %250, i8* align 1 %230, i64 %234, i1 false) #8
  br label %253

253:                                              ; preds = %252, %249
  %254 = getelementptr inbounds i8, i8* %250, i64 %234
  store i8 0, i8* %254, align 1
  br label %257

255:                                              ; preds = %229
  %256 = tail call dereferenceable(24) %"class.std::__1::basic_string"* @_ZNSt3__112basic_stringIcNS_11char_traitsIcEENS_9allocatorIcEEE17__assign_externalEPKcm(%"class.std::__1::basic_string"* %222, i8* %230, i64 %234) #8
  br label %257

257:                                              ; preds = %255, %253
  %258 = getelementptr inbounds i8, i8* %4, i64 143
  %259 = load i8, i8* %258, align 1
  %260 = icmp slt i8 %259, 0
  %261 = bitcast i8* %221 to i8**
  %262 = load i8*, i8** %261, align 8
  %263 = select i1 %260, i8* %262, i8* %221
  %264 = getelementptr inbounds i8, i8* %4, i64 128
  %265 = bitcast i8* %264 to i64*
  %266 = load i64, i64* %265, align 8
  %267 = zext i8 %259 to i64
  %268 = select i1 %260, i64 %266, i64 %267
  %269 = tail call zeroext i1 @_ZN4base12IsStringUTF8ENS_16BasicStringPieceIcNSt3__111char_traitsIcEEEE(i8* %263, i64 %268) #8
  br i1 %269, label %271, label %270

270:                                              ; preds = %257
  tail call void @_ZN4mojo8internal34RecordInvalidStringDeserializationEv() #8
  br label %271

271:                                              ; preds = %220, %257, %270
  %272 = getelementptr inbounds %"class.blink::mojom::internal::UserAgentMetadata_Data", %"class.blink::mojom::internal::UserAgentMetadata_Data"* %0, i64 0, i32 7
  %273 = load i8, i8* %272, align 1
  %274 = and i8 %273, 1
  %275 = getelementptr inbounds i8, i8* %4, i64 144
  store i8 %274, i8* %275, align 8
  br label %276

276:                                              ; preds = %3, %271
  %277 = phi i1 [ true, %271 ], [ false, %3 ]
  %278 = getelementptr inbounds %"class.mojo::StructPtr", %"class.mojo::StructPtr"* %2, i64 0, i32 0, i32 0, i32 0, i32 0
  %279 = load %"class.blink::mojom::UserAgentMetadata"*, %"class.blink::mojom::UserAgentMetadata"** %278, align 8
  store %"class.blink::mojom::UserAgentMetadata"* null, %"class.blink::mojom::UserAgentMetadata"** %278, align 8
  %280 = icmp eq %"class.blink::mojom::UserAgentMetadata"* %279, null
  br i1 %280, label %281, label %283

281:                                              ; preds = %276
  %282 = bitcast %"class.mojo::StructPtr"* %2 to i64*
  store i64 %5, i64* %282, align 8
  br label %290

283:                                              ; preds = %276
  tail call void @_ZN5blink5mojom17UserAgentMetadataD2Ev(%"class.blink::mojom::UserAgentMetadata"* nonnull %279) #8
  %284 = bitcast %"class.blink::mojom::UserAgentMetadata"* %279 to i8*
  tail call void @_ZdlPv(i8* %284) #9
  %285 = bitcast %"class.mojo::StructPtr"* %2 to i64*
  %286 = load %"class.blink::mojom::UserAgentMetadata"*, %"class.blink::mojom::UserAgentMetadata"** %278, align 8
  store i64 %5, i64* %285, align 8
  %287 = icmp eq %"class.blink::mojom::UserAgentMetadata"* %286, null
  br i1 %287, label %290, label %288

288:                                              ; preds = %283
  tail call void @_ZN5blink5mojom17UserAgentMetadataD2Ev(%"class.blink::mojom::UserAgentMetadata"* nonnull %286) #8
  %289 = bitcast %"class.blink::mojom::UserAgentMetadata"* %286 to i8*
  tail call void @_ZdlPv(i8* %289) #9
  br label %290

290:                                              ; preds = %281, %283, %288
  ret i1 %277
}

; Function Attrs: nounwind ssp uwtable
define hidden zeroext i1 @_ZN4mojo12StructTraitsIN5blink5mojom25UserAgentOverrideDataViewENS_9StructPtrINS2_17UserAgentOverrideEEEE4ReadES3_PS6_(%"class.blink::mojom::internal::UserAgentOverride_Data"*, %"class.mojo::Message"*, %"class.mojo::StructPtr.43"* nocapture) local_unnamed_addr #0 align 2 {
  %4 = tail call i8* @_Znwm(i64 184) #9, !noalias !9
  %5 = getelementptr inbounds i8, i8* %4, i64 32
  tail call void @llvm.memset.p0i8.i64(i8* align 8 %5, i8 0, i64 152, i1 false) #8, !noalias !9
  tail call void @llvm.memset.p0i8.i64(i8* nonnull align 8 %4, i8 0, i64 25, i1 false) #8, !noalias !9
  %6 = ptrtoint i8* %4 to i64
  %7 = bitcast i8* %4 to %"class.std::__1::basic_string"*
  %8 = getelementptr inbounds %"class.blink::mojom::internal::UserAgentOverride_Data", %"class.blink::mojom::internal::UserAgentOverride_Data"* %0, i64 0, i32 1
  %9 = getelementptr inbounds %"struct.mojo::internal::Pointer", %"struct.mojo::internal::Pointer"* %8, i64 0, i32 0
  %10 = load i64, i64* %9, align 8
  %11 = icmp eq i64 %10, 0
  %12 = bitcast %"struct.mojo::internal::Pointer"* %8 to i8*
  %13 = getelementptr inbounds i8, i8* %12, i64 %10
  br i1 %11, label %46, label %14

14:                                               ; preds = %3
  %15 = getelementptr inbounds i8, i8* %13, i64 8
  %16 = getelementptr inbounds i8, i8* %13, i64 4
  %17 = bitcast i8* %16 to i32*
  %18 = load i32, i32* %17, align 1
  %19 = zext i32 %18 to i64
  %20 = tail call i1 @llvm.is.constant.i64(i64 %19) #8
  %21 = icmp ult i32 %18, 23
  %22 = and i1 %21, %20
  br i1 %22, label %23, label %30

23:                                               ; preds = %14
  %24 = getelementptr inbounds i8, i8* %4, i64 23
  %25 = trunc i32 %18 to i8
  store i8 %25, i8* %24, align 1
  %26 = icmp eq i32 %18, 0
  br i1 %26, label %28, label %27

27:                                               ; preds = %23
  tail call void @llvm.memcpy.p0i8.p0i8.i64(i8* nonnull align 1 %4, i8* align 1 %15, i64 %19, i1 false) #8
  br label %28

28:                                               ; preds = %27, %23
  %29 = getelementptr inbounds i8, i8* %4, i64 %19
  store i8 0, i8* %29, align 1
  br label %32

30:                                               ; preds = %14
  %31 = tail call dereferenceable(24) %"class.std::__1::basic_string"* @_ZNSt3__112basic_stringIcNS_11char_traitsIcEENS_9allocatorIcEEE17__assign_externalEPKcm(%"class.std::__1::basic_string"* nonnull %7, i8* %15, i64 %19) #8
  br label %32

32:                                               ; preds = %30, %28
  %33 = getelementptr inbounds i8, i8* %4, i64 23
  %34 = load i8, i8* %33, align 1
  %35 = icmp slt i8 %34, 0
  %36 = bitcast i8* %4 to i8**
  %37 = load i8*, i8** %36, align 8
  %38 = select i1 %35, i8* %37, i8* %4
  %39 = getelementptr inbounds i8, i8* %4, i64 8
  %40 = bitcast i8* %39 to i64*
  %41 = load i64, i64* %40, align 8
  %42 = zext i8 %34 to i64
  %43 = select i1 %35, i64 %41, i64 %42
  %44 = tail call zeroext i1 @_ZN4base12IsStringUTF8ENS_16BasicStringPieceIcNSt3__111char_traitsIcEEEE(i8* %38, i64 %43) #8
  br i1 %44, label %46, label %45

45:                                               ; preds = %32
  tail call void @_ZN4mojo8internal34RecordInvalidStringDeserializationEv() #8
  br label %46

46:                                               ; preds = %45, %32, %3
  %47 = getelementptr inbounds i8, i8* %4, i64 24
  %48 = getelementptr inbounds %"class.blink::mojom::internal::UserAgentOverride_Data", %"class.blink::mojom::internal::UserAgentOverride_Data"* %0, i64 0, i32 2
  %49 = getelementptr inbounds %"struct.mojo::internal::Pointer.42", %"struct.mojo::internal::Pointer.42"* %48, i64 0, i32 0
  %50 = load i64, i64* %49, align 8
  %51 = icmp eq i64 %50, 0
  %52 = bitcast %"struct.mojo::internal::Pointer.42"* %48 to i8*
  %53 = getelementptr inbounds i8, i8* %52, i64 %50
  %54 = bitcast i8* %53 to %"class.blink::mojom::internal::UserAgentMetadata_Data"*
  %55 = load i8, i8* %47, align 8, !range !2
  %56 = icmp eq i8 %55, 0
  br i1 %51, label %57, label %60

57:                                               ; preds = %46
  br i1 %56, label %65, label %58

58:                                               ; preds = %57
  %59 = bitcast i8* %5 to %"struct.blink::UserAgentMetadata"*
  tail call void @_ZN5blink17UserAgentMetadataD2Ev(%"struct.blink::UserAgentMetadata"* %59) #8
  store i8 0, i8* %47, align 8
  br label %65

60:                                               ; preds = %46
  br i1 %56, label %61, label %62

61:                                               ; preds = %60
  tail call void @llvm.memset.p0i8.i64(i8* align 8 %5, i8 0, i64 152, i1 false) #8
  store i8 1, i8* %47, align 8
  br label %62

62:                                               ; preds = %60, %61
  %63 = bitcast i8* %5 to %"struct.blink::UserAgentMetadata"*
  %64 = tail call zeroext i1 @_ZN4mojo12StructTraitsIN5blink5mojom25UserAgentMetadataDataViewENS1_17UserAgentMetadataEE4ReadES3_PS4_(%"class.blink::mojom::internal::UserAgentMetadata_Data"* nonnull %54, %"class.mojo::Message"* %1, %"struct.blink::UserAgentMetadata"* %63) #8
  br i1 %64, label %65, label %66

65:                                               ; preds = %58, %57, %62
  br label %66

66:                                               ; preds = %65, %62
  %67 = phi i8 [ 1, %65 ], [ 0, %62 ]
  %68 = getelementptr inbounds %"class.mojo::StructPtr.43", %"class.mojo::StructPtr.43"* %2, i64 0, i32 0, i32 0, i32 0, i32 0
  %69 = load %"class.blink::mojom::UserAgentOverride"*, %"class.blink::mojom::UserAgentOverride"** %68, align 8
  store %"class.blink::mojom::UserAgentOverride"* null, %"class.blink::mojom::UserAgentOverride"** %68, align 8
  %70 = icmp eq %"class.blink::mojom::UserAgentOverride"* %69, null
  br i1 %70, label %71, label %74

71:                                               ; preds = %66
  %72 = bitcast %"class.mojo::StructPtr.43"* %2 to i64*
  store i64 %6, i64* %72, align 8
  %73 = icmp ne i8 %67, 0
  br label %110

74:                                               ; preds = %66
  %75 = getelementptr inbounds %"class.blink::mojom::UserAgentOverride", %"class.blink::mojom::UserAgentOverride"* %69, i64 0, i32 1, i32 0, i32 0, i32 0, i32 0
  %76 = load i8, i8* %75, align 8, !range !2
  %77 = icmp eq i8 %76, 0
  br i1 %77, label %80, label %78

78:                                               ; preds = %74
  %79 = getelementptr inbounds %"class.blink::mojom::UserAgentOverride", %"class.blink::mojom::UserAgentOverride"* %69, i64 0, i32 1, i32 0, i32 0, i32 0, i32 2, i32 0
  tail call void @_ZN5blink17UserAgentMetadataD2Ev(%"struct.blink::UserAgentMetadata"* %79) #8
  store i8 0, i8* %75, align 8
  br label %80

80:                                               ; preds = %78, %74
  %81 = bitcast %"class.blink::mojom::UserAgentOverride"* %69 to %"struct.std::__1::basic_string<char, std::__1::char_traits<char>, std::__1::allocator<char> >::__short"*
  %82 = getelementptr inbounds %"struct.std::__1::basic_string<char, std::__1::char_traits<char>, std::__1::allocator<char> >::__short", %"struct.std::__1::basic_string<char, std::__1::char_traits<char>, std::__1::allocator<char> >::__short"* %81, i64 0, i32 1, i32 0
  %83 = load i8, i8* %82, align 1
  %84 = icmp slt i8 %83, 0
  br i1 %84, label %85, label %88

85:                                               ; preds = %80
  %86 = getelementptr inbounds %"class.blink::mojom::UserAgentOverride", %"class.blink::mojom::UserAgentOverride"* %69, i64 0, i32 0, i32 0, i32 0, i32 0, i32 0, i32 0, i32 0
  %87 = load i8*, i8** %86, align 8
  tail call void @_ZdlPv(i8* %87) #9
  br label %88

88:                                               ; preds = %80, %85
  %89 = bitcast %"class.blink::mojom::UserAgentOverride"* %69 to i8*
  tail call void @_ZdlPv(i8* %89) #9
  %90 = bitcast %"class.mojo::StructPtr.43"* %2 to i64*
  %91 = load %"class.blink::mojom::UserAgentOverride"*, %"class.blink::mojom::UserAgentOverride"** %68, align 8
  store i64 %6, i64* %90, align 8
  %92 = icmp ne i8 %67, 0
  %93 = icmp eq %"class.blink::mojom::UserAgentOverride"* %91, null
  br i1 %93, label %110, label %94

94:                                               ; preds = %88
  %95 = getelementptr inbounds %"class.blink::mojom::UserAgentOverride", %"class.blink::mojom::UserAgentOverride"* %91, i64 0, i32 1, i32 0, i32 0, i32 0, i32 0
  %96 = load i8, i8* %95, align 8, !range !2
  %97 = icmp eq i8 %96, 0
  br i1 %97, label %100, label %98

98:                                               ; preds = %94
  %99 = getelementptr inbounds %"class.blink::mojom::UserAgentOverride", %"class.blink::mojom::UserAgentOverride"* %91, i64 0, i32 1, i32 0, i32 0, i32 0, i32 2, i32 0
  tail call void @_ZN5blink17UserAgentMetadataD2Ev(%"struct.blink::UserAgentMetadata"* %99) #8
  store i8 0, i8* %95, align 8
  br label %100

100:                                              ; preds = %98, %94
  %101 = bitcast %"class.blink::mojom::UserAgentOverride"* %91 to %"struct.std::__1::basic_string<char, std::__1::char_traits<char>, std::__1::allocator<char> >::__short"*
  %102 = getelementptr inbounds %"struct.std::__1::basic_string<char, std::__1::char_traits<char>, std::__1::allocator<char> >::__short", %"struct.std::__1::basic_string<char, std::__1::char_traits<char>, std::__1::allocator<char> >::__short"* %101, i64 0, i32 1, i32 0
  %103 = load i8, i8* %102, align 1
  %104 = icmp slt i8 %103, 0
  br i1 %104, label %105, label %108

105:                                              ; preds = %100
  %106 = getelementptr inbounds %"class.blink::mojom::UserAgentOverride", %"class.blink::mojom::UserAgentOverride"* %91, i64 0, i32 0, i32 0, i32 0, i32 0, i32 0, i32 0, i32 0
  %107 = load i8*, i8** %106, align 8
  tail call void @_ZdlPv(i8* %107) #9
  br label %108

108:                                              ; preds = %105, %100
  %109 = bitcast %"class.blink::mojom::UserAgentOverride"* %91 to i8*
  tail call void @_ZdlPv(i8* %109) #9
  br label %110

110:                                              ; preds = %71, %88, %108
  %111 = phi i1 [ %73, %71 ], [ %92, %88 ], [ %92, %108 ]
  ret i1 %111
}

; Function Attrs: inlinehint nounwind ssp uwtable
define linkonce_odr hidden void @_ZN5blink17UserAgentMetadataC2ERKS0_(%"struct.blink::UserAgentMetadata"*, %"struct.blink::UserAgentMetadata"* dereferenceable(152)) unnamed_addr #3 comdat align 2 {
  %3 = getelementptr inbounds %"struct.blink::UserAgentMetadata", %"struct.blink::UserAgentMetadata"* %0, i64 0, i32 0
  %4 = getelementptr inbounds %"struct.blink::UserAgentMetadata", %"struct.blink::UserAgentMetadata"* %1, i64 0, i32 0
  tail call void @_ZNSt3__16vectorIN5blink21UserAgentBrandVersionENS_9allocatorIS2_EEEC2ERKS5_(%"class.std::__1::vector.30"* %3, %"class.std::__1::vector.30"* dereferenceable(24) %4)
  %5 = getelementptr inbounds %"struct.blink::UserAgentMetadata", %"struct.blink::UserAgentMetadata"* %0, i64 0, i32 1
  %6 = getelementptr inbounds %"struct.blink::UserAgentMetadata", %"struct.blink::UserAgentMetadata"* %1, i64 0, i32 1
  %7 = bitcast %"class.std::__1::basic_string"* %6 to %"struct.std::__1::basic_string<char, std::__1::char_traits<char>, std::__1::allocator<char> >::__short"*
  %8 = getelementptr inbounds %"struct.std::__1::basic_string<char, std::__1::char_traits<char>, std::__1::allocator<char> >::__short", %"struct.std::__1::basic_string<char, std::__1::char_traits<char>, std::__1::allocator<char> >::__short"* %7, i64 0, i32 1, i32 0
  %9 = load i8, i8* %8, align 1
  %10 = icmp slt i8 %9, 0
  br i1 %10, label %14, label %11

11:                                               ; preds = %2
  %12 = bitcast %"class.std::__1::basic_string"* %5 to i8*
  %13 = bitcast %"class.std::__1::basic_string"* %6 to i8*
  tail call void @llvm.memcpy.p0i8.p0i8.i64(i8* align 8 %12, i8* align 8 %13, i64 24, i1 false) #8
  br label %19

14:                                               ; preds = %2
  %15 = getelementptr inbounds %"class.std::__1::basic_string", %"class.std::__1::basic_string"* %6, i64 0, i32 0, i32 0, i32 0, i32 0, i32 0, i32 0
  %16 = load i8*, i8** %15, align 8
  %17 = getelementptr inbounds %"struct.blink::UserAgentMetadata", %"struct.blink::UserAgentMetadata"* %1, i64 0, i32 1, i32 0, i32 0, i32 0, i32 0, i32 0, i32 1
  %18 = load i64, i64* %17, align 8
  tail call void @_ZNSt3__112basic_stringIcNS_11char_traitsIcEENS_9allocatorIcEEE25__init_copy_ctor_externalEPKcm(%"class.std::__1::basic_string"* %5, i8* %16, i64 %18) #8
  br label %19

19:                                               ; preds = %11, %14
  %20 = getelementptr inbounds %"struct.blink::UserAgentMetadata", %"struct.blink::UserAgentMetadata"* %0, i64 0, i32 2
  %21 = getelementptr inbounds %"struct.blink::UserAgentMetadata", %"struct.blink::UserAgentMetadata"* %1, i64 0, i32 2
  %22 = bitcast %"class.std::__1::basic_string"* %21 to %"struct.std::__1::basic_string<char, std::__1::char_traits<char>, std::__1::allocator<char> >::__short"*
  %23 = getelementptr inbounds %"struct.std::__1::basic_string<char, std::__1::char_traits<char>, std::__1::allocator<char> >::__short", %"struct.std::__1::basic_string<char, std::__1::char_traits<char>, std::__1::allocator<char> >::__short"* %22, i64 0, i32 1, i32 0
  %24 = load i8, i8* %23, align 1
  %25 = icmp slt i8 %24, 0
  br i1 %25, label %29, label %26

26:                                               ; preds = %19
  %27 = bitcast %"class.std::__1::basic_string"* %20 to i8*
  %28 = bitcast %"class.std::__1::basic_string"* %21 to i8*
  tail call void @llvm.memcpy.p0i8.p0i8.i64(i8* align 8 %27, i8* align 8 %28, i64 24, i1 false) #8
  br label %34

29:                                               ; preds = %19
  %30 = getelementptr inbounds %"class.std::__1::basic_string", %"class.std::__1::basic_string"* %21, i64 0, i32 0, i32 0, i32 0, i32 0, i32 0, i32 0
  %31 = load i8*, i8** %30, align 8
  %32 = getelementptr inbounds %"struct.blink::UserAgentMetadata", %"struct.blink::UserAgentMetadata"* %1, i64 0, i32 2, i32 0, i32 0, i32 0, i32 0, i32 0, i32 1
  %33 = load i64, i64* %32, align 8
  tail call void @_ZNSt3__112basic_stringIcNS_11char_traitsIcEENS_9allocatorIcEEE25__init_copy_ctor_externalEPKcm(%"class.std::__1::basic_string"* %20, i8* %31, i64 %33) #8
  br label %34

34:                                               ; preds = %26, %29
  %35 = getelementptr inbounds %"struct.blink::UserAgentMetadata", %"struct.blink::UserAgentMetadata"* %0, i64 0, i32 3
  %36 = getelementptr inbounds %"struct.blink::UserAgentMetadata", %"struct.blink::UserAgentMetadata"* %1, i64 0, i32 3
  %37 = bitcast %"class.std::__1::basic_string"* %36 to %"struct.std::__1::basic_string<char, std::__1::char_traits<char>, std::__1::allocator<char> >::__short"*
  %38 = getelementptr inbounds %"struct.std::__1::basic_string<char, std::__1::char_traits<char>, std::__1::allocator<char> >::__short", %"struct.std::__1::basic_string<char, std::__1::char_traits<char>, std::__1::allocator<char> >::__short"* %37, i64 0, i32 1, i32 0
  %39 = load i8, i8* %38, align 1
  %40 = icmp slt i8 %39, 0
  br i1 %40, label %44, label %41

41:                                               ; preds = %34
  %42 = bitcast %"class.std::__1::basic_string"* %35 to i8*
  %43 = bitcast %"class.std::__1::basic_string"* %36 to i8*
  tail call void @llvm.memcpy.p0i8.p0i8.i64(i8* align 8 %42, i8* align 8 %43, i64 24, i1 false) #8
  br label %49

44:                                               ; preds = %34
  %45 = getelementptr inbounds %"class.std::__1::basic_string", %"class.std::__1::basic_string"* %36, i64 0, i32 0, i32 0, i32 0, i32 0, i32 0, i32 0
  %46 = load i8*, i8** %45, align 8
  %47 = getelementptr inbounds %"struct.blink::UserAgentMetadata", %"struct.blink::UserAgentMetadata"* %1, i64 0, i32 3, i32 0, i32 0, i32 0, i32 0, i32 0, i32 1
  %48 = load i64, i64* %47, align 8
  tail call void @_ZNSt3__112basic_stringIcNS_11char_traitsIcEENS_9allocatorIcEEE25__init_copy_ctor_externalEPKcm(%"class.std::__1::basic_string"* %35, i8* %46, i64 %48) #8
  br label %49

49:                                               ; preds = %41, %44
  %50 = getelementptr inbounds %"struct.blink::UserAgentMetadata", %"struct.blink::UserAgentMetadata"* %0, i64 0, i32 4
  %51 = getelementptr inbounds %"struct.blink::UserAgentMetadata", %"struct.blink::UserAgentMetadata"* %1, i64 0, i32 4
  %52 = bitcast %"class.std::__1::basic_string"* %51 to %"struct.std::__1::basic_string<char, std::__1::char_traits<char>, std::__1::allocator<char> >::__short"*
  %53 = getelementptr inbounds %"struct.std::__1::basic_string<char, std::__1::char_traits<char>, std::__1::allocator<char> >::__short", %"struct.std::__1::basic_string<char, std::__1::char_traits<char>, std::__1::allocator<char> >::__short"* %52, i64 0, i32 1, i32 0
  %54 = load i8, i8* %53, align 1
  %55 = icmp slt i8 %54, 0
  br i1 %55, label %59, label %56

56:                                               ; preds = %49
  %57 = bitcast %"class.std::__1::basic_string"* %50 to i8*
  %58 = bitcast %"class.std::__1::basic_string"* %51 to i8*
  tail call void @llvm.memcpy.p0i8.p0i8.i64(i8* align 8 %57, i8* align 8 %58, i64 24, i1 false) #8
  br label %64

59:                                               ; preds = %49
  %60 = getelementptr inbounds %"class.std::__1::basic_string", %"class.std::__1::basic_string"* %51, i64 0, i32 0, i32 0, i32 0, i32 0, i32 0, i32 0
  %61 = load i8*, i8** %60, align 8
  %62 = getelementptr inbounds %"struct.blink::UserAgentMetadata", %"struct.blink::UserAgentMetadata"* %1, i64 0, i32 4, i32 0, i32 0, i32 0, i32 0, i32 0, i32 1
  %63 = load i64, i64* %62, align 8
  tail call void @_ZNSt3__112basic_stringIcNS_11char_traitsIcEENS_9allocatorIcEEE25__init_copy_ctor_externalEPKcm(%"class.std::__1::basic_string"* %50, i8* %61, i64 %63) #8
  br label %64

64:                                               ; preds = %56, %59
  %65 = getelementptr inbounds %"struct.blink::UserAgentMetadata", %"struct.blink::UserAgentMetadata"* %0, i64 0, i32 5
  %66 = getelementptr inbounds %"struct.blink::UserAgentMetadata", %"struct.blink::UserAgentMetadata"* %1, i64 0, i32 5
  %67 = bitcast %"class.std::__1::basic_string"* %66 to %"struct.std::__1::basic_string<char, std::__1::char_traits<char>, std::__1::allocator<char> >::__short"*
  %68 = getelementptr inbounds %"struct.std::__1::basic_string<char, std::__1::char_traits<char>, std::__1::allocator<char> >::__short", %"struct.std::__1::basic_string<char, std::__1::char_traits<char>, std::__1::allocator<char> >::__short"* %67, i64 0, i32 1, i32 0
  %69 = load i8, i8* %68, align 1
  %70 = icmp slt i8 %69, 0
  br i1 %70, label %74, label %71

71:                                               ; preds = %64
  %72 = bitcast %"class.std::__1::basic_string"* %65 to i8*
  %73 = bitcast %"class.std::__1::basic_string"* %66 to i8*
  tail call void @llvm.memcpy.p0i8.p0i8.i64(i8* align 8 %72, i8* align 8 %73, i64 24, i1 false) #8
  br label %79

74:                                               ; preds = %64
  %75 = getelementptr inbounds %"class.std::__1::basic_string", %"class.std::__1::basic_string"* %66, i64 0, i32 0, i32 0, i32 0, i32 0, i32 0, i32 0
  %76 = load i8*, i8** %75, align 8
  %77 = getelementptr inbounds %"struct.blink::UserAgentMetadata", %"struct.blink::UserAgentMetadata"* %1, i64 0, i32 5, i32 0, i32 0, i32 0, i32 0, i32 0, i32 1
  %78 = load i64, i64* %77, align 8
  tail call void @_ZNSt3__112basic_stringIcNS_11char_traitsIcEENS_9allocatorIcEEE25__init_copy_ctor_externalEPKcm(%"class.std::__1::basic_string"* %65, i8* %76, i64 %78) #8
  br label %79

79:                                               ; preds = %71, %74
  %80 = getelementptr inbounds %"struct.blink::UserAgentMetadata", %"struct.blink::UserAgentMetadata"* %0, i64 0, i32 6
  %81 = getelementptr inbounds %"struct.blink::UserAgentMetadata", %"struct.blink::UserAgentMetadata"* %1, i64 0, i32 6
  %82 = load i8, i8* %81, align 8, !range !2
  store i8 %82, i8* %80, align 8
  ret void
}

; Function Attrs: nounwind ssp uwtable
define linkonce_odr hidden void @_ZNSt3__16vectorIN5blink21UserAgentBrandVersionENS_9allocatorIS2_EEEC2ERKS5_(%"class.std::__1::vector.30"*, %"class.std::__1::vector.30"* dereferenceable(24)) unnamed_addr #0 comdat align 2 {
  %3 = bitcast %"class.std::__1::vector.30"* %0 to i8*
  tail call void @llvm.memset.p0i8.i64(i8* align 8 %3, i8 0, i64 24, i1 false) #8
  %4 = getelementptr inbounds %"class.std::__1::vector.30", %"class.std::__1::vector.30"* %1, i64 0, i32 0, i32 1
  %5 = bitcast %"struct.blink::UserAgentBrandVersion"** %4 to i64*
  %6 = load i64, i64* %5, align 8
  %7 = bitcast %"class.std::__1::vector.30"* %1 to i64*
  %8 = load i64, i64* %7, align 8
  %9 = sub i64 %6, %8
  %10 = sdiv exact i64 %9, 48
  %11 = icmp eq i64 %9, 0
  br i1 %11, label %71, label %12

12:                                               ; preds = %2
  %13 = icmp ugt i64 %10, 384307168202282325
  br i1 %13, label %14, label %16

14:                                               ; preds = %12
  %15 = bitcast %"class.std::__1::vector.30"* %0 to %"class.std::__1::__vector_base_common"*
  tail call void @_ZNKSt3__120__vector_base_commonILb1EE20__throw_length_errorEv(%"class.std::__1::__vector_base_common"* %15) #10
  unreachable

16:                                               ; preds = %12
  %17 = tail call i8* @_Znwm(i64 %9) #9
  %18 = bitcast i8* %17 to %"struct.blink::UserAgentBrandVersion"*
  %19 = getelementptr inbounds %"class.std::__1::vector.30", %"class.std::__1::vector.30"* %0, i64 0, i32 0, i32 1
  %20 = bitcast %"struct.blink::UserAgentBrandVersion"** %19 to i8**
  store i8* %17, i8** %20, align 8
  %21 = bitcast %"class.std::__1::vector.30"* %0 to i8**
  store i8* %17, i8** %21, align 8
  %22 = getelementptr inbounds %"struct.blink::UserAgentBrandVersion", %"struct.blink::UserAgentBrandVersion"* %18, i64 %10
  %23 = getelementptr inbounds %"class.std::__1::vector.30", %"class.std::__1::vector.30"* %0, i64 0, i32 0, i32 2, i32 0, i32 0
  store %"struct.blink::UserAgentBrandVersion"* %22, %"struct.blink::UserAgentBrandVersion"** %23, align 8
  %24 = getelementptr inbounds %"class.std::__1::vector.30", %"class.std::__1::vector.30"* %1, i64 0, i32 0, i32 0
  %25 = load %"struct.blink::UserAgentBrandVersion"*, %"struct.blink::UserAgentBrandVersion"** %24, align 8
  %26 = load %"struct.blink::UserAgentBrandVersion"*, %"struct.blink::UserAgentBrandVersion"** %4, align 8
  %27 = bitcast %"struct.blink::UserAgentBrandVersion"** %19 to i64*
  %28 = ptrtoint i8* %17 to i64
  %29 = icmp eq %"struct.blink::UserAgentBrandVersion"* %25, %26
  br i1 %29, label %69, label %30

30:                                               ; preds = %16
  %31 = bitcast i8* %17 to %"struct.blink::UserAgentBrandVersion"*
  br label %32

32:                                               ; preds = %63, %30
  %33 = phi %"struct.blink::UserAgentBrandVersion"* [ %65, %63 ], [ %31, %30 ]
  %34 = phi %"struct.blink::UserAgentBrandVersion"* [ %64, %63 ], [ %25, %30 ]
  %35 = bitcast %"struct.blink::UserAgentBrandVersion"* %34 to %"struct.std::__1::basic_string<char, std::__1::char_traits<char>, std::__1::allocator<char> >::__short"*
  %36 = getelementptr inbounds %"struct.std::__1::basic_string<char, std::__1::char_traits<char>, std::__1::allocator<char> >::__short", %"struct.std::__1::basic_string<char, std::__1::char_traits<char>, std::__1::allocator<char> >::__short"* %35, i64 0, i32 1, i32 0
  %37 = load i8, i8* %36, align 1
  %38 = icmp slt i8 %37, 0
  br i1 %38, label %42, label %39

39:                                               ; preds = %32
  %40 = bitcast %"struct.blink::UserAgentBrandVersion"* %33 to i8*
  %41 = bitcast %"struct.blink::UserAgentBrandVersion"* %34 to i8*
  tail call void @llvm.memcpy.p0i8.p0i8.i64(i8* align 8 %40, i8* align 8 %41, i64 24, i1 false) #8
  br label %48

42:                                               ; preds = %32
  %43 = getelementptr inbounds %"struct.blink::UserAgentBrandVersion", %"struct.blink::UserAgentBrandVersion"* %33, i64 0, i32 0
  %44 = getelementptr inbounds %"struct.blink::UserAgentBrandVersion", %"struct.blink::UserAgentBrandVersion"* %34, i64 0, i32 0, i32 0, i32 0, i32 0, i32 0, i32 0, i32 0
  %45 = load i8*, i8** %44, align 8
  %46 = getelementptr inbounds %"struct.blink::UserAgentBrandVersion", %"struct.blink::UserAgentBrandVersion"* %34, i64 0, i32 0, i32 0, i32 0, i32 0, i32 0, i32 0, i32 1
  %47 = load i64, i64* %46, align 8
  tail call void @_ZNSt3__112basic_stringIcNS_11char_traitsIcEENS_9allocatorIcEEE25__init_copy_ctor_externalEPKcm(%"class.std::__1::basic_string"* %43, i8* %45, i64 %47) #8
  br label %48

48:                                               ; preds = %42, %39
  %49 = getelementptr inbounds %"struct.blink::UserAgentBrandVersion", %"struct.blink::UserAgentBrandVersion"* %33, i64 0, i32 1
  %50 = getelementptr inbounds %"struct.blink::UserAgentBrandVersion", %"struct.blink::UserAgentBrandVersion"* %34, i64 0, i32 1
  %51 = bitcast %"class.std::__1::basic_string"* %50 to %"struct.std::__1::basic_string<char, std::__1::char_traits<char>, std::__1::allocator<char> >::__short"*
  %52 = getelementptr inbounds %"struct.std::__1::basic_string<char, std::__1::char_traits<char>, std::__1::allocator<char> >::__short", %"struct.std::__1::basic_string<char, std::__1::char_traits<char>, std::__1::allocator<char> >::__short"* %51, i64 0, i32 1, i32 0
  %53 = load i8, i8* %52, align 1
  %54 = icmp slt i8 %53, 0
  br i1 %54, label %58, label %55

55:                                               ; preds = %48
  %56 = bitcast %"class.std::__1::basic_string"* %49 to i8*
  %57 = bitcast %"class.std::__1::basic_string"* %50 to i8*
  tail call void @llvm.memcpy.p0i8.p0i8.i64(i8* align 8 %56, i8* align 8 %57, i64 24, i1 false) #8
  br label %63

58:                                               ; preds = %48
  %59 = getelementptr inbounds %"class.std::__1::basic_string", %"class.std::__1::basic_string"* %50, i64 0, i32 0, i32 0, i32 0, i32 0, i32 0, i32 0
  %60 = load i8*, i8** %59, align 8
  %61 = getelementptr inbounds %"struct.blink::UserAgentBrandVersion", %"struct.blink::UserAgentBrandVersion"* %34, i64 0, i32 1, i32 0, i32 0, i32 0, i32 0, i32 0, i32 1
  %62 = load i64, i64* %61, align 8
  tail call void @_ZNSt3__112basic_stringIcNS_11char_traitsIcEENS_9allocatorIcEEE25__init_copy_ctor_externalEPKcm(%"class.std::__1::basic_string"* %49, i8* %60, i64 %62) #8
  br label %63

63:                                               ; preds = %58, %55
  %64 = getelementptr inbounds %"struct.blink::UserAgentBrandVersion", %"struct.blink::UserAgentBrandVersion"* %34, i64 1
  %65 = getelementptr inbounds %"struct.blink::UserAgentBrandVersion", %"struct.blink::UserAgentBrandVersion"* %33, i64 1
  %66 = icmp eq %"struct.blink::UserAgentBrandVersion"* %64, %26
  br i1 %66, label %67, label %32

67:                                               ; preds = %63
  %68 = ptrtoint %"struct.blink::UserAgentBrandVersion"* %65 to i64
  br label %69

69:                                               ; preds = %16, %67
  %70 = phi i64 [ %28, %16 ], [ %68, %67 ]
  store i64 %70, i64* %27, align 8
  br label %71

71:                                               ; preds = %2, %69
  ret void
}

; Function Attrs: noreturn
declare void @_ZNKSt3__120__vector_base_commonILb1EE20__throw_length_errorEv(%"class.std::__1::__vector_base_common"*) local_unnamed_addr #4

; Function Attrs: nobuiltin nofree
declare noalias nonnull i8* @_Znwm(i64) local_unnamed_addr #5

; Function Attrs: inlinehint nounwind ssp uwtable
define linkonce_odr hidden void @_ZN5blink17UserAgentMetadataD2Ev(%"struct.blink::UserAgentMetadata"*) unnamed_addr #3 comdat align 2 {
  %2 = getelementptr inbounds %"struct.blink::UserAgentMetadata", %"struct.blink::UserAgentMetadata"* %0, i64 0, i32 5
  %3 = bitcast %"class.std::__1::basic_string"* %2 to %"struct.std::__1::basic_string<char, std::__1::char_traits<char>, std::__1::allocator<char> >::__short"*
  %4 = getelementptr inbounds %"struct.std::__1::basic_string<char, std::__1::char_traits<char>, std::__1::allocator<char> >::__short", %"struct.std::__1::basic_string<char, std::__1::char_traits<char>, std::__1::allocator<char> >::__short"* %3, i64 0, i32 1, i32 0
  %5 = load i8, i8* %4, align 1
  %6 = icmp slt i8 %5, 0
  br i1 %6, label %7, label %10

7:                                                ; preds = %1
  %8 = getelementptr inbounds %"class.std::__1::basic_string", %"class.std::__1::basic_string"* %2, i64 0, i32 0, i32 0, i32 0, i32 0, i32 0, i32 0
  %9 = load i8*, i8** %8, align 8
  tail call void @_ZdlPv(i8* %9) #9
  br label %10

10:                                               ; preds = %1, %7
  %11 = getelementptr inbounds %"struct.blink::UserAgentMetadata", %"struct.blink::UserAgentMetadata"* %0, i64 0, i32 4
  %12 = bitcast %"class.std::__1::basic_string"* %11 to %"struct.std::__1::basic_string<char, std::__1::char_traits<char>, std::__1::allocator<char> >::__short"*
  %13 = getelementptr inbounds %"struct.std::__1::basic_string<char, std::__1::char_traits<char>, std::__1::allocator<char> >::__short", %"struct.std::__1::basic_string<char, std::__1::char_traits<char>, std::__1::allocator<char> >::__short"* %12, i64 0, i32 1, i32 0
  %14 = load i8, i8* %13, align 1
  %15 = icmp slt i8 %14, 0
  br i1 %15, label %16, label %19

16:                                               ; preds = %10
  %17 = getelementptr inbounds %"class.std::__1::basic_string", %"class.std::__1::basic_string"* %11, i64 0, i32 0, i32 0, i32 0, i32 0, i32 0, i32 0
  %18 = load i8*, i8** %17, align 8
  tail call void @_ZdlPv(i8* %18) #9
  br label %19

19:                                               ; preds = %10, %16
  %20 = getelementptr inbounds %"struct.blink::UserAgentMetadata", %"struct.blink::UserAgentMetadata"* %0, i64 0, i32 3
  %21 = bitcast %"class.std::__1::basic_string"* %20 to %"struct.std::__1::basic_string<char, std::__1::char_traits<char>, std::__1::allocator<char> >::__short"*
  %22 = getelementptr inbounds %"struct.std::__1::basic_string<char, std::__1::char_traits<char>, std::__1::allocator<char> >::__short", %"struct.std::__1::basic_string<char, std::__1::char_traits<char>, std::__1::allocator<char> >::__short"* %21, i64 0, i32 1, i32 0
  %23 = load i8, i8* %22, align 1
  %24 = icmp slt i8 %23, 0
  br i1 %24, label %25, label %28

25:                                               ; preds = %19
  %26 = getelementptr inbounds %"class.std::__1::basic_string", %"class.std::__1::basic_string"* %20, i64 0, i32 0, i32 0, i32 0, i32 0, i32 0, i32 0
  %27 = load i8*, i8** %26, align 8
  tail call void @_ZdlPv(i8* %27) #9
  br label %28

28:                                               ; preds = %19, %25
  %29 = getelementptr inbounds %"struct.blink::UserAgentMetadata", %"struct.blink::UserAgentMetadata"* %0, i64 0, i32 2
  %30 = bitcast %"class.std::__1::basic_string"* %29 to %"struct.std::__1::basic_string<char, std::__1::char_traits<char>, std::__1::allocator<char> >::__short"*
  %31 = getelementptr inbounds %"struct.std::__1::basic_string<char, std::__1::char_traits<char>, std::__1::allocator<char> >::__short", %"struct.std::__1::basic_string<char, std::__1::char_traits<char>, std::__1::allocator<char> >::__short"* %30, i64 0, i32 1, i32 0
  %32 = load i8, i8* %31, align 1
  %33 = icmp slt i8 %32, 0
  br i1 %33, label %34, label %37

34:                                               ; preds = %28
  %35 = getelementptr inbounds %"class.std::__1::basic_string", %"class.std::__1::basic_string"* %29, i64 0, i32 0, i32 0, i32 0, i32 0, i32 0, i32 0
  %36 = load i8*, i8** %35, align 8
  tail call void @_ZdlPv(i8* %36) #9
  br label %37

37:                                               ; preds = %28, %34
  %38 = getelementptr inbounds %"struct.blink::UserAgentMetadata", %"struct.blink::UserAgentMetadata"* %0, i64 0, i32 1
  %39 = bitcast %"class.std::__1::basic_string"* %38 to %"struct.std::__1::basic_string<char, std::__1::char_traits<char>, std::__1::allocator<char> >::__short"*
  %40 = getelementptr inbounds %"struct.std::__1::basic_string<char, std::__1::char_traits<char>, std::__1::allocator<char> >::__short", %"struct.std::__1::basic_string<char, std::__1::char_traits<char>, std::__1::allocator<char> >::__short"* %39, i64 0, i32 1, i32 0
  %41 = load i8, i8* %40, align 1
  %42 = icmp slt i8 %41, 0
  br i1 %42, label %43, label %46

43:                                               ; preds = %37
  %44 = getelementptr inbounds %"class.std::__1::basic_string", %"class.std::__1::basic_string"* %38, i64 0, i32 0, i32 0, i32 0, i32 0, i32 0, i32 0
  %45 = load i8*, i8** %44, align 8
  tail call void @_ZdlPv(i8* %45) #9
  br label %46

46:                                               ; preds = %37, %43
  %47 = getelementptr inbounds %"struct.blink::UserAgentMetadata", %"struct.blink::UserAgentMetadata"* %0, i64 0, i32 0, i32 0, i32 0
  %48 = load %"struct.blink::UserAgentBrandVersion"*, %"struct.blink::UserAgentBrandVersion"** %47, align 8
  %49 = icmp eq %"struct.blink::UserAgentBrandVersion"* %48, null
  br i1 %49, label %81, label %50

50:                                               ; preds = %46
  %51 = bitcast %"struct.blink::UserAgentBrandVersion"* %48 to i8*
  %52 = getelementptr inbounds %"struct.blink::UserAgentMetadata", %"struct.blink::UserAgentMetadata"* %0, i64 0, i32 0, i32 0, i32 1
  %53 = load %"struct.blink::UserAgentBrandVersion"*, %"struct.blink::UserAgentBrandVersion"** %52, align 8
  %54 = icmp eq %"struct.blink::UserAgentBrandVersion"* %53, %48
  br i1 %54, label %79, label %55

55:                                               ; preds = %50, %74
  %56 = phi %"struct.blink::UserAgentBrandVersion"* [ %57, %74 ], [ %53, %50 ]
  %57 = getelementptr inbounds %"struct.blink::UserAgentBrandVersion", %"struct.blink::UserAgentBrandVersion"* %56, i64 -1
  %58 = getelementptr inbounds %"struct.blink::UserAgentBrandVersion", %"struct.blink::UserAgentBrandVersion"* %56, i64 -1, i32 1
  %59 = bitcast %"class.std::__1::basic_string"* %58 to %"struct.std::__1::basic_string<char, std::__1::char_traits<char>, std::__1::allocator<char> >::__short"*
  %60 = getelementptr inbounds %"struct.std::__1::basic_string<char, std::__1::char_traits<char>, std::__1::allocator<char> >::__short", %"struct.std::__1::basic_string<char, std::__1::char_traits<char>, std::__1::allocator<char> >::__short"* %59, i64 0, i32 1, i32 0
  %61 = load i8, i8* %60, align 1
  %62 = icmp slt i8 %61, 0
  br i1 %62, label %63, label %66

63:                                               ; preds = %55
  %64 = getelementptr inbounds %"class.std::__1::basic_string", %"class.std::__1::basic_string"* %58, i64 0, i32 0, i32 0, i32 0, i32 0, i32 0, i32 0
  %65 = load i8*, i8** %64, align 8
  tail call void @_ZdlPv(i8* %65) #9
  br label %66

66:                                               ; preds = %63, %55
  %67 = bitcast %"struct.blink::UserAgentBrandVersion"* %57 to %"struct.std::__1::basic_string<char, std::__1::char_traits<char>, std::__1::allocator<char> >::__short"*
  %68 = getelementptr inbounds %"struct.std::__1::basic_string<char, std::__1::char_traits<char>, std::__1::allocator<char> >::__short", %"struct.std::__1::basic_string<char, std::__1::char_traits<char>, std::__1::allocator<char> >::__short"* %67, i64 0, i32 1, i32 0
  %69 = load i8, i8* %68, align 1
  %70 = icmp slt i8 %69, 0
  br i1 %70, label %71, label %74

71:                                               ; preds = %66
  %72 = getelementptr inbounds %"struct.blink::UserAgentBrandVersion", %"struct.blink::UserAgentBrandVersion"* %57, i64 0, i32 0, i32 0, i32 0, i32 0, i32 0, i32 0, i32 0
  %73 = load i8*, i8** %72, align 8
  tail call void @_ZdlPv(i8* %73) #9
  br label %74

74:                                               ; preds = %71, %66
  %75 = icmp eq %"struct.blink::UserAgentBrandVersion"* %57, %48
  br i1 %75, label %76, label %55

76:                                               ; preds = %74
  %77 = bitcast %"struct.blink::UserAgentMetadata"* %0 to i8**
  %78 = load i8*, i8** %77, align 8
  br label %79

79:                                               ; preds = %76, %50
  %80 = phi i8* [ %78, %76 ], [ %51, %50 ]
  store %"struct.blink::UserAgentBrandVersion"* %48, %"struct.blink::UserAgentBrandVersion"** %52, align 8
  tail call void @_ZdlPv(i8* %80) #9
  br label %81

81:                                               ; preds = %46, %79
  ret void
}

; Function Attrs: nobuiltin nounwind
declare void @_ZdlPv(i8*) local_unnamed_addr #6

; Function Attrs: argmemonly nounwind
declare void @llvm.memcpy.p0i8.p0i8.i64(i8* nocapture writeonly, i8* nocapture readonly, i64, i1 immarg) #1

declare void @_ZNSt3__112basic_stringIcNS_11char_traitsIcEENS_9allocatorIcEEE25__init_copy_ctor_externalEPKcm(%"class.std::__1::basic_string"*, i8*, i64) local_unnamed_addr #2

declare void @_ZNO8perfetto11TracedValue11WriteStringERKNSt3__112basic_stringIcNS1_11char_traitsIcEENS1_9allocatorIcEEEE(%"class.perfetto::TracedValue"*, %"class.std::__1::basic_string"* dereferenceable(24)) local_unnamed_addr #2

declare void @_ZNO8perfetto11TracedValue12WriteBooleanEb(%"class.perfetto::TracedValue"*, i1 zeroext) local_unnamed_addr #2

declare void @_ZN4mojo8internal34RecordInvalidStringDeserializationEv() local_unnamed_addr #2

; Function Attrs: nounwind readnone
declare i1 @llvm.is.constant.i64(i64) #7

declare dereferenceable(24) %"class.std::__1::basic_string"* @_ZNSt3__112basic_stringIcNS_11char_traitsIcEENS_9allocatorIcEEE17__assign_externalEPKcm(%"class.std::__1::basic_string"*, i8*, i64) local_unnamed_addr #2

; Function Attrs: argmemonly nounwind
declare void @llvm.memmove.p0i8.p0i8.i64(i8* nocapture, i8* nocapture readonly, i64, i1 immarg) #1

declare zeroext i1 @_ZN4base12IsStringUTF8ENS_16BasicStringPieceIcNSt3__111char_traitsIcEEEE(i8*, i64) local_unnamed_addr #2

; Function Attrs: inlinehint nounwind ssp uwtable
define linkonce_odr hidden void @_ZNSt3__14swapIN5blink5mojom21UserAgentBrandVersionEEENS_9enable_ifIXaasr21is_move_constructibleIT_EE5valuesr18is_move_assignableIS5_EE5valueEvE4typeERS5_S8_(%"class.blink::mojom::UserAgentBrandVersion"* dereferenceable(48), %"class.blink::mojom::UserAgentBrandVersion"* dereferenceable(48)) local_unnamed_addr #3 comdat {
  %3 = alloca %"class.blink::mojom::UserAgentBrandVersion", align 8
  %4 = bitcast %"class.blink::mojom::UserAgentBrandVersion"* %3 to i8*
  call void @llvm.lifetime.start.p0i8(i64 48, i8* nonnull %4) #8
  %5 = getelementptr inbounds %"class.blink::mojom::UserAgentBrandVersion", %"class.blink::mojom::UserAgentBrandVersion"* %3, i64 0, i32 0, i32 0, i32 0, i32 0, i32 0, i32 0, i32 0
  %6 = getelementptr inbounds %"class.blink::mojom::UserAgentBrandVersion", %"class.blink::mojom::UserAgentBrandVersion"* %3, i64 0, i32 0, i32 0, i32 0, i32 0, i32 0, i32 0, i32 1
  %7 = getelementptr inbounds %"class.blink::mojom::UserAgentBrandVersion", %"class.blink::mojom::UserAgentBrandVersion"* %3, i64 0, i32 1, i32 0, i32 0, i32 0, i32 0, i32 0, i32 1
  %8 = bitcast %"class.blink::mojom::UserAgentBrandVersion"* %0 to %"struct.std::__1::basic_string<char, std::__1::char_traits<char>, std::__1::allocator<char> >::__short"*
  %9 = getelementptr inbounds %"struct.std::__1::basic_string<char, std::__1::char_traits<char>, std::__1::allocator<char> >::__short", %"struct.std::__1::basic_string<char, std::__1::char_traits<char>, std::__1::allocator<char> >::__short"* %8, i64 0, i32 1, i32 0
  %10 = bitcast %"class.blink::mojom::UserAgentBrandVersion"* %3 to i8*
  call void @llvm.memset.p0i8.i64(i8* nonnull align 8 %10, i8 -86, i64 48, i1 false)
  %11 = load i8, i8* %9, align 1
  %12 = icmp slt i8 %11, 0
  br i1 %12, label %15, label %13

13:                                               ; preds = %2
  %14 = bitcast %"class.blink::mojom::UserAgentBrandVersion"* %0 to i8*
  call void @llvm.memcpy.p0i8.p0i8.i64(i8* nonnull align 8 %4, i8* align 8 %14, i64 24, i1 false) #8
  br label %21

15:                                               ; preds = %2
  %16 = getelementptr inbounds %"class.blink::mojom::UserAgentBrandVersion", %"class.blink::mojom::UserAgentBrandVersion"* %3, i64 0, i32 0
  %17 = getelementptr inbounds %"class.blink::mojom::UserAgentBrandVersion", %"class.blink::mojom::UserAgentBrandVersion"* %0, i64 0, i32 0, i32 0, i32 0, i32 0, i32 0, i32 0, i32 0
  %18 = load i8*, i8** %17, align 8
  %19 = getelementptr inbounds %"class.blink::mojom::UserAgentBrandVersion", %"class.blink::mojom::UserAgentBrandVersion"* %0, i64 0, i32 0, i32 0, i32 0, i32 0, i32 0, i32 0, i32 1
  %20 = load i64, i64* %19, align 8
  call void @_ZNSt3__112basic_stringIcNS_11char_traitsIcEENS_9allocatorIcEEE25__init_copy_ctor_externalEPKcm(%"class.std::__1::basic_string"* nonnull %16, i8* %18, i64 %20) #8
  br label %21

21:                                               ; preds = %15, %13
  %22 = getelementptr inbounds %"class.blink::mojom::UserAgentBrandVersion", %"class.blink::mojom::UserAgentBrandVersion"* %3, i64 0, i32 1
  %23 = getelementptr inbounds %"class.blink::mojom::UserAgentBrandVersion", %"class.blink::mojom::UserAgentBrandVersion"* %0, i64 0, i32 1
  %24 = bitcast %"class.std::__1::basic_string"* %23 to %"struct.std::__1::basic_string<char, std::__1::char_traits<char>, std::__1::allocator<char> >::__short"*
  %25 = getelementptr inbounds %"struct.std::__1::basic_string<char, std::__1::char_traits<char>, std::__1::allocator<char> >::__short", %"struct.std::__1::basic_string<char, std::__1::char_traits<char>, std::__1::allocator<char> >::__short"* %24, i64 0, i32 1, i32 0
  %26 = load i8, i8* %25, align 1
  %27 = icmp slt i8 %26, 0
  br i1 %27, label %31, label %28

28:                                               ; preds = %21
  %29 = bitcast %"class.std::__1::basic_string"* %22 to i8*
  %30 = bitcast %"class.std::__1::basic_string"* %23 to i8*
  call void @llvm.memcpy.p0i8.p0i8.i64(i8* align 8 %29, i8* align 8 %30, i64 24, i1 false) #8
  br label %36

31:                                               ; preds = %21
  %32 = getelementptr inbounds %"class.std::__1::basic_string", %"class.std::__1::basic_string"* %23, i64 0, i32 0, i32 0, i32 0, i32 0, i32 0, i32 0
  %33 = load i8*, i8** %32, align 8
  %34 = getelementptr inbounds %"class.blink::mojom::UserAgentBrandVersion", %"class.blink::mojom::UserAgentBrandVersion"* %0, i64 0, i32 1, i32 0, i32 0, i32 0, i32 0, i32 0, i32 1
  %35 = load i64, i64* %34, align 8
  call void @_ZNSt3__112basic_stringIcNS_11char_traitsIcEENS_9allocatorIcEEE25__init_copy_ctor_externalEPKcm(%"class.std::__1::basic_string"* %22, i8* %33, i64 %35) #8
  br label %36

36:                                               ; preds = %28, %31
  %37 = getelementptr inbounds %"class.blink::mojom::UserAgentBrandVersion", %"class.blink::mojom::UserAgentBrandVersion"* %0, i64 0, i32 0
  %38 = icmp eq %"class.blink::mojom::UserAgentBrandVersion"* %0, %1
  br i1 %38, label %94, label %39

39:                                               ; preds = %36
  %40 = load i8, i8* %9, align 1
  %41 = icmp slt i8 %40, 0
  %42 = bitcast %"class.blink::mojom::UserAgentBrandVersion"* %1 to %"struct.std::__1::basic_string<char, std::__1::char_traits<char>, std::__1::allocator<char> >::__short"*
  %43 = getelementptr inbounds %"struct.std::__1::basic_string<char, std::__1::char_traits<char>, std::__1::allocator<char> >::__short", %"struct.std::__1::basic_string<char, std::__1::char_traits<char>, std::__1::allocator<char> >::__short"* %42, i64 0, i32 1, i32 0
  %44 = load i8, i8* %43, align 1
  %45 = icmp slt i8 %44, 0
  br i1 %41, label %56, label %46

46:                                               ; preds = %39
  br i1 %45, label %50, label %47

47:                                               ; preds = %46
  %48 = bitcast %"class.blink::mojom::UserAgentBrandVersion"* %0 to i8*
  %49 = bitcast %"class.blink::mojom::UserAgentBrandVersion"* %1 to i8*
  call void @llvm.memcpy.p0i8.p0i8.i64(i8* align 8 %48, i8* align 8 %49, i64 24, i1 false) #8
  br label %66

50:                                               ; preds = %46
  %51 = getelementptr inbounds %"class.blink::mojom::UserAgentBrandVersion", %"class.blink::mojom::UserAgentBrandVersion"* %1, i64 0, i32 0, i32 0, i32 0, i32 0, i32 0, i32 0, i32 0
  %52 = load i8*, i8** %51, align 8
  %53 = getelementptr inbounds %"class.blink::mojom::UserAgentBrandVersion", %"class.blink::mojom::UserAgentBrandVersion"* %1, i64 0, i32 0, i32 0, i32 0, i32 0, i32 0, i32 0, i32 1
  %54 = load i64, i64* %53, align 8
  %55 = call dereferenceable(24) %"class.std::__1::basic_string"* @_ZNSt3__112basic_stringIcNS_11char_traitsIcEENS_9allocatorIcEEE17__assign_no_aliasILb1EEERS5_PKcm(%"class.std::__1::basic_string"* %37, i8* %52, i64 %54) #8
  br label %66

56:                                               ; preds = %39
  %57 = getelementptr inbounds %"class.blink::mojom::UserAgentBrandVersion", %"class.blink::mojom::UserAgentBrandVersion"* %1, i64 0, i32 0, i32 0, i32 0, i32 0, i32 0, i32 0, i32 0
  %58 = load i8*, i8** %57, align 8
  %59 = getelementptr inbounds %"class.blink::mojom::UserAgentBrandVersion", %"class.blink::mojom::UserAgentBrandVersion"* %1, i64 0, i32 0, i32 0, i32 0, i32 0, i32 0, i32 0, i32 1
  %60 = load i64, i64* %59, align 8
  %61 = bitcast %"class.blink::mojom::UserAgentBrandVersion"* %1 to i8*
  %62 = zext i8 %44 to i64
  %63 = select i1 %45, i8* %58, i8* %61
  %64 = select i1 %45, i64 %60, i64 %62
  %65 = call dereferenceable(24) %"class.std::__1::basic_string"* @_ZNSt3__112basic_stringIcNS_11char_traitsIcEENS_9allocatorIcEEE17__assign_no_aliasILb0EEERS5_PKcm(%"class.std::__1::basic_string"* %37, i8* %63, i64 %64) #8
  br label %66

66:                                               ; preds = %56, %50, %47
  %67 = getelementptr inbounds %"class.blink::mojom::UserAgentBrandVersion", %"class.blink::mojom::UserAgentBrandVersion"* %1, i64 0, i32 1
  %68 = load i8, i8* %25, align 1
  %69 = icmp slt i8 %68, 0
  %70 = bitcast %"class.std::__1::basic_string"* %67 to %"struct.std::__1::basic_string<char, std::__1::char_traits<char>, std::__1::allocator<char> >::__short"*
  %71 = getelementptr inbounds %"struct.std::__1::basic_string<char, std::__1::char_traits<char>, std::__1::allocator<char> >::__short", %"struct.std::__1::basic_string<char, std::__1::char_traits<char>, std::__1::allocator<char> >::__short"* %70, i64 0, i32 1, i32 0
  %72 = load i8, i8* %71, align 1
  %73 = icmp slt i8 %72, 0
  br i1 %69, label %84, label %74

74:                                               ; preds = %66
  br i1 %73, label %78, label %75

75:                                               ; preds = %74
  %76 = bitcast %"class.std::__1::basic_string"* %23 to i8*
  %77 = bitcast %"class.std::__1::basic_string"* %67 to i8*
  call void @llvm.memcpy.p0i8.p0i8.i64(i8* align 8 %76, i8* align 8 %77, i64 24, i1 false) #8
  br label %94

78:                                               ; preds = %74
  %79 = getelementptr inbounds %"class.std::__1::basic_string", %"class.std::__1::basic_string"* %67, i64 0, i32 0, i32 0, i32 0, i32 0, i32 0, i32 0
  %80 = load i8*, i8** %79, align 8
  %81 = getelementptr inbounds %"class.blink::mojom::UserAgentBrandVersion", %"class.blink::mojom::UserAgentBrandVersion"* %1, i64 0, i32 1, i32 0, i32 0, i32 0, i32 0, i32 0, i32 1
  %82 = load i64, i64* %81, align 8
  %83 = call dereferenceable(24) %"class.std::__1::basic_string"* @_ZNSt3__112basic_stringIcNS_11char_traitsIcEENS_9allocatorIcEEE17__assign_no_aliasILb1EEERS5_PKcm(%"class.std::__1::basic_string"* %23, i8* %80, i64 %82) #8
  br label %94

84:                                               ; preds = %66
  %85 = getelementptr inbounds %"class.std::__1::basic_string", %"class.std::__1::basic_string"* %67, i64 0, i32 0, i32 0, i32 0, i32 0, i32 0, i32 0
  %86 = load i8*, i8** %85, align 8
  %87 = getelementptr inbounds %"class.blink::mojom::UserAgentBrandVersion", %"class.blink::mojom::UserAgentBrandVersion"* %1, i64 0, i32 1, i32 0, i32 0, i32 0, i32 0, i32 0, i32 1
  %88 = load i64, i64* %87, align 8
  %89 = bitcast %"class.std::__1::basic_string"* %67 to i8*
  %90 = zext i8 %72 to i64
  %91 = select i1 %73, i8* %86, i8* %89
  %92 = select i1 %73, i64 %88, i64 %90
  %93 = call dereferenceable(24) %"class.std::__1::basic_string"* @_ZNSt3__112basic_stringIcNS_11char_traitsIcEENS_9allocatorIcEEE17__assign_no_aliasILb0EEERS5_PKcm(%"class.std::__1::basic_string"* %23, i8* %91, i64 %92) #8
  br label %94

94:                                               ; preds = %36, %75, %78, %84
  %95 = getelementptr inbounds %"class.blink::mojom::UserAgentBrandVersion", %"class.blink::mojom::UserAgentBrandVersion"* %1, i64 0, i32 0
  %96 = icmp eq %"class.blink::mojom::UserAgentBrandVersion"* %3, %1
  br i1 %96, label %97, label %99

97:                                               ; preds = %94
  %98 = bitcast %"class.std::__1::basic_string"* %22 to %"struct.std::__1::basic_string<char, std::__1::char_traits<char>, std::__1::allocator<char> >::__short"*
  br label %150

99:                                               ; preds = %94
  %100 = bitcast %"class.blink::mojom::UserAgentBrandVersion"* %1 to %"struct.std::__1::basic_string<char, std::__1::char_traits<char>, std::__1::allocator<char> >::__short"*
  %101 = getelementptr inbounds %"struct.std::__1::basic_string<char, std::__1::char_traits<char>, std::__1::allocator<char> >::__short", %"struct.std::__1::basic_string<char, std::__1::char_traits<char>, std::__1::allocator<char> >::__short"* %100, i64 0, i32 1, i32 0
  %102 = load i8, i8* %101, align 1
  %103 = icmp slt i8 %102, 0
  %104 = bitcast %"class.blink::mojom::UserAgentBrandVersion"* %3 to %"struct.std::__1::basic_string<char, std::__1::char_traits<char>, std::__1::allocator<char> >::__short"*
  %105 = getelementptr inbounds %"struct.std::__1::basic_string<char, std::__1::char_traits<char>, std::__1::allocator<char> >::__short", %"struct.std::__1::basic_string<char, std::__1::char_traits<char>, std::__1::allocator<char> >::__short"* %104, i64 0, i32 1, i32 0
  %106 = load i8, i8* %105, align 1
  %107 = icmp slt i8 %106, 0
  br i1 %103, label %115, label %108

108:                                              ; preds = %99
  br i1 %107, label %111, label %109

109:                                              ; preds = %108
  %110 = bitcast %"class.blink::mojom::UserAgentBrandVersion"* %1 to i8*
  call void @llvm.memcpy.p0i8.p0i8.i64(i8* align 8 %110, i8* nonnull align 8 %4, i64 24, i1 false) #8
  br label %122

111:                                              ; preds = %108
  %112 = load i8*, i8** %5, align 8
  %113 = load i64, i64* %6, align 8
  %114 = call dereferenceable(24) %"class.std::__1::basic_string"* @_ZNSt3__112basic_stringIcNS_11char_traitsIcEENS_9allocatorIcEEE17__assign_no_aliasILb1EEERS5_PKcm(%"class.std::__1::basic_string"* %95, i8* %112, i64 %113) #8
  br label %122

115:                                              ; preds = %99
  %116 = load i8*, i8** %5, align 8
  %117 = load i64, i64* %6, align 8
  %118 = zext i8 %106 to i64
  %119 = select i1 %107, i8* %116, i8* %4
  %120 = select i1 %107, i64 %117, i64 %118
  %121 = call dereferenceable(24) %"class.std::__1::basic_string"* @_ZNSt3__112basic_stringIcNS_11char_traitsIcEENS_9allocatorIcEEE17__assign_no_aliasILb0EEERS5_PKcm(%"class.std::__1::basic_string"* %95, i8* %119, i64 %120) #8
  br label %122

122:                                              ; preds = %115, %111, %109
  %123 = getelementptr inbounds %"class.blink::mojom::UserAgentBrandVersion", %"class.blink::mojom::UserAgentBrandVersion"* %1, i64 0, i32 1
  %124 = bitcast %"class.std::__1::basic_string"* %123 to %"struct.std::__1::basic_string<char, std::__1::char_traits<char>, std::__1::allocator<char> >::__short"*
  %125 = getelementptr inbounds %"struct.std::__1::basic_string<char, std::__1::char_traits<char>, std::__1::allocator<char> >::__short", %"struct.std::__1::basic_string<char, std::__1::char_traits<char>, std::__1::allocator<char> >::__short"* %124, i64 0, i32 1, i32 0
  %126 = load i8, i8* %125, align 1
  %127 = icmp slt i8 %126, 0
  %128 = bitcast %"class.std::__1::basic_string"* %22 to %"struct.std::__1::basic_string<char, std::__1::char_traits<char>, std::__1::allocator<char> >::__short"*
  %129 = getelementptr inbounds %"struct.std::__1::basic_string<char, std::__1::char_traits<char>, std::__1::allocator<char> >::__short", %"struct.std::__1::basic_string<char, std::__1::char_traits<char>, std::__1::allocator<char> >::__short"* %128, i64 0, i32 1, i32 0
  %130 = load i8, i8* %129, align 1
  %131 = icmp slt i8 %130, 0
  br i1 %127, label %141, label %132

132:                                              ; preds = %122
  br i1 %131, label %136, label %133

133:                                              ; preds = %132
  %134 = bitcast %"class.std::__1::basic_string"* %123 to i8*
  %135 = bitcast %"class.std::__1::basic_string"* %22 to i8*
  call void @llvm.memcpy.p0i8.p0i8.i64(i8* align 8 %134, i8* align 8 %135, i64 24, i1 false) #8
  br label %150

136:                                              ; preds = %132
  %137 = getelementptr inbounds %"class.std::__1::basic_string", %"class.std::__1::basic_string"* %22, i64 0, i32 0, i32 0, i32 0, i32 0, i32 0, i32 0
  %138 = load i8*, i8** %137, align 8
  %139 = load i64, i64* %7, align 8
  %140 = call dereferenceable(24) %"class.std::__1::basic_string"* @_ZNSt3__112basic_stringIcNS_11char_traitsIcEENS_9allocatorIcEEE17__assign_no_aliasILb1EEERS5_PKcm(%"class.std::__1::basic_string"* %123, i8* %138, i64 %139) #8
  br label %150

141:                                              ; preds = %122
  %142 = getelementptr inbounds %"class.std::__1::basic_string", %"class.std::__1::basic_string"* %22, i64 0, i32 0, i32 0, i32 0, i32 0, i32 0, i32 0
  %143 = load i8*, i8** %142, align 8
  %144 = load i64, i64* %7, align 8
  %145 = bitcast %"class.std::__1::basic_string"* %22 to i8*
  %146 = zext i8 %130 to i64
  %147 = select i1 %131, i8* %143, i8* %145
  %148 = select i1 %131, i64 %144, i64 %146
  %149 = call dereferenceable(24) %"class.std::__1::basic_string"* @_ZNSt3__112basic_stringIcNS_11char_traitsIcEENS_9allocatorIcEEE17__assign_no_aliasILb0EEERS5_PKcm(%"class.std::__1::basic_string"* %123, i8* %147, i64 %148) #8
  br label %150

150:                                              ; preds = %97, %133, %136, %141
  %151 = phi %"struct.std::__1::basic_string<char, std::__1::char_traits<char>, std::__1::allocator<char> >::__short"* [ %98, %97 ], [ %128, %133 ], [ %128, %136 ], [ %128, %141 ]
  %152 = getelementptr inbounds %"struct.std::__1::basic_string<char, std::__1::char_traits<char>, std::__1::allocator<char> >::__short", %"struct.std::__1::basic_string<char, std::__1::char_traits<char>, std::__1::allocator<char> >::__short"* %151, i64 0, i32 1, i32 0
  %153 = load i8, i8* %152, align 1
  %154 = icmp slt i8 %153, 0
  br i1 %154, label %155, label %158

155:                                              ; preds = %150
  %156 = getelementptr inbounds %"class.std::__1::basic_string", %"class.std::__1::basic_string"* %22, i64 0, i32 0, i32 0, i32 0, i32 0, i32 0, i32 0
  %157 = load i8*, i8** %156, align 8
  call void @_ZdlPv(i8* %157) #9
  br label %158

158:                                              ; preds = %155, %150
  %159 = bitcast %"class.blink::mojom::UserAgentBrandVersion"* %3 to %"struct.std::__1::basic_string<char, std::__1::char_traits<char>, std::__1::allocator<char> >::__short"*
  %160 = getelementptr inbounds %"struct.std::__1::basic_string<char, std::__1::char_traits<char>, std::__1::allocator<char> >::__short", %"struct.std::__1::basic_string<char, std::__1::char_traits<char>, std::__1::allocator<char> >::__short"* %159, i64 0, i32 1, i32 0
  %161 = load i8, i8* %160, align 1
  %162 = icmp slt i8 %161, 0
  br i1 %162, label %163, label %165

163:                                              ; preds = %158
  %164 = load i8*, i8** %5, align 8
  call void @_ZdlPv(i8* %164) #9
  br label %165

165:                                              ; preds = %158, %163
  call void @llvm.lifetime.end.p0i8(i64 48, i8* nonnull %4) #8
  ret void
}

declare dereferenceable(24) %"class.std::__1::basic_string"* @_ZNSt3__112basic_stringIcNS_11char_traitsIcEENS_9allocatorIcEEE17__assign_no_aliasILb1EEERS5_PKcm(%"class.std::__1::basic_string"*, i8*, i64) local_unnamed_addr #2

declare dereferenceable(24) %"class.std::__1::basic_string"* @_ZNSt3__112basic_stringIcNS_11char_traitsIcEENS_9allocatorIcEEE17__assign_no_aliasILb0EEERS5_PKcm(%"class.std::__1::basic_string"*, i8*, i64) local_unnamed_addr #2

; Function Attrs: nounwind ssp uwtable
define linkonce_odr hidden zeroext i1 @_ZN4mojo8internal10SerializerINS_13ArrayDataViewIN5blink5mojom29UserAgentBrandVersionDataViewEEENSt3__16vectorINS3_21UserAgentBrandVersionENS7_9allocatorIS9_EEEEE11DeserializeEPNS0_10Array_DataINS0_7PointerINS4_8internal26UserAgentBrandVersion_DataEEEEEPSC_PNS_7MessageE(%"class.mojo::internal::Array_Data.54"*, %"class.std::__1::vector.30"*, %"class.mojo::Message"*) local_unnamed_addr #0 comdat align 2 {
  %4 = icmp eq %"class.mojo::internal::Array_Data.54"* %0, null
  br i1 %4, label %5, label %33

5:                                                ; preds = %3
  %6 = getelementptr inbounds %"class.std::__1::vector.30", %"class.std::__1::vector.30"* %1, i64 0, i32 0, i32 0
  %7 = load %"struct.blink::UserAgentBrandVersion"*, %"struct.blink::UserAgentBrandVersion"** %6, align 8
  %8 = getelementptr inbounds %"class.std::__1::vector.30", %"class.std::__1::vector.30"* %1, i64 0, i32 0, i32 1
  %9 = load %"struct.blink::UserAgentBrandVersion"*, %"struct.blink::UserAgentBrandVersion"** %8, align 8
  %10 = icmp eq %"struct.blink::UserAgentBrandVersion"* %9, %7
  br i1 %10, label %32, label %11

11:                                               ; preds = %5, %30
  %12 = phi %"struct.blink::UserAgentBrandVersion"* [ %13, %30 ], [ %9, %5 ]
  %13 = getelementptr inbounds %"struct.blink::UserAgentBrandVersion", %"struct.blink::UserAgentBrandVersion"* %12, i64 -1
  %14 = getelementptr inbounds %"struct.blink::UserAgentBrandVersion", %"struct.blink::UserAgentBrandVersion"* %12, i64 -1, i32 1
  %15 = bitcast %"class.std::__1::basic_string"* %14 to %"struct.std::__1::basic_string<char, std::__1::char_traits<char>, std::__1::allocator<char> >::__short"*
  %16 = getelementptr inbounds %"struct.std::__1::basic_string<char, std::__1::char_traits<char>, std::__1::allocator<char> >::__short", %"struct.std::__1::basic_string<char, std::__1::char_traits<char>, std::__1::allocator<char> >::__short"* %15, i64 0, i32 1, i32 0
  %17 = load i8, i8* %16, align 1
  %18 = icmp slt i8 %17, 0
  br i1 %18, label %19, label %22

19:                                               ; preds = %11
  %20 = getelementptr inbounds %"class.std::__1::basic_string", %"class.std::__1::basic_string"* %14, i64 0, i32 0, i32 0, i32 0, i32 0, i32 0, i32 0
  %21 = load i8*, i8** %20, align 8
  tail call void @_ZdlPv(i8* %21) #9
  br label %22

22:                                               ; preds = %19, %11
  %23 = bitcast %"struct.blink::UserAgentBrandVersion"* %13 to %"struct.std::__1::basic_string<char, std::__1::char_traits<char>, std::__1::allocator<char> >::__short"*
  %24 = getelementptr inbounds %"struct.std::__1::basic_string<char, std::__1::char_traits<char>, std::__1::allocator<char> >::__short", %"struct.std::__1::basic_string<char, std::__1::char_traits<char>, std::__1::allocator<char> >::__short"* %23, i64 0, i32 1, i32 0
  %25 = load i8, i8* %24, align 1
  %26 = icmp slt i8 %25, 0
  br i1 %26, label %27, label %30

27:                                               ; preds = %22
  %28 = getelementptr inbounds %"struct.blink::UserAgentBrandVersion", %"struct.blink::UserAgentBrandVersion"* %13, i64 0, i32 0, i32 0, i32 0, i32 0, i32 0, i32 0, i32 0
  %29 = load i8*, i8** %28, align 8
  tail call void @_ZdlPv(i8* %29) #9
  br label %30

30:                                               ; preds = %27, %22
  %31 = icmp eq %"struct.blink::UserAgentBrandVersion"* %13, %7
  br i1 %31, label %32, label %11

32:                                               ; preds = %30, %5
  store %"struct.blink::UserAgentBrandVersion"* %7, %"struct.blink::UserAgentBrandVersion"** %8, align 8
  br label %65

33:                                               ; preds = %3
  %34 = getelementptr inbounds %"class.mojo::internal::Array_Data.54", %"class.mojo::internal::Array_Data.54"* %0, i64 0, i32 0, i32 1
  %35 = load i32, i32* %34, align 1
  %36 = zext i32 %35 to i64
  %37 = tail call zeroext i1 @_ZN4mojo11ArrayTraitsINSt3__16vectorIN5blink21UserAgentBrandVersionENS1_9allocatorIS4_EEEEE6ResizeERS7_m(%"class.std::__1::vector.30"* dereferenceable(24) %1, i64 %36) #8
  br i1 %37, label %38, label %65

38:                                               ; preds = %33
  %39 = load i32, i32* %34, align 1
  %40 = icmp eq i32 %39, 0
  br i1 %40, label %65, label %41

41:                                               ; preds = %38
  %42 = getelementptr inbounds %"class.mojo::internal::Array_Data.54", %"class.mojo::internal::Array_Data.54"* %0, i64 1
  %43 = getelementptr inbounds %"class.std::__1::vector.30", %"class.std::__1::vector.30"* %1, i64 0, i32 0, i32 0
  br label %44

44:                                               ; preds = %61, %41
  %45 = phi i32 [ %39, %41 ], [ %62, %61 ]
  %46 = phi i64 [ 0, %41 ], [ %51, %61 ]
  %47 = getelementptr inbounds %"class.mojo::internal::Array_Data.54", %"class.mojo::internal::Array_Data.54"* %42, i64 %46
  %48 = bitcast %"class.mojo::internal::Array_Data.54"* %47 to i64*
  %49 = load i64, i64* %48, align 8
  %50 = icmp eq i64 %49, 0
  %51 = add nuw nsw i64 %46, 1
  br i1 %50, label %61, label %52

52:                                               ; preds = %44
  %53 = bitcast %"class.mojo::internal::Array_Data.54"* %47 to i8*
  %54 = getelementptr inbounds i8, i8* %53, i64 %49
  %55 = bitcast i8* %54 to %"class.blink::mojom::internal::UserAgentBrandVersion_Data"*
  %56 = load %"struct.blink::UserAgentBrandVersion"*, %"struct.blink::UserAgentBrandVersion"** %43, align 8
  %57 = getelementptr inbounds %"struct.blink::UserAgentBrandVersion", %"struct.blink::UserAgentBrandVersion"* %56, i64 %46
  %58 = tail call zeroext i1 @_ZN4mojo12StructTraitsIN5blink5mojom29UserAgentBrandVersionDataViewENS1_21UserAgentBrandVersionEE4ReadES3_PS4_(%"class.blink::mojom::internal::UserAgentBrandVersion_Data"* nonnull %55, %"class.mojo::Message"* %2, %"struct.blink::UserAgentBrandVersion"* %57) #8
  br i1 %58, label %59, label %65

59:                                               ; preds = %52
  %60 = load i32, i32* %34, align 1
  br label %61

61:                                               ; preds = %59, %44
  %62 = phi i32 [ %60, %59 ], [ %45, %44 ]
  %63 = zext i32 %62 to i64
  %64 = icmp ult i64 %51, %63
  br i1 %64, label %44, label %65

65:                                               ; preds = %61, %52, %38, %33, %32
  %66 = phi i1 [ true, %32 ], [ false, %33 ], [ true, %38 ], [ false, %52 ], [ true, %61 ]
  ret i1 %66
}

; Function Attrs: inlinehint nounwind ssp uwtable
define linkonce_odr hidden zeroext i1 @_ZN4mojo11ArrayTraitsINSt3__16vectorIN5blink21UserAgentBrandVersionENS1_9allocatorIS4_EEEEE6ResizeERS7_m(%"class.std::__1::vector.30"* dereferenceable(24), i64) local_unnamed_addr #3 comdat align 2 {
  %3 = alloca %"class.std::__1::vector.30", align 8
  %4 = getelementptr inbounds %"class.std::__1::vector.30", %"class.std::__1::vector.30"* %0, i64 0, i32 0, i32 1
  %5 = bitcast %"struct.blink::UserAgentBrandVersion"** %4 to i64*
  %6 = load i64, i64* %5, align 8
  %7 = bitcast %"class.std::__1::vector.30"* %0 to i64*
  %8 = load i64, i64* %7, align 8
  %9 = sub i64 %6, %8
  %10 = sdiv exact i64 %9, 48
  %11 = icmp eq i64 %10, %1
  br i1 %11, label %77, label %12

12:                                               ; preds = %2
  %13 = bitcast %"class.std::__1::vector.30"* %3 to i8*
  call void @llvm.lifetime.start.p0i8(i64 24, i8* nonnull %13) #8
  %14 = getelementptr inbounds %"class.std::__1::vector.30", %"class.std::__1::vector.30"* %3, i64 0, i32 0, i32 1
  %15 = getelementptr inbounds %"class.std::__1::vector.30", %"class.std::__1::vector.30"* %3, i64 0, i32 0, i32 2, i32 0, i32 0
  call void @llvm.memset.p0i8.i64(i8* nonnull align 8 %13, i8 0, i64 24, i1 false) #8
  %16 = icmp eq i64 %1, 0
  br i1 %16, label %17, label %19

17:                                               ; preds = %12
  %18 = bitcast %"struct.blink::UserAgentBrandVersion"** %14 to i64*
  br label %39

19:                                               ; preds = %12
  %20 = icmp ugt i64 %1, 384307168202282325
  br i1 %20, label %21, label %23

21:                                               ; preds = %19
  %22 = bitcast %"class.std::__1::vector.30"* %3 to %"class.std::__1::__vector_base_common"*
  call void @_ZNKSt3__120__vector_base_commonILb1EE20__throw_length_errorEv(%"class.std::__1::__vector_base_common"* nonnull %22) #10
  unreachable

23:                                               ; preds = %19
  %24 = mul i64 %1, 48
  %25 = tail call i8* @_Znwm(i64 %24) #9
  %26 = bitcast i8* %25 to %"struct.blink::UserAgentBrandVersion"*
  %27 = bitcast %"class.std::__1::vector.30"* %3 to i8**
  store i8* %25, i8** %27, align 8
  %28 = getelementptr inbounds %"struct.blink::UserAgentBrandVersion", %"struct.blink::UserAgentBrandVersion"* %26, i64 %1
  store %"struct.blink::UserAgentBrandVersion"* %28, %"struct.blink::UserAgentBrandVersion"** %15, align 8
  %29 = bitcast %"struct.blink::UserAgentBrandVersion"** %14 to i64*
  %30 = ptrtoint i8* %25 to i64
  %31 = add nsw i64 %1, -1
  %32 = getelementptr %"struct.blink::UserAgentBrandVersion", %"struct.blink::UserAgentBrandVersion"* %26, i64 %31, i32 0, i32 0, i32 0, i32 0, i32 0, i32 0, i32 0
  %33 = ptrtoint i8** %32 to i64
  %34 = sub i64 %33, %30
  %35 = urem i64 %34, 48
  %36 = add i64 %34, 48
  %37 = sub i64 %36, %35
  tail call void @llvm.memset.p0i8.i64(i8* nonnull align 8 %25, i8 0, i64 %37, i1 false) #8
  %38 = ptrtoint %"struct.blink::UserAgentBrandVersion"* %28 to i64
  store i64 %38, i64* %29, align 8
  br label %39

39:                                               ; preds = %17, %23
  %40 = phi i64* [ %18, %17 ], [ %29, %23 ]
  %41 = phi i64 [ 0, %17 ], [ %38, %23 ]
  %42 = phi i64 [ 0, %17 ], [ %30, %23 ]
  %43 = bitcast %"class.std::__1::vector.30"* %3 to i64*
  store i64 %42, i64* %7, align 8
  store i64 %8, i64* %43, align 8
  store i64 %41, i64* %5, align 8
  store i64 %6, i64* %40, align 8
  %44 = getelementptr inbounds %"class.std::__1::vector.30", %"class.std::__1::vector.30"* %0, i64 0, i32 0, i32 2, i32 0, i32 0
  %45 = bitcast %"struct.blink::UserAgentBrandVersion"** %44 to i64*
  %46 = load i64, i64* %45, align 8
  %47 = bitcast %"struct.blink::UserAgentBrandVersion"** %15 to i64*
  store i64 %41, i64* %45, align 8
  store i64 %46, i64* %47, align 8
  %48 = inttoptr i64 %8 to %"struct.blink::UserAgentBrandVersion"*
  %49 = icmp eq i64 %8, 0
  %50 = inttoptr i64 %6 to %"struct.blink::UserAgentBrandVersion"*
  br i1 %49, label %76, label %51

51:                                               ; preds = %39
  %52 = icmp eq %"struct.blink::UserAgentBrandVersion"* %50, %48
  br i1 %52, label %74, label %53

53:                                               ; preds = %51, %72
  %54 = phi %"struct.blink::UserAgentBrandVersion"* [ %55, %72 ], [ %50, %51 ]
  %55 = getelementptr inbounds %"struct.blink::UserAgentBrandVersion", %"struct.blink::UserAgentBrandVersion"* %54, i64 -1
  %56 = getelementptr inbounds %"struct.blink::UserAgentBrandVersion", %"struct.blink::UserAgentBrandVersion"* %54, i64 -1, i32 1
  %57 = bitcast %"class.std::__1::basic_string"* %56 to %"struct.std::__1::basic_string<char, std::__1::char_traits<char>, std::__1::allocator<char> >::__short"*
  %58 = getelementptr inbounds %"struct.std::__1::basic_string<char, std::__1::char_traits<char>, std::__1::allocator<char> >::__short", %"struct.std::__1::basic_string<char, std::__1::char_traits<char>, std::__1::allocator<char> >::__short"* %57, i64 0, i32 1, i32 0
  %59 = load i8, i8* %58, align 1
  %60 = icmp slt i8 %59, 0
  br i1 %60, label %61, label %64

61:                                               ; preds = %53
  %62 = getelementptr inbounds %"class.std::__1::basic_string", %"class.std::__1::basic_string"* %56, i64 0, i32 0, i32 0, i32 0, i32 0, i32 0, i32 0
  %63 = load i8*, i8** %62, align 8
  tail call void @_ZdlPv(i8* %63) #9
  br label %64

64:                                               ; preds = %61, %53
  %65 = bitcast %"struct.blink::UserAgentBrandVersion"* %55 to %"struct.std::__1::basic_string<char, std::__1::char_traits<char>, std::__1::allocator<char> >::__short"*
  %66 = getelementptr inbounds %"struct.std::__1::basic_string<char, std::__1::char_traits<char>, std::__1::allocator<char> >::__short", %"struct.std::__1::basic_string<char, std::__1::char_traits<char>, std::__1::allocator<char> >::__short"* %65, i64 0, i32 1, i32 0
  %67 = load i8, i8* %66, align 1
  %68 = icmp slt i8 %67, 0
  br i1 %68, label %69, label %72

69:                                               ; preds = %64
  %70 = getelementptr inbounds %"struct.blink::UserAgentBrandVersion", %"struct.blink::UserAgentBrandVersion"* %55, i64 0, i32 0, i32 0, i32 0, i32 0, i32 0, i32 0, i32 0
  %71 = load i8*, i8** %70, align 8
  tail call void @_ZdlPv(i8* %71) #9
  br label %72

72:                                               ; preds = %69, %64
  %73 = icmp eq %"struct.blink::UserAgentBrandVersion"* %55, %48
  br i1 %73, label %74, label %53

74:                                               ; preds = %72, %51
  %75 = inttoptr i64 %8 to i8*
  store %"struct.blink::UserAgentBrandVersion"* %48, %"struct.blink::UserAgentBrandVersion"** %14, align 8
  tail call void @_ZdlPv(i8* %75) #9
  br label %76

76:                                               ; preds = %39, %74
  call void @llvm.lifetime.end.p0i8(i64 24, i8* nonnull %13) #8
  br label %77

77:                                               ; preds = %2, %76
  ret i1 true
}

declare zeroext i1 @_ZN4mojo12StructTraitsIN5blink5mojom29UserAgentBrandVersionDataViewENS1_21UserAgentBrandVersionEE4ReadES3_PS4_(%"class.blink::mojom::internal::UserAgentBrandVersion_Data"*, %"class.mojo::Message"*, %"struct.blink::UserAgentBrandVersion"*) local_unnamed_addr #2

declare zeroext i1 @_ZN4mojo12StructTraitsIN5blink5mojom25UserAgentMetadataDataViewENS1_17UserAgentMetadataEE4ReadES3_PS4_(%"class.blink::mojom::internal::UserAgentMetadata_Data"*, %"class.mojo::Message"*, %"struct.blink::UserAgentMetadata"*) local_unnamed_addr #2

attributes #0 = { nounwind ssp uwtable "correctly-rounded-divide-sqrt-fp-math"="false" "disable-tail-calls"="false" "less-precise-fpmad"="false" "min-legal-vector-width"="0" "no-frame-pointer-elim"="false" "no-frame-pointer-elim-non-leaf" "no-infs-fp-math"="false" "no-jump-tables"="false" "no-nans-fp-math"="false" "no-signed-zeros-fp-math"="false" "no-trapping-math"="false" "null-pointer-is-valid"="true" "stack-protector-buffer-size"="4" "target-cpu"="x86-64" "target-features"="+cx8,+fxsr,+mmx,+sse,+sse2,+sse3,+x87" "unsafe-fp-math"="false" "use-soft-float"="false" }
attributes #1 = { argmemonly nounwind }
attributes #2 = { "correctly-rounded-divide-sqrt-fp-math"="false" "disable-tail-calls"="false" "less-precise-fpmad"="false" "no-frame-pointer-elim"="false" "no-frame-pointer-elim-non-leaf" "no-infs-fp-math"="false" "no-nans-fp-math"="false" "no-signed-zeros-fp-math"="false" "no-trapping-math"="false" "null-pointer-is-valid"="true" "stack-protector-buffer-size"="4" "target-cpu"="x86-64" "target-features"="+cx8,+fxsr,+mmx,+sse,+sse2,+sse3,+x87" "unsafe-fp-math"="false" "use-soft-float"="false" }
attributes #3 = { inlinehint nounwind ssp uwtable "correctly-rounded-divide-sqrt-fp-math"="false" "disable-tail-calls"="false" "less-precise-fpmad"="false" "min-legal-vector-width"="0" "no-frame-pointer-elim"="false" "no-frame-pointer-elim-non-leaf" "no-infs-fp-math"="false" "no-jump-tables"="false" "no-nans-fp-math"="false" "no-signed-zeros-fp-math"="false" "no-trapping-math"="false" "null-pointer-is-valid"="true" "stack-protector-buffer-size"="4" "target-cpu"="x86-64" "target-features"="+cx8,+fxsr,+mmx,+sse,+sse2,+sse3,+x87" "unsafe-fp-math"="false" "use-soft-float"="false" }
attributes #4 = { noreturn "correctly-rounded-divide-sqrt-fp-math"="false" "disable-tail-calls"="false" "less-precise-fpmad"="false" "no-frame-pointer-elim"="false" "no-frame-pointer-elim-non-leaf" "no-infs-fp-math"="false" "no-nans-fp-math"="false" "no-signed-zeros-fp-math"="false" "no-trapping-math"="false" "null-pointer-is-valid"="true" "stack-protector-buffer-size"="4" "target-cpu"="x86-64" "target-features"="+cx8,+fxsr,+mmx,+sse,+sse2,+sse3,+x87" "unsafe-fp-math"="false" "use-soft-float"="false" }
attributes #5 = { nobuiltin nofree "correctly-rounded-divide-sqrt-fp-math"="false" "disable-tail-calls"="false" "less-precise-fpmad"="false" "no-frame-pointer-elim"="false" "no-frame-pointer-elim-non-leaf" "no-infs-fp-math"="false" "no-nans-fp-math"="false" "no-signed-zeros-fp-math"="false" "no-trapping-math"="false" "null-pointer-is-valid"="true" "stack-protector-buffer-size"="4" "target-cpu"="x86-64" "target-features"="+cx8,+fxsr,+mmx,+sse,+sse2,+sse3,+x87" "unsafe-fp-math"="false" "use-soft-float"="false" }
attributes #6 = { nobuiltin nounwind "correctly-rounded-divide-sqrt-fp-math"="false" "disable-tail-calls"="false" "less-precise-fpmad"="false" "no-frame-pointer-elim"="false" "no-frame-pointer-elim-non-leaf" "no-infs-fp-math"="false" "no-nans-fp-math"="false" "no-signed-zeros-fp-math"="false" "no-trapping-math"="false" "null-pointer-is-valid"="true" "stack-protector-buffer-size"="4" "target-cpu"="x86-64" "target-features"="+cx8,+fxsr,+mmx,+sse,+sse2,+sse3,+x87" "unsafe-fp-math"="false" "use-soft-float"="false" }
attributes #7 = { nounwind readnone }
attributes #8 = { nounwind }
attributes #9 = { builtin nounwind }
attributes #10 = { noreturn nounwind }

!llvm.module.flags = !{!0, !1}

!0 = !{i32 1, !"wchar_size", i32 4}
!1 = !{i32 7, !"PIC Level", i32 2}
!2 = !{i8 0, i8 2}
!3 = !{!4}
!4 = distinct !{!4, !5, !"_ZN5blink5mojom21UserAgentBrandVersion3NewIJEEEN4mojo16InlinedStructPtrIS1_EEDpOT_: argument 0"}
!5 = distinct !{!5, !"_ZN5blink5mojom21UserAgentBrandVersion3NewIJEEEN4mojo16InlinedStructPtrIS1_EEDpOT_"}
!6 = !{!7}
!7 = distinct !{!7, !8, !"_ZN5blink5mojom17UserAgentMetadata3NewIJEEEN4mojo9StructPtrIS1_EEDpOT_: argument 0"}
!8 = distinct !{!8, !"_ZN5blink5mojom17UserAgentMetadata3NewIJEEEN4mojo9StructPtrIS1_EEDpOT_"}
!9 = !{!10}
!10 = distinct !{!10, !11, !"_ZN5blink5mojom17UserAgentOverride3NewIJEEEN4mojo9StructPtrIS1_EEDpOT_: argument 0"}
!11 = distinct !{!11, !"_ZN5blink5mojom17UserAgentOverride3NewIJEEEN4mojo9StructPtrIS1_EEDpOT_"}
