; ModuleID = 'gen/third_party/blink/renderer/bindings/modules/v8/v8_auction_ad_interest_group.cc'
source_filename = "gen/third_party/blink/renderer/bindings/modules/v8/v8_auction_ad_interest_group.cc"
target datalayout = "e-m:e-i64:64-f80:128-n8:16:32:64-S128"
target triple = "x86_64-unknown-linux-gnu"

module asm ".symver exp, exp@GLIBC_2.2.5"
module asm ".symver exp2, exp2@GLIBC_2.2.5"
module asm ".symver exp2f, exp2f@GLIBC_2.2.5"
module asm ".symver expf, expf@GLIBC_2.2.5"
module asm ".symver lgamma, lgamma@GLIBC_2.2.5"
module asm ".symver lgammaf, lgammaf@GLIBC_2.2.5"
module asm ".symver lgammal, lgammal@GLIBC_2.2.5"
module asm ".symver log, log@GLIBC_2.2.5"
module asm ".symver log2, log2@GLIBC_2.2.5"
module asm ".symver log2f, log2f@GLIBC_2.2.5"
module asm ".symver logf, logf@GLIBC_2.2.5"
module asm ".symver pow, pow@GLIBC_2.2.5"
module asm ".symver powf, powf@GLIBC_2.2.5"

%"class.WTF::StringImpl" = type { i32, i32, %"struct.std::__1::atomic.184" }
%"struct.std::__1::atomic.184" = type { %"struct.std::__1::__atomic_base.185" }
%"struct.std::__1::__atomic_base.185" = type { %"struct.std::__1::__atomic_base.186" }
%"struct.std::__1::__atomic_base.186" = type { %"struct.std::__1::__cxx_atomic_impl.187" }
%"struct.std::__1::__cxx_atomic_impl.187" = type { %"struct.std::__1::__cxx_atomic_base_impl.188" }
%"struct.std::__1::__cxx_atomic_base_impl.188" = type { i32 }
%"class.WTF::ThreadSpecific" = type { %"class.blink::ThreadState"**, %"class.base::ThreadLocalStorage::Slot" }
%"class.blink::ThreadState" = type <{ %"class.std::__1::unique_ptr", i32, [4 x i8], %"class.std::__1::unique_ptr.138", %"class.std::__1::unique_ptr.138", i8**, i8, i8, i8, i8, i8, i8, [2 x i8], i64, i64, i32, i32, i32, [4 x i8], %"class.WTF::Deque", %"class.v8::Isolate"*, void (%"class.v8::Isolate"*, %"class.v8::EmbedderGraph"*, i8*)*, %"class.std::__1::unique_ptr.148", %"class.std::__1::unique_ptr.154", %"struct.blink::ThreadState::GCData", %"class.std::__1::unique_ptr.166", %"class.std::__1::unique_ptr.172", %"class.base::JobHandle", %"class.base::JobHandle", %"struct.std::__1::atomic.179", [7 x i8], i64, i8, [7 x i8], i64, %"class.base::TimeTicks", i8, i8, [6 x i8] }>
%"class.std::__1::unique_ptr" = type { %"class.std::__1::__compressed_pair" }
%"class.std::__1::__compressed_pair" = type { %"struct.std::__1::__compressed_pair_elem" }
%"struct.std::__1::__compressed_pair_elem" = type { %"class.blink::ThreadHeap"* }
%"class.blink::ThreadHeap" = type { %"class.blink::ThreadState"*, %"class.std::__1::unique_ptr.12", %"class.std::__1::unique_ptr.16", %"class.std::__1::unique_ptr.22", %"class.std::__1::unique_ptr.28", %"class.std::__1::unique_ptr.34", %"class.std::__1::unique_ptr.40", %"class.std::__1::unique_ptr.47", %"class.std::__1::unique_ptr.54", %"class.std::__1::unique_ptr.54", %"class.std::__1::unique_ptr.61", %"class.std::__1::unique_ptr.68", %"class.std::__1::unique_ptr.75", %"class.std::__1::unique_ptr.75", %"class.std::__1::unique_ptr.82", %"class.std::__1::unique_ptr.89", %"class.std::__1::unique_ptr.96", %"class.std::__1::unique_ptr.119", %"struct.blink::ThreadHeap::LastAllocatedRegion", [9 x %"class.blink::BaseArena"*], i64, i64 }
%"class.std::__1::unique_ptr.12" = type { %"class.std::__1::__compressed_pair.13" }
%"class.std::__1::__compressed_pair.13" = type { %"struct.std::__1::__compressed_pair_elem.14" }
%"struct.std::__1::__compressed_pair_elem.14" = type { %"class.blink::ThreadHeapStatsCollector"* }
%"class.blink::ThreadHeapStatsCollector" = type opaque
%"class.std::__1::unique_ptr.16" = type { %"class.std::__1::__compressed_pair.17" }
%"class.std::__1::__compressed_pair.17" = type { %"struct.std::__1::__compressed_pair_elem.18" }
%"struct.std::__1::__compressed_pair_elem.18" = type { %"class.blink::RegionTree"* }
%"class.blink::RegionTree" = type opaque
%"class.std::__1::unique_ptr.22" = type { %"class.std::__1::__compressed_pair.23" }
%"class.std::__1::__compressed_pair.23" = type { %"struct.std::__1::__compressed_pair_elem.24" }
%"struct.std::__1::__compressed_pair_elem.24" = type { %"class.blink::PageBloomFilter"* }
%"class.blink::PageBloomFilter" = type opaque
%"class.std::__1::unique_ptr.28" = type { %"class.std::__1::__compressed_pair.29" }
%"class.std::__1::__compressed_pair.29" = type { %"struct.std::__1::__compressed_pair_elem.30" }
%"struct.std::__1::__compressed_pair_elem.30" = type { %"class.blink::PagePool"* }
%"class.blink::PagePool" = type opaque
%"class.std::__1::unique_ptr.34" = type { %"class.std::__1::__compressed_pair.35" }
%"class.std::__1::__compressed_pair.35" = type { %"struct.std::__1::__compressed_pair_elem.36" }
%"struct.std::__1::__compressed_pair_elem.36" = type { %"class.blink::ProcessHeapReporter"* }
%"class.blink::ProcessHeapReporter" = type opaque
%"class.std::__1::unique_ptr.40" = type { %"class.std::__1::__compressed_pair.41" }
%"class.std::__1::__compressed_pair.41" = type { %"struct.std::__1::__compressed_pair_elem.42" }
%"struct.std::__1::__compressed_pair_elem.42" = type { %"class.blink::Worklist"* }
%"class.blink::Worklist" = type { [4 x %"struct.blink::Worklist<blink::TraceDescriptor, 512, 4>::PrivateSegmentHolder"], %"class.blink::Worklist<blink::TraceDescriptor, 512, 4>::GlobalPool" }
%"struct.blink::Worklist<blink::TraceDescriptor, 512, 4>::PrivateSegmentHolder" = type { %"class.blink::Worklist<blink::TraceDescriptor, 512, 4>::Segment"*, %"class.blink::Worklist<blink::TraceDescriptor, 512, 4>::Segment"*, [64 x i8] }
%"class.blink::Worklist<blink::TraceDescriptor, 512, 4>::Segment" = type { %"class.blink::Worklist<blink::TraceDescriptor, 512, 4>::Segment"*, i64, [512 x %"struct.blink::TraceDescriptor"] }
%"struct.blink::TraceDescriptor" = type { i8*, void (%"class.blink::Visitor"*, i8*)* }
%"class.blink::Visitor" = type { i32 (...)**, %"class.blink::ThreadState"* }
%"class.blink::Worklist<blink::TraceDescriptor, 512, 4>::GlobalPool" = type { %"class.base::Lock", %"class.blink::Worklist<blink::TraceDescriptor, 512, 4>::Segment"*, %"struct.std::__1::atomic" }
%"class.base::Lock" = type { %"class.base::internal::LockImpl" }
%"class.base::internal::LockImpl" = type { %union.pthread_mutex_t }
%union.pthread_mutex_t = type { %struct.__pthread_mutex_s }
%struct.__pthread_mutex_s = type { i32, i32, i32, i32, i32, i16, i16, %struct.__pthread_internal_list }
%struct.__pthread_internal_list = type { %struct.__pthread_internal_list*, %struct.__pthread_internal_list* }
%"struct.std::__1::atomic" = type { %"struct.std::__1::__atomic_base" }
%"struct.std::__1::__atomic_base" = type { %"struct.std::__1::__atomic_base.43" }
%"struct.std::__1::__atomic_base.43" = type { %"struct.std::__1::__cxx_atomic_impl" }
%"struct.std::__1::__cxx_atomic_impl" = type { %"struct.std::__1::__cxx_atomic_base_impl" }
%"struct.std::__1::__cxx_atomic_base_impl" = type { i64 }
%"class.std::__1::unique_ptr.47" = type { %"class.std::__1::__compressed_pair.48" }
%"class.std::__1::__compressed_pair.48" = type { %"struct.std::__1::__compressed_pair_elem.49" }
%"struct.std::__1::__compressed_pair_elem.49" = type { %"class.blink::Worklist.50"* }
%"class.blink::Worklist.50" = type { [4 x %"struct.blink::Worklist<blink::HeapObjectHeader *, 64, 4>::PrivateSegmentHolder"], %"class.blink::Worklist<blink::HeapObjectHeader *, 64, 4>::GlobalPool" }
%"struct.blink::Worklist<blink::HeapObjectHeader *, 64, 4>::PrivateSegmentHolder" = type { %"class.blink::Worklist<blink::HeapObjectHeader *, 64, 4>::Segment"*, %"class.blink::Worklist<blink::HeapObjectHeader *, 64, 4>::Segment"*, [64 x i8] }
%"class.blink::Worklist<blink::HeapObjectHeader *, 64, 4>::Segment" = type opaque
%"class.blink::Worklist<blink::HeapObjectHeader *, 64, 4>::GlobalPool" = type { %"class.base::Lock", %"class.blink::Worklist<blink::HeapObjectHeader *, 64, 4>::Segment"*, %"struct.std::__1::atomic" }
%"class.std::__1::unique_ptr.54" = type { %"class.std::__1::__compressed_pair.55" }
%"class.std::__1::__compressed_pair.55" = type { %"struct.std::__1::__compressed_pair_elem.56" }
%"struct.std::__1::__compressed_pair_elem.56" = type { %"class.blink::Worklist.57"* }
%"class.blink::Worklist.57" = type { [4 x %"struct.blink::Worklist<const void *, 16, 4>::PrivateSegmentHolder"], %"class.blink::Worklist<const void *, 16, 4>::GlobalPool" }
%"struct.blink::Worklist<const void *, 16, 4>::PrivateSegmentHolder" = type { %"class.blink::Worklist<const void *, 16, 4>::Segment"*, %"class.blink::Worklist<const void *, 16, 4>::Segment"*, [64 x i8] }
%"class.blink::Worklist<const void *, 16, 4>::Segment" = type { %"class.blink::Worklist<const void *, 16, 4>::Segment"*, i64, [16 x i8*] }
%"class.blink::Worklist<const void *, 16, 4>::GlobalPool" = type { %"class.base::Lock", %"class.blink::Worklist<const void *, 16, 4>::Segment"*, %"struct.std::__1::atomic" }
%"class.std::__1::unique_ptr.61" = type { %"class.std::__1::__compressed_pair.62" }
%"class.std::__1::__compressed_pair.62" = type { %"struct.std::__1::__compressed_pair_elem.63" }
%"struct.std::__1::__compressed_pair_elem.63" = type { %"class.blink::Worklist.64"* }
%"class.blink::Worklist.64" = type { [4 x %"struct.blink::Worklist<blink::CustomCallbackItem, 64, 4>::PrivateSegmentHolder"], %"class.blink::Worklist<blink::CustomCallbackItem, 64, 4>::GlobalPool" }
%"struct.blink::Worklist<blink::CustomCallbackItem, 64, 4>::PrivateSegmentHolder" = type { %"class.blink::Worklist<blink::CustomCallbackItem, 64, 4>::Segment"*, %"class.blink::Worklist<blink::CustomCallbackItem, 64, 4>::Segment"*, [64 x i8] }
%"class.blink::Worklist<blink::CustomCallbackItem, 64, 4>::Segment" = type opaque
%"class.blink::Worklist<blink::CustomCallbackItem, 64, 4>::GlobalPool" = type { %"class.base::Lock", %"class.blink::Worklist<blink::CustomCallbackItem, 64, 4>::Segment"*, %"struct.std::__1::atomic" }
%"class.std::__1::unique_ptr.68" = type { %"class.std::__1::__compressed_pair.69" }
%"class.std::__1::__compressed_pair.69" = type { %"struct.std::__1::__compressed_pair_elem.70" }
%"struct.std::__1::__compressed_pair_elem.70" = type { %"class.blink::Worklist.71"* }
%"class.blink::Worklist.71" = type { [4 x %"struct.blink::Worklist<const void *const *, 256, 4>::PrivateSegmentHolder"], %"class.blink::Worklist<const void *const *, 256, 4>::GlobalPool" }
%"struct.blink::Worklist<const void *const *, 256, 4>::PrivateSegmentHolder" = type { %"class.blink::Worklist<const void *const *, 256, 4>::Segment"*, %"class.blink::Worklist<const void *const *, 256, 4>::Segment"*, [64 x i8] }
%"class.blink::Worklist<const void *const *, 256, 4>::Segment" = type opaque
%"class.blink::Worklist<const void *const *, 256, 4>::GlobalPool" = type { %"class.base::Lock", %"class.blink::Worklist<const void *const *, 256, 4>::Segment"*, %"struct.std::__1::atomic" }
%"class.std::__1::unique_ptr.75" = type { %"class.std::__1::__compressed_pair.76" }
%"class.std::__1::__compressed_pair.76" = type { %"struct.std::__1::__compressed_pair_elem.77" }
%"struct.std::__1::__compressed_pair_elem.77" = type { %"class.blink::Worklist.78"* }
%"class.blink::Worklist.78" = type { [4 x %"struct.blink::Worklist<blink::EphemeronPairItem, 64, 4>::PrivateSegmentHolder"], %"class.blink::Worklist<blink::EphemeronPairItem, 64, 4>::GlobalPool" }
%"struct.blink::Worklist<blink::EphemeronPairItem, 64, 4>::PrivateSegmentHolder" = type { %"class.blink::Worklist<blink::EphemeronPairItem, 64, 4>::Segment"*, %"class.blink::Worklist<blink::EphemeronPairItem, 64, 4>::Segment"*, [64 x i8] }
%"class.blink::Worklist<blink::EphemeronPairItem, 64, 4>::Segment" = type opaque
%"class.blink::Worklist<blink::EphemeronPairItem, 64, 4>::GlobalPool" = type { %"class.base::Lock", %"class.blink::Worklist<blink::EphemeronPairItem, 64, 4>::Segment"*, %"struct.std::__1::atomic" }
%"class.std::__1::unique_ptr.82" = type { %"class.std::__1::__compressed_pair.83" }
%"class.std::__1::__compressed_pair.83" = type { %"struct.std::__1::__compressed_pair_elem.84" }
%"struct.std::__1::__compressed_pair_elem.84" = type { %"class.blink::Worklist.85"* }
%"class.blink::Worklist.85" = type { [4 x %"struct.blink::Worklist<const blink::TraceWrapperV8Reference<v8::Value> *, 16, 4>::PrivateSegmentHolder"], %"class.blink::Worklist<const blink::TraceWrapperV8Reference<v8::Value> *, 16, 4>::GlobalPool" }
%"struct.blink::Worklist<const blink::TraceWrapperV8Reference<v8::Value> *, 16, 4>::PrivateSegmentHolder" = type { %"class.blink::Worklist<const blink::TraceWrapperV8Reference<v8::Value> *, 16, 4>::Segment"*, %"class.blink::Worklist<const blink::TraceWrapperV8Reference<v8::Value> *, 16, 4>::Segment"*, [64 x i8] }
%"class.blink::Worklist<const blink::TraceWrapperV8Reference<v8::Value> *, 16, 4>::Segment" = type opaque
%"class.blink::Worklist<const blink::TraceWrapperV8Reference<v8::Value> *, 16, 4>::GlobalPool" = type { %"class.base::Lock", %"class.blink::Worklist<const blink::TraceWrapperV8Reference<v8::Value> *, 16, 4>::Segment"*, %"struct.std::__1::atomic" }
%"class.std::__1::unique_ptr.89" = type { %"class.std::__1::__compressed_pair.90" }
%"class.std::__1::__compressed_pair.90" = type { %"struct.std::__1::__compressed_pair_elem.91" }
%"struct.std::__1::__compressed_pair_elem.91" = type { %"class.blink::Worklist.92"* }
%"class.blink::Worklist.92" = type { [4 x %"struct.blink::Worklist<blink::NotSafeToConcurrentlyTraceItem, 64, 4>::PrivateSegmentHolder"], %"class.blink::Worklist<blink::NotSafeToConcurrentlyTraceItem, 64, 4>::GlobalPool" }
%"struct.blink::Worklist<blink::NotSafeToConcurrentlyTraceItem, 64, 4>::PrivateSegmentHolder" = type { %"class.blink::Worklist<blink::NotSafeToConcurrentlyTraceItem, 64, 4>::Segment"*, %"class.blink::Worklist<blink::NotSafeToConcurrentlyTraceItem, 64, 4>::Segment"*, [64 x i8] }
%"class.blink::Worklist<blink::NotSafeToConcurrentlyTraceItem, 64, 4>::Segment" = type { %"class.blink::Worklist<blink::NotSafeToConcurrentlyTraceItem, 64, 4>::Segment"*, i64, [64 x %"struct.blink::NotSafeToConcurrentlyTraceItem"] }
%"struct.blink::NotSafeToConcurrentlyTraceItem" = type { %"struct.blink::TraceDescriptor", i64 }
%"class.blink::Worklist<blink::NotSafeToConcurrentlyTraceItem, 64, 4>::GlobalPool" = type { %"class.base::Lock", %"class.blink::Worklist<blink::NotSafeToConcurrentlyTraceItem, 64, 4>::Segment"*, %"struct.std::__1::atomic" }
%"class.std::__1::unique_ptr.96" = type { %"class.std::__1::__compressed_pair.97" }
%"class.std::__1::__compressed_pair.97" = type { %"struct.std::__1::__compressed_pair_elem.98" }
%"struct.std::__1::__compressed_pair_elem.98" = type { %"class.blink::WeakContainersWorklist"* }
%"class.blink::WeakContainersWorklist" = type { %"class.WTF::Mutex", %"class.std::__1::unordered_set" }
%"class.WTF::Mutex" = type { %"class.WTF::MutexBase" }
%"class.WTF::MutexBase" = type { %"struct.WTF::PlatformMutex" }
%"struct.WTF::PlatformMutex" = type { %union.pthread_mutex_t }
%"class.std::__1::unordered_set" = type { %"class.std::__1::__hash_table" }
%"class.std::__1::__hash_table" = type <{ %"class.std::__1::unique_ptr.99", %"class.std::__1::__compressed_pair.106", %"class.std::__1::__compressed_pair.111", %"class.std::__1::__compressed_pair.113", [4 x i8] }>
%"class.std::__1::unique_ptr.99" = type { %"class.std::__1::__compressed_pair.100" }
%"class.std::__1::__compressed_pair.100" = type { %"struct.std::__1::__compressed_pair_elem.101", %"struct.std::__1::__compressed_pair_elem.102" }
%"struct.std::__1::__compressed_pair_elem.101" = type { %"struct.std::__1::__hash_node_base"** }
%"struct.std::__1::__hash_node_base" = type { %"struct.std::__1::__hash_node_base"* }
%"struct.std::__1::__compressed_pair_elem.102" = type { %"class.std::__1::__bucket_list_deallocator" }
%"class.std::__1::__bucket_list_deallocator" = type { %"class.std::__1::__compressed_pair.103" }
%"class.std::__1::__compressed_pair.103" = type { %"struct.std::__1::__compressed_pair_elem.104" }
%"struct.std::__1::__compressed_pair_elem.104" = type { i64 }
%"class.std::__1::__compressed_pair.106" = type { %"struct.std::__1::__compressed_pair_elem.107" }
%"struct.std::__1::__compressed_pair_elem.107" = type { %"struct.std::__1::__hash_node_base" }
%"class.std::__1::__compressed_pair.111" = type { %"struct.std::__1::__compressed_pair_elem.104" }
%"class.std::__1::__compressed_pair.113" = type { %"struct.std::__1::__compressed_pair_elem.114" }
%"struct.std::__1::__compressed_pair_elem.114" = type { float }
%"class.std::__1::unique_ptr.119" = type { %"class.std::__1::__compressed_pair.120" }
%"class.std::__1::__compressed_pair.120" = type { %"struct.std::__1::__compressed_pair_elem.121" }
%"struct.std::__1::__compressed_pair_elem.121" = type { %"class.blink::HeapCompact"* }
%"class.blink::HeapCompact" = type <{ %"class.blink::ThreadHeap"*, %"class.std::__1::unique_ptr.122", i8, [7 x i8], i64, i64, i32, [4 x i8], i64, i8, [7 x i8] }>
%"class.std::__1::unique_ptr.122" = type { %"class.std::__1::__compressed_pair.123" }
%"class.std::__1::__compressed_pair.123" = type { %"struct.std::__1::__compressed_pair_elem.124" }
%"struct.std::__1::__compressed_pair_elem.124" = type { %"class.blink::HeapCompact::MovableObjectFixups"* }
%"class.blink::HeapCompact::MovableObjectFixups" = type opaque
%"struct.blink::ThreadHeap::LastAllocatedRegion" = type { i8*, i64 }
%"class.blink::BaseArena" = type <{ i32 (...)**, %"class.blink::PageStackThreadSafe", %"class.blink::PageStackThreadSafe", %"class.blink::PageStackThreadSafe", %"class.blink::PageStackThreadSafe", %"class.blink::ThreadState"*, i32, [4 x i8] }>
%"class.blink::PageStackThreadSafe" = type { %"class.blink::PageStack", %"class.WTF::Mutex" }
%"class.blink::PageStack" = type { %"class.WTF::Vector.131" }
%"class.WTF::Vector.131" = type { %"class.WTF::VectorBuffer.132" }
%"class.WTF::VectorBuffer.132" = type { %"class.WTF::VectorBufferBase.133" }
%"class.WTF::VectorBufferBase.133" = type { %"class.blink::BasePage"**, i32, i32 }
%"class.blink::BasePage" = type <{ i32 (...)**, %"class.blink::PageMemory"*, %"class.blink::BaseArena"*, %"class.blink::ThreadState"*, i64, i8, i8, i8, [5 x i8] }>
%"class.blink::PageMemory" = type opaque
%"class.std::__1::unique_ptr.138" = type { %"class.std::__1::__compressed_pair.139" }
%"class.std::__1::__compressed_pair.139" = type { %"struct.std::__1::__compressed_pair_elem.140" }
%"struct.std::__1::__compressed_pair_elem.140" = type { %"class.blink::PersistentRegion"* }
%"class.blink::PersistentRegion" = type { %"class.blink::PersistentRegionBase" }
%"class.blink::PersistentRegionBase" = type { %"class.blink::PersistentNode"*, %"struct.blink::PersistentNodeSlots"* }
%"class.blink::PersistentNode" = type { i8*, void (%"class.blink::Visitor"*, i8*)* }
%"struct.blink::PersistentNodeSlots" = type { %"struct.blink::PersistentNodeSlots"*, [256 x %"class.blink::PersistentNode"] }
%"class.WTF::Deque" = type { %"class.WTF::Deque<std::__1::pair<void *, bool (*)(const blink::LivenessBroker &, void *)>, 0, WTF::PartitionAllocator>::BackingBuffer", i32, i32 }
%"class.WTF::Deque<std::__1::pair<void *, bool (*)(const blink::LivenessBroker &, void *)>, 0, WTF::PartitionAllocator>::BackingBuffer" = type { %"class.WTF::VectorBuffer.146" }
%"class.WTF::VectorBuffer.146" = type { %"class.WTF::VectorBufferBase.147" }
%"class.WTF::VectorBufferBase.147" = type { %"struct.std::__1::pair"*, i32, i32 }
%"struct.std::__1::pair" = type { i8*, i1 (%"class.blink::LivenessBroker"*, i8*)* }
%"class.blink::LivenessBroker" = type { i8 }
%"class.v8::Isolate" = type { i8 }
%"class.v8::EmbedderGraph" = type opaque
%"class.std::__1::unique_ptr.148" = type { %"class.std::__1::__compressed_pair.149" }
%"class.std::__1::__compressed_pair.149" = type { %"struct.std::__1::__compressed_pair_elem.150" }
%"struct.std::__1::__compressed_pair_elem.150" = type { %"class.blink::UnifiedHeapController"* }
%"class.blink::UnifiedHeapController" = type opaque
%"class.std::__1::unique_ptr.154" = type { %"class.std::__1::__compressed_pair.155" }
%"class.std::__1::__compressed_pair.155" = type { %"struct.std::__1::__compressed_pair_elem.156" }
%"struct.std::__1::__compressed_pair_elem.156" = type { %"class.v8::EmbedderRootsHandler"* }
%"class.v8::EmbedderRootsHandler" = type { i32 (...)** }
%"struct.blink::ThreadState::GCData" = type { i32, i32, i32, i32, %"class.std::__1::unique_ptr.160" }
%"class.std::__1::unique_ptr.160" = type { %"class.std::__1::__compressed_pair.161" }
%"class.std::__1::__compressed_pair.161" = type { %"struct.std::__1::__compressed_pair_elem.162" }
%"struct.std::__1::__compressed_pair_elem.162" = type { %"class.blink::MarkingVisitor"* }
%"class.blink::MarkingVisitor" = type { %"class.blink::MarkingVisitorBase", %"class.blink::MarkingVisitor::RecentlyRetracedWeakContainers" }
%"class.blink::MarkingVisitorBase" = type { %"class.blink::Visitor", %"class.blink::Worklist<blink::TraceDescriptor, 512, 4>::View", %"class.blink::Worklist<blink::HeapObjectHeader *, 64, 4>::View", %"class.blink::Worklist<const void *, 16, 4>::View", %"class.blink::Worklist<blink::CustomCallbackItem, 64, 4>::View", %"class.blink::Worklist<const void *const *, 256, 4>::View", %"class.blink::Worklist<blink::EphemeronPairItem, 64, 4>::View", %"class.blink::Worklist<blink::EphemeronPairItem, 64, 4>::View", %"class.blink::WeakContainersWorklist"*, i64, i32, i32 }
%"class.blink::Worklist<blink::TraceDescriptor, 512, 4>::View" = type <{ %"class.blink::Worklist"*, i32, [4 x i8] }>
%"class.blink::Worklist<blink::HeapObjectHeader *, 64, 4>::View" = type <{ %"class.blink::Worklist.50"*, i32, [4 x i8] }>
%"class.blink::Worklist<const void *, 16, 4>::View" = type <{ %"class.blink::Worklist.57"*, i32, [4 x i8] }>
%"class.blink::Worklist<blink::CustomCallbackItem, 64, 4>::View" = type <{ %"class.blink::Worklist.64"*, i32, [4 x i8] }>
%"class.blink::Worklist<const void *const *, 256, 4>::View" = type <{ %"class.blink::Worklist.71"*, i32, [4 x i8] }>
%"class.blink::Worklist<blink::EphemeronPairItem, 64, 4>::View" = type <{ %"class.blink::Worklist.78"*, i32, [4 x i8] }>
%"class.blink::MarkingVisitor::RecentlyRetracedWeakContainers" = type { %"class.std::__1::vector", i64 }
%"class.std::__1::vector" = type { %"class.std::__1::__vector_base" }
%"class.std::__1::__vector_base" = type { %"class.blink::HeapObjectHeader"**, %"class.blink::HeapObjectHeader"**, %"class.std::__1::__compressed_pair.195" }
%"class.blink::HeapObjectHeader" = type { i32, i16, i16 }
%"class.std::__1::__compressed_pair.195" = type { %"struct.std::__1::__compressed_pair_elem.196" }
%"struct.std::__1::__compressed_pair_elem.196" = type { %"class.blink::HeapObjectHeader"** }
%"class.std::__1::unique_ptr.166" = type { %"class.std::__1::__compressed_pair.167" }
%"class.std::__1::__compressed_pair.167" = type { %"struct.std::__1::__compressed_pair_elem.168" }
%"struct.std::__1::__compressed_pair_elem.168" = type { %"class.blink::ThreadState::IncrementalMarkingScheduler"* }
%"class.blink::ThreadState::IncrementalMarkingScheduler" = type opaque
%"class.std::__1::unique_ptr.172" = type { %"class.std::__1::__compressed_pair.173" }
%"class.std::__1::__compressed_pair.173" = type { %"struct.std::__1::__compressed_pair_elem.174" }
%"struct.std::__1::__compressed_pair_elem.174" = type { %"class.blink::MarkingSchedulingOracle"* }
%"class.blink::MarkingSchedulingOracle" = type opaque
%"class.base::JobHandle" = type { %class.scoped_refptr.178 }
%class.scoped_refptr.178 = type { %"class.base::internal::JobTaskSource"* }
%"class.base::internal::JobTaskSource" = type opaque
%"struct.std::__1::atomic.179" = type { %"struct.std::__1::__atomic_base.180" }
%"struct.std::__1::__atomic_base.180" = type { %"struct.std::__1::__cxx_atomic_impl.181" }
%"struct.std::__1::__cxx_atomic_impl.181" = type { %"struct.std::__1::__cxx_atomic_base_impl.182" }
%"struct.std::__1::__cxx_atomic_base_impl.182" = type { i8 }
%"class.base::TimeTicks" = type { %"class.base::time_internal::TimeBase" }
%"class.base::time_internal::TimeBase" = type { i64 }
%"class.base::ThreadLocalStorage::Slot" = type { i32, i32 }
%"struct.blink::GCInfo" = type { void (%"class.blink::Visitor"*, i8*)*, void (i8*)*, { i8*, i8 } (i8*)*, i8 }
%"class.blink::GCInfoTable" = type { %"struct.blink::GCInfo"**, i32, i32, %"class.WTF::Mutex" }
%"class.blink::AtomicEntryFlag" = type { %"struct.std::__1::atomic.370" }
%"struct.std::__1::atomic.370" = type { %"struct.std::__1::__atomic_base.371" }
%"struct.std::__1::__atomic_base.371" = type { %"struct.std::__1::__atomic_base.372" }
%"struct.std::__1::__atomic_base.372" = type { %"struct.std::__1::__cxx_atomic_impl.373" }
%"struct.std::__1::__cxx_atomic_impl.373" = type { %"struct.std::__1::__cxx_atomic_base_impl.374" }
%"struct.std::__1::__cxx_atomic_base_impl.374" = type { i32 }
%"class.v8::Value" = type { i8 }
%"class.blink::AuctionAdInterestGroup" = type { %"class.blink::IDLDictionaryBase", i8, i8, %"class.blink::HeapVector", %"class.WTF::String", %"class.WTF::String", %"class.WTF::String", %"class.WTF::String", %"class.WTF::Vector.190", %"class.WTF::String", %"class.blink::ScriptValue" }
%"class.blink::IDLDictionaryBase" = type { i32 (...)** }
%"class.blink::HeapVector" = type { %"class.WTF::Vector" }
%"class.WTF::Vector" = type { %"class.WTF::VectorBuffer" }
%"class.WTF::VectorBuffer" = type { %"class.WTF::VectorBufferBase" }
%"class.WTF::VectorBufferBase" = type { %"class.blink::Member"*, i32, i32 }
%"class.blink::Member" = type { %"class.blink::MemberBase" }
%"class.blink::MemberBase" = type { %"class.blink::AuctionAd"* }
%"class.blink::AuctionAd" = type { %"class.blink::IDLDictionaryBase", %"class.blink::ScriptValue", %"class.WTF::String" }
%"class.WTF::Vector.190" = type { %"class.WTF::VectorBuffer.191" }
%"class.WTF::VectorBuffer.191" = type { %"class.WTF::VectorBufferBase.192" }
%"class.WTF::VectorBufferBase.192" = type { %"class.WTF::String"*, i32, i32 }
%"class.WTF::String" = type { %class.scoped_refptr.183 }
%class.scoped_refptr.183 = type { %"class.WTF::StringImpl"* }
%"class.blink::ScriptValue" = type { %"class.v8::Isolate"*, %"class.blink::WorldSafeV8Reference" }
%"class.blink::WorldSafeV8Reference" = type { %"class.blink::TraceWrapperV8Reference", %class.scoped_refptr }
%"class.blink::TraceWrapperV8Reference" = type { %"class.v8::TracedReference" }
%"class.v8::TracedReference" = type { %"class.v8::BasicTracedReference" }
%"class.v8::BasicTracedReference" = type { %"class.v8::TracedReferenceBase" }
%"class.v8::TracedReferenceBase" = type { i64* }
%class.scoped_refptr = type { %"class.blink::DOMWrapperWorld"* }
%"class.blink::DOMWrapperWorld" = type { %"class.WTF::RefCounted", i32, i32, %"class.blink::Persistent" }
%"class.WTF::RefCounted" = type { %"class.base::RefCounted" }
%"class.base::RefCounted" = type { %"class.base::subtle::RefCountedBase" }
%"class.base::subtle::RefCountedBase" = type { i32 }
%"class.blink::Persistent" = type { %"class.blink::PersistentBase" }
%"class.blink::PersistentBase" = type { %"class.blink::DOMDataStore"*, %"class.blink::PersistentNodePtr" }
%"class.blink::DOMDataStore" = type { i32 (...)**, i8, [7 x i8], %"class.blink::HeapHashMap" }
%"class.blink::HeapHashMap" = type { %"class.WTF::HashMap" }
%"class.WTF::HashMap" = type { %"class.WTF::HashTable" }
%"class.WTF::HashTable" = type <{ %"struct.WTF::KeyValuePair"*, i32, i32, i32, [4 x i8] }>
%"struct.WTF::KeyValuePair" = type { %"class.blink::WeakMember", %"class.blink::TraceWrapperV8Reference.9" }
%"class.blink::WeakMember" = type { %"class.blink::MemberBase.6" }
%"class.blink::MemberBase.6" = type { %"class.blink::ScriptWrappable"* }
%"class.blink::ScriptWrappable" = type { %"class.blink::NameClient", %"class.blink::TraceWrapperV8Reference.9" }
%"class.blink::NameClient" = type { i32 (...)** }
%"class.blink::TraceWrapperV8Reference.9" = type { %"class.v8::TracedReference.10" }
%"class.v8::TracedReference.10" = type { %"class.v8::BasicTracedReference.11" }
%"class.v8::BasicTracedReference.11" = type { %"class.v8::TracedReferenceBase" }
%"class.blink::PersistentNodePtr" = type { %"class.blink::PersistentNode"* }
%"class.blink::ExceptionState" = type { i32 (...)**, %"class.blink::ExceptionContext", %"class.blink::ExceptionState::ContextScope"*, %"class.v8::Isolate"*, i32, %"class.WTF::String", %"class.blink::TraceWrapperV8Reference" }
%"class.blink::ExceptionContext" = type { i16, i16, i8*, i8* }
%"class.blink::ExceptionState::ContextScope" = type { %"class.blink::ExceptionState"*, %"class.blink::ExceptionState::ContextScope"*, %"class.blink::ExceptionContext" }
%"class.v8::TryCatch" = type <{ %"class.v8::internal::Isolate"*, %"class.v8::TryCatch"*, i8*, i8*, i8*, i8, [7 x i8] }>
%"class.v8::internal::Isolate" = type opaque
%"class.v8::Object" = type { i8 }
%"class.blink::V8PerIsolateData" = type { i32, %"class.gin::IsolateHolder", %"class.WTF::HashMap.228", %"class.WTF::HashMap.228", %"class.WTF::HashMap.233", %"class.std::__1::unique_ptr.238", %"class.std::__1::unique_ptr.285", %"class.blink::Persistent.291", i8, i8, i8, %"class.WTF::Vector.293", %"class.std::__1::unique_ptr.298", %"class.blink::Persistent.304", %"class.blink::Persistent.308", %"class.blink::RuntimeCallStats", void (%"class.v8::Isolate"*, i32, i32)*, void (%"class.v8::Isolate"*, i32, i32)*, i64 }
%"class.gin::IsolateHolder" = type { %"class.std::__1::unique_ptr.210", %"class.v8::Isolate"*, %"class.std::__1::unique_ptr.216", %"class.std::__1::unique_ptr.222", i32, i32 }
%"class.std::__1::unique_ptr.210" = type { %"class.std::__1::__compressed_pair.211" }
%"class.std::__1::__compressed_pair.211" = type { %"struct.std::__1::__compressed_pair_elem.212" }
%"struct.std::__1::__compressed_pair_elem.212" = type { %"class.v8::SnapshotCreator"* }
%"class.v8::SnapshotCreator" = type { i8* }
%"class.std::__1::unique_ptr.216" = type { %"class.std::__1::__compressed_pair.217" }
%"class.std::__1::__compressed_pair.217" = type { %"struct.std::__1::__compressed_pair_elem.218" }
%"struct.std::__1::__compressed_pair_elem.218" = type { %"class.gin::PerIsolateData"* }
%"class.gin::PerIsolateData" = type opaque
%"class.std::__1::unique_ptr.222" = type { %"class.std::__1::__compressed_pair.223" }
%"class.std::__1::__compressed_pair.223" = type { %"struct.std::__1::__compressed_pair_elem.224" }
%"struct.std::__1::__compressed_pair_elem.224" = type { %"class.gin::V8IsolateMemoryDumpProvider"* }
%"class.gin::V8IsolateMemoryDumpProvider" = type opaque
%"class.WTF::HashMap.228" = type { %"class.WTF::HashTable.229" }
%"class.WTF::HashTable.229" = type <{ %"struct.WTF::KeyValuePair.232"*, i32, i32, i32, [4 x i8] }>
%"struct.WTF::KeyValuePair.232" = type opaque
%"class.WTF::HashMap.233" = type { %"class.WTF::HashTable.234" }
%"class.WTF::HashTable.234" = type <{ %"struct.WTF::KeyValuePair.237"*, i32, i32, i32, [4 x i8] }>
%"struct.WTF::KeyValuePair.237" = type opaque
%"class.std::__1::unique_ptr.238" = type { %"class.std::__1::__compressed_pair.239" }
%"class.std::__1::__compressed_pair.239" = type { %"struct.std::__1::__compressed_pair_elem.240" }
%"struct.std::__1::__compressed_pair_elem.240" = type { %"class.blink::StringCache"* }
%"class.blink::StringCache" = type { %"class.v8::GlobalValueMap", %"class.v8::PersistentValueMapBase<WTF::StringImpl *, v8::String, blink::StringCacheMapTraits>::PersistentValueReference", %"class.v8::GlobalValueMap.246", %class.scoped_refptr.183 }
%"class.v8::GlobalValueMap" = type { %"class.v8::PersistentValueMapBase" }
%"class.v8::PersistentValueMapBase" = type { %"class.v8::Isolate"*, %"class.WTF::HashMap.241", i8* }
%"class.WTF::HashMap.241" = type { %"class.WTF::HashTable.242" }
%"class.WTF::HashTable.242" = type <{ %"struct.WTF::KeyValuePair.245"*, i32, i32, i32, [4 x i8] }>
%"struct.WTF::KeyValuePair.245" = type { %"class.WTF::StringImpl"*, i64 }
%"class.v8::PersistentValueMapBase<WTF::StringImpl *, v8::String, blink::StringCacheMapTraits>::PersistentValueReference" = type { i64 }
%"class.v8::GlobalValueMap.246" = type { %"class.v8::PersistentValueMapBase.247" }
%"class.v8::PersistentValueMapBase.247" = type { %"class.v8::Isolate"*, %"class.WTF::HashMap.248", i8* }
%"class.WTF::HashMap.248" = type { %"class.WTF::HashTable.249" }
%"class.WTF::HashTable.249" = type <{ %"struct.WTF::KeyValuePair.252"*, i32, i32, i32, [4 x i8] }>
%"struct.WTF::KeyValuePair.252" = type { %"class.blink::ParkableStringImpl"*, i64 }
%"class.blink::ParkableStringImpl" = type { %"class.WTF::RefCounted.253", %"class.WTF::String", %"class.std::__1::unique_ptr.255" }
%"class.WTF::RefCounted.253" = type { %"class.base::RefCounted.254" }
%"class.base::RefCounted.254" = type { %"class.base::subtle::RefCountedBase" }
%"class.std::__1::unique_ptr.255" = type { %"class.std::__1::__compressed_pair.256" }
%"class.std::__1::__compressed_pair.256" = type { %"struct.std::__1::__compressed_pair_elem.257" }
%"struct.std::__1::__compressed_pair_elem.257" = type { %"struct.blink::ParkableStringImpl::ParkableMetadata"* }
%"struct.blink::ParkableStringImpl::ParkableMetadata" = type { %"class.WTF::Mutex", i32, i8, i8, %"class.std::__1::unique_ptr.258", %"class.std::__1::unique_ptr.269", %"class.WTF::Vector.275", i8, i32 }
%"class.std::__1::unique_ptr.258" = type { %"class.std::__1::__compressed_pair.259" }
%"class.std::__1::__compressed_pair.259" = type { %"struct.std::__1::__compressed_pair_elem.260" }
%"struct.std::__1::__compressed_pair_elem.260" = type { %"class.WTF::Vector.261"* }
%"class.WTF::Vector.261" = type { %"class.WTF::VectorBuffer.262" }
%"class.WTF::VectorBuffer.262" = type { %"class.WTF::VectorBufferBase.263" }
%"class.WTF::VectorBufferBase.263" = type { i8*, i32, i32 }
%"class.std::__1::unique_ptr.269" = type { %"class.std::__1::__compressed_pair.270" }
%"class.std::__1::__compressed_pair.270" = type { %"struct.std::__1::__compressed_pair_elem.271" }
%"struct.std::__1::__compressed_pair_elem.271" = type { %"class.blink::DiskDataMetadata"* }
%"class.blink::DiskDataMetadata" = type { i64, i64 }
%"class.WTF::Vector.275" = type { %"class.WTF::VectorBuffer.276" }
%"class.WTF::VectorBuffer.276" = type { %"class.WTF::VectorBufferBase.263", [32 x i8] }
%"class.std::__1::unique_ptr.285" = type { %"class.std::__1::__compressed_pair.286" }
%"class.std::__1::__compressed_pair.286" = type { %"struct.std::__1::__compressed_pair_elem.287" }
%"struct.std::__1::__compressed_pair_elem.287" = type { %"class.blink::V8PrivateProperty"* }
%"class.blink::V8PrivateProperty" = type opaque
%"class.blink::Persistent.291" = type { %"class.blink::PersistentBase.292" }
%"class.blink::PersistentBase.292" = type { %"class.blink::ScriptState"*, %"class.blink::PersistentNodePtr" }
%"class.blink::ScriptState" = type { %"class.v8::Isolate"*, %"class.blink::ScopedPersistent", %class.scoped_refptr.325, %"class.blink::Member.326", %"class.blink::SelfKeepAlive", %"class.util::TokenType" }
%"class.blink::ScopedPersistent" = type { %"class.v8::Persistent" }
%"class.v8::Persistent" = type { %"class.v8::PersistentBase" }
%"class.v8::PersistentBase" = type { %"class.v8::Context"* }
%"class.v8::Context" = type { i8 }
%class.scoped_refptr.325 = type { %"class.blink::DOMWrapperWorld"* }
%"class.blink::Member.326" = type { %"class.blink::MemberBase.327" }
%"class.blink::MemberBase.327" = type { %"class.blink::V8PerContextData"* }
%"class.blink::V8PerContextData" = type opaque
%"class.blink::SelfKeepAlive" = type { %"class.blink::Persistent.291" }
%"class.util::TokenType" = type { %"class.base::StrongAlias" }
%"class.base::StrongAlias" = type { %"class.base::UnguessableToken" }
%"class.base::UnguessableToken" = type { %"class.base::Token" }
%"class.base::Token" = type { i64, i64 }
%"class.WTF::Vector.293" = type { %"class.WTF::VectorBuffer.294" }
%"class.WTF::VectorBuffer.294" = type { %"class.WTF::VectorBufferBase.295" }
%"class.WTF::VectorBufferBase.295" = type { %"class.base::OnceCallback"*, i32, i32 }
%"class.base::OnceCallback" = type opaque
%"class.std::__1::unique_ptr.298" = type { %"class.std::__1::__compressed_pair.299" }
%"class.std::__1::__compressed_pair.299" = type { %"struct.std::__1::__compressed_pair_elem.300" }
%"struct.std::__1::__compressed_pair_elem.300" = type { %"class.blink::V8PerIsolateData::Data"* }
%"class.blink::V8PerIsolateData::Data" = type { i32 (...)** }
%"class.blink::Persistent.304" = type { %"class.blink::PersistentBase.305" }
%"class.blink::PersistentBase.305" = type { %"class.blink::V8PerIsolateData::GarbageCollectedData"*, %"class.blink::PersistentNodePtr" }
%"class.blink::V8PerIsolateData::GarbageCollectedData" = type { i32 (...)** }
%"class.blink::Persistent.308" = type { %"class.blink::PersistentBase.309" }
%"class.blink::PersistentBase.309" = type { %"class.blink::ActiveScriptWrappableManager"*, %"class.blink::PersistentNodePtr" }
%"class.blink::ActiveScriptWrappableManager" = type { %"class.blink::HeapVector.312", i64 }
%"class.blink::HeapVector.312" = type { %"class.WTF::Vector.315" }
%"class.WTF::Vector.315" = type { %"class.WTF::VectorBuffer.316" }
%"class.WTF::VectorBuffer.316" = type { %"class.WTF::VectorBufferBase.317" }
%"class.WTF::VectorBufferBase.317" = type { %"struct.std::__1::pair.318"*, i32, i32 }
%"struct.std::__1::pair.318" = type { %"class.blink::UntracedMember", %"class.blink::Member.320" }
%"class.blink::UntracedMember" = type { %"class.blink::MemberBase.319" }
%"class.blink::MemberBase.319" = type { %"class.blink::ActiveScriptWrappableBase"* }
%"class.blink::ActiveScriptWrappableBase" = type { %"class.blink::GarbageCollectedMixin" }
%"class.blink::GarbageCollectedMixin" = type { i32 (...)** }
%"class.blink::Member.320" = type { %"class.blink::MemberBase.321" }
%"class.blink::MemberBase.321" = type { %"class.blink::ActiveScriptWrappableBase"* }
%"class.blink::RuntimeCallStats" = type { %"class.blink::RuntimeCallTimer"*, i8, [40 x %"class.blink::RuntimeCallCounter"], %"class.base::TickClock"* }
%"class.blink::RuntimeCallTimer" = type { %"class.blink::RuntimeCallCounter"*, %"class.blink::RuntimeCallTimer"*, %"class.base::TimeTicks", %"class.base::TimeDelta", %"class.base::TickClock"* }
%"class.blink::RuntimeCallCounter" = type { i64, %"class.base::TimeDelta", i8* }
%"class.base::TimeDelta" = type { i64 }
%"class.base::TickClock" = type opaque
%"class.v8::Eternal" = type { %"class.v8::Name"* }
%"class.v8::Name" = type { i8 }
%"class.base::span.328" = type { %"struct.base::internal::ExtentStorage", i8** }
%"struct.base::internal::ExtentStorage" = type { i64 }
%"class.blink::ScriptIterator" = type { %"class.v8::Isolate"*, %"class.v8::Local.200", %"class.v8::Local", %"class.v8::Local.209", %"class.v8::Local.209", i8, %"class.v8::MaybeLocal" }
%"class.v8::Local.200" = type { %"class.v8::Object"* }
%"class.v8::Local" = type { %"class.v8::Value"* }
%"class.v8::Local.209" = type { %"class.v8::String"* }
%"class.v8::String" = type { i8 }
%"class.v8::MaybeLocal" = type { %"class.v8::Value"* }
%"class.v8::Array" = type { i8 }
%"class.blink::V8StringResource" = type { %"class.v8::Local", i32, %"class.WTF::String", %"class.WTF::StringView::StackBackingStore" }
%"class.WTF::StringView::StackBackingStore" = type { [64 x i16], %"class.std::__1::unique_ptr.203" }
%"class.std::__1::unique_ptr.203" = type { %"class.std::__1::__compressed_pair.204" }
%"class.std::__1::__compressed_pair.204" = type { %"struct.std::__1::__compressed_pair_elem.205" }
%"struct.std::__1::__compressed_pair_elem.205" = type { i8* }
%"class.WTF::StringView" = type <{ %"class.WTF::StringImpl"*, i8*, i32, [4 x i8] }>
%"class.logging::CheckError" = type { %"class.logging::LogMessage"* }
%"class.logging::LogMessage" = type { i32 (...)**, i32, %"class.std::__1::basic_ostringstream", i64, i8*, i32, %"class.base::ScopedClearLastErrorBase" }
%"class.std::__1::basic_ostringstream" = type { %"class.std::__1::basic_ostream.base", %"class.std::__1::basic_stringbuf", %"class.std::__1::basic_ios.base" }
%"class.std::__1::basic_ostream.base" = type { i32 (...)** }
%"class.std::__1::basic_stringbuf" = type <{ %"class.std::__1::basic_streambuf", %"class.std::__1::basic_string", i8*, i32, [4 x i8] }>
%"class.std::__1::basic_streambuf" = type { i32 (...)**, %"class.std::__1::locale", i8*, i8*, i8*, i8*, i8*, i8* }
%"class.std::__1::locale" = type { %"class.std::__1::locale::__imp"* }
%"class.std::__1::locale::__imp" = type opaque
%"class.std::__1::basic_string" = type { %"class.std::__1::__compressed_pair.333" }
%"class.std::__1::__compressed_pair.333" = type { %"struct.std::__1::__compressed_pair_elem.334" }
%"struct.std::__1::__compressed_pair_elem.334" = type { %"struct.std::__1::basic_string<char, std::__1::char_traits<char>, std::__1::allocator<char> >::__rep" }
%"struct.std::__1::basic_string<char, std::__1::char_traits<char>, std::__1::allocator<char> >::__rep" = type { %union.anon }
%union.anon = type { %"struct.std::__1::basic_string<char, std::__1::char_traits<char>, std::__1::allocator<char> >::__long" }
%"struct.std::__1::basic_string<char, std::__1::char_traits<char>, std::__1::allocator<char> >::__long" = type { i8*, i64, i64 }
%"class.std::__1::basic_ios.base" = type <{ %"class.std::__1::ios_base", %"class.std::__1::basic_ostream"*, i32 }>
%"class.std::__1::ios_base" = type { i32 (...)**, i32, i64, i64, i32, i32, i8*, i8*, void (i32, %"class.std::__1::ios_base"*, i32)**, i32*, i64, i64, i64*, i64, i64, i8**, i64, i64 }
%"class.std::__1::basic_ostream" = type { i32 (...)**, %"class.std::__1::basic_ios.base" }
%"class.base::ScopedClearLastErrorBase" = type { i32 }
%"class.logging::CheckOpResult" = type { i8* }
%"class.blink::NormalPageArena" = type { %"class.blink::BaseArena.base", [4 x i8], %"class.blink::FreeList", i8*, i64, i64 }
%"class.blink::BaseArena.base" = type <{ i32 (...)**, %"class.blink::PageStackThreadSafe", %"class.blink::PageStackThreadSafe", %"class.blink::PageStackThreadSafe", %"class.blink::PageStackThreadSafe", %"class.blink::ThreadState"*, i32 }>
%"class.blink::FreeList" = type <{ [17 x %"class.blink::FreeListEntry"*], [17 x %"class.blink::FreeListEntry"*], i32, [4 x i8] }>
%"class.blink::FreeListEntry" = type { %"class.blink::HeapObjectHeader", %"class.blink::FreeListEntry"* }
%"class.blink::PlatformAwareObjectStartBitmap" = type { %"class.blink::ObjectStartBitmap" }
%"class.blink::ObjectStartBitmap" = type { i8*, [2048 x i8] }
%"class.blink::HeapVectorBacking" = type { i8 }
%"class.blink::ExecutionContext" = type opaque
%"class.v8::Int32" = type { i8 }
%"class.absl::optional" = type { %"class.absl::optional_internal::optional_data" }
%"class.absl::optional_internal::optional_data" = type { %"class.absl::optional_internal::optional_data_base" }
%"class.absl::optional_internal::optional_data_base" = type { %"class.absl::optional_internal::optional_data_dtor_base" }
%"class.absl::optional_internal::optional_data_dtor_base" = type { i8, %union.anon.380 }
%union.anon.380 = type { %"class.blink::RuntimeCallTimerScope" }
%"class.blink::RuntimeCallTimerScope" = type { %"class.blink::RuntimeCallStats"*, %"class.blink::RuntimeCallTimer" }

$_ZN5blink17NativeValueTraitsINS_11IDLSequenceINS_9AuctionAdEEEvE11NativeValueEPN2v87IsolateENS5_5LocalINS5_5ValueEEERNS_14ExceptionStateE = comdat any

$_ZN5blink17NativeValueTraitsINS_16IDLUSVStringBaseILNS_20V8StringResourceModeE0EEEvE11NativeValueEPN2v87IsolateENS5_5LocalINS5_5ValueEEERNS_14ExceptionStateE = comdat any

$_ZN5blink17NativeValueTraitsINS_11IDLSequenceINS_16IDLUSVStringBaseILNS_20V8StringResourceModeE0EEEEEvE11NativeValueEPN2v87IsolateENS7_5LocalINS7_5ValueEEERNS_14ExceptionStateE = comdat any

$_ZN5blink8V8StringEPN2v87IsolateERKN3WTF10StringViewE = comdat any

$_ZNK5blink22AuctionAdInterestGroup21hasUserBiddingSignalsEv = comdat any

$_ZN5blink20WorldSafeV8ReferenceIN2v85ValueEEC2EPNS1_7IsolateENS1_5LocalIS2_EE = comdat any

$_ZN5blink11ScriptState4FromEN2v85LocalINS1_7ContextEEE = comdat any

$_ZN5blink10ThreadHeap8AllocateINS_17IDLDictionaryBaseEEEPhm = comdat any

$_ZN5blink10ThreadHeap20AllocateOnArenaIndexEPNS_11ThreadStateEmijPKc = comdat any

$_ZN5blink10TraceTraitINS_17IDLDictionaryBaseEE5TraceEPNS_7VisitorEPKv = comdat any

$_ZN5blink8internal14FinalizerTraitINS_17IDLDictionaryBaseEE8FinalizeEPv = comdat any

$_ZN5blink9NameTraitINS_17IDLDictionaryBaseEE7GetNameEPKv = comdat any

$_ZN5blink8bindings28CreateIDLSequenceFromV8ArrayINS_9AuctionAdEEENS_17NativeValueTraitsINS_11IDLSequenceIT_EEvE8ImplTypeEPN2v87IsolateENS9_5LocalINS9_5ArrayEEERNS_14ExceptionStateE = comdat any

$_ZN5blink8bindings29CreateIDLSequenceFromIteratorINS_9AuctionAdEEENS_17NativeValueTraitsINS_11IDLSequenceIT_EEvE8ImplTypeEPN2v87IsolateENS_14ScriptIteratorERNS_14ExceptionStateE = comdat any

$_ZN5blink13HeapAllocator13QuantizedSizeINS_6MemberINS_9AuctionAdEEEEEmm = comdat any

$_ZN5blink25MakeGarbageCollectedTraitINS_17HeapVectorBackingINS_6MemberINS_9AuctionAdEEEN3WTF12VectorTraitsIS4_EEEEE4CallEm = comdat any

$_ZN5blink17HeapVectorBackingINS_6MemberINS_9AuctionAdEEEN3WTF12VectorTraitsIS3_EEE14AllocateObjectIS7_EEPvm = comdat any

$_ZN5blink10TraceTraitINS_17HeapVectorBackingINS_6MemberINS_9AuctionAdEEEN3WTF12VectorTraitsIS4_EEEEE5TraceEPNS_7VisitorEPKv = comdat any

$_ZN5blink9NameTraitINS_17HeapVectorBackingINS_6MemberINS_9AuctionAdEEEN3WTF12VectorTraitsIS4_EEEEE7GetNameEPKv = comdat any

$_ZN5blink10TraceTraitINS_9AuctionAdEE5TraceEPNS_7VisitorEPKv = comdat any

$_ZN3WTF6VectorIN5blink6MemberINS1_9AuctionAdEEELj0ENS1_13HeapAllocatorEE14AppendSlowCaseIPS3_EEvOT_ = comdat any

$_ZN3WTF6VectorIN5blink6MemberINS1_9AuctionAdEEELj0ENS1_13HeapAllocatorEE15ReserveCapacityEj = comdat any

$_ZN3WTF6VectorIN5blink6MemberINS1_9AuctionAdEEELj0ENS1_13HeapAllocatorEE16ReallocateBufferEj = comdat any

$_ZN5blink16V8StringResourceILNS_20V8StringResourceModeE0EE11PrepareFastEv = comdat any

$_ZN5blink8bindings28CreateIDLSequenceFromV8ArrayINS_16IDLUSVStringBaseILNS_20V8StringResourceModeE0EEEEENS_17NativeValueTraitsINS_11IDLSequenceIT_EEvE8ImplTypeEPN2v87IsolateENSB_5LocalINSB_5ArrayEEERNS_14ExceptionStateE = comdat any

$_ZN5blink8bindings29CreateIDLSequenceFromIteratorINS_16IDLUSVStringBaseILNS_20V8StringResourceModeE0EEEEENS_17NativeValueTraitsINS_11IDLSequenceIT_EEvE8ImplTypeEPN2v87IsolateENS_14ScriptIteratorERNS_14ExceptionStateE = comdat any

$_ZN3WTF18PartitionAllocator13QuantizedSizeINS_6StringEEEmm = comdat any

$_ZN3WTF6VectorINS_6StringELj0ENS_18PartitionAllocatorEE14AppendSlowCaseIS1_EEvOT_ = comdat any

$_ZN5blink20ToV8SequenceInternalINS_10HeapVectorINS_6MemberINS_9AuctionAdEEELj0EEEEEN2v85LocalINS6_5ArrayEEERKT_NS7_INS6_6ObjectEEEPNS6_7IsolateE = comdat any

$_ZN5blink20ToV8SequenceInternalIN3WTF6VectorINS1_6StringELj0ENS1_18PartitionAllocatorEEEEEN2v85LocalINS6_5ArrayEEERKT_NS7_INS6_6ObjectEEEPNS6_7IsolateE = comdat any

$_ZZN5blink11GCInfoTraitINS_17IDLDictionaryBaseEE5IndexEvE7kGcInfo = comdat any

$_ZZN5blink11GCInfoTraitINS_17IDLDictionaryBaseEE5IndexEvE13gc_info_index = comdat any

$_ZZN5blink11GCInfoTraitINS_17HeapVectorBackingINS_6MemberINS_9AuctionAdEEEN3WTF12VectorTraitsIS4_EEEEE5IndexEvE7kGcInfo = comdat any

$_ZZN5blink11GCInfoTraitINS_17HeapVectorBackingINS_6MemberINS_9AuctionAdEEEN3WTF12VectorTraitsIS4_EEEEE5IndexEvE13gc_info_index = comdat any

@.str = private unnamed_addr constant [41 x i8] c"Missing required member(s): name, owner.\00", align 1
@.str.1 = private unnamed_addr constant [30 x i8] c"cannot convert to dictionary.\00", align 1
@.str.2 = private unnamed_addr constant [35 x i8] c"required member name is undefined.\00", align 1
@.str.3 = private unnamed_addr constant [36 x i8] c"required member owner is undefined.\00", align 1
@_ZZN5blinkL35eternalV8AuctionAdInterestGroupKeysEPN2v87IsolateEE5kKeys = internal constant [8 x i8*] [i8* getelementptr inbounds ([4 x i8], [4 x i8]* @.str.4, i32 0, i32 0), i8* getelementptr inbounds ([16 x i8], [16 x i8]* @.str.5, i32 0, i32 0), i8* getelementptr inbounds ([15 x i8], [15 x i8]* @.str.6, i32 0, i32 0), i8* getelementptr inbounds ([5 x i8], [5 x i8]* @.str.7, i32 0, i32 0), i8* getelementptr inbounds ([6 x i8], [6 x i8]* @.str.8, i32 0, i32 0), i8* getelementptr inbounds ([26 x i8], [26 x i8]* @.str.9, i32 0, i32 0), i8* getelementptr inbounds ([25 x i8], [25 x i8]* @.str.10, i32 0, i32 0), i8* getelementptr inbounds ([19 x i8], [19 x i8]* @.str.11, i32 0, i32 0)], align 16
@.str.4 = private unnamed_addr constant [4 x i8] c"ads\00", align 1
@.str.5 = private unnamed_addr constant [16 x i8] c"biddingLogicUrl\00", align 1
@.str.6 = private unnamed_addr constant [15 x i8] c"dailyUpdateUrl\00", align 1
@.str.7 = private unnamed_addr constant [5 x i8] c"name\00", align 1
@.str.8 = private unnamed_addr constant [6 x i8] c"owner\00", align 1
@.str.9 = private unnamed_addr constant [26 x i8] c"trustedBiddingSignalsKeys\00", align 1
@.str.10 = private unnamed_addr constant [25 x i8] c"trustedBiddingSignalsUrl\00", align 1
@.str.11 = private unnamed_addr constant [19 x i8] c"userBiddingSignals\00", align 1
@.ref.tmp = private constant { i64, i8** } { i64 8, i8** getelementptr inbounds ([8 x i8*], [8 x i8*]* @_ZZN5blinkL35eternalV8AuctionAdInterestGroupKeysEPN2v87IsolateEE5kKeys, i32 0, i32 0) }, align 8
@.str.12 = private unnamed_addr constant [7 x i8] c"object\00", align 1
@.str.13 = private unnamed_addr constant [66 x i8] c"../../third_party/blink/renderer/platform/bindings/script_state.h\00", align 1
@.str.14 = private unnamed_addr constant [13 x i8] c"script_state\00", align 1
@.str.15 = private unnamed_addr constant [34 x i8] c"script_state->context_ == context\00", align 1
@_ZN3WTF10StringImpl6empty_E = external local_unnamed_addr global %"class.WTF::StringImpl"*, align 8
@_ZN5blink11ThreadState16thread_specific_E = external local_unnamed_addr global %"class.WTF::ThreadSpecific"*, align 8
@__PRETTY_FUNCTION__._ZN3WTF21GetStringWithTypeNameIPN5blink11ThreadStateEEEPKcv = private unnamed_addr constant [68 x i8] c"const char *WTF::GetStringWithTypeName() [T = blink::ThreadState *]\00", align 1
@__PRETTY_FUNCTION__._ZN3WTF21GetStringWithTypeNameIN5blink17IDLDictionaryBaseEEEPKcv = private unnamed_addr constant [72 x i8] c"const char *WTF::GetStringWithTypeName() [T = blink::IDLDictionaryBase]\00", align 1
@.str.16 = private unnamed_addr constant [23 x i8] c"allocation_size > size\00", align 1
@.str.17 = private unnamed_addr constant [59 x i8] c"../../third_party/blink/renderer/platform/heap/impl/heap.h\00", align 1
@_ZZN5blink11GCInfoTraitINS_17IDLDictionaryBaseEE5IndexEvE7kGcInfo = linkonce_odr hidden constant %"struct.blink::GCInfo" { void (%"class.blink::Visitor"*, i8*)* @_ZN5blink10TraceTraitINS_17IDLDictionaryBaseEE5TraceEPNS_7VisitorEPKv, void (i8*)* @_ZN5blink8internal14FinalizerTraitINS_17IDLDictionaryBaseEE8FinalizeEPv, { i8*, i8 } (i8*)* @_ZN5blink9NameTraitINS_17IDLDictionaryBaseEE7GetNameEPKv, i8 1 }, comdat, align 8
@_ZZN5blink11GCInfoTraitINS_17IDLDictionaryBaseEE5IndexEvE13gc_info_index = linkonce_odr hidden global { { i32 } } zeroinitializer, comdat, align 4
@.str.18 = private unnamed_addr constant [13 x i8] c"InternalNode\00", align 1
@_ZN5blink11GCInfoTable13global_table_E = external local_unnamed_addr global %"class.blink::GCInfoTable"*, align 8
@.str.19 = private unnamed_addr constant [54 x i8] c"The provided value cannot be converted to a sequence.\00", align 1
@.str.20 = private unnamed_addr constant [53 x i8] c"The object must have a callable @@iterator property.\00", align 1
@.str.21 = private unnamed_addr constant [38 x i8] c"Array length exceeds supported limit.\00", align 1
@.str.22 = private unnamed_addr constant [44 x i8] c"count <= MaxElementCountInBackingStore<T>()\00", align 1
@.str.23 = private unnamed_addr constant [74 x i8] c"../../third_party/blink/renderer/platform/heap/impl/heap_allocator_impl.h\00", align 1
@.str.24 = private unnamed_addr constant [18 x i8] c"num_elements > 0u\00", align 1
@.str.25 = private unnamed_addr constant [93 x i8] c"../../third_party/blink/renderer/platform/heap/impl/collection_support/heap_vector_backing.h\00", align 1
@_ZZN5blink11GCInfoTraitINS_17HeapVectorBackingINS_6MemberINS_9AuctionAdEEEN3WTF12VectorTraitsIS4_EEEEE5IndexEvE7kGcInfo = linkonce_odr hidden constant %"struct.blink::GCInfo" { void (%"class.blink::Visitor"*, i8*)* @_ZN5blink10TraceTraitINS_17HeapVectorBackingINS_6MemberINS_9AuctionAdEEEN3WTF12VectorTraitsIS4_EEEEE5TraceEPNS_7VisitorEPKv, void (i8*)* null, { i8*, i8 } (i8*)* @_ZN5blink9NameTraitINS_17HeapVectorBackingINS_6MemberINS_9AuctionAdEEEN3WTF12VectorTraitsIS4_EEEEE7GetNameEPKv, i8 0 }, comdat, align 8
@_ZZN5blink11GCInfoTraitINS_17HeapVectorBackingINS_6MemberINS_9AuctionAdEEEN3WTF12VectorTraitsIS4_EEEEE5IndexEvE13gc_info_index = linkonce_odr hidden global { { i32 } } zeroinitializer, comdat, align 4
@__PRETTY_FUNCTION__._ZN3WTF21GetStringWithTypeNameIN5blink17HeapVectorBackingINS1_6MemberINS1_9AuctionAdEEENS_12VectorTraitsIS5_EEEEEEPKcv = private unnamed_addr constant [159 x i8] c"const char *WTF::GetStringWithTypeName() [T = blink::HeapVectorBacking<blink::Member<blink::AuctionAd>, WTF::VectorTraits<blink::Member<blink::AuctionAd> > >]\00", align 1
@_ZN5blink11ThreadState25incremental_marking_flag_E = external local_unnamed_addr global %"class.blink::AtomicEntryFlag", align 4
@.str.26 = private unnamed_addr constant [55 x i8] c"../../third_party/blink/renderer/platform/wtf/vector.h\00", align 1
@.str.27 = private unnamed_addr constant [33 x i8] c"Allocator::IsAllocationAllowed()\00", align 1
@.str.28 = private unnamed_addr constant [78 x i8] c"../../third_party/blink/renderer/platform/wtf/allocator/partition_allocator.h\00", align 1
@__PRETTY_FUNCTION__._ZN3WTF21GetStringWithTypeNameINS_6StringEEEPKcv = private unnamed_addr constant [59 x i8] c"const char *WTF::GetStringWithTypeName() [T = WTF::String]\00", align 1
@_ZN5blink26RuntimeEnabledFeaturesBase36is_blink_runtime_call_stats_enabled_E = external local_unnamed_addr global i8, align 1

; Function Attrs: nounwind ssp uwtable
define hidden void @_ZN5blink24V8AuctionAdInterestGroup6ToImplEPN2v87IsolateENS1_5LocalINS1_5ValueEEEPNS_22AuctionAdInterestGroupERNS_14ExceptionStateE(%"class.v8::Isolate"*, %"class.v8::Value"*, %"class.blink::AuctionAdInterestGroup"*, %"class.blink::ExceptionState"* dereferenceable(72)) local_unnamed_addr #0 align 2 {
  %5 = alloca %"class.WTF::String", align 8
  %6 = alloca %"class.v8::TryCatch", align 8
  %7 = alloca %"class.blink::HeapVector", align 8
  %8 = alloca %"class.WTF::Vector.190", align 8
  %9 = alloca %"class.blink::ScriptValue", align 8
  %10 = alloca %"class.blink::ScriptValue", align 8
  %11 = icmp eq %"class.v8::Value"* %1, null
  br i1 %11, label %33, label %12

12:                                               ; preds = %4
  %13 = bitcast %"class.v8::Value"* %1 to i64*
  %14 = load i64, i64* %13, align 8
  %15 = and i64 %14, 3
  %16 = icmp eq i64 %15, 1
  br i1 %16, label %17, label %34

17:                                               ; preds = %12
  %18 = add i64 %14, -1
  %19 = inttoptr i64 %18 to i32*
  %20 = load i32, i32* %19, align 4
  %21 = and i64 %14, -4294967296
  %22 = zext i32 %20 to i64
  %23 = or i64 %21, %22
  %24 = add i64 %23, 7
  %25 = inttoptr i64 %24 to i16*
  %26 = load i16, i16* %25, align 2
  %27 = icmp eq i16 %26, 67
  br i1 %27, label %28, label %34

28:                                               ; preds = %17
  %29 = add i64 %14, 23
  %30 = inttoptr i64 %29 to i32*
  %31 = load i32, i32* %30, align 4
  %32 = ashr i32 %31, 1
  switch i32 %32, label %34 [
    i32 5, label %33
    i32 3, label %33
  ]

33:                                               ; preds = %28, %28, %4
  tail call void @_ZN5blink14ExceptionState14ThrowTypeErrorEPKc(%"class.blink::ExceptionState"* %3, i8* getelementptr inbounds ([41 x i8], [41 x i8]* @.str, i64 0, i64 0)) #8
  br label %1171

34:                                               ; preds = %28, %17, %12
  %35 = tail call zeroext i1 @_ZNK2v85Value8IsObjectEv(%"class.v8::Value"* nonnull %1) #8
  br i1 %35, label %37, label %36

36:                                               ; preds = %34
  tail call void @_ZN5blink14ExceptionState14ThrowTypeErrorEPKc(%"class.blink::ExceptionState"* %3, i8* getelementptr inbounds ([30 x i8], [30 x i8]* @.str.1, i64 0, i64 0)) #8
  br label %1171

37:                                               ; preds = %34
  %38 = bitcast %"class.v8::Value"* %1 to %"class.v8::Object"*
  %39 = ptrtoint %"class.v8::Isolate"* %0 to i64
  %40 = add i64 %39, 8
  %41 = inttoptr i64 %40 to %"class.blink::V8PerIsolateData"**
  %42 = load %"class.blink::V8PerIsolateData"*, %"class.blink::V8PerIsolateData"** %41, align 8
  %43 = tail call { i64, %"class.v8::Eternal"* } @_ZN5blink16V8PerIsolateData28FindOrCreateEternalNameCacheEPKvRKN4base4spanIKPKcLm18446744073709551615EEE(%"class.blink::V8PerIsolateData"* %42, i8* bitcast ([8 x i8*]* @_ZZN5blinkL35eternalV8AuctionAdInterestGroupKeysEPN2v87IsolateEE5kKeys to i8*), %"class.base::span.328"* dereferenceable(16) bitcast ({ i64, i8** }* @.ref.tmp to %"class.base::span.328"*)) #8
  %44 = extractvalue { i64, %"class.v8::Eternal"* } %43, 1
  %45 = bitcast %"class.v8::TryCatch"* %6 to i8*
  call void @llvm.lifetime.start.p0i8(i64 48, i8* nonnull %45) #8
  call void @llvm.memset.p0i8.i64(i8* nonnull align 8 %45, i8 -86, i64 48, i1 false)
  call void @_ZN2v88TryCatchC1EPNS_7IsolateE(%"class.v8::TryCatch"* nonnull %6, %"class.v8::Isolate"* %0) #8
  %46 = call %"class.v8::Context"* @_ZN2v87Isolate17GetCurrentContextEv(%"class.v8::Isolate"* %0) #8
  %47 = bitcast %"class.v8::Eternal"* %44 to %"class.v8::Value"**
  %48 = load %"class.v8::Value"*, %"class.v8::Value"** %47, align 8
  %49 = call %"class.v8::Value"* @_ZN2v86Object3GetENS_5LocalINS_7ContextEEENS1_INS_5ValueEEE(%"class.v8::Object"* nonnull %38, %"class.v8::Context"* %46, %"class.v8::Value"* %48) #8
  %50 = icmp eq %"class.v8::Value"* %49, null
  br i1 %50, label %51, label %57

51:                                               ; preds = %37
  %52 = call %"class.v8::Value"* @_ZNK2v88TryCatch9ExceptionEv(%"class.v8::TryCatch"* nonnull %6) #8
  %53 = bitcast %"class.blink::ExceptionState"* %3 to void (%"class.blink::ExceptionState"*, %"class.v8::Value"*)***
  %54 = load void (%"class.blink::ExceptionState"*, %"class.v8::Value"*)**, void (%"class.blink::ExceptionState"*, %"class.v8::Value"*)*** %53, align 8
  %55 = getelementptr inbounds void (%"class.blink::ExceptionState"*, %"class.v8::Value"*)*, void (%"class.blink::ExceptionState"*, %"class.v8::Value"*)** %54, i64 5
  %56 = load void (%"class.blink::ExceptionState"*, %"class.v8::Value"*)*, void (%"class.blink::ExceptionState"*, %"class.v8::Value"*)** %55, align 8
  call void %56(%"class.blink::ExceptionState"* %3, %"class.v8::Value"* %52) #8
  br label %1170

57:                                               ; preds = %37
  %58 = bitcast %"class.v8::Value"* %49 to i64*
  %59 = load i64, i64* %58, align 8
  %60 = and i64 %59, 3
  %61 = icmp eq i64 %60, 1
  br i1 %61, label %62, label %79

62:                                               ; preds = %57
  %63 = add i64 %59, -1
  %64 = inttoptr i64 %63 to i32*
  %65 = load i32, i32* %64, align 4
  %66 = and i64 %59, -4294967296
  %67 = zext i32 %65 to i64
  %68 = or i64 %66, %67
  %69 = add i64 %68, 7
  %70 = inttoptr i64 %69 to i16*
  %71 = load i16, i16* %70, align 2
  %72 = icmp eq i16 %71, 67
  br i1 %72, label %73, label %79

73:                                               ; preds = %62
  %74 = add i64 %59, 23
  %75 = inttoptr i64 %74 to i32*
  %76 = load i32, i32* %75, align 4
  %77 = and i32 %76, -2
  %78 = icmp eq i32 %77, 10
  br i1 %78, label %87, label %79

79:                                               ; preds = %62, %57, %73
  %80 = bitcast %"class.blink::HeapVector"* %7 to i8*
  call void @llvm.lifetime.start.p0i8(i64 16, i8* nonnull %80) #8
  %81 = bitcast %"class.blink::HeapVector"* %7 to i8*
  call void @llvm.memset.p0i8.i64(i8* nonnull align 8 %81, i8 -86, i64 16, i1 false)
  call void @_ZN5blink17NativeValueTraitsINS_11IDLSequenceINS_9AuctionAdEEEvE11NativeValueEPN2v87IsolateENS5_5LocalINS5_5ValueEEERNS_14ExceptionStateE(%"class.blink::HeapVector"* nonnull sret %7, %"class.v8::Isolate"* %0, %"class.v8::Value"* nonnull %49, %"class.blink::ExceptionState"* dereferenceable(72) %3)
  %82 = getelementptr inbounds %"class.blink::ExceptionState", %"class.blink::ExceptionState"* %3, i64 0, i32 4
  %83 = load i32, i32* %82, align 8
  %84 = icmp eq i32 %83, 0
  br i1 %84, label %85, label %86

85:                                               ; preds = %79
  call void @_ZN5blink22AuctionAdInterestGroup6setAdsERKNS_10HeapVectorINS_6MemberINS_9AuctionAdEEELj0EEE(%"class.blink::AuctionAdInterestGroup"* %2, %"class.blink::HeapVector"* nonnull dereferenceable(16) %7) #8
  call void @llvm.lifetime.end.p0i8(i64 16, i8* nonnull %80) #8
  br label %87

86:                                               ; preds = %79
  call void @llvm.lifetime.end.p0i8(i64 16, i8* nonnull %80) #8
  br label %1170

87:                                               ; preds = %85, %73
  %88 = getelementptr inbounds %"class.v8::Eternal", %"class.v8::Eternal"* %44, i64 1, i32 0
  %89 = bitcast %"class.v8::Name"** %88 to %"class.v8::Value"**
  %90 = load %"class.v8::Value"*, %"class.v8::Value"** %89, align 8
  %91 = call %"class.v8::Value"* @_ZN2v86Object3GetENS_5LocalINS_7ContextEEENS1_INS_5ValueEEE(%"class.v8::Object"* nonnull %38, %"class.v8::Context"* %46, %"class.v8::Value"* %90) #8
  %92 = icmp eq %"class.v8::Value"* %91, null
  br i1 %92, label %93, label %99

93:                                               ; preds = %87
  %94 = call %"class.v8::Value"* @_ZNK2v88TryCatch9ExceptionEv(%"class.v8::TryCatch"* nonnull %6) #8
  %95 = bitcast %"class.blink::ExceptionState"* %3 to void (%"class.blink::ExceptionState"*, %"class.v8::Value"*)***
  %96 = load void (%"class.blink::ExceptionState"*, %"class.v8::Value"*)**, void (%"class.blink::ExceptionState"*, %"class.v8::Value"*)*** %95, align 8
  %97 = getelementptr inbounds void (%"class.blink::ExceptionState"*, %"class.v8::Value"*)*, void (%"class.blink::ExceptionState"*, %"class.v8::Value"*)** %96, i64 5
  %98 = load void (%"class.blink::ExceptionState"*, %"class.v8::Value"*)*, void (%"class.blink::ExceptionState"*, %"class.v8::Value"*)** %97, align 8
  call void %98(%"class.blink::ExceptionState"* %3, %"class.v8::Value"* %94) #8
  br label %1170

99:                                               ; preds = %87
  %100 = bitcast %"class.v8::Value"* %91 to i64*
  %101 = load i64, i64* %100, align 8
  %102 = and i64 %101, 3
  %103 = icmp eq i64 %102, 1
  br i1 %103, label %104, label %121

104:                                              ; preds = %99
  %105 = add i64 %101, -1
  %106 = inttoptr i64 %105 to i32*
  %107 = load i32, i32* %106, align 4
  %108 = and i64 %101, -4294967296
  %109 = zext i32 %107 to i64
  %110 = or i64 %108, %109
  %111 = add i64 %110, 7
  %112 = inttoptr i64 %111 to i16*
  %113 = load i16, i16* %112, align 2
  %114 = icmp eq i16 %113, 67
  br i1 %114, label %115, label %121

115:                                              ; preds = %104
  %116 = add i64 %101, 23
  %117 = inttoptr i64 %116 to i32*
  %118 = load i32, i32* %117, align 4
  %119 = and i32 %118, -2
  %120 = icmp eq i32 %119, 10
  br i1 %120, label %257, label %121

121:                                              ; preds = %104, %99, %115
  %122 = call %"class.WTF::StringImpl"* @_ZN5blink17NativeValueTraitsINS_16IDLUSVStringBaseILNS_20V8StringResourceModeE0EEEvE11NativeValueEPN2v87IsolateENS5_5LocalINS5_5ValueEEERNS_14ExceptionStateE(%"class.v8::Isolate"* %0, %"class.v8::Value"* nonnull %91, %"class.blink::ExceptionState"* dereferenceable(72) %3)
  %123 = icmp eq %"class.WTF::StringImpl"* %122, null
  br i1 %123, label %153, label %124

124:                                              ; preds = %121
  %125 = getelementptr inbounds %"class.WTF::StringImpl", %"class.WTF::StringImpl"* %122, i64 0, i32 2, i32 0, i32 0, i32 0, i32 0, i32 0
  %126 = load atomic i32, i32* %125 monotonic, align 4
  %127 = and i32 %126, 2
  %128 = icmp eq i32 %127, 0
  %129 = getelementptr inbounds %"class.WTF::StringImpl", %"class.WTF::StringImpl"* %122, i64 0, i32 0
  %130 = load i32, i32* %129, align 4
  br i1 %128, label %131, label %141

131:                                              ; preds = %124
  %132 = zext i32 %130 to i33
  %133 = call { i33, i1 } @llvm.sadd.with.overflow.i33(i33 %132, i33 1) #8
  %134 = extractvalue { i33, i1 } %133, 1
  %135 = extractvalue { i33, i1 } %133, 0
  %136 = icmp slt i33 %135, 0
  %137 = or i1 %134, %136
  br i1 %137, label %138, label %139, !prof !2

138:                                              ; preds = %131
  call void @llvm.trap() #8
  unreachable

139:                                              ; preds = %131
  %140 = trunc i33 %135 to i32
  store i32 %140, i32* %129, align 4
  br label %141

141:                                              ; preds = %124, %139
  %142 = phi i32 [ %140, %139 ], [ %130, %124 ]
  %143 = load atomic i32, i32* %125 monotonic, align 4
  %144 = and i32 %143, 2
  %145 = icmp eq i32 %144, 0
  br i1 %145, label %146, label %149

146:                                              ; preds = %141
  %147 = getelementptr inbounds %"class.WTF::StringImpl", %"class.WTF::StringImpl"* %122, i64 0, i32 0
  %148 = add i32 %142, -1
  store i32 %148, i32* %147, align 4
  br label %149

149:                                              ; preds = %146, %141
  %150 = phi i32 [ %148, %146 ], [ %142, %141 ]
  %151 = icmp eq i32 %150, 0
  br i1 %151, label %152, label %153

152:                                              ; preds = %149
  call void @_ZNK3WTF10StringImpl18DestroyIfNotStaticEv(%"class.WTF::StringImpl"* nonnull %122) #8
  br label %153

153:                                              ; preds = %121, %149, %152
  %154 = getelementptr inbounds %"class.blink::ExceptionState", %"class.blink::ExceptionState"* %3, i64 0, i32 4
  %155 = load i32, i32* %154, align 8
  %156 = icmp eq i32 %155, 0
  br i1 %156, label %157, label %243

157:                                              ; preds = %153
  br i1 %123, label %175, label %158

158:                                              ; preds = %157
  %159 = getelementptr inbounds %"class.WTF::StringImpl", %"class.WTF::StringImpl"* %122, i64 0, i32 2, i32 0, i32 0, i32 0, i32 0, i32 0
  %160 = load atomic i32, i32* %159 monotonic, align 4
  %161 = and i32 %160, 2
  %162 = icmp eq i32 %161, 0
  br i1 %162, label %163, label %177

163:                                              ; preds = %158
  %164 = getelementptr inbounds %"class.WTF::StringImpl", %"class.WTF::StringImpl"* %122, i64 0, i32 0
  %165 = load i32, i32* %164, align 4
  %166 = zext i32 %165 to i33
  %167 = call { i33, i1 } @llvm.sadd.with.overflow.i33(i33 %166, i33 1) #8
  %168 = extractvalue { i33, i1 } %167, 1
  %169 = extractvalue { i33, i1 } %167, 0
  %170 = icmp slt i33 %169, 0
  %171 = or i1 %168, %170
  br i1 %171, label %172, label %173, !prof !2

172:                                              ; preds = %163
  call void @llvm.trap() #8
  unreachable

173:                                              ; preds = %163
  %174 = trunc i33 %169 to i32
  store i32 %174, i32* %164, align 4
  br label %177

175:                                              ; preds = %157
  %176 = getelementptr inbounds %"class.blink::AuctionAdInterestGroup", %"class.blink::AuctionAdInterestGroup"* %2, i64 0, i32 4
  br label %194

177:                                              ; preds = %158, %173
  %178 = getelementptr inbounds %"class.blink::AuctionAdInterestGroup", %"class.blink::AuctionAdInterestGroup"* %2, i64 0, i32 4
  %179 = load atomic i32, i32* %159 monotonic, align 4
  %180 = and i32 %179, 2
  %181 = icmp eq i32 %180, 0
  br i1 %181, label %182, label %194

182:                                              ; preds = %177
  %183 = getelementptr inbounds %"class.WTF::StringImpl", %"class.WTF::StringImpl"* %122, i64 0, i32 0
  %184 = load i32, i32* %183, align 4
  %185 = zext i32 %184 to i33
  %186 = call { i33, i1 } @llvm.sadd.with.overflow.i33(i33 %185, i33 1) #8
  %187 = extractvalue { i33, i1 } %186, 1
  %188 = extractvalue { i33, i1 } %186, 0
  %189 = icmp slt i33 %188, 0
  %190 = or i1 %187, %189
  br i1 %190, label %191, label %192, !prof !2

191:                                              ; preds = %182
  call void @llvm.trap() #8
  unreachable

192:                                              ; preds = %182
  %193 = trunc i33 %188 to i32
  store i32 %193, i32* %183, align 4
  br label %194

194:                                              ; preds = %175, %192, %177
  %195 = phi i1 [ false, %192 ], [ false, %177 ], [ true, %175 ]
  %196 = phi %"class.WTF::String"* [ %178, %192 ], [ %178, %177 ], [ %176, %175 ]
  %197 = ptrtoint %"class.WTF::StringImpl"* %122 to i64
  %198 = bitcast %"class.WTF::String"* %196 to i64*
  %199 = getelementptr inbounds %"class.blink::AuctionAdInterestGroup", %"class.blink::AuctionAdInterestGroup"* %2, i64 0, i32 4, i32 0, i32 0
  %200 = load %"class.WTF::StringImpl"*, %"class.WTF::StringImpl"** %199, align 8
  store i64 %197, i64* %198, align 8
  %201 = icmp eq %"class.WTF::StringImpl"* %200, null
  br i1 %201, label %215, label %202

202:                                              ; preds = %194
  %203 = getelementptr inbounds %"class.WTF::StringImpl", %"class.WTF::StringImpl"* %200, i64 0, i32 2, i32 0, i32 0, i32 0, i32 0, i32 0
  %204 = load atomic i32, i32* %203 monotonic, align 4
  %205 = and i32 %204, 2
  %206 = icmp eq i32 %205, 0
  %207 = getelementptr inbounds %"class.WTF::StringImpl", %"class.WTF::StringImpl"* %200, i64 0, i32 0
  %208 = load i32, i32* %207, align 4
  br i1 %206, label %209, label %211

209:                                              ; preds = %202
  %210 = add i32 %208, -1
  store i32 %210, i32* %207, align 4
  br label %211

211:                                              ; preds = %209, %202
  %212 = phi i32 [ %210, %209 ], [ %208, %202 ]
  %213 = icmp eq i32 %212, 0
  br i1 %213, label %214, label %215

214:                                              ; preds = %211
  call void @_ZNK3WTF10StringImpl18DestroyIfNotStaticEv(%"class.WTF::StringImpl"* nonnull %200) #8
  br label %215

215:                                              ; preds = %194, %211, %214
  br i1 %195, label %229, label %216

216:                                              ; preds = %215
  %217 = getelementptr inbounds %"class.WTF::StringImpl", %"class.WTF::StringImpl"* %122, i64 0, i32 2, i32 0, i32 0, i32 0, i32 0, i32 0
  %218 = load atomic i32, i32* %217 monotonic, align 4
  %219 = and i32 %218, 2
  %220 = icmp eq i32 %219, 0
  %221 = getelementptr inbounds %"class.WTF::StringImpl", %"class.WTF::StringImpl"* %122, i64 0, i32 0
  %222 = load i32, i32* %221, align 4
  br i1 %220, label %223, label %225

223:                                              ; preds = %216
  %224 = add i32 %222, -1
  store i32 %224, i32* %221, align 4
  br label %225

225:                                              ; preds = %223, %216
  %226 = phi i32 [ %224, %223 ], [ %222, %216 ]
  %227 = icmp eq i32 %226, 0
  br i1 %227, label %228, label %229

228:                                              ; preds = %225
  call void @_ZNK3WTF10StringImpl18DestroyIfNotStaticEv(%"class.WTF::StringImpl"* nonnull %122) #8
  br label %229

229:                                              ; preds = %228, %225, %215
  br i1 %123, label %257, label %230

230:                                              ; preds = %229
  %231 = getelementptr inbounds %"class.WTF::StringImpl", %"class.WTF::StringImpl"* %122, i64 0, i32 2, i32 0, i32 0, i32 0, i32 0, i32 0
  %232 = load atomic i32, i32* %231 monotonic, align 4
  %233 = and i32 %232, 2
  %234 = icmp eq i32 %233, 0
  %235 = getelementptr inbounds %"class.WTF::StringImpl", %"class.WTF::StringImpl"* %122, i64 0, i32 0
  %236 = load i32, i32* %235, align 4
  br i1 %234, label %237, label %239

237:                                              ; preds = %230
  %238 = add i32 %236, -1
  store i32 %238, i32* %235, align 4
  br label %239

239:                                              ; preds = %237, %230
  %240 = phi i32 [ %238, %237 ], [ %236, %230 ]
  %241 = icmp eq i32 %240, 0
  br i1 %241, label %242, label %257

242:                                              ; preds = %239
  call void @_ZNK3WTF10StringImpl18DestroyIfNotStaticEv(%"class.WTF::StringImpl"* nonnull %122) #8
  br label %257

243:                                              ; preds = %153
  br i1 %123, label %1170, label %244

244:                                              ; preds = %243
  %245 = getelementptr inbounds %"class.WTF::StringImpl", %"class.WTF::StringImpl"* %122, i64 0, i32 2, i32 0, i32 0, i32 0, i32 0, i32 0
  %246 = load atomic i32, i32* %245 monotonic, align 4
  %247 = and i32 %246, 2
  %248 = icmp eq i32 %247, 0
  %249 = getelementptr inbounds %"class.WTF::StringImpl", %"class.WTF::StringImpl"* %122, i64 0, i32 0
  %250 = load i32, i32* %249, align 4
  br i1 %248, label %251, label %253

251:                                              ; preds = %244
  %252 = add i32 %250, -1
  store i32 %252, i32* %249, align 4
  br label %253

253:                                              ; preds = %251, %244
  %254 = phi i32 [ %252, %251 ], [ %250, %244 ]
  %255 = icmp eq i32 %254, 0
  br i1 %255, label %256, label %1170

256:                                              ; preds = %253
  call void @_ZNK3WTF10StringImpl18DestroyIfNotStaticEv(%"class.WTF::StringImpl"* nonnull %122) #8
  br label %1170

257:                                              ; preds = %242, %239, %229, %115
  %258 = getelementptr inbounds %"class.v8::Eternal", %"class.v8::Eternal"* %44, i64 2, i32 0
  %259 = bitcast %"class.v8::Name"** %258 to %"class.v8::Value"**
  %260 = load %"class.v8::Value"*, %"class.v8::Value"** %259, align 8
  %261 = call %"class.v8::Value"* @_ZN2v86Object3GetENS_5LocalINS_7ContextEEENS1_INS_5ValueEEE(%"class.v8::Object"* nonnull %38, %"class.v8::Context"* %46, %"class.v8::Value"* %260) #8
  %262 = icmp eq %"class.v8::Value"* %261, null
  br i1 %262, label %263, label %269

263:                                              ; preds = %257
  %264 = call %"class.v8::Value"* @_ZNK2v88TryCatch9ExceptionEv(%"class.v8::TryCatch"* nonnull %6) #8
  %265 = bitcast %"class.blink::ExceptionState"* %3 to void (%"class.blink::ExceptionState"*, %"class.v8::Value"*)***
  %266 = load void (%"class.blink::ExceptionState"*, %"class.v8::Value"*)**, void (%"class.blink::ExceptionState"*, %"class.v8::Value"*)*** %265, align 8
  %267 = getelementptr inbounds void (%"class.blink::ExceptionState"*, %"class.v8::Value"*)*, void (%"class.blink::ExceptionState"*, %"class.v8::Value"*)** %266, i64 5
  %268 = load void (%"class.blink::ExceptionState"*, %"class.v8::Value"*)*, void (%"class.blink::ExceptionState"*, %"class.v8::Value"*)** %267, align 8
  call void %268(%"class.blink::ExceptionState"* %3, %"class.v8::Value"* %264) #8
  br label %1170

269:                                              ; preds = %257
  %270 = bitcast %"class.v8::Value"* %261 to i64*
  %271 = load i64, i64* %270, align 8
  %272 = and i64 %271, 3
  %273 = icmp eq i64 %272, 1
  br i1 %273, label %274, label %291

274:                                              ; preds = %269
  %275 = add i64 %271, -1
  %276 = inttoptr i64 %275 to i32*
  %277 = load i32, i32* %276, align 4
  %278 = and i64 %271, -4294967296
  %279 = zext i32 %277 to i64
  %280 = or i64 %278, %279
  %281 = add i64 %280, 7
  %282 = inttoptr i64 %281 to i16*
  %283 = load i16, i16* %282, align 2
  %284 = icmp eq i16 %283, 67
  br i1 %284, label %285, label %291

285:                                              ; preds = %274
  %286 = add i64 %271, 23
  %287 = inttoptr i64 %286 to i32*
  %288 = load i32, i32* %287, align 4
  %289 = and i32 %288, -2
  %290 = icmp eq i32 %289, 10
  br i1 %290, label %427, label %291

291:                                              ; preds = %274, %269, %285
  %292 = call %"class.WTF::StringImpl"* @_ZN5blink17NativeValueTraitsINS_16IDLUSVStringBaseILNS_20V8StringResourceModeE0EEEvE11NativeValueEPN2v87IsolateENS5_5LocalINS5_5ValueEEERNS_14ExceptionStateE(%"class.v8::Isolate"* %0, %"class.v8::Value"* nonnull %261, %"class.blink::ExceptionState"* dereferenceable(72) %3)
  %293 = icmp eq %"class.WTF::StringImpl"* %292, null
  br i1 %293, label %323, label %294

294:                                              ; preds = %291
  %295 = getelementptr inbounds %"class.WTF::StringImpl", %"class.WTF::StringImpl"* %292, i64 0, i32 2, i32 0, i32 0, i32 0, i32 0, i32 0
  %296 = load atomic i32, i32* %295 monotonic, align 4
  %297 = and i32 %296, 2
  %298 = icmp eq i32 %297, 0
  %299 = getelementptr inbounds %"class.WTF::StringImpl", %"class.WTF::StringImpl"* %292, i64 0, i32 0
  %300 = load i32, i32* %299, align 4
  br i1 %298, label %301, label %311

301:                                              ; preds = %294
  %302 = zext i32 %300 to i33
  %303 = call { i33, i1 } @llvm.sadd.with.overflow.i33(i33 %302, i33 1) #8
  %304 = extractvalue { i33, i1 } %303, 1
  %305 = extractvalue { i33, i1 } %303, 0
  %306 = icmp slt i33 %305, 0
  %307 = or i1 %304, %306
  br i1 %307, label %308, label %309, !prof !2

308:                                              ; preds = %301
  call void @llvm.trap() #8
  unreachable

309:                                              ; preds = %301
  %310 = trunc i33 %305 to i32
  store i32 %310, i32* %299, align 4
  br label %311

311:                                              ; preds = %294, %309
  %312 = phi i32 [ %310, %309 ], [ %300, %294 ]
  %313 = load atomic i32, i32* %295 monotonic, align 4
  %314 = and i32 %313, 2
  %315 = icmp eq i32 %314, 0
  br i1 %315, label %316, label %319

316:                                              ; preds = %311
  %317 = getelementptr inbounds %"class.WTF::StringImpl", %"class.WTF::StringImpl"* %292, i64 0, i32 0
  %318 = add i32 %312, -1
  store i32 %318, i32* %317, align 4
  br label %319

319:                                              ; preds = %316, %311
  %320 = phi i32 [ %318, %316 ], [ %312, %311 ]
  %321 = icmp eq i32 %320, 0
  br i1 %321, label %322, label %323

322:                                              ; preds = %319
  call void @_ZNK3WTF10StringImpl18DestroyIfNotStaticEv(%"class.WTF::StringImpl"* nonnull %292) #8
  br label %323

323:                                              ; preds = %291, %319, %322
  %324 = getelementptr inbounds %"class.blink::ExceptionState", %"class.blink::ExceptionState"* %3, i64 0, i32 4
  %325 = load i32, i32* %324, align 8
  %326 = icmp eq i32 %325, 0
  br i1 %326, label %327, label %413

327:                                              ; preds = %323
  br i1 %293, label %345, label %328

328:                                              ; preds = %327
  %329 = getelementptr inbounds %"class.WTF::StringImpl", %"class.WTF::StringImpl"* %292, i64 0, i32 2, i32 0, i32 0, i32 0, i32 0, i32 0
  %330 = load atomic i32, i32* %329 monotonic, align 4
  %331 = and i32 %330, 2
  %332 = icmp eq i32 %331, 0
  br i1 %332, label %333, label %347

333:                                              ; preds = %328
  %334 = getelementptr inbounds %"class.WTF::StringImpl", %"class.WTF::StringImpl"* %292, i64 0, i32 0
  %335 = load i32, i32* %334, align 4
  %336 = zext i32 %335 to i33
  %337 = call { i33, i1 } @llvm.sadd.with.overflow.i33(i33 %336, i33 1) #8
  %338 = extractvalue { i33, i1 } %337, 1
  %339 = extractvalue { i33, i1 } %337, 0
  %340 = icmp slt i33 %339, 0
  %341 = or i1 %338, %340
  br i1 %341, label %342, label %343, !prof !2

342:                                              ; preds = %333
  call void @llvm.trap() #8
  unreachable

343:                                              ; preds = %333
  %344 = trunc i33 %339 to i32
  store i32 %344, i32* %334, align 4
  br label %347

345:                                              ; preds = %327
  %346 = getelementptr inbounds %"class.blink::AuctionAdInterestGroup", %"class.blink::AuctionAdInterestGroup"* %2, i64 0, i32 5
  br label %364

347:                                              ; preds = %328, %343
  %348 = getelementptr inbounds %"class.blink::AuctionAdInterestGroup", %"class.blink::AuctionAdInterestGroup"* %2, i64 0, i32 5
  %349 = load atomic i32, i32* %329 monotonic, align 4
  %350 = and i32 %349, 2
  %351 = icmp eq i32 %350, 0
  br i1 %351, label %352, label %364

352:                                              ; preds = %347
  %353 = getelementptr inbounds %"class.WTF::StringImpl", %"class.WTF::StringImpl"* %292, i64 0, i32 0
  %354 = load i32, i32* %353, align 4
  %355 = zext i32 %354 to i33
  %356 = call { i33, i1 } @llvm.sadd.with.overflow.i33(i33 %355, i33 1) #8
  %357 = extractvalue { i33, i1 } %356, 1
  %358 = extractvalue { i33, i1 } %356, 0
  %359 = icmp slt i33 %358, 0
  %360 = or i1 %357, %359
  br i1 %360, label %361, label %362, !prof !2

361:                                              ; preds = %352
  call void @llvm.trap() #8
  unreachable

362:                                              ; preds = %352
  %363 = trunc i33 %358 to i32
  store i32 %363, i32* %353, align 4
  br label %364

364:                                              ; preds = %345, %362, %347
  %365 = phi i1 [ false, %362 ], [ false, %347 ], [ true, %345 ]
  %366 = phi %"class.WTF::String"* [ %348, %362 ], [ %348, %347 ], [ %346, %345 ]
  %367 = ptrtoint %"class.WTF::StringImpl"* %292 to i64
  %368 = bitcast %"class.WTF::String"* %366 to i64*
  %369 = getelementptr inbounds %"class.blink::AuctionAdInterestGroup", %"class.blink::AuctionAdInterestGroup"* %2, i64 0, i32 5, i32 0, i32 0
  %370 = load %"class.WTF::StringImpl"*, %"class.WTF::StringImpl"** %369, align 8
  store i64 %367, i64* %368, align 8
  %371 = icmp eq %"class.WTF::StringImpl"* %370, null
  br i1 %371, label %385, label %372

372:                                              ; preds = %364
  %373 = getelementptr inbounds %"class.WTF::StringImpl", %"class.WTF::StringImpl"* %370, i64 0, i32 2, i32 0, i32 0, i32 0, i32 0, i32 0
  %374 = load atomic i32, i32* %373 monotonic, align 4
  %375 = and i32 %374, 2
  %376 = icmp eq i32 %375, 0
  %377 = getelementptr inbounds %"class.WTF::StringImpl", %"class.WTF::StringImpl"* %370, i64 0, i32 0
  %378 = load i32, i32* %377, align 4
  br i1 %376, label %379, label %381

379:                                              ; preds = %372
  %380 = add i32 %378, -1
  store i32 %380, i32* %377, align 4
  br label %381

381:                                              ; preds = %379, %372
  %382 = phi i32 [ %380, %379 ], [ %378, %372 ]
  %383 = icmp eq i32 %382, 0
  br i1 %383, label %384, label %385

384:                                              ; preds = %381
  call void @_ZNK3WTF10StringImpl18DestroyIfNotStaticEv(%"class.WTF::StringImpl"* nonnull %370) #8
  br label %385

385:                                              ; preds = %364, %381, %384
  br i1 %365, label %399, label %386

386:                                              ; preds = %385
  %387 = getelementptr inbounds %"class.WTF::StringImpl", %"class.WTF::StringImpl"* %292, i64 0, i32 2, i32 0, i32 0, i32 0, i32 0, i32 0
  %388 = load atomic i32, i32* %387 monotonic, align 4
  %389 = and i32 %388, 2
  %390 = icmp eq i32 %389, 0
  %391 = getelementptr inbounds %"class.WTF::StringImpl", %"class.WTF::StringImpl"* %292, i64 0, i32 0
  %392 = load i32, i32* %391, align 4
  br i1 %390, label %393, label %395

393:                                              ; preds = %386
  %394 = add i32 %392, -1
  store i32 %394, i32* %391, align 4
  br label %395

395:                                              ; preds = %393, %386
  %396 = phi i32 [ %394, %393 ], [ %392, %386 ]
  %397 = icmp eq i32 %396, 0
  br i1 %397, label %398, label %399

398:                                              ; preds = %395
  call void @_ZNK3WTF10StringImpl18DestroyIfNotStaticEv(%"class.WTF::StringImpl"* nonnull %292) #8
  br label %399

399:                                              ; preds = %398, %395, %385
  br i1 %293, label %427, label %400

400:                                              ; preds = %399
  %401 = getelementptr inbounds %"class.WTF::StringImpl", %"class.WTF::StringImpl"* %292, i64 0, i32 2, i32 0, i32 0, i32 0, i32 0, i32 0
  %402 = load atomic i32, i32* %401 monotonic, align 4
  %403 = and i32 %402, 2
  %404 = icmp eq i32 %403, 0
  %405 = getelementptr inbounds %"class.WTF::StringImpl", %"class.WTF::StringImpl"* %292, i64 0, i32 0
  %406 = load i32, i32* %405, align 4
  br i1 %404, label %407, label %409

407:                                              ; preds = %400
  %408 = add i32 %406, -1
  store i32 %408, i32* %405, align 4
  br label %409

409:                                              ; preds = %407, %400
  %410 = phi i32 [ %408, %407 ], [ %406, %400 ]
  %411 = icmp eq i32 %410, 0
  br i1 %411, label %412, label %427

412:                                              ; preds = %409
  call void @_ZNK3WTF10StringImpl18DestroyIfNotStaticEv(%"class.WTF::StringImpl"* nonnull %292) #8
  br label %427

413:                                              ; preds = %323
  br i1 %293, label %1170, label %414

414:                                              ; preds = %413
  %415 = getelementptr inbounds %"class.WTF::StringImpl", %"class.WTF::StringImpl"* %292, i64 0, i32 2, i32 0, i32 0, i32 0, i32 0, i32 0
  %416 = load atomic i32, i32* %415 monotonic, align 4
  %417 = and i32 %416, 2
  %418 = icmp eq i32 %417, 0
  %419 = getelementptr inbounds %"class.WTF::StringImpl", %"class.WTF::StringImpl"* %292, i64 0, i32 0
  %420 = load i32, i32* %419, align 4
  br i1 %418, label %421, label %423

421:                                              ; preds = %414
  %422 = add i32 %420, -1
  store i32 %422, i32* %419, align 4
  br label %423

423:                                              ; preds = %421, %414
  %424 = phi i32 [ %422, %421 ], [ %420, %414 ]
  %425 = icmp eq i32 %424, 0
  br i1 %425, label %426, label %1170

426:                                              ; preds = %423
  call void @_ZNK3WTF10StringImpl18DestroyIfNotStaticEv(%"class.WTF::StringImpl"* nonnull %292) #8
  br label %1170

427:                                              ; preds = %412, %409, %399, %285
  %428 = getelementptr inbounds %"class.v8::Eternal", %"class.v8::Eternal"* %44, i64 3, i32 0
  %429 = bitcast %"class.v8::Name"** %428 to %"class.v8::Value"**
  %430 = load %"class.v8::Value"*, %"class.v8::Value"** %429, align 8
  %431 = call %"class.v8::Value"* @_ZN2v86Object3GetENS_5LocalINS_7ContextEEENS1_INS_5ValueEEE(%"class.v8::Object"* nonnull %38, %"class.v8::Context"* %46, %"class.v8::Value"* %430) #8
  %432 = icmp eq %"class.v8::Value"* %431, null
  br i1 %432, label %433, label %439

433:                                              ; preds = %427
  %434 = call %"class.v8::Value"* @_ZNK2v88TryCatch9ExceptionEv(%"class.v8::TryCatch"* nonnull %6) #8
  %435 = bitcast %"class.blink::ExceptionState"* %3 to void (%"class.blink::ExceptionState"*, %"class.v8::Value"*)***
  %436 = load void (%"class.blink::ExceptionState"*, %"class.v8::Value"*)**, void (%"class.blink::ExceptionState"*, %"class.v8::Value"*)*** %435, align 8
  %437 = getelementptr inbounds void (%"class.blink::ExceptionState"*, %"class.v8::Value"*)*, void (%"class.blink::ExceptionState"*, %"class.v8::Value"*)** %436, i64 5
  %438 = load void (%"class.blink::ExceptionState"*, %"class.v8::Value"*)*, void (%"class.blink::ExceptionState"*, %"class.v8::Value"*)** %437, align 8
  call void %438(%"class.blink::ExceptionState"* %3, %"class.v8::Value"* %434) #8
  br label %1170

439:                                              ; preds = %427
  %440 = bitcast %"class.v8::Value"* %431 to i64*
  %441 = load i64, i64* %440, align 8
  %442 = and i64 %441, 3
  %443 = icmp eq i64 %442, 1
  br i1 %443, label %444, label %462

444:                                              ; preds = %439
  %445 = add i64 %441, -1
  %446 = inttoptr i64 %445 to i32*
  %447 = load i32, i32* %446, align 4
  %448 = and i64 %441, -4294967296
  %449 = zext i32 %447 to i64
  %450 = or i64 %448, %449
  %451 = add i64 %450, 7
  %452 = inttoptr i64 %451 to i16*
  %453 = load i16, i16* %452, align 2
  %454 = icmp eq i16 %453, 67
  br i1 %454, label %455, label %462

455:                                              ; preds = %444
  %456 = add i64 %441, 23
  %457 = inttoptr i64 %456 to i32*
  %458 = load i32, i32* %457, align 4
  %459 = and i32 %458, -2
  %460 = icmp eq i32 %459, 10
  br i1 %460, label %461, label %462

461:                                              ; preds = %455
  call void @_ZN5blink14ExceptionState14ThrowTypeErrorEPKc(%"class.blink::ExceptionState"* %3, i8* getelementptr inbounds ([35 x i8], [35 x i8]* @.str.2, i64 0, i64 0)) #8
  br label %1170

462:                                              ; preds = %444, %439, %455
  %463 = call %"class.WTF::StringImpl"* @_ZN5blink17NativeValueTraitsINS_16IDLUSVStringBaseILNS_20V8StringResourceModeE0EEEvE11NativeValueEPN2v87IsolateENS5_5LocalINS5_5ValueEEERNS_14ExceptionStateE(%"class.v8::Isolate"* %0, %"class.v8::Value"* nonnull %431, %"class.blink::ExceptionState"* dereferenceable(72) %3)
  %464 = icmp eq %"class.WTF::StringImpl"* %463, null
  br i1 %464, label %494, label %465

465:                                              ; preds = %462
  %466 = getelementptr inbounds %"class.WTF::StringImpl", %"class.WTF::StringImpl"* %463, i64 0, i32 2, i32 0, i32 0, i32 0, i32 0, i32 0
  %467 = load atomic i32, i32* %466 monotonic, align 4
  %468 = and i32 %467, 2
  %469 = icmp eq i32 %468, 0
  %470 = getelementptr inbounds %"class.WTF::StringImpl", %"class.WTF::StringImpl"* %463, i64 0, i32 0
  %471 = load i32, i32* %470, align 4
  br i1 %469, label %472, label %482

472:                                              ; preds = %465
  %473 = zext i32 %471 to i33
  %474 = call { i33, i1 } @llvm.sadd.with.overflow.i33(i33 %473, i33 1) #8
  %475 = extractvalue { i33, i1 } %474, 1
  %476 = extractvalue { i33, i1 } %474, 0
  %477 = icmp slt i33 %476, 0
  %478 = or i1 %475, %477
  br i1 %478, label %479, label %480, !prof !2

479:                                              ; preds = %472
  call void @llvm.trap() #8
  unreachable

480:                                              ; preds = %472
  %481 = trunc i33 %476 to i32
  store i32 %481, i32* %470, align 4
  br label %482

482:                                              ; preds = %465, %480
  %483 = phi i32 [ %481, %480 ], [ %471, %465 ]
  %484 = load atomic i32, i32* %466 monotonic, align 4
  %485 = and i32 %484, 2
  %486 = icmp eq i32 %485, 0
  br i1 %486, label %487, label %490

487:                                              ; preds = %482
  %488 = getelementptr inbounds %"class.WTF::StringImpl", %"class.WTF::StringImpl"* %463, i64 0, i32 0
  %489 = add i32 %483, -1
  store i32 %489, i32* %488, align 4
  br label %490

490:                                              ; preds = %487, %482
  %491 = phi i32 [ %489, %487 ], [ %483, %482 ]
  %492 = icmp eq i32 %491, 0
  br i1 %492, label %493, label %494

493:                                              ; preds = %490
  call void @_ZNK3WTF10StringImpl18DestroyIfNotStaticEv(%"class.WTF::StringImpl"* nonnull %463) #8
  br label %494

494:                                              ; preds = %462, %490, %493
  %495 = getelementptr inbounds %"class.blink::ExceptionState", %"class.blink::ExceptionState"* %3, i64 0, i32 4
  %496 = load i32, i32* %495, align 8
  %497 = icmp eq i32 %496, 0
  br i1 %497, label %498, label %590

498:                                              ; preds = %494
  br i1 %464, label %516, label %499

499:                                              ; preds = %498
  %500 = getelementptr inbounds %"class.WTF::StringImpl", %"class.WTF::StringImpl"* %463, i64 0, i32 2, i32 0, i32 0, i32 0, i32 0, i32 0
  %501 = load atomic i32, i32* %500 monotonic, align 4
  %502 = and i32 %501, 2
  %503 = icmp eq i32 %502, 0
  br i1 %503, label %504, label %518

504:                                              ; preds = %499
  %505 = getelementptr inbounds %"class.WTF::StringImpl", %"class.WTF::StringImpl"* %463, i64 0, i32 0
  %506 = load i32, i32* %505, align 4
  %507 = zext i32 %506 to i33
  %508 = call { i33, i1 } @llvm.sadd.with.overflow.i33(i33 %507, i33 1) #8
  %509 = extractvalue { i33, i1 } %508, 1
  %510 = extractvalue { i33, i1 } %508, 0
  %511 = icmp slt i33 %510, 0
  %512 = or i1 %509, %511
  br i1 %512, label %513, label %514, !prof !2

513:                                              ; preds = %504
  call void @llvm.trap() #8
  unreachable

514:                                              ; preds = %504
  %515 = trunc i33 %510 to i32
  store i32 %515, i32* %505, align 4
  br label %518

516:                                              ; preds = %498
  %517 = getelementptr inbounds %"class.blink::AuctionAdInterestGroup", %"class.blink::AuctionAdInterestGroup"* %2, i64 0, i32 6
  br label %535

518:                                              ; preds = %499, %514
  %519 = getelementptr inbounds %"class.blink::AuctionAdInterestGroup", %"class.blink::AuctionAdInterestGroup"* %2, i64 0, i32 6
  %520 = load atomic i32, i32* %500 monotonic, align 4
  %521 = and i32 %520, 2
  %522 = icmp eq i32 %521, 0
  br i1 %522, label %523, label %535

523:                                              ; preds = %518
  %524 = getelementptr inbounds %"class.WTF::StringImpl", %"class.WTF::StringImpl"* %463, i64 0, i32 0
  %525 = load i32, i32* %524, align 4
  %526 = zext i32 %525 to i33
  %527 = call { i33, i1 } @llvm.sadd.with.overflow.i33(i33 %526, i33 1) #8
  %528 = extractvalue { i33, i1 } %527, 1
  %529 = extractvalue { i33, i1 } %527, 0
  %530 = icmp slt i33 %529, 0
  %531 = or i1 %528, %530
  br i1 %531, label %532, label %533, !prof !2

532:                                              ; preds = %523
  call void @llvm.trap() #8
  unreachable

533:                                              ; preds = %523
  %534 = trunc i33 %529 to i32
  store i32 %534, i32* %524, align 4
  br label %535

535:                                              ; preds = %516, %533, %518
  %536 = phi i1 [ false, %533 ], [ false, %518 ], [ true, %516 ]
  %537 = phi %"class.WTF::String"* [ %519, %533 ], [ %519, %518 ], [ %517, %516 ]
  %538 = ptrtoint %"class.WTF::StringImpl"* %463 to i64
  %539 = bitcast %"class.WTF::String"* %537 to i64*
  %540 = getelementptr inbounds %"class.blink::AuctionAdInterestGroup", %"class.blink::AuctionAdInterestGroup"* %2, i64 0, i32 6, i32 0, i32 0
  %541 = load %"class.WTF::StringImpl"*, %"class.WTF::StringImpl"** %540, align 8
  store i64 %538, i64* %539, align 8
  %542 = icmp eq %"class.WTF::StringImpl"* %541, null
  br i1 %542, label %556, label %543

543:                                              ; preds = %535
  %544 = getelementptr inbounds %"class.WTF::StringImpl", %"class.WTF::StringImpl"* %541, i64 0, i32 2, i32 0, i32 0, i32 0, i32 0, i32 0
  %545 = load atomic i32, i32* %544 monotonic, align 4
  %546 = and i32 %545, 2
  %547 = icmp eq i32 %546, 0
  %548 = getelementptr inbounds %"class.WTF::StringImpl", %"class.WTF::StringImpl"* %541, i64 0, i32 0
  %549 = load i32, i32* %548, align 4
  br i1 %547, label %550, label %552

550:                                              ; preds = %543
  %551 = add i32 %549, -1
  store i32 %551, i32* %548, align 4
  br label %552

552:                                              ; preds = %550, %543
  %553 = phi i32 [ %551, %550 ], [ %549, %543 ]
  %554 = icmp eq i32 %553, 0
  br i1 %554, label %555, label %556

555:                                              ; preds = %552
  call void @_ZNK3WTF10StringImpl18DestroyIfNotStaticEv(%"class.WTF::StringImpl"* nonnull %541) #8
  br label %556

556:                                              ; preds = %535, %552, %555
  br i1 %536, label %570, label %557

557:                                              ; preds = %556
  %558 = getelementptr inbounds %"class.WTF::StringImpl", %"class.WTF::StringImpl"* %463, i64 0, i32 2, i32 0, i32 0, i32 0, i32 0, i32 0
  %559 = load atomic i32, i32* %558 monotonic, align 4
  %560 = and i32 %559, 2
  %561 = icmp eq i32 %560, 0
  %562 = getelementptr inbounds %"class.WTF::StringImpl", %"class.WTF::StringImpl"* %463, i64 0, i32 0
  %563 = load i32, i32* %562, align 4
  br i1 %561, label %564, label %566

564:                                              ; preds = %557
  %565 = add i32 %563, -1
  store i32 %565, i32* %562, align 4
  br label %566

566:                                              ; preds = %564, %557
  %567 = phi i32 [ %565, %564 ], [ %563, %557 ]
  %568 = icmp eq i32 %567, 0
  br i1 %568, label %569, label %570

569:                                              ; preds = %566
  call void @_ZNK3WTF10StringImpl18DestroyIfNotStaticEv(%"class.WTF::StringImpl"* nonnull %463) #8
  br label %570

570:                                              ; preds = %569, %566, %556
  br i1 %464, label %584, label %571

571:                                              ; preds = %570
  %572 = getelementptr inbounds %"class.WTF::StringImpl", %"class.WTF::StringImpl"* %463, i64 0, i32 2, i32 0, i32 0, i32 0, i32 0, i32 0
  %573 = load atomic i32, i32* %572 monotonic, align 4
  %574 = and i32 %573, 2
  %575 = icmp eq i32 %574, 0
  %576 = getelementptr inbounds %"class.WTF::StringImpl", %"class.WTF::StringImpl"* %463, i64 0, i32 0
  %577 = load i32, i32* %576, align 4
  br i1 %575, label %578, label %580

578:                                              ; preds = %571
  %579 = add i32 %577, -1
  store i32 %579, i32* %576, align 4
  br label %580

580:                                              ; preds = %578, %571
  %581 = phi i32 [ %579, %578 ], [ %577, %571 ]
  %582 = icmp eq i32 %581, 0
  br i1 %582, label %583, label %584

583:                                              ; preds = %580
  call void @_ZNK3WTF10StringImpl18DestroyIfNotStaticEv(%"class.WTF::StringImpl"* nonnull %463) #8
  br label %584

584:                                              ; preds = %570, %580, %583
  %585 = getelementptr inbounds %"class.v8::Eternal", %"class.v8::Eternal"* %44, i64 4, i32 0
  %586 = bitcast %"class.v8::Name"** %585 to %"class.v8::Value"**
  %587 = load %"class.v8::Value"*, %"class.v8::Value"** %586, align 8
  %588 = call %"class.v8::Value"* @_ZN2v86Object3GetENS_5LocalINS_7ContextEEENS1_INS_5ValueEEE(%"class.v8::Object"* nonnull %38, %"class.v8::Context"* %46, %"class.v8::Value"* %587) #8
  %589 = icmp eq %"class.v8::Value"* %588, null
  br i1 %589, label %604, label %610

590:                                              ; preds = %494
  br i1 %464, label %1170, label %591

591:                                              ; preds = %590
  %592 = getelementptr inbounds %"class.WTF::StringImpl", %"class.WTF::StringImpl"* %463, i64 0, i32 2, i32 0, i32 0, i32 0, i32 0, i32 0
  %593 = load atomic i32, i32* %592 monotonic, align 4
  %594 = and i32 %593, 2
  %595 = icmp eq i32 %594, 0
  %596 = getelementptr inbounds %"class.WTF::StringImpl", %"class.WTF::StringImpl"* %463, i64 0, i32 0
  %597 = load i32, i32* %596, align 4
  br i1 %595, label %598, label %600

598:                                              ; preds = %591
  %599 = add i32 %597, -1
  store i32 %599, i32* %596, align 4
  br label %600

600:                                              ; preds = %598, %591
  %601 = phi i32 [ %599, %598 ], [ %597, %591 ]
  %602 = icmp eq i32 %601, 0
  br i1 %602, label %603, label %1170

603:                                              ; preds = %600
  call void @_ZNK3WTF10StringImpl18DestroyIfNotStaticEv(%"class.WTF::StringImpl"* nonnull %463) #8
  br label %1170

604:                                              ; preds = %584
  %605 = call %"class.v8::Value"* @_ZNK2v88TryCatch9ExceptionEv(%"class.v8::TryCatch"* nonnull %6) #8
  %606 = bitcast %"class.blink::ExceptionState"* %3 to void (%"class.blink::ExceptionState"*, %"class.v8::Value"*)***
  %607 = load void (%"class.blink::ExceptionState"*, %"class.v8::Value"*)**, void (%"class.blink::ExceptionState"*, %"class.v8::Value"*)*** %606, align 8
  %608 = getelementptr inbounds void (%"class.blink::ExceptionState"*, %"class.v8::Value"*)*, void (%"class.blink::ExceptionState"*, %"class.v8::Value"*)** %607, i64 5
  %609 = load void (%"class.blink::ExceptionState"*, %"class.v8::Value"*)*, void (%"class.blink::ExceptionState"*, %"class.v8::Value"*)** %608, align 8
  call void %609(%"class.blink::ExceptionState"* %3, %"class.v8::Value"* %605) #8
  br label %1170

610:                                              ; preds = %584
  %611 = bitcast %"class.v8::Value"* %588 to i64*
  %612 = load i64, i64* %611, align 8
  %613 = and i64 %612, 3
  %614 = icmp eq i64 %613, 1
  br i1 %614, label %615, label %633

615:                                              ; preds = %610
  %616 = add i64 %612, -1
  %617 = inttoptr i64 %616 to i32*
  %618 = load i32, i32* %617, align 4
  %619 = and i64 %612, -4294967296
  %620 = zext i32 %618 to i64
  %621 = or i64 %619, %620
  %622 = add i64 %621, 7
  %623 = inttoptr i64 %622 to i16*
  %624 = load i16, i16* %623, align 2
  %625 = icmp eq i16 %624, 67
  br i1 %625, label %626, label %633

626:                                              ; preds = %615
  %627 = add i64 %612, 23
  %628 = inttoptr i64 %627 to i32*
  %629 = load i32, i32* %628, align 4
  %630 = and i32 %629, -2
  %631 = icmp eq i32 %630, 10
  br i1 %631, label %632, label %633

632:                                              ; preds = %626
  call void @_ZN5blink14ExceptionState14ThrowTypeErrorEPKc(%"class.blink::ExceptionState"* %3, i8* getelementptr inbounds ([36 x i8], [36 x i8]* @.str.3, i64 0, i64 0)) #8
  br label %1170

633:                                              ; preds = %615, %610, %626
  %634 = call %"class.WTF::StringImpl"* @_ZN5blink17NativeValueTraitsINS_16IDLUSVStringBaseILNS_20V8StringResourceModeE0EEEvE11NativeValueEPN2v87IsolateENS5_5LocalINS5_5ValueEEERNS_14ExceptionStateE(%"class.v8::Isolate"* %0, %"class.v8::Value"* nonnull %588, %"class.blink::ExceptionState"* dereferenceable(72) %3)
  %635 = icmp eq %"class.WTF::StringImpl"* %634, null
  br i1 %635, label %665, label %636

636:                                              ; preds = %633
  %637 = getelementptr inbounds %"class.WTF::StringImpl", %"class.WTF::StringImpl"* %634, i64 0, i32 2, i32 0, i32 0, i32 0, i32 0, i32 0
  %638 = load atomic i32, i32* %637 monotonic, align 4
  %639 = and i32 %638, 2
  %640 = icmp eq i32 %639, 0
  %641 = getelementptr inbounds %"class.WTF::StringImpl", %"class.WTF::StringImpl"* %634, i64 0, i32 0
  %642 = load i32, i32* %641, align 4
  br i1 %640, label %643, label %653

643:                                              ; preds = %636
  %644 = zext i32 %642 to i33
  %645 = call { i33, i1 } @llvm.sadd.with.overflow.i33(i33 %644, i33 1) #8
  %646 = extractvalue { i33, i1 } %645, 1
  %647 = extractvalue { i33, i1 } %645, 0
  %648 = icmp slt i33 %647, 0
  %649 = or i1 %646, %648
  br i1 %649, label %650, label %651, !prof !2

650:                                              ; preds = %643
  call void @llvm.trap() #8
  unreachable

651:                                              ; preds = %643
  %652 = trunc i33 %647 to i32
  store i32 %652, i32* %641, align 4
  br label %653

653:                                              ; preds = %636, %651
  %654 = phi i32 [ %652, %651 ], [ %642, %636 ]
  %655 = load atomic i32, i32* %637 monotonic, align 4
  %656 = and i32 %655, 2
  %657 = icmp eq i32 %656, 0
  br i1 %657, label %658, label %661

658:                                              ; preds = %653
  %659 = getelementptr inbounds %"class.WTF::StringImpl", %"class.WTF::StringImpl"* %634, i64 0, i32 0
  %660 = add i32 %654, -1
  store i32 %660, i32* %659, align 4
  br label %661

661:                                              ; preds = %658, %653
  %662 = phi i32 [ %660, %658 ], [ %654, %653 ]
  %663 = icmp eq i32 %662, 0
  br i1 %663, label %664, label %665

664:                                              ; preds = %661
  call void @_ZNK3WTF10StringImpl18DestroyIfNotStaticEv(%"class.WTF::StringImpl"* nonnull %634) #8
  br label %665

665:                                              ; preds = %633, %661, %664
  %666 = load i32, i32* %495, align 8
  %667 = icmp eq i32 %666, 0
  br i1 %667, label %668, label %760

668:                                              ; preds = %665
  br i1 %635, label %686, label %669

669:                                              ; preds = %668
  %670 = getelementptr inbounds %"class.WTF::StringImpl", %"class.WTF::StringImpl"* %634, i64 0, i32 2, i32 0, i32 0, i32 0, i32 0, i32 0
  %671 = load atomic i32, i32* %670 monotonic, align 4
  %672 = and i32 %671, 2
  %673 = icmp eq i32 %672, 0
  br i1 %673, label %674, label %688

674:                                              ; preds = %669
  %675 = getelementptr inbounds %"class.WTF::StringImpl", %"class.WTF::StringImpl"* %634, i64 0, i32 0
  %676 = load i32, i32* %675, align 4
  %677 = zext i32 %676 to i33
  %678 = call { i33, i1 } @llvm.sadd.with.overflow.i33(i33 %677, i33 1) #8
  %679 = extractvalue { i33, i1 } %678, 1
  %680 = extractvalue { i33, i1 } %678, 0
  %681 = icmp slt i33 %680, 0
  %682 = or i1 %679, %681
  br i1 %682, label %683, label %684, !prof !2

683:                                              ; preds = %674
  call void @llvm.trap() #8
  unreachable

684:                                              ; preds = %674
  %685 = trunc i33 %680 to i32
  store i32 %685, i32* %675, align 4
  br label %688

686:                                              ; preds = %668
  %687 = getelementptr inbounds %"class.blink::AuctionAdInterestGroup", %"class.blink::AuctionAdInterestGroup"* %2, i64 0, i32 7
  br label %705

688:                                              ; preds = %669, %684
  %689 = getelementptr inbounds %"class.blink::AuctionAdInterestGroup", %"class.blink::AuctionAdInterestGroup"* %2, i64 0, i32 7
  %690 = load atomic i32, i32* %670 monotonic, align 4
  %691 = and i32 %690, 2
  %692 = icmp eq i32 %691, 0
  br i1 %692, label %693, label %705

693:                                              ; preds = %688
  %694 = getelementptr inbounds %"class.WTF::StringImpl", %"class.WTF::StringImpl"* %634, i64 0, i32 0
  %695 = load i32, i32* %694, align 4
  %696 = zext i32 %695 to i33
  %697 = call { i33, i1 } @llvm.sadd.with.overflow.i33(i33 %696, i33 1) #8
  %698 = extractvalue { i33, i1 } %697, 1
  %699 = extractvalue { i33, i1 } %697, 0
  %700 = icmp slt i33 %699, 0
  %701 = or i1 %698, %700
  br i1 %701, label %702, label %703, !prof !2

702:                                              ; preds = %693
  call void @llvm.trap() #8
  unreachable

703:                                              ; preds = %693
  %704 = trunc i33 %699 to i32
  store i32 %704, i32* %694, align 4
  br label %705

705:                                              ; preds = %686, %703, %688
  %706 = phi i1 [ false, %703 ], [ false, %688 ], [ true, %686 ]
  %707 = phi %"class.WTF::String"* [ %689, %703 ], [ %689, %688 ], [ %687, %686 ]
  %708 = ptrtoint %"class.WTF::StringImpl"* %634 to i64
  %709 = bitcast %"class.WTF::String"* %707 to i64*
  %710 = getelementptr inbounds %"class.blink::AuctionAdInterestGroup", %"class.blink::AuctionAdInterestGroup"* %2, i64 0, i32 7, i32 0, i32 0
  %711 = load %"class.WTF::StringImpl"*, %"class.WTF::StringImpl"** %710, align 8
  store i64 %708, i64* %709, align 8
  %712 = icmp eq %"class.WTF::StringImpl"* %711, null
  br i1 %712, label %726, label %713

713:                                              ; preds = %705
  %714 = getelementptr inbounds %"class.WTF::StringImpl", %"class.WTF::StringImpl"* %711, i64 0, i32 2, i32 0, i32 0, i32 0, i32 0, i32 0
  %715 = load atomic i32, i32* %714 monotonic, align 4
  %716 = and i32 %715, 2
  %717 = icmp eq i32 %716, 0
  %718 = getelementptr inbounds %"class.WTF::StringImpl", %"class.WTF::StringImpl"* %711, i64 0, i32 0
  %719 = load i32, i32* %718, align 4
  br i1 %717, label %720, label %722

720:                                              ; preds = %713
  %721 = add i32 %719, -1
  store i32 %721, i32* %718, align 4
  br label %722

722:                                              ; preds = %720, %713
  %723 = phi i32 [ %721, %720 ], [ %719, %713 ]
  %724 = icmp eq i32 %723, 0
  br i1 %724, label %725, label %726

725:                                              ; preds = %722
  call void @_ZNK3WTF10StringImpl18DestroyIfNotStaticEv(%"class.WTF::StringImpl"* nonnull %711) #8
  br label %726

726:                                              ; preds = %705, %722, %725
  br i1 %706, label %740, label %727

727:                                              ; preds = %726
  %728 = getelementptr inbounds %"class.WTF::StringImpl", %"class.WTF::StringImpl"* %634, i64 0, i32 2, i32 0, i32 0, i32 0, i32 0, i32 0
  %729 = load atomic i32, i32* %728 monotonic, align 4
  %730 = and i32 %729, 2
  %731 = icmp eq i32 %730, 0
  %732 = getelementptr inbounds %"class.WTF::StringImpl", %"class.WTF::StringImpl"* %634, i64 0, i32 0
  %733 = load i32, i32* %732, align 4
  br i1 %731, label %734, label %736

734:                                              ; preds = %727
  %735 = add i32 %733, -1
  store i32 %735, i32* %732, align 4
  br label %736

736:                                              ; preds = %734, %727
  %737 = phi i32 [ %735, %734 ], [ %733, %727 ]
  %738 = icmp eq i32 %737, 0
  br i1 %738, label %739, label %740

739:                                              ; preds = %736
  call void @_ZNK3WTF10StringImpl18DestroyIfNotStaticEv(%"class.WTF::StringImpl"* nonnull %634) #8
  br label %740

740:                                              ; preds = %739, %736, %726
  br i1 %635, label %754, label %741

741:                                              ; preds = %740
  %742 = getelementptr inbounds %"class.WTF::StringImpl", %"class.WTF::StringImpl"* %634, i64 0, i32 2, i32 0, i32 0, i32 0, i32 0, i32 0
  %743 = load atomic i32, i32* %742 monotonic, align 4
  %744 = and i32 %743, 2
  %745 = icmp eq i32 %744, 0
  %746 = getelementptr inbounds %"class.WTF::StringImpl", %"class.WTF::StringImpl"* %634, i64 0, i32 0
  %747 = load i32, i32* %746, align 4
  br i1 %745, label %748, label %750

748:                                              ; preds = %741
  %749 = add i32 %747, -1
  store i32 %749, i32* %746, align 4
  br label %750

750:                                              ; preds = %748, %741
  %751 = phi i32 [ %749, %748 ], [ %747, %741 ]
  %752 = icmp eq i32 %751, 0
  br i1 %752, label %753, label %754

753:                                              ; preds = %750
  call void @_ZNK3WTF10StringImpl18DestroyIfNotStaticEv(%"class.WTF::StringImpl"* nonnull %634) #8
  br label %754

754:                                              ; preds = %740, %750, %753
  %755 = getelementptr inbounds %"class.v8::Eternal", %"class.v8::Eternal"* %44, i64 5, i32 0
  %756 = bitcast %"class.v8::Name"** %755 to %"class.v8::Value"**
  %757 = load %"class.v8::Value"*, %"class.v8::Value"** %756, align 8
  %758 = call %"class.v8::Value"* @_ZN2v86Object3GetENS_5LocalINS_7ContextEEENS1_INS_5ValueEEE(%"class.v8::Object"* nonnull %38, %"class.v8::Context"* %46, %"class.v8::Value"* %757) #8
  %759 = icmp eq %"class.v8::Value"* %758, null
  br i1 %759, label %774, label %780

760:                                              ; preds = %665
  br i1 %635, label %1170, label %761

761:                                              ; preds = %760
  %762 = getelementptr inbounds %"class.WTF::StringImpl", %"class.WTF::StringImpl"* %634, i64 0, i32 2, i32 0, i32 0, i32 0, i32 0, i32 0
  %763 = load atomic i32, i32* %762 monotonic, align 4
  %764 = and i32 %763, 2
  %765 = icmp eq i32 %764, 0
  %766 = getelementptr inbounds %"class.WTF::StringImpl", %"class.WTF::StringImpl"* %634, i64 0, i32 0
  %767 = load i32, i32* %766, align 4
  br i1 %765, label %768, label %770

768:                                              ; preds = %761
  %769 = add i32 %767, -1
  store i32 %769, i32* %766, align 4
  br label %770

770:                                              ; preds = %768, %761
  %771 = phi i32 [ %769, %768 ], [ %767, %761 ]
  %772 = icmp eq i32 %771, 0
  br i1 %772, label %773, label %1170

773:                                              ; preds = %770
  call void @_ZNK3WTF10StringImpl18DestroyIfNotStaticEv(%"class.WTF::StringImpl"* nonnull %634) #8
  br label %1170

774:                                              ; preds = %754
  %775 = call %"class.v8::Value"* @_ZNK2v88TryCatch9ExceptionEv(%"class.v8::TryCatch"* nonnull %6) #8
  %776 = bitcast %"class.blink::ExceptionState"* %3 to void (%"class.blink::ExceptionState"*, %"class.v8::Value"*)***
  %777 = load void (%"class.blink::ExceptionState"*, %"class.v8::Value"*)**, void (%"class.blink::ExceptionState"*, %"class.v8::Value"*)*** %776, align 8
  %778 = getelementptr inbounds void (%"class.blink::ExceptionState"*, %"class.v8::Value"*)*, void (%"class.blink::ExceptionState"*, %"class.v8::Value"*)** %777, i64 5
  %779 = load void (%"class.blink::ExceptionState"*, %"class.v8::Value"*)*, void (%"class.blink::ExceptionState"*, %"class.v8::Value"*)** %778, align 8
  call void %779(%"class.blink::ExceptionState"* %3, %"class.v8::Value"* %775) #8
  br label %1170

780:                                              ; preds = %754
  %781 = bitcast %"class.v8::Value"* %758 to i64*
  %782 = load i64, i64* %781, align 8
  %783 = and i64 %782, 3
  %784 = icmp eq i64 %783, 1
  br i1 %784, label %785, label %802

785:                                              ; preds = %780
  %786 = add i64 %782, -1
  %787 = inttoptr i64 %786 to i32*
  %788 = load i32, i32* %787, align 4
  %789 = and i64 %782, -4294967296
  %790 = zext i32 %788 to i64
  %791 = or i64 %789, %790
  %792 = add i64 %791, 7
  %793 = inttoptr i64 %792 to i16*
  %794 = load i16, i16* %793, align 2
  %795 = icmp eq i16 %794, 67
  br i1 %795, label %796, label %802

796:                                              ; preds = %785
  %797 = add i64 %782, 23
  %798 = inttoptr i64 %797 to i32*
  %799 = load i32, i32* %798, align 4
  %800 = and i32 %799, -2
  %801 = icmp eq i32 %800, 10
  br i1 %801, label %883, label %802

802:                                              ; preds = %785, %780, %796
  %803 = bitcast %"class.WTF::Vector.190"* %8 to i8*
  call void @llvm.lifetime.start.p0i8(i64 16, i8* nonnull %803) #8
  %804 = getelementptr inbounds %"class.WTF::Vector.190", %"class.WTF::Vector.190"* %8, i64 0, i32 0, i32 0, i32 0
  %805 = getelementptr inbounds %"class.WTF::Vector.190", %"class.WTF::Vector.190"* %8, i64 0, i32 0, i32 0, i32 2
  %806 = bitcast %"class.WTF::Vector.190"* %8 to i8*
  call void @llvm.memset.p0i8.i64(i8* nonnull align 8 %806, i8 -86, i64 16, i1 false)
  call void @_ZN5blink17NativeValueTraitsINS_11IDLSequenceINS_16IDLUSVStringBaseILNS_20V8StringResourceModeE0EEEEEvE11NativeValueEPN2v87IsolateENS7_5LocalINS7_5ValueEEERNS_14ExceptionStateE(%"class.WTF::Vector.190"* nonnull sret %8, %"class.v8::Isolate"* %0, %"class.v8::Value"* nonnull %758, %"class.blink::ExceptionState"* dereferenceable(72) %3)
  %807 = load i32, i32* %495, align 8
  %808 = icmp eq i32 %807, 0
  br i1 %808, label %809, label %846

809:                                              ; preds = %802
  call void @_ZN5blink22AuctionAdInterestGroup28setTrustedBiddingSignalsKeysERKN3WTF6VectorINS1_6StringELj0ENS1_18PartitionAllocatorEEE(%"class.blink::AuctionAdInterestGroup"* %2, %"class.WTF::Vector.190"* nonnull dereferenceable(16) %8) #8
  %810 = load %"class.WTF::String"*, %"class.WTF::String"** %804, align 8
  %811 = icmp eq %"class.WTF::String"* %810, null
  br i1 %811, label %845, label %812, !prof !3

812:                                              ; preds = %809
  %813 = bitcast %"class.WTF::String"* %810 to i8*
  %814 = load i32, i32* %805, align 4
  %815 = icmp eq i32 %814, 0
  br i1 %815, label %843, label %816, !prof !2

816:                                              ; preds = %812
  %817 = zext i32 %814 to i64
  %818 = getelementptr inbounds %"class.WTF::String", %"class.WTF::String"* %810, i64 %817
  br label %819

819:                                              ; preds = %837, %816
  %820 = phi %"class.WTF::String"* [ %838, %837 ], [ %810, %816 ]
  %821 = getelementptr inbounds %"class.WTF::String", %"class.WTF::String"* %820, i64 0, i32 0, i32 0
  %822 = load %"class.WTF::StringImpl"*, %"class.WTF::StringImpl"** %821, align 8
  %823 = icmp eq %"class.WTF::StringImpl"* %822, null
  br i1 %823, label %837, label %824

824:                                              ; preds = %819
  %825 = getelementptr inbounds %"class.WTF::StringImpl", %"class.WTF::StringImpl"* %822, i64 0, i32 2, i32 0, i32 0, i32 0, i32 0, i32 0
  %826 = load atomic i32, i32* %825 monotonic, align 4
  %827 = and i32 %826, 2
  %828 = icmp eq i32 %827, 0
  %829 = getelementptr inbounds %"class.WTF::StringImpl", %"class.WTF::StringImpl"* %822, i64 0, i32 0
  %830 = load i32, i32* %829, align 4
  br i1 %828, label %831, label %833

831:                                              ; preds = %824
  %832 = add i32 %830, -1
  store i32 %832, i32* %829, align 4
  br label %833

833:                                              ; preds = %831, %824
  %834 = phi i32 [ %832, %831 ], [ %830, %824 ]
  %835 = icmp eq i32 %834, 0
  br i1 %835, label %836, label %837

836:                                              ; preds = %833
  call void @_ZNK3WTF10StringImpl18DestroyIfNotStaticEv(%"class.WTF::StringImpl"* nonnull %822) #8
  br label %837

837:                                              ; preds = %836, %833, %819
  %838 = getelementptr inbounds %"class.WTF::String", %"class.WTF::String"* %820, i64 1
  %839 = icmp eq %"class.WTF::String"* %838, %818
  br i1 %839, label %840, label %819

840:                                              ; preds = %837
  store i32 0, i32* %805, align 4
  %841 = bitcast %"class.WTF::Vector.190"* %8 to i8**
  %842 = load i8*, i8** %841, align 8
  br label %843

843:                                              ; preds = %840, %812
  %844 = phi i8* [ %842, %840 ], [ %813, %812 ]
  call void @_ZN3WTF18PartitionAllocator11FreeBackingEPv(i8* %844) #8
  store %"class.WTF::String"* null, %"class.WTF::String"** %804, align 8
  br label %845

845:                                              ; preds = %809, %843
  call void @llvm.lifetime.end.p0i8(i64 16, i8* nonnull %803) #8
  br label %883

846:                                              ; preds = %802
  %847 = load %"class.WTF::String"*, %"class.WTF::String"** %804, align 8
  %848 = icmp eq %"class.WTF::String"* %847, null
  br i1 %848, label %882, label %849, !prof !3

849:                                              ; preds = %846
  %850 = bitcast %"class.WTF::String"* %847 to i8*
  %851 = load i32, i32* %805, align 4
  %852 = icmp eq i32 %851, 0
  br i1 %852, label %880, label %853, !prof !2

853:                                              ; preds = %849
  %854 = zext i32 %851 to i64
  %855 = getelementptr inbounds %"class.WTF::String", %"class.WTF::String"* %847, i64 %854
  br label %856

856:                                              ; preds = %874, %853
  %857 = phi %"class.WTF::String"* [ %875, %874 ], [ %847, %853 ]
  %858 = getelementptr inbounds %"class.WTF::String", %"class.WTF::String"* %857, i64 0, i32 0, i32 0
  %859 = load %"class.WTF::StringImpl"*, %"class.WTF::StringImpl"** %858, align 8
  %860 = icmp eq %"class.WTF::StringImpl"* %859, null
  br i1 %860, label %874, label %861

861:                                              ; preds = %856
  %862 = getelementptr inbounds %"class.WTF::StringImpl", %"class.WTF::StringImpl"* %859, i64 0, i32 2, i32 0, i32 0, i32 0, i32 0, i32 0
  %863 = load atomic i32, i32* %862 monotonic, align 4
  %864 = and i32 %863, 2
  %865 = icmp eq i32 %864, 0
  %866 = getelementptr inbounds %"class.WTF::StringImpl", %"class.WTF::StringImpl"* %859, i64 0, i32 0
  %867 = load i32, i32* %866, align 4
  br i1 %865, label %868, label %870

868:                                              ; preds = %861
  %869 = add i32 %867, -1
  store i32 %869, i32* %866, align 4
  br label %870

870:                                              ; preds = %868, %861
  %871 = phi i32 [ %869, %868 ], [ %867, %861 ]
  %872 = icmp eq i32 %871, 0
  br i1 %872, label %873, label %874

873:                                              ; preds = %870
  call void @_ZNK3WTF10StringImpl18DestroyIfNotStaticEv(%"class.WTF::StringImpl"* nonnull %859) #8
  br label %874

874:                                              ; preds = %873, %870, %856
  %875 = getelementptr inbounds %"class.WTF::String", %"class.WTF::String"* %857, i64 1
  %876 = icmp eq %"class.WTF::String"* %875, %855
  br i1 %876, label %877, label %856

877:                                              ; preds = %874
  store i32 0, i32* %805, align 4
  %878 = bitcast %"class.WTF::Vector.190"* %8 to i8**
  %879 = load i8*, i8** %878, align 8
  br label %880

880:                                              ; preds = %877, %849
  %881 = phi i8* [ %879, %877 ], [ %850, %849 ]
  call void @_ZN3WTF18PartitionAllocator11FreeBackingEPv(i8* %881) #8
  store %"class.WTF::String"* null, %"class.WTF::String"** %804, align 8
  br label %882

882:                                              ; preds = %846, %880
  call void @llvm.lifetime.end.p0i8(i64 16, i8* nonnull %803) #8
  br label %1170

883:                                              ; preds = %845, %796
  %884 = getelementptr inbounds %"class.v8::Eternal", %"class.v8::Eternal"* %44, i64 6, i32 0
  %885 = bitcast %"class.v8::Name"** %884 to %"class.v8::Value"**
  %886 = load %"class.v8::Value"*, %"class.v8::Value"** %885, align 8
  %887 = call %"class.v8::Value"* @_ZN2v86Object3GetENS_5LocalINS_7ContextEEENS1_INS_5ValueEEE(%"class.v8::Object"* nonnull %38, %"class.v8::Context"* %46, %"class.v8::Value"* %886) #8
  %888 = icmp eq %"class.v8::Value"* %887, null
  br i1 %888, label %889, label %895

889:                                              ; preds = %883
  %890 = call %"class.v8::Value"* @_ZNK2v88TryCatch9ExceptionEv(%"class.v8::TryCatch"* nonnull %6) #8
  %891 = bitcast %"class.blink::ExceptionState"* %3 to void (%"class.blink::ExceptionState"*, %"class.v8::Value"*)***
  %892 = load void (%"class.blink::ExceptionState"*, %"class.v8::Value"*)**, void (%"class.blink::ExceptionState"*, %"class.v8::Value"*)*** %891, align 8
  %893 = getelementptr inbounds void (%"class.blink::ExceptionState"*, %"class.v8::Value"*)*, void (%"class.blink::ExceptionState"*, %"class.v8::Value"*)** %892, i64 5
  %894 = load void (%"class.blink::ExceptionState"*, %"class.v8::Value"*)*, void (%"class.blink::ExceptionState"*, %"class.v8::Value"*)** %893, align 8
  call void %894(%"class.blink::ExceptionState"* %3, %"class.v8::Value"* %890) #8
  br label %1170

895:                                              ; preds = %883
  %896 = bitcast %"class.v8::Value"* %887 to i64*
  %897 = load i64, i64* %896, align 8
  %898 = and i64 %897, 3
  %899 = icmp eq i64 %898, 1
  br i1 %899, label %900, label %917

900:                                              ; preds = %895
  %901 = add i64 %897, -1
  %902 = inttoptr i64 %901 to i32*
  %903 = load i32, i32* %902, align 4
  %904 = and i64 %897, -4294967296
  %905 = zext i32 %903 to i64
  %906 = or i64 %904, %905
  %907 = add i64 %906, 7
  %908 = inttoptr i64 %907 to i16*
  %909 = load i16, i16* %908, align 2
  %910 = icmp eq i16 %909, 67
  br i1 %910, label %911, label %917

911:                                              ; preds = %900
  %912 = add i64 %897, 23
  %913 = inttoptr i64 %912 to i32*
  %914 = load i32, i32* %913, align 4
  %915 = and i32 %914, -2
  %916 = icmp eq i32 %915, 10
  br i1 %916, label %1052, label %917

917:                                              ; preds = %900, %895, %911
  %918 = call %"class.WTF::StringImpl"* @_ZN5blink17NativeValueTraitsINS_16IDLUSVStringBaseILNS_20V8StringResourceModeE0EEEvE11NativeValueEPN2v87IsolateENS5_5LocalINS5_5ValueEEERNS_14ExceptionStateE(%"class.v8::Isolate"* %0, %"class.v8::Value"* nonnull %887, %"class.blink::ExceptionState"* dereferenceable(72) %3)
  %919 = icmp eq %"class.WTF::StringImpl"* %918, null
  br i1 %919, label %949, label %920

920:                                              ; preds = %917
  %921 = getelementptr inbounds %"class.WTF::StringImpl", %"class.WTF::StringImpl"* %918, i64 0, i32 2, i32 0, i32 0, i32 0, i32 0, i32 0
  %922 = load atomic i32, i32* %921 monotonic, align 4
  %923 = and i32 %922, 2
  %924 = icmp eq i32 %923, 0
  %925 = getelementptr inbounds %"class.WTF::StringImpl", %"class.WTF::StringImpl"* %918, i64 0, i32 0
  %926 = load i32, i32* %925, align 4
  br i1 %924, label %927, label %937

927:                                              ; preds = %920
  %928 = zext i32 %926 to i33
  %929 = call { i33, i1 } @llvm.sadd.with.overflow.i33(i33 %928, i33 1) #8
  %930 = extractvalue { i33, i1 } %929, 1
  %931 = extractvalue { i33, i1 } %929, 0
  %932 = icmp slt i33 %931, 0
  %933 = or i1 %930, %932
  br i1 %933, label %934, label %935, !prof !2

934:                                              ; preds = %927
  call void @llvm.trap() #8
  unreachable

935:                                              ; preds = %927
  %936 = trunc i33 %931 to i32
  store i32 %936, i32* %925, align 4
  br label %937

937:                                              ; preds = %920, %935
  %938 = phi i32 [ %936, %935 ], [ %926, %920 ]
  %939 = load atomic i32, i32* %921 monotonic, align 4
  %940 = and i32 %939, 2
  %941 = icmp eq i32 %940, 0
  br i1 %941, label %942, label %945

942:                                              ; preds = %937
  %943 = getelementptr inbounds %"class.WTF::StringImpl", %"class.WTF::StringImpl"* %918, i64 0, i32 0
  %944 = add i32 %938, -1
  store i32 %944, i32* %943, align 4
  br label %945

945:                                              ; preds = %942, %937
  %946 = phi i32 [ %944, %942 ], [ %938, %937 ]
  %947 = icmp eq i32 %946, 0
  br i1 %947, label %948, label %949

948:                                              ; preds = %945
  call void @_ZNK3WTF10StringImpl18DestroyIfNotStaticEv(%"class.WTF::StringImpl"* nonnull %918) #8
  br label %949

949:                                              ; preds = %917, %945, %948
  %950 = load i32, i32* %495, align 8
  %951 = icmp eq i32 %950, 0
  br i1 %951, label %952, label %1038

952:                                              ; preds = %949
  br i1 %919, label %970, label %953

953:                                              ; preds = %952
  %954 = getelementptr inbounds %"class.WTF::StringImpl", %"class.WTF::StringImpl"* %918, i64 0, i32 2, i32 0, i32 0, i32 0, i32 0, i32 0
  %955 = load atomic i32, i32* %954 monotonic, align 4
  %956 = and i32 %955, 2
  %957 = icmp eq i32 %956, 0
  br i1 %957, label %958, label %972

958:                                              ; preds = %953
  %959 = getelementptr inbounds %"class.WTF::StringImpl", %"class.WTF::StringImpl"* %918, i64 0, i32 0
  %960 = load i32, i32* %959, align 4
  %961 = zext i32 %960 to i33
  %962 = call { i33, i1 } @llvm.sadd.with.overflow.i33(i33 %961, i33 1) #8
  %963 = extractvalue { i33, i1 } %962, 1
  %964 = extractvalue { i33, i1 } %962, 0
  %965 = icmp slt i33 %964, 0
  %966 = or i1 %963, %965
  br i1 %966, label %967, label %968, !prof !2

967:                                              ; preds = %958
  call void @llvm.trap() #8
  unreachable

968:                                              ; preds = %958
  %969 = trunc i33 %964 to i32
  store i32 %969, i32* %959, align 4
  br label %972

970:                                              ; preds = %952
  %971 = getelementptr inbounds %"class.blink::AuctionAdInterestGroup", %"class.blink::AuctionAdInterestGroup"* %2, i64 0, i32 9
  br label %989

972:                                              ; preds = %953, %968
  %973 = getelementptr inbounds %"class.blink::AuctionAdInterestGroup", %"class.blink::AuctionAdInterestGroup"* %2, i64 0, i32 9
  %974 = load atomic i32, i32* %954 monotonic, align 4
  %975 = and i32 %974, 2
  %976 = icmp eq i32 %975, 0
  br i1 %976, label %977, label %989

977:                                              ; preds = %972
  %978 = getelementptr inbounds %"class.WTF::StringImpl", %"class.WTF::StringImpl"* %918, i64 0, i32 0
  %979 = load i32, i32* %978, align 4
  %980 = zext i32 %979 to i33
  %981 = call { i33, i1 } @llvm.sadd.with.overflow.i33(i33 %980, i33 1) #8
  %982 = extractvalue { i33, i1 } %981, 1
  %983 = extractvalue { i33, i1 } %981, 0
  %984 = icmp slt i33 %983, 0
  %985 = or i1 %982, %984
  br i1 %985, label %986, label %987, !prof !2

986:                                              ; preds = %977
  call void @llvm.trap() #8
  unreachable

987:                                              ; preds = %977
  %988 = trunc i33 %983 to i32
  store i32 %988, i32* %978, align 4
  br label %989

989:                                              ; preds = %970, %987, %972
  %990 = phi i1 [ false, %987 ], [ false, %972 ], [ true, %970 ]
  %991 = phi %"class.WTF::String"* [ %973, %987 ], [ %973, %972 ], [ %971, %970 ]
  %992 = ptrtoint %"class.WTF::StringImpl"* %918 to i64
  %993 = bitcast %"class.WTF::String"* %991 to i64*
  %994 = getelementptr inbounds %"class.blink::AuctionAdInterestGroup", %"class.blink::AuctionAdInterestGroup"* %2, i64 0, i32 9, i32 0, i32 0
  %995 = load %"class.WTF::StringImpl"*, %"class.WTF::StringImpl"** %994, align 8
  store i64 %992, i64* %993, align 8
  %996 = icmp eq %"class.WTF::StringImpl"* %995, null
  br i1 %996, label %1010, label %997

997:                                              ; preds = %989
  %998 = getelementptr inbounds %"class.WTF::StringImpl", %"class.WTF::StringImpl"* %995, i64 0, i32 2, i32 0, i32 0, i32 0, i32 0, i32 0
  %999 = load atomic i32, i32* %998 monotonic, align 4
  %1000 = and i32 %999, 2
  %1001 = icmp eq i32 %1000, 0
  %1002 = getelementptr inbounds %"class.WTF::StringImpl", %"class.WTF::StringImpl"* %995, i64 0, i32 0
  %1003 = load i32, i32* %1002, align 4
  br i1 %1001, label %1004, label %1006

1004:                                             ; preds = %997
  %1005 = add i32 %1003, -1
  store i32 %1005, i32* %1002, align 4
  br label %1006

1006:                                             ; preds = %1004, %997
  %1007 = phi i32 [ %1005, %1004 ], [ %1003, %997 ]
  %1008 = icmp eq i32 %1007, 0
  br i1 %1008, label %1009, label %1010

1009:                                             ; preds = %1006
  call void @_ZNK3WTF10StringImpl18DestroyIfNotStaticEv(%"class.WTF::StringImpl"* nonnull %995) #8
  br label %1010

1010:                                             ; preds = %989, %1006, %1009
  br i1 %990, label %1024, label %1011

1011:                                             ; preds = %1010
  %1012 = getelementptr inbounds %"class.WTF::StringImpl", %"class.WTF::StringImpl"* %918, i64 0, i32 2, i32 0, i32 0, i32 0, i32 0, i32 0
  %1013 = load atomic i32, i32* %1012 monotonic, align 4
  %1014 = and i32 %1013, 2
  %1015 = icmp eq i32 %1014, 0
  %1016 = getelementptr inbounds %"class.WTF::StringImpl", %"class.WTF::StringImpl"* %918, i64 0, i32 0
  %1017 = load i32, i32* %1016, align 4
  br i1 %1015, label %1018, label %1020

1018:                                             ; preds = %1011
  %1019 = add i32 %1017, -1
  store i32 %1019, i32* %1016, align 4
  br label %1020

1020:                                             ; preds = %1018, %1011
  %1021 = phi i32 [ %1019, %1018 ], [ %1017, %1011 ]
  %1022 = icmp eq i32 %1021, 0
  br i1 %1022, label %1023, label %1024

1023:                                             ; preds = %1020
  call void @_ZNK3WTF10StringImpl18DestroyIfNotStaticEv(%"class.WTF::StringImpl"* nonnull %918) #8
  br label %1024

1024:                                             ; preds = %1023, %1020, %1010
  br i1 %919, label %1052, label %1025

1025:                                             ; preds = %1024
  %1026 = getelementptr inbounds %"class.WTF::StringImpl", %"class.WTF::StringImpl"* %918, i64 0, i32 2, i32 0, i32 0, i32 0, i32 0, i32 0
  %1027 = load atomic i32, i32* %1026 monotonic, align 4
  %1028 = and i32 %1027, 2
  %1029 = icmp eq i32 %1028, 0
  %1030 = getelementptr inbounds %"class.WTF::StringImpl", %"class.WTF::StringImpl"* %918, i64 0, i32 0
  %1031 = load i32, i32* %1030, align 4
  br i1 %1029, label %1032, label %1034

1032:                                             ; preds = %1025
  %1033 = add i32 %1031, -1
  store i32 %1033, i32* %1030, align 4
  br label %1034

1034:                                             ; preds = %1032, %1025
  %1035 = phi i32 [ %1033, %1032 ], [ %1031, %1025 ]
  %1036 = icmp eq i32 %1035, 0
  br i1 %1036, label %1037, label %1052

1037:                                             ; preds = %1034
  call void @_ZNK3WTF10StringImpl18DestroyIfNotStaticEv(%"class.WTF::StringImpl"* nonnull %918) #8
  br label %1052

1038:                                             ; preds = %949
  br i1 %919, label %1170, label %1039

1039:                                             ; preds = %1038
  %1040 = getelementptr inbounds %"class.WTF::StringImpl", %"class.WTF::StringImpl"* %918, i64 0, i32 2, i32 0, i32 0, i32 0, i32 0, i32 0
  %1041 = load atomic i32, i32* %1040 monotonic, align 4
  %1042 = and i32 %1041, 2
  %1043 = icmp eq i32 %1042, 0
  %1044 = getelementptr inbounds %"class.WTF::StringImpl", %"class.WTF::StringImpl"* %918, i64 0, i32 0
  %1045 = load i32, i32* %1044, align 4
  br i1 %1043, label %1046, label %1048

1046:                                             ; preds = %1039
  %1047 = add i32 %1045, -1
  store i32 %1047, i32* %1044, align 4
  br label %1048

1048:                                             ; preds = %1046, %1039
  %1049 = phi i32 [ %1047, %1046 ], [ %1045, %1039 ]
  %1050 = icmp eq i32 %1049, 0
  br i1 %1050, label %1051, label %1170

1051:                                             ; preds = %1048
  call void @_ZNK3WTF10StringImpl18DestroyIfNotStaticEv(%"class.WTF::StringImpl"* nonnull %918) #8
  br label %1170

1052:                                             ; preds = %1037, %1034, %1024, %911
  %1053 = getelementptr inbounds %"class.v8::Eternal", %"class.v8::Eternal"* %44, i64 7, i32 0
  %1054 = bitcast %"class.v8::Name"** %1053 to %"class.v8::Value"**
  %1055 = load %"class.v8::Value"*, %"class.v8::Value"** %1054, align 8
  %1056 = call %"class.v8::Value"* @_ZN2v86Object3GetENS_5LocalINS_7ContextEEENS1_INS_5ValueEEE(%"class.v8::Object"* nonnull %38, %"class.v8::Context"* %46, %"class.v8::Value"* %1055) #8
  %1057 = icmp eq %"class.v8::Value"* %1056, null
  br i1 %1057, label %1058, label %1064

1058:                                             ; preds = %1052
  %1059 = call %"class.v8::Value"* @_ZNK2v88TryCatch9ExceptionEv(%"class.v8::TryCatch"* nonnull %6) #8
  %1060 = bitcast %"class.blink::ExceptionState"* %3 to void (%"class.blink::ExceptionState"*, %"class.v8::Value"*)***
  %1061 = load void (%"class.blink::ExceptionState"*, %"class.v8::Value"*)**, void (%"class.blink::ExceptionState"*, %"class.v8::Value"*)*** %1060, align 8
  %1062 = getelementptr inbounds void (%"class.blink::ExceptionState"*, %"class.v8::Value"*)*, void (%"class.blink::ExceptionState"*, %"class.v8::Value"*)** %1061, i64 5
  %1063 = load void (%"class.blink::ExceptionState"*, %"class.v8::Value"*)*, void (%"class.blink::ExceptionState"*, %"class.v8::Value"*)** %1062, align 8
  call void %1063(%"class.blink::ExceptionState"* %3, %"class.v8::Value"* %1059) #8
  br label %1170

1064:                                             ; preds = %1052
  %1065 = bitcast %"class.v8::Value"* %1056 to i64*
  %1066 = load i64, i64* %1065, align 8
  %1067 = and i64 %1066, 3
  %1068 = icmp eq i64 %1067, 1
  br i1 %1068, label %1069, label %1086

1069:                                             ; preds = %1064
  %1070 = add i64 %1066, -1
  %1071 = inttoptr i64 %1070 to i32*
  %1072 = load i32, i32* %1071, align 4
  %1073 = and i64 %1066, -4294967296
  %1074 = zext i32 %1072 to i64
  %1075 = or i64 %1073, %1074
  %1076 = add i64 %1075, 7
  %1077 = inttoptr i64 %1076 to i16*
  %1078 = load i16, i16* %1077, align 2
  %1079 = icmp eq i16 %1078, 67
  br i1 %1079, label %1080, label %1086

1080:                                             ; preds = %1069
  %1081 = add i64 %1066, 23
  %1082 = inttoptr i64 %1081 to i32*
  %1083 = load i32, i32* %1082, align 4
  %1084 = and i32 %1083, -2
  %1085 = icmp eq i32 %1084, 10
  br i1 %1085, label %1170, label %1086

1086:                                             ; preds = %1069, %1064, %1080
  %1087 = bitcast %"class.blink::ScriptValue"* %9 to i8*
  call void @llvm.lifetime.start.p0i8(i64 24, i8* nonnull %1087) #8
  %1088 = getelementptr inbounds %"class.blink::ScriptValue", %"class.blink::ScriptValue"* %9, i64 0, i32 1, i32 0, i32 0, i32 0, i32 0, i32 0
  %1089 = getelementptr inbounds %"class.blink::ScriptValue", %"class.blink::ScriptValue"* %9, i64 0, i32 1, i32 1, i32 0
  %1090 = bitcast %"class.blink::ScriptValue"* %9 to i8*
  call void @llvm.memset.p0i8.i64(i8* nonnull align 8 %1090, i8 -86, i64 24, i1 false)
  %1091 = call zeroext i1 @_ZNK2v85Value8IsObjectEv(%"class.v8::Value"* nonnull %1056) #8, !noalias !4
  br i1 %1091, label %1092, label %1095

1092:                                             ; preds = %1086
  %1093 = getelementptr inbounds %"class.blink::ScriptValue", %"class.blink::ScriptValue"* %9, i64 0, i32 0
  store %"class.v8::Isolate"* %0, %"class.v8::Isolate"** %1093, align 8, !alias.scope !4
  %1094 = getelementptr inbounds %"class.blink::ScriptValue", %"class.blink::ScriptValue"* %9, i64 0, i32 1
  call void @_ZN5blink20WorldSafeV8ReferenceIN2v85ValueEEC2EPNS1_7IsolateENS1_5LocalIS2_EE(%"class.blink::WorldSafeV8Reference"* %1094, %"class.v8::Isolate"* %0, %"class.v8::Value"* nonnull %1056) #8
  br label %1119

1095:                                             ; preds = %1086
  %1096 = bitcast %"class.WTF::String"* %5 to i8*
  call void @llvm.lifetime.start.p0i8(i64 8, i8* nonnull %1096) #8, !noalias !4
  %1097 = call %"class.WTF::StringImpl"* @_ZN5blink17ExceptionMessages22FailedToConvertJSValueEPKc(i8* getelementptr inbounds ([7 x i8], [7 x i8]* @.str.12, i64 0, i64 0)) #8
  %1098 = getelementptr inbounds %"class.WTF::String", %"class.WTF::String"* %5, i64 0, i32 0, i32 0
  store %"class.WTF::StringImpl"* %1097, %"class.WTF::StringImpl"** %1098, align 8, !noalias !4
  %1099 = bitcast %"class.blink::ExceptionState"* %3 to void (%"class.blink::ExceptionState"*, %"class.WTF::String"*)***
  %1100 = load void (%"class.blink::ExceptionState"*, %"class.WTF::String"*)**, void (%"class.blink::ExceptionState"*, %"class.WTF::String"*)*** %1099, align 8, !noalias !4
  %1101 = getelementptr inbounds void (%"class.blink::ExceptionState"*, %"class.WTF::String"*)*, void (%"class.blink::ExceptionState"*, %"class.WTF::String"*)** %1100, i64 3
  %1102 = load void (%"class.blink::ExceptionState"*, %"class.WTF::String"*)*, void (%"class.blink::ExceptionState"*, %"class.WTF::String"*)** %1101, align 8
  call void %1102(%"class.blink::ExceptionState"* %3, %"class.WTF::String"* nonnull dereferenceable(8) %5) #8
  %1103 = load %"class.WTF::StringImpl"*, %"class.WTF::StringImpl"** %1098, align 8, !noalias !4
  %1104 = icmp eq %"class.WTF::StringImpl"* %1103, null
  br i1 %1104, label %1118, label %1105

1105:                                             ; preds = %1095
  %1106 = getelementptr inbounds %"class.WTF::StringImpl", %"class.WTF::StringImpl"* %1103, i64 0, i32 2, i32 0, i32 0, i32 0, i32 0, i32 0
  %1107 = load atomic i32, i32* %1106 monotonic, align 4
  %1108 = and i32 %1107, 2
  %1109 = icmp eq i32 %1108, 0
  %1110 = getelementptr inbounds %"class.WTF::StringImpl", %"class.WTF::StringImpl"* %1103, i64 0, i32 0
  %1111 = load i32, i32* %1110, align 4
  br i1 %1109, label %1112, label %1114

1112:                                             ; preds = %1105
  %1113 = add i32 %1111, -1
  store i32 %1113, i32* %1110, align 4
  br label %1114

1114:                                             ; preds = %1112, %1105
  %1115 = phi i32 [ %1113, %1112 ], [ %1111, %1105 ]
  %1116 = icmp eq i32 %1115, 0
  br i1 %1116, label %1117, label %1118

1117:                                             ; preds = %1114
  call void @_ZNK3WTF10StringImpl18DestroyIfNotStaticEv(%"class.WTF::StringImpl"* nonnull %1103) #8
  br label %1118

1118:                                             ; preds = %1117, %1114, %1095
  call void @llvm.lifetime.end.p0i8(i64 8, i8* nonnull %1096) #8, !noalias !4
  call void @llvm.memset.p0i8.i64(i8* nonnull align 8 %1087, i8 0, i64 24, i1 false) #8, !alias.scope !4
  br label %1119

1119:                                             ; preds = %1092, %1118
  %1120 = load i32, i32* %495, align 8
  %1121 = icmp eq i32 %1120, 0
  br i1 %1121, label %1122, label %1159

1122:                                             ; preds = %1119
  %1123 = bitcast %"class.blink::ScriptValue"* %9 to i64*
  %1124 = load i64, i64* %1123, align 8
  %1125 = bitcast %"class.blink::ScriptValue"* %10 to i64*
  store i64 %1124, i64* %1125, align 8
  %1126 = getelementptr inbounds %"class.blink::ScriptValue", %"class.blink::ScriptValue"* %10, i64 0, i32 1
  %1127 = getelementptr inbounds %"class.blink::WorldSafeV8Reference", %"class.blink::WorldSafeV8Reference"* %1126, i64 0, i32 0
  %1128 = getelementptr inbounds %"class.blink::WorldSafeV8Reference", %"class.blink::WorldSafeV8Reference"* %1126, i64 0, i32 0, i32 0, i32 0, i32 0, i32 0
  store i64* null, i64** %1128, align 8
  %1129 = load i64*, i64** %1088, align 8
  %1130 = icmp eq i64* %1129, null
  br i1 %1130, label %1132, label %1131

1131:                                             ; preds = %1122
  call void @_ZN2v82V825CopyTracedGlobalReferenceEPKPKmPPm(i64** %1088, i64** %1128) #8
  br label %1132

1132:                                             ; preds = %1131, %1122
  call void @_ZN5blink25UnifiedHeapMarkingVisitor12WriteBarrierERKNS_23TraceWrapperV8ReferenceIN2v85ValueEEE(%"class.blink::TraceWrapperV8Reference"* dereferenceable(8) %1127) #8
  %1133 = load %"class.blink::DOMWrapperWorld"*, %"class.blink::DOMWrapperWorld"** %1089, align 8
  %1134 = getelementptr inbounds %"class.blink::ScriptValue", %"class.blink::ScriptValue"* %10, i64 0, i32 1, i32 1, i32 0
  store %"class.blink::DOMWrapperWorld"* %1133, %"class.blink::DOMWrapperWorld"** %1134, align 8
  %1135 = icmp eq %"class.blink::DOMWrapperWorld"* %1133, null
  br i1 %1135, label %1138, label %1136

1136:                                             ; preds = %1132
  %1137 = getelementptr inbounds %"class.blink::DOMWrapperWorld", %"class.blink::DOMWrapperWorld"* %1133, i64 0, i32 0, i32 0, i32 0
  call void @_ZNK4base6subtle14RefCountedBase10AddRefImplEv(%"class.base::subtle::RefCountedBase"* %1137) #8
  br label %1138

1138:                                             ; preds = %1132, %1136
  call void @_ZN5blink22AuctionAdInterestGroup21setUserBiddingSignalsENS_11ScriptValueE(%"class.blink::AuctionAdInterestGroup"* %2, %"class.blink::ScriptValue"* nonnull %10) #8
  %1139 = load %"class.blink::DOMWrapperWorld"*, %"class.blink::DOMWrapperWorld"** %1134, align 8
  %1140 = icmp eq %"class.blink::DOMWrapperWorld"* %1139, null
  br i1 %1140, label %1148, label %1141

1141:                                             ; preds = %1138
  %1142 = getelementptr inbounds %"class.blink::DOMWrapperWorld", %"class.blink::DOMWrapperWorld"* %1139, i64 0, i32 0, i32 0, i32 0
  call void @_ZNK4base6subtle14RefCountedBase11ReleaseImplEv(%"class.base::subtle::RefCountedBase"* %1142) #8
  %1143 = getelementptr inbounds %"class.blink::DOMWrapperWorld", %"class.blink::DOMWrapperWorld"* %1139, i64 0, i32 0, i32 0, i32 0, i32 0
  %1144 = load i32, i32* %1143, align 4
  %1145 = icmp eq i32 %1144, 0
  br i1 %1145, label %1146, label %1148

1146:                                             ; preds = %1141
  call void @_ZN5blink15DOMWrapperWorldD1Ev(%"class.blink::DOMWrapperWorld"* nonnull %1139) #8
  %1147 = bitcast %"class.blink::DOMWrapperWorld"* %1139 to i8*
  call void @free(i8* %1147) #8
  br label %1148

1148:                                             ; preds = %1138, %1141, %1146
  %1149 = load %"class.blink::DOMWrapperWorld"*, %"class.blink::DOMWrapperWorld"** %1089, align 8
  %1150 = icmp eq %"class.blink::DOMWrapperWorld"* %1149, null
  br i1 %1150, label %1158, label %1151

1151:                                             ; preds = %1148
  %1152 = getelementptr inbounds %"class.blink::DOMWrapperWorld", %"class.blink::DOMWrapperWorld"* %1149, i64 0, i32 0, i32 0, i32 0
  call void @_ZNK4base6subtle14RefCountedBase11ReleaseImplEv(%"class.base::subtle::RefCountedBase"* %1152) #8
  %1153 = getelementptr inbounds %"class.blink::DOMWrapperWorld", %"class.blink::DOMWrapperWorld"* %1149, i64 0, i32 0, i32 0, i32 0, i32 0
  %1154 = load i32, i32* %1153, align 4
  %1155 = icmp eq i32 %1154, 0
  br i1 %1155, label %1156, label %1158

1156:                                             ; preds = %1151
  call void @_ZN5blink15DOMWrapperWorldD1Ev(%"class.blink::DOMWrapperWorld"* nonnull %1149) #8
  %1157 = bitcast %"class.blink::DOMWrapperWorld"* %1149 to i8*
  call void @free(i8* %1157) #8
  br label %1158

1158:                                             ; preds = %1148, %1151, %1156
  call void @llvm.lifetime.end.p0i8(i64 24, i8* nonnull %1087) #8
  br label %1170

1159:                                             ; preds = %1119
  %1160 = load %"class.blink::DOMWrapperWorld"*, %"class.blink::DOMWrapperWorld"** %1089, align 8
  %1161 = icmp eq %"class.blink::DOMWrapperWorld"* %1160, null
  br i1 %1161, label %1169, label %1162

1162:                                             ; preds = %1159
  %1163 = getelementptr inbounds %"class.blink::DOMWrapperWorld", %"class.blink::DOMWrapperWorld"* %1160, i64 0, i32 0, i32 0, i32 0
  call void @_ZNK4base6subtle14RefCountedBase11ReleaseImplEv(%"class.base::subtle::RefCountedBase"* %1163) #8
  %1164 = getelementptr inbounds %"class.blink::DOMWrapperWorld", %"class.blink::DOMWrapperWorld"* %1160, i64 0, i32 0, i32 0, i32 0, i32 0
  %1165 = load i32, i32* %1164, align 4
  %1166 = icmp eq i32 %1165, 0
  br i1 %1166, label %1167, label %1169

1167:                                             ; preds = %1162
  call void @_ZN5blink15DOMWrapperWorldD1Ev(%"class.blink::DOMWrapperWorld"* nonnull %1160) #8
  %1168 = bitcast %"class.blink::DOMWrapperWorld"* %1160 to i8*
  call void @free(i8* %1168) #8
  br label %1169

1169:                                             ; preds = %1159, %1162, %1167
  call void @llvm.lifetime.end.p0i8(i64 24, i8* nonnull %1087) #8
  br label %1170

1170:                                             ; preds = %1051, %1048, %1038, %773, %770, %760, %603, %600, %590, %426, %423, %413, %256, %253, %243, %93, %433, %461, %774, %882, %1058, %1169, %1158, %1080, %889, %632, %604, %263, %86, %51
  call void @_ZN2v88TryCatchD1Ev(%"class.v8::TryCatch"* nonnull %6) #8
  call void @llvm.lifetime.end.p0i8(i64 48, i8* nonnull %45) #8
  br label %1171

1171:                                             ; preds = %1170, %33, %36
  ret void
}

; Function Attrs: argmemonly nounwind
declare void @llvm.memcpy.p0i8.p0i8.i64(i8* nocapture writeonly, i8* nocapture readonly, i64, i1 immarg) #1

declare void @_ZN5blink14ExceptionState14ThrowTypeErrorEPKc(%"class.blink::ExceptionState"*, i8*) local_unnamed_addr #2

declare zeroext i1 @_ZNK2v85Value8IsObjectEv(%"class.v8::Value"*) local_unnamed_addr #2

; Function Attrs: argmemonly nounwind
declare void @llvm.lifetime.start.p0i8(i64 immarg, i8* nocapture) #1

; Function Attrs: argmemonly nounwind
declare void @llvm.lifetime.end.p0i8(i64 immarg, i8* nocapture) #1

; Function Attrs: argmemonly nounwind
declare void @llvm.memset.p0i8.i64(i8* nocapture writeonly, i8, i64, i1 immarg) #1

declare void @_ZN2v88TryCatchC1EPNS_7IsolateE(%"class.v8::TryCatch"*, %"class.v8::Isolate"*) unnamed_addr #2

declare %"class.v8::Context"* @_ZN2v87Isolate17GetCurrentContextEv(%"class.v8::Isolate"*) local_unnamed_addr #2

declare %"class.v8::Value"* @_ZN2v86Object3GetENS_5LocalINS_7ContextEEENS1_INS_5ValueEEE(%"class.v8::Object"*, %"class.v8::Context"*, %"class.v8::Value"*) local_unnamed_addr #2

declare %"class.v8::Value"* @_ZNK2v88TryCatch9ExceptionEv(%"class.v8::TryCatch"*) local_unnamed_addr #2

; Function Attrs: nounwind ssp uwtable
define linkonce_odr hidden void @_ZN5blink17NativeValueTraitsINS_11IDLSequenceINS_9AuctionAdEEEvE11NativeValueEPN2v87IsolateENS5_5LocalINS5_5ValueEEERNS_14ExceptionStateE(%"class.blink::HeapVector"* noalias sret, %"class.v8::Isolate"*, %"class.v8::Value"*, %"class.blink::ExceptionState"* dereferenceable(72)) local_unnamed_addr #0 comdat align 2 {
  %5 = alloca %"class.blink::ScriptIterator", align 8
  %6 = tail call zeroext i1 @_ZNK2v85Value7IsArrayEv(%"class.v8::Value"* %2) #8
  br i1 %6, label %7, label %9

7:                                                ; preds = %4
  %8 = bitcast %"class.v8::Value"* %2 to %"class.v8::Array"*
  tail call void @_ZN5blink8bindings28CreateIDLSequenceFromV8ArrayINS_9AuctionAdEEENS_17NativeValueTraitsINS_11IDLSequenceIT_EEvE8ImplTypeEPN2v87IsolateENS9_5LocalINS9_5ArrayEEERNS_14ExceptionStateE(%"class.blink::HeapVector"* sret %0, %"class.v8::Isolate"* %1, %"class.v8::Array"* %8, %"class.blink::ExceptionState"* dereferenceable(72) %3)
  br label %29

9:                                                ; preds = %4
  %10 = tail call zeroext i1 @_ZNK2v85Value8IsObjectEv(%"class.v8::Value"* %2) #8
  br i1 %10, label %13, label %11

11:                                               ; preds = %9
  tail call void @_ZN5blink14ExceptionState14ThrowTypeErrorEPKc(%"class.blink::ExceptionState"* %3, i8* getelementptr inbounds ([54 x i8], [54 x i8]* @.str.19, i64 0, i64 0)) #8
  %12 = bitcast %"class.blink::HeapVector"* %0 to i8*
  call void @llvm.memset.p0i8.i64(i8* align 8 %12, i8 0, i64 16, i1 false)
  br label %29

13:                                               ; preds = %9
  %14 = bitcast %"class.blink::ScriptIterator"* %5 to i8*
  call void @llvm.lifetime.start.p0i8(i64 56, i8* nonnull %14) #8
  call void @llvm.memset.p0i8.i64(i8* nonnull align 8 %14, i8 -86, i64 56, i1 false)
  %15 = bitcast %"class.v8::Value"* %2 to %"class.v8::Object"*
  call void @_ZN5blink14ScriptIterator12FromIterableEPN2v87IsolateENS1_5LocalINS1_6ObjectEEERNS_14ExceptionStateE(%"class.blink::ScriptIterator"* nonnull sret %5, %"class.v8::Isolate"* %1, %"class.v8::Object"* %15, %"class.blink::ExceptionState"* dereferenceable(72) %3) #8
  %16 = getelementptr inbounds %"class.blink::ExceptionState", %"class.blink::ExceptionState"* %3, i64 0, i32 4
  %17 = load i32, i32* %16, align 8
  %18 = icmp eq i32 %17, 0
  br i1 %18, label %21, label %19

19:                                               ; preds = %13
  %20 = bitcast %"class.blink::HeapVector"* %0 to i8*
  call void @llvm.memset.p0i8.i64(i8* align 8 %20, i8 0, i64 16, i1 false)
  br label %28

21:                                               ; preds = %13
  %22 = getelementptr inbounds %"class.blink::ScriptIterator", %"class.blink::ScriptIterator"* %5, i64 0, i32 1, i32 0
  %23 = load %"class.v8::Object"*, %"class.v8::Object"** %22, align 8
  %24 = icmp eq %"class.v8::Object"* %23, null
  br i1 %24, label %25, label %27

25:                                               ; preds = %21
  call void @_ZN5blink14ExceptionState14ThrowTypeErrorEPKc(%"class.blink::ExceptionState"* %3, i8* getelementptr inbounds ([53 x i8], [53 x i8]* @.str.20, i64 0, i64 0)) #8
  %26 = bitcast %"class.blink::HeapVector"* %0 to i8*
  call void @llvm.memset.p0i8.i64(i8* align 8 %26, i8 0, i64 16, i1 false)
  br label %28

27:                                               ; preds = %21
  call void @_ZN5blink8bindings29CreateIDLSequenceFromIteratorINS_9AuctionAdEEENS_17NativeValueTraitsINS_11IDLSequenceIT_EEvE8ImplTypeEPN2v87IsolateENS_14ScriptIteratorERNS_14ExceptionStateE(%"class.blink::HeapVector"* sret %0, %"class.v8::Isolate"* %1, %"class.blink::ScriptIterator"* nonnull byval(%"class.blink::ScriptIterator") align 8 %5, %"class.blink::ExceptionState"* dereferenceable(72) %3)
  br label %28

28:                                               ; preds = %27, %25, %19
  call void @llvm.lifetime.end.p0i8(i64 56, i8* nonnull %14) #8
  br label %29

29:                                               ; preds = %28, %11, %7
  ret void
}

declare void @_ZN5blink22AuctionAdInterestGroup6setAdsERKNS_10HeapVectorINS_6MemberINS_9AuctionAdEEELj0EEE(%"class.blink::AuctionAdInterestGroup"*, %"class.blink::HeapVector"* dereferenceable(16)) local_unnamed_addr #2

; Function Attrs: nounwind ssp uwtable
define linkonce_odr hidden %"class.WTF::StringImpl"* @_ZN5blink17NativeValueTraitsINS_16IDLUSVStringBaseILNS_20V8StringResourceModeE0EEEvE11NativeValueEPN2v87IsolateENS5_5LocalINS5_5ValueEEERNS_14ExceptionStateE(%"class.v8::Isolate"*, %"class.v8::Value"*, %"class.blink::ExceptionState"* dereferenceable(72)) local_unnamed_addr #0 comdat align 2 {
  %4 = alloca %"class.v8::TryCatch", align 8
  %5 = alloca %"class.blink::V8StringResource", align 8
  %6 = bitcast %"class.blink::V8StringResource"* %5 to i8*
  call void @llvm.lifetime.start.p0i8(i64 160, i8* nonnull %6) #8
  call void @llvm.memset.p0i8.i64(i8* nonnull align 8 %6, i8 -86, i64 152, i1 false)
  %7 = getelementptr inbounds %"class.blink::V8StringResource", %"class.blink::V8StringResource"* %5, i64 0, i32 0, i32 0
  store %"class.v8::Value"* %1, %"class.v8::Value"** %7, align 8
  %8 = getelementptr inbounds %"class.blink::V8StringResource", %"class.blink::V8StringResource"* %5, i64 0, i32 1
  store i32 0, i32* %8, align 8
  %9 = getelementptr inbounds %"class.blink::V8StringResource", %"class.blink::V8StringResource"* %5, i64 0, i32 2, i32 0, i32 0
  store %"class.WTF::StringImpl"* null, %"class.WTF::StringImpl"** %9, align 8
  %10 = getelementptr inbounds %"class.blink::V8StringResource", %"class.blink::V8StringResource"* %5, i64 0, i32 3, i32 1
  %11 = bitcast %"class.std::__1::unique_ptr.203"* %10 to i64*
  store i64 0, i64* %11, align 8
  %12 = call zeroext i1 @_ZN5blink16V8StringResourceILNS_20V8StringResourceModeE0EE11PrepareFastEv(%"class.blink::V8StringResource"* nonnull %5) #8
  br i1 %12, label %28, label %13

13:                                               ; preds = %3
  %14 = bitcast %"class.v8::TryCatch"* %4 to i8*
  call void @llvm.lifetime.start.p0i8(i64 48, i8* nonnull %14) #8
  call void @llvm.memset.p0i8.i64(i8* nonnull align 8 %14, i8 -86, i64 48, i1 false) #8
  call void @_ZN2v88TryCatchC1EPNS_7IsolateE(%"class.v8::TryCatch"* nonnull %4, %"class.v8::Isolate"* %0) #8
  %15 = load %"class.v8::Value"*, %"class.v8::Value"** %7, align 8
  %16 = call %"class.v8::Context"* @_ZN2v87Isolate17GetCurrentContextEv(%"class.v8::Isolate"* %0) #8
  %17 = call %"class.v8::String"* @_ZNK2v85Value8ToStringENS_5LocalINS_7ContextEEE(%"class.v8::Value"* %15, %"class.v8::Context"* %16) #8
  %18 = ptrtoint %"class.v8::String"* %17 to i64
  %19 = bitcast %"class.blink::V8StringResource"* %5 to i64*
  store i64 %18, i64* %19, align 8
  %20 = icmp eq %"class.v8::String"* %17, null
  br i1 %20, label %22, label %21

21:                                               ; preds = %13
  call void @_ZN2v88TryCatchD1Ev(%"class.v8::TryCatch"* nonnull %4) #8
  call void @llvm.lifetime.end.p0i8(i64 48, i8* nonnull %14) #8
  br label %28

22:                                               ; preds = %13
  %23 = call %"class.v8::Value"* @_ZNK2v88TryCatch9ExceptionEv(%"class.v8::TryCatch"* nonnull %4) #8
  %24 = bitcast %"class.blink::ExceptionState"* %2 to void (%"class.blink::ExceptionState"*, %"class.v8::Value"*)***
  %25 = load void (%"class.blink::ExceptionState"*, %"class.v8::Value"*)**, void (%"class.blink::ExceptionState"*, %"class.v8::Value"*)*** %24, align 8
  %26 = getelementptr inbounds void (%"class.blink::ExceptionState"*, %"class.v8::Value"*)*, void (%"class.blink::ExceptionState"*, %"class.v8::Value"*)** %25, i64 5
  %27 = load void (%"class.blink::ExceptionState"*, %"class.v8::Value"*)*, void (%"class.blink::ExceptionState"*, %"class.v8::Value"*)** %26, align 8
  call void %27(%"class.blink::ExceptionState"* %2, %"class.v8::Value"* %23) #8
  call void @_ZN2v88TryCatchD1Ev(%"class.v8::TryCatch"* nonnull %4) #8
  call void @llvm.lifetime.end.p0i8(i64 48, i8* nonnull %14) #8
  br label %58

28:                                               ; preds = %3, %21
  %29 = load %"class.v8::Value"*, %"class.v8::Value"** %7, align 8
  %30 = icmp eq %"class.v8::Value"* %29, null
  br i1 %30, label %35, label %31, !prof !2

31:                                               ; preds = %28
  %32 = bitcast %"class.v8::Value"* %29 to %"class.v8::String"*
  %33 = load i32, i32* %8, align 8
  %34 = call %"class.WTF::StringImpl"* @_ZN5blink13ToBlinkStringIN3WTF6StringEEET_N2v85LocalINS4_6StringEEENS_12ExternalModeE(%"class.v8::String"* nonnull %32, i32 %33) #8
  br label %55

35:                                               ; preds = %28
  %36 = load %"class.WTF::StringImpl"*, %"class.WTF::StringImpl"** %9, align 8
  %37 = icmp eq %"class.WTF::StringImpl"* %36, null
  br i1 %37, label %55, label %38

38:                                               ; preds = %35
  %39 = getelementptr inbounds %"class.WTF::StringImpl", %"class.WTF::StringImpl"* %36, i64 0, i32 2, i32 0, i32 0, i32 0, i32 0, i32 0
  %40 = load atomic i32, i32* %39 monotonic, align 4
  %41 = and i32 %40, 2
  %42 = icmp eq i32 %41, 0
  br i1 %42, label %43, label %55

43:                                               ; preds = %38
  %44 = getelementptr inbounds %"class.WTF::StringImpl", %"class.WTF::StringImpl"* %36, i64 0, i32 0
  %45 = load i32, i32* %44, align 4
  %46 = zext i32 %45 to i33
  %47 = call { i33, i1 } @llvm.sadd.with.overflow.i33(i33 %46, i33 1) #8
  %48 = extractvalue { i33, i1 } %47, 1
  %49 = extractvalue { i33, i1 } %47, 0
  %50 = icmp slt i33 %49, 0
  %51 = or i1 %48, %50
  br i1 %51, label %52, label %53, !prof !2

52:                                               ; preds = %43
  call void @llvm.trap() #8
  unreachable

53:                                               ; preds = %43
  %54 = trunc i33 %49 to i32
  store i32 %54, i32* %44, align 4
  br label %55

55:                                               ; preds = %31, %35, %38, %53
  %56 = phi %"class.WTF::StringImpl"* [ %34, %31 ], [ null, %35 ], [ %36, %38 ], [ %36, %53 ]
  %57 = call %"class.WTF::StringImpl"* @_ZN5blink26ReplaceUnmatchedSurrogatesEN3WTF6StringE(%"class.WTF::StringImpl"* %56) #8
  br label %58

58:                                               ; preds = %55, %22
  %59 = phi %"class.WTF::StringImpl"* [ %57, %55 ], [ null, %22 ]
  %60 = getelementptr inbounds %"class.blink::V8StringResource", %"class.blink::V8StringResource"* %5, i64 0, i32 3, i32 1, i32 0, i32 0, i32 0
  %61 = load i8*, i8** %60, align 8
  store i8* null, i8** %60, align 8
  %62 = icmp eq i8* %61, null
  br i1 %62, label %64, label %63

63:                                               ; preds = %58
  call void @_ZN3WTF10Partitions10BufferFreeEPv(i8* nonnull %61) #8
  br label %64

64:                                               ; preds = %63, %58
  %65 = load %"class.WTF::StringImpl"*, %"class.WTF::StringImpl"** %9, align 8
  %66 = icmp eq %"class.WTF::StringImpl"* %65, null
  br i1 %66, label %80, label %67

67:                                               ; preds = %64
  %68 = getelementptr inbounds %"class.WTF::StringImpl", %"class.WTF::StringImpl"* %65, i64 0, i32 2, i32 0, i32 0, i32 0, i32 0, i32 0
  %69 = load atomic i32, i32* %68 monotonic, align 4
  %70 = and i32 %69, 2
  %71 = icmp eq i32 %70, 0
  %72 = getelementptr inbounds %"class.WTF::StringImpl", %"class.WTF::StringImpl"* %65, i64 0, i32 0
  %73 = load i32, i32* %72, align 4
  br i1 %71, label %74, label %76

74:                                               ; preds = %67
  %75 = add i32 %73, -1
  store i32 %75, i32* %72, align 4
  br label %76

76:                                               ; preds = %74, %67
  %77 = phi i32 [ %75, %74 ], [ %73, %67 ]
  %78 = icmp eq i32 %77, 0
  br i1 %78, label %79, label %80

79:                                               ; preds = %76
  call void @_ZNK3WTF10StringImpl18DestroyIfNotStaticEv(%"class.WTF::StringImpl"* nonnull %65) #8
  br label %80

80:                                               ; preds = %64, %76, %79
  call void @llvm.lifetime.end.p0i8(i64 160, i8* nonnull %6) #8
  ret %"class.WTF::StringImpl"* %59
}

; Function Attrs: nounwind ssp uwtable
define linkonce_odr hidden void @_ZN5blink17NativeValueTraitsINS_11IDLSequenceINS_16IDLUSVStringBaseILNS_20V8StringResourceModeE0EEEEEvE11NativeValueEPN2v87IsolateENS7_5LocalINS7_5ValueEEERNS_14ExceptionStateE(%"class.WTF::Vector.190"* noalias sret, %"class.v8::Isolate"*, %"class.v8::Value"*, %"class.blink::ExceptionState"* dereferenceable(72)) local_unnamed_addr #0 comdat align 2 {
  %5 = alloca %"class.blink::ScriptIterator", align 8
  %6 = tail call zeroext i1 @_ZNK2v85Value7IsArrayEv(%"class.v8::Value"* %2) #8
  br i1 %6, label %7, label %9

7:                                                ; preds = %4
  %8 = bitcast %"class.v8::Value"* %2 to %"class.v8::Array"*
  tail call void @_ZN5blink8bindings28CreateIDLSequenceFromV8ArrayINS_16IDLUSVStringBaseILNS_20V8StringResourceModeE0EEEEENS_17NativeValueTraitsINS_11IDLSequenceIT_EEvE8ImplTypeEPN2v87IsolateENSB_5LocalINSB_5ArrayEEERNS_14ExceptionStateE(%"class.WTF::Vector.190"* sret %0, %"class.v8::Isolate"* %1, %"class.v8::Array"* %8, %"class.blink::ExceptionState"* dereferenceable(72) %3)
  br label %29

9:                                                ; preds = %4
  %10 = tail call zeroext i1 @_ZNK2v85Value8IsObjectEv(%"class.v8::Value"* %2) #8
  br i1 %10, label %13, label %11

11:                                               ; preds = %9
  tail call void @_ZN5blink14ExceptionState14ThrowTypeErrorEPKc(%"class.blink::ExceptionState"* %3, i8* getelementptr inbounds ([54 x i8], [54 x i8]* @.str.19, i64 0, i64 0)) #8
  %12 = bitcast %"class.WTF::Vector.190"* %0 to i8*
  tail call void @llvm.memset.p0i8.i64(i8* align 8 %12, i8 0, i64 16, i1 false) #8
  br label %29

13:                                               ; preds = %9
  %14 = bitcast %"class.blink::ScriptIterator"* %5 to i8*
  call void @llvm.lifetime.start.p0i8(i64 56, i8* nonnull %14) #8
  call void @llvm.memset.p0i8.i64(i8* nonnull align 8 %14, i8 -86, i64 56, i1 false)
  %15 = bitcast %"class.v8::Value"* %2 to %"class.v8::Object"*
  call void @_ZN5blink14ScriptIterator12FromIterableEPN2v87IsolateENS1_5LocalINS1_6ObjectEEERNS_14ExceptionStateE(%"class.blink::ScriptIterator"* nonnull sret %5, %"class.v8::Isolate"* %1, %"class.v8::Object"* %15, %"class.blink::ExceptionState"* dereferenceable(72) %3) #8
  %16 = getelementptr inbounds %"class.blink::ExceptionState", %"class.blink::ExceptionState"* %3, i64 0, i32 4
  %17 = load i32, i32* %16, align 8
  %18 = icmp eq i32 %17, 0
  br i1 %18, label %21, label %19

19:                                               ; preds = %13
  %20 = bitcast %"class.WTF::Vector.190"* %0 to i8*
  call void @llvm.memset.p0i8.i64(i8* align 8 %20, i8 0, i64 16, i1 false) #8
  br label %28

21:                                               ; preds = %13
  %22 = getelementptr inbounds %"class.blink::ScriptIterator", %"class.blink::ScriptIterator"* %5, i64 0, i32 1, i32 0
  %23 = load %"class.v8::Object"*, %"class.v8::Object"** %22, align 8
  %24 = icmp eq %"class.v8::Object"* %23, null
  br i1 %24, label %25, label %27

25:                                               ; preds = %21
  call void @_ZN5blink14ExceptionState14ThrowTypeErrorEPKc(%"class.blink::ExceptionState"* %3, i8* getelementptr inbounds ([53 x i8], [53 x i8]* @.str.20, i64 0, i64 0)) #8
  %26 = bitcast %"class.WTF::Vector.190"* %0 to i8*
  call void @llvm.memset.p0i8.i64(i8* align 8 %26, i8 0, i64 16, i1 false) #8
  br label %28

27:                                               ; preds = %21
  call void @_ZN5blink8bindings29CreateIDLSequenceFromIteratorINS_16IDLUSVStringBaseILNS_20V8StringResourceModeE0EEEEENS_17NativeValueTraitsINS_11IDLSequenceIT_EEvE8ImplTypeEPN2v87IsolateENS_14ScriptIteratorERNS_14ExceptionStateE(%"class.WTF::Vector.190"* sret %0, %"class.v8::Isolate"* %1, %"class.blink::ScriptIterator"* nonnull byval(%"class.blink::ScriptIterator") align 8 %5, %"class.blink::ExceptionState"* dereferenceable(72) %3)
  br label %28

28:                                               ; preds = %27, %25, %19
  call void @llvm.lifetime.end.p0i8(i64 56, i8* nonnull %14) #8
  br label %29

29:                                               ; preds = %28, %11, %7
  ret void
}

declare void @_ZN5blink22AuctionAdInterestGroup28setTrustedBiddingSignalsKeysERKN3WTF6VectorINS1_6StringELj0ENS1_18PartitionAllocatorEEE(%"class.blink::AuctionAdInterestGroup"*, %"class.WTF::Vector.190"* dereferenceable(16)) local_unnamed_addr #2

declare void @_ZN5blink22AuctionAdInterestGroup21setUserBiddingSignalsENS_11ScriptValueE(%"class.blink::AuctionAdInterestGroup"*, %"class.blink::ScriptValue"*) local_unnamed_addr #2

; Function Attrs: nounwind
declare void @_ZN2v88TryCatchD1Ev(%"class.v8::TryCatch"*) unnamed_addr #3

; Function Attrs: nounwind ssp uwtable
define hidden %"class.v8::Value"* @_ZNK5blink22AuctionAdInterestGroup8ToV8ImplEN2v85LocalINS1_6ObjectEEEPNS1_7IsolateE(%"class.blink::AuctionAdInterestGroup"*, %"class.v8::Object"*, %"class.v8::Isolate"*) unnamed_addr #0 align 2 {
  %4 = tail call %"class.v8::Object"* @_ZN2v86Object3NewEPNS_7IsolateE(%"class.v8::Isolate"* %2) #8
  %5 = tail call zeroext i1 @_ZN5blink26toV8AuctionAdInterestGroupEPKNS_22AuctionAdInterestGroupEN2v85LocalINS3_6ObjectEEES6_PNS3_7IsolateE(%"class.blink::AuctionAdInterestGroup"* %0, %"class.v8::Object"* %4, %"class.v8::Object"* %1, %"class.v8::Isolate"* %2)
  %6 = bitcast %"class.v8::Object"* %4 to %"class.v8::Value"*
  %7 = ptrtoint %"class.v8::Isolate"* %2 to i64
  %8 = add i64 %7, 160
  %9 = inttoptr i64 %8 to %"class.v8::Value"*
  %10 = select i1 %5, %"class.v8::Value"* %6, %"class.v8::Value"* %9
  ret %"class.v8::Value"* %10
}

declare %"class.v8::Object"* @_ZN2v86Object3NewEPNS_7IsolateE(%"class.v8::Isolate"*) local_unnamed_addr #2

; Function Attrs: nounwind ssp uwtable
define hidden zeroext i1 @_ZN5blink26toV8AuctionAdInterestGroupEPKNS_22AuctionAdInterestGroupEN2v85LocalINS3_6ObjectEEES6_PNS3_7IsolateE(%"class.blink::AuctionAdInterestGroup"*, %"class.v8::Object"*, %"class.v8::Object"*, %"class.v8::Isolate"*) local_unnamed_addr #0 {
  %5 = alloca %"class.WTF::StringView", align 8
  %6 = alloca %"class.WTF::StringView", align 8
  %7 = alloca %"class.WTF::StringView", align 8
  %8 = alloca %"class.WTF::StringView", align 8
  %9 = alloca %"class.WTF::StringView", align 8
  %10 = alloca %"class.blink::ScriptValue", align 8
  %11 = ptrtoint %"class.v8::Isolate"* %3 to i64
  %12 = add i64 %11, 8
  %13 = inttoptr i64 %12 to %"class.blink::V8PerIsolateData"**
  %14 = load %"class.blink::V8PerIsolateData"*, %"class.blink::V8PerIsolateData"** %13, align 8
  %15 = tail call { i64, %"class.v8::Eternal"* } @_ZN5blink16V8PerIsolateData28FindOrCreateEternalNameCacheEPKvRKN4base4spanIKPKcLm18446744073709551615EEE(%"class.blink::V8PerIsolateData"* %14, i8* bitcast ([8 x i8*]* @_ZZN5blinkL35eternalV8AuctionAdInterestGroupKeysEPN2v87IsolateEE5kKeys to i8*), %"class.base::span.328"* dereferenceable(16) bitcast ({ i64, i8** }* @.ref.tmp to %"class.base::span.328"*)) #8
  %16 = extractvalue { i64, %"class.v8::Eternal"* } %15, 1
  %17 = tail call %"class.v8::Context"* @_ZN2v87Isolate17GetCurrentContextEv(%"class.v8::Isolate"* %3) #8
  %18 = getelementptr inbounds %"class.blink::AuctionAdInterestGroup", %"class.blink::AuctionAdInterestGroup"* %0, i64 0, i32 1
  %19 = load i8, i8* %18, align 8, !range !7
  %20 = icmp eq i8 %19, 0
  br i1 %20, label %32, label %21

21:                                               ; preds = %4
  %22 = getelementptr inbounds %"class.blink::AuctionAdInterestGroup", %"class.blink::AuctionAdInterestGroup"* %0, i64 0, i32 3
  %23 = tail call %"class.v8::Array"* @_ZN5blink20ToV8SequenceInternalINS_10HeapVectorINS_6MemberINS_9AuctionAdEEELj0EEEEEN2v85LocalINS6_5ArrayEEERKT_NS7_INS6_6ObjectEEEPNS6_7IsolateE(%"class.blink::HeapVector"* dereferenceable(16) %22, %"class.v8::Object"* %2, %"class.v8::Isolate"* %3) #8
  %24 = bitcast %"class.v8::Array"* %23 to %"class.v8::Value"*
  %25 = getelementptr inbounds %"class.v8::Eternal", %"class.v8::Eternal"* %16, i64 0, i32 0
  %26 = load %"class.v8::Name"*, %"class.v8::Name"** %25, align 8
  %27 = tail call i16 @_ZN2v86Object18CreateDataPropertyENS_5LocalINS_7ContextEEENS1_INS_4NameEEENS1_INS_5ValueEEE(%"class.v8::Object"* %1, %"class.v8::Context"* %17, %"class.v8::Name"* %26, %"class.v8::Value"* %24) #8
  %28 = trunc i16 %27 to i8
  %29 = icmp ne i8 %28, 0
  %30 = icmp ugt i16 %27, 255
  %31 = and i1 %30, %29
  br i1 %31, label %32, label %201

32:                                               ; preds = %4, %21
  %33 = getelementptr inbounds %"class.blink::AuctionAdInterestGroup", %"class.blink::AuctionAdInterestGroup"* %0, i64 0, i32 4, i32 0, i32 0
  %34 = load %"class.WTF::StringImpl"*, %"class.WTF::StringImpl"** %33, align 8
  %35 = icmp eq %"class.WTF::StringImpl"* %34, null
  br i1 %35, label %54, label %36

36:                                               ; preds = %32
  %37 = bitcast %"class.WTF::StringView"* %5 to i8*
  call void @llvm.lifetime.start.p0i8(i64 24, i8* nonnull %37) #8
  %38 = getelementptr inbounds %"class.WTF::StringView", %"class.WTF::StringView"* %5, i64 0, i32 0
  store %"class.WTF::StringImpl"* %34, %"class.WTF::StringImpl"** %38, align 8
  %39 = getelementptr inbounds %"class.WTF::StringImpl", %"class.WTF::StringImpl"* %34, i64 0, i32 1
  %40 = load i32, i32* %39, align 4
  %41 = getelementptr inbounds %"class.WTF::StringImpl", %"class.WTF::StringImpl"* %34, i64 1
  %42 = getelementptr inbounds %"class.WTF::StringView", %"class.WTF::StringView"* %5, i64 0, i32 1
  %43 = bitcast i8** %42 to %"class.WTF::StringImpl"**
  store %"class.WTF::StringImpl"* %41, %"class.WTF::StringImpl"** %43, align 8
  %44 = getelementptr inbounds %"class.WTF::StringView", %"class.WTF::StringView"* %5, i64 0, i32 2
  store i32 %40, i32* %44, align 8
  %45 = call %"class.v8::String"* @_ZN5blink8V8StringEPN2v87IsolateERKN3WTF10StringViewE(%"class.v8::Isolate"* %3, %"class.WTF::StringView"* nonnull dereferenceable(24) %5)
  call void @llvm.lifetime.end.p0i8(i64 24, i8* nonnull %37) #8
  %46 = bitcast %"class.v8::String"* %45 to %"class.v8::Value"*
  %47 = getelementptr inbounds %"class.v8::Eternal", %"class.v8::Eternal"* %16, i64 1, i32 0
  %48 = load %"class.v8::Name"*, %"class.v8::Name"** %47, align 8
  %49 = call i16 @_ZN2v86Object18CreateDataPropertyENS_5LocalINS_7ContextEEENS1_INS_4NameEEENS1_INS_5ValueEEE(%"class.v8::Object"* %1, %"class.v8::Context"* %17, %"class.v8::Name"* %48, %"class.v8::Value"* %46) #8
  %50 = trunc i16 %49 to i8
  %51 = icmp ne i8 %50, 0
  %52 = icmp ugt i16 %49, 255
  %53 = and i1 %52, %51
  br i1 %53, label %54, label %201

54:                                               ; preds = %32, %36
  %55 = getelementptr inbounds %"class.blink::AuctionAdInterestGroup", %"class.blink::AuctionAdInterestGroup"* %0, i64 0, i32 5, i32 0, i32 0
  %56 = load %"class.WTF::StringImpl"*, %"class.WTF::StringImpl"** %55, align 8
  %57 = icmp eq %"class.WTF::StringImpl"* %56, null
  br i1 %57, label %76, label %58

58:                                               ; preds = %54
  %59 = bitcast %"class.WTF::StringView"* %6 to i8*
  call void @llvm.lifetime.start.p0i8(i64 24, i8* nonnull %59) #8
  %60 = getelementptr inbounds %"class.WTF::StringView", %"class.WTF::StringView"* %6, i64 0, i32 0
  store %"class.WTF::StringImpl"* %56, %"class.WTF::StringImpl"** %60, align 8
  %61 = getelementptr inbounds %"class.WTF::StringImpl", %"class.WTF::StringImpl"* %56, i64 0, i32 1
  %62 = load i32, i32* %61, align 4
  %63 = getelementptr inbounds %"class.WTF::StringImpl", %"class.WTF::StringImpl"* %56, i64 1
  %64 = getelementptr inbounds %"class.WTF::StringView", %"class.WTF::StringView"* %6, i64 0, i32 1
  %65 = bitcast i8** %64 to %"class.WTF::StringImpl"**
  store %"class.WTF::StringImpl"* %63, %"class.WTF::StringImpl"** %65, align 8
  %66 = getelementptr inbounds %"class.WTF::StringView", %"class.WTF::StringView"* %6, i64 0, i32 2
  store i32 %62, i32* %66, align 8
  %67 = call %"class.v8::String"* @_ZN5blink8V8StringEPN2v87IsolateERKN3WTF10StringViewE(%"class.v8::Isolate"* %3, %"class.WTF::StringView"* nonnull dereferenceable(24) %6)
  call void @llvm.lifetime.end.p0i8(i64 24, i8* nonnull %59) #8
  %68 = bitcast %"class.v8::String"* %67 to %"class.v8::Value"*
  %69 = getelementptr inbounds %"class.v8::Eternal", %"class.v8::Eternal"* %16, i64 2, i32 0
  %70 = load %"class.v8::Name"*, %"class.v8::Name"** %69, align 8
  %71 = call i16 @_ZN2v86Object18CreateDataPropertyENS_5LocalINS_7ContextEEENS1_INS_4NameEEENS1_INS_5ValueEEE(%"class.v8::Object"* %1, %"class.v8::Context"* %17, %"class.v8::Name"* %70, %"class.v8::Value"* %68) #8
  %72 = trunc i16 %71 to i8
  %73 = icmp ne i8 %72, 0
  %74 = icmp ugt i16 %71, 255
  %75 = and i1 %74, %73
  br i1 %75, label %76, label %201

76:                                               ; preds = %54, %58
  %77 = getelementptr inbounds %"class.blink::AuctionAdInterestGroup", %"class.blink::AuctionAdInterestGroup"* %0, i64 0, i32 6, i32 0, i32 0
  %78 = load %"class.WTF::StringImpl"*, %"class.WTF::StringImpl"** %77, align 8
  %79 = icmp eq %"class.WTF::StringImpl"* %78, null
  br i1 %79, label %98, label %80

80:                                               ; preds = %76
  %81 = bitcast %"class.WTF::StringView"* %7 to i8*
  call void @llvm.lifetime.start.p0i8(i64 24, i8* nonnull %81) #8
  %82 = getelementptr inbounds %"class.WTF::StringView", %"class.WTF::StringView"* %7, i64 0, i32 0
  store %"class.WTF::StringImpl"* %78, %"class.WTF::StringImpl"** %82, align 8
  %83 = getelementptr inbounds %"class.WTF::StringImpl", %"class.WTF::StringImpl"* %78, i64 0, i32 1
  %84 = load i32, i32* %83, align 4
  %85 = getelementptr inbounds %"class.WTF::StringImpl", %"class.WTF::StringImpl"* %78, i64 1
  %86 = getelementptr inbounds %"class.WTF::StringView", %"class.WTF::StringView"* %7, i64 0, i32 1
  %87 = bitcast i8** %86 to %"class.WTF::StringImpl"**
  store %"class.WTF::StringImpl"* %85, %"class.WTF::StringImpl"** %87, align 8
  %88 = getelementptr inbounds %"class.WTF::StringView", %"class.WTF::StringView"* %7, i64 0, i32 2
  store i32 %84, i32* %88, align 8
  %89 = call %"class.v8::String"* @_ZN5blink8V8StringEPN2v87IsolateERKN3WTF10StringViewE(%"class.v8::Isolate"* %3, %"class.WTF::StringView"* nonnull dereferenceable(24) %7)
  call void @llvm.lifetime.end.p0i8(i64 24, i8* nonnull %81) #8
  %90 = bitcast %"class.v8::String"* %89 to %"class.v8::Value"*
  %91 = getelementptr inbounds %"class.v8::Eternal", %"class.v8::Eternal"* %16, i64 3, i32 0
  %92 = load %"class.v8::Name"*, %"class.v8::Name"** %91, align 8
  %93 = call i16 @_ZN2v86Object18CreateDataPropertyENS_5LocalINS_7ContextEEENS1_INS_4NameEEENS1_INS_5ValueEEE(%"class.v8::Object"* %1, %"class.v8::Context"* %17, %"class.v8::Name"* %92, %"class.v8::Value"* %90) #8
  %94 = trunc i16 %93 to i8
  %95 = icmp ne i8 %94, 0
  %96 = icmp ugt i16 %93, 255
  %97 = and i1 %96, %95
  br i1 %97, label %98, label %201

98:                                               ; preds = %76, %80
  %99 = getelementptr inbounds %"class.blink::AuctionAdInterestGroup", %"class.blink::AuctionAdInterestGroup"* %0, i64 0, i32 7, i32 0, i32 0
  %100 = load %"class.WTF::StringImpl"*, %"class.WTF::StringImpl"** %99, align 8
  %101 = icmp eq %"class.WTF::StringImpl"* %100, null
  br i1 %101, label %120, label %102

102:                                              ; preds = %98
  %103 = bitcast %"class.WTF::StringView"* %8 to i8*
  call void @llvm.lifetime.start.p0i8(i64 24, i8* nonnull %103) #8
  %104 = getelementptr inbounds %"class.WTF::StringView", %"class.WTF::StringView"* %8, i64 0, i32 0
  store %"class.WTF::StringImpl"* %100, %"class.WTF::StringImpl"** %104, align 8
  %105 = getelementptr inbounds %"class.WTF::StringImpl", %"class.WTF::StringImpl"* %100, i64 0, i32 1
  %106 = load i32, i32* %105, align 4
  %107 = getelementptr inbounds %"class.WTF::StringImpl", %"class.WTF::StringImpl"* %100, i64 1
  %108 = getelementptr inbounds %"class.WTF::StringView", %"class.WTF::StringView"* %8, i64 0, i32 1
  %109 = bitcast i8** %108 to %"class.WTF::StringImpl"**
  store %"class.WTF::StringImpl"* %107, %"class.WTF::StringImpl"** %109, align 8
  %110 = getelementptr inbounds %"class.WTF::StringView", %"class.WTF::StringView"* %8, i64 0, i32 2
  store i32 %106, i32* %110, align 8
  %111 = call %"class.v8::String"* @_ZN5blink8V8StringEPN2v87IsolateERKN3WTF10StringViewE(%"class.v8::Isolate"* %3, %"class.WTF::StringView"* nonnull dereferenceable(24) %8)
  call void @llvm.lifetime.end.p0i8(i64 24, i8* nonnull %103) #8
  %112 = bitcast %"class.v8::String"* %111 to %"class.v8::Value"*
  %113 = getelementptr inbounds %"class.v8::Eternal", %"class.v8::Eternal"* %16, i64 4, i32 0
  %114 = load %"class.v8::Name"*, %"class.v8::Name"** %113, align 8
  %115 = call i16 @_ZN2v86Object18CreateDataPropertyENS_5LocalINS_7ContextEEENS1_INS_4NameEEENS1_INS_5ValueEEE(%"class.v8::Object"* %1, %"class.v8::Context"* %17, %"class.v8::Name"* %114, %"class.v8::Value"* %112) #8
  %116 = trunc i16 %115 to i8
  %117 = icmp ne i8 %116, 0
  %118 = icmp ugt i16 %115, 255
  %119 = and i1 %118, %117
  br i1 %119, label %120, label %201

120:                                              ; preds = %98, %102
  %121 = getelementptr inbounds %"class.blink::AuctionAdInterestGroup", %"class.blink::AuctionAdInterestGroup"* %0, i64 0, i32 2
  %122 = load i8, i8* %121, align 1, !range !7
  %123 = icmp eq i8 %122, 0
  br i1 %123, label %135, label %124

124:                                              ; preds = %120
  %125 = getelementptr inbounds %"class.blink::AuctionAdInterestGroup", %"class.blink::AuctionAdInterestGroup"* %0, i64 0, i32 8
  %126 = call %"class.v8::Array"* @_ZN5blink20ToV8SequenceInternalIN3WTF6VectorINS1_6StringELj0ENS1_18PartitionAllocatorEEEEEN2v85LocalINS6_5ArrayEEERKT_NS7_INS6_6ObjectEEEPNS6_7IsolateE(%"class.WTF::Vector.190"* dereferenceable(16) %125, %"class.v8::Object"* %2, %"class.v8::Isolate"* %3) #8
  %127 = bitcast %"class.v8::Array"* %126 to %"class.v8::Value"*
  %128 = getelementptr inbounds %"class.v8::Eternal", %"class.v8::Eternal"* %16, i64 5, i32 0
  %129 = load %"class.v8::Name"*, %"class.v8::Name"** %128, align 8
  %130 = call i16 @_ZN2v86Object18CreateDataPropertyENS_5LocalINS_7ContextEEENS1_INS_4NameEEENS1_INS_5ValueEEE(%"class.v8::Object"* %1, %"class.v8::Context"* %17, %"class.v8::Name"* %129, %"class.v8::Value"* %127) #8
  %131 = trunc i16 %130 to i8
  %132 = icmp ne i8 %131, 0
  %133 = icmp ugt i16 %130, 255
  %134 = and i1 %133, %132
  br i1 %134, label %135, label %201

135:                                              ; preds = %120, %124
  %136 = getelementptr inbounds %"class.blink::AuctionAdInterestGroup", %"class.blink::AuctionAdInterestGroup"* %0, i64 0, i32 9, i32 0, i32 0
  %137 = load %"class.WTF::StringImpl"*, %"class.WTF::StringImpl"** %136, align 8
  %138 = icmp eq %"class.WTF::StringImpl"* %137, null
  br i1 %138, label %157, label %139

139:                                              ; preds = %135
  %140 = bitcast %"class.WTF::StringView"* %9 to i8*
  call void @llvm.lifetime.start.p0i8(i64 24, i8* nonnull %140) #8
  %141 = getelementptr inbounds %"class.WTF::StringView", %"class.WTF::StringView"* %9, i64 0, i32 0
  store %"class.WTF::StringImpl"* %137, %"class.WTF::StringImpl"** %141, align 8
  %142 = getelementptr inbounds %"class.WTF::StringImpl", %"class.WTF::StringImpl"* %137, i64 0, i32 1
  %143 = load i32, i32* %142, align 4
  %144 = getelementptr inbounds %"class.WTF::StringImpl", %"class.WTF::StringImpl"* %137, i64 1
  %145 = getelementptr inbounds %"class.WTF::StringView", %"class.WTF::StringView"* %9, i64 0, i32 1
  %146 = bitcast i8** %145 to %"class.WTF::StringImpl"**
  store %"class.WTF::StringImpl"* %144, %"class.WTF::StringImpl"** %146, align 8
  %147 = getelementptr inbounds %"class.WTF::StringView", %"class.WTF::StringView"* %9, i64 0, i32 2
  store i32 %143, i32* %147, align 8
  %148 = call %"class.v8::String"* @_ZN5blink8V8StringEPN2v87IsolateERKN3WTF10StringViewE(%"class.v8::Isolate"* %3, %"class.WTF::StringView"* nonnull dereferenceable(24) %9)
  call void @llvm.lifetime.end.p0i8(i64 24, i8* nonnull %140) #8
  %149 = bitcast %"class.v8::String"* %148 to %"class.v8::Value"*
  %150 = getelementptr inbounds %"class.v8::Eternal", %"class.v8::Eternal"* %16, i64 6, i32 0
  %151 = load %"class.v8::Name"*, %"class.v8::Name"** %150, align 8
  %152 = call i16 @_ZN2v86Object18CreateDataPropertyENS_5LocalINS_7ContextEEENS1_INS_4NameEEENS1_INS_5ValueEEE(%"class.v8::Object"* %1, %"class.v8::Context"* %17, %"class.v8::Name"* %151, %"class.v8::Value"* %149) #8
  %153 = trunc i16 %152 to i8
  %154 = icmp ne i8 %153, 0
  %155 = icmp ugt i16 %152, 255
  %156 = and i1 %155, %154
  br i1 %156, label %157, label %201

157:                                              ; preds = %135, %139
  %158 = call zeroext i1 @_ZNK5blink22AuctionAdInterestGroup21hasUserBiddingSignalsEv(%"class.blink::AuctionAdInterestGroup"* %0)
  br i1 %158, label %159, label %200

159:                                              ; preds = %157
  %160 = bitcast %"class.blink::ScriptValue"* %10 to i8*
  call void @llvm.lifetime.start.p0i8(i64 24, i8* nonnull %160) #8
  %161 = getelementptr inbounds %"class.blink::AuctionAdInterestGroup", %"class.blink::AuctionAdInterestGroup"* %0, i64 0, i32 10
  %162 = bitcast %"class.blink::ScriptValue"* %161 to i64*
  %163 = load i64, i64* %162, align 8, !noalias !8
  %164 = bitcast %"class.blink::ScriptValue"* %10 to i64*
  store i64 %163, i64* %164, align 8, !alias.scope !8
  %165 = getelementptr inbounds %"class.blink::ScriptValue", %"class.blink::ScriptValue"* %10, i64 0, i32 1
  %166 = getelementptr inbounds %"class.blink::WorldSafeV8Reference", %"class.blink::WorldSafeV8Reference"* %165, i64 0, i32 0
  %167 = getelementptr inbounds %"class.blink::WorldSafeV8Reference", %"class.blink::WorldSafeV8Reference"* %165, i64 0, i32 0, i32 0, i32 0, i32 0, i32 0
  store i64* null, i64** %167, align 8, !alias.scope !8
  %168 = icmp eq %"class.blink::ScriptValue"* %161, %10
  br i1 %168, label %174, label %169

169:                                              ; preds = %159
  %170 = getelementptr inbounds %"class.blink::AuctionAdInterestGroup", %"class.blink::AuctionAdInterestGroup"* %0, i64 0, i32 10, i32 1, i32 0, i32 0, i32 0, i32 0, i32 0
  %171 = load i64*, i64** %170, align 8, !noalias !8
  %172 = icmp eq i64* %171, null
  br i1 %172, label %174, label %173

173:                                              ; preds = %169
  call void @_ZN2v82V825CopyTracedGlobalReferenceEPKPKmPPm(i64** %170, i64** %167) #8
  br label %174

174:                                              ; preds = %173, %169, %159
  call void @_ZN5blink25UnifiedHeapMarkingVisitor12WriteBarrierERKNS_23TraceWrapperV8ReferenceIN2v85ValueEEE(%"class.blink::TraceWrapperV8Reference"* dereferenceable(8) %166) #8
  %175 = getelementptr inbounds %"class.blink::AuctionAdInterestGroup", %"class.blink::AuctionAdInterestGroup"* %0, i64 0, i32 10, i32 1, i32 1, i32 0
  %176 = load %"class.blink::DOMWrapperWorld"*, %"class.blink::DOMWrapperWorld"** %175, align 8, !noalias !8
  %177 = getelementptr inbounds %"class.blink::ScriptValue", %"class.blink::ScriptValue"* %10, i64 0, i32 1, i32 1, i32 0
  store %"class.blink::DOMWrapperWorld"* %176, %"class.blink::DOMWrapperWorld"** %177, align 8, !alias.scope !8
  %178 = icmp eq %"class.blink::DOMWrapperWorld"* %176, null
  br i1 %178, label %181, label %179

179:                                              ; preds = %174
  %180 = getelementptr inbounds %"class.blink::DOMWrapperWorld", %"class.blink::DOMWrapperWorld"* %176, i64 0, i32 0, i32 0, i32 0
  call void @_ZNK4base6subtle14RefCountedBase10AddRefImplEv(%"class.base::subtle::RefCountedBase"* %180) #8
  br label %181

181:                                              ; preds = %174, %179
  %182 = call %"class.v8::Value"* @_ZNK5blink11ScriptValue7V8ValueEv(%"class.blink::ScriptValue"* nonnull %10) #8
  %183 = load %"class.blink::DOMWrapperWorld"*, %"class.blink::DOMWrapperWorld"** %177, align 8
  %184 = icmp eq %"class.blink::DOMWrapperWorld"* %183, null
  br i1 %184, label %192, label %185

185:                                              ; preds = %181
  %186 = getelementptr inbounds %"class.blink::DOMWrapperWorld", %"class.blink::DOMWrapperWorld"* %183, i64 0, i32 0, i32 0, i32 0
  call void @_ZNK4base6subtle14RefCountedBase11ReleaseImplEv(%"class.base::subtle::RefCountedBase"* %186) #8
  %187 = getelementptr inbounds %"class.blink::DOMWrapperWorld", %"class.blink::DOMWrapperWorld"* %183, i64 0, i32 0, i32 0, i32 0, i32 0
  %188 = load i32, i32* %187, align 4
  %189 = icmp eq i32 %188, 0
  br i1 %189, label %190, label %192

190:                                              ; preds = %185
  call void @_ZN5blink15DOMWrapperWorldD1Ev(%"class.blink::DOMWrapperWorld"* nonnull %183) #8
  %191 = bitcast %"class.blink::DOMWrapperWorld"* %183 to i8*
  call void @free(i8* %191) #8
  br label %192

192:                                              ; preds = %181, %185, %190
  call void @llvm.lifetime.end.p0i8(i64 24, i8* nonnull %160) #8
  %193 = getelementptr inbounds %"class.v8::Eternal", %"class.v8::Eternal"* %16, i64 7, i32 0
  %194 = load %"class.v8::Name"*, %"class.v8::Name"** %193, align 8
  %195 = call i16 @_ZN2v86Object18CreateDataPropertyENS_5LocalINS_7ContextEEENS1_INS_4NameEEENS1_INS_5ValueEEE(%"class.v8::Object"* %1, %"class.v8::Context"* %17, %"class.v8::Name"* %194, %"class.v8::Value"* %182) #8
  %196 = trunc i16 %195 to i8
  %197 = icmp ne i8 %196, 0
  %198 = icmp ugt i16 %195, 255
  %199 = and i1 %198, %197
  br i1 %199, label %200, label %201

200:                                              ; preds = %157, %192
  br label %201

201:                                              ; preds = %36, %80, %124, %200, %192, %139, %102, %58, %21
  %202 = phi i1 [ false, %21 ], [ false, %36 ], [ false, %58 ], [ false, %80 ], [ false, %102 ], [ false, %124 ], [ false, %139 ], [ true, %200 ], [ false, %192 ]
  ret i1 %202
}

; Function Attrs: inlinehint nounwind ssp uwtable
define linkonce_odr hidden %"class.v8::String"* @_ZN5blink8V8StringEPN2v87IsolateERKN3WTF10StringViewE(%"class.v8::Isolate"*, %"class.WTF::StringView"* dereferenceable(24)) local_unnamed_addr #4 comdat {
  %3 = getelementptr inbounds %"class.WTF::StringView", %"class.WTF::StringView"* %1, i64 0, i32 1
  %4 = load i8*, i8** %3, align 8
  %5 = icmp eq i8* %4, null
  %6 = bitcast i8* %4 to i16*
  br i1 %5, label %7, label %11

7:                                                ; preds = %2
  %8 = ptrtoint %"class.v8::Isolate"* %0 to i64
  %9 = add i64 %8, 200
  %10 = inttoptr i64 %9 to %"class.v8::String"*
  br label %63

11:                                               ; preds = %2
  %12 = getelementptr inbounds %"class.WTF::StringView", %"class.WTF::StringView"* %1, i64 0, i32 0
  %13 = load %"class.WTF::StringImpl"*, %"class.WTF::StringImpl"** %12, align 8
  %14 = getelementptr inbounds %"class.WTF::StringImpl", %"class.WTF::StringImpl"* %13, i64 1
  %15 = bitcast %"class.WTF::StringImpl"* %14 to i8*
  %16 = icmp eq i8* %4, %15
  br i1 %16, label %17, label %48

17:                                               ; preds = %11
  %18 = getelementptr inbounds %"class.WTF::StringView", %"class.WTF::StringView"* %1, i64 0, i32 2
  %19 = load i32, i32* %18, align 8
  %20 = getelementptr inbounds %"class.WTF::StringImpl", %"class.WTF::StringImpl"* %13, i64 0, i32 1
  %21 = load i32, i32* %20, align 4
  %22 = icmp ne i32 %19, %21
  %23 = icmp eq %"class.WTF::StringImpl"* %13, null
  %24 = or i1 %23, %22
  br i1 %24, label %48, label %25

25:                                               ; preds = %17
  %26 = ptrtoint %"class.v8::Isolate"* %0 to i64
  %27 = add i64 %26, 8
  %28 = inttoptr i64 %27 to %"class.blink::V8PerIsolateData"**
  %29 = load %"class.blink::V8PerIsolateData"*, %"class.blink::V8PerIsolateData"** %28, align 8
  %30 = getelementptr inbounds %"class.blink::V8PerIsolateData", %"class.blink::V8PerIsolateData"* %29, i64 0, i32 5, i32 0, i32 0, i32 0
  %31 = load %"class.blink::StringCache"*, %"class.blink::StringCache"** %30, align 8
  %32 = getelementptr inbounds %"class.blink::StringCache", %"class.blink::StringCache"* %31, i64 0, i32 3, i32 0
  %33 = load %"class.WTF::StringImpl"*, %"class.WTF::StringImpl"** %32, align 8
  %34 = icmp eq %"class.WTF::StringImpl"* %33, %13
  br i1 %34, label %35, label %46

35:                                               ; preds = %25
  %36 = getelementptr inbounds %"class.blink::StringCache", %"class.blink::StringCache"* %31, i64 0, i32 1
  %37 = bitcast %"class.v8::PersistentValueMapBase<WTF::StringImpl *, v8::String, blink::StringCacheMapTraits>::PersistentValueReference"* %36 to %"class.v8::String"**
  %38 = load %"class.v8::String"*, %"class.v8::String"** %37, align 8
  %39 = icmp eq %"class.v8::String"* %38, null
  br i1 %39, label %63, label %40

40:                                               ; preds = %35
  %41 = bitcast %"class.v8::String"* %38 to i64*
  %42 = bitcast %"class.v8::Isolate"* %0 to %"class.v8::internal::Isolate"*
  %43 = load i64, i64* %41, align 8
  %44 = tail call i64* @_ZN2v811HandleScope12CreateHandleEPNS_8internal7IsolateEm(%"class.v8::internal::Isolate"* %42, i64 %43) #8
  %45 = bitcast i64* %44 to %"class.v8::String"*
  br label %63

46:                                               ; preds = %25
  %47 = tail call %"class.v8::String"* @_ZN5blink11StringCache20V8ExternalStringSlowEPN2v87IsolateEPN3WTF10StringImplE(%"class.blink::StringCache"* %31, %"class.v8::Isolate"* %0, %"class.WTF::StringImpl"* nonnull %13) #8
  br label %63

48:                                               ; preds = %17, %11
  %49 = getelementptr inbounds %"class.WTF::StringImpl", %"class.WTF::StringImpl"* %13, i64 0, i32 2, i32 0, i32 0, i32 0, i32 0, i32 0
  %50 = load atomic i32, i32* %49 monotonic, align 4
  %51 = and i32 %50, 1
  %52 = icmp eq i32 %51, 0
  %53 = getelementptr inbounds %"class.WTF::StringView", %"class.WTF::StringView"* %1, i64 0, i32 2
  %54 = load i32, i32* %53, align 8
  br i1 %52, label %59, label %55

55:                                               ; preds = %48
  %56 = tail call %"class.v8::String"* @_ZN2v86String14NewFromOneByteEPNS_7IsolateEPKhNS_13NewStringTypeEi(%"class.v8::Isolate"* %0, i8* nonnull %4, i32 0, i32 %54) #8
  %57 = icmp eq %"class.v8::String"* %56, null
  br i1 %57, label %58, label %63, !prof !2

58:                                               ; preds = %55
  tail call void @_ZN2v82V812ToLocalEmptyEv() #8
  br label %63

59:                                               ; preds = %48
  %60 = tail call %"class.v8::String"* @_ZN2v86String14NewFromTwoByteEPNS_7IsolateEPKtNS_13NewStringTypeEi(%"class.v8::Isolate"* %0, i16* nonnull %6, i32 0, i32 %54) #8
  %61 = icmp eq %"class.v8::String"* %60, null
  br i1 %61, label %62, label %63, !prof !2

62:                                               ; preds = %59
  tail call void @_ZN2v82V812ToLocalEmptyEv() #8
  br label %63

63:                                               ; preds = %46, %40, %35, %62, %59, %58, %55, %7
  %64 = phi %"class.v8::String"* [ %10, %7 ], [ %56, %55 ], [ null, %58 ], [ %60, %59 ], [ null, %62 ], [ null, %35 ], [ %45, %40 ], [ %47, %46 ]
  ret %"class.v8::String"* %64
}

; Function Attrs: nounwind ssp uwtable
define linkonce_odr hidden zeroext i1 @_ZNK5blink22AuctionAdInterestGroup21hasUserBiddingSignalsEv(%"class.blink::AuctionAdInterestGroup"*) local_unnamed_addr #0 comdat align 2 {
  %2 = getelementptr inbounds %"class.blink::AuctionAdInterestGroup", %"class.blink::AuctionAdInterestGroup"* %0, i64 0, i32 10
  %3 = getelementptr inbounds %"class.blink::AuctionAdInterestGroup", %"class.blink::AuctionAdInterestGroup"* %0, i64 0, i32 10, i32 1, i32 0, i32 0, i32 0, i32 0, i32 0
  %4 = load i64*, i64** %3, align 8
  %5 = icmp eq i64* %4, null
  br i1 %5, label %56, label %6

6:                                                ; preds = %1
  %7 = tail call %"class.v8::Value"* @_ZNK5blink11ScriptValue7V8ValueEv(%"class.blink::ScriptValue"* %2) #8
  %8 = icmp eq %"class.v8::Value"* %7, null
  br i1 %8, label %31, label %9

9:                                                ; preds = %6
  %10 = bitcast %"class.v8::Value"* %7 to i64*
  %11 = load i64, i64* %10, align 8
  %12 = and i64 %11, 3
  %13 = icmp eq i64 %12, 1
  br i1 %13, label %14, label %31

14:                                               ; preds = %9
  %15 = add i64 %11, -1
  %16 = inttoptr i64 %15 to i32*
  %17 = load i32, i32* %16, align 4
  %18 = and i64 %11, -4294967296
  %19 = zext i32 %17 to i64
  %20 = or i64 %18, %19
  %21 = add i64 %20, 7
  %22 = inttoptr i64 %21 to i16*
  %23 = load i16, i16* %22, align 2
  %24 = icmp eq i16 %23, 67
  br i1 %24, label %25, label %31

25:                                               ; preds = %14
  %26 = add i64 %11, 23
  %27 = inttoptr i64 %26 to i32*
  %28 = load i32, i32* %27, align 4
  %29 = and i32 %28, -2
  %30 = icmp eq i32 %29, 6
  br i1 %30, label %56, label %31

31:                                               ; preds = %14, %9, %6, %25
  %32 = tail call %"class.v8::Value"* @_ZNK5blink11ScriptValue7V8ValueEv(%"class.blink::ScriptValue"* %2) #8
  %33 = icmp eq %"class.v8::Value"* %32, null
  br i1 %33, label %56, label %34

34:                                               ; preds = %31
  %35 = bitcast %"class.v8::Value"* %32 to i64*
  %36 = load i64, i64* %35, align 8
  %37 = and i64 %36, 3
  %38 = icmp eq i64 %37, 1
  br i1 %38, label %39, label %56

39:                                               ; preds = %34
  %40 = add i64 %36, -1
  %41 = inttoptr i64 %40 to i32*
  %42 = load i32, i32* %41, align 4
  %43 = and i64 %36, -4294967296
  %44 = zext i32 %42 to i64
  %45 = or i64 %43, %44
  %46 = add i64 %45, 7
  %47 = inttoptr i64 %46 to i16*
  %48 = load i16, i16* %47, align 2
  %49 = icmp eq i16 %48, 67
  br i1 %49, label %50, label %56

50:                                               ; preds = %39
  %51 = add i64 %36, 23
  %52 = inttoptr i64 %51 to i32*
  %53 = load i32, i32* %52, align 4
  %54 = and i32 %53, -2
  %55 = icmp ne i32 %54, 10
  br label %56

56:                                               ; preds = %50, %39, %34, %31, %25, %1
  %57 = phi i1 [ false, %25 ], [ false, %1 ], [ true, %31 ], [ %55, %50 ], [ true, %34 ], [ true, %39 ]
  ret i1 %57
}

declare %"class.v8::Value"* @_ZNK5blink11ScriptValue7V8ValueEv(%"class.blink::ScriptValue"*) local_unnamed_addr #2

; Function Attrs: nounwind ssp uwtable
define hidden %"class.blink::AuctionAdInterestGroup"* @_ZN5blink17NativeValueTraitsINS_22AuctionAdInterestGroupEvE11NativeValueEPN2v87IsolateENS3_5LocalINS3_5ValueEEERNS_14ExceptionStateE(%"class.v8::Isolate"*, %"class.v8::Value"*, %"class.blink::ExceptionState"* dereferenceable(72)) local_unnamed_addr #0 align 2 {
  %4 = tail call i8* @_ZN5blink10ThreadHeap8AllocateINS_17IDLDictionaryBaseEEEPhm(i64 112) #8
  %5 = bitcast i8* %4 to %"class.blink::AuctionAdInterestGroup"*
  tail call void @_ZN5blink22AuctionAdInterestGroupC1Ev(%"class.blink::AuctionAdInterestGroup"* %5) #8
  %6 = getelementptr inbounds i8, i8* %4, i64 -4
  %7 = bitcast i8* %6 to i16*
  %8 = load atomic i16, i16* %7 monotonic, align 2
  %9 = or i16 %8, 1
  store atomic i16 %9, i16* %7 release, align 2
  tail call void @_ZN5blink24V8AuctionAdInterestGroup6ToImplEPN2v87IsolateENS1_5LocalINS1_5ValueEEEPNS_22AuctionAdInterestGroupERNS_14ExceptionStateE(%"class.v8::Isolate"* %0, %"class.v8::Value"* %1, %"class.blink::AuctionAdInterestGroup"* %5, %"class.blink::ExceptionState"* dereferenceable(72) %2)
  ret %"class.blink::AuctionAdInterestGroup"* %5
}

declare { i64, %"class.v8::Eternal"* } @_ZN5blink16V8PerIsolateData28FindOrCreateEternalNameCacheEPKvRKN4base4spanIKPKcLm18446744073709551615EEE(%"class.blink::V8PerIsolateData"*, i8*, %"class.base::span.328"* dereferenceable(16)) local_unnamed_addr #2

declare void @_ZNK3WTF10StringImpl18DestroyIfNotStaticEv(%"class.WTF::StringImpl"*) local_unnamed_addr #2

; Function Attrs: nounwind readnone speculatable
declare { i33, i1 } @llvm.sadd.with.overflow.i33(i33, i33) #5

; Function Attrs: cold noreturn nounwind
declare void @llvm.trap() #6

declare void @_ZN3WTF10Partitions10BufferFreeEPv(i8*) local_unnamed_addr #2

declare void @_ZN3WTF18PartitionAllocator11FreeBackingEPv(i8*) local_unnamed_addr #2

declare %"class.WTF::StringImpl"* @_ZN5blink17ExceptionMessages22FailedToConvertJSValueEPKc(i8*) local_unnamed_addr #2

; Function Attrs: nounwind ssp uwtable
define linkonce_odr hidden void @_ZN5blink20WorldSafeV8ReferenceIN2v85ValueEEC2EPNS1_7IsolateENS1_5LocalIS2_EE(%"class.blink::WorldSafeV8Reference"*, %"class.v8::Isolate"*, %"class.v8::Value"*) unnamed_addr #0 comdat align 2 {
  %4 = getelementptr inbounds %"class.blink::WorldSafeV8Reference", %"class.blink::WorldSafeV8Reference"* %0, i64 0, i32 1
  %5 = getelementptr inbounds %class.scoped_refptr, %class.scoped_refptr* %4, i64 0, i32 0
  %6 = icmp eq %"class.v8::Value"* %2, null
  %7 = bitcast %"class.blink::WorldSafeV8Reference"* %0 to i8*
  call void @llvm.memset.p0i8.i64(i8* align 8 %7, i8 0, i64 16, i1 false)
  br i1 %6, label %61, label %8

8:                                                ; preds = %3
  %9 = getelementptr inbounds %"class.blink::WorldSafeV8Reference", %"class.blink::WorldSafeV8Reference"* %0, i64 0, i32 0
  %10 = bitcast %"class.v8::Value"* %2 to i64*
  %11 = bitcast %"class.v8::Isolate"* %1 to %"class.v8::internal::Isolate"*
  %12 = bitcast %"class.blink::WorldSafeV8Reference"* %0 to i64*
  %13 = tail call i64* @_ZN2v82V824GlobalizeTracedReferenceEPNS_8internal7IsolateEPmS4_b(%"class.v8::internal::Isolate"* %11, i64* nonnull %10, i64* %12, i1 zeroext false) #8
  %14 = ptrtoint i64* %13 to i64
  store atomic i64 %14, i64* %12 monotonic, align 8
  tail call void @_ZN5blink25UnifiedHeapMarkingVisitor12WriteBarrierERKNS_23TraceWrapperV8ReferenceIN2v85ValueEEE(%"class.blink::TraceWrapperV8Reference"* dereferenceable(8) %9) #8
  %15 = tail call zeroext i1 @_ZN2v87Isolate9InContextEv(%"class.v8::Isolate"* %1) #8
  br i1 %15, label %16, label %38

16:                                               ; preds = %8
  %17 = tail call %"class.v8::Context"* @_ZN2v87Isolate17GetCurrentContextEv(%"class.v8::Isolate"* %1) #8
  %18 = tail call %"class.blink::ScriptState"* @_ZN5blink11ScriptState4FromEN2v85LocalINS1_7ContextEEE(%"class.v8::Context"* %17) #8
  %19 = getelementptr inbounds %"class.blink::ScriptState", %"class.blink::ScriptState"* %18, i64 0, i32 2, i32 0
  %20 = load %"class.blink::DOMWrapperWorld"*, %"class.blink::DOMWrapperWorld"** %19, align 8
  %21 = icmp eq %"class.blink::DOMWrapperWorld"* %20, null
  br i1 %21, label %24, label %22

22:                                               ; preds = %16
  %23 = getelementptr inbounds %"class.blink::DOMWrapperWorld", %"class.blink::DOMWrapperWorld"* %20, i64 0, i32 0, i32 0, i32 0
  tail call void @_ZNK4base6subtle14RefCountedBase10AddRefImplEv(%"class.base::subtle::RefCountedBase"* %23) #8
  br label %24

24:                                               ; preds = %22, %16
  %25 = ptrtoint %"class.blink::DOMWrapperWorld"* %20 to i64
  %26 = bitcast %class.scoped_refptr* %4 to i64*
  %27 = load %"class.blink::DOMWrapperWorld"*, %"class.blink::DOMWrapperWorld"** %5, align 8
  store i64 %25, i64* %26, align 8
  %28 = icmp eq %"class.blink::DOMWrapperWorld"* %27, null
  br i1 %28, label %36, label %29

29:                                               ; preds = %24
  %30 = getelementptr inbounds %"class.blink::DOMWrapperWorld", %"class.blink::DOMWrapperWorld"* %27, i64 0, i32 0, i32 0, i32 0
  tail call void @_ZNK4base6subtle14RefCountedBase11ReleaseImplEv(%"class.base::subtle::RefCountedBase"* %30) #8
  %31 = getelementptr inbounds %"class.blink::DOMWrapperWorld", %"class.blink::DOMWrapperWorld"* %27, i64 0, i32 0, i32 0, i32 0, i32 0
  %32 = load i32, i32* %31, align 4
  %33 = icmp eq i32 %32, 0
  br i1 %33, label %34, label %36

34:                                               ; preds = %29
  tail call void @_ZN5blink15DOMWrapperWorldD1Ev(%"class.blink::DOMWrapperWorld"* nonnull %27) #8
  %35 = bitcast %"class.blink::DOMWrapperWorld"* %27 to i8*
  tail call void @free(i8* %35) #8
  br label %36

36:                                               ; preds = %24, %29, %34
  %37 = load %"class.blink::DOMWrapperWorld"*, %"class.blink::DOMWrapperWorld"** %5, align 8
  tail call void @_ZN5blink28WorldSafeV8ReferenceInternal30MaybeCheckCreationContextWorldERKNS_15DOMWrapperWorldEN2v85LocalINS4_5ValueEEE(%"class.blink::DOMWrapperWorld"* dereferenceable(32) %37, %"class.v8::Value"* nonnull %2) #8
  br label %61

38:                                               ; preds = %8
  %39 = tail call zeroext i1 @_ZNK2v85Value8IsObjectEv(%"class.v8::Value"* nonnull %2) #8
  br i1 %39, label %40, label %61

40:                                               ; preds = %38
  %41 = bitcast %"class.v8::Value"* %2 to %"class.v8::Object"*
  %42 = tail call %"class.v8::Context"* @_ZN2v86Object15CreationContextEv(%"class.v8::Object"* nonnull %41) #8
  %43 = tail call %"class.blink::ScriptState"* @_ZN5blink11ScriptState4FromEN2v85LocalINS1_7ContextEEE(%"class.v8::Context"* %42)
  %44 = getelementptr inbounds %"class.blink::ScriptState", %"class.blink::ScriptState"* %43, i64 0, i32 2, i32 0
  %45 = load %"class.blink::DOMWrapperWorld"*, %"class.blink::DOMWrapperWorld"** %44, align 8
  %46 = icmp eq %"class.blink::DOMWrapperWorld"* %45, null
  br i1 %46, label %49, label %47

47:                                               ; preds = %40
  %48 = getelementptr inbounds %"class.blink::DOMWrapperWorld", %"class.blink::DOMWrapperWorld"* %45, i64 0, i32 0, i32 0, i32 0
  tail call void @_ZNK4base6subtle14RefCountedBase10AddRefImplEv(%"class.base::subtle::RefCountedBase"* %48) #8
  br label %49

49:                                               ; preds = %47, %40
  %50 = ptrtoint %"class.blink::DOMWrapperWorld"* %45 to i64
  %51 = bitcast %class.scoped_refptr* %4 to i64*
  %52 = load %"class.blink::DOMWrapperWorld"*, %"class.blink::DOMWrapperWorld"** %5, align 8
  store i64 %50, i64* %51, align 8
  %53 = icmp eq %"class.blink::DOMWrapperWorld"* %52, null
  br i1 %53, label %61, label %54

54:                                               ; preds = %49
  %55 = getelementptr inbounds %"class.blink::DOMWrapperWorld", %"class.blink::DOMWrapperWorld"* %52, i64 0, i32 0, i32 0, i32 0
  tail call void @_ZNK4base6subtle14RefCountedBase11ReleaseImplEv(%"class.base::subtle::RefCountedBase"* %55) #8
  %56 = getelementptr inbounds %"class.blink::DOMWrapperWorld", %"class.blink::DOMWrapperWorld"* %52, i64 0, i32 0, i32 0, i32 0, i32 0
  %57 = load i32, i32* %56, align 4
  %58 = icmp eq i32 %57, 0
  br i1 %58, label %59, label %61

59:                                               ; preds = %54
  tail call void @_ZN5blink15DOMWrapperWorldD1Ev(%"class.blink::DOMWrapperWorld"* nonnull %52) #8
  %60 = bitcast %"class.blink::DOMWrapperWorld"* %52 to i8*
  tail call void @free(i8* %60) #8
  br label %61

61:                                               ; preds = %59, %54, %49, %38, %3, %36
  ret void
}

declare zeroext i1 @_ZN2v87Isolate9InContextEv(%"class.v8::Isolate"*) local_unnamed_addr #2

declare void @_ZN5blink28WorldSafeV8ReferenceInternal30MaybeCheckCreationContextWorldERKNS_15DOMWrapperWorldEN2v85LocalINS4_5ValueEEE(%"class.blink::DOMWrapperWorld"* dereferenceable(32), %"class.v8::Value"*) local_unnamed_addr #2

; Function Attrs: nounwind ssp uwtable
define linkonce_odr hidden %"class.blink::ScriptState"* @_ZN5blink11ScriptState4FromEN2v85LocalINS1_7ContextEEE(%"class.v8::Context"*) local_unnamed_addr #0 comdat align 2 {
  %2 = alloca %"class.logging::CheckError", align 8
  %3 = alloca %"class.logging::CheckError", align 8
  %4 = bitcast %"class.v8::Context"* %0 to i64*
  %5 = load i64, i64* %4, align 8
  %6 = add i64 %5, 23
  %7 = inttoptr i64 %6 to i32*
  %8 = load i32, i32* %7, align 4
  %9 = and i64 %5, -4294967296
  %10 = zext i32 %8 to i64
  %11 = or i64 %9, %10
  %12 = add i64 %11, 23
  %13 = inttoptr i64 %12 to i8**
  %14 = load i8*, i8** %13, align 1
  %15 = bitcast i8* %14 to %"class.blink::ScriptState"*
  %16 = icmp eq i8* %14, null
  br i1 %16, label %17, label %20

17:                                               ; preds = %1
  %18 = bitcast %"class.logging::CheckError"* %2 to i8*
  call void @llvm.lifetime.start.p0i8(i64 8, i8* nonnull %18) #8
  call void @_ZN7logging10CheckError5CheckEPKciS2_(%"class.logging::CheckError"* nonnull sret %2, i8* getelementptr inbounds ([66 x i8], [66 x i8]* @.str.13, i64 0, i64 0), i32 175, i8* getelementptr inbounds ([13 x i8], [13 x i8]* @.str.14, i64 0, i64 0)) #8
  %19 = call dereferenceable(160) %"class.std::__1::basic_ostream"* @_ZN7logging10CheckError6streamEv(%"class.logging::CheckError"* nonnull %2) #8
  call void @_ZN7logging10CheckErrorD1Ev(%"class.logging::CheckError"* nonnull %2) #8
  call void @llvm.lifetime.end.p0i8(i64 8, i8* nonnull %18) #8
  br label %20

20:                                               ; preds = %1, %17
  %21 = getelementptr inbounds i8, i8* %14, i64 8
  %22 = bitcast i8* %21 to i64**
  %23 = load i64*, i64** %22, align 8
  %24 = icmp eq i64* %23, null
  %25 = icmp eq %"class.v8::Context"* %0, null
  %26 = or i1 %25, %24
  br i1 %26, label %31, label %27

27:                                               ; preds = %20
  %28 = load i64, i64* %23, align 8
  %29 = load i64, i64* %4, align 8
  %30 = icmp eq i64 %28, %29
  br i1 %30, label %36, label %33

31:                                               ; preds = %20
  %32 = and i1 %25, %24
  br i1 %32, label %36, label %33

33:                                               ; preds = %27, %31
  %34 = bitcast %"class.logging::CheckError"* %3 to i8*
  call void @llvm.lifetime.start.p0i8(i64 8, i8* nonnull %34) #8
  call void @_ZN7logging10CheckError5CheckEPKciS2_(%"class.logging::CheckError"* nonnull sret %3, i8* getelementptr inbounds ([66 x i8], [66 x i8]* @.str.13, i64 0, i64 0), i32 176, i8* getelementptr inbounds ([34 x i8], [34 x i8]* @.str.15, i64 0, i64 0)) #8
  %35 = call dereferenceable(160) %"class.std::__1::basic_ostream"* @_ZN7logging10CheckError6streamEv(%"class.logging::CheckError"* nonnull %3) #8
  call void @_ZN7logging10CheckErrorD1Ev(%"class.logging::CheckError"* nonnull %3) #8
  call void @llvm.lifetime.end.p0i8(i64 8, i8* nonnull %34) #8
  br label %36

36:                                               ; preds = %27, %31, %33
  ret %"class.blink::ScriptState"* %15
}

declare %"class.v8::Context"* @_ZN2v86Object15CreationContextEv(%"class.v8::Object"*) local_unnamed_addr #2

declare void @_ZN5blink25UnifiedHeapMarkingVisitor12WriteBarrierERKNS_23TraceWrapperV8ReferenceIN2v85ValueEEE(%"class.blink::TraceWrapperV8Reference"* dereferenceable(8)) local_unnamed_addr #2

declare i64* @_ZN2v82V824GlobalizeTracedReferenceEPNS_8internal7IsolateEPmS4_b(%"class.v8::internal::Isolate"*, i64*, i64*, i1 zeroext) local_unnamed_addr #2

declare void @_ZNK4base6subtle14RefCountedBase10AddRefImplEv(%"class.base::subtle::RefCountedBase"*) local_unnamed_addr #2

declare void @_ZNK4base6subtle14RefCountedBase11ReleaseImplEv(%"class.base::subtle::RefCountedBase"*) local_unnamed_addr #2

; Function Attrs: nounwind
declare void @_ZN5blink15DOMWrapperWorldD1Ev(%"class.blink::DOMWrapperWorld"*) unnamed_addr #3

; Function Attrs: nounwind
declare void @free(i8* nocapture) local_unnamed_addr #3

declare void @_ZN7logging10CheckError5CheckEPKciS2_(%"class.logging::CheckError"* sret, i8*, i32, i8*) local_unnamed_addr #2

declare dereferenceable(160) %"class.std::__1::basic_ostream"* @_ZN7logging10CheckError6streamEv(%"class.logging::CheckError"*) local_unnamed_addr #2

; Function Attrs: nounwind
declare void @_ZN7logging10CheckErrorD1Ev(%"class.logging::CheckError"*) unnamed_addr #3

declare void @_ZN2v82V825CopyTracedGlobalReferenceEPKPKmPPm(i64**, i64**) local_unnamed_addr #2

declare i16 @_ZN2v86Object18CreateDataPropertyENS_5LocalINS_7ContextEEENS1_INS_4NameEEENS1_INS_5ValueEEE(%"class.v8::Object"*, %"class.v8::Context"*, %"class.v8::Name"*, %"class.v8::Value"*) local_unnamed_addr #2

declare %"class.v8::String"* @_ZN2v86String14NewFromOneByteEPNS_7IsolateEPKhNS_13NewStringTypeEi(%"class.v8::Isolate"*, i8*, i32, i32) local_unnamed_addr #2

declare %"class.v8::String"* @_ZN2v86String14NewFromTwoByteEPNS_7IsolateEPKtNS_13NewStringTypeEi(%"class.v8::Isolate"*, i16*, i32, i32) local_unnamed_addr #2

declare %"class.v8::String"* @_ZN5blink11StringCache20V8ExternalStringSlowEPN2v87IsolateEPN3WTF10StringImplE(%"class.blink::StringCache"*, %"class.v8::Isolate"*, %"class.WTF::StringImpl"*) local_unnamed_addr #2

declare i64* @_ZN2v811HandleScope12CreateHandleEPNS_8internal7IsolateEm(%"class.v8::internal::Isolate"*, i64) local_unnamed_addr #2

declare void @_ZN2v82V812ToLocalEmptyEv() local_unnamed_addr #2

declare void @_ZN5blink22AuctionAdInterestGroupC1Ev(%"class.blink::AuctionAdInterestGroup"*) unnamed_addr #2

; Function Attrs: nounwind ssp uwtable
define linkonce_odr hidden i8* @_ZN5blink10ThreadHeap8AllocateINS_17IDLDictionaryBaseEEEPhm(i64) local_unnamed_addr #0 comdat align 2 {
  %2 = load %"class.WTF::ThreadSpecific"*, %"class.WTF::ThreadSpecific"** @_ZN5blink11ThreadState16thread_specific_E, align 8
  %3 = getelementptr inbounds %"class.WTF::ThreadSpecific", %"class.WTF::ThreadSpecific"* %2, i64 0, i32 1
  %4 = tail call i8* @_ZNK4base18ThreadLocalStorage4Slot3GetEv(%"class.base::ThreadLocalStorage::Slot"* %3) #8
  %5 = icmp eq i8* %4, null
  br i1 %5, label %6, label %8, !prof !2

6:                                                ; preds = %1
  %7 = tail call i8* @_ZN3WTF10Partitions16FastZeroedMallocEmPKc(i64 8, i8* getelementptr inbounds ([68 x i8], [68 x i8]* @__PRETTY_FUNCTION__._ZN3WTF21GetStringWithTypeNameIPN5blink11ThreadStateEEEPKcv, i64 0, i64 0)) #8
  tail call void @_ZN4base18ThreadLocalStorage4Slot3SetEPv(%"class.base::ThreadLocalStorage::Slot"* %3, i8* %7) #8
  br label %8

8:                                                ; preds = %1, %6
  %9 = phi i8* [ %7, %6 ], [ %4, %1 ]
  %10 = bitcast i8* %9 to %"class.blink::ThreadState"**
  %11 = load %"class.blink::ThreadState"*, %"class.blink::ThreadState"** %10, align 8
  %12 = getelementptr inbounds %"class.blink::ThreadState", %"class.blink::ThreadState"* %11, i64 0, i32 0, i32 0, i32 0, i32 0
  %13 = load %"class.blink::ThreadHeap"*, %"class.blink::ThreadHeap"** %12, align 8
  %14 = icmp ult i64 %0, 64
  %15 = icmp ugt i64 %0, 31
  %16 = zext i1 %15 to i32
  %17 = icmp ult i64 %0, 128
  %18 = select i1 %17, i32 2, i32 3
  %19 = select i1 %14, i32 %16, i32 %18
  %20 = load atomic i32, i32* getelementptr inbounds ({ { i32 } }, { { i32 } }* @_ZZN5blink11GCInfoTraitINS_17IDLDictionaryBaseEE5IndexEvE13gc_info_index, i64 0, i32 0, i32 0) acquire, align 4
  %21 = icmp eq i32 %20, 0
  br i1 %21, label %22, label %25

22:                                               ; preds = %8
  %23 = load %"class.blink::GCInfoTable"*, %"class.blink::GCInfoTable"** @_ZN5blink11GCInfoTable13global_table_E, align 8
  %24 = tail call i32 @_ZN5blink11GCInfoTable17EnsureGCInfoIndexEPKNS_6GCInfoEPNSt3__16atomicIjEE(%"class.blink::GCInfoTable"* %23, %"struct.blink::GCInfo"* nonnull @_ZZN5blink11GCInfoTraitINS_17IDLDictionaryBaseEE5IndexEvE7kGcInfo, %"struct.std::__1::atomic.184"* bitcast ({ { i32 } }* @_ZZN5blink11GCInfoTraitINS_17IDLDictionaryBaseEE5IndexEvE13gc_info_index to %"struct.std::__1::atomic.184"*)) #8
  br label %25

25:                                               ; preds = %8, %22
  %26 = phi i32 [ %20, %8 ], [ %24, %22 ]
  %27 = tail call i8* @_ZN5blink10ThreadHeap20AllocateOnArenaIndexEPNS_11ThreadStateEmijPKc(%"class.blink::ThreadHeap"* %13, %"class.blink::ThreadState"* %11, i64 %0, i32 %19, i32 %26, i8* getelementptr inbounds ([72 x i8], [72 x i8]* @__PRETTY_FUNCTION__._ZN3WTF21GetStringWithTypeNameIN5blink17IDLDictionaryBaseEEEPKcv, i64 0, i64 0))
  ret i8* %27
}

; Function Attrs: inlinehint nounwind ssp uwtable
define linkonce_odr hidden i8* @_ZN5blink10ThreadHeap20AllocateOnArenaIndexEPNS_11ThreadStateEmijPKc(%"class.blink::ThreadHeap"*, %"class.blink::ThreadState"*, i64, i32, i32, i8*) local_unnamed_addr #4 comdat align 2 {
  %7 = alloca %"class.logging::CheckOpResult", align 8
  %8 = alloca %"class.logging::CheckOpResult", align 8
  %9 = alloca %"class.logging::CheckError", align 8
  %10 = sext i32 %3 to i64
  %11 = getelementptr inbounds %"class.blink::ThreadHeap", %"class.blink::ThreadHeap"* %0, i64 0, i32 19, i64 %10
  %12 = bitcast %"class.blink::BaseArena"** %11 to %"class.blink::NormalPageArena"**
  %13 = load %"class.blink::NormalPageArena"*, %"class.blink::NormalPageArena"** %12, align 8
  %14 = bitcast %"class.logging::CheckOpResult"* %8 to i8*
  call void @llvm.lifetime.start.p0i8(i64 8, i8* nonnull %14) #8
  %15 = getelementptr inbounds %"class.logging::CheckOpResult", %"class.logging::CheckOpResult"* %8, i64 0, i32 0
  store i8* inttoptr (i64 -6148914691236517206 to i8*), i8** %15, align 8
  %16 = bitcast %"class.logging::CheckOpResult"* %7 to i8*
  call void @llvm.lifetime.start.p0i8(i64 8, i8* nonnull %16) #8
  %17 = icmp ult i64 %2, -8
  br i1 %17, label %18, label %19

18:                                               ; preds = %6
  call void @llvm.lifetime.end.p0i8(i64 8, i8* nonnull %16) #8
  store i8* null, i8** %15, align 8
  br label %29

19:                                               ; preds = %6
  %20 = add nsw i64 %2, 8
  %21 = tail call i8* @_ZN7logging15CheckOpValueStrEm(i64 %20) #8
  %22 = tail call i8* @_ZN7logging15CheckOpValueStrEm(i64 %2) #8
  call void @_ZN7logging13CheckOpResultC1EPKcPcS3_(%"class.logging::CheckOpResult"* nonnull %7, i8* getelementptr inbounds ([23 x i8], [23 x i8]* @.str.16, i64 0, i64 0), i8* %21, i8* %22) #8
  %23 = getelementptr inbounds %"class.logging::CheckOpResult", %"class.logging::CheckOpResult"* %7, i64 0, i32 0
  %24 = load i8*, i8** %23, align 8
  call void @llvm.lifetime.end.p0i8(i64 8, i8* nonnull %16) #8
  store i8* %24, i8** %15, align 8
  %25 = icmp eq i8* %24, null
  br i1 %25, label %29, label %26

26:                                               ; preds = %19
  %27 = bitcast %"class.logging::CheckError"* %9 to i8*
  call void @llvm.lifetime.start.p0i8(i64 8, i8* nonnull %27) #8
  call void @_ZN7logging10CheckError7CheckOpEPKciPNS_13CheckOpResultE(%"class.logging::CheckError"* nonnull sret %9, i8* getelementptr inbounds ([59 x i8], [59 x i8]* @.str.17, i64 0, i64 0), i32 246, %"class.logging::CheckOpResult"* nonnull %8) #8
  %28 = call dereferenceable(160) %"class.std::__1::basic_ostream"* @_ZN7logging10CheckError6streamEv(%"class.logging::CheckError"* nonnull %9) #8
  call void @_ZN7logging10CheckErrorD1Ev(%"class.logging::CheckError"* nonnull %9) #8
  call void @llvm.lifetime.end.p0i8(i64 8, i8* nonnull %27) #8
  br label %29

29:                                               ; preds = %18, %19, %26
  call void @llvm.lifetime.end.p0i8(i64 8, i8* nonnull %14) #8
  %30 = add i64 %2, 15
  %31 = and i64 %30, -8
  %32 = getelementptr inbounds %"class.blink::NormalPageArena", %"class.blink::NormalPageArena"* %13, i64 0, i32 4
  %33 = load i64, i64* %32, align 8
  %34 = icmp ult i64 %33, %31
  br i1 %34, label %67, label %35, !prof !2

35:                                               ; preds = %29
  %36 = getelementptr inbounds %"class.blink::NormalPageArena", %"class.blink::NormalPageArena"* %13, i64 0, i32 3
  %37 = load i8*, i8** %36, align 8
  %38 = getelementptr inbounds i8, i8* %37, i64 %31
  store i8* %38, i8** %36, align 8
  %39 = sub i64 %33, %31
  store i64 %39, i64* %32, align 8
  %40 = bitcast i8* %37 to i32*
  store i32 0, i32* %40, align 4
  %41 = getelementptr inbounds i8, i8* %37, i64 4
  %42 = bitcast i8* %41 to i16*
  %43 = trunc i32 %4 to i16
  %44 = shl i16 %43, 2
  store atomic i16 %44, i16* %42 monotonic, align 2
  %45 = lshr exact i64 %31, 1
  %46 = trunc i64 %45 to i16
  %47 = getelementptr inbounds i8, i8* %37, i64 6
  %48 = bitcast i8* %47 to i16*
  store i16 %46, i16* %48, align 2
  %49 = ptrtoint i8* %37 to i64
  %50 = and i64 %49, -131072
  %51 = inttoptr i64 %50 to i8*
  %52 = getelementptr inbounds i8, i8* %51, i64 4400
  %53 = bitcast i8* %52 to %"class.blink::PlatformAwareObjectStartBitmap"*
  %54 = bitcast i8* %52 to i64*
  %55 = load i64, i64* %54, align 16
  %56 = sub i64 %49, %55
  %57 = lshr i64 %56, 3
  %58 = lshr i64 %56, 6
  %59 = getelementptr inbounds %"class.blink::PlatformAwareObjectStartBitmap", %"class.blink::PlatformAwareObjectStartBitmap"* %53, i64 0, i32 0, i32 1, i64 %58
  %60 = load i8, i8* %59, align 1
  %61 = trunc i64 %57 to i32
  %62 = and i32 %61, 7
  %63 = shl i32 1, %62
  %64 = trunc i32 %63 to i8
  %65 = or i8 %60, %64
  store atomic i8 %65, i8* %59 release, align 1
  %66 = getelementptr inbounds i8, i8* %37, i64 8
  br label %70

67:                                               ; preds = %29
  %68 = zext i32 %4 to i64
  %69 = call i8* @_ZN5blink15NormalPageArena17OutOfLineAllocateEmm(%"class.blink::NormalPageArena"* %13, i64 %31, i64 %68) #8
  br label %70

70:                                               ; preds = %35, %67
  %71 = phi i8* [ %66, %35 ], [ %69, %67 ]
  ret i8* %71
}

declare i8* @_ZN3WTF10Partitions16FastZeroedMallocEmPKc(i64, i8*) local_unnamed_addr #2

declare i8* @_ZNK4base18ThreadLocalStorage4Slot3GetEv(%"class.base::ThreadLocalStorage::Slot"*) local_unnamed_addr #2

declare void @_ZN4base18ThreadLocalStorage4Slot3SetEPv(%"class.base::ThreadLocalStorage::Slot"*, i8*) local_unnamed_addr #2

declare i8* @_ZN5blink15NormalPageArena17OutOfLineAllocateEmm(%"class.blink::NormalPageArena"*, i64, i64) local_unnamed_addr #2

declare void @_ZN7logging10CheckError7CheckOpEPKciPNS_13CheckOpResultE(%"class.logging::CheckError"* sret, i8*, i32, %"class.logging::CheckOpResult"*) local_unnamed_addr #2

declare i8* @_ZN7logging15CheckOpValueStrEm(i64) local_unnamed_addr #2

declare void @_ZN7logging13CheckOpResultC1EPKcPcS3_(%"class.logging::CheckOpResult"*, i8*, i8*, i8*) unnamed_addr #2

; Function Attrs: nounwind ssp uwtable
define linkonce_odr hidden void @_ZN5blink10TraceTraitINS_17IDLDictionaryBaseEE5TraceEPNS_7VisitorEPKv(%"class.blink::Visitor"*, i8*) #0 comdat align 2 {
  %3 = bitcast i8* %1 to %"class.blink::IDLDictionaryBase"*
  %4 = bitcast i8* %1 to void (%"class.blink::IDLDictionaryBase"*, %"class.blink::Visitor"*)***
  %5 = load void (%"class.blink::IDLDictionaryBase"*, %"class.blink::Visitor"*)**, void (%"class.blink::IDLDictionaryBase"*, %"class.blink::Visitor"*)*** %4, align 8
  %6 = getelementptr inbounds void (%"class.blink::IDLDictionaryBase"*, %"class.blink::Visitor"*)*, void (%"class.blink::IDLDictionaryBase"*, %"class.blink::Visitor"*)** %5, i64 3
  %7 = load void (%"class.blink::IDLDictionaryBase"*, %"class.blink::Visitor"*)*, void (%"class.blink::IDLDictionaryBase"*, %"class.blink::Visitor"*)** %6, align 8
  tail call void %7(%"class.blink::IDLDictionaryBase"* %3, %"class.blink::Visitor"* %0) #8
  ret void
}

; Function Attrs: nounwind ssp uwtable
define linkonce_odr hidden void @_ZN5blink8internal14FinalizerTraitINS_17IDLDictionaryBaseEE8FinalizeEPv(i8*) #0 comdat align 2 {
  %2 = bitcast i8* %0 to %"class.blink::IDLDictionaryBase"*
  %3 = bitcast i8* %0 to void (%"class.blink::IDLDictionaryBase"*)***
  %4 = load void (%"class.blink::IDLDictionaryBase"*)**, void (%"class.blink::IDLDictionaryBase"*)*** %3, align 8
  %5 = load void (%"class.blink::IDLDictionaryBase"*)*, void (%"class.blink::IDLDictionaryBase"*)** %4, align 8
  tail call void %5(%"class.blink::IDLDictionaryBase"* %2) #8
  ret void
}

; Function Attrs: nounwind ssp uwtable
define linkonce_odr hidden { i8*, i8 } @_ZN5blink9NameTraitINS_17IDLDictionaryBaseEE7GetNameEPKv(i8*) #0 comdat align 2 {
  ret { i8*, i8 } { i8* getelementptr inbounds ([13 x i8], [13 x i8]* @.str.18, i64 0, i64 0), i8 1 }
}

declare i32 @_ZN5blink11GCInfoTable17EnsureGCInfoIndexEPKNS_6GCInfoEPNSt3__16atomicIjEE(%"class.blink::GCInfoTable"*, %"struct.blink::GCInfo"*, %"struct.std::__1::atomic.184"*) local_unnamed_addr #2

declare zeroext i1 @_ZNK2v85Value7IsArrayEv(%"class.v8::Value"*) local_unnamed_addr #2

; Function Attrs: nounwind ssp uwtable
define linkonce_odr hidden void @_ZN5blink8bindings28CreateIDLSequenceFromV8ArrayINS_9AuctionAdEEENS_17NativeValueTraitsINS_11IDLSequenceIT_EEvE8ImplTypeEPN2v87IsolateENS9_5LocalINS9_5ArrayEEERNS_14ExceptionStateE(%"class.blink::HeapVector"* noalias sret, %"class.v8::Isolate"*, %"class.v8::Array"*, %"class.blink::ExceptionState"* dereferenceable(72)) local_unnamed_addr #0 comdat {
  %5 = alloca %"class.blink::HeapVector", align 8
  %6 = alloca %"class.v8::TryCatch", align 8
  %7 = alloca %"class.blink::AuctionAd"*, align 8
  %8 = tail call i32 @_ZNK2v85Array6LengthEv(%"class.v8::Array"* %2) #8
  %9 = zext i32 %8 to i64
  %10 = icmp ugt i32 %8, 16777216
  br i1 %10, label %11, label %13

11:                                               ; preds = %4
  tail call void @_ZN5blink14ExceptionState15ThrowRangeErrorEPKc(%"class.blink::ExceptionState"* %3, i8* getelementptr inbounds ([38 x i8], [38 x i8]* @.str.21, i64 0, i64 0)) #8
  %12 = bitcast %"class.blink::HeapVector"* %0 to i8*
  call void @llvm.memset.p0i8.i64(i8* align 8 %12, i8 0, i64 16, i1 false)
  br label %112

13:                                               ; preds = %4
  %14 = bitcast %"class.blink::HeapVector"* %5 to i8*
  call void @llvm.lifetime.start.p0i8(i64 16, i8* nonnull %14) #8
  %15 = getelementptr inbounds %"class.blink::HeapVector", %"class.blink::HeapVector"* %5, i64 0, i32 0, i32 0, i32 0, i32 0
  %16 = getelementptr inbounds %"class.blink::HeapVector", %"class.blink::HeapVector"* %5, i64 0, i32 0, i32 0, i32 0, i32 1
  %17 = getelementptr inbounds %"class.blink::HeapVector", %"class.blink::HeapVector"* %5, i64 0, i32 0, i32 0, i32 0, i32 2
  call void @llvm.memset.p0i8.i64(i8* nonnull align 8 %14, i8 0, i64 16, i1 false) #8
  %18 = getelementptr inbounds %"class.blink::HeapVector", %"class.blink::HeapVector"* %5, i64 0, i32 0
  %19 = icmp eq i32 %8, 0
  br i1 %19, label %32, label %20

20:                                               ; preds = %13
  %21 = tail call i64 @_ZN5blink13HeapAllocator13QuantizedSizeINS_6MemberINS_9AuctionAdEEEEEmm(i64 %9) #8
  %22 = lshr i64 %21, 3
  %23 = tail call %"class.blink::HeapVectorBacking"* @_ZN5blink25MakeGarbageCollectedTraitINS_17HeapVectorBackingINS_6MemberINS_9AuctionAdEEEN3WTF12VectorTraitsIS4_EEEEE4CallEm(i64 %22) #8
  %24 = ptrtoint %"class.blink::HeapVectorBacking"* %23 to i64
  %25 = bitcast %"class.blink::HeapVector"* %5 to i64*
  store atomic i64 %24, i64* %25 monotonic, align 8
  %26 = trunc i64 %22 to i32
  store i32 %26, i32* %16, align 8
  %27 = load atomic i32, i32* getelementptr inbounds (%"class.blink::AtomicEntryFlag", %"class.blink::AtomicEntryFlag"* @_ZN5blink11ThreadState25incremental_marking_flag_E, i64 0, i32 0, i32 0, i32 0, i32 0, i32 0, i32 0) monotonic, align 4
  %28 = icmp eq i32 %27, 0
  br i1 %28, label %32, label %29

29:                                               ; preds = %20
  %30 = getelementptr inbounds %"class.blink::HeapVectorBacking", %"class.blink::HeapVectorBacking"* %23, i64 0, i32 0
  %31 = tail call zeroext i1 @_ZN5blink14MarkingVisitor16WriteBarrierSlowEPv(i8* %30) #8
  br label %32

32:                                               ; preds = %13, %20, %29
  %33 = phi i32 [ 0, %13 ], [ %26, %20 ], [ %26, %29 ]
  %34 = phi i64 [ 0, %13 ], [ %24, %20 ], [ %24, %29 ]
  %35 = tail call %"class.v8::Context"* @_ZN2v87Isolate17GetCurrentContextEv(%"class.v8::Isolate"* %1) #8
  %36 = bitcast %"class.v8::TryCatch"* %6 to i8*
  call void @llvm.lifetime.start.p0i8(i64 48, i8* nonnull %36) #8
  call void @llvm.memset.p0i8.i64(i8* nonnull align 8 %36, i8 -86, i64 48, i1 false)
  call void @_ZN2v88TryCatchC1EPNS_7IsolateE(%"class.v8::TryCatch"* nonnull %6, %"class.v8::Isolate"* %1) #8
  %37 = call i32 @_ZNK2v85Array6LengthEv(%"class.v8::Array"* %2) #8
  %38 = icmp eq i32 %37, 0
  br i1 %38, label %39, label %41

39:                                               ; preds = %32
  %40 = bitcast %"class.blink::HeapVector"* %5 to i64*
  br label %90

41:                                               ; preds = %32
  %42 = bitcast %"class.v8::Array"* %2 to %"class.v8::Object"*
  %43 = bitcast %"class.blink::AuctionAd"** %7 to i8*
  %44 = getelementptr inbounds %"class.blink::ExceptionState", %"class.blink::ExceptionState"* %3, i64 0, i32 4
  br label %45

45:                                               ; preds = %41, %81
  %46 = phi i32 [ 0, %41 ], [ %82, %81 ]
  %47 = call %"class.v8::Value"* @_ZN2v86Object3GetENS_5LocalINS_7ContextEEEj(%"class.v8::Object"* %42, %"class.v8::Context"* %35, i32 %46) #8
  %48 = icmp eq %"class.v8::Value"* %47, null
  br i1 %48, label %49, label %56

49:                                               ; preds = %45
  %50 = call %"class.v8::Value"* @_ZNK2v88TryCatch9ExceptionEv(%"class.v8::TryCatch"* nonnull %6) #8
  %51 = bitcast %"class.blink::ExceptionState"* %3 to void (%"class.blink::ExceptionState"*, %"class.v8::Value"*)***
  %52 = load void (%"class.blink::ExceptionState"*, %"class.v8::Value"*)**, void (%"class.blink::ExceptionState"*, %"class.v8::Value"*)*** %51, align 8
  %53 = getelementptr inbounds void (%"class.blink::ExceptionState"*, %"class.v8::Value"*)*, void (%"class.blink::ExceptionState"*, %"class.v8::Value"*)** %52, i64 5
  %54 = load void (%"class.blink::ExceptionState"*, %"class.v8::Value"*)*, void (%"class.blink::ExceptionState"*, %"class.v8::Value"*)** %53, align 8
  call void %54(%"class.blink::ExceptionState"* %3, %"class.v8::Value"* %50) #8
  %55 = bitcast %"class.blink::HeapVector"* %0 to i8*
  call void @llvm.memset.p0i8.i64(i8* align 8 %55, i8 0, i64 16, i1 false)
  br label %111

56:                                               ; preds = %45
  call void @llvm.lifetime.start.p0i8(i64 8, i8* nonnull %43) #8
  %57 = call %"class.blink::AuctionAd"* @_ZN5blink17NativeValueTraitsINS_9AuctionAdEvE11NativeValueEPN2v87IsolateENS3_5LocalINS3_5ValueEEERNS_14ExceptionStateE(%"class.v8::Isolate"* %1, %"class.v8::Value"* nonnull %47, %"class.blink::ExceptionState"* dereferenceable(72) %3) #8
  store %"class.blink::AuctionAd"* %57, %"class.blink::AuctionAd"** %7, align 8
  %58 = load i32, i32* %44, align 8
  %59 = icmp eq i32 %58, 0
  %60 = ptrtoint %"class.blink::AuctionAd"* %57 to i64
  br i1 %59, label %61, label %79

61:                                               ; preds = %56
  %62 = load i32, i32* %17, align 4
  %63 = load i32, i32* %16, align 8
  %64 = icmp eq i32 %62, %63
  br i1 %64, label %78, label %65, !prof !2

65:                                               ; preds = %61
  %66 = load %"class.blink::Member"*, %"class.blink::Member"** %15, align 8
  %67 = zext i32 %62 to i64
  %68 = getelementptr inbounds %"class.blink::Member", %"class.blink::Member"* %66, i64 %67
  %69 = bitcast %"class.blink::Member"* %68 to i64*
  store atomic i64 %60, i64* %69 monotonic, align 8
  %70 = load atomic i32, i32* getelementptr inbounds (%"class.blink::AtomicEntryFlag", %"class.blink::AtomicEntryFlag"* @_ZN5blink11ThreadState25incremental_marking_flag_E, i64 0, i32 0, i32 0, i32 0, i32 0, i32 0, i32 0) monotonic, align 4
  %71 = icmp eq i32 %70, 0
  br i1 %71, label %75, label %72

72:                                               ; preds = %65
  %73 = bitcast %"class.blink::AuctionAd"* %57 to i8*
  %74 = call zeroext i1 @_ZN5blink14MarkingVisitor16WriteBarrierSlowEPv(i8* %73) #8
  br label %75

75:                                               ; preds = %72, %65
  %76 = load i32, i32* %17, align 4
  %77 = add i32 %76, 1
  store i32 %77, i32* %17, align 4
  br label %81

78:                                               ; preds = %61
  call void @_ZN3WTF6VectorIN5blink6MemberINS1_9AuctionAdEEELj0ENS1_13HeapAllocatorEE14AppendSlowCaseIPS3_EEvOT_(%"class.WTF::Vector"* nonnull %18, %"class.blink::AuctionAd"** nonnull dereferenceable(8) %7) #8
  br label %81

79:                                               ; preds = %56
  %80 = bitcast %"class.blink::HeapVector"* %0 to i8*
  call void @llvm.memset.p0i8.i64(i8* align 8 %80, i8 0, i64 16, i1 false)
  call void @llvm.lifetime.end.p0i8(i64 8, i8* nonnull %43) #8
  br label %111

81:                                               ; preds = %75, %78
  call void @llvm.lifetime.end.p0i8(i64 8, i8* nonnull %43) #8
  %82 = add nuw i32 %46, 1
  %83 = call i32 @_ZNK2v85Array6LengthEv(%"class.v8::Array"* %2) #8
  %84 = icmp ult i32 %82, %83
  br i1 %84, label %45, label %85

85:                                               ; preds = %81
  %86 = bitcast %"class.blink::HeapVector"* %5 to i64*
  %87 = load i64, i64* %86, align 8
  %88 = load i32, i32* %16, align 8
  %89 = load i32, i32* %17, align 4
  br label %90

90:                                               ; preds = %39, %85
  %91 = phi i64* [ %40, %39 ], [ %86, %85 ]
  %92 = phi i32 [ 0, %39 ], [ %89, %85 ]
  %93 = phi i32 [ %33, %39 ], [ %88, %85 ]
  %94 = phi i64 [ %34, %39 ], [ %87, %85 ]
  %95 = getelementptr inbounds %"class.blink::HeapVector", %"class.blink::HeapVector"* %0, i64 0, i32 0, i32 0, i32 0, i32 1
  %96 = getelementptr inbounds %"class.blink::HeapVector", %"class.blink::HeapVector"* %0, i64 0, i32 0, i32 0, i32 0, i32 2
  %97 = bitcast %"class.blink::HeapVector"* %0 to i64*
  store i64 0, i64* %97, align 8
  %98 = bitcast %"class.blink::HeapVector"* %0 to i64*
  store atomic i64 0, i64* %91 monotonic, align 8
  store atomic i64 %94, i64* %98 monotonic, align 8
  store i32 %93, i32* %95, align 8
  store i32 0, i32* %16, align 8
  store i32 %92, i32* %96, align 4
  store i32 0, i32* %17, align 4
  %99 = load atomic i32, i32* getelementptr inbounds (%"class.blink::AtomicEntryFlag", %"class.blink::AtomicEntryFlag"* @_ZN5blink11ThreadState25incremental_marking_flag_E, i64 0, i32 0, i32 0, i32 0, i32 0, i32 0, i32 0) monotonic, align 4
  %100 = icmp eq i32 %99, 0
  br i1 %100, label %104, label %101

101:                                              ; preds = %90
  %102 = inttoptr i64 %94 to i8*
  %103 = call zeroext i1 @_ZN5blink14MarkingVisitor16WriteBarrierSlowEPv(i8* %102) #8
  br label %104

104:                                              ; preds = %101, %90
  %105 = load atomic i32, i32* getelementptr inbounds (%"class.blink::AtomicEntryFlag", %"class.blink::AtomicEntryFlag"* @_ZN5blink11ThreadState25incremental_marking_flag_E, i64 0, i32 0, i32 0, i32 0, i32 0, i32 0, i32 0) monotonic, align 4
  %106 = icmp eq i32 %105, 0
  br i1 %106, label %111, label %107

107:                                              ; preds = %104
  %108 = bitcast %"class.blink::HeapVector"* %5 to i8**
  %109 = load i8*, i8** %108, align 8
  %110 = call zeroext i1 @_ZN5blink14MarkingVisitor16WriteBarrierSlowEPv(i8* %109) #8
  br label %111

111:                                              ; preds = %49, %79, %107, %104
  call void @_ZN2v88TryCatchD1Ev(%"class.v8::TryCatch"* nonnull %6) #8
  call void @llvm.lifetime.end.p0i8(i64 48, i8* nonnull %36) #8
  call void @llvm.lifetime.end.p0i8(i64 16, i8* nonnull %14) #8
  br label %112

112:                                              ; preds = %111, %11
  ret void
}

declare void @_ZN5blink14ScriptIterator12FromIterableEPN2v87IsolateENS1_5LocalINS1_6ObjectEEERNS_14ExceptionStateE(%"class.blink::ScriptIterator"* sret, %"class.v8::Isolate"*, %"class.v8::Object"*, %"class.blink::ExceptionState"* dereferenceable(72)) local_unnamed_addr #2

; Function Attrs: nounwind ssp uwtable
define linkonce_odr hidden void @_ZN5blink8bindings29CreateIDLSequenceFromIteratorINS_9AuctionAdEEENS_17NativeValueTraitsINS_11IDLSequenceIT_EEvE8ImplTypeEPN2v87IsolateENS_14ScriptIteratorERNS_14ExceptionStateE(%"class.blink::HeapVector"* noalias sret, %"class.v8::Isolate"*, %"class.blink::ScriptIterator"* byval(%"class.blink::ScriptIterator") align 8, %"class.blink::ExceptionState"* dereferenceable(72)) local_unnamed_addr #0 comdat {
  %5 = alloca %"class.blink::HeapVector", align 8
  %6 = alloca %"class.blink::AuctionAd"*, align 8
  %7 = tail call %"class.v8::Context"* @_ZN2v87Isolate17GetCurrentContextEv(%"class.v8::Isolate"* %1) #8
  %8 = tail call %"class.blink::ExecutionContext"* @_ZN5blink18ToExecutionContextEN2v85LocalINS0_7ContextEEE(%"class.v8::Context"* %7) #8
  %9 = bitcast %"class.blink::HeapVector"* %5 to i8*
  call void @llvm.lifetime.start.p0i8(i64 16, i8* nonnull %9) #8
  %10 = getelementptr inbounds %"class.blink::HeapVector", %"class.blink::HeapVector"* %5, i64 0, i32 0, i32 0, i32 0, i32 0
  %11 = getelementptr inbounds %"class.blink::HeapVector", %"class.blink::HeapVector"* %5, i64 0, i32 0, i32 0, i32 0, i32 1
  %12 = getelementptr inbounds %"class.blink::HeapVector", %"class.blink::HeapVector"* %5, i64 0, i32 0, i32 0, i32 0, i32 2
  call void @llvm.memset.p0i8.i64(i8* nonnull align 8 %9, i8 0, i64 16, i1 false) #8
  %13 = call zeroext i1 @_ZN5blink14ScriptIterator4NextEPNS_16ExecutionContextERNS_14ExceptionStateEN2v85LocalINS5_5ValueEEE(%"class.blink::ScriptIterator"* nonnull %2, %"class.blink::ExecutionContext"* %8, %"class.blink::ExceptionState"* dereferenceable(72) %3, %"class.v8::Value"* null) #8
  br i1 %13, label %14, label %50

14:                                               ; preds = %4
  %15 = getelementptr inbounds %"class.blink::ScriptIterator", %"class.blink::ScriptIterator"* %2, i64 0, i32 6, i32 0
  %16 = bitcast %"class.blink::AuctionAd"** %6 to i8*
  %17 = getelementptr inbounds %"class.blink::ExceptionState", %"class.blink::ExceptionState"* %3, i64 0, i32 4
  %18 = getelementptr inbounds %"class.blink::HeapVector", %"class.blink::HeapVector"* %5, i64 0, i32 0
  br label %19

19:                                               ; preds = %14, %48
  %20 = load %"class.v8::Value"*, %"class.v8::Value"** %15, align 8
  %21 = icmp eq %"class.v8::Value"* %20, null
  br i1 %21, label %22, label %23, !prof !2

22:                                               ; preds = %19
  call void @_ZN2v82V812ToLocalEmptyEv() #8
  br label %23

23:                                               ; preds = %19, %22
  call void @llvm.lifetime.start.p0i8(i64 8, i8* nonnull %16) #8
  %24 = call %"class.blink::AuctionAd"* @_ZN5blink17NativeValueTraitsINS_9AuctionAdEvE11NativeValueEPN2v87IsolateENS3_5LocalINS3_5ValueEEERNS_14ExceptionStateE(%"class.v8::Isolate"* %1, %"class.v8::Value"* %20, %"class.blink::ExceptionState"* dereferenceable(72) %3) #8
  store %"class.blink::AuctionAd"* %24, %"class.blink::AuctionAd"** %6, align 8
  %25 = load i32, i32* %17, align 8
  %26 = icmp eq i32 %25, 0
  %27 = ptrtoint %"class.blink::AuctionAd"* %24 to i64
  br i1 %26, label %30, label %28

28:                                               ; preds = %23
  %29 = bitcast %"class.blink::HeapVector"* %0 to i8*
  call void @llvm.memset.p0i8.i64(i8* align 8 %29, i8 0, i64 16, i1 false)
  call void @llvm.lifetime.end.p0i8(i64 8, i8* nonnull %16) #8
  br label %77

30:                                               ; preds = %23
  %31 = load i32, i32* %12, align 4
  %32 = load i32, i32* %11, align 8
  %33 = icmp eq i32 %31, %32
  br i1 %33, label %47, label %34, !prof !2

34:                                               ; preds = %30
  %35 = load %"class.blink::Member"*, %"class.blink::Member"** %10, align 8
  %36 = zext i32 %31 to i64
  %37 = getelementptr inbounds %"class.blink::Member", %"class.blink::Member"* %35, i64 %36
  %38 = bitcast %"class.blink::Member"* %37 to i64*
  store atomic i64 %27, i64* %38 monotonic, align 8
  %39 = load atomic i32, i32* getelementptr inbounds (%"class.blink::AtomicEntryFlag", %"class.blink::AtomicEntryFlag"* @_ZN5blink11ThreadState25incremental_marking_flag_E, i64 0, i32 0, i32 0, i32 0, i32 0, i32 0, i32 0) monotonic, align 4
  %40 = icmp eq i32 %39, 0
  br i1 %40, label %44, label %41

41:                                               ; preds = %34
  %42 = bitcast %"class.blink::AuctionAd"* %24 to i8*
  %43 = call zeroext i1 @_ZN5blink14MarkingVisitor16WriteBarrierSlowEPv(i8* %42) #8
  br label %44

44:                                               ; preds = %41, %34
  %45 = load i32, i32* %12, align 4
  %46 = add i32 %45, 1
  store i32 %46, i32* %12, align 4
  br label %48

47:                                               ; preds = %30
  call void @_ZN3WTF6VectorIN5blink6MemberINS1_9AuctionAdEEELj0ENS1_13HeapAllocatorEE14AppendSlowCaseIPS3_EEvOT_(%"class.WTF::Vector"* nonnull %18, %"class.blink::AuctionAd"** nonnull dereferenceable(8) %6) #8
  br label %48

48:                                               ; preds = %44, %47
  call void @llvm.lifetime.end.p0i8(i64 8, i8* nonnull %16) #8
  %49 = call zeroext i1 @_ZN5blink14ScriptIterator4NextEPNS_16ExecutionContextERNS_14ExceptionStateEN2v85LocalINS5_5ValueEEE(%"class.blink::ScriptIterator"* nonnull %2, %"class.blink::ExecutionContext"* %8, %"class.blink::ExceptionState"* dereferenceable(72) %3, %"class.v8::Value"* null) #8
  br i1 %49, label %19, label %50

50:                                               ; preds = %48, %4
  %51 = getelementptr inbounds %"class.blink::ExceptionState", %"class.blink::ExceptionState"* %3, i64 0, i32 4
  %52 = load i32, i32* %51, align 8
  %53 = icmp eq i32 %52, 0
  br i1 %53, label %56, label %54

54:                                               ; preds = %50
  %55 = bitcast %"class.blink::HeapVector"* %0 to i8*
  call void @llvm.memset.p0i8.i64(i8* align 8 %55, i8 0, i64 16, i1 false)
  br label %77

56:                                               ; preds = %50
  %57 = getelementptr inbounds %"class.blink::HeapVector", %"class.blink::HeapVector"* %0, i64 0, i32 0, i32 0, i32 0, i32 1
  %58 = getelementptr inbounds %"class.blink::HeapVector", %"class.blink::HeapVector"* %0, i64 0, i32 0, i32 0, i32 0, i32 2
  %59 = bitcast %"class.blink::HeapVector"* %5 to i64*
  %60 = bitcast %"class.blink::HeapVector"* %0 to i64*
  store i64 0, i64* %60, align 8
  %61 = load i64, i64* %59, align 8
  %62 = bitcast %"class.blink::HeapVector"* %0 to i64*
  store atomic i64 0, i64* %59 monotonic, align 8
  store atomic i64 %61, i64* %62 monotonic, align 8
  %63 = load i32, i32* %11, align 8
  store i32 %63, i32* %57, align 8
  store i32 0, i32* %11, align 8
  %64 = load i32, i32* %12, align 4
  store i32 %64, i32* %58, align 4
  store i32 0, i32* %12, align 4
  %65 = load atomic i32, i32* getelementptr inbounds (%"class.blink::AtomicEntryFlag", %"class.blink::AtomicEntryFlag"* @_ZN5blink11ThreadState25incremental_marking_flag_E, i64 0, i32 0, i32 0, i32 0, i32 0, i32 0, i32 0) monotonic, align 4
  %66 = icmp eq i32 %65, 0
  br i1 %66, label %70, label %67

67:                                               ; preds = %56
  %68 = inttoptr i64 %61 to i8*
  %69 = call zeroext i1 @_ZN5blink14MarkingVisitor16WriteBarrierSlowEPv(i8* %68) #8
  br label %70

70:                                               ; preds = %67, %56
  %71 = load atomic i32, i32* getelementptr inbounds (%"class.blink::AtomicEntryFlag", %"class.blink::AtomicEntryFlag"* @_ZN5blink11ThreadState25incremental_marking_flag_E, i64 0, i32 0, i32 0, i32 0, i32 0, i32 0, i32 0) monotonic, align 4
  %72 = icmp eq i32 %71, 0
  br i1 %72, label %77, label %73

73:                                               ; preds = %70
  %74 = bitcast %"class.blink::HeapVector"* %5 to i8**
  %75 = load i8*, i8** %74, align 8
  %76 = call zeroext i1 @_ZN5blink14MarkingVisitor16WriteBarrierSlowEPv(i8* %75) #8
  br label %77

77:                                               ; preds = %73, %70, %28, %54
  call void @llvm.lifetime.end.p0i8(i64 16, i8* nonnull %9) #8
  ret void
}

declare i32 @_ZNK2v85Array6LengthEv(%"class.v8::Array"*) local_unnamed_addr #2

declare void @_ZN5blink14ExceptionState15ThrowRangeErrorEPKc(%"class.blink::ExceptionState"*, i8*) local_unnamed_addr #2

declare %"class.v8::Value"* @_ZN2v86Object3GetENS_5LocalINS_7ContextEEEj(%"class.v8::Object"*, %"class.v8::Context"*, i32) local_unnamed_addr #2

declare %"class.blink::AuctionAd"* @_ZN5blink17NativeValueTraitsINS_9AuctionAdEvE11NativeValueEPN2v87IsolateENS3_5LocalINS3_5ValueEEERNS_14ExceptionStateE(%"class.v8::Isolate"*, %"class.v8::Value"*, %"class.blink::ExceptionState"* dereferenceable(72)) local_unnamed_addr #2

; Function Attrs: nounwind ssp uwtable
define linkonce_odr hidden i64 @_ZN5blink13HeapAllocator13QuantizedSizeINS_6MemberINS_9AuctionAdEEEEEmm(i64) local_unnamed_addr #0 comdat align 2 {
  %2 = alloca %"class.logging::CheckOpResult", align 8
  %3 = alloca %"class.logging::CheckOpResult", align 8
  %4 = alloca %"class.logging::CheckError", align 8
  %5 = bitcast %"class.logging::CheckOpResult"* %3 to i8*
  call void @llvm.lifetime.start.p0i8(i64 8, i8* nonnull %5) #8
  %6 = getelementptr inbounds %"class.logging::CheckOpResult", %"class.logging::CheckOpResult"* %3, i64 0, i32 0
  store i8* inttoptr (i64 -6148914691236517206 to i8*), i8** %6, align 8
  %7 = bitcast %"class.logging::CheckOpResult"* %2 to i8*
  call void @llvm.lifetime.start.p0i8(i64 8, i8* nonnull %7)
  %8 = icmp ugt i64 %0, 16777216
  br i1 %8, label %10, label %9

9:                                                ; preds = %1
  call void @llvm.lifetime.end.p0i8(i64 8, i8* nonnull %7)
  store i8* null, i8** %6, align 8
  br label %19

10:                                               ; preds = %1
  %11 = tail call i8* @_ZN7logging15CheckOpValueStrEm(i64 %0) #8
  %12 = tail call i8* @_ZN7logging15CheckOpValueStrEm(i64 16777216) #8
  call void @_ZN7logging13CheckOpResultC1EPKcPcS3_(%"class.logging::CheckOpResult"* nonnull %2, i8* getelementptr inbounds ([44 x i8], [44 x i8]* @.str.22, i64 0, i64 0), i8* %11, i8* %12) #8
  %13 = getelementptr inbounds %"class.logging::CheckOpResult", %"class.logging::CheckOpResult"* %2, i64 0, i32 0
  %14 = load i8*, i8** %13, align 8
  call void @llvm.lifetime.end.p0i8(i64 8, i8* nonnull %7)
  store i8* %14, i8** %6, align 8
  %15 = icmp eq i8* %14, null
  br i1 %15, label %19, label %16

16:                                               ; preds = %10
  %17 = bitcast %"class.logging::CheckError"* %4 to i8*
  call void @llvm.lifetime.start.p0i8(i64 8, i8* nonnull %17) #8
  call void @_ZN7logging10CheckError7CheckOpEPKciPNS_13CheckOpResultE(%"class.logging::CheckError"* nonnull sret %4, i8* getelementptr inbounds ([74 x i8], [74 x i8]* @.str.23, i64 0, i64 0), i32 39, %"class.logging::CheckOpResult"* nonnull %3) #8
  %18 = call dereferenceable(160) %"class.std::__1::basic_ostream"* @_ZN7logging10CheckError6streamEv(%"class.logging::CheckError"* nonnull %4) #8
  call void @_ZN7logging10CheckErrorD1Ev(%"class.logging::CheckError"* nonnull %4) #8
  call void @llvm.lifetime.end.p0i8(i64 8, i8* nonnull %17) #8
  br label %19

19:                                               ; preds = %9, %10, %16
  call void @llvm.lifetime.end.p0i8(i64 8, i8* nonnull %5) #8
  %20 = shl i64 %0, 3
  ret i64 %20
}

; Function Attrs: nounwind ssp uwtable
define linkonce_odr hidden %"class.blink::HeapVectorBacking"* @_ZN5blink25MakeGarbageCollectedTraitINS_17HeapVectorBackingINS_6MemberINS_9AuctionAdEEEN3WTF12VectorTraitsIS4_EEEEE4CallEm(i64) local_unnamed_addr #0 comdat align 2 {
  %2 = alloca %"class.logging::CheckOpResult", align 8
  %3 = alloca %"class.logging::CheckOpResult", align 8
  %4 = alloca %"class.logging::CheckError", align 8
  %5 = bitcast %"class.logging::CheckOpResult"* %3 to i8*
  call void @llvm.lifetime.start.p0i8(i64 8, i8* nonnull %5) #8
  %6 = getelementptr inbounds %"class.logging::CheckOpResult", %"class.logging::CheckOpResult"* %3, i64 0, i32 0
  store i8* inttoptr (i64 -6148914691236517206 to i8*), i8** %6, align 8
  %7 = bitcast %"class.logging::CheckOpResult"* %2 to i8*
  call void @llvm.lifetime.start.p0i8(i64 8, i8* nonnull %7)
  %8 = icmp eq i64 %0, 0
  br i1 %8, label %10, label %9

9:                                                ; preds = %1
  call void @llvm.lifetime.end.p0i8(i64 8, i8* nonnull %7)
  store i8* null, i8** %6, align 8
  br label %19

10:                                               ; preds = %1
  %11 = tail call i8* @_ZN7logging15CheckOpValueStrEm(i64 0) #8
  %12 = tail call i8* @_ZN7logging15CheckOpValueStrEj(i32 0) #8
  call void @_ZN7logging13CheckOpResultC1EPKcPcS3_(%"class.logging::CheckOpResult"* nonnull %2, i8* getelementptr inbounds ([18 x i8], [18 x i8]* @.str.24, i64 0, i64 0), i8* %11, i8* %12) #8
  %13 = getelementptr inbounds %"class.logging::CheckOpResult", %"class.logging::CheckOpResult"* %2, i64 0, i32 0
  %14 = load i8*, i8** %13, align 8
  call void @llvm.lifetime.end.p0i8(i64 8, i8* nonnull %7)
  store i8* %14, i8** %6, align 8
  %15 = icmp eq i8* %14, null
  br i1 %15, label %19, label %16

16:                                               ; preds = %10
  %17 = bitcast %"class.logging::CheckError"* %4 to i8*
  call void @llvm.lifetime.start.p0i8(i64 8, i8* nonnull %17) #8
  call void @_ZN7logging10CheckError7CheckOpEPKciPNS_13CheckOpResultE(%"class.logging::CheckError"* nonnull sret %4, i8* getelementptr inbounds ([93 x i8], [93 x i8]* @.str.25, i64 0, i64 0), i32 86, %"class.logging::CheckOpResult"* nonnull %3) #8
  %18 = call dereferenceable(160) %"class.std::__1::basic_ostream"* @_ZN7logging10CheckError6streamEv(%"class.logging::CheckError"* nonnull %4) #8
  call void @_ZN7logging10CheckErrorD1Ev(%"class.logging::CheckError"* nonnull %4) #8
  call void @llvm.lifetime.end.p0i8(i64 8, i8* nonnull %17) #8
  br label %19

19:                                               ; preds = %9, %10, %16
  call void @llvm.lifetime.end.p0i8(i64 8, i8* nonnull %5) #8
  %20 = shl i64 %0, 3
  %21 = call i8* @_ZN5blink17HeapVectorBackingINS_6MemberINS_9AuctionAdEEEN3WTF12VectorTraitsIS3_EEE14AllocateObjectIS7_EEPvm(i64 %20)
  %22 = bitcast i8* %21 to %"class.blink::HeapVectorBacking"*
  %23 = getelementptr inbounds i8, i8* %21, i64 -4
  %24 = bitcast i8* %23 to i16*
  %25 = load atomic i16, i16* %24 monotonic, align 2
  %26 = or i16 %25, 1
  store atomic i16 %26, i16* %24 release, align 2
  ret %"class.blink::HeapVectorBacking"* %22
}

; Function Attrs: nounwind ssp uwtable
define linkonce_odr hidden i8* @_ZN5blink17HeapVectorBackingINS_6MemberINS_9AuctionAdEEEN3WTF12VectorTraitsIS3_EEE14AllocateObjectIS7_EEPvm(i64) local_unnamed_addr #0 comdat align 2 {
  %2 = load %"class.WTF::ThreadSpecific"*, %"class.WTF::ThreadSpecific"** @_ZN5blink11ThreadState16thread_specific_E, align 8
  %3 = getelementptr inbounds %"class.WTF::ThreadSpecific", %"class.WTF::ThreadSpecific"* %2, i64 0, i32 1
  %4 = tail call i8* @_ZNK4base18ThreadLocalStorage4Slot3GetEv(%"class.base::ThreadLocalStorage::Slot"* %3) #8
  %5 = icmp eq i8* %4, null
  br i1 %5, label %6, label %8, !prof !2

6:                                                ; preds = %1
  %7 = tail call i8* @_ZN3WTF10Partitions16FastZeroedMallocEmPKc(i64 8, i8* getelementptr inbounds ([68 x i8], [68 x i8]* @__PRETTY_FUNCTION__._ZN3WTF21GetStringWithTypeNameIPN5blink11ThreadStateEEEPKcv, i64 0, i64 0)) #8
  tail call void @_ZN4base18ThreadLocalStorage4Slot3SetEPv(%"class.base::ThreadLocalStorage::Slot"* %3, i8* %7) #8
  br label %8

8:                                                ; preds = %1, %6
  %9 = phi i8* [ %7, %6 ], [ %4, %1 ]
  %10 = bitcast i8* %9 to %"class.blink::ThreadState"**
  %11 = load %"class.blink::ThreadState"*, %"class.blink::ThreadState"** %10, align 8
  %12 = getelementptr inbounds %"class.blink::ThreadState", %"class.blink::ThreadState"* %11, i64 0, i32 0, i32 0, i32 0, i32 0
  %13 = load %"class.blink::ThreadHeap"*, %"class.blink::ThreadHeap"** %12, align 8
  %14 = load atomic i32, i32* getelementptr inbounds ({ { i32 } }, { { i32 } }* @_ZZN5blink11GCInfoTraitINS_17HeapVectorBackingINS_6MemberINS_9AuctionAdEEEN3WTF12VectorTraitsIS4_EEEEE5IndexEvE13gc_info_index, i64 0, i32 0, i32 0) acquire, align 4
  %15 = icmp eq i32 %14, 0
  br i1 %15, label %16, label %19

16:                                               ; preds = %8
  %17 = load %"class.blink::GCInfoTable"*, %"class.blink::GCInfoTable"** @_ZN5blink11GCInfoTable13global_table_E, align 8
  %18 = tail call i32 @_ZN5blink11GCInfoTable17EnsureGCInfoIndexEPKNS_6GCInfoEPNSt3__16atomicIjEE(%"class.blink::GCInfoTable"* %17, %"struct.blink::GCInfo"* nonnull @_ZZN5blink11GCInfoTraitINS_17HeapVectorBackingINS_6MemberINS_9AuctionAdEEEN3WTF12VectorTraitsIS4_EEEEE5IndexEvE7kGcInfo, %"struct.std::__1::atomic.184"* bitcast ({ { i32 } }* @_ZZN5blink11GCInfoTraitINS_17HeapVectorBackingINS_6MemberINS_9AuctionAdEEEN3WTF12VectorTraitsIS4_EEEEE5IndexEvE13gc_info_index to %"struct.std::__1::atomic.184"*)) #8
  br label %19

19:                                               ; preds = %8, %16
  %20 = phi i32 [ %14, %8 ], [ %18, %16 ]
  %21 = tail call i8* @_ZN5blink10ThreadHeap20AllocateOnArenaIndexEPNS_11ThreadStateEmijPKc(%"class.blink::ThreadHeap"* %13, %"class.blink::ThreadState"* %11, i64 %0, i32 4, i32 %20, i8* getelementptr inbounds ([159 x i8], [159 x i8]* @__PRETTY_FUNCTION__._ZN3WTF21GetStringWithTypeNameIN5blink17HeapVectorBackingINS1_6MemberINS1_9AuctionAdEEENS_12VectorTraitsIS5_EEEEEEPKcv, i64 0, i64 0))
  ret i8* %21
}

declare i8* @_ZN7logging15CheckOpValueStrEj(i32) local_unnamed_addr #2

; Function Attrs: nounwind ssp uwtable
define linkonce_odr hidden void @_ZN5blink10TraceTraitINS_17HeapVectorBackingINS_6MemberINS_9AuctionAdEEEN3WTF12VectorTraitsIS4_EEEEE5TraceEPNS_7VisitorEPKv(%"class.blink::Visitor"*, i8*) #0 comdat align 2 {
  %3 = bitcast i8* %1 to %"class.blink::Member"*
  %4 = getelementptr inbounds i8, i8* %1, i64 -2
  %5 = bitcast i8* %4 to i16*
  %6 = load i16, i16* %5, align 2
  %7 = lshr i16 %6, 2
  %8 = icmp eq i16 %7, 0
  br i1 %8, label %9, label %17, !prof !2

