; ModuleID = 'gen/third_party/blink/renderer/bindings/modules/v8/v8_media_stream.cc'
source_filename = "gen/third_party/blink/renderer/bindings/modules/v8/v8_media_stream.cc"
target datalayout = "e-m:e-i64:64-f80:128-n8:16:32:64-S128"
target triple = "x86_64-unknown-linux-gnu"

module asm ".symver exp, exp@GLIBC_2.2.5"
module asm ".symver exp2, exp2@GLIBC_2.2.5"
module asm ".symver exp2f, exp2f@GLIBC_2.2.5"
module asm ".symver expf, expf@GLIBC_2.2.5"
module asm ".symver lgamma, lgamma@GLIBC_2.2.5"
module asm ".symver lgammaf, lgammaf@GLIBC_2.2.5"
module asm ".symver lgammal, lgammal@GLIBC_2.2.5"
module asm ".symver log, log@GLIBC_2.2.5"
module asm ".symver log2, log2@GLIBC_2.2.5"
module asm ".symver log2f, log2f@GLIBC_2.2.5"
module asm ".symver logf, logf@GLIBC_2.2.5"
module asm ".symver pow, pow@GLIBC_2.2.5"
module asm ".symver powf, powf@GLIBC_2.2.5"

%"struct.blink::WrapperTypeInfo" = type { i16, void (%"class.v8::Isolate"*, %"class.blink::DOMWrapperWorld"*, %"class.v8::Template"*)*, void (%"class.v8::Context"*, %"class.blink::DOMWrapperWorld"*, %"class.v8::Object"*, %"class.v8::Object"*, %"class.v8::Object"*, %"class.v8::Template"*, i64)*, i8*, %"struct.blink::WrapperTypeInfo"*, i8 }
%"class.v8::Isolate" = type { i8 }
%"class.blink::DOMWrapperWorld" = type { %"class.WTF::RefCounted", i32, i32, %"class.blink::Persistent" }
%"class.WTF::RefCounted" = type { %"class.base::RefCounted" }
%"class.base::RefCounted" = type { %"class.base::subtle::RefCountedBase" }
%"class.base::subtle::RefCountedBase" = type { i32 }
%"class.blink::Persistent" = type { %"class.blink::PersistentBase" }
%"class.blink::PersistentBase" = type { %"class.blink::DOMDataStore"*, %"class.blink::PersistentNodePtr" }
%"class.blink::DOMDataStore" = type { i32 (...)**, i8, [7 x i8], %"class.blink::HeapHashMap" }
%"class.blink::HeapHashMap" = type { %"class.WTF::HashMap" }
%"class.WTF::HashMap" = type { %"class.WTF::HashTable" }
%"class.WTF::HashTable" = type <{ %"struct.WTF::KeyValuePair"*, i32, i32, i32, [4 x i8] }>
%"struct.WTF::KeyValuePair" = type { %"class.blink::WeakMember", %"class.blink::TraceWrapperV8Reference" }
%"class.blink::WeakMember" = type { %"class.blink::MemberBase" }
%"class.blink::MemberBase" = type { %"class.blink::ScriptWrappable"* }
%"class.blink::ScriptWrappable" = type { %"class.blink::NameClient", %"class.blink::TraceWrapperV8Reference" }
%"class.blink::NameClient" = type { i32 (...)** }
%"class.blink::TraceWrapperV8Reference" = type { %"class.v8::TracedReference" }
%"class.v8::TracedReference" = type { %"class.v8::BasicTracedReference" }
%"class.v8::BasicTracedReference" = type { %"class.v8::TracedReferenceBase" }
%"class.v8::TracedReferenceBase" = type { i64* }
%"class.blink::PersistentNodePtr" = type { %"class.blink::PersistentNode"* }
%"class.blink::PersistentNode" = type { i8*, void (%"class.blink::Visitor"*, i8*)* }
%"class.blink::Visitor" = type { i32 (...)**, %"class.blink::ThreadState"* }
%"class.blink::ThreadState" = type <{ %"class.std::__1::unique_ptr", i32, [4 x i8], %"class.std::__1::unique_ptr.127", %"class.std::__1::unique_ptr.127", i8**, i8, i8, i8, i8, i8, i8, [2 x i8], i64, i64, i32, i32, i32, [4 x i8], %"class.WTF::Deque", %"class.v8::Isolate"*, void (%"class.v8::Isolate"*, %"class.v8::EmbedderGraph"*, i8*)*, %"class.std::__1::unique_ptr.137", %"class.std::__1::unique_ptr.143", %"struct.blink::ThreadState::GCData", %"class.std::__1::unique_ptr.155", %"class.std::__1::unique_ptr.161", %"class.base::JobHandle", %"class.base::JobHandle", %"struct.std::__1::atomic.167", [7 x i8], i64, i8, [7 x i8], i64, %"class.base::TimeTicks", i8, i8, [6 x i8] }>
%"class.std::__1::unique_ptr" = type { %"class.std::__1::__compressed_pair" }
%"class.std::__1::__compressed_pair" = type { %"struct.std::__1::__compressed_pair_elem" }
%"struct.std::__1::__compressed_pair_elem" = type { %"class.blink::ThreadHeap"* }
%"class.blink::ThreadHeap" = type { %"class.blink::ThreadState"*, %"class.std::__1::unique_ptr.4", %"class.std::__1::unique_ptr.8", %"class.std::__1::unique_ptr.14", %"class.std::__1::unique_ptr.20", %"class.std::__1::unique_ptr.26", %"class.std::__1::unique_ptr.32", %"class.std::__1::unique_ptr.39", %"class.std::__1::unique_ptr.46", %"class.std::__1::unique_ptr.46", %"class.std::__1::unique_ptr.53", %"class.std::__1::unique_ptr.60", %"class.std::__1::unique_ptr.67", %"class.std::__1::unique_ptr.67", %"class.std::__1::unique_ptr.74", %"class.std::__1::unique_ptr.81", %"class.std::__1::unique_ptr.88", %"class.std::__1::unique_ptr.111", %"struct.blink::ThreadHeap::LastAllocatedRegion", [9 x %"class.blink::BaseArena"*], i64, i64 }
%"class.std::__1::unique_ptr.4" = type { %"class.std::__1::__compressed_pair.5" }
%"class.std::__1::__compressed_pair.5" = type { %"struct.std::__1::__compressed_pair_elem.6" }
%"struct.std::__1::__compressed_pair_elem.6" = type { %"class.blink::ThreadHeapStatsCollector"* }
%"class.blink::ThreadHeapStatsCollector" = type opaque
%"class.std::__1::unique_ptr.8" = type { %"class.std::__1::__compressed_pair.9" }
%"class.std::__1::__compressed_pair.9" = type { %"struct.std::__1::__compressed_pair_elem.10" }
%"struct.std::__1::__compressed_pair_elem.10" = type { %"class.blink::RegionTree"* }
%"class.blink::RegionTree" = type opaque
%"class.std::__1::unique_ptr.14" = type { %"class.std::__1::__compressed_pair.15" }
%"class.std::__1::__compressed_pair.15" = type { %"struct.std::__1::__compressed_pair_elem.16" }
%"struct.std::__1::__compressed_pair_elem.16" = type { %"class.blink::PageBloomFilter"* }
%"class.blink::PageBloomFilter" = type opaque
%"class.std::__1::unique_ptr.20" = type { %"class.std::__1::__compressed_pair.21" }
%"class.std::__1::__compressed_pair.21" = type { %"struct.std::__1::__compressed_pair_elem.22" }
%"struct.std::__1::__compressed_pair_elem.22" = type { %"class.blink::PagePool"* }
%"class.blink::PagePool" = type opaque
%"class.std::__1::unique_ptr.26" = type { %"class.std::__1::__compressed_pair.27" }
%"class.std::__1::__compressed_pair.27" = type { %"struct.std::__1::__compressed_pair_elem.28" }
%"struct.std::__1::__compressed_pair_elem.28" = type { %"class.blink::ProcessHeapReporter"* }
%"class.blink::ProcessHeapReporter" = type opaque
%"class.std::__1::unique_ptr.32" = type { %"class.std::__1::__compressed_pair.33" }
%"class.std::__1::__compressed_pair.33" = type { %"struct.std::__1::__compressed_pair_elem.34" }
%"struct.std::__1::__compressed_pair_elem.34" = type { %"class.blink::Worklist"* }
%"class.blink::Worklist" = type { [4 x %"struct.blink::Worklist<blink::TraceDescriptor, 512, 4>::PrivateSegmentHolder"], %"class.blink::Worklist<blink::TraceDescriptor, 512, 4>::GlobalPool" }
%"struct.blink::Worklist<blink::TraceDescriptor, 512, 4>::PrivateSegmentHolder" = type { %"class.blink::Worklist<blink::TraceDescriptor, 512, 4>::Segment"*, %"class.blink::Worklist<blink::TraceDescriptor, 512, 4>::Segment"*, [64 x i8] }
%"class.blink::Worklist<blink::TraceDescriptor, 512, 4>::Segment" = type { %"class.blink::Worklist<blink::TraceDescriptor, 512, 4>::Segment"*, i64, [512 x %"struct.blink::TraceDescriptor"] }
%"struct.blink::TraceDescriptor" = type { i8*, void (%"class.blink::Visitor"*, i8*)* }
%"class.blink::Worklist<blink::TraceDescriptor, 512, 4>::GlobalPool" = type { %"class.base::Lock", %"class.blink::Worklist<blink::TraceDescriptor, 512, 4>::Segment"*, %"struct.std::__1::atomic" }
%"class.base::Lock" = type { %"class.base::internal::LockImpl" }
%"class.base::internal::LockImpl" = type { %union.pthread_mutex_t }
%union.pthread_mutex_t = type { %struct.__pthread_mutex_s }
%struct.__pthread_mutex_s = type { i32, i32, i32, i32, i32, i16, i16, %struct.__pthread_internal_list }
%struct.__pthread_internal_list = type { %struct.__pthread_internal_list*, %struct.__pthread_internal_list* }
%"struct.std::__1::atomic" = type { %"struct.std::__1::__atomic_base" }
%"struct.std::__1::__atomic_base" = type { %"struct.std::__1::__atomic_base.35" }
%"struct.std::__1::__atomic_base.35" = type { %"struct.std::__1::__cxx_atomic_impl" }
%"struct.std::__1::__cxx_atomic_impl" = type { %"struct.std::__1::__cxx_atomic_base_impl" }
%"struct.std::__1::__cxx_atomic_base_impl" = type { i64 }
%"class.std::__1::unique_ptr.39" = type { %"class.std::__1::__compressed_pair.40" }
%"class.std::__1::__compressed_pair.40" = type { %"struct.std::__1::__compressed_pair_elem.41" }
%"struct.std::__1::__compressed_pair_elem.41" = type { %"class.blink::Worklist.42"* }
%"class.blink::Worklist.42" = type { [4 x %"struct.blink::Worklist<blink::HeapObjectHeader *, 64, 4>::PrivateSegmentHolder"], %"class.blink::Worklist<blink::HeapObjectHeader *, 64, 4>::GlobalPool" }
%"struct.blink::Worklist<blink::HeapObjectHeader *, 64, 4>::PrivateSegmentHolder" = type { %"class.blink::Worklist<blink::HeapObjectHeader *, 64, 4>::Segment"*, %"class.blink::Worklist<blink::HeapObjectHeader *, 64, 4>::Segment"*, [64 x i8] }
%"class.blink::Worklist<blink::HeapObjectHeader *, 64, 4>::Segment" = type opaque
%"class.blink::Worklist<blink::HeapObjectHeader *, 64, 4>::GlobalPool" = type { %"class.base::Lock", %"class.blink::Worklist<blink::HeapObjectHeader *, 64, 4>::Segment"*, %"struct.std::__1::atomic" }
%"class.std::__1::unique_ptr.46" = type { %"class.std::__1::__compressed_pair.47" }
%"class.std::__1::__compressed_pair.47" = type { %"struct.std::__1::__compressed_pair_elem.48" }
%"struct.std::__1::__compressed_pair_elem.48" = type { %"class.blink::Worklist.49"* }
%"class.blink::Worklist.49" = type { [4 x %"struct.blink::Worklist<const void *, 16, 4>::PrivateSegmentHolder"], %"class.blink::Worklist<const void *, 16, 4>::GlobalPool" }
%"struct.blink::Worklist<const void *, 16, 4>::PrivateSegmentHolder" = type { %"class.blink::Worklist<const void *, 16, 4>::Segment"*, %"class.blink::Worklist<const void *, 16, 4>::Segment"*, [64 x i8] }
%"class.blink::Worklist<const void *, 16, 4>::Segment" = type { %"class.blink::Worklist<const void *, 16, 4>::Segment"*, i64, [16 x i8*] }
%"class.blink::Worklist<const void *, 16, 4>::GlobalPool" = type { %"class.base::Lock", %"class.blink::Worklist<const void *, 16, 4>::Segment"*, %"struct.std::__1::atomic" }
%"class.std::__1::unique_ptr.53" = type { %"class.std::__1::__compressed_pair.54" }
%"class.std::__1::__compressed_pair.54" = type { %"struct.std::__1::__compressed_pair_elem.55" }
%"struct.std::__1::__compressed_pair_elem.55" = type { %"class.blink::Worklist.56"* }
%"class.blink::Worklist.56" = type { [4 x %"struct.blink::Worklist<blink::CustomCallbackItem, 64, 4>::PrivateSegmentHolder"], %"class.blink::Worklist<blink::CustomCallbackItem, 64, 4>::GlobalPool" }
%"struct.blink::Worklist<blink::CustomCallbackItem, 64, 4>::PrivateSegmentHolder" = type { %"class.blink::Worklist<blink::CustomCallbackItem, 64, 4>::Segment"*, %"class.blink::Worklist<blink::CustomCallbackItem, 64, 4>::Segment"*, [64 x i8] }
%"class.blink::Worklist<blink::CustomCallbackItem, 64, 4>::Segment" = type opaque
%"class.blink::Worklist<blink::CustomCallbackItem, 64, 4>::GlobalPool" = type { %"class.base::Lock", %"class.blink::Worklist<blink::CustomCallbackItem, 64, 4>::Segment"*, %"struct.std::__1::atomic" }
%"class.std::__1::unique_ptr.60" = type { %"class.std::__1::__compressed_pair.61" }
%"class.std::__1::__compressed_pair.61" = type { %"struct.std::__1::__compressed_pair_elem.62" }
%"struct.std::__1::__compressed_pair_elem.62" = type { %"class.blink::Worklist.63"* }
%"class.blink::Worklist.63" = type { [4 x %"struct.blink::Worklist<const void *const *, 256, 4>::PrivateSegmentHolder"], %"class.blink::Worklist<const void *const *, 256, 4>::GlobalPool" }
%"struct.blink::Worklist<const void *const *, 256, 4>::PrivateSegmentHolder" = type { %"class.blink::Worklist<const void *const *, 256, 4>::Segment"*, %"class.blink::Worklist<const void *const *, 256, 4>::Segment"*, [64 x i8] }
%"class.blink::Worklist<const void *const *, 256, 4>::Segment" = type opaque
%"class.blink::Worklist<const void *const *, 256, 4>::GlobalPool" = type { %"class.base::Lock", %"class.blink::Worklist<const void *const *, 256, 4>::Segment"*, %"struct.std::__1::atomic" }
%"class.std::__1::unique_ptr.67" = type { %"class.std::__1::__compressed_pair.68" }
%"class.std::__1::__compressed_pair.68" = type { %"struct.std::__1::__compressed_pair_elem.69" }
%"struct.std::__1::__compressed_pair_elem.69" = type { %"class.blink::Worklist.70"* }
%"class.blink::Worklist.70" = type { [4 x %"struct.blink::Worklist<blink::EphemeronPairItem, 64, 4>::PrivateSegmentHolder"], %"class.blink::Worklist<blink::EphemeronPairItem, 64, 4>::GlobalPool" }
%"struct.blink::Worklist<blink::EphemeronPairItem, 64, 4>::PrivateSegmentHolder" = type { %"class.blink::Worklist<blink::EphemeronPairItem, 64, 4>::Segment"*, %"class.blink::Worklist<blink::EphemeronPairItem, 64, 4>::Segment"*, [64 x i8] }
%"class.blink::Worklist<blink::EphemeronPairItem, 64, 4>::Segment" = type opaque
%"class.blink::Worklist<blink::EphemeronPairItem, 64, 4>::GlobalPool" = type { %"class.base::Lock", %"class.blink::Worklist<blink::EphemeronPairItem, 64, 4>::Segment"*, %"struct.std::__1::atomic" }
%"class.std::__1::unique_ptr.74" = type { %"class.std::__1::__compressed_pair.75" }
%"class.std::__1::__compressed_pair.75" = type { %"struct.std::__1::__compressed_pair_elem.76" }
%"struct.std::__1::__compressed_pair_elem.76" = type { %"class.blink::Worklist.77"* }
%"class.blink::Worklist.77" = type { [4 x %"struct.blink::Worklist<const blink::TraceWrapperV8Reference<v8::Value> *, 16, 4>::PrivateSegmentHolder"], %"class.blink::Worklist<const blink::TraceWrapperV8Reference<v8::Value> *, 16, 4>::GlobalPool" }
%"struct.blink::Worklist<const blink::TraceWrapperV8Reference<v8::Value> *, 16, 4>::PrivateSegmentHolder" = type { %"class.blink::Worklist<const blink::TraceWrapperV8Reference<v8::Value> *, 16, 4>::Segment"*, %"class.blink::Worklist<const blink::TraceWrapperV8Reference<v8::Value> *, 16, 4>::Segment"*, [64 x i8] }
%"class.blink::Worklist<const blink::TraceWrapperV8Reference<v8::Value> *, 16, 4>::Segment" = type opaque
%"class.blink::Worklist<const blink::TraceWrapperV8Reference<v8::Value> *, 16, 4>::GlobalPool" = type { %"class.base::Lock", %"class.blink::Worklist<const blink::TraceWrapperV8Reference<v8::Value> *, 16, 4>::Segment"*, %"struct.std::__1::atomic" }
%"class.std::__1::unique_ptr.81" = type { %"class.std::__1::__compressed_pair.82" }
%"class.std::__1::__compressed_pair.82" = type { %"struct.std::__1::__compressed_pair_elem.83" }
%"struct.std::__1::__compressed_pair_elem.83" = type { %"class.blink::Worklist.84"* }
%"class.blink::Worklist.84" = type { [4 x %"struct.blink::Worklist<blink::NotSafeToConcurrentlyTraceItem, 64, 4>::PrivateSegmentHolder"], %"class.blink::Worklist<blink::NotSafeToConcurrentlyTraceItem, 64, 4>::GlobalPool" }
%"struct.blink::Worklist<blink::NotSafeToConcurrentlyTraceItem, 64, 4>::PrivateSegmentHolder" = type { %"class.blink::Worklist<blink::NotSafeToConcurrentlyTraceItem, 64, 4>::Segment"*, %"class.blink::Worklist<blink::NotSafeToConcurrentlyTraceItem, 64, 4>::Segment"*, [64 x i8] }
%"class.blink::Worklist<blink::NotSafeToConcurrentlyTraceItem, 64, 4>::Segment" = type { %"class.blink::Worklist<blink::NotSafeToConcurrentlyTraceItem, 64, 4>::Segment"*, i64, [64 x %"struct.blink::NotSafeToConcurrentlyTraceItem"] }
%"struct.blink::NotSafeToConcurrentlyTraceItem" = type { %"struct.blink::TraceDescriptor", i64 }
%"class.blink::Worklist<blink::NotSafeToConcurrentlyTraceItem, 64, 4>::GlobalPool" = type { %"class.base::Lock", %"class.blink::Worklist<blink::NotSafeToConcurrentlyTraceItem, 64, 4>::Segment"*, %"struct.std::__1::atomic" }
%"class.std::__1::unique_ptr.88" = type { %"class.std::__1::__compressed_pair.89" }
%"class.std::__1::__compressed_pair.89" = type { %"struct.std::__1::__compressed_pair_elem.90" }
%"struct.std::__1::__compressed_pair_elem.90" = type { %"class.blink::WeakContainersWorklist"* }
%"class.blink::WeakContainersWorklist" = type { %"class.WTF::Mutex", %"class.std::__1::unordered_set" }
%"class.WTF::Mutex" = type { %"class.WTF::MutexBase" }
%"class.WTF::MutexBase" = type { %"struct.WTF::PlatformMutex" }
%"struct.WTF::PlatformMutex" = type { %union.pthread_mutex_t }
%"class.std::__1::unordered_set" = type { %"class.std::__1::__hash_table" }
%"class.std::__1::__hash_table" = type <{ %"class.std::__1::unique_ptr.91", %"class.std::__1::__compressed_pair.98", %"class.std::__1::__compressed_pair.103", %"class.std::__1::__compressed_pair.105", [4 x i8] }>
%"class.std::__1::unique_ptr.91" = type { %"class.std::__1::__compressed_pair.92" }
%"class.std::__1::__compressed_pair.92" = type { %"struct.std::__1::__compressed_pair_elem.93", %"struct.std::__1::__compressed_pair_elem.94" }
%"struct.std::__1::__compressed_pair_elem.93" = type { %"struct.std::__1::__hash_node_base"** }
%"struct.std::__1::__hash_node_base" = type { %"struct.std::__1::__hash_node_base"* }
%"struct.std::__1::__compressed_pair_elem.94" = type { %"class.std::__1::__bucket_list_deallocator" }
%"class.std::__1::__bucket_list_deallocator" = type { %"class.std::__1::__compressed_pair.95" }
%"class.std::__1::__compressed_pair.95" = type { %"struct.std::__1::__compressed_pair_elem.96" }
%"struct.std::__1::__compressed_pair_elem.96" = type { i64 }
%"class.std::__1::__compressed_pair.98" = type { %"struct.std::__1::__compressed_pair_elem.99" }
%"struct.std::__1::__compressed_pair_elem.99" = type { %"struct.std::__1::__hash_node_base" }
%"class.std::__1::__compressed_pair.103" = type { %"struct.std::__1::__compressed_pair_elem.96" }
%"class.std::__1::__compressed_pair.105" = type { %"struct.std::__1::__compressed_pair_elem.106" }
%"struct.std::__1::__compressed_pair_elem.106" = type { float }
%"class.std::__1::unique_ptr.111" = type { %"class.std::__1::__compressed_pair.112" }
%"class.std::__1::__compressed_pair.112" = type { %"struct.std::__1::__compressed_pair_elem.113" }
%"struct.std::__1::__compressed_pair_elem.113" = type { %"class.blink::HeapCompact"* }
%"class.blink::HeapCompact" = type <{ %"class.blink::ThreadHeap"*, %"class.std::__1::unique_ptr.114", i8, [7 x i8], i64, i64, i32, [4 x i8], i64, i8, [7 x i8] }>
%"class.std::__1::unique_ptr.114" = type { %"class.std::__1::__compressed_pair.115" }
%"class.std::__1::__compressed_pair.115" = type { %"struct.std::__1::__compressed_pair_elem.116" }
%"struct.std::__1::__compressed_pair_elem.116" = type { %"class.blink::HeapCompact::MovableObjectFixups"* }
%"class.blink::HeapCompact::MovableObjectFixups" = type opaque
%"struct.blink::ThreadHeap::LastAllocatedRegion" = type { i8*, i64 }
%"class.blink::BaseArena" = type <{ i32 (...)**, %"class.blink::PageStackThreadSafe", %"class.blink::PageStackThreadSafe", %"class.blink::PageStackThreadSafe", %"class.blink::PageStackThreadSafe", %"class.blink::ThreadState"*, i32, [4 x i8] }>
%"class.blink::PageStackThreadSafe" = type { %"class.blink::PageStack", %"class.WTF::Mutex" }
%"class.blink::PageStack" = type { %"class.WTF::Vector" }
%"class.WTF::Vector" = type { %"class.WTF::VectorBuffer" }
%"class.WTF::VectorBuffer" = type { %"class.WTF::VectorBufferBase" }
%"class.WTF::VectorBufferBase" = type { %"class.blink::BasePage"**, i32, i32 }
%"class.blink::BasePage" = type <{ i32 (...)**, %"class.blink::PageMemory"*, %"class.blink::BaseArena"*, %"class.blink::ThreadState"*, i64, i8, i8, i8, [5 x i8] }>
%"class.blink::PageMemory" = type opaque
%"class.std::__1::unique_ptr.127" = type { %"class.std::__1::__compressed_pair.128" }
%"class.std::__1::__compressed_pair.128" = type { %"struct.std::__1::__compressed_pair_elem.129" }
%"struct.std::__1::__compressed_pair_elem.129" = type { %"class.blink::PersistentRegion"* }
%"class.blink::PersistentRegion" = type { %"class.blink::PersistentRegionBase" }
%"class.blink::PersistentRegionBase" = type { %"class.blink::PersistentNode"*, %"struct.blink::PersistentNodeSlots"* }
%"struct.blink::PersistentNodeSlots" = type { %"struct.blink::PersistentNodeSlots"*, [256 x %"class.blink::PersistentNode"] }
%"class.WTF::Deque" = type { %"class.WTF::Deque<std::__1::pair<void *, bool (*)(const blink::LivenessBroker &, void *)>, 0, WTF::PartitionAllocator>::BackingBuffer", i32, i32 }
%"class.WTF::Deque<std::__1::pair<void *, bool (*)(const blink::LivenessBroker &, void *)>, 0, WTF::PartitionAllocator>::BackingBuffer" = type { %"class.WTF::VectorBuffer.135" }
%"class.WTF::VectorBuffer.135" = type { %"class.WTF::VectorBufferBase.136" }
%"class.WTF::VectorBufferBase.136" = type { %"struct.std::__1::pair"*, i32, i32 }
%"struct.std::__1::pair" = type { i8*, i1 (%"class.blink::LivenessBroker"*, i8*)* }
%"class.blink::LivenessBroker" = type { i8 }
%"class.v8::EmbedderGraph" = type opaque
%"class.std::__1::unique_ptr.137" = type { %"class.std::__1::__compressed_pair.138" }
%"class.std::__1::__compressed_pair.138" = type { %"struct.std::__1::__compressed_pair_elem.139" }
%"struct.std::__1::__compressed_pair_elem.139" = type { %"class.blink::UnifiedHeapController"* }
%"class.blink::UnifiedHeapController" = type opaque
%"class.std::__1::unique_ptr.143" = type { %"class.std::__1::__compressed_pair.144" }
%"class.std::__1::__compressed_pair.144" = type { %"struct.std::__1::__compressed_pair_elem.145" }
%"struct.std::__1::__compressed_pair_elem.145" = type { %"class.v8::EmbedderRootsHandler"* }
%"class.v8::EmbedderRootsHandler" = type { i32 (...)** }
%"struct.blink::ThreadState::GCData" = type { i32, i32, i32, i32, %"class.std::__1::unique_ptr.149" }
%"class.std::__1::unique_ptr.149" = type { %"class.std::__1::__compressed_pair.150" }
%"class.std::__1::__compressed_pair.150" = type { %"struct.std::__1::__compressed_pair_elem.151" }
%"struct.std::__1::__compressed_pair_elem.151" = type { %"class.blink::MarkingVisitor"* }
%"class.blink::MarkingVisitor" = type { %"class.blink::MarkingVisitorBase", %"class.blink::MarkingVisitor::RecentlyRetracedWeakContainers" }
%"class.blink::MarkingVisitorBase" = type { %"class.blink::Visitor", %"class.blink::Worklist<blink::TraceDescriptor, 512, 4>::View", %"class.blink::Worklist<blink::HeapObjectHeader *, 64, 4>::View", %"class.blink::Worklist<const void *, 16, 4>::View", %"class.blink::Worklist<blink::CustomCallbackItem, 64, 4>::View", %"class.blink::Worklist<const void *const *, 256, 4>::View", %"class.blink::Worklist<blink::EphemeronPairItem, 64, 4>::View", %"class.blink::Worklist<blink::EphemeronPairItem, 64, 4>::View", %"class.blink::WeakContainersWorklist"*, i64, i32, i32 }
%"class.blink::Worklist<blink::TraceDescriptor, 512, 4>::View" = type <{ %"class.blink::Worklist"*, i32, [4 x i8] }>
%"class.blink::Worklist<blink::HeapObjectHeader *, 64, 4>::View" = type <{ %"class.blink::Worklist.42"*, i32, [4 x i8] }>
%"class.blink::Worklist<const void *, 16, 4>::View" = type <{ %"class.blink::Worklist.49"*, i32, [4 x i8] }>
%"class.blink::Worklist<blink::CustomCallbackItem, 64, 4>::View" = type <{ %"class.blink::Worklist.56"*, i32, [4 x i8] }>
%"class.blink::Worklist<const void *const *, 256, 4>::View" = type <{ %"class.blink::Worklist.63"*, i32, [4 x i8] }>
%"class.blink::Worklist<blink::EphemeronPairItem, 64, 4>::View" = type <{ %"class.blink::Worklist.70"*, i32, [4 x i8] }>
%"class.blink::MarkingVisitor::RecentlyRetracedWeakContainers" = type { %"class.std::__1::vector", i64 }
%"class.std::__1::vector" = type { %"class.std::__1::__vector_base" }
%"class.std::__1::__vector_base" = type { %"class.blink::HeapObjectHeader"**, %"class.blink::HeapObjectHeader"**, %"class.std::__1::__compressed_pair.171" }
%"class.blink::HeapObjectHeader" = type { i32, i16, i16 }
%"class.std::__1::__compressed_pair.171" = type { %"struct.std::__1::__compressed_pair_elem.172" }
%"struct.std::__1::__compressed_pair_elem.172" = type { %"class.blink::HeapObjectHeader"** }
%"class.std::__1::unique_ptr.155" = type { %"class.std::__1::__compressed_pair.156" }
%"class.std::__1::__compressed_pair.156" = type { %"struct.std::__1::__compressed_pair_elem.157" }
%"struct.std::__1::__compressed_pair_elem.157" = type { %"class.blink::ThreadState::IncrementalMarkingScheduler"* }
%"class.blink::ThreadState::IncrementalMarkingScheduler" = type opaque
%"class.std::__1::unique_ptr.161" = type { %"class.std::__1::__compressed_pair.162" }
%"class.std::__1::__compressed_pair.162" = type { %"struct.std::__1::__compressed_pair_elem.163" }
%"struct.std::__1::__compressed_pair_elem.163" = type { %"class.blink::MarkingSchedulingOracle"* }
%"class.blink::MarkingSchedulingOracle" = type opaque
%"class.base::JobHandle" = type { %class.scoped_refptr }
%class.scoped_refptr = type { %"class.base::internal::JobTaskSource"* }
%"class.base::internal::JobTaskSource" = type opaque
%"struct.std::__1::atomic.167" = type { %"struct.std::__1::__atomic_base.168" }
%"struct.std::__1::__atomic_base.168" = type { %"struct.std::__1::__cxx_atomic_impl.169" }
%"struct.std::__1::__cxx_atomic_impl.169" = type { %"struct.std::__1::__cxx_atomic_base_impl.170" }
%"struct.std::__1::__cxx_atomic_base_impl.170" = type { i8 }
%"class.base::TimeTicks" = type { %"class.base::time_internal::TimeBase" }
%"class.base::time_internal::TimeBase" = type { i64 }
%"class.v8::Template" = type { i8 }
%"class.v8::Context" = type { i8 }
%"class.v8::Object" = type { i8 }
%"class.v8::MemorySpan" = type { %"class.v8::CFunction"*, i64 }
%"class.v8::CFunction" = type { i8*, %"class.v8::CFunctionInfo"* }
%"class.v8::CFunctionInfo" = type { %"class.v8::CTypeInfo", i32, %"class.v8::CTypeInfo"* }
%"class.v8::CTypeInfo" = type { i8, i8 }
%"class.v8::FunctionCallbackInfo" = type <{ i64*, i64*, i32, [4 x i8] }>
%"class.WTF::ThreadSpecific" = type { %"class.blink::ThreadState"**, %"class.base::ThreadLocalStorage::Slot" }
%"class.base::ThreadLocalStorage::Slot" = type { i32, i32 }
%"struct.blink::GCInfo" = type { void (%"class.blink::Visitor"*, i8*)*, void (i8*)*, { i8*, i8 } (i8*)*, i8 }
%"class.blink::GCInfoTable" = type { %"struct.blink::GCInfo"**, i32, i32, %"class.WTF::Mutex" }
%"class.blink::AtomicEntryFlag" = type { %"struct.std::__1::atomic.284" }
%"struct.std::__1::atomic.284" = type { %"struct.std::__1::__atomic_base.285" }
%"struct.std::__1::__atomic_base.285" = type { %"struct.std::__1::__atomic_base.286" }
%"struct.std::__1::__atomic_base.286" = type { %"struct.std::__1::__cxx_atomic_impl.287" }
%"struct.std::__1::__cxx_atomic_impl.287" = type { %"struct.std::__1::__cxx_atomic_base_impl.288" }
%"struct.std::__1::__cxx_atomic_base_impl.288" = type { i32 }
%"class.WTF::AtomicString" = type { %"class.WTF::String" }
%"class.WTF::String" = type { %class.scoped_refptr.183 }
%class.scoped_refptr.183 = type { %"class.WTF::StringImpl"* }
%"class.WTF::StringImpl" = type { i32, i32, %"struct.std::__1::atomic.184" }
%"struct.std::__1::atomic.184" = type { %"struct.std::__1::__atomic_base.185" }
%"struct.std::__1::__atomic_base.185" = type { %"struct.std::__1::__atomic_base.186" }
%"struct.std::__1::__atomic_base.186" = type { %"struct.std::__1::__cxx_atomic_impl.187" }
%"struct.std::__1::__cxx_atomic_impl.187" = type { %"struct.std::__1::__cxx_atomic_base_impl.188" }
%"struct.std::__1::__cxx_atomic_base_impl.188" = type { i32 }
%"class.base::span" = type { %"struct.base::internal::ExtentStorage", %"struct.blink::bindings::IDLMemberInstaller::AttributeConfig"* }
%"struct.base::internal::ExtentStorage" = type { i64 }
%"struct.blink::bindings::IDLMemberInstaller::AttributeConfig" = type <{ i8*, void (%"class.v8::FunctionCallbackInfo"*)*, void (%"class.v8::FunctionCallbackInfo"*)*, i16, [6 x i8] }>
%"class.base::span.182" = type { %"struct.base::internal::ExtentStorage", %"struct.blink::bindings::IDLMemberInstaller::OperationConfig"* }
%"struct.blink::bindings::IDLMemberInstaller::OperationConfig" = type <{ i8*, void (%"class.v8::FunctionCallbackInfo"*)*, [3 x i8], [5 x i8] }>
%"class.v8::FunctionTemplate" = type { i8 }
%"class.v8::ObjectTemplate" = type { i8 }
%"class.v8::Value" = type { i8 }
%"class.v8::Signature" = type { i8 }
%"class.blink::ExceptionState" = type { i32 (...)**, %"class.blink::ExceptionContext", %"class.blink::ExceptionState::ContextScope"*, %"class.v8::Isolate"*, i32, %"class.WTF::String", %"class.blink::TraceWrapperV8Reference.189" }
%"class.blink::ExceptionContext" = type { i16, i16, i8*, i8* }
%"class.blink::ExceptionState::ContextScope" = type { %"class.blink::ExceptionState"*, %"class.blink::ExceptionState::ContextScope"*, %"class.blink::ExceptionContext" }
%"class.blink::TraceWrapperV8Reference.189" = type { %"class.v8::TracedReference.190" }
%"class.v8::TracedReference.190" = type { %"class.v8::BasicTracedReference.191" }
%"class.v8::BasicTracedReference.191" = type { %"class.v8::TracedReferenceBase" }
%"class.blink::HeapVector.419" = type { %"class.WTF::Vector.422" }
%"class.WTF::Vector.422" = type { %"class.WTF::VectorBuffer.423" }
%"class.WTF::VectorBuffer.423" = type { %"class.WTF::VectorBufferBase.424" }
%"class.WTF::VectorBufferBase.424" = type { %"class.blink::Member.425"*, i32, i32 }
%"class.blink::Member.425" = type { %"class.blink::MemberBase.426" }
%"class.blink::MemberBase.426" = type { %"class.blink::MediaStreamTrack"* }
%"class.blink::MediaStreamTrack" = type { %"class.blink::EventTargetWithInlineData", %"class.blink::ActiveScriptWrappable.427", %"class.blink::MediaStreamSource::Observer", %"class.blink::FrameOrWorkerScheduler::SchedulingAffectingFeatureHandle", i32, [4 x i8], %"class.blink::HeapHashSet.435", i8, %"class.blink::Member.442", %"class.blink::Member.577", %"class.blink::WeakMember.418", %"class.blink::HeapHashSet.579" }
%"class.blink::EventTargetWithInlineData" = type { %"class.blink::EventTarget", %"class.blink::EventTargetData" }
%"class.blink::EventTarget" = type { %"class.blink::ScriptWrappable" }
%"class.blink::EventTargetData" = type { %"class.blink::EventListenerMap", %"class.std::__1::unique_ptr.411" }
%"class.blink::EventListenerMap" = type { %"class.blink::HeapVector.399" }
%"class.blink::HeapVector.399" = type { %"class.WTF::Vector.402" }
%"class.WTF::Vector.402" = type { %"class.WTF::VectorBuffer.403" }
%"class.WTF::VectorBuffer.403" = type { %"class.WTF::VectorBufferBase.404", [32 x i8] }
%"class.WTF::VectorBufferBase.404" = type { %"struct.std::__1::pair.405"*, i32, i32 }
%"struct.std::__1::pair.405" = type { %"class.WTF::AtomicString", %"class.blink::Member.406" }
%"class.blink::Member.406" = type { %"class.blink::MemberBase.407" }
%"class.blink::MemberBase.407" = type { %"class.blink::HeapVector.408"* }
%"class.blink::HeapVector.408" = type opaque
%"class.std::__1::unique_ptr.411" = type { %"class.std::__1::__compressed_pair.412" }
%"class.std::__1::__compressed_pair.412" = type { %"struct.std::__1::__compressed_pair_elem.413" }
%"struct.std::__1::__compressed_pair_elem.413" = type { %"class.WTF::Vector.414"* }
%"class.WTF::Vector.414" = type opaque
%"class.blink::ActiveScriptWrappable.427" = type { %"class.blink::ActiveScriptWrappableBase" }
%"class.blink::ActiveScriptWrappableBase" = type { %"class.blink::GarbageCollectedMixin" }
%"class.blink::GarbageCollectedMixin" = type { i32 (...)** }
%"class.blink::MediaStreamSource::Observer" = type { %"class.blink::GarbageCollectedMixin" }
%"class.blink::FrameOrWorkerScheduler::SchedulingAffectingFeatureHandle" = type { i32, %"struct.blink::SchedulingPolicy", %"class.base::WeakPtr" }
%"struct.blink::SchedulingPolicy" = type { i8, i8 }
%"class.base::WeakPtr" = type { %"class.base::internal::WeakPtrBase" }
%"class.base::internal::WeakPtrBase" = type { %"class.base::internal::WeakReference", i64 }
%"class.base::internal::WeakReference" = type { %class.scoped_refptr.428 }
%class.scoped_refptr.428 = type { %"class.base::internal::WeakReference::Flag"* }
%"class.base::internal::WeakReference::Flag" = type <{ %"class.base::RefCountedThreadSafe.429", %"class.base::AtomicFlag", [3 x i8] }>
%"class.base::RefCountedThreadSafe.429" = type { %"class.base::subtle::RefCountedThreadSafeBase" }
%"class.base::subtle::RefCountedThreadSafeBase" = type { %"class.base::AtomicRefCount" }
%"class.base::AtomicRefCount" = type { %"struct.std::__1::atomic.284" }
%"class.base::AtomicFlag" = type { %"struct.std::__1::atomic.430" }
%"struct.std::__1::atomic.430" = type { %"struct.std::__1::__atomic_base.431" }
%"struct.std::__1::__atomic_base.431" = type { %"struct.std::__1::__atomic_base.432" }
%"struct.std::__1::__atomic_base.432" = type { %"struct.std::__1::__cxx_atomic_impl.433" }
%"struct.std::__1::__cxx_atomic_impl.433" = type { %"struct.std::__1::__cxx_atomic_base_impl.434" }
%"struct.std::__1::__cxx_atomic_base_impl.434" = type { i8 }
%"class.blink::HeapHashSet.435" = type { %"class.WTF::HashSet.438" }
%"class.WTF::HashSet.438" = type { %"class.WTF::HashTable.439" }
%"class.WTF::HashTable.439" = type <{ %"class.blink::Member.441"*, i32, i32, i32, [4 x i8] }>
%"class.blink::Member.441" = type opaque
%"class.blink::Member.442" = type { %"class.blink::MemberBase.443" }
%"class.blink::MemberBase.443" = type { %"class.blink::MediaStreamComponent"* }
%"class.blink::MediaStreamComponent" = type { %"class.blink::ThreadState::PrefinalizerRegistration", %"class.blink::MediaStreamComponent::AudioSourceProviderImpl", %"class.blink::Member.453", %"class.WTF::String", i32, i8, i8, i32, %"class.blink::MediaConstraints", %"class.std::__1::unique_ptr.571" }
%"class.blink::ThreadState::PrefinalizerRegistration" = type { i8 }
%"class.blink::MediaStreamComponent::AudioSourceProviderImpl" = type { %"class.blink::AudioSourceProvider", %"class.blink::WebAudioSourceProvider"*, %"class.WTF::Mutex", %"class.blink::WebVector" }
%"class.blink::AudioSourceProvider" = type { i32 (...)** }
%"class.blink::WebAudioSourceProvider" = type opaque
%"class.blink::WebVector" = type { %"class.std::__1::vector.446" }
%"class.std::__1::vector.446" = type { %"class.std::__1::__vector_base.447" }
%"class.std::__1::__vector_base.447" = type { float**, float**, %"class.std::__1::__compressed_pair.448" }
%"class.std::__1::__compressed_pair.448" = type { %"struct.std::__1::__compressed_pair_elem.449" }
%"struct.std::__1::__compressed_pair_elem.449" = type { float** }
%"class.blink::Member.453" = type { %"class.blink::MemberBase.454" }
%"class.blink::MemberBase.454" = type { %"class.blink::MediaStreamSource"* }
%"class.blink::MediaStreamSource" = type <{ %"class.blink::ThreadState::PrefinalizerRegistration.457", [7 x i8], %"class.WTF::String", i32, [4 x i8], %"class.WTF::String", %"class.WTF::String", i8, [3 x i8], i32, i8, [7 x i8], %"class.blink::HeapHashSet.458", %"class.WTF::Mutex", %"class.WTF::HashSet.465", %"class.std::__1::unique_ptr.469", %"class.blink::MediaConstraints", %"struct.blink::MediaStreamSource::Capabilities", %"class.absl::optional.561", %"class.absl::optional.566", %"class.absl::optional.566", [4 x i8] }>
%"class.blink::ThreadState::PrefinalizerRegistration.457" = type { i8 }
%"class.blink::HeapHashSet.458" = type { %"class.WTF::HashSet.461" }
%"class.WTF::HashSet.461" = type { %"class.WTF::HashTable.462" }
%"class.WTF::HashTable.462" = type <{ %"class.blink::WeakMember.464"*, i32, i32, i32, [4 x i8] }>
%"class.blink::WeakMember.464" = type opaque
%"class.WTF::HashSet.465" = type { %"class.WTF::HashTable.466" }
%"class.WTF::HashTable.466" = type <{ %"class.blink::AudioDestinationConsumer"**, i32, i32, i32, [4 x i8] }>
%"class.blink::AudioDestinationConsumer" = type { i32 (...)** }
%"class.std::__1::unique_ptr.469" = type { %"class.std::__1::__compressed_pair.470" }
%"class.std::__1::__compressed_pair.470" = type { %"struct.std::__1::__compressed_pair_elem.471" }
%"struct.std::__1::__compressed_pair_elem.471" = type { %"class.blink::WebPlatformMediaStreamSource"* }
%"class.blink::WebPlatformMediaStreamSource" = type { i32 (...)**, %"struct.blink::MediaStreamDevice", %"class.base::OnceCallback.531", %"class.blink::WebPrivatePtr" }
%"struct.blink::MediaStreamDevice" = type { i32, %"class.std::__1::basic_string", %"struct.media::VideoCaptureControlSupport", i32, %"class.absl::optional", %"class.absl::optional", %"class.std::__1::basic_string", %"class.media::AudioParameters", %"class.absl::optional.490", %"class.absl::optional.526" }
%"struct.media::VideoCaptureControlSupport" = type { i8, i8, i8 }
%"class.absl::optional" = type { %"class.absl::optional_internal::optional_data" }
%"class.absl::optional_internal::optional_data" = type { %"class.absl::optional_internal::optional_data_base" }
%"class.absl::optional_internal::optional_data_base" = type { %"class.absl::optional_internal::optional_data_dtor_base" }
%"class.absl::optional_internal::optional_data_dtor_base" = type { i8, %union.anon.477 }
%union.anon.477 = type { %"class.std::__1::basic_string" }
%"class.std::__1::basic_string" = type { %"class.std::__1::__compressed_pair.472" }
%"class.std::__1::__compressed_pair.472" = type { %"struct.std::__1::__compressed_pair_elem.473" }
%"struct.std::__1::__compressed_pair_elem.473" = type { %"struct.std::__1::basic_string<char, std::__1::char_traits<char>, std::__1::allocator<char> >::__rep" }
%"struct.std::__1::basic_string<char, std::__1::char_traits<char>, std::__1::allocator<char> >::__rep" = type { %union.anon }
%union.anon = type { %"struct.std::__1::basic_string<char, std::__1::char_traits<char>, std::__1::allocator<char> >::__long" }
%"struct.std::__1::basic_string<char, std::__1::char_traits<char>, std::__1::allocator<char> >::__long" = type { i8*, i64, i64 }
%"class.media::AudioParameters" = type { i32, i32, i32, i32, i32, i32, %"class.std::__1::vector.478", i32, %"class.absl::optional.485" }
%"class.std::__1::vector.478" = type { %"class.std::__1::__vector_base.479" }
%"class.std::__1::__vector_base.479" = type { %"class.gfx::Point3F"*, %"class.gfx::Point3F"*, %"class.std::__1::__compressed_pair.480" }
%"class.gfx::Point3F" = type { float, float, float }
%"class.std::__1::__compressed_pair.480" = type { %"struct.std::__1::__compressed_pair_elem.481" }
%"struct.std::__1::__compressed_pair_elem.481" = type { %"class.gfx::Point3F"* }
%"class.absl::optional.485" = type { %"class.absl::optional_internal::optional_data.486" }
%"class.absl::optional_internal::optional_data.486" = type { %"class.absl::optional_internal::optional_data_base.487" }
%"class.absl::optional_internal::optional_data_base.487" = type { %"class.absl::optional_internal::optional_data_dtor_base.488" }
%"class.absl::optional_internal::optional_data_dtor_base.488" = type { i8, %union.anon.489 }
%union.anon.489 = type { %"struct.media::AudioParameters::HardwareCapabilities" }
%"struct.media::AudioParameters::HardwareCapabilities" = type { i32, i32 }
%"class.absl::optional.490" = type { %"class.absl::optional_internal::optional_data.491" }
%"class.absl::optional_internal::optional_data.491" = type { %"class.absl::optional_internal::optional_data_base.492" }
%"class.absl::optional_internal::optional_data_base.492" = type { %"class.absl::optional_internal::optional_data_dtor_base.493" }
%"class.absl::optional_internal::optional_data_dtor_base.493" = type { i8, %union.anon.494 }
%union.anon.494 = type { %"class.mojo::StructPtr" }
%"class.mojo::StructPtr" = type { %"class.std::__1::unique_ptr.495" }
%"class.std::__1::unique_ptr.495" = type { %"class.std::__1::__compressed_pair.496" }
%"class.std::__1::__compressed_pair.496" = type { %"struct.std::__1::__compressed_pair_elem.497" }
%"struct.std::__1::__compressed_pair_elem.497" = type { %"class.media::mojom::DisplayMediaInformation"* }
%"class.media::mojom::DisplayMediaInformation" = type { i32, i8, i32, %"class.mojo::StructPtr.498" }
%"class.mojo::StructPtr.498" = type { %"class.std::__1::unique_ptr.499" }
%"class.std::__1::unique_ptr.499" = type { %"class.std::__1::__compressed_pair.500" }
%"class.std::__1::__compressed_pair.500" = type { %"struct.std::__1::__compressed_pair_elem.501" }
%"struct.std::__1::__compressed_pair_elem.501" = type { %"class.media::mojom::CaptureHandle"* }
%"class.media::mojom::CaptureHandle" = type { %"class.url::Origin", %"class.std::__1::basic_string.507" }
%"class.url::Origin" = type { %"class.url::SchemeHostPort", %"class.absl::optional.502" }
%"class.url::SchemeHostPort" = type <{ %"class.std::__1::basic_string", %"class.std::__1::basic_string", i16, [6 x i8] }>
%"class.absl::optional.502" = type { %"class.absl::optional_internal::optional_data.503" }
%"class.absl::optional_internal::optional_data.503" = type { %"class.absl::optional_internal::optional_data_base.504" }
%"class.absl::optional_internal::optional_data_base.504" = type { %"class.absl::optional_internal::optional_data_dtor_base.505" }
%"class.absl::optional_internal::optional_data_dtor_base.505" = type { i8, %union.anon.506 }
%union.anon.506 = type { %"class.url::Origin::Nonce" }
%"class.url::Origin::Nonce" = type { %"class.base::UnguessableToken" }
%"class.base::UnguessableToken" = type { %"class.base::Token" }
%"class.base::Token" = type { i64, i64 }
%"class.std::__1::basic_string.507" = type { %"class.std::__1::__compressed_pair.508" }
%"class.std::__1::__compressed_pair.508" = type { %"struct.std::__1::__compressed_pair_elem.509" }
%"struct.std::__1::__compressed_pair_elem.509" = type { %"struct.std::__1::basic_string<char16_t, std::__1::char_traits<char16_t>, std::__1::allocator<char16_t> >::__rep" }
%"struct.std::__1::basic_string<char16_t, std::__1::char_traits<char16_t>, std::__1::allocator<char16_t> >::__rep" = type { %union.anon.510 }
%union.anon.510 = type { %"struct.std::__1::basic_string<char16_t, std::__1::char_traits<char16_t>, std::__1::allocator<char16_t> >::__long" }
%"struct.std::__1::basic_string<char16_t, std::__1::char_traits<char16_t>, std::__1::allocator<char16_t> >::__long" = type { i16*, i64, i64 }
%"class.absl::optional.526" = type { %"class.absl::optional_internal::optional_data.527" }
%"class.absl::optional_internal::optional_data.527" = type { %"class.absl::optional_internal::optional_data_base.528" }
%"class.absl::optional_internal::optional_data_base.528" = type { %"class.absl::optional_internal::optional_data_dtor_base.529" }
%"class.absl::optional_internal::optional_data_dtor_base.529" = type { i8, %union.anon.530 }
%union.anon.530 = type { %"class.base::UnguessableToken" }
%"class.base::OnceCallback.531" = type { %"class.base::internal::CallbackBase" }
%"class.base::internal::CallbackBase" = type { %class.scoped_refptr.283 }
%class.scoped_refptr.283 = type { %"class.base::internal::BindStateBase"* }
%"class.base::internal::BindStateBase" = type { %"class.base::RefCountedThreadSafe", void ()*, void (%"class.base::internal::BindStateBase"*)*, i1 (%"class.base::internal::BindStateBase"*, i32)* }
%"class.base::RefCountedThreadSafe" = type { %"class.base::subtle::RefCountedThreadSafeBase" }
%"class.blink::WebPrivatePtr" = type { i8* }
%"struct.blink::MediaStreamSource::Capabilities" = type { %"class.WTF::Vector.536", %"class.WTF::Vector.536", %"class.WTF::Vector.541", %"class.WTF::Vector.541", %"class.WTF::Vector.546", %"class.WTF::Vector.551", %"class.WTF::Vector.546", %"class.WTF::Vector.546", %"class.WTF::Vector.556", %"class.WTF::Vector.556", %"class.WTF::Vector.556", %"class.WTF::Vector.541", i32, %"class.WTF::String", %"class.WTF::String" }
%"class.WTF::Vector.536" = type { %"class.WTF::VectorBuffer.537" }
%"class.WTF::VectorBuffer.537" = type { %"class.WTF::VectorBufferBase.538" }
%"class.WTF::VectorBufferBase.538" = type { i32*, i32, i32 }
%"class.WTF::Vector.551" = type { %"class.WTF::VectorBuffer.552" }
%"class.WTF::VectorBuffer.552" = type { %"class.WTF::VectorBufferBase.553" }
%"class.WTF::VectorBufferBase.553" = type { %"class.WTF::String"*, i32, i32 }
%"class.WTF::Vector.546" = type { %"class.WTF::VectorBuffer.547" }
%"class.WTF::VectorBuffer.547" = type { %"class.WTF::VectorBufferBase.548" }
%"class.WTF::VectorBufferBase.548" = type { i8*, i32, i32 }
%"class.WTF::Vector.556" = type { %"class.WTF::VectorBuffer.557" }
%"class.WTF::VectorBuffer.557" = type { %"class.WTF::VectorBufferBase.558" }
%"class.WTF::VectorBufferBase.558" = type { i32*, i32, i32 }
%"class.WTF::Vector.541" = type { %"class.WTF::VectorBuffer.542" }
%"class.WTF::VectorBuffer.542" = type { %"class.WTF::VectorBufferBase.543" }
%"class.WTF::VectorBufferBase.543" = type { double*, i32, i32 }
%"class.absl::optional.561" = type { %"class.absl::optional_internal::optional_data.562" }
%"class.absl::optional_internal::optional_data.562" = type { %"class.absl::optional_internal::optional_data_base.563" }
%"class.absl::optional_internal::optional_data_base.563" = type { %"class.absl::optional_internal::optional_data_dtor_base.564" }
%"class.absl::optional_internal::optional_data_dtor_base.564" = type { i8, %union.anon.565 }
%union.anon.565 = type { i32 }
%"class.absl::optional.566" = type { %"class.absl::optional_internal::optional_data.567" }
%"class.absl::optional_internal::optional_data.567" = type { %"class.absl::optional_internal::optional_data_base.568" }
%"class.absl::optional_internal::optional_data_base.568" = type { %"class.absl::optional_internal::optional_data_dtor_base.569" }
%"class.absl::optional_internal::optional_data_dtor_base.569" = type { i8, %union.anon.570 }
%union.anon.570 = type { i8 }
%"class.blink::MediaConstraints" = type { %"class.blink::WebPrivatePtr.535" }
%"class.blink::WebPrivatePtr.535" = type { i8* }
%"class.std::__1::unique_ptr.571" = type { %"class.std::__1::__compressed_pair.572" }
%"class.std::__1::__compressed_pair.572" = type { %"struct.std::__1::__compressed_pair_elem.573" }
%"struct.std::__1::__compressed_pair_elem.573" = type { %"class.blink::MediaStreamTrackPlatform"* }
%"class.blink::MediaStreamTrackPlatform" = type <{ i32 (...)**, i8, [7 x i8] }>
%"class.blink::Member.577" = type { %"class.blink::MemberBase.578" }
%"class.blink::MemberBase.578" = type { %"class.blink::ImageCapture"* }
%"class.blink::ImageCapture" = type opaque
%"class.blink::WeakMember.418" = type { %"class.blink::MemberBase.361" }
%"class.blink::MemberBase.361" = type { %"class.blink::ExecutionContext"* }
%"class.blink::ExecutionContext" = type <{ %"class.blink::Supplementable", %"class.blink::MojoBindingContext", %"class.blink::ConsoleLogger", %"class.blink::UseCounter", %"class.blink::FeatureContext", %"class.v8::Isolate"*, %"class.blink::SecurityContext", %"class.blink::Member.366", i32, i8, [3 x i8], %"class.blink::HeapVector.368", i32, i8, i8, i8, i8, i8, i8, [6 x i8], %"class.blink::Member.376", %"class.blink::Member.378", %"class.blink::DOMTimerCoordinator", i32, [4 x i8], %"class.std::__1::unique_ptr.387", %"class.blink::Member.393", %"class.blink::Member.395", i8, [7 x i8] }>
%"class.blink::Supplementable" = type { %"class.blink::GarbageCollectedMixin", %"class.blink::HeapHashMap.323" }
%"class.blink::HeapHashMap.323" = type { %"class.WTF::HashMap.326" }
%"class.WTF::HashMap.326" = type { %"class.WTF::HashTable.327" }
%"class.WTF::HashTable.327" = type <{ %"struct.WTF::KeyValuePair.329"*, i32, i32, i32, [4 x i8] }>
%"struct.WTF::KeyValuePair.329" = type opaque
%"class.blink::MojoBindingContext" = type { %"class.blink::ContextLifecycleNotifier", %"class.blink::Supplementable.335" }
%"class.blink::ContextLifecycleNotifier" = type { %"class.blink::GarbageCollectedMixin", %"class.blink::HeapObserverSet" }
%"class.blink::HeapObserverSet" = type { i32, [4 x i8], %"class.blink::HeapHashSet" }
%"class.blink::HeapHashSet" = type { %"class.WTF::HashSet" }
%"class.WTF::HashSet" = type { %"class.WTF::HashTable.332" }
%"class.WTF::HashTable.332" = type <{ %"class.blink::WeakMember.334"*, i32, i32, i32, [4 x i8] }>
%"class.blink::WeakMember.334" = type opaque
%"class.blink::Supplementable.335" = type { %"class.blink::GarbageCollectedMixin", %"class.blink::HeapHashMap.336" }
%"class.blink::HeapHashMap.336" = type { %"class.WTF::HashMap.339" }
%"class.WTF::HashMap.339" = type { %"class.WTF::HashTable.340" }
%"class.WTF::HashTable.340" = type <{ %"struct.WTF::KeyValuePair.342"*, i32, i32, i32, [4 x i8] }>
%"struct.WTF::KeyValuePair.342" = type { i8*, %"class.blink::Member.343" }
%"class.blink::Member.343" = type { %"class.blink::MemberBase.344" }
%"class.blink::MemberBase.344" = type { %"class.blink::Supplement"* }
%"class.blink::Supplement" = type { %"class.blink::GarbageCollectedMixin", %"class.blink::Member.345" }
%"class.blink::Member.345" = type { %"class.blink::MemberBase.346" }
%"class.blink::MemberBase.346" = type { %"class.blink::MojoBindingContext"* }
%"class.blink::ConsoleLogger" = type { %"class.blink::GarbageCollectedMixin" }
%"class.blink::UseCounter" = type { %"class.blink::GarbageCollectedMixin" }
%"class.blink::FeatureContext" = type { i32 (...)** }
%"class.blink::SecurityContext" = type { i32 (...)**, i32, %class.scoped_refptr.347, %"class.std::__1::unique_ptr.348", %"class.std::__1::unique_ptr.348", %"class.std::__1::unique_ptr.354", %"class.std::__1::unique_ptr.354", %"class.blink::Member.360", i32, [4 x i8], %"class.WTF::HashSet.362", i32, i32 }
%class.scoped_refptr.347 = type { %"class.blink::SecurityOrigin"* }
%"class.blink::SecurityOrigin" = type opaque
%"class.std::__1::unique_ptr.348" = type { %"class.std::__1::__compressed_pair.349" }
%"class.std::__1::__compressed_pair.349" = type { %"struct.std::__1::__compressed_pair_elem.350" }
%"struct.std::__1::__compressed_pair_elem.350" = type { %"class.blink::PermissionsPolicy"* }
%"class.blink::PermissionsPolicy" = type opaque
%"class.std::__1::unique_ptr.354" = type { %"class.std::__1::__compressed_pair.355" }
%"class.std::__1::__compressed_pair.355" = type { %"struct.std::__1::__compressed_pair_elem.356" }
%"struct.std::__1::__compressed_pair_elem.356" = type { %"class.blink::DocumentPolicy"* }
%"class.blink::DocumentPolicy" = type opaque
%"class.blink::Member.360" = type { %"class.blink::MemberBase.361" }
%"class.WTF::HashSet.362" = type { %"class.WTF::HashTable.363" }
%"class.WTF::HashTable.363" = type <{ i32*, i32, i32, i32, [4 x i8] }>
%"class.blink::Member.366" = type { %"class.blink::MemberBase.367" }
%"class.blink::MemberBase.367" = type { %"class.blink::Agent"* }
%"class.blink::Agent" = type opaque
%"class.blink::HeapVector.368" = type { %"class.WTF::Vector.371" }
%"class.WTF::Vector.371" = type { %"class.WTF::VectorBuffer.372" }
%"class.WTF::VectorBuffer.372" = type { %"class.WTF::VectorBufferBase.373" }
%"class.WTF::VectorBufferBase.373" = type { %"class.blink::Member.374"*, i32, i32 }
%"class.blink::Member.374" = type opaque
%"class.blink::Member.376" = type { %"class.blink::MemberBase.377" }
%"class.blink::MemberBase.377" = type { %"class.blink::PublicURLManager"* }
%"class.blink::PublicURLManager" = type opaque
%"class.blink::Member.378" = type { %"class.blink::MemberBase.379" }
%"class.blink::MemberBase.379" = type { %"class.blink::ContentSecurityPolicyDelegate"* }
%"class.blink::ContentSecurityPolicyDelegate" = type opaque
%"class.blink::DOMTimerCoordinator" = type { %"class.blink::HeapHashMap.380", i32, i32 }
%"class.blink::HeapHashMap.380" = type { %"class.WTF::HashMap.383" }
%"class.WTF::HashMap.383" = type { %"class.WTF::HashTable.384" }
%"class.WTF::HashTable.384" = type <{ %"struct.WTF::KeyValuePair.386"*, i32, i32, i32, [4 x i8] }>
%"struct.WTF::KeyValuePair.386" = type opaque
%"class.std::__1::unique_ptr.387" = type { %"class.std::__1::__compressed_pair.388" }
%"class.std::__1::__compressed_pair.388" = type { %"struct.std::__1::__compressed_pair_elem.389" }
%"struct.std::__1::__compressed_pair_elem.389" = type { %"class.blink::PolicyContainer"* }
%"class.blink::PolicyContainer" = type opaque
%"class.blink::Member.393" = type { %"class.blink::MemberBase.394" }
%"class.blink::MemberBase.394" = type { %"class.blink::OriginTrialContext"* }
%"class.blink::OriginTrialContext" = type opaque
%"class.blink::Member.395" = type { %"class.blink::MemberBase.396" }
%"class.blink::MemberBase.396" = type { %"class.blink::ContentSecurityPolicy"* }
%"class.blink::ContentSecurityPolicy" = type opaque
%"class.blink::HeapHashSet.579" = type { %"class.WTF::HashSet.582" }
%"class.WTF::HashSet.582" = type { %"class.WTF::HashTable.583" }
%"class.WTF::HashTable.583" = type <{ %"class.blink::WeakMember.585"*, i32, i32, i32, [4 x i8] }>
%"class.blink::WeakMember.585" = type opaque
%"class.blink::V8PerIsolateData" = type { i32, %"class.gin::IsolateHolder", %"class.WTF::HashMap.210", %"class.WTF::HashMap.210", %"class.WTF::HashMap.215", %"class.std::__1::unique_ptr.220", %"class.std::__1::unique_ptr.267", %"class.blink::Persistent.278", i8, i8, i8, %"class.WTF::Vector.280", %"class.std::__1::unique_ptr.291", %"class.blink::Persistent.297", %"class.blink::Persistent.301", %"class.blink::RuntimeCallStats", void (%"class.v8::Isolate"*, i32, i32)*, void (%"class.v8::Isolate"*, i32, i32)*, i64 }
%"class.gin::IsolateHolder" = type { %"class.std::__1::unique_ptr.192", %"class.v8::Isolate"*, %"class.std::__1::unique_ptr.198", %"class.std::__1::unique_ptr.204", i32, i32 }
%"class.std::__1::unique_ptr.192" = type { %"class.std::__1::__compressed_pair.193" }
%"class.std::__1::__compressed_pair.193" = type { %"struct.std::__1::__compressed_pair_elem.194" }
%"struct.std::__1::__compressed_pair_elem.194" = type { %"class.v8::SnapshotCreator"* }
%"class.v8::SnapshotCreator" = type { i8* }
%"class.std::__1::unique_ptr.198" = type { %"class.std::__1::__compressed_pair.199" }
%"class.std::__1::__compressed_pair.199" = type { %"struct.std::__1::__compressed_pair_elem.200" }
%"struct.std::__1::__compressed_pair_elem.200" = type { %"class.gin::PerIsolateData"* }
%"class.gin::PerIsolateData" = type opaque
%"class.std::__1::unique_ptr.204" = type { %"class.std::__1::__compressed_pair.205" }
%"class.std::__1::__compressed_pair.205" = type { %"struct.std::__1::__compressed_pair_elem.206" }
%"struct.std::__1::__compressed_pair_elem.206" = type { %"class.gin::V8IsolateMemoryDumpProvider"* }
%"class.gin::V8IsolateMemoryDumpProvider" = type opaque
%"class.WTF::HashMap.210" = type { %"class.WTF::HashTable.211" }
%"class.WTF::HashTable.211" = type <{ %"struct.WTF::KeyValuePair.214"*, i32, i32, i32, [4 x i8] }>
%"struct.WTF::KeyValuePair.214" = type opaque
%"class.WTF::HashMap.215" = type { %"class.WTF::HashTable.216" }
%"class.WTF::HashTable.216" = type <{ %"struct.WTF::KeyValuePair.219"*, i32, i32, i32, [4 x i8] }>
%"struct.WTF::KeyValuePair.219" = type opaque
%"class.std::__1::unique_ptr.220" = type { %"class.std::__1::__compressed_pair.221" }
%"class.std::__1::__compressed_pair.221" = type { %"struct.std::__1::__compressed_pair_elem.222" }
%"struct.std::__1::__compressed_pair_elem.222" = type { %"class.blink::StringCache"* }
%"class.blink::StringCache" = type { %"class.v8::GlobalValueMap", %"class.v8::PersistentValueMapBase<WTF::StringImpl *, v8::String, blink::StringCacheMapTraits>::PersistentValueReference", %"class.v8::GlobalValueMap.228", %class.scoped_refptr.183 }
%"class.v8::GlobalValueMap" = type { %"class.v8::PersistentValueMapBase" }
%"class.v8::PersistentValueMapBase" = type { %"class.v8::Isolate"*, %"class.WTF::HashMap.223", i8* }
%"class.WTF::HashMap.223" = type { %"class.WTF::HashTable.224" }
%"class.WTF::HashTable.224" = type <{ %"struct.WTF::KeyValuePair.227"*, i32, i32, i32, [4 x i8] }>
%"struct.WTF::KeyValuePair.227" = type { %"class.WTF::StringImpl"*, i64 }
%"class.v8::PersistentValueMapBase<WTF::StringImpl *, v8::String, blink::StringCacheMapTraits>::PersistentValueReference" = type { i64 }
%"class.v8::GlobalValueMap.228" = type { %"class.v8::PersistentValueMapBase.229" }
%"class.v8::PersistentValueMapBase.229" = type { %"class.v8::Isolate"*, %"class.WTF::HashMap.230", i8* }
%"class.WTF::HashMap.230" = type { %"class.WTF::HashTable.231" }
%"class.WTF::HashTable.231" = type <{ %"struct.WTF::KeyValuePair.234"*, i32, i32, i32, [4 x i8] }>
%"struct.WTF::KeyValuePair.234" = type { %"class.blink::ParkableStringImpl"*, i64 }
%"class.blink::ParkableStringImpl" = type { %"class.WTF::RefCounted.235", %"class.WTF::String", %"class.std::__1::unique_ptr.237" }
%"class.WTF::RefCounted.235" = type { %"class.base::RefCounted.236" }
%"class.base::RefCounted.236" = type { %"class.base::subtle::RefCountedBase" }
%"class.std::__1::unique_ptr.237" = type { %"class.std::__1::__compressed_pair.238" }
%"class.std::__1::__compressed_pair.238" = type { %"struct.std::__1::__compressed_pair_elem.239" }
%"struct.std::__1::__compressed_pair_elem.239" = type { %"struct.blink::ParkableStringImpl::ParkableMetadata"* }
%"struct.blink::ParkableStringImpl::ParkableMetadata" = type { %"class.WTF::Mutex", i32, i8, i8, %"class.std::__1::unique_ptr.240", %"class.std::__1::unique_ptr.251", %"class.WTF::Vector.257", i8, i32 }
%"class.std::__1::unique_ptr.240" = type { %"class.std::__1::__compressed_pair.241" }
%"class.std::__1::__compressed_pair.241" = type { %"struct.std::__1::__compressed_pair_elem.242" }
%"struct.std::__1::__compressed_pair_elem.242" = type { %"class.WTF::Vector.243"* }
%"class.WTF::Vector.243" = type { %"class.WTF::VectorBuffer.244" }
%"class.WTF::VectorBuffer.244" = type { %"class.WTF::VectorBufferBase.245" }
%"class.WTF::VectorBufferBase.245" = type { i8*, i32, i32 }
%"class.std::__1::unique_ptr.251" = type { %"class.std::__1::__compressed_pair.252" }
%"class.std::__1::__compressed_pair.252" = type { %"struct.std::__1::__compressed_pair_elem.253" }
%"struct.std::__1::__compressed_pair_elem.253" = type { %"class.blink::DiskDataMetadata"* }
%"class.blink::DiskDataMetadata" = type { i64, i64 }
%"class.WTF::Vector.257" = type { %"class.WTF::VectorBuffer.258" }
%"class.WTF::VectorBuffer.258" = type { %"class.WTF::VectorBufferBase.245", [32 x i8] }
%"class.std::__1::unique_ptr.267" = type { %"class.std::__1::__compressed_pair.268" }
%"class.std::__1::__compressed_pair.268" = type { %"struct.std::__1::__compressed_pair_elem.269" }
%"struct.std::__1::__compressed_pair_elem.269" = type { %"class.blink::V8PrivateProperty"* }
%"class.blink::V8PrivateProperty" = type { %"class.blink::ScopedPersistent", %"class.WTF::HashMap.270" }
%"class.blink::ScopedPersistent" = type { %"class.v8::Persistent" }
%"class.v8::Persistent" = type { %"class.v8::PersistentBase" }
%"class.v8::PersistentBase" = type { %"class.v8::Private"* }
%"class.v8::Private" = type { i8 }
%"class.WTF::HashMap.270" = type { %"class.WTF::HashTable.271" }
%"class.WTF::HashTable.271" = type <{ %"struct.WTF::KeyValuePair.274"*, i32, i32, i32, [4 x i8] }>
%"struct.WTF::KeyValuePair.274" = type opaque
%"class.blink::Persistent.278" = type { %"class.blink::PersistentBase.279" }
%"class.blink::PersistentBase.279" = type { %"class.blink::ScriptState"*, %"class.blink::PersistentNodePtr" }
%"class.blink::ScriptState" = type { %"class.v8::Isolate"*, %"class.blink::ScopedPersistent.316", %class.scoped_refptr.319, %"class.blink::Member.320", %"class.blink::SelfKeepAlive", %"class.util::TokenType" }
%"class.blink::ScopedPersistent.316" = type { %"class.v8::Persistent.317" }
%"class.v8::Persistent.317" = type { %"class.v8::PersistentBase.318" }
%"class.v8::PersistentBase.318" = type { %"class.v8::Context"* }
%class.scoped_refptr.319 = type { %"class.blink::DOMWrapperWorld"* }
%"class.blink::Member.320" = type { %"class.blink::MemberBase.321" }
%"class.blink::MemberBase.321" = type { %"class.blink::V8PerContextData"* }
%"class.blink::V8PerContextData" = type opaque
%"class.blink::SelfKeepAlive" = type { %"class.blink::Persistent.278" }
%"class.util::TokenType" = type { %"class.base::StrongAlias" }
%"class.base::StrongAlias" = type { %"class.base::UnguessableToken" }
%"class.WTF::Vector.280" = type { %"class.WTF::VectorBuffer.281" }
%"class.WTF::VectorBuffer.281" = type { %"class.WTF::VectorBufferBase.282" }
%"class.WTF::VectorBufferBase.282" = type { %"class.base::OnceCallback"*, i32, i32 }
%"class.base::OnceCallback" = type { %"class.base::internal::CallbackBase" }
%"class.std::__1::unique_ptr.291" = type { %"class.std::__1::__compressed_pair.292" }
%"class.std::__1::__compressed_pair.292" = type { %"struct.std::__1::__compressed_pair_elem.293" }
%"struct.std::__1::__compressed_pair_elem.293" = type { %"class.blink::V8PerIsolateData::Data"* }
%"class.blink::V8PerIsolateData::Data" = type { i32 (...)** }
%"class.blink::Persistent.297" = type { %"class.blink::PersistentBase.298" }
%"class.blink::PersistentBase.298" = type { %"class.blink::V8PerIsolateData::GarbageCollectedData"*, %"class.blink::PersistentNodePtr" }
%"class.blink::V8PerIsolateData::GarbageCollectedData" = type { i32 (...)** }
%"class.blink::Persistent.301" = type { %"class.blink::PersistentBase.302" }
%"class.blink::PersistentBase.302" = type { %"class.blink::ActiveScriptWrappableManager"*, %"class.blink::PersistentNodePtr" }
%"class.blink::ActiveScriptWrappableManager" = type { %"class.blink::HeapVector", i64 }
%"class.blink::HeapVector" = type { %"class.WTF::Vector.307" }
%"class.WTF::Vector.307" = type { %"class.WTF::VectorBuffer.308" }
%"class.WTF::VectorBuffer.308" = type { %"class.WTF::VectorBufferBase.309" }
%"class.WTF::VectorBufferBase.309" = type { %"struct.std::__1::pair.310"*, i32, i32 }
%"struct.std::__1::pair.310" = type { %"class.blink::UntracedMember", %"class.blink::Member" }
%"class.blink::UntracedMember" = type { %"class.blink::MemberBase.311" }
%"class.blink::MemberBase.311" = type { %"class.blink::ActiveScriptWrappableBase"* }
%"class.blink::Member" = type { %"class.blink::MemberBase.312" }
%"class.blink::MemberBase.312" = type { %"class.blink::ActiveScriptWrappableBase"* }
%"class.blink::RuntimeCallStats" = type { %"class.blink::RuntimeCallTimer"*, i8, [40 x %"class.blink::RuntimeCallCounter"], %"class.base::TickClock"* }
%"class.blink::RuntimeCallTimer" = type { %"class.blink::RuntimeCallCounter"*, %"class.blink::RuntimeCallTimer"*, %"class.base::TimeTicks", %"class.base::TimeDelta", %"class.base::TickClock"* }
%"class.blink::RuntimeCallCounter" = type { i64, %"class.base::TimeDelta", i8* }
%"class.base::TimeDelta" = type { i64 }
%"class.base::TickClock" = type opaque
%"class.blink::MediaStream" = type <{ %"class.blink::EventTargetWithInlineData", %"class.blink::ExecutionContextClient", %"class.blink::ActiveScriptWrappable", %"class.blink::MediaStreamDescriptorClient", %"class.blink::HeapVector.419", %"class.blink::HeapVector.419", %"class.blink::Member.587", %"class.blink::HeapHashSet.605", %"class.base::OnceCallback.612", %"class.blink::HeapTaskRunnerTimer", %"class.blink::HeapVector.618", i32, [4 x i8] }>
%"class.blink::ExecutionContextClient" = type { %"class.blink::GarbageCollectedMixin", %"class.blink::WeakMember.418" }
%"class.blink::ActiveScriptWrappable" = type { %"class.blink::ActiveScriptWrappableBase" }
%"class.blink::MediaStreamDescriptorClient" = type { %"class.blink::GarbageCollectedMixin" }
%"class.blink::Member.587" = type { %"class.blink::MemberBase.588" }
%"class.blink::MemberBase.588" = type { %"class.blink::MediaStreamDescriptor"* }
%"class.blink::MediaStreamDescriptor" = type <{ %"class.blink::Member.591", %"class.WTF::String", i32, [4 x i8], %"class.blink::HeapVector.593", %"class.blink::HeapVector.593", %"class.WTF::Vector.600", i8, [7 x i8] }>
%"class.blink::Member.591" = type { %"class.blink::MemberBase.592" }
%"class.blink::MemberBase.592" = type { %"class.blink::MediaStreamDescriptorClient"* }
%"class.blink::HeapVector.593" = type { %"class.WTF::Vector.596" }
%"class.WTF::Vector.596" = type { %"class.WTF::VectorBuffer.597" }
%"class.WTF::VectorBuffer.597" = type { %"class.WTF::VectorBufferBase.598" }
%"class.WTF::VectorBufferBase.598" = type { %"class.blink::Member.442"*, i32, i32 }
%"class.WTF::Vector.600" = type { %"class.WTF::VectorBuffer.601" }
%"class.WTF::VectorBuffer.601" = type { %"class.WTF::VectorBufferBase.602" }
%"class.WTF::VectorBufferBase.602" = type { %"class.blink::WebMediaStreamObserver"**, i32, i32 }
%"class.blink::WebMediaStreamObserver" = type opaque
%"class.blink::HeapHashSet.605" = type { %"class.WTF::HashSet.608" }
%"class.WTF::HashSet.608" = type { %"class.WTF::HashTable.609" }
%"class.WTF::HashTable.609" = type <{ %"class.blink::WeakMember.611"*, i32, i32, i32, [4 x i8] }>
%"class.blink::WeakMember.611" = type opaque
%"class.base::OnceCallback.612" = type { %"class.base::internal::CallbackBase" }
%"class.blink::HeapTaskRunnerTimer" = type { %"class.blink::TimerBase", %"class.blink::WeakMember.616", { i64, i64 } }
%"class.blink::TimerBase" = type { i32 (...)**, %"class.base::TimeTicks", %"class.base::TimeDelta", %"class.base::Location", %class.scoped_refptr.613, %"class.base::WeakPtrFactory" }
%"class.base::Location" = type { i8*, i8*, i32, i8* }
%class.scoped_refptr.613 = type { %"class.base::SingleThreadTaskRunner"* }
%"class.base::SingleThreadTaskRunner" = type { %"class.base::SequencedTaskRunner.base", [4 x i8] }
%"class.base::SequencedTaskRunner.base" = type { %"class.base::TaskRunner.base" }
%"class.base::TaskRunner.base" = type <{ i32 (...)**, %"class.base::RefCountedThreadSafe.614" }>
%"class.base::RefCountedThreadSafe.614" = type { %"class.base::subtle::RefCountedThreadSafeBase" }
%"class.base::WeakPtrFactory" = type { %"class.base::internal::WeakPtrFactoryBase" }
%"class.base::internal::WeakPtrFactoryBase" = type { %"class.base::internal::WeakReferenceOwner", i64 }
%"class.base::internal::WeakReferenceOwner" = type { %class.scoped_refptr.615 }
%class.scoped_refptr.615 = type { %"class.base::internal::WeakReference::Flag"* }
%"class.blink::WeakMember.616" = type { %"class.blink::MemberBase.617" }
%"class.blink::MemberBase.617" = type { %"class.blink::MediaStream"* }
%"class.blink::HeapVector.618" = type { %"class.WTF::Vector.621" }
%"class.WTF::Vector.621" = type { %"class.WTF::VectorBuffer.622" }
%"class.WTF::VectorBuffer.622" = type { %"class.WTF::VectorBufferBase.623" }
%"class.WTF::VectorBufferBase.623" = type { %"class.blink::Member.624"*, i32, i32 }
%"class.blink::Member.624" = type opaque
%"class.v8::internal::Isolate" = type opaque
%"class.blink::EventListener" = type { %"class.blink::NameClient", %"class.blink::probe::AsyncTaskId" }
%"class.blink::probe::AsyncTaskId" = type { i8, %"class.absl::optional.657" }
%"class.absl::optional.657" = type { %"class.absl::optional_internal::optional_data.658" }
%"class.absl::optional_internal::optional_data.658" = type { %"class.absl::optional_internal::optional_data_base.659" }
%"class.absl::optional_internal::optional_data_base.659" = type { %"class.absl::optional_internal::optional_data_dtor_base.660" }
%"class.absl::optional_internal::optional_data_dtor_base.660" = type { i8, %union.anon.661 }
%union.anon.661 = type { i64 }
%"class.blink::JSBasedEventListener" = type { %"class.blink::EventListener" }
%"class.blink::JSEventHandler" = type <{ %"class.blink::JSBasedEventListener", %"class.blink::Member.662", i32, [4 x i8] }>
%"class.blink::Member.662" = type { %"class.blink::MemberBase.663" }
%"class.blink::MemberBase.663" = type { %"class.blink::V8EventHandlerNonNull"* }
%"class.blink::V8EventHandlerNonNull" = type { %"class.blink::CallbackFunctionBase" }
%"class.blink::CallbackFunctionBase" = type { %"class.blink::NameClient", %"class.blink::TraceWrapperV8Reference", %"class.blink::Member.666", %"class.blink::Member.666" }
%"class.blink::Member.666" = type { %"class.blink::MemberBase.667" }
%"class.blink::MemberBase.667" = type { %"class.blink::ScriptState"* }
%"class.blink::HeapVector.669" = type { %"class.WTF::Vector.672" }
%"class.WTF::Vector.672" = type { %"class.WTF::VectorBuffer.673" }
%"class.WTF::VectorBuffer.673" = type { %"class.WTF::VectorBufferBase.674" }
%"class.WTF::VectorBufferBase.674" = type { %"class.blink::Member.675"*, i32, i32 }
%"class.blink::Member.675" = type { %"class.blink::MemberBase.676" }
%"class.blink::MemberBase.676" = type { %"class.blink::ScriptWrappable"* }
%"class.blink::bindings::NativeValueTraitsStringAdapter" = type { %"class.v8::Local.627", %"class.WTF::String", %"class.WTF::StringView::StackBackingStore" }
%"class.v8::Local.627" = type { %"class.v8::String"* }
%"class.v8::String" = type { i8 }
%"class.WTF::StringView::StackBackingStore" = type { [64 x i16], %"class.std::__1::unique_ptr.678" }
%"class.std::__1::unique_ptr.678" = type { %"class.std::__1::__compressed_pair.679" }
%"class.std::__1::__compressed_pair.679" = type { %"struct.std::__1::__compressed_pair_elem.680" }
%"struct.std::__1::__compressed_pair_elem.680" = type { i8* }
%"class.blink::ScriptIterator" = type { %"class.v8::Isolate"*, %"class.v8::Local.177", %"class.v8::Local.180", %"class.v8::Local.627", %"class.v8::Local.627", i8, %"class.v8::MaybeLocal" }
%"class.v8::Local.177" = type { %"class.v8::Object"* }
%"class.v8::Local.180" = type { %"class.v8::Value"* }
%"class.v8::MaybeLocal" = type { %"class.v8::Value"* }
%"class.v8::Array" = type { i8 }
%"class.v8::TryCatch" = type <{ %"class.v8::internal::Isolate"*, %"class.v8::TryCatch"*, i8*, i8*, i8*, i8, [7 x i8] }>
%"class.blink::HeapVectorBacking" = type { i8 }
%"class.logging::CheckOpResult" = type { i8* }
%"class.logging::CheckError" = type { %"class.logging::LogMessage"* }
%"class.logging::LogMessage" = type { i32 (...)**, i32, %"class.std::__1::basic_ostringstream", i64, i8*, i32, %"class.base::ScopedClearLastErrorBase" }
%"class.std::__1::basic_ostringstream" = type { %"class.std::__1::basic_ostream.base", %"class.std::__1::basic_stringbuf", %"class.std::__1::basic_ios.base" }
%"class.std::__1::basic_ostream.base" = type { i32 (...)** }
%"class.std::__1::basic_stringbuf" = type <{ %"class.std::__1::basic_streambuf", %"class.std::__1::basic_string", i8*, i32, [4 x i8] }>
%"class.std::__1::basic_streambuf" = type { i32 (...)**, %"class.std::__1::locale", i8*, i8*, i8*, i8*, i8*, i8* }
%"class.std::__1::locale" = type { %"class.std::__1::locale::__imp"* }
%"class.std::__1::locale::__imp" = type opaque
%"class.std::__1::basic_ios.base" = type <{ %"class.std::__1::ios_base", %"class.std::__1::basic_ostream"*, i32 }>
%"class.std::__1::ios_base" = type { i32 (...)**, i32, i64, i64, i32, i32, i8*, i8*, void (i32, %"class.std::__1::ios_base"*, i32)**, i32*, i64, i64, i64*, i64, i64, i8**, i64, i64 }
%"class.std::__1::basic_ostream" = type { i32 (...)**, %"class.std::__1::basic_ios.base" }
%"class.base::ScopedClearLastErrorBase" = type { i32 }
%"class.blink::NormalPageArena" = type { %"class.blink::BaseArena.base", [4 x i8], %"class.blink::FreeList", i8*, i64, i64 }
%"class.blink::BaseArena.base" = type <{ i32 (...)**, %"class.blink::PageStackThreadSafe", %"class.blink::PageStackThreadSafe", %"class.blink::PageStackThreadSafe", %"class.blink::PageStackThreadSafe", %"class.blink::ThreadState"*, i32 }>
%"class.blink::FreeList" = type <{ [17 x %"class.blink::FreeListEntry"*], [17 x %"class.blink::FreeListEntry"*], i32, [4 x i8] }>
%"class.blink::FreeListEntry" = type { %"class.blink::HeapObjectHeader", %"class.blink::FreeListEntry"* }
%"class.blink::PlatformAwareObjectStartBitmap" = type { %"class.blink::ObjectStartBitmap" }
%"class.blink::ObjectStartBitmap" = type { i8*, [2048 x i8] }
%"class.v8::Int32" = type { i8 }

$_ZN5blink17NativeValueTraitsINS_11IDLSequenceINS_16MediaStreamTrackEEEvE11NativeValueEPN2v87IsolateENS5_5LocalINS5_5ValueEEERNS_14ExceptionStateE = comdat any

$_ZN5blink8bindings28CreateIDLSequenceFromV8ArrayINS_16MediaStreamTrackEEENS_17NativeValueTraitsINS_11IDLSequenceIT_EEvE8ImplTypeEPN2v87IsolateENS9_5LocalINS9_5ArrayEEERNS_14ExceptionStateE = comdat any

$_ZN5blink8bindings29CreateIDLSequenceFromIteratorINS_16MediaStreamTrackEEENS_17NativeValueTraitsINS_11IDLSequenceIT_EEvE8ImplTypeEPN2v87IsolateENS_14ScriptIteratorERNS_14ExceptionStateE = comdat any

$_ZN5blink13HeapAllocator13QuantizedSizeINS_6MemberINS_16MediaStreamTrackEEEEEmm = comdat any

$_ZN5blink25MakeGarbageCollectedTraitINS_17HeapVectorBackingINS_6MemberINS_16MediaStreamTrackEEEN3WTF12VectorTraitsIS4_EEEEE4CallEm = comdat any

$_ZN5blink17HeapVectorBackingINS_6MemberINS_16MediaStreamTrackEEEN3WTF12VectorTraitsIS3_EEE14AllocateObjectIS7_EEPvm = comdat any

$_ZN5blink10TraceTraitINS_17HeapVectorBackingINS_6MemberINS_16MediaStreamTrackEEEN3WTF12VectorTraitsIS4_EEEEE5TraceEPNS_7VisitorEPKv = comdat any

$_ZN5blink9NameTraitINS_17HeapVectorBackingINS_6MemberINS_16MediaStreamTrackEEEN3WTF12VectorTraitsIS4_EEEEE7GetNameEPKv = comdat any

$_ZN5blink10TraceTraitINS_16MediaStreamTrackEE5TraceEPNS_7VisitorEPKv = comdat any

$_ZN3WTF6VectorIN5blink6MemberINS1_16MediaStreamTrackEEELj0ENS1_13HeapAllocatorEE14AppendSlowCaseIPS3_EEvOT_ = comdat any

$_ZN3WTF6VectorIN5blink6MemberINS1_16MediaStreamTrackEEELj0ENS1_13HeapAllocatorEE15ReserveCapacityEj = comdat any

$_ZN3WTF6VectorIN5blink6MemberINS1_16MediaStreamTrackEEELj0ENS1_13HeapAllocatorEE16ReallocateBufferEj = comdat any

$_ZN5blink11ScriptState4FromEN2v85LocalINS1_7ContextEEE = comdat any

$_ZN5blink12DOMDataStore18SetReturnValueFastEN2v811ReturnValueINS1_5ValueEEEPNS_15ScriptWrappableENS1_5LocalINS1_6ObjectEEEPKS5_ = comdat any

$_ZN3WTF9HashTableIN5blink10WeakMemberIKNS1_15ScriptWrappableEEENS_12KeyValuePairIS5_NS1_23TraceWrapperV8ReferenceIN2v86ObjectEEEEENS_24KeyValuePairKeyExtractorENS_10MemberHashIS4_EENS_18HashMapValueTraitsINS_10HashTraitsIS5_EENSG_ISA_EEEESH_NS1_13HeapAllocatorEE4findEPS4_ = comdat any

$_ZN3WTF6VectorIN5blink6MemberINS1_16MediaStreamTrackEEELj0ENS1_13HeapAllocatorEEC2ERKS6_ = comdat any

$_ZN5blink8bindings18ToV8HelperSequenceINS_15ScriptWrappableENS_10HeapVectorINS_6MemberIS2_EELj0EEEEEN2v810MaybeLocalINS7_5ValueEEEPNS_11ScriptStateERKT0_ = comdat any

$_ZN5blink12DOMDataStore10GetWrapperEPNS_15ScriptWrappableEPN2v87IsolateE = comdat any

$_ZN5blink17NativeValueTraitsINS_15IDLStringBaseV2ILNS_8bindings17IDLStringConvModeE0EEEvE11NativeValueEPN2v87IsolateENS6_5LocalINS6_5ValueEEERNS_14ExceptionStateE = comdat any

$_ZZN5blink11GCInfoTraitINS_17HeapVectorBackingINS_6MemberINS_16MediaStreamTrackEEEN3WTF12VectorTraitsIS4_EEEEE5IndexEvE7kGcInfo = comdat any

$_ZZN5blink11GCInfoTraitINS_17HeapVectorBackingINS_6MemberINS_16MediaStreamTrackEEEN3WTF12VectorTraitsIS4_EEEEE5IndexEvE13gc_info_index = comdat any

@.str = private unnamed_addr constant [12 x i8] c"MediaStream\00", align 1
@_ZN5blink13V8EventTarget18wrapper_type_info_E = external global %"struct.blink::WrapperTypeInfo", align 8
@_ZN5blink13V8MediaStream18wrapper_type_info_E = hidden constant %"struct.blink::WrapperTypeInfo" { i16 1, void (%"class.v8::Isolate"*, %"class.blink::DOMWrapperWorld"*, %"class.v8::Template"*)* @_ZN5blink13V8MediaStream24InstallInterfaceTemplateEPN2v87IsolateERKNS_15DOMWrapperWorldENS1_5LocalINS1_8TemplateEEE, void (%"class.v8::Context"*, %"class.blink::DOMWrapperWorld"*, %"class.v8::Object"*, %"class.v8::Object"*, %"class.v8::Object"*, %"class.v8::Template"*, i64)* null, i8* getelementptr inbounds ([12 x i8], [12 x i8]* @.str, i32 0, i32 0), %"struct.blink::WrapperTypeInfo"* @_ZN5blink13V8EventTarget18wrapper_type_info_E, i8 24 }, align 8
@_ZN5blink11MediaStream18wrapper_type_info_E = hidden local_unnamed_addr constant %"struct.blink::WrapperTypeInfo"* @_ZN5blink13V8MediaStream18wrapper_type_info_E, align 8
@.ref.tmp = private constant %"class.v8::MemorySpan" zeroinitializer, align 8
@_ZZN5blink13V8MediaStream30InstallUnconditionalPropertiesEPN2v87IsolateERKNS_15DOMWrapperWorldENS1_5LocalINS1_8TemplateEEES9_S9_E15kAttributeTable = internal constant [6 x { i8*, void (%"class.v8::FunctionCallbackInfo"*)*, void (%"class.v8::FunctionCallbackInfo"*)*, i8, i8 }] [{ i8*, void (%"class.v8::FunctionCallbackInfo"*)*, void (%"class.v8::FunctionCallbackInfo"*)*, i8, i8 } { i8* getelementptr inbounds ([3 x i8], [3 x i8]* @.str.1, i32 0, i32 0), void (%"class.v8::FunctionCallbackInfo"*)* @_ZN5blink12_GLOBAL__N_115v8_media_stream22IdAttributeGetCallbackERKN2v820FunctionCallbackInfoINS2_5ValueEEE, void (%"class.v8::FunctionCallbackInfo"*)* null, i8 104, i8 0 }, { i8*, void (%"class.v8::FunctionCallbackInfo"*)*, void (%"class.v8::FunctionCallbackInfo"*)*, i8, i8 } { i8* getelementptr inbounds ([7 x i8], [7 x i8]* @.str.2, i32 0, i32 0), void (%"class.v8::FunctionCallbackInfo"*)* @_ZN5blink12_GLOBAL__N_115v8_media_stream26ActiveAttributeGetCallbackERKN2v820FunctionCallbackInfoINS2_5ValueEEE, void (%"class.v8::FunctionCallbackInfo"*)* null, i8 104, i8 0 }, { i8*, void (%"class.v8::FunctionCallbackInfo"*)*, void (%"class.v8::FunctionCallbackInfo"*)*, i8, i8 } { i8* getelementptr inbounds ([11 x i8], [11 x i8]* @.str.3, i32 0, i32 0), void (%"class.v8::FunctionCallbackInfo"*)* @_ZN5blink12_GLOBAL__N_115v8_media_stream30OnaddtrackAttributeGetCallbackERKN2v820FunctionCallbackInfoINS2_5ValueEEE, void (%"class.v8::FunctionCallbackInfo"*)* @_ZN5blink12_GLOBAL__N_115v8_media_stream30OnaddtrackAttributeSetCallbackERKN2v820FunctionCallbackInfoINS2_5ValueEEE, i8 104, i8 0 }, { i8*, void (%"class.v8::FunctionCallbackInfo"*)*, void (%"class.v8::FunctionCallbackInfo"*)*, i8, i8 } { i8* getelementptr inbounds ([14 x i8], [14 x i8]* @.str.4, i32 0, i32 0), void (%"class.v8::FunctionCallbackInfo"*)* @_ZN5blink12_GLOBAL__N_115v8_media_stream33OnremovetrackAttributeGetCallbackERKN2v820FunctionCallbackInfoINS2_5ValueEEE, void (%"class.v8::FunctionCallbackInfo"*)* @_ZN5blink12_GLOBAL__N_115v8_media_stream33OnremovetrackAttributeSetCallbackERKN2v820FunctionCallbackInfoINS2_5ValueEEE, i8 104, i8 0 }, { i8*, void (%"class.v8::FunctionCallbackInfo"*)*, void (%"class.v8::FunctionCallbackInfo"*)*, i8, i8 } { i8* getelementptr inbounds ([9 x i8], [9 x i8]* @.str.5, i32 0, i32 0), void (%"class.v8::FunctionCallbackInfo"*)* @_ZN5blink12_GLOBAL__N_115v8_media_stream28OnactiveAttributeGetCallbackERKN2v820FunctionCallbackInfoINS2_5ValueEEE, void (%"class.v8::FunctionCallbackInfo"*)* @_ZN5blink12_GLOBAL__N_115v8_media_stream28OnactiveAttributeSetCallbackERKN2v820FunctionCallbackInfoINS2_5ValueEEE, i8 104, i8 0 }, { i8*, void (%"class.v8::FunctionCallbackInfo"*)*, void (%"class.v8::FunctionCallbackInfo"*)*, i8, i8 } { i8* getelementptr inbounds ([11 x i8], [11 x i8]* @.str.6, i32 0, i32 0), void (%"class.v8::FunctionCallbackInfo"*)* @_ZN5blink12_GLOBAL__N_115v8_media_stream30OninactiveAttributeGetCallbackERKN2v820FunctionCallbackInfoINS2_5ValueEEE, void (%"class.v8::FunctionCallbackInfo"*)* @_ZN5blink12_GLOBAL__N_115v8_media_stream30OninactiveAttributeSetCallbackERKN2v820FunctionCallbackInfoINS2_5ValueEEE, i8 104, i8 0 }], align 16
@.str.1 = private unnamed_addr constant [3 x i8] c"id\00", align 1
@.str.2 = private unnamed_addr constant [7 x i8] c"active\00", align 1
@.str.3 = private unnamed_addr constant [11 x i8] c"onaddtrack\00", align 1
@.str.4 = private unnamed_addr constant [14 x i8] c"onremovetrack\00", align 1
@.str.5 = private unnamed_addr constant [9 x i8] c"onactive\00", align 1
@.str.6 = private unnamed_addr constant [11 x i8] c"oninactive\00", align 1
@_ZZN5blink13V8MediaStream30InstallUnconditionalPropertiesEPN2v87IsolateERKNS_15DOMWrapperWorldENS1_5LocalINS1_8TemplateEEES9_S9_E15kOperationTable = internal constant [7 x { i8*, void (%"class.v8::FunctionCallbackInfo"*)*, i8, i8, i8 }] [{ i8*, void (%"class.v8::FunctionCallbackInfo"*)*, i8, i8, i8 } { i8* getelementptr inbounds ([9 x i8], [9 x i8]* @.str.7, i32 0, i32 0), void (%"class.v8::FunctionCallbackInfo"*)* @_ZN5blink12_GLOBAL__N_115v8_media_stream25AddTrackOperationCallbackERKN2v820FunctionCallbackInfoINS2_5ValueEEE, i8 1, i8 104, i8 0 }, { i8*, void (%"class.v8::FunctionCallbackInfo"*)*, i8, i8, i8 } { i8* getelementptr inbounds ([6 x i8], [6 x i8]* @.str.8, i32 0, i32 0), void (%"class.v8::FunctionCallbackInfo"*)* @_ZN5blink12_GLOBAL__N_115v8_media_stream22CloneOperationCallbackERKN2v820FunctionCallbackInfoINS2_5ValueEEE, i8 0, i8 104, i8 0 }, { i8*, void (%"class.v8::FunctionCallbackInfo"*)*, i8, i8, i8 } { i8* getelementptr inbounds ([15 x i8], [15 x i8]* @.str.9, i32 0, i32 0), void (%"class.v8::FunctionCallbackInfo"*)* @_ZN5blink12_GLOBAL__N_115v8_media_stream31GetAudioTracksOperationCallbackERKN2v820FunctionCallbackInfoINS2_5ValueEEE, i8 0, i8 104, i8 0 }, { i8*, void (%"class.v8::FunctionCallbackInfo"*)*, i8, i8, i8 } { i8* getelementptr inbounds ([13 x i8], [13 x i8]* @.str.10, i32 0, i32 0), void (%"class.v8::FunctionCallbackInfo"*)* @_ZN5blink12_GLOBAL__N_115v8_media_stream29GetTrackByIdOperationCallbackERKN2v820FunctionCallbackInfoINS2_5ValueEEE, i8 1, i8 104, i8 0 }, { i8*, void (%"class.v8::FunctionCallbackInfo"*)*, i8, i8, i8 } { i8* getelementptr inbounds ([10 x i8], [10 x i8]* @.str.11, i32 0, i32 0), void (%"class.v8::FunctionCallbackInfo"*)* @_ZN5blink12_GLOBAL__N_115v8_media_stream26GetTracksOperationCallbackERKN2v820FunctionCallbackInfoINS2_5ValueEEE, i8 0, i8 104, i8 0 }, { i8*, void (%"class.v8::FunctionCallbackInfo"*)*, i8, i8, i8 } { i8* getelementptr inbounds ([15 x i8], [15 x i8]* @.str.12, i32 0, i32 0), void (%"class.v8::FunctionCallbackInfo"*)* @_ZN5blink12_GLOBAL__N_115v8_media_stream31GetVideoTracksOperationCallbackERKN2v820FunctionCallbackInfoINS2_5ValueEEE, i8 0, i8 104, i8 0 }, { i8*, void (%"class.v8::FunctionCallbackInfo"*)*, i8, i8, i8 } { i8* getelementptr inbounds ([12 x i8], [12 x i8]* @.str.13, i32 0, i32 0), void (%"class.v8::FunctionCallbackInfo"*)* @_ZN5blink12_GLOBAL__N_115v8_media_stream28RemoveTrackOperationCallbackERKN2v820FunctionCallbackInfoINS2_5ValueEEE, i8 1, i8 104, i8 0 }], align 16
@.str.7 = private unnamed_addr constant [9 x i8] c"addTrack\00", align 1
@.str.8 = private unnamed_addr constant [6 x i8] c"clone\00", align 1
@.str.9 = private unnamed_addr constant [15 x i8] c"getAudioTracks\00", align 1
@.str.10 = private unnamed_addr constant [13 x i8] c"getTrackById\00", align 1
@.str.11 = private unnamed_addr constant [10 x i8] c"getTracks\00", align 1
@.str.12 = private unnamed_addr constant [15 x i8] c"getVideoTracks\00", align 1
@.str.13 = private unnamed_addr constant [12 x i8] c"removeTrack\00", align 1
@.str.14 = private unnamed_addr constant [28 x i8] c"Overload resolution failed.\00", align 1
@_ZTVN5blink14ExceptionStateE = external unnamed_addr constant { [9 x i8*] }, align 8
@.str.15 = private unnamed_addr constant [54 x i8] c"The provided value cannot be converted to a sequence.\00", align 1
@.str.16 = private unnamed_addr constant [53 x i8] c"The object must have a callable @@iterator property.\00", align 1
@.str.17 = private unnamed_addr constant [38 x i8] c"Array length exceeds supported limit.\00", align 1
@.str.18 = private unnamed_addr constant [44 x i8] c"count <= MaxElementCountInBackingStore<T>()\00", align 1
@.str.19 = private unnamed_addr constant [74 x i8] c"../../third_party/blink/renderer/platform/heap/impl/heap_allocator_impl.h\00", align 1
@.str.20 = private unnamed_addr constant [18 x i8] c"num_elements > 0u\00", align 1
@.str.21 = private unnamed_addr constant [93 x i8] c"../../third_party/blink/renderer/platform/heap/impl/collection_support/heap_vector_backing.h\00", align 1
@_ZN5blink11ThreadState16thread_specific_E = external local_unnamed_addr global %"class.WTF::ThreadSpecific"*, align 8
@__PRETTY_FUNCTION__._ZN3WTF21GetStringWithTypeNameIPN5blink11ThreadStateEEEPKcv = private unnamed_addr constant [68 x i8] c"const char *WTF::GetStringWithTypeName() [T = blink::ThreadState *]\00", align 1
@.str.22 = private unnamed_addr constant [23 x i8] c"allocation_size > size\00", align 1
@.str.23 = private unnamed_addr constant [59 x i8] c"../../third_party/blink/renderer/platform/heap/impl/heap.h\00", align 1
@_ZZN5blink11GCInfoTraitINS_17HeapVectorBackingINS_6MemberINS_16MediaStreamTrackEEEN3WTF12VectorTraitsIS4_EEEEE5IndexEvE7kGcInfo = linkonce_odr hidden constant %"struct.blink::GCInfo" { void (%"class.blink::Visitor"*, i8*)* @_ZN5blink10TraceTraitINS_17HeapVectorBackingINS_6MemberINS_16MediaStreamTrackEEEN3WTF12VectorTraitsIS4_EEEEE5TraceEPNS_7VisitorEPKv, void (i8*)* null, { i8*, i8 } (i8*)* @_ZN5blink9NameTraitINS_17HeapVectorBackingINS_6MemberINS_16MediaStreamTrackEEEN3WTF12VectorTraitsIS4_EEEEE7GetNameEPKv, i8 0 }, comdat, align 8
@_ZZN5blink11GCInfoTraitINS_17HeapVectorBackingINS_6MemberINS_16MediaStreamTrackEEEN3WTF12VectorTraitsIS4_EEEEE5IndexEvE13gc_info_index = linkonce_odr hidden global { { i32 } } zeroinitializer, comdat, align 4
@.str.24 = private unnamed_addr constant [13 x i8] c"InternalNode\00", align 1
@_ZN5blink11GCInfoTable13global_table_E = external local_unnamed_addr global %"class.blink::GCInfoTable"*, align 8
@_ZN5blink11ThreadState25incremental_marking_flag_E = external local_unnamed_addr global %"class.blink::AtomicEntryFlag", align 4
@_ZN5blink16MediaStreamTrack18wrapper_type_info_E = external local_unnamed_addr constant %"struct.blink::WrapperTypeInfo"*, align 8
@.str.25 = private unnamed_addr constant [55 x i8] c"../../third_party/blink/renderer/platform/wtf/vector.h\00", align 1
@.str.26 = private unnamed_addr constant [33 x i8] c"Allocator::IsAllocationAllowed()\00", align 1
@_ZN5blink16event_type_names9kAddtrackE = external local_unnamed_addr constant %"class.WTF::AtomicString"*, align 8
@_ZN5blink16event_type_names12kRemovetrackE = external local_unnamed_addr constant %"class.WTF::AtomicString"*, align 8
@_ZN5blink16event_type_names7kActiveE = external local_unnamed_addr constant %"class.WTF::AtomicString"*, align 8
@_ZN5blink16event_type_names9kInactiveE = external local_unnamed_addr constant %"class.WTF::AtomicString"*, align 8
@.str.27 = private unnamed_addr constant [66 x i8] c"../../third_party/blink/renderer/platform/bindings/script_state.h\00", align 1
@.str.28 = private unnamed_addr constant [13 x i8] c"script_state\00", align 1
@.str.29 = private unnamed_addr constant [34 x i8] c"script_state->context_ == context\00", align 1
@_ZN3WTF8internal25g_main_thread_stack_startE = external local_unnamed_addr global i64, align 8
@_ZN3WTF8internal39g_main_thread_underestimated_stack_sizeE = external local_unnamed_addr global i64, align 8
@_ZN5blink15DOMWrapperWorld41number_of_non_main_worlds_in_main_thread_E = external local_unnamed_addr global i32, align 4
@.str.30 = private unnamed_addr constant [65 x i8] c"../../third_party/blink/renderer/bindings/core/v8/to_v8_traits.h\00", align 1
@.str.31 = private unnamed_addr constant [17 x i8] c"script_wrappable\00", align 1

; Function Attrs: nounwind ssp uwtable
define hidden void @_ZN5blink13V8MediaStream24InstallInterfaceTemplateEPN2v87IsolateERKNS_15DOMWrapperWorldENS1_5LocalINS1_8TemplateEEE(%"class.v8::Isolate"*, %"class.blink::DOMWrapperWorld"* dereferenceable(32), %"class.v8::Template"*) #0 align 2 {
  %4 = alloca %"class.base::span", align 8
  %5 = alloca %"class.base::span.182", align 8
  %6 = bitcast %"class.v8::Template"* %2 to %"class.v8::FunctionTemplate"*
  %7 = tail call %"class.v8::ObjectTemplate"* @_ZN2v816FunctionTemplate16InstanceTemplateEv(%"class.v8::FunctionTemplate"* %6) #8
  %8 = tail call %"class.v8::ObjectTemplate"* @_ZN2v816FunctionTemplate17PrototypeTemplateEv(%"class.v8::FunctionTemplate"* %6) #8
  %9 = tail call %"class.v8::Template"* @_ZNK5blink15WrapperTypeInfo18GetV8ClassTemplateEPN2v87IsolateERKNS_15DOMWrapperWorldE(%"struct.blink::WrapperTypeInfo"* nonnull @_ZN5blink13V8EventTarget18wrapper_type_info_E, %"class.v8::Isolate"* %0, %"class.blink::DOMWrapperWorld"* dereferenceable(32) %1) #8
  %10 = bitcast %"class.v8::Template"* %9 to %"class.v8::FunctionTemplate"*
  tail call void @_ZN5blink8bindings25SetupIDLInterfaceTemplateEPN2v87IsolateEPKNS_15WrapperTypeInfoENS1_5LocalINS1_14ObjectTemplateEEES9_NS7_INS1_16FunctionTemplateEEESB_(%"class.v8::Isolate"* %0, %"struct.blink::WrapperTypeInfo"* nonnull @_ZN5blink13V8MediaStream18wrapper_type_info_E, %"class.v8::ObjectTemplate"* %7, %"class.v8::ObjectTemplate"* %8, %"class.v8::FunctionTemplate"* %6, %"class.v8::FunctionTemplate"* %10) #8
  tail call void @_ZN2v816FunctionTemplate14SetCallHandlerEPFvRKNS_20FunctionCallbackInfoINS_5ValueEEEENS_5LocalIS2_EENS_14SideEffectTypeERKNS_10MemorySpanIKNS_9CFunctionEEE(%"class.v8::FunctionTemplate"* %6, void (%"class.v8::FunctionCallbackInfo"*)* nonnull @_ZN5blink12_GLOBAL__N_115v8_media_stream19ConstructorCallbackERKN2v820FunctionCallbackInfoINS2_5ValueEEE, %"class.v8::Value"* null, i32 0, %"class.v8::MemorySpan"* nonnull dereferenceable(16) @.ref.tmp) #8
  tail call void @_ZN2v816FunctionTemplate9SetLengthEi(%"class.v8::FunctionTemplate"* %6, i32 0) #8
  %11 = bitcast %"class.v8::ObjectTemplate"* %7 to %"class.v8::Template"*
  %12 = bitcast %"class.v8::ObjectTemplate"* %8 to %"class.v8::Template"*
  %13 = bitcast %"class.base::span"* %4 to i8*
  call void @llvm.lifetime.start.p0i8(i64 16, i8* nonnull %13)
  %14 = bitcast %"class.base::span.182"* %5 to i8*
  call void @llvm.lifetime.start.p0i8(i64 16, i8* nonnull %14)
  %15 = tail call %"class.v8::Signature"* @_ZN2v89Signature3NewEPNS_7IsolateENS_5LocalINS_16FunctionTemplateEEE(%"class.v8::Isolate"* %0, %"class.v8::FunctionTemplate"* %6) #8
  %16 = getelementptr inbounds %"class.base::span", %"class.base::span"* %4, i64 0, i32 0, i32 0
  store i64 6, i64* %16, align 8
  %17 = getelementptr inbounds %"class.base::span", %"class.base::span"* %4, i64 0, i32 1
  store %"struct.blink::bindings::IDLMemberInstaller::AttributeConfig"* bitcast ([6 x { i8*, void (%"class.v8::FunctionCallbackInfo"*)*, void (%"class.v8::FunctionCallbackInfo"*)*, i8, i8 }]* @_ZZN5blink13V8MediaStream30InstallUnconditionalPropertiesEPN2v87IsolateERKNS_15DOMWrapperWorldENS1_5LocalINS1_8TemplateEEES9_S9_E15kAttributeTable to %"struct.blink::bindings::IDLMemberInstaller::AttributeConfig"*), %"struct.blink::bindings::IDLMemberInstaller::AttributeConfig"** %17, align 8
  tail call void @_ZN5blink8bindings18IDLMemberInstaller17InstallAttributesEPN2v87IsolateERKNS_15DOMWrapperWorldENS2_5LocalINS2_8TemplateEEESA_SA_NS8_INS2_9SignatureEEEN4base4spanIKNS1_15AttributeConfigELm18446744073709551615EEE(%"class.v8::Isolate"* %0, %"class.blink::DOMWrapperWorld"* dereferenceable(32) %1, %"class.v8::Template"* %11, %"class.v8::Template"* %12, %"class.v8::Template"* %2, %"class.v8::Signature"* %15, %"class.base::span"* nonnull byval(%"class.base::span") align 8 %4) #8
  %18 = getelementptr inbounds %"class.base::span.182", %"class.base::span.182"* %5, i64 0, i32 0, i32 0
  store i64 7, i64* %18, align 8
  %19 = getelementptr inbounds %"class.base::span.182", %"class.base::span.182"* %5, i64 0, i32 1
  store %"struct.blink::bindings::IDLMemberInstaller::OperationConfig"* bitcast ([7 x { i8*, void (%"class.v8::FunctionCallbackInfo"*)*, i8, i8, i8 }]* @_ZZN5blink13V8MediaStream30InstallUnconditionalPropertiesEPN2v87IsolateERKNS_15DOMWrapperWorldENS1_5LocalINS1_8TemplateEEES9_S9_E15kOperationTable to %"struct.blink::bindings::IDLMemberInstaller::OperationConfig"*), %"struct.blink::bindings::IDLMemberInstaller::OperationConfig"** %19, align 8
  tail call void @_ZN5blink8bindings18IDLMemberInstaller17InstallOperationsEPN2v87IsolateERKNS_15DOMWrapperWorldENS2_5LocalINS2_8TemplateEEESA_SA_NS8_INS2_9SignatureEEEN4base4spanIKNS1_15OperationConfigELm18446744073709551615EEE(%"class.v8::Isolate"* %0, %"class.blink::DOMWrapperWorld"* dereferenceable(32) %1, %"class.v8::Template"* %11, %"class.v8::Template"* %12, %"class.v8::Template"* %2, %"class.v8::Signature"* %15, %"class.base::span.182"* nonnull byval(%"class.base::span.182") align 8 %5) #8
  call void @llvm.lifetime.end.p0i8(i64 16, i8* nonnull %13)
  call void @llvm.lifetime.end.p0i8(i64 16, i8* nonnull %14)
  ret void
}

; Function Attrs: argmemonly nounwind
declare void @llvm.lifetime.start.p0i8(i64 immarg, i8* nocapture) #1

declare %"class.v8::ObjectTemplate"* @_ZN2v816FunctionTemplate16InstanceTemplateEv(%"class.v8::FunctionTemplate"*) local_unnamed_addr #2

declare %"class.v8::ObjectTemplate"* @_ZN2v816FunctionTemplate17PrototypeTemplateEv(%"class.v8::FunctionTemplate"*) local_unnamed_addr #2

declare %"class.v8::Template"* @_ZNK5blink15WrapperTypeInfo18GetV8ClassTemplateEPN2v87IsolateERKNS_15DOMWrapperWorldE(%"struct.blink::WrapperTypeInfo"*, %"class.v8::Isolate"*, %"class.blink::DOMWrapperWorld"* dereferenceable(32)) local_unnamed_addr #2

; Function Attrs: argmemonly nounwind
declare void @llvm.lifetime.end.p0i8(i64 immarg, i8* nocapture) #1

declare void @_ZN5blink8bindings25SetupIDLInterfaceTemplateEPN2v87IsolateEPKNS_15WrapperTypeInfoENS1_5LocalINS1_14ObjectTemplateEEES9_NS7_INS1_16FunctionTemplateEEESB_(%"class.v8::Isolate"*, %"struct.blink::WrapperTypeInfo"*, %"class.v8::ObjectTemplate"*, %"class.v8::ObjectTemplate"*, %"class.v8::FunctionTemplate"*, %"class.v8::FunctionTemplate"*) local_unnamed_addr #2

declare void @_ZN2v816FunctionTemplate14SetCallHandlerEPFvRKNS_20FunctionCallbackInfoINS_5ValueEEEENS_5LocalIS2_EENS_14SideEffectTypeERKNS_10MemorySpanIKNS_9CFunctionEEE(%"class.v8::FunctionTemplate"*, void (%"class.v8::FunctionCallbackInfo"*)*, %"class.v8::Value"*, i32, %"class.v8::MemorySpan"* dereferenceable(16)) local_unnamed_addr #2

; Function Attrs: nounwind ssp uwtable
define internal void @_ZN5blink12_GLOBAL__N_115v8_media_stream19ConstructorCallbackERKN2v820FunctionCallbackInfoINS2_5ValueEEE(%"class.v8::FunctionCallbackInfo"* readonly dereferenceable(24)) #0 {
  %2 = alloca %"class.blink::ExceptionState", align 8
  %3 = alloca %"class.WTF::String", align 8
  %4 = alloca %"class.blink::ExceptionState", align 8
  %5 = alloca %"class.WTF::String", align 8
  %6 = alloca %"class.blink::HeapVector.419", align 8
  %7 = alloca %"class.blink::ExceptionState", align 8
  %8 = alloca %"class.WTF::String", align 8
  %9 = getelementptr inbounds %"class.v8::FunctionCallbackInfo", %"class.v8::FunctionCallbackInfo"* %0, i64 0, i32 0
  %10 = load i64*, i64** %9, align 8
  %11 = getelementptr inbounds i64, i64* %10, i64 1
  %12 = bitcast i64* %11 to %"class.v8::Isolate"**
  %13 = load %"class.v8::Isolate"*, %"class.v8::Isolate"** %12, align 8
  %14 = bitcast %"class.blink::ExceptionState"* %7 to i8*
  call void @llvm.lifetime.start.p0i8(i64 72, i8* nonnull %14) #8
  call void @llvm.memset.p0i8.i64(i8* nonnull align 8 %14, i8 -86, i64 56, i1 false)
  %15 = getelementptr inbounds %"class.blink::ExceptionState", %"class.blink::ExceptionState"* %7, i64 0, i32 0
  store i32 (...)** bitcast (i8** getelementptr inbounds ({ [9 x i8*] }, { [9 x i8*] }* @_ZTVN5blink14ExceptionStateE, i64 0, inrange i32 0, i64 2) to i32 (...)**), i32 (...)*** %15, align 8
  %16 = getelementptr inbounds %"class.blink::ExceptionState", %"class.blink::ExceptionState"* %7, i64 0, i32 1, i32 0
  store i16 5, i16* %16, align 8
  %17 = getelementptr inbounds %"class.blink::ExceptionState", %"class.blink::ExceptionState"* %7, i64 0, i32 1, i32 1
  store i16 0, i16* %17, align 2
  %18 = getelementptr inbounds %"class.blink::ExceptionState", %"class.blink::ExceptionState"* %7, i64 0, i32 1, i32 2
  store i8* getelementptr inbounds ([12 x i8], [12 x i8]* @.str, i64 0, i64 0), i8** %18, align 8
  %19 = getelementptr inbounds %"class.blink::ExceptionState", %"class.blink::ExceptionState"* %7, i64 0, i32 1, i32 3
  %20 = getelementptr inbounds %"class.blink::ExceptionState", %"class.blink::ExceptionState"* %7, i64 0, i32 3
  %21 = bitcast i8** %19 to i8*
  call void @llvm.memset.p0i8.i64(i8* align 8 %21, i8 0, i64 16, i1 false) #8
  store %"class.v8::Isolate"* %13, %"class.v8::Isolate"** %20, align 8
  %22 = getelementptr inbounds %"class.blink::ExceptionState", %"class.blink::ExceptionState"* %7, i64 0, i32 4
  store i32 0, i32* %22, align 8
  %23 = getelementptr inbounds %"class.blink::ExceptionState", %"class.blink::ExceptionState"* %7, i64 0, i32 5, i32 0, i32 0
  %24 = bitcast %"class.WTF::StringImpl"** %23 to i8*
  call void @llvm.memset.p0i8.i64(i8* align 8 %24, i8 0, i64 16, i1 false) #8
  %25 = getelementptr inbounds i64, i64* %10, i64 5
  %26 = load i64, i64* %25, align 8
  %27 = and i64 %26, 3
  %28 = icmp eq i64 %27, 1
  br i1 %28, label %29, label %66

29:                                               ; preds = %1
  %30 = add i64 %26, -1
  %31 = inttoptr i64 %30 to i32*
  %32 = load i32, i32* %31, align 4
  %33 = and i64 %26, -4294967296
  %34 = zext i32 %32 to i64
  %35 = or i64 %33, %34
  %36 = add i64 %35, 7
  %37 = inttoptr i64 %36 to i16*
  %38 = load i16, i16* %37, align 2
  %39 = icmp eq i16 %38, 67
  br i1 %39, label %40, label %66

40:                                               ; preds = %29
  %41 = add i64 %26, 23
  %42 = inttoptr i64 %41 to i32*
  %43 = load i32, i32* %42, align 4
  %44 = and i32 %43, -2
  %45 = icmp eq i32 %44, 10
  br i1 %45, label %46, label %66

46:                                               ; preds = %40
  %47 = bitcast %"class.WTF::String"* %8 to i8*
  call void @llvm.lifetime.start.p0i8(i64 8, i8* nonnull %47) #8
  %48 = tail call %"class.WTF::StringImpl"* @_ZN5blink17ExceptionMessages27ConstructorCalledAsFunctionEv() #8
  %49 = getelementptr inbounds %"class.WTF::String", %"class.WTF::String"* %8, i64 0, i32 0, i32 0
  store %"class.WTF::StringImpl"* %48, %"class.WTF::StringImpl"** %49, align 8
  call void @_ZN5blink14ExceptionState14ThrowTypeErrorERKN3WTF6StringE(%"class.blink::ExceptionState"* nonnull %7, %"class.WTF::String"* nonnull dereferenceable(8) %8) #8
  %50 = load %"class.WTF::StringImpl"*, %"class.WTF::StringImpl"** %49, align 8
  %51 = icmp eq %"class.WTF::StringImpl"* %50, null
  br i1 %51, label %65, label %52

52:                                               ; preds = %46
  %53 = getelementptr inbounds %"class.WTF::StringImpl", %"class.WTF::StringImpl"* %50, i64 0, i32 2, i32 0, i32 0, i32 0, i32 0, i32 0
  %54 = load atomic i32, i32* %53 monotonic, align 4
  %55 = and i32 %54, 2
  %56 = icmp eq i32 %55, 0
  %57 = getelementptr inbounds %"class.WTF::StringImpl", %"class.WTF::StringImpl"* %50, i64 0, i32 0
  %58 = load i32, i32* %57, align 4
  br i1 %56, label %59, label %61

59:                                               ; preds = %52
  %60 = add i32 %58, -1
  store i32 %60, i32* %57, align 4
  br label %61

61:                                               ; preds = %59, %52
  %62 = phi i32 [ %60, %59 ], [ %58, %52 ]
  %63 = icmp eq i32 %62, 0
  br i1 %63, label %64, label %65

64:                                               ; preds = %61
  call void @_ZNK3WTF10StringImpl18DestroyIfNotStaticEv(%"class.WTF::StringImpl"* nonnull %50) #8
  br label %65

65:                                               ; preds = %46, %61, %64
  call void @llvm.lifetime.end.p0i8(i64 8, i8* nonnull %47) #8
  br label %371

66:                                               ; preds = %40, %29, %1
  %67 = ptrtoint %"class.v8::Isolate"* %13 to i64
  %68 = add i64 %67, 8
  %69 = inttoptr i64 %68 to %"class.blink::V8PerIsolateData"**
  %70 = load %"class.blink::V8PerIsolateData"*, %"class.blink::V8PerIsolateData"** %69, align 8
  %71 = getelementptr inbounds %"class.blink::V8PerIsolateData", %"class.blink::V8PerIsolateData"* %70, i64 0, i32 8
  %72 = load i8, i8* %71, align 8, !range !2
  %73 = icmp eq i8 %72, 0
  br i1 %73, label %74, label %83

74:                                               ; preds = %66
  %75 = getelementptr inbounds %"class.v8::FunctionCallbackInfo", %"class.v8::FunctionCallbackInfo"* %0, i64 0, i32 1
  %76 = load i64*, i64** %75, align 8
  %77 = getelementptr inbounds i64, i64* %76, i64 -1
  %78 = getelementptr inbounds i64, i64* %10, i64 3
  %79 = icmp eq i64* %77, null
  %80 = getelementptr inbounds i64, i64* %10, i64 2
  %81 = select i1 %79, i64* %80, i64* %77, !prof !3
  %82 = load i64, i64* %81, align 8
  store i64 %82, i64* %78, align 8
  br label %371

83:                                               ; preds = %66
  %84 = getelementptr inbounds %"class.v8::FunctionCallbackInfo", %"class.v8::FunctionCallbackInfo"* %0, i64 0, i32 2
  %85 = load i32, i32* %84, align 8
  %86 = icmp sgt i32 %85, 0
  br i1 %86, label %87, label %352

87:                                               ; preds = %83
  %88 = getelementptr inbounds %"class.v8::FunctionCallbackInfo", %"class.v8::FunctionCallbackInfo"* %0, i64 0, i32 1
  %89 = bitcast i64** %88 to %"class.v8::Value"**
  %90 = load %"class.v8::Value"*, %"class.v8::Value"** %89, align 8
  %91 = tail call zeroext i1 @_ZN5blink16V8PerIsolateData11HasInstanceEPKNS_15WrapperTypeInfoEN2v85LocalINS4_5ValueEEE(%"class.blink::V8PerIsolateData"* %70, %"struct.blink::WrapperTypeInfo"* nonnull @_ZN5blink13V8MediaStream18wrapper_type_info_E, %"class.v8::Value"* %90) #8
  br i1 %91, label %92, label %220

92:                                               ; preds = %87
  %93 = load i64*, i64** %9, align 8
  %94 = getelementptr inbounds i64, i64* %93, i64 1
  %95 = bitcast i64* %94 to %"class.v8::Isolate"**
  %96 = load %"class.v8::Isolate"*, %"class.v8::Isolate"** %95, align 8
  %97 = bitcast %"class.blink::ExceptionState"* %2 to i8*
  call void @llvm.lifetime.start.p0i8(i64 72, i8* nonnull %97) #8
  call void @llvm.memset.p0i8.i64(i8* nonnull align 8 %97, i8 -86, i64 56, i1 false) #8
  %98 = getelementptr inbounds %"class.blink::ExceptionState", %"class.blink::ExceptionState"* %2, i64 0, i32 0
  store i32 (...)** bitcast (i8** getelementptr inbounds ({ [9 x i8*] }, { [9 x i8*] }* @_ZTVN5blink14ExceptionStateE, i64 0, inrange i32 0, i64 2) to i32 (...)**), i32 (...)*** %98, align 8
  %99 = getelementptr inbounds %"class.blink::ExceptionState", %"class.blink::ExceptionState"* %2, i64 0, i32 1, i32 0
  store i16 5, i16* %99, align 8
  %100 = getelementptr inbounds %"class.blink::ExceptionState", %"class.blink::ExceptionState"* %2, i64 0, i32 1, i32 1
  store i16 0, i16* %100, align 2
  %101 = getelementptr inbounds %"class.blink::ExceptionState", %"class.blink::ExceptionState"* %2, i64 0, i32 1, i32 2
  store i8* getelementptr inbounds ([12 x i8], [12 x i8]* @.str, i64 0, i64 0), i8** %101, align 8
  %102 = getelementptr inbounds %"class.blink::ExceptionState", %"class.blink::ExceptionState"* %2, i64 0, i32 1, i32 3
  %103 = getelementptr inbounds %"class.blink::ExceptionState", %"class.blink::ExceptionState"* %2, i64 0, i32 3
  %104 = bitcast i8** %102 to i8*
  call void @llvm.memset.p0i8.i64(i8* align 8 %104, i8 0, i64 16, i1 false) #8
  store %"class.v8::Isolate"* %96, %"class.v8::Isolate"** %103, align 8
  %105 = getelementptr inbounds %"class.blink::ExceptionState", %"class.blink::ExceptionState"* %2, i64 0, i32 4
  store i32 0, i32* %105, align 8
  %106 = getelementptr inbounds %"class.blink::ExceptionState", %"class.blink::ExceptionState"* %2, i64 0, i32 5, i32 0, i32 0
  %107 = bitcast %"class.WTF::StringImpl"** %106 to i8*
  call void @llvm.memset.p0i8.i64(i8* align 8 %107, i8 0, i64 16, i1 false) #8
  %108 = load i32, i32* %84, align 8
  %109 = icmp slt i32 %108, 1
  br i1 %109, label %110, label %130, !prof !3

110:                                              ; preds = %92
  %111 = bitcast %"class.WTF::String"* %3 to i8*
  call void @llvm.lifetime.start.p0i8(i64 8, i8* nonnull %111) #8
  %112 = tail call %"class.WTF::StringImpl"* @_ZN5blink17ExceptionMessages18NotEnoughArgumentsEjj(i32 1, i32 %108) #8
  %113 = getelementptr inbounds %"class.WTF::String", %"class.WTF::String"* %3, i64 0, i32 0, i32 0
  store %"class.WTF::StringImpl"* %112, %"class.WTF::StringImpl"** %113, align 8
  call void @_ZN5blink14ExceptionState14ThrowTypeErrorERKN3WTF6StringE(%"class.blink::ExceptionState"* nonnull %2, %"class.WTF::String"* nonnull dereferenceable(8) %3) #8
  %114 = load %"class.WTF::StringImpl"*, %"class.WTF::StringImpl"** %113, align 8
  %115 = icmp eq %"class.WTF::StringImpl"* %114, null
  br i1 %115, label %129, label %116

116:                                              ; preds = %110
  %117 = getelementptr inbounds %"class.WTF::StringImpl", %"class.WTF::StringImpl"* %114, i64 0, i32 2, i32 0, i32 0, i32 0, i32 0, i32 0
  %118 = load atomic i32, i32* %117 monotonic, align 4
  %119 = and i32 %118, 2
  %120 = icmp eq i32 %119, 0
  %121 = getelementptr inbounds %"class.WTF::StringImpl", %"class.WTF::StringImpl"* %114, i64 0, i32 0
  %122 = load i32, i32* %121, align 4
  br i1 %120, label %123, label %125

123:                                              ; preds = %116
  %124 = add i32 %122, -1
  store i32 %124, i32* %121, align 4
  br label %125

125:                                              ; preds = %123, %116
  %126 = phi i32 [ %124, %123 ], [ %122, %116 ]
  %127 = icmp eq i32 %126, 0
  br i1 %127, label %128, label %129

128:                                              ; preds = %125
  call void @_ZNK3WTF10StringImpl18DestroyIfNotStaticEv(%"class.WTF::StringImpl"* nonnull %114) #8
  br label %129

129:                                              ; preds = %128, %125, %110
  call void @llvm.lifetime.end.p0i8(i64 8, i8* nonnull %111) #8
  br label %190

130:                                              ; preds = %92
  %131 = tail call %"class.v8::Context"* @_ZN2v87Isolate17GetCurrentContextEv(%"class.v8::Isolate"* %96) #8
  %132 = tail call %"class.blink::ExecutionContext"* @_ZN5blink16ExecutionContext4FromEN2v85LocalINS1_7ContextEEE(%"class.v8::Context"* %131) #8
  %133 = load i32, i32* %84, align 8
  %134 = icmp sgt i32 %133, 0
  br i1 %134, label %141, label %135

135:                                              ; preds = %130
  %136 = load i64*, i64** %9, align 8
  %137 = getelementptr inbounds i64, i64* %136, i64 1
  %138 = load i64, i64* %137, align 8
  %139 = add i64 %138, 160
  %140 = inttoptr i64 %139 to %"class.v8::Value"*
  br label %143

141:                                              ; preds = %130
  %142 = load %"class.v8::Value"*, %"class.v8::Value"** %89, align 8
  br label %143

143:                                              ; preds = %141, %135
  %144 = phi %"class.v8::Value"* [ %140, %135 ], [ %142, %141 ]
  %145 = ptrtoint %"class.v8::Isolate"* %96 to i64
  %146 = add i64 %145, 8
  %147 = inttoptr i64 %146 to %"class.blink::V8PerIsolateData"**
  %148 = load %"class.blink::V8PerIsolateData"*, %"class.blink::V8PerIsolateData"** %147, align 8
  %149 = tail call zeroext i1 @_ZN5blink16V8PerIsolateData11HasInstanceEPKNS_15WrapperTypeInfoEN2v85LocalINS4_5ValueEEE(%"class.blink::V8PerIsolateData"* %148, %"struct.blink::WrapperTypeInfo"* nonnull @_ZN5blink13V8MediaStream18wrapper_type_info_E, %"class.v8::Value"* %144) #8
  br i1 %149, label %150, label %172

150:                                              ; preds = %143
  %151 = bitcast %"class.v8::Value"* %144 to i64*
  %152 = load i64, i64* %151, align 8
  %153 = add i64 %152, -1
  %154 = inttoptr i64 %153 to i32*
  %155 = load i32, i32* %154, align 4
  %156 = and i64 %152, -4294967296
  %157 = zext i32 %155 to i64
  %158 = or i64 %156, %157
  %159 = add i64 %158, 7
  %160 = inttoptr i64 %159 to i16*
  %161 = load i16, i16* %160, align 2
  switch i16 %161, label %166 [
    i16 1057, label %162
    i16 1056, label %162
    i16 1040, label %162
  ]

162:                                              ; preds = %150, %150, %150
  %163 = add i64 %152, 19
  %164 = inttoptr i64 %163 to i8**
  %165 = load i8*, i8** %164, align 1
  br label %169

166:                                              ; preds = %150
  %167 = bitcast %"class.v8::Value"* %144 to %"class.v8::Object"*
  %168 = tail call i8* @_ZN2v86Object38SlowGetAlignedPointerFromInternalFieldEi(%"class.v8::Object"* %167, i32 1) #8
  br label %169

169:                                              ; preds = %166, %162
  %170 = phi i8* [ %165, %162 ], [ %168, %166 ]
  %171 = bitcast i8* %170 to %"class.blink::MediaStream"*
  br label %175

172:                                              ; preds = %143
  call void @_ZN5blink8bindings35NativeValueTraitsInterfaceNotOfTypeEPKNS_15WrapperTypeInfoEiRNS_14ExceptionStateE(%"struct.blink::WrapperTypeInfo"* nonnull @_ZN5blink13V8MediaStream18wrapper_type_info_E, i32 0, %"class.blink::ExceptionState"* nonnull dereferenceable(72) %2) #8
  %173 = load i32, i32* %105, align 8
  %174 = icmp eq i32 %173, 0
  br i1 %174, label %175, label %190

175:                                              ; preds = %172, %169
  %176 = phi %"class.blink::MediaStream"* [ %171, %169 ], [ null, %172 ]
  %177 = call %"class.blink::MediaStream"* @_ZN5blink11MediaStream6CreateEPNS_16ExecutionContextEPS0_(%"class.blink::ExecutionContext"* %132, %"class.blink::MediaStream"* %176) #8
  %178 = load i64*, i64** %88, align 8
  %179 = getelementptr inbounds i64, i64* %178, i64 -1
  %180 = bitcast i64* %179 to %"class.v8::Object"*
  %181 = getelementptr inbounds %"class.blink::MediaStream", %"class.blink::MediaStream"* %177, i64 0, i32 0, i32 0, i32 0
  %182 = call %"class.v8::Object"* @_ZN5blink15ScriptWrappable20AssociateWithWrapperEPN2v87IsolateEPKNS_15WrapperTypeInfoENS1_5LocalINS1_6ObjectEEE(%"class.blink::ScriptWrappable"* %181, %"class.v8::Isolate"* %96, %"struct.blink::WrapperTypeInfo"* nonnull @_ZN5blink13V8MediaStream18wrapper_type_info_E, %"class.v8::Object"* %180) #8
  %183 = load i64*, i64** %9, align 8
  %184 = getelementptr inbounds i64, i64* %183, i64 3
  %185 = icmp eq %"class.v8::Object"* %182, null
  %186 = bitcast %"class.v8::Object"* %182 to i64*
  %187 = getelementptr inbounds i64, i64* %183, i64 2
  %188 = select i1 %185, i64* %187, i64* %186, !prof !3
  %189 = load i64, i64* %188, align 8
  store i64 %189, i64* %184, align 8
  br label %190

190:                                              ; preds = %175, %172, %129
  store i32 (...)** bitcast (i8** getelementptr inbounds ({ [9 x i8*] }, { [9 x i8*] }* @_ZTVN5blink14ExceptionStateE, i64 0, inrange i32 0, i64 2) to i32 (...)**), i32 (...)*** %98, align 8
  %191 = getelementptr inbounds %"class.blink::ExceptionState", %"class.blink::ExceptionState"* %2, i64 0, i32 6, i32 0, i32 0, i32 0, i32 0
  %192 = load i64*, i64** %191, align 8
  %193 = icmp eq i64* %192, null
  br i1 %193, label %203, label %194

194:                                              ; preds = %190
  %195 = load %"class.v8::Isolate"*, %"class.v8::Isolate"** %103, align 8
  %196 = bitcast %"class.v8::Isolate"* %195 to %"class.v8::internal::Isolate"*
  %197 = load i64, i64* %192, align 8
  %198 = call i64* @_ZN2v811HandleScope12CreateHandleEPNS_8internal7IsolateEm(%"class.v8::internal::Isolate"* %196, i64 %197) #8
  %199 = call zeroext i1 @_ZN2v87Isolate22IsExecutionTerminatingEv(%"class.v8::Isolate"* %195) #8
  br i1 %199, label %203, label %200

200:                                              ; preds = %194
  %201 = bitcast i64* %198 to %"class.v8::Value"*
  %202 = call %"class.v8::Value"* @_ZN2v87Isolate14ThrowExceptionENS_5LocalINS_5ValueEEE(%"class.v8::Isolate"* %195, %"class.v8::Value"* %201) #8
  br label %203

203:                                              ; preds = %200, %194, %190
  %204 = load %"class.WTF::StringImpl"*, %"class.WTF::StringImpl"** %106, align 8
  %205 = icmp eq %"class.WTF::StringImpl"* %204, null
  br i1 %205, label %219, label %206

206:                                              ; preds = %203
  %207 = getelementptr inbounds %"class.WTF::StringImpl", %"class.WTF::StringImpl"* %204, i64 0, i32 2, i32 0, i32 0, i32 0, i32 0, i32 0
  %208 = load atomic i32, i32* %207 monotonic, align 4
  %209 = and i32 %208, 2
  %210 = icmp eq i32 %209, 0
  %211 = getelementptr inbounds %"class.WTF::StringImpl", %"class.WTF::StringImpl"* %204, i64 0, i32 0
  %212 = load i32, i32* %211, align 4
  br i1 %210, label %213, label %215

213:                                              ; preds = %206
  %214 = add i32 %212, -1
  store i32 %214, i32* %211, align 4
  br label %215

215:                                              ; preds = %213, %206
  %216 = phi i32 [ %214, %213 ], [ %212, %206 ]
  %217 = icmp eq i32 %216, 0
  br i1 %217, label %218, label %219

218:                                              ; preds = %215
  call void @_ZNK3WTF10StringImpl18DestroyIfNotStaticEv(%"class.WTF::StringImpl"* nonnull %204) #8
  br label %219

219:                                              ; preds = %203, %215, %218
  call void @llvm.lifetime.end.p0i8(i64 72, i8* nonnull %97) #8
  br label %371

220:                                              ; preds = %87
  %221 = load i32, i32* %84, align 8
  %222 = icmp sgt i32 %221, 0
  br i1 %222, label %229, label %223

223:                                              ; preds = %220
  %224 = load i64*, i64** %9, align 8
  %225 = getelementptr inbounds i64, i64* %224, i64 1
  %226 = load i64, i64* %225, align 8
  %227 = add i64 %226, 160
  %228 = inttoptr i64 %227 to %"class.v8::Value"*
  br label %231

229:                                              ; preds = %220
  %230 = load %"class.v8::Value"*, %"class.v8::Value"** %89, align 8
  br label %231

231:                                              ; preds = %223, %229
  %232 = phi %"class.v8::Value"* [ %228, %223 ], [ %230, %229 ]
  %233 = tail call zeroext i1 @_ZNK2v85Value7IsArrayEv(%"class.v8::Value"* %232) #8
  br i1 %233, label %248, label %234

234:                                              ; preds = %231
  %235 = load i32, i32* %84, align 8
  %236 = icmp sgt i32 %235, 0
  br i1 %236, label %243, label %237

237:                                              ; preds = %234
  %238 = load i64*, i64** %9, align 8
  %239 = getelementptr inbounds i64, i64* %238, i64 1
  %240 = load i64, i64* %239, align 8
  %241 = add i64 %240, 160
  %242 = inttoptr i64 %241 to %"class.v8::Value"*
  br label %245

243:                                              ; preds = %234
  %244 = load %"class.v8::Value"*, %"class.v8::Value"** %89, align 8
  br label %245

245:                                              ; preds = %237, %243
  %246 = phi %"class.v8::Value"* [ %242, %237 ], [ %244, %243 ]
  %247 = call zeroext i1 @_ZN5blink8bindings18IsEsIterableObjectEPN2v87IsolateENS1_5LocalINS1_5ValueEEERNS_14ExceptionStateE(%"class.v8::Isolate"* %13, %"class.v8::Value"* %246, %"class.blink::ExceptionState"* nonnull dereferenceable(72) %7) #8
  br i1 %247, label %248, label %349

248:                                              ; preds = %231, %245
  %249 = load i64*, i64** %9, align 8
  %250 = getelementptr inbounds i64, i64* %249, i64 1
  %251 = bitcast i64* %250 to %"class.v8::Isolate"**
  %252 = load %"class.v8::Isolate"*, %"class.v8::Isolate"** %251, align 8
  %253 = bitcast %"class.blink::ExceptionState"* %4 to i8*
  call void @llvm.lifetime.start.p0i8(i64 72, i8* nonnull %253) #8
  call void @llvm.memset.p0i8.i64(i8* nonnull align 8 %253, i8 -86, i64 56, i1 false) #8
  %254 = getelementptr inbounds %"class.blink::ExceptionState", %"class.blink::ExceptionState"* %4, i64 0, i32 0
  store i32 (...)** bitcast (i8** getelementptr inbounds ({ [9 x i8*] }, { [9 x i8*] }* @_ZTVN5blink14ExceptionStateE, i64 0, inrange i32 0, i64 2) to i32 (...)**), i32 (...)*** %254, align 8
  %255 = getelementptr inbounds %"class.blink::ExceptionState", %"class.blink::ExceptionState"* %4, i64 0, i32 1, i32 0
  store i16 5, i16* %255, align 8
  %256 = getelementptr inbounds %"class.blink::ExceptionState", %"class.blink::ExceptionState"* %4, i64 0, i32 1, i32 1
  store i16 0, i16* %256, align 2
  %257 = getelementptr inbounds %"class.blink::ExceptionState", %"class.blink::ExceptionState"* %4, i64 0, i32 1, i32 2
  store i8* getelementptr inbounds ([12 x i8], [12 x i8]* @.str, i64 0, i64 0), i8** %257, align 8
  %258 = getelementptr inbounds %"class.blink::ExceptionState", %"class.blink::ExceptionState"* %4, i64 0, i32 1, i32 3
  %259 = getelementptr inbounds %"class.blink::ExceptionState", %"class.blink::ExceptionState"* %4, i64 0, i32 3
  %260 = bitcast i8** %258 to i8*
  call void @llvm.memset.p0i8.i64(i8* align 8 %260, i8 0, i64 16, i1 false) #8
  store %"class.v8::Isolate"* %252, %"class.v8::Isolate"** %259, align 8
  %261 = getelementptr inbounds %"class.blink::ExceptionState", %"class.blink::ExceptionState"* %4, i64 0, i32 4
  store i32 0, i32* %261, align 8
  %262 = getelementptr inbounds %"class.blink::ExceptionState", %"class.blink::ExceptionState"* %4, i64 0, i32 5, i32 0, i32 0
  %263 = bitcast %"class.WTF::StringImpl"** %262 to i8*
  call void @llvm.memset.p0i8.i64(i8* align 8 %263, i8 0, i64 16, i1 false) #8
  %264 = load i32, i32* %84, align 8
  %265 = icmp slt i32 %264, 1
  br i1 %265, label %266, label %286, !prof !3

266:                                              ; preds = %248
  %267 = bitcast %"class.WTF::String"* %5 to i8*
  call void @llvm.lifetime.start.p0i8(i64 8, i8* nonnull %267) #8
  %268 = call %"class.WTF::StringImpl"* @_ZN5blink17ExceptionMessages18NotEnoughArgumentsEjj(i32 1, i32 %264) #8
  %269 = getelementptr inbounds %"class.WTF::String", %"class.WTF::String"* %5, i64 0, i32 0, i32 0
  store %"class.WTF::StringImpl"* %268, %"class.WTF::StringImpl"** %269, align 8
  call void @_ZN5blink14ExceptionState14ThrowTypeErrorERKN3WTF6StringE(%"class.blink::ExceptionState"* nonnull %4, %"class.WTF::String"* nonnull dereferenceable(8) %5) #8
  %270 = load %"class.WTF::StringImpl"*, %"class.WTF::StringImpl"** %269, align 8
  %271 = icmp eq %"class.WTF::StringImpl"* %270, null
  br i1 %271, label %285, label %272

272:                                              ; preds = %266
  %273 = getelementptr inbounds %"class.WTF::StringImpl", %"class.WTF::StringImpl"* %270, i64 0, i32 2, i32 0, i32 0, i32 0, i32 0, i32 0
  %274 = load atomic i32, i32* %273 monotonic, align 4
  %275 = and i32 %274, 2
  %276 = icmp eq i32 %275, 0
  %277 = getelementptr inbounds %"class.WTF::StringImpl", %"class.WTF::StringImpl"* %270, i64 0, i32 0
  %278 = load i32, i32* %277, align 4
  br i1 %276, label %279, label %281

279:                                              ; preds = %272
  %280 = add i32 %278, -1
  store i32 %280, i32* %277, align 4
  br label %281

281:                                              ; preds = %279, %272
  %282 = phi i32 [ %280, %279 ], [ %278, %272 ]
  %283 = icmp eq i32 %282, 0
  br i1 %283, label %284, label %285

284:                                              ; preds = %281
  call void @_ZNK3WTF10StringImpl18DestroyIfNotStaticEv(%"class.WTF::StringImpl"* nonnull %270) #8
  br label %285

285:                                              ; preds = %284, %281, %266
  call void @llvm.lifetime.end.p0i8(i64 8, i8* nonnull %267) #8
  br label %319

286:                                              ; preds = %248
  %287 = call %"class.v8::Context"* @_ZN2v87Isolate17GetCurrentContextEv(%"class.v8::Isolate"* %252) #8
  %288 = call %"class.blink::ExecutionContext"* @_ZN5blink16ExecutionContext4FromEN2v85LocalINS1_7ContextEEE(%"class.v8::Context"* %287) #8
  %289 = bitcast %"class.blink::HeapVector.419"* %6 to i8*
  call void @llvm.lifetime.start.p0i8(i64 16, i8* nonnull %289) #8
  %290 = load i32, i32* %84, align 8
  %291 = icmp sgt i32 %290, 0
  br i1 %291, label %298, label %292

292:                                              ; preds = %286
  %293 = load i64*, i64** %9, align 8
  %294 = getelementptr inbounds i64, i64* %293, i64 1
  %295 = load i64, i64* %294, align 8
  %296 = add i64 %295, 160
  %297 = inttoptr i64 %296 to %"class.v8::Value"*
  br label %300

298:                                              ; preds = %286
  %299 = load %"class.v8::Value"*, %"class.v8::Value"** %89, align 8
  br label %300

300:                                              ; preds = %298, %292
  %301 = phi %"class.v8::Value"* [ %297, %292 ], [ %299, %298 ]
  call void @_ZN5blink17NativeValueTraitsINS_11IDLSequenceINS_16MediaStreamTrackEEEvE11NativeValueEPN2v87IsolateENS5_5LocalINS5_5ValueEEERNS_14ExceptionStateE(%"class.blink::HeapVector.419"* nonnull sret %6, %"class.v8::Isolate"* %252, %"class.v8::Value"* %301, %"class.blink::ExceptionState"* nonnull dereferenceable(72) %4) #8
  %302 = load i32, i32* %261, align 8
  %303 = icmp eq i32 %302, 0
  br i1 %303, label %304, label %318

304:                                              ; preds = %300
  %305 = call %"class.blink::MediaStream"* @_ZN5blink11MediaStream6CreateEPNS_16ExecutionContextERKNS_10HeapVectorINS_6MemberINS_16MediaStreamTrackEEELj0EEE(%"class.blink::ExecutionContext"* %288, %"class.blink::HeapVector.419"* nonnull dereferenceable(16) %6) #8
  %306 = load i64*, i64** %88, align 8
  %307 = getelementptr inbounds i64, i64* %306, i64 -1
  %308 = bitcast i64* %307 to %"class.v8::Object"*
  %309 = getelementptr inbounds %"class.blink::MediaStream", %"class.blink::MediaStream"* %305, i64 0, i32 0, i32 0, i32 0
  %310 = call %"class.v8::Object"* @_ZN5blink15ScriptWrappable20AssociateWithWrapperEPN2v87IsolateEPKNS_15WrapperTypeInfoENS1_5LocalINS1_6ObjectEEE(%"class.blink::ScriptWrappable"* %309, %"class.v8::Isolate"* %252, %"struct.blink::WrapperTypeInfo"* nonnull @_ZN5blink13V8MediaStream18wrapper_type_info_E, %"class.v8::Object"* %308) #8
  %311 = load i64*, i64** %9, align 8
  %312 = getelementptr inbounds i64, i64* %311, i64 3
  %313 = icmp eq %"class.v8::Object"* %310, null
  %314 = bitcast %"class.v8::Object"* %310 to i64*
  %315 = getelementptr inbounds i64, i64* %311, i64 2
  %316 = select i1 %313, i64* %315, i64* %314, !prof !3
  %317 = load i64, i64* %316, align 8
  store i64 %317, i64* %312, align 8
  br label %318

318:                                              ; preds = %304, %300
  call void @llvm.lifetime.end.p0i8(i64 16, i8* nonnull %289) #8
  br label %319

319:                                              ; preds = %318, %285
  store i32 (...)** bitcast (i8** getelementptr inbounds ({ [9 x i8*] }, { [9 x i8*] }* @_ZTVN5blink14ExceptionStateE, i64 0, inrange i32 0, i64 2) to i32 (...)**), i32 (...)*** %254, align 8
  %320 = getelementptr inbounds %"class.blink::ExceptionState", %"class.blink::ExceptionState"* %4, i64 0, i32 6, i32 0, i32 0, i32 0, i32 0
  %321 = load i64*, i64** %320, align 8
  %322 = icmp eq i64* %321, null
  br i1 %322, label %332, label %323

323:                                              ; preds = %319
  %324 = load %"class.v8::Isolate"*, %"class.v8::Isolate"** %259, align 8
  %325 = bitcast %"class.v8::Isolate"* %324 to %"class.v8::internal::Isolate"*
  %326 = load i64, i64* %321, align 8
  %327 = call i64* @_ZN2v811HandleScope12CreateHandleEPNS_8internal7IsolateEm(%"class.v8::internal::Isolate"* %325, i64 %326) #8
  %328 = call zeroext i1 @_ZN2v87Isolate22IsExecutionTerminatingEv(%"class.v8::Isolate"* %324) #8
  br i1 %328, label %332, label %329

329:                                              ; preds = %323
  %330 = bitcast i64* %327 to %"class.v8::Value"*
  %331 = call %"class.v8::Value"* @_ZN2v87Isolate14ThrowExceptionENS_5LocalINS_5ValueEEE(%"class.v8::Isolate"* %324, %"class.v8::Value"* %330) #8
  br label %332

332:                                              ; preds = %329, %323, %319
  %333 = load %"class.WTF::StringImpl"*, %"class.WTF::StringImpl"** %262, align 8
  %334 = icmp eq %"class.WTF::StringImpl"* %333, null
  br i1 %334, label %348, label %335

335:                                              ; preds = %332
  %336 = getelementptr inbounds %"class.WTF::StringImpl", %"class.WTF::StringImpl"* %333, i64 0, i32 2, i32 0, i32 0, i32 0, i32 0, i32 0
  %337 = load atomic i32, i32* %336 monotonic, align 4
  %338 = and i32 %337, 2
  %339 = icmp eq i32 %338, 0
  %340 = getelementptr inbounds %"class.WTF::StringImpl", %"class.WTF::StringImpl"* %333, i64 0, i32 0
  %341 = load i32, i32* %340, align 4
  br i1 %339, label %342, label %344

342:                                              ; preds = %335
  %343 = add i32 %341, -1
  store i32 %343, i32* %340, align 4
  br label %344

344:                                              ; preds = %342, %335
  %345 = phi i32 [ %343, %342 ], [ %341, %335 ]
  %346 = icmp eq i32 %345, 0
  br i1 %346, label %347, label %348

347:                                              ; preds = %344
  call void @_ZNK3WTF10StringImpl18DestroyIfNotStaticEv(%"class.WTF::StringImpl"* nonnull %333) #8
  br label %348

348:                                              ; preds = %332, %344, %347
  call void @llvm.lifetime.end.p0i8(i64 72, i8* nonnull %253) #8
  br label %371

349:                                              ; preds = %245
  %350 = load i32, i32* %22, align 8
  %351 = icmp eq i32 %350, 0
  br i1 %351, label %370, label %371

352:                                              ; preds = %83
  %353 = load %"class.v8::Isolate"*, %"class.v8::Isolate"** %12, align 8
  %354 = tail call %"class.v8::Context"* @_ZN2v87Isolate17GetCurrentContextEv(%"class.v8::Isolate"* %353) #8
  %355 = tail call %"class.blink::ExecutionContext"* @_ZN5blink16ExecutionContext4FromEN2v85LocalINS1_7ContextEEE(%"class.v8::Context"* %354) #8
  %356 = tail call %"class.blink::MediaStream"* @_ZN5blink11MediaStream6CreateEPNS_16ExecutionContextE(%"class.blink::ExecutionContext"* %355) #8
  %357 = getelementptr inbounds %"class.v8::FunctionCallbackInfo", %"class.v8::FunctionCallbackInfo"* %0, i64 0, i32 1
  %358 = load i64*, i64** %357, align 8
  %359 = getelementptr inbounds i64, i64* %358, i64 -1
  %360 = bitcast i64* %359 to %"class.v8::Object"*
  %361 = getelementptr inbounds %"class.blink::MediaStream", %"class.blink::MediaStream"* %356, i64 0, i32 0, i32 0, i32 0
  %362 = tail call %"class.v8::Object"* @_ZN5blink15ScriptWrappable20AssociateWithWrapperEPN2v87IsolateEPKNS_15WrapperTypeInfoENS1_5LocalINS1_6ObjectEEE(%"class.blink::ScriptWrappable"* %361, %"class.v8::Isolate"* %353, %"struct.blink::WrapperTypeInfo"* nonnull @_ZN5blink13V8MediaStream18wrapper_type_info_E, %"class.v8::Object"* %360) #8
  %363 = load i64*, i64** %9, align 8
  %364 = getelementptr inbounds i64, i64* %363, i64 3
  %365 = icmp eq %"class.v8::Object"* %362, null
  %366 = bitcast %"class.v8::Object"* %362 to i64*
  %367 = getelementptr inbounds i64, i64* %363, i64 2
  %368 = select i1 %365, i64* %367, i64* %366, !prof !3
  %369 = load i64, i64* %368, align 8
  store i64 %369, i64* %364, align 8
  br label %371

370:                                              ; preds = %349
  call void @_ZN5blink14ExceptionState14ThrowTypeErrorEPKc(%"class.blink::ExceptionState"* nonnull %7, i8* getelementptr inbounds ([28 x i8], [28 x i8]* @.str.14, i64 0, i64 0)) #8
  br label %371

371:                                              ; preds = %349, %219, %348, %352, %370, %74, %65
  store i32 (...)** bitcast (i8** getelementptr inbounds ({ [9 x i8*] }, { [9 x i8*] }* @_ZTVN5blink14ExceptionStateE, i64 0, inrange i32 0, i64 2) to i32 (...)**), i32 (...)*** %15, align 8
  %372 = getelementptr inbounds %"class.blink::ExceptionState", %"class.blink::ExceptionState"* %7, i64 0, i32 6, i32 0, i32 0, i32 0, i32 0
  %373 = load i64*, i64** %372, align 8
  %374 = icmp eq i64* %373, null
  br i1 %374, label %384, label %375

375:                                              ; preds = %371
  %376 = load %"class.v8::Isolate"*, %"class.v8::Isolate"** %20, align 8
  %377 = bitcast %"class.v8::Isolate"* %376 to %"class.v8::internal::Isolate"*
  %378 = load i64, i64* %373, align 8
  %379 = call i64* @_ZN2v811HandleScope12CreateHandleEPNS_8internal7IsolateEm(%"class.v8::internal::Isolate"* %377, i64 %378) #8
  %380 = call zeroext i1 @_ZN2v87Isolate22IsExecutionTerminatingEv(%"class.v8::Isolate"* %376) #8
  br i1 %380, label %384, label %381

381:                                              ; preds = %375
  %382 = bitcast i64* %379 to %"class.v8::Value"*
  %383 = call %"class.v8::Value"* @_ZN2v87Isolate14ThrowExceptionENS_5LocalINS_5ValueEEE(%"class.v8::Isolate"* %376, %"class.v8::Value"* %382) #8
  br label %384

384:                                              ; preds = %381, %375, %371
  %385 = load %"class.WTF::StringImpl"*, %"class.WTF::StringImpl"** %23, align 8
  %386 = icmp eq %"class.WTF::StringImpl"* %385, null
  br i1 %386, label %400, label %387

387:                                              ; preds = %384
  %388 = getelementptr inbounds %"class.WTF::StringImpl", %"class.WTF::StringImpl"* %385, i64 0, i32 2, i32 0, i32 0, i32 0, i32 0, i32 0
  %389 = load atomic i32, i32* %388 monotonic, align 4
  %390 = and i32 %389, 2
  %391 = icmp eq i32 %390, 0
  %392 = getelementptr inbounds %"class.WTF::StringImpl", %"class.WTF::StringImpl"* %385, i64 0, i32 0
  %393 = load i32, i32* %392, align 4
  br i1 %391, label %394, label %396

394:                                              ; preds = %387
  %395 = add i32 %393, -1
  store i32 %395, i32* %392, align 4
  br label %396

396:                                              ; preds = %394, %387
  %397 = phi i32 [ %395, %394 ], [ %393, %387 ]
  %398 = icmp eq i32 %397, 0
  br i1 %398, label %399, label %400

399:                                              ; preds = %396
  call void @_ZNK3WTF10StringImpl18DestroyIfNotStaticEv(%"class.WTF::StringImpl"* nonnull %385) #8
  br label %400

400:                                              ; preds = %384, %396, %399
  call void @llvm.lifetime.end.p0i8(i64 72, i8* nonnull %14) #8
  ret void
}

declare void @_ZN2v816FunctionTemplate9SetLengthEi(%"class.v8::FunctionTemplate"*, i32) local_unnamed_addr #2

; Function Attrs: nounwind ssp uwtable
define hidden void @_ZN5blink13V8MediaStream30InstallUnconditionalPropertiesEPN2v87IsolateERKNS_15DOMWrapperWorldENS1_5LocalINS1_8TemplateEEES9_S9_(%"class.v8::Isolate"*, %"class.blink::DOMWrapperWorld"* dereferenceable(32), %"class.v8::Template"*, %"class.v8::Template"*, %"class.v8::Template"*) local_unnamed_addr #0 align 2 {
  %6 = alloca %"class.base::span", align 8
  %7 = alloca %"class.base::span.182", align 8
  %8 = bitcast %"class.v8::Template"* %4 to %"class.v8::FunctionTemplate"*
  %9 = tail call %"class.v8::Signature"* @_ZN2v89Signature3NewEPNS_7IsolateENS_5LocalINS_16FunctionTemplateEEE(%"class.v8::Isolate"* %0, %"class.v8::FunctionTemplate"* %8) #8
  %10 = getelementptr inbounds %"class.base::span", %"class.base::span"* %6, i64 0, i32 0, i32 0
  store i64 6, i64* %10, align 8
  %11 = getelementptr inbounds %"class.base::span", %"class.base::span"* %6, i64 0, i32 1
  store %"struct.blink::bindings::IDLMemberInstaller::AttributeConfig"* bitcast ([6 x { i8*, void (%"class.v8::FunctionCallbackInfo"*)*, void (%"class.v8::FunctionCallbackInfo"*)*, i8, i8 }]* @_ZZN5blink13V8MediaStream30InstallUnconditionalPropertiesEPN2v87IsolateERKNS_15DOMWrapperWorldENS1_5LocalINS1_8TemplateEEES9_S9_E15kAttributeTable to %"struct.blink::bindings::IDLMemberInstaller::AttributeConfig"*), %"struct.blink::bindings::IDLMemberInstaller::AttributeConfig"** %11, align 8
  tail call void @_ZN5blink8bindings18IDLMemberInstaller17InstallAttributesEPN2v87IsolateERKNS_15DOMWrapperWorldENS2_5LocalINS2_8TemplateEEESA_SA_NS8_INS2_9SignatureEEEN4base4spanIKNS1_15AttributeConfigELm18446744073709551615EEE(%"class.v8::Isolate"* %0, %"class.blink::DOMWrapperWorld"* dereferenceable(32) %1, %"class.v8::Template"* %2, %"class.v8::Template"* %3, %"class.v8::Template"* %4, %"class.v8::Signature"* %9, %"class.base::span"* nonnull byval(%"class.base::span") align 8 %6) #8
  %12 = getelementptr inbounds %"class.base::span.182", %"class.base::span.182"* %7, i64 0, i32 0, i32 0
  store i64 7, i64* %12, align 8
  %13 = getelementptr inbounds %"class.base::span.182", %"class.base::span.182"* %7, i64 0, i32 1
  store %"struct.blink::bindings::IDLMemberInstaller::OperationConfig"* bitcast ([7 x { i8*, void (%"class.v8::FunctionCallbackInfo"*)*, i8, i8, i8 }]* @_ZZN5blink13V8MediaStream30InstallUnconditionalPropertiesEPN2v87IsolateERKNS_15DOMWrapperWorldENS1_5LocalINS1_8TemplateEEES9_S9_E15kOperationTable to %"struct.blink::bindings::IDLMemberInstaller::OperationConfig"*), %"struct.blink::bindings::IDLMemberInstaller::OperationConfig"** %13, align 8
  tail call void @_ZN5blink8bindings18IDLMemberInstaller17InstallOperationsEPN2v87IsolateERKNS_15DOMWrapperWorldENS2_5LocalINS2_8TemplateEEESA_SA_NS8_INS2_9SignatureEEEN4base4spanIKNS1_15OperationConfigELm18446744073709551615EEE(%"class.v8::Isolate"* %0, %"class.blink::DOMWrapperWorld"* dereferenceable(32) %1, %"class.v8::Template"* %2, %"class.v8::Template"* %3, %"class.v8::Template"* %4, %"class.v8::Signature"* %9, %"class.base::span.182"* nonnull byval(%"class.base::span.182") align 8 %7) #8
  ret void
}

declare %"class.v8::Signature"* @_ZN2v89Signature3NewEPNS_7IsolateENS_5LocalINS_16FunctionTemplateEEE(%"class.v8::Isolate"*, %"class.v8::FunctionTemplate"*) local_unnamed_addr #2

; Function Attrs: nounwind ssp uwtable
define internal void @_ZN5blink12_GLOBAL__N_115v8_media_stream22IdAttributeGetCallbackERKN2v820FunctionCallbackInfoINS2_5ValueEEE(%"class.v8::FunctionCallbackInfo"* nocapture readonly dereferenceable(24)) #0 {
  %2 = getelementptr inbounds %"class.v8::FunctionCallbackInfo", %"class.v8::FunctionCallbackInfo"* %0, i64 0, i32 1
  %3 = load i64*, i64** %2, align 8
  %4 = getelementptr inbounds i64, i64* %3, i64 -1
  %5 = load i64, i64* %4, align 8
  %6 = add i64 %5, -1
  %7 = inttoptr i64 %6 to i32*
  %8 = load i32, i32* %7, align 4
  %9 = and i64 %5, -4294967296
  %10 = zext i32 %8 to i64
  %11 = or i64 %9, %10
  %12 = add i64 %11, 7
  %13 = inttoptr i64 %12 to i16*
  %14 = load i16, i16* %13, align 2
  switch i16 %14, label %19 [
    i16 1057, label %15
    i16 1056, label %15
    i16 1040, label %15
  ]

15:                                               ; preds = %1, %1, %1
  %16 = add i64 %5, 19
  %17 = inttoptr i64 %16 to i8**
  %18 = load i8*, i8** %17, align 1
  br label %22

19:                                               ; preds = %1
  %20 = bitcast i64* %4 to %"class.v8::Object"*
  %21 = tail call i8* @_ZN2v86Object38SlowGetAlignedPointerFromInternalFieldEi(%"class.v8::Object"* %20, i32 1) #8
  br label %22

22:                                               ; preds = %15, %19
  %23 = phi i8* [ %18, %15 ], [ %21, %19 ]
  %24 = getelementptr inbounds i8, i8* %23, i64 136
  %25 = bitcast i8* %24 to %"class.blink::MediaStreamDescriptor"**
  %26 = load %"class.blink::MediaStreamDescriptor"*, %"class.blink::MediaStreamDescriptor"** %25, align 8
  %27 = getelementptr inbounds %"class.blink::MediaStreamDescriptor", %"class.blink::MediaStreamDescriptor"* %26, i64 0, i32 1, i32 0, i32 0
  %28 = load %"class.WTF::StringImpl"*, %"class.WTF::StringImpl"** %27, align 8
  %29 = icmp eq %"class.WTF::StringImpl"* %28, null
  br i1 %29, label %69, label %30

30:                                               ; preds = %22
  %31 = getelementptr inbounds %"class.WTF::StringImpl", %"class.WTF::StringImpl"* %28, i64 0, i32 2, i32 0, i32 0, i32 0, i32 0, i32 0
  %32 = load atomic i32, i32* %31 monotonic, align 4
  %33 = and i32 %32, 2
  %34 = icmp eq i32 %33, 0
  br i1 %34, label %35, label %47

35:                                               ; preds = %30
  %36 = getelementptr inbounds %"class.WTF::StringImpl", %"class.WTF::StringImpl"* %28, i64 0, i32 0
  %37 = load i32, i32* %36, align 4
  %38 = zext i32 %37 to i33
  %39 = tail call { i33, i1 } @llvm.sadd.with.overflow.i33(i33 %38, i33 1) #8
  %40 = extractvalue { i33, i1 } %39, 1
  %41 = extractvalue { i33, i1 } %39, 0
  %42 = icmp slt i33 %41, 0
  %43 = or i1 %40, %42
  br i1 %43, label %44, label %45, !prof !3

44:                                               ; preds = %35
  tail call void @llvm.trap() #8
  unreachable

45:                                               ; preds = %35
  %46 = trunc i33 %41 to i32
  store i32 %46, i32* %36, align 4
  br label %47

47:                                               ; preds = %30, %45
  %48 = getelementptr inbounds %"class.v8::FunctionCallbackInfo", %"class.v8::FunctionCallbackInfo"* %0, i64 0, i32 0
  %49 = load i64*, i64** %48, align 8
  %50 = getelementptr inbounds i64, i64* %49, i64 1
  %51 = load i64, i64* %50, align 8
  %52 = add i64 %51, 8
  %53 = inttoptr i64 %52 to %"class.blink::V8PerIsolateData"**
  %54 = load %"class.blink::V8PerIsolateData"*, %"class.blink::V8PerIsolateData"** %53, align 8
  %55 = getelementptr inbounds %"class.blink::V8PerIsolateData", %"class.blink::V8PerIsolateData"* %54, i64 0, i32 5, i32 0, i32 0, i32 0
  %56 = load %"class.blink::StringCache"*, %"class.blink::StringCache"** %55, align 8
  %57 = getelementptr inbounds i64, i64* %49, i64 3
  %58 = getelementptr inbounds %"class.blink::StringCache", %"class.blink::StringCache"* %56, i64 0, i32 3, i32 0
  %59 = load %"class.WTF::StringImpl"*, %"class.WTF::StringImpl"** %58, align 8
  %60 = icmp eq %"class.WTF::StringImpl"* %59, %28
  br i1 %60, label %61, label %68

61:                                               ; preds = %47
  %62 = getelementptr inbounds %"class.blink::StringCache", %"class.blink::StringCache"* %56, i64 0, i32 1, i32 0
  %63 = load i64, i64* %62, align 8
  %64 = icmp eq i64 %63, 0
  br i1 %64, label %78, label %65

65:                                               ; preds = %61
  %66 = inttoptr i64 %63 to i64*
  %67 = load i64, i64* %66, align 8
  store i64 %67, i64* %57, align 8
  br label %78

68:                                               ; preds = %47
  tail call void @_ZN5blink11StringCache28SetReturnValueFromStringSlowEN2v811ReturnValueINS1_5ValueEEEPN3WTF10StringImplE(%"class.blink::StringCache"* %56, i64* %57, %"class.WTF::StringImpl"* nonnull %28) #8
  br label %78

69:                                               ; preds = %22
  %70 = getelementptr inbounds %"class.v8::FunctionCallbackInfo", %"class.v8::FunctionCallbackInfo"* %0, i64 0, i32 0
  %71 = load i64*, i64** %70, align 8
  %72 = getelementptr inbounds i64, i64* %71, i64 1
  %73 = getelementptr inbounds i64, i64* %71, i64 3
  %74 = load i64, i64* %72, align 8
  %75 = add i64 %74, 200
  %76 = inttoptr i64 %75 to i64*
  %77 = load i64, i64* %76, align 8
  store i64 %77, i64* %73, align 8
  br label %90

78:                                               ; preds = %61, %65, %68
  %79 = load atomic i32, i32* %31 monotonic, align 4
  %80 = and i32 %79, 2
  %81 = icmp eq i32 %80, 0
  %82 = getelementptr inbounds %"class.WTF::StringImpl", %"class.WTF::StringImpl"* %28, i64 0, i32 0
  %83 = load i32, i32* %82, align 4
  br i1 %81, label %84, label %86

84:                                               ; preds = %78
  %85 = add i32 %83, -1
  store i32 %85, i32* %82, align 4
  br label %86

86:                                               ; preds = %84, %78
  %87 = phi i32 [ %85, %84 ], [ %83, %78 ]
  %88 = icmp eq i32 %87, 0
  br i1 %88, label %89, label %90

89:                                               ; preds = %86
  tail call void @_ZNK3WTF10StringImpl18DestroyIfNotStaticEv(%"class.WTF::StringImpl"* nonnull %28) #8
  br label %90

90:                                               ; preds = %69, %86, %89
  ret void
}

; Function Attrs: nounwind ssp uwtable
define internal void @_ZN5blink12_GLOBAL__N_115v8_media_stream26ActiveAttributeGetCallbackERKN2v820FunctionCallbackInfoINS2_5ValueEEE(%"class.v8::FunctionCallbackInfo"* nocapture readonly dereferenceable(24)) #0 {
  %2 = getelementptr inbounds %"class.v8::FunctionCallbackInfo", %"class.v8::FunctionCallbackInfo"* %0, i64 0, i32 0
  %3 = load i64*, i64** %2, align 8
  %4 = getelementptr inbounds i64, i64* %3, i64 1
  %5 = bitcast i64* %4 to %"class.v8::Isolate"**
  %6 = load %"class.v8::Isolate"*, %"class.v8::Isolate"** %5, align 8
  %7 = tail call %"class.v8::Context"* @_ZN2v87Isolate17GetCurrentContextEv(%"class.v8::Isolate"* %6) #8
  %8 = tail call %"class.blink::ExecutionContext"* @_ZN5blink16ExecutionContext4FromEN2v85LocalINS1_7ContextEEE(%"class.v8::Context"* %7) #8
  %9 = icmp eq %"class.blink::ExecutionContext"* %8, null
  %10 = getelementptr inbounds %"class.blink::ExecutionContext", %"class.blink::ExecutionContext"* %8, i64 0, i32 3
  %11 = icmp eq %"class.blink::UseCounter"* %10, null
  %12 = or i1 %9, %11
  br i1 %12, label %18, label %13

13:                                               ; preds = %1
  %14 = bitcast %"class.blink::UseCounter"* %10 to void (%"class.blink::UseCounter"*, i32)***
  %15 = load void (%"class.blink::UseCounter"*, i32)**, void (%"class.blink::UseCounter"*, i32)*** %14, align 8
  %16 = getelementptr inbounds void (%"class.blink::UseCounter"*, i32)*, void (%"class.blink::UseCounter"*, i32)** %15, i64 3
  %17 = load void (%"class.blink::UseCounter"*, i32)*, void (%"class.blink::UseCounter"*, i32)** %16, align 8
  tail call void %17(%"class.blink::UseCounter"* nonnull %10, i32 1435) #8
  br label %18

18:                                               ; preds = %1, %13
  %19 = getelementptr inbounds %"class.v8::FunctionCallbackInfo", %"class.v8::FunctionCallbackInfo"* %0, i64 0, i32 1
  %20 = load i64*, i64** %19, align 8
  %21 = getelementptr inbounds i64, i64* %20, i64 -1
  %22 = load i64, i64* %21, align 8
  %23 = add i64 %22, -1
  %24 = inttoptr i64 %23 to i32*
  %25 = load i32, i32* %24, align 4
  %26 = and i64 %22, -4294967296
  %27 = zext i32 %25 to i64
  %28 = or i64 %26, %27
  %29 = add i64 %28, 7
  %30 = inttoptr i64 %29 to i16*
  %31 = load i16, i16* %30, align 2
  switch i16 %31, label %36 [
    i16 1057, label %32
    i16 1056, label %32
    i16 1040, label %32
  ]

32:                                               ; preds = %18, %18, %18
  %33 = add i64 %22, 19
  %34 = inttoptr i64 %33 to i8**
  %35 = load i8*, i8** %34, align 1
  br label %39

36:                                               ; preds = %18
  %37 = bitcast i64* %21 to %"class.v8::Object"*
  %38 = tail call i8* @_ZN2v86Object38SlowGetAlignedPointerFromInternalFieldEi(%"class.v8::Object"* %37, i32 1) #8
  br label %39

39:                                               ; preds = %32, %36
  %40 = phi i8* [ %35, %32 ], [ %38, %36 ]
  %41 = getelementptr inbounds i8, i8* %40, i64 136
  %42 = bitcast i8* %41 to %"class.blink::MediaStreamDescriptor"**
  %43 = load %"class.blink::MediaStreamDescriptor"*, %"class.blink::MediaStreamDescriptor"** %42, align 8
  %44 = getelementptr inbounds %"class.blink::MediaStreamDescriptor", %"class.blink::MediaStreamDescriptor"* %43, i64 0, i32 7
  %45 = load i8, i8* %44, align 8, !range !2
  %46 = icmp eq i8 %45, 0
  %47 = load i64*, i64** %2, align 8
  %48 = getelementptr inbounds i64, i64* %47, i64 3
  %49 = getelementptr inbounds i64, i64* %47, i64 1
  %50 = load i64, i64* %49, align 8
  %51 = select i1 %46, i64 192, i64 184
  %52 = add i64 %50, %51
  %53 = inttoptr i64 %52 to i64*
  %54 = load i64, i64* %53, align 8
  store i64 %54, i64* %48, align 8
  ret void
}

; Function Attrs: nounwind ssp uwtable
define internal void @_ZN5blink12_GLOBAL__N_115v8_media_stream30OnaddtrackAttributeGetCallbackERKN2v820FunctionCallbackInfoINS2_5ValueEEE(%"class.v8::FunctionCallbackInfo"* nocapture readonly dereferenceable(24)) #0 {
  %2 = getelementptr inbounds %"class.v8::FunctionCallbackInfo", %"class.v8::FunctionCallbackInfo"* %0, i64 0, i32 1
  %3 = load i64*, i64** %2, align 8
  %4 = getelementptr inbounds i64, i64* %3, i64 -1
  %5 = load i64, i64* %4, align 8
  %6 = add i64 %5, -1
  %7 = inttoptr i64 %6 to i32*
  %8 = load i32, i32* %7, align 4
  %9 = and i64 %5, -4294967296
  %10 = zext i32 %8 to i64
  %11 = or i64 %9, %10
  %12 = add i64 %11, 7
  %13 = inttoptr i64 %12 to i16*
  %14 = load i16, i16* %13, align 2
  switch i16 %14, label %19 [
    i16 1057, label %15
    i16 1056, label %15
    i16 1040, label %15
  ]

15:                                               ; preds = %1, %1, %1
  %16 = add i64 %5, 19
  %17 = inttoptr i64 %16 to i8**
  %18 = load i8*, i8** %17, align 1
  br label %22

19:                                               ; preds = %1
  %20 = bitcast i64* %4 to %"class.v8::Object"*
  %21 = tail call i8* @_ZN2v86Object38SlowGetAlignedPointerFromInternalFieldEi(%"class.v8::Object"* %20, i32 1) #8
  br label %22

22:                                               ; preds = %15, %19
  %23 = phi i8* [ %18, %15 ], [ %21, %19 ]
  %24 = bitcast i8* %23 to %"class.blink::EventTarget"*
  %25 = load %"class.WTF::AtomicString"*, %"class.WTF::AtomicString"** @_ZN5blink16event_type_names9kAddtrackE, align 8
  %26 = tail call %"class.blink::EventListener"* @_ZN5blink11EventTarget25GetAttributeEventListenerERKN3WTF12AtomicStringE(%"class.blink::EventTarget"* %24, %"class.WTF::AtomicString"* dereferenceable(8) %25) #8
  %27 = getelementptr inbounds %"class.v8::FunctionCallbackInfo", %"class.v8::FunctionCallbackInfo"* %0, i64 0, i32 0
  %28 = load i64*, i64** %27, align 8
  %29 = getelementptr inbounds i64, i64* %28, i64 1
  %30 = load i64, i64* %29, align 8
  %31 = getelementptr inbounds i64, i64* %28, i64 3
  %32 = icmp eq %"class.blink::EventListener"* %26, null
  br i1 %32, label %53, label %33

33:                                               ; preds = %22
  %34 = bitcast %"class.blink::EventListener"* %26 to i1 (%"class.blink::EventListener"*)***
  %35 = load i1 (%"class.blink::EventListener"*)**, i1 (%"class.blink::EventListener"*)*** %34, align 8
  %36 = getelementptr inbounds i1 (%"class.blink::EventListener"*)*, i1 (%"class.blink::EventListener"*)** %35, i64 10
  %37 = load i1 (%"class.blink::EventListener"*)*, i1 (%"class.blink::EventListener"*)** %36, align 8
  %38 = tail call zeroext i1 %37(%"class.blink::EventListener"* nonnull %26) #8
  br i1 %38, label %39, label %53

39:                                               ; preds = %33
  %40 = bitcast %"class.blink::EventListener"* %26 to %"class.blink::JSBasedEventListener"*
  %41 = bitcast %"class.blink::EventListener"* %26 to i1 (%"class.blink::JSBasedEventListener"*)***
  %42 = load i1 (%"class.blink::JSBasedEventListener"*)**, i1 (%"class.blink::JSBasedEventListener"*)*** %41, align 8
  %43 = getelementptr inbounds i1 (%"class.blink::JSBasedEventListener"*)*, i1 (%"class.blink::JSBasedEventListener"*)** %42, i64 16
  %44 = load i1 (%"class.blink::JSBasedEventListener"*)*, i1 (%"class.blink::JSBasedEventListener"*)** %43, align 8
  %45 = tail call zeroext i1 %44(%"class.blink::JSBasedEventListener"* nonnull %40) #8
  br i1 %45, label %46, label %53

46:                                               ; preds = %39
  %47 = bitcast %"class.blink::EventListener"* %26 to %"class.blink::JSEventHandler"*
  %48 = bitcast %"class.blink::EventListener"* %26 to %"class.v8::Value"* (%"class.blink::JSEventHandler"*, %"class.blink::EventTarget"*)***
  %49 = load %"class.v8::Value"* (%"class.blink::JSEventHandler"*, %"class.blink::EventTarget"*)**, %"class.v8::Value"* (%"class.blink::JSEventHandler"*, %"class.blink::EventTarget"*)*** %48, align 8
  %50 = getelementptr inbounds %"class.v8::Value"* (%"class.blink::JSEventHandler"*, %"class.blink::EventTarget"*)*, %"class.v8::Value"* (%"class.blink::JSEventHandler"*, %"class.blink::EventTarget"*)** %49, i64 12
  %51 = load %"class.v8::Value"* (%"class.blink::JSEventHandler"*, %"class.blink::EventTarget"*)*, %"class.v8::Value"* (%"class.blink::JSEventHandler"*, %"class.blink::EventTarget"*)** %50, align 8
  %52 = tail call %"class.v8::Value"* %51(%"class.blink::JSEventHandler"* nonnull %47, %"class.blink::EventTarget"* dereferenceable(16) %24) #8
  br label %56

53:                                               ; preds = %39, %33, %22
  %54 = add i64 %30, 176
  %55 = inttoptr i64 %54 to %"class.v8::Value"*
  br label %56

56:                                               ; preds = %46, %53
  %57 = phi %"class.v8::Value"* [ %55, %53 ], [ %52, %46 ]
  %58 = icmp eq %"class.v8::Value"* %57, null
  %59 = bitcast %"class.v8::Value"* %57 to i64*
  %60 = getelementptr inbounds i64, i64* %28, i64 2
  %61 = select i1 %58, i64* %60, i64* %59, !prof !3
  %62 = load i64, i64* %61, align 8
  store i64 %62, i64* %31, align 8
  ret void
}

; Function Attrs: nounwind ssp uwtable
define internal void @_ZN5blink12_GLOBAL__N_115v8_media_stream30OnaddtrackAttributeSetCallbackERKN2v820FunctionCallbackInfoINS2_5ValueEEE(%"class.v8::FunctionCallbackInfo"* nocapture readonly dereferenceable(24)) #0 {
  %2 = getelementptr inbounds %"class.v8::FunctionCallbackInfo", %"class.v8::FunctionCallbackInfo"* %0, i64 0, i32 2
  %3 = load i32, i32* %2, align 8
  %4 = icmp sgt i32 %3, 0
  br i1 %4, label %12, label %5

5:                                                ; preds = %1
  %6 = getelementptr inbounds %"class.v8::FunctionCallbackInfo", %"class.v8::FunctionCallbackInfo"* %0, i64 0, i32 0
  %7 = load i64*, i64** %6, align 8
  %8 = getelementptr inbounds i64, i64* %7, i64 1
  %9 = load i64, i64* %8, align 8
  %10 = add i64 %9, 160
  %11 = inttoptr i64 %10 to %"class.v8::Value"*
  br label %16

12:                                               ; preds = %1
  %13 = getelementptr inbounds %"class.v8::FunctionCallbackInfo", %"class.v8::FunctionCallbackInfo"* %0, i64 0, i32 1
  %14 = bitcast i64** %13 to %"class.v8::Value"**
  %15 = load %"class.v8::Value"*, %"class.v8::Value"** %14, align 8
  br label %16

16:                                               ; preds = %5, %12
  %17 = phi %"class.v8::Value"* [ %11, %5 ], [ %15, %12 ]
  %18 = tail call %"class.blink::JSEventHandler"* @_ZN5blink14JSEventHandler12CreateOrNullEN2v85LocalINS1_5ValueEEENS0_11HandlerTypeE(%"class.v8::Value"* %17, i32 0) #8
  %19 = getelementptr inbounds %"class.blink::JSEventHandler", %"class.blink::JSEventHandler"* %18, i64 0, i32 0, i32 0
  %20 = getelementptr inbounds %"class.v8::FunctionCallbackInfo", %"class.v8::FunctionCallbackInfo"* %0, i64 0, i32 1
  %21 = load i64*, i64** %20, align 8
  %22 = getelementptr inbounds i64, i64* %21, i64 -1
  %23 = load i64, i64* %22, align 8
  %24 = add i64 %23, -1
  %25 = inttoptr i64 %24 to i32*
  %26 = load i32, i32* %25, align 4
  %27 = and i64 %23, -4294967296
  %28 = zext i32 %26 to i64
  %29 = or i64 %27, %28
  %30 = add i64 %29, 7
  %31 = inttoptr i64 %30 to i16*
  %32 = load i16, i16* %31, align 2
  switch i16 %32, label %37 [
    i16 1057, label %33
    i16 1056, label %33
    i16 1040, label %33
  ]

33:                                               ; preds = %16, %16, %16
  %34 = add i64 %23, 19
  %35 = inttoptr i64 %34 to i8**
  %36 = load i8*, i8** %35, align 1
  br label %40

37:                                               ; preds = %16
  %38 = bitcast i64* %22 to %"class.v8::Object"*
  %39 = tail call i8* @_ZN2v86Object38SlowGetAlignedPointerFromInternalFieldEi(%"class.v8::Object"* %38, i32 1) #8
  br label %40

40:                                               ; preds = %33, %37
  %41 = phi i8* [ %36, %33 ], [ %39, %37 ]
  %42 = bitcast i8* %41 to %"class.blink::EventTarget"*
  %43 = load %"class.WTF::AtomicString"*, %"class.WTF::AtomicString"** @_ZN5blink16event_type_names9kAddtrackE, align 8
  %44 = tail call zeroext i1 @_ZN5blink11EventTarget25SetAttributeEventListenerERKN3WTF12AtomicStringEPNS_13EventListenerE(%"class.blink::EventTarget"* %42, %"class.WTF::AtomicString"* dereferenceable(8) %43, %"class.blink::EventListener"* %19) #8
  ret void
}

; Function Attrs: nounwind ssp uwtable
define internal void @_ZN5blink12_GLOBAL__N_115v8_media_stream33OnremovetrackAttributeGetCallbackERKN2v820FunctionCallbackInfoINS2_5ValueEEE(%"class.v8::FunctionCallbackInfo"* nocapture readonly dereferenceable(24)) #0 {
  %2 = getelementptr inbounds %"class.v8::FunctionCallbackInfo", %"class.v8::FunctionCallbackInfo"* %0, i64 0, i32 1
  %3 = load i64*, i64** %2, align 8
  %4 = getelementptr inbounds i64, i64* %3, i64 -1
  %5 = load i64, i64* %4, align 8
  %6 = add i64 %5, -1
  %7 = inttoptr i64 %6 to i32*
  %8 = load i32, i32* %7, align 4
  %9 = and i64 %5, -4294967296
  %10 = zext i32 %8 to i64
  %11 = or i64 %9, %10
  %12 = add i64 %11, 7
  %13 = inttoptr i64 %12 to i16*
  %14 = load i16, i16* %13, align 2
  switch i16 %14, label %19 [
    i16 1057, label %15
    i16 1056, label %15
    i16 1040, label %15
  ]

15:                                               ; preds = %1, %1, %1
  %16 = add i64 %5, 19
  %17 = inttoptr i64 %16 to i8**
  %18 = load i8*, i8** %17, align 1
  br label %22

19:                                               ; preds = %1
  %20 = bitcast i64* %4 to %"class.v8::Object"*
  %21 = tail call i8* @_ZN2v86Object38SlowGetAlignedPointerFromInternalFieldEi(%"class.v8::Object"* %20, i32 1) #8
  br label %22

22:                                               ; preds = %15, %19
  %23 = phi i8* [ %18, %15 ], [ %21, %19 ]
  %24 = bitcast i8* %23 to %"class.blink::EventTarget"*
  %25 = load %"class.WTF::AtomicString"*, %"class.WTF::AtomicString"** @_ZN5blink16event_type_names12kRemovetrackE, align 8
  %26 = tail call %"class.blink::EventListener"* @_ZN5blink11EventTarget25GetAttributeEventListenerERKN3WTF12AtomicStringE(%"class.blink::EventTarget"* %24, %"class.WTF::AtomicString"* dereferenceable(8) %25) #8
  %27 = getelementptr inbounds %"class.v8::FunctionCallbackInfo", %"class.v8::FunctionCallbackInfo"* %0, i64 0, i32 0
  %28 = load i64*, i64** %27, align 8
  %29 = getelementptr inbounds i64, i64* %28, i64 1
  %30 = load i64, i64* %29, align 8
  %31 = getelementptr inbounds i64, i64* %28, i64 3
  %32 = icmp eq %"class.blink::EventListener"* %26, null
  br i1 %32, label %53, label %33

33:                                               ; preds = %22
  %34 = bitcast %"class.blink::EventListener"* %26 to i1 (%"class.blink::EventListener"*)***
  %35 = load i1 (%"class.blink::EventListener"*)**, i1 (%"class.blink::EventListener"*)*** %34, align 8
  %36 = getelementptr inbounds i1 (%"class.blink::EventListener"*)*, i1 (%"class.blink::EventListener"*)** %35, i64 10
  %37 = load i1 (%"class.blink::EventListener"*)*, i1 (%"class.blink::EventListener"*)** %36, align 8
  %38 = tail call zeroext i1 %37(%"class.blink::EventListener"* nonnull %26) #8
  br i1 %38, label %39, label %53

39:                                               ; preds = %33
  %40 = bitcast %"class.blink::EventListener"* %26 to %"class.blink::JSBasedEventListener"*
  %41 = bitcast %"class.blink::EventListener"* %26 to i1 (%"class.blink::JSBasedEventListener"*)***
  %42 = load i1 (%"class.blink::JSBasedEventListener"*)**, i1 (%"class.blink::JSBasedEventListener"*)*** %41, align 8
  %43 = getelementptr inbounds i1 (%"class.blink::JSBasedEventListener"*)*, i1 (%"class.blink::JSBasedEventListener"*)** %42, i64 16
  %44 = load i1 (%"class.blink::JSBasedEventListener"*)*, i1 (%"class.blink::JSBasedEventListener"*)** %43, align 8
  %45 = tail call zeroext i1 %44(%"class.blink::JSBasedEventListener"* nonnull %40) #8
  br i1 %45, label %46, label %53

46:                                               ; preds = %39
  %47 = bitcast %"class.blink::EventListener"* %26 to %"class.blink::JSEventHandler"*
  %48 = bitcast %"class.blink::EventListener"* %26 to %"class.v8::Value"* (%"class.blink::JSEventHandler"*, %"class.blink::EventTarget"*)***
  %49 = load %"class.v8::Value"* (%"class.blink::JSEventHandler"*, %"class.blink::EventTarget"*)**, %"class.v8::Value"* (%"class.blink::JSEventHandler"*, %"class.blink::EventTarget"*)*** %48, align 8
  %50 = getelementptr inbounds %"class.v8::Value"* (%"class.blink::JSEventHandler"*, %"class.blink::EventTarget"*)*, %"class.v8::Value"* (%"class.blink::JSEventHandler"*, %"class.blink::EventTarget"*)** %49, i64 12
  %51 = load %"class.v8::Value"* (%"class.blink::JSEventHandler"*, %"class.blink::EventTarget"*)*, %"class.v8::Value"* (%"class.blink::JSEventHandler"*, %"class.blink::EventTarget"*)** %50, align 8
  %52 = tail call %"class.v8::Value"* %51(%"class.blink::JSEventHandler"* nonnull %47, %"class.blink::EventTarget"* dereferenceable(16) %24) #8
  br label %56

53:                                               ; preds = %39, %33, %22
  %54 = add i64 %30, 176
  %55 = inttoptr i64 %54 to %"class.v8::Value"*
  br label %56

56:                                               ; preds = %46, %53
  %57 = phi %"class.v8::Value"* [ %55, %53 ], [ %52, %46 ]
  %58 = icmp eq %"class.v8::Value"* %57, null
  %59 = bitcast %"class.v8::Value"* %57 to i64*
  %60 = getelementptr inbounds i64, i64* %28, i64 2
  %61 = select i1 %58, i64* %60, i64* %59, !prof !3
  %62 = load i64, i64* %61, align 8
  store i64 %62, i64* %31, align 8
  ret void
}

; Function Attrs: nounwind ssp uwtable
define internal void @_ZN5blink12_GLOBAL__N_115v8_media_stream33OnremovetrackAttributeSetCallbackERKN2v820FunctionCallbackInfoINS2_5ValueEEE(%"class.v8::FunctionCallbackInfo"* nocapture readonly dereferenceable(24)) #0 {
  %2 = getelementptr inbounds %"class.v8::FunctionCallbackInfo", %"class.v8::FunctionCallbackInfo"* %0, i64 0, i32 2
  %3 = load i32, i32* %2, align 8
  %4 = icmp sgt i32 %3, 0
  br i1 %4, label %12, label %5

5:                                                ; preds = %1
  %6 = getelementptr inbounds %"class.v8::FunctionCallbackInfo", %"class.v8::FunctionCallbackInfo"* %0, i64 0, i32 0
  %7 = load i64*, i64** %6, align 8
  %8 = getelementptr inbounds i64, i64* %7, i64 1
  %9 = load i64, i64* %8, align 8
  %10 = add i64 %9, 160
  %11 = inttoptr i64 %10 to %"class.v8::Value"*
  br label %16

12:                                               ; preds = %1
  %13 = getelementptr inbounds %"class.v8::FunctionCallbackInfo", %"class.v8::FunctionCallbackInfo"* %0, i64 0, i32 1
  %14 = bitcast i64** %13 to %"class.v8::Value"**
  %15 = load %"class.v8::Value"*, %"class.v8::Value"** %14, align 8
  br label %16

16:                                               ; preds = %5, %12
  %17 = phi %"class.v8::Value"* [ %11, %5 ], [ %15, %12 ]
  %18 = tail call %"class.blink::JSEventHandler"* @_ZN5blink14JSEventHandler12CreateOrNullEN2v85LocalINS1_5ValueEEENS0_11HandlerTypeE(%"class.v8::Value"* %17, i32 0) #8
  %19 = getelementptr inbounds %"class.blink::JSEventHandler", %"class.blink::JSEventHandler"* %18, i64 0, i32 0, i32 0
  %20 = getelementptr inbounds %"class.v8::FunctionCallbackInfo", %"class.v8::FunctionCallbackInfo"* %0, i64 0, i32 1
  %21 = load i64*, i64** %20, align 8
  %22 = getelementptr inbounds i64, i64* %21, i64 -1
  %23 = load i64, i64* %22, align 8
  %24 = add i64 %23, -1
  %25 = inttoptr i64 %24 to i32*
  %26 = load i32, i32* %25, align 4
  %27 = and i64 %23, -4294967296
  %28 = zext i32 %26 to i64
  %29 = or i64 %27, %28
  %30 = add i64 %29, 7
  %31 = inttoptr i64 %30 to i16*
  %32 = load i16, i16* %31, align 2
  switch i16 %32, label %37 [
    i16 1057, label %33
    i16 1056, label %33
    i16 1040, label %33
  ]

33:                                               ; preds = %16, %16, %16
  %34 = add i64 %23, 19
  %35 = inttoptr i64 %34 to i8**
  %36 = load i8*, i8** %35, align 1
  br label %40

37:                                               ; preds = %16
  %38 = bitcast i64* %22 to %"class.v8::Object"*
  %39 = tail call i8* @_ZN2v86Object38SlowGetAlignedPointerFromInternalFieldEi(%"class.v8::Object"* %38, i32 1) #8
  br label %40

40:                                               ; preds = %33, %37
  %41 = phi i8* [ %36, %33 ], [ %39, %37 ]
  %42 = bitcast i8* %41 to %"class.blink::EventTarget"*
  %43 = load %"class.WTF::AtomicString"*, %"class.WTF::AtomicString"** @_ZN5blink16event_type_names12kRemovetrackE, align 8
  %44 = tail call zeroext i1 @_ZN5blink11EventTarget25SetAttributeEventListenerERKN3WTF12AtomicStringEPNS_13EventListenerE(%"class.blink::EventTarget"* %42, %"class.WTF::AtomicString"* dereferenceable(8) %43, %"class.blink::EventListener"* %19) #8
  ret void
}

; Function Attrs: nounwind ssp uwtable
define internal void @_ZN5blink12_GLOBAL__N_115v8_media_stream28OnactiveAttributeGetCallbackERKN2v820FunctionCallbackInfoINS2_5ValueEEE(%"class.v8::FunctionCallbackInfo"* nocapture readonly dereferenceable(24)) #0 {
  %2 = getelementptr inbounds %"class.v8::FunctionCallbackInfo", %"class.v8::FunctionCallbackInfo"* %0, i64 0, i32 1
  %3 = load i64*, i64** %2, align 8
  %4 = getelementptr inbounds i64, i64* %3, i64 -1
  %5 = load i64, i64* %4, align 8
  %6 = add i64 %5, -1
  %7 = inttoptr i64 %6 to i32*
  %8 = load i32, i32* %7, align 4
  %9 = and i64 %5, -4294967296
  %10 = zext i32 %8 to i64
  %11 = or i64 %9, %10
  %12 = add i64 %11, 7
  %13 = inttoptr i64 %12 to i16*
  %14 = load i16, i16* %13, align 2
  switch i16 %14, label %19 [
    i16 1057, label %15
    i16 1056, label %15
    i16 1040, label %15
  ]

15:                                               ; preds = %1, %1, %1
  %16 = add i64 %5, 19
  %17 = inttoptr i64 %16 to i8**
  %18 = load i8*, i8** %17, align 1
  br label %22

19:                                               ; preds = %1
  %20 = bitcast i64* %4 to %"class.v8::Object"*
  %21 = tail call i8* @_ZN2v86Object38SlowGetAlignedPointerFromInternalFieldEi(%"class.v8::Object"* %20, i32 1) #8
  br label %22

22:                                               ; preds = %15, %19
  %23 = phi i8* [ %18, %15 ], [ %21, %19 ]
  %24 = bitcast i8* %23 to %"class.blink::EventTarget"*
  %25 = load %"class.WTF::AtomicString"*, %"class.WTF::AtomicString"** @_ZN5blink16event_type_names7kActiveE, align 8
  %26 = tail call %"class.blink::EventListener"* @_ZN5blink11EventTarget25GetAttributeEventListenerERKN3WTF12AtomicStringE(%"class.blink::EventTarget"* %24, %"class.WTF::AtomicString"* dereferenceable(8) %25) #8
  %27 = getelementptr inbounds %"class.v8::FunctionCallbackInfo", %"class.v8::FunctionCallbackInfo"* %0, i64 0, i32 0
  %28 = load i64*, i64** %27, align 8
  %29 = getelementptr inbounds i64, i64* %28, i64 1
  %30 = load i64, i64* %29, align 8
  %31 = getelementptr inbounds i64, i64* %28, i64 3
  %32 = icmp eq %"class.blink::EventListener"* %26, null
  br i1 %32, label %53, label %33

33:                                               ; preds = %22
  %34 = bitcast %"class.blink::EventListener"* %26 to i1 (%"class.blink::EventListener"*)***
  %35 = load i1 (%"class.blink::EventListener"*)**, i1 (%"class.blink::EventListener"*)*** %34, align 8
  %36 = getelementptr inbounds i1 (%"class.blink::EventListener"*)*, i1 (%"class.blink::EventListener"*)** %35, i64 10
  %37 = load i1 (%"class.blink::EventListener"*)*, i1 (%"class.blink::EventListener"*)** %36, align 8
  %38 = tail call zeroext i1 %37(%"class.blink::EventListener"* nonnull %26) #8
  br i1 %38, label %39, label %53

39:                                               ; preds = %33
  %40 = bitcast %"class.blink::EventListener"* %26 to %"class.blink::JSBasedEventListener"*
  %41 = bitcast %"class.blink::EventListener"* %26 to i1 (%"class.blink::JSBasedEventListener"*)***
  %42 = load i1 (%"class.blink::JSBasedEventListener"*)**, i1 (%"class.blink::JSBasedEventListener"*)*** %41, align 8
  %43 = getelementptr inbounds i1 (%"class.blink::JSBasedEventListener"*)*, i1 (%"class.blink::JSBasedEventListener"*)** %42, i64 16
  %44 = load i1 (%"class.blink::JSBasedEventListener"*)*, i1 (%"class.blink::JSBasedEventListener"*)** %43, align 8
  %45 = tail call zeroext i1 %44(%"class.blink::JSBasedEventListener"* nonnull %40) #8
  br i1 %45, label %46, label %53

46:                                               ; preds = %39
  %47 = bitcast %"class.blink::EventListener"* %26 to %"class.blink::JSEventHandler"*
  %48 = bitcast %"class.blink::EventListener"* %26 to %"class.v8::Value"* (%"class.blink::JSEventHandler"*, %"class.blink::EventTarget"*)***
  %49 = load %"class.v8::Value"* (%"class.blink::JSEventHandler"*, %"class.blink::EventTarget"*)**, %"class.v8::Value"* (%"class.blink::JSEventHandler"*, %"class.blink::EventTarget"*)*** %48, align 8
  %50 = getelementptr inbounds %"class.v8::Value"* (%"class.blink::JSEventHandler"*, %"class.blink::EventTarget"*)*, %"class.v8::Value"* (%"class.blink::JSEventHandler"*, %"class.blink::EventTarget"*)** %49, i64 12
  %51 = load %"class.v8::Value"* (%"class.blink::JSEventHandler"*, %"class.blink::EventTarget"*)*, %"class.v8::Value"* (%"class.blink::JSEventHandler"*, %"class.blink::EventTarget"*)** %50, align 8
  %52 = tail call %"class.v8::Value"* %51(%"class.blink::JSEventHandler"* nonnull %47, %"class.blink::EventTarget"* dereferenceable(16) %24) #8
  br label %56

53:                                               ; preds = %39, %33, %22
  %54 = add i64 %30, 176
  %55 = inttoptr i64 %54 to %"class.v8::Value"*
  br label %56

56:                                               ; preds = %46, %53
  %57 = phi %"class.v8::Value"* [ %55, %53 ], [ %52, %46 ]
  %58 = icmp eq %"class.v8::Value"* %57, null
  %59 = bitcast %"class.v8::Value"* %57 to i64*
  %60 = getelementptr inbounds i64, i64* %28, i64 2
  %61 = select i1 %58, i64* %60, i64* %59, !prof !3
  %62 = load i64, i64* %61, align 8
  store i64 %62, i64* %31, align 8
  ret void
}

; Function Attrs: nounwind ssp uwtable
define internal void @_ZN5blink12_GLOBAL__N_115v8_media_stream28OnactiveAttributeSetCallbackERKN2v820FunctionCallbackInfoINS2_5ValueEEE(%"class.v8::FunctionCallbackInfo"* nocapture readonly dereferenceable(24)) #0 {
  %2 = getelementptr inbounds %"class.v8::FunctionCallbackInfo", %"class.v8::FunctionCallbackInfo"* %0, i64 0, i32 2
  %3 = load i32, i32* %2, align 8
  %4 = icmp sgt i32 %3, 0
  br i1 %4, label %12, label %5

5:                                                ; preds = %1
  %6 = getelementptr inbounds %"class.v8::FunctionCallbackInfo", %"class.v8::FunctionCallbackInfo"* %0, i64 0, i32 0
  %7 = load i64*, i64** %6, align 8
  %8 = getelementptr inbounds i64, i64* %7, i64 1
  %9 = load i64, i64* %8, align 8
  %10 = add i64 %9, 160
  %11 = inttoptr i64 %10 to %"class.v8::Value"*
  br label %16

12:                                               ; preds = %1
  %13 = getelementptr inbounds %"class.v8::FunctionCallbackInfo", %"class.v8::FunctionCallbackInfo"* %0, i64 0, i32 1
  %14 = bitcast i64** %13 to %"class.v8::Value"**
  %15 = load %"class.v8::Value"*, %"class.v8::Value"** %14, align 8
  br label %16

16:                                               ; preds = %5, %12
  %17 = phi %"class.v8::Value"* [ %11, %5 ], [ %15, %12 ]
  %18 = tail call %"class.blink::JSEventHandler"* @_ZN5blink14JSEventHandler12CreateOrNullEN2v85LocalINS1_5ValueEEENS0_11HandlerTypeE(%"class.v8::Value"* %17, i32 0) #8
  %19 = getelementptr inbounds %"class.blink::JSEventHandler", %"class.blink::JSEventHandler"* %18, i64 0, i32 0, i32 0
  %20 = getelementptr inbounds %"class.v8::FunctionCallbackInfo", %"class.v8::FunctionCallbackInfo"* %0, i64 0, i32 1
  %21 = load i64*, i64** %20, align 8
  %22 = getelementptr inbounds i64, i64* %21, i64 -1
  %23 = load i64, i64* %22, align 8
  %24 = add i64 %23, -1
  %25 = inttoptr i64 %24 to i32*
  %26 = load i32, i32* %25, align 4
  %27 = and i64 %23, -4294967296
  %28 = zext i32 %26 to i64
  %29 = or i64 %27, %28
  %30 = add i64 %29, 7
  %31 = inttoptr i64 %30 to i16*
  %32 = load i16, i16* %31, align 2
  switch i16 %32, label %37 [
    i16 1057, label %33
    i16 1056, label %33
    i16 1040, label %33
  ]

33:                                               ; preds = %16, %16, %16
  %34 = add i64 %23, 19
  %35 = inttoptr i64 %34 to i8**
  %36 = load i8*, i8** %35, align 1
  br label %40

37:                                               ; preds = %16
  %38 = bitcast i64* %22 to %"class.v8::Object"*
  %39 = tail call i8* @_ZN2v86Object38SlowGetAlignedPointerFromInternalFieldEi(%"class.v8::Object"* %38, i32 1) #8
  br label %40

40:                                               ; preds = %33, %37
  %41 = phi i8* [ %36, %33 ], [ %39, %37 ]
  %42 = bitcast i8* %41 to %"class.blink::EventTarget"*
  %43 = load %"class.WTF::AtomicString"*, %"class.WTF::AtomicString"** @_ZN5blink16event_type_names7kActiveE, align 8
  %44 = tail call zeroext i1 @_ZN5blink11EventTarget25SetAttributeEventListenerERKN3WTF12AtomicStringEPNS_13EventListenerE(%"class.blink::EventTarget"* %42, %"class.WTF::AtomicString"* dereferenceable(8) %43, %"class.blink::EventListener"* %19) #8
  ret void
}

; Function Attrs: nounwind ssp uwtable
define internal void @_ZN5blink12_GLOBAL__N_115v8_media_stream30OninactiveAttributeGetCallbackERKN2v820FunctionCallbackInfoINS2_5ValueEEE(%"class.v8::FunctionCallbackInfo"* nocapture readonly dereferenceable(24)) #0 {
  %2 = getelementptr inbounds %"class.v8::FunctionCallbackInfo", %"class.v8::FunctionCallbackInfo"* %0, i64 0, i32 1
  %3 = load i64*, i64** %2, align 8
  %4 = getelementptr inbounds i64, i64* %3, i64 -1
  %5 = load i64, i64* %4, align 8
  %6 = add i64 %5, -1
  %7 = inttoptr i64 %6 to i32*
  %8 = load i32, i32* %7, align 4
  %9 = and i64 %5, -4294967296
  %10 = zext i32 %8 to i64
  %11 = or i64 %9, %10
  %12 = add i64 %11, 7
  %13 = inttoptr i64 %12 to i16*
  %14 = load i16, i16* %13, align 2
  switch i16 %14, label %19 [
    i16 1057, label %15
    i16 1056, label %15
    i16 1040, label %15
  ]

15:                                               ; preds = %1, %1, %1
  %16 = add i64 %5, 19
  %17 = inttoptr i64 %16 to i8**
  %18 = load i8*, i8** %17, align 1
  br label %22

19:                                               ; preds = %1
  %20 = bitcast i64* %4 to %"class.v8::Object"*
  %21 = tail call i8* @_ZN2v86Object38SlowGetAlignedPointerFromInternalFieldEi(%"class.v8::Object"* %20, i32 1) #8
  br label %22

22:                                               ; preds = %15, %19
  %23 = phi i8* [ %18, %15 ], [ %21, %19 ]
  %24 = bitcast i8* %23 to %"class.blink::EventTarget"*
  %25 = load %"class.WTF::AtomicString"*, %"class.WTF::AtomicString"** @_ZN5blink16event_type_names9kInactiveE, align 8
  %26 = tail call %"class.blink::EventListener"* @_ZN5blink11EventTarget25GetAttributeEventListenerERKN3WTF12AtomicStringE(%"class.blink::EventTarget"* %24, %"class.WTF::AtomicString"* dereferenceable(8) %25) #8
  %27 = getelementptr inbounds %"class.v8::FunctionCallbackInfo", %"class.v8::FunctionCallbackInfo"* %0, i64 0, i32 0
  %28 = load i64*, i64** %27, align 8
  %29 = getelementptr inbounds i64, i64* %28, i64 1
  %30 = load i64, i64* %29, align 8
  %31 = getelementptr inbounds i64, i64* %28, i64 3
  %32 = icmp eq %"class.blink::EventListener"* %26, null
  br i1 %32, label %53, label %33

33:                                               ; preds = %22
  %34 = bitcast %"class.blink::EventListener"* %26 to i1 (%"class.blink::EventListener"*)***
  %35 = load i1 (%"class.blink::EventListener"*)**, i1 (%"class.blink::EventListener"*)*** %34, align 8
  %36 = getelementptr inbounds i1 (%"class.blink::EventListener"*)*, i1 (%"class.blink::EventListener"*)** %35, i64 10
  %37 = load i1 (%"class.blink::EventListener"*)*, i1 (%"class.blink::EventListener"*)** %36, align 8
  %38 = tail call zeroext i1 %37(%"class.blink::EventListener"* nonnull %26) #8
  br i1 %38, label %39, label %53

39:                                               ; preds = %33
  %40 = bitcast %"class.blink::EventListener"* %26 to %"class.blink::JSBasedEventListener"*
  %41 = bitcast %"class.blink::EventListener"* %26 to i1 (%"class.blink::JSBasedEventListener"*)***
  %42 = load i1 (%"class.blink::JSBasedEventListener"*)**, i1 (%"class.blink::JSBasedEventListener"*)*** %41, align 8
  %43 = getelementptr inbounds i1 (%"class.blink::JSBasedEventListener"*)*, i1 (%"class.blink::JSBasedEventListener"*)** %42, i64 16
  %44 = load i1 (%"class.blink::JSBasedEventListener"*)*, i1 (%"class.blink::JSBasedEventListener"*)** %43, align 8
  %45 = tail call zeroext i1 %44(%"class.blink::JSBasedEventListener"* nonnull %40) #8
  br i1 %45, label %46, label %53

46:                                               ; preds = %39
  %47 = bitcast %"class.blink::EventListener"* %26 to %"class.blink::JSEventHandler"*
  %48 = bitcast %"class.blink::EventListener"* %26 to %"class.v8::Value"* (%"class.blink::JSEventHandler"*, %"class.blink::EventTarget"*)***
  %49 = load %"class.v8::Value"* (%"class.blink::JSEventHandler"*, %"class.blink::EventTarget"*)**, %"class.v8::Value"* (%"class.blink::JSEventHandler"*, %"class.blink::EventTarget"*)*** %48, align 8
  %50 = getelementptr inbounds %"class.v8::Value"* (%"class.blink::JSEventHandler"*, %"class.blink::EventTarget"*)*, %"class.v8::Value"* (%"class.blink::JSEventHandler"*, %"class.blink::EventTarget"*)** %49, i64 12
  %51 = load %"class.v8::Value"* (%"class.blink::JSEventHandler"*, %"class.blink::EventTarget"*)*, %"class.v8::Value"* (%"class.blink::JSEventHandler"*, %"class.blink::EventTarget"*)** %50, align 8
  %52 = tail call %"class.v8::Value"* %51(%"class.blink::JSEventHandler"* nonnull %47, %"class.blink::EventTarget"* dereferenceable(16) %24) #8
  br label %56

53:                                               ; preds = %39, %33, %22
  %54 = add i64 %30, 176
  %55 = inttoptr i64 %54 to %"class.v8::Value"*
  br label %56

56:                                               ; preds = %46, %53
  %57 = phi %"class.v8::Value"* [ %55, %53 ], [ %52, %46 ]
  %58 = icmp eq %"class.v8::Value"* %57, null
  %59 = bitcast %"class.v8::Value"* %57 to i64*
  %60 = getelementptr inbounds i64, i64* %28, i64 2
  %61 = select i1 %58, i64* %60, i64* %59, !prof !3
  %62 = load i64, i64* %61, align 8
  store i64 %62, i64* %31, align 8
  ret void
}

; Function Attrs: nounwind ssp uwtable
define internal void @_ZN5blink12_GLOBAL__N_115v8_media_stream30OninactiveAttributeSetCallbackERKN2v820FunctionCallbackInfoINS2_5ValueEEE(%"class.v8::FunctionCallbackInfo"* nocapture readonly dereferenceable(24)) #0 {
  %2 = getelementptr inbounds %"class.v8::FunctionCallbackInfo", %"class.v8::FunctionCallbackInfo"* %0, i64 0, i32 2
  %3 = load i32, i32* %2, align 8
  %4 = icmp sgt i32 %3, 0
  br i1 %4, label %12, label %5

5:                                                ; preds = %1
  %6 = getelementptr inbounds %"class.v8::FunctionCallbackInfo", %"class.v8::FunctionCallbackInfo"* %0, i64 0, i32 0
  %7 = load i64*, i64** %6, align 8
  %8 = getelementptr inbounds i64, i64* %7, i64 1
  %9 = load i64, i64* %8, align 8
  %10 = add i64 %9, 160
  %11 = inttoptr i64 %10 to %"class.v8::Value"*
  br label %16

12:                                               ; preds = %1
  %13 = getelementptr inbounds %"class.v8::FunctionCallbackInfo", %"class.v8::FunctionCallbackInfo"* %0, i64 0, i32 1
  %14 = bitcast i64** %13 to %"class.v8::Value"**
  %15 = load %"class.v8::Value"*, %"class.v8::Value"** %14, align 8
  br label %16

16:                                               ; preds = %5, %12
  %17 = phi %"class.v8::Value"* [ %11, %5 ], [ %15, %12 ]
  %18 = tail call %"class.blink::JSEventHandler"* @_ZN5blink14JSEventHandler12CreateOrNullEN2v85LocalINS1_5ValueEEENS0_11HandlerTypeE(%"class.v8::Value"* %17, i32 0) #8
  %19 = getelementptr inbounds %"class.blink::JSEventHandler", %"class.blink::JSEventHandler"* %18, i64 0, i32 0, i32 0
  %20 = getelementptr inbounds %"class.v8::FunctionCallbackInfo", %"class.v8::FunctionCallbackInfo"* %0, i64 0, i32 1
  %21 = load i64*, i64** %20, align 8
  %22 = getelementptr inbounds i64, i64* %21, i64 -1
  %23 = load i64, i64* %22, align 8
  %24 = add i64 %23, -1
  %25 = inttoptr i64 %24 to i32*
  %26 = load i32, i32* %25, align 4
  %27 = and i64 %23, -4294967296
  %28 = zext i32 %26 to i64
  %29 = or i64 %27, %28
  %30 = add i64 %29, 7
  %31 = inttoptr i64 %30 to i16*
  %32 = load i16, i16* %31, align 2
  switch i16 %32, label %37 [
    i16 1057, label %33
    i16 1056, label %33
    i16 1040, label %33
  ]

33:                                               ; preds = %16, %16, %16
  %34 = add i64 %23, 19
  %35 = inttoptr i64 %34 to i8**
  %36 = load i8*, i8** %35, align 1
  br label %40

37:                                               ; preds = %16
  %38 = bitcast i64* %22 to %"class.v8::Object"*
  %39 = tail call i8* @_ZN2v86Object38SlowGetAlignedPointerFromInternalFieldEi(%"class.v8::Object"* %38, i32 1) #8
  br label %40

40:                                               ; preds = %33, %37
  %41 = phi i8* [ %36, %33 ], [ %39, %37 ]
  %42 = bitcast i8* %41 to %"class.blink::EventTarget"*
  %43 = load %"class.WTF::AtomicString"*, %"class.WTF::AtomicString"** @_ZN5blink16event_type_names9kInactiveE, align 8
  %44 = tail call zeroext i1 @_ZN5blink11EventTarget25SetAttributeEventListenerERKN3WTF12AtomicStringEPNS_13EventListenerE(%"class.blink::EventTarget"* %42, %"class.WTF::AtomicString"* dereferenceable(8) %43, %"class.blink::EventListener"* %19) #8
  ret void
}

declare void @_ZN5blink8bindings18IDLMemberInstaller17InstallAttributesEPN2v87IsolateERKNS_15DOMWrapperWorldENS2_5LocalINS2_8TemplateEEESA_SA_NS8_INS2_9SignatureEEEN4base4spanIKNS1_15AttributeConfigELm18446744073709551615EEE(%"class.v8::Isolate"*, %"class.blink::DOMWrapperWorld"* dereferenceable(32), %"class.v8::Template"*, %"class.v8::Template"*, %"class.v8::Template"*, %"class.v8::Signature"*, %"class.base::span"* byval(%"class.base::span") align 8) local_unnamed_addr #2

; Function Attrs: nounwind ssp uwtable
define internal void @_ZN5blink12_GLOBAL__N_115v8_media_stream25AddTrackOperationCallbackERKN2v820FunctionCallbackInfoINS2_5ValueEEE(%"class.v8::FunctionCallbackInfo"* nocapture readonly dereferenceable(24)) #0 {
  %2 = alloca %"class.blink::ExceptionState", align 8
  %3 = alloca %"class.WTF::String", align 8
  %4 = getelementptr inbounds %"class.v8::FunctionCallbackInfo", %"class.v8::FunctionCallbackInfo"* %0, i64 0, i32 0
  %5 = load i64*, i64** %4, align 8
  %6 = getelementptr inbounds i64, i64* %5, i64 1
  %7 = bitcast i64* %6 to %"class.v8::Isolate"**
  %8 = load %"class.v8::Isolate"*, %"class.v8::Isolate"** %7, align 8
  %9 = bitcast %"class.blink::ExceptionState"* %2 to i8*
  call void @llvm.lifetime.start.p0i8(i64 72, i8* nonnull %9) #8
  call void @llvm.memset.p0i8.i64(i8* nonnull align 8 %9, i8 -86, i64 56, i1 false)
  %10 = getelementptr inbounds %"class.blink::ExceptionState", %"class.blink::ExceptionState"* %2, i64 0, i32 0
  store i32 (...)** bitcast (i8** getelementptr inbounds ({ [9 x i8*] }, { [9 x i8*] }* @_ZTVN5blink14ExceptionStateE, i64 0, inrange i32 0, i64 2) to i32 (...)**), i32 (...)*** %10, align 8
  %11 = getelementptr inbounds %"class.blink::ExceptionState", %"class.blink::ExceptionState"* %2, i64 0, i32 1, i32 0
  store i16 6, i16* %11, align 8
  %12 = getelementptr inbounds %"class.blink::ExceptionState", %"class.blink::ExceptionState"* %2, i64 0, i32 1, i32 1
  store i16 0, i16* %12, align 2
  %13 = getelementptr inbounds %"class.blink::ExceptionState", %"class.blink::ExceptionState"* %2, i64 0, i32 1, i32 2
  %14 = bitcast i8** %13 to <2 x i8*>*
  store <2 x i8*> <i8* getelementptr inbounds ([12 x i8], [12 x i8]* @.str, i64 0, i64 0), i8* getelementptr inbounds ([9 x i8], [9 x i8]* @.str.7, i64 0, i64 0)>, <2 x i8*>* %14, align 8
  %15 = getelementptr inbounds %"class.blink::ExceptionState", %"class.blink::ExceptionState"* %2, i64 0, i32 2
  store %"class.blink::ExceptionState::ContextScope"* null, %"class.blink::ExceptionState::ContextScope"** %15, align 8
  %16 = getelementptr inbounds %"class.blink::ExceptionState", %"class.blink::ExceptionState"* %2, i64 0, i32 3
  store %"class.v8::Isolate"* %8, %"class.v8::Isolate"** %16, align 8
  %17 = getelementptr inbounds %"class.blink::ExceptionState", %"class.blink::ExceptionState"* %2, i64 0, i32 4
  store i32 0, i32* %17, align 8
  %18 = getelementptr inbounds %"class.blink::ExceptionState", %"class.blink::ExceptionState"* %2, i64 0, i32 5, i32 0, i32 0
  %19 = bitcast %"class.WTF::StringImpl"** %18 to i8*
  call void @llvm.memset.p0i8.i64(i8* align 8 %19, i8 0, i64 16, i1 false) #8
  %20 = getelementptr inbounds %"class.v8::FunctionCallbackInfo", %"class.v8::FunctionCallbackInfo"* %0, i64 0, i32 2
  %21 = load i32, i32* %20, align 8
  %22 = icmp slt i32 %21, 1
  br i1 %22, label %23, label %43, !prof !3

23:                                               ; preds = %1
  %24 = bitcast %"class.WTF::String"* %3 to i8*
  call void @llvm.lifetime.start.p0i8(i64 8, i8* nonnull %24) #8
  %25 = tail call %"class.WTF::StringImpl"* @_ZN5blink17ExceptionMessages18NotEnoughArgumentsEjj(i32 1, i32 %21) #8
  %26 = getelementptr inbounds %"class.WTF::String", %"class.WTF::String"* %3, i64 0, i32 0, i32 0
  store %"class.WTF::StringImpl"* %25, %"class.WTF::StringImpl"** %26, align 8
  call void @_ZN5blink14ExceptionState14ThrowTypeErrorERKN3WTF6StringE(%"class.blink::ExceptionState"* nonnull %2, %"class.WTF::String"* nonnull dereferenceable(8) %3) #8
  %27 = load %"class.WTF::StringImpl"*, %"class.WTF::StringImpl"** %26, align 8
  %28 = icmp eq %"class.WTF::StringImpl"* %27, null
  br i1 %28, label %42, label %29

29:                                               ; preds = %23
  %30 = getelementptr inbounds %"class.WTF::StringImpl", %"class.WTF::StringImpl"* %27, i64 0, i32 2, i32 0, i32 0, i32 0, i32 0, i32 0
  %31 = load atomic i32, i32* %30 monotonic, align 4
  %32 = and i32 %31, 2
  %33 = icmp eq i32 %32, 0
  %34 = getelementptr inbounds %"class.WTF::StringImpl", %"class.WTF::StringImpl"* %27, i64 0, i32 0
  %35 = load i32, i32* %34, align 4
  br i1 %33, label %36, label %38

36:                                               ; preds = %29
  %37 = add i32 %35, -1
  store i32 %37, i32* %34, align 4
  br label %38

38:                                               ; preds = %36, %29
  %39 = phi i32 [ %37, %36 ], [ %35, %29 ]
  %40 = icmp eq i32 %39, 0
  br i1 %40, label %41, label %42

41:                                               ; preds = %38
  call void @_ZNK3WTF10StringImpl18DestroyIfNotStaticEv(%"class.WTF::StringImpl"* nonnull %27) #8
  br label %42

42:                                               ; preds = %23, %38, %41
  call void @llvm.lifetime.end.p0i8(i64 8, i8* nonnull %24) #8
  br label %113

43:                                               ; preds = %1
  %44 = getelementptr inbounds %"class.v8::FunctionCallbackInfo", %"class.v8::FunctionCallbackInfo"* %0, i64 0, i32 1
  %45 = load i64*, i64** %44, align 8
  %46 = getelementptr inbounds i64, i64* %45, i64 -1
  %47 = load i64, i64* %46, align 8
  %48 = add i64 %47, -1
  %49 = inttoptr i64 %48 to i32*
  %50 = load i32, i32* %49, align 4
  %51 = and i64 %47, -4294967296
  %52 = zext i32 %50 to i64
  %53 = or i64 %51, %52
  %54 = add i64 %53, 7
  %55 = inttoptr i64 %54 to i16*
  %56 = load i16, i16* %55, align 2
  switch i16 %56, label %61 [
    i16 1057, label %57
    i16 1056, label %57
    i16 1040, label %57
  ]

57:                                               ; preds = %43, %43, %43
  %58 = add i64 %47, 19
  %59 = inttoptr i64 %58 to %"class.blink::MediaStream"**
  %60 = load %"class.blink::MediaStream"*, %"class.blink::MediaStream"** %59, align 1
  br label %73

61:                                               ; preds = %43
  %62 = bitcast i64* %46 to %"class.v8::Object"*
  %63 = tail call i8* @_ZN2v86Object38SlowGetAlignedPointerFromInternalFieldEi(%"class.v8::Object"* %62, i32 1) #8
  %64 = load i32, i32* %20, align 8
  %65 = bitcast i8* %63 to %"class.blink::MediaStream"*
  %66 = icmp sgt i32 %64, 0
  br i1 %66, label %73, label %67

67:                                               ; preds = %61
  %68 = load i64*, i64** %4, align 8
  %69 = getelementptr inbounds i64, i64* %68, i64 1
  %70 = load i64, i64* %69, align 8
  %71 = add i64 %70, 160
  %72 = inttoptr i64 %71 to %"class.v8::Value"*
  br label %77

73:                                               ; preds = %57, %61
  %74 = phi %"class.blink::MediaStream"* [ %60, %57 ], [ %65, %61 ]
  %75 = bitcast i64** %44 to %"class.v8::Value"**
  %76 = load %"class.v8::Value"*, %"class.v8::Value"** %75, align 8
  br label %77

77:                                               ; preds = %67, %73
  %78 = phi %"class.blink::MediaStream"* [ %65, %67 ], [ %74, %73 ]
  %79 = phi %"class.v8::Value"* [ %72, %67 ], [ %76, %73 ]
  %80 = load %"struct.blink::WrapperTypeInfo"*, %"struct.blink::WrapperTypeInfo"** @_ZN5blink16MediaStreamTrack18wrapper_type_info_E, align 8
  %81 = ptrtoint %"class.v8::Isolate"* %8 to i64
  %82 = add i64 %81, 8
  %83 = inttoptr i64 %82 to %"class.blink::V8PerIsolateData"**
  %84 = load %"class.blink::V8PerIsolateData"*, %"class.blink::V8PerIsolateData"** %83, align 8
  %85 = tail call zeroext i1 @_ZN5blink16V8PerIsolateData11HasInstanceEPKNS_15WrapperTypeInfoEN2v85LocalINS4_5ValueEEE(%"class.blink::V8PerIsolateData"* %84, %"struct.blink::WrapperTypeInfo"* %80, %"class.v8::Value"* %79) #8
  br i1 %85, label %86, label %108

86:                                               ; preds = %77
  %87 = bitcast %"class.v8::Value"* %79 to i64*
  %88 = load i64, i64* %87, align 8
  %89 = add i64 %88, -1
  %90 = inttoptr i64 %89 to i32*
  %91 = load i32, i32* %90, align 4
  %92 = and i64 %88, -4294967296
  %93 = zext i32 %91 to i64
  %94 = or i64 %92, %93
  %95 = add i64 %94, 7
  %96 = inttoptr i64 %95 to i16*
  %97 = load i16, i16* %96, align 2
  switch i16 %97, label %102 [
    i16 1057, label %98
    i16 1056, label %98
    i16 1040, label %98
  ]

98:                                               ; preds = %86, %86, %86
  %99 = add i64 %88, 19
  %100 = inttoptr i64 %99 to i8**
  %101 = load i8*, i8** %100, align 1
  br label %105

102:                                              ; preds = %86
  %103 = bitcast %"class.v8::Value"* %79 to %"class.v8::Object"*
  %104 = tail call i8* @_ZN2v86Object38SlowGetAlignedPointerFromInternalFieldEi(%"class.v8::Object"* %103, i32 1) #8
  br label %105

105:                                              ; preds = %98, %102
  %106 = phi i8* [ %101, %98 ], [ %104, %102 ]
  %107 = bitcast i8* %106 to %"class.blink::MediaStreamTrack"*
  br label %111

108:                                              ; preds = %77
  call void @_ZN5blink8bindings35NativeValueTraitsInterfaceNotOfTypeEPKNS_15WrapperTypeInfoEiRNS_14ExceptionStateE(%"struct.blink::WrapperTypeInfo"* %80, i32 0, %"class.blink::ExceptionState"* nonnull dereferenceable(72) %2) #8
  %109 = load i32, i32* %17, align 8
  %110 = icmp eq i32 %109, 0
  br i1 %110, label %111, label %113

111:                                              ; preds = %105, %108
  %112 = phi %"class.blink::MediaStreamTrack"* [ %107, %105 ], [ null, %108 ]
  call void @_ZN5blink11MediaStream8addTrackEPNS_16MediaStreamTrackERNS_14ExceptionStateE(%"class.blink::MediaStream"* %78, %"class.blink::MediaStreamTrack"* %112, %"class.blink::ExceptionState"* nonnull dereferenceable(72) %2) #8
  br label %113

113:                                              ; preds = %108, %111, %42
  store i32 (...)** bitcast (i8** getelementptr inbounds ({ [9 x i8*] }, { [9 x i8*] }* @_ZTVN5blink14ExceptionStateE, i64 0, inrange i32 0, i64 2) to i32 (...)**), i32 (...)*** %10, align 8
  %114 = getelementptr inbounds %"class.blink::ExceptionState", %"class.blink::ExceptionState"* %2, i64 0, i32 6, i32 0, i32 0, i32 0, i32 0
  %115 = load i64*, i64** %114, align 8
  %116 = icmp eq i64* %115, null
  br i1 %116, label %126, label %117

117:                                              ; preds = %113
  %118 = load %"class.v8::Isolate"*, %"class.v8::Isolate"** %16, align 8
  %119 = bitcast %"class.v8::Isolate"* %118 to %"class.v8::internal::Isolate"*
  %120 = load i64, i64* %115, align 8
  %121 = call i64* @_ZN2v811HandleScope12CreateHandleEPNS_8internal7IsolateEm(%"class.v8::internal::Isolate"* %119, i64 %120) #8
  %122 = call zeroext i1 @_ZN2v87Isolate22IsExecutionTerminatingEv(%"class.v8::Isolate"* %118) #8
  br i1 %122, label %126, label %123

123:                                              ; preds = %117
  %124 = bitcast i64* %121 to %"class.v8::Value"*
  %125 = call %"class.v8::Value"* @_ZN2v87Isolate14ThrowExceptionENS_5LocalINS_5ValueEEE(%"class.v8::Isolate"* %118, %"class.v8::Value"* %124) #8
  br label %126

126:                                              ; preds = %123, %117, %113
  %127 = load %"class.WTF::StringImpl"*, %"class.WTF::StringImpl"** %18, align 8
  %128 = icmp eq %"class.WTF::StringImpl"* %127, null
  br i1 %128, label %142, label %129

129:                                              ; preds = %126
  %130 = getelementptr inbounds %"class.WTF::StringImpl", %"class.WTF::StringImpl"* %127, i64 0, i32 2, i32 0, i32 0, i32 0, i32 0, i32 0
  %131 = load atomic i32, i32* %130 monotonic, align 4
  %132 = and i32 %131, 2
  %133 = icmp eq i32 %132, 0
  %134 = getelementptr inbounds %"class.WTF::StringImpl", %"class.WTF::StringImpl"* %127, i64 0, i32 0
  %135 = load i32, i32* %134, align 4
  br i1 %133, label %136, label %138

136:                                              ; preds = %129
  %137 = add i32 %135, -1
  store i32 %137, i32* %134, align 4
  br label %138

138:                                              ; preds = %136, %129
  %139 = phi i32 [ %137, %136 ], [ %135, %129 ]
  %140 = icmp eq i32 %139, 0
  br i1 %140, label %141, label %142

141:                                              ; preds = %138
  call void @_ZNK3WTF10StringImpl18DestroyIfNotStaticEv(%"class.WTF::StringImpl"* nonnull %127) #8
  br label %142

142:                                              ; preds = %126, %138, %141
  call void @llvm.lifetime.end.p0i8(i64 72, i8* nonnull %9) #8
  ret void
}

; Function Attrs: nounwind ssp uwtable
define internal void @_ZN5blink12_GLOBAL__N_115v8_media_stream22CloneOperationCallbackERKN2v820FunctionCallbackInfoINS2_5ValueEEE(%"class.v8::FunctionCallbackInfo"* nocapture readonly dereferenceable(24)) #0 {
  %2 = getelementptr inbounds %"class.v8::FunctionCallbackInfo", %"class.v8::FunctionCallbackInfo"* %0, i64 0, i32 1
  %3 = load i64*, i64** %2, align 8
  %4 = getelementptr inbounds i64, i64* %3, i64 -1
  %5 = bitcast i64* %4 to %"class.v8::Object"*
  %6 = load i64, i64* %4, align 8
  %7 = add i64 %6, -1
  %8 = inttoptr i64 %7 to i32*
  %9 = load i32, i32* %8, align 4
  %10 = and i64 %6, -4294967296
  %11 = zext i32 %9 to i64
  %12 = or i64 %10, %11
  %13 = add i64 %12, 7
  %14 = inttoptr i64 %13 to i16*
  %15 = load i16, i16* %14, align 2
  switch i16 %15, label %20 [
    i16 1057, label %16
    i16 1056, label %16
    i16 1040, label %16
  ]

16:                                               ; preds = %1, %1, %1
  %17 = add i64 %6, 19
  %18 = inttoptr i64 %17 to i8**
  %19 = load i8*, i8** %18, align 1
  br label %22

20:                                               ; preds = %1
  %21 = tail call i8* @_ZN2v86Object38SlowGetAlignedPointerFromInternalFieldEi(%"class.v8::Object"* %5, i32 1) #8
  br label %22

22:                                               ; preds = %16, %20
  %23 = phi i8* [ %19, %16 ], [ %21, %20 ]
  %24 = bitcast i8* %23 to %"class.blink::MediaStream"*
  %25 = tail call %"class.v8::Context"* @_ZN2v86Object15CreationContextEv(%"class.v8::Object"* %5) #8
  %26 = tail call %"class.blink::ScriptState"* @_ZN5blink11ScriptState4FromEN2v85LocalINS1_7ContextEEE(%"class.v8::Context"* %25)
  %27 = tail call %"class.blink::MediaStream"* @_ZN5blink11MediaStream5cloneEPNS_11ScriptStateE(%"class.blink::MediaStream"* %24, %"class.blink::ScriptState"* %26) #8
  %28 = getelementptr inbounds %"class.blink::MediaStream", %"class.blink::MediaStream"* %27, i64 0, i32 0, i32 0, i32 0
  %29 = icmp eq %"class.blink::MediaStream"* %27, null
  %30 = getelementptr inbounds %"class.v8::FunctionCallbackInfo", %"class.v8::FunctionCallbackInfo"* %0, i64 0, i32 0
  %31 = load i64*, i64** %30, align 8
  %32 = getelementptr inbounds i64, i64* %31, i64 3
  br i1 %29, label %33, label %39, !prof !3

33:                                               ; preds = %22
  %34 = getelementptr inbounds i64, i64* %31, i64 1
  %35 = load i64, i64* %34, align 8
  %36 = add i64 %35, 176
  %37 = inttoptr i64 %36 to i64*
  %38 = load i64, i64* %37, align 8
  store i64 %38, i64* %32, align 8
  br label %62

39:                                               ; preds = %22
  %40 = bitcast i8* %23 to %"class.blink::ScriptWrappable"*
  %41 = load i64*, i64** %2, align 8
  %42 = getelementptr inbounds i64, i64* %41, i64 -1
  %43 = bitcast i64* %42 to %"class.v8::Object"*
  %44 = tail call zeroext i1 @_ZN5blink12DOMDataStore18SetReturnValueFastEN2v811ReturnValueINS1_5ValueEEEPNS_15ScriptWrappableENS1_5LocalINS1_6ObjectEEEPKS5_(i64* %32, %"class.blink::ScriptWrappable"* nonnull %28, %"class.v8::Object"* %43, %"class.blink::ScriptWrappable"* %40) #8
  br i1 %44, label %62, label %45

45:                                               ; preds = %39
  %46 = load i64*, i64** %2, align 8
  %47 = getelementptr inbounds i64, i64* %46, i64 -1
  %48 = bitcast i64* %47 to %"class.v8::Object"*
  %49 = tail call %"class.v8::Context"* @_ZN2v86Object15CreationContextEv(%"class.v8::Object"* %48) #8
  %50 = tail call %"class.blink::ScriptState"* @_ZN5blink11ScriptState4FromEN2v85LocalINS1_7ContextEEE(%"class.v8::Context"* %49) #8
  %51 = bitcast %"class.blink::MediaStream"* %27 to %"class.v8::Value"* (%"class.blink::ScriptWrappable"*, %"class.blink::ScriptState"*)***
  %52 = load %"class.v8::Value"* (%"class.blink::ScriptWrappable"*, %"class.blink::ScriptState"*)**, %"class.v8::Value"* (%"class.blink::ScriptWrappable"*, %"class.blink::ScriptState"*)*** %51, align 8
  %53 = getelementptr inbounds %"class.v8::Value"* (%"class.blink::ScriptWrappable"*, %"class.blink::ScriptState"*)*, %"class.v8::Value"* (%"class.blink::ScriptWrappable"*, %"class.blink::ScriptState"*)** %52, i64 7
  %54 = load %"class.v8::Value"* (%"class.blink::ScriptWrappable"*, %"class.blink::ScriptState"*)*, %"class.v8::Value"* (%"class.blink::ScriptWrappable"*, %"class.blink::ScriptState"*)** %53, align 8
  %55 = tail call %"class.v8::Value"* %54(%"class.blink::ScriptWrappable"* nonnull %28, %"class.blink::ScriptState"* %50) #8
  %56 = icmp eq %"class.v8::Value"* %55, null
  br i1 %56, label %62, label %57

57:                                               ; preds = %45
  %58 = load i64*, i64** %30, align 8
  %59 = getelementptr inbounds i64, i64* %58, i64 3
  %60 = bitcast %"class.v8::Value"* %55 to i64*
  %61 = load i64, i64* %60, align 8
  store i64 %61, i64* %59, align 8
  br label %62

62:                                               ; preds = %33, %39, %45, %57
  ret void
}

; Function Attrs: nounwind ssp uwtable
define internal void @_ZN5blink12_GLOBAL__N_115v8_media_stream31GetAudioTracksOperationCallbackERKN2v820FunctionCallbackInfoINS2_5ValueEEE(%"class.v8::FunctionCallbackInfo"* nocapture readonly dereferenceable(24)) #0 {
  %2 = alloca %"class.blink::HeapVector.419", align 8
  %3 = getelementptr inbounds %"class.v8::FunctionCallbackInfo", %"class.v8::FunctionCallbackInfo"* %0, i64 0, i32 1
  %4 = load i64*, i64** %3, align 8
  %5 = getelementptr inbounds i64, i64* %4, i64 -1
  %6 = bitcast i64* %5 to %"class.v8::Object"*
  %7 = tail call %"class.v8::Context"* @_ZN2v86Object15CreationContextEv(%"class.v8::Object"* %6) #8
  %8 = tail call %"class.blink::ScriptState"* @_ZN5blink11ScriptState4FromEN2v85LocalINS1_7ContextEEE(%"class.v8::Context"* %7)
  %9 = load i64, i64* %5, align 8
  %10 = add i64 %9, -1
  %11 = inttoptr i64 %10 to i32*
  %12 = load i32, i32* %11, align 4
  %13 = and i64 %9, -4294967296
  %14 = zext i32 %12 to i64
  %15 = or i64 %13, %14
  %16 = add i64 %15, 7
  %17 = inttoptr i64 %16 to i16*
  %18 = load i16, i16* %17, align 2
  switch i16 %18, label %23 [
    i16 1057, label %19
    i16 1056, label %19
    i16 1040, label %19
  ]

19:                                               ; preds = %1, %1, %1
  %20 = add i64 %9, 19
  %21 = inttoptr i64 %20 to i8**
  %22 = load i8*, i8** %21, align 1
  br label %25

23:                                               ; preds = %1
  %24 = tail call i8* @_ZN2v86Object38SlowGetAlignedPointerFromInternalFieldEi(%"class.v8::Object"* %6, i32 1) #8
  br label %25

25:                                               ; preds = %19, %23
  %26 = phi i8* [ %22, %19 ], [ %24, %23 ]
  %27 = bitcast %"class.blink::HeapVector.419"* %2 to i8*
  call void @llvm.lifetime.start.p0i8(i64 16, i8* nonnull %27) #8
  %28 = getelementptr inbounds %"class.blink::HeapVector.419", %"class.blink::HeapVector.419"* %2, i64 0, i32 0
  %29 = getelementptr inbounds i8, i8* %26, i64 104
  %30 = bitcast i8* %29 to %"class.WTF::Vector.422"*
  call void @_ZN3WTF6VectorIN5blink6MemberINS1_16MediaStreamTrackEEELj0ENS1_13HeapAllocatorEEC2ERKS6_(%"class.WTF::Vector.422"* nonnull %28, %"class.WTF::Vector.422"* dereferenceable(16) %30) #8
  %31 = bitcast %"class.blink::HeapVector.419"* %2 to %"class.blink::HeapVector.669"*
  %32 = call %"class.v8::Value"* @_ZN5blink8bindings18ToV8HelperSequenceINS_15ScriptWrappableENS_10HeapVectorINS_6MemberIS2_EELj0EEEEEN2v810MaybeLocalINS7_5ValueEEEPNS_11ScriptStateERKT0_(%"class.blink::ScriptState"* %8, %"class.blink::HeapVector.669"* nonnull dereferenceable(16) %31) #8
  %33 = icmp eq %"class.v8::Value"* %32, null
  br i1 %33, label %40, label %34

34:                                               ; preds = %25
  %35 = getelementptr inbounds %"class.v8::FunctionCallbackInfo", %"class.v8::FunctionCallbackInfo"* %0, i64 0, i32 0
  %36 = load i64*, i64** %35, align 8
  %37 = getelementptr inbounds i64, i64* %36, i64 3
  %38 = bitcast %"class.v8::Value"* %32 to i64*
  %39 = load i64, i64* %38, align 8
  store i64 %39, i64* %37, align 8
  br label %40

40:                                               ; preds = %25, %34
  call void @llvm.lifetime.end.p0i8(i64 16, i8* nonnull %27) #8
  ret void
}

; Function Attrs: nounwind ssp uwtable
define internal void @_ZN5blink12_GLOBAL__N_115v8_media_stream29GetTrackByIdOperationCallbackERKN2v820FunctionCallbackInfoINS2_5ValueEEE(%"class.v8::FunctionCallbackInfo"* nocapture readonly dereferenceable(24)) #0 {
  %2 = alloca %"class.blink::ExceptionState", align 8
  %3 = alloca %"class.WTF::String", align 8
  %4 = alloca %"class.blink::ExceptionState", align 8
  %5 = alloca %"class.blink::bindings::NativeValueTraitsStringAdapter", align 8
  %6 = getelementptr inbounds %"class.v8::FunctionCallbackInfo", %"class.v8::FunctionCallbackInfo"* %0, i64 0, i32 2
  %7 = load i32, i32* %6, align 8
  %8 = icmp slt i32 %7, 1
  br i1 %8, label %9, label %74, !prof !3

9:                                                ; preds = %1
  %10 = getelementptr inbounds %"class.v8::FunctionCallbackInfo", %"class.v8::FunctionCallbackInfo"* %0, i64 0, i32 0
  %11 = load i64*, i64** %10, align 8
  %12 = getelementptr inbounds i64, i64* %11, i64 1
  %13 = load i64, i64* %12, align 8
  %14 = bitcast %"class.blink::ExceptionState"* %2 to i8*
  call void @llvm.lifetime.start.p0i8(i64 72, i8* nonnull %14) #8
  call void @llvm.memset.p0i8.i64(i8* nonnull align 8 %14, i8 -86, i64 56, i1 false)
  %15 = getelementptr inbounds %"class.blink::ExceptionState", %"class.blink::ExceptionState"* %2, i64 0, i32 0
  store i32 (...)** bitcast (i8** getelementptr inbounds ({ [9 x i8*] }, { [9 x i8*] }* @_ZTVN5blink14ExceptionStateE, i64 0, inrange i32 0, i64 2) to i32 (...)**), i32 (...)*** %15, align 8
  %16 = getelementptr inbounds %"class.blink::ExceptionState", %"class.blink::ExceptionState"* %2, i64 0, i32 1, i32 0
  store i16 6, i16* %16, align 8
  %17 = getelementptr inbounds %"class.blink::ExceptionState", %"class.blink::ExceptionState"* %2, i64 0, i32 1, i32 1
  store i16 0, i16* %17, align 2
  %18 = getelementptr inbounds %"class.blink::ExceptionState", %"class.blink::ExceptionState"* %2, i64 0, i32 1, i32 2
  %19 = bitcast i8** %18 to <2 x i8*>*
  store <2 x i8*> <i8* getelementptr inbounds ([12 x i8], [12 x i8]* @.str, i64 0, i64 0), i8* getelementptr inbounds ([13 x i8], [13 x i8]* @.str.10, i64 0, i64 0)>, <2 x i8*>* %19, align 8
  %20 = getelementptr inbounds %"class.blink::ExceptionState", %"class.blink::ExceptionState"* %2, i64 0, i32 2
  store %"class.blink::ExceptionState::ContextScope"* null, %"class.blink::ExceptionState::ContextScope"** %20, align 8
  %21 = getelementptr inbounds %"class.blink::ExceptionState", %"class.blink::ExceptionState"* %2, i64 0, i32 3
  %22 = bitcast %"class.v8::Isolate"** %21 to i64*
  store i64 %13, i64* %22, align 8
  %23 = getelementptr inbounds %"class.blink::ExceptionState", %"class.blink::ExceptionState"* %2, i64 0, i32 4
  store i32 0, i32* %23, align 8
  %24 = getelementptr inbounds %"class.blink::ExceptionState", %"class.blink::ExceptionState"* %2, i64 0, i32 5, i32 0, i32 0
  %25 = bitcast %"class.WTF::StringImpl"** %24 to i8*
  call void @llvm.memset.p0i8.i64(i8* align 8 %25, i8 0, i64 16, i1 false) #8
  %26 = bitcast %"class.WTF::String"* %3 to i8*
  call void @llvm.lifetime.start.p0i8(i64 8, i8* nonnull %26) #8
  %27 = tail call %"class.WTF::StringImpl"* @_ZN5blink17ExceptionMessages18NotEnoughArgumentsEjj(i32 1, i32 %7) #8
  %28 = getelementptr inbounds %"class.WTF::String", %"class.WTF::String"* %3, i64 0, i32 0, i32 0
  store %"class.WTF::StringImpl"* %27, %"class.WTF::StringImpl"** %28, align 8
  call void @_ZN5blink14ExceptionState14ThrowTypeErrorERKN3WTF6StringE(%"class.blink::ExceptionState"* nonnull %2, %"class.WTF::String"* nonnull dereferenceable(8) %3) #8
  %29 = load %"class.WTF::StringImpl"*, %"class.WTF::StringImpl"** %28, align 8
  %30 = icmp eq %"class.WTF::StringImpl"* %29, null
  br i1 %30, label %44, label %31

31:                                               ; preds = %9
  %32 = getelementptr inbounds %"class.WTF::StringImpl", %"class.WTF::StringImpl"* %29, i64 0, i32 2, i32 0, i32 0, i32 0, i32 0, i32 0
  %33 = load atomic i32, i32* %32 monotonic, align 4
  %34 = and i32 %33, 2
  %35 = icmp eq i32 %34, 0
  %36 = getelementptr inbounds %"class.WTF::StringImpl", %"class.WTF::StringImpl"* %29, i64 0, i32 0
  %37 = load i32, i32* %36, align 4
  br i1 %35, label %38, label %40

38:                                               ; preds = %31
  %39 = add i32 %37, -1
  store i32 %39, i32* %36, align 4
  br label %40

40:                                               ; preds = %38, %31
  %41 = phi i32 [ %39, %38 ], [ %37, %31 ]
  %42 = icmp eq i32 %41, 0
  br i1 %42, label %43, label %44

43:                                               ; preds = %40
  call void @_ZNK3WTF10StringImpl18DestroyIfNotStaticEv(%"class.WTF::StringImpl"* nonnull %29) #8
  br label %44

44:                                               ; preds = %9, %40, %43
  call void @llvm.lifetime.end.p0i8(i64 8, i8* nonnull %26) #8
  store i32 (...)** bitcast (i8** getelementptr inbounds ({ [9 x i8*] }, { [9 x i8*] }* @_ZTVN5blink14ExceptionStateE, i64 0, inrange i32 0, i64 2) to i32 (...)**), i32 (...)*** %15, align 8
  %45 = getelementptr inbounds %"class.blink::ExceptionState", %"class.blink::ExceptionState"* %2, i64 0, i32 6, i32 0, i32 0, i32 0, i32 0
  %46 = load i64*, i64** %45, align 8
  %47 = icmp eq i64* %46, null
  br i1 %47, label %57, label %48

48:                                               ; preds = %44
  %49 = load %"class.v8::Isolate"*, %"class.v8::Isolate"** %21, align 8
  %50 = bitcast %"class.v8::Isolate"* %49 to %"class.v8::internal::Isolate"*
  %51 = load i64, i64* %46, align 8
  %52 = call i64* @_ZN2v811HandleScope12CreateHandleEPNS_8internal7IsolateEm(%"class.v8::internal::Isolate"* %50, i64 %51) #8
  %53 = call zeroext i1 @_ZN2v87Isolate22IsExecutionTerminatingEv(%"class.v8::Isolate"* %49) #8
  br i1 %53, label %57, label %54

54:                                               ; preds = %48
  %55 = bitcast i64* %52 to %"class.v8::Value"*
  %56 = call %"class.v8::Value"* @_ZN2v87Isolate14ThrowExceptionENS_5LocalINS_5ValueEEE(%"class.v8::Isolate"* %49, %"class.v8::Value"* %55) #8
  br label %57

57:                                               ; preds = %54, %48, %44
  %58 = load %"class.WTF::StringImpl"*, %"class.WTF::StringImpl"** %24, align 8
  %59 = icmp eq %"class.WTF::StringImpl"* %58, null
  br i1 %59, label %73, label %60

60:                                               ; preds = %57
  %61 = getelementptr inbounds %"class.WTF::StringImpl", %"class.WTF::StringImpl"* %58, i64 0, i32 2, i32 0, i32 0, i32 0, i32 0, i32 0
  %62 = load atomic i32, i32* %61 monotonic, align 4
  %63 = and i32 %62, 2
  %64 = icmp eq i32 %63, 0
  %65 = getelementptr inbounds %"class.WTF::StringImpl", %"class.WTF::StringImpl"* %58, i64 0, i32 0
  %66 = load i32, i32* %65, align 4
  br i1 %64, label %67, label %69

67:                                               ; preds = %60
  %68 = add i32 %66, -1
  store i32 %68, i32* %65, align 4
  br label %69

69:                                               ; preds = %67, %60
  %70 = phi i32 [ %68, %67 ], [ %66, %60 ]
  %71 = icmp eq i32 %70, 0
  br i1 %71, label %72, label %73

72:                                               ; preds = %69
  call void @_ZNK3WTF10StringImpl18DestroyIfNotStaticEv(%"class.WTF::StringImpl"* nonnull %58) #8
  br label %73

73:                                               ; preds = %57, %69, %72
  call void @llvm.lifetime.end.p0i8(i64 72, i8* nonnull %14) #8
  br label %299

74:                                               ; preds = %1
  %75 = getelementptr inbounds %"class.v8::FunctionCallbackInfo", %"class.v8::FunctionCallbackInfo"* %0, i64 0, i32 1
  %76 = load i64*, i64** %75, align 8
  %77 = getelementptr inbounds i64, i64* %76, i64 -1
  %78 = load i64, i64* %77, align 8
  %79 = add i64 %78, -1
  %80 = inttoptr i64 %79 to i32*
  %81 = load i32, i32* %80, align 4
  %82 = and i64 %78, -4294967296
  %83 = zext i32 %81 to i64
  %84 = or i64 %82, %83
  %85 = add i64 %84, 7
  %86 = inttoptr i64 %85 to i16*
  %87 = load i16, i16* %86, align 2
  switch i16 %87, label %93 [
    i16 1057, label %88
    i16 1056, label %88
    i16 1040, label %88
  ]

88:                                               ; preds = %74, %74, %74
  %89 = add i64 %78, 19
  %90 = inttoptr i64 %89 to i8**
  %91 = load i8*, i8** %90, align 1
  %92 = bitcast i8* %91 to %"class.blink::MediaStream"*
  br label %106

93:                                               ; preds = %74
  %94 = bitcast i64* %77 to %"class.v8::Object"*
  %95 = tail call i8* @_ZN2v86Object38SlowGetAlignedPointerFromInternalFieldEi(%"class.v8::Object"* %94, i32 1) #8
  %96 = load i32, i32* %6, align 8
  %97 = bitcast i8* %95 to %"class.blink::MediaStream"*
  %98 = icmp sgt i32 %96, 0
  br i1 %98, label %106, label %99

99:                                               ; preds = %93
  %100 = getelementptr inbounds %"class.v8::FunctionCallbackInfo", %"class.v8::FunctionCallbackInfo"* %0, i64 0, i32 0
  %101 = load i64*, i64** %100, align 8
  %102 = getelementptr inbounds i64, i64* %101, i64 1
  %103 = load i64, i64* %102, align 8
  %104 = add i64 %103, 160
  %105 = inttoptr i64 %104 to %"class.v8::Value"*
  br label %111

106:                                              ; preds = %88, %93
  %107 = phi %"class.blink::MediaStream"* [ %92, %88 ], [ %97, %93 ]
  %108 = phi i8* [ %91, %88 ], [ %95, %93 ]
  %109 = bitcast i64** %75 to %"class.v8::Value"**
  %110 = load %"class.v8::Value"*, %"class.v8::Value"** %109, align 8
  br label %111

111:                                              ; preds = %99, %106
  %112 = phi i1 [ false, %99 ], [ true, %106 ]
  %113 = phi %"class.blink::MediaStream"* [ %97, %99 ], [ %107, %106 ]
  %114 = phi i8* [ %95, %99 ], [ %108, %106 ]
  %115 = phi %"class.v8::Value"* [ %105, %99 ], [ %110, %106 ]
  %116 = bitcast %"class.v8::Value"* %115 to i64*
  %117 = load i64, i64* %116, align 8
  %118 = and i64 %117, 3
  %119 = icmp eq i64 %118, 1
  br i1 %119, label %120, label %145, !prof !4

120:                                              ; preds = %111
  %121 = add i64 %117, -1
  %122 = inttoptr i64 %121 to i32*
  %123 = load i32, i32* %122, align 4
  %124 = and i64 %117, -4294967296
  %125 = zext i32 %123 to i64
  %126 = or i64 %124, %125
  %127 = add i64 %126, 7
  %128 = inttoptr i64 %127 to i16*
  %129 = load i16, i16* %128, align 2
  %130 = icmp ult i16 %129, 64
  br i1 %130, label %131, label %145, !prof !5

131:                                              ; preds = %120
  br i1 %112, label %139, label %132

132:                                              ; preds = %131
  %133 = getelementptr inbounds %"class.v8::FunctionCallbackInfo", %"class.v8::FunctionCallbackInfo"* %0, i64 0, i32 0
  %134 = load i64*, i64** %133, align 8
  %135 = getelementptr inbounds i64, i64* %134, i64 1
  %136 = load i64, i64* %135, align 8
  %137 = add i64 %136, 160
  %138 = inttoptr i64 %137 to %"class.v8::Value"*
  br label %142

139:                                              ; preds = %131
  %140 = bitcast i64** %75 to %"class.v8::Value"**
  %141 = load %"class.v8::Value"*, %"class.v8::Value"** %140, align 8
  br label %142

142:                                              ; preds = %132, %139
  %143 = phi %"class.v8::Value"* [ %138, %132 ], [ %141, %139 ]
  %144 = ptrtoint %"class.v8::Value"* %143 to i64
  br label %212

145:                                              ; preds = %111, %120
  %146 = getelementptr inbounds %"class.v8::FunctionCallbackInfo", %"class.v8::FunctionCallbackInfo"* %0, i64 0, i32 0
  %147 = load i64*, i64** %146, align 8
  %148 = getelementptr inbounds i64, i64* %147, i64 1
  %149 = bitcast i64* %148 to %"class.v8::Isolate"**
  %150 = load %"class.v8::Isolate"*, %"class.v8::Isolate"** %149, align 8
  %151 = bitcast %"class.blink::ExceptionState"* %4 to i8*
  call void @llvm.lifetime.start.p0i8(i64 72, i8* nonnull %151) #8
  call void @llvm.memset.p0i8.i64(i8* nonnull align 8 %151, i8 -86, i64 56, i1 false)
  %152 = getelementptr inbounds %"class.blink::ExceptionState", %"class.blink::ExceptionState"* %4, i64 0, i32 0
  store i32 (...)** bitcast (i8** getelementptr inbounds ({ [9 x i8*] }, { [9 x i8*] }* @_ZTVN5blink14ExceptionStateE, i64 0, inrange i32 0, i64 2) to i32 (...)**), i32 (...)*** %152, align 8
  %153 = getelementptr inbounds %"class.blink::ExceptionState", %"class.blink::ExceptionState"* %4, i64 0, i32 1, i32 0
  store i16 6, i16* %153, align 8
  %154 = getelementptr inbounds %"class.blink::ExceptionState", %"class.blink::ExceptionState"* %4, i64 0, i32 1, i32 1
  store i16 0, i16* %154, align 2
  %155 = getelementptr inbounds %"class.blink::ExceptionState", %"class.blink::ExceptionState"* %4, i64 0, i32 1, i32 2
  %156 = bitcast i8** %155 to <2 x i8*>*
  store <2 x i8*> <i8* getelementptr inbounds ([12 x i8], [12 x i8]* @.str, i64 0, i64 0), i8* getelementptr inbounds ([13 x i8], [13 x i8]* @.str.10, i64 0, i64 0)>, <2 x i8*>* %156, align 8
  %157 = getelementptr inbounds %"class.blink::ExceptionState", %"class.blink::ExceptionState"* %4, i64 0, i32 2
  store %"class.blink::ExceptionState::ContextScope"* null, %"class.blink::ExceptionState::ContextScope"** %157, align 8
  %158 = getelementptr inbounds %"class.blink::ExceptionState", %"class.blink::ExceptionState"* %4, i64 0, i32 3
  store %"class.v8::Isolate"* %150, %"class.v8::Isolate"** %158, align 8
  %159 = getelementptr inbounds %"class.blink::ExceptionState", %"class.blink::ExceptionState"* %4, i64 0, i32 4
  store i32 0, i32* %159, align 8
  %160 = getelementptr inbounds %"class.blink::ExceptionState", %"class.blink::ExceptionState"* %4, i64 0, i32 5, i32 0, i32 0
  %161 = bitcast %"class.WTF::StringImpl"** %160 to i8*
  call void @llvm.memset.p0i8.i64(i8* align 8 %161, i8 0, i64 16, i1 false) #8
  %162 = bitcast %"class.blink::bindings::NativeValueTraitsStringAdapter"* %5 to i8*
  call void @llvm.lifetime.start.p0i8(i64 152, i8* nonnull %162) #8
  br i1 %112, label %167, label %163

163:                                              ; preds = %145
  %164 = load i64, i64* %148, align 8
  %165 = add i64 %164, 160
  %166 = inttoptr i64 %165 to %"class.v8::Value"*
  br label %170

167:                                              ; preds = %145
  %168 = bitcast i64** %75 to %"class.v8::Value"**
  %169 = load %"class.v8::Value"*, %"class.v8::Value"** %168, align 8
  br label %170

170:                                              ; preds = %163, %167
  %171 = phi %"class.v8::Value"* [ %166, %163 ], [ %169, %167 ]
  call void @_ZN5blink17NativeValueTraitsINS_15IDLStringBaseV2ILNS_8bindings17IDLStringConvModeE0EEEvE11NativeValueEPN2v87IsolateENS6_5LocalINS6_5ValueEEERNS_14ExceptionStateE(%"class.blink::bindings::NativeValueTraitsStringAdapter"* nonnull sret %5, %"class.v8::Isolate"* %150, %"class.v8::Value"* %171, %"class.blink::ExceptionState"* nonnull dereferenceable(72) %4) #8
  %172 = bitcast %"class.blink::bindings::NativeValueTraitsStringAdapter"* %5 to i64*
  %173 = load i64, i64* %172, align 8
  %174 = getelementptr inbounds %"class.blink::bindings::NativeValueTraitsStringAdapter", %"class.blink::bindings::NativeValueTraitsStringAdapter"* %5, i64 0, i32 1
  %175 = getelementptr inbounds %"class.WTF::String", %"class.WTF::String"* %174, i64 0, i32 0, i32 0
  %176 = bitcast %"class.WTF::String"* %174 to i64*
  %177 = load i64, i64* %176, align 8
  store %"class.WTF::StringImpl"* null, %"class.WTF::StringImpl"** %175, align 8
  %178 = getelementptr inbounds %"class.blink::bindings::NativeValueTraitsStringAdapter", %"class.blink::bindings::NativeValueTraitsStringAdapter"* %5, i64 0, i32 2, i32 1
  %179 = bitcast %"class.std::__1::unique_ptr.678"* %178 to i64*
  %180 = load i64, i64* %179, align 8
  call void @llvm.lifetime.end.p0i8(i64 152, i8* nonnull %162) #8
  %181 = load i32, i32* %159, align 8
  %182 = icmp eq i32 %181, 0
  store i32 (...)** bitcast (i8** getelementptr inbounds ({ [9 x i8*] }, { [9 x i8*] }* @_ZTVN5blink14ExceptionStateE, i64 0, inrange i32 0, i64 2) to i32 (...)**), i32 (...)*** %152, align 8
  %183 = getelementptr inbounds %"class.blink::ExceptionState", %"class.blink::ExceptionState"* %4, i64 0, i32 6, i32 0, i32 0, i32 0, i32 0
  %184 = load i64*, i64** %183, align 8
  %185 = icmp eq i64* %184, null
  br i1 %185, label %195, label %186

186:                                              ; preds = %170
  %187 = load %"class.v8::Isolate"*, %"class.v8::Isolate"** %158, align 8
  %188 = bitcast %"class.v8::Isolate"* %187 to %"class.v8::internal::Isolate"*
  %189 = load i64, i64* %184, align 8
  %190 = call i64* @_ZN2v811HandleScope12CreateHandleEPNS_8internal7IsolateEm(%"class.v8::internal::Isolate"* %188, i64 %189) #8
  %191 = call zeroext i1 @_ZN2v87Isolate22IsExecutionTerminatingEv(%"class.v8::Isolate"* %187) #8
  br i1 %191, label %195, label %192

192:                                              ; preds = %186
  %193 = bitcast i64* %190 to %"class.v8::Value"*
  %194 = call %"class.v8::Value"* @_ZN2v87Isolate14ThrowExceptionENS_5LocalINS_5ValueEEE(%"class.v8::Isolate"* %187, %"class.v8::Value"* %193) #8
  br label %195

195:                                              ; preds = %192, %186, %170
  %196 = load %"class.WTF::StringImpl"*, %"class.WTF::StringImpl"** %160, align 8
  %197 = icmp eq %"class.WTF::StringImpl"* %196, null
  br i1 %197, label %211, label %198

198:                                              ; preds = %195
  %199 = getelementptr inbounds %"class.WTF::StringImpl", %"class.WTF::StringImpl"* %196, i64 0, i32 2, i32 0, i32 0, i32 0, i32 0, i32 0
  %200 = load atomic i32, i32* %199 monotonic, align 4
  %201 = and i32 %200, 2
  %202 = icmp eq i32 %201, 0
  %203 = getelementptr inbounds %"class.WTF::StringImpl", %"class.WTF::StringImpl"* %196, i64 0, i32 0
  %204 = load i32, i32* %203, align 4
  br i1 %202, label %205, label %207

205:                                              ; preds = %198
  %206 = add i32 %204, -1
  store i32 %206, i32* %203, align 4
  br label %207

207:                                              ; preds = %205, %198
  %208 = phi i32 [ %206, %205 ], [ %204, %198 ]
  %209 = icmp eq i32 %208, 0
  br i1 %209, label %210, label %211

210:                                              ; preds = %207
  call void @_ZNK3WTF10StringImpl18DestroyIfNotStaticEv(%"class.WTF::StringImpl"* nonnull %196) #8
  br label %211

211:                                              ; preds = %195, %207, %210
  call void @llvm.lifetime.end.p0i8(i64 72, i8* nonnull %151) #8
  br i1 %182, label %212, label %277

212:                                              ; preds = %211, %142
  %213 = phi i64 [ 0, %142 ], [ %180, %211 ]
  %214 = phi i64 [ 0, %142 ], [ %177, %211 ]
  %215 = phi i64 [ %144, %142 ], [ %173, %211 ]
  %216 = icmp eq i64 %215, 0
  br i1 %216, label %220, label %217, !prof !3

217:                                              ; preds = %212
  %218 = inttoptr i64 %215 to %"class.v8::String"*
  %219 = call %"class.WTF::StringImpl"* @_ZN5blink13ToBlinkStringIN3WTF6StringEEET_N2v85LocalINS4_6StringEEENS_12ExternalModeE(%"class.v8::String"* nonnull %218, i32 0) #8
  br label %240

220:                                              ; preds = %212
  %221 = inttoptr i64 %214 to %"class.WTF::StringImpl"*
  %222 = icmp eq i64 %214, 0
  br i1 %222, label %240, label %223

223:                                              ; preds = %220
  %224 = getelementptr inbounds %"class.WTF::StringImpl", %"class.WTF::StringImpl"* %221, i64 0, i32 2, i32 0, i32 0, i32 0, i32 0, i32 0
  %225 = load atomic i32, i32* %224 monotonic, align 4
  %226 = and i32 %225, 2
  %227 = icmp eq i32 %226, 0
  br i1 %227, label %228, label %240

228:                                              ; preds = %223
  %229 = getelementptr inbounds %"class.WTF::StringImpl", %"class.WTF::StringImpl"* %221, i64 0, i32 0
  %230 = load i32, i32* %229, align 4
  %231 = zext i32 %230 to i33
  %232 = call { i33, i1 } @llvm.sadd.with.overflow.i33(i33 %231, i33 1) #8
  %233 = extractvalue { i33, i1 } %232, 1
  %234 = extractvalue { i33, i1 } %232, 0
  %235 = icmp slt i33 %234, 0
  %236 = or i1 %233, %235
  br i1 %236, label %237, label %238, !prof !3

237:                                              ; preds = %228
  call void @llvm.trap() #8
  unreachable

238:                                              ; preds = %228
  %239 = trunc i33 %234 to i32
  store i32 %239, i32* %229, align 4
  br label %240

240:                                              ; preds = %217, %220, %223, %238
  %241 = phi %"class.WTF::StringImpl"* [ %219, %217 ], [ null, %220 ], [ %221, %223 ], [ %221, %238 ]
  %242 = call %"class.blink::MediaStreamTrack"* @_ZN5blink11MediaStream12getTrackByIdEN3WTF6StringE(%"class.blink::MediaStream"* %113, %"class.WTF::StringImpl"* %241) #8
  %243 = getelementptr inbounds %"class.blink::MediaStreamTrack", %"class.blink::MediaStreamTrack"* %242, i64 0, i32 0, i32 0, i32 0
  %244 = icmp eq %"class.blink::MediaStreamTrack"* %242, null
  %245 = getelementptr inbounds %"class.v8::FunctionCallbackInfo", %"class.v8::FunctionCallbackInfo"* %0, i64 0, i32 0
  %246 = load i64*, i64** %245, align 8
  %247 = getelementptr inbounds i64, i64* %246, i64 3
  br i1 %244, label %248, label %254, !prof !3

248:                                              ; preds = %240
  %249 = getelementptr inbounds i64, i64* %246, i64 1
  %250 = load i64, i64* %249, align 8
  %251 = add i64 %250, 176
  %252 = inttoptr i64 %251 to i64*
  %253 = load i64, i64* %252, align 8
  store i64 %253, i64* %247, align 8
  br label %277

254:                                              ; preds = %240
  %255 = bitcast i8* %114 to %"class.blink::ScriptWrappable"*
  %256 = load i64*, i64** %75, align 8
  %257 = getelementptr inbounds i64, i64* %256, i64 -1
  %258 = bitcast i64* %257 to %"class.v8::Object"*
  %259 = call zeroext i1 @_ZN5blink12DOMDataStore18SetReturnValueFastEN2v811ReturnValueINS1_5ValueEEEPNS_15ScriptWrappableENS1_5LocalINS1_6ObjectEEEPKS5_(i64* %247, %"class.blink::ScriptWrappable"* nonnull %243, %"class.v8::Object"* %258, %"class.blink::ScriptWrappable"* %255) #8
  br i1 %259, label %277, label %260

260:                                              ; preds = %254
  %261 = load i64*, i64** %75, align 8
  %262 = getelementptr inbounds i64, i64* %261, i64 -1
  %263 = bitcast i64* %262 to %"class.v8::Object"*
  %264 = call %"class.v8::Context"* @_ZN2v86Object15CreationContextEv(%"class.v8::Object"* %263) #8
  %265 = call %"class.blink::ScriptState"* @_ZN5blink11ScriptState4FromEN2v85LocalINS1_7ContextEEE(%"class.v8::Context"* %264) #8
  %266 = bitcast %"class.blink::MediaStreamTrack"* %242 to %"class.v8::Value"* (%"class.blink::ScriptWrappable"*, %"class.blink::ScriptState"*)***
  %267 = load %"class.v8::Value"* (%"class.blink::ScriptWrappable"*, %"class.blink::ScriptState"*)**, %"class.v8::Value"* (%"class.blink::ScriptWrappable"*, %"class.blink::ScriptState"*)*** %266, align 8
  %268 = getelementptr inbounds %"class.v8::Value"* (%"class.blink::ScriptWrappable"*, %"class.blink::ScriptState"*)*, %"class.v8::Value"* (%"class.blink::ScriptWrappable"*, %"class.blink::ScriptState"*)** %267, i64 7
  %269 = load %"class.v8::Value"* (%"class.blink::ScriptWrappable"*, %"class.blink::ScriptState"*)*, %"class.v8::Value"* (%"class.blink::ScriptWrappable"*, %"class.blink::ScriptState"*)** %268, align 8
  %270 = call %"class.v8::Value"* %269(%"class.blink::ScriptWrappable"* nonnull %243, %"class.blink::ScriptState"* %265) #8
  %271 = icmp eq %"class.v8::Value"* %270, null
  br i1 %271, label %277, label %272

272:                                              ; preds = %260
  %273 = load i64*, i64** %245, align 8
  %274 = getelementptr inbounds i64, i64* %273, i64 3
  %275 = bitcast %"class.v8::Value"* %270 to i64*
  %276 = load i64, i64* %275, align 8
  store i64 %276, i64* %274, align 8
  br label %277

277:                                              ; preds = %272, %260, %254, %248, %211
  %278 = phi i64 [ %180, %211 ], [ %213, %248 ], [ %213, %254 ], [ %213, %260 ], [ %213, %272 ]
  %279 = phi i64 [ %177, %211 ], [ %214, %248 ], [ %214, %254 ], [ %214, %260 ], [ %214, %272 ]
  %280 = icmp eq i64 %278, 0
  br i1 %280, label %283, label %281

281:                                              ; preds = %277
  %282 = inttoptr i64 %278 to i8*
  call void @_ZN3WTF10Partitions10BufferFreeEPv(i8* nonnull %282) #8
  br label %283

283:                                              ; preds = %281, %277
  %284 = inttoptr i64 %279 to %"class.WTF::StringImpl"*
  %285 = icmp eq i64 %279, 0
  br i1 %285, label %299, label %286

286:                                              ; preds = %283
  %287 = getelementptr inbounds %"class.WTF::StringImpl", %"class.WTF::StringImpl"* %284, i64 0, i32 2, i32 0, i32 0, i32 0, i32 0, i32 0
  %288 = load atomic i32, i32* %287 monotonic, align 4
  %289 = and i32 %288, 2
  %290 = icmp eq i32 %289, 0
  %291 = getelementptr inbounds %"class.WTF::StringImpl", %"class.WTF::StringImpl"* %284, i64 0, i32 0
  %292 = load i32, i32* %291, align 4
  br i1 %290, label %293, label %295

293:                                              ; preds = %286
  %294 = add i32 %292, -1
  store i32 %294, i32* %291, align 4
  br label %295

295:                                              ; preds = %293, %286
  %296 = phi i32 [ %294, %293 ], [ %292, %286 ]
  %297 = icmp eq i32 %296, 0
  br i1 %297, label %298, label %299

298:                                              ; preds = %295
  call void @_ZNK3WTF10StringImpl18DestroyIfNotStaticEv(%"class.WTF::StringImpl"* nonnull %284) #8
  br label %299

299:                                              ; preds = %298, %295, %283, %73
  ret void
}

; Function Attrs: nounwind ssp uwtable
define internal void @_ZN5blink12_GLOBAL__N_115v8_media_stream26GetTracksOperationCallbackERKN2v820FunctionCallbackInfoINS2_5ValueEEE(%"class.v8::FunctionCallbackInfo"* nocapture readonly dereferenceable(24)) #0 {
  %2 = alloca %"class.blink::HeapVector.419", align 8
  %3 = getelementptr inbounds %"class.v8::FunctionCallbackInfo", %"class.v8::FunctionCallbackInfo"* %0, i64 0, i32 1
  %4 = load i64*, i64** %3, align 8
  %5 = getelementptr inbounds i64, i64* %4, i64 -1
  %6 = bitcast i64* %5 to %"class.v8::Object"*
  %7 = tail call %"class.v8::Context"* @_ZN2v86Object15CreationContextEv(%"class.v8::Object"* %6) #8
  %8 = tail call %"class.blink::ScriptState"* @_ZN5blink11ScriptState4FromEN2v85LocalINS1_7ContextEEE(%"class.v8::Context"* %7)
  %9 = load i64, i64* %5, align 8
  %10 = add i64 %9, -1
  %11 = inttoptr i64 %10 to i32*
  %12 = load i32, i32* %11, align 4
  %13 = and i64 %9, -4294967296
  %14 = zext i32 %12 to i64
  %15 = or i64 %13, %14
  %16 = add i64 %15, 7
  %17 = inttoptr i64 %16 to i16*
  %18 = load i16, i16* %17, align 2
  switch i16 %18, label %23 [
    i16 1057, label %19
    i16 1056, label %19
    i16 1040, label %19
  ]

19:                                               ; preds = %1, %1, %1
  %20 = add i64 %9, 19
  %21 = inttoptr i64 %20 to i8**
  %22 = load i8*, i8** %21, align 1
  br label %25

23:                                               ; preds = %1
  %24 = tail call i8* @_ZN2v86Object38SlowGetAlignedPointerFromInternalFieldEi(%"class.v8::Object"* %6, i32 1) #8
  br label %25

25:                                               ; preds = %19, %23
  %26 = phi i8* [ %22, %19 ], [ %24, %23 ]
  %27 = bitcast i8* %26 to %"class.blink::MediaStream"*
  %28 = bitcast %"class.blink::HeapVector.419"* %2 to i8*
  call void @llvm.lifetime.start.p0i8(i64 16, i8* nonnull %28) #8
  call void @_ZN5blink11MediaStream9getTracksEv(%"class.blink::HeapVector.419"* nonnull sret %2, %"class.blink::MediaStream"* %27) #8
  %29 = bitcast %"class.blink::HeapVector.419"* %2 to %"class.blink::HeapVector.669"*
  %30 = call %"class.v8::Value"* @_ZN5blink8bindings18ToV8HelperSequenceINS_15ScriptWrappableENS_10HeapVectorINS_6MemberIS2_EELj0EEEEEN2v810MaybeLocalINS7_5ValueEEEPNS_11ScriptStateERKT0_(%"class.blink::ScriptState"* %8, %"class.blink::HeapVector.669"* nonnull dereferenceable(16) %29) #8
  %31 = icmp eq %"class.v8::Value"* %30, null
  br i1 %31, label %38, label %32

32:                                               ; preds = %25
  %33 = getelementptr inbounds %"class.v8::FunctionCallbackInfo", %"class.v8::FunctionCallbackInfo"* %0, i64 0, i32 0
  %34 = load i64*, i64** %33, align 8
  %35 = getelementptr inbounds i64, i64* %34, i64 3
  %36 = bitcast %"class.v8::Value"* %30 to i64*
  %37 = load i64, i64* %36, align 8
  store i64 %37, i64* %35, align 8
  br label %38

38:                                               ; preds = %25, %32
  call void @llvm.lifetime.end.p0i8(i64 16, i8* nonnull %28) #8
  ret void
}

; Function Attrs: nounwind ssp uwtable
define internal void @_ZN5blink12_GLOBAL__N_115v8_media_stream31GetVideoTracksOperationCallbackERKN2v820FunctionCallbackInfoINS2_5ValueEEE(%"class.v8::FunctionCallbackInfo"* nocapture readonly dereferenceable(24)) #0 {
  %2 = alloca %"class.blink::HeapVector.419", align 8
  %3 = getelementptr inbounds %"class.v8::FunctionCallbackInfo", %"class.v8::FunctionCallbackInfo"* %0, i64 0, i32 1
  %4 = load i64*, i64** %3, align 8
  %5 = getelementptr inbounds i64, i64* %4, i64 -1
  %6 = bitcast i64* %5 to %"class.v8::Object"*
  %7 = tail call %"class.v8::Context"* @_ZN2v86Object15CreationContextEv(%"class.v8::Object"* %6) #8
  %8 = tail call %"class.blink::ScriptState"* @_ZN5blink11ScriptState4FromEN2v85LocalINS1_7ContextEEE(%"class.v8::Context"* %7)
  %9 = load i64, i64* %5, align 8
  %10 = add i64 %9, -1
  %11 = inttoptr i64 %10 to i32*
  %12 = load i32, i32* %11, align 4
  %13 = and i64 %9, -4294967296
  %14 = zext i32 %12 to i64
  %15 = or i64 %13, %14
  %16 = add i64 %15, 7
  %17 = inttoptr i64 %16 to i16*
  %18 = load i16, i16* %17, align 2
  switch i16 %18, label %23 [
    i16 1057, label %19
    i16 1056, label %19
    i16 1040, label %19
  ]

19:                                               ; preds = %1, %1, %1
  %20 = add i64 %9, 19
  %21 = inttoptr i64 %20 to i8**
  %22 = load i8*, i8** %21, align 1
  br label %25

23:                                               ; preds = %1
  %24 = tail call i8* @_ZN2v86Object38SlowGetAlignedPointerFromInternalFieldEi(%"class.v8::Object"* %6, i32 1) #8
  br label %25

25:                                               ; preds = %19, %23
  %26 = phi i8* [ %22, %19 ], [ %24, %23 ]
  %27 = bitcast %"class.blink::HeapVector.419"* %2 to i8*
  call void @llvm.lifetime.start.p0i8(i64 16, i8* nonnull %27) #8
  %28 = getelementptr inbounds %"class.blink::HeapVector.419", %"class.blink::HeapVector.419"* %2, i64 0, i32 0
  %29 = getelementptr inbounds i8, i8* %26, i64 120
  %30 = bitcast i8* %29 to %"class.WTF::Vector.422"*
  call void @_ZN3WTF6VectorIN5blink6MemberINS1_16MediaStreamTrackEEELj0ENS1_13HeapAllocatorEEC2ERKS6_(%"class.WTF::Vector.422"* nonnull %28, %"class.WTF::Vector.422"* dereferenceable(16) %30) #8
  %31 = bitcast %"class.blink::HeapVector.419"* %2 to %"class.blink::HeapVector.669"*
  %32 = call %"class.v8::Value"* @_ZN5blink8bindings18ToV8HelperSequenceINS_15ScriptWrappableENS_10HeapVectorINS_6MemberIS2_EELj0EEEEEN2v810MaybeLocalINS7_5ValueEEEPNS_11ScriptStateERKT0_(%"class.blink::ScriptState"* %8, %"class.blink::HeapVector.669"* nonnull dereferenceable(16) %31) #8
  %33 = icmp eq %"class.v8::Value"* %32, null
  br i1 %33, label %40, label %34

34:                                               ; preds = %25
  %35 = getelementptr inbounds %"class.v8::FunctionCallbackInfo", %"class.v8::FunctionCallbackInfo"* %0, i64 0, i32 0
  %36 = load i64*, i64** %35, align 8
  %37 = getelementptr inbounds i64, i64* %36, i64 3
  %38 = bitcast %"class.v8::Value"* %32 to i64*
  %39 = load i64, i64* %38, align 8
  store i64 %39, i64* %37, align 8
  br label %40

40:                                               ; preds = %25, %34
  call void @llvm.lifetime.end.p0i8(i64 16, i8* nonnull %27) #8
  ret void
}

; Function Attrs: nounwind ssp uwtable
define internal void @_ZN5blink12_GLOBAL__N_115v8_media_stream28RemoveTrackOperationCallbackERKN2v820FunctionCallbackInfoINS2_5ValueEEE(%"class.v8::FunctionCallbackInfo"* nocapture readonly dereferenceable(24)) #0 {
  %2 = alloca %"class.blink::ExceptionState", align 8
  %3 = alloca %"class.WTF::String", align 8
  %4 = getelementptr inbounds %"class.v8::FunctionCallbackInfo", %"class.v8::FunctionCallbackInfo"* %0, i64 0, i32 0
  %5 = load i64*, i64** %4, align 8
  %6 = getelementptr inbounds i64, i64* %5, i64 1
  %7 = bitcast i64* %6 to %"class.v8::Isolate"**
  %8 = load %"class.v8::Isolate"*, %"class.v8::Isolate"** %7, align 8
  %9 = bitcast %"class.blink::ExceptionState"* %2 to i8*
  call void @llvm.lifetime.start.p0i8(i64 72, i8* nonnull %9) #8
  call void @llvm.memset.p0i8.i64(i8* nonnull align 8 %9, i8 -86, i64 56, i1 false)
  %10 = getelementptr inbounds %"class.blink::ExceptionState", %"class.blink::ExceptionState"* %2, i64 0, i32 0
  store i32 (...)** bitcast (i8** getelementptr inbounds ({ [9 x i8*] }, { [9 x i8*] }* @_ZTVN5blink14ExceptionStateE, i64 0, inrange i32 0, i64 2) to i32 (...)**), i32 (...)*** %10, align 8
  %11 = getelementptr inbounds %"class.blink::ExceptionState", %"class.blink::ExceptionState"* %2, i64 0, i32 1, i32 0
  store i16 6, i16* %11, align 8
  %12 = getelementptr inbounds %"class.blink::ExceptionState", %"class.blink::ExceptionState"* %2, i64 0, i32 1, i32 1
  store i16 0, i16* %12, align 2
  %13 = getelementptr inbounds %"class.blink::ExceptionState", %"class.blink::ExceptionState"* %2, i64 0, i32 1, i32 2
  %14 = bitcast i8** %13 to <2 x i8*>*
  store <2 x i8*> <i8* getelementptr inbounds ([12 x i8], [12 x i8]* @.str, i64 0, i64 0), i8* getelementptr inbounds ([12 x i8], [12 x i8]* @.str.13, i64 0, i64 0)>, <2 x i8*>* %14, align 8
  %15 = getelementptr inbounds %"class.blink::ExceptionState", %"class.blink::ExceptionState"* %2, i64 0, i32 2
  store %"class.blink::ExceptionState::ContextScope"* null, %"class.blink::ExceptionState::ContextScope"** %15, align 8
  %16 = getelementptr inbounds %"class.blink::ExceptionState", %"class.blink::ExceptionState"* %2, i64 0, i32 3
  store %"class.v8::Isolate"* %8, %"class.v8::Isolate"** %16, align 8
  %17 = getelementptr inbounds %"class.blink::ExceptionState", %"class.blink::ExceptionState"* %2, i64 0, i32 4
  store i32 0, i32* %17, align 8
  %18 = getelementptr inbounds %"class.blink::ExceptionState", %"class.blink::ExceptionState"* %2, i64 0, i32 5, i32 0, i32 0
  %19 = bitcast %"class.WTF::StringImpl"** %18 to i8*
  call void @llvm.memset.p0i8.i64(i8* align 8 %19, i8 0, i64 16, i1 false) #8
  %20 = getelementptr inbounds %"class.v8::FunctionCallbackInfo", %"class.v8::FunctionCallbackInfo"* %0, i64 0, i32 2
  %21 = load i32, i32* %20, align 8
  %22 = icmp slt i32 %21, 1
  br i1 %22, label %23, label %43, !prof !3

23:                                               ; preds = %1
  %24 = bitcast %"class.WTF::String"* %3 to i8*
  call void @llvm.lifetime.start.p0i8(i64 8, i8* nonnull %24) #8
  %25 = tail call %"class.WTF::StringImpl"* @_ZN5blink17ExceptionMessages18NotEnoughArgumentsEjj(i32 1, i32 %21) #8
  %26 = getelementptr inbounds %"class.WTF::String", %"class.WTF::String"* %3, i64 0, i32 0, i32 0
  store %"class.WTF::StringImpl"* %25, %"class.WTF::StringImpl"** %26, align 8
  call void @_ZN5blink14ExceptionState14ThrowTypeErrorERKN3WTF6StringE(%"class.blink::ExceptionState"* nonnull %2, %"class.WTF::String"* nonnull dereferenceable(8) %3) #8
  %27 = load %"class.WTF::StringImpl"*, %"class.WTF::StringImpl"** %26, align 8
  %28 = icmp eq %"class.WTF::StringImpl"* %27, null
  br i1 %28, label %42, label %29

29:                                               ; preds = %23
  %30 = getelementptr inbounds %"class.WTF::StringImpl", %"class.WTF::StringImpl"* %27, i64 0, i32 2, i32 0, i32 0, i32 0, i32 0, i32 0
  %31 = load atomic i32, i32* %30 monotonic, align 4
  %32 = and i32 %31, 2
  %33 = icmp eq i32 %32, 0
  %34 = getelementptr inbounds %"class.WTF::StringImpl", %"class.WTF::StringImpl"* %27, i64 0, i32 0
  %35 = load i32, i32* %34, align 4
  br i1 %33, label %36, label %38

36:                                               ; preds = %29
  %37 = add i32 %35, -1
  store i32 %37, i32* %34, align 4
  br label %38

38:                                               ; preds = %36, %29
  %39 = phi i32 [ %37, %36 ], [ %35, %29 ]
  %40 = icmp eq i32 %39, 0
  br i1 %40, label %41, label %42

41:                                               ; preds = %38
  call void @_ZNK3WTF10StringImpl18DestroyIfNotStaticEv(%"class.WTF::StringImpl"* nonnull %27) #8
  br label %42

42:                                               ; preds = %23, %38, %41
  call void @llvm.lifetime.end.p0i8(i64 8, i8* nonnull %24) #8
  br label %113

43:                                               ; preds = %1
  %44 = getelementptr inbounds %"class.v8::FunctionCallbackInfo", %"class.v8::FunctionCallbackInfo"* %0, i64 0, i32 1
  %45 = load i64*, i64** %44, align 8
  %46 = getelementptr inbounds i64, i64* %45, i64 -1
  %47 = load i64, i64* %46, align 8
  %48 = add i64 %47, -1
  %49 = inttoptr i64 %48 to i32*
  %50 = load i32, i32* %49, align 4
  %51 = and i64 %47, -4294967296
  %52 = zext i32 %50 to i64
  %53 = or i64 %51, %52
  %54 = add i64 %53, 7
  %55 = inttoptr i64 %54 to i16*
  %56 = load i16, i16* %55, align 2
  switch i16 %56, label %61 [
    i16 1057, label %57
    i16 1056, label %57
    i16 1040, label %57
  ]

57:                                               ; preds = %43, %43, %43
  %58 = add i64 %47, 19
  %59 = inttoptr i64 %58 to %"class.blink::MediaStream"**
  %60 = load %"class.blink::MediaStream"*, %"class.blink::MediaStream"** %59, align 1
  br label %73

61:                                               ; preds = %43
  %62 = bitcast i64* %46 to %"class.v8::Object"*
  %63 = tail call i8* @_ZN2v86Object38SlowGetAlignedPointerFromInternalFieldEi(%"class.v8::Object"* %62, i32 1) #8
  %64 = load i32, i32* %20, align 8
  %65 = bitcast i8* %63 to %"class.blink::MediaStream"*
  %66 = icmp sgt i32 %64, 0
  br i1 %66, label %73, label %67

67:                                               ; preds = %61
  %68 = load i64*, i64** %4, align 8
  %69 = getelementptr inbounds i64, i64* %68, i64 1
  %70 = load i64, i64* %69, align 8
  %71 = add i64 %70, 160
  %72 = inttoptr i64 %71 to %"class.v8::Value"*
  br label %77

73:                                               ; preds = %57, %61
  %74 = phi %"class.blink::MediaStream"* [ %60, %57 ], [ %65, %61 ]
  %75 = bitcast i64** %44 to %"class.v8::Value"**
  %76 = load %"class.v8::Value"*, %"class.v8::Value"** %75, align 8
  br label %77

77:                                               ; preds = %67, %73
  %78 = phi %"class.blink::MediaStream"* [ %65, %67 ], [ %74, %73 ]
  %79 = phi %"class.v8::Value"* [ %72, %67 ], [ %76, %73 ]
  %80 = load %"struct.blink::WrapperTypeInfo"*, %"struct.blink::WrapperTypeInfo"** @_ZN5blink16MediaStreamTrack18wrapper_type_info_E, align 8
  %81 = ptrtoint %"class.v8::Isolate"* %8 to i64
  %82 = add i64 %81, 8
  %83 = inttoptr i64 %82 to %"class.blink::V8PerIsolateData"**
  %84 = load %"class.blink::V8PerIsolateData"*, %"class.blink::V8PerIsolateData"** %83, align 8
  %85 = tail call zeroext i1 @_ZN5blink16V8PerIsolateData11HasInstanceEPKNS_15WrapperTypeInfoEN2v85LocalINS4_5ValueEEE(%"class.blink::V8PerIsolateData"* %84, %"struct.blink::WrapperTypeInfo"* %80, %"class.v8::Value"* %79) #8
  br i1 %85, label %86, label %108

86:                                               ; preds = %77
  %87 = bitcast %"class.v8::Value"* %79 to i64*
  %88 = load i64, i64* %87, align 8
  %89 = add i64 %88, -1
  %90 = inttoptr i64 %89 to i32*
  %91 = load i32, i32* %90, align 4
  %92 = and i64 %88, -4294967296
  %93 = zext i32 %91 to i64
  %94 = or i64 %92, %93
  %95 = add i64 %94, 7
  %96 = inttoptr i64 %95 to i16*
  %97 = load i16, i16* %96, align 2
  switch i16 %97, label %102 [
    i16 1057, label %98
    i16 1056, label %98
    i16 1040, label %98
  ]

98:                                               ; preds = %86, %86, %86
  %99 = add i64 %88, 19
  %100 = inttoptr i64 %99 to i8**
  %101 = load i8*, i8** %100, align 1
  br label %105

102:                                              ; preds = %86
  %103 = bitcast %"class.v8::Value"* %79 to %"class.v8::Object"*
  %104 = tail call i8* @_ZN2v86Object38SlowGetAlignedPointerFromInternalFieldEi(%"class.v8::Object"* %103, i32 1) #8
  br label %105

105:                                              ; preds = %98, %102
  %106 = phi i8* [ %101, %98 ], [ %104, %102 ]
  %107 = bitcast i8* %106 to %"class.blink::MediaStreamTrack"*
  br label %111

108:                                              ; preds = %77
  call void @_ZN5blink8bindings35NativeValueTraitsInterfaceNotOfTypeEPKNS_15WrapperTypeInfoEiRNS_14ExceptionStateE(%"struct.blink::WrapperTypeInfo"* %80, i32 0, %"class.blink::ExceptionState"* nonnull dereferenceable(72) %2) #8
  %109 = load i32, i32* %17, align 8
  %110 = icmp eq i32 %109, 0
  br i1 %110, label %111, label %113

111:                                              ; preds = %105, %108
  %112 = phi %"class.blink::MediaStreamTrack"* [ %107, %105 ], [ null, %108 ]
  call void @_ZN5blink11MediaStream11removeTrackEPNS_16MediaStreamTrackERNS_14ExceptionStateE(%"class.blink::MediaStream"* %78, %"class.blink::MediaStreamTrack"* %112, %"class.blink::ExceptionState"* nonnull dereferenceable(72) %2) #8
  br label %113

113:                                              ; preds = %108, %111, %42
  store i32 (...)** bitcast (i8** getelementptr inbounds ({ [9 x i8*] }, { [9 x i8*] }* @_ZTVN5blink14ExceptionStateE, i64 0, inrange i32 0, i64 2) to i32 (...)**), i32 (...)*** %10, align 8
  %114 = getelementptr inbounds %"class.blink::ExceptionState", %"class.blink::ExceptionState"* %2, i64 0, i32 6, i32 0, i32 0, i32 0, i32 0
  %115 = load i64*, i64** %114, align 8
  %116 = icmp eq i64* %115, null
  br i1 %116, label %126, label %117

117:                                              ; preds = %113
  %118 = load %"class.v8::Isolate"*, %"class.v8::Isolate"** %16, align 8
  %119 = bitcast %"class.v8::Isolate"* %118 to %"class.v8::internal::Isolate"*
  %120 = load i64, i64* %115, align 8
  %121 = call i64* @_ZN2v811HandleScope12CreateHandleEPNS_8internal7IsolateEm(%"class.v8::internal::Isolate"* %119, i64 %120) #8
  %122 = call zeroext i1 @_ZN2v87Isolate22IsExecutionTerminatingEv(%"class.v8::Isolate"* %118) #8
  br i1 %122, label %126, label %123

123:                                              ; preds = %117
  %124 = bitcast i64* %121 to %"class.v8::Value"*
  %125 = call %"class.v8::Value"* @_ZN2v87Isolate14ThrowExceptionENS_5LocalINS_5ValueEEE(%"class.v8::Isolate"* %118, %"class.v8::Value"* %124) #8
  br label %126

126:                                              ; preds = %123, %117, %113
  %127 = load %"class.WTF::StringImpl"*, %"class.WTF::StringImpl"** %18, align 8
  %128 = icmp eq %"class.WTF::StringImpl"* %127, null
  br i1 %128, label %142, label %129

129:                                              ; preds = %126
  %130 = getelementptr inbounds %"class.WTF::StringImpl", %"class.WTF::StringImpl"* %127, i64 0, i32 2, i32 0, i32 0, i32 0, i32 0, i32 0
  %131 = load atomic i32, i32* %130 monotonic, align 4
  %132 = and i32 %131, 2
  %133 = icmp eq i32 %132, 0
  %134 = getelementptr inbounds %"class.WTF::StringImpl", %"class.WTF::StringImpl"* %127, i64 0, i32 0
  %135 = load i32, i32* %134, align 4
  br i1 %133, label %136, label %138

136:                                              ; preds = %129
  %137 = add i32 %135, -1
  store i32 %137, i32* %134, align 4
  br label %138

138:                                              ; preds = %136, %129
  %139 = phi i32 [ %137, %136 ], [ %135, %129 ]
  %140 = icmp eq i32 %139, 0
  br i1 %140, label %141, label %142

141:                                              ; preds = %138
  call void @_ZNK3WTF10StringImpl18DestroyIfNotStaticEv(%"class.WTF::StringImpl"* nonnull %127) #8
  br label %142

142:                                              ; preds = %126, %138, %141
  call void @llvm.lifetime.end.p0i8(i64 72, i8* nonnull %9) #8
  ret void
}

declare void @_ZN5blink8bindings18IDLMemberInstaller17InstallOperationsEPN2v87IsolateERKNS_15DOMWrapperWorldENS2_5LocalINS2_8TemplateEEESA_SA_NS8_INS2_9SignatureEEEN4base4spanIKNS1_15OperationConfigELm18446744073709551615EEE(%"class.v8::Isolate"*, %"class.blink::DOMWrapperWorld"* dereferenceable(32), %"class.v8::Template"*, %"class.v8::Template"*, %"class.v8::Template"*, %"class.v8::Signature"*, %"class.base::span.182"* byval(%"class.base::span.182") align 8) local_unnamed_addr #2

; Function Attrs: argmemonly nounwind
declare void @llvm.memset.p0i8.i64(i8* nocapture writeonly, i8, i64, i1 immarg) #1

declare void @_ZN5blink14ExceptionState14ThrowTypeErrorERKN3WTF6StringE(%"class.blink::ExceptionState"*, %"class.WTF::String"* dereferenceable(8)) unnamed_addr #2

declare %"class.WTF::StringImpl"* @_ZN5blink17ExceptionMessages27ConstructorCalledAsFunctionEv() local_unnamed_addr #2

declare zeroext i1 @_ZNK2v85Value7IsArrayEv(%"class.v8::Value"*) local_unnamed_addr #2

declare zeroext i1 @_ZN5blink8bindings18IsEsIterableObjectEPN2v87IsolateENS1_5LocalINS1_5ValueEEERNS_14ExceptionStateE(%"class.v8::Isolate"*, %"class.v8::Value"*, %"class.blink::ExceptionState"* dereferenceable(72)) local_unnamed_addr #2

declare void @_ZN5blink14ExceptionState14ThrowTypeErrorEPKc(%"class.blink::ExceptionState"*, i8*) local_unnamed_addr #2

declare void @_ZNK3WTF10StringImpl18DestroyIfNotStaticEv(%"class.WTF::StringImpl"*) local_unnamed_addr #2

declare zeroext i1 @_ZN5blink16V8PerIsolateData11HasInstanceEPKNS_15WrapperTypeInfoEN2v85LocalINS4_5ValueEEE(%"class.blink::V8PerIsolateData"*, %"struct.blink::WrapperTypeInfo"*, %"class.v8::Value"*) local_unnamed_addr #2

declare %"class.WTF::StringImpl"* @_ZN5blink17ExceptionMessages18NotEnoughArgumentsEjj(i32, i32) local_unnamed_addr #2

declare %"class.v8::Context"* @_ZN2v87Isolate17GetCurrentContextEv(%"class.v8::Isolate"*) local_unnamed_addr #2

declare %"class.blink::ExecutionContext"* @_ZN5blink16ExecutionContext4FromEN2v85LocalINS1_7ContextEEE(%"class.v8::Context"*) local_unnamed_addr #2

declare %"class.blink::MediaStream"* @_ZN5blink11MediaStream6CreateEPNS_16ExecutionContextEPS0_(%"class.blink::ExecutionContext"*, %"class.blink::MediaStream"*) local_unnamed_addr #2

declare %"class.v8::Object"* @_ZN5blink15ScriptWrappable20AssociateWithWrapperEPN2v87IsolateEPKNS_15WrapperTypeInfoENS1_5LocalINS1_6ObjectEEE(%"class.blink::ScriptWrappable"*, %"class.v8::Isolate"*, %"struct.blink::WrapperTypeInfo"*, %"class.v8::Object"*) unnamed_addr #2

declare void @_ZN5blink8bindings35NativeValueTraitsInterfaceNotOfTypeEPKNS_15WrapperTypeInfoEiRNS_14ExceptionStateE(%"struct.blink::WrapperTypeInfo"*, i32, %"class.blink::ExceptionState"* dereferenceable(72)) local_unnamed_addr #2

declare i8* @_ZN2v86Object38SlowGetAlignedPointerFromInternalFieldEi(%"class.v8::Object"*, i32) local_unnamed_addr #2

declare %"class.blink::MediaStream"* @_ZN5blink11MediaStream6CreateEPNS_16ExecutionContextERKNS_10HeapVectorINS_6MemberINS_16MediaStreamTrackEEELj0EEE(%"class.blink::ExecutionContext"*, %"class.blink::HeapVector.419"* dereferenceable(16)) local_unnamed_addr #2

; Function Attrs: nounwind ssp uwtable
define linkonce_odr hidden void @_ZN5blink17NativeValueTraitsINS_11IDLSequenceINS_16MediaStreamTrackEEEvE11NativeValueEPN2v87IsolateENS5_5LocalINS5_5ValueEEERNS_14ExceptionStateE(%"class.blink::HeapVector.419"* noalias sret, %"class.v8::Isolate"*, %"class.v8::Value"*, %"class.blink::ExceptionState"* dereferenceable(72)) local_unnamed_addr #0 comdat align 2 {
  %5 = alloca %"class.blink::ScriptIterator", align 8
  %6 = tail call zeroext i1 @_ZNK2v85Value7IsArrayEv(%"class.v8::Value"* %2) #8
  br i1 %6, label %7, label %9

7:                                                ; preds = %4
  %8 = bitcast %"class.v8::Value"* %2 to %"class.v8::Array"*
  tail call void @_ZN5blink8bindings28CreateIDLSequenceFromV8ArrayINS_16MediaStreamTrackEEENS_17NativeValueTraitsINS_11IDLSequenceIT_EEvE8ImplTypeEPN2v87IsolateENS9_5LocalINS9_5ArrayEEERNS_14ExceptionStateE(%"class.blink::HeapVector.419"* sret %0, %"class.v8::Isolate"* %1, %"class.v8::Array"* %8, %"class.blink::ExceptionState"* dereferenceable(72) %3)
  br label %29

9:                                                ; preds = %4
  %10 = tail call zeroext i1 @_ZNK2v85Value8IsObjectEv(%"class.v8::Value"* %2) #8
  br i1 %10, label %13, label %11

11:                                               ; preds = %9
  tail call void @_ZN5blink14ExceptionState14ThrowTypeErrorEPKc(%"class.blink::ExceptionState"* %3, i8* getelementptr inbounds ([54 x i8], [54 x i8]* @.str.15, i64 0, i64 0)) #8
  %12 = bitcast %"class.blink::HeapVector.419"* %0 to i8*
  call void @llvm.memset.p0i8.i64(i8* align 8 %12, i8 0, i64 16, i1 false)
  br label %29

13:                                               ; preds = %9
  %14 = bitcast %"class.blink::ScriptIterator"* %5 to i8*
  call void @llvm.lifetime.start.p0i8(i64 56, i8* nonnull %14) #8
  call void @llvm.memset.p0i8.i64(i8* nonnull align 8 %14, i8 -86, i64 56, i1 false)
  %15 = bitcast %"class.v8::Value"* %2 to %"class.v8::Object"*
  call void @_ZN5blink14ScriptIterator12FromIterableEPN2v87IsolateENS1_5LocalINS1_6ObjectEEERNS_14ExceptionStateE(%"class.blink::ScriptIterator"* nonnull sret %5, %"class.v8::Isolate"* %1, %"class.v8::Object"* %15, %"class.blink::ExceptionState"* dereferenceable(72) %3) #8
  %16 = getelementptr inbounds %"class.blink::ExceptionState", %"class.blink::ExceptionState"* %3, i64 0, i32 4
  %17 = load i32, i32* %16, align 8
  %18 = icmp eq i32 %17, 0
  br i1 %18, label %21, label %19

19:                                               ; preds = %13
  %20 = bitcast %"class.blink::HeapVector.419"* %0 to i8*
  call void @llvm.memset.p0i8.i64(i8* align 8 %20, i8 0, i64 16, i1 false)
  br label %28

21:                                               ; preds = %13
  %22 = getelementptr inbounds %"class.blink::ScriptIterator", %"class.blink::ScriptIterator"* %5, i64 0, i32 1, i32 0
  %23 = load %"class.v8::Object"*, %"class.v8::Object"** %22, align 8
  %24 = icmp eq %"class.v8::Object"* %23, null
  br i1 %24, label %25, label %27

25:                                               ; preds = %21
  call void @_ZN5blink14ExceptionState14ThrowTypeErrorEPKc(%"class.blink::ExceptionState"* %3, i8* getelementptr inbounds ([53 x i8], [53 x i8]* @.str.16, i64 0, i64 0)) #8
  %26 = bitcast %"class.blink::HeapVector.419"* %0 to i8*
  call void @llvm.memset.p0i8.i64(i8* align 8 %26, i8 0, i64 16, i1 false)
  br label %28

27:                                               ; preds = %21
  call void @_ZN5blink8bindings29CreateIDLSequenceFromIteratorINS_16MediaStreamTrackEEENS_17NativeValueTraitsINS_11IDLSequenceIT_EEvE8ImplTypeEPN2v87IsolateENS_14ScriptIteratorERNS_14ExceptionStateE(%"class.blink::HeapVector.419"* sret %0, %"class.v8::Isolate"* %1, %"class.blink::ScriptIterator"* nonnull byval(%"class.blink::ScriptIterator") align 8 %5, %"class.blink::ExceptionState"* dereferenceable(72) %3)
  br label %28

28:                                               ; preds = %27, %25, %19
  call void @llvm.lifetime.end.p0i8(i64 56, i8* nonnull %14) #8
  br label %29

29:                                               ; preds = %28, %11, %7
  ret void
}

; Function Attrs: nounwind ssp uwtable
define linkonce_odr hidden void @_ZN5blink8bindings28CreateIDLSequenceFromV8ArrayINS_16MediaStreamTrackEEENS_17NativeValueTraitsINS_11IDLSequenceIT_EEvE8ImplTypeEPN2v87IsolateENS9_5LocalINS9_5ArrayEEERNS_14ExceptionStateE(%"class.blink::HeapVector.419"* noalias sret, %"class.v8::Isolate"*, %"class.v8::Array"*, %"class.blink::ExceptionState"* dereferenceable(72)) local_unnamed_addr #0 comdat {
  %5 = alloca %"class.blink::HeapVector.419", align 8
  %6 = alloca %"class.v8::TryCatch", align 8
  %7 = alloca %"class.blink::MediaStreamTrack"*, align 8
  %8 = tail call i32 @_ZNK2v85Array6LengthEv(%"class.v8::Array"* %2) #8
  %9 = zext i32 %8 to i64
  %10 = icmp ugt i32 %8, 16777216
  br i1 %10, label %11, label %13

11:                                               ; preds = %4
  tail call void @_ZN5blink14ExceptionState15ThrowRangeErrorEPKc(%"class.blink::ExceptionState"* %3, i8* getelementptr inbounds ([38 x i8], [38 x i8]* @.str.17, i64 0, i64 0)) #8
  %12 = bitcast %"class.blink::HeapVector.419"* %0 to i8*
  call void @llvm.memset.p0i8.i64(i8* align 8 %12, i8 0, i64 16, i1 false)
  br label %143

13:                                               ; preds = %4
  %14 = bitcast %"class.blink::HeapVector.419"* %5 to i8*
  call void @llvm.lifetime.start.p0i8(i64 16, i8* nonnull %14) #8
  %15 = getelementptr inbounds %"class.blink::HeapVector.419", %"class.blink::HeapVector.419"* %5, i64 0, i32 0, i32 0, i32 0, i32 0
  %16 = getelementptr inbounds %"class.blink::HeapVector.419", %"class.blink::HeapVector.419"* %5, i64 0, i32 0, i32 0, i32 0, i32 1
  %17 = getelementptr inbounds %"class.blink::HeapVector.419", %"class.blink::HeapVector.419"* %5, i64 0, i32 0, i32 0, i32 0, i32 2
  call void @llvm.memset.p0i8.i64(i8* nonnull align 8 %14, i8 0, i64 16, i1 false) #8
  %18 = getelementptr inbounds %"class.blink::HeapVector.419", %"class.blink::HeapVector.419"* %5, i64 0, i32 0
  %19 = icmp eq i32 %8, 0
  br i1 %19, label %32, label %20

20:                                               ; preds = %13
  %21 = tail call i64 @_ZN5blink13HeapAllocator13QuantizedSizeINS_6MemberINS_16MediaStreamTrackEEEEEmm(i64 %9) #8
  %22 = lshr i64 %21, 3
  %23 = tail call %"class.blink::HeapVectorBacking"* @_ZN5blink25MakeGarbageCollectedTraitINS_17HeapVectorBackingINS_6MemberINS_16MediaStreamTrackEEEN3WTF12VectorTraitsIS4_EEEEE4CallEm(i64 %22) #8
  %24 = ptrtoint %"class.blink::HeapVectorBacking"* %23 to i64
  %25 = bitcast %"class.blink::HeapVector.419"* %5 to i64*
  store atomic i64 %24, i64* %25 monotonic, align 8
  %26 = trunc i64 %22 to i32
  store i32 %26, i32* %16, align 8
  %27 = load atomic i32, i32* getelementptr inbounds (%"class.blink::AtomicEntryFlag", %"class.blink::AtomicEntryFlag"* @_ZN5blink11ThreadState25incremental_marking_flag_E, i64 0, i32 0, i32 0, i32 0, i32 0, i32 0, i32 0) monotonic, align 4
  %28 = icmp eq i32 %27, 0
  br i1 %28, label %32, label %29

29:                                               ; preds = %20
  %30 = getelementptr inbounds %"class.blink::HeapVectorBacking", %"class.blink::HeapVectorBacking"* %23, i64 0, i32 0
  %31 = tail call zeroext i1 @_ZN5blink14MarkingVisitor16WriteBarrierSlowEPv(i8* %30) #8
  br label %32

32:                                               ; preds = %13, %20, %29
  %33 = phi i32 [ 0, %13 ], [ %26, %20 ], [ %26, %29 ]
