; ModuleID = 'gen/third_party/blink/renderer/bindings/core/v8/v8_promise_rejection_event.cc'
source_filename = "gen/third_party/blink/renderer/bindings/core/v8/v8_promise_rejection_event.cc"
target datalayout = "e-m:e-i64:64-f80:128-n8:16:32:64-S128"
target triple = "x86_64-unknown-linux-gnu"

module asm ".symver exp, exp@GLIBC_2.2.5"
module asm ".symver exp2, exp2@GLIBC_2.2.5"
module asm ".symver exp2f, exp2f@GLIBC_2.2.5"
module asm ".symver expf, expf@GLIBC_2.2.5"
module asm ".symver lgamma, lgamma@GLIBC_2.2.5"
module asm ".symver lgammaf, lgammaf@GLIBC_2.2.5"
module asm ".symver lgammal, lgammal@GLIBC_2.2.5"
module asm ".symver log, log@GLIBC_2.2.5"
module asm ".symver log2, log2@GLIBC_2.2.5"
module asm ".symver log2f, log2f@GLIBC_2.2.5"
module asm ".symver logf, logf@GLIBC_2.2.5"
module asm ".symver pow, pow@GLIBC_2.2.5"
module asm ".symver powf, powf@GLIBC_2.2.5"

%"struct.blink::WrapperTypeInfo" = type { i16, void (%"class.v8::Isolate"*, %"class.blink::DOMWrapperWorld"*, %"class.v8::Template"*)*, void (%"class.v8::Context"*, %"class.blink::DOMWrapperWorld"*, %"class.v8::Object"*, %"class.v8::Object"*, %"class.v8::Object"*, %"class.v8::Template"*, i64)*, i8*, %"struct.blink::WrapperTypeInfo"*, i8 }
%"class.v8::Isolate" = type { i8 }
%"class.blink::DOMWrapperWorld" = type { %"class.WTF::RefCounted", i32, i32, %"class.blink::Persistent" }
%"class.WTF::RefCounted" = type { %"class.base::RefCounted" }
%"class.base::RefCounted" = type { %"class.base::subtle::RefCountedBase" }
%"class.base::subtle::RefCountedBase" = type { i32 }
%"class.blink::Persistent" = type { %"class.blink::PersistentBase" }
%"class.blink::PersistentBase" = type { %"class.blink::DOMDataStore"*, %"class.blink::PersistentNodePtr" }
%"class.blink::DOMDataStore" = type { i32 (...)**, i8, [7 x i8], %"class.blink::HeapHashMap" }
%"class.blink::HeapHashMap" = type { %"class.WTF::HashMap" }
%"class.WTF::HashMap" = type { %"class.WTF::HashTable" }
%"class.WTF::HashTable" = type <{ %"struct.WTF::KeyValuePair"*, i32, i32, i32, [4 x i8] }>
%"struct.WTF::KeyValuePair" = type { %"class.blink::WeakMember", %"class.blink::TraceWrapperV8Reference" }
%"class.blink::WeakMember" = type { %"class.blink::MemberBase" }
%"class.blink::MemberBase" = type { %"class.blink::ScriptWrappable"* }
%"class.blink::ScriptWrappable" = type { %"class.blink::NameClient", %"class.blink::TraceWrapperV8Reference" }
%"class.blink::NameClient" = type { i32 (...)** }
%"class.blink::TraceWrapperV8Reference" = type { %"class.v8::TracedReference" }
%"class.v8::TracedReference" = type { %"class.v8::BasicTracedReference" }
%"class.v8::BasicTracedReference" = type { %"class.v8::TracedReferenceBase" }
%"class.v8::TracedReferenceBase" = type { i64* }
%"class.blink::PersistentNodePtr" = type { %"class.blink::PersistentNode"* }
%"class.blink::PersistentNode" = type { i8*, void (%"class.blink::Visitor"*, i8*)* }
%"class.blink::Visitor" = type { i32 (...)**, %"class.blink::ThreadState"* }
%"class.blink::ThreadState" = type <{ %"class.std::__1::unique_ptr", i32, [4 x i8], %"class.std::__1::unique_ptr.127", %"class.std::__1::unique_ptr.127", i8**, i8, i8, i8, i8, i8, i8, [2 x i8], i64, i64, i32, i32, i32, [4 x i8], %"class.WTF::Deque", %"class.v8::Isolate"*, void (%"class.v8::Isolate"*, %"class.v8::EmbedderGraph"*, i8*)*, %"class.std::__1::unique_ptr.137", %"class.std::__1::unique_ptr.143", %"struct.blink::ThreadState::GCData", %"class.std::__1::unique_ptr.155", %"class.std::__1::unique_ptr.161", %"class.base::JobHandle", %"class.base::JobHandle", %"struct.std::__1::atomic.167", [7 x i8], i64, i8, [7 x i8], i64, %"class.base::TimeTicks", i8, i8, [6 x i8] }>
%"class.std::__1::unique_ptr" = type { %"class.std::__1::__compressed_pair" }
%"class.std::__1::__compressed_pair" = type { %"struct.std::__1::__compressed_pair_elem" }
%"struct.std::__1::__compressed_pair_elem" = type { %"class.blink::ThreadHeap"* }
%"class.blink::ThreadHeap" = type { %"class.blink::ThreadState"*, %"class.std::__1::unique_ptr.4", %"class.std::__1::unique_ptr.8", %"class.std::__1::unique_ptr.14", %"class.std::__1::unique_ptr.20", %"class.std::__1::unique_ptr.26", %"class.std::__1::unique_ptr.32", %"class.std::__1::unique_ptr.39", %"class.std::__1::unique_ptr.46", %"class.std::__1::unique_ptr.46", %"class.std::__1::unique_ptr.53", %"class.std::__1::unique_ptr.60", %"class.std::__1::unique_ptr.67", %"class.std::__1::unique_ptr.67", %"class.std::__1::unique_ptr.74", %"class.std::__1::unique_ptr.81", %"class.std::__1::unique_ptr.88", %"class.std::__1::unique_ptr.111", %"struct.blink::ThreadHeap::LastAllocatedRegion", [9 x %"class.blink::BaseArena"*], i64, i64 }
%"class.std::__1::unique_ptr.4" = type { %"class.std::__1::__compressed_pair.5" }
%"class.std::__1::__compressed_pair.5" = type { %"struct.std::__1::__compressed_pair_elem.6" }
%"struct.std::__1::__compressed_pair_elem.6" = type { %"class.blink::ThreadHeapStatsCollector"* }
%"class.blink::ThreadHeapStatsCollector" = type opaque
%"class.std::__1::unique_ptr.8" = type { %"class.std::__1::__compressed_pair.9" }
%"class.std::__1::__compressed_pair.9" = type { %"struct.std::__1::__compressed_pair_elem.10" }
%"struct.std::__1::__compressed_pair_elem.10" = type { %"class.blink::RegionTree"* }
%"class.blink::RegionTree" = type opaque
%"class.std::__1::unique_ptr.14" = type { %"class.std::__1::__compressed_pair.15" }
%"class.std::__1::__compressed_pair.15" = type { %"struct.std::__1::__compressed_pair_elem.16" }
%"struct.std::__1::__compressed_pair_elem.16" = type { %"class.blink::PageBloomFilter"* }
%"class.blink::PageBloomFilter" = type opaque
%"class.std::__1::unique_ptr.20" = type { %"class.std::__1::__compressed_pair.21" }
%"class.std::__1::__compressed_pair.21" = type { %"struct.std::__1::__compressed_pair_elem.22" }
%"struct.std::__1::__compressed_pair_elem.22" = type { %"class.blink::PagePool"* }
%"class.blink::PagePool" = type opaque
%"class.std::__1::unique_ptr.26" = type { %"class.std::__1::__compressed_pair.27" }
%"class.std::__1::__compressed_pair.27" = type { %"struct.std::__1::__compressed_pair_elem.28" }
%"struct.std::__1::__compressed_pair_elem.28" = type { %"class.blink::ProcessHeapReporter"* }
%"class.blink::ProcessHeapReporter" = type opaque
%"class.std::__1::unique_ptr.32" = type { %"class.std::__1::__compressed_pair.33" }
%"class.std::__1::__compressed_pair.33" = type { %"struct.std::__1::__compressed_pair_elem.34" }
%"struct.std::__1::__compressed_pair_elem.34" = type { %"class.blink::Worklist"* }
%"class.blink::Worklist" = type { [4 x %"struct.blink::Worklist<blink::TraceDescriptor, 512, 4>::PrivateSegmentHolder"], %"class.blink::Worklist<blink::TraceDescriptor, 512, 4>::GlobalPool" }
%"struct.blink::Worklist<blink::TraceDescriptor, 512, 4>::PrivateSegmentHolder" = type { %"class.blink::Worklist<blink::TraceDescriptor, 512, 4>::Segment"*, %"class.blink::Worklist<blink::TraceDescriptor, 512, 4>::Segment"*, [64 x i8] }
%"class.blink::Worklist<blink::TraceDescriptor, 512, 4>::Segment" = type { %"class.blink::Worklist<blink::TraceDescriptor, 512, 4>::Segment"*, i64, [512 x %"struct.blink::TraceDescriptor"] }
%"struct.blink::TraceDescriptor" = type { i8*, void (%"class.blink::Visitor"*, i8*)* }
%"class.blink::Worklist<blink::TraceDescriptor, 512, 4>::GlobalPool" = type { %"class.base::Lock", %"class.blink::Worklist<blink::TraceDescriptor, 512, 4>::Segment"*, %"struct.std::__1::atomic" }
%"class.base::Lock" = type { %"class.base::internal::LockImpl" }
%"class.base::internal::LockImpl" = type { %union.pthread_mutex_t }
%union.pthread_mutex_t = type { %struct.__pthread_mutex_s }
%struct.__pthread_mutex_s = type { i32, i32, i32, i32, i32, i16, i16, %struct.__pthread_internal_list }
%struct.__pthread_internal_list = type { %struct.__pthread_internal_list*, %struct.__pthread_internal_list* }
%"struct.std::__1::atomic" = type { %"struct.std::__1::__atomic_base" }
%"struct.std::__1::__atomic_base" = type { %"struct.std::__1::__atomic_base.35" }
%"struct.std::__1::__atomic_base.35" = type { %"struct.std::__1::__cxx_atomic_impl" }
%"struct.std::__1::__cxx_atomic_impl" = type { %"struct.std::__1::__cxx_atomic_base_impl" }
%"struct.std::__1::__cxx_atomic_base_impl" = type { i64 }
%"class.std::__1::unique_ptr.39" = type { %"class.std::__1::__compressed_pair.40" }
%"class.std::__1::__compressed_pair.40" = type { %"struct.std::__1::__compressed_pair_elem.41" }
%"struct.std::__1::__compressed_pair_elem.41" = type { %"class.blink::Worklist.42"* }
%"class.blink::Worklist.42" = type { [4 x %"struct.blink::Worklist<blink::HeapObjectHeader *, 64, 4>::PrivateSegmentHolder"], %"class.blink::Worklist<blink::HeapObjectHeader *, 64, 4>::GlobalPool" }
%"struct.blink::Worklist<blink::HeapObjectHeader *, 64, 4>::PrivateSegmentHolder" = type { %"class.blink::Worklist<blink::HeapObjectHeader *, 64, 4>::Segment"*, %"class.blink::Worklist<blink::HeapObjectHeader *, 64, 4>::Segment"*, [64 x i8] }
%"class.blink::Worklist<blink::HeapObjectHeader *, 64, 4>::Segment" = type opaque
%"class.blink::Worklist<blink::HeapObjectHeader *, 64, 4>::GlobalPool" = type { %"class.base::Lock", %"class.blink::Worklist<blink::HeapObjectHeader *, 64, 4>::Segment"*, %"struct.std::__1::atomic" }
%"class.std::__1::unique_ptr.46" = type { %"class.std::__1::__compressed_pair.47" }
%"class.std::__1::__compressed_pair.47" = type { %"struct.std::__1::__compressed_pair_elem.48" }
%"struct.std::__1::__compressed_pair_elem.48" = type { %"class.blink::Worklist.49"* }
%"class.blink::Worklist.49" = type { [4 x %"struct.blink::Worklist<const void *, 16, 4>::PrivateSegmentHolder"], %"class.blink::Worklist<const void *, 16, 4>::GlobalPool" }
%"struct.blink::Worklist<const void *, 16, 4>::PrivateSegmentHolder" = type { %"class.blink::Worklist<const void *, 16, 4>::Segment"*, %"class.blink::Worklist<const void *, 16, 4>::Segment"*, [64 x i8] }
%"class.blink::Worklist<const void *, 16, 4>::Segment" = type { %"class.blink::Worklist<const void *, 16, 4>::Segment"*, i64, [16 x i8*] }
%"class.blink::Worklist<const void *, 16, 4>::GlobalPool" = type { %"class.base::Lock", %"class.blink::Worklist<const void *, 16, 4>::Segment"*, %"struct.std::__1::atomic" }
%"class.std::__1::unique_ptr.53" = type { %"class.std::__1::__compressed_pair.54" }
%"class.std::__1::__compressed_pair.54" = type { %"struct.std::__1::__compressed_pair_elem.55" }
%"struct.std::__1::__compressed_pair_elem.55" = type { %"class.blink::Worklist.56"* }
%"class.blink::Worklist.56" = type { [4 x %"struct.blink::Worklist<blink::CustomCallbackItem, 64, 4>::PrivateSegmentHolder"], %"class.blink::Worklist<blink::CustomCallbackItem, 64, 4>::GlobalPool" }
%"struct.blink::Worklist<blink::CustomCallbackItem, 64, 4>::PrivateSegmentHolder" = type { %"class.blink::Worklist<blink::CustomCallbackItem, 64, 4>::Segment"*, %"class.blink::Worklist<blink::CustomCallbackItem, 64, 4>::Segment"*, [64 x i8] }
%"class.blink::Worklist<blink::CustomCallbackItem, 64, 4>::Segment" = type opaque
%"class.blink::Worklist<blink::CustomCallbackItem, 64, 4>::GlobalPool" = type { %"class.base::Lock", %"class.blink::Worklist<blink::CustomCallbackItem, 64, 4>::Segment"*, %"struct.std::__1::atomic" }
%"class.std::__1::unique_ptr.60" = type { %"class.std::__1::__compressed_pair.61" }
%"class.std::__1::__compressed_pair.61" = type { %"struct.std::__1::__compressed_pair_elem.62" }
%"struct.std::__1::__compressed_pair_elem.62" = type { %"class.blink::Worklist.63"* }
%"class.blink::Worklist.63" = type { [4 x %"struct.blink::Worklist<const void *const *, 256, 4>::PrivateSegmentHolder"], %"class.blink::Worklist<const void *const *, 256, 4>::GlobalPool" }
%"struct.blink::Worklist<const void *const *, 256, 4>::PrivateSegmentHolder" = type { %"class.blink::Worklist<const void *const *, 256, 4>::Segment"*, %"class.blink::Worklist<const void *const *, 256, 4>::Segment"*, [64 x i8] }
%"class.blink::Worklist<const void *const *, 256, 4>::Segment" = type opaque
%"class.blink::Worklist<const void *const *, 256, 4>::GlobalPool" = type { %"class.base::Lock", %"class.blink::Worklist<const void *const *, 256, 4>::Segment"*, %"struct.std::__1::atomic" }
%"class.std::__1::unique_ptr.67" = type { %"class.std::__1::__compressed_pair.68" }
%"class.std::__1::__compressed_pair.68" = type { %"struct.std::__1::__compressed_pair_elem.69" }
%"struct.std::__1::__compressed_pair_elem.69" = type { %"class.blink::Worklist.70"* }
%"class.blink::Worklist.70" = type { [4 x %"struct.blink::Worklist<blink::EphemeronPairItem, 64, 4>::PrivateSegmentHolder"], %"class.blink::Worklist<blink::EphemeronPairItem, 64, 4>::GlobalPool" }
%"struct.blink::Worklist<blink::EphemeronPairItem, 64, 4>::PrivateSegmentHolder" = type { %"class.blink::Worklist<blink::EphemeronPairItem, 64, 4>::Segment"*, %"class.blink::Worklist<blink::EphemeronPairItem, 64, 4>::Segment"*, [64 x i8] }
%"class.blink::Worklist<blink::EphemeronPairItem, 64, 4>::Segment" = type opaque
%"class.blink::Worklist<blink::EphemeronPairItem, 64, 4>::GlobalPool" = type { %"class.base::Lock", %"class.blink::Worklist<blink::EphemeronPairItem, 64, 4>::Segment"*, %"struct.std::__1::atomic" }
%"class.std::__1::unique_ptr.74" = type { %"class.std::__1::__compressed_pair.75" }
%"class.std::__1::__compressed_pair.75" = type { %"struct.std::__1::__compressed_pair_elem.76" }
%"struct.std::__1::__compressed_pair_elem.76" = type { %"class.blink::Worklist.77"* }
%"class.blink::Worklist.77" = type { [4 x %"struct.blink::Worklist<const blink::TraceWrapperV8Reference<v8::Value> *, 16, 4>::PrivateSegmentHolder"], %"class.blink::Worklist<const blink::TraceWrapperV8Reference<v8::Value> *, 16, 4>::GlobalPool" }
%"struct.blink::Worklist<const blink::TraceWrapperV8Reference<v8::Value> *, 16, 4>::PrivateSegmentHolder" = type { %"class.blink::Worklist<const blink::TraceWrapperV8Reference<v8::Value> *, 16, 4>::Segment"*, %"class.blink::Worklist<const blink::TraceWrapperV8Reference<v8::Value> *, 16, 4>::Segment"*, [64 x i8] }
%"class.blink::Worklist<const blink::TraceWrapperV8Reference<v8::Value> *, 16, 4>::Segment" = type opaque
%"class.blink::Worklist<const blink::TraceWrapperV8Reference<v8::Value> *, 16, 4>::GlobalPool" = type { %"class.base::Lock", %"class.blink::Worklist<const blink::TraceWrapperV8Reference<v8::Value> *, 16, 4>::Segment"*, %"struct.std::__1::atomic" }
%"class.std::__1::unique_ptr.81" = type { %"class.std::__1::__compressed_pair.82" }
%"class.std::__1::__compressed_pair.82" = type { %"struct.std::__1::__compressed_pair_elem.83" }
%"struct.std::__1::__compressed_pair_elem.83" = type { %"class.blink::Worklist.84"* }
%"class.blink::Worklist.84" = type { [4 x %"struct.blink::Worklist<blink::NotSafeToConcurrentlyTraceItem, 64, 4>::PrivateSegmentHolder"], %"class.blink::Worklist<blink::NotSafeToConcurrentlyTraceItem, 64, 4>::GlobalPool" }
%"struct.blink::Worklist<blink::NotSafeToConcurrentlyTraceItem, 64, 4>::PrivateSegmentHolder" = type { %"class.blink::Worklist<blink::NotSafeToConcurrentlyTraceItem, 64, 4>::Segment"*, %"class.blink::Worklist<blink::NotSafeToConcurrentlyTraceItem, 64, 4>::Segment"*, [64 x i8] }
%"class.blink::Worklist<blink::NotSafeToConcurrentlyTraceItem, 64, 4>::Segment" = type { %"class.blink::Worklist<blink::NotSafeToConcurrentlyTraceItem, 64, 4>::Segment"*, i64, [64 x %"struct.blink::NotSafeToConcurrentlyTraceItem"] }
%"struct.blink::NotSafeToConcurrentlyTraceItem" = type { %"struct.blink::TraceDescriptor", i64 }
%"class.blink::Worklist<blink::NotSafeToConcurrentlyTraceItem, 64, 4>::GlobalPool" = type { %"class.base::Lock", %"class.blink::Worklist<blink::NotSafeToConcurrentlyTraceItem, 64, 4>::Segment"*, %"struct.std::__1::atomic" }
%"class.std::__1::unique_ptr.88" = type { %"class.std::__1::__compressed_pair.89" }
%"class.std::__1::__compressed_pair.89" = type { %"struct.std::__1::__compressed_pair_elem.90" }
%"struct.std::__1::__compressed_pair_elem.90" = type { %"class.blink::WeakContainersWorklist"* }
%"class.blink::WeakContainersWorklist" = type { %"class.WTF::Mutex", %"class.std::__1::unordered_set" }
%"class.WTF::Mutex" = type { %"class.WTF::MutexBase" }
%"class.WTF::MutexBase" = type { %"struct.WTF::PlatformMutex" }
%"struct.WTF::PlatformMutex" = type { %union.pthread_mutex_t }
%"class.std::__1::unordered_set" = type { %"class.std::__1::__hash_table" }
%"class.std::__1::__hash_table" = type <{ %"class.std::__1::unique_ptr.91", %"class.std::__1::__compressed_pair.98", %"class.std::__1::__compressed_pair.103", %"class.std::__1::__compressed_pair.105", [4 x i8] }>
%"class.std::__1::unique_ptr.91" = type { %"class.std::__1::__compressed_pair.92" }
%"class.std::__1::__compressed_pair.92" = type { %"struct.std::__1::__compressed_pair_elem.93", %"struct.std::__1::__compressed_pair_elem.94" }
%"struct.std::__1::__compressed_pair_elem.93" = type { %"struct.std::__1::__hash_node_base"** }
%"struct.std::__1::__hash_node_base" = type { %"struct.std::__1::__hash_node_base"* }
%"struct.std::__1::__compressed_pair_elem.94" = type { %"class.std::__1::__bucket_list_deallocator" }
%"class.std::__1::__bucket_list_deallocator" = type { %"class.std::__1::__compressed_pair.95" }
%"class.std::__1::__compressed_pair.95" = type { %"struct.std::__1::__compressed_pair_elem.96" }
%"struct.std::__1::__compressed_pair_elem.96" = type { i64 }
%"class.std::__1::__compressed_pair.98" = type { %"struct.std::__1::__compressed_pair_elem.99" }
%"struct.std::__1::__compressed_pair_elem.99" = type { %"struct.std::__1::__hash_node_base" }
%"class.std::__1::__compressed_pair.103" = type { %"struct.std::__1::__compressed_pair_elem.96" }
%"class.std::__1::__compressed_pair.105" = type { %"struct.std::__1::__compressed_pair_elem.106" }
%"struct.std::__1::__compressed_pair_elem.106" = type { float }
%"class.std::__1::unique_ptr.111" = type { %"class.std::__1::__compressed_pair.112" }
%"class.std::__1::__compressed_pair.112" = type { %"struct.std::__1::__compressed_pair_elem.113" }
%"struct.std::__1::__compressed_pair_elem.113" = type { %"class.blink::HeapCompact"* }
%"class.blink::HeapCompact" = type <{ %"class.blink::ThreadHeap"*, %"class.std::__1::unique_ptr.114", i8, [7 x i8], i64, i64, i32, [4 x i8], i64, i8, [7 x i8] }>
%"class.std::__1::unique_ptr.114" = type { %"class.std::__1::__compressed_pair.115" }
%"class.std::__1::__compressed_pair.115" = type { %"struct.std::__1::__compressed_pair_elem.116" }
%"struct.std::__1::__compressed_pair_elem.116" = type { %"class.blink::HeapCompact::MovableObjectFixups"* }
%"class.blink::HeapCompact::MovableObjectFixups" = type opaque
%"struct.blink::ThreadHeap::LastAllocatedRegion" = type { i8*, i64 }
%"class.blink::BaseArena" = type <{ i32 (...)**, %"class.blink::PageStackThreadSafe", %"class.blink::PageStackThreadSafe", %"class.blink::PageStackThreadSafe", %"class.blink::PageStackThreadSafe", %"class.blink::ThreadState"*, i32, [4 x i8] }>
%"class.blink::PageStackThreadSafe" = type { %"class.blink::PageStack", %"class.WTF::Mutex" }
%"class.blink::PageStack" = type { %"class.WTF::Vector" }
%"class.WTF::Vector" = type { %"class.WTF::VectorBuffer" }
%"class.WTF::VectorBuffer" = type { %"class.WTF::VectorBufferBase" }
%"class.WTF::VectorBufferBase" = type { %"class.blink::BasePage"**, i32, i32 }
%"class.blink::BasePage" = type <{ i32 (...)**, %"class.blink::PageMemory"*, %"class.blink::BaseArena"*, %"class.blink::ThreadState"*, i64, i8, i8, i8, [5 x i8] }>
%"class.blink::PageMemory" = type opaque
%"class.std::__1::unique_ptr.127" = type { %"class.std::__1::__compressed_pair.128" }
%"class.std::__1::__compressed_pair.128" = type { %"struct.std::__1::__compressed_pair_elem.129" }
%"struct.std::__1::__compressed_pair_elem.129" = type { %"class.blink::PersistentRegion"* }
%"class.blink::PersistentRegion" = type { %"class.blink::PersistentRegionBase" }
%"class.blink::PersistentRegionBase" = type { %"class.blink::PersistentNode"*, %"struct.blink::PersistentNodeSlots"* }
%"struct.blink::PersistentNodeSlots" = type { %"struct.blink::PersistentNodeSlots"*, [256 x %"class.blink::PersistentNode"] }
%"class.WTF::Deque" = type { %"class.WTF::Deque<std::__1::pair<void *, bool (*)(const blink::LivenessBroker &, void *)>, 0, WTF::PartitionAllocator>::BackingBuffer", i32, i32 }
%"class.WTF::Deque<std::__1::pair<void *, bool (*)(const blink::LivenessBroker &, void *)>, 0, WTF::PartitionAllocator>::BackingBuffer" = type { %"class.WTF::VectorBuffer.135" }
%"class.WTF::VectorBuffer.135" = type { %"class.WTF::VectorBufferBase.136" }
%"class.WTF::VectorBufferBase.136" = type { %"struct.std::__1::pair"*, i32, i32 }
%"struct.std::__1::pair" = type { i8*, i1 (%"class.blink::LivenessBroker"*, i8*)* }
%"class.blink::LivenessBroker" = type { i8 }
%"class.v8::EmbedderGraph" = type opaque
%"class.std::__1::unique_ptr.137" = type { %"class.std::__1::__compressed_pair.138" }
%"class.std::__1::__compressed_pair.138" = type { %"struct.std::__1::__compressed_pair_elem.139" }
%"struct.std::__1::__compressed_pair_elem.139" = type { %"class.blink::UnifiedHeapController"* }
%"class.blink::UnifiedHeapController" = type opaque
%"class.std::__1::unique_ptr.143" = type { %"class.std::__1::__compressed_pair.144" }
%"class.std::__1::__compressed_pair.144" = type { %"struct.std::__1::__compressed_pair_elem.145" }
%"struct.std::__1::__compressed_pair_elem.145" = type { %"class.v8::EmbedderRootsHandler"* }
%"class.v8::EmbedderRootsHandler" = type { i32 (...)** }
%"struct.blink::ThreadState::GCData" = type { i32, i32, i32, i32, %"class.std::__1::unique_ptr.149" }
%"class.std::__1::unique_ptr.149" = type { %"class.std::__1::__compressed_pair.150" }
%"class.std::__1::__compressed_pair.150" = type { %"struct.std::__1::__compressed_pair_elem.151" }
%"struct.std::__1::__compressed_pair_elem.151" = type { %"class.blink::MarkingVisitor"* }
%"class.blink::MarkingVisitor" = type { %"class.blink::MarkingVisitorBase", %"class.blink::MarkingVisitor::RecentlyRetracedWeakContainers" }
%"class.blink::MarkingVisitorBase" = type { %"class.blink::Visitor", %"class.blink::Worklist<blink::TraceDescriptor, 512, 4>::View", %"class.blink::Worklist<blink::HeapObjectHeader *, 64, 4>::View", %"class.blink::Worklist<const void *, 16, 4>::View", %"class.blink::Worklist<blink::CustomCallbackItem, 64, 4>::View", %"class.blink::Worklist<const void *const *, 256, 4>::View", %"class.blink::Worklist<blink::EphemeronPairItem, 64, 4>::View", %"class.blink::Worklist<blink::EphemeronPairItem, 64, 4>::View", %"class.blink::WeakContainersWorklist"*, i64, i32, i32 }
%"class.blink::Worklist<blink::TraceDescriptor, 512, 4>::View" = type <{ %"class.blink::Worklist"*, i32, [4 x i8] }>
%"class.blink::Worklist<blink::HeapObjectHeader *, 64, 4>::View" = type <{ %"class.blink::Worklist.42"*, i32, [4 x i8] }>
%"class.blink::Worklist<const void *, 16, 4>::View" = type <{ %"class.blink::Worklist.49"*, i32, [4 x i8] }>
%"class.blink::Worklist<blink::CustomCallbackItem, 64, 4>::View" = type <{ %"class.blink::Worklist.56"*, i32, [4 x i8] }>
%"class.blink::Worklist<const void *const *, 256, 4>::View" = type <{ %"class.blink::Worklist.63"*, i32, [4 x i8] }>
%"class.blink::Worklist<blink::EphemeronPairItem, 64, 4>::View" = type <{ %"class.blink::Worklist.70"*, i32, [4 x i8] }>
%"class.blink::MarkingVisitor::RecentlyRetracedWeakContainers" = type { %"class.std::__1::vector", i64 }
%"class.std::__1::vector" = type { %"class.std::__1::__vector_base" }
%"class.std::__1::__vector_base" = type { %"class.blink::HeapObjectHeader"**, %"class.blink::HeapObjectHeader"**, %"class.std::__1::__compressed_pair.171" }
%"class.blink::HeapObjectHeader" = type { i32, i16, i16 }
%"class.std::__1::__compressed_pair.171" = type { %"struct.std::__1::__compressed_pair_elem.172" }
%"struct.std::__1::__compressed_pair_elem.172" = type { %"class.blink::HeapObjectHeader"** }
%"class.std::__1::unique_ptr.155" = type { %"class.std::__1::__compressed_pair.156" }
%"class.std::__1::__compressed_pair.156" = type { %"struct.std::__1::__compressed_pair_elem.157" }
%"struct.std::__1::__compressed_pair_elem.157" = type { %"class.blink::ThreadState::IncrementalMarkingScheduler"* }
%"class.blink::ThreadState::IncrementalMarkingScheduler" = type opaque
%"class.std::__1::unique_ptr.161" = type { %"class.std::__1::__compressed_pair.162" }
%"class.std::__1::__compressed_pair.162" = type { %"struct.std::__1::__compressed_pair_elem.163" }
%"struct.std::__1::__compressed_pair_elem.163" = type { %"class.blink::MarkingSchedulingOracle"* }
%"class.blink::MarkingSchedulingOracle" = type opaque
%"class.base::JobHandle" = type { %class.scoped_refptr }
%class.scoped_refptr = type { %"class.base::internal::JobTaskSource"* }
%"class.base::internal::JobTaskSource" = type opaque
%"struct.std::__1::atomic.167" = type { %"struct.std::__1::__atomic_base.168" }
%"struct.std::__1::__atomic_base.168" = type { %"struct.std::__1::__cxx_atomic_impl.169" }
%"struct.std::__1::__cxx_atomic_impl.169" = type { %"struct.std::__1::__cxx_atomic_base_impl.170" }
%"struct.std::__1::__cxx_atomic_base_impl.170" = type { i8 }
%"class.base::TimeTicks" = type { %"class.base::time_internal::TimeBase" }
%"class.base::time_internal::TimeBase" = type { i64 }
%"class.v8::Template" = type { i8 }
%"class.v8::Context" = type { i8 }
%"class.v8::Object" = type { i8 }
%"class.v8::MemorySpan" = type { %"class.v8::CFunction"*, i64 }
%"class.v8::CFunction" = type { i8*, %"class.v8::CFunctionInfo"* }
%"class.v8::CFunctionInfo" = type { %"class.v8::CTypeInfo", i32, %"class.v8::CTypeInfo"* }
%"class.v8::CTypeInfo" = type { i8, i8 }
%"class.v8::FunctionCallbackInfo" = type <{ i64*, i64*, i32, [4 x i8] }>
%"class.WTF::ThreadSpecific" = type { %"class.blink::ThreadState"**, %"class.base::ThreadLocalStorage::Slot" }
%"class.base::ThreadLocalStorage::Slot" = type { i32, i32 }
%"struct.blink::GCInfo" = type { void (%"class.blink::Visitor"*, i8*)*, void (i8*)*, { i8*, i8 } (i8*)*, i8 }
%"class.blink::GCInfoTable" = type { %"struct.blink::GCInfo"**, i32, i32, %"class.WTF::Mutex" }
%"class.base::span" = type { %"struct.base::internal::ExtentStorage", %"struct.blink::bindings::IDLMemberInstaller::AttributeConfig"* }
%"struct.base::internal::ExtentStorage" = type { i64 }
%"struct.blink::bindings::IDLMemberInstaller::AttributeConfig" = type <{ i8*, void (%"class.v8::FunctionCallbackInfo"*)*, void (%"class.v8::FunctionCallbackInfo"*)*, i16, [6 x i8] }>
%"class.v8::FunctionTemplate" = type { i8 }
%"class.v8::ObjectTemplate" = type { i8 }
%"class.v8::Value" = type { i8 }
%"class.v8::Signature" = type { i8 }
%"class.blink::ExceptionState" = type { i32 (...)**, %"class.blink::ExceptionContext", %"class.blink::ExceptionState::ContextScope"*, %"class.v8::Isolate"*, i32, %"class.WTF::String", %"class.blink::TraceWrapperV8Reference.188" }
%"class.blink::ExceptionContext" = type { i16, i16, i8*, i8* }
%"class.blink::ExceptionState::ContextScope" = type { %"class.blink::ExceptionState"*, %"class.blink::ExceptionState::ContextScope"*, %"class.blink::ExceptionContext" }
%"class.WTF::String" = type { %class.scoped_refptr.182 }
%class.scoped_refptr.182 = type { %"class.WTF::StringImpl"* }
%"class.WTF::StringImpl" = type { i32, i32, %"struct.std::__1::atomic.183" }
%"struct.std::__1::atomic.183" = type { %"struct.std::__1::__atomic_base.184" }
%"struct.std::__1::__atomic_base.184" = type { %"struct.std::__1::__atomic_base.185" }
%"struct.std::__1::__atomic_base.185" = type { %"struct.std::__1::__cxx_atomic_impl.186" }
%"struct.std::__1::__cxx_atomic_impl.186" = type { %"struct.std::__1::__cxx_atomic_base_impl.187" }
%"struct.std::__1::__cxx_atomic_base_impl.187" = type { i32 }
%"class.blink::TraceWrapperV8Reference.188" = type { %"class.v8::TracedReference.189" }
%"class.v8::TracedReference.189" = type { %"class.v8::BasicTracedReference.190" }
%"class.v8::BasicTracedReference.190" = type { %"class.v8::TracedReferenceBase" }
%"class.blink::bindings::NativeValueTraitsStringAdapter" = type { %"class.v8::Local.197", %"class.WTF::String", %"class.WTF::StringView::StackBackingStore" }
%"class.v8::Local.197" = type { %"class.v8::String"* }
%"class.v8::String" = type { i8 }
%"class.WTF::StringView::StackBackingStore" = type { [64 x i16], %"class.std::__1::unique_ptr.198" }
%"class.std::__1::unique_ptr.198" = type { %"class.std::__1::__compressed_pair.199" }
%"class.std::__1::__compressed_pair.199" = type { %"struct.std::__1::__compressed_pair_elem.200" }
%"struct.std::__1::__compressed_pair_elem.200" = type { i8* }
%"class.WTF::AtomicString" = type { %"class.WTF::String" }
%"class.blink::V8PerIsolateData" = type { i32, %"class.gin::IsolateHolder", %"class.WTF::HashMap.231", %"class.WTF::HashMap.231", %"class.WTF::HashMap.236", %"class.std::__1::unique_ptr.241", %"class.std::__1::unique_ptr.288", %"class.blink::Persistent.195", i8, i8, i8, %"class.WTF::Vector.302", %"class.std::__1::unique_ptr.307", %"class.blink::Persistent.313", %"class.blink::Persistent.317", %"class.blink::RuntimeCallStats", void (%"class.v8::Isolate"*, i32, i32)*, void (%"class.v8::Isolate"*, i32, i32)*, i64 }
%"class.gin::IsolateHolder" = type { %"class.std::__1::unique_ptr.213", %"class.v8::Isolate"*, %"class.std::__1::unique_ptr.219", %"class.std::__1::unique_ptr.225", i32, i32 }
%"class.std::__1::unique_ptr.213" = type { %"class.std::__1::__compressed_pair.214" }
%"class.std::__1::__compressed_pair.214" = type { %"struct.std::__1::__compressed_pair_elem.215" }
%"struct.std::__1::__compressed_pair_elem.215" = type { %"class.v8::SnapshotCreator"* }
%"class.v8::SnapshotCreator" = type { i8* }
%"class.std::__1::unique_ptr.219" = type { %"class.std::__1::__compressed_pair.220" }
%"class.std::__1::__compressed_pair.220" = type { %"struct.std::__1::__compressed_pair_elem.221" }
%"struct.std::__1::__compressed_pair_elem.221" = type { %"class.gin::PerIsolateData"* }
%"class.gin::PerIsolateData" = type opaque
%"class.std::__1::unique_ptr.225" = type { %"class.std::__1::__compressed_pair.226" }
%"class.std::__1::__compressed_pair.226" = type { %"struct.std::__1::__compressed_pair_elem.227" }
%"struct.std::__1::__compressed_pair_elem.227" = type { %"class.gin::V8IsolateMemoryDumpProvider"* }
%"class.gin::V8IsolateMemoryDumpProvider" = type opaque
%"class.WTF::HashMap.231" = type { %"class.WTF::HashTable.232" }
%"class.WTF::HashTable.232" = type <{ %"struct.WTF::KeyValuePair.235"*, i32, i32, i32, [4 x i8] }>
%"struct.WTF::KeyValuePair.235" = type opaque
%"class.WTF::HashMap.236" = type { %"class.WTF::HashTable.237" }
%"class.WTF::HashTable.237" = type <{ %"struct.WTF::KeyValuePair.240"*, i32, i32, i32, [4 x i8] }>
%"struct.WTF::KeyValuePair.240" = type opaque
%"class.std::__1::unique_ptr.241" = type { %"class.std::__1::__compressed_pair.242" }
%"class.std::__1::__compressed_pair.242" = type { %"struct.std::__1::__compressed_pair_elem.243" }
%"struct.std::__1::__compressed_pair_elem.243" = type { %"class.blink::StringCache"* }
%"class.blink::StringCache" = type { %"class.v8::GlobalValueMap", %"class.v8::PersistentValueMapBase<WTF::StringImpl *, v8::String, blink::StringCacheMapTraits>::PersistentValueReference", %"class.v8::GlobalValueMap.249", %class.scoped_refptr.182 }
%"class.v8::GlobalValueMap" = type { %"class.v8::PersistentValueMapBase" }
%"class.v8::PersistentValueMapBase" = type { %"class.v8::Isolate"*, %"class.WTF::HashMap.244", i8* }
%"class.WTF::HashMap.244" = type { %"class.WTF::HashTable.245" }
%"class.WTF::HashTable.245" = type <{ %"struct.WTF::KeyValuePair.248"*, i32, i32, i32, [4 x i8] }>
%"struct.WTF::KeyValuePair.248" = type { %"class.WTF::StringImpl"*, i64 }
%"class.v8::PersistentValueMapBase<WTF::StringImpl *, v8::String, blink::StringCacheMapTraits>::PersistentValueReference" = type { i64 }
%"class.v8::GlobalValueMap.249" = type { %"class.v8::PersistentValueMapBase.250" }
%"class.v8::PersistentValueMapBase.250" = type { %"class.v8::Isolate"*, %"class.WTF::HashMap.251", i8* }
%"class.WTF::HashMap.251" = type { %"class.WTF::HashTable.252" }
%"class.WTF::HashTable.252" = type <{ %"struct.WTF::KeyValuePair.255"*, i32, i32, i32, [4 x i8] }>
%"struct.WTF::KeyValuePair.255" = type { %"class.blink::ParkableStringImpl"*, i64 }
%"class.blink::ParkableStringImpl" = type { %"class.WTF::RefCounted.256", %"class.WTF::String", %"class.std::__1::unique_ptr.258" }
%"class.WTF::RefCounted.256" = type { %"class.base::RefCounted.257" }
%"class.base::RefCounted.257" = type { %"class.base::subtle::RefCountedBase" }
%"class.std::__1::unique_ptr.258" = type { %"class.std::__1::__compressed_pair.259" }
%"class.std::__1::__compressed_pair.259" = type { %"struct.std::__1::__compressed_pair_elem.260" }
%"struct.std::__1::__compressed_pair_elem.260" = type { %"struct.blink::ParkableStringImpl::ParkableMetadata"* }
%"struct.blink::ParkableStringImpl::ParkableMetadata" = type { %"class.WTF::Mutex", i32, i8, i8, %"class.std::__1::unique_ptr.261", %"class.std::__1::unique_ptr.272", %"class.WTF::Vector.278", i8, i32 }
%"class.std::__1::unique_ptr.261" = type { %"class.std::__1::__compressed_pair.262" }
%"class.std::__1::__compressed_pair.262" = type { %"struct.std::__1::__compressed_pair_elem.263" }
%"struct.std::__1::__compressed_pair_elem.263" = type { %"class.WTF::Vector.264"* }
%"class.WTF::Vector.264" = type { %"class.WTF::VectorBuffer.265" }
%"class.WTF::VectorBuffer.265" = type { %"class.WTF::VectorBufferBase.266" }
%"class.WTF::VectorBufferBase.266" = type { i8*, i32, i32 }
%"class.std::__1::unique_ptr.272" = type { %"class.std::__1::__compressed_pair.273" }
%"class.std::__1::__compressed_pair.273" = type { %"struct.std::__1::__compressed_pair_elem.274" }
%"struct.std::__1::__compressed_pair_elem.274" = type { %"class.blink::DiskDataMetadata"* }
%"class.blink::DiskDataMetadata" = type { i64, i64 }
%"class.WTF::Vector.278" = type { %"class.WTF::VectorBuffer.279" }
%"class.WTF::VectorBuffer.279" = type { %"class.WTF::VectorBufferBase.266", [32 x i8] }
%"class.std::__1::unique_ptr.288" = type { %"class.std::__1::__compressed_pair.289" }
%"class.std::__1::__compressed_pair.289" = type { %"struct.std::__1::__compressed_pair_elem.290" }
%"struct.std::__1::__compressed_pair_elem.290" = type { %"class.blink::V8PrivateProperty"* }
%"class.blink::V8PrivateProperty" = type { %"class.blink::ScopedPersistent.291", %"class.WTF::HashMap.294" }
%"class.blink::ScopedPersistent.291" = type { %"class.v8::Persistent.292" }
%"class.v8::Persistent.292" = type { %"class.v8::PersistentBase.293" }
%"class.v8::PersistentBase.293" = type { %"class.v8::Private"* }
%"class.v8::Private" = type { i8 }
%"class.WTF::HashMap.294" = type { %"class.WTF::HashTable.295" }
%"class.WTF::HashTable.295" = type <{ %"struct.WTF::KeyValuePair.298"*, i32, i32, i32, [4 x i8] }>
%"struct.WTF::KeyValuePair.298" = type opaque
%"class.blink::Persistent.195" = type { %"class.blink::PersistentBase.196" }
%"class.blink::PersistentBase.196" = type { %"class.blink::ScriptState"*, %"class.blink::PersistentNodePtr" }
%"class.blink::ScriptState" = type { %"class.v8::Isolate"*, %"class.blink::ScopedPersistent", %class.scoped_refptr.193, %"class.blink::Member", %"class.blink::SelfKeepAlive", %"class.util::TokenType" }
%"class.blink::ScopedPersistent" = type { %"class.v8::Persistent" }
%"class.v8::Persistent" = type { %"class.v8::PersistentBase" }
%"class.v8::PersistentBase" = type { %"class.v8::Context"* }
%class.scoped_refptr.193 = type { %"class.blink::DOMWrapperWorld"* }
%"class.blink::Member" = type { %"class.blink::MemberBase.194" }
%"class.blink::MemberBase.194" = type { %"class.blink::V8PerContextData"* }
%"class.blink::V8PerContextData" = type opaque
%"class.blink::SelfKeepAlive" = type { %"class.blink::Persistent.195" }
%"class.util::TokenType" = type { %"class.base::StrongAlias" }
%"class.base::StrongAlias" = type { %"class.base::UnguessableToken" }
%"class.base::UnguessableToken" = type { %"class.base::Token" }
%"class.base::Token" = type { i64, i64 }
%"class.WTF::Vector.302" = type { %"class.WTF::VectorBuffer.303" }
%"class.WTF::VectorBuffer.303" = type { %"class.WTF::VectorBufferBase.304" }
%"class.WTF::VectorBufferBase.304" = type { %"class.base::OnceCallback"*, i32, i32 }
%"class.base::OnceCallback" = type opaque
%"class.std::__1::unique_ptr.307" = type { %"class.std::__1::__compressed_pair.308" }
%"class.std::__1::__compressed_pair.308" = type { %"struct.std::__1::__compressed_pair_elem.309" }
%"struct.std::__1::__compressed_pair_elem.309" = type { %"class.blink::V8PerIsolateData::Data"* }
%"class.blink::V8PerIsolateData::Data" = type { i32 (...)** }
%"class.blink::Persistent.313" = type { %"class.blink::PersistentBase.314" }
%"class.blink::PersistentBase.314" = type { %"class.blink::V8PerIsolateData::GarbageCollectedData"*, %"class.blink::PersistentNodePtr" }
%"class.blink::V8PerIsolateData::GarbageCollectedData" = type { i32 (...)** }
%"class.blink::Persistent.317" = type { %"class.blink::PersistentBase.318" }
%"class.blink::PersistentBase.318" = type { %"class.blink::ActiveScriptWrappableManager"*, %"class.blink::PersistentNodePtr" }
%"class.blink::ActiveScriptWrappableManager" = type { %"class.blink::HeapVector", i64 }
%"class.blink::HeapVector" = type { %"class.WTF::Vector.323" }
%"class.WTF::Vector.323" = type { %"class.WTF::VectorBuffer.324" }
%"class.WTF::VectorBuffer.324" = type { %"class.WTF::VectorBufferBase.325" }
%"class.WTF::VectorBufferBase.325" = type { %"struct.std::__1::pair.326"*, i32, i32 }
%"struct.std::__1::pair.326" = type { %"class.blink::UntracedMember", %"class.blink::Member.328" }
%"class.blink::UntracedMember" = type { %"class.blink::MemberBase.327" }
%"class.blink::MemberBase.327" = type { %"class.blink::ActiveScriptWrappableBase"* }
%"class.blink::ActiveScriptWrappableBase" = type { %"class.blink::GarbageCollectedMixin" }
%"class.blink::GarbageCollectedMixin" = type { i32 (...)** }
%"class.blink::Member.328" = type { %"class.blink::MemberBase.329" }
%"class.blink::MemberBase.329" = type { %"class.blink::ActiveScriptWrappableBase"* }
%"class.blink::RuntimeCallStats" = type { %"class.blink::RuntimeCallTimer"*, i8, [40 x %"class.blink::RuntimeCallCounter"], %"class.base::TickClock"* }
%"class.blink::RuntimeCallTimer" = type { %"class.blink::RuntimeCallCounter"*, %"class.blink::RuntimeCallTimer"*, %"class.base::TimeTicks", %"class.base::TimeDelta", %"class.base::TickClock"* }
%"class.blink::RuntimeCallCounter" = type { i64, %"class.base::TimeDelta", i8* }
%"class.base::TimeDelta" = type { i64 }
%"class.base::TickClock" = type opaque
%"class.blink::PromiseRejectionEventInit" = type { %"class.blink::EventInit.base", i8, %"class.blink::ScriptPromise", %"class.blink::ScriptValue" }
%"class.blink::EventInit.base" = type <{ %"class.blink::IDLDictionaryBase", i8, i8, i8, i8, i8, i8 }>
%"class.blink::IDLDictionaryBase" = type { i32 (...)** }
%"class.blink::ScriptPromise" = type { %"class.blink::Member.204", %"class.blink::ScriptValue" }
%"class.blink::Member.204" = type { %"class.blink::MemberBase.205" }
%"class.blink::MemberBase.205" = type { %"class.blink::ScriptState"* }
%"class.blink::ScriptValue" = type { %"class.v8::Isolate"*, %"class.blink::WorldSafeV8Reference" }
%"class.blink::WorldSafeV8Reference" = type { %"class.blink::TraceWrapperV8Reference.188", %class.scoped_refptr.206 }
%class.scoped_refptr.206 = type { %"class.blink::DOMWrapperWorld"* }
%"class.blink::PromiseRejectionEvent" = type { %"class.blink::Event", %class.scoped_refptr.193, %"class.blink::TraceWrapperV8Reference.188", %"class.blink::TraceWrapperV8Reference.188" }
%"class.blink::Event" = type { %"class.blink::ScriptWrappable", %"class.WTF::AtomicString", i16, i32, i8, %"class.blink::probe::AsyncTaskId", %"class.blink::Member.207", %"class.blink::Member.207", %"class.blink::Member.209", %"class.blink::Member.211", %"class.base::TimeTicks" }
%"class.blink::probe::AsyncTaskId" = type { i8, %"class.absl::optional" }
%"class.absl::optional" = type { %"class.absl::optional_internal::optional_data" }
%"class.absl::optional_internal::optional_data" = type { %"class.absl::optional_internal::optional_data_base" }
%"class.absl::optional_internal::optional_data_base" = type { %"class.absl::optional_internal::optional_data_dtor_base" }
%"class.absl::optional_internal::optional_data_dtor_base" = type { i8, %union.anon }
%union.anon = type { i64 }
%"class.blink::Member.207" = type { %"class.blink::MemberBase.208" }
%"class.blink::MemberBase.208" = type { %"class.blink::EventTarget"* }
%"class.blink::EventTarget" = type { %"class.blink::ScriptWrappable" }
%"class.blink::Member.209" = type { %"class.blink::MemberBase.210" }
%"class.blink::MemberBase.210" = type { %"class.blink::Event"* }
%"class.blink::Member.211" = type { %"class.blink::MemberBase.212" }
%"class.blink::MemberBase.212" = type { %"class.blink::EventPath"* }
%"class.blink::EventPath" = type opaque
%"class.v8::internal::Isolate" = type opaque
%"class.blink::ExceptionToRejectPromiseScope" = type { %"class.v8::FunctionCallbackInfo"*, %"class.blink::ExceptionState"* }
%"class.logging::CheckError" = type { %"class.logging::LogMessage"* }
%"class.logging::LogMessage" = type { i32 (...)**, i32, %"class.std::__1::basic_ostringstream", i64, i8*, i32, %"class.base::ScopedClearLastErrorBase" }
%"class.std::__1::basic_ostringstream" = type { %"class.std::__1::basic_ostream.base", %"class.std::__1::basic_stringbuf", %"class.std::__1::basic_ios.base" }
%"class.std::__1::basic_ostream.base" = type { i32 (...)** }
%"class.std::__1::basic_stringbuf" = type <{ %"class.std::__1::basic_streambuf", %"class.std::__1::basic_string", i8*, i32, [4 x i8] }>
%"class.std::__1::basic_streambuf" = type { i32 (...)**, %"class.std::__1::locale", i8*, i8*, i8*, i8*, i8*, i8* }
%"class.std::__1::locale" = type { %"class.std::__1::locale::__imp"* }
%"class.std::__1::locale::__imp" = type opaque
%"class.std::__1::basic_string" = type { %"class.std::__1::__compressed_pair.331" }
%"class.std::__1::__compressed_pair.331" = type { %"struct.std::__1::__compressed_pair_elem.332" }
%"struct.std::__1::__compressed_pair_elem.332" = type { %"struct.std::__1::basic_string<char, std::__1::char_traits<char>, std::__1::allocator<char> >::__rep" }
%"struct.std::__1::basic_string<char, std::__1::char_traits<char>, std::__1::allocator<char> >::__rep" = type { %union.anon.333 }
%union.anon.333 = type { %"struct.std::__1::basic_string<char, std::__1::char_traits<char>, std::__1::allocator<char> >::__long" }
%"struct.std::__1::basic_string<char, std::__1::char_traits<char>, std::__1::allocator<char> >::__long" = type { i8*, i64, i64 }
%"class.std::__1::basic_ios.base" = type <{ %"class.std::__1::ios_base", %"class.std::__1::basic_ostream"*, i32 }>
%"class.std::__1::ios_base" = type { i32 (...)**, i32, i64, i64, i32, i32, i8*, i8*, void (i32, %"class.std::__1::ios_base"*, i32)**, i32*, i64, i64, i64*, i64, i64, i8**, i64, i64 }
%"class.std::__1::basic_ostream" = type { i32 (...)**, %"class.std::__1::basic_ios.base" }
%"class.base::ScopedClearLastErrorBase" = type { i32 }
%"class.v8::TryCatch" = type <{ %"class.v8::internal::Isolate"*, %"class.v8::TryCatch"*, i8*, i8*, i8*, i8, [7 x i8] }>
%"class.v8::Int32" = type { i8 }
%"class.logging::CheckOpResult" = type { i8* }
%"class.blink::NormalPageArena" = type { %"class.blink::BaseArena.base", [4 x i8], %"class.blink::FreeList", i8*, i64, i64 }
%"class.blink::BaseArena.base" = type <{ i32 (...)**, %"class.blink::PageStackThreadSafe", %"class.blink::PageStackThreadSafe", %"class.blink::PageStackThreadSafe", %"class.blink::PageStackThreadSafe", %"class.blink::ThreadState"*, i32 }>
%"class.blink::FreeList" = type <{ [17 x %"class.blink::FreeListEntry"*], [17 x %"class.blink::FreeListEntry"*], i32, [4 x i8] }>
%"class.blink::FreeListEntry" = type { %"class.blink::HeapObjectHeader", %"class.blink::FreeListEntry"* }
%"class.blink::PlatformAwareObjectStartBitmap" = type { %"class.blink::ObjectStartBitmap" }
%"class.blink::ObjectStartBitmap" = type { i8*, [2048 x i8] }

$_ZN5blink11ScriptState4FromEN2v85LocalINS1_7ContextEEE = comdat any

$_ZN5blink17NativeValueTraitsINS_15IDLStringBaseV2ILNS_8bindings17IDLStringConvModeE0EEEvE11NativeValueEPN2v87IsolateENS6_5LocalINS6_5ValueEEERNS_14ExceptionStateE = comdat any

$_ZN5blink10ThreadHeap8AllocateINS_15ScriptWrappableEEEPhm = comdat any

$_ZN5blink10TraceTraitINS_15ScriptWrappableEE5TraceEPNS_7VisitorEPKv = comdat any

$_ZN5blink8internal14FinalizerTraitINS_15ScriptWrappableEE8FinalizeEPv = comdat any

$_ZN5blink9NameTraitINS_15ScriptWrappableEE7GetNameEPKv = comdat any

$_ZN5blink29ExceptionToRejectPromiseScopeD2Ev = comdat any

$_ZZN5blink11GCInfoTraitINS_15ScriptWrappableEE5IndexEvE7kGcInfo = comdat any

$_ZZN5blink11GCInfoTraitINS_15ScriptWrappableEE5IndexEvE13gc_info_index = comdat any

@.str = private unnamed_addr constant [22 x i8] c"PromiseRejectionEvent\00", align 1
@_ZN5blink7V8Event18wrapper_type_info_E = external global %"struct.blink::WrapperTypeInfo", align 8
@_ZN5blink23V8PromiseRejectionEvent18wrapper_type_info_E = hidden constant %"struct.blink::WrapperTypeInfo" { i16 1, void (%"class.v8::Isolate"*, %"class.blink::DOMWrapperWorld"*, %"class.v8::Template"*)* @_ZN5blink23V8PromiseRejectionEvent24InstallInterfaceTemplateEPN2v87IsolateERKNS_15DOMWrapperWorldENS1_5LocalINS1_8TemplateEEE, void (%"class.v8::Context"*, %"class.blink::DOMWrapperWorld"*, %"class.v8::Object"*, %"class.v8::Object"*, %"class.v8::Object"*, %"class.v8::Template"*, i64)* null, i8* getelementptr inbounds ([22 x i8], [22 x i8]* @.str, i32 0, i32 0), %"struct.blink::WrapperTypeInfo"* @_ZN5blink7V8Event18wrapper_type_info_E, i8 8 }, align 8
@_ZN5blink21PromiseRejectionEvent18wrapper_type_info_E = hidden local_unnamed_addr constant %"struct.blink::WrapperTypeInfo"* @_ZN5blink23V8PromiseRejectionEvent18wrapper_type_info_E, align 8
@.ref.tmp = private constant %"class.v8::MemorySpan" zeroinitializer, align 8
@_ZZN5blink23V8PromiseRejectionEvent30InstallUnconditionalPropertiesEPN2v87IsolateERKNS_15DOMWrapperWorldENS1_5LocalINS1_8TemplateEEES9_S9_E15kAttributeTable = internal constant [3 x { i8*, void (%"class.v8::FunctionCallbackInfo"*)*, void (%"class.v8::FunctionCallbackInfo"*)*, i8, i8 }] [{ i8*, void (%"class.v8::FunctionCallbackInfo"*)*, void (%"class.v8::FunctionCallbackInfo"*)*, i8, i8 } { i8* getelementptr inbounds ([8 x i8], [8 x i8]* @.str.1, i32 0, i32 0), void (%"class.v8::FunctionCallbackInfo"*)* @_ZN5blink12_GLOBAL__N_126v8_promise_rejection_event27PromiseAttributeGetCallbackERKN2v820FunctionCallbackInfoINS2_5ValueEEE, void (%"class.v8::FunctionCallbackInfo"*)* null, i8 -24, i8 0 }, { i8*, void (%"class.v8::FunctionCallbackInfo"*)*, void (%"class.v8::FunctionCallbackInfo"*)*, i8, i8 } { i8* getelementptr inbounds ([7 x i8], [7 x i8]* @.str.2, i32 0, i32 0), void (%"class.v8::FunctionCallbackInfo"*)* @_ZN5blink12_GLOBAL__N_126v8_promise_rejection_event26ReasonAttributeGetCallbackERKN2v820FunctionCallbackInfoINS2_5ValueEEE, void (%"class.v8::FunctionCallbackInfo"*)* null, i8 104, i8 0 }, { i8*, void (%"class.v8::FunctionCallbackInfo"*)*, void (%"class.v8::FunctionCallbackInfo"*)*, i8, i8 } { i8* getelementptr inbounds ([10 x i8], [10 x i8]* @.str.3, i32 0, i32 0), void (%"class.v8::FunctionCallbackInfo"*)* @_ZN5blink12_GLOBAL__N_126v8_promise_rejection_event29IsTrustedAttributeGetCallbackERKN2v820FunctionCallbackInfoINS2_5ValueEEE, void (%"class.v8::FunctionCallbackInfo"*)* null, i8 100, i8 0 }], align 16
@.str.1 = private unnamed_addr constant [8 x i8] c"promise\00", align 1
@.str.2 = private unnamed_addr constant [7 x i8] c"reason\00", align 1
@.str.3 = private unnamed_addr constant [10 x i8] c"isTrusted\00", align 1
@_ZTVN5blink14ExceptionStateE = external unnamed_addr constant { [9 x i8*] }, align 8
@.str.4 = private unnamed_addr constant [66 x i8] c"../../third_party/blink/renderer/platform/bindings/script_state.h\00", align 1
@.str.5 = private unnamed_addr constant [13 x i8] c"script_state\00", align 1
@.str.6 = private unnamed_addr constant [34 x i8] c"script_state->context_ == context\00", align 1
@_ZN5blink11ThreadState16thread_specific_E = external local_unnamed_addr global %"class.WTF::ThreadSpecific"*, align 8
@__PRETTY_FUNCTION__._ZN3WTF21GetStringWithTypeNameIPN5blink11ThreadStateEEEPKcv = private unnamed_addr constant [68 x i8] c"const char *WTF::GetStringWithTypeName() [T = blink::ThreadState *]\00", align 1
@.str.7 = private unnamed_addr constant [23 x i8] c"allocation_size > size\00", align 1
@.str.8 = private unnamed_addr constant [59 x i8] c"../../third_party/blink/renderer/platform/heap/impl/heap.h\00", align 1
@_ZZN5blink11GCInfoTraitINS_15ScriptWrappableEE5IndexEvE7kGcInfo = linkonce_odr hidden constant %"struct.blink::GCInfo" { void (%"class.blink::Visitor"*, i8*)* @_ZN5blink10TraceTraitINS_15ScriptWrappableEE5TraceEPNS_7VisitorEPKv, void (i8*)* @_ZN5blink8internal14FinalizerTraitINS_15ScriptWrappableEE8FinalizeEPv, { i8*, i8 } (i8*)* @_ZN5blink9NameTraitINS_15ScriptWrappableEE7GetNameEPKv, i8 1 }, comdat, align 8
@_ZZN5blink11GCInfoTraitINS_15ScriptWrappableEE5IndexEvE13gc_info_index = linkonce_odr hidden global { { i32 } } zeroinitializer, comdat, align 4
@_ZN5blink11GCInfoTable13global_table_E = external local_unnamed_addr global %"class.blink::GCInfoTable"*, align 8
@.str.9 = private unnamed_addr constant [19 x i8] c"Illegal invocation\00", align 1

; Function Attrs: nounwind ssp uwtable
define hidden void @_ZN5blink23V8PromiseRejectionEvent24InstallInterfaceTemplateEPN2v87IsolateERKNS_15DOMWrapperWorldENS1_5LocalINS1_8TemplateEEE(%"class.v8::Isolate"*, %"class.blink::DOMWrapperWorld"* dereferenceable(32), %"class.v8::Template"*) #0 align 2 {
  %4 = alloca %"class.base::span", align 8
  %5 = bitcast %"class.v8::Template"* %2 to %"class.v8::FunctionTemplate"*
  %6 = tail call %"class.v8::ObjectTemplate"* @_ZN2v816FunctionTemplate16InstanceTemplateEv(%"class.v8::FunctionTemplate"* %5) #6
  %7 = tail call %"class.v8::ObjectTemplate"* @_ZN2v816FunctionTemplate17PrototypeTemplateEv(%"class.v8::FunctionTemplate"* %5) #6
  %8 = tail call %"class.v8::Template"* @_ZNK5blink15WrapperTypeInfo18GetV8ClassTemplateEPN2v87IsolateERKNS_15DOMWrapperWorldE(%"struct.blink::WrapperTypeInfo"* nonnull @_ZN5blink7V8Event18wrapper_type_info_E, %"class.v8::Isolate"* %0, %"class.blink::DOMWrapperWorld"* dereferenceable(32) %1) #6
  %9 = bitcast %"class.v8::Template"* %8 to %"class.v8::FunctionTemplate"*
  tail call void @_ZN5blink8bindings25SetupIDLInterfaceTemplateEPN2v87IsolateEPKNS_15WrapperTypeInfoENS1_5LocalINS1_14ObjectTemplateEEES9_NS7_INS1_16FunctionTemplateEEESB_(%"class.v8::Isolate"* %0, %"struct.blink::WrapperTypeInfo"* nonnull @_ZN5blink23V8PromiseRejectionEvent18wrapper_type_info_E, %"class.v8::ObjectTemplate"* %6, %"class.v8::ObjectTemplate"* %7, %"class.v8::FunctionTemplate"* %5, %"class.v8::FunctionTemplate"* %9) #6
  tail call void @_ZN2v816FunctionTemplate14SetCallHandlerEPFvRKNS_20FunctionCallbackInfoINS_5ValueEEEENS_5LocalIS2_EENS_14SideEffectTypeERKNS_10MemorySpanIKNS_9CFunctionEEE(%"class.v8::FunctionTemplate"* %5, void (%"class.v8::FunctionCallbackInfo"*)* nonnull @_ZN5blink12_GLOBAL__N_126v8_promise_rejection_event19ConstructorCallbackERKN2v820FunctionCallbackInfoINS2_5ValueEEE, %"class.v8::Value"* null, i32 0, %"class.v8::MemorySpan"* nonnull dereferenceable(16) @.ref.tmp) #6
  tail call void @_ZN2v816FunctionTemplate9SetLengthEi(%"class.v8::FunctionTemplate"* %5, i32 2) #6
  %10 = bitcast %"class.v8::ObjectTemplate"* %6 to %"class.v8::Template"*
  %11 = bitcast %"class.v8::ObjectTemplate"* %7 to %"class.v8::Template"*
  %12 = bitcast %"class.base::span"* %4 to i8*
  call void @llvm.lifetime.start.p0i8(i64 16, i8* nonnull %12)
  %13 = tail call %"class.v8::Signature"* @_ZN2v89Signature3NewEPNS_7IsolateENS_5LocalINS_16FunctionTemplateEEE(%"class.v8::Isolate"* %0, %"class.v8::FunctionTemplate"* %5) #6
  %14 = getelementptr inbounds %"class.base::span", %"class.base::span"* %4, i64 0, i32 0, i32 0
  store i64 3, i64* %14, align 8
  %15 = getelementptr inbounds %"class.base::span", %"class.base::span"* %4, i64 0, i32 1
  store %"struct.blink::bindings::IDLMemberInstaller::AttributeConfig"* bitcast ([3 x { i8*, void (%"class.v8::FunctionCallbackInfo"*)*, void (%"class.v8::FunctionCallbackInfo"*)*, i8, i8 }]* @_ZZN5blink23V8PromiseRejectionEvent30InstallUnconditionalPropertiesEPN2v87IsolateERKNS_15DOMWrapperWorldENS1_5LocalINS1_8TemplateEEES9_S9_E15kAttributeTable to %"struct.blink::bindings::IDLMemberInstaller::AttributeConfig"*), %"struct.blink::bindings::IDLMemberInstaller::AttributeConfig"** %15, align 8
  tail call void @_ZN5blink8bindings18IDLMemberInstaller17InstallAttributesEPN2v87IsolateERKNS_15DOMWrapperWorldENS2_5LocalINS2_8TemplateEEESA_SA_NS8_INS2_9SignatureEEEN4base4spanIKNS1_15AttributeConfigELm18446744073709551615EEE(%"class.v8::Isolate"* %0, %"class.blink::DOMWrapperWorld"* dereferenceable(32) %1, %"class.v8::Template"* %10, %"class.v8::Template"* %11, %"class.v8::Template"* %2, %"class.v8::Signature"* %13, %"class.base::span"* nonnull byval(%"class.base::span") align 8 %4) #6
  call void @llvm.lifetime.end.p0i8(i64 16, i8* nonnull %12)
  ret void
}

; Function Attrs: argmemonly nounwind
declare void @llvm.lifetime.start.p0i8(i64 immarg, i8* nocapture) #1

declare %"class.v8::ObjectTemplate"* @_ZN2v816FunctionTemplate16InstanceTemplateEv(%"class.v8::FunctionTemplate"*) local_unnamed_addr #2

declare %"class.v8::ObjectTemplate"* @_ZN2v816FunctionTemplate17PrototypeTemplateEv(%"class.v8::FunctionTemplate"*) local_unnamed_addr #2

declare %"class.v8::Template"* @_ZNK5blink15WrapperTypeInfo18GetV8ClassTemplateEPN2v87IsolateERKNS_15DOMWrapperWorldE(%"struct.blink::WrapperTypeInfo"*, %"class.v8::Isolate"*, %"class.blink::DOMWrapperWorld"* dereferenceable(32)) local_unnamed_addr #2

; Function Attrs: argmemonly nounwind
declare void @llvm.lifetime.end.p0i8(i64 immarg, i8* nocapture) #1

declare void @_ZN5blink8bindings25SetupIDLInterfaceTemplateEPN2v87IsolateEPKNS_15WrapperTypeInfoENS1_5LocalINS1_14ObjectTemplateEEES9_NS7_INS1_16FunctionTemplateEEESB_(%"class.v8::Isolate"*, %"struct.blink::WrapperTypeInfo"*, %"class.v8::ObjectTemplate"*, %"class.v8::ObjectTemplate"*, %"class.v8::FunctionTemplate"*, %"class.v8::FunctionTemplate"*) local_unnamed_addr #2

declare void @_ZN2v816FunctionTemplate14SetCallHandlerEPFvRKNS_20FunctionCallbackInfoINS_5ValueEEEENS_5LocalIS2_EENS_14SideEffectTypeERKNS_10MemorySpanIKNS_9CFunctionEEE(%"class.v8::FunctionTemplate"*, void (%"class.v8::FunctionCallbackInfo"*)*, %"class.v8::Value"*, i32, %"class.v8::MemorySpan"* dereferenceable(16)) local_unnamed_addr #2

; Function Attrs: nounwind ssp uwtable
define internal void @_ZN5blink12_GLOBAL__N_126v8_promise_rejection_event19ConstructorCallbackERKN2v820FunctionCallbackInfoINS2_5ValueEEE(%"class.v8::FunctionCallbackInfo"* nocapture readonly dereferenceable(24)) #0 {
  %2 = alloca %"class.blink::ExceptionState", align 8
  %3 = alloca %"class.WTF::String", align 8
  %4 = alloca %"class.WTF::String", align 8
  %5 = alloca %"class.blink::bindings::NativeValueTraitsStringAdapter", align 8
  %6 = alloca %"class.WTF::AtomicString", align 8
  %7 = getelementptr inbounds %"class.v8::FunctionCallbackInfo", %"class.v8::FunctionCallbackInfo"* %0, i64 0, i32 0
  %8 = load i64*, i64** %7, align 8
  %9 = getelementptr inbounds i64, i64* %8, i64 1
  %10 = bitcast i64* %9 to %"class.v8::Isolate"**
  %11 = load %"class.v8::Isolate"*, %"class.v8::Isolate"** %10, align 8
  %12 = bitcast %"class.blink::ExceptionState"* %2 to i8*
  call void @llvm.lifetime.start.p0i8(i64 72, i8* nonnull %12) #6
  call void @llvm.memset.p0i8.i64(i8* nonnull align 8 %12, i8 -86, i64 56, i1 false)
  %13 = getelementptr inbounds %"class.blink::ExceptionState", %"class.blink::ExceptionState"* %2, i64 0, i32 0
  store i32 (...)** bitcast (i8** getelementptr inbounds ({ [9 x i8*] }, { [9 x i8*] }* @_ZTVN5blink14ExceptionStateE, i64 0, inrange i32 0, i64 2) to i32 (...)**), i32 (...)*** %13, align 8
  %14 = getelementptr inbounds %"class.blink::ExceptionState", %"class.blink::ExceptionState"* %2, i64 0, i32 1, i32 0
  store i16 5, i16* %14, align 8
  %15 = getelementptr inbounds %"class.blink::ExceptionState", %"class.blink::ExceptionState"* %2, i64 0, i32 1, i32 1
  store i16 0, i16* %15, align 2
  %16 = getelementptr inbounds %"class.blink::ExceptionState", %"class.blink::ExceptionState"* %2, i64 0, i32 1, i32 2
  store i8* getelementptr inbounds ([22 x i8], [22 x i8]* @.str, i64 0, i64 0), i8** %16, align 8
  %17 = getelementptr inbounds %"class.blink::ExceptionState", %"class.blink::ExceptionState"* %2, i64 0, i32 1, i32 3
  %18 = getelementptr inbounds %"class.blink::ExceptionState", %"class.blink::ExceptionState"* %2, i64 0, i32 3
  %19 = bitcast i8** %17 to i8*
  call void @llvm.memset.p0i8.i64(i8* align 8 %19, i8 0, i64 16, i1 false) #6
  store %"class.v8::Isolate"* %11, %"class.v8::Isolate"** %18, align 8
  %20 = getelementptr inbounds %"class.blink::ExceptionState", %"class.blink::ExceptionState"* %2, i64 0, i32 4
  store i32 0, i32* %20, align 8
  %21 = getelementptr inbounds %"class.blink::ExceptionState", %"class.blink::ExceptionState"* %2, i64 0, i32 5, i32 0, i32 0
  %22 = bitcast %"class.WTF::StringImpl"** %21 to i8*
  call void @llvm.memset.p0i8.i64(i8* align 8 %22, i8 0, i64 16, i1 false) #6
  %23 = getelementptr inbounds i64, i64* %8, i64 5
  %24 = load i64, i64* %23, align 8
  %25 = and i64 %24, 3
  %26 = icmp eq i64 %25, 1
  br i1 %26, label %27, label %64

27:                                               ; preds = %1
  %28 = add i64 %24, -1
  %29 = inttoptr i64 %28 to i32*
  %30 = load i32, i32* %29, align 4
  %31 = and i64 %24, -4294967296
  %32 = zext i32 %30 to i64
  %33 = or i64 %31, %32
  %34 = add i64 %33, 7
  %35 = inttoptr i64 %34 to i16*
  %36 = load i16, i16* %35, align 2
  %37 = icmp eq i16 %36, 67
  br i1 %37, label %38, label %64

38:                                               ; preds = %27
  %39 = add i64 %24, 23
  %40 = inttoptr i64 %39 to i32*
  %41 = load i32, i32* %40, align 4
  %42 = and i32 %41, -2
  %43 = icmp eq i32 %42, 10
  br i1 %43, label %44, label %64

44:                                               ; preds = %38
  %45 = bitcast %"class.WTF::String"* %3 to i8*
  call void @llvm.lifetime.start.p0i8(i64 8, i8* nonnull %45) #6
  %46 = tail call %"class.WTF::StringImpl"* @_ZN5blink17ExceptionMessages27ConstructorCalledAsFunctionEv() #6
  %47 = getelementptr inbounds %"class.WTF::String", %"class.WTF::String"* %3, i64 0, i32 0, i32 0
  store %"class.WTF::StringImpl"* %46, %"class.WTF::StringImpl"** %47, align 8
  call void @_ZN5blink14ExceptionState14ThrowTypeErrorERKN3WTF6StringE(%"class.blink::ExceptionState"* nonnull %2, %"class.WTF::String"* nonnull dereferenceable(8) %3) #6
  %48 = load %"class.WTF::StringImpl"*, %"class.WTF::StringImpl"** %47, align 8
  %49 = icmp eq %"class.WTF::StringImpl"* %48, null
  br i1 %49, label %63, label %50

50:                                               ; preds = %44
  %51 = getelementptr inbounds %"class.WTF::StringImpl", %"class.WTF::StringImpl"* %48, i64 0, i32 2, i32 0, i32 0, i32 0, i32 0, i32 0
  %52 = load atomic i32, i32* %51 monotonic, align 4
  %53 = and i32 %52, 2
  %54 = icmp eq i32 %53, 0
  %55 = getelementptr inbounds %"class.WTF::StringImpl", %"class.WTF::StringImpl"* %48, i64 0, i32 0
  %56 = load i32, i32* %55, align 4
  br i1 %54, label %57, label %59

57:                                               ; preds = %50
  %58 = add i32 %56, -1
  store i32 %58, i32* %55, align 4
  br label %59

59:                                               ; preds = %57, %50
  %60 = phi i32 [ %58, %57 ], [ %56, %50 ]
  %61 = icmp eq i32 %60, 0
  br i1 %61, label %62, label %63

62:                                               ; preds = %59
  call void @_ZNK3WTF10StringImpl18DestroyIfNotStaticEv(%"class.WTF::StringImpl"* nonnull %48) #6
  br label %63

63:                                               ; preds = %44, %59, %62
  call void @llvm.lifetime.end.p0i8(i64 8, i8* nonnull %45) #6
  br label %234

64:                                               ; preds = %38, %27, %1
  %65 = getelementptr inbounds %"class.v8::FunctionCallbackInfo", %"class.v8::FunctionCallbackInfo"* %0, i64 0, i32 1
  %66 = load i64*, i64** %65, align 8
  %67 = getelementptr inbounds i64, i64* %66, i64 -1
  %68 = bitcast i64* %67 to %"class.v8::Object"*
  %69 = ptrtoint %"class.v8::Isolate"* %11 to i64
  %70 = add i64 %69, 8
  %71 = inttoptr i64 %70 to %"class.blink::V8PerIsolateData"**
  %72 = load %"class.blink::V8PerIsolateData"*, %"class.blink::V8PerIsolateData"** %71, align 8
  %73 = getelementptr inbounds %"class.blink::V8PerIsolateData", %"class.blink::V8PerIsolateData"* %72, i64 0, i32 8
  %74 = load i8, i8* %73, align 8, !range !2
  %75 = icmp eq i8 %74, 0
  br i1 %75, label %76, label %82

76:                                               ; preds = %64
  %77 = getelementptr inbounds i64, i64* %8, i64 3
  %78 = icmp eq i64* %67, null
  %79 = getelementptr inbounds i64, i64* %8, i64 2
  %80 = select i1 %78, i64* %79, i64* %67, !prof !3
  %81 = load i64, i64* %80, align 8
  store i64 %81, i64* %77, align 8
  br label %234

82:                                               ; preds = %64
  %83 = getelementptr inbounds %"class.v8::FunctionCallbackInfo", %"class.v8::FunctionCallbackInfo"* %0, i64 0, i32 2
  %84 = load i32, i32* %83, align 8
  %85 = icmp slt i32 %84, 2
  br i1 %85, label %86, label %106, !prof !3

86:                                               ; preds = %82
  %87 = bitcast %"class.WTF::String"* %4 to i8*
  call void @llvm.lifetime.start.p0i8(i64 8, i8* nonnull %87) #6
  %88 = tail call %"class.WTF::StringImpl"* @_ZN5blink17ExceptionMessages18NotEnoughArgumentsEjj(i32 2, i32 %84) #6
  %89 = getelementptr inbounds %"class.WTF::String", %"class.WTF::String"* %4, i64 0, i32 0, i32 0
  store %"class.WTF::StringImpl"* %88, %"class.WTF::StringImpl"** %89, align 8
  call void @_ZN5blink14ExceptionState14ThrowTypeErrorERKN3WTF6StringE(%"class.blink::ExceptionState"* nonnull %2, %"class.WTF::String"* nonnull dereferenceable(8) %4) #6
  %90 = load %"class.WTF::StringImpl"*, %"class.WTF::StringImpl"** %89, align 8
  %91 = icmp eq %"class.WTF::StringImpl"* %90, null
  br i1 %91, label %105, label %92

92:                                               ; preds = %86
  %93 = getelementptr inbounds %"class.WTF::StringImpl", %"class.WTF::StringImpl"* %90, i64 0, i32 2, i32 0, i32 0, i32 0, i32 0, i32 0
  %94 = load atomic i32, i32* %93 monotonic, align 4
  %95 = and i32 %94, 2
  %96 = icmp eq i32 %95, 0
  %97 = getelementptr inbounds %"class.WTF::StringImpl", %"class.WTF::StringImpl"* %90, i64 0, i32 0
  %98 = load i32, i32* %97, align 4
  br i1 %96, label %99, label %101

99:                                               ; preds = %92
  %100 = add i32 %98, -1
  store i32 %100, i32* %97, align 4
  br label %101

101:                                              ; preds = %99, %92
  %102 = phi i32 [ %100, %99 ], [ %98, %92 ]
  %103 = icmp eq i32 %102, 0
  br i1 %103, label %104, label %105

104:                                              ; preds = %101
  call void @_ZNK3WTF10StringImpl18DestroyIfNotStaticEv(%"class.WTF::StringImpl"* nonnull %90) #6
  br label %105

105:                                              ; preds = %86, %101, %104
  call void @llvm.lifetime.end.p0i8(i64 8, i8* nonnull %87) #6
  br label %234

106:                                              ; preds = %82
  %107 = tail call %"class.v8::Context"* @_ZN2v87Isolate17GetCurrentContextEv(%"class.v8::Isolate"* %11) #6
  %108 = tail call %"class.blink::ScriptState"* @_ZN5blink11ScriptState4FromEN2v85LocalINS1_7ContextEEE(%"class.v8::Context"* %107)
  %109 = bitcast %"class.blink::bindings::NativeValueTraitsStringAdapter"* %5 to i8*
  call void @llvm.lifetime.start.p0i8(i64 152, i8* nonnull %109) #6
  %110 = load i32, i32* %83, align 8
  %111 = icmp sgt i32 %110, 0
  br i1 %111, label %118, label %112

112:                                              ; preds = %106
  %113 = load i64*, i64** %7, align 8
  %114 = getelementptr inbounds i64, i64* %113, i64 1
  %115 = load i64, i64* %114, align 8
  %116 = add i64 %115, 160
  %117 = inttoptr i64 %116 to %"class.v8::Value"*
  br label %121

118:                                              ; preds = %106
  %119 = bitcast i64** %65 to %"class.v8::Value"**
  %120 = load %"class.v8::Value"*, %"class.v8::Value"** %119, align 8
  br label %121

121:                                              ; preds = %112, %118
  %122 = phi %"class.v8::Value"* [ %117, %112 ], [ %120, %118 ]
  call void @_ZN5blink17NativeValueTraitsINS_15IDLStringBaseV2ILNS_8bindings17IDLStringConvModeE0EEEvE11NativeValueEPN2v87IsolateENS6_5LocalINS6_5ValueEEERNS_14ExceptionStateE(%"class.blink::bindings::NativeValueTraitsStringAdapter"* nonnull sret %5, %"class.v8::Isolate"* %11, %"class.v8::Value"* %122, %"class.blink::ExceptionState"* nonnull dereferenceable(72) %2) #6
  %123 = load i32, i32* %20, align 8
  %124 = icmp eq i32 %123, 0
  br i1 %124, label %125, label %211

125:                                              ; preds = %121
  %126 = load i32, i32* %83, align 8
  %127 = icmp sgt i32 %126, 1
  br i1 %127, label %134, label %128

128:                                              ; preds = %125
  %129 = load i64*, i64** %7, align 8
  %130 = getelementptr inbounds i64, i64* %129, i64 1
  %131 = load i64, i64* %130, align 8
  %132 = add i64 %131, 160
  %133 = inttoptr i64 %132 to %"class.v8::Value"*
  br label %138

134:                                              ; preds = %125
  %135 = load i64*, i64** %65, align 8
  %136 = getelementptr inbounds i64, i64* %135, i64 1
  %137 = bitcast i64* %136 to %"class.v8::Value"*
  br label %138

138:                                              ; preds = %128, %134
  %139 = phi %"class.v8::Value"* [ %133, %128 ], [ %137, %134 ]
  %140 = call %"class.blink::PromiseRejectionEventInit"* @_ZN5blink17NativeValueTraitsINS_25PromiseRejectionEventInitEvE11NativeValueEPN2v87IsolateENS3_5LocalINS3_5ValueEEERNS_14ExceptionStateE(%"class.v8::Isolate"* %11, %"class.v8::Value"* %139, %"class.blink::ExceptionState"* nonnull dereferenceable(72) %2) #6
  %141 = load i32, i32* %20, align 8
  %142 = icmp eq i32 %141, 0
  br i1 %142, label %143, label %211

143:                                              ; preds = %138
  %144 = bitcast %"class.WTF::AtomicString"* %6 to i8*
  call void @llvm.lifetime.start.p0i8(i64 8, i8* nonnull %144) #6
  %145 = getelementptr inbounds %"class.blink::bindings::NativeValueTraitsStringAdapter", %"class.blink::bindings::NativeValueTraitsStringAdapter"* %5, i64 0, i32 0, i32 0
  %146 = load %"class.v8::String"*, %"class.v8::String"** %145, align 8
  %147 = icmp eq %"class.v8::String"* %146, null
  br i1 %147, label %150, label %148, !prof !3

148:                                              ; preds = %143
  %149 = call %"class.WTF::StringImpl"* @_ZN5blink13ToBlinkStringIN3WTF12AtomicStringEEET_N2v85LocalINS4_6StringEEENS_12ExternalModeE(%"class.v8::String"* nonnull %146, i32 0) #6
  br label %177

150:                                              ; preds = %143
  %151 = getelementptr inbounds %"class.blink::bindings::NativeValueTraitsStringAdapter", %"class.blink::bindings::NativeValueTraitsStringAdapter"* %5, i64 0, i32 1, i32 0, i32 0
  %152 = load %"class.WTF::StringImpl"*, %"class.WTF::StringImpl"** %151, align 8
  %153 = icmp eq %"class.WTF::StringImpl"* %152, null
  br i1 %153, label %177, label %154

154:                                              ; preds = %150
  %155 = getelementptr inbounds %"class.WTF::StringImpl", %"class.WTF::StringImpl"* %152, i64 0, i32 2, i32 0, i32 0, i32 0, i32 0, i32 0
  %156 = load atomic i32, i32* %155 acquire, align 4
  %157 = and i32 %156, 4
  %158 = icmp eq i32 %157, 0
  br i1 %158, label %175, label %159

159:                                              ; preds = %154
  %160 = load atomic i32, i32* %155 monotonic, align 4
  %161 = and i32 %160, 2
  %162 = icmp eq i32 %161, 0
  br i1 %162, label %163, label %177

163:                                              ; preds = %159
  %164 = getelementptr inbounds %"class.WTF::StringImpl", %"class.WTF::StringImpl"* %152, i64 0, i32 0
  %165 = load i32, i32* %164, align 4
  %166 = zext i32 %165 to i33
  %167 = call { i33, i1 } @llvm.sadd.with.overflow.i33(i33 %166, i33 1) #6
  %168 = extractvalue { i33, i1 } %167, 1
  %169 = extractvalue { i33, i1 } %167, 0
  %170 = icmp slt i33 %169, 0
  %171 = or i1 %168, %170
  br i1 %171, label %172, label %173, !prof !3

172:                                              ; preds = %163
  call void @llvm.trap() #6
  unreachable

173:                                              ; preds = %163
  %174 = trunc i33 %169 to i32
  store i32 %174, i32* %164, align 4
  br label %177

175:                                              ; preds = %154
  %176 = call %"class.WTF::StringImpl"* @_ZN3WTF12AtomicString11AddSlowCaseEPNS_10StringImplE(%"class.WTF::StringImpl"* nonnull %152) #6
  br label %177

177:                                              ; preds = %148, %150, %159, %173, %175
  %178 = phi %"class.WTF::StringImpl"* [ %149, %148 ], [ %176, %175 ], [ %152, %159 ], [ %152, %173 ], [ null, %150 ]
  %179 = getelementptr inbounds %"class.WTF::AtomicString", %"class.WTF::AtomicString"* %6, i64 0, i32 0, i32 0, i32 0
  store %"class.WTF::StringImpl"* %178, %"class.WTF::StringImpl"** %179, align 8
  %180 = call i8* @_ZN5blink10ThreadHeap8AllocateINS_15ScriptWrappableEEEPhm(i64 128) #6
  %181 = bitcast i8* %180 to %"class.blink::PromiseRejectionEvent"*
  call void @_ZN5blink21PromiseRejectionEventC1EPNS_11ScriptStateERKN3WTF12AtomicStringEPKNS_25PromiseRejectionEventInitE(%"class.blink::PromiseRejectionEvent"* %181, %"class.blink::ScriptState"* %108, %"class.WTF::AtomicString"* nonnull dereferenceable(8) %6, %"class.blink::PromiseRejectionEventInit"* %140) #6
  %182 = getelementptr inbounds i8, i8* %180, i64 -4
  %183 = bitcast i8* %182 to i16*
  %184 = load atomic i16, i16* %183 monotonic, align 2
  %185 = or i16 %184, 1
  store atomic i16 %185, i16* %183 release, align 2
  %186 = load %"class.WTF::StringImpl"*, %"class.WTF::StringImpl"** %179, align 8
  %187 = icmp eq %"class.WTF::StringImpl"* %186, null
  br i1 %187, label %201, label %188

188:                                              ; preds = %177
  %189 = getelementptr inbounds %"class.WTF::StringImpl", %"class.WTF::StringImpl"* %186, i64 0, i32 2, i32 0, i32 0, i32 0, i32 0, i32 0
  %190 = load atomic i32, i32* %189 monotonic, align 4
  %191 = and i32 %190, 2
  %192 = icmp eq i32 %191, 0
  %193 = getelementptr inbounds %"class.WTF::StringImpl", %"class.WTF::StringImpl"* %186, i64 0, i32 0
  %194 = load i32, i32* %193, align 4
  br i1 %192, label %195, label %197

195:                                              ; preds = %188
  %196 = add i32 %194, -1
  store i32 %196, i32* %193, align 4
  br label %197

197:                                              ; preds = %195, %188
  %198 = phi i32 [ %196, %195 ], [ %194, %188 ]
  %199 = icmp eq i32 %198, 0
  br i1 %199, label %200, label %201

200:                                              ; preds = %197
  call void @_ZNK3WTF10StringImpl18DestroyIfNotStaticEv(%"class.WTF::StringImpl"* nonnull %186) #6
  br label %201

201:                                              ; preds = %177, %197, %200
  call void @llvm.lifetime.end.p0i8(i64 8, i8* nonnull %144) #6
  %202 = bitcast i8* %180 to %"class.blink::ScriptWrappable"*
  %203 = call %"class.v8::Object"* @_ZN5blink15ScriptWrappable20AssociateWithWrapperEPN2v87IsolateEPKNS_15WrapperTypeInfoENS1_5LocalINS1_6ObjectEEE(%"class.blink::ScriptWrappable"* %202, %"class.v8::Isolate"* %11, %"struct.blink::WrapperTypeInfo"* nonnull @_ZN5blink23V8PromiseRejectionEvent18wrapper_type_info_E, %"class.v8::Object"* %68) #6
  %204 = load i64*, i64** %7, align 8
  %205 = getelementptr inbounds i64, i64* %204, i64 3
  %206 = icmp eq %"class.v8::Object"* %203, null
  %207 = bitcast %"class.v8::Object"* %203 to i64*
  %208 = getelementptr inbounds i64, i64* %204, i64 2
  %209 = select i1 %206, i64* %208, i64* %207, !prof !3
  %210 = load i64, i64* %209, align 8
  store i64 %210, i64* %205, align 8
  br label %211

211:                                              ; preds = %138, %121, %201
  %212 = getelementptr inbounds %"class.blink::bindings::NativeValueTraitsStringAdapter", %"class.blink::bindings::NativeValueTraitsStringAdapter"* %5, i64 0, i32 2, i32 1, i32 0, i32 0, i32 0
  %213 = load i8*, i8** %212, align 8
  store i8* null, i8** %212, align 8
  %214 = icmp eq i8* %213, null
  br i1 %214, label %216, label %215

215:                                              ; preds = %211
  call void @_ZN3WTF10Partitions10BufferFreeEPv(i8* nonnull %213) #6
  br label %216

216:                                              ; preds = %215, %211
  %217 = getelementptr inbounds %"class.blink::bindings::NativeValueTraitsStringAdapter", %"class.blink::bindings::NativeValueTraitsStringAdapter"* %5, i64 0, i32 1, i32 0, i32 0
  %218 = load %"class.WTF::StringImpl"*, %"class.WTF::StringImpl"** %217, align 8
  %219 = icmp eq %"class.WTF::StringImpl"* %218, null
  br i1 %219, label %233, label %220

220:                                              ; preds = %216
  %221 = getelementptr inbounds %"class.WTF::StringImpl", %"class.WTF::StringImpl"* %218, i64 0, i32 2, i32 0, i32 0, i32 0, i32 0, i32 0
  %222 = load atomic i32, i32* %221 monotonic, align 4
  %223 = and i32 %222, 2
  %224 = icmp eq i32 %223, 0
  %225 = getelementptr inbounds %"class.WTF::StringImpl", %"class.WTF::StringImpl"* %218, i64 0, i32 0
  %226 = load i32, i32* %225, align 4
  br i1 %224, label %227, label %229

227:                                              ; preds = %220
  %228 = add i32 %226, -1
  store i32 %228, i32* %225, align 4
  br label %229

229:                                              ; preds = %227, %220
  %230 = phi i32 [ %228, %227 ], [ %226, %220 ]
  %231 = icmp eq i32 %230, 0
  br i1 %231, label %232, label %233

232:                                              ; preds = %229
  call void @_ZNK3WTF10StringImpl18DestroyIfNotStaticEv(%"class.WTF::StringImpl"* nonnull %218) #6
  br label %233

233:                                              ; preds = %216, %229, %232
  call void @llvm.lifetime.end.p0i8(i64 152, i8* nonnull %109) #6
  br label %234

234:                                              ; preds = %76, %105, %233, %63
  store i32 (...)** bitcast (i8** getelementptr inbounds ({ [9 x i8*] }, { [9 x i8*] }* @_ZTVN5blink14ExceptionStateE, i64 0, inrange i32 0, i64 2) to i32 (...)**), i32 (...)*** %13, align 8
  %235 = getelementptr inbounds %"class.blink::ExceptionState", %"class.blink::ExceptionState"* %2, i64 0, i32 6, i32 0, i32 0, i32 0, i32 0
  %236 = load i64*, i64** %235, align 8
  %237 = icmp eq i64* %236, null
  br i1 %237, label %247, label %238

238:                                              ; preds = %234
  %239 = load %"class.v8::Isolate"*, %"class.v8::Isolate"** %18, align 8
  %240 = bitcast %"class.v8::Isolate"* %239 to %"class.v8::internal::Isolate"*
  %241 = load i64, i64* %236, align 8
  %242 = call i64* @_ZN2v811HandleScope12CreateHandleEPNS_8internal7IsolateEm(%"class.v8::internal::Isolate"* %240, i64 %241) #6
  %243 = call zeroext i1 @_ZN2v87Isolate22IsExecutionTerminatingEv(%"class.v8::Isolate"* %239) #6
  br i1 %243, label %247, label %244

244:                                              ; preds = %238
  %245 = bitcast i64* %242 to %"class.v8::Value"*
  %246 = call %"class.v8::Value"* @_ZN2v87Isolate14ThrowExceptionENS_5LocalINS_5ValueEEE(%"class.v8::Isolate"* %239, %"class.v8::Value"* %245) #6
  br label %247

247:                                              ; preds = %244, %238, %234
  %248 = load %"class.WTF::StringImpl"*, %"class.WTF::StringImpl"** %21, align 8
  %249 = icmp eq %"class.WTF::StringImpl"* %248, null
  br i1 %249, label %263, label %250

250:                                              ; preds = %247
  %251 = getelementptr inbounds %"class.WTF::StringImpl", %"class.WTF::StringImpl"* %248, i64 0, i32 2, i32 0, i32 0, i32 0, i32 0, i32 0
  %252 = load atomic i32, i32* %251 monotonic, align 4
  %253 = and i32 %252, 2
  %254 = icmp eq i32 %253, 0
  %255 = getelementptr inbounds %"class.WTF::StringImpl", %"class.WTF::StringImpl"* %248, i64 0, i32 0
  %256 = load i32, i32* %255, align 4
  br i1 %254, label %257, label %259

257:                                              ; preds = %250
  %258 = add i32 %256, -1
  store i32 %258, i32* %255, align 4
  br label %259

259:                                              ; preds = %257, %250
  %260 = phi i32 [ %258, %257 ], [ %256, %250 ]
  %261 = icmp eq i32 %260, 0
  br i1 %261, label %262, label %263

262:                                              ; preds = %259
  call void @_ZNK3WTF10StringImpl18DestroyIfNotStaticEv(%"class.WTF::StringImpl"* nonnull %248) #6
  br label %263

263:                                              ; preds = %247, %259, %262
  call void @llvm.lifetime.end.p0i8(i64 72, i8* nonnull %12) #6
  ret void
}

declare void @_ZN2v816FunctionTemplate9SetLengthEi(%"class.v8::FunctionTemplate"*, i32) local_unnamed_addr #2

; Function Attrs: nounwind ssp uwtable
define hidden void @_ZN5blink23V8PromiseRejectionEvent30InstallUnconditionalPropertiesEPN2v87IsolateERKNS_15DOMWrapperWorldENS1_5LocalINS1_8TemplateEEES9_S9_(%"class.v8::Isolate"*, %"class.blink::DOMWrapperWorld"* dereferenceable(32), %"class.v8::Template"*, %"class.v8::Template"*, %"class.v8::Template"*) local_unnamed_addr #0 align 2 {
  %6 = alloca %"class.base::span", align 8
  %7 = bitcast %"class.v8::Template"* %4 to %"class.v8::FunctionTemplate"*
  %8 = tail call %"class.v8::Signature"* @_ZN2v89Signature3NewEPNS_7IsolateENS_5LocalINS_16FunctionTemplateEEE(%"class.v8::Isolate"* %0, %"class.v8::FunctionTemplate"* %7) #6
  %9 = getelementptr inbounds %"class.base::span", %"class.base::span"* %6, i64 0, i32 0, i32 0
  store i64 3, i64* %9, align 8
  %10 = getelementptr inbounds %"class.base::span", %"class.base::span"* %6, i64 0, i32 1
  store %"struct.blink::bindings::IDLMemberInstaller::AttributeConfig"* bitcast ([3 x { i8*, void (%"class.v8::FunctionCallbackInfo"*)*, void (%"class.v8::FunctionCallbackInfo"*)*, i8, i8 }]* @_ZZN5blink23V8PromiseRejectionEvent30InstallUnconditionalPropertiesEPN2v87IsolateERKNS_15DOMWrapperWorldENS1_5LocalINS1_8TemplateEEES9_S9_E15kAttributeTable to %"struct.blink::bindings::IDLMemberInstaller::AttributeConfig"*), %"struct.blink::bindings::IDLMemberInstaller::AttributeConfig"** %10, align 8
  tail call void @_ZN5blink8bindings18IDLMemberInstaller17InstallAttributesEPN2v87IsolateERKNS_15DOMWrapperWorldENS2_5LocalINS2_8TemplateEEESA_SA_NS8_INS2_9SignatureEEEN4base4spanIKNS1_15AttributeConfigELm18446744073709551615EEE(%"class.v8::Isolate"* %0, %"class.blink::DOMWrapperWorld"* dereferenceable(32) %1, %"class.v8::Template"* %2, %"class.v8::Template"* %3, %"class.v8::Template"* %4, %"class.v8::Signature"* %8, %"class.base::span"* nonnull byval(%"class.base::span") align 8 %6) #6
  ret void
}

; Function Attrs: nounwind ssp uwtable
define internal void @_ZN5blink12_GLOBAL__N_126v8_promise_rejection_event27PromiseAttributeGetCallbackERKN2v820FunctionCallbackInfoINS2_5ValueEEE(%"class.v8::FunctionCallbackInfo"* dereferenceable(24)) #0 {
  %2 = alloca %"class.blink::ExceptionState", align 8
  %3 = alloca %"class.blink::ExceptionToRejectPromiseScope", align 8
  %4 = getelementptr inbounds %"class.v8::FunctionCallbackInfo", %"class.v8::FunctionCallbackInfo"* %0, i64 0, i32 0
  %5 = load i64*, i64** %4, align 8
  %6 = getelementptr inbounds i64, i64* %5, i64 1
  %7 = bitcast i64* %6 to %"class.v8::Isolate"**
  %8 = load %"class.v8::Isolate"*, %"class.v8::Isolate"** %7, align 8
  %9 = getelementptr inbounds %"class.v8::FunctionCallbackInfo", %"class.v8::FunctionCallbackInfo"* %0, i64 0, i32 1
  %10 = load i64*, i64** %9, align 8
  %11 = getelementptr inbounds i64, i64* %10, i64 -1
  %12 = bitcast i64* %11 to %"class.v8::Value"*
  %13 = ptrtoint %"class.v8::Isolate"* %8 to i64
  %14 = add i64 %13, 8
  %15 = inttoptr i64 %14 to %"class.blink::V8PerIsolateData"**
  %16 = load %"class.blink::V8PerIsolateData"*, %"class.blink::V8PerIsolateData"** %15, align 8
  %17 = tail call zeroext i1 @_ZN5blink16V8PerIsolateData11HasInstanceEPKNS_15WrapperTypeInfoEN2v85LocalINS4_5ValueEEE(%"class.blink::V8PerIsolateData"* %16, %"struct.blink::WrapperTypeInfo"* nonnull @_ZN5blink23V8PromiseRejectionEvent18wrapper_type_info_E, %"class.v8::Value"* %12) #6
  br i1 %17, label %62, label %18

18:                                               ; preds = %1
  %19 = bitcast %"class.blink::ExceptionState"* %2 to i8*
  call void @llvm.lifetime.start.p0i8(i64 72, i8* nonnull %19) #6
  call void @llvm.memset.p0i8.i64(i8* nonnull align 8 %19, i8 -86, i64 56, i1 false)
  %20 = getelementptr inbounds %"class.blink::ExceptionState", %"class.blink::ExceptionState"* %2, i64 0, i32 0
  store i32 (...)** bitcast (i8** getelementptr inbounds ({ [9 x i8*] }, { [9 x i8*] }* @_ZTVN5blink14ExceptionStateE, i64 0, inrange i32 0, i64 2) to i32 (...)**), i32 (...)*** %20, align 8
  %21 = getelementptr inbounds %"class.blink::ExceptionState", %"class.blink::ExceptionState"* %2, i64 0, i32 1, i32 0
  store i16 2, i16* %21, align 8
  %22 = getelementptr inbounds %"class.blink::ExceptionState", %"class.blink::ExceptionState"* %2, i64 0, i32 1, i32 1
  store i16 0, i16* %22, align 2
  %23 = getelementptr inbounds %"class.blink::ExceptionState", %"class.blink::ExceptionState"* %2, i64 0, i32 1, i32 2
  %24 = bitcast i8** %23 to <2 x i8*>*
  store <2 x i8*> <i8* getelementptr inbounds ([22 x i8], [22 x i8]* @.str, i64 0, i64 0), i8* getelementptr inbounds ([8 x i8], [8 x i8]* @.str.1, i64 0, i64 0)>, <2 x i8*>* %24, align 8
  %25 = getelementptr inbounds %"class.blink::ExceptionState", %"class.blink::ExceptionState"* %2, i64 0, i32 2
  store %"class.blink::ExceptionState::ContextScope"* null, %"class.blink::ExceptionState::ContextScope"** %25, align 8
  %26 = getelementptr inbounds %"class.blink::ExceptionState", %"class.blink::ExceptionState"* %2, i64 0, i32 3
  store %"class.v8::Isolate"* %8, %"class.v8::Isolate"** %26, align 8
  %27 = getelementptr inbounds %"class.blink::ExceptionState", %"class.blink::ExceptionState"* %2, i64 0, i32 4
  store i32 0, i32* %27, align 8
  %28 = getelementptr inbounds %"class.blink::ExceptionState", %"class.blink::ExceptionState"* %2, i64 0, i32 5, i32 0, i32 0
  %29 = bitcast %"class.WTF::StringImpl"** %28 to i8*
  call void @llvm.memset.p0i8.i64(i8* align 8 %29, i8 0, i64 16, i1 false) #6
  %30 = bitcast %"class.blink::ExceptionToRejectPromiseScope"* %3 to i8*
  call void @llvm.lifetime.start.p0i8(i64 16, i8* nonnull %30) #6
  %31 = getelementptr inbounds %"class.blink::ExceptionToRejectPromiseScope", %"class.blink::ExceptionToRejectPromiseScope"* %3, i64 0, i32 0
  %32 = getelementptr inbounds %"class.blink::ExceptionToRejectPromiseScope", %"class.blink::ExceptionToRejectPromiseScope"* %3, i64 0, i32 1
  store %"class.v8::FunctionCallbackInfo"* %0, %"class.v8::FunctionCallbackInfo"** %31, align 8
  store %"class.blink::ExceptionState"* %2, %"class.blink::ExceptionState"** %32, align 8
  call void @_ZN5blink14ExceptionState14ThrowTypeErrorEPKc(%"class.blink::ExceptionState"* nonnull %2, i8* getelementptr inbounds ([19 x i8], [19 x i8]* @.str.9, i64 0, i64 0)) #6
  call void @_ZN5blink29ExceptionToRejectPromiseScopeD2Ev(%"class.blink::ExceptionToRejectPromiseScope"* nonnull %3) #6
  call void @llvm.lifetime.end.p0i8(i64 16, i8* nonnull %30) #6
  store i32 (...)** bitcast (i8** getelementptr inbounds ({ [9 x i8*] }, { [9 x i8*] }* @_ZTVN5blink14ExceptionStateE, i64 0, inrange i32 0, i64 2) to i32 (...)**), i32 (...)*** %20, align 8
  %33 = getelementptr inbounds %"class.blink::ExceptionState", %"class.blink::ExceptionState"* %2, i64 0, i32 6, i32 0, i32 0, i32 0, i32 0
  %34 = load i64*, i64** %33, align 8
  %35 = icmp eq i64* %34, null
  br i1 %35, label %45, label %36

36:                                               ; preds = %18
  %37 = load %"class.v8::Isolate"*, %"class.v8::Isolate"** %26, align 8
  %38 = bitcast %"class.v8::Isolate"* %37 to %"class.v8::internal::Isolate"*
  %39 = load i64, i64* %34, align 8
  %40 = call i64* @_ZN2v811HandleScope12CreateHandleEPNS_8internal7IsolateEm(%"class.v8::internal::Isolate"* %38, i64 %39) #6
  %41 = call zeroext i1 @_ZN2v87Isolate22IsExecutionTerminatingEv(%"class.v8::Isolate"* %37) #6
  br i1 %41, label %45, label %42

42:                                               ; preds = %36
  %43 = bitcast i64* %40 to %"class.v8::Value"*
  %44 = call %"class.v8::Value"* @_ZN2v87Isolate14ThrowExceptionENS_5LocalINS_5ValueEEE(%"class.v8::Isolate"* %37, %"class.v8::Value"* %43) #6
  br label %45

45:                                               ; preds = %42, %36, %18
  %46 = load %"class.WTF::StringImpl"*, %"class.WTF::StringImpl"** %28, align 8
  %47 = icmp eq %"class.WTF::StringImpl"* %46, null
  br i1 %47, label %61, label %48

48:                                               ; preds = %45
  %49 = getelementptr inbounds %"class.WTF::StringImpl", %"class.WTF::StringImpl"* %46, i64 0, i32 2, i32 0, i32 0, i32 0, i32 0, i32 0
  %50 = load atomic i32, i32* %49 monotonic, align 4
  %51 = and i32 %50, 2
  %52 = icmp eq i32 %51, 0
  %53 = getelementptr inbounds %"class.WTF::StringImpl", %"class.WTF::StringImpl"* %46, i64 0, i32 0
  %54 = load i32, i32* %53, align 4
  br i1 %52, label %55, label %57

55:                                               ; preds = %48
  %56 = add i32 %54, -1
  store i32 %56, i32* %53, align 4
  br label %57

57:                                               ; preds = %55, %48
  %58 = phi i32 [ %56, %55 ], [ %54, %48 ]
  %59 = icmp eq i32 %58, 0
  br i1 %59, label %60, label %61

60:                                               ; preds = %57
  call void @_ZNK3WTF10StringImpl18DestroyIfNotStaticEv(%"class.WTF::StringImpl"* nonnull %46) #6
  br label %61

61:                                               ; preds = %45, %57, %60
  call void @llvm.lifetime.end.p0i8(i64 72, i8* nonnull %19) #6
  br label %63

62:                                               ; preds = %1
  tail call void @_ZN5blink23V8PromiseRejectionEvent28PromiseAttributeGetterCustomERKN2v820FunctionCallbackInfoINS1_5ValueEEE(%"class.v8::FunctionCallbackInfo"* dereferenceable(24) %0) #6
  br label %63

63:                                               ; preds = %62, %61
  ret void
}

; Function Attrs: nounwind ssp uwtable
define internal void @_ZN5blink12_GLOBAL__N_126v8_promise_rejection_event26ReasonAttributeGetCallbackERKN2v820FunctionCallbackInfoINS2_5ValueEEE(%"class.v8::FunctionCallbackInfo"* nocapture readonly dereferenceable(24)) #0 {
  %2 = alloca %"class.blink::ScriptValue", align 8
  %3 = getelementptr inbounds %"class.v8::FunctionCallbackInfo", %"class.v8::FunctionCallbackInfo"* %0, i64 0, i32 1
  %4 = load i64*, i64** %3, align 8
  %5 = getelementptr inbounds i64, i64* %4, i64 -1
  %6 = bitcast i64* %5 to %"class.v8::Object"*
  %7 = load i64, i64* %5, align 8
  %8 = add i64 %7, -1
  %9 = inttoptr i64 %8 to i32*
  %10 = load i32, i32* %9, align 4
  %11 = and i64 %7, -4294967296
  %12 = zext i32 %10 to i64
  %13 = or i64 %11, %12
  %14 = add i64 %13, 7
  %15 = inttoptr i64 %14 to i16*
  %16 = load i16, i16* %15, align 2
  switch i16 %16, label %21 [
    i16 1057, label %17
    i16 1056, label %17
    i16 1040, label %17
  ]

17:                                               ; preds = %1, %1, %1
  %18 = add i64 %7, 19
  %19 = inttoptr i64 %18 to i8**
  %20 = load i8*, i8** %19, align 1
  br label %23

21:                                               ; preds = %1
  %22 = tail call i8* @_ZN2v86Object38SlowGetAlignedPointerFromInternalFieldEi(%"class.v8::Object"* %6, i32 1) #6
  br label %23

23:                                               ; preds = %17, %21
  %24 = phi i8* [ %20, %17 ], [ %22, %21 ]
  %25 = bitcast i8* %24 to %"class.blink::PromiseRejectionEvent"*
  %26 = tail call %"class.v8::Context"* @_ZN2v86Object15CreationContextEv(%"class.v8::Object"* %6) #6
  %27 = tail call %"class.blink::ScriptState"* @_ZN5blink11ScriptState4FromEN2v85LocalINS1_7ContextEEE(%"class.v8::Context"* %26)
  %28 = bitcast %"class.blink::ScriptValue"* %2 to i8*
  call void @llvm.lifetime.start.p0i8(i64 24, i8* nonnull %28) #6
  call void @_ZNK5blink21PromiseRejectionEvent6reasonEPNS_11ScriptStateE(%"class.blink::ScriptValue"* nonnull sret %2, %"class.blink::PromiseRejectionEvent"* %25, %"class.blink::ScriptState"* %27) #6
  %29 = call %"class.v8::Value"* @_ZNK5blink11ScriptValue7V8ValueEv(%"class.blink::ScriptValue"* nonnull %2) #6
  %30 = getelementptr inbounds %"class.v8::FunctionCallbackInfo", %"class.v8::FunctionCallbackInfo"* %0, i64 0, i32 0
  %31 = load i64*, i64** %30, align 8
  %32 = getelementptr inbounds i64, i64* %31, i64 3
  %33 = icmp eq %"class.v8::Value"* %29, null
  %34 = bitcast %"class.v8::Value"* %29 to i64*
  %35 = getelementptr inbounds i64, i64* %31, i64 2
  %36 = select i1 %33, i64* %35, i64* %34, !prof !3
  %37 = load i64, i64* %36, align 8
  store i64 %37, i64* %32, align 8
  %38 = getelementptr inbounds %"class.blink::ScriptValue", %"class.blink::ScriptValue"* %2, i64 0, i32 1, i32 1, i32 0
  %39 = load %"class.blink::DOMWrapperWorld"*, %"class.blink::DOMWrapperWorld"** %38, align 8
  %40 = icmp eq %"class.blink::DOMWrapperWorld"* %39, null
  br i1 %40, label %48, label %41

41:                                               ; preds = %23
  %42 = getelementptr inbounds %"class.blink::DOMWrapperWorld", %"class.blink::DOMWrapperWorld"* %39, i64 0, i32 0, i32 0, i32 0
  call void @_ZNK4base6subtle14RefCountedBase11ReleaseImplEv(%"class.base::subtle::RefCountedBase"* %42) #6
  %43 = getelementptr inbounds %"class.blink::DOMWrapperWorld", %"class.blink::DOMWrapperWorld"* %39, i64 0, i32 0, i32 0, i32 0, i32 0
  %44 = load i32, i32* %43, align 4
  %45 = icmp eq i32 %44, 0
  br i1 %45, label %46, label %48

46:                                               ; preds = %41
  call void @_ZN5blink15DOMWrapperWorldD1Ev(%"class.blink::DOMWrapperWorld"* nonnull %39) #6
  %47 = bitcast %"class.blink::DOMWrapperWorld"* %39 to i8*
  call void @free(i8* %47) #6
  br label %48

48:                                               ; preds = %23, %41, %46
  call void @llvm.lifetime.end.p0i8(i64 24, i8* nonnull %28) #6
  ret void
}

; Function Attrs: nounwind ssp uwtable
define internal void @_ZN5blink12_GLOBAL__N_126v8_promise_rejection_event29IsTrustedAttributeGetCallbackERKN2v820FunctionCallbackInfoINS2_5ValueEEE(%"class.v8::FunctionCallbackInfo"* nocapture readonly dereferenceable(24)) #0 {
  %2 = getelementptr inbounds %"class.v8::FunctionCallbackInfo", %"class.v8::FunctionCallbackInfo"* %0, i64 0, i32 1
  %3 = load i64*, i64** %2, align 8
  %4 = getelementptr inbounds i64, i64* %3, i64 -1
  %5 = load i64, i64* %4, align 8
  %6 = add i64 %5, -1
  %7 = inttoptr i64 %6 to i32*
  %8 = load i32, i32* %7, align 4
  %9 = and i64 %5, -4294967296
  %10 = zext i32 %8 to i64
  %11 = or i64 %9, %10
  %12 = add i64 %11, 7
  %13 = inttoptr i64 %12 to i16*
  %14 = load i16, i16* %13, align 2
  switch i16 %14, label %19 [
    i16 1057, label %15
    i16 1056, label %15
    i16 1040, label %15
  ]

15:                                               ; preds = %1, %1, %1
  %16 = add i64 %5, 19
  %17 = inttoptr i64 %16 to i8**
  %18 = load i8*, i8** %17, align 1
  br label %22

19:                                               ; preds = %1
  %20 = bitcast i64* %4 to %"class.v8::Object"*
  %21 = tail call i8* @_ZN2v86Object38SlowGetAlignedPointerFromInternalFieldEi(%"class.v8::Object"* %20, i32 1) #6
  br label %22

22:                                               ; preds = %15, %19
  %23 = phi i8* [ %18, %15 ], [ %21, %19 ]
  %24 = getelementptr inbounds i8, i8* %23, i64 24
  %25 = bitcast i8* %24 to i16*
  %26 = load i16, i16* %25, align 8
  %27 = and i16 %26, 256
  %28 = icmp eq i16 %27, 0
  %29 = getelementptr inbounds %"class.v8::FunctionCallbackInfo", %"class.v8::FunctionCallbackInfo"* %0, i64 0, i32 0
  %30 = load i64*, i64** %29, align 8
  %31 = getelementptr inbounds i64, i64* %30, i64 3
  %32 = getelementptr inbounds i64, i64* %30, i64 1
  %33 = load i64, i64* %32, align 8
  %34 = select i1 %28, i64 192, i64 184
  %35 = add i64 %34, %33
  %36 = inttoptr i64 %35 to i64*
  %37 = load i64, i64* %36, align 8
  store i64 %37, i64* %31, align 8
  ret void
}

declare %"class.v8::Signature"* @_ZN2v89Signature3NewEPNS_7IsolateENS_5LocalINS_16FunctionTemplateEEE(%"class.v8::Isolate"*, %"class.v8::FunctionTemplate"*) local_unnamed_addr #2

declare void @_ZN5blink8bindings18IDLMemberInstaller17InstallAttributesEPN2v87IsolateERKNS_15DOMWrapperWorldENS2_5LocalINS2_8TemplateEEESA_SA_NS8_INS2_9SignatureEEEN4base4spanIKNS1_15AttributeConfigELm18446744073709551615EEE(%"class.v8::Isolate"*, %"class.blink::DOMWrapperWorld"* dereferenceable(32), %"class.v8::Template"*, %"class.v8::Template"*, %"class.v8::Template"*, %"class.v8::Signature"*, %"class.base::span"* byval(%"class.base::span") align 8) local_unnamed_addr #2

; Function Attrs: argmemonly nounwind
declare void @llvm.memset.p0i8.i64(i8* nocapture writeonly, i8, i64, i1 immarg) #1

declare void @_ZN5blink14ExceptionState14ThrowTypeErrorERKN3WTF6StringE(%"class.blink::ExceptionState"*, %"class.WTF::String"* dereferenceable(8)) unnamed_addr #2

declare %"class.WTF::StringImpl"* @_ZN5blink17ExceptionMessages27ConstructorCalledAsFunctionEv() local_unnamed_addr #2

declare %"class.WTF::StringImpl"* @_ZN5blink17ExceptionMessages18NotEnoughArgumentsEjj(i32, i32) local_unnamed_addr #2

declare %"class.v8::Context"* @_ZN2v87Isolate17GetCurrentContextEv(%"class.v8::Isolate"*) local_unnamed_addr #2

; Function Attrs: nounwind ssp uwtable
define linkonce_odr hidden %"class.blink::ScriptState"* @_ZN5blink11ScriptState4FromEN2v85LocalINS1_7ContextEEE(%"class.v8::Context"*) local_unnamed_addr #0 comdat align 2 {
  %2 = alloca %"class.logging::CheckError", align 8
  %3 = alloca %"class.logging::CheckError", align 8
  %4 = bitcast %"class.v8::Context"* %0 to i64*
  %5 = load i64, i64* %4, align 8
  %6 = add i64 %5, 23
  %7 = inttoptr i64 %6 to i32*
  %8 = load i32, i32* %7, align 4
  %9 = and i64 %5, -4294967296
  %10 = zext i32 %8 to i64
  %11 = or i64 %9, %10
  %12 = add i64 %11, 23
  %13 = inttoptr i64 %12 to i8**
  %14 = load i8*, i8** %13, align 1
  %15 = bitcast i8* %14 to %"class.blink::ScriptState"*
  %16 = icmp eq i8* %14, null
  br i1 %16, label %17, label %20

17:                                               ; preds = %1
  %18 = bitcast %"class.logging::CheckError"* %2 to i8*
  call void @llvm.lifetime.start.p0i8(i64 8, i8* nonnull %18) #6
  call void @_ZN7logging10CheckError5CheckEPKciS2_(%"class.logging::CheckError"* nonnull sret %2, i8* getelementptr inbounds ([66 x i8], [66 x i8]* @.str.4, i64 0, i64 0), i32 175, i8* getelementptr inbounds ([13 x i8], [13 x i8]* @.str.5, i64 0, i64 0)) #6
  %19 = call dereferenceable(160) %"class.std::__1::basic_ostream"* @_ZN7logging10CheckError6streamEv(%"class.logging::CheckError"* nonnull %2) #6
  call void @_ZN7logging10CheckErrorD1Ev(%"class.logging::CheckError"* nonnull %2) #6
  call void @llvm.lifetime.end.p0i8(i64 8, i8* nonnull %18) #6
  br label %20

20:                                               ; preds = %1, %17
  %21 = getelementptr inbounds i8, i8* %14, i64 8
  %22 = bitcast i8* %21 to i64**
  %23 = load i64*, i64** %22, align 8
  %24 = icmp eq i64* %23, null
  %25 = icmp eq %"class.v8::Context"* %0, null
  %26 = or i1 %25, %24
  br i1 %26, label %31, label %27

27:                                               ; preds = %20
  %28 = load i64, i64* %23, align 8
  %29 = load i64, i64* %4, align 8
  %30 = icmp eq i64 %28, %29
  br i1 %30, label %36, label %33

31:                                               ; preds = %20
  %32 = and i1 %25, %24
  br i1 %32, label %36, label %33

33:                                               ; preds = %27, %31
  %34 = bitcast %"class.logging::CheckError"* %3 to i8*
  call void @llvm.lifetime.start.p0i8(i64 8, i8* nonnull %34) #6
  call void @_ZN7logging10CheckError5CheckEPKciS2_(%"class.logging::CheckError"* nonnull sret %3, i8* getelementptr inbounds ([66 x i8], [66 x i8]* @.str.4, i64 0, i64 0), i32 176, i8* getelementptr inbounds ([34 x i8], [34 x i8]* @.str.6, i64 0, i64 0)) #6
  %35 = call dereferenceable(160) %"class.std::__1::basic_ostream"* @_ZN7logging10CheckError6streamEv(%"class.logging::CheckError"* nonnull %3) #6
  call void @_ZN7logging10CheckErrorD1Ev(%"class.logging::CheckError"* nonnull %3) #6
  call void @llvm.lifetime.end.p0i8(i64 8, i8* nonnull %34) #6
  br label %36

36:                                               ; preds = %27, %31, %33
  ret %"class.blink::ScriptState"* %15
}

declare %"class.v8::Object"* @_ZN5blink15ScriptWrappable20AssociateWithWrapperEPN2v87IsolateEPKNS_15WrapperTypeInfoENS1_5LocalINS1_6ObjectEEE(%"class.blink::ScriptWrappable"*, %"class.v8::Isolate"*, %"struct.blink::WrapperTypeInfo"*, %"class.v8::Object"*) unnamed_addr #2

declare void @_ZNK3WTF10StringImpl18DestroyIfNotStaticEv(%"class.WTF::StringImpl"*) local_unnamed_addr #2

declare void @_ZN7logging10CheckError5CheckEPKciS2_(%"class.logging::CheckError"* sret, i8*, i32, i8*) local_unnamed_addr #2

declare dereferenceable(160) %"class.std::__1::basic_ostream"* @_ZN7logging10CheckError6streamEv(%"class.logging::CheckError"*) local_unnamed_addr #2

; Function Attrs: nounwind
declare void @_ZN7logging10CheckErrorD1Ev(%"class.logging::CheckError"*) unnamed_addr #3

; Function Attrs: nounwind ssp uwtable
define linkonce_odr hidden void @_ZN5blink17NativeValueTraitsINS_15IDLStringBaseV2ILNS_8bindings17IDLStringConvModeE0EEEvE11NativeValueEPN2v87IsolateENS6_5LocalINS6_5ValueEEERNS_14ExceptionStateE(%"class.blink::bindings::NativeValueTraitsStringAdapter"* noalias sret, %"class.v8::Isolate"*, %"class.v8::Value"*, %"class.blink::ExceptionState"* dereferenceable(72)) local_unnamed_addr #0 comdat align 2 {
  %5 = alloca %"class.v8::TryCatch", align 8
  %6 = bitcast %"class.v8::Value"* %2 to i64*
  %7 = load i64, i64* %6, align 8
  %8 = and i64 %7, 3
  %9 = icmp eq i64 %8, 1
  br i1 %9, label %10, label %26

10:                                               ; preds = %4
  %11 = add i64 %7, -1
  %12 = inttoptr i64 %11 to i32*
  %13 = load i32, i32* %12, align 4
  %14 = and i64 %7, -4294967296
  %15 = zext i32 %13 to i64
  %16 = or i64 %14, %15
  %17 = add i64 %16, 7
  %18 = inttoptr i64 %17 to i16*
  %19 = load i16, i16* %18, align 2
  %20 = icmp ult i16 %19, 64
  br i1 %20, label %21, label %26

21:                                               ; preds = %10
  %22 = bitcast %"class.blink::bindings::NativeValueTraitsStringAdapter"* %0 to %"class.v8::Value"**
  store %"class.v8::Value"* %2, %"class.v8::Value"** %22, align 8
  %23 = getelementptr inbounds %"class.blink::bindings::NativeValueTraitsStringAdapter", %"class.blink::bindings::NativeValueTraitsStringAdapter"* %0, i64 0, i32 1, i32 0, i32 0
  store %"class.WTF::StringImpl"* null, %"class.WTF::StringImpl"** %23, align 8
  %24 = getelementptr inbounds %"class.blink::bindings::NativeValueTraitsStringAdapter", %"class.blink::bindings::NativeValueTraitsStringAdapter"* %0, i64 0, i32 2, i32 1
  %25 = bitcast %"class.std::__1::unique_ptr.198"* %24 to i64*
  store i64 0, i64* %25, align 8
  br label %54

26:                                               ; preds = %4, %10
  %27 = tail call zeroext i1 @_ZNK2v85Value7IsInt32Ev(%"class.v8::Value"* %2) #6
  br i1 %27, label %28, label %36

28:                                               ; preds = %26
  %29 = bitcast %"class.v8::Value"* %2 to %"class.v8::Int32"*
  %30 = tail call i32 @_ZNK2v85Int325ValueEv(%"class.v8::Int32"* %29) #6
  %31 = getelementptr inbounds %"class.blink::bindings::NativeValueTraitsStringAdapter", %"class.blink::bindings::NativeValueTraitsStringAdapter"* %0, i64 0, i32 0, i32 0
  store %"class.v8::String"* null, %"class.v8::String"** %31, align 8
  %32 = tail call %"class.WTF::StringImpl"* @_ZN5blink13ToBlinkStringEi(i32 %30) #6
  %33 = getelementptr inbounds %"class.blink::bindings::NativeValueTraitsStringAdapter", %"class.blink::bindings::NativeValueTraitsStringAdapter"* %0, i64 0, i32 1, i32 0, i32 0
  store %"class.WTF::StringImpl"* %32, %"class.WTF::StringImpl"** %33, align 8
  %34 = getelementptr inbounds %"class.blink::bindings::NativeValueTraitsStringAdapter", %"class.blink::bindings::NativeValueTraitsStringAdapter"* %0, i64 0, i32 2, i32 1
  %35 = bitcast %"class.std::__1::unique_ptr.198"* %34 to i64*
  store i64 0, i64* %35, align 8
  br label %54

36:                                               ; preds = %26
  %37 = bitcast %"class.v8::TryCatch"* %5 to i8*
  call void @llvm.lifetime.start.p0i8(i64 48, i8* nonnull %37) #6
  call void @llvm.memset.p0i8.i64(i8* nonnull align 8 %37, i8 -86, i64 48, i1 false)
  call void @_ZN2v88TryCatchC1EPNS_7IsolateE(%"class.v8::TryCatch"* nonnull %5, %"class.v8::Isolate"* %1) #6
  %38 = call %"class.v8::Context"* @_ZN2v87Isolate17GetCurrentContextEv(%"class.v8::Isolate"* %1) #6
  %39 = call %"class.v8::String"* @_ZNK2v85Value8ToStringENS_5LocalINS_7ContextEEE(%"class.v8::Value"* %2, %"class.v8::Context"* %38) #6
  %40 = icmp eq %"class.v8::String"* %39, null
  br i1 %40, label %41, label %48

41:                                               ; preds = %36
  %42 = call %"class.v8::Value"* @_ZNK2v88TryCatch9ExceptionEv(%"class.v8::TryCatch"* nonnull %5) #6
  %43 = bitcast %"class.blink::ExceptionState"* %3 to void (%"class.blink::ExceptionState"*, %"class.v8::Value"*)***
  %44 = load void (%"class.blink::ExceptionState"*, %"class.v8::Value"*)**, void (%"class.blink::ExceptionState"*, %"class.v8::Value"*)*** %43, align 8
  %45 = getelementptr inbounds void (%"class.blink::ExceptionState"*, %"class.v8::Value"*)*, void (%"class.blink::ExceptionState"*, %"class.v8::Value"*)** %44, i64 5
  %46 = load void (%"class.blink::ExceptionState"*, %"class.v8::Value"*)*, void (%"class.blink::ExceptionState"*, %"class.v8::Value"*)** %45, align 8
  call void %46(%"class.blink::ExceptionState"* %3, %"class.v8::Value"* %42) #6
  %47 = bitcast %"class.blink::bindings::NativeValueTraitsStringAdapter"* %0 to i8*
  call void @llvm.memset.p0i8.i64(i8* align 8 %47, i8 0, i64 152, i1 false)
  br label %53

48:                                               ; preds = %36
  %49 = getelementptr inbounds %"class.blink::bindings::NativeValueTraitsStringAdapter", %"class.blink::bindings::NativeValueTraitsStringAdapter"* %0, i64 0, i32 0, i32 0
  store %"class.v8::String"* %39, %"class.v8::String"** %49, align 8
  %50 = getelementptr inbounds %"class.blink::bindings::NativeValueTraitsStringAdapter", %"class.blink::bindings::NativeValueTraitsStringAdapter"* %0, i64 0, i32 1, i32 0, i32 0
  store %"class.WTF::StringImpl"* null, %"class.WTF::StringImpl"** %50, align 8
  %51 = getelementptr inbounds %"class.blink::bindings::NativeValueTraitsStringAdapter", %"class.blink::bindings::NativeValueTraitsStringAdapter"* %0, i64 0, i32 2, i32 1
  %52 = bitcast %"class.std::__1::unique_ptr.198"* %51 to i64*
  store i64 0, i64* %52, align 8
  br label %53

53:                                               ; preds = %48, %41
  call void @_ZN2v88TryCatchD1Ev(%"class.v8::TryCatch"* nonnull %5) #6
  call void @llvm.lifetime.end.p0i8(i64 48, i8* nonnull %37) #6
  br label %54

54:                                               ; preds = %53, %28, %21
  ret void
}

declare zeroext i1 @_ZNK2v85Value7IsInt32Ev(%"class.v8::Value"*) local_unnamed_addr #2

declare i32 @_ZNK2v85Int325ValueEv(%"class.v8::Int32"*) local_unnamed_addr #2

declare void @_ZN2v88TryCatchC1EPNS_7IsolateE(%"class.v8::TryCatch"*, %"class.v8::Isolate"*) unnamed_addr #2

declare %"class.v8::String"* @_ZNK2v85Value8ToStringENS_5LocalINS_7ContextEEE(%"class.v8::Value"*, %"class.v8::Context"*) local_unnamed_addr #2

declare %"class.v8::Value"* @_ZNK2v88TryCatch9ExceptionEv(%"class.v8::TryCatch"*) local_unnamed_addr #2

; Function Attrs: nounwind
declare void @_ZN2v88TryCatchD1Ev(%"class.v8::TryCatch"*) unnamed_addr #3

declare %"class.WTF::StringImpl"* @_ZN5blink13ToBlinkStringEi(i32) local_unnamed_addr #2

declare %"class.blink::PromiseRejectionEventInit"* @_ZN5blink17NativeValueTraitsINS_25PromiseRejectionEventInitEvE11NativeValueEPN2v87IsolateENS3_5LocalINS3_5ValueEEERNS_14ExceptionStateE(%"class.v8::Isolate"*, %"class.v8::Value"*, %"class.blink::ExceptionState"* dereferenceable(72)) local_unnamed_addr #2

declare void @_ZN5blink21PromiseRejectionEventC1EPNS_11ScriptStateERKN3WTF12AtomicStringEPKNS_25PromiseRejectionEventInitE(%"class.blink::PromiseRejectionEvent"*, %"class.blink::ScriptState"*, %"class.WTF::AtomicString"* dereferenceable(8), %"class.blink::PromiseRejectionEventInit"*) unnamed_addr #2

; Function Attrs: nounwind ssp uwtable
define linkonce_odr hidden i8* @_ZN5blink10ThreadHeap8AllocateINS_15ScriptWrappableEEEPhm(i64) local_unnamed_addr #0 comdat align 2 {
  %2 = alloca %"class.logging::CheckOpResult", align 8
  %3 = alloca %"class.logging::CheckOpResult", align 8
  %4 = alloca %"class.logging::CheckError", align 8
  %5 = load %"class.WTF::ThreadSpecific"*, %"class.WTF::ThreadSpecific"** @_ZN5blink11ThreadState16thread_specific_E, align 8
  %6 = getelementptr inbounds %"class.WTF::ThreadSpecific", %"class.WTF::ThreadSpecific"* %5, i64 0, i32 1
  %7 = tail call i8* @_ZNK4base18ThreadLocalStorage4Slot3GetEv(%"class.base::ThreadLocalStorage::Slot"* %6) #6
  %8 = icmp eq i8* %7, null
  br i1 %8, label %9, label %11, !prof !3

9:                                                ; preds = %1
  %10 = tail call i8* @_ZN3WTF10Partitions16FastZeroedMallocEmPKc(i64 8, i8* getelementptr inbounds ([68 x i8], [68 x i8]* @__PRETTY_FUNCTION__._ZN3WTF21GetStringWithTypeNameIPN5blink11ThreadStateEEEPKcv, i64 0, i64 0)) #6
  tail call void @_ZN4base18ThreadLocalStorage4Slot3SetEPv(%"class.base::ThreadLocalStorage::Slot"* %6, i8* %10) #6
  br label %11

11:                                               ; preds = %1, %9
  %12 = phi i8* [ %10, %9 ], [ %7, %1 ]
  %13 = bitcast i8* %12 to %"class.blink::ThreadState"**
  %14 = load %"class.blink::ThreadState"*, %"class.blink::ThreadState"** %13, align 8
  %15 = getelementptr inbounds %"class.blink::ThreadState", %"class.blink::ThreadState"* %14, i64 0, i32 0, i32 0, i32 0, i32 0
  %16 = load %"class.blink::ThreadHeap"*, %"class.blink::ThreadHeap"** %15, align 8
  %17 = icmp ult i64 %0, 64
  %18 = icmp ugt i64 %0, 31
  %19 = zext i1 %18 to i64
  %20 = icmp ult i64 %0, 128
  %21 = select i1 %20, i64 2, i64 3
  %22 = select i1 %17, i64 %19, i64 %21
  %23 = load atomic i32, i32* getelementptr inbounds ({ { i32 } }, { { i32 } }* @_ZZN5blink11GCInfoTraitINS_15ScriptWrappableEE5IndexEvE13gc_info_index, i64 0, i32 0, i32 0) acquire, align 4
  %24 = icmp eq i32 %23, 0
  br i1 %24, label %25, label %28

25:                                               ; preds = %11
  %26 = load %"class.blink::GCInfoTable"*, %"class.blink::GCInfoTable"** @_ZN5blink11GCInfoTable13global_table_E, align 8
  %27 = tail call i32 @_ZN5blink11GCInfoTable17EnsureGCInfoIndexEPKNS_6GCInfoEPNSt3__16atomicIjEE(%"class.blink::GCInfoTable"* %26, %"struct.blink::GCInfo"* nonnull @_ZZN5blink11GCInfoTraitINS_15ScriptWrappableEE5IndexEvE7kGcInfo, %"struct.std::__1::atomic.183"* bitcast ({ { i32 } }* @_ZZN5blink11GCInfoTraitINS_15ScriptWrappableEE5IndexEvE13gc_info_index to %"struct.std::__1::atomic.183"*)) #6
  br label %28

28:                                               ; preds = %11, %25
  %29 = phi i32 [ %23, %11 ], [ %27, %25 ]
  %30 = getelementptr inbounds %"class.blink::ThreadHeap", %"class.blink::ThreadHeap"* %16, i64 0, i32 19, i64 %22
  %31 = bitcast %"class.blink::BaseArena"** %30 to %"class.blink::NormalPageArena"**
  %32 = load %"class.blink::NormalPageArena"*, %"class.blink::NormalPageArena"** %31, align 8
  %33 = bitcast %"class.logging::CheckOpResult"* %3 to i8*
  call void @llvm.lifetime.start.p0i8(i64 8, i8* nonnull %33) #6
  %34 = getelementptr inbounds %"class.logging::CheckOpResult", %"class.logging::CheckOpResult"* %3, i64 0, i32 0
  store i8* inttoptr (i64 -6148914691236517206 to i8*), i8** %34, align 8
  %35 = bitcast %"class.logging::CheckOpResult"* %2 to i8*
  call void @llvm.lifetime.start.p0i8(i64 8, i8* nonnull %35) #6
  %36 = icmp ult i64 %0, -8
  br i1 %36, label %37, label %38

37:                                               ; preds = %28
  call void @llvm.lifetime.end.p0i8(i64 8, i8* nonnull %35) #6
  store i8* null, i8** %34, align 8
  br label %48

38:                                               ; preds = %28
  %39 = add nsw i64 %0, 8
  %40 = tail call i8* @_ZN7logging15CheckOpValueStrEm(i64 %39) #6
  %41 = tail call i8* @_ZN7logging15CheckOpValueStrEm(i64 %0) #6
  call void @_ZN7logging13CheckOpResultC1EPKcPcS3_(%"class.logging::CheckOpResult"* nonnull %2, i8* getelementptr inbounds ([23 x i8], [23 x i8]* @.str.7, i64 0, i64 0), i8* %40, i8* %41) #6
  %42 = getelementptr inbounds %"class.logging::CheckOpResult", %"class.logging::CheckOpResult"* %2, i64 0, i32 0
  %43 = load i8*, i8** %42, align 8
  call void @llvm.lifetime.end.p0i8(i64 8, i8* nonnull %35) #6
  store i8* %43, i8** %34, align 8
  %44 = icmp eq i8* %43, null
  br i1 %44, label %48, label %45

45:                                               ; preds = %38
  %46 = bitcast %"class.logging::CheckError"* %4 to i8*
  call void @llvm.lifetime.start.p0i8(i64 8, i8* nonnull %46) #6
  call void @_ZN7logging10CheckError7CheckOpEPKciPNS_13CheckOpResultE(%"class.logging::CheckError"* nonnull sret %4, i8* getelementptr inbounds ([59 x i8], [59 x i8]* @.str.8, i64 0, i64 0), i32 246, %"class.logging::CheckOpResult"* nonnull %3) #6
  %47 = call dereferenceable(160) %"class.std::__1::basic_ostream"* @_ZN7logging10CheckError6streamEv(%"class.logging::CheckError"* nonnull %4) #6
  call void @_ZN7logging10CheckErrorD1Ev(%"class.logging::CheckError"* nonnull %4) #6
  call void @llvm.lifetime.end.p0i8(i64 8, i8* nonnull %46) #6
  br label %48

48:                                               ; preds = %37, %38, %45
  call void @llvm.lifetime.end.p0i8(i64 8, i8* nonnull %33) #6
  %49 = add i64 %0, 15
  %50 = and i64 %49, -8
  %51 = getelementptr inbounds %"class.blink::NormalPageArena", %"class.blink::NormalPageArena"* %32, i64 0, i32 4
  %52 = load i64, i64* %51, align 8
  %53 = icmp ult i64 %52, %50
  br i1 %53, label %86, label %54, !prof !3

54:                                               ; preds = %48
  %55 = getelementptr inbounds %"class.blink::NormalPageArena", %"class.blink::NormalPageArena"* %32, i64 0, i32 3
  %56 = load i8*, i8** %55, align 8
  %57 = getelementptr inbounds i8, i8* %56, i64 %50
  store i8* %57, i8** %55, align 8
  %58 = sub i64 %52, %50
  store i64 %58, i64* %51, align 8
  %59 = bitcast i8* %56 to i32*
  store i32 0, i32* %59, align 4
  %60 = getelementptr inbounds i8, i8* %56, i64 4
  %61 = bitcast i8* %60 to i16*
  %62 = trunc i32 %29 to i16
  %63 = shl i16 %62, 2
  store atomic i16 %63, i16* %61 monotonic, align 2
  %64 = lshr exact i64 %50, 1
  %65 = trunc i64 %64 to i16
  %66 = getelementptr inbounds i8, i8* %56, i64 6
  %67 = bitcast i8* %66 to i16*
  store i16 %65, i16* %67, align 2
  %68 = ptrtoint i8* %56 to i64
  %69 = and i64 %68, -131072
  %70 = inttoptr i64 %69 to i8*
  %71 = getelementptr inbounds i8, i8* %70, i64 4400
  %72 = bitcast i8* %71 to %"class.blink::PlatformAwareObjectStartBitmap"*
  %73 = bitcast i8* %71 to i64*
  %74 = load i64, i64* %73, align 16
  %75 = sub i64 %68, %74
  %76 = lshr i64 %75, 3
  %77 = lshr i64 %75, 6
  %78 = getelementptr inbounds %"class.blink::PlatformAwareObjectStartBitmap", %"class.blink::PlatformAwareObjectStartBitmap"* %72, i64 0, i32 0, i32 1, i64 %77
  %79 = load i8, i8* %78, align 1
  %80 = trunc i64 %76 to i32
  %81 = and i32 %80, 7
  %82 = shl i32 1, %81
  %83 = trunc i32 %82 to i8
  %84 = or i8 %79, %83
  store atomic i8 %84, i8* %78 release, align 1
  %85 = getelementptr inbounds i8, i8* %56, i64 8
  br label %89

86:                                               ; preds = %48
  %87 = zext i32 %29 to i64
  %88 = call i8* @_ZN5blink15NormalPageArena17OutOfLineAllocateEmm(%"class.blink::NormalPageArena"* %32, i64 %50, i64 %87) #6
  br label %89

89:                                               ; preds = %54, %86
  %90 = phi i8* [ %85, %54 ], [ %88, %86 ]
  ret i8* %90
}

declare i8* @_ZN3WTF10Partitions16FastZeroedMallocEmPKc(i64, i8*) local_unnamed_addr #2

declare i8* @_ZNK4base18ThreadLocalStorage4Slot3GetEv(%"class.base::ThreadLocalStorage::Slot"*) local_unnamed_addr #2

declare void @_ZN4base18ThreadLocalStorage4Slot3SetEPv(%"class.base::ThreadLocalStorage::Slot"*, i8*) local_unnamed_addr #2

declare i8* @_ZN5blink15NormalPageArena17OutOfLineAllocateEmm(%"class.blink::NormalPageArena"*, i64, i64) local_unnamed_addr #2

declare void @_ZN7logging10CheckError7CheckOpEPKciPNS_13CheckOpResultE(%"class.logging::CheckError"* sret, i8*, i32, %"class.logging::CheckOpResult"*) local_unnamed_addr #2

declare i8* @_ZN7logging15CheckOpValueStrEm(i64) local_unnamed_addr #2

declare void @_ZN7logging13CheckOpResultC1EPKcPcS3_(%"class.logging::CheckOpResult"*, i8*, i8*, i8*) unnamed_addr #2

; Function Attrs: nounwind ssp uwtable
define linkonce_odr hidden void @_ZN5blink10TraceTraitINS_15ScriptWrappableEE5TraceEPNS_7VisitorEPKv(%"class.blink::Visitor"*, i8*) #0 comdat align 2 {
  %3 = bitcast i8* %1 to %"class.blink::ScriptWrappable"*
  %4 = bitcast i8* %1 to void (%"class.blink::ScriptWrappable"*, %"class.blink::Visitor"*)***
  %5 = load void (%"class.blink::ScriptWrappable"*, %"class.blink::Visitor"*)**, void (%"class.blink::ScriptWrappable"*, %"class.blink::Visitor"*)*** %4, align 8
  %6 = getelementptr inbounds void (%"class.blink::ScriptWrappable"*, %"class.blink::Visitor"*)*, void (%"class.blink::ScriptWrappable"*, %"class.blink::Visitor"*)** %5, i64 5
  %7 = load void (%"class.blink::ScriptWrappable"*, %"class.blink::Visitor"*)*, void (%"class.blink::ScriptWrappable"*, %"class.blink::Visitor"*)** %6, align 8
  tail call void %7(%"class.blink::ScriptWrappable"* %3, %"class.blink::Visitor"* %0) #6
  ret void
}

; Function Attrs: nounwind ssp uwtable
define linkonce_odr hidden void @_ZN5blink8internal14FinalizerTraitINS_15ScriptWrappableEE8FinalizeEPv(i8*) #0 comdat align 2 {
  %2 = bitcast i8* %0 to %"class.blink::ScriptWrappable"*
  %3 = bitcast i8* %0 to void (%"class.blink::ScriptWrappable"*)***
  %4 = load void (%"class.blink::ScriptWrappable"*)**, void (%"class.blink::ScriptWrappable"*)*** %3, align 8
  %5 = getelementptr inbounds void (%"class.blink::ScriptWrappable"*)*, void (%"class.blink::ScriptWrappable"*)** %4, i64 1
  %6 = load void (%"class.blink::ScriptWrappable"*)*, void (%"class.blink::ScriptWrappable"*)** %5, align 8
  tail call void %6(%"class.blink::ScriptWrappable"* %2) #6
  ret void
}

; Function Attrs: nounwind ssp uwtable
define linkonce_odr hidden { i8*, i8 } @_ZN5blink9NameTraitINS_15ScriptWrappableEE7GetNameEPKv(i8*) #0 comdat align 2 {
  %2 = bitcast i8* %0 to %"class.blink::NameClient"*
  %3 = bitcast i8* %0 to i8* (%"class.blink::NameClient"*)***
  %4 = load i8* (%"class.blink::NameClient"*)**, i8* (%"class.blink::NameClient"*)*** %3, align 8
  %5 = load i8* (%"class.blink::NameClient"*)*, i8* (%"class.blink::NameClient"*)** %4, align 8
  %6 = tail call i8* %5(%"class.blink::NameClient"* %2) #6
  %7 = insertvalue { i8*, i8 } undef, i8* %6, 0
  %8 = insertvalue { i8*, i8 } %7, i8 0, 1
  ret { i8*, i8 } %8
}

declare i32 @_ZN5blink11GCInfoTable17EnsureGCInfoIndexEPKNS_6GCInfoEPNSt3__16atomicIjEE(%"class.blink::GCInfoTable"*, %"struct.blink::GCInfo"*, %"struct.std::__1::atomic.183"*) local_unnamed_addr #2

declare %"class.WTF::StringImpl"* @_ZN5blink13ToBlinkStringIN3WTF12AtomicStringEEET_N2v85LocalINS4_6StringEEENS_12ExternalModeE(%"class.v8::String"*, i32) local_unnamed_addr #2

declare %"class.WTF::StringImpl"* @_ZN3WTF12AtomicString11AddSlowCaseEPNS_10StringImplE(%"class.WTF::StringImpl"*) local_unnamed_addr #2

; Function Attrs: nounwind readnone speculatable
declare { i33, i1 } @llvm.sadd.with.overflow.i33(i33, i33) #4

; Function Attrs: cold noreturn nounwind
declare void @llvm.trap() #5

declare void @_ZN3WTF10Partitions10BufferFreeEPv(i8*) local_unnamed_addr #2

declare zeroext i1 @_ZN2v87Isolate22IsExecutionTerminatingEv(%"class.v8::Isolate"*) local_unnamed_addr #2

declare %"class.v8::Value"* @_ZN2v87Isolate14ThrowExceptionENS_5LocalINS_5ValueEEE(%"class.v8::Isolate"*, %"class.v8::Value"*) local_unnamed_addr #2

declare i64* @_ZN2v811HandleScope12CreateHandleEPNS_8internal7IsolateEm(%"class.v8::internal::Isolate"*, i64) local_unnamed_addr #2

declare void @_ZN5blink14ExceptionState14ThrowTypeErrorEPKc(%"class.blink::ExceptionState"*, i8*) local_unnamed_addr #2

; Function Attrs: nounwind ssp uwtable
define linkonce_odr hidden void @_ZN5blink29ExceptionToRejectPromiseScopeD2Ev(%"class.blink::ExceptionToRejectPromiseScope"*) unnamed_addr #0 comdat align 2 {
  %2 = alloca %"class.blink::ScriptPromise", align 8
  %3 = getelementptr inbounds %"class.blink::ExceptionToRejectPromiseScope", %"class.blink::ExceptionToRejectPromiseScope"* %0, i64 0, i32 1
  %4 = load %"class.blink::ExceptionState"*, %"class.blink::ExceptionState"** %3, align 8
  %5 = getelementptr inbounds %"class.blink::ExceptionState", %"class.blink::ExceptionState"* %4, i64 0, i32 4
  %6 = load i32, i32* %5, align 8
  %7 = icmp eq i32 %6, 0
  br i1 %7, label %42, label %8

8:                                                ; preds = %1
  %9 = getelementptr inbounds %"class.blink::ExceptionToRejectPromiseScope", %"class.blink::ExceptionToRejectPromiseScope"* %0, i64 0, i32 0
  %10 = load %"class.v8::FunctionCallbackInfo"*, %"class.v8::FunctionCallbackInfo"** %9, align 8
  %11 = getelementptr inbounds %"class.v8::FunctionCallbackInfo", %"class.v8::FunctionCallbackInfo"* %10, i64 0, i32 0
  %12 = load i64*, i64** %11, align 8
  %13 = getelementptr inbounds i64, i64* %12, i64 1
  %14 = bitcast i64* %13 to %"class.v8::Isolate"**
  %15 = load %"class.v8::Isolate"*, %"class.v8::Isolate"** %14, align 8
  %16 = tail call %"class.v8::Context"* @_ZN2v87Isolate17GetCurrentContextEv(%"class.v8::Isolate"* %15) #6
  %17 = tail call %"class.blink::ScriptState"* @_ZN5blink11ScriptState4FromEN2v85LocalINS1_7ContextEEE(%"class.v8::Context"* %16) #6
  %18 = load %"class.v8::FunctionCallbackInfo"*, %"class.v8::FunctionCallbackInfo"** %9, align 8
  %19 = bitcast %"class.blink::ScriptPromise"* %2 to i8*
  call void @llvm.lifetime.start.p0i8(i64 32, i8* nonnull %19) #6
  %20 = load %"class.blink::ExceptionState"*, %"class.blink::ExceptionState"** %3, align 8
  call void @_ZN5blink13ScriptPromise6RejectEPNS_11ScriptStateERNS_14ExceptionStateE(%"class.blink::ScriptPromise"* nonnull sret %2, %"class.blink::ScriptState"* %17, %"class.blink::ExceptionState"* dereferenceable(72) %20) #6
  %21 = getelementptr inbounds %"class.blink::ScriptPromise", %"class.blink::ScriptPromise"* %2, i64 0, i32 1
  %22 = call %"class.v8::Value"* @_ZNK5blink11ScriptValue7V8ValueEv(%"class.blink::ScriptValue"* %21) #6
  %23 = getelementptr inbounds %"class.v8::FunctionCallbackInfo", %"class.v8::FunctionCallbackInfo"* %18, i64 0, i32 0
  %24 = load i64*, i64** %23, align 8
  %25 = getelementptr inbounds i64, i64* %24, i64 3
  %26 = icmp eq %"class.v8::Value"* %22, null
  %27 = bitcast %"class.v8::Value"* %22 to i64*
  %28 = getelementptr inbounds i64, i64* %24, i64 2
  %29 = select i1 %26, i64* %28, i64* %27, !prof !3
  %30 = load i64, i64* %29, align 8
  store i64 %30, i64* %25, align 8
  %31 = getelementptr inbounds %"class.blink::ScriptPromise", %"class.blink::ScriptPromise"* %2, i64 0, i32 1, i32 1, i32 1, i32 0
  %32 = load %"class.blink::DOMWrapperWorld"*, %"class.blink::DOMWrapperWorld"** %31, align 8
  %33 = icmp eq %"class.blink::DOMWrapperWorld"* %32, null
  br i1 %33, label %41, label %34

34:                                               ; preds = %8
  %35 = getelementptr inbounds %"class.blink::DOMWrapperWorld", %"class.blink::DOMWrapperWorld"* %32, i64 0, i32 0, i32 0, i32 0
  call void @_ZNK4base6subtle14RefCountedBase11ReleaseImplEv(%"class.base::subtle::RefCountedBase"* %35) #6
  %36 = getelementptr inbounds %"class.blink::DOMWrapperWorld", %"class.blink::DOMWrapperWorld"* %32, i64 0, i32 0, i32 0, i32 0, i32 0
  %37 = load i32, i32* %36, align 4
  %38 = icmp eq i32 %37, 0
  br i1 %38, label %39, label %41

39:                                               ; preds = %34
  call void @_ZN5blink15DOMWrapperWorldD1Ev(%"class.blink::DOMWrapperWorld"* nonnull %32) #6
  %40 = bitcast %"class.blink::DOMWrapperWorld"* %32 to i8*
  call void @free(i8* %40) #6
  br label %41

41:                                               ; preds = %8, %34, %39
  call void @llvm.lifetime.end.p0i8(i64 32, i8* nonnull %19) #6
  br label %42

42:                                               ; preds = %1, %41
  ret void
}

declare void @_ZN5blink23V8PromiseRejectionEvent28PromiseAttributeGetterCustomERKN2v820FunctionCallbackInfoINS1_5ValueEEE(%"class.v8::FunctionCallbackInfo"* dereferenceable(24)) local_unnamed_addr #2

declare zeroext i1 @_ZN5blink16V8PerIsolateData11HasInstanceEPKNS_15WrapperTypeInfoEN2v85LocalINS4_5ValueEEE(%"class.blink::V8PerIsolateData"*, %"struct.blink::WrapperTypeInfo"*, %"class.v8::Value"*) local_unnamed_addr #2

declare void @_ZN5blink13ScriptPromise6RejectEPNS_11ScriptStateERNS_14ExceptionStateE(%"class.blink::ScriptPromise"* sret, %"class.blink::ScriptState"*, %"class.blink::ExceptionState"* dereferenceable(72)) local_unnamed_addr #2

declare %"class.v8::Value"* @_ZNK5blink11ScriptValue7V8ValueEv(%"class.blink::ScriptValue"*) local_unnamed_addr #2

declare void @_ZNK4base6subtle14RefCountedBase11ReleaseImplEv(%"class.base::subtle::RefCountedBase"*) local_unnamed_addr #2

; Function Attrs: nounwind
declare void @_ZN5blink15DOMWrapperWorldD1Ev(%"class.blink::DOMWrapperWorld"*) unnamed_addr #3

; Function Attrs: nounwind
declare void @free(i8* nocapture) local_unnamed_addr #3

declare %"class.v8::Context"* @_ZN2v86Object15CreationContextEv(%"class.v8::Object"*) local_unnamed_addr #2

declare void @_ZNK5blink21PromiseRejectionEvent6reasonEPNS_11ScriptStateE(%"class.blink::ScriptValue"* sret, %"class.blink::PromiseRejectionEvent"*, %"class.blink::ScriptState"*) local_unnamed_addr #2

declare i8* @_ZN2v86Object38SlowGetAlignedPointerFromInternalFieldEi(%"class.v8::Object"*, i32) local_unnamed_addr #2

attributes #0 = { nounwind ssp uwtable "correctly-rounded-divide-sqrt-fp-math"="false" "disable-tail-calls"="false" "less-precise-fpmad"="false" "min-legal-vector-width"="0" "no-frame-pointer-elim"="false" "no-frame-pointer-elim-non-leaf" "no-infs-fp-math"="false" "no-jump-tables"="false" "no-nans-fp-math"="false" "no-signed-zeros-fp-math"="false" "no-trapping-math"="false" "null-pointer-is-valid"="true" "stack-protector-buffer-size"="4" "target-cpu"="x86-64" "target-features"="+cx8,+fxsr,+mmx,+sse,+sse2,+sse3,+x87" "unsafe-fp-math"="false" "use-soft-float"="false" }
attributes #1 = { argmemonly nounwind }
attributes #2 = { "correctly-rounded-divide-sqrt-fp-math"="false" "disable-tail-calls"="false" "less-precise-fpmad"="false" "no-frame-pointer-elim"="false" "no-frame-pointer-elim-non-leaf" "no-infs-fp-math"="false" "no-nans-fp-math"="false" "no-signed-zeros-fp-math"="false" "no-trapping-math"="false" "null-pointer-is-valid"="true" "stack-protector-buffer-size"="4" "target-cpu"="x86-64" "target-features"="+cx8,+fxsr,+mmx,+sse,+sse2,+sse3,+x87" "unsafe-fp-math"="false" "use-soft-float"="false" }
attributes #3 = { nounwind "correctly-rounded-divide-sqrt-fp-math"="false" "disable-tail-calls"="false" "less-precise-fpmad"="false" "no-frame-pointer-elim"="false" "no-frame-pointer-elim-non-leaf" "no-infs-fp-math"="false" "no-nans-fp-math"="false" "no-signed-zeros-fp-math"="false" "no-trapping-math"="false" "null-pointer-is-valid"="true" "stack-protector-buffer-size"="4" "target-cpu"="x86-64" "target-features"="+cx8,+fxsr,+mmx,+sse,+sse2,+sse3,+x87" "unsafe-fp-math"="false" "use-soft-float"="false" }
attributes #4 = { nounwind readnone speculatable }
attributes #5 = { cold noreturn nounwind }
attributes #6 = { nounwind }

!llvm.module.flags = !{!0, !1}

!0 = !{i32 1, !"wchar_size", i32 4}
!1 = !{i32 7, !"PIC Level", i32 2}
!2 = !{i8 0, i8 2}
!3 = !{!"branch_weights", i32 1, i32 2000}
