; ModuleID = 'gen/third_party/blink/renderer/bindings/modules/v8/v8_socket_options.cc'
source_filename = "gen/third_party/blink/renderer/bindings/modules/v8/v8_socket_options.cc"
target datalayout = "e-m:e-i64:64-f80:128-n8:16:32:64-S128"
target triple = "x86_64-unknown-linux-gnu"

module asm ".symver exp, exp@GLIBC_2.2.5"
module asm ".symver exp2, exp2@GLIBC_2.2.5"
module asm ".symver exp2f, exp2f@GLIBC_2.2.5"
module asm ".symver expf, expf@GLIBC_2.2.5"
module asm ".symver lgamma, lgamma@GLIBC_2.2.5"
module asm ".symver lgammaf, lgammaf@GLIBC_2.2.5"
module asm ".symver lgammal, lgammal@GLIBC_2.2.5"
module asm ".symver log, log@GLIBC_2.2.5"
module asm ".symver log2, log2@GLIBC_2.2.5"
module asm ".symver log2f, log2f@GLIBC_2.2.5"
module asm ".symver logf, logf@GLIBC_2.2.5"
module asm ".symver pow, pow@GLIBC_2.2.5"
module asm ".symver powf, powf@GLIBC_2.2.5"

%"class.WTF::ThreadSpecific" = type { %"class.blink::ThreadState"**, %"class.base::ThreadLocalStorage::Slot" }
%"class.blink::ThreadState" = type <{ %"class.std::__1::unique_ptr.78", i32, [4 x i8], %"class.std::__1::unique_ptr.214", %"class.std::__1::unique_ptr.214", i8**, i8, i8, i8, i8, i8, i8, [2 x i8], i64, i64, i32, i32, i32, [4 x i8], %"class.WTF::Deque", %"class.v8::Isolate"*, void (%"class.v8::Isolate"*, %"class.v8::EmbedderGraph"*, i8*)*, %"class.std::__1::unique_ptr.224", %"class.std::__1::unique_ptr.230", %"struct.blink::ThreadState::GCData", %"class.std::__1::unique_ptr.242", %"class.std::__1::unique_ptr.248", %"class.base::JobHandle", %"class.base::JobHandle", %"struct.std::__1::atomic.255", [7 x i8], i64, i8, [7 x i8], i64, %"class.base::TimeTicks", i8, i8, [6 x i8] }>
%"class.std::__1::unique_ptr.78" = type { %"class.std::__1::__compressed_pair.79" }
%"class.std::__1::__compressed_pair.79" = type { %"struct.std::__1::__compressed_pair_elem.80" }
%"struct.std::__1::__compressed_pair_elem.80" = type { %"class.blink::ThreadHeap"* }
%"class.blink::ThreadHeap" = type { %"class.blink::ThreadState"*, %"class.std::__1::unique_ptr.81", %"class.std::__1::unique_ptr.87", %"class.std::__1::unique_ptr.93", %"class.std::__1::unique_ptr.99", %"class.std::__1::unique_ptr.105", %"class.std::__1::unique_ptr.111", %"class.std::__1::unique_ptr.122", %"class.std::__1::unique_ptr.129", %"class.std::__1::unique_ptr.129", %"class.std::__1::unique_ptr.136", %"class.std::__1::unique_ptr.143", %"class.std::__1::unique_ptr.150", %"class.std::__1::unique_ptr.150", %"class.std::__1::unique_ptr.157", %"class.std::__1::unique_ptr.164", %"class.std::__1::unique_ptr.171", %"class.std::__1::unique_ptr.194", %"struct.blink::ThreadHeap::LastAllocatedRegion", [9 x %"class.blink::BaseArena"*], i64, i64 }
%"class.std::__1::unique_ptr.81" = type { %"class.std::__1::__compressed_pair.82" }
%"class.std::__1::__compressed_pair.82" = type { %"struct.std::__1::__compressed_pair_elem.83" }
%"struct.std::__1::__compressed_pair_elem.83" = type { %"class.blink::ThreadHeapStatsCollector"* }
%"class.blink::ThreadHeapStatsCollector" = type opaque
%"class.std::__1::unique_ptr.87" = type { %"class.std::__1::__compressed_pair.88" }
%"class.std::__1::__compressed_pair.88" = type { %"struct.std::__1::__compressed_pair_elem.89" }
%"struct.std::__1::__compressed_pair_elem.89" = type { %"class.blink::RegionTree"* }
%"class.blink::RegionTree" = type opaque
%"class.std::__1::unique_ptr.93" = type { %"class.std::__1::__compressed_pair.94" }
%"class.std::__1::__compressed_pair.94" = type { %"struct.std::__1::__compressed_pair_elem.95" }
%"struct.std::__1::__compressed_pair_elem.95" = type { %"class.blink::PageBloomFilter"* }
%"class.blink::PageBloomFilter" = type opaque
%"class.std::__1::unique_ptr.99" = type { %"class.std::__1::__compressed_pair.100" }
%"class.std::__1::__compressed_pair.100" = type { %"struct.std::__1::__compressed_pair_elem.101" }
%"struct.std::__1::__compressed_pair_elem.101" = type { %"class.blink::PagePool"* }
%"class.blink::PagePool" = type opaque
%"class.std::__1::unique_ptr.105" = type { %"class.std::__1::__compressed_pair.106" }
%"class.std::__1::__compressed_pair.106" = type { %"struct.std::__1::__compressed_pair_elem.107" }
%"struct.std::__1::__compressed_pair_elem.107" = type { %"class.blink::ProcessHeapReporter"* }
%"class.blink::ProcessHeapReporter" = type opaque
%"class.std::__1::unique_ptr.111" = type { %"class.std::__1::__compressed_pair.112" }
%"class.std::__1::__compressed_pair.112" = type { %"struct.std::__1::__compressed_pair_elem.113" }
%"struct.std::__1::__compressed_pair_elem.113" = type { %"class.blink::Worklist"* }
%"class.blink::Worklist" = type { [4 x %"struct.blink::Worklist<blink::TraceDescriptor, 512, 4>::PrivateSegmentHolder"], %"class.blink::Worklist<blink::TraceDescriptor, 512, 4>::GlobalPool" }
%"struct.blink::Worklist<blink::TraceDescriptor, 512, 4>::PrivateSegmentHolder" = type { %"class.blink::Worklist<blink::TraceDescriptor, 512, 4>::Segment"*, %"class.blink::Worklist<blink::TraceDescriptor, 512, 4>::Segment"*, [64 x i8] }
%"class.blink::Worklist<blink::TraceDescriptor, 512, 4>::Segment" = type { %"class.blink::Worklist<blink::TraceDescriptor, 512, 4>::Segment"*, i64, [512 x %"struct.blink::TraceDescriptor"] }
%"struct.blink::TraceDescriptor" = type { i8*, {}* }
%"class.blink::Worklist<blink::TraceDescriptor, 512, 4>::GlobalPool" = type { %"class.base::Lock", %"class.blink::Worklist<blink::TraceDescriptor, 512, 4>::Segment"*, %"struct.std::__1::atomic.114" }
%"class.base::Lock" = type { %"class.base::internal::LockImpl" }
%"class.base::internal::LockImpl" = type { %union.pthread_mutex_t }
%union.pthread_mutex_t = type { %struct.__pthread_mutex_s }
%struct.__pthread_mutex_s = type { i32, i32, i32, i32, i32, i16, i16, %struct.__pthread_internal_list }
%struct.__pthread_internal_list = type { %struct.__pthread_internal_list*, %struct.__pthread_internal_list* }
%"struct.std::__1::atomic.114" = type { %"struct.std::__1::__atomic_base.115" }
%"struct.std::__1::__atomic_base.115" = type { %"struct.std::__1::__atomic_base.116" }
%"struct.std::__1::__atomic_base.116" = type { %"struct.std::__1::__cxx_atomic_impl.117" }
%"struct.std::__1::__cxx_atomic_impl.117" = type { %"struct.std::__1::__cxx_atomic_base_impl.118" }
%"struct.std::__1::__cxx_atomic_base_impl.118" = type { i64 }
%"class.std::__1::unique_ptr.122" = type { %"class.std::__1::__compressed_pair.123" }
%"class.std::__1::__compressed_pair.123" = type { %"struct.std::__1::__compressed_pair_elem.124" }
%"struct.std::__1::__compressed_pair_elem.124" = type { %"class.blink::Worklist.125"* }
%"class.blink::Worklist.125" = type { [4 x %"struct.blink::Worklist<blink::HeapObjectHeader *, 64, 4>::PrivateSegmentHolder"], %"class.blink::Worklist<blink::HeapObjectHeader *, 64, 4>::GlobalPool" }
%"struct.blink::Worklist<blink::HeapObjectHeader *, 64, 4>::PrivateSegmentHolder" = type { %"class.blink::Worklist<blink::HeapObjectHeader *, 64, 4>::Segment"*, %"class.blink::Worklist<blink::HeapObjectHeader *, 64, 4>::Segment"*, [64 x i8] }
%"class.blink::Worklist<blink::HeapObjectHeader *, 64, 4>::Segment" = type opaque
%"class.blink::Worklist<blink::HeapObjectHeader *, 64, 4>::GlobalPool" = type { %"class.base::Lock", %"class.blink::Worklist<blink::HeapObjectHeader *, 64, 4>::Segment"*, %"struct.std::__1::atomic.114" }
%"class.std::__1::unique_ptr.129" = type { %"class.std::__1::__compressed_pair.130" }
%"class.std::__1::__compressed_pair.130" = type { %"struct.std::__1::__compressed_pair_elem.131" }
%"struct.std::__1::__compressed_pair_elem.131" = type { %"class.blink::Worklist.132"* }
%"class.blink::Worklist.132" = type { [4 x %"struct.blink::Worklist<const void *, 16, 4>::PrivateSegmentHolder"], %"class.blink::Worklist<const void *, 16, 4>::GlobalPool" }
%"struct.blink::Worklist<const void *, 16, 4>::PrivateSegmentHolder" = type { %"class.blink::Worklist<const void *, 16, 4>::Segment"*, %"class.blink::Worklist<const void *, 16, 4>::Segment"*, [64 x i8] }
%"class.blink::Worklist<const void *, 16, 4>::Segment" = type { %"class.blink::Worklist<const void *, 16, 4>::Segment"*, i64, [16 x i8*] }
%"class.blink::Worklist<const void *, 16, 4>::GlobalPool" = type { %"class.base::Lock", %"class.blink::Worklist<const void *, 16, 4>::Segment"*, %"struct.std::__1::atomic.114" }
%"class.std::__1::unique_ptr.136" = type { %"class.std::__1::__compressed_pair.137" }
%"class.std::__1::__compressed_pair.137" = type { %"struct.std::__1::__compressed_pair_elem.138" }
%"struct.std::__1::__compressed_pair_elem.138" = type { %"class.blink::Worklist.139"* }
%"class.blink::Worklist.139" = type { [4 x %"struct.blink::Worklist<blink::CustomCallbackItem, 64, 4>::PrivateSegmentHolder"], %"class.blink::Worklist<blink::CustomCallbackItem, 64, 4>::GlobalPool" }
%"struct.blink::Worklist<blink::CustomCallbackItem, 64, 4>::PrivateSegmentHolder" = type { %"class.blink::Worklist<blink::CustomCallbackItem, 64, 4>::Segment"*, %"class.blink::Worklist<blink::CustomCallbackItem, 64, 4>::Segment"*, [64 x i8] }
%"class.blink::Worklist<blink::CustomCallbackItem, 64, 4>::Segment" = type opaque
%"class.blink::Worklist<blink::CustomCallbackItem, 64, 4>::GlobalPool" = type { %"class.base::Lock", %"class.blink::Worklist<blink::CustomCallbackItem, 64, 4>::Segment"*, %"struct.std::__1::atomic.114" }
%"class.std::__1::unique_ptr.143" = type { %"class.std::__1::__compressed_pair.144" }
%"class.std::__1::__compressed_pair.144" = type { %"struct.std::__1::__compressed_pair_elem.145" }
%"struct.std::__1::__compressed_pair_elem.145" = type { %"class.blink::Worklist.146"* }
%"class.blink::Worklist.146" = type { [4 x %"struct.blink::Worklist<const void *const *, 256, 4>::PrivateSegmentHolder"], %"class.blink::Worklist<const void *const *, 256, 4>::GlobalPool" }
%"struct.blink::Worklist<const void *const *, 256, 4>::PrivateSegmentHolder" = type { %"class.blink::Worklist<const void *const *, 256, 4>::Segment"*, %"class.blink::Worklist<const void *const *, 256, 4>::Segment"*, [64 x i8] }
%"class.blink::Worklist<const void *const *, 256, 4>::Segment" = type opaque
%"class.blink::Worklist<const void *const *, 256, 4>::GlobalPool" = type { %"class.base::Lock", %"class.blink::Worklist<const void *const *, 256, 4>::Segment"*, %"struct.std::__1::atomic.114" }
%"class.std::__1::unique_ptr.150" = type { %"class.std::__1::__compressed_pair.151" }
%"class.std::__1::__compressed_pair.151" = type { %"struct.std::__1::__compressed_pair_elem.152" }
%"struct.std::__1::__compressed_pair_elem.152" = type { %"class.blink::Worklist.153"* }
%"class.blink::Worklist.153" = type { [4 x %"struct.blink::Worklist<blink::EphemeronPairItem, 64, 4>::PrivateSegmentHolder"], %"class.blink::Worklist<blink::EphemeronPairItem, 64, 4>::GlobalPool" }
%"struct.blink::Worklist<blink::EphemeronPairItem, 64, 4>::PrivateSegmentHolder" = type { %"class.blink::Worklist<blink::EphemeronPairItem, 64, 4>::Segment"*, %"class.blink::Worklist<blink::EphemeronPairItem, 64, 4>::Segment"*, [64 x i8] }
%"class.blink::Worklist<blink::EphemeronPairItem, 64, 4>::Segment" = type opaque
%"class.blink::Worklist<blink::EphemeronPairItem, 64, 4>::GlobalPool" = type { %"class.base::Lock", %"class.blink::Worklist<blink::EphemeronPairItem, 64, 4>::Segment"*, %"struct.std::__1::atomic.114" }
%"class.std::__1::unique_ptr.157" = type { %"class.std::__1::__compressed_pair.158" }
%"class.std::__1::__compressed_pair.158" = type { %"struct.std::__1::__compressed_pair_elem.159" }
%"struct.std::__1::__compressed_pair_elem.159" = type { %"class.blink::Worklist.160"* }
%"class.blink::Worklist.160" = type { [4 x %"struct.blink::Worklist<const blink::TraceWrapperV8Reference<v8::Value> *, 16, 4>::PrivateSegmentHolder"], %"class.blink::Worklist<const blink::TraceWrapperV8Reference<v8::Value> *, 16, 4>::GlobalPool" }
%"struct.blink::Worklist<const blink::TraceWrapperV8Reference<v8::Value> *, 16, 4>::PrivateSegmentHolder" = type { %"class.blink::Worklist<const blink::TraceWrapperV8Reference<v8::Value> *, 16, 4>::Segment"*, %"class.blink::Worklist<const blink::TraceWrapperV8Reference<v8::Value> *, 16, 4>::Segment"*, [64 x i8] }
%"class.blink::Worklist<const blink::TraceWrapperV8Reference<v8::Value> *, 16, 4>::Segment" = type opaque
%"class.blink::Worklist<const blink::TraceWrapperV8Reference<v8::Value> *, 16, 4>::GlobalPool" = type { %"class.base::Lock", %"class.blink::Worklist<const blink::TraceWrapperV8Reference<v8::Value> *, 16, 4>::Segment"*, %"struct.std::__1::atomic.114" }
%"class.std::__1::unique_ptr.164" = type { %"class.std::__1::__compressed_pair.165" }
%"class.std::__1::__compressed_pair.165" = type { %"struct.std::__1::__compressed_pair_elem.166" }
%"struct.std::__1::__compressed_pair_elem.166" = type { %"class.blink::Worklist.167"* }
%"class.blink::Worklist.167" = type { [4 x %"struct.blink::Worklist<blink::NotSafeToConcurrentlyTraceItem, 64, 4>::PrivateSegmentHolder"], %"class.blink::Worklist<blink::NotSafeToConcurrentlyTraceItem, 64, 4>::GlobalPool" }
%"struct.blink::Worklist<blink::NotSafeToConcurrentlyTraceItem, 64, 4>::PrivateSegmentHolder" = type { %"class.blink::Worklist<blink::NotSafeToConcurrentlyTraceItem, 64, 4>::Segment"*, %"class.blink::Worklist<blink::NotSafeToConcurrentlyTraceItem, 64, 4>::Segment"*, [64 x i8] }
%"class.blink::Worklist<blink::NotSafeToConcurrentlyTraceItem, 64, 4>::Segment" = type { %"class.blink::Worklist<blink::NotSafeToConcurrentlyTraceItem, 64, 4>::Segment"*, i64, [64 x %"struct.blink::NotSafeToConcurrentlyTraceItem"] }
%"struct.blink::NotSafeToConcurrentlyTraceItem" = type { %"struct.blink::TraceDescriptor", i64 }
%"class.blink::Worklist<blink::NotSafeToConcurrentlyTraceItem, 64, 4>::GlobalPool" = type { %"class.base::Lock", %"class.blink::Worklist<blink::NotSafeToConcurrentlyTraceItem, 64, 4>::Segment"*, %"struct.std::__1::atomic.114" }
%"class.std::__1::unique_ptr.171" = type { %"class.std::__1::__compressed_pair.172" }
%"class.std::__1::__compressed_pair.172" = type { %"struct.std::__1::__compressed_pair_elem.173" }
%"struct.std::__1::__compressed_pair_elem.173" = type { %"class.blink::WeakContainersWorklist"* }
%"class.blink::WeakContainersWorklist" = type { %"class.WTF::Mutex", %"class.std::__1::unordered_set" }
%"class.WTF::Mutex" = type { %"class.WTF::MutexBase" }
%"class.WTF::MutexBase" = type { %"struct.WTF::PlatformMutex" }
%"struct.WTF::PlatformMutex" = type { %union.pthread_mutex_t }
%"class.std::__1::unordered_set" = type { %"class.std::__1::__hash_table" }
%"class.std::__1::__hash_table" = type <{ %"class.std::__1::unique_ptr.174", %"class.std::__1::__compressed_pair.181", %"class.std::__1::__compressed_pair.186", %"class.std::__1::__compressed_pair.188", [4 x i8] }>
%"class.std::__1::unique_ptr.174" = type { %"class.std::__1::__compressed_pair.175" }
%"class.std::__1::__compressed_pair.175" = type { %"struct.std::__1::__compressed_pair_elem.176", %"struct.std::__1::__compressed_pair_elem.177" }
%"struct.std::__1::__compressed_pair_elem.176" = type { %"struct.std::__1::__hash_node_base"** }
%"struct.std::__1::__hash_node_base" = type { %"struct.std::__1::__hash_node_base"* }
%"struct.std::__1::__compressed_pair_elem.177" = type { %"class.std::__1::__bucket_list_deallocator" }
%"class.std::__1::__bucket_list_deallocator" = type { %"class.std::__1::__compressed_pair.178" }
%"class.std::__1::__compressed_pair.178" = type { %"struct.std::__1::__compressed_pair_elem.179" }
%"struct.std::__1::__compressed_pair_elem.179" = type { i64 }
%"class.std::__1::__compressed_pair.181" = type { %"struct.std::__1::__compressed_pair_elem.182" }
%"struct.std::__1::__compressed_pair_elem.182" = type { %"struct.std::__1::__hash_node_base" }
%"class.std::__1::__compressed_pair.186" = type { %"struct.std::__1::__compressed_pair_elem.179" }
%"class.std::__1::__compressed_pair.188" = type { %"struct.std::__1::__compressed_pair_elem.189" }
%"struct.std::__1::__compressed_pair_elem.189" = type { float }
%"class.std::__1::unique_ptr.194" = type { %"class.std::__1::__compressed_pair.195" }
%"class.std::__1::__compressed_pair.195" = type { %"struct.std::__1::__compressed_pair_elem.196" }
%"struct.std::__1::__compressed_pair_elem.196" = type { %"class.blink::HeapCompact"* }
%"class.blink::HeapCompact" = type <{ %"class.blink::ThreadHeap"*, %"class.std::__1::unique_ptr.197", i8, [7 x i8], i64, i64, i32, [4 x i8], i64, i8, [7 x i8] }>
%"class.std::__1::unique_ptr.197" = type { %"class.std::__1::__compressed_pair.198" }
%"class.std::__1::__compressed_pair.198" = type { %"struct.std::__1::__compressed_pair_elem.199" }
%"struct.std::__1::__compressed_pair_elem.199" = type { %"class.blink::HeapCompact::MovableObjectFixups"* }
%"class.blink::HeapCompact::MovableObjectFixups" = type opaque
%"struct.blink::ThreadHeap::LastAllocatedRegion" = type { i8*, i64 }
%"class.blink::BaseArena" = type <{ i32 (...)**, %"class.blink::PageStackThreadSafe", %"class.blink::PageStackThreadSafe", %"class.blink::PageStackThreadSafe", %"class.blink::PageStackThreadSafe", %"class.blink::ThreadState"*, i32, [4 x i8] }>
%"class.blink::PageStackThreadSafe" = type { %"class.blink::PageStack", %"class.WTF::Mutex" }
%"class.blink::PageStack" = type { %"class.WTF::Vector.206" }
%"class.WTF::Vector.206" = type { %"class.WTF::VectorBuffer.207" }
%"class.WTF::VectorBuffer.207" = type { %"class.WTF::VectorBufferBase.208" }
%"class.WTF::VectorBufferBase.208" = type { %"class.blink::BasePage"**, i32, i32 }
%"class.blink::BasePage" = type <{ i32 (...)**, %"class.blink::PageMemory"*, %"class.blink::BaseArena"*, %"class.blink::ThreadState"*, i64, i8, i8, i8, [5 x i8] }>
%"class.blink::PageMemory" = type opaque
%"class.std::__1::unique_ptr.214" = type { %"class.std::__1::__compressed_pair.215" }
%"class.std::__1::__compressed_pair.215" = type { %"struct.std::__1::__compressed_pair_elem.216" }
%"struct.std::__1::__compressed_pair_elem.216" = type { %"class.blink::PersistentRegion"* }
%"class.blink::PersistentRegion" = type { %"class.blink::PersistentRegionBase" }
%"class.blink::PersistentRegionBase" = type { %"class.blink::PersistentNode"*, %"struct.blink::PersistentNodeSlots"* }
%"class.blink::PersistentNode" = type { i8*, void (%"class.blink::Visitor"*, i8*)* }
%"class.blink::Visitor" = type { i32 (...)**, %"class.blink::ThreadState"* }
%"struct.blink::PersistentNodeSlots" = type { %"struct.blink::PersistentNodeSlots"*, [256 x %"class.blink::PersistentNode"] }
%"class.WTF::Deque" = type { %"class.WTF::Deque<std::__1::pair<void *, bool (*)(const blink::LivenessBroker &, void *)>, 0, WTF::PartitionAllocator>::BackingBuffer", i32, i32 }
%"class.WTF::Deque<std::__1::pair<void *, bool (*)(const blink::LivenessBroker &, void *)>, 0, WTF::PartitionAllocator>::BackingBuffer" = type { %"class.WTF::VectorBuffer.222" }
%"class.WTF::VectorBuffer.222" = type { %"class.WTF::VectorBufferBase.223" }
%"class.WTF::VectorBufferBase.223" = type { %"struct.std::__1::pair"*, i32, i32 }
%"struct.std::__1::pair" = type { i8*, i1 (%"class.blink::LivenessBroker"*, i8*)* }
%"class.blink::LivenessBroker" = type { i8 }
%"class.v8::Isolate" = type { i8 }
%"class.v8::EmbedderGraph" = type opaque
%"class.std::__1::unique_ptr.224" = type { %"class.std::__1::__compressed_pair.225" }
%"class.std::__1::__compressed_pair.225" = type { %"struct.std::__1::__compressed_pair_elem.226" }
%"struct.std::__1::__compressed_pair_elem.226" = type { %"class.blink::UnifiedHeapController"* }
%"class.blink::UnifiedHeapController" = type opaque
%"class.std::__1::unique_ptr.230" = type { %"class.std::__1::__compressed_pair.231" }
%"class.std::__1::__compressed_pair.231" = type { %"struct.std::__1::__compressed_pair_elem.232" }
%"struct.std::__1::__compressed_pair_elem.232" = type { %"class.v8::EmbedderRootsHandler"* }
%"class.v8::EmbedderRootsHandler" = type { i32 (...)** }
%"struct.blink::ThreadState::GCData" = type { i32, i32, i32, i32, %"class.std::__1::unique_ptr.236" }
%"class.std::__1::unique_ptr.236" = type { %"class.std::__1::__compressed_pair.237" }
%"class.std::__1::__compressed_pair.237" = type { %"struct.std::__1::__compressed_pair_elem.238" }
%"struct.std::__1::__compressed_pair_elem.238" = type { %"class.blink::MarkingVisitor"* }
%"class.blink::MarkingVisitor" = type { %"class.blink::MarkingVisitorBase", %"class.blink::MarkingVisitor::RecentlyRetracedWeakContainers" }
%"class.blink::MarkingVisitorBase" = type { %"class.blink::Visitor", %"class.blink::Worklist<blink::TraceDescriptor, 512, 4>::View", %"class.blink::Worklist<blink::HeapObjectHeader *, 64, 4>::View", %"class.blink::Worklist<const void *, 16, 4>::View", %"class.blink::Worklist<blink::CustomCallbackItem, 64, 4>::View", %"class.blink::Worklist<const void *const *, 256, 4>::View", %"class.blink::Worklist<blink::EphemeronPairItem, 64, 4>::View", %"class.blink::Worklist<blink::EphemeronPairItem, 64, 4>::View", %"class.blink::WeakContainersWorklist"*, i64, i32, i32 }
%"class.blink::Worklist<blink::TraceDescriptor, 512, 4>::View" = type <{ %"class.blink::Worklist"*, i32, [4 x i8] }>
%"class.blink::Worklist<blink::HeapObjectHeader *, 64, 4>::View" = type <{ %"class.blink::Worklist.125"*, i32, [4 x i8] }>
%"class.blink::Worklist<const void *, 16, 4>::View" = type <{ %"class.blink::Worklist.132"*, i32, [4 x i8] }>
%"class.blink::Worklist<blink::CustomCallbackItem, 64, 4>::View" = type <{ %"class.blink::Worklist.139"*, i32, [4 x i8] }>
%"class.blink::Worklist<const void *const *, 256, 4>::View" = type <{ %"class.blink::Worklist.146"*, i32, [4 x i8] }>
%"class.blink::Worklist<blink::EphemeronPairItem, 64, 4>::View" = type <{ %"class.blink::Worklist.153"*, i32, [4 x i8] }>
%"class.blink::MarkingVisitor::RecentlyRetracedWeakContainers" = type { %"class.std::__1::vector", i64 }
%"class.std::__1::vector" = type { %"class.std::__1::__vector_base" }
%"class.std::__1::__vector_base" = type { %"class.blink::HeapObjectHeader"**, %"class.blink::HeapObjectHeader"**, %"class.std::__1::__compressed_pair.286" }
%"class.blink::HeapObjectHeader" = type { i32, i16, i16 }
%"class.std::__1::__compressed_pair.286" = type { %"struct.std::__1::__compressed_pair_elem.287" }
%"struct.std::__1::__compressed_pair_elem.287" = type { %"class.blink::HeapObjectHeader"** }
%"class.std::__1::unique_ptr.242" = type { %"class.std::__1::__compressed_pair.243" }
%"class.std::__1::__compressed_pair.243" = type { %"struct.std::__1::__compressed_pair_elem.244" }
%"struct.std::__1::__compressed_pair_elem.244" = type { %"class.blink::ThreadState::IncrementalMarkingScheduler"* }
%"class.blink::ThreadState::IncrementalMarkingScheduler" = type opaque
%"class.std::__1::unique_ptr.248" = type { %"class.std::__1::__compressed_pair.249" }
%"class.std::__1::__compressed_pair.249" = type { %"struct.std::__1::__compressed_pair_elem.250" }
%"struct.std::__1::__compressed_pair_elem.250" = type { %"class.blink::MarkingSchedulingOracle"* }
%"class.blink::MarkingSchedulingOracle" = type opaque
%"class.base::JobHandle" = type { %class.scoped_refptr.254 }
%class.scoped_refptr.254 = type { %"class.base::internal::JobTaskSource"* }
%"class.base::internal::JobTaskSource" = type opaque
%"struct.std::__1::atomic.255" = type { %"struct.std::__1::__atomic_base.256" }
%"struct.std::__1::__atomic_base.256" = type { %"struct.std::__1::__cxx_atomic_impl.257" }
%"struct.std::__1::__cxx_atomic_impl.257" = type { %"struct.std::__1::__cxx_atomic_base_impl.258" }
%"struct.std::__1::__cxx_atomic_base_impl.258" = type { i8 }
%"class.base::TimeTicks" = type { %"class.base::time_internal::TimeBase" }
%"class.base::time_internal::TimeBase" = type { i64 }
%"class.base::ThreadLocalStorage::Slot" = type { i32, i32 }
%"struct.blink::GCInfo" = type { void (%"class.blink::Visitor"*, i8*)*, void (i8*)*, { i8*, i8 } (i8*)*, i8 }
%"class.blink::GCInfoTable" = type { %"struct.blink::GCInfo"**, i32, i32, %"class.WTF::Mutex" }
%"class.v8::Value" = type { i8 }
%"class.blink::SocketOptions" = type { %"class.blink::IDLDictionaryBase", i8, i8, i8, i8, i8, i8, i8, %"class.WTF::String", i16, i8, i32, %"class.WTF::String", i16, i32 }
%"class.blink::IDLDictionaryBase" = type { i32 (...)** }
%"class.WTF::String" = type { %class.scoped_refptr }
%class.scoped_refptr = type { %"class.WTF::StringImpl"* }
%"class.WTF::StringImpl" = type { i32, i32, %"struct.std::__1::atomic" }
%"struct.std::__1::atomic" = type { %"struct.std::__1::__atomic_base" }
%"struct.std::__1::__atomic_base" = type { %"struct.std::__1::__atomic_base.0" }
%"struct.std::__1::__atomic_base.0" = type { %"struct.std::__1::__cxx_atomic_impl" }
%"struct.std::__1::__cxx_atomic_impl" = type { %"struct.std::__1::__cxx_atomic_base_impl" }
%"struct.std::__1::__cxx_atomic_base_impl" = type { i32 }
%"class.blink::ExceptionState" = type { i32 (...)**, %"class.blink::ExceptionContext", %"class.blink::ExceptionState::ContextScope"*, %"class.v8::Isolate"*, i32, %"class.WTF::String", %"class.blink::TraceWrapperV8Reference" }
%"class.blink::ExceptionContext" = type { i16, i16, i8*, i8* }
%"class.blink::ExceptionState::ContextScope" = type { %"class.blink::ExceptionState"*, %"class.blink::ExceptionState::ContextScope"*, %"class.blink::ExceptionContext" }
%"class.blink::TraceWrapperV8Reference" = type { %"class.v8::TracedReference" }
%"class.v8::TracedReference" = type { %"class.v8::BasicTracedReference" }
%"class.v8::BasicTracedReference" = type { %"class.v8::TracedReferenceBase" }
%"class.v8::TracedReferenceBase" = type { i64* }
%"class.v8::TryCatch" = type <{ %"class.v8::internal::Isolate"*, %"class.v8::TryCatch"*, i8*, i8*, i8*, i8, [7 x i8] }>
%"class.v8::internal::Isolate" = type opaque
%"class.blink::V8StringResource" = type { %"class.v8::Local", i32, %"class.WTF::String", %"class.WTF::StringView::StackBackingStore" }
%"class.v8::Local" = type { %"class.v8::Value"* }
%"class.WTF::StringView::StackBackingStore" = type { [64 x i16], %"class.std::__1::unique_ptr" }
%"class.std::__1::unique_ptr" = type { %"class.std::__1::__compressed_pair" }
%"class.std::__1::__compressed_pair" = type { %"struct.std::__1::__compressed_pair_elem" }
%"struct.std::__1::__compressed_pair_elem" = type { i8* }
%"class.v8::Object" = type { i8 }
%"class.blink::V8PerIsolateData" = type { i32, %"class.gin::IsolateHolder", %"class.WTF::HashMap", %"class.WTF::HashMap", %"class.WTF::HashMap.25", %"class.std::__1::unique_ptr.30", %"class.std::__1::unique_ptr.72", %"class.blink::Persistent", i8, i8, i8, %"class.WTF::Vector.259", %"class.std::__1::unique_ptr.264", %"class.blink::Persistent.270", %"class.blink::Persistent.274", %"class.blink::RuntimeCallStats", void (%"class.v8::Isolate"*, i32, i32)*, void (%"class.v8::Isolate"*, i32, i32)*, i64 }
%"class.gin::IsolateHolder" = type { %"class.std::__1::unique_ptr.9", %"class.v8::Isolate"*, %"class.std::__1::unique_ptr.13", %"class.std::__1::unique_ptr.19", i32, i32 }
%"class.std::__1::unique_ptr.9" = type { %"class.std::__1::__compressed_pair.10" }
%"class.std::__1::__compressed_pair.10" = type { %"struct.std::__1::__compressed_pair_elem.11" }
%"struct.std::__1::__compressed_pair_elem.11" = type { %"class.v8::SnapshotCreator"* }
%"class.v8::SnapshotCreator" = type { i8* }
%"class.std::__1::unique_ptr.13" = type { %"class.std::__1::__compressed_pair.14" }
%"class.std::__1::__compressed_pair.14" = type { %"struct.std::__1::__compressed_pair_elem.15" }
%"struct.std::__1::__compressed_pair_elem.15" = type { %"class.gin::PerIsolateData"* }
%"class.gin::PerIsolateData" = type opaque
%"class.std::__1::unique_ptr.19" = type { %"class.std::__1::__compressed_pair.20" }
%"class.std::__1::__compressed_pair.20" = type { %"struct.std::__1::__compressed_pair_elem.21" }
%"struct.std::__1::__compressed_pair_elem.21" = type { %"class.gin::V8IsolateMemoryDumpProvider"* }
%"class.gin::V8IsolateMemoryDumpProvider" = type opaque
%"class.WTF::HashMap" = type { %"class.WTF::HashTable" }
%"class.WTF::HashTable" = type <{ %"struct.WTF::KeyValuePair"*, i32, i32, i32, [4 x i8] }>
%"struct.WTF::KeyValuePair" = type opaque
%"class.WTF::HashMap.25" = type { %"class.WTF::HashTable.26" }
%"class.WTF::HashTable.26" = type <{ %"struct.WTF::KeyValuePair.29"*, i32, i32, i32, [4 x i8] }>
%"struct.WTF::KeyValuePair.29" = type opaque
%"class.std::__1::unique_ptr.30" = type { %"class.std::__1::__compressed_pair.31" }
%"class.std::__1::__compressed_pair.31" = type { %"struct.std::__1::__compressed_pair_elem.32" }
%"struct.std::__1::__compressed_pair_elem.32" = type { %"class.blink::StringCache"* }
%"class.blink::StringCache" = type { %"class.v8::GlobalValueMap", %"class.v8::PersistentValueMapBase<WTF::StringImpl *, v8::String, blink::StringCacheMapTraits>::PersistentValueReference", %"class.v8::GlobalValueMap.38", %class.scoped_refptr }
%"class.v8::GlobalValueMap" = type { %"class.v8::PersistentValueMapBase" }
%"class.v8::PersistentValueMapBase" = type { %"class.v8::Isolate"*, %"class.WTF::HashMap.33", i8* }
%"class.WTF::HashMap.33" = type { %"class.WTF::HashTable.34" }
%"class.WTF::HashTable.34" = type <{ %"struct.WTF::KeyValuePair.37"*, i32, i32, i32, [4 x i8] }>
%"struct.WTF::KeyValuePair.37" = type { %"class.WTF::StringImpl"*, i64 }
%"class.v8::PersistentValueMapBase<WTF::StringImpl *, v8::String, blink::StringCacheMapTraits>::PersistentValueReference" = type { i64 }
%"class.v8::GlobalValueMap.38" = type { %"class.v8::PersistentValueMapBase.39" }
%"class.v8::PersistentValueMapBase.39" = type { %"class.v8::Isolate"*, %"class.WTF::HashMap.40", i8* }
%"class.WTF::HashMap.40" = type { %"class.WTF::HashTable.41" }
%"class.WTF::HashTable.41" = type <{ %"struct.WTF::KeyValuePair.44"*, i32, i32, i32, [4 x i8] }>
%"struct.WTF::KeyValuePair.44" = type { %"class.blink::ParkableStringImpl"*, i64 }
%"class.blink::ParkableStringImpl" = type { %"class.WTF::RefCounted", %"class.WTF::String", %"class.std::__1::unique_ptr.45" }
%"class.WTF::RefCounted" = type { %"class.base::RefCounted" }
%"class.base::RefCounted" = type { %"class.base::subtle::RefCountedBase" }
%"class.base::subtle::RefCountedBase" = type { i32 }
%"class.std::__1::unique_ptr.45" = type { %"class.std::__1::__compressed_pair.46" }
%"class.std::__1::__compressed_pair.46" = type { %"struct.std::__1::__compressed_pair_elem.47" }
%"struct.std::__1::__compressed_pair_elem.47" = type { %"struct.blink::ParkableStringImpl::ParkableMetadata"* }
%"struct.blink::ParkableStringImpl::ParkableMetadata" = type { %"class.WTF::Mutex", i32, i8, i8, %"class.std::__1::unique_ptr.48", %"class.std::__1::unique_ptr.56", %"class.WTF::Vector.62", i8, i32 }
%"class.std::__1::unique_ptr.48" = type { %"class.std::__1::__compressed_pair.49" }
%"class.std::__1::__compressed_pair.49" = type { %"struct.std::__1::__compressed_pair_elem.50" }
%"struct.std::__1::__compressed_pair_elem.50" = type { %"class.WTF::Vector"* }
%"class.WTF::Vector" = type { %"class.WTF::VectorBuffer" }
%"class.WTF::VectorBuffer" = type { %"class.WTF::VectorBufferBase" }
%"class.WTF::VectorBufferBase" = type { i8*, i32, i32 }
%"class.std::__1::unique_ptr.56" = type { %"class.std::__1::__compressed_pair.57" }
%"class.std::__1::__compressed_pair.57" = type { %"struct.std::__1::__compressed_pair_elem.58" }
%"struct.std::__1::__compressed_pair_elem.58" = type { %"class.blink::DiskDataMetadata"* }
%"class.blink::DiskDataMetadata" = type { i64, i64 }
%"class.WTF::Vector.62" = type { %"class.WTF::VectorBuffer.63" }
%"class.WTF::VectorBuffer.63" = type { %"class.WTF::VectorBufferBase", [32 x i8] }
%"class.std::__1::unique_ptr.72" = type { %"class.std::__1::__compressed_pair.73" }
%"class.std::__1::__compressed_pair.73" = type { %"struct.std::__1::__compressed_pair_elem.74" }
%"struct.std::__1::__compressed_pair_elem.74" = type { %"class.blink::V8PrivateProperty"* }
%"class.blink::V8PrivateProperty" = type opaque
%"class.blink::Persistent" = type { %"class.blink::PersistentBase" }
%"class.blink::PersistentBase" = type { %"class.blink::ScriptState"*, %"class.blink::PersistentNodePtr" }
%"class.blink::ScriptState" = type { %"class.v8::Isolate"*, %"class.blink::ScopedPersistent", %class.scoped_refptr.293, %"class.blink::Member.312", %"class.blink::SelfKeepAlive", %"class.util::TokenType" }
%"class.blink::ScopedPersistent" = type { %"class.v8::Persistent" }
%"class.v8::Persistent" = type { %"class.v8::PersistentBase" }
%"class.v8::PersistentBase" = type { %"class.v8::Context"* }
%"class.v8::Context" = type { i8 }
%class.scoped_refptr.293 = type { %"class.blink::DOMWrapperWorld"* }
%"class.blink::DOMWrapperWorld" = type { %"class.WTF::RefCounted.294", i32, i32, %"class.blink::Persistent.296" }
%"class.WTF::RefCounted.294" = type { %"class.base::RefCounted.295" }
%"class.base::RefCounted.295" = type { %"class.base::subtle::RefCountedBase" }
%"class.blink::Persistent.296" = type { %"class.blink::PersistentBase.297" }
%"class.blink::PersistentBase.297" = type { %"class.blink::DOMDataStore"*, %"class.blink::PersistentNodePtr" }
%"class.blink::DOMDataStore" = type { i32 (...)**, i8, [7 x i8], %"class.blink::HeapHashMap" }
%"class.blink::HeapHashMap" = type { %"class.WTF::HashMap.302" }
%"class.WTF::HashMap.302" = type { %"class.WTF::HashTable.303" }
%"class.WTF::HashTable.303" = type <{ %"struct.WTF::KeyValuePair.305"*, i32, i32, i32, [4 x i8] }>
%"struct.WTF::KeyValuePair.305" = type { %"class.blink::WeakMember", %"class.blink::TraceWrapperV8Reference.309" }
%"class.blink::WeakMember" = type { %"class.blink::MemberBase.306" }
%"class.blink::MemberBase.306" = type { %"class.blink::ScriptWrappable"* }
%"class.blink::ScriptWrappable" = type { %"class.blink::NameClient", %"class.blink::TraceWrapperV8Reference.309" }
%"class.blink::NameClient" = type { i32 (...)** }
%"class.blink::TraceWrapperV8Reference.309" = type { %"class.v8::TracedReference.310" }
%"class.v8::TracedReference.310" = type { %"class.v8::BasicTracedReference.311" }
%"class.v8::BasicTracedReference.311" = type { %"class.v8::TracedReferenceBase" }
%"class.blink::Member.312" = type { %"class.blink::MemberBase.313" }
%"class.blink::MemberBase.313" = type { %"class.blink::V8PerContextData"* }
%"class.blink::V8PerContextData" = type opaque
%"class.blink::SelfKeepAlive" = type { %"class.blink::Persistent" }
%"class.util::TokenType" = type { %"class.base::StrongAlias" }
%"class.base::StrongAlias" = type { %"class.base::UnguessableToken" }
%"class.base::UnguessableToken" = type { %"class.base::Token" }
%"class.base::Token" = type { i64, i64 }
%"class.blink::PersistentNodePtr" = type { %"class.blink::PersistentNode"* }
%"class.WTF::Vector.259" = type { %"class.WTF::VectorBuffer.260" }
%"class.WTF::VectorBuffer.260" = type { %"class.WTF::VectorBufferBase.261" }
%"class.WTF::VectorBufferBase.261" = type { %"class.base::OnceCallback"*, i32, i32 }
%"class.base::OnceCallback" = type opaque
%"class.std::__1::unique_ptr.264" = type { %"class.std::__1::__compressed_pair.265" }
%"class.std::__1::__compressed_pair.265" = type { %"struct.std::__1::__compressed_pair_elem.266" }
%"struct.std::__1::__compressed_pair_elem.266" = type { %"class.blink::V8PerIsolateData::Data"* }
%"class.blink::V8PerIsolateData::Data" = type { i32 (...)** }
%"class.blink::Persistent.270" = type { %"class.blink::PersistentBase.271" }
%"class.blink::PersistentBase.271" = type { %"class.blink::V8PerIsolateData::GarbageCollectedData"*, %"class.blink::PersistentNodePtr" }
%"class.blink::V8PerIsolateData::GarbageCollectedData" = type { i32 (...)** }
%"class.blink::Persistent.274" = type { %"class.blink::PersistentBase.275" }
%"class.blink::PersistentBase.275" = type { %"class.blink::ActiveScriptWrappableManager"*, %"class.blink::PersistentNodePtr" }
%"class.blink::ActiveScriptWrappableManager" = type { %"class.blink::HeapVector", i64 }
%"class.blink::HeapVector" = type { %"class.WTF::Vector.280" }
%"class.WTF::Vector.280" = type { %"class.WTF::VectorBuffer.281" }
%"class.WTF::VectorBuffer.281" = type { %"class.WTF::VectorBufferBase.282" }
%"class.WTF::VectorBufferBase.282" = type { %"struct.std::__1::pair.283"*, i32, i32 }
%"struct.std::__1::pair.283" = type { %"class.blink::UntracedMember", %"class.blink::Member" }
%"class.blink::UntracedMember" = type { %"class.blink::MemberBase" }
%"class.blink::MemberBase" = type { %"class.blink::ActiveScriptWrappableBase"* }
%"class.blink::ActiveScriptWrappableBase" = type { %"class.blink::GarbageCollectedMixin" }
%"class.blink::GarbageCollectedMixin" = type { i32 (...)** }
%"class.blink::Member" = type { %"class.blink::MemberBase.284" }
%"class.blink::MemberBase.284" = type { %"class.blink::ActiveScriptWrappableBase"* }
%"class.blink::RuntimeCallStats" = type { %"class.blink::RuntimeCallTimer"*, i8, [40 x %"class.blink::RuntimeCallCounter"], %"class.base::TickClock"* }
%"class.blink::RuntimeCallTimer" = type { %"class.blink::RuntimeCallCounter"*, %"class.blink::RuntimeCallTimer"*, %"class.base::TimeTicks", %"class.base::TimeDelta", %"class.base::TickClock"* }
%"class.blink::RuntimeCallCounter" = type { i64, %"class.base::TimeDelta", i8* }
%"class.base::TimeDelta" = type { i64 }
%"class.base::TickClock" = type opaque
%"class.v8::Eternal" = type { %"class.v8::Name"* }
%"class.v8::Name" = type { i8 }
%"class.base::span.314" = type { %"struct.base::internal::ExtentStorage", i8** }
%"struct.base::internal::ExtentStorage" = type { i64 }
%"class.v8::Boolean" = type { i8 }
%"class.v8::String" = type { i8 }
%"class.v8::Uint32" = type { i8 }
%"class.v8::Int32" = type { i8 }
%"class.WTF::StringView" = type <{ %"class.WTF::StringImpl"*, i8*, i32, [4 x i8] }>
%"class.v8::Integer" = type { i8 }
%"class.logging::CheckOpResult" = type { i8* }
%"class.logging::CheckError" = type { %"class.logging::LogMessage"* }
%"class.logging::LogMessage" = type { i32 (...)**, i32, %"class.std::__1::basic_ostringstream", i64, i8*, i32, %"class.base::ScopedClearLastErrorBase" }
%"class.std::__1::basic_ostringstream" = type { %"class.std::__1::basic_ostream.base", %"class.std::__1::basic_stringbuf", %"class.std::__1::basic_ios.base" }
%"class.std::__1::basic_ostream.base" = type { i32 (...)** }
%"class.std::__1::basic_stringbuf" = type <{ %"class.std::__1::basic_streambuf", %"class.std::__1::basic_string", i8*, i32, [4 x i8] }>
%"class.std::__1::basic_streambuf" = type { i32 (...)**, %"class.std::__1::locale", i8*, i8*, i8*, i8*, i8*, i8* }
%"class.std::__1::locale" = type { %"class.std::__1::locale::__imp"* }
%"class.std::__1::locale::__imp" = type opaque
%"class.std::__1::basic_string" = type { %"class.std::__1::__compressed_pair.336" }
%"class.std::__1::__compressed_pair.336" = type { %"struct.std::__1::__compressed_pair_elem.337" }
%"struct.std::__1::__compressed_pair_elem.337" = type { %"struct.std::__1::basic_string<char, std::__1::char_traits<char>, std::__1::allocator<char> >::__rep" }
%"struct.std::__1::basic_string<char, std::__1::char_traits<char>, std::__1::allocator<char> >::__rep" = type { %union.anon }
%union.anon = type { %"struct.std::__1::basic_string<char, std::__1::char_traits<char>, std::__1::allocator<char> >::__long" }
%"struct.std::__1::basic_string<char, std::__1::char_traits<char>, std::__1::allocator<char> >::__long" = type { i8*, i64, i64 }
%"class.std::__1::basic_ios.base" = type <{ %"class.std::__1::ios_base", %"class.std::__1::basic_ostream"*, i32 }>
%"class.std::__1::ios_base" = type { i32 (...)**, i32, i64, i64, i32, i32, i8*, i8*, void (i32, %"class.std::__1::ios_base"*, i32)**, i32*, i64, i64, i64*, i64, i64, i8**, i64, i64 }
%"class.std::__1::basic_ostream" = type { i32 (...)**, %"class.std::__1::basic_ios.base" }
%"class.base::ScopedClearLastErrorBase" = type { i32 }
%"class.blink::NormalPageArena" = type { %"class.blink::BaseArena.base", [4 x i8], %"class.blink::FreeList", i8*, i64, i64 }
%"class.blink::BaseArena.base" = type <{ i32 (...)**, %"class.blink::PageStackThreadSafe", %"class.blink::PageStackThreadSafe", %"class.blink::PageStackThreadSafe", %"class.blink::PageStackThreadSafe", %"class.blink::ThreadState"*, i32 }>
%"class.blink::FreeList" = type <{ [17 x %"class.blink::FreeListEntry"*], [17 x %"class.blink::FreeListEntry"*], i32, [4 x i8] }>
%"class.blink::FreeListEntry" = type { %"class.blink::HeapObjectHeader", %"class.blink::FreeListEntry"* }
%"class.blink::PlatformAwareObjectStartBitmap" = type { %"class.blink::ObjectStartBitmap" }
%"class.blink::ObjectStartBitmap" = type { i8*, [2048 x i8] }

$_ZN5blink8V8StringEPN2v87IsolateERKN3WTF10StringViewE = comdat any

$_ZN5blink10ThreadHeap8AllocateINS_17IDLDictionaryBaseEEEPhm = comdat any

$_ZN5blink10TraceTraitINS_17IDLDictionaryBaseEE5TraceEPNS_7VisitorEPKv = comdat any

$_ZN5blink8internal14FinalizerTraitINS_17IDLDictionaryBaseEE8FinalizeEPv = comdat any

$_ZN5blink9NameTraitINS_17IDLDictionaryBaseEE7GetNameEPKv = comdat any

$_ZN5blink16V8StringResourceILNS_20V8StringResourceModeE0EE11PrepareFastEv = comdat any

$_ZZN5blink11GCInfoTraitINS_17IDLDictionaryBaseEE5IndexEvE7kGcInfo = comdat any

$_ZZN5blink11GCInfoTraitINS_17IDLDictionaryBaseEE5IndexEvE13gc_info_index = comdat any

@.str = private unnamed_addr constant [30 x i8] c"cannot convert to dictionary.\00", align 1
@_ZZN5blinkL26eternalV8SocketOptionsKeysEPN2v87IsolateEE5kKeys = internal constant [8 x i8*] [i8* getelementptr inbounds ([10 x i8], [10 x i8]* @.str.1, i32 0, i32 0), i8* getelementptr inbounds ([13 x i8], [13 x i8]* @.str.2, i32 0, i32 0), i8* getelementptr inbounds ([10 x i8], [10 x i8]* @.str.3, i32 0, i32 0), i8* getelementptr inbounds ([8 x i8], [8 x i8]* @.str.4, i32 0, i32 0), i8* getelementptr inbounds ([18 x i8], [18 x i8]* @.str.5, i32 0, i32 0), i8* getelementptr inbounds ([14 x i8], [14 x i8]* @.str.6, i32 0, i32 0), i8* getelementptr inbounds ([11 x i8], [11 x i8]* @.str.7, i32 0, i32 0), i8* getelementptr inbounds ([15 x i8], [15 x i8]* @.str.8, i32 0, i32 0)], align 16
@.str.1 = private unnamed_addr constant [10 x i8] c"keepAlive\00", align 1
@.str.2 = private unnamed_addr constant [13 x i8] c"localAddress\00", align 1
@.str.3 = private unnamed_addr constant [10 x i8] c"localPort\00", align 1
@.str.4 = private unnamed_addr constant [8 x i8] c"noDelay\00", align 1
@.str.5 = private unnamed_addr constant [18 x i8] c"receiveBufferSize\00", align 1
@.str.6 = private unnamed_addr constant [14 x i8] c"remoteAddress\00", align 1
@.str.7 = private unnamed_addr constant [11 x i8] c"remotePort\00", align 1
@.str.8 = private unnamed_addr constant [15 x i8] c"sendBufferSize\00", align 1
@.ref.tmp = private constant { i64, i8** } { i64 8, i8** getelementptr inbounds ([8 x i8*], [8 x i8*]* @_ZZN5blinkL26eternalV8SocketOptionsKeysEPN2v87IsolateEE5kKeys, i32 0, i32 0) }, align 8
@_ZN5blink11ThreadState16thread_specific_E = external local_unnamed_addr global %"class.WTF::ThreadSpecific"*, align 8
@__PRETTY_FUNCTION__._ZN3WTF21GetStringWithTypeNameIPN5blink11ThreadStateEEEPKcv = private unnamed_addr constant [68 x i8] c"const char *WTF::GetStringWithTypeName() [T = blink::ThreadState *]\00", align 1
@.str.9 = private unnamed_addr constant [23 x i8] c"allocation_size > size\00", align 1
@.str.10 = private unnamed_addr constant [59 x i8] c"../../third_party/blink/renderer/platform/heap/impl/heap.h\00", align 1
@_ZZN5blink11GCInfoTraitINS_17IDLDictionaryBaseEE5IndexEvE7kGcInfo = linkonce_odr hidden constant %"struct.blink::GCInfo" { void (%"class.blink::Visitor"*, i8*)* @_ZN5blink10TraceTraitINS_17IDLDictionaryBaseEE5TraceEPNS_7VisitorEPKv, void (i8*)* @_ZN5blink8internal14FinalizerTraitINS_17IDLDictionaryBaseEE8FinalizeEPv, { i8*, i8 } (i8*)* @_ZN5blink9NameTraitINS_17IDLDictionaryBaseEE7GetNameEPKv, i8 1 }, comdat, align 8
@_ZZN5blink11GCInfoTraitINS_17IDLDictionaryBaseEE5IndexEvE13gc_info_index = linkonce_odr hidden global { { i32 } } zeroinitializer, comdat, align 4
@.str.11 = private unnamed_addr constant [13 x i8] c"InternalNode\00", align 1
@_ZN5blink11GCInfoTable13global_table_E = external local_unnamed_addr global %"class.blink::GCInfoTable"*, align 8

; Function Attrs: nounwind ssp uwtable
define hidden void @_ZN5blink15V8SocketOptions6ToImplEPN2v87IsolateENS1_5LocalINS1_5ValueEEEPNS_13SocketOptionsERNS_14ExceptionStateE(%"class.v8::Isolate"*, %"class.v8::Value"*, %"class.blink::SocketOptions"* nocapture, %"class.blink::ExceptionState"* dereferenceable(72)) local_unnamed_addr #0 align 2 {
  %5 = alloca %"class.v8::TryCatch", align 8
  %6 = alloca %"class.v8::TryCatch", align 8
  %7 = alloca %"class.v8::TryCatch", align 8
  %8 = alloca %"class.blink::V8StringResource", align 8
  %9 = alloca %"class.blink::V8StringResource", align 8
  %10 = icmp eq %"class.v8::Value"* %1, null
  br i1 %10, label %714, label %11

11:                                               ; preds = %4
  %12 = bitcast %"class.v8::Value"* %1 to i64*
  %13 = load i64, i64* %12, align 8
  %14 = and i64 %13, 3
  %15 = icmp eq i64 %14, 1
  br i1 %15, label %16, label %32

16:                                               ; preds = %11
  %17 = add i64 %13, -1
  %18 = inttoptr i64 %17 to i32*
  %19 = load i32, i32* %18, align 4
  %20 = and i64 %13, -4294967296
  %21 = zext i32 %19 to i64
  %22 = or i64 %20, %21
  %23 = add i64 %22, 7
  %24 = inttoptr i64 %23 to i16*
  %25 = load i16, i16* %24, align 2
  %26 = icmp eq i16 %25, 67
  br i1 %26, label %27, label %32

27:                                               ; preds = %16
  %28 = add i64 %13, 23
  %29 = inttoptr i64 %28 to i32*
  %30 = load i32, i32* %29, align 4
  %31 = ashr i32 %30, 1
  switch i32 %31, label %32 [
    i32 5, label %714
    i32 3, label %714
  ]

32:                                               ; preds = %27, %16, %11
  %33 = tail call zeroext i1 @_ZNK2v85Value8IsObjectEv(%"class.v8::Value"* nonnull %1) #7
  br i1 %33, label %35, label %34

34:                                               ; preds = %32
  tail call void @_ZN5blink14ExceptionState14ThrowTypeErrorEPKc(%"class.blink::ExceptionState"* %3, i8* getelementptr inbounds ([30 x i8], [30 x i8]* @.str, i64 0, i64 0)) #7
  br label %714

35:                                               ; preds = %32
  %36 = bitcast %"class.v8::Value"* %1 to %"class.v8::Object"*
  %37 = ptrtoint %"class.v8::Isolate"* %0 to i64
  %38 = add i64 %37, 8
  %39 = inttoptr i64 %38 to %"class.blink::V8PerIsolateData"**
  %40 = load %"class.blink::V8PerIsolateData"*, %"class.blink::V8PerIsolateData"** %39, align 8
  %41 = tail call { i64, %"class.v8::Eternal"* } @_ZN5blink16V8PerIsolateData28FindOrCreateEternalNameCacheEPKvRKN4base4spanIKPKcLm18446744073709551615EEE(%"class.blink::V8PerIsolateData"* %40, i8* bitcast ([8 x i8*]* @_ZZN5blinkL26eternalV8SocketOptionsKeysEPN2v87IsolateEE5kKeys to i8*), %"class.base::span.314"* dereferenceable(16) bitcast ({ i64, i8** }* @.ref.tmp to %"class.base::span.314"*)) #7
  %42 = extractvalue { i64, %"class.v8::Eternal"* } %41, 1
  %43 = bitcast %"class.v8::TryCatch"* %7 to i8*
  call void @llvm.lifetime.start.p0i8(i64 48, i8* nonnull %43) #7
  call void @llvm.memset.p0i8.i64(i8* nonnull align 8 %43, i8 -86, i64 48, i1 false)
  call void @_ZN2v88TryCatchC1EPNS_7IsolateE(%"class.v8::TryCatch"* nonnull %7, %"class.v8::Isolate"* %0) #7
  %44 = call %"class.v8::Context"* @_ZN2v87Isolate17GetCurrentContextEv(%"class.v8::Isolate"* %0) #7
  %45 = bitcast %"class.v8::Eternal"* %42 to %"class.v8::Value"**
  %46 = load %"class.v8::Value"*, %"class.v8::Value"** %45, align 8
  %47 = call %"class.v8::Value"* @_ZN2v86Object3GetENS_5LocalINS_7ContextEEENS1_INS_5ValueEEE(%"class.v8::Object"* nonnull %36, %"class.v8::Context"* %44, %"class.v8::Value"* %46) #7
  %48 = icmp eq %"class.v8::Value"* %47, null
  br i1 %48, label %49, label %55

49:                                               ; preds = %35
  %50 = call %"class.v8::Value"* @_ZNK2v88TryCatch9ExceptionEv(%"class.v8::TryCatch"* nonnull %7) #7
  %51 = bitcast %"class.blink::ExceptionState"* %3 to void (%"class.blink::ExceptionState"*, %"class.v8::Value"*)***
  %52 = load void (%"class.blink::ExceptionState"*, %"class.v8::Value"*)**, void (%"class.blink::ExceptionState"*, %"class.v8::Value"*)*** %51, align 8
  %53 = getelementptr inbounds void (%"class.blink::ExceptionState"*, %"class.v8::Value"*)*, void (%"class.blink::ExceptionState"*, %"class.v8::Value"*)** %52, i64 5
  %54 = load void (%"class.blink::ExceptionState"*, %"class.v8::Value"*)*, void (%"class.blink::ExceptionState"*, %"class.v8::Value"*)** %53, align 8
  call void %54(%"class.blink::ExceptionState"* %3, %"class.v8::Value"* %50) #7
  br label %713

55:                                               ; preds = %35
  %56 = bitcast %"class.v8::Value"* %47 to i64*
  %57 = load i64, i64* %56, align 8
  %58 = and i64 %57, 3
  %59 = icmp eq i64 %58, 1
  br i1 %59, label %60, label %77

60:                                               ; preds = %55
  %61 = add i64 %57, -1
  %62 = inttoptr i64 %61 to i32*
  %63 = load i32, i32* %62, align 4
  %64 = and i64 %57, -4294967296
  %65 = zext i32 %63 to i64
  %66 = or i64 %64, %65
  %67 = add i64 %66, 7
  %68 = inttoptr i64 %67 to i16*
  %69 = load i16, i16* %68, align 2
  %70 = icmp eq i16 %69, 67
  br i1 %70, label %71, label %77

71:                                               ; preds = %60
  %72 = add i64 %57, 23
  %73 = inttoptr i64 %72 to i32*
  %74 = load i32, i32* %73, align 4
  %75 = and i32 %74, -2
  %76 = icmp eq i32 %75, 10
  br i1 %76, label %93, label %77

77:                                               ; preds = %60, %55, %71
  %78 = call zeroext i1 @_ZNK2v85Value9IsBooleanEv(%"class.v8::Value"* nonnull %47) #7
  br i1 %78, label %79, label %82, !prof !2

79:                                               ; preds = %77
  %80 = bitcast %"class.v8::Value"* %47 to %"class.v8::Boolean"*
  %81 = call zeroext i1 @_ZNK2v87Boolean5ValueEv(%"class.v8::Boolean"* nonnull %80) #7
  br label %84

82:                                               ; preds = %77
  %83 = call zeroext i1 @_ZNK2v85Value12BooleanValueEPNS_7IsolateE(%"class.v8::Value"* nonnull %47, %"class.v8::Isolate"* %0) #7
  br label %84

84:                                               ; preds = %79, %82
  %85 = phi i1 [ %81, %79 ], [ %83, %82 ]
  %86 = getelementptr inbounds %"class.blink::ExceptionState", %"class.blink::ExceptionState"* %3, i64 0, i32 4
  %87 = load i32, i32* %86, align 8
  %88 = icmp eq i32 %87, 0
  br i1 %88, label %89, label %713

89:                                               ; preds = %84
  %90 = zext i1 %85 to i8
  %91 = getelementptr inbounds %"class.blink::SocketOptions", %"class.blink::SocketOptions"* %2, i64 0, i32 7
  store i8 %90, i8* %91, align 2
  %92 = getelementptr inbounds %"class.blink::SocketOptions", %"class.blink::SocketOptions"* %2, i64 0, i32 1
  store i8 1, i8* %92, align 8
  br label %93

93:                                               ; preds = %89, %71
  %94 = getelementptr inbounds %"class.v8::Eternal", %"class.v8::Eternal"* %42, i64 1, i32 0
  %95 = bitcast %"class.v8::Name"** %94 to %"class.v8::Value"**
  %96 = load %"class.v8::Value"*, %"class.v8::Value"** %95, align 8
  %97 = call %"class.v8::Value"* @_ZN2v86Object3GetENS_5LocalINS_7ContextEEENS1_INS_5ValueEEE(%"class.v8::Object"* nonnull %36, %"class.v8::Context"* %44, %"class.v8::Value"* %96) #7
  %98 = icmp eq %"class.v8::Value"* %97, null
  br i1 %98, label %99, label %105

99:                                               ; preds = %93
  %100 = call %"class.v8::Value"* @_ZNK2v88TryCatch9ExceptionEv(%"class.v8::TryCatch"* nonnull %7) #7
  %101 = bitcast %"class.blink::ExceptionState"* %3 to void (%"class.blink::ExceptionState"*, %"class.v8::Value"*)***
  %102 = load void (%"class.blink::ExceptionState"*, %"class.v8::Value"*)**, void (%"class.blink::ExceptionState"*, %"class.v8::Value"*)*** %101, align 8
  %103 = getelementptr inbounds void (%"class.blink::ExceptionState"*, %"class.v8::Value"*)*, void (%"class.blink::ExceptionState"*, %"class.v8::Value"*)** %102, i64 5
  %104 = load void (%"class.blink::ExceptionState"*, %"class.v8::Value"*)*, void (%"class.blink::ExceptionState"*, %"class.v8::Value"*)** %103, align 8
  call void %104(%"class.blink::ExceptionState"* %3, %"class.v8::Value"* %100) #7
  br label %713

105:                                              ; preds = %93
  %106 = bitcast %"class.v8::Value"* %97 to i64*
  %107 = load i64, i64* %106, align 8
  %108 = and i64 %107, 3
  %109 = icmp eq i64 %108, 1
  br i1 %109, label %110, label %127

110:                                              ; preds = %105
  %111 = add i64 %107, -1
  %112 = inttoptr i64 %111 to i32*
  %113 = load i32, i32* %112, align 4
  %114 = and i64 %107, -4294967296
  %115 = zext i32 %113 to i64
  %116 = or i64 %114, %115
  %117 = add i64 %116, 7
  %118 = inttoptr i64 %117 to i16*
  %119 = load i16, i16* %118, align 2
  %120 = icmp eq i16 %119, 67
  br i1 %120, label %121, label %127

121:                                              ; preds = %110
  %122 = add i64 %107, 23
  %123 = inttoptr i64 %122 to i32*
  %124 = load i32, i32* %123, align 4
  %125 = and i32 %124, -2
  %126 = icmp eq i32 %125, 10
  br i1 %126, label %282, label %127

127:                                              ; preds = %110, %105, %121
  %128 = bitcast %"class.blink::V8StringResource"* %8 to i8*
  call void @llvm.lifetime.start.p0i8(i64 160, i8* nonnull %128) #7
  call void @llvm.memset.p0i8.i64(i8* nonnull align 8 %128, i8 -86, i64 152, i1 false)
  %129 = getelementptr inbounds %"class.blink::V8StringResource", %"class.blink::V8StringResource"* %8, i64 0, i32 0, i32 0
  store %"class.v8::Value"* %97, %"class.v8::Value"** %129, align 8
  %130 = getelementptr inbounds %"class.blink::V8StringResource", %"class.blink::V8StringResource"* %8, i64 0, i32 1
  store i32 0, i32* %130, align 8
  %131 = getelementptr inbounds %"class.blink::V8StringResource", %"class.blink::V8StringResource"* %8, i64 0, i32 2, i32 0, i32 0
  store %"class.WTF::StringImpl"* null, %"class.WTF::StringImpl"** %131, align 8
  %132 = getelementptr inbounds %"class.blink::V8StringResource", %"class.blink::V8StringResource"* %8, i64 0, i32 3, i32 1
  %133 = bitcast %"class.std::__1::unique_ptr"* %132 to i64*
  store i64 0, i64* %133, align 8
  %134 = call zeroext i1 @_ZN5blink16V8StringResourceILNS_20V8StringResourceModeE0EE11PrepareFastEv(%"class.blink::V8StringResource"* nonnull %8) #7
  br i1 %134, label %145, label %135

135:                                              ; preds = %127
  %136 = call %"class.v8::Isolate"* @_ZN2v87Isolate10GetCurrentEv() #7
  %137 = bitcast %"class.v8::TryCatch"* %5 to i8*
  call void @llvm.lifetime.start.p0i8(i64 48, i8* nonnull %137) #7
  call void @llvm.memset.p0i8.i64(i8* nonnull align 8 %137, i8 -86, i64 48, i1 false) #7
  call void @_ZN2v88TryCatchC1EPNS_7IsolateE(%"class.v8::TryCatch"* nonnull %5, %"class.v8::Isolate"* %136) #7
  %138 = load %"class.v8::Value"*, %"class.v8::Value"** %129, align 8
  %139 = call %"class.v8::Context"* @_ZN2v87Isolate17GetCurrentContextEv(%"class.v8::Isolate"* %136) #7
  %140 = call %"class.v8::String"* @_ZNK2v85Value8ToStringENS_5LocalINS_7ContextEEE(%"class.v8::Value"* %138, %"class.v8::Context"* %139) #7
  %141 = ptrtoint %"class.v8::String"* %140 to i64
  %142 = bitcast %"class.blink::V8StringResource"* %8 to i64*
  store i64 %141, i64* %142, align 8
  %143 = icmp eq %"class.v8::String"* %140, null
  br i1 %143, label %255, label %144

144:                                              ; preds = %135
  call void @_ZN2v88TryCatchD1Ev(%"class.v8::TryCatch"* nonnull %5) #7
  call void @llvm.lifetime.end.p0i8(i64 48, i8* nonnull %137) #7
  br label %145

145:                                              ; preds = %127, %144
  %146 = load %"class.v8::Value"*, %"class.v8::Value"** %129, align 8
  %147 = icmp eq %"class.v8::Value"* %146, null
  br i1 %147, label %148, label %172, !prof !3

148:                                              ; preds = %145
  %149 = load %"class.WTF::StringImpl"*, %"class.WTF::StringImpl"** %131, align 8
  %150 = icmp eq %"class.WTF::StringImpl"* %149, null
  br i1 %150, label %151, label %153

151:                                              ; preds = %148
  %152 = getelementptr inbounds %"class.blink::SocketOptions", %"class.blink::SocketOptions"* %2, i64 0, i32 8
  br label %197

153:                                              ; preds = %148
  %154 = getelementptr inbounds %"class.WTF::StringImpl", %"class.WTF::StringImpl"* %149, i64 0, i32 2, i32 0, i32 0, i32 0, i32 0, i32 0
  %155 = load atomic i32, i32* %154 monotonic, align 4
  %156 = and i32 %155, 2
  %157 = icmp eq i32 %156, 0
  br i1 %157, label %158, label %170

158:                                              ; preds = %153
  %159 = getelementptr inbounds %"class.WTF::StringImpl", %"class.WTF::StringImpl"* %149, i64 0, i32 0
  %160 = load i32, i32* %159, align 4
  %161 = zext i32 %160 to i33
  %162 = call { i33, i1 } @llvm.sadd.with.overflow.i33(i33 %161, i33 1) #7
  %163 = extractvalue { i33, i1 } %162, 1
  %164 = extractvalue { i33, i1 } %162, 0
  %165 = icmp slt i33 %164, 0
  %166 = or i1 %163, %165
  br i1 %166, label %167, label %168, !prof !3

167:                                              ; preds = %158
  call void @llvm.trap() #7
  unreachable

168:                                              ; preds = %158
  %169 = trunc i33 %164 to i32
  store i32 %169, i32* %159, align 4
  br label %170

170:                                              ; preds = %153, %168
  %171 = getelementptr inbounds %"class.blink::SocketOptions", %"class.blink::SocketOptions"* %2, i64 0, i32 8
  br label %178

172:                                              ; preds = %145
  %173 = bitcast %"class.v8::Value"* %146 to %"class.v8::String"*
  %174 = load i32, i32* %130, align 8
  %175 = call %"class.WTF::StringImpl"* @_ZN5blink13ToBlinkStringIN3WTF6StringEEET_N2v85LocalINS4_6StringEEENS_12ExternalModeE(%"class.v8::String"* nonnull %173, i32 %174) #7
  %176 = getelementptr inbounds %"class.blink::SocketOptions", %"class.blink::SocketOptions"* %2, i64 0, i32 8
  %177 = icmp eq %"class.WTF::StringImpl"* %175, null
  br i1 %177, label %197, label %178

178:                                              ; preds = %170, %172
  %179 = phi %"class.WTF::String"* [ %171, %170 ], [ %176, %172 ]
  %180 = phi %"class.WTF::StringImpl"* [ %149, %170 ], [ %175, %172 ]
  %181 = getelementptr inbounds %"class.WTF::StringImpl", %"class.WTF::StringImpl"* %180, i64 0, i32 2, i32 0, i32 0, i32 0, i32 0, i32 0
  %182 = load atomic i32, i32* %181 monotonic, align 4
  %183 = and i32 %182, 2
  %184 = icmp eq i32 %183, 0
  br i1 %184, label %185, label %197

185:                                              ; preds = %178
  %186 = getelementptr inbounds %"class.WTF::StringImpl", %"class.WTF::StringImpl"* %180, i64 0, i32 0
  %187 = load i32, i32* %186, align 4
  %188 = zext i32 %187 to i33
  %189 = call { i33, i1 } @llvm.sadd.with.overflow.i33(i33 %188, i33 1) #7
  %190 = extractvalue { i33, i1 } %189, 1
  %191 = extractvalue { i33, i1 } %189, 0
  %192 = icmp slt i33 %191, 0
  %193 = or i1 %190, %192
  br i1 %193, label %194, label %195, !prof !3

194:                                              ; preds = %185
  call void @llvm.trap() #7
  unreachable

195:                                              ; preds = %185
  %196 = trunc i33 %191 to i32
  store i32 %196, i32* %186, align 4
  br label %197

197:                                              ; preds = %151, %195, %178, %172
  %198 = phi i1 [ false, %195 ], [ false, %178 ], [ true, %172 ], [ true, %151 ]
  %199 = phi %"class.WTF::String"* [ %179, %195 ], [ %179, %178 ], [ %176, %172 ], [ %152, %151 ]
  %200 = phi %"class.WTF::StringImpl"* [ %180, %195 ], [ %180, %178 ], [ null, %172 ], [ null, %151 ]
  %201 = ptrtoint %"class.WTF::StringImpl"* %200 to i64
  %202 = bitcast %"class.WTF::String"* %199 to i64*
  %203 = getelementptr inbounds %"class.WTF::String", %"class.WTF::String"* %199, i64 0, i32 0, i32 0
  %204 = load %"class.WTF::StringImpl"*, %"class.WTF::StringImpl"** %203, align 8
  store i64 %201, i64* %202, align 8
  %205 = icmp eq %"class.WTF::StringImpl"* %204, null
  br i1 %205, label %219, label %206

206:                                              ; preds = %197
  %207 = getelementptr inbounds %"class.WTF::StringImpl", %"class.WTF::StringImpl"* %204, i64 0, i32 2, i32 0, i32 0, i32 0, i32 0, i32 0
  %208 = load atomic i32, i32* %207 monotonic, align 4
  %209 = and i32 %208, 2
  %210 = icmp eq i32 %209, 0
  %211 = getelementptr inbounds %"class.WTF::StringImpl", %"class.WTF::StringImpl"* %204, i64 0, i32 0
  %212 = load i32, i32* %211, align 4
  br i1 %210, label %213, label %215

213:                                              ; preds = %206
  %214 = add i32 %212, -1
  store i32 %214, i32* %211, align 4
  br label %215

215:                                              ; preds = %213, %206
  %216 = phi i32 [ %214, %213 ], [ %212, %206 ]
  %217 = icmp eq i32 %216, 0
  br i1 %217, label %218, label %219

218:                                              ; preds = %215
  call void @_ZNK3WTF10StringImpl18DestroyIfNotStaticEv(%"class.WTF::StringImpl"* nonnull %204) #7
  br label %219

219:                                              ; preds = %197, %215, %218
  br i1 %198, label %233, label %220

220:                                              ; preds = %219
  %221 = getelementptr inbounds %"class.WTF::StringImpl", %"class.WTF::StringImpl"* %200, i64 0, i32 2, i32 0, i32 0, i32 0, i32 0, i32 0
  %222 = load atomic i32, i32* %221 monotonic, align 4
  %223 = and i32 %222, 2
  %224 = icmp eq i32 %223, 0
  %225 = getelementptr inbounds %"class.WTF::StringImpl", %"class.WTF::StringImpl"* %200, i64 0, i32 0
  %226 = load i32, i32* %225, align 4
  br i1 %224, label %227, label %229

227:                                              ; preds = %220
  %228 = add i32 %226, -1
  store i32 %228, i32* %225, align 4
  br label %229

229:                                              ; preds = %227, %220
  %230 = phi i32 [ %228, %227 ], [ %226, %220 ]
  %231 = icmp eq i32 %230, 0
  br i1 %231, label %232, label %233

232:                                              ; preds = %229
  call void @_ZNK3WTF10StringImpl18DestroyIfNotStaticEv(%"class.WTF::StringImpl"* nonnull %200) #7
  br label %233

233:                                              ; preds = %219, %229, %232
  %234 = getelementptr inbounds %"class.blink::V8StringResource", %"class.blink::V8StringResource"* %8, i64 0, i32 3, i32 1, i32 0, i32 0, i32 0
  %235 = load i8*, i8** %234, align 8
  store i8* null, i8** %234, align 8
  %236 = icmp eq i8* %235, null
  br i1 %236, label %238, label %237

237:                                              ; preds = %233
  call void @_ZN3WTF10Partitions10BufferFreeEPv(i8* nonnull %235) #7
  br label %238

238:                                              ; preds = %237, %233
  %239 = load %"class.WTF::StringImpl"*, %"class.WTF::StringImpl"** %131, align 8
  %240 = icmp eq %"class.WTF::StringImpl"* %239, null
  br i1 %240, label %254, label %241

241:                                              ; preds = %238
  %242 = getelementptr inbounds %"class.WTF::StringImpl", %"class.WTF::StringImpl"* %239, i64 0, i32 2, i32 0, i32 0, i32 0, i32 0, i32 0
  %243 = load atomic i32, i32* %242 monotonic, align 4
  %244 = and i32 %243, 2
  %245 = icmp eq i32 %244, 0
  %246 = getelementptr inbounds %"class.WTF::StringImpl", %"class.WTF::StringImpl"* %239, i64 0, i32 0
  %247 = load i32, i32* %246, align 4
  br i1 %245, label %248, label %250

248:                                              ; preds = %241
  %249 = add i32 %247, -1
  store i32 %249, i32* %246, align 4
  br label %250

250:                                              ; preds = %248, %241
  %251 = phi i32 [ %249, %248 ], [ %247, %241 ]
  %252 = icmp eq i32 %251, 0
  br i1 %252, label %253, label %254

253:                                              ; preds = %250
  call void @_ZNK3WTF10StringImpl18DestroyIfNotStaticEv(%"class.WTF::StringImpl"* nonnull %239) #7
  br label %254

254:                                              ; preds = %238, %250, %253
  call void @llvm.lifetime.end.p0i8(i64 160, i8* nonnull %128) #7
  br label %282

255:                                              ; preds = %135
  %256 = call %"class.v8::Value"* @_ZNK2v88TryCatch9ExceptionEv(%"class.v8::TryCatch"* nonnull %5) #7
  %257 = bitcast %"class.blink::ExceptionState"* %3 to void (%"class.blink::ExceptionState"*, %"class.v8::Value"*)***
  %258 = load void (%"class.blink::ExceptionState"*, %"class.v8::Value"*)**, void (%"class.blink::ExceptionState"*, %"class.v8::Value"*)*** %257, align 8
  %259 = getelementptr inbounds void (%"class.blink::ExceptionState"*, %"class.v8::Value"*)*, void (%"class.blink::ExceptionState"*, %"class.v8::Value"*)** %258, i64 5
  %260 = load void (%"class.blink::ExceptionState"*, %"class.v8::Value"*)*, void (%"class.blink::ExceptionState"*, %"class.v8::Value"*)** %259, align 8
  call void %260(%"class.blink::ExceptionState"* %3, %"class.v8::Value"* %256) #7
  call void @_ZN2v88TryCatchD1Ev(%"class.v8::TryCatch"* nonnull %5) #7
  call void @llvm.lifetime.end.p0i8(i64 48, i8* nonnull %137) #7
  %261 = getelementptr inbounds %"class.blink::V8StringResource", %"class.blink::V8StringResource"* %8, i64 0, i32 3, i32 1, i32 0, i32 0, i32 0
  %262 = load i8*, i8** %261, align 8
  store i8* null, i8** %261, align 8
  %263 = icmp eq i8* %262, null
  br i1 %263, label %265, label %264

264:                                              ; preds = %255
  call void @_ZN3WTF10Partitions10BufferFreeEPv(i8* nonnull %262) #7
  br label %265

265:                                              ; preds = %264, %255
  %266 = load %"class.WTF::StringImpl"*, %"class.WTF::StringImpl"** %131, align 8
  %267 = icmp eq %"class.WTF::StringImpl"* %266, null
  br i1 %267, label %281, label %268

268:                                              ; preds = %265
  %269 = getelementptr inbounds %"class.WTF::StringImpl", %"class.WTF::StringImpl"* %266, i64 0, i32 2, i32 0, i32 0, i32 0, i32 0, i32 0
  %270 = load atomic i32, i32* %269 monotonic, align 4
  %271 = and i32 %270, 2
  %272 = icmp eq i32 %271, 0
  %273 = getelementptr inbounds %"class.WTF::StringImpl", %"class.WTF::StringImpl"* %266, i64 0, i32 0
  %274 = load i32, i32* %273, align 4
  br i1 %272, label %275, label %277

275:                                              ; preds = %268
  %276 = add i32 %274, -1
  store i32 %276, i32* %273, align 4
  br label %277

277:                                              ; preds = %275, %268
  %278 = phi i32 [ %276, %275 ], [ %274, %268 ]
  %279 = icmp eq i32 %278, 0
  br i1 %279, label %280, label %281

280:                                              ; preds = %277
  call void @_ZNK3WTF10StringImpl18DestroyIfNotStaticEv(%"class.WTF::StringImpl"* nonnull %266) #7
  br label %281

281:                                              ; preds = %265, %277, %280
  call void @llvm.lifetime.end.p0i8(i64 160, i8* nonnull %128) #7
  br label %713

282:                                              ; preds = %254, %121
  %283 = getelementptr inbounds %"class.v8::Eternal", %"class.v8::Eternal"* %42, i64 2, i32 0
  %284 = bitcast %"class.v8::Name"** %283 to %"class.v8::Value"**
  %285 = load %"class.v8::Value"*, %"class.v8::Value"** %284, align 8
  %286 = call %"class.v8::Value"* @_ZN2v86Object3GetENS_5LocalINS_7ContextEEENS1_INS_5ValueEEE(%"class.v8::Object"* nonnull %36, %"class.v8::Context"* %44, %"class.v8::Value"* %285) #7
  %287 = icmp eq %"class.v8::Value"* %286, null
  br i1 %287, label %288, label %294

288:                                              ; preds = %282
  %289 = call %"class.v8::Value"* @_ZNK2v88TryCatch9ExceptionEv(%"class.v8::TryCatch"* nonnull %7) #7
  %290 = bitcast %"class.blink::ExceptionState"* %3 to void (%"class.blink::ExceptionState"*, %"class.v8::Value"*)***
  %291 = load void (%"class.blink::ExceptionState"*, %"class.v8::Value"*)**, void (%"class.blink::ExceptionState"*, %"class.v8::Value"*)*** %290, align 8
  %292 = getelementptr inbounds void (%"class.blink::ExceptionState"*, %"class.v8::Value"*)*, void (%"class.blink::ExceptionState"*, %"class.v8::Value"*)** %291, i64 5
  %293 = load void (%"class.blink::ExceptionState"*, %"class.v8::Value"*)*, void (%"class.blink::ExceptionState"*, %"class.v8::Value"*)** %292, align 8
  call void %293(%"class.blink::ExceptionState"* %3, %"class.v8::Value"* %289) #7
  br label %713

294:                                              ; preds = %282
  %295 = bitcast %"class.v8::Value"* %286 to i64*
  %296 = load i64, i64* %295, align 8
  %297 = and i64 %296, 3
  %298 = icmp eq i64 %297, 1
  br i1 %298, label %299, label %316

299:                                              ; preds = %294
  %300 = add i64 %296, -1
  %301 = inttoptr i64 %300 to i32*
  %302 = load i32, i32* %301, align 4
  %303 = and i64 %296, -4294967296
  %304 = zext i32 %302 to i64
  %305 = or i64 %303, %304
  %306 = add i64 %305, 7
  %307 = inttoptr i64 %306 to i16*
  %308 = load i16, i16* %307, align 2
  %309 = icmp eq i16 %308, 67
  br i1 %309, label %310, label %316

310:                                              ; preds = %299
  %311 = add i64 %296, 23
  %312 = inttoptr i64 %311 to i32*
  %313 = load i32, i32* %312, align 4
  %314 = and i32 %313, -2
  %315 = icmp eq i32 %314, 10
  br i1 %315, label %324, label %316

316:                                              ; preds = %299, %294, %310
  %317 = call zeroext i16 @_ZN5blink8ToUInt16EPN2v87IsolateENS0_5LocalINS0_5ValueEEENS_30IntegerConversionConfigurationERNS_14ExceptionStateE(%"class.v8::Isolate"* %0, %"class.v8::Value"* nonnull %286, i32 0, %"class.blink::ExceptionState"* dereferenceable(72) %3) #7
  %318 = getelementptr inbounds %"class.blink::ExceptionState", %"class.blink::ExceptionState"* %3, i64 0, i32 4
  %319 = load i32, i32* %318, align 8
  %320 = icmp eq i32 %319, 0
  br i1 %320, label %321, label %713

321:                                              ; preds = %316
  %322 = getelementptr inbounds %"class.blink::SocketOptions", %"class.blink::SocketOptions"* %2, i64 0, i32 9
  store i16 %317, i16* %322, align 8
  %323 = getelementptr inbounds %"class.blink::SocketOptions", %"class.blink::SocketOptions"* %2, i64 0, i32 2
  store i8 1, i8* %323, align 1
  br label %324

324:                                              ; preds = %321, %310
  %325 = getelementptr inbounds %"class.v8::Eternal", %"class.v8::Eternal"* %42, i64 3, i32 0
  %326 = bitcast %"class.v8::Name"** %325 to %"class.v8::Value"**
  %327 = load %"class.v8::Value"*, %"class.v8::Value"** %326, align 8
  %328 = call %"class.v8::Value"* @_ZN2v86Object3GetENS_5LocalINS_7ContextEEENS1_INS_5ValueEEE(%"class.v8::Object"* nonnull %36, %"class.v8::Context"* %44, %"class.v8::Value"* %327) #7
  %329 = icmp eq %"class.v8::Value"* %328, null
  br i1 %329, label %330, label %336

330:                                              ; preds = %324
  %331 = call %"class.v8::Value"* @_ZNK2v88TryCatch9ExceptionEv(%"class.v8::TryCatch"* nonnull %7) #7
  %332 = bitcast %"class.blink::ExceptionState"* %3 to void (%"class.blink::ExceptionState"*, %"class.v8::Value"*)***
  %333 = load void (%"class.blink::ExceptionState"*, %"class.v8::Value"*)**, void (%"class.blink::ExceptionState"*, %"class.v8::Value"*)*** %332, align 8
  %334 = getelementptr inbounds void (%"class.blink::ExceptionState"*, %"class.v8::Value"*)*, void (%"class.blink::ExceptionState"*, %"class.v8::Value"*)** %333, i64 5
  %335 = load void (%"class.blink::ExceptionState"*, %"class.v8::Value"*)*, void (%"class.blink::ExceptionState"*, %"class.v8::Value"*)** %334, align 8
  call void %335(%"class.blink::ExceptionState"* %3, %"class.v8::Value"* %331) #7
  br label %713

336:                                              ; preds = %324
  %337 = bitcast %"class.v8::Value"* %328 to i64*
  %338 = load i64, i64* %337, align 8
  %339 = and i64 %338, 3
  %340 = icmp eq i64 %339, 1
  br i1 %340, label %341, label %358

341:                                              ; preds = %336
  %342 = add i64 %338, -1
  %343 = inttoptr i64 %342 to i32*
  %344 = load i32, i32* %343, align 4
  %345 = and i64 %338, -4294967296
  %346 = zext i32 %344 to i64
  %347 = or i64 %345, %346
  %348 = add i64 %347, 7
  %349 = inttoptr i64 %348 to i16*
  %350 = load i16, i16* %349, align 2
  %351 = icmp eq i16 %350, 67
  br i1 %351, label %352, label %358

352:                                              ; preds = %341
  %353 = add i64 %338, 23
  %354 = inttoptr i64 %353 to i32*
  %355 = load i32, i32* %354, align 4
  %356 = and i32 %355, -2
  %357 = icmp eq i32 %356, 10
  br i1 %357, label %374, label %358

358:                                              ; preds = %341, %336, %352
  %359 = call zeroext i1 @_ZNK2v85Value9IsBooleanEv(%"class.v8::Value"* nonnull %328) #7
  br i1 %359, label %360, label %363, !prof !2

360:                                              ; preds = %358
  %361 = bitcast %"class.v8::Value"* %328 to %"class.v8::Boolean"*
  %362 = call zeroext i1 @_ZNK2v87Boolean5ValueEv(%"class.v8::Boolean"* nonnull %361) #7
  br label %365

363:                                              ; preds = %358
  %364 = call zeroext i1 @_ZNK2v85Value12BooleanValueEPNS_7IsolateE(%"class.v8::Value"* nonnull %328, %"class.v8::Isolate"* %0) #7
  br label %365

365:                                              ; preds = %360, %363
  %366 = phi i1 [ %362, %360 ], [ %364, %363 ]
  %367 = getelementptr inbounds %"class.blink::ExceptionState", %"class.blink::ExceptionState"* %3, i64 0, i32 4
  %368 = load i32, i32* %367, align 8
  %369 = icmp eq i32 %368, 0
  br i1 %369, label %370, label %713

370:                                              ; preds = %365
  %371 = zext i1 %366 to i8
  %372 = getelementptr inbounds %"class.blink::SocketOptions", %"class.blink::SocketOptions"* %2, i64 0, i32 10
  store i8 %371, i8* %372, align 2
  %373 = getelementptr inbounds %"class.blink::SocketOptions", %"class.blink::SocketOptions"* %2, i64 0, i32 3
  store i8 1, i8* %373, align 2
  br label %374

374:                                              ; preds = %370, %352
  %375 = getelementptr inbounds %"class.v8::Eternal", %"class.v8::Eternal"* %42, i64 4, i32 0
  %376 = bitcast %"class.v8::Name"** %375 to %"class.v8::Value"**
  %377 = load %"class.v8::Value"*, %"class.v8::Value"** %376, align 8
  %378 = call %"class.v8::Value"* @_ZN2v86Object3GetENS_5LocalINS_7ContextEEENS1_INS_5ValueEEE(%"class.v8::Object"* nonnull %36, %"class.v8::Context"* %44, %"class.v8::Value"* %377) #7
  %379 = icmp eq %"class.v8::Value"* %378, null
  br i1 %379, label %380, label %386

380:                                              ; preds = %374
  %381 = call %"class.v8::Value"* @_ZNK2v88TryCatch9ExceptionEv(%"class.v8::TryCatch"* nonnull %7) #7
  %382 = bitcast %"class.blink::ExceptionState"* %3 to void (%"class.blink::ExceptionState"*, %"class.v8::Value"*)***
  %383 = load void (%"class.blink::ExceptionState"*, %"class.v8::Value"*)**, void (%"class.blink::ExceptionState"*, %"class.v8::Value"*)*** %382, align 8
  %384 = getelementptr inbounds void (%"class.blink::ExceptionState"*, %"class.v8::Value"*)*, void (%"class.blink::ExceptionState"*, %"class.v8::Value"*)** %383, i64 5
  %385 = load void (%"class.blink::ExceptionState"*, %"class.v8::Value"*)*, void (%"class.blink::ExceptionState"*, %"class.v8::Value"*)** %384, align 8
  call void %385(%"class.blink::ExceptionState"* %3, %"class.v8::Value"* %381) #7
  br label %713

386:                                              ; preds = %374
  %387 = bitcast %"class.v8::Value"* %378 to i64*
  %388 = load i64, i64* %387, align 8
  %389 = and i64 %388, 3
  %390 = icmp eq i64 %389, 1
  br i1 %390, label %391, label %408

391:                                              ; preds = %386
  %392 = add i64 %388, -1
  %393 = inttoptr i64 %392 to i32*
  %394 = load i32, i32* %393, align 4
  %395 = and i64 %388, -4294967296
  %396 = zext i32 %394 to i64
  %397 = or i64 %395, %396
  %398 = add i64 %397, 7
  %399 = inttoptr i64 %398 to i16*
  %400 = load i16, i16* %399, align 2
  %401 = icmp eq i16 %400, 67
  br i1 %401, label %402, label %408

402:                                              ; preds = %391
  %403 = add i64 %388, 23
  %404 = inttoptr i64 %403 to i32*
  %405 = load i32, i32* %404, align 4
  %406 = and i32 %405, -2
  %407 = icmp eq i32 %406, 10
  br i1 %407, label %428, label %408

408:                                              ; preds = %391, %386, %402
  %409 = call zeroext i1 @_ZNK2v85Value8IsUint32Ev(%"class.v8::Value"* nonnull %378) #7
  br i1 %409, label %410, label %413, !prof !2

410:                                              ; preds = %408
  %411 = bitcast %"class.v8::Value"* %378 to %"class.v8::Uint32"*
  %412 = call i32 @_ZNK2v86Uint325ValueEv(%"class.v8::Uint32"* nonnull %411) #7
  br label %420

413:                                              ; preds = %408
  %414 = call zeroext i1 @_ZNK2v85Value7IsInt32Ev(%"class.v8::Value"* nonnull %378) #7
  br i1 %414, label %415, label %418, !prof !2

415:                                              ; preds = %413
  %416 = bitcast %"class.v8::Value"* %378 to %"class.v8::Int32"*
  %417 = call i32 @_ZNK2v85Int325ValueEv(%"class.v8::Int32"* nonnull %416) #7
  br label %420

418:                                              ; preds = %413
  %419 = call i32 @_ZN5blink12ToUInt32SlowEPN2v87IsolateENS0_5LocalINS0_5ValueEEENS_30IntegerConversionConfigurationERNS_14ExceptionStateE(%"class.v8::Isolate"* %0, %"class.v8::Value"* nonnull %378, i32 0, %"class.blink::ExceptionState"* dereferenceable(72) %3) #7
  br label %420

420:                                              ; preds = %410, %415, %418
  %421 = phi i32 [ %412, %410 ], [ %417, %415 ], [ %419, %418 ]
  %422 = getelementptr inbounds %"class.blink::ExceptionState", %"class.blink::ExceptionState"* %3, i64 0, i32 4
  %423 = load i32, i32* %422, align 8
  %424 = icmp eq i32 %423, 0
  br i1 %424, label %425, label %713

425:                                              ; preds = %420
  %426 = getelementptr inbounds %"class.blink::SocketOptions", %"class.blink::SocketOptions"* %2, i64 0, i32 11
  store i32 %421, i32* %426, align 4
  %427 = getelementptr inbounds %"class.blink::SocketOptions", %"class.blink::SocketOptions"* %2, i64 0, i32 4
  store i8 1, i8* %427, align 1
  br label %428

428:                                              ; preds = %425, %402
  %429 = getelementptr inbounds %"class.v8::Eternal", %"class.v8::Eternal"* %42, i64 5, i32 0
  %430 = bitcast %"class.v8::Name"** %429 to %"class.v8::Value"**
  %431 = load %"class.v8::Value"*, %"class.v8::Value"** %430, align 8
  %432 = call %"class.v8::Value"* @_ZN2v86Object3GetENS_5LocalINS_7ContextEEENS1_INS_5ValueEEE(%"class.v8::Object"* nonnull %36, %"class.v8::Context"* %44, %"class.v8::Value"* %431) #7
  %433 = icmp eq %"class.v8::Value"* %432, null
  br i1 %433, label %434, label %440

434:                                              ; preds = %428
  %435 = call %"class.v8::Value"* @_ZNK2v88TryCatch9ExceptionEv(%"class.v8::TryCatch"* nonnull %7) #7
  %436 = bitcast %"class.blink::ExceptionState"* %3 to void (%"class.blink::ExceptionState"*, %"class.v8::Value"*)***
  %437 = load void (%"class.blink::ExceptionState"*, %"class.v8::Value"*)**, void (%"class.blink::ExceptionState"*, %"class.v8::Value"*)*** %436, align 8
  %438 = getelementptr inbounds void (%"class.blink::ExceptionState"*, %"class.v8::Value"*)*, void (%"class.blink::ExceptionState"*, %"class.v8::Value"*)** %437, i64 5
  %439 = load void (%"class.blink::ExceptionState"*, %"class.v8::Value"*)*, void (%"class.blink::ExceptionState"*, %"class.v8::Value"*)** %438, align 8
  call void %439(%"class.blink::ExceptionState"* %3, %"class.v8::Value"* %435) #7
  br label %713

440:                                              ; preds = %428
  %441 = bitcast %"class.v8::Value"* %432 to i64*
  %442 = load i64, i64* %441, align 8
  %443 = and i64 %442, 3
  %444 = icmp eq i64 %443, 1
  br i1 %444, label %445, label %462

445:                                              ; preds = %440
  %446 = add i64 %442, -1
  %447 = inttoptr i64 %446 to i32*
  %448 = load i32, i32* %447, align 4
  %449 = and i64 %442, -4294967296
  %450 = zext i32 %448 to i64
  %451 = or i64 %449, %450
  %452 = add i64 %451, 7
  %453 = inttoptr i64 %452 to i16*
  %454 = load i16, i16* %453, align 2
  %455 = icmp eq i16 %454, 67
  br i1 %455, label %456, label %462

456:                                              ; preds = %445
  %457 = add i64 %442, 23
  %458 = inttoptr i64 %457 to i32*
  %459 = load i32, i32* %458, align 4
  %460 = and i32 %459, -2
  %461 = icmp eq i32 %460, 10
  br i1 %461, label %617, label %462

462:                                              ; preds = %445, %440, %456
  %463 = bitcast %"class.blink::V8StringResource"* %9 to i8*
  call void @llvm.lifetime.start.p0i8(i64 160, i8* nonnull %463) #7
  call void @llvm.memset.p0i8.i64(i8* nonnull align 8 %463, i8 -86, i64 152, i1 false)
  %464 = getelementptr inbounds %"class.blink::V8StringResource", %"class.blink::V8StringResource"* %9, i64 0, i32 0, i32 0
  store %"class.v8::Value"* %432, %"class.v8::Value"** %464, align 8
  %465 = getelementptr inbounds %"class.blink::V8StringResource", %"class.blink::V8StringResource"* %9, i64 0, i32 1
  store i32 0, i32* %465, align 8
  %466 = getelementptr inbounds %"class.blink::V8StringResource", %"class.blink::V8StringResource"* %9, i64 0, i32 2, i32 0, i32 0
  store %"class.WTF::StringImpl"* null, %"class.WTF::StringImpl"** %466, align 8
  %467 = getelementptr inbounds %"class.blink::V8StringResource", %"class.blink::V8StringResource"* %9, i64 0, i32 3, i32 1
  %468 = bitcast %"class.std::__1::unique_ptr"* %467 to i64*
  store i64 0, i64* %468, align 8
  %469 = call zeroext i1 @_ZN5blink16V8StringResourceILNS_20V8StringResourceModeE0EE11PrepareFastEv(%"class.blink::V8StringResource"* nonnull %9) #7
  br i1 %469, label %480, label %470

470:                                              ; preds = %462
  %471 = call %"class.v8::Isolate"* @_ZN2v87Isolate10GetCurrentEv() #7
  %472 = bitcast %"class.v8::TryCatch"* %6 to i8*
  call void @llvm.lifetime.start.p0i8(i64 48, i8* nonnull %472) #7
  call void @llvm.memset.p0i8.i64(i8* nonnull align 8 %472, i8 -86, i64 48, i1 false) #7
  call void @_ZN2v88TryCatchC1EPNS_7IsolateE(%"class.v8::TryCatch"* nonnull %6, %"class.v8::Isolate"* %471) #7
  %473 = load %"class.v8::Value"*, %"class.v8::Value"** %464, align 8
  %474 = call %"class.v8::Context"* @_ZN2v87Isolate17GetCurrentContextEv(%"class.v8::Isolate"* %471) #7
  %475 = call %"class.v8::String"* @_ZNK2v85Value8ToStringENS_5LocalINS_7ContextEEE(%"class.v8::Value"* %473, %"class.v8::Context"* %474) #7
  %476 = ptrtoint %"class.v8::String"* %475 to i64
  %477 = bitcast %"class.blink::V8StringResource"* %9 to i64*
  store i64 %476, i64* %477, align 8
  %478 = icmp eq %"class.v8::String"* %475, null
  br i1 %478, label %590, label %479

479:                                              ; preds = %470
  call void @_ZN2v88TryCatchD1Ev(%"class.v8::TryCatch"* nonnull %6) #7
  call void @llvm.lifetime.end.p0i8(i64 48, i8* nonnull %472) #7
  br label %480

480:                                              ; preds = %462, %479
  %481 = load %"class.v8::Value"*, %"class.v8::Value"** %464, align 8
  %482 = icmp eq %"class.v8::Value"* %481, null
  br i1 %482, label %483, label %507, !prof !3

483:                                              ; preds = %480
  %484 = load %"class.WTF::StringImpl"*, %"class.WTF::StringImpl"** %466, align 8
  %485 = icmp eq %"class.WTF::StringImpl"* %484, null
  br i1 %485, label %486, label %488

486:                                              ; preds = %483
  %487 = getelementptr inbounds %"class.blink::SocketOptions", %"class.blink::SocketOptions"* %2, i64 0, i32 12
  br label %532

488:                                              ; preds = %483
  %489 = getelementptr inbounds %"class.WTF::StringImpl", %"class.WTF::StringImpl"* %484, i64 0, i32 2, i32 0, i32 0, i32 0, i32 0, i32 0
  %490 = load atomic i32, i32* %489 monotonic, align 4
  %491 = and i32 %490, 2
  %492 = icmp eq i32 %491, 0
  br i1 %492, label %493, label %505

493:                                              ; preds = %488
  %494 = getelementptr inbounds %"class.WTF::StringImpl", %"class.WTF::StringImpl"* %484, i64 0, i32 0
  %495 = load i32, i32* %494, align 4
  %496 = zext i32 %495 to i33
  %497 = call { i33, i1 } @llvm.sadd.with.overflow.i33(i33 %496, i33 1) #7
  %498 = extractvalue { i33, i1 } %497, 1
  %499 = extractvalue { i33, i1 } %497, 0
  %500 = icmp slt i33 %499, 0
  %501 = or i1 %498, %500
  br i1 %501, label %502, label %503, !prof !3

502:                                              ; preds = %493
  call void @llvm.trap() #7
  unreachable

503:                                              ; preds = %493
  %504 = trunc i33 %499 to i32
  store i32 %504, i32* %494, align 4
  br label %505

505:                                              ; preds = %488, %503
  %506 = getelementptr inbounds %"class.blink::SocketOptions", %"class.blink::SocketOptions"* %2, i64 0, i32 12
  br label %513

507:                                              ; preds = %480
  %508 = bitcast %"class.v8::Value"* %481 to %"class.v8::String"*
  %509 = load i32, i32* %465, align 8
  %510 = call %"class.WTF::StringImpl"* @_ZN5blink13ToBlinkStringIN3WTF6StringEEET_N2v85LocalINS4_6StringEEENS_12ExternalModeE(%"class.v8::String"* nonnull %508, i32 %509) #7
  %511 = getelementptr inbounds %"class.blink::SocketOptions", %"class.blink::SocketOptions"* %2, i64 0, i32 12
  %512 = icmp eq %"class.WTF::StringImpl"* %510, null
  br i1 %512, label %532, label %513

513:                                              ; preds = %505, %507
  %514 = phi %"class.WTF::String"* [ %506, %505 ], [ %511, %507 ]
  %515 = phi %"class.WTF::StringImpl"* [ %484, %505 ], [ %510, %507 ]
  %516 = getelementptr inbounds %"class.WTF::StringImpl", %"class.WTF::StringImpl"* %515, i64 0, i32 2, i32 0, i32 0, i32 0, i32 0, i32 0
  %517 = load atomic i32, i32* %516 monotonic, align 4
  %518 = and i32 %517, 2
  %519 = icmp eq i32 %518, 0
  br i1 %519, label %520, label %532

520:                                              ; preds = %513
  %521 = getelementptr inbounds %"class.WTF::StringImpl", %"class.WTF::StringImpl"* %515, i64 0, i32 0
  %522 = load i32, i32* %521, align 4
  %523 = zext i32 %522 to i33
  %524 = call { i33, i1 } @llvm.sadd.with.overflow.i33(i33 %523, i33 1) #7
  %525 = extractvalue { i33, i1 } %524, 1
  %526 = extractvalue { i33, i1 } %524, 0
  %527 = icmp slt i33 %526, 0
  %528 = or i1 %525, %527
  br i1 %528, label %529, label %530, !prof !3

529:                                              ; preds = %520
  call void @llvm.trap() #7
  unreachable

530:                                              ; preds = %520
  %531 = trunc i33 %526 to i32
  store i32 %531, i32* %521, align 4
  br label %532

532:                                              ; preds = %486, %530, %513, %507
  %533 = phi i1 [ false, %530 ], [ false, %513 ], [ true, %507 ], [ true, %486 ]
  %534 = phi %"class.WTF::String"* [ %514, %530 ], [ %514, %513 ], [ %511, %507 ], [ %487, %486 ]
  %535 = phi %"class.WTF::StringImpl"* [ %515, %530 ], [ %515, %513 ], [ null, %507 ], [ null, %486 ]
  %536 = ptrtoint %"class.WTF::StringImpl"* %535 to i64
  %537 = bitcast %"class.WTF::String"* %534 to i64*
  %538 = getelementptr inbounds %"class.WTF::String", %"class.WTF::String"* %534, i64 0, i32 0, i32 0
  %539 = load %"class.WTF::StringImpl"*, %"class.WTF::StringImpl"** %538, align 8
  store i64 %536, i64* %537, align 8
  %540 = icmp eq %"class.WTF::StringImpl"* %539, null
  br i1 %540, label %554, label %541

541:                                              ; preds = %532
  %542 = getelementptr inbounds %"class.WTF::StringImpl", %"class.WTF::StringImpl"* %539, i64 0, i32 2, i32 0, i32 0, i32 0, i32 0, i32 0
  %543 = load atomic i32, i32* %542 monotonic, align 4
  %544 = and i32 %543, 2
  %545 = icmp eq i32 %544, 0
  %546 = getelementptr inbounds %"class.WTF::StringImpl", %"class.WTF::StringImpl"* %539, i64 0, i32 0
  %547 = load i32, i32* %546, align 4
  br i1 %545, label %548, label %550

548:                                              ; preds = %541
  %549 = add i32 %547, -1
  store i32 %549, i32* %546, align 4
  br label %550

550:                                              ; preds = %548, %541
  %551 = phi i32 [ %549, %548 ], [ %547, %541 ]
  %552 = icmp eq i32 %551, 0
  br i1 %552, label %553, label %554

553:                                              ; preds = %550
  call void @_ZNK3WTF10StringImpl18DestroyIfNotStaticEv(%"class.WTF::StringImpl"* nonnull %539) #7
  br label %554

554:                                              ; preds = %532, %550, %553
  br i1 %533, label %568, label %555

555:                                              ; preds = %554
  %556 = getelementptr inbounds %"class.WTF::StringImpl", %"class.WTF::StringImpl"* %535, i64 0, i32 2, i32 0, i32 0, i32 0, i32 0, i32 0
  %557 = load atomic i32, i32* %556 monotonic, align 4
  %558 = and i32 %557, 2
  %559 = icmp eq i32 %558, 0
  %560 = getelementptr inbounds %"class.WTF::StringImpl", %"class.WTF::StringImpl"* %535, i64 0, i32 0
  %561 = load i32, i32* %560, align 4
  br i1 %559, label %562, label %564

562:                                              ; preds = %555
  %563 = add i32 %561, -1
  store i32 %563, i32* %560, align 4
  br label %564

564:                                              ; preds = %562, %555
  %565 = phi i32 [ %563, %562 ], [ %561, %555 ]
  %566 = icmp eq i32 %565, 0
  br i1 %566, label %567, label %568

567:                                              ; preds = %564
  call void @_ZNK3WTF10StringImpl18DestroyIfNotStaticEv(%"class.WTF::StringImpl"* nonnull %535) #7
  br label %568

568:                                              ; preds = %554, %564, %567
  %569 = getelementptr inbounds %"class.blink::V8StringResource", %"class.blink::V8StringResource"* %9, i64 0, i32 3, i32 1, i32 0, i32 0, i32 0
  %570 = load i8*, i8** %569, align 8
  store i8* null, i8** %569, align 8
  %571 = icmp eq i8* %570, null
  br i1 %571, label %573, label %572

572:                                              ; preds = %568
  call void @_ZN3WTF10Partitions10BufferFreeEPv(i8* nonnull %570) #7
  br label %573

573:                                              ; preds = %572, %568
  %574 = load %"class.WTF::StringImpl"*, %"class.WTF::StringImpl"** %466, align 8
  %575 = icmp eq %"class.WTF::StringImpl"* %574, null
  br i1 %575, label %589, label %576

576:                                              ; preds = %573
  %577 = getelementptr inbounds %"class.WTF::StringImpl", %"class.WTF::StringImpl"* %574, i64 0, i32 2, i32 0, i32 0, i32 0, i32 0, i32 0
  %578 = load atomic i32, i32* %577 monotonic, align 4
  %579 = and i32 %578, 2
  %580 = icmp eq i32 %579, 0
  %581 = getelementptr inbounds %"class.WTF::StringImpl", %"class.WTF::StringImpl"* %574, i64 0, i32 0
  %582 = load i32, i32* %581, align 4
  br i1 %580, label %583, label %585

583:                                              ; preds = %576
  %584 = add i32 %582, -1
  store i32 %584, i32* %581, align 4
  br label %585

585:                                              ; preds = %583, %576
  %586 = phi i32 [ %584, %583 ], [ %582, %576 ]
  %587 = icmp eq i32 %586, 0
  br i1 %587, label %588, label %589

588:                                              ; preds = %585
  call void @_ZNK3WTF10StringImpl18DestroyIfNotStaticEv(%"class.WTF::StringImpl"* nonnull %574) #7
  br label %589

589:                                              ; preds = %573, %585, %588
  call void @llvm.lifetime.end.p0i8(i64 160, i8* nonnull %463) #7
  br label %617

590:                                              ; preds = %470
  %591 = call %"class.v8::Value"* @_ZNK2v88TryCatch9ExceptionEv(%"class.v8::TryCatch"* nonnull %6) #7
  %592 = bitcast %"class.blink::ExceptionState"* %3 to void (%"class.blink::ExceptionState"*, %"class.v8::Value"*)***
  %593 = load void (%"class.blink::ExceptionState"*, %"class.v8::Value"*)**, void (%"class.blink::ExceptionState"*, %"class.v8::Value"*)*** %592, align 8
  %594 = getelementptr inbounds void (%"class.blink::ExceptionState"*, %"class.v8::Value"*)*, void (%"class.blink::ExceptionState"*, %"class.v8::Value"*)** %593, i64 5
  %595 = load void (%"class.blink::ExceptionState"*, %"class.v8::Value"*)*, void (%"class.blink::ExceptionState"*, %"class.v8::Value"*)** %594, align 8
  call void %595(%"class.blink::ExceptionState"* %3, %"class.v8::Value"* %591) #7
  call void @_ZN2v88TryCatchD1Ev(%"class.v8::TryCatch"* nonnull %6) #7
  call void @llvm.lifetime.end.p0i8(i64 48, i8* nonnull %472) #7
  %596 = getelementptr inbounds %"class.blink::V8StringResource", %"class.blink::V8StringResource"* %9, i64 0, i32 3, i32 1, i32 0, i32 0, i32 0
  %597 = load i8*, i8** %596, align 8
  store i8* null, i8** %596, align 8
  %598 = icmp eq i8* %597, null
  br i1 %598, label %600, label %599

599:                                              ; preds = %590
  call void @_ZN3WTF10Partitions10BufferFreeEPv(i8* nonnull %597) #7
  br label %600

600:                                              ; preds = %599, %590
  %601 = load %"class.WTF::StringImpl"*, %"class.WTF::StringImpl"** %466, align 8
  %602 = icmp eq %"class.WTF::StringImpl"* %601, null
  br i1 %602, label %616, label %603

603:                                              ; preds = %600
  %604 = getelementptr inbounds %"class.WTF::StringImpl", %"class.WTF::StringImpl"* %601, i64 0, i32 2, i32 0, i32 0, i32 0, i32 0, i32 0
  %605 = load atomic i32, i32* %604 monotonic, align 4
  %606 = and i32 %605, 2
  %607 = icmp eq i32 %606, 0
  %608 = getelementptr inbounds %"class.WTF::StringImpl", %"class.WTF::StringImpl"* %601, i64 0, i32 0
  %609 = load i32, i32* %608, align 4
  br i1 %607, label %610, label %612

610:                                              ; preds = %603
  %611 = add i32 %609, -1
  store i32 %611, i32* %608, align 4
  br label %612

612:                                              ; preds = %610, %603
  %613 = phi i32 [ %611, %610 ], [ %609, %603 ]
  %614 = icmp eq i32 %613, 0
  br i1 %614, label %615, label %616

615:                                              ; preds = %612
  call void @_ZNK3WTF10StringImpl18DestroyIfNotStaticEv(%"class.WTF::StringImpl"* nonnull %601) #7
  br label %616

616:                                              ; preds = %600, %612, %615
  call void @llvm.lifetime.end.p0i8(i64 160, i8* nonnull %463) #7
  br label %713

617:                                              ; preds = %589, %456
  %618 = getelementptr inbounds %"class.v8::Eternal", %"class.v8::Eternal"* %42, i64 6, i32 0
  %619 = bitcast %"class.v8::Name"** %618 to %"class.v8::Value"**
  %620 = load %"class.v8::Value"*, %"class.v8::Value"** %619, align 8
  %621 = call %"class.v8::Value"* @_ZN2v86Object3GetENS_5LocalINS_7ContextEEENS1_INS_5ValueEEE(%"class.v8::Object"* nonnull %36, %"class.v8::Context"* %44, %"class.v8::Value"* %620) #7
  %622 = icmp eq %"class.v8::Value"* %621, null
  br i1 %622, label %623, label %629

623:                                              ; preds = %617
  %624 = call %"class.v8::Value"* @_ZNK2v88TryCatch9ExceptionEv(%"class.v8::TryCatch"* nonnull %7) #7
  %625 = bitcast %"class.blink::ExceptionState"* %3 to void (%"class.blink::ExceptionState"*, %"class.v8::Value"*)***
  %626 = load void (%"class.blink::ExceptionState"*, %"class.v8::Value"*)**, void (%"class.blink::ExceptionState"*, %"class.v8::Value"*)*** %625, align 8
  %627 = getelementptr inbounds void (%"class.blink::ExceptionState"*, %"class.v8::Value"*)*, void (%"class.blink::ExceptionState"*, %"class.v8::Value"*)** %626, i64 5
  %628 = load void (%"class.blink::ExceptionState"*, %"class.v8::Value"*)*, void (%"class.blink::ExceptionState"*, %"class.v8::Value"*)** %627, align 8
  call void %628(%"class.blink::ExceptionState"* %3, %"class.v8::Value"* %624) #7
  br label %713

629:                                              ; preds = %617
  %630 = bitcast %"class.v8::Value"* %621 to i64*
  %631 = load i64, i64* %630, align 8
  %632 = and i64 %631, 3
  %633 = icmp eq i64 %632, 1
  br i1 %633, label %634, label %651

634:                                              ; preds = %629
  %635 = add i64 %631, -1
  %636 = inttoptr i64 %635 to i32*
  %637 = load i32, i32* %636, align 4
  %638 = and i64 %631, -4294967296
  %639 = zext i32 %637 to i64
  %640 = or i64 %638, %639
  %641 = add i64 %640, 7
  %642 = inttoptr i64 %641 to i16*
  %643 = load i16, i16* %642, align 2
  %644 = icmp eq i16 %643, 67
  br i1 %644, label %645, label %651

645:                                              ; preds = %634
  %646 = add i64 %631, 23
  %647 = inttoptr i64 %646 to i32*
  %648 = load i32, i32* %647, align 4
  %649 = and i32 %648, -2
  %650 = icmp eq i32 %649, 10
  br i1 %650, label %659, label %651

651:                                              ; preds = %634, %629, %645
  %652 = call zeroext i16 @_ZN5blink8ToUInt16EPN2v87IsolateENS0_5LocalINS0_5ValueEEENS_30IntegerConversionConfigurationERNS_14ExceptionStateE(%"class.v8::Isolate"* %0, %"class.v8::Value"* nonnull %621, i32 0, %"class.blink::ExceptionState"* dereferenceable(72) %3) #7
  %653 = getelementptr inbounds %"class.blink::ExceptionState", %"class.blink::ExceptionState"* %3, i64 0, i32 4
  %654 = load i32, i32* %653, align 8
  %655 = icmp eq i32 %654, 0
  br i1 %655, label %656, label %713

656:                                              ; preds = %651
  %657 = getelementptr inbounds %"class.blink::SocketOptions", %"class.blink::SocketOptions"* %2, i64 0, i32 13
  store i16 %652, i16* %657, align 8
  %658 = getelementptr inbounds %"class.blink::SocketOptions", %"class.blink::SocketOptions"* %2, i64 0, i32 5
  store i8 1, i8* %658, align 4
  br label %659

659:                                              ; preds = %656, %645
  %660 = getelementptr inbounds %"class.v8::Eternal", %"class.v8::Eternal"* %42, i64 7, i32 0
  %661 = bitcast %"class.v8::Name"** %660 to %"class.v8::Value"**
  %662 = load %"class.v8::Value"*, %"class.v8::Value"** %661, align 8
  %663 = call %"class.v8::Value"* @_ZN2v86Object3GetENS_5LocalINS_7ContextEEENS1_INS_5ValueEEE(%"class.v8::Object"* nonnull %36, %"class.v8::Context"* %44, %"class.v8::Value"* %662) #7
  %664 = icmp eq %"class.v8::Value"* %663, null
  br i1 %664, label %665, label %671

665:                                              ; preds = %659
  %666 = call %"class.v8::Value"* @_ZNK2v88TryCatch9ExceptionEv(%"class.v8::TryCatch"* nonnull %7) #7
  %667 = bitcast %"class.blink::ExceptionState"* %3 to void (%"class.blink::ExceptionState"*, %"class.v8::Value"*)***
  %668 = load void (%"class.blink::ExceptionState"*, %"class.v8::Value"*)**, void (%"class.blink::ExceptionState"*, %"class.v8::Value"*)*** %667, align 8
  %669 = getelementptr inbounds void (%"class.blink::ExceptionState"*, %"class.v8::Value"*)*, void (%"class.blink::ExceptionState"*, %"class.v8::Value"*)** %668, i64 5
  %670 = load void (%"class.blink::ExceptionState"*, %"class.v8::Value"*)*, void (%"class.blink::ExceptionState"*, %"class.v8::Value"*)** %669, align 8
  call void %670(%"class.blink::ExceptionState"* %3, %"class.v8::Value"* %666) #7
  br label %713

671:                                              ; preds = %659
  %672 = bitcast %"class.v8::Value"* %663 to i64*
  %673 = load i64, i64* %672, align 8
  %674 = and i64 %673, 3
  %675 = icmp eq i64 %674, 1
  br i1 %675, label %676, label %693

676:                                              ; preds = %671
  %677 = add i64 %673, -1
  %678 = inttoptr i64 %677 to i32*
  %679 = load i32, i32* %678, align 4
  %680 = and i64 %673, -4294967296
  %681 = zext i32 %679 to i64
  %682 = or i64 %680, %681
  %683 = add i64 %682, 7
  %684 = inttoptr i64 %683 to i16*
  %685 = load i16, i16* %684, align 2
  %686 = icmp eq i16 %685, 67
  br i1 %686, label %687, label %693

687:                                              ; preds = %676
  %688 = add i64 %673, 23
  %689 = inttoptr i64 %688 to i32*
  %690 = load i32, i32* %689, align 4
  %691 = and i32 %690, -2
  %692 = icmp eq i32 %691, 10
  br i1 %692, label %713, label %693

693:                                              ; preds = %676, %671, %687
  %694 = call zeroext i1 @_ZNK2v85Value8IsUint32Ev(%"class.v8::Value"* nonnull %663) #7
  br i1 %694, label %695, label %698, !prof !2

695:                                              ; preds = %693
  %696 = bitcast %"class.v8::Value"* %663 to %"class.v8::Uint32"*
  %697 = call i32 @_ZNK2v86Uint325ValueEv(%"class.v8::Uint32"* nonnull %696) #7
  br label %705

698:                                              ; preds = %693
  %699 = call zeroext i1 @_ZNK2v85Value7IsInt32Ev(%"class.v8::Value"* nonnull %663) #7
  br i1 %699, label %700, label %703, !prof !2

700:                                              ; preds = %698
  %701 = bitcast %"class.v8::Value"* %663 to %"class.v8::Int32"*
  %702 = call i32 @_ZNK2v85Int325ValueEv(%"class.v8::Int32"* nonnull %701) #7
  br label %705

703:                                              ; preds = %698
  %704 = call i32 @_ZN5blink12ToUInt32SlowEPN2v87IsolateENS0_5LocalINS0_5ValueEEENS_30IntegerConversionConfigurationERNS_14ExceptionStateE(%"class.v8::Isolate"* %0, %"class.v8::Value"* nonnull %663, i32 0, %"class.blink::ExceptionState"* dereferenceable(72) %3) #7
  br label %705

705:                                              ; preds = %695, %700, %703
  %706 = phi i32 [ %697, %695 ], [ %702, %700 ], [ %704, %703 ]
  %707 = getelementptr inbounds %"class.blink::ExceptionState", %"class.blink::ExceptionState"* %3, i64 0, i32 4
  %708 = load i32, i32* %707, align 8
  %709 = icmp eq i32 %708, 0
  br i1 %709, label %710, label %713

710:                                              ; preds = %705
  %711 = getelementptr inbounds %"class.blink::SocketOptions", %"class.blink::SocketOptions"* %2, i64 0, i32 14
  store i32 %706, i32* %711, align 4
  %712 = getelementptr inbounds %"class.blink::SocketOptions", %"class.blink::SocketOptions"* %2, i64 0, i32 6
  store i8 1, i8* %712, align 1
  br label %713

713:                                              ; preds = %705, %651, %420, %365, %316, %84, %99, %281, %330, %434, %616, %665, %710, %687, %623, %380, %288, %49
  call void @_ZN2v88TryCatchD1Ev(%"class.v8::TryCatch"* nonnull %7) #7
  call void @llvm.lifetime.end.p0i8(i64 48, i8* nonnull %43) #7
  br label %714

714:                                              ; preds = %27, %27, %4, %713, %34
  ret void
}

declare zeroext i1 @_ZNK2v85Value8IsObjectEv(%"class.v8::Value"*) local_unnamed_addr #1

declare void @_ZN5blink14ExceptionState14ThrowTypeErrorEPKc(%"class.blink::ExceptionState"*, i8*) local_unnamed_addr #1

; Function Attrs: argmemonly nounwind
declare void @llvm.lifetime.start.p0i8(i64 immarg, i8* nocapture) #2

; Function Attrs: argmemonly nounwind
declare void @llvm.lifetime.end.p0i8(i64 immarg, i8* nocapture) #2

; Function Attrs: argmemonly nounwind
declare void @llvm.memset.p0i8.i64(i8* nocapture writeonly, i8, i64, i1 immarg) #2

declare void @_ZN2v88TryCatchC1EPNS_7IsolateE(%"class.v8::TryCatch"*, %"class.v8::Isolate"*) unnamed_addr #1

declare %"class.v8::Context"* @_ZN2v87Isolate17GetCurrentContextEv(%"class.v8::Isolate"*) local_unnamed_addr #1

declare %"class.v8::Value"* @_ZN2v86Object3GetENS_5LocalINS_7ContextEEENS1_INS_5ValueEEE(%"class.v8::Object"*, %"class.v8::Context"*, %"class.v8::Value"*) local_unnamed_addr #1

declare %"class.v8::Value"* @_ZNK2v88TryCatch9ExceptionEv(%"class.v8::TryCatch"*) local_unnamed_addr #1

; Function Attrs: nounwind
declare void @_ZN2v88TryCatchD1Ev(%"class.v8::TryCatch"*) unnamed_addr #3

; Function Attrs: nounwind ssp uwtable
define hidden %"class.v8::Value"* @_ZNK5blink13SocketOptions8ToV8ImplEN2v85LocalINS1_6ObjectEEEPNS1_7IsolateE(%"class.blink::SocketOptions"* nocapture readonly, %"class.v8::Object"* nocapture readnone, %"class.v8::Isolate"*) unnamed_addr #0 align 2 {
  %4 = tail call %"class.v8::Object"* @_ZN2v86Object3NewEPNS_7IsolateE(%"class.v8::Isolate"* %2) #7
  %5 = tail call zeroext i1 @_ZN5blink17toV8SocketOptionsEPKNS_13SocketOptionsEN2v85LocalINS3_6ObjectEEES6_PNS3_7IsolateE(%"class.blink::SocketOptions"* %0, %"class.v8::Object"* %4, %"class.v8::Object"* undef, %"class.v8::Isolate"* %2)
  %6 = bitcast %"class.v8::Object"* %4 to %"class.v8::Value"*
  %7 = ptrtoint %"class.v8::Isolate"* %2 to i64
  %8 = add i64 %7, 160
  %9 = inttoptr i64 %8 to %"class.v8::Value"*
  %10 = select i1 %5, %"class.v8::Value"* %6, %"class.v8::Value"* %9
  ret %"class.v8::Value"* %10
}

declare %"class.v8::Object"* @_ZN2v86Object3NewEPNS_7IsolateE(%"class.v8::Isolate"*) local_unnamed_addr #1

; Function Attrs: nounwind ssp uwtable
define hidden zeroext i1 @_ZN5blink17toV8SocketOptionsEPKNS_13SocketOptionsEN2v85LocalINS3_6ObjectEEES6_PNS3_7IsolateE(%"class.blink::SocketOptions"* nocapture readonly, %"class.v8::Object"*, %"class.v8::Object"* nocapture readnone, %"class.v8::Isolate"*) local_unnamed_addr #0 {
  %5 = alloca %"class.WTF::StringView", align 8
  %6 = alloca %"class.WTF::StringView", align 8
  %7 = ptrtoint %"class.v8::Isolate"* %3 to i64
  %8 = add i64 %7, 8
  %9 = inttoptr i64 %8 to %"class.blink::V8PerIsolateData"**
  %10 = load %"class.blink::V8PerIsolateData"*, %"class.blink::V8PerIsolateData"** %9, align 8
  %11 = tail call { i64, %"class.v8::Eternal"* } @_ZN5blink16V8PerIsolateData28FindOrCreateEternalNameCacheEPKvRKN4base4spanIKPKcLm18446744073709551615EEE(%"class.blink::V8PerIsolateData"* %10, i8* bitcast ([8 x i8*]* @_ZZN5blinkL26eternalV8SocketOptionsKeysEPN2v87IsolateEE5kKeys to i8*), %"class.base::span.314"* dereferenceable(16) bitcast ({ i64, i8** }* @.ref.tmp to %"class.base::span.314"*)) #7
  %12 = extractvalue { i64, %"class.v8::Eternal"* } %11, 1
  %13 = tail call %"class.v8::Context"* @_ZN2v87Isolate17GetCurrentContextEv(%"class.v8::Isolate"* %3) #7
  %14 = getelementptr inbounds %"class.blink::SocketOptions", %"class.blink::SocketOptions"* %0, i64 0, i32 1
  %15 = load i8, i8* %14, align 8, !range !4
  %16 = icmp eq i8 %15, 0
  br i1 %16, label %31, label %17

17:                                               ; preds = %4
  %18 = getelementptr inbounds %"class.blink::SocketOptions", %"class.blink::SocketOptions"* %0, i64 0, i32 7
  %19 = load i8, i8* %18, align 2, !range !4
  %20 = icmp eq i8 %19, 0
  %21 = select i1 %20, i64 192, i64 184
  %22 = add i64 %21, %7
  %23 = inttoptr i64 %22 to %"class.v8::Value"*
  %24 = getelementptr inbounds %"class.v8::Eternal", %"class.v8::Eternal"* %12, i64 0, i32 0
  %25 = load %"class.v8::Name"*, %"class.v8::Name"** %24, align 8
  %26 = tail call i16 @_ZN2v86Object18CreateDataPropertyENS_5LocalINS_7ContextEEENS1_INS_4NameEEENS1_INS_5ValueEEE(%"class.v8::Object"* %1, %"class.v8::Context"* %13, %"class.v8::Name"* %25, %"class.v8::Value"* %23) #7
  %27 = trunc i16 %26 to i8
  %28 = icmp ne i8 %27, 0
  %29 = icmp ugt i16 %26, 255
  %30 = and i1 %29, %28
  br i1 %30, label %31, label %160

31:                                               ; preds = %4, %17
  %32 = getelementptr inbounds %"class.blink::SocketOptions", %"class.blink::SocketOptions"* %0, i64 0, i32 8, i32 0, i32 0
  %33 = load %"class.WTF::StringImpl"*, %"class.WTF::StringImpl"** %32, align 8
  %34 = icmp eq %"class.WTF::StringImpl"* %33, null
  br i1 %34, label %53, label %35

35:                                               ; preds = %31
  %36 = bitcast %"class.WTF::StringView"* %5 to i8*
  call void @llvm.lifetime.start.p0i8(i64 24, i8* nonnull %36) #7
  %37 = getelementptr inbounds %"class.WTF::StringView", %"class.WTF::StringView"* %5, i64 0, i32 0
  store %"class.WTF::StringImpl"* %33, %"class.WTF::StringImpl"** %37, align 8
  %38 = getelementptr inbounds %"class.WTF::StringImpl", %"class.WTF::StringImpl"* %33, i64 0, i32 1
  %39 = load i32, i32* %38, align 4
  %40 = getelementptr inbounds %"class.WTF::StringImpl", %"class.WTF::StringImpl"* %33, i64 1
  %41 = getelementptr inbounds %"class.WTF::StringView", %"class.WTF::StringView"* %5, i64 0, i32 1
  %42 = bitcast i8** %41 to %"class.WTF::StringImpl"**
  store %"class.WTF::StringImpl"* %40, %"class.WTF::StringImpl"** %42, align 8
  %43 = getelementptr inbounds %"class.WTF::StringView", %"class.WTF::StringView"* %5, i64 0, i32 2
  store i32 %39, i32* %43, align 8
  %44 = call %"class.v8::String"* @_ZN5blink8V8StringEPN2v87IsolateERKN3WTF10StringViewE(%"class.v8::Isolate"* %3, %"class.WTF::StringView"* nonnull dereferenceable(24) %5)
  call void @llvm.lifetime.end.p0i8(i64 24, i8* nonnull %36) #7
  %45 = bitcast %"class.v8::String"* %44 to %"class.v8::Value"*
  %46 = getelementptr inbounds %"class.v8::Eternal", %"class.v8::Eternal"* %12, i64 1, i32 0
  %47 = load %"class.v8::Name"*, %"class.v8::Name"** %46, align 8
  %48 = call i16 @_ZN2v86Object18CreateDataPropertyENS_5LocalINS_7ContextEEENS1_INS_4NameEEENS1_INS_5ValueEEE(%"class.v8::Object"* %1, %"class.v8::Context"* %13, %"class.v8::Name"* %47, %"class.v8::Value"* %45) #7
  %49 = trunc i16 %48 to i8
  %50 = icmp ne i8 %49, 0
  %51 = icmp ugt i16 %48, 255
  %52 = and i1 %51, %50
  br i1 %52, label %53, label %160

53:                                               ; preds = %31, %35
  %54 = getelementptr inbounds %"class.blink::SocketOptions", %"class.blink::SocketOptions"* %0, i64 0, i32 2
  %55 = load i8, i8* %54, align 1, !range !4
  %56 = icmp eq i8 %55, 0
  br i1 %56, label %70, label %57

57:                                               ; preds = %53
  %58 = getelementptr inbounds %"class.blink::SocketOptions", %"class.blink::SocketOptions"* %0, i64 0, i32 9
  %59 = load i16, i16* %58, align 8
  %60 = zext i16 %59 to i32
  %61 = call %"class.v8::Integer"* @_ZN2v87Integer15NewFromUnsignedEPNS_7IsolateEj(%"class.v8::Isolate"* %3, i32 %60) #7
  %62 = bitcast %"class.v8::Integer"* %61 to %"class.v8::Value"*
  %63 = getelementptr inbounds %"class.v8::Eternal", %"class.v8::Eternal"* %12, i64 2, i32 0
  %64 = load %"class.v8::Name"*, %"class.v8::Name"** %63, align 8
  %65 = call i16 @_ZN2v86Object18CreateDataPropertyENS_5LocalINS_7ContextEEENS1_INS_4NameEEENS1_INS_5ValueEEE(%"class.v8::Object"* %1, %"class.v8::Context"* %13, %"class.v8::Name"* %64, %"class.v8::Value"* %62) #7
  %66 = trunc i16 %65 to i8
  %67 = icmp ne i8 %66, 0
  %68 = icmp ugt i16 %65, 255
  %69 = and i1 %68, %67
  br i1 %69, label %70, label %160

70:                                               ; preds = %53, %57
  %71 = getelementptr inbounds %"class.blink::SocketOptions", %"class.blink::SocketOptions"* %0, i64 0, i32 3
  %72 = load i8, i8* %71, align 2, !range !4
  %73 = icmp eq i8 %72, 0
  br i1 %73, label %88, label %74

74:                                               ; preds = %70
  %75 = getelementptr inbounds %"class.blink::SocketOptions", %"class.blink::SocketOptions"* %0, i64 0, i32 10
  %76 = load i8, i8* %75, align 2, !range !4
  %77 = icmp eq i8 %76, 0
  %78 = select i1 %77, i64 192, i64 184
  %79 = add i64 %78, %7
  %80 = inttoptr i64 %79 to %"class.v8::Value"*
  %81 = getelementptr inbounds %"class.v8::Eternal", %"class.v8::Eternal"* %12, i64 3, i32 0
  %82 = load %"class.v8::Name"*, %"class.v8::Name"** %81, align 8
  %83 = call i16 @_ZN2v86Object18CreateDataPropertyENS_5LocalINS_7ContextEEENS1_INS_4NameEEENS1_INS_5ValueEEE(%"class.v8::Object"* %1, %"class.v8::Context"* %13, %"class.v8::Name"* %82, %"class.v8::Value"* %80) #7
  %84 = trunc i16 %83 to i8
  %85 = icmp ne i8 %84, 0
  %86 = icmp ugt i16 %83, 255
  %87 = and i1 %86, %85
  br i1 %87, label %88, label %160

88:                                               ; preds = %70, %74
  %89 = getelementptr inbounds %"class.blink::SocketOptions", %"class.blink::SocketOptions"* %0, i64 0, i32 4
  %90 = load i8, i8* %89, align 1, !range !4
  %91 = icmp eq i8 %90, 0
  br i1 %91, label %104, label %92

92:                                               ; preds = %88
  %93 = getelementptr inbounds %"class.blink::SocketOptions", %"class.blink::SocketOptions"* %0, i64 0, i32 11
  %94 = load i32, i32* %93, align 4
  %95 = call %"class.v8::Integer"* @_ZN2v87Integer15NewFromUnsignedEPNS_7IsolateEj(%"class.v8::Isolate"* %3, i32 %94) #7
  %96 = bitcast %"class.v8::Integer"* %95 to %"class.v8::Value"*
  %97 = getelementptr inbounds %"class.v8::Eternal", %"class.v8::Eternal"* %12, i64 4, i32 0
  %98 = load %"class.v8::Name"*, %"class.v8::Name"** %97, align 8
  %99 = call i16 @_ZN2v86Object18CreateDataPropertyENS_5LocalINS_7ContextEEENS1_INS_4NameEEENS1_INS_5ValueEEE(%"class.v8::Object"* %1, %"class.v8::Context"* %13, %"class.v8::Name"* %98, %"class.v8::Value"* %96) #7
  %100 = trunc i16 %99 to i8
  %101 = icmp ne i8 %100, 0
  %102 = icmp ugt i16 %99, 255
  %103 = and i1 %102, %101
  br i1 %103, label %104, label %160

104:                                              ; preds = %88, %92
  %105 = getelementptr inbounds %"class.blink::SocketOptions", %"class.blink::SocketOptions"* %0, i64 0, i32 12, i32 0, i32 0
  %106 = load %"class.WTF::StringImpl"*, %"class.WTF::StringImpl"** %105, align 8
  %107 = icmp eq %"class.WTF::StringImpl"* %106, null
  br i1 %107, label %126, label %108

108:                                              ; preds = %104
  %109 = bitcast %"class.WTF::StringView"* %6 to i8*
  call void @llvm.lifetime.start.p0i8(i64 24, i8* nonnull %109) #7
  %110 = getelementptr inbounds %"class.WTF::StringView", %"class.WTF::StringView"* %6, i64 0, i32 0
  store %"class.WTF::StringImpl"* %106, %"class.WTF::StringImpl"** %110, align 8
  %111 = getelementptr inbounds %"class.WTF::StringImpl", %"class.WTF::StringImpl"* %106, i64 0, i32 1
  %112 = load i32, i32* %111, align 4
  %113 = getelementptr inbounds %"class.WTF::StringImpl", %"class.WTF::StringImpl"* %106, i64 1
  %114 = getelementptr inbounds %"class.WTF::StringView", %"class.WTF::StringView"* %6, i64 0, i32 1
  %115 = bitcast i8** %114 to %"class.WTF::StringImpl"**
  store %"class.WTF::StringImpl"* %113, %"class.WTF::StringImpl"** %115, align 8
  %116 = getelementptr inbounds %"class.WTF::StringView", %"class.WTF::StringView"* %6, i64 0, i32 2
  store i32 %112, i32* %116, align 8
  %117 = call %"class.v8::String"* @_ZN5blink8V8StringEPN2v87IsolateERKN3WTF10StringViewE(%"class.v8::Isolate"* %3, %"class.WTF::StringView"* nonnull dereferenceable(24) %6)
  call void @llvm.lifetime.end.p0i8(i64 24, i8* nonnull %109) #7
  %118 = bitcast %"class.v8::String"* %117 to %"class.v8::Value"*
  %119 = getelementptr inbounds %"class.v8::Eternal", %"class.v8::Eternal"* %12, i64 5, i32 0
  %120 = load %"class.v8::Name"*, %"class.v8::Name"** %119, align 8
  %121 = call i16 @_ZN2v86Object18CreateDataPropertyENS_5LocalINS_7ContextEEENS1_INS_4NameEEENS1_INS_5ValueEEE(%"class.v8::Object"* %1, %"class.v8::Context"* %13, %"class.v8::Name"* %120, %"class.v8::Value"* %118) #7
  %122 = trunc i16 %121 to i8
  %123 = icmp ne i8 %122, 0
  %124 = icmp ugt i16 %121, 255
  %125 = and i1 %124, %123
  br i1 %125, label %126, label %160

126:                                              ; preds = %104, %108
  %127 = getelementptr inbounds %"class.blink::SocketOptions", %"class.blink::SocketOptions"* %0, i64 0, i32 5
  %128 = load i8, i8* %127, align 4, !range !4
  %129 = icmp eq i8 %128, 0
  br i1 %129, label %143, label %130

130:                                              ; preds = %126
  %131 = getelementptr inbounds %"class.blink::SocketOptions", %"class.blink::SocketOptions"* %0, i64 0, i32 13
  %132 = load i16, i16* %131, align 8
  %133 = zext i16 %132 to i32
  %134 = call %"class.v8::Integer"* @_ZN2v87Integer15NewFromUnsignedEPNS_7IsolateEj(%"class.v8::Isolate"* %3, i32 %133) #7
  %135 = bitcast %"class.v8::Integer"* %134 to %"class.v8::Value"*
  %136 = getelementptr inbounds %"class.v8::Eternal", %"class.v8::Eternal"* %12, i64 6, i32 0
  %137 = load %"class.v8::Name"*, %"class.v8::Name"** %136, align 8
  %138 = call i16 @_ZN2v86Object18CreateDataPropertyENS_5LocalINS_7ContextEEENS1_INS_4NameEEENS1_INS_5ValueEEE(%"class.v8::Object"* %1, %"class.v8::Context"* %13, %"class.v8::Name"* %137, %"class.v8::Value"* %135) #7
  %139 = trunc i16 %138 to i8
  %140 = icmp ne i8 %139, 0
  %141 = icmp ugt i16 %138, 255
  %142 = and i1 %141, %140
  br i1 %142, label %143, label %160

143:                                              ; preds = %126, %130
  %144 = getelementptr inbounds %"class.blink::SocketOptions", %"class.blink::SocketOptions"* %0, i64 0, i32 6
  %145 = load i8, i8* %144, align 1, !range !4
  %146 = icmp eq i8 %145, 0
  br i1 %146, label %159, label %147

147:                                              ; preds = %143
  %148 = getelementptr inbounds %"class.blink::SocketOptions", %"class.blink::SocketOptions"* %0, i64 0, i32 14
  %149 = load i32, i32* %148, align 4
  %150 = call %"class.v8::Integer"* @_ZN2v87Integer15NewFromUnsignedEPNS_7IsolateEj(%"class.v8::Isolate"* %3, i32 %149) #7
  %151 = bitcast %"class.v8::Integer"* %150 to %"class.v8::Value"*
  %152 = getelementptr inbounds %"class.v8::Eternal", %"class.v8::Eternal"* %12, i64 7, i32 0
  %153 = load %"class.v8::Name"*, %"class.v8::Name"** %152, align 8
  %154 = call i16 @_ZN2v86Object18CreateDataPropertyENS_5LocalINS_7ContextEEENS1_INS_4NameEEENS1_INS_5ValueEEE(%"class.v8::Object"* %1, %"class.v8::Context"* %13, %"class.v8::Name"* %153, %"class.v8::Value"* %151) #7
  %155 = trunc i16 %154 to i8
  %156 = icmp ne i8 %155, 0
  %157 = icmp ugt i16 %154, 255
  %158 = and i1 %157, %156
  br i1 %158, label %159, label %160

159:                                              ; preds = %143, %147
  br label %160

160:                                              ; preds = %35, %74, %108, %159, %147, %130, %92, %57, %17
  %161 = phi i1 [ false, %17 ], [ false, %35 ], [ false, %57 ], [ false, %74 ], [ false, %92 ], [ false, %108 ], [ false, %130 ], [ true, %159 ], [ false, %147 ]
  ret i1 %161
}

; Function Attrs: inlinehint nounwind ssp uwtable
define linkonce_odr hidden %"class.v8::String"* @_ZN5blink8V8StringEPN2v87IsolateERKN3WTF10StringViewE(%"class.v8::Isolate"*, %"class.WTF::StringView"* dereferenceable(24)) local_unnamed_addr #4 comdat {
  %3 = getelementptr inbounds %"class.WTF::StringView", %"class.WTF::StringView"* %1, i64 0, i32 1
  %4 = load i8*, i8** %3, align 8
  %5 = icmp eq i8* %4, null
  %6 = bitcast i8* %4 to i16*
  br i1 %5, label %7, label %11

7:                                                ; preds = %2
  %8 = ptrtoint %"class.v8::Isolate"* %0 to i64
  %9 = add i64 %8, 200
  %10 = inttoptr i64 %9 to %"class.v8::String"*
  br label %63

11:                                               ; preds = %2
  %12 = getelementptr inbounds %"class.WTF::StringView", %"class.WTF::StringView"* %1, i64 0, i32 0
  %13 = load %"class.WTF::StringImpl"*, %"class.WTF::StringImpl"** %12, align 8
  %14 = getelementptr inbounds %"class.WTF::StringImpl", %"class.WTF::StringImpl"* %13, i64 1
  %15 = bitcast %"class.WTF::StringImpl"* %14 to i8*
  %16 = icmp eq i8* %4, %15
  br i1 %16, label %17, label %48

17:                                               ; preds = %11
  %18 = getelementptr inbounds %"class.WTF::StringView", %"class.WTF::StringView"* %1, i64 0, i32 2
  %19 = load i32, i32* %18, align 8
  %20 = getelementptr inbounds %"class.WTF::StringImpl", %"class.WTF::StringImpl"* %13, i64 0, i32 1
  %21 = load i32, i32* %20, align 4
  %22 = icmp ne i32 %19, %21
  %23 = icmp eq %"class.WTF::StringImpl"* %13, null
  %24 = or i1 %23, %22
  br i1 %24, label %48, label %25

25:                                               ; preds = %17
  %26 = ptrtoint %"class.v8::Isolate"* %0 to i64
  %27 = add i64 %26, 8
  %28 = inttoptr i64 %27 to %"class.blink::V8PerIsolateData"**
  %29 = load %"class.blink::V8PerIsolateData"*, %"class.blink::V8PerIsolateData"** %28, align 8
  %30 = getelementptr inbounds %"class.blink::V8PerIsolateData", %"class.blink::V8PerIsolateData"* %29, i64 0, i32 5, i32 0, i32 0, i32 0
  %31 = load %"class.blink::StringCache"*, %"class.blink::StringCache"** %30, align 8
  %32 = getelementptr inbounds %"class.blink::StringCache", %"class.blink::StringCache"* %31, i64 0, i32 3, i32 0
  %33 = load %"class.WTF::StringImpl"*, %"class.WTF::StringImpl"** %32, align 8
  %34 = icmp eq %"class.WTF::StringImpl"* %33, %13
  br i1 %34, label %35, label %46

35:                                               ; preds = %25
  %36 = getelementptr inbounds %"class.blink::StringCache", %"class.blink::StringCache"* %31, i64 0, i32 1
  %37 = bitcast %"class.v8::PersistentValueMapBase<WTF::StringImpl *, v8::String, blink::StringCacheMapTraits>::PersistentValueReference"* %36 to %"class.v8::String"**
  %38 = load %"class.v8::String"*, %"class.v8::String"** %37, align 8
  %39 = icmp eq %"class.v8::String"* %38, null
  br i1 %39, label %63, label %40

40:                                               ; preds = %35
  %41 = bitcast %"class.v8::String"* %38 to i64*
  %42 = bitcast %"class.v8::Isolate"* %0 to %"class.v8::internal::Isolate"*
  %43 = load i64, i64* %41, align 8
  %44 = tail call i64* @_ZN2v811HandleScope12CreateHandleEPNS_8internal7IsolateEm(%"class.v8::internal::Isolate"* %42, i64 %43) #7
  %45 = bitcast i64* %44 to %"class.v8::String"*
  br label %63

46:                                               ; preds = %25
  %47 = tail call %"class.v8::String"* @_ZN5blink11StringCache20V8ExternalStringSlowEPN2v87IsolateEPN3WTF10StringImplE(%"class.blink::StringCache"* %31, %"class.v8::Isolate"* %0, %"class.WTF::StringImpl"* nonnull %13) #7
  br label %63

48:                                               ; preds = %17, %11
  %49 = getelementptr inbounds %"class.WTF::StringImpl", %"class.WTF::StringImpl"* %13, i64 0, i32 2, i32 0, i32 0, i32 0, i32 0, i32 0
  %50 = load atomic i32, i32* %49 monotonic, align 4
  %51 = and i32 %50, 1
  %52 = icmp eq i32 %51, 0
  %53 = getelementptr inbounds %"class.WTF::StringView", %"class.WTF::StringView"* %1, i64 0, i32 2
  %54 = load i32, i32* %53, align 8
  br i1 %52, label %59, label %55

55:                                               ; preds = %48
  %56 = tail call %"class.v8::String"* @_ZN2v86String14NewFromOneByteEPNS_7IsolateEPKhNS_13NewStringTypeEi(%"class.v8::Isolate"* %0, i8* nonnull %4, i32 0, i32 %54) #7
  %57 = icmp eq %"class.v8::String"* %56, null
  br i1 %57, label %58, label %63, !prof !3

58:                                               ; preds = %55
  tail call void @_ZN2v82V812ToLocalEmptyEv() #7
  br label %63

59:                                               ; preds = %48
  %60 = tail call %"class.v8::String"* @_ZN2v86String14NewFromTwoByteEPNS_7IsolateEPKtNS_13NewStringTypeEi(%"class.v8::Isolate"* %0, i16* nonnull %6, i32 0, i32 %54) #7
  %61 = icmp eq %"class.v8::String"* %60, null
  br i1 %61, label %62, label %63, !prof !3

62:                                               ; preds = %59
  tail call void @_ZN2v82V812ToLocalEmptyEv() #7
  br label %63

63:                                               ; preds = %46, %40, %35, %62, %59, %58, %55, %7
  %64 = phi %"class.v8::String"* [ %10, %7 ], [ %56, %55 ], [ null, %58 ], [ %60, %59 ], [ null, %62 ], [ null, %35 ], [ %45, %40 ], [ %47, %46 ]
  ret %"class.v8::String"* %64
}

declare %"class.v8::Integer"* @_ZN2v87Integer15NewFromUnsignedEPNS_7IsolateEj(%"class.v8::Isolate"*, i32) local_unnamed_addr #1

; Function Attrs: nounwind ssp uwtable
define hidden %"class.blink::SocketOptions"* @_ZN5blink17NativeValueTraitsINS_13SocketOptionsEvE11NativeValueEPN2v87IsolateENS3_5LocalINS3_5ValueEEERNS_14ExceptionStateE(%"class.v8::Isolate"*, %"class.v8::Value"*, %"class.blink::ExceptionState"* dereferenceable(72)) local_unnamed_addr #0 align 2 {
  %4 = tail call i8* @_ZN5blink10ThreadHeap8AllocateINS_17IDLDictionaryBaseEEEPhm(i64 48) #7
  %5 = bitcast i8* %4 to %"class.blink::SocketOptions"*
  tail call void @_ZN5blink13SocketOptionsC1Ev(%"class.blink::SocketOptions"* %5) #7
  %6 = getelementptr inbounds i8, i8* %4, i64 -4
  %7 = bitcast i8* %6 to i16*
  %8 = load atomic i16, i16* %7 monotonic, align 2
  %9 = or i16 %8, 1
  store atomic i16 %9, i16* %7 release, align 2
  tail call void @_ZN5blink15V8SocketOptions6ToImplEPN2v87IsolateENS1_5LocalINS1_5ValueEEEPNS_13SocketOptionsERNS_14ExceptionStateE(%"class.v8::Isolate"* %0, %"class.v8::Value"* %1, %"class.blink::SocketOptions"* %5, %"class.blink::ExceptionState"* dereferenceable(72) %2)
  ret %"class.blink::SocketOptions"* %5
}

declare { i64, %"class.v8::Eternal"* } @_ZN5blink16V8PerIsolateData28FindOrCreateEternalNameCacheEPKvRKN4base4spanIKPKcLm18446744073709551615EEE(%"class.blink::V8PerIsolateData"*, i8*, %"class.base::span.314"* dereferenceable(16)) local_unnamed_addr #1

declare zeroext i1 @_ZNK2v85Value9IsBooleanEv(%"class.v8::Value"*) local_unnamed_addr #1

declare zeroext i1 @_ZNK2v87Boolean5ValueEv(%"class.v8::Boolean"*) local_unnamed_addr #1

declare zeroext i1 @_ZNK2v85Value12BooleanValueEPNS_7IsolateE(%"class.v8::Value"*, %"class.v8::Isolate"*) local_unnamed_addr #1

declare void @_ZNK3WTF10StringImpl18DestroyIfNotStaticEv(%"class.WTF::StringImpl"*) local_unnamed_addr #1

; Function Attrs: nounwind readnone speculatable
declare { i33, i1 } @llvm.sadd.with.overflow.i33(i33, i33) #5

; Function Attrs: cold noreturn nounwind
declare void @llvm.trap() #6

declare void @_ZN3WTF10Partitions10BufferFreeEPv(i8*) local_unnamed_addr #1

declare i16 @_ZN2v86Object18CreateDataPropertyENS_5LocalINS_7ContextEEENS1_INS_4NameEEENS1_INS_5ValueEEE(%"class.v8::Object"*, %"class.v8::Context"*, %"class.v8::Name"*, %"class.v8::Value"*) local_unnamed_addr #1

declare %"class.v8::String"* @_ZN2v86String14NewFromOneByteEPNS_7IsolateEPKhNS_13NewStringTypeEi(%"class.v8::Isolate"*, i8*, i32, i32) local_unnamed_addr #1

declare %"class.v8::String"* @_ZN2v86String14NewFromTwoByteEPNS_7IsolateEPKtNS_13NewStringTypeEi(%"class.v8::Isolate"*, i16*, i32, i32) local_unnamed_addr #1

declare %"class.v8::String"* @_ZN5blink11StringCache20V8ExternalStringSlowEPN2v87IsolateEPN3WTF10StringImplE(%"class.blink::StringCache"*, %"class.v8::Isolate"*, %"class.WTF::StringImpl"*) local_unnamed_addr #1

declare i64* @_ZN2v811HandleScope12CreateHandleEPNS_8internal7IsolateEm(%"class.v8::internal::Isolate"*, i64) local_unnamed_addr #1

declare void @_ZN2v82V812ToLocalEmptyEv() local_unnamed_addr #1

declare void @_ZN5blink13SocketOptionsC1Ev(%"class.blink::SocketOptions"*) unnamed_addr #1

; Function Attrs: nounwind ssp uwtable
define linkonce_odr hidden i8* @_ZN5blink10ThreadHeap8AllocateINS_17IDLDictionaryBaseEEEPhm(i64) local_unnamed_addr #0 comdat align 2 {
  %2 = alloca %"class.logging::CheckOpResult", align 8
  %3 = alloca %"class.logging::CheckOpResult", align 8
  %4 = alloca %"class.logging::CheckError", align 8
  %5 = load %"class.WTF::ThreadSpecific"*, %"class.WTF::ThreadSpecific"** @_ZN5blink11ThreadState16thread_specific_E, align 8
  %6 = getelementptr inbounds %"class.WTF::ThreadSpecific", %"class.WTF::ThreadSpecific"* %5, i64 0, i32 1
  %7 = tail call i8* @_ZNK4base18ThreadLocalStorage4Slot3GetEv(%"class.base::ThreadLocalStorage::Slot"* %6) #7
  %8 = icmp eq i8* %7, null
  br i1 %8, label %9, label %11, !prof !3

9:                                                ; preds = %1
  %10 = tail call i8* @_ZN3WTF10Partitions16FastZeroedMallocEmPKc(i64 8, i8* getelementptr inbounds ([68 x i8], [68 x i8]* @__PRETTY_FUNCTION__._ZN3WTF21GetStringWithTypeNameIPN5blink11ThreadStateEEEPKcv, i64 0, i64 0)) #7
  tail call void @_ZN4base18ThreadLocalStorage4Slot3SetEPv(%"class.base::ThreadLocalStorage::Slot"* %6, i8* %10) #7
  br label %11

11:                                               ; preds = %1, %9
  %12 = phi i8* [ %10, %9 ], [ %7, %1 ]
  %13 = bitcast i8* %12 to %"class.blink::ThreadState"**
  %14 = load %"class.blink::ThreadState"*, %"class.blink::ThreadState"** %13, align 8
  %15 = getelementptr inbounds %"class.blink::ThreadState", %"class.blink::ThreadState"* %14, i64 0, i32 0, i32 0, i32 0, i32 0
  %16 = load %"class.blink::ThreadHeap"*, %"class.blink::ThreadHeap"** %15, align 8
  %17 = icmp ult i64 %0, 64
  %18 = icmp ugt i64 %0, 31
  %19 = zext i1 %18 to i64
  %20 = icmp ult i64 %0, 128
  %21 = select i1 %20, i64 2, i64 3
  %22 = select i1 %17, i64 %19, i64 %21
  %23 = load atomic i32, i32* getelementptr inbounds ({ { i32 } }, { { i32 } }* @_ZZN5blink11GCInfoTraitINS_17IDLDictionaryBaseEE5IndexEvE13gc_info_index, i64 0, i32 0, i32 0) acquire, align 4
  %24 = icmp eq i32 %23, 0
  br i1 %24, label %25, label %28

25:                                               ; preds = %11
  %26 = load %"class.blink::GCInfoTable"*, %"class.blink::GCInfoTable"** @_ZN5blink11GCInfoTable13global_table_E, align 8
  %27 = tail call i32 @_ZN5blink11GCInfoTable17EnsureGCInfoIndexEPKNS_6GCInfoEPNSt3__16atomicIjEE(%"class.blink::GCInfoTable"* %26, %"struct.blink::GCInfo"* nonnull @_ZZN5blink11GCInfoTraitINS_17IDLDictionaryBaseEE5IndexEvE7kGcInfo, %"struct.std::__1::atomic"* bitcast ({ { i32 } }* @_ZZN5blink11GCInfoTraitINS_17IDLDictionaryBaseEE5IndexEvE13gc_info_index to %"struct.std::__1::atomic"*)) #7
  br label %28

28:                                               ; preds = %11, %25
  %29 = phi i32 [ %23, %11 ], [ %27, %25 ]
  %30 = getelementptr inbounds %"class.blink::ThreadHeap", %"class.blink::ThreadHeap"* %16, i64 0, i32 19, i64 %22
  %31 = bitcast %"class.blink::BaseArena"** %30 to %"class.blink::NormalPageArena"**
  %32 = load %"class.blink::NormalPageArena"*, %"class.blink::NormalPageArena"** %31, align 8
  %33 = bitcast %"class.logging::CheckOpResult"* %3 to i8*
  call void @llvm.lifetime.start.p0i8(i64 8, i8* nonnull %33) #7
  %34 = getelementptr inbounds %"class.logging::CheckOpResult", %"class.logging::CheckOpResult"* %3, i64 0, i32 0
  store i8* inttoptr (i64 -6148914691236517206 to i8*), i8** %34, align 8
  %35 = bitcast %"class.logging::CheckOpResult"* %2 to i8*
  call void @llvm.lifetime.start.p0i8(i64 8, i8* nonnull %35) #7
  %36 = icmp ult i64 %0, -8
  br i1 %36, label %37, label %38

37:                                               ; preds = %28
  call void @llvm.lifetime.end.p0i8(i64 8, i8* nonnull %35) #7
  store i8* null, i8** %34, align 8
  br label %48

38:                                               ; preds = %28
  %39 = add nsw i64 %0, 8
  %40 = tail call i8* @_ZN7logging15CheckOpValueStrEm(i64 %39) #7
  %41 = tail call i8* @_ZN7logging15CheckOpValueStrEm(i64 %0) #7
  call void @_ZN7logging13CheckOpResultC1EPKcPcS3_(%"class.logging::CheckOpResult"* nonnull %2, i8* getelementptr inbounds ([23 x i8], [23 x i8]* @.str.9, i64 0, i64 0), i8* %40, i8* %41) #7
  %42 = getelementptr inbounds %"class.logging::CheckOpResult", %"class.logging::CheckOpResult"* %2, i64 0, i32 0
  %43 = load i8*, i8** %42, align 8
  call void @llvm.lifetime.end.p0i8(i64 8, i8* nonnull %35) #7
  store i8* %43, i8** %34, align 8
  %44 = icmp eq i8* %43, null
  br i1 %44, label %48, label %45

45:                                               ; preds = %38
  %46 = bitcast %"class.logging::CheckError"* %4 to i8*
  call void @llvm.lifetime.start.p0i8(i64 8, i8* nonnull %46) #7
  call void @_ZN7logging10CheckError7CheckOpEPKciPNS_13CheckOpResultE(%"class.logging::CheckError"* nonnull sret %4, i8* getelementptr inbounds ([59 x i8], [59 x i8]* @.str.10, i64 0, i64 0), i32 246, %"class.logging::CheckOpResult"* nonnull %3) #7
  %47 = call dereferenceable(160) %"class.std::__1::basic_ostream"* @_ZN7logging10CheckError6streamEv(%"class.logging::CheckError"* nonnull %4) #7
  call void @_ZN7logging10CheckErrorD1Ev(%"class.logging::CheckError"* nonnull %4) #7
  call void @llvm.lifetime.end.p0i8(i64 8, i8* nonnull %46) #7
  br label %48

48:                                               ; preds = %37, %38, %45
  call void @llvm.lifetime.end.p0i8(i64 8, i8* nonnull %33) #7
  %49 = add i64 %0, 15
  %50 = and i64 %49, -8
  %51 = getelementptr inbounds %"class.blink::NormalPageArena", %"class.blink::NormalPageArena"* %32, i64 0, i32 4
  %52 = load i64, i64* %51, align 8
  %53 = icmp ult i64 %52, %50
  br i1 %53, label %86, label %54, !prof !3

54:                                               ; preds = %48
  %55 = getelementptr inbounds %"class.blink::NormalPageArena", %"class.blink::NormalPageArena"* %32, i64 0, i32 3
  %56 = load i8*, i8** %55, align 8
  %57 = getelementptr inbounds i8, i8* %56, i64 %50
  store i8* %57, i8** %55, align 8
  %58 = sub i64 %52, %50
  store i64 %58, i64* %51, align 8
  %59 = bitcast i8* %56 to i32*
  store i32 0, i32* %59, align 4
  %60 = getelementptr inbounds i8, i8* %56, i64 4
  %61 = bitcast i8* %60 to i16*
  %62 = trunc i32 %29 to i16
  %63 = shl i16 %62, 2
  store atomic i16 %63, i16* %61 monotonic, align 2
  %64 = lshr exact i64 %50, 1
  %65 = trunc i64 %64 to i16
  %66 = getelementptr inbounds i8, i8* %56, i64 6
  %67 = bitcast i8* %66 to i16*
  store i16 %65, i16* %67, align 2
  %68 = ptrtoint i8* %56 to i64
  %69 = and i64 %68, -131072
  %70 = inttoptr i64 %69 to i8*
  %71 = getelementptr inbounds i8, i8* %70, i64 4400
  %72 = bitcast i8* %71 to %"class.blink::PlatformAwareObjectStartBitmap"*
  %73 = bitcast i8* %71 to i64*
  %74 = load i64, i64* %73, align 16
  %75 = sub i64 %68, %74
  %76 = lshr i64 %75, 3
  %77 = lshr i64 %75, 6
  %78 = getelementptr inbounds %"class.blink::PlatformAwareObjectStartBitmap", %"class.blink::PlatformAwareObjectStartBitmap"* %72, i64 0, i32 0, i32 1, i64 %77
  %79 = load i8, i8* %78, align 1
  %80 = trunc i64 %76 to i32
  %81 = and i32 %80, 7
  %82 = shl i32 1, %81
  %83 = trunc i32 %82 to i8
  %84 = or i8 %79, %83
  store atomic i8 %84, i8* %78 release, align 1
  %85 = getelementptr inbounds i8, i8* %56, i64 8
  br label %89

86:                                               ; preds = %48
  %87 = zext i32 %29 to i64
  %88 = call i8* @_ZN5blink15NormalPageArena17OutOfLineAllocateEmm(%"class.blink::NormalPageArena"* %32, i64 %50, i64 %87) #7
  br label %89

89:                                               ; preds = %54, %86
  %90 = phi i8* [ %85, %54 ], [ %88, %86 ]
  ret i8* %90
}

declare i8* @_ZN3WTF10Partitions16FastZeroedMallocEmPKc(i64, i8*) local_unnamed_addr #1

declare i8* @_ZNK4base18ThreadLocalStorage4Slot3GetEv(%"class.base::ThreadLocalStorage::Slot"*) local_unnamed_addr #1

declare void @_ZN4base18ThreadLocalStorage4Slot3SetEPv(%"class.base::ThreadLocalStorage::Slot"*, i8*) local_unnamed_addr #1

declare i8* @_ZN5blink15NormalPageArena17OutOfLineAllocateEmm(%"class.blink::NormalPageArena"*, i64, i64) local_unnamed_addr #1

declare void @_ZN7logging10CheckError7CheckOpEPKciPNS_13CheckOpResultE(%"class.logging::CheckError"* sret, i8*, i32, %"class.logging::CheckOpResult"*) local_unnamed_addr #1

declare dereferenceable(160) %"class.std::__1::basic_ostream"* @_ZN7logging10CheckError6streamEv(%"class.logging::CheckError"*) local_unnamed_addr #1

; Function Attrs: nounwind
declare void @_ZN7logging10CheckErrorD1Ev(%"class.logging::CheckError"*) unnamed_addr #3

declare i8* @_ZN7logging15CheckOpValueStrEm(i64) local_unnamed_addr #1

declare void @_ZN7logging13CheckOpResultC1EPKcPcS3_(%"class.logging::CheckOpResult"*, i8*, i8*, i8*) unnamed_addr #1

; Function Attrs: nounwind ssp uwtable
define linkonce_odr hidden void @_ZN5blink10TraceTraitINS_17IDLDictionaryBaseEE5TraceEPNS_7VisitorEPKv(%"class.blink::Visitor"*, i8*) #0 comdat align 2 {
  %3 = bitcast i8* %1 to %"class.blink::IDLDictionaryBase"*
  %4 = bitcast i8* %1 to void (%"class.blink::IDLDictionaryBase"*, %"class.blink::Visitor"*)***
  %5 = load void (%"class.blink::IDLDictionaryBase"*, %"class.blink::Visitor"*)**, void (%"class.blink::IDLDictionaryBase"*, %"class.blink::Visitor"*)*** %4, align 8
  %6 = getelementptr inbounds void (%"class.blink::IDLDictionaryBase"*, %"class.blink::Visitor"*)*, void (%"class.blink::IDLDictionaryBase"*, %"class.blink::Visitor"*)** %5, i64 3
  %7 = load void (%"class.blink::IDLDictionaryBase"*, %"class.blink::Visitor"*)*, void (%"class.blink::IDLDictionaryBase"*, %"class.blink::Visitor"*)** %6, align 8
  tail call void %7(%"class.blink::IDLDictionaryBase"* %3, %"class.blink::Visitor"* %0) #7
  ret void
}

; Function Attrs: nounwind ssp uwtable
define linkonce_odr hidden void @_ZN5blink8internal14FinalizerTraitINS_17IDLDictionaryBaseEE8FinalizeEPv(i8*) #0 comdat align 2 {
  %2 = bitcast i8* %0 to %"class.blink::IDLDictionaryBase"*
  %3 = bitcast i8* %0 to void (%"class.blink::IDLDictionaryBase"*)***
  %4 = load void (%"class.blink::IDLDictionaryBase"*)**, void (%"class.blink::IDLDictionaryBase"*)*** %3, align 8
  %5 = load void (%"class.blink::IDLDictionaryBase"*)*, void (%"class.blink::IDLDictionaryBase"*)** %4, align 8
  tail call void %5(%"class.blink::IDLDictionaryBase"* %2) #7
  ret void
}

; Function Attrs: nounwind ssp uwtable
define linkonce_odr hidden { i8*, i8 } @_ZN5blink9NameTraitINS_17IDLDictionaryBaseEE7GetNameEPKv(i8*) #0 comdat align 2 {
  ret { i8*, i8 } { i8* getelementptr inbounds ([13 x i8], [13 x i8]* @.str.11, i64 0, i64 0), i8 1 }
}

declare i32 @_ZN5blink11GCInfoTable17EnsureGCInfoIndexEPKNS_6GCInfoEPNSt3__16atomicIjEE(%"class.blink::GCInfoTable"*, %"struct.blink::GCInfo"*, %"struct.std::__1::atomic"*) local_unnamed_addr #1

; Function Attrs: nounwind ssp uwtable
define linkonce_odr hidden zeroext i1 @_ZN5blink16V8StringResourceILNS_20V8StringResourceModeE0EE11PrepareFastEv(%"class.blink::V8StringResource"*) local_unnamed_addr #0 comdat align 2 {
  %2 = getelementptr inbounds %"class.blink::V8StringResource", %"class.blink::V8StringResource"* %0, i64 0, i32 0, i32 0
  %3 = load %"class.v8::Value"*, %"class.v8::Value"** %2, align 8
  %4 = icmp eq %"class.v8::Value"* %3, null
  br i1 %4, label %82, label %5

5:                                                ; preds = %1
  %6 = bitcast %"class.v8::Value"* %3 to i64*
  %7 = load i64, i64* %6, align 8
  %8 = and i64 %7, 3
  %9 = icmp eq i64 %8, 1
  br i1 %9, label %10, label %21, !prof !5

10:                                               ; preds = %5
  %11 = add i64 %7, -1
  %12 = inttoptr i64 %11 to i32*
  %13 = load i32, i32* %12, align 4
  %14 = and i64 %7, -4294967296
  %15 = zext i32 %13 to i64
  %16 = or i64 %14, %15
  %17 = add i64 %16, 7
  %18 = inttoptr i64 %17 to i16*
  %19 = load i16, i16* %18, align 2
  %20 = icmp ult i16 %19, 64
  br i1 %20, label %82, label %21, !prof !2

21:                                               ; preds = %5, %10
  %22 = tail call zeroext i1 @_ZNK2v85Value7IsInt32Ev(%"class.v8::Value"* nonnull %3) #7
  br i1 %22, label %23, label %80, !prof !2

23:                                               ; preds = %21
  %24 = bitcast %"class.blink::V8StringResource"* %0 to %"class.v8::Int32"**
  %25 = load %"class.v8::Int32"*, %"class.v8::Int32"** %24, align 8
  %26 = tail call i32 @_ZNK2v85Int325ValueEv(%"class.v8::Int32"* %25) #7
  %27 = tail call %"class.WTF::StringImpl"* @_ZN5blink13ToBlinkStringEi(i32 %26) #7
  %28 = getelementptr inbounds %"class.blink::V8StringResource", %"class.blink::V8StringResource"* %0, i64 0, i32 2
  %29 = icmp eq %"class.WTF::StringImpl"* %27, null
  br i1 %29, label %47, label %30

30:                                               ; preds = %23
  %31 = getelementptr inbounds %"class.WTF::StringImpl", %"class.WTF::StringImpl"* %27, i64 0, i32 2, i32 0, i32 0, i32 0, i32 0, i32 0
  %32 = load atomic i32, i32* %31 monotonic, align 4
  %33 = and i32 %32, 2
  %34 = icmp eq i32 %33, 0
  br i1 %34, label %35, label %47

35:                                               ; preds = %30
  %36 = getelementptr inbounds %"class.WTF::StringImpl", %"class.WTF::StringImpl"* %27, i64 0, i32 0
  %37 = load i32, i32* %36, align 4
  %38 = zext i32 %37 to i33
  %39 = tail call { i33, i1 } @llvm.sadd.with.overflow.i33(i33 %38, i33 1) #7
  %40 = extractvalue { i33, i1 } %39, 1
  %41 = extractvalue { i33, i1 } %39, 0
  %42 = icmp slt i33 %41, 0
  %43 = or i1 %40, %42
  br i1 %43, label %44, label %45, !prof !3

44:                                               ; preds = %35
  tail call void @llvm.trap() #7
  unreachable

45:                                               ; preds = %35
  %46 = trunc i33 %41 to i32
  store i32 %46, i32* %36, align 4
  br label %47

47:                                               ; preds = %45, %30, %23
  %48 = ptrtoint %"class.WTF::StringImpl"* %27 to i64
  %49 = bitcast %"class.WTF::String"* %28 to i64*
  %50 = getelementptr inbounds %"class.WTF::String", %"class.WTF::String"* %28, i64 0, i32 0, i32 0
  %51 = load %"class.WTF::StringImpl"*, %"class.WTF::StringImpl"** %50, align 8
  store i64 %48, i64* %49, align 8
  %52 = icmp eq %"class.WTF::StringImpl"* %51, null
  br i1 %52, label %66, label %53

53:                                               ; preds = %47
  %54 = getelementptr inbounds %"class.WTF::StringImpl", %"class.WTF::StringImpl"* %51, i64 0, i32 2, i32 0, i32 0, i32 0, i32 0, i32 0
  %55 = load atomic i32, i32* %54 monotonic, align 4
  %56 = and i32 %55, 2
  %57 = icmp eq i32 %56, 0
  %58 = getelementptr inbounds %"class.WTF::StringImpl", %"class.WTF::StringImpl"* %51, i64 0, i32 0
  %59 = load i32, i32* %58, align 4
  br i1 %57, label %60, label %62

60:                                               ; preds = %53
  %61 = add i32 %59, -1
  store i32 %61, i32* %58, align 4
  br label %62

62:                                               ; preds = %60, %53
  %63 = phi i32 [ %61, %60 ], [ %59, %53 ]
  %64 = icmp eq i32 %63, 0
  br i1 %64, label %65, label %66

65:                                               ; preds = %62
  tail call void @_ZNK3WTF10StringImpl18DestroyIfNotStaticEv(%"class.WTF::StringImpl"* nonnull %51) #7
  br label %66

66:                                               ; preds = %47, %62, %65
  store %"class.v8::Value"* null, %"class.v8::Value"** %2, align 8
  br i1 %29, label %82, label %67

67:                                               ; preds = %66
  %68 = getelementptr inbounds %"class.WTF::StringImpl", %"class.WTF::StringImpl"* %27, i64 0, i32 2, i32 0, i32 0, i32 0, i32 0, i32 0
  %69 = load atomic i32, i32* %68 monotonic, align 4
  %70 = and i32 %69, 2
  %71 = icmp eq i32 %70, 0
  %72 = getelementptr inbounds %"class.WTF::StringImpl", %"class.WTF::StringImpl"* %27, i64 0, i32 0
  %73 = load i32, i32* %72, align 4
  br i1 %71, label %74, label %76

74:                                               ; preds = %67
  %75 = add i32 %73, -1
  store i32 %75, i32* %72, align 4
  br label %76

76:                                               ; preds = %74, %67
  %77 = phi i32 [ %75, %74 ], [ %73, %67 ]
  %78 = icmp eq i32 %77, 0
  br i1 %78, label %79, label %82

79:                                               ; preds = %76
  tail call void @_ZNK3WTF10StringImpl18DestroyIfNotStaticEv(%"class.WTF::StringImpl"* nonnull %27) #7
  br label %82

80:                                               ; preds = %21
  %81 = getelementptr inbounds %"class.blink::V8StringResource", %"class.blink::V8StringResource"* %0, i64 0, i32 1
  store i32 1, i32* %81, align 8
  br label %82

82:                                               ; preds = %79, %76, %66, %10, %1, %80
  %83 = phi i1 [ false, %80 ], [ true, %1 ], [ true, %10 ], [ true, %66 ], [ true, %76 ], [ true, %79 ]
  ret i1 %83
}

declare %"class.v8::Isolate"* @_ZN2v87Isolate10GetCurrentEv() local_unnamed_addr #1

declare zeroext i1 @_ZNK2v85Value7IsInt32Ev(%"class.v8::Value"*) local_unnamed_addr #1

declare %"class.WTF::StringImpl"* @_ZN5blink13ToBlinkStringEi(i32) local_unnamed_addr #1

declare i32 @_ZNK2v85Int325ValueEv(%"class.v8::Int32"*) local_unnamed_addr #1

declare %"class.v8::String"* @_ZNK2v85Value8ToStringENS_5LocalINS_7ContextEEE(%"class.v8::Value"*, %"class.v8::Context"*) local_unnamed_addr #1

declare %"class.WTF::StringImpl"* @_ZN5blink13ToBlinkStringIN3WTF6StringEEET_N2v85LocalINS4_6StringEEENS_12ExternalModeE(%"class.v8::String"*, i32) local_unnamed_addr #1

declare zeroext i16 @_ZN5blink8ToUInt16EPN2v87IsolateENS0_5LocalINS0_5ValueEEENS_30IntegerConversionConfigurationERNS_14ExceptionStateE(%"class.v8::Isolate"*, %"class.v8::Value"*, i32, %"class.blink::ExceptionState"* dereferenceable(72)) local_unnamed_addr #1

declare zeroext i1 @_ZNK2v85Value8IsUint32Ev(%"class.v8::Value"*) local_unnamed_addr #1

declare i32 @_ZNK2v86Uint325ValueEv(%"class.v8::Uint32"*) local_unnamed_addr #1

declare i32 @_ZN5blink12ToUInt32SlowEPN2v87IsolateENS0_5LocalINS0_5ValueEEENS_30IntegerConversionConfigurationERNS_14ExceptionStateE(%"class.v8::Isolate"*, %"class.v8::Value"*, i32, %"class.blink::ExceptionState"* dereferenceable(72)) local_unnamed_addr #1

attributes #0 = { nounwind ssp uwtable "correctly-rounded-divide-sqrt-fp-math"="false" "disable-tail-calls"="false" "less-precise-fpmad"="false" "min-legal-vector-width"="0" "no-frame-pointer-elim"="false" "no-frame-pointer-elim-non-leaf" "no-infs-fp-math"="false" "no-jump-tables"="false" "no-nans-fp-math"="false" "no-signed-zeros-fp-math"="false" "no-trapping-math"="false" "null-pointer-is-valid"="true" "stack-protector-buffer-size"="4" "target-cpu"="x86-64" "target-features"="+cx8,+fxsr,+mmx,+sse,+sse2,+sse3,+x87" "unsafe-fp-math"="false" "use-soft-float"="false" }
attributes #1 = { "correctly-rounded-divide-sqrt-fp-math"="false" "disable-tail-calls"="false" "less-precise-fpmad"="false" "no-frame-pointer-elim"="false" "no-frame-pointer-elim-non-leaf" "no-infs-fp-math"="false" "no-nans-fp-math"="false" "no-signed-zeros-fp-math"="false" "no-trapping-math"="false" "null-pointer-is-valid"="true" "stack-protector-buffer-size"="4" "target-cpu"="x86-64" "target-features"="+cx8,+fxsr,+mmx,+sse,+sse2,+sse3,+x87" "unsafe-fp-math"="false" "use-soft-float"="false" }
attributes #2 = { argmemonly nounwind }
attributes #3 = { nounwind "correctly-rounded-divide-sqrt-fp-math"="false" "disable-tail-calls"="false" "less-precise-fpmad"="false" "no-frame-pointer-elim"="false" "no-frame-pointer-elim-non-leaf" "no-infs-fp-math"="false" "no-nans-fp-math"="false" "no-signed-zeros-fp-math"="false" "no-trapping-math"="false" "null-pointer-is-valid"="true" "stack-protector-buffer-size"="4" "target-cpu"="x86-64" "target-features"="+cx8,+fxsr,+mmx,+sse,+sse2,+sse3,+x87" "unsafe-fp-math"="false" "use-soft-float"="false" }
attributes #4 = { inlinehint nounwind ssp uwtable "correctly-rounded-divide-sqrt-fp-math"="false" "disable-tail-calls"="false" "less-precise-fpmad"="false" "min-legal-vector-width"="0" "no-frame-pointer-elim"="false" "no-frame-pointer-elim-non-leaf" "no-infs-fp-math"="false" "no-jump-tables"="false" "no-nans-fp-math"="false" "no-signed-zeros-fp-math"="false" "no-trapping-math"="false" "null-pointer-is-valid"="true" "stack-protector-buffer-size"="4" "target-cpu"="x86-64" "target-features"="+cx8,+fxsr,+mmx,+sse,+sse2,+sse3,+x87" "unsafe-fp-math"="false" "use-soft-float"="false" }
attributes #5 = { nounwind readnone speculatable }
attributes #6 = { cold noreturn nounwind }
attributes #7 = { nounwind }

!llvm.module.flags = !{!0, !1}

!0 = !{i32 1, !"wchar_size", i32 4}
!1 = !{i32 7, !"PIC Level", i32 2}
!2 = !{!"branch_weights", i32 2000, i32 1}
!3 = !{!"branch_weights", i32 1, i32 2000}
!4 = !{i8 0, i8 2}
!5 = !{!"branch_weights", i32 2146410443, i32 1073205}
