; ModuleID = 'gen/third_party/blink/renderer/bindings/core/v8/v8_svg_image_element.cc'
source_filename = "gen/third_party/blink/renderer/bindings/core/v8/v8_svg_image_element.cc"
target datalayout = "e-m:e-i64:64-f80:128-n8:16:32:64-S128"
target triple = "x86_64-unknown-linux-gnu"

module asm ".symver exp, exp@GLIBC_2.2.5"
module asm ".symver exp2, exp2@GLIBC_2.2.5"
module asm ".symver exp2f, exp2f@GLIBC_2.2.5"
module asm ".symver expf, expf@GLIBC_2.2.5"
module asm ".symver lgamma, lgamma@GLIBC_2.2.5"
module asm ".symver lgammaf, lgammaf@GLIBC_2.2.5"
module asm ".symver lgammal, lgammal@GLIBC_2.2.5"
module asm ".symver log, log@GLIBC_2.2.5"
module asm ".symver log2, log2@GLIBC_2.2.5"
module asm ".symver log2f, log2f@GLIBC_2.2.5"
module asm ".symver logf, logf@GLIBC_2.2.5"
module asm ".symver pow, pow@GLIBC_2.2.5"
module asm ".symver powf, powf@GLIBC_2.2.5"

%"struct.blink::WrapperTypeInfo" = type { i16, void (%"class.v8::Isolate"*, %"class.blink::DOMWrapperWorld"*, %"class.v8::Template"*)*, void (%"class.v8::Context"*, %"class.blink::DOMWrapperWorld"*, %"class.v8::Object"*, %"class.v8::Object"*, %"class.v8::Object"*, %"class.v8::Template"*, i64)*, i8*, %"struct.blink::WrapperTypeInfo"*, i8 }
%"class.v8::Isolate" = type { i8 }
%"class.blink::DOMWrapperWorld" = type { %"class.WTF::RefCounted", i32, i32, %"class.blink::Persistent" }
%"class.WTF::RefCounted" = type { %"class.base::RefCounted" }
%"class.base::RefCounted" = type { %"class.base::subtle::RefCountedBase" }
%"class.base::subtle::RefCountedBase" = type { i32 }
%"class.blink::Persistent" = type { %"class.blink::PersistentBase" }
%"class.blink::PersistentBase" = type { %"class.blink::DOMDataStore"*, %"class.blink::PersistentNodePtr" }
%"class.blink::DOMDataStore" = type { i32 (...)**, i8, [7 x i8], %"class.blink::HeapHashMap" }
%"class.blink::HeapHashMap" = type { %"class.WTF::HashMap" }
%"class.WTF::HashMap" = type { %"class.WTF::HashTable" }
%"class.WTF::HashTable" = type <{ %"struct.WTF::KeyValuePair"*, i32, i32, i32, [4 x i8] }>
%"struct.WTF::KeyValuePair" = type { %"class.blink::WeakMember", %"class.blink::TraceWrapperV8Reference" }
%"class.blink::WeakMember" = type { %"class.blink::MemberBase" }
%"class.blink::MemberBase" = type { %"class.blink::ScriptWrappable"* }
%"class.blink::ScriptWrappable" = type { %"class.blink::NameClient", %"class.blink::TraceWrapperV8Reference" }
%"class.blink::NameClient" = type { i32 (...)** }
%"class.blink::TraceWrapperV8Reference" = type { %"class.v8::TracedReference" }
%"class.v8::TracedReference" = type { %"class.v8::BasicTracedReference" }
%"class.v8::BasicTracedReference" = type { %"class.v8::TracedReferenceBase" }
%"class.v8::TracedReferenceBase" = type { i64* }
%"class.blink::PersistentNodePtr" = type { %"class.blink::PersistentNode"* }
%"class.blink::PersistentNode" = type { i8*, void (%"class.blink::Visitor"*, i8*)* }
%"class.blink::Visitor" = type { i32 (...)**, %"class.blink::ThreadState"* }
%"class.blink::ThreadState" = type <{ %"class.std::__1::unique_ptr", i32, [4 x i8], %"class.std::__1::unique_ptr.127", %"class.std::__1::unique_ptr.127", i8**, i8, i8, i8, i8, i8, i8, [2 x i8], i64, i64, i32, i32, i32, [4 x i8], %"class.WTF::Deque", %"class.v8::Isolate"*, void (%"class.v8::Isolate"*, %"class.v8::EmbedderGraph"*, i8*)*, %"class.std::__1::unique_ptr.137", %"class.std::__1::unique_ptr.143", %"struct.blink::ThreadState::GCData", %"class.std::__1::unique_ptr.155", %"class.std::__1::unique_ptr.161", %"class.base::JobHandle", %"class.base::JobHandle", %"struct.std::__1::atomic.167", [7 x i8], i64, i8, [7 x i8], i64, %"class.base::TimeTicks", i8, i8, [6 x i8] }>
%"class.std::__1::unique_ptr" = type { %"class.std::__1::__compressed_pair" }
%"class.std::__1::__compressed_pair" = type { %"struct.std::__1::__compressed_pair_elem" }
%"struct.std::__1::__compressed_pair_elem" = type { %"class.blink::ThreadHeap"* }
%"class.blink::ThreadHeap" = type { %"class.blink::ThreadState"*, %"class.std::__1::unique_ptr.4", %"class.std::__1::unique_ptr.8", %"class.std::__1::unique_ptr.14", %"class.std::__1::unique_ptr.20", %"class.std::__1::unique_ptr.26", %"class.std::__1::unique_ptr.32", %"class.std::__1::unique_ptr.39", %"class.std::__1::unique_ptr.46", %"class.std::__1::unique_ptr.46", %"class.std::__1::unique_ptr.53", %"class.std::__1::unique_ptr.60", %"class.std::__1::unique_ptr.67", %"class.std::__1::unique_ptr.67", %"class.std::__1::unique_ptr.74", %"class.std::__1::unique_ptr.81", %"class.std::__1::unique_ptr.88", %"class.std::__1::unique_ptr.111", %"struct.blink::ThreadHeap::LastAllocatedRegion", [9 x %"class.blink::BaseArena"*], i64, i64 }
%"class.std::__1::unique_ptr.4" = type { %"class.std::__1::__compressed_pair.5" }
%"class.std::__1::__compressed_pair.5" = type { %"struct.std::__1::__compressed_pair_elem.6" }
%"struct.std::__1::__compressed_pair_elem.6" = type { %"class.blink::ThreadHeapStatsCollector"* }
%"class.blink::ThreadHeapStatsCollector" = type opaque
%"class.std::__1::unique_ptr.8" = type { %"class.std::__1::__compressed_pair.9" }
%"class.std::__1::__compressed_pair.9" = type { %"struct.std::__1::__compressed_pair_elem.10" }
%"struct.std::__1::__compressed_pair_elem.10" = type { %"class.blink::RegionTree"* }
%"class.blink::RegionTree" = type opaque
%"class.std::__1::unique_ptr.14" = type { %"class.std::__1::__compressed_pair.15" }
%"class.std::__1::__compressed_pair.15" = type { %"struct.std::__1::__compressed_pair_elem.16" }
%"struct.std::__1::__compressed_pair_elem.16" = type { %"class.blink::PageBloomFilter"* }
%"class.blink::PageBloomFilter" = type opaque
%"class.std::__1::unique_ptr.20" = type { %"class.std::__1::__compressed_pair.21" }
%"class.std::__1::__compressed_pair.21" = type { %"struct.std::__1::__compressed_pair_elem.22" }
%"struct.std::__1::__compressed_pair_elem.22" = type { %"class.blink::PagePool"* }
%"class.blink::PagePool" = type opaque
%"class.std::__1::unique_ptr.26" = type { %"class.std::__1::__compressed_pair.27" }
%"class.std::__1::__compressed_pair.27" = type { %"struct.std::__1::__compressed_pair_elem.28" }
%"struct.std::__1::__compressed_pair_elem.28" = type { %"class.blink::ProcessHeapReporter"* }
%"class.blink::ProcessHeapReporter" = type opaque
%"class.std::__1::unique_ptr.32" = type { %"class.std::__1::__compressed_pair.33" }
%"class.std::__1::__compressed_pair.33" = type { %"struct.std::__1::__compressed_pair_elem.34" }
%"struct.std::__1::__compressed_pair_elem.34" = type { %"class.blink::Worklist"* }
%"class.blink::Worklist" = type { [4 x %"struct.blink::Worklist<blink::TraceDescriptor, 512, 4>::PrivateSegmentHolder"], %"class.blink::Worklist<blink::TraceDescriptor, 512, 4>::GlobalPool" }
%"struct.blink::Worklist<blink::TraceDescriptor, 512, 4>::PrivateSegmentHolder" = type { %"class.blink::Worklist<blink::TraceDescriptor, 512, 4>::Segment"*, %"class.blink::Worklist<blink::TraceDescriptor, 512, 4>::Segment"*, [64 x i8] }
%"class.blink::Worklist<blink::TraceDescriptor, 512, 4>::Segment" = type { %"class.blink::Worklist<blink::TraceDescriptor, 512, 4>::Segment"*, i64, [512 x %"struct.blink::TraceDescriptor"] }
%"struct.blink::TraceDescriptor" = type { i8*, void (%"class.blink::Visitor"*, i8*)* }
%"class.blink::Worklist<blink::TraceDescriptor, 512, 4>::GlobalPool" = type { %"class.base::Lock", %"class.blink::Worklist<blink::TraceDescriptor, 512, 4>::Segment"*, %"struct.std::__1::atomic" }
%"class.base::Lock" = type { %"class.base::internal::LockImpl" }
%"class.base::internal::LockImpl" = type { %union.pthread_mutex_t }
%union.pthread_mutex_t = type { %struct.__pthread_mutex_s }
%struct.__pthread_mutex_s = type { i32, i32, i32, i32, i32, i16, i16, %struct.__pthread_internal_list }
%struct.__pthread_internal_list = type { %struct.__pthread_internal_list*, %struct.__pthread_internal_list* }
%"struct.std::__1::atomic" = type { %"struct.std::__1::__atomic_base" }
%"struct.std::__1::__atomic_base" = type { %"struct.std::__1::__atomic_base.35" }
%"struct.std::__1::__atomic_base.35" = type { %"struct.std::__1::__cxx_atomic_impl" }
%"struct.std::__1::__cxx_atomic_impl" = type { %"struct.std::__1::__cxx_atomic_base_impl" }
%"struct.std::__1::__cxx_atomic_base_impl" = type { i64 }
%"class.std::__1::unique_ptr.39" = type { %"class.std::__1::__compressed_pair.40" }
%"class.std::__1::__compressed_pair.40" = type { %"struct.std::__1::__compressed_pair_elem.41" }
%"struct.std::__1::__compressed_pair_elem.41" = type { %"class.blink::Worklist.42"* }
%"class.blink::Worklist.42" = type { [4 x %"struct.blink::Worklist<blink::HeapObjectHeader *, 64, 4>::PrivateSegmentHolder"], %"class.blink::Worklist<blink::HeapObjectHeader *, 64, 4>::GlobalPool" }
%"struct.blink::Worklist<blink::HeapObjectHeader *, 64, 4>::PrivateSegmentHolder" = type { %"class.blink::Worklist<blink::HeapObjectHeader *, 64, 4>::Segment"*, %"class.blink::Worklist<blink::HeapObjectHeader *, 64, 4>::Segment"*, [64 x i8] }
%"class.blink::Worklist<blink::HeapObjectHeader *, 64, 4>::Segment" = type opaque
%"class.blink::Worklist<blink::HeapObjectHeader *, 64, 4>::GlobalPool" = type { %"class.base::Lock", %"class.blink::Worklist<blink::HeapObjectHeader *, 64, 4>::Segment"*, %"struct.std::__1::atomic" }
%"class.std::__1::unique_ptr.46" = type { %"class.std::__1::__compressed_pair.47" }
%"class.std::__1::__compressed_pair.47" = type { %"struct.std::__1::__compressed_pair_elem.48" }
%"struct.std::__1::__compressed_pair_elem.48" = type { %"class.blink::Worklist.49"* }
%"class.blink::Worklist.49" = type { [4 x %"struct.blink::Worklist<const void *, 16, 4>::PrivateSegmentHolder"], %"class.blink::Worklist<const void *, 16, 4>::GlobalPool" }
%"struct.blink::Worklist<const void *, 16, 4>::PrivateSegmentHolder" = type { %"class.blink::Worklist<const void *, 16, 4>::Segment"*, %"class.blink::Worklist<const void *, 16, 4>::Segment"*, [64 x i8] }
%"class.blink::Worklist<const void *, 16, 4>::Segment" = type { %"class.blink::Worklist<const void *, 16, 4>::Segment"*, i64, [16 x i8*] }
%"class.blink::Worklist<const void *, 16, 4>::GlobalPool" = type { %"class.base::Lock", %"class.blink::Worklist<const void *, 16, 4>::Segment"*, %"struct.std::__1::atomic" }
%"class.std::__1::unique_ptr.53" = type { %"class.std::__1::__compressed_pair.54" }
%"class.std::__1::__compressed_pair.54" = type { %"struct.std::__1::__compressed_pair_elem.55" }
%"struct.std::__1::__compressed_pair_elem.55" = type { %"class.blink::Worklist.56"* }
%"class.blink::Worklist.56" = type { [4 x %"struct.blink::Worklist<blink::CustomCallbackItem, 64, 4>::PrivateSegmentHolder"], %"class.blink::Worklist<blink::CustomCallbackItem, 64, 4>::GlobalPool" }
%"struct.blink::Worklist<blink::CustomCallbackItem, 64, 4>::PrivateSegmentHolder" = type { %"class.blink::Worklist<blink::CustomCallbackItem, 64, 4>::Segment"*, %"class.blink::Worklist<blink::CustomCallbackItem, 64, 4>::Segment"*, [64 x i8] }
%"class.blink::Worklist<blink::CustomCallbackItem, 64, 4>::Segment" = type opaque
%"class.blink::Worklist<blink::CustomCallbackItem, 64, 4>::GlobalPool" = type { %"class.base::Lock", %"class.blink::Worklist<blink::CustomCallbackItem, 64, 4>::Segment"*, %"struct.std::__1::atomic" }
%"class.std::__1::unique_ptr.60" = type { %"class.std::__1::__compressed_pair.61" }
%"class.std::__1::__compressed_pair.61" = type { %"struct.std::__1::__compressed_pair_elem.62" }
%"struct.std::__1::__compressed_pair_elem.62" = type { %"class.blink::Worklist.63"* }
%"class.blink::Worklist.63" = type { [4 x %"struct.blink::Worklist<const void *const *, 256, 4>::PrivateSegmentHolder"], %"class.blink::Worklist<const void *const *, 256, 4>::GlobalPool" }
%"struct.blink::Worklist<const void *const *, 256, 4>::PrivateSegmentHolder" = type { %"class.blink::Worklist<const void *const *, 256, 4>::Segment"*, %"class.blink::Worklist<const void *const *, 256, 4>::Segment"*, [64 x i8] }
%"class.blink::Worklist<const void *const *, 256, 4>::Segment" = type opaque
%"class.blink::Worklist<const void *const *, 256, 4>::GlobalPool" = type { %"class.base::Lock", %"class.blink::Worklist<const void *const *, 256, 4>::Segment"*, %"struct.std::__1::atomic" }
%"class.std::__1::unique_ptr.67" = type { %"class.std::__1::__compressed_pair.68" }
%"class.std::__1::__compressed_pair.68" = type { %"struct.std::__1::__compressed_pair_elem.69" }
%"struct.std::__1::__compressed_pair_elem.69" = type { %"class.blink::Worklist.70"* }
%"class.blink::Worklist.70" = type { [4 x %"struct.blink::Worklist<blink::EphemeronPairItem, 64, 4>::PrivateSegmentHolder"], %"class.blink::Worklist<blink::EphemeronPairItem, 64, 4>::GlobalPool" }
%"struct.blink::Worklist<blink::EphemeronPairItem, 64, 4>::PrivateSegmentHolder" = type { %"class.blink::Worklist<blink::EphemeronPairItem, 64, 4>::Segment"*, %"class.blink::Worklist<blink::EphemeronPairItem, 64, 4>::Segment"*, [64 x i8] }
%"class.blink::Worklist<blink::EphemeronPairItem, 64, 4>::Segment" = type opaque
%"class.blink::Worklist<blink::EphemeronPairItem, 64, 4>::GlobalPool" = type { %"class.base::Lock", %"class.blink::Worklist<blink::EphemeronPairItem, 64, 4>::Segment"*, %"struct.std::__1::atomic" }
%"class.std::__1::unique_ptr.74" = type { %"class.std::__1::__compressed_pair.75" }
%"class.std::__1::__compressed_pair.75" = type { %"struct.std::__1::__compressed_pair_elem.76" }
%"struct.std::__1::__compressed_pair_elem.76" = type { %"class.blink::Worklist.77"* }
%"class.blink::Worklist.77" = type { [4 x %"struct.blink::Worklist<const blink::TraceWrapperV8Reference<v8::Value> *, 16, 4>::PrivateSegmentHolder"], %"class.blink::Worklist<const blink::TraceWrapperV8Reference<v8::Value> *, 16, 4>::GlobalPool" }
%"struct.blink::Worklist<const blink::TraceWrapperV8Reference<v8::Value> *, 16, 4>::PrivateSegmentHolder" = type { %"class.blink::Worklist<const blink::TraceWrapperV8Reference<v8::Value> *, 16, 4>::Segment"*, %"class.blink::Worklist<const blink::TraceWrapperV8Reference<v8::Value> *, 16, 4>::Segment"*, [64 x i8] }
%"class.blink::Worklist<const blink::TraceWrapperV8Reference<v8::Value> *, 16, 4>::Segment" = type opaque
%"class.blink::Worklist<const blink::TraceWrapperV8Reference<v8::Value> *, 16, 4>::GlobalPool" = type { %"class.base::Lock", %"class.blink::Worklist<const blink::TraceWrapperV8Reference<v8::Value> *, 16, 4>::Segment"*, %"struct.std::__1::atomic" }
%"class.std::__1::unique_ptr.81" = type { %"class.std::__1::__compressed_pair.82" }
%"class.std::__1::__compressed_pair.82" = type { %"struct.std::__1::__compressed_pair_elem.83" }
%"struct.std::__1::__compressed_pair_elem.83" = type { %"class.blink::Worklist.84"* }
%"class.blink::Worklist.84" = type { [4 x %"struct.blink::Worklist<blink::NotSafeToConcurrentlyTraceItem, 64, 4>::PrivateSegmentHolder"], %"class.blink::Worklist<blink::NotSafeToConcurrentlyTraceItem, 64, 4>::GlobalPool" }
%"struct.blink::Worklist<blink::NotSafeToConcurrentlyTraceItem, 64, 4>::PrivateSegmentHolder" = type { %"class.blink::Worklist<blink::NotSafeToConcurrentlyTraceItem, 64, 4>::Segment"*, %"class.blink::Worklist<blink::NotSafeToConcurrentlyTraceItem, 64, 4>::Segment"*, [64 x i8] }
%"class.blink::Worklist<blink::NotSafeToConcurrentlyTraceItem, 64, 4>::Segment" = type { %"class.blink::Worklist<blink::NotSafeToConcurrentlyTraceItem, 64, 4>::Segment"*, i64, [64 x %"struct.blink::NotSafeToConcurrentlyTraceItem"] }
%"struct.blink::NotSafeToConcurrentlyTraceItem" = type { %"struct.blink::TraceDescriptor", i64 }
%"class.blink::Worklist<blink::NotSafeToConcurrentlyTraceItem, 64, 4>::GlobalPool" = type { %"class.base::Lock", %"class.blink::Worklist<blink::NotSafeToConcurrentlyTraceItem, 64, 4>::Segment"*, %"struct.std::__1::atomic" }
%"class.std::__1::unique_ptr.88" = type { %"class.std::__1::__compressed_pair.89" }
%"class.std::__1::__compressed_pair.89" = type { %"struct.std::__1::__compressed_pair_elem.90" }
%"struct.std::__1::__compressed_pair_elem.90" = type { %"class.blink::WeakContainersWorklist"* }
%"class.blink::WeakContainersWorklist" = type { %"class.WTF::Mutex", %"class.std::__1::unordered_set" }
%"class.WTF::Mutex" = type { %"class.WTF::MutexBase" }
%"class.WTF::MutexBase" = type { %"struct.WTF::PlatformMutex" }
%"struct.WTF::PlatformMutex" = type { %union.pthread_mutex_t }
%"class.std::__1::unordered_set" = type { %"class.std::__1::__hash_table" }
%"class.std::__1::__hash_table" = type <{ %"class.std::__1::unique_ptr.91", %"class.std::__1::__compressed_pair.98", %"class.std::__1::__compressed_pair.103", %"class.std::__1::__compressed_pair.105", [4 x i8] }>
%"class.std::__1::unique_ptr.91" = type { %"class.std::__1::__compressed_pair.92" }
%"class.std::__1::__compressed_pair.92" = type { %"struct.std::__1::__compressed_pair_elem.93", %"struct.std::__1::__compressed_pair_elem.94" }
%"struct.std::__1::__compressed_pair_elem.93" = type { %"struct.std::__1::__hash_node_base"** }
%"struct.std::__1::__hash_node_base" = type { %"struct.std::__1::__hash_node_base"* }
%"struct.std::__1::__compressed_pair_elem.94" = type { %"class.std::__1::__bucket_list_deallocator" }
%"class.std::__1::__bucket_list_deallocator" = type { %"class.std::__1::__compressed_pair.95" }
%"class.std::__1::__compressed_pair.95" = type { %"struct.std::__1::__compressed_pair_elem.96" }
%"struct.std::__1::__compressed_pair_elem.96" = type { i64 }
%"class.std::__1::__compressed_pair.98" = type { %"struct.std::__1::__compressed_pair_elem.99" }
%"struct.std::__1::__compressed_pair_elem.99" = type { %"struct.std::__1::__hash_node_base" }
%"class.std::__1::__compressed_pair.103" = type { %"struct.std::__1::__compressed_pair_elem.96" }
%"class.std::__1::__compressed_pair.105" = type { %"struct.std::__1::__compressed_pair_elem.106" }
%"struct.std::__1::__compressed_pair_elem.106" = type { float }
%"class.std::__1::unique_ptr.111" = type { %"class.std::__1::__compressed_pair.112" }
%"class.std::__1::__compressed_pair.112" = type { %"struct.std::__1::__compressed_pair_elem.113" }
%"struct.std::__1::__compressed_pair_elem.113" = type { %"class.blink::HeapCompact"* }
%"class.blink::HeapCompact" = type <{ %"class.blink::ThreadHeap"*, %"class.std::__1::unique_ptr.114", i8, [7 x i8], i64, i64, i32, [4 x i8], i64, i8, [7 x i8] }>
%"class.std::__1::unique_ptr.114" = type { %"class.std::__1::__compressed_pair.115" }
%"class.std::__1::__compressed_pair.115" = type { %"struct.std::__1::__compressed_pair_elem.116" }
%"struct.std::__1::__compressed_pair_elem.116" = type { %"class.blink::HeapCompact::MovableObjectFixups"* }
%"class.blink::HeapCompact::MovableObjectFixups" = type opaque
%"struct.blink::ThreadHeap::LastAllocatedRegion" = type { i8*, i64 }
%"class.blink::BaseArena" = type <{ i32 (...)**, %"class.blink::PageStackThreadSafe", %"class.blink::PageStackThreadSafe", %"class.blink::PageStackThreadSafe", %"class.blink::PageStackThreadSafe", %"class.blink::ThreadState"*, i32, [4 x i8] }>
%"class.blink::PageStackThreadSafe" = type { %"class.blink::PageStack", %"class.WTF::Mutex" }
%"class.blink::PageStack" = type { %"class.WTF::Vector" }
%"class.WTF::Vector" = type { %"class.WTF::VectorBuffer" }
%"class.WTF::VectorBuffer" = type { %"class.WTF::VectorBufferBase" }
%"class.WTF::VectorBufferBase" = type { %"class.blink::BasePage"**, i32, i32 }
%"class.blink::BasePage" = type <{ i32 (...)**, %"class.blink::PageMemory"*, %"class.blink::BaseArena"*, %"class.blink::ThreadState"*, i64, i8, i8, i8, [5 x i8] }>
%"class.blink::PageMemory" = type opaque
%"class.std::__1::unique_ptr.127" = type { %"class.std::__1::__compressed_pair.128" }
%"class.std::__1::__compressed_pair.128" = type { %"struct.std::__1::__compressed_pair_elem.129" }
%"struct.std::__1::__compressed_pair_elem.129" = type { %"class.blink::PersistentRegion"* }
%"class.blink::PersistentRegion" = type { %"class.blink::PersistentRegionBase" }
%"class.blink::PersistentRegionBase" = type { %"class.blink::PersistentNode"*, %"struct.blink::PersistentNodeSlots"* }
%"struct.blink::PersistentNodeSlots" = type { %"struct.blink::PersistentNodeSlots"*, [256 x %"class.blink::PersistentNode"] }
%"class.WTF::Deque" = type { %"class.WTF::Deque<std::__1::pair<void *, bool (*)(const blink::LivenessBroker &, void *)>, 0, WTF::PartitionAllocator>::BackingBuffer", i32, i32 }
%"class.WTF::Deque<std::__1::pair<void *, bool (*)(const blink::LivenessBroker &, void *)>, 0, WTF::PartitionAllocator>::BackingBuffer" = type { %"class.WTF::VectorBuffer.135" }
%"class.WTF::VectorBuffer.135" = type { %"class.WTF::VectorBufferBase.136" }
%"class.WTF::VectorBufferBase.136" = type { %"struct.std::__1::pair"*, i32, i32 }
%"struct.std::__1::pair" = type { i8*, i1 (%"class.blink::LivenessBroker"*, i8*)* }
%"class.blink::LivenessBroker" = type { i8 }
%"class.v8::EmbedderGraph" = type opaque
%"class.std::__1::unique_ptr.137" = type { %"class.std::__1::__compressed_pair.138" }
%"class.std::__1::__compressed_pair.138" = type { %"struct.std::__1::__compressed_pair_elem.139" }
%"struct.std::__1::__compressed_pair_elem.139" = type { %"class.blink::UnifiedHeapController"* }
%"class.blink::UnifiedHeapController" = type opaque
%"class.std::__1::unique_ptr.143" = type { %"class.std::__1::__compressed_pair.144" }
%"class.std::__1::__compressed_pair.144" = type { %"struct.std::__1::__compressed_pair_elem.145" }
%"struct.std::__1::__compressed_pair_elem.145" = type { %"class.v8::EmbedderRootsHandler"* }
%"class.v8::EmbedderRootsHandler" = type { i32 (...)** }
%"struct.blink::ThreadState::GCData" = type { i32, i32, i32, i32, %"class.std::__1::unique_ptr.149" }
%"class.std::__1::unique_ptr.149" = type { %"class.std::__1::__compressed_pair.150" }
%"class.std::__1::__compressed_pair.150" = type { %"struct.std::__1::__compressed_pair_elem.151" }
%"struct.std::__1::__compressed_pair_elem.151" = type { %"class.blink::MarkingVisitor"* }
%"class.blink::MarkingVisitor" = type { %"class.blink::MarkingVisitorBase", %"class.blink::MarkingVisitor::RecentlyRetracedWeakContainers" }
%"class.blink::MarkingVisitorBase" = type { %"class.blink::Visitor", %"class.blink::Worklist<blink::TraceDescriptor, 512, 4>::View", %"class.blink::Worklist<blink::HeapObjectHeader *, 64, 4>::View", %"class.blink::Worklist<const void *, 16, 4>::View", %"class.blink::Worklist<blink::CustomCallbackItem, 64, 4>::View", %"class.blink::Worklist<const void *const *, 256, 4>::View", %"class.blink::Worklist<blink::EphemeronPairItem, 64, 4>::View", %"class.blink::Worklist<blink::EphemeronPairItem, 64, 4>::View", %"class.blink::WeakContainersWorklist"*, i64, i32, i32 }
%"class.blink::Worklist<blink::TraceDescriptor, 512, 4>::View" = type <{ %"class.blink::Worklist"*, i32, [4 x i8] }>
%"class.blink::Worklist<blink::HeapObjectHeader *, 64, 4>::View" = type <{ %"class.blink::Worklist.42"*, i32, [4 x i8] }>
%"class.blink::Worklist<const void *, 16, 4>::View" = type <{ %"class.blink::Worklist.49"*, i32, [4 x i8] }>
%"class.blink::Worklist<blink::CustomCallbackItem, 64, 4>::View" = type <{ %"class.blink::Worklist.56"*, i32, [4 x i8] }>
%"class.blink::Worklist<const void *const *, 256, 4>::View" = type <{ %"class.blink::Worklist.63"*, i32, [4 x i8] }>
%"class.blink::Worklist<blink::EphemeronPairItem, 64, 4>::View" = type <{ %"class.blink::Worklist.70"*, i32, [4 x i8] }>
%"class.blink::MarkingVisitor::RecentlyRetracedWeakContainers" = type { %"class.std::__1::vector", i64 }
%"class.std::__1::vector" = type { %"class.std::__1::__vector_base" }
%"class.std::__1::__vector_base" = type { %"class.blink::HeapObjectHeader"**, %"class.blink::HeapObjectHeader"**, %"class.std::__1::__compressed_pair.171" }
%"class.blink::HeapObjectHeader" = type { i32, i16, i16 }
%"class.std::__1::__compressed_pair.171" = type { %"struct.std::__1::__compressed_pair_elem.172" }
%"struct.std::__1::__compressed_pair_elem.172" = type { %"class.blink::HeapObjectHeader"** }
%"class.std::__1::unique_ptr.155" = type { %"class.std::__1::__compressed_pair.156" }
%"class.std::__1::__compressed_pair.156" = type { %"struct.std::__1::__compressed_pair_elem.157" }
%"struct.std::__1::__compressed_pair_elem.157" = type { %"class.blink::ThreadState::IncrementalMarkingScheduler"* }
%"class.blink::ThreadState::IncrementalMarkingScheduler" = type opaque
%"class.std::__1::unique_ptr.161" = type { %"class.std::__1::__compressed_pair.162" }
%"class.std::__1::__compressed_pair.162" = type { %"struct.std::__1::__compressed_pair_elem.163" }
%"struct.std::__1::__compressed_pair_elem.163" = type { %"class.blink::MarkingSchedulingOracle"* }
%"class.blink::MarkingSchedulingOracle" = type opaque
%"class.base::JobHandle" = type { %class.scoped_refptr }
%class.scoped_refptr = type { %"class.base::internal::JobTaskSource"* }
%"class.base::internal::JobTaskSource" = type opaque
%"struct.std::__1::atomic.167" = type { %"struct.std::__1::__atomic_base.168" }
%"struct.std::__1::__atomic_base.168" = type { %"struct.std::__1::__cxx_atomic_impl.169" }
%"struct.std::__1::__cxx_atomic_impl.169" = type { %"struct.std::__1::__cxx_atomic_base_impl.170" }
%"struct.std::__1::__cxx_atomic_base_impl.170" = type { i8 }
%"class.base::TimeTicks" = type { %"class.base::time_internal::TimeBase" }
%"class.base::time_internal::TimeBase" = type { i64 }
%"class.v8::Template" = type { i8 }
%"class.v8::Context" = type { i8 }
%"class.v8::Object" = type { i8 }
%"class.v8::FunctionCallbackInfo" = type <{ i64*, i64*, i32, [4 x i8] }>
%"class.blink::QualifiedName" = type { %class.scoped_refptr.271 }
%class.scoped_refptr.271 = type { %"class.blink::QualifiedName::QualifiedNameImpl"* }
%"class.blink::QualifiedName::QualifiedNameImpl" = type { %"class.WTF::RefCounted.272", i32, %"class.WTF::AtomicString", %"class.WTF::AtomicString", %"class.WTF::AtomicString", %"class.WTF::AtomicString" }
%"class.WTF::RefCounted.272" = type { %"class.base::RefCounted.273" }
%"class.base::RefCounted.273" = type { %"class.base::subtle::RefCountedBase" }
%"class.WTF::AtomicString" = type { %"class.WTF::String" }
%"class.WTF::String" = type { %class.scoped_refptr.208 }
%class.scoped_refptr.208 = type { %"class.WTF::StringImpl"* }
%"class.WTF::StringImpl" = type { i32, i32, %"struct.std::__1::atomic.209" }
%"struct.std::__1::atomic.209" = type { %"struct.std::__1::__atomic_base.210" }
%"struct.std::__1::__atomic_base.210" = type { %"struct.std::__1::__atomic_base.211" }
%"struct.std::__1::__atomic_base.211" = type { %"struct.std::__1::__cxx_atomic_impl.212" }
%"struct.std::__1::__cxx_atomic_impl.212" = type { %"struct.std::__1::__cxx_atomic_base_impl.213" }
%"struct.std::__1::__cxx_atomic_base_impl.213" = type { i32 }
%"class.base::span" = type { %"struct.base::internal::ExtentStorage", %"struct.blink::bindings::IDLMemberInstaller::AttributeConfig"* }
%"struct.base::internal::ExtentStorage" = type { i64 }
%"struct.blink::bindings::IDLMemberInstaller::AttributeConfig" = type <{ i8*, void (%"class.v8::FunctionCallbackInfo"*)*, void (%"class.v8::FunctionCallbackInfo"*)*, i16, [6 x i8] }>
%"class.base::span.181" = type { %"struct.base::internal::ExtentStorage", %"struct.blink::bindings::IDLMemberInstaller::OperationConfig"* }
%"struct.blink::bindings::IDLMemberInstaller::OperationConfig" = type <{ i8*, void (%"class.v8::FunctionCallbackInfo"*)*, [3 x i8], [5 x i8] }>
%"class.v8::FunctionTemplate" = type { i8 }
%"class.v8::ObjectTemplate" = type { i8 }
%"class.v8::Signature" = type { i8 }
%"class.blink::ExecutionContext" = type <{ %"class.blink::Supplementable", %"class.blink::MojoBindingContext", %"class.blink::ConsoleLogger", %"class.blink::UseCounter", %"class.blink::FeatureContext", %"class.v8::Isolate"*, %"class.blink::SecurityContext", %"class.blink::Member.233", i32, i8, [3 x i8], %"class.blink::HeapVector", i32, i8, i8, i8, i8, i8, i8, [6 x i8], %"class.blink::Member.242", %"class.blink::Member.244", %"class.blink::DOMTimerCoordinator", i32, [4 x i8], %"class.std::__1::unique_ptr.253", %"class.blink::Member.259", %"class.blink::Member.261", i8, [7 x i8] }>
%"class.blink::Supplementable" = type { %"class.blink::GarbageCollectedMixin", %"class.blink::HeapHashMap.182" }
%"class.blink::GarbageCollectedMixin" = type { i32 (...)** }
%"class.blink::HeapHashMap.182" = type { %"class.WTF::HashMap.185" }
%"class.WTF::HashMap.185" = type { %"class.WTF::HashTable.186" }
%"class.WTF::HashTable.186" = type <{ %"struct.WTF::KeyValuePair.188"*, i32, i32, i32, [4 x i8] }>
%"struct.WTF::KeyValuePair.188" = type opaque
%"class.blink::MojoBindingContext" = type { %"class.blink::ContextLifecycleNotifier", %"class.blink::Supplementable.194" }
%"class.blink::ContextLifecycleNotifier" = type { %"class.blink::GarbageCollectedMixin", %"class.blink::HeapObserverSet" }
%"class.blink::HeapObserverSet" = type { i32, [4 x i8], %"class.blink::HeapHashSet" }
%"class.blink::HeapHashSet" = type { %"class.WTF::HashSet" }
%"class.WTF::HashSet" = type { %"class.WTF::HashTable.191" }
%"class.WTF::HashTable.191" = type <{ %"class.blink::WeakMember.193"*, i32, i32, i32, [4 x i8] }>
%"class.blink::WeakMember.193" = type opaque
%"class.blink::Supplementable.194" = type { %"class.blink::GarbageCollectedMixin", %"class.blink::HeapHashMap.195" }
%"class.blink::HeapHashMap.195" = type { %"class.WTF::HashMap.198" }
%"class.WTF::HashMap.198" = type { %"class.WTF::HashTable.199" }
%"class.WTF::HashTable.199" = type <{ %"struct.WTF::KeyValuePair.201"*, i32, i32, i32, [4 x i8] }>
%"struct.WTF::KeyValuePair.201" = type { i8*, %"class.blink::Member" }
%"class.blink::Member" = type { %"class.blink::MemberBase.202" }
%"class.blink::MemberBase.202" = type { %"class.blink::Supplement"* }
%"class.blink::Supplement" = type { %"class.blink::GarbageCollectedMixin", %"class.blink::Member.203" }
%"class.blink::Member.203" = type { %"class.blink::MemberBase.204" }
%"class.blink::MemberBase.204" = type { %"class.blink::MojoBindingContext"* }
%"class.blink::ConsoleLogger" = type { %"class.blink::GarbageCollectedMixin" }
%"class.blink::UseCounter" = type { %"class.blink::GarbageCollectedMixin" }
%"class.blink::FeatureContext" = type { i32 (...)** }
%"class.blink::SecurityContext" = type { i32 (...)**, i32, %class.scoped_refptr.205, %"class.std::__1::unique_ptr.215", %"class.std::__1::unique_ptr.215", %"class.std::__1::unique_ptr.221", %"class.std::__1::unique_ptr.221", %"class.blink::Member.227", i32, [4 x i8], %"class.WTF::HashSet.229", i32, i32 }
%class.scoped_refptr.205 = type { %"class.blink::SecurityOrigin"* }
%"class.blink::SecurityOrigin" = type { %"class.WTF::RefCounted.206", %"class.WTF::String", %"class.WTF::String", %"class.WTF::String", i16, %"class.absl::optional", i8, i8, i8, i8, i8, i8, %"class.base::UnguessableToken", %class.scoped_refptr.214 }
%"class.WTF::RefCounted.206" = type { %"class.base::RefCounted.207" }
%"class.base::RefCounted.207" = type { %"class.base::subtle::RefCountedBase" }
%"class.absl::optional" = type { %"class.absl::optional_internal::optional_data" }
%"class.absl::optional_internal::optional_data" = type { %"class.absl::optional_internal::optional_data_base" }
%"class.absl::optional_internal::optional_data_base" = type { %"class.absl::optional_internal::optional_data_dtor_base" }
%"class.absl::optional_internal::optional_data_dtor_base" = type { i8, %union.anon }
%union.anon = type { %"class.url::Origin::Nonce" }
%"class.url::Origin::Nonce" = type { %"class.base::UnguessableToken" }
%"class.base::UnguessableToken" = type { %"class.base::Token" }
%"class.base::Token" = type { i64, i64 }
%class.scoped_refptr.214 = type { %"class.blink::SecurityOrigin"* }
%"class.std::__1::unique_ptr.215" = type { %"class.std::__1::__compressed_pair.216" }
%"class.std::__1::__compressed_pair.216" = type { %"struct.std::__1::__compressed_pair_elem.217" }
%"struct.std::__1::__compressed_pair_elem.217" = type { %"class.blink::PermissionsPolicy"* }
%"class.blink::PermissionsPolicy" = type opaque
%"class.std::__1::unique_ptr.221" = type { %"class.std::__1::__compressed_pair.222" }
%"class.std::__1::__compressed_pair.222" = type { %"struct.std::__1::__compressed_pair_elem.223" }
%"struct.std::__1::__compressed_pair_elem.223" = type { %"class.blink::DocumentPolicy"* }
%"class.blink::DocumentPolicy" = type opaque
%"class.blink::Member.227" = type { %"class.blink::MemberBase.228" }
%"class.blink::MemberBase.228" = type { %"class.blink::ExecutionContext"* }
%"class.WTF::HashSet.229" = type { %"class.WTF::HashTable.230" }
%"class.WTF::HashTable.230" = type <{ i32*, i32, i32, i32, [4 x i8] }>
%"class.blink::Member.233" = type { %"class.blink::MemberBase.234" }
%"class.blink::MemberBase.234" = type { %"class.blink::Agent"* }
%"class.blink::Agent" = type opaque
%"class.blink::HeapVector" = type { %"class.WTF::Vector.237" }
%"class.WTF::Vector.237" = type { %"class.WTF::VectorBuffer.238" }
%"class.WTF::VectorBuffer.238" = type { %"class.WTF::VectorBufferBase.239" }
%"class.WTF::VectorBufferBase.239" = type { %"class.blink::Member.240"*, i32, i32 }
%"class.blink::Member.240" = type opaque
%"class.blink::Member.242" = type { %"class.blink::MemberBase.243" }
%"class.blink::MemberBase.243" = type { %"class.blink::PublicURLManager"* }
%"class.blink::PublicURLManager" = type opaque
%"class.blink::Member.244" = type { %"class.blink::MemberBase.245" }
%"class.blink::MemberBase.245" = type { %"class.blink::ContentSecurityPolicyDelegate"* }
%"class.blink::ContentSecurityPolicyDelegate" = type opaque
%"class.blink::DOMTimerCoordinator" = type { %"class.blink::HeapHashMap.246", i32, i32 }
%"class.blink::HeapHashMap.246" = type { %"class.WTF::HashMap.249" }
%"class.WTF::HashMap.249" = type { %"class.WTF::HashTable.250" }
%"class.WTF::HashTable.250" = type <{ %"struct.WTF::KeyValuePair.252"*, i32, i32, i32, [4 x i8] }>
%"struct.WTF::KeyValuePair.252" = type opaque
%"class.std::__1::unique_ptr.253" = type { %"class.std::__1::__compressed_pair.254" }
%"class.std::__1::__compressed_pair.254" = type { %"struct.std::__1::__compressed_pair_elem.255" }
%"struct.std::__1::__compressed_pair_elem.255" = type { %"class.blink::PolicyContainer"* }
%"class.blink::PolicyContainer" = type opaque
%"class.blink::Member.259" = type { %"class.blink::MemberBase.260" }
%"class.blink::MemberBase.260" = type { %"class.blink::OriginTrialContext"* }
%"class.blink::OriginTrialContext" = type opaque
%"class.blink::Member.261" = type { %"class.blink::MemberBase.262" }
%"class.blink::MemberBase.262" = type { %"class.blink::ContentSecurityPolicy"* }
%"class.blink::ContentSecurityPolicy" = type opaque
%"class.blink::SVGAnimatedLength" = type { %"class.blink::ScriptWrappable", %"class.blink::SVGAnimatedProperty.322" }
%"class.blink::SVGAnimatedProperty.322" = type { %"class.blink::SVGAnimatedPropertyCommon.323", %"class.blink::Member.331", %"class.blink::Member.331" }
%"class.blink::SVGAnimatedPropertyCommon.323" = type { %"class.blink::SVGAnimatedPropertyBase", %"class.blink::Member.324", %"class.blink::Member.324" }
%"class.blink::SVGAnimatedPropertyBase" = type { %"class.blink::GarbageCollectedMixin", i24, %"class.blink::Member.308", %"class.blink::QualifiedName"* }
%"class.blink::Member.308" = type { %"class.blink::MemberBase.309" }
%"class.blink::MemberBase.309" = type { %"class.blink::SVGElement"* }
%"class.blink::SVGElement" = type { %"class.blink::Element", %"class.blink::HeapHashSet.290", %"class.blink::HeapHashMap.297", %"class.blink::Member.304", %"class.blink::Member.306" }
%"class.blink::Element" = type { %"class.blink::ContainerNode", %"class.blink::Animatable", %"class.blink::QualifiedName", %"class.blink::Member.274" }
%"class.blink::ContainerNode" = type { %"class.blink::Node", %"class.blink::Member.263", %"class.blink::Member.263" }
%"class.blink::Node" = type { %"class.blink::EventTarget", i32, %"class.blink::Member.263", %"class.blink::Member.265", %"class.blink::Member.263", %"class.blink::Member.263", %"class.blink::Member.267" }
%"class.blink::EventTarget" = type { %"class.blink::ScriptWrappable" }
%"class.blink::Member.265" = type { %"class.blink::MemberBase.266" }
%"class.blink::MemberBase.266" = type { %"class.blink::TreeScope"* }
%"class.blink::TreeScope" = type { %"class.blink::GarbageCollectedMixin", %"class.blink::Member.411", %"class.blink::Member.413", %"class.blink::Member.265", %"class.blink::Member.415", %"class.blink::Member.415", %"class.blink::Member.437", %"class.blink::Member.439", %"class.blink::Member.441", %"class.blink::RadioButtonGroupScope", %"class.blink::Member.446", %"class.blink::HeapVector.448" }
%"class.blink::Member.411" = type { %"class.blink::MemberBase.412" }
%"class.blink::MemberBase.412" = type { %"class.blink::ContainerNode"* }
%"class.blink::Member.413" = type { %"class.blink::MemberBase.414" }
%"class.blink::MemberBase.414" = type { %"class.blink::Document"* }
%"class.blink::Document" = type opaque
%"class.blink::Member.415" = type { %"class.blink::MemberBase.416" }
%"class.blink::MemberBase.416" = type { %"class.blink::TreeOrderedMap"* }
%"class.blink::TreeOrderedMap" = type { %"class.blink::HeapHashMap.419" }
%"class.blink::HeapHashMap.419" = type { %"class.WTF::HashMap.422" }
%"class.WTF::HashMap.422" = type { %"class.WTF::HashTable.423" }
%"class.WTF::HashTable.423" = type <{ %"struct.WTF::KeyValuePair.425"*, i32, i32, i32, [4 x i8] }>
%"struct.WTF::KeyValuePair.425" = type { %"class.WTF::AtomicString", %"class.blink::Member.426" }
%"class.blink::Member.426" = type { %"class.blink::MemberBase.427" }
%"class.blink::MemberBase.427" = type { %"class.blink::TreeOrderedMap::MapEntry"* }
%"class.blink::TreeOrderedMap::MapEntry" = type { %"class.blink::Member.348", i32, %"class.blink::HeapVector.430" }
%"class.blink::Member.348" = type { %"class.blink::MemberBase.349" }
%"class.blink::MemberBase.349" = type { %"class.blink::Element"* }
%"class.blink::HeapVector.430" = type { %"class.WTF::Vector.433" }
%"class.WTF::Vector.433" = type { %"class.WTF::VectorBuffer.434" }
%"class.WTF::VectorBuffer.434" = type { %"class.WTF::VectorBufferBase.435" }
%"class.WTF::VectorBufferBase.435" = type { %"class.blink::Member.348"*, i32, i32 }
%"class.blink::Member.437" = type { %"class.blink::MemberBase.438" }
%"class.blink::MemberBase.438" = type { %"class.blink::IdTargetObserverRegistry"* }
%"class.blink::IdTargetObserverRegistry" = type opaque
%"class.blink::Member.439" = type { %"class.blink::MemberBase.440" }
%"class.blink::MemberBase.440" = type { %"class.blink::ScopedStyleResolver"* }
%"class.blink::ScopedStyleResolver" = type opaque
%"class.blink::Member.441" = type { %"class.blink::MemberBase.442" }
%"class.blink::MemberBase.442" = type { %"class.blink::DOMSelection"* }
%"class.blink::DOMSelection" = type opaque
%"class.blink::RadioButtonGroupScope" = type { %"class.blink::Member.443" }
%"class.blink::Member.443" = type { %"class.blink::MemberBase.444" }
%"class.blink::MemberBase.444" = type { %"class.blink::HeapHashMap.445"* }
%"class.blink::HeapHashMap.445" = type opaque
%"class.blink::Member.446" = type { %"class.blink::MemberBase.447" }
%"class.blink::MemberBase.447" = type { %"class.blink::SVGTreeScopeResources"* }
%"class.blink::SVGTreeScopeResources" = type opaque
%"class.blink::HeapVector.448" = type { %"class.WTF::Vector.451" }
%"class.WTF::Vector.451" = type { %"class.WTF::VectorBuffer.452" }
%"class.WTF::VectorBuffer.452" = type { %"class.WTF::VectorBufferBase.453" }
%"class.WTF::VectorBufferBase.453" = type { %"class.blink::Member.454"*, i32, i32 }
%"class.blink::Member.454" = type opaque
%"class.blink::Member.267" = type { %"class.blink::MemberBase.268" }
%"class.blink::MemberBase.268" = type { %"class.blink::NodeData"* }
%"class.blink::NodeData" = type { i16, %"class.WTF::ConcurrentlyReadBitField" }
%"class.WTF::ConcurrentlyReadBitField" = type { %"class.WTF::SingleThreadedBitField" }
%"class.WTF::SingleThreadedBitField" = type { i16 }
%"class.blink::Member.263" = type { %"class.blink::MemberBase.264" }
%"class.blink::MemberBase.264" = type { %"class.blink::Node"* }
%"class.blink::Animatable" = type { i32 (...)** }
%"class.blink::Member.274" = type { %"class.blink::MemberBase.275" }
%"class.blink::MemberBase.275" = type { %"class.blink::ElementData"* }
%"class.blink::ElementData" = type { %"class.WTF::ConcurrentlyReadBitField.278", %"class.blink::Member.280", %"class.blink::SpaceSplitString", %"class.WTF::AtomicString" }
%"class.WTF::ConcurrentlyReadBitField.278" = type { %"class.WTF::SingleThreadedBitField.279" }
%"class.WTF::SingleThreadedBitField.279" = type { i32 }
%"class.blink::Member.280" = type { %"class.blink::MemberBase.281" }
%"class.blink::MemberBase.281" = type { %"class.blink::CSSPropertyValueSet"* }
%"class.blink::CSSPropertyValueSet" = type opaque
%"class.blink::SpaceSplitString" = type { %class.scoped_refptr.282 }
%class.scoped_refptr.282 = type { %"class.blink::SpaceSplitString::Data"* }
%"class.blink::SpaceSplitString::Data" = type { %"class.WTF::RefCounted.283", %"class.WTF::AtomicString", %"class.WTF::Vector.285" }
%"class.WTF::RefCounted.283" = type { %"class.base::RefCounted.284" }
%"class.base::RefCounted.284" = type { %"class.base::subtle::RefCountedBase" }
%"class.WTF::Vector.285" = type { %"class.WTF::VectorBuffer.286" }
%"class.WTF::VectorBuffer.286" = type { %"class.WTF::VectorBufferBase.287", [32 x i8] }
%"class.WTF::VectorBufferBase.287" = type { %"class.WTF::AtomicString"*, i32, i32 }
%"class.blink::HeapHashSet.290" = type { %"class.WTF::HashSet.293" }
%"class.WTF::HashSet.293" = type { %"class.WTF::HashTable.294" }
%"class.WTF::HashTable.294" = type <{ %"class.blink::WeakMember.296"*, i32, i32, i32, [4 x i8] }>
%"class.blink::WeakMember.296" = type opaque
%"class.blink::HeapHashMap.297" = type { %"class.WTF::HashMap.300" }
%"class.WTF::HashMap.300" = type { %"class.WTF::HashTable.301" }
%"class.WTF::HashTable.301" = type <{ %"struct.WTF::KeyValuePair.303"*, i32, i32, i32, [4 x i8] }>
%"struct.WTF::KeyValuePair.303" = type opaque
%"class.blink::Member.304" = type { %"class.blink::MemberBase.305" }
%"class.blink::MemberBase.305" = type { %"class.blink::SVGElementRareData"* }
%"class.blink::SVGElementRareData" = type opaque
%"class.blink::Member.306" = type { %"class.blink::MemberBase.307" }
%"class.blink::MemberBase.307" = type { %"class.blink::SVGAnimatedString"* }
%"class.blink::SVGAnimatedString" = type { %"class.blink::ScriptWrappable", %"class.blink::SVGAnimatedProperty" }
%"class.blink::SVGAnimatedProperty" = type { %"class.blink::SVGAnimatedPropertyCommon" }
%"class.blink::SVGAnimatedPropertyCommon" = type { %"class.blink::SVGAnimatedPropertyBase", %"class.blink::Member.310", %"class.blink::Member.310" }
%"class.blink::Member.310" = type { %"class.blink::MemberBase.311" }
%"class.blink::MemberBase.311" = type { %"class.blink::SVGString"* }
%"class.blink::SVGString" = type { %"class.blink::SVGPropertyBase", %"class.WTF::String" }
%"class.blink::SVGPropertyBase" = type { i32 (...)** }
%"class.blink::Member.324" = type { %"class.blink::MemberBase.325" }
%"class.blink::MemberBase.325" = type { %"class.blink::SVGLength"* }
%"class.blink::SVGLength" = type <{ %"class.blink::SVGListablePropertyBase", %"class.blink::Member.327", i8, [7 x i8] }>
%"class.blink::SVGListablePropertyBase" = type { %"class.blink::SVGPropertyBase", %"class.blink::UntracedMember" }
%"class.blink::UntracedMember" = type { %"class.blink::MemberBase.326" }
%"class.blink::MemberBase.326" = type { %"class.blink::SVGListPropertyBase"* }
%"class.blink::SVGListPropertyBase" = type opaque
%"class.blink::Member.327" = type { %"class.blink::MemberBase.328" }
%"class.blink::MemberBase.328" = type { %"class.blink::CSSPrimitiveValue"* }
%"class.blink::CSSPrimitiveValue" = type { %"class.blink::CSSValue" }
%"class.blink::CSSValue" = type { i8, i8, i8 }
%"class.blink::Member.331" = type { %"class.blink::MemberBase.332" }
%"class.blink::MemberBase.332" = type { %"class.blink::SVGLengthTearOff"* }
%"class.blink::SVGLengthTearOff" = type { %"class.blink::SVGPropertyTearOff" }
%"class.blink::SVGPropertyTearOff" = type { %"class.blink::SVGPropertyTearOffBase.base", %"class.blink::Member.324" }
%"class.blink::SVGPropertyTearOffBase.base" = type <{ %"class.blink::ScriptWrappable", %"class.blink::Member.308", %"class.blink::Member.333", i32 }>
%"class.blink::Member.333" = type { %"class.blink::MemberBase.334" }
%"class.blink::MemberBase.334" = type { %"class.blink::SVGAnimatedPropertyBase"* }
%"class.blink::ScriptState" = type { %"class.v8::Isolate"*, %"class.blink::ScopedPersistent", %class.scoped_refptr.458, %"class.blink::Member.459", %"class.blink::SelfKeepAlive", %"class.util::TokenType" }
%"class.blink::ScopedPersistent" = type { %"class.v8::Persistent" }
%"class.v8::Persistent" = type { %"class.v8::PersistentBase" }
%"class.v8::PersistentBase" = type { %"class.v8::Context"* }
%class.scoped_refptr.458 = type { %"class.blink::DOMWrapperWorld"* }
%"class.blink::Member.459" = type { %"class.blink::MemberBase.460" }
%"class.blink::MemberBase.460" = type { %"class.blink::V8PerContextData"* }
%"class.blink::V8PerContextData" = type opaque
%"class.blink::SelfKeepAlive" = type { %"class.blink::Persistent.461" }
%"class.blink::Persistent.461" = type { %"class.blink::PersistentBase.462" }
%"class.blink::PersistentBase.462" = type { %"class.blink::ScriptState"*, %"class.blink::PersistentNodePtr" }
%"class.util::TokenType" = type { %"class.base::StrongAlias" }
%"class.base::StrongAlias" = type { %"class.base::UnguessableToken" }
%"class.v8::Value" = type { i8 }
%"class.blink::SVGAnimatedPreserveAspectRatio" = type { %"class.blink::ScriptWrappable", %"class.blink::SVGAnimatedProperty.337" }
%"class.blink::SVGAnimatedProperty.337" = type { %"class.blink::SVGAnimatedPropertyCommon.338", %"class.blink::Member.341", %"class.blink::Member.341" }
%"class.blink::SVGAnimatedPropertyCommon.338" = type { %"class.blink::SVGAnimatedPropertyBase", %"class.blink::Member.339", %"class.blink::Member.339" }
%"class.blink::Member.339" = type { %"class.blink::MemberBase.340" }
%"class.blink::MemberBase.340" = type { %"class.blink::SVGPreserveAspectRatio"* }
%"class.blink::SVGPreserveAspectRatio" = type { %"class.blink::SVGPropertyHelper", i32, i32 }
%"class.blink::SVGPropertyHelper" = type { %"class.blink::SVGPropertyBase" }
%"class.blink::Member.341" = type { %"class.blink::MemberBase.342" }
%"class.blink::MemberBase.342" = type { %"class.blink::SVGPreserveAspectRatioTearOff"* }
%"class.blink::SVGPreserveAspectRatioTearOff" = type { %"class.blink::SVGPropertyTearOff.343" }
%"class.blink::SVGPropertyTearOff.343" = type { %"class.blink::SVGPropertyTearOffBase.base", %"class.blink::Member.339" }
%"class.blink::UniqueElementData" = type { %"class.blink::ElementData", %"class.blink::Member.280", %"class.WTF::Vector.470" }
%"class.WTF::Vector.470" = type { %"class.WTF::VectorBuffer.471" }
%"class.WTF::VectorBuffer.471" = type { %"class.WTF::VectorBufferBase.472", [64 x i8] }
%"class.WTF::VectorBufferBase.472" = type { %"class.blink::Attribute"*, i32, i32 }
%"class.blink::Attribute" = type { %"class.blink::QualifiedName", %"class.WTF::AtomicString" }
%"class.blink::V8PerIsolateData" = type { i32, %"class.gin::IsolateHolder", %"class.WTF::HashMap.494", %"class.WTF::HashMap.494", %"class.WTF::HashMap.499", %"class.std::__1::unique_ptr.504", %"class.std::__1::unique_ptr.551", %"class.blink::Persistent.461", i8, i8, i8, %"class.WTF::Vector.565", %"class.std::__1::unique_ptr.572", %"class.blink::Persistent.578", %"class.blink::Persistent.582", %"class.blink::RuntimeCallStats", void (%"class.v8::Isolate"*, i32, i32)*, void (%"class.v8::Isolate"*, i32, i32)*, i64 }
%"class.gin::IsolateHolder" = type { %"class.std::__1::unique_ptr.476", %"class.v8::Isolate"*, %"class.std::__1::unique_ptr.482", %"class.std::__1::unique_ptr.488", i32, i32 }
%"class.std::__1::unique_ptr.476" = type { %"class.std::__1::__compressed_pair.477" }
%"class.std::__1::__compressed_pair.477" = type { %"struct.std::__1::__compressed_pair_elem.478" }
%"struct.std::__1::__compressed_pair_elem.478" = type { %"class.v8::SnapshotCreator"* }
%"class.v8::SnapshotCreator" = type { i8* }
%"class.std::__1::unique_ptr.482" = type { %"class.std::__1::__compressed_pair.483" }
%"class.std::__1::__compressed_pair.483" = type { %"struct.std::__1::__compressed_pair_elem.484" }
%"struct.std::__1::__compressed_pair_elem.484" = type { %"class.gin::PerIsolateData"* }
%"class.gin::PerIsolateData" = type opaque
%"class.std::__1::unique_ptr.488" = type { %"class.std::__1::__compressed_pair.489" }
%"class.std::__1::__compressed_pair.489" = type { %"struct.std::__1::__compressed_pair_elem.490" }
%"struct.std::__1::__compressed_pair_elem.490" = type { %"class.gin::V8IsolateMemoryDumpProvider"* }
%"class.gin::V8IsolateMemoryDumpProvider" = type opaque
%"class.WTF::HashMap.494" = type { %"class.WTF::HashTable.495" }
%"class.WTF::HashTable.495" = type <{ %"struct.WTF::KeyValuePair.498"*, i32, i32, i32, [4 x i8] }>
%"struct.WTF::KeyValuePair.498" = type opaque
%"class.WTF::HashMap.499" = type { %"class.WTF::HashTable.500" }
%"class.WTF::HashTable.500" = type <{ %"struct.WTF::KeyValuePair.503"*, i32, i32, i32, [4 x i8] }>
%"struct.WTF::KeyValuePair.503" = type opaque
%"class.std::__1::unique_ptr.504" = type { %"class.std::__1::__compressed_pair.505" }
%"class.std::__1::__compressed_pair.505" = type { %"struct.std::__1::__compressed_pair_elem.506" }
%"struct.std::__1::__compressed_pair_elem.506" = type { %"class.blink::StringCache"* }
%"class.blink::StringCache" = type { %"class.v8::GlobalValueMap", %"class.v8::PersistentValueMapBase<WTF::StringImpl *, v8::String, blink::StringCacheMapTraits>::PersistentValueReference", %"class.v8::GlobalValueMap.512", %class.scoped_refptr.208 }
%"class.v8::GlobalValueMap" = type { %"class.v8::PersistentValueMapBase" }
%"class.v8::PersistentValueMapBase" = type { %"class.v8::Isolate"*, %"class.WTF::HashMap.507", i8* }
%"class.WTF::HashMap.507" = type { %"class.WTF::HashTable.508" }
%"class.WTF::HashTable.508" = type <{ %"struct.WTF::KeyValuePair.511"*, i32, i32, i32, [4 x i8] }>
%"struct.WTF::KeyValuePair.511" = type { %"class.WTF::StringImpl"*, i64 }
%"class.v8::PersistentValueMapBase<WTF::StringImpl *, v8::String, blink::StringCacheMapTraits>::PersistentValueReference" = type { i64 }
%"class.v8::GlobalValueMap.512" = type { %"class.v8::PersistentValueMapBase.513" }
%"class.v8::PersistentValueMapBase.513" = type { %"class.v8::Isolate"*, %"class.WTF::HashMap.514", i8* }
%"class.WTF::HashMap.514" = type { %"class.WTF::HashTable.515" }
%"class.WTF::HashTable.515" = type <{ %"struct.WTF::KeyValuePair.518"*, i32, i32, i32, [4 x i8] }>
%"struct.WTF::KeyValuePair.518" = type { %"class.blink::ParkableStringImpl"*, i64 }
%"class.blink::ParkableStringImpl" = type { %"class.WTF::RefCounted.519", %"class.WTF::String", %"class.std::__1::unique_ptr.521" }
%"class.WTF::RefCounted.519" = type { %"class.base::RefCounted.520" }
%"class.base::RefCounted.520" = type { %"class.base::subtle::RefCountedBase" }
%"class.std::__1::unique_ptr.521" = type { %"class.std::__1::__compressed_pair.522" }
%"class.std::__1::__compressed_pair.522" = type { %"struct.std::__1::__compressed_pair_elem.523" }
%"struct.std::__1::__compressed_pair_elem.523" = type { %"struct.blink::ParkableStringImpl::ParkableMetadata"* }
%"struct.blink::ParkableStringImpl::ParkableMetadata" = type { %"class.WTF::Mutex", i32, i8, i8, %"class.std::__1::unique_ptr.524", %"class.std::__1::unique_ptr.535", %"class.WTF::Vector.541", i8, i32 }
%"class.std::__1::unique_ptr.524" = type { %"class.std::__1::__compressed_pair.525" }
%"class.std::__1::__compressed_pair.525" = type { %"struct.std::__1::__compressed_pair_elem.526" }
%"struct.std::__1::__compressed_pair_elem.526" = type { %"class.WTF::Vector.527"* }
%"class.WTF::Vector.527" = type { %"class.WTF::VectorBuffer.528" }
%"class.WTF::VectorBuffer.528" = type { %"class.WTF::VectorBufferBase.529" }
%"class.WTF::VectorBufferBase.529" = type { i8*, i32, i32 }
%"class.std::__1::unique_ptr.535" = type { %"class.std::__1::__compressed_pair.536" }
%"class.std::__1::__compressed_pair.536" = type { %"struct.std::__1::__compressed_pair_elem.537" }
%"struct.std::__1::__compressed_pair_elem.537" = type { %"class.blink::DiskDataMetadata"* }
%"class.blink::DiskDataMetadata" = type { i64, i64 }
%"class.WTF::Vector.541" = type { %"class.WTF::VectorBuffer.542" }
%"class.WTF::VectorBuffer.542" = type { %"class.WTF::VectorBufferBase.529", [32 x i8] }
%"class.std::__1::unique_ptr.551" = type { %"class.std::__1::__compressed_pair.552" }
%"class.std::__1::__compressed_pair.552" = type { %"struct.std::__1::__compressed_pair_elem.553" }
%"struct.std::__1::__compressed_pair_elem.553" = type { %"class.blink::V8PrivateProperty"* }
%"class.blink::V8PrivateProperty" = type { %"class.blink::ScopedPersistent.554", %"class.WTF::HashMap.557" }
%"class.blink::ScopedPersistent.554" = type { %"class.v8::Persistent.555" }
%"class.v8::Persistent.555" = type { %"class.v8::PersistentBase.556" }
%"class.v8::PersistentBase.556" = type { %"class.v8::Private"* }
%"class.v8::Private" = type { i8 }
%"class.WTF::HashMap.557" = type { %"class.WTF::HashTable.558" }
%"class.WTF::HashTable.558" = type <{ %"struct.WTF::KeyValuePair.561"*, i32, i32, i32, [4 x i8] }>
%"struct.WTF::KeyValuePair.561" = type opaque
%"class.WTF::Vector.565" = type { %"class.WTF::VectorBuffer.566" }
%"class.WTF::VectorBuffer.566" = type { %"class.WTF::VectorBufferBase.567" }
%"class.WTF::VectorBufferBase.567" = type { %"class.base::OnceCallback"*, i32, i32 }
%"class.base::OnceCallback" = type { %"class.base::internal::CallbackBase" }
%"class.base::internal::CallbackBase" = type { %class.scoped_refptr.568 }
%class.scoped_refptr.568 = type { %"class.base::internal::BindStateBase"* }
%"class.base::internal::BindStateBase" = type { %"class.base::RefCountedThreadSafe.569", void ()*, void (%"class.base::internal::BindStateBase"*)*, i1 (%"class.base::internal::BindStateBase"*, i32)* }
%"class.base::RefCountedThreadSafe.569" = type { %"class.base::subtle::RefCountedThreadSafeBase" }
%"class.base::subtle::RefCountedThreadSafeBase" = type { %"class.base::AtomicRefCount" }
%"class.base::AtomicRefCount" = type { %"struct.std::__1::atomic.357" }
%"struct.std::__1::atomic.357" = type { %"struct.std::__1::__atomic_base.358" }
%"struct.std::__1::__atomic_base.358" = type { %"struct.std::__1::__atomic_base.359" }
%"struct.std::__1::__atomic_base.359" = type { %"struct.std::__1::__cxx_atomic_impl.360" }
%"struct.std::__1::__cxx_atomic_impl.360" = type { %"struct.std::__1::__cxx_atomic_base_impl.361" }
%"struct.std::__1::__cxx_atomic_base_impl.361" = type { i32 }
%"class.std::__1::unique_ptr.572" = type { %"class.std::__1::__compressed_pair.573" }
%"class.std::__1::__compressed_pair.573" = type { %"struct.std::__1::__compressed_pair_elem.574" }
%"struct.std::__1::__compressed_pair_elem.574" = type { %"class.blink::V8PerIsolateData::Data"* }
%"class.blink::V8PerIsolateData::Data" = type { i32 (...)** }
%"class.blink::Persistent.578" = type { %"class.blink::PersistentBase.579" }
%"class.blink::PersistentBase.579" = type { %"class.blink::V8PerIsolateData::GarbageCollectedData"*, %"class.blink::PersistentNodePtr" }
%"class.blink::V8PerIsolateData::GarbageCollectedData" = type { i32 (...)** }
%"class.blink::Persistent.582" = type { %"class.blink::PersistentBase.583" }
%"class.blink::PersistentBase.583" = type { %"class.blink::ActiveScriptWrappableManager"*, %"class.blink::PersistentNodePtr" }
%"class.blink::ActiveScriptWrappableManager" = type { %"class.blink::HeapVector.586", i64 }
%"class.blink::HeapVector.586" = type { %"class.WTF::Vector.589" }
%"class.WTF::Vector.589" = type { %"class.WTF::VectorBuffer.590" }
%"class.WTF::VectorBuffer.590" = type { %"class.WTF::VectorBufferBase.591" }
%"class.WTF::VectorBufferBase.591" = type { %"struct.std::__1::pair.592"*, i32, i32 }
%"struct.std::__1::pair.592" = type { %"class.blink::UntracedMember.593", %"class.blink::Member.595" }
%"class.blink::UntracedMember.593" = type { %"class.blink::MemberBase.594" }
%"class.blink::MemberBase.594" = type { %"class.blink::ActiveScriptWrappableBase"* }
%"class.blink::ActiveScriptWrappableBase" = type { %"class.blink::GarbageCollectedMixin" }
%"class.blink::Member.595" = type { %"class.blink::MemberBase.596" }
%"class.blink::MemberBase.596" = type { %"class.blink::ActiveScriptWrappableBase"* }
%"class.blink::RuntimeCallStats" = type { %"class.blink::RuntimeCallTimer"*, i8, [40 x %"class.blink::RuntimeCallCounter"], %"class.base::TickClock"* }
%"class.blink::RuntimeCallTimer" = type { %"class.blink::RuntimeCallCounter"*, %"class.blink::RuntimeCallTimer"*, %"class.base::TimeTicks", %"class.base::TimeDelta", %"class.base::TickClock"* }
%"class.blink::RuntimeCallCounter" = type { i64, %"class.base::TimeDelta", i8* }
%"class.base::TimeDelta" = type { i64 }
%"class.base::TickClock" = type opaque
%"class.blink::SVGURIReference" = type { %"class.blink::GarbageCollectedMixin", %"class.blink::Member.318" }
%"class.blink::Member.318" = type { %"class.blink::MemberBase.319" }
%"class.blink::MemberBase.319" = type { %"class.blink::SVGAnimatedHref"* }
%"class.blink::SVGAnimatedHref" = type opaque
%"class.blink::ExceptionState" = type { i32 (...)**, %"class.blink::ExceptionContext", %"class.blink::ExceptionState::ContextScope"*, %"class.v8::Isolate"*, i32, %"class.WTF::String", %"class.blink::TraceWrapperV8Reference.598" }
%"class.blink::ExceptionContext" = type { i16, i16, i8*, i8* }
%"class.blink::ExceptionState::ContextScope" = type { %"class.blink::ExceptionState"*, %"class.blink::ExceptionState::ContextScope"*, %"class.blink::ExceptionContext" }
%"class.blink::TraceWrapperV8Reference.598" = type { %"class.v8::TracedReference.599" }
%"class.v8::TracedReference.599" = type { %"class.v8::BasicTracedReference.600" }
%"class.v8::BasicTracedReference.600" = type { %"class.v8::TracedReferenceBase" }
%"class.blink::ExceptionToRejectPromiseScope" = type { %"class.v8::FunctionCallbackInfo"*, %"class.blink::ExceptionState"* }
%"class.blink::ScriptPromise" = type { %"class.blink::Member.601", %"class.blink::ScriptValue" }
%"class.blink::Member.601" = type { %"class.blink::MemberBase.602" }
%"class.blink::MemberBase.602" = type { %"class.blink::ScriptState"* }
%"class.blink::ScriptValue" = type { %"class.v8::Isolate"*, %"class.blink::WorldSafeV8Reference" }
%"class.blink::WorldSafeV8Reference" = type { %"class.blink::TraceWrapperV8Reference.598", %class.scoped_refptr.603 }
%class.scoped_refptr.603 = type { %"class.blink::DOMWrapperWorld"* }
%"class.blink::SVGImageElement" = type { %"class.blink::SVGGraphicsElement", %"class.blink::ImageElementBase", %"class.blink::SVGURIReference", %"class.blink::ActiveScriptWrappable", i8, %"class.blink::Member.320", %"class.blink::Member.320", %"class.blink::Member.320", %"class.blink::Member.320", %"class.blink::Member.335", %"class.blink::Member.344" }
%"class.blink::SVGGraphicsElement" = type { %"class.blink::SVGElement", %"class.blink::SVGTests", %"class.blink::Member.316" }
%"class.blink::SVGTests" = type { %"class.blink::GarbageCollectedMixin", %"class.blink::Member.314", %"class.blink::Member.314" }
%"class.blink::Member.314" = type { %"class.blink::MemberBase.315" }
%"class.blink::MemberBase.315" = type { %"class.blink::SVGStaticStringList"* }
%"class.blink::SVGStaticStringList" = type opaque
%"class.blink::Member.316" = type { %"class.blink::MemberBase.317" }
%"class.blink::MemberBase.317" = type { %"class.blink::SVGAnimatedTransformList"* }
%"class.blink::SVGAnimatedTransformList" = type opaque
%"class.blink::ImageElementBase" = type { %"class.blink::CanvasImageSource", %"class.blink::ImageBitmapSource", i32, i32 }
%"class.blink::CanvasImageSource" = type { i32 (...)** }
%"class.blink::ImageBitmapSource" = type { i32 (...)** }
%"class.blink::ActiveScriptWrappable" = type { %"class.blink::ActiveScriptWrappableBase" }
%"class.blink::Member.320" = type { %"class.blink::MemberBase.321" }
%"class.blink::MemberBase.321" = type { %"class.blink::SVGAnimatedLength"* }
%"class.blink::Member.335" = type { %"class.blink::MemberBase.336" }
%"class.blink::MemberBase.336" = type { %"class.blink::SVGAnimatedPreserveAspectRatio"* }
%"class.blink::Member.344" = type { %"class.blink::MemberBase.345" }
%"class.blink::MemberBase.345" = type { %"class.blink::SVGImageLoader"* }
%"class.blink::SVGImageLoader" = type { %"class.blink::ImageLoader" }
%"class.blink::ImageLoader" = type { %"class.blink::ImageResourceObserver", %"class.blink::ThreadState::PrefinalizerRegistration", %"class.blink::Member.348", %"class.blink::Member.350", %"class.blink::Member.350", %"class.WTF::String", i32, %"class.WTF::AtomicString", %"class.base::WeakPtr", %"class.std::__1::unique_ptr.396", %"class.std::__1::unique_ptr.396", %"class.blink::TaskHandle", %"class.blink::TaskHandle", i8, i32, %"class.blink::HeapVector.403" }
%"class.blink::ImageResourceObserver" = type { i32 (...)** }
%"class.blink::ThreadState::PrefinalizerRegistration" = type { i8 }
%"class.blink::Member.350" = type { %"class.blink::MemberBase.351" }
%"class.blink::MemberBase.351" = type { %"class.blink::ImageResourceContent"* }
%"class.blink::ImageResourceContent" = type { %"class.blink::ImageObserver", i8, i8, i8, i32, %"class.blink::Member.354", float, i8, %class.scoped_refptr.356, %"class.WTF::HashCountedSet", %"class.WTF::HashCountedSet" }
%"class.blink::ImageObserver" = type { %"class.blink::GarbageCollectedMixin" }
%"class.blink::Member.354" = type { %"class.blink::MemberBase.355" }
%"class.blink::MemberBase.355" = type { %"class.blink::ImageResourceInfo"* }
%"class.blink::ImageResourceInfo" = type { %"class.blink::GarbageCollectedMixin" }
%class.scoped_refptr.356 = type { %"class.blink::Image"* }
%"class.blink::Image" = type { i32 (...)**, %"class.WTF::ThreadSafeRefCounted", i8, %class.scoped_refptr.362, %"class.blink::WeakPersistent", i32, i8, %"class.std::__1::unique_ptr.378" }
%"class.WTF::ThreadSafeRefCounted" = type { %"class.base::RefCountedThreadSafe" }
%"class.base::RefCountedThreadSafe" = type { %"class.base::subtle::RefCountedThreadSafeBase" }
%class.scoped_refptr.362 = type { %"class.WTF::SharedBuffer"* }
%"class.WTF::SharedBuffer" = type { %"class.WTF::RefCounted.363", i64, %"class.WTF::Vector.365", %"class.WTF::Vector.370" }
%"class.WTF::RefCounted.363" = type { %"class.base::RefCounted.364" }
%"class.base::RefCounted.364" = type { %"class.base::subtle::RefCountedBase" }
%"class.WTF::Vector.365" = type { %"class.WTF::VectorBuffer.366" }
%"class.WTF::VectorBuffer.366" = type { %"class.WTF::VectorBufferBase.367" }
%"class.WTF::VectorBufferBase.367" = type { i8*, i32, i32 }
%"class.WTF::Vector.370" = type { %"class.WTF::VectorBuffer.371" }
%"class.WTF::VectorBuffer.371" = type { %"class.WTF::VectorBufferBase.372" }
%"class.WTF::VectorBufferBase.372" = type { %"class.std::__1::unique_ptr.373"*, i32, i32 }
%"class.std::__1::unique_ptr.373" = type opaque
%"class.blink::WeakPersistent" = type { %"class.blink::PersistentBase.376" }
%"class.blink::PersistentBase.376" = type { %"class.blink::ImageObserver"*, %"class.blink::PersistentNodePtr.377" }
%"class.blink::PersistentNodePtr.377" = type { %"class.blink::PersistentNode"* }
%"class.std::__1::unique_ptr.378" = type { %"class.std::__1::__compressed_pair.379" }
%"class.std::__1::__compressed_pair.379" = type { %"struct.std::__1::__compressed_pair_elem.380" }
%"struct.std::__1::__compressed_pair_elem.380" = type { %"class.blink::DarkModeImageCache"* }
%"class.blink::DarkModeImageCache" = type opaque
%"class.WTF::HashCountedSet" = type { %"class.WTF::HashMap.384" }
%"class.WTF::HashMap.384" = type { %"class.WTF::HashTable.385" }
%"class.WTF::HashTable.385" = type <{ %"struct.WTF::KeyValuePair.388"*, i32, i32, i32, [4 x i8] }>
%"struct.WTF::KeyValuePair.388" = type <{ %"class.blink::ImageResourceObserver"*, i32, [4 x i8] }>
%"class.base::WeakPtr" = type { %"class.base::internal::WeakPtrBase" }
%"class.base::internal::WeakPtrBase" = type { %"class.base::internal::WeakReference", i64 }
%"class.base::internal::WeakReference" = type { %class.scoped_refptr.389 }
%class.scoped_refptr.389 = type { %"class.base::internal::WeakReference::Flag"* }
%"class.base::internal::WeakReference::Flag" = type <{ %"class.base::RefCountedThreadSafe.390", %"class.base::AtomicFlag", [3 x i8] }>
%"class.base::RefCountedThreadSafe.390" = type { %"class.base::subtle::RefCountedThreadSafeBase" }
%"class.base::AtomicFlag" = type { %"struct.std::__1::atomic.391" }
%"struct.std::__1::atomic.391" = type { %"struct.std::__1::__atomic_base.392" }
%"struct.std::__1::__atomic_base.392" = type { %"struct.std::__1::__atomic_base.393" }
%"struct.std::__1::__atomic_base.393" = type { %"struct.std::__1::__cxx_atomic_impl.394" }
%"struct.std::__1::__cxx_atomic_impl.394" = type { %"struct.std::__1::__cxx_atomic_base_impl.395" }
%"struct.std::__1::__cxx_atomic_base_impl.395" = type { i8 }
%"class.std::__1::unique_ptr.396" = type { %"class.std::__1::__compressed_pair.397" }
%"class.std::__1::__compressed_pair.397" = type { %"struct.std::__1::__compressed_pair_elem.398" }
%"struct.std::__1::__compressed_pair_elem.398" = type { %"class.blink::IncrementLoadEventDelayCount"* }
%"class.blink::IncrementLoadEventDelayCount" = type opaque
%"class.blink::TaskHandle" = type { %class.scoped_refptr.402 }
%class.scoped_refptr.402 = type { %"class.blink::TaskHandle::Runner"* }
%"class.blink::TaskHandle::Runner" = type opaque
%"class.blink::HeapVector.403" = type { %"class.WTF::Vector.406" }
%"class.WTF::Vector.406" = type { %"class.WTF::VectorBuffer.407" }
%"class.WTF::VectorBuffer.407" = type { %"class.WTF::VectorBufferBase.408" }
%"class.WTF::VectorBufferBase.408" = type { %"class.blink::Member.409"*, i32, i32 }
%"class.blink::Member.409" = type opaque
%"class.v8::internal::Isolate" = type opaque
%"class.logging::CheckError" = type { %"class.logging::LogMessage"* }
%"class.logging::LogMessage" = type { i32 (...)**, i32, %"class.std::__1::basic_ostringstream", i64, i8*, i32, %"class.base::ScopedClearLastErrorBase" }
%"class.std::__1::basic_ostringstream" = type { %"class.std::__1::basic_ostream.base", %"class.std::__1::basic_stringbuf", %"class.std::__1::basic_ios.base" }
%"class.std::__1::basic_ostream.base" = type { i32 (...)** }
%"class.std::__1::basic_stringbuf" = type <{ %"class.std::__1::basic_streambuf", %"class.std::__1::basic_string", i8*, i32, [4 x i8] }>
%"class.std::__1::basic_streambuf" = type { i32 (...)**, %"class.std::__1::locale", i8*, i8*, i8*, i8*, i8*, i8* }
%"class.std::__1::locale" = type { %"class.std::__1::locale::__imp"* }
%"class.std::__1::locale::__imp" = type opaque
%"class.std::__1::basic_string" = type { %"class.std::__1::__compressed_pair.463" }
%"class.std::__1::__compressed_pair.463" = type { %"struct.std::__1::__compressed_pair_elem.464" }
%"struct.std::__1::__compressed_pair_elem.464" = type { %"struct.std::__1::basic_string<char, std::__1::char_traits<char>, std::__1::allocator<char> >::__rep" }
%"struct.std::__1::basic_string<char, std::__1::char_traits<char>, std::__1::allocator<char> >::__rep" = type { %union.anon.465 }
%union.anon.465 = type { %"struct.std::__1::basic_string<char, std::__1::char_traits<char>, std::__1::allocator<char> >::__long" }
%"struct.std::__1::basic_string<char, std::__1::char_traits<char>, std::__1::allocator<char> >::__long" = type { i8*, i64, i64 }
%"class.std::__1::basic_ios.base" = type <{ %"class.std::__1::ios_base", %"class.std::__1::basic_ostream"*, i32 }>
%"class.std::__1::ios_base" = type { i32 (...)**, i32, i64, i64, i32, i32, i8*, i8*, void (i32, %"class.std::__1::ios_base"*, i32)**, i32*, i64, i64, i64*, i64, i64, i8**, i64, i64 }
%"class.std::__1::basic_ostream" = type { i32 (...)**, %"class.std::__1::basic_ios.base" }
%"class.base::ScopedClearLastErrorBase" = type { i32 }

$_ZN5blink12DOMDataStore18SetReturnValueFastEN2v811ReturnValueINS1_5ValueEEEPNS_15ScriptWrappableENS1_5LocalINS1_6ObjectEEEPKS5_ = comdat any

$_ZN5blink11ScriptState4FromEN2v85LocalINS1_7ContextEEE = comdat any

$_ZN3WTF9HashTableIN5blink10WeakMemberIKNS1_15ScriptWrappableEEENS_12KeyValuePairIS5_NS1_23TraceWrapperV8ReferenceIN2v86ObjectEEEEENS_24KeyValuePairKeyExtractorENS_10MemberHashIS4_EENS_18HashMapValueTraitsINS_10HashTraitsIS5_EENSG_ISA_EEEESH_NS1_13HeapAllocatorEE4findEPS4_ = comdat any

$_ZN5blink29ExceptionToRejectPromiseScopeD2Ev = comdat any

@.str = private unnamed_addr constant [16 x i8] c"SVGImageElement\00", align 1
@_ZN5blink20V8SVGGraphicsElement18wrapper_type_info_E = external global %"struct.blink::WrapperTypeInfo", align 8
@_ZN5blink17V8SVGImageElement18wrapper_type_info_E = hidden constant %"struct.blink::WrapperTypeInfo" { i16 1, void (%"class.v8::Isolate"*, %"class.blink::DOMWrapperWorld"*, %"class.v8::Template"*)* @_ZN5blink17V8SVGImageElement24InstallInterfaceTemplateEPN2v87IsolateERKNS_15DOMWrapperWorldENS1_5LocalINS1_8TemplateEEE, void (%"class.v8::Context"*, %"class.blink::DOMWrapperWorld"*, %"class.v8::Object"*, %"class.v8::Object"*, %"class.v8::Object"*, %"class.v8::Template"*, i64)* null, i8* getelementptr inbounds ([16 x i8], [16 x i8]* @.str, i32 0, i32 0), %"struct.blink::WrapperTypeInfo"* @_ZN5blink20V8SVGGraphicsElement18wrapper_type_info_E, i8 20 }, align 8
@_ZN5blink15SVGImageElement18wrapper_type_info_E = hidden local_unnamed_addr constant %"struct.blink::WrapperTypeInfo"* @_ZN5blink17V8SVGImageElement18wrapper_type_info_E, align 8
@_ZZN5blink17V8SVGImageElement30InstallUnconditionalPropertiesEPN2v87IsolateERKNS_15DOMWrapperWorldENS1_5LocalINS1_8TemplateEEES9_S9_E15kAttributeTable = internal constant [7 x { i8*, void (%"class.v8::FunctionCallbackInfo"*)*, void (%"class.v8::FunctionCallbackInfo"*)*, i8, i8 }] [{ i8*, void (%"class.v8::FunctionCallbackInfo"*)*, void (%"class.v8::FunctionCallbackInfo"*)*, i8, i8 } { i8* getelementptr inbounds ([2 x i8], [2 x i8]* @.str.1, i32 0, i32 0), void (%"class.v8::FunctionCallbackInfo"*)* @_ZN5blink12_GLOBAL__N_120v8_svg_image_element21XAttributeGetCallbackERKN2v820FunctionCallbackInfoINS2_5ValueEEE, void (%"class.v8::FunctionCallbackInfo"*)* null, i8 104, i8 0 }, { i8*, void (%"class.v8::FunctionCallbackInfo"*)*, void (%"class.v8::FunctionCallbackInfo"*)*, i8, i8 } { i8* getelementptr inbounds ([2 x i8], [2 x i8]* @.str.2, i32 0, i32 0), void (%"class.v8::FunctionCallbackInfo"*)* @_ZN5blink12_GLOBAL__N_120v8_svg_image_element21YAttributeGetCallbackERKN2v820FunctionCallbackInfoINS2_5ValueEEE, void (%"class.v8::FunctionCallbackInfo"*)* null, i8 104, i8 0 }, { i8*, void (%"class.v8::FunctionCallbackInfo"*)*, void (%"class.v8::FunctionCallbackInfo"*)*, i8, i8 } { i8* getelementptr inbounds ([6 x i8], [6 x i8]* @.str.3, i32 0, i32 0), void (%"class.v8::FunctionCallbackInfo"*)* @_ZN5blink12_GLOBAL__N_120v8_svg_image_element25WidthAttributeGetCallbackERKN2v820FunctionCallbackInfoINS2_5ValueEEE, void (%"class.v8::FunctionCallbackInfo"*)* null, i8 104, i8 0 }, { i8*, void (%"class.v8::FunctionCallbackInfo"*)*, void (%"class.v8::FunctionCallbackInfo"*)*, i8, i8 } { i8* getelementptr inbounds ([7 x i8], [7 x i8]* @.str.4, i32 0, i32 0), void (%"class.v8::FunctionCallbackInfo"*)* @_ZN5blink12_GLOBAL__N_120v8_svg_image_element26HeightAttributeGetCallbackERKN2v820FunctionCallbackInfoINS2_5ValueEEE, void (%"class.v8::FunctionCallbackInfo"*)* null, i8 104, i8 0 }, { i8*, void (%"class.v8::FunctionCallbackInfo"*)*, void (%"class.v8::FunctionCallbackInfo"*)*, i8, i8 } { i8* getelementptr inbounds ([20 x i8], [20 x i8]* @.str.5, i32 0, i32 0), void (%"class.v8::FunctionCallbackInfo"*)* @_ZN5blink12_GLOBAL__N_120v8_svg_image_element39PreserveAspectRatioAttributeGetCallbackERKN2v820FunctionCallbackInfoINS2_5ValueEEE, void (%"class.v8::FunctionCallbackInfo"*)* null, i8 104, i8 0 }, { i8*, void (%"class.v8::FunctionCallbackInfo"*)*, void (%"class.v8::FunctionCallbackInfo"*)*, i8, i8 } { i8* getelementptr inbounds ([9 x i8], [9 x i8]* @.str.6, i32 0, i32 0), void (%"class.v8::FunctionCallbackInfo"*)* @_ZN5blink12_GLOBAL__N_120v8_svg_image_element28DecodingAttributeGetCallbackERKN2v820FunctionCallbackInfoINS2_5ValueEEE, void (%"class.v8::FunctionCallbackInfo"*)* @_ZN5blink12_GLOBAL__N_120v8_svg_image_element28DecodingAttributeSetCallbackERKN2v820FunctionCallbackInfoINS2_5ValueEEE, i8 104, i8 0 }, { i8*, void (%"class.v8::FunctionCallbackInfo"*)*, void (%"class.v8::FunctionCallbackInfo"*)*, i8, i8 } { i8* getelementptr inbounds ([5 x i8], [5 x i8]* @.str.7, i32 0, i32 0), void (%"class.v8::FunctionCallbackInfo"*)* @_ZN5blink12_GLOBAL__N_120v8_svg_image_element24HrefAttributeGetCallbackERKN2v820FunctionCallbackInfoINS2_5ValueEEE, void (%"class.v8::FunctionCallbackInfo"*)* null, i8 104, i8 0 }], align 16
@.str.1 = private unnamed_addr constant [2 x i8] c"x\00", align 1
@.str.2 = private unnamed_addr constant [2 x i8] c"y\00", align 1
@.str.3 = private unnamed_addr constant [6 x i8] c"width\00", align 1
@.str.4 = private unnamed_addr constant [7 x i8] c"height\00", align 1
@.str.5 = private unnamed_addr constant [20 x i8] c"preserveAspectRatio\00", align 1
@.str.6 = private unnamed_addr constant [9 x i8] c"decoding\00", align 1
@.str.7 = private unnamed_addr constant [5 x i8] c"href\00", align 1
@_ZZN5blink17V8SVGImageElement30InstallUnconditionalPropertiesEPN2v87IsolateERKNS_15DOMWrapperWorldENS1_5LocalINS1_8TemplateEEES9_S9_E15kOperationTable = internal constant [1 x { i8*, void (%"class.v8::FunctionCallbackInfo"*)*, i8, i8, i8 }] [{ i8*, void (%"class.v8::FunctionCallbackInfo"*)*, i8, i8, i8 } { i8* getelementptr inbounds ([7 x i8], [7 x i8]* @.str.8, i32 0, i32 0), void (%"class.v8::FunctionCallbackInfo"*)* @_ZN5blink12_GLOBAL__N_120v8_svg_image_element23DecodeOperationCallbackERKN2v820FunctionCallbackInfoINS2_5ValueEEE, i8 0, i8 -24, i8 0 }], align 16
@.str.8 = private unnamed_addr constant [7 x i8] c"decode\00", align 1
@_ZN3WTF8internal25g_main_thread_stack_startE = external local_unnamed_addr global i64, align 8
@_ZN3WTF8internal39g_main_thread_underestimated_stack_sizeE = external local_unnamed_addr global i64, align 8
@_ZN5blink15DOMWrapperWorld41number_of_non_main_worlds_in_main_thread_E = external local_unnamed_addr global i32, align 4
@.str.9 = private unnamed_addr constant [66 x i8] c"../../third_party/blink/renderer/platform/bindings/script_state.h\00", align 1
@.str.10 = private unnamed_addr constant [13 x i8] c"script_state\00", align 1
@.str.11 = private unnamed_addr constant [34 x i8] c"script_state->context_ == context\00", align 1
@_ZN5blink9svg_names13kDecodingAttrE = external local_unnamed_addr constant %"class.blink::QualifiedName"*, align 8
@_ZN5blink8keywords5kAutoE = external local_unnamed_addr constant %"class.WTF::AtomicString"*, align 8
@_ZN5blink8keywords6kAsyncE = external local_unnamed_addr constant %"class.WTF::AtomicString"*, align 8
@_ZN5blink8keywords5kSyncE = external local_unnamed_addr constant %"class.WTF::AtomicString"*, align 8
@_ZN3WTF11g_null_atomE = external local_unnamed_addr constant %"class.WTF::AtomicString"*, align 8
@.str.12 = private unnamed_addr constant [19 x i8] c"Illegal invocation\00", align 1
@_ZTVN5blink14ExceptionStateE = external unnamed_addr constant { [9 x i8*] }, align 8

; Function Attrs: nounwind ssp uwtable
define hidden void @_ZN5blink17V8SVGImageElement24InstallInterfaceTemplateEPN2v87IsolateERKNS_15DOMWrapperWorldENS1_5LocalINS1_8TemplateEEE(%"class.v8::Isolate"*, %"class.blink::DOMWrapperWorld"* dereferenceable(32), %"class.v8::Template"*) #0 align 2 {
  %4 = alloca %"class.base::span", align 8
  %5 = alloca %"class.base::span.181", align 8
  %6 = bitcast %"class.v8::Template"* %2 to %"class.v8::FunctionTemplate"*
  %7 = tail call %"class.v8::ObjectTemplate"* @_ZN2v816FunctionTemplate16InstanceTemplateEv(%"class.v8::FunctionTemplate"* %6) #6
  %8 = tail call %"class.v8::ObjectTemplate"* @_ZN2v816FunctionTemplate17PrototypeTemplateEv(%"class.v8::FunctionTemplate"* %6) #6
  %9 = tail call %"class.v8::Template"* @_ZNK5blink15WrapperTypeInfo18GetV8ClassTemplateEPN2v87IsolateERKNS_15DOMWrapperWorldE(%"struct.blink::WrapperTypeInfo"* nonnull @_ZN5blink20V8SVGGraphicsElement18wrapper_type_info_E, %"class.v8::Isolate"* %0, %"class.blink::DOMWrapperWorld"* dereferenceable(32) %1) #6
  %10 = bitcast %"class.v8::Template"* %9 to %"class.v8::FunctionTemplate"*
  tail call void @_ZN5blink8bindings25SetupIDLInterfaceTemplateEPN2v87IsolateEPKNS_15WrapperTypeInfoENS1_5LocalINS1_14ObjectTemplateEEES9_NS7_INS1_16FunctionTemplateEEESB_(%"class.v8::Isolate"* %0, %"struct.blink::WrapperTypeInfo"* nonnull @_ZN5blink17V8SVGImageElement18wrapper_type_info_E, %"class.v8::ObjectTemplate"* %7, %"class.v8::ObjectTemplate"* %8, %"class.v8::FunctionTemplate"* %6, %"class.v8::FunctionTemplate"* %10) #6
  %11 = bitcast %"class.v8::ObjectTemplate"* %7 to %"class.v8::Template"*
  %12 = bitcast %"class.v8::ObjectTemplate"* %8 to %"class.v8::Template"*
  %13 = bitcast %"class.base::span"* %4 to i8*
  call void @llvm.lifetime.start.p0i8(i64 16, i8* nonnull %13)
  %14 = bitcast %"class.base::span.181"* %5 to i8*
  call void @llvm.lifetime.start.p0i8(i64 16, i8* nonnull %14)
  %15 = tail call %"class.v8::Signature"* @_ZN2v89Signature3NewEPNS_7IsolateENS_5LocalINS_16FunctionTemplateEEE(%"class.v8::Isolate"* %0, %"class.v8::FunctionTemplate"* %6) #6
  %16 = getelementptr inbounds %"class.base::span", %"class.base::span"* %4, i64 0, i32 0, i32 0
  store i64 7, i64* %16, align 8
  %17 = getelementptr inbounds %"class.base::span", %"class.base::span"* %4, i64 0, i32 1
  store %"struct.blink::bindings::IDLMemberInstaller::AttributeConfig"* bitcast ([7 x { i8*, void (%"class.v8::FunctionCallbackInfo"*)*, void (%"class.v8::FunctionCallbackInfo"*)*, i8, i8 }]* @_ZZN5blink17V8SVGImageElement30InstallUnconditionalPropertiesEPN2v87IsolateERKNS_15DOMWrapperWorldENS1_5LocalINS1_8TemplateEEES9_S9_E15kAttributeTable to %"struct.blink::bindings::IDLMemberInstaller::AttributeConfig"*), %"struct.blink::bindings::IDLMemberInstaller::AttributeConfig"** %17, align 8
  tail call void @_ZN5blink8bindings18IDLMemberInstaller17InstallAttributesEPN2v87IsolateERKNS_15DOMWrapperWorldENS2_5LocalINS2_8TemplateEEESA_SA_NS8_INS2_9SignatureEEEN4base4spanIKNS1_15AttributeConfigELm18446744073709551615EEE(%"class.v8::Isolate"* %0, %"class.blink::DOMWrapperWorld"* dereferenceable(32) %1, %"class.v8::Template"* %11, %"class.v8::Template"* %12, %"class.v8::Template"* %2, %"class.v8::Signature"* %15, %"class.base::span"* nonnull byval(%"class.base::span") align 8 %4) #6
  %18 = getelementptr inbounds %"class.base::span.181", %"class.base::span.181"* %5, i64 0, i32 0, i32 0
  store i64 1, i64* %18, align 8
  %19 = getelementptr inbounds %"class.base::span.181", %"class.base::span.181"* %5, i64 0, i32 1
  store %"struct.blink::bindings::IDLMemberInstaller::OperationConfig"* bitcast ([1 x { i8*, void (%"class.v8::FunctionCallbackInfo"*)*, i8, i8, i8 }]* @_ZZN5blink17V8SVGImageElement30InstallUnconditionalPropertiesEPN2v87IsolateERKNS_15DOMWrapperWorldENS1_5LocalINS1_8TemplateEEES9_S9_E15kOperationTable to %"struct.blink::bindings::IDLMemberInstaller::OperationConfig"*), %"struct.blink::bindings::IDLMemberInstaller::OperationConfig"** %19, align 8
  tail call void @_ZN5blink8bindings18IDLMemberInstaller17InstallOperationsEPN2v87IsolateERKNS_15DOMWrapperWorldENS2_5LocalINS2_8TemplateEEESA_SA_NS8_INS2_9SignatureEEEN4base4spanIKNS1_15OperationConfigELm18446744073709551615EEE(%"class.v8::Isolate"* %0, %"class.blink::DOMWrapperWorld"* dereferenceable(32) %1, %"class.v8::Template"* %11, %"class.v8::Template"* %12, %"class.v8::Template"* %2, %"class.v8::Signature"* %15, %"class.base::span.181"* nonnull byval(%"class.base::span.181") align 8 %5) #6
  call void @llvm.lifetime.end.p0i8(i64 16, i8* nonnull %13)
  call void @llvm.lifetime.end.p0i8(i64 16, i8* nonnull %14)
  ret void
}

; Function Attrs: argmemonly nounwind
declare void @llvm.lifetime.start.p0i8(i64 immarg, i8* nocapture) #1

declare %"class.v8::ObjectTemplate"* @_ZN2v816FunctionTemplate16InstanceTemplateEv(%"class.v8::FunctionTemplate"*) local_unnamed_addr #2

declare %"class.v8::ObjectTemplate"* @_ZN2v816FunctionTemplate17PrototypeTemplateEv(%"class.v8::FunctionTemplate"*) local_unnamed_addr #2

declare %"class.v8::Template"* @_ZNK5blink15WrapperTypeInfo18GetV8ClassTemplateEPN2v87IsolateERKNS_15DOMWrapperWorldE(%"struct.blink::WrapperTypeInfo"*, %"class.v8::Isolate"*, %"class.blink::DOMWrapperWorld"* dereferenceable(32)) local_unnamed_addr #2

; Function Attrs: argmemonly nounwind
declare void @llvm.lifetime.end.p0i8(i64 immarg, i8* nocapture) #1

declare void @_ZN5blink8bindings25SetupIDLInterfaceTemplateEPN2v87IsolateEPKNS_15WrapperTypeInfoENS1_5LocalINS1_14ObjectTemplateEEES9_NS7_INS1_16FunctionTemplateEEESB_(%"class.v8::Isolate"*, %"struct.blink::WrapperTypeInfo"*, %"class.v8::ObjectTemplate"*, %"class.v8::ObjectTemplate"*, %"class.v8::FunctionTemplate"*, %"class.v8::FunctionTemplate"*) local_unnamed_addr #2

; Function Attrs: nounwind ssp uwtable
define hidden void @_ZN5blink17V8SVGImageElement30InstallUnconditionalPropertiesEPN2v87IsolateERKNS_15DOMWrapperWorldENS1_5LocalINS1_8TemplateEEES9_S9_(%"class.v8::Isolate"*, %"class.blink::DOMWrapperWorld"* dereferenceable(32), %"class.v8::Template"*, %"class.v8::Template"*, %"class.v8::Template"*) local_unnamed_addr #0 align 2 {
  %6 = alloca %"class.base::span", align 8
  %7 = alloca %"class.base::span.181", align 8
  %8 = bitcast %"class.v8::Template"* %4 to %"class.v8::FunctionTemplate"*
  %9 = tail call %"class.v8::Signature"* @_ZN2v89Signature3NewEPNS_7IsolateENS_5LocalINS_16FunctionTemplateEEE(%"class.v8::Isolate"* %0, %"class.v8::FunctionTemplate"* %8) #6
  %10 = getelementptr inbounds %"class.base::span", %"class.base::span"* %6, i64 0, i32 0, i32 0
  store i64 7, i64* %10, align 8
  %11 = getelementptr inbounds %"class.base::span", %"class.base::span"* %6, i64 0, i32 1
  store %"struct.blink::bindings::IDLMemberInstaller::AttributeConfig"* bitcast ([7 x { i8*, void (%"class.v8::FunctionCallbackInfo"*)*, void (%"class.v8::FunctionCallbackInfo"*)*, i8, i8 }]* @_ZZN5blink17V8SVGImageElement30InstallUnconditionalPropertiesEPN2v87IsolateERKNS_15DOMWrapperWorldENS1_5LocalINS1_8TemplateEEES9_S9_E15kAttributeTable to %"struct.blink::bindings::IDLMemberInstaller::AttributeConfig"*), %"struct.blink::bindings::IDLMemberInstaller::AttributeConfig"** %11, align 8
  tail call void @_ZN5blink8bindings18IDLMemberInstaller17InstallAttributesEPN2v87IsolateERKNS_15DOMWrapperWorldENS2_5LocalINS2_8TemplateEEESA_SA_NS8_INS2_9SignatureEEEN4base4spanIKNS1_15AttributeConfigELm18446744073709551615EEE(%"class.v8::Isolate"* %0, %"class.blink::DOMWrapperWorld"* dereferenceable(32) %1, %"class.v8::Template"* %2, %"class.v8::Template"* %3, %"class.v8::Template"* %4, %"class.v8::Signature"* %9, %"class.base::span"* nonnull byval(%"class.base::span") align 8 %6) #6
  %12 = getelementptr inbounds %"class.base::span.181", %"class.base::span.181"* %7, i64 0, i32 0, i32 0
  store i64 1, i64* %12, align 8
  %13 = getelementptr inbounds %"class.base::span.181", %"class.base::span.181"* %7, i64 0, i32 1
  store %"struct.blink::bindings::IDLMemberInstaller::OperationConfig"* bitcast ([1 x { i8*, void (%"class.v8::FunctionCallbackInfo"*)*, i8, i8, i8 }]* @_ZZN5blink17V8SVGImageElement30InstallUnconditionalPropertiesEPN2v87IsolateERKNS_15DOMWrapperWorldENS1_5LocalINS1_8TemplateEEES9_S9_E15kOperationTable to %"struct.blink::bindings::IDLMemberInstaller::OperationConfig"*), %"struct.blink::bindings::IDLMemberInstaller::OperationConfig"** %13, align 8
  tail call void @_ZN5blink8bindings18IDLMemberInstaller17InstallOperationsEPN2v87IsolateERKNS_15DOMWrapperWorldENS2_5LocalINS2_8TemplateEEESA_SA_NS8_INS2_9SignatureEEEN4base4spanIKNS1_15OperationConfigELm18446744073709551615EEE(%"class.v8::Isolate"* %0, %"class.blink::DOMWrapperWorld"* dereferenceable(32) %1, %"class.v8::Template"* %2, %"class.v8::Template"* %3, %"class.v8::Template"* %4, %"class.v8::Signature"* %9, %"class.base::span.181"* nonnull byval(%"class.base::span.181") align 8 %7) #6
  ret void
}

declare %"class.v8::Signature"* @_ZN2v89Signature3NewEPNS_7IsolateENS_5LocalINS_16FunctionTemplateEEE(%"class.v8::Isolate"*, %"class.v8::FunctionTemplate"*) local_unnamed_addr #2

; Function Attrs: nounwind ssp uwtable
define internal void @_ZN5blink12_GLOBAL__N_120v8_svg_image_element21XAttributeGetCallbackERKN2v820FunctionCallbackInfoINS2_5ValueEEE(%"class.v8::FunctionCallbackInfo"* nocapture readonly dereferenceable(24)) #0 {
  %2 = getelementptr inbounds %"class.v8::FunctionCallbackInfo", %"class.v8::FunctionCallbackInfo"* %0, i64 0, i32 0
  %3 = load i64*, i64** %2, align 8
  %4 = getelementptr inbounds i64, i64* %3, i64 1
  %5 = bitcast i64* %4 to %"class.v8::Isolate"**
  %6 = load %"class.v8::Isolate"*, %"class.v8::Isolate"** %5, align 8
  %7 = tail call %"class.v8::Context"* @_ZN2v87Isolate17GetCurrentContextEv(%"class.v8::Isolate"* %6) #6
  %8 = tail call %"class.blink::ExecutionContext"* @_ZN5blink16ExecutionContext4FromEN2v85LocalINS1_7ContextEEE(%"class.v8::Context"* %7) #6
  %9 = icmp eq %"class.blink::ExecutionContext"* %8, null
  %10 = getelementptr inbounds %"class.blink::ExecutionContext", %"class.blink::ExecutionContext"* %8, i64 0, i32 3
  %11 = icmp eq %"class.blink::UseCounter"* %10, null
  %12 = or i1 %9, %11
  br i1 %12, label %18, label %13

13:                                               ; preds = %1
  %14 = bitcast %"class.blink::UseCounter"* %10 to void (%"class.blink::UseCounter"*, i32)***
  %15 = load void (%"class.blink::UseCounter"*, i32)**, void (%"class.blink::UseCounter"*, i32)*** %14, align 8
  %16 = getelementptr inbounds void (%"class.blink::UseCounter"*, i32)*, void (%"class.blink::UseCounter"*, i32)** %15, i64 3
  %17 = load void (%"class.blink::UseCounter"*, i32)*, void (%"class.blink::UseCounter"*, i32)** %16, align 8
  tail call void %17(%"class.blink::UseCounter"* nonnull %10, i32 1115) #6
  br label %18

18:                                               ; preds = %1, %13
  %19 = getelementptr inbounds %"class.v8::FunctionCallbackInfo", %"class.v8::FunctionCallbackInfo"* %0, i64 0, i32 1
  %20 = load i64*, i64** %19, align 8
  %21 = getelementptr inbounds i64, i64* %20, i64 -1
  %22 = load i64, i64* %21, align 8
  %23 = add i64 %22, -1
  %24 = inttoptr i64 %23 to i32*
  %25 = load i32, i32* %24, align 4
  %26 = and i64 %22, -4294967296
  %27 = zext i32 %25 to i64
  %28 = or i64 %26, %27
  %29 = add i64 %28, 7
  %30 = inttoptr i64 %29 to i16*
  %31 = load i16, i16* %30, align 2
  switch i16 %31, label %36 [
    i16 1057, label %32
    i16 1056, label %32
    i16 1040, label %32
  ]

32:                                               ; preds = %18, %18, %18
  %33 = add i64 %22, 19
  %34 = inttoptr i64 %33 to i8**
  %35 = load i8*, i8** %34, align 1
  br label %39

36:                                               ; preds = %18
  %37 = bitcast i64* %21 to %"class.v8::Object"*
  %38 = tail call i8* @_ZN2v86Object38SlowGetAlignedPointerFromInternalFieldEi(%"class.v8::Object"* %37, i32 1) #6
  br label %39

39:                                               ; preds = %32, %36
  %40 = phi i8* [ %35, %32 ], [ %38, %36 ]
  %41 = getelementptr inbounds i8, i8* %40, i64 256
  %42 = bitcast i8* %41 to %"class.blink::SVGAnimatedLength"**
  %43 = load %"class.blink::SVGAnimatedLength"*, %"class.blink::SVGAnimatedLength"** %42, align 8
  %44 = getelementptr inbounds %"class.blink::SVGAnimatedLength", %"class.blink::SVGAnimatedLength"* %43, i64 0, i32 0
  %45 = icmp eq %"class.blink::SVGAnimatedLength"* %43, null
  %46 = load i64*, i64** %2, align 8
  %47 = getelementptr inbounds i64, i64* %46, i64 3
  br i1 %45, label %48, label %54, !prof !2

48:                                               ; preds = %39
  %49 = getelementptr inbounds i64, i64* %46, i64 1
  %50 = load i64, i64* %49, align 8
  %51 = add i64 %50, 176
  %52 = inttoptr i64 %51 to i64*
  %53 = load i64, i64* %52, align 8
  store i64 %53, i64* %47, align 8
  br label %77

54:                                               ; preds = %39
  %55 = bitcast i8* %40 to %"class.blink::ScriptWrappable"*
  %56 = load i64*, i64** %19, align 8
  %57 = getelementptr inbounds i64, i64* %56, i64 -1
  %58 = bitcast i64* %57 to %"class.v8::Object"*
  %59 = tail call zeroext i1 @_ZN5blink12DOMDataStore18SetReturnValueFastEN2v811ReturnValueINS1_5ValueEEEPNS_15ScriptWrappableENS1_5LocalINS1_6ObjectEEEPKS5_(i64* %47, %"class.blink::ScriptWrappable"* nonnull %44, %"class.v8::Object"* %58, %"class.blink::ScriptWrappable"* %55) #6
  br i1 %59, label %77, label %60

60:                                               ; preds = %54
  %61 = load i64*, i64** %19, align 8
  %62 = getelementptr inbounds i64, i64* %61, i64 -1
  %63 = bitcast i64* %62 to %"class.v8::Object"*
  %64 = tail call %"class.v8::Context"* @_ZN2v86Object15CreationContextEv(%"class.v8::Object"* %63) #6
  %65 = tail call %"class.blink::ScriptState"* @_ZN5blink11ScriptState4FromEN2v85LocalINS1_7ContextEEE(%"class.v8::Context"* %64) #6
  %66 = bitcast %"class.blink::SVGAnimatedLength"* %43 to %"class.v8::Value"* (%"class.blink::ScriptWrappable"*, %"class.blink::ScriptState"*)***
  %67 = load %"class.v8::Value"* (%"class.blink::ScriptWrappable"*, %"class.blink::ScriptState"*)**, %"class.v8::Value"* (%"class.blink::ScriptWrappable"*, %"class.blink::ScriptState"*)*** %66, align 8
  %68 = getelementptr inbounds %"class.v8::Value"* (%"class.blink::ScriptWrappable"*, %"class.blink::ScriptState"*)*, %"class.v8::Value"* (%"class.blink::ScriptWrappable"*, %"class.blink::ScriptState"*)** %67, i64 7
  %69 = load %"class.v8::Value"* (%"class.blink::ScriptWrappable"*, %"class.blink::ScriptState"*)*, %"class.v8::Value"* (%"class.blink::ScriptWrappable"*, %"class.blink::ScriptState"*)** %68, align 8
  %70 = tail call %"class.v8::Value"* %69(%"class.blink::ScriptWrappable"* nonnull %44, %"class.blink::ScriptState"* %65) #6
  %71 = icmp eq %"class.v8::Value"* %70, null
  br i1 %71, label %77, label %72

72:                                               ; preds = %60
  %73 = load i64*, i64** %2, align 8
  %74 = getelementptr inbounds i64, i64* %73, i64 3
  %75 = bitcast %"class.v8::Value"* %70 to i64*
  %76 = load i64, i64* %75, align 8
  store i64 %76, i64* %74, align 8
  br label %77

77:                                               ; preds = %48, %54, %60, %72
  ret void
}

; Function Attrs: nounwind ssp uwtable
define internal void @_ZN5blink12_GLOBAL__N_120v8_svg_image_element21YAttributeGetCallbackERKN2v820FunctionCallbackInfoINS2_5ValueEEE(%"class.v8::FunctionCallbackInfo"* nocapture readonly dereferenceable(24)) #0 {
  %2 = getelementptr inbounds %"class.v8::FunctionCallbackInfo", %"class.v8::FunctionCallbackInfo"* %0, i64 0, i32 0
  %3 = load i64*, i64** %2, align 8
  %4 = getelementptr inbounds i64, i64* %3, i64 1
  %5 = bitcast i64* %4 to %"class.v8::Isolate"**
  %6 = load %"class.v8::Isolate"*, %"class.v8::Isolate"** %5, align 8
  %7 = tail call %"class.v8::Context"* @_ZN2v87Isolate17GetCurrentContextEv(%"class.v8::Isolate"* %6) #6
  %8 = tail call %"class.blink::ExecutionContext"* @_ZN5blink16ExecutionContext4FromEN2v85LocalINS1_7ContextEEE(%"class.v8::Context"* %7) #6
  %9 = icmp eq %"class.blink::ExecutionContext"* %8, null
  %10 = getelementptr inbounds %"class.blink::ExecutionContext", %"class.blink::ExecutionContext"* %8, i64 0, i32 3
  %11 = icmp eq %"class.blink::UseCounter"* %10, null
  %12 = or i1 %9, %11
  br i1 %12, label %18, label %13

13:                                               ; preds = %1
  %14 = bitcast %"class.blink::UseCounter"* %10 to void (%"class.blink::UseCounter"*, i32)***
  %15 = load void (%"class.blink::UseCounter"*, i32)**, void (%"class.blink::UseCounter"*, i32)*** %14, align 8
  %16 = getelementptr inbounds void (%"class.blink::UseCounter"*, i32)*, void (%"class.blink::UseCounter"*, i32)** %15, i64 3
  %17 = load void (%"class.blink::UseCounter"*, i32)*, void (%"class.blink::UseCounter"*, i32)** %16, align 8
  tail call void %17(%"class.blink::UseCounter"* nonnull %10, i32 1115) #6
  br label %18

18:                                               ; preds = %1, %13
  %19 = getelementptr inbounds %"class.v8::FunctionCallbackInfo", %"class.v8::FunctionCallbackInfo"* %0, i64 0, i32 1
  %20 = load i64*, i64** %19, align 8
  %21 = getelementptr inbounds i64, i64* %20, i64 -1
  %22 = load i64, i64* %21, align 8
  %23 = add i64 %22, -1
  %24 = inttoptr i64 %23 to i32*
  %25 = load i32, i32* %24, align 4
  %26 = and i64 %22, -4294967296
  %27 = zext i32 %25 to i64
  %28 = or i64 %26, %27
  %29 = add i64 %28, 7
  %30 = inttoptr i64 %29 to i16*
  %31 = load i16, i16* %30, align 2
  switch i16 %31, label %36 [
    i16 1057, label %32
    i16 1056, label %32
    i16 1040, label %32
  ]

32:                                               ; preds = %18, %18, %18
  %33 = add i64 %22, 19
  %34 = inttoptr i64 %33 to i8**
  %35 = load i8*, i8** %34, align 1
  br label %39

36:                                               ; preds = %18
  %37 = bitcast i64* %21 to %"class.v8::Object"*
  %38 = tail call i8* @_ZN2v86Object38SlowGetAlignedPointerFromInternalFieldEi(%"class.v8::Object"* %37, i32 1) #6
  br label %39

39:                                               ; preds = %32, %36
  %40 = phi i8* [ %35, %32 ], [ %38, %36 ]
  %41 = getelementptr inbounds i8, i8* %40, i64 264
  %42 = bitcast i8* %41 to %"class.blink::SVGAnimatedLength"**
  %43 = load %"class.blink::SVGAnimatedLength"*, %"class.blink::SVGAnimatedLength"** %42, align 8
  %44 = getelementptr inbounds %"class.blink::SVGAnimatedLength", %"class.blink::SVGAnimatedLength"* %43, i64 0, i32 0
  %45 = icmp eq %"class.blink::SVGAnimatedLength"* %43, null
  %46 = load i64*, i64** %2, align 8
  %47 = getelementptr inbounds i64, i64* %46, i64 3
  br i1 %45, label %48, label %54, !prof !2

48:                                               ; preds = %39
  %49 = getelementptr inbounds i64, i64* %46, i64 1
  %50 = load i64, i64* %49, align 8
  %51 = add i64 %50, 176
  %52 = inttoptr i64 %51 to i64*
  %53 = load i64, i64* %52, align 8
  store i64 %53, i64* %47, align 8
  br label %77

54:                                               ; preds = %39
  %55 = bitcast i8* %40 to %"class.blink::ScriptWrappable"*
  %56 = load i64*, i64** %19, align 8
  %57 = getelementptr inbounds i64, i64* %56, i64 -1
  %58 = bitcast i64* %57 to %"class.v8::Object"*
  %59 = tail call zeroext i1 @_ZN5blink12DOMDataStore18SetReturnValueFastEN2v811ReturnValueINS1_5ValueEEEPNS_15ScriptWrappableENS1_5LocalINS1_6ObjectEEEPKS5_(i64* %47, %"class.blink::ScriptWrappable"* nonnull %44, %"class.v8::Object"* %58, %"class.blink::ScriptWrappable"* %55) #6
  br i1 %59, label %77, label %60

60:                                               ; preds = %54
  %61 = load i64*, i64** %19, align 8
  %62 = getelementptr inbounds i64, i64* %61, i64 -1
  %63 = bitcast i64* %62 to %"class.v8::Object"*
  %64 = tail call %"class.v8::Context"* @_ZN2v86Object15CreationContextEv(%"class.v8::Object"* %63) #6
  %65 = tail call %"class.blink::ScriptState"* @_ZN5blink11ScriptState4FromEN2v85LocalINS1_7ContextEEE(%"class.v8::Context"* %64) #6
  %66 = bitcast %"class.blink::SVGAnimatedLength"* %43 to %"class.v8::Value"* (%"class.blink::ScriptWrappable"*, %"class.blink::ScriptState"*)***
  %67 = load %"class.v8::Value"* (%"class.blink::ScriptWrappable"*, %"class.blink::ScriptState"*)**, %"class.v8::Value"* (%"class.blink::ScriptWrappable"*, %"class.blink::ScriptState"*)*** %66, align 8
  %68 = getelementptr inbounds %"class.v8::Value"* (%"class.blink::ScriptWrappable"*, %"class.blink::ScriptState"*)*, %"class.v8::Value"* (%"class.blink::ScriptWrappable"*, %"class.blink::ScriptState"*)** %67, i64 7
  %69 = load %"class.v8::Value"* (%"class.blink::ScriptWrappable"*, %"class.blink::ScriptState"*)*, %"class.v8::Value"* (%"class.blink::ScriptWrappable"*, %"class.blink::ScriptState"*)** %68, align 8
  %70 = tail call %"class.v8::Value"* %69(%"class.blink::ScriptWrappable"* nonnull %44, %"class.blink::ScriptState"* %65) #6
  %71 = icmp eq %"class.v8::Value"* %70, null
  br i1 %71, label %77, label %72

72:                                               ; preds = %60
  %73 = load i64*, i64** %2, align 8
  %74 = getelementptr inbounds i64, i64* %73, i64 3
  %75 = bitcast %"class.v8::Value"* %70 to i64*
  %76 = load i64, i64* %75, align 8
  store i64 %76, i64* %74, align 8
  br label %77

77:                                               ; preds = %48, %54, %60, %72
  ret void
}

; Function Attrs: nounwind ssp uwtable
define internal void @_ZN5blink12_GLOBAL__N_120v8_svg_image_element25WidthAttributeGetCallbackERKN2v820FunctionCallbackInfoINS2_5ValueEEE(%"class.v8::FunctionCallbackInfo"* nocapture readonly dereferenceable(24)) #0 {
  %2 = getelementptr inbounds %"class.v8::FunctionCallbackInfo", %"class.v8::FunctionCallbackInfo"* %0, i64 0, i32 0
  %3 = load i64*, i64** %2, align 8
  %4 = getelementptr inbounds i64, i64* %3, i64 1
  %5 = bitcast i64* %4 to %"class.v8::Isolate"**
  %6 = load %"class.v8::Isolate"*, %"class.v8::Isolate"** %5, align 8
  %7 = tail call %"class.v8::Context"* @_ZN2v87Isolate17GetCurrentContextEv(%"class.v8::Isolate"* %6) #6
  %8 = tail call %"class.blink::ExecutionContext"* @_ZN5blink16ExecutionContext4FromEN2v85LocalINS1_7ContextEEE(%"class.v8::Context"* %7) #6
  %9 = icmp eq %"class.blink::ExecutionContext"* %8, null
  %10 = getelementptr inbounds %"class.blink::ExecutionContext", %"class.blink::ExecutionContext"* %8, i64 0, i32 3
  %11 = icmp eq %"class.blink::UseCounter"* %10, null
  %12 = or i1 %9, %11
  br i1 %12, label %18, label %13

13:                                               ; preds = %1
  %14 = bitcast %"class.blink::UseCounter"* %10 to void (%"class.blink::UseCounter"*, i32)***
  %15 = load void (%"class.blink::UseCounter"*, i32)**, void (%"class.blink::UseCounter"*, i32)*** %14, align 8
  %16 = getelementptr inbounds void (%"class.blink::UseCounter"*, i32)*, void (%"class.blink::UseCounter"*, i32)** %15, i64 3
  %17 = load void (%"class.blink::UseCounter"*, i32)*, void (%"class.blink::UseCounter"*, i32)** %16, align 8
  tail call void %17(%"class.blink::UseCounter"* nonnull %10, i32 1115) #6
  br label %18

18:                                               ; preds = %1, %13
  %19 = getelementptr inbounds %"class.v8::FunctionCallbackInfo", %"class.v8::FunctionCallbackInfo"* %0, i64 0, i32 1
  %20 = load i64*, i64** %19, align 8
  %21 = getelementptr inbounds i64, i64* %20, i64 -1
  %22 = load i64, i64* %21, align 8
  %23 = add i64 %22, -1
  %24 = inttoptr i64 %23 to i32*
  %25 = load i32, i32* %24, align 4
  %26 = and i64 %22, -4294967296
  %27 = zext i32 %25 to i64
  %28 = or i64 %26, %27
  %29 = add i64 %28, 7
  %30 = inttoptr i64 %29 to i16*
  %31 = load i16, i16* %30, align 2
  switch i16 %31, label %36 [
    i16 1057, label %32
    i16 1056, label %32
    i16 1040, label %32
  ]

32:                                               ; preds = %18, %18, %18
  %33 = add i64 %22, 19
  %34 = inttoptr i64 %33 to i8**
  %35 = load i8*, i8** %34, align 1
  br label %39

36:                                               ; preds = %18
  %37 = bitcast i64* %21 to %"class.v8::Object"*
  %38 = tail call i8* @_ZN2v86Object38SlowGetAlignedPointerFromInternalFieldEi(%"class.v8::Object"* %37, i32 1) #6
  br label %39

39:                                               ; preds = %32, %36
  %40 = phi i8* [ %35, %32 ], [ %38, %36 ]
  %41 = getelementptr inbounds i8, i8* %40, i64 272
  %42 = bitcast i8* %41 to %"class.blink::SVGAnimatedLength"**
  %43 = load %"class.blink::SVGAnimatedLength"*, %"class.blink::SVGAnimatedLength"** %42, align 8
  %44 = getelementptr inbounds %"class.blink::SVGAnimatedLength", %"class.blink::SVGAnimatedLength"* %43, i64 0, i32 0
  %45 = icmp eq %"class.blink::SVGAnimatedLength"* %43, null
  %46 = load i64*, i64** %2, align 8
  %47 = getelementptr inbounds i64, i64* %46, i64 3
  br i1 %45, label %48, label %54, !prof !2

48:                                               ; preds = %39
  %49 = getelementptr inbounds i64, i64* %46, i64 1
  %50 = load i64, i64* %49, align 8
  %51 = add i64 %50, 176
  %52 = inttoptr i64 %51 to i64*
  %53 = load i64, i64* %52, align 8
  store i64 %53, i64* %47, align 8
  br label %77

54:                                               ; preds = %39
  %55 = bitcast i8* %40 to %"class.blink::ScriptWrappable"*
  %56 = load i64*, i64** %19, align 8
  %57 = getelementptr inbounds i64, i64* %56, i64 -1
  %58 = bitcast i64* %57 to %"class.v8::Object"*
  %59 = tail call zeroext i1 @_ZN5blink12DOMDataStore18SetReturnValueFastEN2v811ReturnValueINS1_5ValueEEEPNS_15ScriptWrappableENS1_5LocalINS1_6ObjectEEEPKS5_(i64* %47, %"class.blink::ScriptWrappable"* nonnull %44, %"class.v8::Object"* %58, %"class.blink::ScriptWrappable"* %55) #6
  br i1 %59, label %77, label %60

60:                                               ; preds = %54
  %61 = load i64*, i64** %19, align 8
  %62 = getelementptr inbounds i64, i64* %61, i64 -1
  %63 = bitcast i64* %62 to %"class.v8::Object"*
  %64 = tail call %"class.v8::Context"* @_ZN2v86Object15CreationContextEv(%"class.v8::Object"* %63) #6
  %65 = tail call %"class.blink::ScriptState"* @_ZN5blink11ScriptState4FromEN2v85LocalINS1_7ContextEEE(%"class.v8::Context"* %64) #6
  %66 = bitcast %"class.blink::SVGAnimatedLength"* %43 to %"class.v8::Value"* (%"class.blink::ScriptWrappable"*, %"class.blink::ScriptState"*)***
  %67 = load %"class.v8::Value"* (%"class.blink::ScriptWrappable"*, %"class.blink::ScriptState"*)**, %"class.v8::Value"* (%"class.blink::ScriptWrappable"*, %"class.blink::ScriptState"*)*** %66, align 8
  %68 = getelementptr inbounds %"class.v8::Value"* (%"class.blink::ScriptWrappable"*, %"class.blink::ScriptState"*)*, %"class.v8::Value"* (%"class.blink::ScriptWrappable"*, %"class.blink::ScriptState"*)** %67, i64 7
  %69 = load %"class.v8::Value"* (%"class.blink::ScriptWrappable"*, %"class.blink::ScriptState"*)*, %"class.v8::Value"* (%"class.blink::ScriptWrappable"*, %"class.blink::ScriptState"*)** %68, align 8
  %70 = tail call %"class.v8::Value"* %69(%"class.blink::ScriptWrappable"* nonnull %44, %"class.blink::ScriptState"* %65) #6
  %71 = icmp eq %"class.v8::Value"* %70, null
  br i1 %71, label %77, label %72

72:                                               ; preds = %60
  %73 = load i64*, i64** %2, align 8
  %74 = getelementptr inbounds i64, i64* %73, i64 3
  %75 = bitcast %"class.v8::Value"* %70 to i64*
  %76 = load i64, i64* %75, align 8
  store i64 %76, i64* %74, align 8
  br label %77

77:                                               ; preds = %48, %54, %60, %72
  ret void
}

; Function Attrs: nounwind ssp uwtable
define internal void @_ZN5blink12_GLOBAL__N_120v8_svg_image_element26HeightAttributeGetCallbackERKN2v820FunctionCallbackInfoINS2_5ValueEEE(%"class.v8::FunctionCallbackInfo"* nocapture readonly dereferenceable(24)) #0 {
  %2 = getelementptr inbounds %"class.v8::FunctionCallbackInfo", %"class.v8::FunctionCallbackInfo"* %0, i64 0, i32 0
  %3 = load i64*, i64** %2, align 8
  %4 = getelementptr inbounds i64, i64* %3, i64 1
  %5 = bitcast i64* %4 to %"class.v8::Isolate"**
  %6 = load %"class.v8::Isolate"*, %"class.v8::Isolate"** %5, align 8
  %7 = tail call %"class.v8::Context"* @_ZN2v87Isolate17GetCurrentContextEv(%"class.v8::Isolate"* %6) #6
  %8 = tail call %"class.blink::ExecutionContext"* @_ZN5blink16ExecutionContext4FromEN2v85LocalINS1_7ContextEEE(%"class.v8::Context"* %7) #6
  %9 = icmp eq %"class.blink::ExecutionContext"* %8, null
  %10 = getelementptr inbounds %"class.blink::ExecutionContext", %"class.blink::ExecutionContext"* %8, i64 0, i32 3
  %11 = icmp eq %"class.blink::UseCounter"* %10, null
  %12 = or i1 %9, %11
  br i1 %12, label %18, label %13

13:                                               ; preds = %1
  %14 = bitcast %"class.blink::UseCounter"* %10 to void (%"class.blink::UseCounter"*, i32)***
  %15 = load void (%"class.blink::UseCounter"*, i32)**, void (%"class.blink::UseCounter"*, i32)*** %14, align 8
  %16 = getelementptr inbounds void (%"class.blink::UseCounter"*, i32)*, void (%"class.blink::UseCounter"*, i32)** %15, i64 3
  %17 = load void (%"class.blink::UseCounter"*, i32)*, void (%"class.blink::UseCounter"*, i32)** %16, align 8
  tail call void %17(%"class.blink::UseCounter"* nonnull %10, i32 1115) #6
  br label %18

18:                                               ; preds = %1, %13
  %19 = getelementptr inbounds %"class.v8::FunctionCallbackInfo", %"class.v8::FunctionCallbackInfo"* %0, i64 0, i32 1
  %20 = load i64*, i64** %19, align 8
  %21 = getelementptr inbounds i64, i64* %20, i64 -1
  %22 = load i64, i64* %21, align 8
  %23 = add i64 %22, -1
  %24 = inttoptr i64 %23 to i32*
  %25 = load i32, i32* %24, align 4
  %26 = and i64 %22, -4294967296
  %27 = zext i32 %25 to i64
  %28 = or i64 %26, %27
  %29 = add i64 %28, 7
  %30 = inttoptr i64 %29 to i16*
  %31 = load i16, i16* %30, align 2
  switch i16 %31, label %36 [
    i16 1057, label %32
    i16 1056, label %32
    i16 1040, label %32
  ]

32:                                               ; preds = %18, %18, %18
  %33 = add i64 %22, 19
  %34 = inttoptr i64 %33 to i8**
  %35 = load i8*, i8** %34, align 1
  br label %39

36:                                               ; preds = %18
  %37 = bitcast i64* %21 to %"class.v8::Object"*
  %38 = tail call i8* @_ZN2v86Object38SlowGetAlignedPointerFromInternalFieldEi(%"class.v8::Object"* %37, i32 1) #6
  br label %39

39:                                               ; preds = %32, %36
  %40 = phi i8* [ %35, %32 ], [ %38, %36 ]
  %41 = getelementptr inbounds i8, i8* %40, i64 280
  %42 = bitcast i8* %41 to %"class.blink::SVGAnimatedLength"**
  %43 = load %"class.blink::SVGAnimatedLength"*, %"class.blink::SVGAnimatedLength"** %42, align 8
  %44 = getelementptr inbounds %"class.blink::SVGAnimatedLength", %"class.blink::SVGAnimatedLength"* %43, i64 0, i32 0
  %45 = icmp eq %"class.blink::SVGAnimatedLength"* %43, null
  %46 = load i64*, i64** %2, align 8
  %47 = getelementptr inbounds i64, i64* %46, i64 3
  br i1 %45, label %48, label %54, !prof !2

48:                                               ; preds = %39
  %49 = getelementptr inbounds i64, i64* %46, i64 1
  %50 = load i64, i64* %49, align 8
  %51 = add i64 %50, 176
  %52 = inttoptr i64 %51 to i64*
  %53 = load i64, i64* %52, align 8
  store i64 %53, i64* %47, align 8
  br label %77

54:                                               ; preds = %39
  %55 = bitcast i8* %40 to %"class.blink::ScriptWrappable"*
  %56 = load i64*, i64** %19, align 8
  %57 = getelementptr inbounds i64, i64* %56, i64 -1
  %58 = bitcast i64* %57 to %"class.v8::Object"*
  %59 = tail call zeroext i1 @_ZN5blink12DOMDataStore18SetReturnValueFastEN2v811ReturnValueINS1_5ValueEEEPNS_15ScriptWrappableENS1_5LocalINS1_6ObjectEEEPKS5_(i64* %47, %"class.blink::ScriptWrappable"* nonnull %44, %"class.v8::Object"* %58, %"class.blink::ScriptWrappable"* %55) #6
  br i1 %59, label %77, label %60

60:                                               ; preds = %54
  %61 = load i64*, i64** %19, align 8
  %62 = getelementptr inbounds i64, i64* %61, i64 -1
  %63 = bitcast i64* %62 to %"class.v8::Object"*
  %64 = tail call %"class.v8::Context"* @_ZN2v86Object15CreationContextEv(%"class.v8::Object"* %63) #6
  %65 = tail call %"class.blink::ScriptState"* @_ZN5blink11ScriptState4FromEN2v85LocalINS1_7ContextEEE(%"class.v8::Context"* %64) #6
  %66 = bitcast %"class.blink::SVGAnimatedLength"* %43 to %"class.v8::Value"* (%"class.blink::ScriptWrappable"*, %"class.blink::ScriptState"*)***
  %67 = load %"class.v8::Value"* (%"class.blink::ScriptWrappable"*, %"class.blink::ScriptState"*)**, %"class.v8::Value"* (%"class.blink::ScriptWrappable"*, %"class.blink::ScriptState"*)*** %66, align 8
  %68 = getelementptr inbounds %"class.v8::Value"* (%"class.blink::ScriptWrappable"*, %"class.blink::ScriptState"*)*, %"class.v8::Value"* (%"class.blink::ScriptWrappable"*, %"class.blink::ScriptState"*)** %67, i64 7
  %69 = load %"class.v8::Value"* (%"class.blink::ScriptWrappable"*, %"class.blink::ScriptState"*)*, %"class.v8::Value"* (%"class.blink::ScriptWrappable"*, %"class.blink::ScriptState"*)** %68, align 8
  %70 = tail call %"class.v8::Value"* %69(%"class.blink::ScriptWrappable"* nonnull %44, %"class.blink::ScriptState"* %65) #6
  %71 = icmp eq %"class.v8::Value"* %70, null
  br i1 %71, label %77, label %72

72:                                               ; preds = %60
  %73 = load i64*, i64** %2, align 8
  %74 = getelementptr inbounds i64, i64* %73, i64 3
  %75 = bitcast %"class.v8::Value"* %70 to i64*
  %76 = load i64, i64* %75, align 8
  store i64 %76, i64* %74, align 8
  br label %77

77:                                               ; preds = %48, %54, %60, %72
  ret void
}

; Function Attrs: nounwind ssp uwtable
define internal void @_ZN5blink12_GLOBAL__N_120v8_svg_image_element39PreserveAspectRatioAttributeGetCallbackERKN2v820FunctionCallbackInfoINS2_5ValueEEE(%"class.v8::FunctionCallbackInfo"* nocapture readonly dereferenceable(24)) #0 {
  %2 = getelementptr inbounds %"class.v8::FunctionCallbackInfo", %"class.v8::FunctionCallbackInfo"* %0, i64 0, i32 0
  %3 = load i64*, i64** %2, align 8
  %4 = getelementptr inbounds i64, i64* %3, i64 1
  %5 = bitcast i64* %4 to %"class.v8::Isolate"**
  %6 = load %"class.v8::Isolate"*, %"class.v8::Isolate"** %5, align 8
  %7 = tail call %"class.v8::Context"* @_ZN2v87Isolate17GetCurrentContextEv(%"class.v8::Isolate"* %6) #6
  %8 = tail call %"class.blink::ExecutionContext"* @_ZN5blink16ExecutionContext4FromEN2v85LocalINS1_7ContextEEE(%"class.v8::Context"* %7) #6
  %9 = icmp eq %"class.blink::ExecutionContext"* %8, null
  %10 = getelementptr inbounds %"class.blink::ExecutionContext", %"class.blink::ExecutionContext"* %8, i64 0, i32 3
  %11 = icmp eq %"class.blink::UseCounter"* %10, null
  %12 = or i1 %9, %11
  br i1 %12, label %18, label %13

13:                                               ; preds = %1
  %14 = bitcast %"class.blink::UseCounter"* %10 to void (%"class.blink::UseCounter"*, i32)***
  %15 = load void (%"class.blink::UseCounter"*, i32)**, void (%"class.blink::UseCounter"*, i32)*** %14, align 8
  %16 = getelementptr inbounds void (%"class.blink::UseCounter"*, i32)*, void (%"class.blink::UseCounter"*, i32)** %15, i64 3
  %17 = load void (%"class.blink::UseCounter"*, i32)*, void (%"class.blink::UseCounter"*, i32)** %16, align 8
  tail call void %17(%"class.blink::UseCounter"* nonnull %10, i32 1115) #6
  br label %18

18:                                               ; preds = %1, %13
  %19 = getelementptr inbounds %"class.v8::FunctionCallbackInfo", %"class.v8::FunctionCallbackInfo"* %0, i64 0, i32 1
  %20 = load i64*, i64** %19, align 8
  %21 = getelementptr inbounds i64, i64* %20, i64 -1
  %22 = load i64, i64* %21, align 8
  %23 = add i64 %22, -1
  %24 = inttoptr i64 %23 to i32*
  %25 = load i32, i32* %24, align 4
  %26 = and i64 %22, -4294967296
  %27 = zext i32 %25 to i64
  %28 = or i64 %26, %27
  %29 = add i64 %28, 7
  %30 = inttoptr i64 %29 to i16*
  %31 = load i16, i16* %30, align 2
  switch i16 %31, label %36 [
    i16 1057, label %32
    i16 1056, label %32
    i16 1040, label %32
  ]

32:                                               ; preds = %18, %18, %18
  %33 = add i64 %22, 19
  %34 = inttoptr i64 %33 to i8**
  %35 = load i8*, i8** %34, align 1
  br label %39

36:                                               ; preds = %18
  %37 = bitcast i64* %21 to %"class.v8::Object"*
  %38 = tail call i8* @_ZN2v86Object38SlowGetAlignedPointerFromInternalFieldEi(%"class.v8::Object"* %37, i32 1) #6
  br label %39

39:                                               ; preds = %32, %36
  %40 = phi i8* [ %35, %32 ], [ %38, %36 ]
  %41 = getelementptr inbounds i8, i8* %40, i64 288
  %42 = bitcast i8* %41 to %"class.blink::SVGAnimatedPreserveAspectRatio"**
  %43 = load %"class.blink::SVGAnimatedPreserveAspectRatio"*, %"class.blink::SVGAnimatedPreserveAspectRatio"** %42, align 8
  %44 = getelementptr inbounds %"class.blink::SVGAnimatedPreserveAspectRatio", %"class.blink::SVGAnimatedPreserveAspectRatio"* %43, i64 0, i32 0
  %45 = icmp eq %"class.blink::SVGAnimatedPreserveAspectRatio"* %43, null
  %46 = load i64*, i64** %2, align 8
  %47 = getelementptr inbounds i64, i64* %46, i64 3
  br i1 %45, label %48, label %54, !prof !2

48:                                               ; preds = %39
  %49 = getelementptr inbounds i64, i64* %46, i64 1
  %50 = load i64, i64* %49, align 8
  %51 = add i64 %50, 176
  %52 = inttoptr i64 %51 to i64*
  %53 = load i64, i64* %52, align 8
  store i64 %53, i64* %47, align 8
  br label %77

54:                                               ; preds = %39
  %55 = bitcast i8* %40 to %"class.blink::ScriptWrappable"*
  %56 = load i64*, i64** %19, align 8
  %57 = getelementptr inbounds i64, i64* %56, i64 -1
  %58 = bitcast i64* %57 to %"class.v8::Object"*
  %59 = tail call zeroext i1 @_ZN5blink12DOMDataStore18SetReturnValueFastEN2v811ReturnValueINS1_5ValueEEEPNS_15ScriptWrappableENS1_5LocalINS1_6ObjectEEEPKS5_(i64* %47, %"class.blink::ScriptWrappable"* nonnull %44, %"class.v8::Object"* %58, %"class.blink::ScriptWrappable"* %55) #6
  br i1 %59, label %77, label %60

60:                                               ; preds = %54
  %61 = load i64*, i64** %19, align 8
  %62 = getelementptr inbounds i64, i64* %61, i64 -1
  %63 = bitcast i64* %62 to %"class.v8::Object"*
  %64 = tail call %"class.v8::Context"* @_ZN2v86Object15CreationContextEv(%"class.v8::Object"* %63) #6
  %65 = tail call %"class.blink::ScriptState"* @_ZN5blink11ScriptState4FromEN2v85LocalINS1_7ContextEEE(%"class.v8::Context"* %64) #6
  %66 = bitcast %"class.blink::SVGAnimatedPreserveAspectRatio"* %43 to %"class.v8::Value"* (%"class.blink::ScriptWrappable"*, %"class.blink::ScriptState"*)***
  %67 = load %"class.v8::Value"* (%"class.blink::ScriptWrappable"*, %"class.blink::ScriptState"*)**, %"class.v8::Value"* (%"class.blink::ScriptWrappable"*, %"class.blink::ScriptState"*)*** %66, align 8
  %68 = getelementptr inbounds %"class.v8::Value"* (%"class.blink::ScriptWrappable"*, %"class.blink::ScriptState"*)*, %"class.v8::Value"* (%"class.blink::ScriptWrappable"*, %"class.blink::ScriptState"*)** %67, i64 7
  %69 = load %"class.v8::Value"* (%"class.blink::ScriptWrappable"*, %"class.blink::ScriptState"*)*, %"class.v8::Value"* (%"class.blink::ScriptWrappable"*, %"class.blink::ScriptState"*)** %68, align 8
  %70 = tail call %"class.v8::Value"* %69(%"class.blink::ScriptWrappable"* nonnull %44, %"class.blink::ScriptState"* %65) #6
  %71 = icmp eq %"class.v8::Value"* %70, null
  br i1 %71, label %77, label %72

72:                                               ; preds = %60
  %73 = load i64*, i64** %2, align 8
  %74 = getelementptr inbounds i64, i64* %73, i64 3
  %75 = bitcast %"class.v8::Value"* %70 to i64*
  %76 = load i64, i64* %75, align 8
  store i64 %76, i64* %74, align 8
  br label %77

77:                                               ; preds = %48, %54, %60, %72
  ret void
}

; Function Attrs: nounwind ssp uwtable
define internal void @_ZN5blink12_GLOBAL__N_120v8_svg_image_element28DecodingAttributeGetCallbackERKN2v820FunctionCallbackInfoINS2_5ValueEEE(%"class.v8::FunctionCallbackInfo"* nocapture readonly dereferenceable(24)) #0 {
  %2 = alloca %"class.WTF::AtomicString", align 8
  %3 = getelementptr inbounds %"class.v8::FunctionCallbackInfo", %"class.v8::FunctionCallbackInfo"* %0, i64 0, i32 1
  %4 = load i64*, i64** %3, align 8
  %5 = getelementptr inbounds i64, i64* %4, i64 -1
  %6 = load i64, i64* %5, align 8
  %7 = add i64 %6, -1
  %8 = inttoptr i64 %7 to i32*
  %9 = load i32, i32* %8, align 4
  %10 = and i64 %6, -4294967296
  %11 = zext i32 %9 to i64
  %12 = or i64 %10, %11
  %13 = add i64 %12, 7
  %14 = inttoptr i64 %13 to i16*
  %15 = load i16, i16* %14, align 2
  switch i16 %15, label %20 [
    i16 1057, label %16
    i16 1056, label %16
    i16 1040, label %16
  ]

16:                                               ; preds = %1, %1, %1
  %17 = add i64 %6, 19
  %18 = inttoptr i64 %17 to i8**
  %19 = load i8*, i8** %18, align 1
  br label %23

20:                                               ; preds = %1
  %21 = bitcast i64* %5 to %"class.v8::Object"*
  %22 = tail call i8* @_ZN2v86Object38SlowGetAlignedPointerFromInternalFieldEi(%"class.v8::Object"* %21, i32 1) #6
  br label %23

23:                                               ; preds = %16, %20
  %24 = phi i8* [ %19, %16 ], [ %22, %20 ]
  %25 = bitcast %"class.WTF::AtomicString"* %2 to i8*
  call void @llvm.lifetime.start.p0i8(i64 8, i8* nonnull %25) #6
  %26 = getelementptr inbounds %"class.WTF::AtomicString", %"class.WTF::AtomicString"* %2, i64 0, i32 0, i32 0, i32 0
  store %"class.WTF::StringImpl"* inttoptr (i64 -6148914691236517206 to %"class.WTF::StringImpl"*), %"class.WTF::StringImpl"** %26, align 8
  %27 = load %"class.blink::QualifiedName"*, %"class.blink::QualifiedName"** @_ZN5blink9svg_names13kDecodingAttrE, align 8
  %28 = getelementptr inbounds i8, i8* %24, i64 96
  %29 = bitcast i8* %28 to %"class.blink::ElementData"**
  %30 = load %"class.blink::ElementData"*, %"class.blink::ElementData"** %29, align 8
  %31 = icmp eq %"class.blink::ElementData"* %30, null
  br i1 %31, label %82, label %32

32:                                               ; preds = %23
  %33 = getelementptr inbounds %"class.blink::ElementData", %"class.blink::ElementData"* %30, i64 0, i32 0, i32 0, i32 0
  %34 = load i32, i32* %33, align 4
  %35 = and i32 %34, 1
  %36 = icmp eq i32 %35, 0
  br i1 %36, label %44, label %37

37:                                               ; preds = %32
  %38 = bitcast %"class.blink::ElementData"* %30 to %"class.blink::UniqueElementData"*
  %39 = getelementptr inbounds %"class.blink::ElementData", %"class.blink::ElementData"* %30, i64 1, i32 1
  %40 = bitcast %"class.blink::Member.280"* %39 to %"class.blink::Attribute"**
  %41 = load %"class.blink::Attribute"*, %"class.blink::Attribute"** %40, align 8
  %42 = getelementptr inbounds %"class.blink::UniqueElementData", %"class.blink::UniqueElementData"* %38, i64 0, i32 2, i32 0, i32 0, i32 2
  %43 = load i32, i32* %42, align 4
  br label %49

44:                                               ; preds = %32
  %45 = getelementptr inbounds %"class.blink::ElementData", %"class.blink::ElementData"* %30, i64 1
  %46 = bitcast %"class.blink::ElementData"* %45 to %"class.blink::Attribute"*
  %47 = lshr i32 %34, 1
  %48 = and i32 %47, 268435455
  br label %49

49:                                               ; preds = %44, %37
  %50 = phi %"class.blink::Attribute"* [ %46, %44 ], [ %41, %37 ]
  %51 = phi i32 [ %48, %44 ], [ %43, %37 ]
  %52 = zext i32 %51 to i64
  %53 = getelementptr inbounds %"class.blink::Attribute", %"class.blink::Attribute"* %50, i64 %52
  %54 = icmp eq i32 %51, 0
  br i1 %54, label %82, label %55

55:                                               ; preds = %49
  %56 = getelementptr inbounds %"class.blink::QualifiedName", %"class.blink::QualifiedName"* %27, i64 0, i32 0, i32 0
  %57 = load %"class.blink::QualifiedName::QualifiedNameImpl"*, %"class.blink::QualifiedName::QualifiedNameImpl"** %56, align 8
  %58 = getelementptr inbounds %"class.blink::QualifiedName::QualifiedNameImpl", %"class.blink::QualifiedName::QualifiedNameImpl"* %57, i64 0, i32 3, i32 0, i32 0, i32 0
  %59 = getelementptr inbounds %"class.blink::QualifiedName::QualifiedNameImpl", %"class.blink::QualifiedName::QualifiedNameImpl"* %57, i64 0, i32 4, i32 0, i32 0, i32 0
  br label %60

60:                                               ; preds = %75, %55
  %61 = phi %"class.blink::Attribute"* [ %50, %55 ], [ %76, %75 ]
  %62 = getelementptr inbounds %"class.blink::Attribute", %"class.blink::Attribute"* %61, i64 0, i32 0, i32 0, i32 0
  %63 = load %"class.blink::QualifiedName::QualifiedNameImpl"*, %"class.blink::QualifiedName::QualifiedNameImpl"** %62, align 8
  %64 = icmp eq %"class.blink::QualifiedName::QualifiedNameImpl"* %63, %57
  br i1 %64, label %78, label %65

65:                                               ; preds = %60
  %66 = getelementptr inbounds %"class.blink::QualifiedName::QualifiedNameImpl", %"class.blink::QualifiedName::QualifiedNameImpl"* %63, i64 0, i32 3, i32 0, i32 0, i32 0
  %67 = load %"class.WTF::StringImpl"*, %"class.WTF::StringImpl"** %66, align 8
  %68 = load %"class.WTF::StringImpl"*, %"class.WTF::StringImpl"** %58, align 8
  %69 = icmp eq %"class.WTF::StringImpl"* %67, %68
  br i1 %69, label %70, label %75

70:                                               ; preds = %65
  %71 = getelementptr inbounds %"class.blink::QualifiedName::QualifiedNameImpl", %"class.blink::QualifiedName::QualifiedNameImpl"* %63, i64 0, i32 4, i32 0, i32 0, i32 0
  %72 = load %"class.WTF::StringImpl"*, %"class.WTF::StringImpl"** %71, align 8
  %73 = load %"class.WTF::StringImpl"*, %"class.WTF::StringImpl"** %59, align 8
  %74 = icmp eq %"class.WTF::StringImpl"* %72, %73
  br i1 %74, label %78, label %75

75:                                               ; preds = %70, %65
  %76 = getelementptr inbounds %"class.blink::Attribute", %"class.blink::Attribute"* %61, i64 1
  %77 = icmp eq %"class.blink::Attribute"* %76, %53
  br i1 %77, label %82, label %60

78:                                               ; preds = %70, %60
  %79 = icmp eq %"class.blink::Attribute"* %61, null
  br i1 %79, label %82, label %80

80:                                               ; preds = %78
  %81 = getelementptr inbounds %"class.blink::Attribute", %"class.blink::Attribute"* %61, i64 0, i32 1
  br label %84

82:                                               ; preds = %75, %78, %49, %23
  %83 = load %"class.WTF::AtomicString"*, %"class.WTF::AtomicString"** @_ZN3WTF11g_null_atomE, align 8
  br label %84

84:                                               ; preds = %80, %82
  %85 = phi %"class.WTF::AtomicString"* [ %83, %82 ], [ %81, %80 ]
  %86 = getelementptr inbounds %"class.WTF::AtomicString", %"class.WTF::AtomicString"* %85, i64 0, i32 0, i32 0, i32 0
  %87 = load %"class.WTF::StringImpl"*, %"class.WTF::StringImpl"** %86, align 8
  store %"class.WTF::StringImpl"* %87, %"class.WTF::StringImpl"** %26, align 8
  %88 = icmp eq %"class.WTF::StringImpl"* %87, null
  br i1 %88, label %106, label %89

89:                                               ; preds = %84
  %90 = getelementptr inbounds %"class.WTF::StringImpl", %"class.WTF::StringImpl"* %87, i64 0, i32 2, i32 0, i32 0, i32 0, i32 0, i32 0
  %91 = load atomic i32, i32* %90 monotonic, align 4
  %92 = and i32 %91, 2
  %93 = icmp eq i32 %92, 0
  br i1 %93, label %94, label %106

94:                                               ; preds = %89
  %95 = getelementptr inbounds %"class.WTF::StringImpl", %"class.WTF::StringImpl"* %87, i64 0, i32 0
  %96 = load i32, i32* %95, align 4
  %97 = zext i32 %96 to i33
  %98 = tail call { i33, i1 } @llvm.sadd.with.overflow.i33(i33 %97, i33 1) #6
  %99 = extractvalue { i33, i1 } %98, 1
  %100 = extractvalue { i33, i1 } %98, 0
  %101 = icmp slt i33 %100, 0
  %102 = or i1 %99, %101
  br i1 %102, label %103, label %104, !prof !2

103:                                              ; preds = %94
  tail call void @llvm.trap() #6
  unreachable

104:                                              ; preds = %94
  %105 = trunc i33 %100 to i32
  store i32 %105, i32* %95, align 4
  br label %106

106:                                              ; preds = %84, %89, %104
  %107 = call %"class.WTF::StringImpl"* @_ZNK3WTF12AtomicString10LowerASCIIEv(%"class.WTF::AtomicString"* nonnull %2) #6
  %108 = icmp eq %"class.WTF::StringImpl"* %107, null
  br i1 %108, label %109, label %149

109:                                              ; preds = %106
  %110 = load %"class.WTF::AtomicString"*, %"class.WTF::AtomicString"** @_ZN5blink8keywords5kAutoE, align 8
  %111 = getelementptr inbounds %"class.WTF::AtomicString", %"class.WTF::AtomicString"* %110, i64 0, i32 0, i32 0, i32 0
  %112 = load %"class.WTF::StringImpl"*, %"class.WTF::StringImpl"** %111, align 8
  %113 = icmp eq %"class.WTF::StringImpl"* %112, null
  br i1 %113, label %131, label %114

114:                                              ; preds = %109
  %115 = getelementptr inbounds %"class.WTF::StringImpl", %"class.WTF::StringImpl"* %112, i64 0, i32 2, i32 0, i32 0, i32 0, i32 0, i32 0
  %116 = load atomic i32, i32* %115 monotonic, align 4
  %117 = and i32 %116, 2
  %118 = icmp eq i32 %117, 0
  br i1 %118, label %119, label %131

119:                                              ; preds = %114
  %120 = getelementptr inbounds %"class.WTF::StringImpl", %"class.WTF::StringImpl"* %112, i64 0, i32 0
  %121 = load i32, i32* %120, align 4
  %122 = zext i32 %121 to i33
  %123 = call { i33, i1 } @llvm.sadd.with.overflow.i33(i33 %122, i33 1) #6
  %124 = extractvalue { i33, i1 } %123, 1
  %125 = extractvalue { i33, i1 } %123, 0
  %126 = icmp slt i33 %125, 0
  %127 = or i1 %124, %126
  br i1 %127, label %128, label %129, !prof !2

128:                                              ; preds = %119
  call void @llvm.trap() #6
  unreachable

129:                                              ; preds = %119
  %130 = trunc i33 %125 to i32
  store i32 %130, i32* %120, align 4
  br label %131

131:                                              ; preds = %129, %114, %109
  %132 = ptrtoint %"class.WTF::StringImpl"* %112 to i64
  %133 = bitcast %"class.WTF::AtomicString"* %2 to i64*
  %134 = load %"class.WTF::StringImpl"*, %"class.WTF::StringImpl"** %26, align 8
  store i64 %132, i64* %133, align 8
  %135 = icmp eq %"class.WTF::StringImpl"* %134, null
  br i1 %135, label %242, label %136

136:                                              ; preds = %131
  %137 = getelementptr inbounds %"class.WTF::StringImpl", %"class.WTF::StringImpl"* %134, i64 0, i32 2, i32 0, i32 0, i32 0, i32 0, i32 0
  %138 = load atomic i32, i32* %137 monotonic, align 4
  %139 = and i32 %138, 2
  %140 = icmp eq i32 %139, 0
  %141 = getelementptr inbounds %"class.WTF::StringImpl", %"class.WTF::StringImpl"* %134, i64 0, i32 0
  %142 = load i32, i32* %141, align 4
  br i1 %140, label %143, label %145

143:                                              ; preds = %136
  %144 = add i32 %142, -1
  store i32 %144, i32* %141, align 4
  br label %145

145:                                              ; preds = %143, %136
  %146 = phi i32 [ %144, %143 ], [ %142, %136 ]
  %147 = icmp eq i32 %146, 0
  br i1 %147, label %148, label %240

148:                                              ; preds = %145
  call void @_ZNK3WTF10StringImpl18DestroyIfNotStaticEv(%"class.WTF::StringImpl"* nonnull %134) #6
  br label %240

149:                                              ; preds = %106
  %150 = load %"class.WTF::AtomicString"*, %"class.WTF::AtomicString"** @_ZN5blink8keywords6kAsyncE, align 8
  %151 = getelementptr inbounds %"class.WTF::AtomicString", %"class.WTF::AtomicString"* %150, i64 0, i32 0, i32 0, i32 0
  %152 = load %"class.WTF::StringImpl"*, %"class.WTF::StringImpl"** %151, align 8
  %153 = icmp eq %"class.WTF::StringImpl"* %107, %152
  br i1 %153, label %164, label %154

154:                                              ; preds = %149
  %155 = load %"class.WTF::AtomicString"*, %"class.WTF::AtomicString"** @_ZN5blink8keywords5kSyncE, align 8
  %156 = getelementptr inbounds %"class.WTF::AtomicString", %"class.WTF::AtomicString"* %155, i64 0, i32 0, i32 0, i32 0
  %157 = load %"class.WTF::StringImpl"*, %"class.WTF::StringImpl"** %156, align 8
  %158 = icmp eq %"class.WTF::StringImpl"* %107, %157
  br i1 %158, label %164, label %159

159:                                              ; preds = %154
  %160 = load %"class.WTF::AtomicString"*, %"class.WTF::AtomicString"** @_ZN5blink8keywords5kAutoE, align 8
  %161 = getelementptr inbounds %"class.WTF::AtomicString", %"class.WTF::AtomicString"* %160, i64 0, i32 0, i32 0, i32 0
  %162 = load %"class.WTF::StringImpl"*, %"class.WTF::StringImpl"** %161, align 8
  %163 = icmp eq %"class.WTF::StringImpl"* %107, %162
  br i1 %163, label %164, label %203

164:                                              ; preds = %149, %154, %159
  %165 = getelementptr inbounds %"class.WTF::StringImpl", %"class.WTF::StringImpl"* %107, i64 0, i32 2, i32 0, i32 0, i32 0, i32 0, i32 0
  %166 = load atomic i32, i32* %165 monotonic, align 4
  %167 = and i32 %166, 2
  %168 = icmp eq i32 %167, 0
  br i1 %168, label %169, label %181

169:                                              ; preds = %164
  %170 = getelementptr inbounds %"class.WTF::StringImpl", %"class.WTF::StringImpl"* %107, i64 0, i32 0
  %171 = load i32, i32* %170, align 4
  %172 = zext i32 %171 to i33
  %173 = call { i33, i1 } @llvm.sadd.with.overflow.i33(i33 %172, i33 1) #6
  %174 = extractvalue { i33, i1 } %173, 1
  %175 = extractvalue { i33, i1 } %173, 0
  %176 = icmp slt i33 %175, 0
  %177 = or i1 %174, %176
  br i1 %177, label %178, label %179, !prof !2

178:                                              ; preds = %169
  call void @llvm.trap() #6
  unreachable

179:                                              ; preds = %169
  %180 = trunc i33 %175 to i32
  store i32 %180, i32* %170, align 4
  br label %181

181:                                              ; preds = %179, %164
  %182 = ptrtoint %"class.WTF::StringImpl"* %107 to i64
  %183 = bitcast %"class.WTF::AtomicString"* %2 to i64*
  %184 = load %"class.WTF::StringImpl"*, %"class.WTF::StringImpl"** %26, align 8
  store i64 %182, i64* %183, align 8
  %185 = icmp eq %"class.WTF::StringImpl"* %184, null
  br i1 %185, label %186, label %190

186:                                              ; preds = %181
  %187 = getelementptr inbounds %"class.v8::FunctionCallbackInfo", %"class.v8::FunctionCallbackInfo"* %0, i64 0, i32 0
  %188 = load i64*, i64** %187, align 8
  %189 = getelementptr inbounds i64, i64* %188, i64 1
  br label %254

190:                                              ; preds = %181
  %191 = getelementptr inbounds %"class.WTF::StringImpl", %"class.WTF::StringImpl"* %184, i64 0, i32 2, i32 0, i32 0, i32 0, i32 0, i32 0
  %192 = load atomic i32, i32* %191 monotonic, align 4
  %193 = and i32 %192, 2
  %194 = icmp eq i32 %193, 0
  %195 = getelementptr inbounds %"class.WTF::StringImpl", %"class.WTF::StringImpl"* %184, i64 0, i32 0
  %196 = load i32, i32* %195, align 4
  br i1 %194, label %197, label %199

197:                                              ; preds = %190
  %198 = add i32 %196, -1
  store i32 %198, i32* %195, align 4
  br label %199

199:                                              ; preds = %197, %190
  %200 = phi i32 [ %198, %197 ], [ %196, %190 ]
  %201 = icmp eq i32 %200, 0
  br i1 %201, label %202, label %240

202:                                              ; preds = %199
  call void @_ZNK3WTF10StringImpl18DestroyIfNotStaticEv(%"class.WTF::StringImpl"* nonnull %184) #6
  br label %240

203:                                              ; preds = %159
  %204 = icmp eq %"class.WTF::StringImpl"* %162, null
  br i1 %204, label %222, label %205

205:                                              ; preds = %203
  %206 = getelementptr inbounds %"class.WTF::StringImpl", %"class.WTF::StringImpl"* %162, i64 0, i32 2, i32 0, i32 0, i32 0, i32 0, i32 0
  %207 = load atomic i32, i32* %206 monotonic, align 4
  %208 = and i32 %207, 2
  %209 = icmp eq i32 %208, 0
  br i1 %209, label %210, label %222

210:                                              ; preds = %205
  %211 = getelementptr inbounds %"class.WTF::StringImpl", %"class.WTF::StringImpl"* %162, i64 0, i32 0
  %212 = load i32, i32* %211, align 4
  %213 = zext i32 %212 to i33
  %214 = call { i33, i1 } @llvm.sadd.with.overflow.i33(i33 %213, i33 1) #6
  %215 = extractvalue { i33, i1 } %214, 1
  %216 = extractvalue { i33, i1 } %214, 0
  %217 = icmp slt i33 %216, 0
  %218 = or i1 %215, %217
  br i1 %218, label %219, label %220, !prof !2

219:                                              ; preds = %210
  call void @llvm.trap() #6
  unreachable

220:                                              ; preds = %210
  %221 = trunc i33 %216 to i32
  store i32 %221, i32* %211, align 4
  br label %222

222:                                              ; preds = %220, %205, %203
  %223 = ptrtoint %"class.WTF::StringImpl"* %162 to i64
  %224 = bitcast %"class.WTF::AtomicString"* %2 to i64*
  %225 = load %"class.WTF::StringImpl"*, %"class.WTF::StringImpl"** %26, align 8
  store i64 %223, i64* %224, align 8
  %226 = icmp eq %"class.WTF::StringImpl"* %225, null
  br i1 %226, label %242, label %227

227:                                              ; preds = %222
  %228 = getelementptr inbounds %"class.WTF::StringImpl", %"class.WTF::StringImpl"* %225, i64 0, i32 2, i32 0, i32 0, i32 0, i32 0, i32 0
  %229 = load atomic i32, i32* %228 monotonic, align 4
  %230 = and i32 %229, 2
  %231 = icmp eq i32 %230, 0
  %232 = getelementptr inbounds %"class.WTF::StringImpl", %"class.WTF::StringImpl"* %225, i64 0, i32 0
  %233 = load i32, i32* %232, align 4
  br i1 %231, label %234, label %236

234:                                              ; preds = %227
  %235 = add i32 %233, -1
  store i32 %235, i32* %232, align 4
  br label %236

236:                                              ; preds = %234, %227
  %237 = phi i32 [ %235, %234 ], [ %233, %227 ]
  %238 = icmp eq i32 %237, 0
  br i1 %238, label %239, label %240

239:                                              ; preds = %236
  call void @_ZNK3WTF10StringImpl18DestroyIfNotStaticEv(%"class.WTF::StringImpl"* nonnull %225) #6
  br label %240

240:                                              ; preds = %145, %148, %199, %202, %236, %239
  %241 = load %"class.WTF::StringImpl"*, %"class.WTF::StringImpl"** %26, align 8
  br label %242

242:                                              ; preds = %240, %222, %131
  %243 = phi %"class.WTF::StringImpl"* [ %241, %240 ], [ %162, %222 ], [ %112, %131 ]
  %244 = getelementptr inbounds %"class.v8::FunctionCallbackInfo", %"class.v8::FunctionCallbackInfo"* %0, i64 0, i32 0
  %245 = load i64*, i64** %244, align 8
  %246 = getelementptr inbounds i64, i64* %245, i64 1
  %247 = icmp eq %"class.WTF::StringImpl"* %243, null
  br i1 %247, label %248, label %254

248:                                              ; preds = %242
  %249 = getelementptr inbounds i64, i64* %245, i64 3
  %250 = load i64, i64* %246, align 8
  %251 = add i64 %250, 200
  %252 = inttoptr i64 %251 to i64*
  %253 = load i64, i64* %252, align 8
  store i64 %253, i64* %249, align 8
  br label %276

254:                                              ; preds = %186, %242
  %255 = phi i64* [ %189, %186 ], [ %246, %242 ]
  %256 = phi i64* [ %188, %186 ], [ %245, %242 ]
  %257 = phi %"class.WTF::StringImpl"* [ %107, %186 ], [ %243, %242 ]
  %258 = load i64, i64* %255, align 8
  %259 = add i64 %258, 8
  %260 = inttoptr i64 %259 to %"class.blink::V8PerIsolateData"**
  %261 = load %"class.blink::V8PerIsolateData"*, %"class.blink::V8PerIsolateData"** %260, align 8
  %262 = getelementptr inbounds %"class.blink::V8PerIsolateData", %"class.blink::V8PerIsolateData"* %261, i64 0, i32 5, i32 0, i32 0, i32 0
  %263 = load %"class.blink::StringCache"*, %"class.blink::StringCache"** %262, align 8
  %264 = getelementptr inbounds i64, i64* %256, i64 3
  %265 = getelementptr inbounds %"class.blink::StringCache", %"class.blink::StringCache"* %263, i64 0, i32 3, i32 0
  %266 = load %"class.WTF::StringImpl"*, %"class.WTF::StringImpl"** %265, align 8
  %267 = icmp eq %"class.WTF::StringImpl"* %266, %257
  br i1 %267, label %268, label %275

268:                                              ; preds = %254
  %269 = getelementptr inbounds %"class.blink::StringCache", %"class.blink::StringCache"* %263, i64 0, i32 1, i32 0
  %270 = load i64, i64* %269, align 8
  %271 = icmp eq i64 %270, 0
  br i1 %271, label %276, label %272

272:                                              ; preds = %268
  %273 = inttoptr i64 %270 to i64*
  %274 = load i64, i64* %273, align 8
  store i64 %274, i64* %264, align 8
  br label %276

275:                                              ; preds = %254
  call void @_ZN5blink11StringCache28SetReturnValueFromStringSlowEN2v811ReturnValueINS1_5ValueEEEPN3WTF10StringImplE(%"class.blink::StringCache"* %263, i64* %264, %"class.WTF::StringImpl"* nonnull %257) #6
  br label %276

276:                                              ; preds = %248, %268, %272, %275
  br i1 %108, label %290, label %277

277:                                              ; preds = %276
  %278 = getelementptr inbounds %"class.WTF::StringImpl", %"class.WTF::StringImpl"* %107, i64 0, i32 2, i32 0, i32 0, i32 0, i32 0, i32 0
  %279 = load atomic i32, i32* %278 monotonic, align 4
  %280 = and i32 %279, 2
  %281 = icmp eq i32 %280, 0
  %282 = getelementptr inbounds %"class.WTF::StringImpl", %"class.WTF::StringImpl"* %107, i64 0, i32 0
  %283 = load i32, i32* %282, align 4
  br i1 %281, label %284, label %286

284:                                              ; preds = %277
  %285 = add i32 %283, -1
  store i32 %285, i32* %282, align 4
  br label %286

286:                                              ; preds = %284, %277
  %287 = phi i32 [ %285, %284 ], [ %283, %277 ]
  %288 = icmp eq i32 %287, 0
  br i1 %288, label %289, label %290

289:                                              ; preds = %286
  call void @_ZNK3WTF10StringImpl18DestroyIfNotStaticEv(%"class.WTF::StringImpl"* nonnull %107) #6
  br label %290

290:                                              ; preds = %276, %286, %289
  %291 = load %"class.WTF::StringImpl"*, %"class.WTF::StringImpl"** %26, align 8
  %292 = icmp eq %"class.WTF::StringImpl"* %291, null
  br i1 %292, label %306, label %293

293:                                              ; preds = %290
  %294 = getelementptr inbounds %"class.WTF::StringImpl", %"class.WTF::StringImpl"* %291, i64 0, i32 2, i32 0, i32 0, i32 0, i32 0, i32 0
  %295 = load atomic i32, i32* %294 monotonic, align 4
  %296 = and i32 %295, 2
  %297 = icmp eq i32 %296, 0
  %298 = getelementptr inbounds %"class.WTF::StringImpl", %"class.WTF::StringImpl"* %291, i64 0, i32 0
  %299 = load i32, i32* %298, align 4
  br i1 %297, label %300, label %302

300:                                              ; preds = %293
  %301 = add i32 %299, -1
  store i32 %301, i32* %298, align 4
  br label %302

302:                                              ; preds = %300, %293
  %303 = phi i32 [ %301, %300 ], [ %299, %293 ]
  %304 = icmp eq i32 %303, 0
  br i1 %304, label %305, label %306

305:                                              ; preds = %302
  call void @_ZNK3WTF10StringImpl18DestroyIfNotStaticEv(%"class.WTF::StringImpl"* nonnull %291) #6
  br label %306

306:                                              ; preds = %290, %302, %305
  call void @llvm.lifetime.end.p0i8(i64 8, i8* nonnull %25) #6
  ret void
}

; Function Attrs: nounwind ssp uwtable
define internal void @_ZN5blink12_GLOBAL__N_120v8_svg_image_element28DecodingAttributeSetCallbackERKN2v820FunctionCallbackInfoINS2_5ValueEEE(%"class.v8::FunctionCallbackInfo"* dereferenceable(24)) #0 {
  %2 = load %"class.blink::QualifiedName"*, %"class.blink::QualifiedName"** @_ZN5blink9svg_names13kDecodingAttrE, align 8
  tail call void @_ZN5blink8bindings47PerformAttributeSetCEReactionsReflectTypeStringERKN2v820FunctionCallbackInfoINS1_5ValueEEERKNS_13QualifiedNameEPKcSB_(%"class.v8::FunctionCallbackInfo"* dereferenceable(24) %0, %"class.blink::QualifiedName"* dereferenceable(8) %2, i8* getelementptr inbounds ([16 x i8], [16 x i8]* @.str, i64 0, i64 0), i8* getelementptr inbounds ([9 x i8], [9 x i8]* @.str.6, i64 0, i64 0)) #6
  ret void
}

; Function Attrs: nounwind ssp uwtable
define internal void @_ZN5blink12_GLOBAL__N_120v8_svg_image_element24HrefAttributeGetCallbackERKN2v820FunctionCallbackInfoINS2_5ValueEEE(%"class.v8::FunctionCallbackInfo"* nocapture readonly dereferenceable(24)) #0 {
  %2 = getelementptr inbounds %"class.v8::FunctionCallbackInfo", %"class.v8::FunctionCallbackInfo"* %0, i64 0, i32 0
  %3 = load i64*, i64** %2, align 8
  %4 = getelementptr inbounds i64, i64* %3, i64 1
  %5 = bitcast i64* %4 to %"class.v8::Isolate"**
  %6 = load %"class.v8::Isolate"*, %"class.v8::Isolate"** %5, align 8
  %7 = tail call %"class.v8::Context"* @_ZN2v87Isolate17GetCurrentContextEv(%"class.v8::Isolate"* %6) #6
  %8 = tail call %"class.blink::ExecutionContext"* @_ZN5blink16ExecutionContext4FromEN2v85LocalINS1_7ContextEEE(%"class.v8::Context"* %7) #6
  %9 = icmp eq %"class.blink::ExecutionContext"* %8, null
  %10 = getelementptr inbounds %"class.blink::ExecutionContext", %"class.blink::ExecutionContext"* %8, i64 0, i32 3
  %11 = icmp eq %"class.blink::UseCounter"* %10, null
  %12 = or i1 %9, %11
  br i1 %12, label %18, label %13

13:                                               ; preds = %1
  %14 = bitcast %"class.blink::UseCounter"* %10 to void (%"class.blink::UseCounter"*, i32)***
  %15 = load void (%"class.blink::UseCounter"*, i32)**, void (%"class.blink::UseCounter"*, i32)*** %14, align 8
  %16 = getelementptr inbounds void (%"class.blink::UseCounter"*, i32)*, void (%"class.blink::UseCounter"*, i32)** %15, i64 3
  %17 = load void (%"class.blink::UseCounter"*, i32)*, void (%"class.blink::UseCounter"*, i32)** %16, align 8
  tail call void %17(%"class.blink::UseCounter"* nonnull %10, i32 1101) #6
  br label %18

18:                                               ; preds = %1, %13
  %19 = getelementptr inbounds %"class.v8::FunctionCallbackInfo", %"class.v8::FunctionCallbackInfo"* %0, i64 0, i32 1
  %20 = load i64*, i64** %19, align 8
  %21 = getelementptr inbounds i64, i64* %20, i64 -1
  %22 = load i64, i64* %21, align 8
  %23 = add i64 %22, -1
  %24 = inttoptr i64 %23 to i32*
  %25 = load i32, i32* %24, align 4
  %26 = and i64 %22, -4294967296
  %27 = zext i32 %25 to i64
  %28 = or i64 %26, %27
  %29 = add i64 %28, 7
  %30 = inttoptr i64 %29 to i16*
  %31 = load i16, i16* %30, align 2
  switch i16 %31, label %36 [
    i16 1057, label %32
    i16 1056, label %32
    i16 1040, label %32
  ]

32:                                               ; preds = %18, %18, %18
  %33 = add i64 %22, 19
  %34 = inttoptr i64 %33 to i8**
  %35 = load i8*, i8** %34, align 1
  br label %39

36:                                               ; preds = %18
  %37 = bitcast i64* %21 to %"class.v8::Object"*
  %38 = tail call i8* @_ZN2v86Object38SlowGetAlignedPointerFromInternalFieldEi(%"class.v8::Object"* %37, i32 1) #6
  br label %39

39:                                               ; preds = %32, %36
  %40 = phi i8* [ %35, %32 ], [ %38, %36 ]
  %41 = getelementptr inbounds i8, i8* %40, i64 224
  %42 = bitcast i8* %41 to %"class.blink::SVGURIReference"*
  %43 = tail call %"class.blink::SVGAnimatedString"* @_ZNK5blink15SVGURIReference4hrefEv(%"class.blink::SVGURIReference"* %42) #6
  %44 = getelementptr inbounds %"class.blink::SVGAnimatedString", %"class.blink::SVGAnimatedString"* %43, i64 0, i32 0
  %45 = icmp eq %"class.blink::SVGAnimatedString"* %43, null
  %46 = load i64*, i64** %2, align 8
  %47 = getelementptr inbounds i64, i64* %46, i64 3
  br i1 %45, label %48, label %54, !prof !2

48:                                               ; preds = %39
  %49 = getelementptr inbounds i64, i64* %46, i64 1
  %50 = load i64, i64* %49, align 8
  %51 = add i64 %50, 176
  %52 = inttoptr i64 %51 to i64*
  %53 = load i64, i64* %52, align 8
  store i64 %53, i64* %47, align 8
  br label %77

54:                                               ; preds = %39
  %55 = bitcast i8* %40 to %"class.blink::ScriptWrappable"*
  %56 = load i64*, i64** %19, align 8
  %57 = getelementptr inbounds i64, i64* %56, i64 -1
  %58 = bitcast i64* %57 to %"class.v8::Object"*
  %59 = tail call zeroext i1 @_ZN5blink12DOMDataStore18SetReturnValueFastEN2v811ReturnValueINS1_5ValueEEEPNS_15ScriptWrappableENS1_5LocalINS1_6ObjectEEEPKS5_(i64* %47, %"class.blink::ScriptWrappable"* nonnull %44, %"class.v8::Object"* %58, %"class.blink::ScriptWrappable"* %55) #6
  br i1 %59, label %77, label %60

60:                                               ; preds = %54
  %61 = load i64*, i64** %19, align 8
  %62 = getelementptr inbounds i64, i64* %61, i64 -1
  %63 = bitcast i64* %62 to %"class.v8::Object"*
  %64 = tail call %"class.v8::Context"* @_ZN2v86Object15CreationContextEv(%"class.v8::Object"* %63) #6
  %65 = tail call %"class.blink::ScriptState"* @_ZN5blink11ScriptState4FromEN2v85LocalINS1_7ContextEEE(%"class.v8::Context"* %64) #6
  %66 = bitcast %"class.blink::SVGAnimatedString"* %43 to %"class.v8::Value"* (%"class.blink::ScriptWrappable"*, %"class.blink::ScriptState"*)***
  %67 = load %"class.v8::Value"* (%"class.blink::ScriptWrappable"*, %"class.blink::ScriptState"*)**, %"class.v8::Value"* (%"class.blink::ScriptWrappable"*, %"class.blink::ScriptState"*)*** %66, align 8
  %68 = getelementptr inbounds %"class.v8::Value"* (%"class.blink::ScriptWrappable"*, %"class.blink::ScriptState"*)*, %"class.v8::Value"* (%"class.blink::ScriptWrappable"*, %"class.blink::ScriptState"*)** %67, i64 7
  %69 = load %"class.v8::Value"* (%"class.blink::ScriptWrappable"*, %"class.blink::ScriptState"*)*, %"class.v8::Value"* (%"class.blink::ScriptWrappable"*, %"class.blink::ScriptState"*)** %68, align 8
  %70 = tail call %"class.v8::Value"* %69(%"class.blink::ScriptWrappable"* nonnull %44, %"class.blink::ScriptState"* %65) #6
  %71 = icmp eq %"class.v8::Value"* %70, null
  br i1 %71, label %77, label %72

72:                                               ; preds = %60
  %73 = load i64*, i64** %2, align 8
  %74 = getelementptr inbounds i64, i64* %73, i64 3
  %75 = bitcast %"class.v8::Value"* %70 to i64*
  %76 = load i64, i64* %75, align 8
  store i64 %76, i64* %74, align 8
  br label %77

77:                                               ; preds = %48, %54, %60, %72
  ret void
}

declare void @_ZN5blink8bindings18IDLMemberInstaller17InstallAttributesEPN2v87IsolateERKNS_15DOMWrapperWorldENS2_5LocalINS2_8TemplateEEESA_SA_NS8_INS2_9SignatureEEEN4base4spanIKNS1_15AttributeConfigELm18446744073709551615EEE(%"class.v8::Isolate"*, %"class.blink::DOMWrapperWorld"* dereferenceable(32), %"class.v8::Template"*, %"class.v8::Template"*, %"class.v8::Template"*, %"class.v8::Signature"*, %"class.base::span"* byval(%"class.base::span") align 8) local_unnamed_addr #2

; Function Attrs: nounwind ssp uwtable
define internal void @_ZN5blink12_GLOBAL__N_120v8_svg_image_element23DecodeOperationCallbackERKN2v820FunctionCallbackInfoINS2_5ValueEEE(%"class.v8::FunctionCallbackInfo"* dereferenceable(24)) #0 {
  %2 = alloca %"class.blink::ExceptionState", align 8
  %3 = alloca %"class.blink::ExceptionToRejectPromiseScope", align 8
  %4 = alloca %"class.blink::ScriptPromise", align 8
  %5 = getelementptr inbounds %"class.v8::FunctionCallbackInfo", %"class.v8::FunctionCallbackInfo"* %0, i64 0, i32 0
  %6 = load i64*, i64** %5, align 8
  %7 = getelementptr inbounds i64, i64* %6, i64 1
  %8 = bitcast i64* %7 to %"class.v8::Isolate"**
  %9 = load %"class.v8::Isolate"*, %"class.v8::Isolate"** %8, align 8
  %10 = getelementptr inbounds %"class.v8::FunctionCallbackInfo", %"class.v8::FunctionCallbackInfo"* %0, i64 0, i32 1
  %11 = load i64*, i64** %10, align 8
  %12 = getelementptr inbounds i64, i64* %11, i64 -1
  %13 = bitcast i64* %12 to %"class.v8::Object"*
  %14 = bitcast %"class.blink::ExceptionState"* %2 to i8*
  call void @llvm.lifetime.start.p0i8(i64 72, i8* nonnull %14) #6
  call void @llvm.memset.p0i8.i64(i8* nonnull align 8 %14, i8 -86, i64 56, i1 false)
  %15 = getelementptr inbounds %"class.blink::ExceptionState", %"class.blink::ExceptionState"* %2, i64 0, i32 0
  store i32 (...)** bitcast (i8** getelementptr inbounds ({ [9 x i8*] }, { [9 x i8*] }* @_ZTVN5blink14ExceptionStateE, i64 0, inrange i32 0, i64 2) to i32 (...)**), i32 (...)*** %15, align 8
  %16 = getelementptr inbounds %"class.blink::ExceptionState", %"class.blink::ExceptionState"* %2, i64 0, i32 1, i32 0
  store i16 6, i16* %16, align 8
  %17 = getelementptr inbounds %"class.blink::ExceptionState", %"class.blink::ExceptionState"* %2, i64 0, i32 1, i32 1
  store i16 0, i16* %17, align 2
  %18 = getelementptr inbounds %"class.blink::ExceptionState", %"class.blink::ExceptionState"* %2, i64 0, i32 1, i32 2
  %19 = bitcast i8** %18 to <2 x i8*>*
  store <2 x i8*> <i8* getelementptr inbounds ([16 x i8], [16 x i8]* @.str, i64 0, i64 0), i8* getelementptr inbounds ([7 x i8], [7 x i8]* @.str.8, i64 0, i64 0)>, <2 x i8*>* %19, align 8
  %20 = getelementptr inbounds %"class.blink::ExceptionState", %"class.blink::ExceptionState"* %2, i64 0, i32 2
  store %"class.blink::ExceptionState::ContextScope"* null, %"class.blink::ExceptionState::ContextScope"** %20, align 8
  %21 = getelementptr inbounds %"class.blink::ExceptionState", %"class.blink::ExceptionState"* %2, i64 0, i32 3
  store %"class.v8::Isolate"* %9, %"class.v8::Isolate"** %21, align 8
  %22 = getelementptr inbounds %"class.blink::ExceptionState", %"class.blink::ExceptionState"* %2, i64 0, i32 4
  store i32 0, i32* %22, align 8
  %23 = getelementptr inbounds %"class.blink::ExceptionState", %"class.blink::ExceptionState"* %2, i64 0, i32 5, i32 0, i32 0
  %24 = bitcast %"class.WTF::StringImpl"** %23 to i8*
  call void @llvm.memset.p0i8.i64(i8* align 8 %24, i8 0, i64 16, i1 false) #6
  %25 = bitcast %"class.blink::ExceptionToRejectPromiseScope"* %3 to i8*
  call void @llvm.lifetime.start.p0i8(i64 16, i8* nonnull %25) #6
  %26 = getelementptr inbounds %"class.blink::ExceptionToRejectPromiseScope", %"class.blink::ExceptionToRejectPromiseScope"* %3, i64 0, i32 0
  %27 = getelementptr inbounds %"class.blink::ExceptionToRejectPromiseScope", %"class.blink::ExceptionToRejectPromiseScope"* %3, i64 0, i32 1
  store %"class.v8::FunctionCallbackInfo"* %0, %"class.v8::FunctionCallbackInfo"** %26, align 8
  store %"class.blink::ExceptionState"* %2, %"class.blink::ExceptionState"** %27, align 8
  %28 = bitcast i64* %12 to %"class.v8::Value"*
  %29 = ptrtoint %"class.v8::Isolate"* %9 to i64
  %30 = add i64 %29, 8
  %31 = inttoptr i64 %30 to %"class.blink::V8PerIsolateData"**
  %32 = load %"class.blink::V8PerIsolateData"*, %"class.blink::V8PerIsolateData"** %31, align 8
  %33 = call zeroext i1 @_ZN5blink16V8PerIsolateData11HasInstanceEPKNS_15WrapperTypeInfoEN2v85LocalINS4_5ValueEEE(%"class.blink::V8PerIsolateData"* %32, %"struct.blink::WrapperTypeInfo"* nonnull @_ZN5blink17V8SVGImageElement18wrapper_type_info_E, %"class.v8::Value"* %28) #6
  br i1 %33, label %35, label %34

34:                                               ; preds = %1
  call void @_ZN5blink14ExceptionState14ThrowTypeErrorEPKc(%"class.blink::ExceptionState"* nonnull %2, i8* getelementptr inbounds ([19 x i8], [19 x i8]* @.str.12, i64 0, i64 0)) #6
  br label %82

35:                                               ; preds = %1
  %36 = load i64, i64* %12, align 8
  %37 = add i64 %36, -1
  %38 = inttoptr i64 %37 to i32*
  %39 = load i32, i32* %38, align 4
  %40 = and i64 %36, -4294967296
  %41 = zext i32 %39 to i64
  %42 = or i64 %40, %41
  %43 = add i64 %42, 7
  %44 = inttoptr i64 %43 to i16*
  %45 = load i16, i16* %44, align 2
  switch i16 %45, label %50 [
    i16 1057, label %46
    i16 1056, label %46
    i16 1040, label %46
  ]

46:                                               ; preds = %35, %35, %35
  %47 = add i64 %36, 19
  %48 = inttoptr i64 %47 to i8**
  %49 = load i8*, i8** %48, align 1
  br label %52

50:                                               ; preds = %35
  %51 = call i8* @_ZN2v86Object38SlowGetAlignedPointerFromInternalFieldEi(%"class.v8::Object"* %13, i32 1) #6
  br label %52

52:                                               ; preds = %46, %50
  %53 = phi i8* [ %49, %46 ], [ %51, %50 ]
  %54 = bitcast i8* %53 to %"class.blink::SVGImageElement"*
  %55 = call %"class.v8::Context"* @_ZN2v86Object15CreationContextEv(%"class.v8::Object"* %13) #6
  %56 = call %"class.blink::ScriptState"* @_ZN5blink11ScriptState4FromEN2v85LocalINS1_7ContextEEE(%"class.v8::Context"* %55)
  %57 = bitcast %"class.blink::ScriptPromise"* %4 to i8*
  call void @llvm.lifetime.start.p0i8(i64 32, i8* nonnull %57) #6
  call void @_ZN5blink15SVGImageElement6decodeEPNS_11ScriptStateERNS_14ExceptionStateE(%"class.blink::ScriptPromise"* nonnull sret %4, %"class.blink::SVGImageElement"* %54, %"class.blink::ScriptState"* %56, %"class.blink::ExceptionState"* nonnull dereferenceable(72) %2) #6
  %58 = load i32, i32* %22, align 8
  %59 = icmp eq i32 %58, 0
  br i1 %59, label %60, label %70

60:                                               ; preds = %52
  %61 = getelementptr inbounds %"class.blink::ScriptPromise", %"class.blink::ScriptPromise"* %4, i64 0, i32 1
  %62 = call %"class.v8::Value"* @_ZNK5blink11ScriptValue7V8ValueEv(%"class.blink::ScriptValue"* %61) #6
  %63 = load i64*, i64** %5, align 8
  %64 = getelementptr inbounds i64, i64* %63, i64 3
  %65 = icmp eq %"class.v8::Value"* %62, null
  %66 = bitcast %"class.v8::Value"* %62 to i64*
  %67 = getelementptr inbounds i64, i64* %63, i64 2
  %68 = select i1 %65, i64* %67, i64* %66, !prof !2
  %69 = load i64, i64* %68, align 8
  store i64 %69, i64* %64, align 8
  br label %70

70:                                               ; preds = %52, %60
  %71 = getelementptr inbounds %"class.blink::ScriptPromise", %"class.blink::ScriptPromise"* %4, i64 0, i32 1, i32 1, i32 1, i32 0
  %72 = load %"class.blink::DOMWrapperWorld"*, %"class.blink::DOMWrapperWorld"** %71, align 8
  %73 = icmp eq %"class.blink::DOMWrapperWorld"* %72, null
  br i1 %73, label %81, label %74

74:                                               ; preds = %70
  %75 = getelementptr inbounds %"class.blink::DOMWrapperWorld", %"class.blink::DOMWrapperWorld"* %72, i64 0, i32 0, i32 0, i32 0
  call void @_ZNK4base6subtle14RefCountedBase11ReleaseImplEv(%"class.base::subtle::RefCountedBase"* %75) #6
  %76 = getelementptr inbounds %"class.blink::DOMWrapperWorld", %"class.blink::DOMWrapperWorld"* %72, i64 0, i32 0, i32 0, i32 0, i32 0
  %77 = load i32, i32* %76, align 4
  %78 = icmp eq i32 %77, 0
  br i1 %78, label %79, label %81

79:                                               ; preds = %74
  call void @_ZN5blink15DOMWrapperWorldD1Ev(%"class.blink::DOMWrapperWorld"* nonnull %72) #6
  %80 = bitcast %"class.blink::DOMWrapperWorld"* %72 to i8*
  call void @free(i8* %80) #6
  br label %81

81:                                               ; preds = %70, %74, %79
  call void @llvm.lifetime.end.p0i8(i64 32, i8* nonnull %57) #6
  br label %82

82:                                               ; preds = %81, %34
  call void @_ZN5blink29ExceptionToRejectPromiseScopeD2Ev(%"class.blink::ExceptionToRejectPromiseScope"* nonnull %3) #6
  call void @llvm.lifetime.end.p0i8(i64 16, i8* nonnull %25) #6
  store i32 (...)** bitcast (i8** getelementptr inbounds ({ [9 x i8*] }, { [9 x i8*] }* @_ZTVN5blink14ExceptionStateE, i64 0, inrange i32 0, i64 2) to i32 (...)**), i32 (...)*** %15, align 8
  %83 = getelementptr inbounds %"class.blink::ExceptionState", %"class.blink::ExceptionState"* %2, i64 0, i32 6, i32 0, i32 0, i32 0, i32 0
  %84 = load i64*, i64** %83, align 8
  %85 = icmp eq i64* %84, null
  br i1 %85, label %95, label %86

86:                                               ; preds = %82
  %87 = load %"class.v8::Isolate"*, %"class.v8::Isolate"** %21, align 8
  %88 = bitcast %"class.v8::Isolate"* %87 to %"class.v8::internal::Isolate"*
  %89 = load i64, i64* %84, align 8
  %90 = call i64* @_ZN2v811HandleScope12CreateHandleEPNS_8internal7IsolateEm(%"class.v8::internal::Isolate"* %88, i64 %89) #6
  %91 = call zeroext i1 @_ZN2v87Isolate22IsExecutionTerminatingEv(%"class.v8::Isolate"* %87) #6
  br i1 %91, label %95, label %92

92:                                               ; preds = %86
  %93 = bitcast i64* %90 to %"class.v8::Value"*
  %94 = call %"class.v8::Value"* @_ZN2v87Isolate14ThrowExceptionENS_5LocalINS_5ValueEEE(%"class.v8::Isolate"* %87, %"class.v8::Value"* %93) #6
  br label %95

95:                                               ; preds = %92, %86, %82
  %96 = load %"class.WTF::StringImpl"*, %"class.WTF::StringImpl"** %23, align 8
  %97 = icmp eq %"class.WTF::StringImpl"* %96, null
  br i1 %97, label %111, label %98

98:                                               ; preds = %95
  %99 = getelementptr inbounds %"class.WTF::StringImpl", %"class.WTF::StringImpl"* %96, i64 0, i32 2, i32 0, i32 0, i32 0, i32 0, i32 0
  %100 = load atomic i32, i32* %99 monotonic, align 4
  %101 = and i32 %100, 2
  %102 = icmp eq i32 %101, 0
  %103 = getelementptr inbounds %"class.WTF::StringImpl", %"class.WTF::StringImpl"* %96, i64 0, i32 0
  %104 = load i32, i32* %103, align 4
  br i1 %102, label %105, label %107

105:                                              ; preds = %98
  %106 = add i32 %104, -1
  store i32 %106, i32* %103, align 4
  br label %107

107:                                              ; preds = %105, %98
  %108 = phi i32 [ %106, %105 ], [ %104, %98 ]
  %109 = icmp eq i32 %108, 0
  br i1 %109, label %110, label %111

110:                                              ; preds = %107
  call void @_ZNK3WTF10StringImpl18DestroyIfNotStaticEv(%"class.WTF::StringImpl"* nonnull %96) #6
  br label %111

111:                                              ; preds = %95, %107, %110
  call void @llvm.lifetime.end.p0i8(i64 72, i8* nonnull %14) #6
  ret void
}

declare void @_ZN5blink8bindings18IDLMemberInstaller17InstallOperationsEPN2v87IsolateERKNS_15DOMWrapperWorldENS2_5LocalINS2_8TemplateEEESA_SA_NS8_INS2_9SignatureEEEN4base4spanIKNS1_15OperationConfigELm18446744073709551615EEE(%"class.v8::Isolate"*, %"class.blink::DOMWrapperWorld"* dereferenceable(32), %"class.v8::Template"*, %"class.v8::Template"*, %"class.v8::Template"*, %"class.v8::Signature"*, %"class.base::span.181"* byval(%"class.base::span.181") align 8) local_unnamed_addr #2

declare %"class.v8::Context"* @_ZN2v87Isolate17GetCurrentContextEv(%"class.v8::Isolate"*) local_unnamed_addr #2

declare %"class.blink::ExecutionContext"* @_ZN5blink16ExecutionContext4FromEN2v85LocalINS1_7ContextEEE(%"class.v8::Context"*) local_unnamed_addr #2

declare i8* @_ZN2v86Object38SlowGetAlignedPointerFromInternalFieldEi(%"class.v8::Object"*, i32) local_unnamed_addr #2

; Function Attrs: nounwind ssp uwtable
define linkonce_odr hidden zeroext i1 @_ZN5blink12DOMDataStore18SetReturnValueFastEN2v811ReturnValueINS1_5ValueEEEPNS_15ScriptWrappableENS1_5LocalINS1_6ObjectEEEPKS5_(i64*, %"class.blink::ScriptWrappable"*, %"class.v8::Object"*, %"class.blink::ScriptWrappable"*) local_unnamed_addr #0 comdat align 2 {
  %5 = alloca i64, align 8
  %6 = bitcast i64* %5 to i8*
  call void @llvm.lifetime.start.p0i8(i64 8, i8* nonnull %6) #6
  %7 = load i64, i64* @_ZN3WTF8internal25g_main_thread_stack_startE, align 8
  %8 = ptrtoint i64* %5 to i64
  %9 = sub i64 %7, %8
  %10 = load i64, i64* @_ZN3WTF8internal39g_main_thread_underestimated_stack_sizeE, align 8
  %11 = icmp ult i64 %9, %10
  call void @llvm.lifetime.end.p0i8(i64 8, i8* nonnull %6) #6
  %12 = load i32, i32* @_ZN5blink15DOMWrapperWorld41number_of_non_main_worlds_in_main_thread_E, align 4
  %13 = icmp eq i32 %12, 0
  %14 = and i1 %11, %13
  br i1 %14, label %28, label %15

15:                                               ; preds = %4
  %16 = getelementptr inbounds %"class.blink::ScriptWrappable", %"class.blink::ScriptWrappable"* %3, i64 0, i32 1, i32 0, i32 0, i32 0, i32 0
  %17 = load i64*, i64** %16, align 8
  %18 = icmp eq i64* %17, null
  %19 = icmp eq %"class.v8::Object"* %2, null
  %20 = or i1 %19, %18
  br i1 %20, label %26, label %21

21:                                               ; preds = %15
  %22 = bitcast %"class.v8::Object"* %2 to i64*
  %23 = load i64, i64* %17, align 8
  %24 = load i64, i64* %22, align 8
  %25 = icmp eq i64 %23, %24
  br i1 %25, label %28, label %37

26:                                               ; preds = %15
  %27 = and i1 %19, %18
  br i1 %27, label %28, label %37

28:                                               ; preds = %21, %26, %4
  %29 = getelementptr inbounds %"class.blink::ScriptWrappable", %"class.blink::ScriptWrappable"* %1, i64 0, i32 1, i32 0, i32 0, i32 0, i32 0
  %30 = load i64*, i64** %29, align 8
  %31 = icmp eq i64* %30, null
  %32 = getelementptr inbounds i64, i64* %0, i64 -1
  %33 = select i1 %31, i64* %32, i64* %30, !prof !2
  %34 = load i64, i64* %33, align 8
  store i64 %34, i64* %0, align 8
  %35 = load i64*, i64** %29, align 8
  %36 = icmp ne i64* %35, null
  br label %80

37:                                               ; preds = %21, %26
  %38 = getelementptr inbounds i64, i64* %0, i64 -2
  %39 = bitcast i64* %38 to %"class.v8::Isolate"**
  %40 = load %"class.v8::Isolate"*, %"class.v8::Isolate"** %39, align 8
  %41 = call %"class.v8::Context"* @_ZN2v87Isolate17GetCurrentContextEv(%"class.v8::Isolate"* %40) #6
  %42 = call %"class.blink::ScriptState"* @_ZN5blink11ScriptState4FromEN2v85LocalINS1_7ContextEEE(%"class.v8::Context"* %41) #6
  %43 = getelementptr inbounds %"class.blink::ScriptState", %"class.blink::ScriptState"* %42, i64 0, i32 2, i32 0
  %44 = load %"class.blink::DOMWrapperWorld"*, %"class.blink::DOMWrapperWorld"** %43, align 8
  %45 = getelementptr inbounds %"class.blink::DOMWrapperWorld", %"class.blink::DOMWrapperWorld"* %44, i64 0, i32 3, i32 0, i32 0
  %46 = load %"class.blink::DOMDataStore"*, %"class.blink::DOMDataStore"** %45, align 8
  %47 = getelementptr inbounds %"class.blink::DOMDataStore", %"class.blink::DOMDataStore"* %46, i64 0, i32 1
  %48 = load i8, i8* %47, align 8, !range !3
  %49 = icmp eq i8 %48, 0
  br i1 %49, label %59, label %50

50:                                               ; preds = %37
  %51 = getelementptr inbounds %"class.blink::ScriptWrappable", %"class.blink::ScriptWrappable"* %1, i64 0, i32 1, i32 0, i32 0, i32 0, i32 0
  %52 = load i64*, i64** %51, align 8
  %53 = icmp eq i64* %52, null
  %54 = getelementptr inbounds i64, i64* %0, i64 -1
  %55 = select i1 %53, i64* %54, i64* %52, !prof !2
  %56 = load i64, i64* %55, align 8
  store i64 %56, i64* %0, align 8
  %57 = load i64*, i64** %51, align 8
  %58 = icmp ne i64* %57, null
  br label %80

59:                                               ; preds = %37
  %60 = getelementptr inbounds %"class.blink::DOMDataStore", %"class.blink::DOMDataStore"* %46, i64 0, i32 3, i32 0
  %61 = getelementptr inbounds %"class.WTF::HashMap", %"class.WTF::HashMap"* %60, i64 0, i32 0
  %62 = call { %"struct.WTF::KeyValuePair"*, %"struct.WTF::KeyValuePair"* } @_ZN3WTF9HashTableIN5blink10WeakMemberIKNS1_15ScriptWrappableEEENS_12KeyValuePairIS5_NS1_23TraceWrapperV8ReferenceIN2v86ObjectEEEEENS_24KeyValuePairKeyExtractorENS_10MemberHashIS4_EENS_18HashMapValueTraitsINS_10HashTraitsIS5_EENSG_ISA_EEEESH_NS1_13HeapAllocatorEE4findEPS4_(%"class.WTF::HashTable"* %61, %"class.blink::ScriptWrappable"* %1) #6
  %63 = extractvalue { %"struct.WTF::KeyValuePair"*, %"struct.WTF::KeyValuePair"* } %62, 0
  %64 = getelementptr inbounds %"class.WTF::HashMap", %"class.WTF::HashMap"* %60, i64 0, i32 0, i32 0
  %65 = load %"struct.WTF::KeyValuePair"*, %"struct.WTF::KeyValuePair"** %64, align 8
  %66 = getelementptr inbounds %"class.blink::DOMDataStore", %"class.blink::DOMDataStore"* %46, i64 0, i32 3, i32 0, i32 0, i32 1
  %67 = load i32, i32* %66, align 8
  %68 = zext i32 %67 to i64
  %69 = getelementptr inbounds %"struct.WTF::KeyValuePair", %"struct.WTF::KeyValuePair"* %65, i64 %68
  %70 = icmp eq %"struct.WTF::KeyValuePair"* %63, %69
  br i1 %70, label %80, label %71

71:                                               ; preds = %59
  %72 = getelementptr inbounds %"struct.WTF::KeyValuePair", %"struct.WTF::KeyValuePair"* %63, i64 0, i32 1, i32 0, i32 0, i32 0, i32 0
  %73 = load i64*, i64** %72, align 8
  %74 = icmp eq i64* %73, null
  br i1 %74, label %75, label %78, !prof !2

75:                                               ; preds = %71
  %76 = getelementptr inbounds i64, i64* %0, i64 -1
  %77 = load i64, i64* %76, align 8
  store i64 %77, i64* %0, align 8
  br label %80

78:                                               ; preds = %71
  %79 = load i64, i64* %73, align 8
  store i64 %79, i64* %0, align 8
  br label %80

80:                                               ; preds = %78, %75, %59, %50, %28
  %81 = phi i1 [ %36, %28 ], [ %58, %50 ], [ false, %59 ], [ true, %75 ], [ true, %78 ]
  ret i1 %81
}

declare %"class.v8::Context"* @_ZN2v86Object15CreationContextEv(%"class.v8::Object"*) local_unnamed_addr #2

; Function Attrs: nounwind ssp uwtable
define linkonce_odr hidden %"class.blink::ScriptState"* @_ZN5blink11ScriptState4FromEN2v85LocalINS1_7ContextEEE(%"class.v8::Context"*) local_unnamed_addr #0 comdat align 2 {
  %2 = alloca %"class.logging::CheckError", align 8
  %3 = alloca %"class.logging::CheckError", align 8
  %4 = bitcast %"class.v8::Context"* %0 to i64*
  %5 = load i64, i64* %4, align 8
  %6 = add i64 %5, 23
  %7 = inttoptr i64 %6 to i32*
  %8 = load i32, i32* %7, align 4
  %9 = and i64 %5, -4294967296
  %10 = zext i32 %8 to i64
  %11 = or i64 %9, %10
  %12 = add i64 %11, 23
  %13 = inttoptr i64 %12 to i8**
  %14 = load i8*, i8** %13, align 1
  %15 = bitcast i8* %14 to %"class.blink::ScriptState"*
  %16 = icmp eq i8* %14, null
  br i1 %16, label %17, label %20

17:                                               ; preds = %1
  %18 = bitcast %"class.logging::CheckError"* %2 to i8*
  call void @llvm.lifetime.start.p0i8(i64 8, i8* nonnull %18) #6
  call void @_ZN7logging10CheckError5CheckEPKciS2_(%"class.logging::CheckError"* nonnull sret %2, i8* getelementptr inbounds ([66 x i8], [66 x i8]* @.str.9, i64 0, i64 0), i32 175, i8* getelementptr inbounds ([13 x i8], [13 x i8]* @.str.10, i64 0, i64 0)) #6
  %19 = call dereferenceable(160) %"class.std::__1::basic_ostream"* @_ZN7logging10CheckError6streamEv(%"class.logging::CheckError"* nonnull %2) #6
  call void @_ZN7logging10CheckErrorD1Ev(%"class.logging::CheckError"* nonnull %2) #6
  call void @llvm.lifetime.end.p0i8(i64 8, i8* nonnull %18) #6
  br label %20

20:                                               ; preds = %1, %17
  %21 = getelementptr inbounds i8, i8* %14, i64 8
  %22 = bitcast i8* %21 to i64**
  %23 = load i64*, i64** %22, align 8
  %24 = icmp eq i64* %23, null
  %25 = icmp eq %"class.v8::Context"* %0, null
  %26 = or i1 %25, %24
  br i1 %26, label %31, label %27

27:                                               ; preds = %20
  %28 = load i64, i64* %23, align 8
  %29 = load i64, i64* %4, align 8
  %30 = icmp eq i64 %28, %29
  br i1 %30, label %36, label %33

31:                                               ; preds = %20
  %32 = and i1 %25, %24
  br i1 %32, label %36, label %33

33:                                               ; preds = %27, %31
  %34 = bitcast %"class.logging::CheckError"* %3 to i8*
  call void @llvm.lifetime.start.p0i8(i64 8, i8* nonnull %34) #6
  call void @_ZN7logging10CheckError5CheckEPKciS2_(%"class.logging::CheckError"* nonnull sret %3, i8* getelementptr inbounds ([66 x i8], [66 x i8]* @.str.9, i64 0, i64 0), i32 176, i8* getelementptr inbounds ([34 x i8], [34 x i8]* @.str.11, i64 0, i64 0)) #6
  %35 = call dereferenceable(160) %"class.std::__1::basic_ostream"* @_ZN7logging10CheckError6streamEv(%"class.logging::CheckError"* nonnull %3) #6
  call void @_ZN7logging10CheckErrorD1Ev(%"class.logging::CheckError"* nonnull %3) #6
  call void @llvm.lifetime.end.p0i8(i64 8, i8* nonnull %34) #6
  br label %36

36:                                               ; preds = %27, %31, %33
  ret %"class.blink::ScriptState"* %15
}

declare void @_ZN7logging10CheckError5CheckEPKciS2_(%"class.logging::CheckError"* sret, i8*, i32, i8*) local_unnamed_addr #2

declare dereferenceable(160) %"class.std::__1::basic_ostream"* @_ZN7logging10CheckError6streamEv(%"class.logging::CheckError"*) local_unnamed_addr #2

; Function Attrs: nounwind
declare void @_ZN7logging10CheckErrorD1Ev(%"class.logging::CheckError"*) unnamed_addr #3

; Function Attrs: nounwind ssp uwtable
define linkonce_odr hidden { %"struct.WTF::KeyValuePair"*, %"struct.WTF::KeyValuePair"* } @_ZN3WTF9HashTableIN5blink10WeakMemberIKNS1_15ScriptWrappableEEENS_12KeyValuePairIS5_NS1_23TraceWrapperV8ReferenceIN2v86ObjectEEEEENS_24KeyValuePairKeyExtractorENS_10MemberHashIS4_EENS_18HashMapValueTraitsINS_10HashTraitsIS5_EENSG_ISA_EEEESH_NS1_13HeapAllocatorEE4findEPS4_(%"class.WTF::HashTable"*, %"class.blink::ScriptWrappable"*) local_unnamed_addr #0 comdat align 2 {
  %3 = ptrtoint %"class.blink::ScriptWrappable"* %1 to i64
  %4 = getelementptr inbounds %"class.WTF::HashTable", %"class.WTF::HashTable"* %0, i64 0, i32 0
  %5 = load %"struct.WTF::KeyValuePair"*, %"struct.WTF::KeyValuePair"** %4, align 8
  %6 = icmp eq %"struct.WTF::KeyValuePair"* %5, null
  %7 = getelementptr inbounds %"class.WTF::HashTable", %"class.WTF::HashTable"* %0, i64 0, i32 1
  %8 = load i32, i32* %7, align 8
  br i1 %6, label %69, label %9

9:                                                ; preds = %2
  %10 = add i32 %8, -1
  %11 = zext i32 %10 to i64
  %12 = shl i64 %3, 32
  %13 = xor i64 %12, -1
  %14 = add i64 %13, %3
  %15 = lshr i64 %14, 22
  %16 = xor i64 %15, %14
  %17 = shl i64 %16, 13
  %18 = xor i64 %17, -1
  %19 = add i64 %16, %18
  %20 = lshr i64 %19, 8
  %21 = xor i64 %20, %19
  %22 = mul i64 %21, 9
  %23 = lshr i64 %22, 15
  %24 = xor i64 %23, %22
  %25 = shl i64 %24, 27
  %26 = xor i64 %25, -1
  %27 = add i64 %24, %26
  %28 = lshr i64 %27, 31
  %29 = xor i64 %28, %27
  %30 = trunc i64 %29 to i32
  %31 = and i32 %10, %30
  %32 = zext i32 %31 to i64
  %33 = getelementptr inbounds %"struct.WTF::KeyValuePair", %"struct.WTF::KeyValuePair"* %5, i64 %32
  %34 = getelementptr inbounds %"struct.WTF::KeyValuePair", %"struct.WTF::KeyValuePair"* %33, i64 0, i32 0, i32 0, i32 0
  %35 = load %"class.blink::ScriptWrappable"*, %"class.blink::ScriptWrappable"** %34, align 8
  %36 = icmp eq %"class.blink::ScriptWrappable"* %35, %1
  br i1 %36, label %66, label %37

37:                                               ; preds = %9
  %38 = xor i32 %30, -1
  %39 = lshr i32 %30, 23
  %40 = add i32 %39, %38
  %41 = shl i32 %40, 12
  %42 = xor i32 %41, %40
  %43 = lshr i32 %42, 7
  %44 = xor i32 %43, %42
  %45 = shl i32 %44, 2
  %46 = xor i32 %45, %44
  %47 = lshr i32 %46, 20
  %48 = xor i32 %47, %46
  %49 = or i32 %48, 1
  %50 = zext i32 %49 to i64
  br label %51

51:                                               ; preds = %57, %37
  %52 = phi i64 [ %32, %37 ], [ %61, %57 ]
  %53 = phi i64 [ 0, %37 ], [ %59, %57 ]
  %54 = getelementptr inbounds %"struct.WTF::KeyValuePair", %"struct.WTF::KeyValuePair"* %5, i64 %52, i32 0, i32 0, i32 0
  %55 = load %"class.blink::ScriptWrappable"*, %"class.blink::ScriptWrappable"** %54, align 8
  %56 = icmp eq %"class.blink::ScriptWrappable"* %55, null
  br i1 %56, label %69, label %57

57:                                               ; preds = %51
  %58 = icmp eq i64 %53, 0
  %59 = select i1 %58, i64 %50, i64 %53
  %60 = add i64 %59, %52
  %61 = and i64 %60, %11
  %62 = getelementptr inbounds %"struct.WTF::KeyValuePair", %"struct.WTF::KeyValuePair"* %5, i64 %61
  %63 = getelementptr inbounds %"struct.WTF::KeyValuePair", %"struct.WTF::KeyValuePair"* %62, i64 0, i32 0, i32 0, i32 0
  %64 = load %"class.blink::ScriptWrappable"*, %"class.blink::ScriptWrappable"** %63, align 8
  %65 = icmp eq %"class.blink::ScriptWrappable"* %64, %1
  br i1 %65, label %66, label %51

66:                                               ; preds = %57, %9
  %67 = phi %"struct.WTF::KeyValuePair"* [ %33, %9 ], [ %62, %57 ]
  %68 = icmp eq %"struct.WTF::KeyValuePair"* %67, null
  br i1 %68, label %69, label %72

69:                                               ; preds = %51, %66, %2
  %70 = zext i32 %8 to i64
  %71 = getelementptr inbounds %"struct.WTF::KeyValuePair", %"struct.WTF::KeyValuePair"* %5, i64 %70
  br label %75

72:                                               ; preds = %66
  %73 = zext i32 %8 to i64
  %74 = getelementptr inbounds %"struct.WTF::KeyValuePair", %"struct.WTF::KeyValuePair"* %5, i64 %73
  br label %75

75:                                               ; preds = %69, %72
  %76 = phi %"struct.WTF::KeyValuePair"* [ %67, %72 ], [ %71, %69 ]
  %77 = phi %"struct.WTF::KeyValuePair"* [ %74, %72 ], [ %71, %69 ]
  %78 = insertvalue { %"struct.WTF::KeyValuePair"*, %"struct.WTF::KeyValuePair"* } undef, %"struct.WTF::KeyValuePair"* %76, 0
  %79 = insertvalue { %"struct.WTF::KeyValuePair"*, %"struct.WTF::KeyValuePair"* } %78, %"struct.WTF::KeyValuePair"* %77, 1
  ret { %"struct.WTF::KeyValuePair"*, %"struct.WTF::KeyValuePair"* } %79
}

declare %"class.WTF::StringImpl"* @_ZNK3WTF12AtomicString10LowerASCIIEv(%"class.WTF::AtomicString"*) local_unnamed_addr #2

; Function Attrs: nounwind readnone speculatable
declare { i33, i1 } @llvm.sadd.with.overflow.i33(i33, i33) #4

; Function Attrs: cold noreturn nounwind
declare void @llvm.trap() #5

declare void @_ZNK3WTF10StringImpl18DestroyIfNotStaticEv(%"class.WTF::StringImpl"*) local_unnamed_addr #2

declare void @_ZN5blink11StringCache28SetReturnValueFromStringSlowEN2v811ReturnValueINS1_5ValueEEEPN3WTF10StringImplE(%"class.blink::StringCache"*, i64*, %"class.WTF::StringImpl"*) local_unnamed_addr #2

declare void @_ZN5blink8bindings47PerformAttributeSetCEReactionsReflectTypeStringERKN2v820FunctionCallbackInfoINS1_5ValueEEERKNS_13QualifiedNameEPKcSB_(%"class.v8::FunctionCallbackInfo"* dereferenceable(24), %"class.blink::QualifiedName"* dereferenceable(8), i8*, i8*) local_unnamed_addr #2

declare %"class.blink::SVGAnimatedString"* @_ZNK5blink15SVGURIReference4hrefEv(%"class.blink::SVGURIReference"*) local_unnamed_addr #2

; Function Attrs: argmemonly nounwind
declare void @llvm.memset.p0i8.i64(i8* nocapture writeonly, i8, i64, i1 immarg) #1

declare void @_ZN5blink14ExceptionState14ThrowTypeErrorEPKc(%"class.blink::ExceptionState"*, i8*) local_unnamed_addr #2

declare void @_ZN5blink15SVGImageElement6decodeEPNS_11ScriptStateERNS_14ExceptionStateE(%"class.blink::ScriptPromise"* sret, %"class.blink::SVGImageElement"*, %"class.blink::ScriptState"*, %"class.blink::ExceptionState"* dereferenceable(72)) local_unnamed_addr #2

; Function Attrs: nounwind ssp uwtable
define linkonce_odr hidden void @_ZN5blink29ExceptionToRejectPromiseScopeD2Ev(%"class.blink::ExceptionToRejectPromiseScope"*) unnamed_addr #0 comdat align 2 {
  %2 = alloca %"class.blink::ScriptPromise", align 8
  %3 = getelementptr inbounds %"class.blink::ExceptionToRejectPromiseScope", %"class.blink::ExceptionToRejectPromiseScope"* %0, i64 0, i32 1
  %4 = load %"class.blink::ExceptionState"*, %"class.blink::ExceptionState"** %3, align 8
  %5 = getelementptr inbounds %"class.blink::ExceptionState", %"class.blink::ExceptionState"* %4, i64 0, i32 4
  %6 = load i32, i32* %5, align 8
  %7 = icmp eq i32 %6, 0
  br i1 %7, label %42, label %8

8:                                                ; preds = %1
  %9 = getelementptr inbounds %"class.blink::ExceptionToRejectPromiseScope", %"class.blink::ExceptionToRejectPromiseScope"* %0, i64 0, i32 0
  %10 = load %"class.v8::FunctionCallbackInfo"*, %"class.v8::FunctionCallbackInfo"** %9, align 8
  %11 = getelementptr inbounds %"class.v8::FunctionCallbackInfo", %"class.v8::FunctionCallbackInfo"* %10, i64 0, i32 0
  %12 = load i64*, i64** %11, align 8
  %13 = getelementptr inbounds i64, i64* %12, i64 1
  %14 = bitcast i64* %13 to %"class.v8::Isolate"**
  %15 = load %"class.v8::Isolate"*, %"class.v8::Isolate"** %14, align 8
  %16 = tail call %"class.v8::Context"* @_ZN2v87Isolate17GetCurrentContextEv(%"class.v8::Isolate"* %15) #6
  %17 = tail call %"class.blink::ScriptState"* @_ZN5blink11ScriptState4FromEN2v85LocalINS1_7ContextEEE(%"class.v8::Context"* %16) #6
  %18 = load %"class.v8::FunctionCallbackInfo"*, %"class.v8::FunctionCallbackInfo"** %9, align 8
  %19 = bitcast %"class.blink::ScriptPromise"* %2 to i8*
  call void @llvm.lifetime.start.p0i8(i64 32, i8* nonnull %19) #6
  %20 = load %"class.blink::ExceptionState"*, %"class.blink::ExceptionState"** %3, align 8
  call void @_ZN5blink13ScriptPromise6RejectEPNS_11ScriptStateERNS_14ExceptionStateE(%"class.blink::ScriptPromise"* nonnull sret %2, %"class.blink::ScriptState"* %17, %"class.blink::ExceptionState"* dereferenceable(72) %20) #6
  %21 = getelementptr inbounds %"class.blink::ScriptPromise", %"class.blink::ScriptPromise"* %2, i64 0, i32 1
  %22 = call %"class.v8::Value"* @_ZNK5blink11ScriptValue7V8ValueEv(%"class.blink::ScriptValue"* %21) #6
  %23 = getelementptr inbounds %"class.v8::FunctionCallbackInfo", %"class.v8::FunctionCallbackInfo"* %18, i64 0, i32 0
  %24 = load i64*, i64** %23, align 8
  %25 = getelementptr inbounds i64, i64* %24, i64 3
  %26 = icmp eq %"class.v8::Value"* %22, null
  %27 = bitcast %"class.v8::Value"* %22 to i64*
  %28 = getelementptr inbounds i64, i64* %24, i64 2
  %29 = select i1 %26, i64* %28, i64* %27, !prof !2
  %30 = load i64, i64* %29, align 8
  store i64 %30, i64* %25, align 8
  %31 = getelementptr inbounds %"class.blink::ScriptPromise", %"class.blink::ScriptPromise"* %2, i64 0, i32 1, i32 1, i32 1, i32 0
  %32 = load %"class.blink::DOMWrapperWorld"*, %"class.blink::DOMWrapperWorld"** %31, align 8
  %33 = icmp eq %"class.blink::DOMWrapperWorld"* %32, null
  br i1 %33, label %41, label %34

34:                                               ; preds = %8
  %35 = getelementptr inbounds %"class.blink::DOMWrapperWorld", %"class.blink::DOMWrapperWorld"* %32, i64 0, i32 0, i32 0, i32 0
  call void @_ZNK4base6subtle14RefCountedBase11ReleaseImplEv(%"class.base::subtle::RefCountedBase"* %35) #6
  %36 = getelementptr inbounds %"class.blink::DOMWrapperWorld", %"class.blink::DOMWrapperWorld"* %32, i64 0, i32 0, i32 0, i32 0, i32 0
  %37 = load i32, i32* %36, align 4
  %38 = icmp eq i32 %37, 0
  br i1 %38, label %39, label %41

39:                                               ; preds = %34
  call void @_ZN5blink15DOMWrapperWorldD1Ev(%"class.blink::DOMWrapperWorld"* nonnull %32) #6
  %40 = bitcast %"class.blink::DOMWrapperWorld"* %32 to i8*
  call void @free(i8* %40) #6
  br label %41

41:                                               ; preds = %8, %34, %39
  call void @llvm.lifetime.end.p0i8(i64 32, i8* nonnull %19) #6
  br label %42

42:                                               ; preds = %1, %41
  ret void
}

declare zeroext i1 @_ZN5blink16V8PerIsolateData11HasInstanceEPKNS_15WrapperTypeInfoEN2v85LocalINS4_5ValueEEE(%"class.blink::V8PerIsolateData"*, %"struct.blink::WrapperTypeInfo"*, %"class.v8::Value"*) local_unnamed_addr #2

declare %"class.v8::Value"* @_ZNK5blink11ScriptValue7V8ValueEv(%"class.blink::ScriptValue"*) local_unnamed_addr #2

declare void @_ZNK4base6subtle14RefCountedBase11ReleaseImplEv(%"class.base::subtle::RefCountedBase"*) local_unnamed_addr #2

; Function Attrs: nounwind
declare void @_ZN5blink15DOMWrapperWorldD1Ev(%"class.blink::DOMWrapperWorld"*) unnamed_addr #3

; Function Attrs: nounwind
declare void @free(i8* nocapture) local_unnamed_addr #3

declare void @_ZN5blink13ScriptPromise6RejectEPNS_11ScriptStateERNS_14ExceptionStateE(%"class.blink::ScriptPromise"* sret, %"class.blink::ScriptState"*, %"class.blink::ExceptionState"* dereferenceable(72)) local_unnamed_addr #2

declare zeroext i1 @_ZN2v87Isolate22IsExecutionTerminatingEv(%"class.v8::Isolate"*) local_unnamed_addr #2

declare %"class.v8::Value"* @_ZN2v87Isolate14ThrowExceptionENS_5LocalINS_5ValueEEE(%"class.v8::Isolate"*, %"class.v8::Value"*) local_unnamed_addr #2

declare i64* @_ZN2v811HandleScope12CreateHandleEPNS_8internal7IsolateEm(%"class.v8::internal::Isolate"*, i64) local_unnamed_addr #2

attributes #0 = { nounwind ssp uwtable "correctly-rounded-divide-sqrt-fp-math"="false" "disable-tail-calls"="false" "less-precise-fpmad"="false" "min-legal-vector-width"="0" "no-frame-pointer-elim"="false" "no-frame-pointer-elim-non-leaf" "no-infs-fp-math"="false" "no-jump-tables"="false" "no-nans-fp-math"="false" "no-signed-zeros-fp-math"="false" "no-trapping-math"="false" "null-pointer-is-valid"="true" "stack-protector-buffer-size"="4" "target-cpu"="x86-64" "target-features"="+cx8,+fxsr,+mmx,+sse,+sse2,+sse3,+x87" "unsafe-fp-math"="false" "use-soft-float"="false" }
attributes #1 = { argmemonly nounwind }
attributes #2 = { "correctly-rounded-divide-sqrt-fp-math"="false" "disable-tail-calls"="false" "less-precise-fpmad"="false" "no-frame-pointer-elim"="false" "no-frame-pointer-elim-non-leaf" "no-infs-fp-math"="false" "no-nans-fp-math"="false" "no-signed-zeros-fp-math"="false" "no-trapping-math"="false" "null-pointer-is-valid"="true" "stack-protector-buffer-size"="4" "target-cpu"="x86-64" "target-features"="+cx8,+fxsr,+mmx,+sse,+sse2,+sse3,+x87" "unsafe-fp-math"="false" "use-soft-float"="false" }
attributes #3 = { nounwind "correctly-rounded-divide-sqrt-fp-math"="false" "disable-tail-calls"="false" "less-precise-fpmad"="false" "no-frame-pointer-elim"="false" "no-frame-pointer-elim-non-leaf" "no-infs-fp-math"="false" "no-nans-fp-math"="false" "no-signed-zeros-fp-math"="false" "no-trapping-math"="false" "null-pointer-is-valid"="true" "stack-protector-buffer-size"="4" "target-cpu"="x86-64" "target-features"="+cx8,+fxsr,+mmx,+sse,+sse2,+sse3,+x87" "unsafe-fp-math"="false" "use-soft-float"="false" }
attributes #4 = { nounwind readnone speculatable }
attributes #5 = { cold noreturn nounwind }
attributes #6 = { nounwind }

!llvm.module.flags = !{!0, !1}

!0 = !{i32 1, !"wchar_size", i32 4}
!1 = !{i32 7, !"PIC Level", i32 2}
!2 = !{!"branch_weights", i32 1, i32 2000}
!3 = !{i8 0, i8 2}
